
hdaudio:     file format elf32-i386


Disassembly of section .init:

000010f4 <__entry>:
    10f4:	66 8c d0             	mov    %ss,%ax
    10f7:	8e d8                	mov    %eax,%ds
    10f9:	8e c0                	mov    %eax,%es
    10fb:	8e e0                	mov    %eax,%fs
    10fd:	b8 01 00 00 00       	mov    $0x1,%eax
    1102:	0f a2                	cpuid  
    1104:	0f ba e2 0b          	bt     $0xb,%edx
    1108:	73 0c                	jae    1116 <__entry+0x22>
    110a:	8d 05 e8 28 01 00    	lea    0x128e8,%eax
    1110:	c7 00 20 04 01 00    	movl   $0x10420,(%eax)
    1116:	6a 00                	push   $0x0
    1118:	6a 00                	push   $0x0
    111a:	89 e5                	mov    %esp,%ebp
    111c:	57                   	push   %edi
    111d:	e8 8e ed 00 00       	call   feb0 <__main@plt>

Disassembly of section .text:

00001140 <hda_codec_init>:
    1140:	55                   	push   %ebp
    1141:	89 e5                	mov    %esp,%ebp
    1143:	57                   	push   %edi
    1144:	56                   	push   %esi
    1145:	53                   	push   %ebx
    1146:	83 ec 74             	sub    $0x74,%esp
    1149:	8b 5d 0c             	mov    0xc(%ebp),%ebx
    114c:	68 14 01 00 00       	push   $0x114
    1151:	6a 01                	push   $0x1
    1153:	e8 88 ef 00 00       	call   100e0 <calloc@plt>
    1158:	83 c4 10             	add    $0x10,%esp
    115b:	89 c7                	mov    %eax,%edi
    115d:	85 c0                	test   %eax,%eax
    115f:	0f 84 b1 01 00 00    	je     1316 <hda_codec_init+0x1d6>
    1165:	8b 45 08             	mov    0x8(%ebp),%eax
    1168:	88 5f 04             	mov    %bl,0x4(%edi)
    116b:	89 07                	mov    %eax,(%edi)
    116d:	c7 87 10 01 00 00 ff 	movl   $0xffffffff,0x110(%edi)
    1174:	ff ff ff 
    1177:	c1 e3 1c             	shl    $0x1c,%ebx
    117a:	50                   	push   %eax
    117b:	8d 45 e4             	lea    -0x1c(%ebp),%eax
    117e:	81 cb 04 00 0f 00    	or     $0xf0004,%ebx
    1184:	50                   	push   %eax
    1185:	8b 45 08             	mov    0x8(%ebp),%eax
    1188:	53                   	push   %ebx
    1189:	50                   	push   %eax
    118a:	e8 21 18 00 00       	call   29b0 <hda_cmd>
    118f:	83 c4 10             	add    $0x10,%esp
    1192:	85 c0                	test   %eax,%eax
    1194:	0f 85 6e 01 00 00    	jne    1308 <hda_codec_init+0x1c8>
    119a:	8b 5d e4             	mov    -0x1c(%ebp),%ebx
    119d:	89 d8                	mov    %ebx,%eax
    119f:	81 e3 ff 00 00 00    	and    $0xff,%ebx
    11a5:	c1 e8 10             	shr    $0x10,%eax
    11a8:	25 ff 00 00 00       	and    $0xff,%eax
    11ad:	89 c6                	mov    %eax,%esi
    11af:	89 45 94             	mov    %eax,-0x6c(%ebp)
    11b2:	50                   	push   %eax
    11b3:	6a 00                	push   $0x0
    11b5:	68 b1 d2 00 00       	push   $0xd2b1
    11ba:	6a 03                	push   $0x3
    11bc:	e8 cf 41 00 00       	call   5390 <ddf_msg>
    11c1:	53                   	push   %ebx
    11c2:	01 f3                	add    %esi,%ebx
    11c4:	56                   	push   %esi
    11c5:	68 c5 d2 00 00       	push   $0xd2c5
    11ca:	6a 03                	push   $0x3
    11cc:	e8 bf 41 00 00       	call   5390 <ddf_msg>
    11d1:	83 c4 20             	add    $0x20,%esp
    11d4:	89 5d 8c             	mov    %ebx,-0x74(%ebp)
    11d7:	39 de                	cmp    %ebx,%esi
    11d9:	0f 8d a5 09 00 00    	jge    1b84 <hda_codec_init+0xa44>
    11df:	8b 45 94             	mov    -0x6c(%ebp),%eax
    11e2:	89 fe                	mov    %edi,%esi
    11e4:	c1 e0 14             	shl    $0x14,%eax
    11e7:	89 45 90             	mov    %eax,-0x70(%ebp)
    11ea:	50                   	push   %eax
    11eb:	8b 45 94             	mov    -0x6c(%ebp),%eax
    11ee:	50                   	push   %eax
    11ef:	68 dc d2 00 00       	push   $0xd2dc
    11f4:	6a 03                	push   $0x3
    11f6:	e8 95 41 00 00       	call   5390 <ddf_msg>
    11fb:	83 c4 0c             	add    $0xc,%esp
    11fe:	8d 45 e4             	lea    -0x1c(%ebp),%eax
    1201:	8b 5d 90             	mov    -0x70(%ebp),%ebx
    1204:	50                   	push   %eax
    1205:	31 c0                	xor    %eax,%eax
    1207:	8a 46 04             	mov    0x4(%esi),%al
    120a:	81 e3 00 00 f0 1f    	and    $0x1ff00000,%ebx
    1210:	c1 e0 1c             	shl    $0x1c,%eax
    1213:	09 d8                	or     %ebx,%eax
    1215:	0d 05 00 0f 00       	or     $0xf0005,%eax
    121a:	50                   	push   %eax
    121b:	8b 06                	mov    (%esi),%eax
    121d:	50                   	push   %eax
    121e:	e8 8d 17 00 00       	call   29b0 <hda_cmd>
    1223:	83 c4 10             	add    $0x10,%esp
    1226:	85 c0                	test   %eax,%eax
    1228:	0f 85 d4 00 00 00    	jne    1302 <hda_codec_init+0x1c2>
    122e:	8b 7d e4             	mov    -0x1c(%ebp),%edi
    1231:	50                   	push   %eax
    1232:	6a 00                	push   $0x0
    1234:	68 ec d2 00 00       	push   $0xd2ec
    1239:	6a 03                	push   $0x3
    123b:	e8 50 41 00 00       	call   5390 <ddf_msg>
    1240:	89 f8                	mov    %edi,%eax
    1242:	25 ff 00 00 00       	and    $0xff,%eax
    1247:	50                   	push   %eax
    1248:	89 f8                	mov    %edi,%eax
    124a:	c1 e8 08             	shr    $0x8,%eax
    124d:	83 e0 01             	and    $0x1,%eax
    1250:	50                   	push   %eax
    1251:	68 04 d3 00 00       	push   $0xd304
    1256:	6a 03                	push   $0x3
    1258:	e8 33 41 00 00       	call   5390 <ddf_msg>
    125d:	83 c4 1c             	add    $0x1c,%esp
    1260:	8d 45 d4             	lea    -0x2c(%ebp),%eax
    1263:	50                   	push   %eax
    1264:	31 c0                	xor    %eax,%eax
    1266:	8a 46 04             	mov    0x4(%esi),%al
    1269:	c1 e0 1c             	shl    $0x1c,%eax
    126c:	09 d8                	or     %ebx,%eax
    126e:	0d 11 00 0f 00       	or     $0xf0011,%eax
    1273:	50                   	push   %eax
    1274:	8b 06                	mov    (%esi),%eax
    1276:	50                   	push   %eax
    1277:	e8 34 17 00 00       	call   29b0 <hda_cmd>
    127c:	83 c4 10             	add    $0x10,%esp
    127f:	85 c0                	test   %eax,%eax
    1281:	75 7f                	jne    1302 <hda_codec_init+0x1c2>
    1283:	8b 45 d4             	mov    -0x2c(%ebp),%eax
    1286:	52                   	push   %edx
    1287:	31 d2                	xor    %edx,%edx
    1289:	89 c7                	mov    %eax,%edi
    128b:	c1 ef 10             	shr    $0x10,%edi
    128e:	88 c2                	mov    %al,%dl
    1290:	52                   	push   %edx
    1291:	0f b6 d4             	movzbl %ah,%edx
    1294:	52                   	push   %edx
    1295:	89 fa                	mov    %edi,%edx
    1297:	89 c7                	mov    %eax,%edi
    1299:	81 e2 ff 00 00 00    	and    $0xff,%edx
    129f:	c1 ef 1e             	shr    $0x1e,%edi
    12a2:	52                   	push   %edx
    12a3:	c1 e8 1f             	shr    $0x1f,%eax
    12a6:	89 fa                	mov    %edi,%edx
    12a8:	83 e2 01             	and    $0x1,%edx
    12ab:	52                   	push   %edx
    12ac:	50                   	push   %eax
    12ad:	68 90 d4 00 00       	push   $0xd490
    12b2:	6a 03                	push   $0x3
    12b4:	e8 d7 40 00 00       	call   5390 <ddf_msg>
    12b9:	83 c4 1c             	add    $0x1c,%esp
    12bc:	0f b6 7d 94          	movzbl -0x6c(%ebp),%edi
    12c0:	81 e7 ff 00 00 00    	and    $0xff,%edi
    12c6:	57                   	push   %edi
    12c7:	68 c0 d4 00 00       	push   $0xd4c0
    12cc:	6a 03                	push   $0x3
    12ce:	e8 bd 40 00 00       	call   5390 <ddf_msg>
    12d3:	83 c4 0c             	add    $0xc,%esp
    12d6:	8d 45 e4             	lea    -0x1c(%ebp),%eax
    12d9:	8b 55 90             	mov    -0x70(%ebp),%edx
    12dc:	8b 0e                	mov    (%esi),%ecx
    12de:	50                   	push   %eax
    12df:	31 c0                	xor    %eax,%eax
    12e1:	8a 46 04             	mov    0x4(%esi),%al
    12e4:	81 e2 00 00 f0 0f    	and    $0xff00000,%edx
    12ea:	c1 e0 1c             	shl    $0x1c,%eax
    12ed:	09 d0                	or     %edx,%eax
    12ef:	0d 00 05 0f 00       	or     $0xf0500,%eax
    12f4:	50                   	push   %eax
    12f5:	51                   	push   %ecx
    12f6:	e8 b5 16 00 00       	call   29b0 <hda_cmd>
    12fb:	83 c4 10             	add    $0x10,%esp
    12fe:	85 c0                	test   %eax,%eax
    1300:	74 1e                	je     1320 <hda_codec_init+0x1e0>
    1302:	89 f7                	mov    %esi,%edi
    1304:	8d 74 26 00          	lea    0x0(%esi,%eiz,1),%esi
    1308:	83 ec 0c             	sub    $0xc,%esp
    130b:	57                   	push   %edi
    130c:	31 ff                	xor    %edi,%edi
    130e:	e8 3d f1 00 00       	call   10450 <free@plt>
    1313:	83 c4 10             	add    $0x10,%esp
    1316:	8d 65 f4             	lea    -0xc(%ebp),%esp
    1319:	89 f8                	mov    %edi,%eax
    131b:	5b                   	pop    %ebx
    131c:	5e                   	pop    %esi
    131d:	5f                   	pop    %edi
    131e:	5d                   	pop    %ebp
    131f:	c3                   	ret    
    1320:	8b 45 e4             	mov    -0x1c(%ebp),%eax
    1323:	50                   	push   %eax
    1324:	57                   	push   %edi
    1325:	68 1b d3 00 00       	push   $0xd31b
    132a:	6a 03                	push   $0x3
    132c:	e8 5f 40 00 00       	call   5390 <ddf_msg>
    1331:	83 c4 0c             	add    $0xc,%esp
    1334:	8d 45 e4             	lea    -0x1c(%ebp),%eax
    1337:	50                   	push   %eax
    1338:	31 c0                	xor    %eax,%eax
    133a:	8a 46 04             	mov    0x4(%esi),%al
    133d:	c1 e0 1c             	shl    $0x1c,%eax
    1340:	09 c3                	or     %eax,%ebx
    1342:	8b 06                	mov    (%esi),%eax
    1344:	81 cb 04 00 0f 00    	or     $0xf0004,%ebx
    134a:	53                   	push   %ebx
    134b:	50                   	push   %eax
    134c:	e8 5f 16 00 00       	call   29b0 <hda_cmd>
    1351:	83 c4 10             	add    $0x10,%esp
    1354:	85 c0                	test   %eax,%eax
    1356:	75 aa                	jne    1302 <hda_codec_init+0x1c2>
    1358:	8b 5d e4             	mov    -0x1c(%ebp),%ebx
    135b:	89 d8                	mov    %ebx,%eax
    135d:	81 e3 ff 00 00 00    	and    $0xff,%ebx
    1363:	c1 e8 10             	shr    $0x10,%eax
    1366:	25 ff 00 00 00       	and    $0xff,%eax
    136b:	89 c7                	mov    %eax,%edi
    136d:	89 45 bc             	mov    %eax,-0x44(%ebp)
    1370:	50                   	push   %eax
    1371:	6a 00                	push   $0x0
    1373:	68 b1 d2 00 00       	push   $0xd2b1
    1378:	6a 03                	push   $0x3
    137a:	e8 11 40 00 00       	call   5390 <ddf_msg>
    137f:	53                   	push   %ebx
    1380:	01 fb                	add    %edi,%ebx
    1382:	57                   	push   %edi
    1383:	68 35 d3 00 00       	push   $0xd335
    1388:	6a 03                	push   $0x3
    138a:	e8 01 40 00 00       	call   5390 <ddf_msg>
    138f:	83 c4 20             	add    $0x20,%esp
    1392:	89 5d 9c             	mov    %ebx,-0x64(%ebp)
    1395:	39 df                	cmp    %ebx,%edi
    1397:	0f 8d c6 07 00 00    	jge    1b63 <hda_codec_init+0xa23>
    139d:	8b 45 bc             	mov    -0x44(%ebp),%eax
    13a0:	89 f7                	mov    %esi,%edi
    13a2:	c1 e0 14             	shl    $0x14,%eax
    13a5:	89 45 b4             	mov    %eax,-0x4c(%ebp)
    13a8:	eb 66                	jmp    1410 <hda_codec_init+0x2d0>
    13aa:	8d b6 00 00 00 00    	lea    0x0(%esi),%esi
    13b0:	8b 45 b8             	mov    -0x48(%ebp),%eax
    13b3:	48                   	dec    %eax
    13b4:	83 f8 04             	cmp    $0x4,%eax
    13b7:	0f 86 23 01 00 00    	jbe    14e0 <hda_codec_init+0x3a0>
    13bd:	83 7d b8 04          	cmpl   $0x4,-0x48(%ebp)
    13c1:	0f 84 8e 02 00 00    	je     1655 <hda_codec_init+0x515>
    13c7:	90                   	nop
    13c8:	8b 4d b8             	mov    -0x48(%ebp),%ecx
    13cb:	85 c9                	test   %ecx,%ecx
    13cd:	0f 84 fd 05 00 00    	je     19d0 <hda_codec_init+0x890>
    13d3:	83 7d b8 01          	cmpl   $0x1,-0x48(%ebp)
    13d7:	0f 84 7c 06 00 00    	je     1a59 <hda_codec_init+0x919>
    13dd:	f6 45 b0 04          	testb  $0x4,-0x50(%ebp)
    13e1:	0f 85 f9 04 00 00    	jne    18e0 <hda_codec_init+0x7a0>
    13e7:	f6 45 b0 02          	testb  $0x2,-0x50(%ebp)
    13eb:	0f 85 cf 03 00 00    	jne    17c0 <hda_codec_init+0x680>
    13f1:	8b 55 bc             	mov    -0x44(%ebp),%edx
    13f4:	8b 4d b4             	mov    -0x4c(%ebp),%ecx
    13f7:	42                   	inc    %edx
    13f8:	81 c1 00 00 10 00    	add    $0x100000,%ecx
    13fe:	89 55 bc             	mov    %edx,-0x44(%ebp)
    1401:	89 4d b4             	mov    %ecx,-0x4c(%ebp)
    1404:	8b 45 bc             	mov    -0x44(%ebp),%eax
    1407:	3b 45 9c             	cmp    -0x64(%ebp),%eax
    140a:	0f 84 51 07 00 00    	je     1b61 <hda_codec_init+0xa21>
    1410:	8b 45 b4             	mov    -0x4c(%ebp),%eax
    1413:	25 00 00 f0 1f       	and    $0x1ff00000,%eax
    1418:	89 c6                	mov    %eax,%esi
    141a:	89 45 a0             	mov    %eax,-0x60(%ebp)
    141d:	50                   	push   %eax
    141e:	8d 45 e4             	lea    -0x1c(%ebp),%eax
    1421:	50                   	push   %eax
    1422:	31 c0                	xor    %eax,%eax
    1424:	8a 47 04             	mov    0x4(%edi),%al
    1427:	c1 e0 1c             	shl    $0x1c,%eax
    142a:	09 f0                	or     %esi,%eax
    142c:	0d 09 00 0f 00       	or     $0xf0009,%eax
    1431:	50                   	push   %eax
    1432:	8b 07                	mov    (%edi),%eax
    1434:	50                   	push   %eax
    1435:	e8 76 15 00 00       	call   29b0 <hda_cmd>
    143a:	83 c4 10             	add    $0x10,%esp
    143d:	85 c0                	test   %eax,%eax
    143f:	0f 85 c3 fe ff ff    	jne    1308 <hda_codec_init+0x1c8>
    1445:	8b 45 e4             	mov    -0x1c(%ebp),%eax
    1448:	83 ec 0c             	sub    $0xc,%esp
    144b:	89 c6                	mov    %eax,%esi
    144d:	89 45 b0             	mov    %eax,-0x50(%ebp)
    1450:	c1 e8 14             	shr    $0x14,%eax
    1453:	56                   	push   %esi
    1454:	83 e0 0f             	and    $0xf,%eax
    1457:	50                   	push   %eax
    1458:	89 45 b8             	mov    %eax,-0x48(%ebp)
    145b:	8b 45 bc             	mov    -0x44(%ebp),%eax
    145e:	50                   	push   %eax
    145f:	68 43 d3 00 00       	push   $0xd343
    1464:	6a 03                	push   $0x3
    1466:	e8 25 3f 00 00       	call   5390 <ddf_msg>
    146b:	89 f0                	mov    %esi,%eax
    146d:	83 c4 20             	add    $0x20,%esp
    1470:	f6 c4 04             	test   $0x4,%ah
    1473:	0f 84 37 ff ff ff    	je     13b0 <hda_codec_init+0x270>
    1479:	31 db                	xor    %ebx,%ebx
    147b:	50                   	push   %eax
    147c:	8a 5d bc             	mov    -0x44(%ebp),%bl
    147f:	53                   	push   %ebx
    1480:	68 c0 d4 00 00       	push   $0xd4c0
    1485:	6a 03                	push   $0x3
    1487:	e8 04 3f 00 00       	call   5390 <ddf_msg>
    148c:	83 c4 0c             	add    $0xc,%esp
    148f:	8d 45 e4             	lea    -0x1c(%ebp),%eax
    1492:	8b 55 b4             	mov    -0x4c(%ebp),%edx
    1495:	50                   	push   %eax
    1496:	31 c0                	xor    %eax,%eax
    1498:	8a 47 04             	mov    0x4(%edi),%al
    149b:	81 e2 00 00 f0 0f    	and    $0xff00000,%edx
    14a1:	c1 e0 1c             	shl    $0x1c,%eax
    14a4:	09 d0                	or     %edx,%eax
    14a6:	0d 00 05 0f 00       	or     $0xf0500,%eax
    14ab:	50                   	push   %eax
    14ac:	8b 07                	mov    (%edi),%eax
    14ae:	50                   	push   %eax
    14af:	e8 fc 14 00 00       	call   29b0 <hda_cmd>
    14b4:	83 c4 10             	add    $0x10,%esp
    14b7:	85 c0                	test   %eax,%eax
    14b9:	0f 85 49 fe ff ff    	jne    1308 <hda_codec_init+0x1c8>
    14bf:	8b 45 e4             	mov    -0x1c(%ebp),%eax
    14c2:	50                   	push   %eax
    14c3:	53                   	push   %ebx
    14c4:	68 1b d3 00 00       	push   $0xd31b
    14c9:	6a 03                	push   $0x3
    14cb:	e8 c0 3e 00 00       	call   5390 <ddf_msg>
    14d0:	8b 45 b8             	mov    -0x48(%ebp),%eax
    14d3:	48                   	dec    %eax
    14d4:	83 c4 10             	add    $0x10,%esp
    14d7:	83 f8 04             	cmp    $0x4,%eax
    14da:	0f 87 dd fe ff ff    	ja     13bd <hda_codec_init+0x27d>
    14e0:	31 c0                	xor    %eax,%eax
    14e2:	53                   	push   %ebx
    14e3:	8a 45 bc             	mov    -0x44(%ebp),%al
    14e6:	50                   	push   %eax
    14e7:	68 5e d3 00 00       	push   $0xd35e
    14ec:	6a 03                	push   $0x3
    14ee:	e8 9d 3e 00 00       	call   5390 <ddf_msg>
    14f3:	8b 45 b4             	mov    -0x4c(%ebp),%eax
    14f6:	83 c4 0c             	add    $0xc,%esp
    14f9:	25 00 00 f0 0f       	and    $0xff00000,%eax
    14fe:	89 c6                	mov    %eax,%esi
    1500:	8d 45 e4             	lea    -0x1c(%ebp),%eax
    1503:	50                   	push   %eax
    1504:	31 c0                	xor    %eax,%eax
    1506:	8a 47 04             	mov    0x4(%edi),%al
    1509:	89 75 a4             	mov    %esi,-0x5c(%ebp)
    150c:	c1 e0 1c             	shl    $0x1c,%eax
    150f:	09 f0                	or     %esi,%eax
    1511:	8b 37                	mov    (%edi),%esi
    1513:	0d 0e 00 0f 00       	or     $0xf000e,%eax
    1518:	50                   	push   %eax
    1519:	56                   	push   %esi
    151a:	e8 91 14 00 00       	call   29b0 <hda_cmd>
    151f:	83 c4 10             	add    $0x10,%esp
    1522:	89 c6                	mov    %eax,%esi
    1524:	85 c0                	test   %eax,%eax
    1526:	0f 85 c5 05 00 00    	jne    1af1 <hda_codec_init+0x9b1>
    152c:	8b 45 e4             	mov    -0x1c(%ebp),%eax
    152f:	89 c3                	mov    %eax,%ebx
    1531:	83 e0 7f             	and    $0x7f,%eax
    1534:	89 c2                	mov    %eax,%edx
    1536:	81 e3 80 00 00 00    	and    $0x80,%ebx
    153c:	89 45 98             	mov    %eax,-0x68(%ebp)
    153f:	4a                   	dec    %edx
    1540:	0f 8e c1 05 00 00    	jle    1b07 <hda_codec_init+0x9c7>
    1546:	8d 55 e4             	lea    -0x1c(%ebp),%edx
    1549:	50                   	push   %eax
    154a:	31 c0                	xor    %eax,%eax
    154c:	52                   	push   %edx
    154d:	8a 47 04             	mov    0x4(%edi),%al
    1550:	8b 55 a4             	mov    -0x5c(%ebp),%edx
    1553:	c1 e0 1c             	shl    $0x1c,%eax
    1556:	8b 0f                	mov    (%edi),%ecx
    1558:	09 d0                	or     %edx,%eax
    155a:	0d 00 01 0f 00       	or     $0xf0100,%eax
    155f:	50                   	push   %eax
    1560:	51                   	push   %ecx
    1561:	e8 4a 14 00 00       	call   29b0 <hda_cmd>
    1566:	83 c4 10             	add    $0x10,%esp
    1569:	85 c0                	test   %eax,%eax
    156b:	0f 85 da 05 00 00    	jne    1b4b <hda_codec_init+0xa0b>
    1571:	83 fb 01             	cmp    $0x1,%ebx
    1574:	89 7d ac             	mov    %edi,-0x54(%ebp)
    1577:	19 c0                	sbb    %eax,%eax
    1579:	8b 7d 98             	mov    -0x68(%ebp),%edi
    157c:	83 e0 02             	and    $0x2,%eax
    157f:	83 c0 02             	add    $0x2,%eax
    1582:	83 fb 01             	cmp    $0x1,%ebx
    1585:	89 45 a8             	mov    %eax,-0x58(%ebp)
    1588:	19 c0                	sbb    %eax,%eax
    158a:	83 e0 f8             	and    $0xfffffff8,%eax
    158d:	83 c0 10             	add    $0x10,%eax
    1590:	83 fb 01             	cmp    $0x1,%ebx
    1593:	89 45 c0             	mov    %eax,-0x40(%ebp)
    1596:	19 c0                	sbb    %eax,%eax
    1598:	25 00 01 ff ff       	and    $0xffff0100,%eax
    159d:	05 ff ff 00 00       	add    $0xffff,%eax
    15a2:	39 fe                	cmp    %edi,%esi
    15a4:	89 45 c4             	mov    %eax,-0x3c(%ebp)
    15a7:	0f 8d 9b 00 00 00    	jge    1648 <hda_codec_init+0x508>
    15ad:	8d 76 00             	lea    0x0(%esi),%esi
    15b0:	8b 55 ac             	mov    -0x54(%ebp),%edx
    15b3:	8d 45 e0             	lea    -0x20(%ebp),%eax
    15b6:	53                   	push   %ebx
    15b7:	50                   	push   %eax
    15b8:	31 c0                	xor    %eax,%eax
    15ba:	8b 4d a4             	mov    -0x5c(%ebp),%ecx
    15bd:	8a 42 04             	mov    0x4(%edx),%al
    15c0:	8b 1a                	mov    (%edx),%ebx
    15c2:	c1 e0 1c             	shl    $0x1c,%eax
    15c5:	09 c8                	or     %ecx,%eax
    15c7:	0d 00 02 0f 00       	or     $0xf0200,%eax
    15cc:	09 f0                	or     %esi,%eax
    15ce:	50                   	push   %eax
    15cf:	53                   	push   %ebx
    15d0:	e8 db 13 00 00       	call   29b0 <hda_cmd>
    15d5:	83 c4 10             	add    $0x10,%esp
    15d8:	85 c0                	test   %eax,%eax
    15da:	0f 85 33 05 00 00    	jne    1b13 <hda_codec_init+0x9d3>
    15e0:	8b 55 a8             	mov    -0x58(%ebp),%edx
    15e3:	8b 45 e0             	mov    -0x20(%ebp),%eax
    15e6:	8d 1c 32             	lea    (%edx,%esi,1),%ebx
    15e9:	89 da                	mov    %ebx,%edx
    15eb:	89 f3                	mov    %esi,%ebx
    15ed:	89 d6                	mov    %edx,%esi
    15ef:	eb 31                	jmp    1622 <hda_codec_init+0x4e2>
    15f1:	8d b4 26 00 00 00 00 	lea    0x0(%esi,%eiz,1),%esi
    15f8:	8b 55 c4             	mov    -0x3c(%ebp),%edx
    15fb:	51                   	push   %ecx
    15fc:	21 d0                	and    %edx,%eax
    15fe:	43                   	inc    %ebx
    15ff:	50                   	push   %eax
    1600:	68 79 d3 00 00       	push   $0xd379
    1605:	6a 03                	push   $0x3
    1607:	e8 84 3d 00 00       	call   5390 <ddf_msg>
    160c:	8b 45 e0             	mov    -0x20(%ebp),%eax
    160f:	8a 4d c0             	mov    -0x40(%ebp),%cl
    1612:	d3 e8                	shr    %cl,%eax
    1614:	83 c4 10             	add    $0x10,%esp
    1617:	89 45 e0             	mov    %eax,-0x20(%ebp)
    161a:	39 f3                	cmp    %esi,%ebx
    161c:	74 1a                	je     1638 <hda_codec_init+0x4f8>
    161e:	39 fb                	cmp    %edi,%ebx
    1620:	74 26                	je     1648 <hda_codec_init+0x508>
    1622:	b9 26 fb 00 00       	mov    $0xfb26,%ecx
    1627:	39 5d e4             	cmp    %ebx,-0x1c(%ebp)
    162a:	75 cc                	jne    15f8 <hda_codec_init+0x4b8>
    162c:	b9 9f d2 00 00       	mov    $0xd29f,%ecx
    1631:	eb c5                	jmp    15f8 <hda_codec_init+0x4b8>
    1633:	90                   	nop
    1634:	8d 74 26 00          	lea    0x0(%esi,%eiz,1),%esi
    1638:	89 de                	mov    %ebx,%esi
    163a:	39 fe                	cmp    %edi,%esi
    163c:	0f 8c 6e ff ff ff    	jl     15b0 <hda_codec_init+0x470>
    1642:	8d b6 00 00 00 00    	lea    0x0(%esi),%esi
    1648:	8b 7d ac             	mov    -0x54(%ebp),%edi
    164b:	83 7d b8 04          	cmpl   $0x4,-0x48(%ebp)
    164f:	0f 85 73 fd ff ff    	jne    13c8 <hda_codec_init+0x288>
    1655:	8d 45 d8             	lea    -0x28(%ebp),%eax
    1658:	53                   	push   %ebx
    1659:	50                   	push   %eax
    165a:	31 c0                	xor    %eax,%eax
    165c:	8a 47 04             	mov    0x4(%edi),%al
    165f:	8b 75 b4             	mov    -0x4c(%ebp),%esi
    1662:	c1 e0 1c             	shl    $0x1c,%eax
    1665:	81 e6 00 00 f0 0f    	and    $0xff00000,%esi
    166b:	09 f0                	or     %esi,%eax
    166d:	0d 00 1c 0f 00       	or     $0xf1c00,%eax
    1672:	50                   	push   %eax
    1673:	8b 07                	mov    (%edi),%eax
    1675:	50                   	push   %eax
    1676:	e8 35 13 00 00       	call   29b0 <hda_cmd>
    167b:	83 c4 10             	add    $0x10,%esp
    167e:	85 c0                	test   %eax,%eax
    1680:	0f 85 82 fc ff ff    	jne    1308 <hda_codec_init+0x1c8>
    1686:	31 db                	xor    %ebx,%ebx
    1688:	8b 55 d8             	mov    -0x28(%ebp),%edx
    168b:	8a 5d bc             	mov    -0x44(%ebp),%bl
    168e:	52                   	push   %edx
    168f:	53                   	push   %ebx
    1690:	68 81 d3 00 00       	push   $0xd381
    1695:	6a 03                	push   $0x3
    1697:	e8 f4 3c 00 00       	call   5390 <ddf_msg>
    169c:	83 c4 0c             	add    $0xc,%esp
    169f:	8d 45 dc             	lea    -0x24(%ebp),%eax
    16a2:	8b 0f                	mov    (%edi),%ecx
    16a4:	50                   	push   %eax
    16a5:	31 c0                	xor    %eax,%eax
    16a7:	8a 47 04             	mov    0x4(%edi),%al
    16aa:	c1 e0 1c             	shl    $0x1c,%eax
    16ad:	09 f0                	or     %esi,%eax
    16af:	0d 0c 00 0f 00       	or     $0xf000c,%eax
    16b4:	50                   	push   %eax
    16b5:	51                   	push   %ecx
    16b6:	e8 f5 12 00 00       	call   29b0 <hda_cmd>
    16bb:	83 c4 10             	add    $0x10,%esp
    16be:	85 c0                	test   %eax,%eax
    16c0:	0f 85 42 fc ff ff    	jne    1308 <hda_codec_init+0x1c8>
    16c6:	8b 45 dc             	mov    -0x24(%ebp),%eax
    16c9:	50                   	push   %eax
    16ca:	53                   	push   %ebx
    16cb:	68 98 d3 00 00       	push   $0xd398
    16d0:	6a 03                	push   $0x3
    16d2:	e8 b9 3c 00 00       	call   5390 <ddf_msg>
    16d7:	8b 55 dc             	mov    -0x24(%ebp),%edx
    16da:	83 c4 10             	add    $0x10,%esp
    16dd:	f7 c2 00 00 01 00    	test   $0x10000,%edx
    16e3:	0f 85 dd 04 00 00    	jne    1bc6 <hda_codec_init+0xa86>
    16e9:	f6 c2 10             	test   $0x10,%dl
    16ec:	0f 85 b7 04 00 00    	jne    1ba9 <hda_codec_init+0xa69>
    16f2:	b0 20                	mov    $0x20,%al
    16f4:	31 c9                	xor    %ecx,%ecx
    16f6:	f6 c2 20             	test   $0x20,%dl
    16f9:	74 1c                	je     1717 <hda_codec_init+0x5d7>
    16fb:	88 45 c4             	mov    %al,-0x3c(%ebp)
    16fe:	50                   	push   %eax
    16ff:	53                   	push   %ebx
    1700:	68 e3 d3 00 00       	push   $0xd3e3
    1705:	6a 03                	push   $0x3
    1707:	e8 84 3c 00 00       	call   5390 <ddf_msg>
    170c:	8a 45 c4             	mov    -0x3c(%ebp),%al
    170f:	8b 55 dc             	mov    -0x24(%ebp),%edx
    1712:	83 c4 10             	add    $0x10,%esp
    1715:	88 c1                	mov    %al,%cl
    1717:	83 e2 08             	and    $0x8,%edx
    171a:	74 1a                	je     1736 <hda_codec_init+0x5f6>
    171c:	88 4d c4             	mov    %cl,-0x3c(%ebp)
    171f:	50                   	push   %eax
    1720:	53                   	push   %ebx
    1721:	68 4c d5 00 00       	push   $0xd54c
    1726:	6a 03                	push   $0x3
    1728:	e8 63 3c 00 00       	call   5390 <ddf_msg>
    172d:	8a 4d c4             	mov    -0x3c(%ebp),%cl
    1730:	83 c4 10             	add    $0x10,%esp
    1733:	83 c9 80             	or     $0xffffff80,%ecx
    1736:	31 d2                	xor    %edx,%edx
    1738:	88 ca                	mov    %cl,%dl
    173a:	52                   	push   %edx
    173b:	53                   	push   %ebx
    173c:	68 fc d3 00 00       	push   $0xd3fc
    1741:	6a 03                	push   $0x3
    1743:	89 55 c4             	mov    %edx,-0x3c(%ebp)
    1746:	e8 45 3c 00 00       	call   5390 <ddf_msg>
    174b:	83 c4 0c             	add    $0xc,%esp
    174e:	8d 45 e4             	lea    -0x1c(%ebp),%eax
    1751:	8b 55 c4             	mov    -0x3c(%ebp),%edx
    1754:	50                   	push   %eax
    1755:	31 c0                	xor    %eax,%eax
    1757:	8a 47 04             	mov    0x4(%edi),%al
    175a:	c1 e0 1c             	shl    $0x1c,%eax
    175d:	09 f0                	or     %esi,%eax
    175f:	0d 00 07 07 00       	or     $0x70700,%eax
    1764:	09 d0                	or     %edx,%eax
    1766:	50                   	push   %eax
    1767:	8b 07                	mov    (%edi),%eax
    1769:	50                   	push   %eax
    176a:	e8 41 12 00 00       	call   29b0 <hda_cmd>
    176f:	83 c4 10             	add    $0x10,%esp
    1772:	85 c0                	test   %eax,%eax
    1774:	0f 85 8e fb ff ff    	jne    1308 <hda_codec_init+0x1c8>
    177a:	50                   	push   %eax
    177b:	8d 45 e4             	lea    -0x1c(%ebp),%eax
    177e:	50                   	push   %eax
    177f:	31 c0                	xor    %eax,%eax
    1781:	8a 47 04             	mov    0x4(%edi),%al
    1784:	c1 e0 1c             	shl    $0x1c,%eax
    1787:	09 f0                	or     %esi,%eax
    1789:	0d 00 07 0f 00       	or     $0xf0700,%eax
    178e:	50                   	push   %eax
    178f:	8b 07                	mov    (%edi),%eax
    1791:	50                   	push   %eax
    1792:	e8 19 12 00 00       	call   29b0 <hda_cmd>
    1797:	83 c4 10             	add    $0x10,%esp
    179a:	85 c0                	test   %eax,%eax
    179c:	0f 85 66 fb ff ff    	jne    1308 <hda_codec_init+0x1c8>
    17a2:	31 c0                	xor    %eax,%eax
    17a4:	8a 45 e4             	mov    -0x1c(%ebp),%al
    17a7:	50                   	push   %eax
    17a8:	53                   	push   %ebx
    17a9:	68 17 d4 00 00       	push   $0xd417
    17ae:	6a 03                	push   $0x3
    17b0:	e8 db 3b 00 00       	call   5390 <ddf_msg>
    17b5:	83 c4 10             	add    $0x10,%esp
    17b8:	e9 20 fc ff ff       	jmp    13dd <hda_codec_init+0x29d>
    17bd:	8d 76 00             	lea    0x0(%esi),%esi
    17c0:	8b 45 b4             	mov    -0x4c(%ebp),%eax
    17c3:	53                   	push   %ebx
    17c4:	25 00 00 f0 0f       	and    $0xff00000,%eax
    17c9:	89 c6                	mov    %eax,%esi
    17cb:	89 45 c4             	mov    %eax,-0x3c(%ebp)
    17ce:	8d 45 d8             	lea    -0x28(%ebp),%eax
    17d1:	50                   	push   %eax
    17d2:	31 c0                	xor    %eax,%eax
    17d4:	8a 47 04             	mov    0x4(%edi),%al
    17d7:	c1 e0 1c             	shl    $0x1c,%eax
    17da:	09 f0                	or     %esi,%eax
    17dc:	8b 37                	mov    (%edi),%esi
    17de:	0d 12 00 0f 00       	or     $0xf0012,%eax
    17e3:	50                   	push   %eax
    17e4:	56                   	push   %esi
    17e5:	e8 c6 11 00 00       	call   29b0 <hda_cmd>
    17ea:	83 c4 10             	add    $0x10,%esp
    17ed:	89 c3                	mov    %eax,%ebx
    17ef:	85 c0                	test   %eax,%eax
    17f1:	0f 85 fa fb ff ff    	jne    13f1 <hda_codec_init+0x2b1>
    17f7:	8b 45 d8             	mov    -0x28(%ebp),%eax
    17fa:	89 c6                	mov    %eax,%esi
    17fc:	83 e6 7f             	and    $0x7f,%esi
    17ff:	56                   	push   %esi
    1800:	50                   	push   %eax
    1801:	68 e8 d5 00 00       	push   $0xd5e8
    1806:	6a 03                	push   $0x3
    1808:	81 c6 00 70 00 00    	add    $0x7000,%esi
    180e:	e8 7d 3b 00 00       	call   5390 <ddf_msg>
    1813:	83 c4 10             	add    $0x10,%esp
    1816:	66 90                	xchg   %ax,%ax
    1818:	50                   	push   %eax
    1819:	8d 45 e4             	lea    -0x1c(%ebp),%eax
    181c:	50                   	push   %eax
    181d:	31 c0                	xor    %eax,%eax
    181f:	8a 47 04             	mov    0x4(%edi),%al
    1822:	8b 55 c4             	mov    -0x3c(%ebp),%edx
    1825:	c1 e0 1c             	shl    $0x1c,%eax
    1828:	8b 0f                	mov    (%edi),%ecx
    182a:	09 d0                	or     %edx,%eax
    182c:	31 d2                	xor    %edx,%edx
    182e:	0d 00 00 03 00       	or     $0x30000,%eax
    1833:	66 89 f2             	mov    %si,%dx
    1836:	09 d0                	or     %edx,%eax
    1838:	50                   	push   %eax
    1839:	51                   	push   %ecx
    183a:	e8 71 11 00 00       	call   29b0 <hda_cmd>
    183f:	83 c4 10             	add    $0x10,%esp
    1842:	85 c0                	test   %eax,%eax
    1844:	0f 85 a7 fb ff ff    	jne    13f1 <hda_codec_init+0x2b1>
    184a:	50                   	push   %eax
    184b:	8d 45 dc             	lea    -0x24(%ebp),%eax
    184e:	50                   	push   %eax
    184f:	31 c0                	xor    %eax,%eax
    1851:	8a 47 04             	mov    0x4(%edi),%al
    1854:	8b 55 c4             	mov    -0x3c(%ebp),%edx
    1857:	c1 e0 1c             	shl    $0x1c,%eax
    185a:	8b 0f                	mov    (%edi),%ecx
    185c:	09 d0                	or     %edx,%eax
    185e:	0d 00 00 0b 00       	or     $0xb0000,%eax
    1863:	09 d8                	or     %ebx,%eax
    1865:	50                   	push   %eax
    1866:	51                   	push   %ecx
    1867:	e8 44 11 00 00       	call   29b0 <hda_cmd>
    186c:	83 c4 10             	add    $0x10,%esp
    186f:	85 c0                	test   %eax,%eax
    1871:	0f 85 7a fb ff ff    	jne    13f1 <hda_codec_init+0x2b1>
    1877:	50                   	push   %eax
    1878:	8d 45 e0             	lea    -0x20(%ebp),%eax
    187b:	50                   	push   %eax
    187c:	31 c0                	xor    %eax,%eax
    187e:	8a 47 04             	mov    0x4(%edi),%al
    1881:	8b 55 c4             	mov    -0x3c(%ebp),%edx
    1884:	c1 e0 1c             	shl    $0x1c,%eax
    1887:	8b 0f                	mov    (%edi),%ecx
    1889:	09 d0                	or     %edx,%eax
    188b:	8d 93 00 20 00 00    	lea    0x2000(%ebx),%edx
    1891:	0d 00 00 0b 00       	or     $0xb0000,%eax
    1896:	09 d0                	or     %edx,%eax
    1898:	50                   	push   %eax
    1899:	51                   	push   %ecx
    189a:	e8 11 11 00 00       	call   29b0 <hda_cmd>
    189f:	83 c4 10             	add    $0x10,%esp
    18a2:	85 c0                	test   %eax,%eax
    18a4:	0f 85 47 fb ff ff    	jne    13f1 <hda_codec_init+0x2b1>
    18aa:	83 ec 0c             	sub    $0xc,%esp
    18ad:	8b 45 e0             	mov    -0x20(%ebp),%eax
    18b0:	81 c6 00 01 00 00    	add    $0x100,%esi
    18b6:	50                   	push   %eax
    18b7:	8b 45 dc             	mov    -0x24(%ebp),%eax
    18ba:	50                   	push   %eax
    18bb:	53                   	push   %ebx
    18bc:	43                   	inc    %ebx
    18bd:	68 08 d6 00 00       	push   $0xd608
    18c2:	6a 03                	push   $0x3
    18c4:	e8 c7 3a 00 00       	call   5390 <ddf_msg>
    18c9:	83 c4 20             	add    $0x20,%esp
    18cc:	83 fb 0f             	cmp    $0xf,%ebx
    18cf:	0f 85 43 ff ff ff    	jne    1818 <hda_codec_init+0x6d8>
    18d5:	e9 17 fb ff ff       	jmp    13f1 <hda_codec_init+0x2b1>
    18da:	8d b6 00 00 00 00    	lea    0x0(%esi),%esi
    18e0:	8d 45 dc             	lea    -0x24(%ebp),%eax
    18e3:	51                   	push   %ecx
    18e4:	50                   	push   %eax
    18e5:	31 c0                	xor    %eax,%eax
    18e7:	8a 47 04             	mov    0x4(%edi),%al
    18ea:	8b 5d b4             	mov    -0x4c(%ebp),%ebx
    18ed:	81 e3 00 00 f0 0f    	and    $0xff00000,%ebx
    18f3:	8b 37                	mov    (%edi),%esi
    18f5:	c1 e0 1c             	shl    $0x1c,%eax
    18f8:	09 d8                	or     %ebx,%eax
    18fa:	0d 12 00 0f 00       	or     $0xf0012,%eax
    18ff:	50                   	push   %eax
    1900:	56                   	push   %esi
    1901:	e8 aa 10 00 00       	call   29b0 <hda_cmd>
    1906:	83 c4 10             	add    $0x10,%esp
    1909:	85 c0                	test   %eax,%eax
    190b:	0f 85 d6 fa ff ff    	jne    13e7 <hda_codec_init+0x2a7>
    1911:	8b 45 dc             	mov    -0x24(%ebp),%eax
    1914:	89 c6                	mov    %eax,%esi
    1916:	83 e6 7f             	and    $0x7f,%esi
    1919:	56                   	push   %esi
    191a:	50                   	push   %eax
    191b:	68 c8 d5 00 00       	push   $0xd5c8
    1920:	6a 03                	push   $0x3
    1922:	e8 69 3a 00 00       	call   5390 <ddf_msg>
    1927:	83 c4 0c             	add    $0xc,%esp
    192a:	8d 45 e4             	lea    -0x1c(%ebp),%eax
    192d:	31 d2                	xor    %edx,%edx
    192f:	50                   	push   %eax
    1930:	8d 86 00 b0 ff ff    	lea    -0x5000(%esi),%eax
    1936:	8a 57 04             	mov    0x4(%edi),%dl
    1939:	25 ff ff 00 00       	and    $0xffff,%eax
    193e:	c1 e2 1c             	shl    $0x1c,%edx
    1941:	0d 00 00 03 00       	or     $0x30000,%eax
    1946:	09 da                	or     %ebx,%edx
    1948:	09 d0                	or     %edx,%eax
    194a:	8b 17                	mov    (%edi),%edx
    194c:	50                   	push   %eax
    194d:	52                   	push   %edx
    194e:	e8 5d 10 00 00       	call   29b0 <hda_cmd>
    1953:	83 c4 10             	add    $0x10,%esp
    1956:	85 c0                	test   %eax,%eax
    1958:	0f 85 89 fa ff ff    	jne    13e7 <hda_codec_init+0x2a7>
    195e:	50                   	push   %eax
    195f:	8d 45 e0             	lea    -0x20(%ebp),%eax
    1962:	50                   	push   %eax
    1963:	31 c0                	xor    %eax,%eax
    1965:	8a 47 04             	mov    0x4(%edi),%al
    1968:	c1 e0 1c             	shl    $0x1c,%eax
    196b:	09 d8                	or     %ebx,%eax
    196d:	0d 00 80 0b 00       	or     $0xb8000,%eax
    1972:	50                   	push   %eax
    1973:	8b 07                	mov    (%edi),%eax
    1975:	50                   	push   %eax
    1976:	e8 35 10 00 00       	call   29b0 <hda_cmd>
    197b:	83 c4 10             	add    $0x10,%esp
    197e:	85 c0                	test   %eax,%eax
    1980:	0f 85 61 fa ff ff    	jne    13e7 <hda_codec_init+0x2a7>
    1986:	50                   	push   %eax
    1987:	8d 45 e4             	lea    -0x1c(%ebp),%eax
    198a:	50                   	push   %eax
    198b:	31 c0                	xor    %eax,%eax
    198d:	8a 47 04             	mov    0x4(%edi),%al
    1990:	c1 e0 1c             	shl    $0x1c,%eax
    1993:	09 d8                	or     %ebx,%eax
    1995:	0d 00 a0 0b 00       	or     $0xba000,%eax
    199a:	50                   	push   %eax
    199b:	8b 07                	mov    (%edi),%eax
    199d:	50                   	push   %eax
    199e:	e8 0d 10 00 00       	call   29b0 <hda_cmd>
    19a3:	83 c4 10             	add    $0x10,%esp
    19a6:	85 c0                	test   %eax,%eax
    19a8:	0f 85 39 fa ff ff    	jne    13e7 <hda_codec_init+0x2a7>
    19ae:	8b 45 e4             	mov    -0x1c(%ebp),%eax
    19b1:	50                   	push   %eax
    19b2:	8b 45 e0             	mov    -0x20(%ebp),%eax
    19b5:	50                   	push   %eax
    19b6:	68 64 d4 00 00       	push   $0xd464
    19bb:	6a 03                	push   $0x3
    19bd:	e8 ce 39 00 00       	call   5390 <ddf_msg>
    19c2:	83 c4 10             	add    $0x10,%esp
    19c5:	e9 1d fa ff ff       	jmp    13e7 <hda_codec_init+0x2a7>
    19ca:	8d b6 00 00 00 00    	lea    0x0(%esi),%esi
    19d0:	8b 87 08 01 00 00    	mov    0x108(%edi),%eax
    19d6:	8b 5d bc             	mov    -0x44(%ebp),%ebx
    19d9:	8b 75 a0             	mov    -0x60(%ebp),%esi
    19dc:	8d 50 01             	lea    0x1(%eax),%edx
    19df:	89 97 08 01 00 00    	mov    %edx,0x108(%edi)
    19e5:	88 5c 07 05          	mov    %bl,0x5(%edi,%eax,1)
    19e9:	50                   	push   %eax
    19ea:	8d 45 cc             	lea    -0x34(%ebp),%eax
    19ed:	50                   	push   %eax
    19ee:	31 c0                	xor    %eax,%eax
    19f0:	8a 47 04             	mov    0x4(%edi),%al
    19f3:	8b 17                	mov    (%edi),%edx
    19f5:	c1 e0 1c             	shl    $0x1c,%eax
    19f8:	09 f0                	or     %esi,%eax
    19fa:	0d 0a 00 0f 00       	or     $0xf000a,%eax
    19ff:	50                   	push   %eax
    1a00:	52                   	push   %edx
    1a01:	e8 aa 0f 00 00       	call   29b0 <hda_cmd>
    1a06:	83 c4 10             	add    $0x10,%esp
    1a09:	85 c0                	test   %eax,%eax
    1a0b:	0f 85 f7 f8 ff ff    	jne    1308 <hda_codec_init+0x1c8>
    1a11:	50                   	push   %eax
    1a12:	8d 45 d0             	lea    -0x30(%ebp),%eax
    1a15:	50                   	push   %eax
    1a16:	31 c0                	xor    %eax,%eax
    1a18:	8a 47 04             	mov    0x4(%edi),%al
    1a1b:	c1 e0 1c             	shl    $0x1c,%eax
    1a1e:	09 f0                	or     %esi,%eax
    1a20:	0d 0b 00 0f 00       	or     $0xf000b,%eax
    1a25:	50                   	push   %eax
    1a26:	8b 07                	mov    (%edi),%eax
    1a28:	50                   	push   %eax
    1a29:	e8 82 0f 00 00       	call   29b0 <hda_cmd>
    1a2e:	83 c4 10             	add    $0x10,%esp
    1a31:	85 c0                	test   %eax,%eax
    1a33:	0f 85 cf f8 ff ff    	jne    1308 <hda_codec_init+0x1c8>
    1a39:	83 ec 0c             	sub    $0xc,%esp
    1a3c:	8b 45 d0             	mov    -0x30(%ebp),%eax
    1a3f:	50                   	push   %eax
    1a40:	8b 45 cc             	mov    -0x34(%ebp),%eax
    1a43:	50                   	push   %eax
    1a44:	53                   	push   %ebx
    1a45:	68 70 d5 00 00       	push   $0xd570
    1a4a:	6a 03                	push   $0x3
    1a4c:	e8 3f 39 00 00       	call   5390 <ddf_msg>
    1a51:	83 c4 20             	add    $0x20,%esp
    1a54:	e9 84 f9 ff ff       	jmp    13dd <hda_codec_init+0x29d>
    1a59:	8b 87 10 01 00 00    	mov    0x110(%edi),%eax
    1a5f:	85 c0                	test   %eax,%eax
    1a61:	0f 88 c5 00 00 00    	js     1b2c <hda_codec_init+0x9ec>
    1a67:	8b 5d bc             	mov    -0x44(%ebp),%ebx
    1a6a:	51                   	push   %ecx
    1a6b:	53                   	push   %ebx
    1a6c:	68 4a d4 00 00       	push   $0xd44a
    1a71:	6a 03                	push   $0x3
    1a73:	e8 18 39 00 00       	call   5390 <ddf_msg>
    1a78:	83 c4 10             	add    $0x10,%esp
    1a7b:	50                   	push   %eax
    1a7c:	8d 45 cc             	lea    -0x34(%ebp),%eax
    1a7f:	50                   	push   %eax
    1a80:	31 c0                	xor    %eax,%eax
    1a82:	8a 47 04             	mov    0x4(%edi),%al
    1a85:	8b 75 a0             	mov    -0x60(%ebp),%esi
    1a88:	c1 e0 1c             	shl    $0x1c,%eax
    1a8b:	8b 17                	mov    (%edi),%edx
    1a8d:	09 f0                	or     %esi,%eax
    1a8f:	0d 0a 00 0f 00       	or     $0xf000a,%eax
    1a94:	50                   	push   %eax
    1a95:	52                   	push   %edx
    1a96:	e8 15 0f 00 00       	call   29b0 <hda_cmd>
    1a9b:	83 c4 10             	add    $0x10,%esp
    1a9e:	85 c0                	test   %eax,%eax
    1aa0:	0f 85 62 f8 ff ff    	jne    1308 <hda_codec_init+0x1c8>
    1aa6:	50                   	push   %eax
    1aa7:	8d 45 d0             	lea    -0x30(%ebp),%eax
    1aaa:	50                   	push   %eax
    1aab:	31 c0                	xor    %eax,%eax
    1aad:	8a 47 04             	mov    0x4(%edi),%al
    1ab0:	c1 e0 1c             	shl    $0x1c,%eax
    1ab3:	09 f0                	or     %esi,%eax
    1ab5:	0d 0b 00 0f 00       	or     $0xf000b,%eax
    1aba:	50                   	push   %eax
    1abb:	8b 07                	mov    (%edi),%eax
    1abd:	50                   	push   %eax
    1abe:	e8 ed 0e 00 00       	call   29b0 <hda_cmd>
    1ac3:	83 c4 10             	add    $0x10,%esp
    1ac6:	85 c0                	test   %eax,%eax
    1ac8:	0f 85 3a f8 ff ff    	jne    1308 <hda_codec_init+0x1c8>
    1ace:	83 ec 0c             	sub    $0xc,%esp
    1ad1:	8b 45 d0             	mov    -0x30(%ebp),%eax
    1ad4:	50                   	push   %eax
    1ad5:	8b 45 cc             	mov    -0x34(%ebp),%eax
    1ad8:	50                   	push   %eax
    1ad9:	8b 45 bc             	mov    -0x44(%ebp),%eax
    1adc:	50                   	push   %eax
    1add:	68 9c d5 00 00       	push   $0xd59c
    1ae2:	6a 03                	push   $0x3
    1ae4:	e8 a7 38 00 00       	call   5390 <ddf_msg>
    1ae9:	83 c4 20             	add    $0x20,%esp
    1aec:	e9 ec f8 ff ff       	jmp    13dd <hda_codec_init+0x29d>
    1af1:	50                   	push   %eax
    1af2:	50                   	push   %eax
    1af3:	68 28 d6 00 00       	push   $0xd628
    1af8:	6a 01                	push   $0x1
    1afa:	e8 91 38 00 00       	call   5390 <ddf_msg>
    1aff:	83 c4 10             	add    $0x10,%esp
    1b02:	e9 01 f8 ff ff       	jmp    1308 <hda_codec_init+0x1c8>
    1b07:	c7 45 e4 00 00 00 00 	movl   $0x0,-0x1c(%ebp)
    1b0e:	e9 5e fa ff ff       	jmp    1571 <hda_codec_init+0x431>
    1b13:	51                   	push   %ecx
    1b14:	51                   	push   %ecx
    1b15:	68 04 d5 00 00       	push   $0xd504
    1b1a:	6a 01                	push   $0x1
    1b1c:	8b 7d ac             	mov    -0x54(%ebp),%edi
    1b1f:	e8 6c 38 00 00       	call   5390 <ddf_msg>
    1b24:	83 c4 10             	add    $0x10,%esp
    1b27:	e9 dc f7 ff ff       	jmp    1308 <hda_codec_init+0x1c8>
    1b2c:	56                   	push   %esi
    1b2d:	8b 75 bc             	mov    -0x44(%ebp),%esi
    1b30:	56                   	push   %esi
    1b31:	68 30 d4 00 00       	push   $0xd430
    1b36:	6a 03                	push   $0x3
    1b38:	e8 53 38 00 00       	call   5390 <ddf_msg>
    1b3d:	89 b7 10 01 00 00    	mov    %esi,0x110(%edi)
    1b43:	83 c4 10             	add    $0x10,%esp
    1b46:	e9 30 ff ff ff       	jmp    1a7b <hda_codec_init+0x93b>
    1b4b:	56                   	push   %esi
    1b4c:	56                   	push   %esi
    1b4d:	68 e0 d4 00 00       	push   $0xd4e0
    1b52:	6a 01                	push   $0x1
    1b54:	e8 37 38 00 00       	call   5390 <ddf_msg>
    1b59:	83 c4 10             	add    $0x10,%esp
    1b5c:	e9 a7 f7 ff ff       	jmp    1308 <hda_codec_init+0x1c8>
    1b61:	89 fe                	mov    %edi,%esi
    1b63:	8b 55 94             	mov    -0x6c(%ebp),%edx
    1b66:	8b 4d 90             	mov    -0x70(%ebp),%ecx
    1b69:	42                   	inc    %edx
    1b6a:	81 c1 00 00 10 00    	add    $0x100000,%ecx
    1b70:	89 55 94             	mov    %edx,-0x6c(%ebp)
    1b73:	89 4d 90             	mov    %ecx,-0x70(%ebp)
    1b76:	8b 45 94             	mov    -0x6c(%ebp),%eax
    1b79:	3b 45 8c             	cmp    -0x74(%ebp),%eax
    1b7c:	0f 85 68 f6 ff ff    	jne    11ea <hda_codec_init+0xaa>
    1b82:	89 f7                	mov    %esi,%edi
    1b84:	8b 45 08             	mov    0x8(%ebp),%eax
    1b87:	83 ec 0c             	sub    $0xc,%esp
    1b8a:	8b 40 2c             	mov    0x2c(%eax),%eax
    1b8d:	50                   	push   %eax
    1b8e:	e8 0d 11 00 00       	call   2ca0 <hda_ctl_dump_info>
    1b93:	5a                   	pop    %edx
    1b94:	59                   	pop    %ecx
    1b95:	68 d3 d2 00 00       	push   $0xd2d3
    1b9a:	6a 03                	push   $0x3
    1b9c:	e8 ef 37 00 00       	call   5390 <ddf_msg>
    1ba1:	83 c4 10             	add    $0x10,%esp
    1ba4:	e9 6d f7 ff ff       	jmp    1316 <hda_codec_init+0x1d6>
    1ba9:	50                   	push   %eax
    1baa:	53                   	push   %ebx
    1bab:	68 c9 d3 00 00       	push   $0xd3c9
    1bb0:	6a 03                	push   $0x3
    1bb2:	e8 d9 37 00 00       	call   5390 <ddf_msg>
    1bb7:	8b 55 dc             	mov    -0x24(%ebp),%edx
    1bba:	83 c4 10             	add    $0x10,%esp
    1bbd:	b0 60                	mov    $0x60,%al
    1bbf:	b1 40                	mov    $0x40,%cl
    1bc1:	e9 30 fb ff ff       	jmp    16f6 <hda_codec_init+0x5b6>
    1bc6:	50                   	push   %eax
    1bc7:	8d 45 e0             	lea    -0x20(%ebp),%eax
    1bca:	50                   	push   %eax
    1bcb:	31 c0                	xor    %eax,%eax
    1bcd:	8a 47 04             	mov    0x4(%edi),%al
    1bd0:	c1 e0 1c             	shl    $0x1c,%eax
    1bd3:	09 f0                	or     %esi,%eax
    1bd5:	0d 00 0c 0f 00       	or     $0xf0c00,%eax
    1bda:	50                   	push   %eax
    1bdb:	8b 07                	mov    (%edi),%eax
    1bdd:	50                   	push   %eax
    1bde:	e8 cd 0d 00 00       	call   29b0 <hda_cmd>
    1be3:	83 c4 10             	add    $0x10,%esp
    1be6:	85 c0                	test   %eax,%eax
    1be8:	0f 85 1a f7 ff ff    	jne    1308 <hda_codec_init+0x1c8>
    1bee:	8b 45 e0             	mov    -0x20(%ebp),%eax
    1bf1:	50                   	push   %eax
    1bf2:	53                   	push   %ebx
    1bf3:	68 ae d3 00 00       	push   $0xd3ae
    1bf8:	6a 03                	push   $0x3
    1bfa:	e8 91 37 00 00       	call   5390 <ddf_msg>
    1bff:	83 c4 0c             	add    $0xc,%esp
    1c02:	8d 45 e4             	lea    -0x1c(%ebp),%eax
    1c05:	8a 55 e0             	mov    -0x20(%ebp),%dl
    1c08:	50                   	push   %eax
    1c09:	31 c0                	xor    %eax,%eax
    1c0b:	8a 47 04             	mov    0x4(%edi),%al
    1c0e:	83 ca 02             	or     $0x2,%edx
    1c11:	c1 e0 1c             	shl    $0x1c,%eax
    1c14:	81 e2 ff 00 00 00    	and    $0xff,%edx
    1c1a:	81 ca 00 0c 07 00    	or     $0x70c00,%edx
    1c20:	09 f0                	or     %esi,%eax
    1c22:	09 d0                	or     %edx,%eax
    1c24:	50                   	push   %eax
    1c25:	8b 07                	mov    (%edi),%eax
    1c27:	50                   	push   %eax
    1c28:	e8 83 0d 00 00       	call   29b0 <hda_cmd>
    1c2d:	83 c4 10             	add    $0x10,%esp
    1c30:	85 c0                	test   %eax,%eax
    1c32:	0f 85 d0 f6 ff ff    	jne    1308 <hda_codec_init+0x1c8>
    1c38:	8d 45 e0             	lea    -0x20(%ebp),%eax
    1c3b:	51                   	push   %ecx
    1c3c:	50                   	push   %eax
    1c3d:	31 c0                	xor    %eax,%eax
    1c3f:	8a 47 04             	mov    0x4(%edi),%al
    1c42:	c1 e0 1c             	shl    $0x1c,%eax
    1c45:	09 f0                	or     %esi,%eax
    1c47:	0d 00 0c 0f 00       	or     $0xf0c00,%eax
    1c4c:	50                   	push   %eax
    1c4d:	8b 07                	mov    (%edi),%eax
    1c4f:	50                   	push   %eax
    1c50:	e8 5b 0d 00 00       	call   29b0 <hda_cmd>
    1c55:	83 c4 10             	add    $0x10,%esp
    1c58:	85 c0                	test   %eax,%eax
    1c5a:	0f 85 a8 f6 ff ff    	jne    1308 <hda_codec_init+0x1c8>
    1c60:	8b 55 e0             	mov    -0x20(%ebp),%edx
    1c63:	52                   	push   %edx
    1c64:	53                   	push   %ebx
    1c65:	68 2c d5 00 00       	push   $0xd52c
    1c6a:	6a 03                	push   $0x3
    1c6c:	e8 1f 37 00 00       	call   5390 <ddf_msg>
    1c71:	8b 55 dc             	mov    -0x24(%ebp),%edx
    1c74:	83 c4 10             	add    $0x10,%esp
    1c77:	e9 6d fa ff ff       	jmp    16e9 <hda_codec_init+0x5a9>
    1c7c:	8d 74 26 00          	lea    0x0(%esi,%eiz,1),%esi

00001c80 <hda_codec_fini>:
    1c80:	55                   	push   %ebp
    1c81:	89 e5                	mov    %esp,%ebp
    1c83:	53                   	push   %ebx
    1c84:	83 ec 0c             	sub    $0xc,%esp
    1c87:	8b 5d 08             	mov    0x8(%ebp),%ebx
    1c8a:	68 7d d4 00 00       	push   $0xd47d
    1c8f:	6a 03                	push   $0x3
    1c91:	e8 fa 36 00 00       	call   5390 <ddf_msg>
    1c96:	89 5d 08             	mov    %ebx,0x8(%ebp)
    1c99:	83 c4 10             	add    $0x10,%esp
    1c9c:	8b 5d fc             	mov    -0x4(%ebp),%ebx
    1c9f:	c9                   	leave  
    1ca0:	e9 ab e7 00 00       	jmp    10450 <free@plt>
    1ca5:	8d 74 26 00          	lea    0x0(%esi,%eiz,1),%esi
    1ca9:	8d bc 27 00 00 00 00 	lea    0x0(%edi,%eiz,1),%edi

00001cb0 <hda_out_converter_setup>:
    1cb0:	55                   	push   %ebp
    1cb1:	89 e5                	mov    %esp,%ebp
    1cb3:	57                   	push   %edi
    1cb4:	56                   	push   %esi
    1cb5:	53                   	push   %ebx
    1cb6:	83 ec 1c             	sub    $0x1c,%esp
    1cb9:	31 ff                	xor    %edi,%edi
    1cbb:	8b 75 08             	mov    0x8(%ebp),%esi
    1cbe:	8b 86 08 01 00 00    	mov    0x108(%esi),%eax
    1cc4:	85 c0                	test   %eax,%eax
    1cc6:	7f 57                	jg     1d1f <hda_out_converter_setup+0x6f>
    1cc8:	e9 ab 00 00 00       	jmp    1d78 <hda_out_converter_setup+0xc8>
    1ccd:	8d 76 00             	lea    0x0(%esi),%esi
    1cd0:	50                   	push   %eax
    1cd1:	50                   	push   %eax
    1cd2:	68 74 d6 00 00       	push   $0xd674
    1cd7:	6a 03                	push   $0x3
    1cd9:	e8 b2 36 00 00       	call   5390 <ddf_msg>
    1cde:	83 c4 0c             	add    $0xc,%esp
    1ce1:	8d 45 e4             	lea    -0x1c(%ebp),%eax
    1ce4:	8b 4d 0c             	mov    0xc(%ebp),%ecx
    1ce7:	50                   	push   %eax
    1ce8:	31 c0                	xor    %eax,%eax
    1cea:	8a 41 04             	mov    0x4(%ecx),%al
    1ced:	31 d2                	xor    %edx,%edx
    1cef:	c1 e0 04             	shl    $0x4,%eax
    1cf2:	8a 56 04             	mov    0x4(%esi),%dl
    1cf5:	c1 e2 1c             	shl    $0x1c,%edx
    1cf8:	25 ff 00 00 00       	and    $0xff,%eax
    1cfd:	0d 00 06 07 00       	or     $0x70600,%eax
    1d02:	09 d3                	or     %edx,%ebx
    1d04:	09 c3                	or     %eax,%ebx
    1d06:	8b 16                	mov    (%esi),%edx
    1d08:	53                   	push   %ebx
    1d09:	52                   	push   %edx
    1d0a:	e8 a1 0c 00 00       	call   29b0 <hda_cmd>
    1d0f:	83 c4 10             	add    $0x10,%esp
    1d12:	85 c0                	test   %eax,%eax
    1d14:	75 55                	jne    1d6b <hda_out_converter_setup+0xbb>
    1d16:	47                   	inc    %edi
    1d17:	39 be 08 01 00 00    	cmp    %edi,0x108(%esi)
    1d1d:	7e 59                	jle    1d78 <hda_out_converter_setup+0xc8>
    1d1f:	31 db                	xor    %ebx,%ebx
    1d21:	8a 5c 3e 05          	mov    0x5(%esi,%edi,1),%bl
    1d25:	51                   	push   %ecx
    1d26:	c1 e3 14             	shl    $0x14,%ebx
    1d29:	51                   	push   %ecx
    1d2a:	68 50 d6 00 00       	push   $0xd650
    1d2f:	6a 03                	push   $0x3
    1d31:	e8 5a 36 00 00       	call   5390 <ddf_msg>
    1d36:	83 c4 0c             	add    $0xc,%esp
    1d39:	8d 45 e4             	lea    -0x1c(%ebp),%eax
    1d3c:	8b 4d 0c             	mov    0xc(%ebp),%ecx
    1d3f:	50                   	push   %eax
    1d40:	31 d2                	xor    %edx,%edx
    1d42:	8a 56 04             	mov    0x4(%esi),%dl
    1d45:	31 c0                	xor    %eax,%eax
    1d47:	c1 e2 1c             	shl    $0x1c,%edx
    1d4a:	66 8b 41 10          	mov    0x10(%ecx),%ax
    1d4e:	09 da                	or     %ebx,%edx
    1d50:	0d 00 00 02 00       	or     $0x20000,%eax
    1d55:	09 d0                	or     %edx,%eax
    1d57:	50                   	push   %eax
    1d58:	8b 06                	mov    (%esi),%eax
    1d5a:	50                   	push   %eax
    1d5b:	e8 50 0c 00 00       	call   29b0 <hda_cmd>
    1d60:	83 c4 10             	add    $0x10,%esp
    1d63:	85 c0                	test   %eax,%eax
    1d65:	0f 84 65 ff ff ff    	je     1cd0 <hda_out_converter_setup+0x20>
    1d6b:	8d 65 f4             	lea    -0xc(%ebp),%esp
    1d6e:	5b                   	pop    %ebx
    1d6f:	5e                   	pop    %esi
    1d70:	5f                   	pop    %edi
    1d71:	5d                   	pop    %ebp
    1d72:	c3                   	ret    
    1d73:	90                   	nop
    1d74:	8d 74 26 00          	lea    0x0(%esi,%eiz,1),%esi
    1d78:	8d 65 f4             	lea    -0xc(%ebp),%esp
    1d7b:	31 c0                	xor    %eax,%eax
    1d7d:	5b                   	pop    %ebx
    1d7e:	5e                   	pop    %esi
    1d7f:	5f                   	pop    %edi
    1d80:	5d                   	pop    %ebp
    1d81:	c3                   	ret    
    1d82:	8d b4 26 00 00 00 00 	lea    0x0(%esi,%eiz,1),%esi
    1d89:	8d bc 27 00 00 00 00 	lea    0x0(%edi,%eiz,1),%edi

00001d90 <hda_in_converter_setup>:
    1d90:	55                   	push   %ebp
    1d91:	89 e5                	mov    %esp,%ebp
    1d93:	57                   	push   %edi
    1d94:	56                   	push   %esi
    1d95:	53                   	push   %ebx
    1d96:	83 ec 24             	sub    $0x24,%esp
    1d99:	8d 7d e4             	lea    -0x1c(%ebp),%edi
    1d9c:	8b 5d 08             	mov    0x8(%ebp),%ebx
    1d9f:	8b 75 0c             	mov    0xc(%ebp),%esi
    1da2:	68 a0 d6 00 00       	push   $0xd6a0
    1da7:	6a 03                	push   $0x3
    1da9:	e8 e2 35 00 00       	call   5390 <ddf_msg>
    1dae:	83 c4 0c             	add    $0xc,%esp
    1db1:	8b 83 10 01 00 00    	mov    0x110(%ebx),%eax
    1db7:	57                   	push   %edi
    1db8:	31 d2                	xor    %edx,%edx
    1dba:	8b 0b                	mov    (%ebx),%ecx
    1dbc:	c1 e0 14             	shl    $0x14,%eax
    1dbf:	8a 53 04             	mov    0x4(%ebx),%dl
    1dc2:	c1 e2 1c             	shl    $0x1c,%edx
    1dc5:	25 00 00 f0 1f       	and    $0x1ff00000,%eax
    1dca:	09 d0                	or     %edx,%eax
    1dcc:	31 d2                	xor    %edx,%edx
    1dce:	66 8b 56 10          	mov    0x10(%esi),%dx
    1dd2:	81 ca 00 00 02 00    	or     $0x20000,%edx
    1dd8:	09 d0                	or     %edx,%eax
    1dda:	50                   	push   %eax
    1ddb:	51                   	push   %ecx
    1ddc:	e8 cf 0b 00 00       	call   29b0 <hda_cmd>
    1de1:	83 c4 10             	add    $0x10,%esp
    1de4:	85 c0                	test   %eax,%eax
    1de6:	75 4b                	jne    1e33 <hda_in_converter_setup+0xa3>
    1de8:	50                   	push   %eax
    1de9:	50                   	push   %eax
    1dea:	68 c4 d6 00 00       	push   $0xd6c4
    1def:	6a 03                	push   $0x3
    1df1:	e8 9a 35 00 00       	call   5390 <ddf_msg>
    1df6:	83 c4 0c             	add    $0xc,%esp
    1df9:	8b 83 10 01 00 00    	mov    0x110(%ebx),%eax
    1dff:	57                   	push   %edi
    1e00:	c1 e0 14             	shl    $0x14,%eax
    1e03:	31 d2                	xor    %edx,%edx
    1e05:	8a 53 04             	mov    0x4(%ebx),%dl
    1e08:	25 00 00 f0 1f       	and    $0x1ff00000,%eax
    1e0d:	c1 e2 1c             	shl    $0x1c,%edx
    1e10:	09 d0                	or     %edx,%eax
    1e12:	31 d2                	xor    %edx,%edx
    1e14:	8a 56 04             	mov    0x4(%esi),%dl
    1e17:	0d 00 06 07 00       	or     $0x70600,%eax
    1e1c:	89 d1                	mov    %edx,%ecx
    1e1e:	31 d2                	xor    %edx,%edx
    1e20:	c1 e1 04             	shl    $0x4,%ecx
    1e23:	88 ca                	mov    %cl,%dl
    1e25:	09 d0                	or     %edx,%eax
    1e27:	8b 13                	mov    (%ebx),%edx
    1e29:	50                   	push   %eax
    1e2a:	52                   	push   %edx
    1e2b:	e8 80 0b 00 00       	call   29b0 <hda_cmd>
    1e30:	83 c4 10             	add    $0x10,%esp
    1e33:	8d 65 f4             	lea    -0xc(%ebp),%esp
    1e36:	5b                   	pop    %ebx
    1e37:	5e                   	pop    %esi
    1e38:	5f                   	pop    %edi
    1e39:	5d                   	pop    %ebp
    1e3a:	c3                   	ret    
    1e3b:	66 90                	xchg   %ax,%ax
    1e3d:	66 90                	xchg   %ax,%ax
    1e3f:	90                   	nop

00001e40 <hda_reg8_read>:
    1e40:	55                   	push   %ebp
    1e41:	89 e5                	mov    %esp,%ebp
    1e43:	5d                   	pop    %ebp
    1e44:	e9 57 e2 00 00       	jmp    100a0 <pio_read_8@plt>
    1e49:	8d b4 26 00 00 00 00 	lea    0x0(%esi,%eiz,1),%esi

00001e50 <hda_reg16_read>:
    1e50:	55                   	push   %ebp
    1e51:	89 e5                	mov    %esp,%ebp
    1e53:	5d                   	pop    %ebp
    1e54:	e9 f7 e3 00 00       	jmp    10250 <pio_read_16@plt>
    1e59:	8d b4 26 00 00 00 00 	lea    0x0(%esi,%eiz,1),%esi

00001e60 <hda_reg32_read>:
    1e60:	55                   	push   %ebp
    1e61:	89 e5                	mov    %esp,%ebp
    1e63:	5d                   	pop    %ebp
    1e64:	e9 87 e1 00 00       	jmp    fff0 <pio_read_32@plt>
    1e69:	8d b4 26 00 00 00 00 	lea    0x0(%esi,%eiz,1),%esi

00001e70 <hda_reg8_write>:
    1e70:	55                   	push   %ebp
    1e71:	31 c0                	xor    %eax,%eax
    1e73:	89 e5                	mov    %esp,%ebp
    1e75:	8a 45 0c             	mov    0xc(%ebp),%al
    1e78:	89 45 0c             	mov    %eax,0xc(%ebp)
    1e7b:	5d                   	pop    %ebp
    1e7c:	e9 cf e2 00 00       	jmp    10150 <pio_write_8@plt>
    1e81:	eb 0d                	jmp    1e90 <hda_reg16_write>
    1e83:	90                   	nop
    1e84:	90                   	nop
    1e85:	90                   	nop
    1e86:	90                   	nop
    1e87:	90                   	nop
    1e88:	90                   	nop
    1e89:	90                   	nop
    1e8a:	90                   	nop
    1e8b:	90                   	nop
    1e8c:	90                   	nop
    1e8d:	90                   	nop
    1e8e:	90                   	nop
    1e8f:	90                   	nop

00001e90 <hda_reg16_write>:
    1e90:	55                   	push   %ebp
    1e91:	31 c0                	xor    %eax,%eax
    1e93:	89 e5                	mov    %esp,%ebp
    1e95:	66 8b 45 0c          	mov    0xc(%ebp),%ax
    1e99:	89 45 0c             	mov    %eax,0xc(%ebp)
    1e9c:	5d                   	pop    %ebp
    1e9d:	e9 4e e2 00 00       	jmp    100f0 <pio_write_16@plt>
    1ea2:	8d b4 26 00 00 00 00 	lea    0x0(%esi,%eiz,1),%esi
    1ea9:	8d bc 27 00 00 00 00 	lea    0x0(%edi,%eiz,1),%edi

00001eb0 <hda_reg32_write>:
    1eb0:	55                   	push   %ebp
    1eb1:	89 e5                	mov    %esp,%ebp
    1eb3:	5d                   	pop    %ebp
    1eb4:	e9 57 e3 00 00       	jmp    10210 <pio_write_32@plt>
    1eb9:	66 90                	xchg   %ax,%ax
    1ebb:	66 90                	xchg   %ax,%ax
    1ebd:	66 90                	xchg   %ax,%ax
    1ebf:	90                   	nop

00001ec0 <hda_ctl_process_rirb>:
    1ec0:	55                   	push   %ebp
    1ec1:	89 e5                	mov    %esp,%ebp
    1ec3:	57                   	push   %edi
    1ec4:	56                   	push   %esi
    1ec5:	8d 70 2c             	lea    0x2c(%eax),%esi
    1ec8:	53                   	push   %ebx
    1ec9:	89 c3                	mov    %eax,%ebx
    1ecb:	8d 40 3c             	lea    0x3c(%eax),%eax
    1ece:	83 ec 1c             	sub    $0x1c,%esp
    1ed1:	89 45 dc             	mov    %eax,-0x24(%ebp)
    1ed4:	eb 6e                	jmp    1f44 <hda_ctl_process_rirb+0x84>
    1ed6:	66 90                	xchg   %ax,%ax
    1ed8:	40                   	inc    %eax
    1ed9:	31 d2                	xor    %edx,%edx
    1edb:	f7 71 24             	divl   0x24(%ecx)
    1ede:	8b 45 e0             	mov    -0x20(%ebp),%eax
    1ee1:	89 51 28             	mov    %edx,0x28(%ecx)
    1ee4:	8d 04 d0             	lea    (%eax,%edx,8),%eax
    1ee7:	8b 10                	mov    (%eax),%edx
    1ee9:	8b 78 04             	mov    0x4(%eax),%edi
    1eec:	57                   	push   %edi
    1eed:	89 55 e4             	mov    %edx,-0x1c(%ebp)
    1ef0:	52                   	push   %edx
    1ef1:	68 88 d9 00 00       	push   $0xd988
    1ef6:	6a 05                	push   $0x5
    1ef8:	e8 93 34 00 00       	call   5390 <ddf_msg>
    1efd:	58                   	pop    %eax
    1efe:	5a                   	pop    %edx
    1eff:	68 04 d7 00 00       	push   $0xd704
    1f04:	6a 05                	push   $0x5
    1f06:	e8 85 34 00 00       	call   5390 <ddf_msg>
    1f0b:	89 34 24             	mov    %esi,(%esp)
    1f0e:	e8 5d e5 00 00       	call   10470 <fibril_mutex_lock@plt>
    1f13:	8b 83 48 04 00 00    	mov    0x448(%ebx),%eax
    1f19:	40                   	inc    %eax
    1f1a:	8b 55 e4             	mov    -0x1c(%ebp),%edx
    1f1d:	83 e0 7f             	and    $0x7f,%eax
    1f20:	89 83 48 04 00 00    	mov    %eax,0x448(%ebx)
    1f26:	8d 44 c3 44          	lea    0x44(%ebx,%eax,8),%eax
    1f2a:	89 78 04             	mov    %edi,0x4(%eax)
    1f2d:	89 10                	mov    %edx,(%eax)
    1f2f:	89 34 24             	mov    %esi,(%esp)
    1f32:	e8 69 e2 00 00       	call   101a0 <fibril_mutex_unlock@plt>
    1f37:	8b 7d dc             	mov    -0x24(%ebp),%edi
    1f3a:	59                   	pop    %ecx
    1f3b:	57                   	push   %edi
    1f3c:	e8 3f e2 00 00       	call   10180 <fibril_condvar_broadcast@plt>
    1f41:	83 c4 10             	add    $0x10,%esp
    1f44:	8b 8b 58 08 00 00    	mov    0x858(%ebx),%ecx
    1f4a:	83 ec 0c             	sub    $0xc,%esp
    1f4d:	89 4d e4             	mov    %ecx,-0x1c(%ebp)
    1f50:	8b 41 2c             	mov    0x2c(%ecx),%eax
    1f53:	8b 40 20             	mov    0x20(%eax),%eax
    1f56:	89 45 e0             	mov    %eax,-0x20(%ebp)
    1f59:	8b 41 28             	mov    0x28(%ecx),%eax
    1f5c:	83 c0 58             	add    $0x58,%eax
    1f5f:	50                   	push   %eax
    1f60:	e8 eb fe ff ff       	call   1e50 <hda_reg16_read>
    1f65:	83 c4 0c             	add    $0xc,%esp
    1f68:	89 c7                	mov    %eax,%edi
    1f6a:	81 e7 ff 00 00 00    	and    $0xff,%edi
    1f70:	57                   	push   %edi
    1f71:	68 ee d6 00 00       	push   $0xd6ee
    1f76:	6a 05                	push   $0x5
    1f78:	e8 13 34 00 00       	call   5390 <ddf_msg>
    1f7d:	8b 4d e4             	mov    -0x1c(%ebp),%ecx
    1f80:	83 c4 10             	add    $0x10,%esp
    1f83:	8b 49 2c             	mov    0x2c(%ecx),%ecx
    1f86:	8b 41 28             	mov    0x28(%ecx),%eax
    1f89:	39 c7                	cmp    %eax,%edi
    1f8b:	0f 85 47 ff ff ff    	jne    1ed8 <hda_ctl_process_rirb+0x18>
    1f91:	8d 65 f4             	lea    -0xc(%ebp),%esp
    1f94:	5b                   	pop    %ebx
    1f95:	5e                   	pop    %esi
    1f96:	5f                   	pop    %edi
    1f97:	5d                   	pop    %ebp
    1f98:	c3                   	ret    
    1f99:	8d b4 26 00 00 00 00 	lea    0x0(%esi,%eiz,1),%esi

00001fa0 <hda_ctl_init>:
    1fa0:	55                   	push   %ebp
    1fa1:	89 e5                	mov    %esp,%ebp
    1fa3:	57                   	push   %edi
    1fa4:	56                   	push   %esi
    1fa5:	53                   	push   %ebx
    1fa6:	83 ec 24             	sub    $0x24,%esp
    1fa9:	8b 5d 08             	mov    0x8(%ebp),%ebx
    1fac:	68 5c 08 00 00       	push   $0x85c
    1fb1:	6a 01                	push   $0x1
    1fb3:	e8 28 e1 00 00       	call   100e0 <calloc@plt>
    1fb8:	83 c4 10             	add    $0x10,%esp
    1fbb:	89 c6                	mov    %eax,%esi
    1fbd:	85 c0                	test   %eax,%eax
    1fbf:	0f 84 f9 01 00 00    	je     21be <hda_ctl_init+0x21e>
    1fc5:	83 ec 0c             	sub    $0xc,%esp
    1fc8:	8d 40 2c             	lea    0x2c(%eax),%eax
    1fcb:	50                   	push   %eax
    1fcc:	e8 ff e1 00 00       	call   101d0 <fibril_mutex_initialize@plt>
    1fd1:	8d 46 3c             	lea    0x3c(%esi),%eax
    1fd4:	89 04 24             	mov    %eax,(%esp)
    1fd7:	e8 64 e1 00 00       	call   10140 <fibril_condvar_initialize@plt>
    1fdc:	8b 43 28             	mov    0x28(%ebx),%eax
    1fdf:	89 73 2c             	mov    %esi,0x2c(%ebx)
    1fe2:	83 c0 03             	add    $0x3,%eax
    1fe5:	89 9e 58 08 00 00    	mov    %ebx,0x858(%esi)
    1feb:	89 04 24             	mov    %eax,(%esp)
    1fee:	e8 4d fe ff ff       	call   1e40 <hda_reg8_read>
    1ff3:	8b 4b 28             	mov    0x28(%ebx),%ecx
    1ff6:	88 45 e4             	mov    %al,-0x1c(%ebp)
    1ff9:	8d 41 02             	lea    0x2(%ecx),%eax
    1ffc:	89 04 24             	mov    %eax,(%esp)
    1fff:	e8 3c fe ff ff       	call   1e40 <hda_reg8_read>
    2004:	0f b6 7d e4          	movzbl -0x1c(%ebp),%edi
    2008:	31 c9                	xor    %ecx,%ecx
    200a:	81 e7 ff 00 00 00    	and    $0xff,%edi
    2010:	88 c1                	mov    %al,%cl
    2012:	88 45 df             	mov    %al,-0x21(%ebp)
    2015:	51                   	push   %ecx
    2016:	57                   	push   %edi
    2017:	68 15 d7 00 00       	push   $0xd715
    201c:	6a 03                	push   $0x3
    201e:	89 4d e0             	mov    %ecx,-0x20(%ebp)
    2021:	e8 6a 33 00 00       	call   5390 <ddf_msg>
    2026:	83 c4 20             	add    $0x20,%esp
    2029:	8b 4d e0             	mov    -0x20(%ebp),%ecx
    202c:	80 7d e4 01          	cmpb   $0x1,-0x1c(%ebp)
    2030:	0f 85 82 03 00 00    	jne    23b8 <hda_ctl_init+0x418>
    2036:	8a 45 df             	mov    -0x21(%ebp),%al
    2039:	84 c0                	test   %al,%al
    203b:	0f 85 77 03 00 00    	jne    23b8 <hda_ctl_init+0x418>
    2041:	83 ec 0c             	sub    $0xc,%esp
    2044:	8b 43 28             	mov    0x28(%ebx),%eax
    2047:	83 c0 0e             	add    $0xe,%eax
    204a:	50                   	push   %eax
    204b:	e8 00 fe ff ff       	call   1e50 <hda_reg16_read>
    2050:	89 c1                	mov    %eax,%ecx
    2052:	31 c0                	xor    %eax,%eax
    2054:	66 89 c8             	mov    %cx,%ax
    2057:	50                   	push   %eax
    2058:	6a 0e                	push   $0xe
    205a:	68 27 d7 00 00       	push   $0xd727
    205f:	6a 03                	push   $0x3
    2061:	e8 2a 33 00 00       	call   5390 <ddf_msg>
    2066:	83 c4 18             	add    $0x18,%esp
    2069:	8b 43 28             	mov    0x28(%ebx),%eax
    206c:	6a 7f                	push   $0x7f
    206e:	83 c0 0e             	add    $0xe,%eax
    2071:	50                   	push   %eax
    2072:	e8 19 fe ff ff       	call   1e90 <hda_reg16_write>
    2077:	8b 43 28             	mov    0x28(%ebx),%eax
    207a:	83 c0 0e             	add    $0xe,%eax
    207d:	89 04 24             	mov    %eax,(%esp)
    2080:	e8 cb fd ff ff       	call   1e50 <hda_reg16_read>
    2085:	89 c1                	mov    %eax,%ecx
    2087:	31 c0                	xor    %eax,%eax
    2089:	66 89 c8             	mov    %cx,%ax
    208c:	50                   	push   %eax
    208d:	6a 0e                	push   $0xe
    208f:	68 cc d9 00 00       	push   $0xd9cc
    2094:	6a 03                	push   $0x3
    2096:	e8 f5 32 00 00       	call   5390 <ddf_msg>
    209b:	83 c4 14             	add    $0x14,%esp
    209e:	8b 43 28             	mov    0x28(%ebx),%eax
    20a1:	83 c0 08             	add    $0x8,%eax
    20a4:	50                   	push   %eax
    20a5:	e8 b6 fd ff ff       	call   1e60 <hda_reg32_read>
    20aa:	83 c4 10             	add    $0x10,%esp
    20ad:	89 c7                	mov    %eax,%edi
    20af:	a8 01                	test   $0x1,%al
    20b1:	0f 85 a1 02 00 00    	jne    2358 <hda_ctl_init+0x3b8>
    20b7:	51                   	push   %ecx
    20b8:	51                   	push   %ecx
    20b9:	68 1c da 00 00       	push   $0xda1c
    20be:	6a 03                	push   $0x3
    20c0:	e8 cb 32 00 00       	call   5390 <ddf_msg>
    20c5:	58                   	pop    %eax
    20c6:	8b 43 28             	mov    0x28(%ebx),%eax
    20c9:	83 cf 01             	or     $0x1,%edi
    20cc:	83 c0 08             	add    $0x8,%eax
    20cf:	5a                   	pop    %edx
    20d0:	57                   	push   %edi
    20d1:	50                   	push   %eax
    20d2:	bf 0a 00 00 00       	mov    $0xa,%edi
    20d7:	e8 d4 fd ff ff       	call   1eb0 <hda_reg32_write>
    20dc:	83 c4 10             	add    $0x10,%esp
    20df:	90                   	nop
    20e0:	83 ec 0c             	sub    $0xc,%esp
    20e3:	8b 43 28             	mov    0x28(%ebx),%eax
    20e6:	83 c0 08             	add    $0x8,%eax
    20e9:	50                   	push   %eax
    20ea:	e8 71 fd ff ff       	call   1e60 <hda_reg32_read>
    20ef:	83 c4 10             	add    $0x10,%esp
    20f2:	a8 01                	test   $0x1,%al
    20f4:	0f 85 ce 00 00 00    	jne    21c8 <hda_ctl_init+0x228>
    20fa:	51                   	push   %ecx
    20fb:	51                   	push   %ecx
    20fc:	68 3c da 00 00       	push   $0xda3c
    2101:	6a 03                	push   $0x3
    2103:	e8 88 32 00 00       	call   5390 <ddf_msg>
    2108:	c7 04 24 a0 86 01 00 	movl   $0x186a0,(%esp)
    210f:	e8 cc e1 00 00       	call   102e0 <async_usleep@plt>
    2114:	83 c4 10             	add    $0x10,%esp
    2117:	4f                   	dec    %edi
    2118:	75 c6                	jne    20e0 <hda_ctl_init+0x140>
    211a:	57                   	push   %edi
    211b:	57                   	push   %edi
    211c:	68 cc da 00 00       	push   $0xdacc
    2121:	6a 01                	push   $0x1
    2123:	e8 68 32 00 00       	call   5390 <ddf_msg>
    2128:	83 c4 10             	add    $0x10,%esp
    212b:	83 ec 0c             	sub    $0xc,%esp
    212e:	8b 43 28             	mov    0x28(%ebx),%eax
    2131:	83 c0 5c             	add    $0x5c,%eax
    2134:	50                   	push   %eax
    2135:	e8 06 fd ff ff       	call   1e40 <hda_reg8_read>
    213a:	25 fc 00 00 00       	and    $0xfc,%eax
    213f:	5a                   	pop    %edx
    2140:	59                   	pop    %ecx
    2141:	50                   	push   %eax
    2142:	8b 43 28             	mov    0x28(%ebx),%eax
    2145:	83 c0 5c             	add    $0x5c,%eax
    2148:	50                   	push   %eax
    2149:	e8 22 fd ff ff       	call   1e70 <hda_reg8_write>
    214e:	8b 43 2c             	mov    0x2c(%ebx),%eax
    2151:	83 c4 10             	add    $0x10,%esp
    2154:	8b 78 20             	mov    0x20(%eax),%edi
    2157:	85 ff                	test   %edi,%edi
    2159:	74 0f                	je     216a <hda_ctl_init+0x1ca>
    215b:	83 ec 0c             	sub    $0xc,%esp
    215e:	83 c0 20             	add    $0x20,%eax
    2161:	50                   	push   %eax
    2162:	e8 a9 df 00 00       	call   10110 <dmamem_unmap_anonymous@plt>
    2167:	83 c4 10             	add    $0x10,%esp
    216a:	83 ec 0c             	sub    $0xc,%esp
    216d:	8b 43 28             	mov    0x28(%ebx),%eax
    2170:	83 c0 4c             	add    $0x4c,%eax
    2173:	50                   	push   %eax
    2174:	e8 c7 fc ff ff       	call   1e40 <hda_reg8_read>
    2179:	25 fd 00 00 00       	and    $0xfd,%eax
    217e:	5a                   	pop    %edx
    217f:	59                   	pop    %ecx
    2180:	50                   	push   %eax
    2181:	8b 43 28             	mov    0x28(%ebx),%eax
    2184:	83 c0 4c             	add    $0x4c,%eax
    2187:	50                   	push   %eax
    2188:	e8 e3 fc ff ff       	call   1e70 <hda_reg8_write>
    218d:	8b 43 2c             	mov    0x2c(%ebx),%eax
    2190:	83 c4 10             	add    $0x10,%esp
    2193:	8b 78 14             	mov    0x14(%eax),%edi
    2196:	85 ff                	test   %edi,%edi
    2198:	74 0f                	je     21a9 <hda_ctl_init+0x209>
    219a:	83 ec 0c             	sub    $0xc,%esp
    219d:	83 c0 14             	add    $0x14,%eax
    21a0:	50                   	push   %eax
    21a1:	e8 6a df 00 00       	call   10110 <dmamem_unmap_anonymous@plt>
    21a6:	83 c4 10             	add    $0x10,%esp
    21a9:	83 ec 0c             	sub    $0xc,%esp
    21ac:	56                   	push   %esi
    21ad:	31 f6                	xor    %esi,%esi
    21af:	e8 9c e2 00 00       	call   10450 <free@plt>
    21b4:	c7 43 2c 00 00 00 00 	movl   $0x0,0x2c(%ebx)
    21bb:	83 c4 10             	add    $0x10,%esp
    21be:	8d 65 f4             	lea    -0xc(%ebp),%esp
    21c1:	89 f0                	mov    %esi,%eax
    21c3:	5b                   	pop    %ebx
    21c4:	5e                   	pop    %esi
    21c5:	5f                   	pop    %edi
    21c6:	5d                   	pop    %ebp
    21c7:	c3                   	ret    
    21c8:	57                   	push   %edi
    21c9:	50                   	push   %eax
    21ca:	68 41 d7 00 00       	push   $0xd741
    21cf:	6a 03                	push   $0x3
    21d1:	e8 ba 31 00 00       	call   5390 <ddf_msg>
    21d6:	58                   	pop    %eax
    21d7:	5a                   	pop    %edx
    21d8:	68 4b d7 00 00       	push   $0xd74b
    21dd:	6a 03                	push   $0x3
    21df:	e8 ac 31 00 00       	call   5390 <ddf_msg>
    21e4:	59                   	pop    %ecx
    21e5:	5f                   	pop    %edi
    21e6:	68 67 d7 00 00       	push   $0xd767
    21eb:	6a 03                	push   $0x3
    21ed:	e8 9e 31 00 00       	call   5390 <ddf_msg>
    21f2:	58                   	pop    %eax
    21f3:	8b 43 28             	mov    0x28(%ebx),%eax
    21f6:	50                   	push   %eax
    21f7:	e8 54 fc ff ff       	call   1e50 <hda_reg16_read>
    21fc:	89 c2                	mov    %eax,%edx
    21fe:	89 c1                	mov    %eax,%ecx
    2200:	66 c1 ea 0c          	shr    $0xc,%dx
    2204:	88 06                	mov    %al,(%esi)
    2206:	89 d0                	mov    %edx,%eax
    2208:	31 d2                	xor    %edx,%edx
    220a:	66 89 c2             	mov    %ax,%dx
    220d:	80 26 01             	andb   $0x1,(%esi)
    2210:	89 56 08             	mov    %edx,0x8(%esi)
    2213:	89 ca                	mov    %ecx,%edx
    2215:	66 c1 ea 08          	shr    $0x8,%dx
    2219:	31 c0                	xor    %eax,%eax
    221b:	83 e2 0f             	and    $0xf,%edx
    221e:	66 89 c8             	mov    %cx,%ax
    2221:	89 56 04             	mov    %edx,0x4(%esi)
    2224:	89 ca                	mov    %ecx,%edx
    2226:	66 c1 ea 03          	shr    $0x3,%dx
    222a:	83 e2 1f             	and    $0x1f,%edx
    222d:	89 56 0c             	mov    %edx,0xc(%esi)
    2230:	89 ca                	mov    %ecx,%edx
    2232:	83 e2 01             	and    $0x1,%edx
    2235:	52                   	push   %edx
    2236:	50                   	push   %eax
    2237:	68 71 d7 00 00       	push   $0xd771
    223c:	6a 03                	push   $0x3
    223e:	e8 4d 31 00 00       	call   5390 <ddf_msg>
    2243:	83 c4 14             	add    $0x14,%esp
    2246:	8b 46 0c             	mov    0xc(%esi),%eax
    2249:	50                   	push   %eax
    224a:	8b 46 08             	mov    0x8(%esi),%eax
    224d:	50                   	push   %eax
    224e:	8b 46 04             	mov    0x4(%esi),%eax
    2251:	50                   	push   %eax
    2252:	68 86 d7 00 00       	push   $0xd786
    2257:	6a 03                	push   $0x3
    2259:	e8 32 31 00 00       	call   5390 <ddf_msg>
    225e:	83 c4 14             	add    $0x14,%esp
    2261:	68 00 02 00 00       	push   $0x200
    2266:	e8 75 e0 00 00       	call   102e0 <async_usleep@plt>
    226b:	8b 43 28             	mov    0x28(%ebx),%eax
    226e:	83 c0 0e             	add    $0xe,%eax
    2271:	89 04 24             	mov    %eax,(%esp)
    2274:	e8 d7 fb ff ff       	call   1e50 <hda_reg16_read>
    2279:	83 c4 0c             	add    $0xc,%esp
    227c:	89 c1                	mov    %eax,%ecx
    227e:	31 c0                	xor    %eax,%eax
    2280:	66 89 c8             	mov    %cx,%ax
    2283:	50                   	push   %eax
    2284:	68 31 d7 00 00       	push   $0xd731
    2289:	6a 03                	push   $0x3
    228b:	e8 00 31 00 00       	call   5390 <ddf_msg>
    2290:	8b 43 28             	mov    0x28(%ebx),%eax
    2293:	83 c0 20             	add    $0x20,%eax
    2296:	89 04 24             	mov    %eax,(%esp)
    2299:	e8 c2 fb ff ff       	call   1e60 <hda_reg32_read>
    229e:	0d 00 00 00 c0       	or     $0xc0000000,%eax
    22a3:	50                   	push   %eax
    22a4:	6a 20                	push   $0x20
    22a6:	68 a1 d7 00 00       	push   $0xd7a1
    22ab:	6a 03                	push   $0x3
    22ad:	e8 de 30 00 00       	call   5390 <ddf_msg>
    22b2:	83 c4 18             	add    $0x18,%esp
    22b5:	8b 43 28             	mov    0x28(%ebx),%eax
    22b8:	6a ff                	push   $0xffffffff
    22ba:	83 c0 20             	add    $0x20,%eax
    22bd:	50                   	push   %eax
    22be:	e8 ed fb ff ff       	call   1eb0 <hda_reg32_write>
    22c3:	58                   	pop    %eax
    22c4:	5a                   	pop    %edx
    22c5:	68 b7 d7 00 00       	push   $0xd7b7
    22ca:	6a 03                	push   $0x3
    22cc:	e8 bf 30 00 00       	call   5390 <ddf_msg>
    22d1:	8b 43 28             	mov    0x28(%ebx),%eax
    22d4:	83 c0 4c             	add    $0x4c,%eax
    22d7:	89 04 24             	mov    %eax,(%esp)
    22da:	e8 61 fb ff ff       	call   1e40 <hda_reg8_read>
    22df:	83 c4 10             	add    $0x10,%esp
    22e2:	a8 02                	test   $0x2,%al
    22e4:	0f 85 9e 00 00 00    	jne    2388 <hda_ctl_init+0x3e8>
    22ea:	83 ec 0c             	sub    $0xc,%esp
    22ed:	8b 43 28             	mov    0x28(%ebx),%eax
    22f0:	83 c0 4e             	add    $0x4e,%eax
    22f3:	50                   	push   %eax
    22f4:	e8 47 fb ff ff       	call   1e40 <hda_reg8_read>
    22f9:	88 c1                	mov    %al,%cl
    22fb:	31 d2                	xor    %edx,%edx
    22fd:	c0 e9 04             	shr    $0x4,%cl
    2300:	83 c4 10             	add    $0x10,%esp
    2303:	88 ca                	mov    %cl,%dl
    2305:	f6 c2 04             	test   $0x4,%dl
    2308:	0f 85 c0 00 00 00    	jne    23ce <hda_ctl_init+0x42e>
    230e:	83 e2 02             	and    $0x2,%edx
    2311:	0f 85 29 03 00 00    	jne    2640 <hda_ctl_init+0x6a0>
    2317:	83 e1 01             	and    $0x1,%ecx
    231a:	0f 85 59 03 00 00    	jne    2679 <hda_ctl_init+0x6d9>
    2320:	51                   	push   %ecx
    2321:	51                   	push   %ecx
    2322:	68 c7 d7 00 00       	push   $0xd7c7
    2327:	6a 01                	push   $0x1
    2329:	e8 62 30 00 00       	call   5390 <ddf_msg>
    232e:	83 c4 10             	add    $0x10,%esp
    2331:	8b 43 2c             	mov    0x2c(%ebx),%eax
    2334:	8b 50 14             	mov    0x14(%eax),%edx
    2337:	85 d2                	test   %edx,%edx
    2339:	0f 84 ec fd ff ff    	je     212b <hda_ctl_init+0x18b>
    233f:	83 ec 0c             	sub    $0xc,%esp
    2342:	83 c0 14             	add    $0x14,%eax
    2345:	50                   	push   %eax
    2346:	e8 c5 dd 00 00       	call   10110 <dmamem_unmap_anonymous@plt>
    234b:	83 c4 10             	add    $0x10,%esp
    234e:	e9 d8 fd ff ff       	jmp    212b <hda_ctl_init+0x18b>
    2353:	90                   	nop
    2354:	8d 74 26 00          	lea    0x0(%esi,%eiz,1),%esi
    2358:	51                   	push   %ecx
    2359:	51                   	push   %ecx
    235a:	68 f8 d9 00 00       	push   $0xd9f8
    235f:	6a 03                	push   $0x3
    2361:	e8 2a 30 00 00       	call   5390 <ddf_msg>
    2366:	58                   	pop    %eax
    2367:	89 f8                	mov    %edi,%eax
    2369:	5a                   	pop    %edx
    236a:	83 e0 fe             	and    $0xfffffffe,%eax
    236d:	50                   	push   %eax
    236e:	8b 43 28             	mov    0x28(%ebx),%eax
    2371:	83 c0 08             	add    $0x8,%eax
    2374:	50                   	push   %eax
    2375:	e8 36 fb ff ff       	call   1eb0 <hda_reg32_write>
    237a:	83 c4 10             	add    $0x10,%esp
    237d:	e9 35 fd ff ff       	jmp    20b7 <hda_ctl_init+0x117>
    2382:	8d b6 00 00 00 00    	lea    0x0(%esi),%esi
    2388:	88 45 e4             	mov    %al,-0x1c(%ebp)
    238b:	57                   	push   %edi
    238c:	57                   	push   %edi
    238d:	68 64 da 00 00       	push   $0xda64
    2392:	6a 03                	push   $0x3
    2394:	e8 f7 2f 00 00       	call   5390 <ddf_msg>
    2399:	58                   	pop    %eax
    239a:	8a 45 e4             	mov    -0x1c(%ebp),%al
    239d:	25 fd 00 00 00       	and    $0xfd,%eax
    23a2:	5a                   	pop    %edx
    23a3:	50                   	push   %eax
    23a4:	8b 43 28             	mov    0x28(%ebx),%eax
    23a7:	83 c0 4c             	add    $0x4c,%eax
    23aa:	50                   	push   %eax
    23ab:	e8 c0 fa ff ff       	call   1e70 <hda_reg8_write>
    23b0:	83 c4 10             	add    $0x10,%esp
    23b3:	e9 32 ff ff ff       	jmp    22ea <hda_ctl_init+0x34a>
    23b8:	51                   	push   %ecx
    23b9:	57                   	push   %edi
    23ba:	68 a8 d9 00 00       	push   $0xd9a8
    23bf:	6a 01                	push   $0x1
    23c1:	e8 ca 2f 00 00       	call   5390 <ddf_msg>
    23c6:	83 c4 10             	add    $0x10,%esp
    23c9:	e9 5d fd ff ff       	jmp    212b <hda_ctl_init+0x18b>
    23ce:	25 fc 00 00 00       	and    $0xfc,%eax
    23d3:	51                   	push   %ecx
    23d4:	83 c8 02             	or     $0x2,%eax
    23d7:	50                   	push   %eax
    23d8:	89 c7                	mov    %eax,%edi
    23da:	68 fc da 00 00       	push   $0xdafc
    23df:	6a 03                	push   $0x3
    23e1:	e8 aa 2f 00 00       	call   5390 <ddf_msg>
    23e6:	58                   	pop    %eax
    23e7:	8b 43 28             	mov    0x28(%ebx),%eax
    23ea:	5a                   	pop    %edx
    23eb:	83 c0 4e             	add    $0x4e,%eax
    23ee:	57                   	push   %edi
    23ef:	50                   	push   %eax
    23f0:	e8 7b fa ff ff       	call   1e70 <hda_reg8_write>
    23f5:	83 c4 10             	add    $0x10,%esp
    23f8:	b9 00 04 00 00       	mov    $0x400,%ecx
    23fd:	ba 00 01 00 00       	mov    $0x100,%edx
    2402:	8b 43 2c             	mov    0x2c(%ebx),%eax
    2405:	89 50 18             	mov    %edx,0x18(%eax)
    2408:	c7 40 14 ff ff ff ff 	movl   $0xffffffff,0x14(%eax)
    240f:	8d 50 14             	lea    0x14(%eax),%edx
    2412:	83 c0 10             	add    $0x10,%eax
    2415:	57                   	push   %edi
    2416:	57                   	push   %edi
    2417:	52                   	push   %edx
    2418:	50                   	push   %eax
    2419:	6a 00                	push   $0x0
    241b:	6a 03                	push   $0x3
    241d:	6a 00                	push   $0x0
    241f:	51                   	push   %ecx
    2420:	e8 9b de 00 00       	call   102c0 <dmamem_map_anonymous@plt>
    2425:	83 c4 18             	add    $0x18,%esp
    2428:	68 e4 d7 00 00       	push   $0xd7e4
    242d:	6a 03                	push   $0x3
    242f:	e8 5c 2f 00 00       	call   5390 <ddf_msg>
    2434:	58                   	pop    %eax
    2435:	8b 43 2c             	mov    0x2c(%ebx),%eax
    2438:	5a                   	pop    %edx
    2439:	8b 48 10             	mov    0x10(%eax),%ecx
    243c:	8b 43 28             	mov    0x28(%ebx),%eax
    243f:	83 c0 40             	add    $0x40,%eax
    2442:	51                   	push   %ecx
    2443:	50                   	push   %eax
    2444:	e8 67 fa ff ff       	call   1eb0 <hda_reg32_write>
    2449:	5f                   	pop    %edi
    244a:	58                   	pop    %eax
    244b:	8b 43 28             	mov    0x28(%ebx),%eax
    244e:	6a 00                	push   $0x0
    2450:	83 c0 44             	add    $0x44,%eax
    2453:	50                   	push   %eax
    2454:	e8 57 fa ff ff       	call   1eb0 <hda_reg32_write>
    2459:	58                   	pop    %eax
    245a:	5a                   	pop    %edx
    245b:	68 88 da 00 00       	push   $0xda88
    2460:	6a 03                	push   $0x3
    2462:	e8 29 2f 00 00       	call   5390 <ddf_msg>
    2467:	8b 43 28             	mov    0x28(%ebx),%eax
    246a:	8d 78 4a             	lea    0x4a(%eax),%edi
    246d:	89 3c 24             	mov    %edi,(%esp)
    2470:	e8 db f9 ff ff       	call   1e50 <hda_reg16_read>
    2475:	0d 00 80 ff ff       	or     $0xffff8000,%eax
    247a:	59                   	pop    %ecx
    247b:	5a                   	pop    %edx
    247c:	89 c2                	mov    %eax,%edx
    247e:	31 c0                	xor    %eax,%eax
    2480:	66 89 d0             	mov    %dx,%ax
    2483:	50                   	push   %eax
    2484:	57                   	push   %edi
    2485:	e8 06 fa ff ff       	call   1e90 <hda_reg16_write>
    248a:	83 c4 10             	add    $0x10,%esp
    248d:	c7 45 e4 e8 03 00 00 	movl   $0x3e8,-0x1c(%ebp)
    2494:	eb 1b                	jmp    24b1 <hda_ctl_init+0x511>
    2496:	66 90                	xchg   %ax,%ax
    2498:	83 ec 0c             	sub    $0xc,%esp
    249b:	68 e8 03 00 00       	push   $0x3e8
    24a0:	e8 3b de 00 00       	call   102e0 <async_usleep@plt>
    24a5:	83 c4 10             	add    $0x10,%esp
    24a8:	ff 4d e4             	decl   -0x1c(%ebp)
    24ab:	0f 84 47 01 00 00    	je     25f8 <hda_ctl_init+0x658>
    24b1:	83 ec 0c             	sub    $0xc,%esp
    24b4:	57                   	push   %edi
    24b5:	e8 96 f9 ff ff       	call   1e50 <hda_reg16_read>
    24ba:	83 c4 10             	add    $0x10,%esp
    24bd:	66 85 c0             	test   %ax,%ax
    24c0:	79 d6                	jns    2498 <hda_ctl_init+0x4f8>
    24c2:	83 ec 0c             	sub    $0xc,%esp
    24c5:	57                   	push   %edi
    24c6:	e8 85 f9 ff ff       	call   1e50 <hda_reg16_read>
    24cb:	25 ff 7f 00 00       	and    $0x7fff,%eax
    24d0:	59                   	pop    %ecx
    24d1:	5a                   	pop    %edx
    24d2:	50                   	push   %eax
    24d3:	57                   	push   %edi
    24d4:	e8 b7 f9 ff ff       	call   1e90 <hda_reg16_write>
    24d9:	83 c4 10             	add    $0x10,%esp
    24dc:	c7 45 e4 e8 03 00 00 	movl   $0x3e8,-0x1c(%ebp)
    24e3:	eb 1c                	jmp    2501 <hda_ctl_init+0x561>
    24e5:	8d 76 00             	lea    0x0(%esi),%esi
    24e8:	83 ec 0c             	sub    $0xc,%esp
    24eb:	68 e8 03 00 00       	push   $0x3e8
    24f0:	e8 eb dd 00 00       	call   102e0 <async_usleep@plt>
    24f5:	83 c4 10             	add    $0x10,%esp
    24f8:	ff 4d e4             	decl   -0x1c(%ebp)
    24fb:	0f 84 f7 00 00 00    	je     25f8 <hda_ctl_init+0x658>
    2501:	83 ec 0c             	sub    $0xc,%esp
    2504:	57                   	push   %edi
    2505:	e8 46 f9 ff ff       	call   1e50 <hda_reg16_read>
    250a:	83 c4 10             	add    $0x10,%esp
    250d:	66 85 c0             	test   %ax,%ax
    2510:	78 d6                	js     24e8 <hda_ctl_init+0x548>
    2512:	51                   	push   %ecx
    2513:	51                   	push   %ecx
    2514:	8b 43 28             	mov    0x28(%ebx),%eax
    2517:	6a 00                	push   $0x0
    2519:	83 c0 48             	add    $0x48,%eax
    251c:	50                   	push   %eax
    251d:	e8 6e f9 ff ff       	call   1e90 <hda_reg16_write>
    2522:	8b 43 28             	mov    0x28(%ebx),%eax
    2525:	83 c0 4c             	add    $0x4c,%eax
    2528:	89 04 24             	mov    %eax,(%esp)
    252b:	e8 10 f9 ff ff       	call   1e40 <hda_reg8_read>
    2530:	83 c8 02             	or     $0x2,%eax
    2533:	89 c7                	mov    %eax,%edi
    2535:	81 e7 ff 00 00 00    	and    $0xff,%edi
    253b:	57                   	push   %edi
    253c:	6a 4c                	push   $0x4c
    253e:	68 d6 d8 00 00       	push   $0xd8d6
    2543:	6a 03                	push   $0x3
    2545:	e8 46 2e 00 00       	call   5390 <ddf_msg>
    254a:	83 c4 18             	add    $0x18,%esp
    254d:	8b 43 28             	mov    0x28(%ebx),%eax
    2550:	57                   	push   %edi
    2551:	83 c0 4c             	add    $0x4c,%eax
    2554:	50                   	push   %eax
    2555:	e8 16 f9 ff ff       	call   1e70 <hda_reg8_write>
    255a:	5f                   	pop    %edi
    255b:	58                   	pop    %eax
    255c:	68 ec d8 00 00       	push   $0xd8ec
    2561:	6a 03                	push   $0x3
    2563:	e8 28 2e 00 00       	call   5390 <ddf_msg>
    2568:	58                   	pop    %eax
    2569:	5a                   	pop    %edx
    256a:	68 fd d8 00 00       	push   $0xd8fd
    256f:	6a 03                	push   $0x3
    2571:	e8 1a 2e 00 00       	call   5390 <ddf_msg>
    2576:	8b 43 28             	mov    0x28(%ebx),%eax
    2579:	83 c0 5c             	add    $0x5c,%eax
    257c:	89 04 24             	mov    %eax,(%esp)
    257f:	e8 bc f8 ff ff       	call   1e40 <hda_reg8_read>
    2584:	83 c4 10             	add    $0x10,%esp
    2587:	a8 02                	test   $0x2,%al
    2589:	0f 85 81 00 00 00    	jne    2610 <hda_ctl_init+0x670>
    258f:	83 ec 0c             	sub    $0xc,%esp
    2592:	8b 43 28             	mov    0x28(%ebx),%eax
    2595:	83 c0 5e             	add    $0x5e,%eax
    2598:	50                   	push   %eax
    2599:	e8 a2 f8 ff ff       	call   1e40 <hda_reg8_read>
    259e:	88 c1                	mov    %al,%cl
    25a0:	31 d2                	xor    %edx,%edx
    25a2:	c0 e9 04             	shr    $0x4,%cl
    25a5:	83 c4 10             	add    $0x10,%esp
    25a8:	88 ca                	mov    %cl,%dl
    25aa:	f6 c2 04             	test   $0x4,%dl
    25ad:	0f 85 fd 00 00 00    	jne    26b0 <hda_ctl_init+0x710>
    25b3:	83 e2 02             	and    $0x2,%edx
    25b6:	0f 85 b1 02 00 00    	jne    286d <hda_ctl_init+0x8cd>
    25bc:	83 e1 01             	and    $0x1,%ecx
    25bf:	0f 85 e4 02 00 00    	jne    28a9 <hda_ctl_init+0x909>
    25c5:	57                   	push   %edi
    25c6:	57                   	push   %edi
    25c7:	68 fc d7 00 00       	push   $0xd7fc
    25cc:	6a 01                	push   $0x1
    25ce:	e8 bd 2d 00 00       	call   5390 <ddf_msg>
    25d3:	8b 43 2c             	mov    0x2c(%ebx),%eax
    25d6:	8b 50 20             	mov    0x20(%eax),%edx
    25d9:	83 c4 10             	add    $0x10,%esp
    25dc:	85 d2                	test   %edx,%edx
    25de:	0f 84 47 fb ff ff    	je     212b <hda_ctl_init+0x18b>
    25e4:	83 ec 0c             	sub    $0xc,%esp
    25e7:	83 c0 20             	add    $0x20,%eax
    25ea:	50                   	push   %eax
    25eb:	e8 20 db 00 00       	call   10110 <dmamem_unmap_anonymous@plt>
    25f0:	83 c4 10             	add    $0x10,%esp
    25f3:	e9 33 fb ff ff       	jmp    212b <hda_ctl_init+0x18b>
    25f8:	51                   	push   %ecx
    25f9:	51                   	push   %ecx
    25fa:	68 be d8 00 00       	push   $0xd8be
    25ff:	6a 03                	push   $0x3
    2601:	e8 8a 2d 00 00       	call   5390 <ddf_msg>
    2606:	83 c4 10             	add    $0x10,%esp
    2609:	e9 23 fd ff ff       	jmp    2331 <hda_ctl_init+0x391>
    260e:	66 90                	xchg   %ax,%ax
    2610:	88 45 e4             	mov    %al,-0x1c(%ebp)
    2613:	51                   	push   %ecx
    2614:	51                   	push   %ecx
    2615:	68 a8 da 00 00       	push   $0xdaa8
    261a:	6a 03                	push   $0x3
    261c:	e8 6f 2d 00 00       	call   5390 <ddf_msg>
    2621:	5f                   	pop    %edi
    2622:	58                   	pop    %eax
    2623:	8a 45 e4             	mov    -0x1c(%ebp),%al
    2626:	25 fd 00 00 00       	and    $0xfd,%eax
    262b:	50                   	push   %eax
    262c:	8b 43 28             	mov    0x28(%ebx),%eax
    262f:	83 c0 4c             	add    $0x4c,%eax
    2632:	50                   	push   %eax
    2633:	e8 38 f8 ff ff       	call   1e70 <hda_reg8_write>
    2638:	83 c4 10             	add    $0x10,%esp
    263b:	e9 4f ff ff ff       	jmp    258f <hda_ctl_init+0x5ef>
    2640:	25 fc 00 00 00       	and    $0xfc,%eax
    2645:	51                   	push   %ecx
    2646:	83 c8 01             	or     $0x1,%eax
    2649:	50                   	push   %eax
    264a:	89 c7                	mov    %eax,%edi
    264c:	68 fc da 00 00       	push   $0xdafc
    2651:	6a 03                	push   $0x3
    2653:	e8 38 2d 00 00       	call   5390 <ddf_msg>
    2658:	58                   	pop    %eax
    2659:	8b 43 28             	mov    0x28(%ebx),%eax
    265c:	5a                   	pop    %edx
    265d:	83 c0 4e             	add    $0x4e,%eax
    2660:	57                   	push   %edi
    2661:	50                   	push   %eax
    2662:	e8 09 f8 ff ff       	call   1e70 <hda_reg8_write>
    2667:	83 c4 10             	add    $0x10,%esp
    266a:	b9 40 00 00 00       	mov    $0x40,%ecx
    266f:	ba 10 00 00 00       	mov    $0x10,%edx
    2674:	e9 89 fd ff ff       	jmp    2402 <hda_ctl_init+0x462>
    2679:	89 c7                	mov    %eax,%edi
    267b:	51                   	push   %ecx
    267c:	81 e7 fc 00 00 00    	and    $0xfc,%edi
    2682:	57                   	push   %edi
    2683:	68 fc da 00 00       	push   $0xdafc
    2688:	6a 03                	push   $0x3
    268a:	e8 01 2d 00 00       	call   5390 <ddf_msg>
    268f:	58                   	pop    %eax
    2690:	8b 43 28             	mov    0x28(%ebx),%eax
    2693:	83 c0 4e             	add    $0x4e,%eax
    2696:	5a                   	pop    %edx
    2697:	57                   	push   %edi
    2698:	50                   	push   %eax
    2699:	e8 d2 f7 ff ff       	call   1e70 <hda_reg8_write>
    269e:	83 c4 10             	add    $0x10,%esp
    26a1:	b9 08 00 00 00       	mov    $0x8,%ecx
    26a6:	ba 02 00 00 00       	mov    $0x2,%edx
    26ab:	e9 52 fd ff ff       	jmp    2402 <hda_ctl_init+0x462>
    26b0:	25 fc 00 00 00       	and    $0xfc,%eax
    26b5:	83 c8 02             	or     $0x2,%eax
    26b8:	89 c7                	mov    %eax,%edi
    26ba:	50                   	push   %eax
    26bb:	57                   	push   %edi
    26bc:	68 20 db 00 00       	push   $0xdb20
    26c1:	6a 03                	push   $0x3
    26c3:	e8 c8 2c 00 00       	call   5390 <ddf_msg>
    26c8:	58                   	pop    %eax
    26c9:	8b 43 28             	mov    0x28(%ebx),%eax
    26cc:	83 c0 5e             	add    $0x5e,%eax
    26cf:	5a                   	pop    %edx
    26d0:	57                   	push   %edi
    26d1:	50                   	push   %eax
    26d2:	e8 99 f7 ff ff       	call   1e70 <hda_reg8_write>
    26d7:	8b 43 2c             	mov    0x2c(%ebx),%eax
    26da:	83 c4 10             	add    $0x10,%esp
    26dd:	b9 00 08 00 00       	mov    $0x800,%ecx
    26e2:	ba 00 01 00 00       	mov    $0x100,%edx
    26e7:	89 50 24             	mov    %edx,0x24(%eax)
    26ea:	c7 40 20 ff ff ff ff 	movl   $0xffffffff,0x20(%eax)
    26f1:	52                   	push   %edx
    26f2:	52                   	push   %edx
    26f3:	8d 50 20             	lea    0x20(%eax),%edx
    26f6:	83 c0 1c             	add    $0x1c,%eax
    26f9:	52                   	push   %edx
    26fa:	50                   	push   %eax
    26fb:	6a 00                	push   $0x0
    26fd:	6a 03                	push   $0x3
    26ff:	6a 00                	push   $0x0
    2701:	51                   	push   %ecx
    2702:	e8 b9 db 00 00       	call   102c0 <dmamem_map_anonymous@plt>
    2707:	83 c4 18             	add    $0x18,%esp
    270a:	68 19 d8 00 00       	push   $0xd819
    270f:	6a 03                	push   $0x3
    2711:	e8 7a 2c 00 00       	call   5390 <ddf_msg>
    2716:	8b 43 2c             	mov    0x2c(%ebx),%eax
    2719:	8b 40 1c             	mov    0x1c(%eax),%eax
    271c:	59                   	pop    %ecx
    271d:	5f                   	pop    %edi
    271e:	50                   	push   %eax
    271f:	8b 43 28             	mov    0x28(%ebx),%eax
    2722:	83 c0 50             	add    $0x50,%eax
    2725:	50                   	push   %eax
    2726:	e8 85 f7 ff ff       	call   1eb0 <hda_reg32_write>
    272b:	58                   	pop    %eax
    272c:	8b 43 28             	mov    0x28(%ebx),%eax
    272f:	83 c0 54             	add    $0x54,%eax
    2732:	5a                   	pop    %edx
    2733:	6a 00                	push   $0x0
    2735:	50                   	push   %eax
    2736:	e8 75 f7 ff ff       	call   1eb0 <hda_reg32_write>
    273b:	59                   	pop    %ecx
    273c:	5f                   	pop    %edi
    273d:	68 31 d8 00 00       	push   $0xd831
    2742:	6a 03                	push   $0x3
    2744:	e8 47 2c 00 00       	call   5390 <ddf_msg>
    2749:	58                   	pop    %eax
    274a:	8b 43 28             	mov    0x28(%ebx),%eax
    274d:	83 c0 58             	add    $0x58,%eax
    2750:	5a                   	pop    %edx
    2751:	68 00 80 00 00       	push   $0x8000
    2756:	50                   	push   %eax
    2757:	e8 34 f7 ff ff       	call   1e90 <hda_reg16_write>
    275c:	8b 43 2c             	mov    0x2c(%ebx),%eax
    275f:	8b 40 24             	mov    0x24(%eax),%eax
    2762:	59                   	pop    %ecx
    2763:	d1 e8                	shr    %eax
    2765:	5f                   	pop    %edi
    2766:	89 c1                	mov    %eax,%ecx
    2768:	31 c0                	xor    %eax,%eax
    276a:	66 89 c8             	mov    %cx,%ax
    276d:	50                   	push   %eax
    276e:	8b 43 28             	mov    0x28(%ebx),%eax
    2771:	83 c0 5a             	add    $0x5a,%eax
    2774:	50                   	push   %eax
    2775:	e8 16 f7 ff ff       	call   1e90 <hda_reg16_write>
    277a:	8b 43 2c             	mov    0x2c(%ebx),%eax
    277d:	c7 40 28 00 00 00 00 	movl   $0x0,0x28(%eax)
    2784:	8b 43 28             	mov    0x28(%ebx),%eax
    2787:	83 c0 5c             	add    $0x5c,%eax
    278a:	89 04 24             	mov    %eax,(%esp)
    278d:	e8 ae f6 ff ff       	call   1e40 <hda_reg8_read>
    2792:	89 c7                	mov    %eax,%edi
    2794:	83 c8 02             	or     $0x2,%eax
    2797:	88 c2                	mov    %al,%dl
    2799:	31 c0                	xor    %eax,%eax
    279b:	88 d0                	mov    %dl,%al
    279d:	50                   	push   %eax
    279e:	6a 5c                	push   $0x5c
    27a0:	68 4a d8 00 00       	push   $0xd84a
    27a5:	6a 03                	push   $0x3
    27a7:	e8 e4 2b 00 00       	call   5390 <ddf_msg>
    27ac:	89 f8                	mov    %edi,%eax
    27ae:	83 c8 03             	or     $0x3,%eax
    27b1:	83 c4 18             	add    $0x18,%esp
    27b4:	89 c7                	mov    %eax,%edi
    27b6:	8b 43 28             	mov    0x28(%ebx),%eax
    27b9:	83 c0 5c             	add    $0x5c,%eax
    27bc:	81 e7 ff 00 00 00    	and    $0xff,%edi
    27c2:	57                   	push   %edi
    27c3:	50                   	push   %eax
    27c4:	e8 a7 f6 ff ff       	call   1e70 <hda_reg8_write>
    27c9:	58                   	pop    %eax
    27ca:	5a                   	pop    %edx
    27cb:	68 60 d8 00 00       	push   $0xd860
    27d0:	6a 03                	push   $0x3
    27d2:	e8 b9 2b 00 00       	call   5390 <ddf_msg>
    27d7:	59                   	pop    %ecx
    27d8:	5f                   	pop    %edi
    27d9:	68 71 d8 00 00       	push   $0xd871
    27de:	6a 03                	push   $0x3
    27e0:	e8 ab 2b 00 00       	call   5390 <ddf_msg>
    27e5:	58                   	pop    %eax
    27e6:	8b 7b 2c             	mov    0x2c(%ebx),%edi
    27e9:	5a                   	pop    %edx
    27ea:	6a 00                	push   $0x0
    27ec:	53                   	push   %ebx
    27ed:	e8 4e e9 ff ff       	call   1140 <hda_codec_init>
    27f2:	83 c4 10             	add    $0x10,%esp
    27f5:	89 87 54 08 00 00    	mov    %eax,0x854(%edi)
    27fb:	8b 43 2c             	mov    0x2c(%ebx),%eax
    27fe:	8b 88 54 08 00 00    	mov    0x854(%eax),%ecx
    2804:	85 c9                	test   %ecx,%ecx
    2806:	0f 84 d7 00 00 00    	je     28e3 <hda_ctl_init+0x943>
    280c:	83 ec 0c             	sub    $0xc,%esp
    280f:	8b 43 28             	mov    0x28(%ebx),%eax
    2812:	83 c0 24             	add    $0x24,%eax
    2815:	50                   	push   %eax
    2816:	e8 45 f6 ff ff       	call   1e60 <hda_reg32_read>
    281b:	83 c4 0c             	add    $0xc,%esp
    281e:	50                   	push   %eax
    281f:	68 9f d8 00 00       	push   $0xd89f
    2824:	6a 03                	push   $0x3
    2826:	e8 65 2b 00 00       	call   5390 <ddf_msg>
    282b:	8b 43 2c             	mov    0x2c(%ebx),%eax
    282e:	8b 53 28             	mov    0x28(%ebx),%edx
    2831:	8b 40 04             	mov    0x4(%eax),%eax
    2834:	c1 e0 05             	shl    $0x5,%eax
    2837:	8d 84 02 83 00 00 00 	lea    0x83(%edx,%eax,1),%eax
    283e:	89 04 24             	mov    %eax,(%esp)
    2841:	e8 fa f5 ff ff       	call   1e40 <hda_reg8_read>
    2846:	88 c1                	mov    %al,%cl
    2848:	31 c0                	xor    %eax,%eax
    284a:	88 c8                	mov    %cl,%al
    284c:	50                   	push   %eax
    284d:	8b 43 2c             	mov    0x2c(%ebx),%eax
    2850:	8b 40 04             	mov    0x4(%eax),%eax
    2853:	50                   	push   %eax
    2854:	68 ab d8 00 00       	push   $0xd8ab
    2859:	6a 03                	push   $0x3
    285b:	e8 30 2b 00 00       	call   5390 <ddf_msg>
    2860:	83 c4 20             	add    $0x20,%esp
    2863:	8d 65 f4             	lea    -0xc(%ebp),%esp
    2866:	89 f0                	mov    %esi,%eax
    2868:	5b                   	pop    %ebx
    2869:	5e                   	pop    %esi
    286a:	5f                   	pop    %edi
    286b:	5d                   	pop    %ebp
    286c:	c3                   	ret    
    286d:	25 fc 00 00 00       	and    $0xfc,%eax
    2872:	51                   	push   %ecx
    2873:	83 c8 01             	or     $0x1,%eax
    2876:	50                   	push   %eax
    2877:	89 c7                	mov    %eax,%edi
    2879:	68 20 db 00 00       	push   $0xdb20
    287e:	6a 03                	push   $0x3
    2880:	e8 0b 2b 00 00       	call   5390 <ddf_msg>
    2885:	58                   	pop    %eax
    2886:	8b 43 28             	mov    0x28(%ebx),%eax
    2889:	5a                   	pop    %edx
    288a:	83 c0 5e             	add    $0x5e,%eax
    288d:	57                   	push   %edi
    288e:	50                   	push   %eax
    288f:	e8 dc f5 ff ff       	call   1e70 <hda_reg8_write>
    2894:	8b 43 2c             	mov    0x2c(%ebx),%eax
    2897:	83 c4 10             	add    $0x10,%esp
    289a:	b9 80 00 00 00       	mov    $0x80,%ecx
    289f:	ba 10 00 00 00       	mov    $0x10,%edx
    28a4:	e9 3e fe ff ff       	jmp    26e7 <hda_ctl_init+0x747>
    28a9:	89 c7                	mov    %eax,%edi
    28ab:	50                   	push   %eax
    28ac:	81 e7 fc 00 00 00    	and    $0xfc,%edi
    28b2:	57                   	push   %edi
    28b3:	68 20 db 00 00       	push   $0xdb20
    28b8:	6a 03                	push   $0x3
    28ba:	e8 d1 2a 00 00       	call   5390 <ddf_msg>
    28bf:	8b 43 28             	mov    0x28(%ebx),%eax
    28c2:	5a                   	pop    %edx
    28c3:	83 c0 5e             	add    $0x5e,%eax
    28c6:	59                   	pop    %ecx
    28c7:	57                   	push   %edi
    28c8:	50                   	push   %eax
    28c9:	e8 a2 f5 ff ff       	call   1e70 <hda_reg8_write>
    28ce:	8b 43 2c             	mov    0x2c(%ebx),%eax
    28d1:	83 c4 10             	add    $0x10,%esp
    28d4:	b9 10 00 00 00       	mov    $0x10,%ecx
    28d9:	ba 02 00 00 00       	mov    $0x2,%edx
    28de:	e9 04 fe ff ff       	jmp    26e7 <hda_ctl_init+0x747>
    28e3:	50                   	push   %eax
    28e4:	50                   	push   %eax
    28e5:	68 87 d8 00 00       	push   $0xd887
    28ea:	6a 03                	push   $0x3
    28ec:	e8 9f 2a 00 00       	call   5390 <ddf_msg>
    28f1:	83 c4 10             	add    $0x10,%esp
    28f4:	e9 32 f8 ff ff       	jmp    212b <hda_ctl_init+0x18b>
    28f9:	8d b4 26 00 00 00 00 	lea    0x0(%esi,%eiz,1),%esi

00002900 <hda_ctl_fini>:
    2900:	55                   	push   %ebp
    2901:	89 e5                	mov    %esp,%ebp
    2903:	56                   	push   %esi
    2904:	53                   	push   %ebx
    2905:	50                   	push   %eax
    2906:	8b 5d 08             	mov    0x8(%ebp),%ebx
    2909:	50                   	push   %eax
    290a:	68 0d d9 00 00       	push   $0xd90d
    290f:	6a 03                	push   $0x3
    2911:	e8 7a 2a 00 00       	call   5390 <ddf_msg>
    2916:	8b b3 58 08 00 00    	mov    0x858(%ebx),%esi
    291c:	8b 46 28             	mov    0x28(%esi),%eax
    291f:	83 c0 5c             	add    $0x5c,%eax
    2922:	89 04 24             	mov    %eax,(%esp)
    2925:	e8 16 f5 ff ff       	call   1e40 <hda_reg8_read>
    292a:	25 fc 00 00 00       	and    $0xfc,%eax
    292f:	5a                   	pop    %edx
    2930:	59                   	pop    %ecx
    2931:	50                   	push   %eax
    2932:	8b 46 28             	mov    0x28(%esi),%eax
    2935:	83 c0 5c             	add    $0x5c,%eax
    2938:	50                   	push   %eax
    2939:	e8 32 f5 ff ff       	call   1e70 <hda_reg8_write>
    293e:	8b 46 2c             	mov    0x2c(%esi),%eax
    2941:	83 c4 10             	add    $0x10,%esp
    2944:	8b 70 20             	mov    0x20(%eax),%esi
    2947:	85 f6                	test   %esi,%esi
    2949:	74 0f                	je     295a <hda_ctl_fini+0x5a>
    294b:	83 ec 0c             	sub    $0xc,%esp
    294e:	83 c0 20             	add    $0x20,%eax
    2951:	50                   	push   %eax
    2952:	e8 b9 d7 00 00       	call   10110 <dmamem_unmap_anonymous@plt>
    2957:	83 c4 10             	add    $0x10,%esp
    295a:	8b b3 58 08 00 00    	mov    0x858(%ebx),%esi
    2960:	83 ec 0c             	sub    $0xc,%esp
    2963:	8b 46 28             	mov    0x28(%esi),%eax
    2966:	83 c0 4c             	add    $0x4c,%eax
    2969:	50                   	push   %eax
    296a:	e8 d1 f4 ff ff       	call   1e40 <hda_reg8_read>
    296f:	25 fd 00 00 00       	and    $0xfd,%eax
    2974:	5a                   	pop    %edx
    2975:	59                   	pop    %ecx
    2976:	50                   	push   %eax
    2977:	8b 46 28             	mov    0x28(%esi),%eax
    297a:	83 c0 4c             	add    $0x4c,%eax
    297d:	50                   	push   %eax
    297e:	e8 ed f4 ff ff       	call   1e70 <hda_reg8_write>
    2983:	8b 46 2c             	mov    0x2c(%esi),%eax
    2986:	83 c4 10             	add    $0x10,%esp
    2989:	8b 70 14             	mov    0x14(%eax),%esi
    298c:	85 f6                	test   %esi,%esi
    298e:	74 0f                	je     299f <hda_ctl_fini+0x9f>
    2990:	83 ec 0c             	sub    $0xc,%esp
    2993:	83 c0 14             	add    $0x14,%eax
    2996:	50                   	push   %eax
    2997:	e8 74 d7 00 00       	call   10110 <dmamem_unmap_anonymous@plt>
    299c:	83 c4 10             	add    $0x10,%esp
    299f:	89 5d 08             	mov    %ebx,0x8(%ebp)
    29a2:	8d 65 f8             	lea    -0x8(%ebp),%esp
    29a5:	5b                   	pop    %ebx
    29a6:	5e                   	pop    %esi
    29a7:	5d                   	pop    %ebp
    29a8:	e9 a3 da 00 00       	jmp    10450 <free@plt>
    29ad:	8d 76 00             	lea    0x0(%esi),%esi

000029b0 <hda_cmd>:
    29b0:	55                   	push   %ebp
    29b1:	89 e5                	mov    %esp,%ebp
    29b3:	57                   	push   %edi
    29b4:	56                   	push   %esi
    29b5:	53                   	push   %ebx
    29b6:	83 ec 28             	sub    $0x28,%esp
    29b9:	8b 75 08             	mov    0x8(%ebp),%esi
    29bc:	8b 46 28             	mov    0x28(%esi),%eax
    29bf:	83 c0 4a             	add    $0x4a,%eax
    29c2:	50                   	push   %eax
    29c3:	e8 88 f4 ff ff       	call   1e50 <hda_reg16_read>
    29c8:	89 c3                	mov    %eax,%ebx
    29ca:	8b 46 28             	mov    0x28(%esi),%eax
    29cd:	83 c0 48             	add    $0x48,%eax
    29d0:	89 df                	mov    %ebx,%edi
    29d2:	89 04 24             	mov    %eax,(%esp)
    29d5:	e8 76 f4 ff ff       	call   1e50 <hda_reg16_read>
    29da:	89 c1                	mov    %eax,%ecx
    29dc:	31 c0                	xor    %eax,%eax
    29de:	81 e7 ff 00 00 00    	and    $0xff,%edi
    29e4:	88 c8                	mov    %cl,%al
    29e6:	29 c7                	sub    %eax,%edi
    29e8:	83 c4 10             	add    $0x10,%esp
    29eb:	4f                   	dec    %edi
    29ec:	79 0e                	jns    29fc <hda_cmd+0x4c>
    29ee:	8b 46 2c             	mov    0x2c(%esi),%eax
    29f1:	8b 40 18             	mov    0x18(%eax),%eax
    29f4:	8d 74 26 00          	lea    0x0(%esi,%eiz,1),%esi
    29f8:	01 c7                	add    %eax,%edi
    29fa:	78 fc                	js     29f8 <hda_cmd+0x48>
    29fc:	83 ec 0c             	sub    $0xc,%esp
    29ff:	8b 46 28             	mov    0x28(%esi),%eax
    2a02:	83 c0 48             	add    $0x48,%eax
    2a05:	50                   	push   %eax
    2a06:	e8 45 f4 ff ff       	call   1e50 <hda_reg16_read>
    2a0b:	88 c1                	mov    %al,%cl
    2a0d:	8b 5e 2c             	mov    0x2c(%esi),%ebx
    2a10:	81 e1 ff 00 00 00    	and    $0xff,%ecx
    2a16:	83 c4 10             	add    $0x10,%esp
    2a19:	89 c8                	mov    %ecx,%eax
    2a1b:	89 4d e0             	mov    %ecx,-0x20(%ebp)
    2a1e:	89 45 dc             	mov    %eax,-0x24(%ebp)
    2a21:	8b 4b 14             	mov    0x14(%ebx),%ecx
    2a24:	85 ff                	test   %edi,%edi
    2a26:	0f 84 20 01 00 00    	je     2b4c <hda_cmd+0x19c>
    2a2c:	40                   	inc    %eax
    2a2d:	31 d2                	xor    %edx,%edx
    2a2f:	f7 73 18             	divl   0x18(%ebx)
    2a32:	8b 45 0c             	mov    0xc(%ebp),%eax
    2a35:	89 d7                	mov    %edx,%edi
    2a37:	89 04 91             	mov    %eax,(%ecx,%edx,4)
    2a3a:	53                   	push   %ebx
    2a3b:	52                   	push   %edx
    2a3c:	68 1c d9 00 00       	push   $0xd91c
    2a41:	6a 05                	push   $0x5
    2a43:	e8 48 29 00 00       	call   5390 <ddf_msg>
    2a48:	58                   	pop    %eax
    2a49:	8b 46 28             	mov    0x28(%esi),%eax
    2a4c:	83 c0 48             	add    $0x48,%eax
    2a4f:	5a                   	pop    %edx
    2a50:	57                   	push   %edi
    2a51:	50                   	push   %eax
    2a52:	e8 39 f4 ff ff       	call   1e90 <hda_reg16_write>
    2a57:	8b 4d 10             	mov    0x10(%ebp),%ecx
    2a5a:	83 c4 10             	add    $0x10,%esp
    2a5d:	85 c9                	test   %ecx,%ecx
    2a5f:	0f 84 90 00 00 00    	je     2af5 <hda_cmd+0x145>
    2a65:	53                   	push   %ebx
    2a66:	53                   	push   %ebx
    2a67:	68 2d d9 00 00       	push   $0xd92d
    2a6c:	6a 04                	push   $0x4
    2a6e:	e8 1d 29 00 00       	call   5390 <ddf_msg>
    2a73:	8b 46 2c             	mov    0x2c(%esi),%eax
    2a76:	83 c0 2c             	add    $0x2c,%eax
    2a79:	89 04 24             	mov    %eax,(%esp)
    2a7c:	e8 ef d9 00 00       	call   10470 <fibril_mutex_lock@plt>
    2a81:	8b 56 2c             	mov    0x2c(%esi),%edx
    2a84:	83 c4 10             	add    $0x10,%esp
    2a87:	8b 82 44 04 00 00    	mov    0x444(%edx),%eax
    2a8d:	8b 8a 48 04 00 00    	mov    0x448(%edx),%ecx
    2a93:	39 c8                	cmp    %ecx,%eax
    2a95:	75 1e                	jne    2ab5 <hda_cmd+0x105>
    2a97:	e9 40 01 00 00       	jmp    2bdc <hda_cmd+0x22c>
    2a9c:	8d 74 26 00          	lea    0x0(%esi,%eiz,1),%esi
    2aa0:	8b 56 2c             	mov    0x2c(%esi),%edx
    2aa3:	8b 82 44 04 00 00    	mov    0x444(%edx),%eax
    2aa9:	3b 82 48 04 00 00    	cmp    0x448(%edx),%eax
    2aaf:	0f 84 27 01 00 00    	je     2bdc <hda_cmd+0x22c>
    2ab5:	40                   	inc    %eax
    2ab6:	83 e0 7f             	and    $0x7f,%eax
    2ab9:	89 82 44 04 00 00    	mov    %eax,0x444(%edx)
    2abf:	8d 44 c2 44          	lea    0x44(%edx,%eax,8),%eax
    2ac3:	8b 58 04             	mov    0x4(%eax),%ebx
    2ac6:	8b 38                	mov    (%eax),%edi
    2ac8:	53                   	push   %ebx
    2ac9:	57                   	push   %edi
    2aca:	68 44 db 00 00       	push   $0xdb44
    2acf:	6a 05                	push   $0x5
    2ad1:	e8 ba 28 00 00       	call   5390 <ddf_msg>
    2ad6:	83 c4 10             	add    $0x10,%esp
    2ad9:	83 e3 10             	and    $0x10,%ebx
    2adc:	75 c2                	jne    2aa0 <hda_cmd+0xf0>
    2ade:	83 ec 0c             	sub    $0xc,%esp
    2ae1:	8b 46 2c             	mov    0x2c(%esi),%eax
    2ae4:	83 c0 2c             	add    $0x2c,%eax
    2ae7:	50                   	push   %eax
    2ae8:	e8 b3 d6 00 00       	call   101a0 <fibril_mutex_unlock@plt>
    2aed:	8b 45 10             	mov    0x10(%ebp),%eax
    2af0:	83 c4 10             	add    $0x10,%esp
    2af3:	89 38                	mov    %edi,(%eax)
    2af5:	8d 65 f4             	lea    -0xc(%ebp),%esp
    2af8:	31 c0                	xor    %eax,%eax
    2afa:	5b                   	pop    %ebx
    2afb:	5e                   	pop    %esi
    2afc:	5f                   	pop    %edi
    2afd:	5d                   	pop    %ebp
    2afe:	c3                   	ret    
    2aff:	83 ec 0c             	sub    $0xc,%esp
    2b02:	8b 46 28             	mov    0x28(%esi),%eax
    2b05:	83 c0 4a             	add    $0x4a,%eax
    2b08:	50                   	push   %eax
    2b09:	e8 42 f3 ff ff       	call   1e50 <hda_reg16_read>
    2b0e:	89 c7                	mov    %eax,%edi
    2b10:	8b 46 28             	mov    0x28(%esi),%eax
    2b13:	83 c0 48             	add    $0x48,%eax
    2b16:	89 fb                	mov    %edi,%ebx
    2b18:	89 04 24             	mov    %eax,(%esp)
    2b1b:	e8 30 f3 ff ff       	call   1e50 <hda_reg16_read>
    2b20:	89 c1                	mov    %eax,%ecx
    2b22:	31 c0                	xor    %eax,%eax
    2b24:	81 e3 ff 00 00 00    	and    $0xff,%ebx
    2b2a:	88 c8                	mov    %cl,%al
    2b2c:	29 c3                	sub    %eax,%ebx
    2b2e:	83 c4 10             	add    $0x10,%esp
    2b31:	89 d8                	mov    %ebx,%eax
    2b33:	48                   	dec    %eax
    2b34:	79 0e                	jns    2b44 <hda_cmd+0x194>
    2b36:	8b 4e 2c             	mov    0x2c(%esi),%ecx
    2b39:	8b 49 18             	mov    0x18(%ecx),%ecx
    2b3c:	8d 74 26 00          	lea    0x0(%esi,%eiz,1),%esi
    2b40:	01 c8                	add    %ecx,%eax
    2b42:	78 fc                	js     2b40 <hda_cmd+0x190>
    2b44:	85 c0                	test   %eax,%eax
    2b46:	0f 84 35 01 00 00    	je     2c81 <hda_cmd+0x2d1>
    2b4c:	8b 45 e0             	mov    -0x20(%ebp),%eax
    2b4f:	57                   	push   %edi
    2b50:	50                   	push   %eax
    2b51:	68 1c d9 00 00       	push   $0xd91c
    2b56:	6a 05                	push   $0x5
    2b58:	e8 33 28 00 00       	call   5390 <ddf_msg>
    2b5d:	58                   	pop    %eax
    2b5e:	8b 46 28             	mov    0x28(%esi),%eax
    2b61:	8b 4d dc             	mov    -0x24(%ebp),%ecx
    2b64:	83 c0 48             	add    $0x48,%eax
    2b67:	5a                   	pop    %edx
    2b68:	51                   	push   %ecx
    2b69:	50                   	push   %eax
    2b6a:	bf 0a 00 00 00       	mov    $0xa,%edi
    2b6f:	e8 1c f3 ff ff       	call   1e90 <hda_reg16_write>
    2b74:	83 c4 10             	add    $0x10,%esp
    2b77:	90                   	nop
    2b78:	83 ec 0c             	sub    $0xc,%esp
    2b7b:	8b 46 28             	mov    0x28(%esi),%eax
    2b7e:	83 c0 4a             	add    $0x4a,%eax
    2b81:	31 db                	xor    %ebx,%ebx
    2b83:	50                   	push   %eax
    2b84:	e8 c7 f2 ff ff       	call   1e50 <hda_reg16_read>
    2b89:	66 89 45 e6          	mov    %ax,-0x1a(%ebp)
    2b8d:	8b 46 28             	mov    0x28(%esi),%eax
    2b90:	83 c0 48             	add    $0x48,%eax
    2b93:	89 04 24             	mov    %eax,(%esp)
    2b96:	e8 b5 f2 ff ff       	call   1e50 <hda_reg16_read>
    2b9b:	89 c1                	mov    %eax,%ecx
    2b9d:	31 c0                	xor    %eax,%eax
    2b9f:	8a 5d e6             	mov    -0x1a(%ebp),%bl
    2ba2:	88 c8                	mov    %cl,%al
    2ba4:	29 c3                	sub    %eax,%ebx
    2ba6:	83 c4 10             	add    $0x10,%esp
    2ba9:	4b                   	dec    %ebx
    2baa:	79 10                	jns    2bbc <hda_cmd+0x20c>
    2bac:	8b 46 2c             	mov    0x2c(%esi),%eax
    2baf:	8b 40 18             	mov    0x18(%eax),%eax
    2bb2:	8d b6 00 00 00 00    	lea    0x0(%esi),%esi
    2bb8:	01 c3                	add    %eax,%ebx
    2bba:	78 fc                	js     2bb8 <hda_cmd+0x208>
    2bbc:	85 db                	test   %ebx,%ebx
    2bbe:	0f 85 3b ff ff ff    	jne    2aff <hda_cmd+0x14f>
    2bc4:	85 ff                	test   %edi,%edi
    2bc6:	0f 84 33 ff ff ff    	je     2aff <hda_cmd+0x14f>
    2bcc:	83 ec 0c             	sub    $0xc,%esp
    2bcf:	4f                   	dec    %edi
    2bd0:	6a 64                	push   $0x64
    2bd2:	e8 09 d7 00 00       	call   102e0 <async_usleep@plt>
    2bd7:	83 c4 10             	add    $0x10,%esp
    2bda:	eb 9c                	jmp    2b78 <hda_cmd+0x1c8>
    2bdc:	50                   	push   %eax
    2bdd:	8d 42 2c             	lea    0x2c(%edx),%eax
    2be0:	83 c2 3c             	add    $0x3c,%edx
    2be3:	68 a0 86 01 00       	push   $0x186a0
    2be8:	50                   	push   %eax
    2be9:	52                   	push   %edx
    2bea:	e8 31 d5 00 00       	call   10120 <fibril_condvar_wait_timeout@plt>
    2bef:	8b 56 2c             	mov    0x2c(%esi),%edx
    2bf2:	8b 8a 48 04 00 00    	mov    0x448(%edx),%ecx
    2bf8:	8b 82 44 04 00 00    	mov    0x444(%edx),%eax
    2bfe:	83 c4 10             	add    $0x10,%esp
    2c01:	39 c1                	cmp    %eax,%ecx
    2c03:	0f 85 8a fe ff ff    	jne    2a93 <hda_cmd+0xe3>
    2c09:	51                   	push   %ecx
    2c0a:	51                   	push   %ecx
    2c0b:	68 6c db 00 00       	push   $0xdb6c
    2c10:	6a 03                	push   $0x3
    2c12:	e8 79 27 00 00       	call   5390 <ddf_msg>
    2c17:	8b 46 2c             	mov    0x2c(%esi),%eax
    2c1a:	83 c0 2c             	add    $0x2c,%eax
    2c1d:	89 04 24             	mov    %eax,(%esp)
    2c20:	e8 7b d5 00 00       	call   101a0 <fibril_mutex_unlock@plt>
    2c25:	8b 46 2c             	mov    0x2c(%esi),%eax
    2c28:	e8 93 f2 ff ff       	call   1ec0 <hda_ctl_process_rirb>
    2c2d:	8b 46 2c             	mov    0x2c(%esi),%eax
    2c30:	83 c0 2c             	add    $0x2c,%eax
    2c33:	89 04 24             	mov    %eax,(%esp)
    2c36:	e8 35 d8 00 00       	call   10470 <fibril_mutex_lock@plt>
    2c3b:	8b 56 2c             	mov    0x2c(%esi),%edx
    2c3e:	83 c4 10             	add    $0x10,%esp
    2c41:	8b 8a 48 04 00 00    	mov    0x448(%edx),%ecx
    2c47:	8b 82 44 04 00 00    	mov    0x444(%edx),%eax
    2c4d:	39 c1                	cmp    %eax,%ecx
    2c4f:	0f 85 3e fe ff ff    	jne    2a93 <hda_cmd+0xe3>
    2c55:	52                   	push   %edx
    2c56:	52                   	push   %edx
    2c57:	68 3e d9 00 00       	push   $0xd93e
    2c5c:	6a 03                	push   $0x3
    2c5e:	e8 2d 27 00 00       	call   5390 <ddf_msg>
    2c63:	8b 46 2c             	mov    0x2c(%esi),%eax
    2c66:	83 c0 2c             	add    $0x2c,%eax
    2c69:	89 04 24             	mov    %eax,(%esp)
    2c6c:	e8 2f d5 00 00       	call   101a0 <fibril_mutex_unlock@plt>
    2c71:	83 c4 10             	add    $0x10,%esp
    2c74:	8d 65 f4             	lea    -0xc(%ebp),%esp
    2c77:	b8 f3 ff ff ff       	mov    $0xfffffff3,%eax
    2c7c:	5b                   	pop    %ebx
    2c7d:	5e                   	pop    %esi
    2c7e:	5f                   	pop    %edi
    2c7f:	5d                   	pop    %ebp
    2c80:	c3                   	ret    
    2c81:	8d 65 f4             	lea    -0xc(%ebp),%esp
    2c84:	b8 f3 ff ff ff       	mov    $0xfffffff3,%eax
    2c89:	5b                   	pop    %ebx
    2c8a:	5e                   	pop    %esi
    2c8b:	5f                   	pop    %edi
    2c8c:	5d                   	pop    %ebp
    2c8d:	c3                   	ret    
    2c8e:	66 90                	xchg   %ax,%ax

00002c90 <hda_ctl_interrupt>:
    2c90:	55                   	push   %ebp
    2c91:	89 e5                	mov    %esp,%ebp
    2c93:	8b 45 08             	mov    0x8(%ebp),%eax
    2c96:	5d                   	pop    %ebp
    2c97:	e9 24 f2 ff ff       	jmp    1ec0 <hda_ctl_process_rirb>
    2c9c:	8d 74 26 00          	lea    0x0(%esi,%eiz,1),%esi

00002ca0 <hda_ctl_dump_info>:
    2ca0:	55                   	push   %ebp
    2ca1:	89 e5                	mov    %esp,%ebp
    2ca3:	56                   	push   %esi
    2ca4:	53                   	push   %ebx
    2ca5:	8b 5d 08             	mov    0x8(%ebp),%ebx
    2ca8:	83 ec 0c             	sub    $0xc,%esp
    2cab:	8b 83 58 08 00 00    	mov    0x858(%ebx),%eax
    2cb1:	8b 40 28             	mov    0x28(%eax),%eax
    2cb4:	83 c0 4a             	add    $0x4a,%eax
    2cb7:	50                   	push   %eax
    2cb8:	e8 93 f1 ff ff       	call   1e50 <hda_reg16_read>
    2cbd:	89 c6                	mov    %eax,%esi
    2cbf:	8b 83 58 08 00 00    	mov    0x858(%ebx),%eax
    2cc5:	81 e6 ff ff 00 00    	and    $0xffff,%esi
    2ccb:	8b 40 28             	mov    0x28(%eax),%eax
    2cce:	83 c0 48             	add    $0x48,%eax
    2cd1:	89 04 24             	mov    %eax,(%esp)
    2cd4:	e8 77 f1 ff ff       	call   1e50 <hda_reg16_read>
    2cd9:	25 ff ff 00 00       	and    $0xffff,%eax
    2cde:	56                   	push   %esi
    2cdf:	50                   	push   %eax
    2ce0:	68 58 d9 00 00       	push   $0xd958
    2ce5:	6a 03                	push   $0x3
    2ce7:	e8 a4 26 00 00       	call   5390 <ddf_msg>
    2cec:	8b 83 58 08 00 00    	mov    0x858(%ebx),%eax
    2cf2:	83 c4 14             	add    $0x14,%esp
    2cf5:	8b 40 28             	mov    0x28(%eax),%eax
    2cf8:	83 c0 4d             	add    $0x4d,%eax
    2cfb:	50                   	push   %eax
    2cfc:	e8 3f f1 ff ff       	call   1e40 <hda_reg8_read>
    2d01:	89 c6                	mov    %eax,%esi
    2d03:	8b 83 58 08 00 00    	mov    0x858(%ebx),%eax
    2d09:	81 e6 ff 00 00 00    	and    $0xff,%esi
    2d0f:	8b 40 28             	mov    0x28(%eax),%eax
    2d12:	83 c0 4c             	add    $0x4c,%eax
    2d15:	89 04 24             	mov    %eax,(%esp)
    2d18:	e8 23 f1 ff ff       	call   1e40 <hda_reg8_read>
    2d1d:	25 ff 00 00 00       	and    $0xff,%eax
    2d22:	56                   	push   %esi
    2d23:	50                   	push   %eax
    2d24:	68 6d d9 00 00       	push   $0xd96d
    2d29:	6a 03                	push   $0x3
    2d2b:	e8 60 26 00 00       	call   5390 <ddf_msg>
    2d30:	8b 83 58 08 00 00    	mov    0x858(%ebx),%eax
    2d36:	83 c4 14             	add    $0x14,%esp
    2d39:	8b 73 28             	mov    0x28(%ebx),%esi
    2d3c:	8b 40 28             	mov    0x28(%eax),%eax
    2d3f:	83 c0 58             	add    $0x58,%eax
    2d42:	50                   	push   %eax
    2d43:	e8 08 f1 ff ff       	call   1e50 <hda_reg16_read>
    2d48:	25 ff ff 00 00       	and    $0xffff,%eax
    2d4d:	56                   	push   %esi
    2d4e:	50                   	push   %eax
    2d4f:	68 a0 db 00 00       	push   $0xdba0
    2d54:	6a 03                	push   $0x3
    2d56:	e8 35 26 00 00       	call   5390 <ddf_msg>
    2d5b:	83 c4 20             	add    $0x20,%esp
    2d5e:	8b 83 48 04 00 00    	mov    0x448(%ebx),%eax
    2d64:	50                   	push   %eax
    2d65:	50                   	push   %eax
    2d66:	68 c0 db 00 00       	push   $0xdbc0
    2d6b:	6a 03                	push   $0x3
    2d6d:	e8 1e 26 00 00       	call   5390 <ddf_msg>
    2d72:	83 c4 10             	add    $0x10,%esp
    2d75:	8d 65 f8             	lea    -0x8(%ebp),%esp
    2d78:	5b                   	pop    %ebx
    2d79:	5e                   	pop    %esi
    2d7a:	5d                   	pop    %ebp
    2d7b:	c3                   	ret    
    2d7c:	66 90                	xchg   %ax,%ax
    2d7e:	66 90                	xchg   %ax,%ax

00002d80 <hda_fun_offline>:
    2d80:	55                   	push   %ebp
    2d81:	89 e5                	mov    %esp,%ebp
    2d83:	53                   	push   %ebx
    2d84:	83 ec 0c             	sub    $0xc,%esp
    2d87:	8b 5d 08             	mov    0x8(%ebp),%ebx
    2d8a:	68 df db 00 00       	push   $0xdbdf
    2d8f:	6a 04                	push   $0x4
    2d91:	e8 fa 25 00 00       	call   5390 <ddf_msg>
    2d96:	89 5d 08             	mov    %ebx,0x8(%ebp)
    2d99:	83 c4 10             	add    $0x10,%esp
    2d9c:	8b 5d fc             	mov    -0x4(%ebp),%ebx
    2d9f:	c9                   	leave  
    2da0:	e9 9b 22 00 00       	jmp    5040 <ddf_fun_offline>
    2da5:	8d 74 26 00          	lea    0x0(%esi,%eiz,1),%esi
    2da9:	8d bc 27 00 00 00 00 	lea    0x0(%edi,%eiz,1),%edi

00002db0 <hda_fun_online>:
    2db0:	55                   	push   %ebp
    2db1:	89 e5                	mov    %esp,%ebp
    2db3:	53                   	push   %ebx
    2db4:	83 ec 0c             	sub    $0xc,%esp
    2db7:	8b 5d 08             	mov    0x8(%ebp),%ebx
    2dba:	68 f1 db 00 00       	push   $0xdbf1
    2dbf:	6a 04                	push   $0x4
    2dc1:	e8 ca 25 00 00       	call   5390 <ddf_msg>
    2dc6:	89 5d 08             	mov    %ebx,0x8(%ebp)
    2dc9:	83 c4 10             	add    $0x10,%esp
    2dcc:	8b 5d fc             	mov    -0x4(%ebp),%ebx
    2dcf:	c9                   	leave  
    2dd0:	e9 3b 22 00 00       	jmp    5010 <ddf_fun_online>
    2dd5:	8d 74 26 00          	lea    0x0(%esi,%eiz,1),%esi
    2dd9:	8d bc 27 00 00 00 00 	lea    0x0(%edi,%eiz,1),%edi

00002de0 <hda_dev_gone>:
    2de0:	55                   	push   %ebp
    2de1:	89 e5                	mov    %esp,%ebp
    2de3:	56                   	push   %esi
    2de4:	53                   	push   %ebx
    2de5:	83 ec 0c             	sub    $0xc,%esp
    2de8:	8b 5d 08             	mov    0x8(%ebp),%ebx
    2deb:	53                   	push   %ebx
    2dec:	e8 9f 1c 00 00       	call   4a90 <ddf_dev_data_get>
    2df1:	83 c4 0c             	add    $0xc,%esp
    2df4:	89 c6                	mov    %eax,%esi
    2df6:	53                   	push   %ebx
    2df7:	68 02 dc 00 00       	push   $0xdc02
    2dfc:	6a 04                	push   $0x4
    2dfe:	e8 8d 25 00 00       	call   5390 <ddf_msg>
    2e03:	8b 46 18             	mov    0x18(%esi),%eax
    2e06:	83 c4 10             	add    $0x10,%esp
    2e09:	85 c0                	test   %eax,%eax
    2e0b:	74 13                	je     2e20 <hda_dev_gone+0x40>
    2e0d:	89 45 08             	mov    %eax,0x8(%ebp)
    2e10:	8d 65 f8             	lea    -0x8(%ebp),%esp
    2e13:	5b                   	pop    %ebx
    2e14:	5e                   	pop    %esi
    2e15:	5d                   	pop    %ebp
    2e16:	e9 55 21 00 00       	jmp    4f70 <ddf_fun_unbind>
    2e1b:	90                   	nop
    2e1c:	8d 74 26 00          	lea    0x0(%esi,%eiz,1),%esi
    2e20:	8d 65 f8             	lea    -0x8(%ebp),%esp
    2e23:	31 c0                	xor    %eax,%eax
    2e25:	5b                   	pop    %ebx
    2e26:	5e                   	pop    %esi
    2e27:	5d                   	pop    %ebp
    2e28:	c3                   	ret    
    2e29:	8d b4 26 00 00 00 00 	lea    0x0(%esi,%eiz,1),%esi

00002e30 <hda_dev_remove>:
    2e30:	55                   	push   %ebp
    2e31:	89 e5                	mov    %esp,%ebp
    2e33:	56                   	push   %esi
    2e34:	53                   	push   %ebx
    2e35:	83 ec 0c             	sub    $0xc,%esp
    2e38:	8b 5d 08             	mov    0x8(%ebp),%ebx
    2e3b:	53                   	push   %ebx
    2e3c:	e8 4f 1c 00 00       	call   4a90 <ddf_dev_data_get>
    2e41:	83 c4 0c             	add    $0xc,%esp
    2e44:	89 c6                	mov    %eax,%esi
    2e46:	53                   	push   %ebx
    2e47:	68 02 dc 00 00       	push   $0xdc02
    2e4c:	6a 04                	push   $0x4
    2e4e:	e8 3d 25 00 00       	call   5390 <ddf_msg>
    2e53:	8b 46 18             	mov    0x18(%esi),%eax
    2e56:	83 c4 10             	add    $0x10,%esp
    2e59:	85 c0                	test   %eax,%eax
    2e5b:	74 2e                	je     2e8b <hda_dev_remove+0x5b>
    2e5d:	83 ec 0c             	sub    $0xc,%esp
    2e60:	50                   	push   %eax
    2e61:	e8 da 21 00 00       	call   5040 <ddf_fun_offline>
    2e66:	83 c4 10             	add    $0x10,%esp
    2e69:	85 c0                	test   %eax,%eax
    2e6b:	74 0b                	je     2e78 <hda_dev_remove+0x48>
    2e6d:	8d 65 f8             	lea    -0x8(%ebp),%esp
    2e70:	5b                   	pop    %ebx
    2e71:	5e                   	pop    %esi
    2e72:	5d                   	pop    %ebp
    2e73:	c3                   	ret    
    2e74:	8d 74 26 00          	lea    0x0(%esi,%eiz,1),%esi
    2e78:	83 ec 0c             	sub    $0xc,%esp
    2e7b:	8b 46 18             	mov    0x18(%esi),%eax
    2e7e:	50                   	push   %eax
    2e7f:	e8 ec 20 00 00       	call   4f70 <ddf_fun_unbind>
    2e84:	83 c4 10             	add    $0x10,%esp
    2e87:	85 c0                	test   %eax,%eax
    2e89:	75 e2                	jne    2e6d <hda_dev_remove+0x3d>
    2e8b:	83 ec 0c             	sub    $0xc,%esp
    2e8e:	8b 56 2c             	mov    0x2c(%esi),%edx
    2e91:	52                   	push   %edx
    2e92:	e8 69 fa ff ff       	call   2900 <hda_ctl_fini>
    2e97:	83 c4 10             	add    $0x10,%esp
    2e9a:	8d 65 f8             	lea    -0x8(%ebp),%esp
    2e9d:	31 c0                	xor    %eax,%eax
    2e9f:	5b                   	pop    %ebx
    2ea0:	5e                   	pop    %esi
    2ea1:	5d                   	pop    %ebp
    2ea2:	c3                   	ret    
    2ea3:	8d b6 00 00 00 00    	lea    0x0(%esi),%esi
    2ea9:	8d bc 27 00 00 00 00 	lea    0x0(%edi,%eiz,1),%edi

00002eb0 <hdaudio_interrupt>:
    2eb0:	55                   	push   %ebp
    2eb1:	89 e5                	mov    %esp,%ebp
    2eb3:	56                   	push   %esi
    2eb4:	53                   	push   %ebx
    2eb5:	83 ec 0c             	sub    $0xc,%esp
    2eb8:	8b 45 10             	mov    0x10(%ebp),%eax
    2ebb:	8b 75 0c             	mov    0xc(%ebp),%esi
    2ebe:	50                   	push   %eax
    2ebf:	e8 cc 1b 00 00       	call   4a90 <ddf_dev_data_get>
    2ec4:	5a                   	pop    %edx
    2ec5:	89 c3                	mov    %eax,%ebx
    2ec7:	8b 48 2c             	mov    0x2c(%eax),%ecx
    2eca:	51                   	push   %ecx
    2ecb:	e8 c0 fd ff ff       	call   2c90 <hda_ctl_interrupt>
    2ed0:	8b 76 0c             	mov    0xc(%esi),%esi
    2ed3:	83 c4 10             	add    $0x10,%esp
    2ed6:	85 f6                	test   %esi,%esi
    2ed8:	75 0e                	jne    2ee8 <hdaudio_interrupt+0x38>
    2eda:	8d 65 f8             	lea    -0x8(%ebp),%esp
    2edd:	5b                   	pop    %ebx
    2ede:	5e                   	pop    %esi
    2edf:	5d                   	pop    %ebp
    2ee0:	c3                   	ret    
    2ee1:	8d b4 26 00 00 00 00 	lea    0x0(%esi,%eiz,1),%esi
    2ee8:	83 ec 0c             	sub    $0xc,%esp
    2eeb:	53                   	push   %ebx
    2eec:	e8 7f d5 00 00       	call   10470 <fibril_mutex_lock@plt>
    2ef1:	83 c4 10             	add    $0x10,%esp
    2ef4:	80 7b 38 00          	cmpb   $0x0,0x38(%ebx)
    2ef8:	75 56                	jne    2f50 <hdaudio_interrupt+0xa0>
    2efa:	80 7b 39 00          	cmpb   $0x0,0x39(%ebx)
    2efe:	75 10                	jne    2f10 <hdaudio_interrupt+0x60>
    2f00:	89 5d 08             	mov    %ebx,0x8(%ebp)
    2f03:	8d 65 f8             	lea    -0x8(%ebp),%esp
    2f06:	5b                   	pop    %ebx
    2f07:	5e                   	pop    %esi
    2f08:	5d                   	pop    %ebp
    2f09:	e9 92 d2 00 00       	jmp    101a0 <fibril_mutex_unlock@plt>
    2f0e:	66 90                	xchg   %ax,%ax
    2f10:	50                   	push   %eax
    2f11:	50                   	push   %eax
    2f12:	68 03 04 00 00       	push   $0x403
    2f17:	53                   	push   %ebx
    2f18:	e8 93 0c 00 00       	call   3bb0 <hda_pcm_event>
    2f1d:	5a                   	pop    %edx
    2f1e:	59                   	pop    %ecx
    2f1f:	68 03 04 00 00       	push   $0x403
    2f24:	53                   	push   %ebx
    2f25:	e8 86 0c 00 00       	call   3bb0 <hda_pcm_event>
    2f2a:	5e                   	pop    %esi
    2f2b:	58                   	pop    %eax
    2f2c:	68 03 04 00 00       	push   $0x403
    2f31:	53                   	push   %ebx
    2f32:	e8 79 0c 00 00       	call   3bb0 <hda_pcm_event>
    2f37:	58                   	pop    %eax
    2f38:	5a                   	pop    %edx
    2f39:	68 03 04 00 00       	push   $0x403
    2f3e:	53                   	push   %ebx
    2f3f:	e8 6c 0c 00 00       	call   3bb0 <hda_pcm_event>
    2f44:	83 c4 10             	add    $0x10,%esp
    2f47:	eb b7                	jmp    2f00 <hdaudio_interrupt+0x50>
    2f49:	8d b4 26 00 00 00 00 	lea    0x0(%esi,%eiz,1),%esi
    2f50:	51                   	push   %ecx
    2f51:	51                   	push   %ecx
    2f52:	68 02 04 00 00       	push   $0x402
    2f57:	53                   	push   %ebx
    2f58:	e8 53 0c 00 00       	call   3bb0 <hda_pcm_event>
    2f5d:	5e                   	pop    %esi
    2f5e:	58                   	pop    %eax
    2f5f:	68 02 04 00 00       	push   $0x402
    2f64:	53                   	push   %ebx
    2f65:	e8 46 0c 00 00       	call   3bb0 <hda_pcm_event>
    2f6a:	58                   	pop    %eax
    2f6b:	5a                   	pop    %edx
    2f6c:	68 02 04 00 00       	push   $0x402
    2f71:	53                   	push   %ebx
    2f72:	e8 39 0c 00 00       	call   3bb0 <hda_pcm_event>
    2f77:	59                   	pop    %ecx
    2f78:	5e                   	pop    %esi
    2f79:	68 02 04 00 00       	push   $0x402
    2f7e:	53                   	push   %ebx
    2f7f:	e8 2c 0c 00 00       	call   3bb0 <hda_pcm_event>
    2f84:	89 5d 08             	mov    %ebx,0x8(%ebp)
    2f87:	83 c4 10             	add    $0x10,%esp
    2f8a:	8d 65 f8             	lea    -0x8(%ebp),%esp
    2f8d:	5b                   	pop    %ebx
    2f8e:	5e                   	pop    %esi
    2f8f:	5d                   	pop    %ebp
    2f90:	e9 0b d2 00 00       	jmp    101a0 <fibril_mutex_unlock@plt>
    2f95:	8d 74 26 00          	lea    0x0(%esi,%eiz,1),%esi
    2f99:	8d bc 27 00 00 00 00 	lea    0x0(%edi,%eiz,1),%edi

00002fa0 <hda_dev_add>:
    2fa0:	55                   	push   %ebp
    2fa1:	89 e5                	mov    %esp,%ebp
    2fa3:	57                   	push   %edi
    2fa4:	56                   	push   %esi
    2fa5:	53                   	push   %ebx
    2fa6:	83 ec 64             	sub    $0x64,%esp
    2fa9:	c7 45 b4 00 00 00 00 	movl   $0x0,-0x4c(%ebp)
    2fb0:	68 15 dc 00 00       	push   $0xdc15
    2fb5:	6a 03                	push   $0x3
    2fb7:	e8 d4 23 00 00       	call   5390 <ddf_msg>
    2fbc:	83 c4 0c             	add    $0xc,%esp
    2fbf:	8d 45 c8             	lea    -0x38(%ebp),%eax
    2fc2:	6a 20                	push   $0x20
    2fc4:	6a 00                	push   $0x0
    2fc6:	50                   	push   %eax
    2fc7:	e8 c4 d2 00 00       	call   10290 <memset@plt>
    2fcc:	8b 4d 08             	mov    0x8(%ebp),%ecx
    2fcf:	58                   	pop    %eax
    2fd0:	5a                   	pop    %edx
    2fd1:	6a 3c                	push   $0x3c
    2fd3:	51                   	push   %ecx
    2fd4:	e8 77 1a 00 00       	call   4a50 <ddf_dev_data_alloc>
    2fd9:	83 c4 10             	add    $0x10,%esp
    2fdc:	85 c0                	test   %eax,%eax
    2fde:	0f 84 4c 01 00 00    	je     3130 <hda_dev_add+0x190>
    2fe4:	83 ec 0c             	sub    $0xc,%esp
    2fe7:	89 c3                	mov    %eax,%ebx
    2fe9:	50                   	push   %eax
    2fea:	e8 e1 d1 00 00       	call   101d0 <fibril_mutex_initialize@plt>
    2fef:	58                   	pop    %eax
    2ff0:	5a                   	pop    %edx
    2ff1:	68 23 dc 00 00       	push   $0xdc23
    2ff6:	6a 03                	push   $0x3
    2ff8:	e8 93 23 00 00       	call   5390 <ddf_msg>
    2ffd:	8b 75 08             	mov    0x8(%ebp),%esi
    3000:	59                   	pop    %ecx
    3001:	56                   	push   %esi
    3002:	e8 b9 1a 00 00       	call   4ac0 <ddf_dev_parent_sess_create>
    3007:	83 c4 10             	add    $0x10,%esp
    300a:	89 43 10             	mov    %eax,0x10(%ebx)
    300d:	85 c0                	test   %eax,%eax
    300f:	0f 84 3b 01 00 00    	je     3150 <hda_dev_add+0x1b0>
    3015:	56                   	push   %esi
    3016:	56                   	push   %esi
    3017:	68 36 dc 00 00       	push   $0xdc36
    301c:	6a 03                	push   $0x3
    301e:	e8 6d 23 00 00       	call   5390 <ddf_msg>
    3023:	83 c4 0c             	add    $0xc,%esp
    3026:	8d 45 c8             	lea    -0x38(%ebp),%eax
    3029:	8b 7b 10             	mov    0x10(%ebx),%edi
    302c:	6a 00                	push   $0x0
    302e:	50                   	push   %eax
    302f:	57                   	push   %edi
    3030:	e8 bb d3 00 00       	call   103f0 <hw_res_get_list_parsed@plt>
    3035:	83 c4 10             	add    $0x10,%esp
    3038:	89 c6                	mov    %eax,%esi
    303a:	85 c0                	test   %eax,%eax
    303c:	0f 85 96 00 00 00    	jne    30d8 <hda_dev_add+0x138>
    3042:	83 7d d8 01          	cmpl   $0x1,-0x28(%ebp)
    3046:	0f 84 a4 00 00 00    	je     30f0 <hda_dev_add+0x150>
    304c:	52                   	push   %edx
    304d:	52                   	push   %edx
    304e:	68 74 dd 00 00       	push   $0xdd74
    3053:	6a 01                	push   $0x1
    3055:	be f2 ff ff ff       	mov    $0xfffffff2,%esi
    305a:	e8 31 23 00 00       	call   5390 <ddf_msg>
    305f:	31 ff                	xor    %edi,%edi
    3061:	83 c4 10             	add    $0x10,%esp
    3064:	8b 43 2c             	mov    0x2c(%ebx),%eax
    3067:	85 c0                	test   %eax,%eax
    3069:	74 0c                	je     3077 <hda_dev_add+0xd7>
    306b:	83 ec 0c             	sub    $0xc,%esp
    306e:	50                   	push   %eax
    306f:	e8 8c f8 ff ff       	call   2900 <hda_ctl_fini>
    3074:	83 c4 10             	add    $0x10,%esp
    3077:	83 ec 0c             	sub    $0xc,%esp
    307a:	57                   	push   %edi
    307b:	e8 d0 d3 00 00       	call   10450 <free@plt>
    3080:	8b 55 cc             	mov    -0x34(%ebp),%edx
    3083:	58                   	pop    %eax
    3084:	52                   	push   %edx
    3085:	e8 c6 d3 00 00       	call   10450 <free@plt>
    308a:	8b 5d e4             	mov    -0x1c(%ebp),%ebx
    308d:	59                   	pop    %ecx
    308e:	53                   	push   %ebx
    308f:	e8 bc d3 00 00       	call   10450 <free@plt>
    3094:	8b 45 dc             	mov    -0x24(%ebp),%eax
    3097:	5f                   	pop    %edi
    3098:	50                   	push   %eax
    3099:	e8 b2 d3 00 00       	call   10450 <free@plt>
    309e:	58                   	pop    %eax
    309f:	8b 45 d4             	mov    -0x2c(%ebp),%eax
    30a2:	50                   	push   %eax
    30a3:	e8 a8 d3 00 00       	call   10450 <free@plt>
    30a8:	83 c4 0c             	add    $0xc,%esp
    30ab:	8d 45 c8             	lea    -0x38(%ebp),%eax
    30ae:	6a 20                	push   $0x20
    30b0:	6a 00                	push   $0x0
    30b2:	50                   	push   %eax
    30b3:	e8 d8 d1 00 00       	call   10290 <memset@plt>
    30b8:	83 c4 0c             	add    $0xc,%esp
    30bb:	56                   	push   %esi
    30bc:	68 ec dc 00 00       	push   $0xdcec
    30c1:	6a 03                	push   $0x3
    30c3:	e8 c8 22 00 00       	call   5390 <ddf_msg>
    30c8:	83 c4 10             	add    $0x10,%esp
    30cb:	8d 65 f4             	lea    -0xc(%ebp),%esp
    30ce:	89 f0                	mov    %esi,%eax
    30d0:	5b                   	pop    %ebx
    30d1:	5e                   	pop    %esi
    30d2:	5f                   	pop    %edi
    30d3:	5d                   	pop    %ebp
    30d4:	c3                   	ret    
    30d5:	8d 76 00             	lea    0x0(%esi),%esi
    30d8:	51                   	push   %ecx
    30d9:	51                   	push   %ecx
    30da:	68 54 dd 00 00       	push   $0xdd54
    30df:	6a 01                	push   $0x1
    30e1:	31 ff                	xor    %edi,%edi
    30e3:	e8 a8 22 00 00       	call   5390 <ddf_msg>
    30e8:	83 c4 10             	add    $0x10,%esp
    30eb:	e9 74 ff ff ff       	jmp    3064 <hda_dev_add+0xc4>
    30f0:	8b 4d dc             	mov    -0x24(%ebp),%ecx
    30f3:	8b 01                	mov    (%ecx),%eax
    30f5:	8b 51 04             	mov    0x4(%ecx),%edx
    30f8:	8b 49 10             	mov    0x10(%ecx),%ecx
    30fb:	89 43 1c             	mov    %eax,0x1c(%ebx)
    30fe:	89 53 20             	mov    %edx,0x20(%ebx)
    3101:	89 4b 24             	mov    %ecx,0x24(%ebx)
    3104:	52                   	push   %edx
    3105:	50                   	push   %eax
    3106:	68 46 dc 00 00       	push   $0xdc46
    310b:	6a 03                	push   $0x3
    310d:	e8 7e 22 00 00       	call   5390 <ddf_msg>
    3112:	83 c4 10             	add    $0x10,%esp
    3115:	81 7b 24 33 21 00 00 	cmpl   $0x2133,0x24(%ebx)
    311c:	77 52                	ja     3170 <hda_dev_add+0x1d0>
    311e:	50                   	push   %eax
    311f:	50                   	push   %eax
    3120:	68 59 dc 00 00       	push   $0xdc59
    3125:	e9 29 ff ff ff       	jmp    3053 <hda_dev_add+0xb3>
    312a:	8d b6 00 00 00 00    	lea    0x0(%esi),%esi
    3130:	57                   	push   %edi
    3131:	57                   	push   %edi
    3132:	68 10 dd 00 00       	push   $0xdd10
    3137:	6a 01                	push   $0x1
    3139:	be fe ff ff ff       	mov    $0xfffffffe,%esi
    313e:	e8 4d 22 00 00       	call   5390 <ddf_msg>
    3143:	31 ff                	xor    %edi,%edi
    3145:	83 c4 10             	add    $0x10,%esp
    3148:	e9 2a ff ff ff       	jmp    3077 <hda_dev_add+0xd7>
    314d:	8d 76 00             	lea    0x0(%esi),%esi
    3150:	50                   	push   %eax
    3151:	50                   	push   %eax
    3152:	68 30 dd 00 00       	push   $0xdd30
    3157:	6a 01                	push   $0x1
    3159:	be fe ff ff ff       	mov    $0xfffffffe,%esi
    315e:	e8 2d 22 00 00       	call   5390 <ddf_msg>
    3163:	31 ff                	xor    %edi,%edi
    3165:	83 c4 10             	add    $0x10,%esp
    3168:	e9 f7 fe ff ff       	jmp    3064 <hda_dev_add+0xc4>
    316d:	8d 76 00             	lea    0x0(%esi),%esi
    3170:	50                   	push   %eax
    3171:	50                   	push   %eax
    3172:	68 74 dc 00 00       	push   $0xdc74
    3177:	6a 03                	push   $0x3
    3179:	e8 12 22 00 00       	call   5390 <ddf_msg>
    317e:	83 c4 0c             	add    $0xc,%esp
    3181:	8d 45 b4             	lea    -0x4c(%ebp),%eax
    3184:	50                   	push   %eax
    3185:	8b 43 24             	mov    0x24(%ebx),%eax
    3188:	50                   	push   %eax
    3189:	8b 43 1c             	mov    0x1c(%ebx),%eax
    318c:	50                   	push   %eax
    318d:	e8 0e cd 00 00       	call   fea0 <pio_enable@plt>
    3192:	83 c4 10             	add    $0x10,%esp
    3195:	89 c6                	mov    %eax,%esi
    3197:	85 c0                	test   %eax,%eax
    3199:	75 3d                	jne    31d8 <hda_dev_add+0x238>
    319b:	8b 45 b4             	mov    -0x4c(%ebp),%eax
    319e:	89 43 28             	mov    %eax,0x28(%ebx)
    31a1:	8b 45 c8             	mov    -0x38(%ebp),%eax
    31a4:	57                   	push   %edi
    31a5:	50                   	push   %eax
    31a6:	68 99 dc 00 00       	push   $0xdc99
    31ab:	6a 03                	push   $0x3
    31ad:	e8 de 21 00 00       	call   5390 <ddf_msg>
    31b2:	8b 45 c8             	mov    -0x38(%ebp),%eax
    31b5:	83 c4 10             	add    $0x10,%esp
    31b8:	83 f8 01             	cmp    $0x1,%eax
    31bb:	74 33                	je     31f0 <hda_dev_add+0x250>
    31bd:	51                   	push   %ecx
    31be:	50                   	push   %eax
    31bf:	68 98 dd 00 00       	push   $0xdd98
    31c4:	6a 01                	push   $0x1
    31c6:	31 ff                	xor    %edi,%edi
    31c8:	e8 c3 21 00 00       	call   5390 <ddf_msg>
    31cd:	83 c4 10             	add    $0x10,%esp
    31d0:	e9 8f fe ff ff       	jmp    3064 <hda_dev_add+0xc4>
    31d5:	8d 76 00             	lea    0x0(%esi),%esi
    31d8:	50                   	push   %eax
    31d9:	50                   	push   %eax
    31da:	68 7f dc 00 00       	push   $0xdc7f
    31df:	6a 01                	push   $0x1
    31e1:	31 ff                	xor    %edi,%edi
    31e3:	e8 a8 21 00 00       	call   5390 <ddf_msg>
    31e8:	83 c4 10             	add    $0x10,%esp
    31eb:	e9 74 fe ff ff       	jmp    3064 <hda_dev_add+0xc4>
    31f0:	8b 45 cc             	mov    -0x34(%ebp),%eax
    31f3:	57                   	push   %edi
    31f4:	8b 00                	mov    (%eax),%eax
    31f6:	50                   	push   %eax
    31f7:	68 a3 dc 00 00       	push   $0xdca3
    31fc:	6a 03                	push   $0x3
    31fe:	e8 8d 21 00 00       	call   5390 <ddf_msg>
    3203:	58                   	pop    %eax
    3204:	5a                   	pop    %edx
    3205:	6a 14                	push   $0x14
    3207:	68 9b 00 00 00       	push   $0x9b
    320c:	e8 cf ce 00 00       	call   100e0 <calloc@plt>
    3211:	83 c4 10             	add    $0x10,%esp
    3214:	89 c7                	mov    %eax,%edi
    3216:	85 c0                	test   %eax,%eax
    3218:	0f 84 9a 01 00 00    	je     33b8 <hda_dev_add+0x418>
    321e:	8b 4b 1c             	mov    0x1c(%ebx),%ecx
    3221:	c7 45 b8 01 00 00 00 	movl   $0x1,-0x48(%ebp)
    3228:	52                   	push   %edx
    3229:	89 0d 64 26 01 00    	mov    %ecx,0x12664
    322f:	6a 64                	push   $0x64
    3231:	89 4d a4             	mov    %ecx,-0x5c(%ebp)
    3234:	68 00 26 01 00       	push   $0x12600
    3239:	c7 45 bc 64 26 01 00 	movl   $0x12664,-0x44(%ebp)
    3240:	50                   	push   %eax
    3241:	c7 45 c0 9b 00 00 00 	movl   $0x9b,-0x40(%ebp)
    3248:	89 45 c4             	mov    %eax,-0x3c(%ebp)
    324b:	e8 90 cd 00 00       	call   ffe0 <memcpy@plt>
    3250:	8b 4d a4             	mov    -0x5c(%ebp),%ecx
    3253:	8d 57 64             	lea    0x64(%edi),%edx
    3256:	89 7d a0             	mov    %edi,-0x60(%ebp)
    3259:	89 5d 9c             	mov    %ebx,-0x64(%ebp)
    325c:	8d 41 5d             	lea    0x5d(%ecx),%eax
    325f:	83 c4 10             	add    $0x10,%esp
    3262:	89 47 04             	mov    %eax,0x4(%edi)
    3265:	89 47 40             	mov    %eax,0x40(%edi)
    3268:	8d 41 24             	lea    0x24(%ecx),%eax
    326b:	89 d3                	mov    %edx,%ebx
    326d:	89 45 a4             	mov    %eax,-0x5c(%ebp)
    3270:	8d 81 83 00 00 00    	lea    0x83(%ecx),%eax
    3276:	89 c7                	mov    %eax,%edi
    3278:	50                   	push   %eax
    3279:	6a 64                	push   $0x64
    327b:	68 80 25 01 00       	push   $0x12580
    3280:	53                   	push   %ebx
    3281:	e8 5a cd 00 00       	call   ffe0 <memcpy@plt>
    3286:	8b 45 a4             	mov    -0x5c(%ebp),%eax
    3289:	89 43 04             	mov    %eax,0x4(%ebx)
    328c:	89 f1                	mov    %esi,%ecx
    328e:	b8 01 00 00 00       	mov    $0x1,%eax
    3293:	46                   	inc    %esi
    3294:	d3 e0                	shl    %cl,%eax
    3296:	89 7b 40             	mov    %edi,0x40(%ebx)
    3299:	89 43 1c             	mov    %eax,0x1c(%ebx)
    329c:	83 c7 20             	add    $0x20,%edi
    329f:	83 c3 64             	add    $0x64,%ebx
    32a2:	83 c4 10             	add    $0x10,%esp
    32a5:	83 fe 1e             	cmp    $0x1e,%esi
    32a8:	75 ce                	jne    3278 <hda_dev_add+0x2d8>
    32aa:	50                   	push   %eax
    32ab:	a1 64 26 01 00       	mov    0x12664,%eax
    32b0:	50                   	push   %eax
    32b1:	8b 7d a0             	mov    -0x60(%ebp),%edi
    32b4:	68 c2 dc 00 00       	push   $0xdcc2
    32b9:	8b 5d 9c             	mov    -0x64(%ebp),%ebx
    32bc:	6a 03                	push   $0x3
    32be:	e8 cd 20 00 00       	call   5390 <ddf_msg>
    32c3:	58                   	pop    %eax
    32c4:	8b 45 cc             	mov    -0x34(%ebp),%eax
    32c7:	8b 00                	mov    (%eax),%eax
    32c9:	50                   	push   %eax
    32ca:	e8 c1 cc 00 00       	call   ff90 <irc_enable_interrupt@plt>
    32cf:	83 c4 10             	add    $0x10,%esp
    32d2:	89 c6                	mov    %eax,%esi
    32d4:	85 c0                	test   %eax,%eax
    32d6:	74 16                	je     32ee <hda_dev_add+0x34e>
    32d8:	50                   	push   %eax
    32d9:	56                   	push   %esi
    32da:	68 b8 dd 00 00       	push   $0xddb8
    32df:	6a 01                	push   $0x1
    32e1:	e8 aa 20 00 00       	call   5390 <ddf_msg>
    32e6:	83 c4 10             	add    $0x10,%esp
    32e9:	e9 76 fd ff ff       	jmp    3064 <hda_dev_add+0xc4>
    32ee:	8d 45 b8             	lea    -0x48(%ebp),%eax
    32f1:	8b 4d 08             	mov    0x8(%ebp),%ecx
    32f4:	50                   	push   %eax
    32f5:	8b 45 cc             	mov    -0x34(%ebp),%eax
    32f8:	68 b0 2e 00 00       	push   $0x2eb0
    32fd:	8b 10                	mov    (%eax),%edx
    32ff:	52                   	push   %edx
    3300:	51                   	push   %ecx
    3301:	e8 3a 20 00 00       	call   5340 <register_interrupt_handler>
    3306:	83 c4 10             	add    $0x10,%esp
    3309:	89 c6                	mov    %eax,%esi
    330b:	85 c0                	test   %eax,%eax
    330d:	74 16                	je     3325 <hda_dev_add+0x385>
    330f:	50                   	push   %eax
    3310:	56                   	push   %esi
    3311:	68 d8 dd 00 00       	push   $0xddd8
    3316:	6a 01                	push   $0x1
    3318:	e8 73 20 00 00       	call   5390 <ddf_msg>
    331d:	83 c4 10             	add    $0x10,%esp
    3320:	e9 3f fd ff ff       	jmp    3064 <hda_dev_add+0xc4>
    3325:	83 ec 0c             	sub    $0xc,%esp
    3328:	57                   	push   %edi
    3329:	e8 22 d1 00 00       	call   10450 <free@plt>
    332e:	89 1c 24             	mov    %ebx,(%esp)
    3331:	e8 6a ec ff ff       	call   1fa0 <hda_ctl_init>
    3336:	83 c4 10             	add    $0x10,%esp
    3339:	85 c0                	test   %eax,%eax
    333b:	0f 84 8d 00 00 00    	je     33ce <hda_dev_add+0x42e>
    3341:	50                   	push   %eax
    3342:	50                   	push   %eax
    3343:	68 d2 dc 00 00       	push   $0xdcd2
    3348:	6a 03                	push   $0x3
    334a:	e8 41 20 00 00       	call   5390 <ddf_msg>
    334f:	83 c4 0c             	add    $0xc,%esp
    3352:	8b 45 08             	mov    0x8(%ebp),%eax
    3355:	68 e8 dc 00 00       	push   $0xdce8
    335a:	6a 02                	push   $0x2
    335c:	50                   	push   %eax
    335d:	e8 1e 18 00 00       	call   4b80 <ddf_fun_create>
    3362:	83 c4 10             	add    $0x10,%esp
    3365:	89 c7                	mov    %eax,%edi
    3367:	85 c0                	test   %eax,%eax
    3369:	0f 84 b4 00 00 00    	je     3423 <hda_dev_add+0x483>
    336f:	89 43 18             	mov    %eax,0x18(%ebx)
    3372:	50                   	push   %eax
    3373:	50                   	push   %eax
    3374:	68 80 26 01 00       	push   $0x12680
    3379:	57                   	push   %edi
    337a:	e8 b1 1d 00 00       	call   5130 <ddf_fun_set_ops>
    337f:	89 3c 24             	mov    %edi,(%esp)
    3382:	e8 b9 1a 00 00       	call   4e40 <ddf_fun_bind>
    3387:	83 c4 10             	add    $0x10,%esp
    338a:	89 c6                	mov    %eax,%esi
    338c:	85 c0                	test   %eax,%eax
    338e:	74 4a                	je     33da <hda_dev_add+0x43a>
    3390:	50                   	push   %eax
    3391:	50                   	push   %eax
    3392:	68 24 de 00 00       	push   $0xde24
    3397:	6a 01                	push   $0x1
    3399:	e8 f2 1f 00 00       	call   5390 <ddf_msg>
    339e:	89 3c 24             	mov    %edi,(%esp)
    33a1:	e8 6a 19 00 00       	call   4d10 <ddf_fun_destroy>
    33a6:	89 3c 24             	mov    %edi,(%esp)
    33a9:	e8 62 19 00 00       	call   4d10 <ddf_fun_destroy>
    33ae:	31 ff                	xor    %edi,%edi
    33b0:	83 c4 10             	add    $0x10,%esp
    33b3:	e9 ac fc ff ff       	jmp    3064 <hda_dev_add+0xc4>
    33b8:	51                   	push   %ecx
    33b9:	51                   	push   %ecx
    33ba:	68 b4 dc 00 00       	push   $0xdcb4
    33bf:	6a 01                	push   $0x1
    33c1:	e8 ca 1f 00 00       	call   5390 <ddf_msg>
    33c6:	83 c4 10             	add    $0x10,%esp
    33c9:	e9 96 fc ff ff       	jmp    3064 <hda_dev_add+0xc4>
    33ce:	be f6 fe ff ff       	mov    $0xfffffef6,%esi
    33d3:	31 ff                	xor    %edi,%edi
    33d5:	e9 8a fc ff ff       	jmp    3064 <hda_dev_add+0xc4>
    33da:	50                   	push   %eax
    33db:	50                   	push   %eax
    33dc:	68 e2 dc 00 00       	push   $0xdce2
    33e1:	57                   	push   %edi
    33e2:	e8 a9 1d 00 00       	call   5190 <ddf_fun_add_to_category>
    33e7:	58                   	pop    %eax
    33e8:	ff 75 cc             	pushl  -0x34(%ebp)
    33eb:	e8 60 d0 00 00       	call   10450 <free@plt>
    33f0:	58                   	pop    %eax
    33f1:	ff 75 e4             	pushl  -0x1c(%ebp)
    33f4:	e8 57 d0 00 00       	call   10450 <free@plt>
    33f9:	5a                   	pop    %edx
    33fa:	ff 75 dc             	pushl  -0x24(%ebp)
    33fd:	e8 4e d0 00 00       	call   10450 <free@plt>
    3402:	59                   	pop    %ecx
    3403:	ff 75 d4             	pushl  -0x2c(%ebp)
    3406:	e8 45 d0 00 00       	call   10450 <free@plt>
    340b:	83 c4 0c             	add    $0xc,%esp
    340e:	8d 45 c8             	lea    -0x38(%ebp),%eax
    3411:	6a 20                	push   $0x20
    3413:	6a 00                	push   $0x0
    3415:	50                   	push   %eax
    3416:	e8 75 ce 00 00       	call   10290 <memset@plt>
    341b:	83 c4 10             	add    $0x10,%esp
    341e:	e9 a8 fc ff ff       	jmp    30cb <hda_dev_add+0x12b>
    3423:	50                   	push   %eax
    3424:	50                   	push   %eax
    3425:	68 04 de 00 00       	push   $0xde04
    342a:	6a 01                	push   $0x1
    342c:	be fe ff ff ff       	mov    $0xfffffffe,%esi
    3431:	e8 5a 1f 00 00       	call   5390 <ddf_msg>
    3436:	83 c4 10             	add    $0x10,%esp
    3439:	e9 26 fc ff ff       	jmp    3064 <hda_dev_add+0xc4>
    343e:	66 90                	xchg   %ax,%ax

00003440 <hda_lock>:
    3440:	55                   	push   %ebp
    3441:	89 e5                	mov    %esp,%ebp
    3443:	5d                   	pop    %ebp
    3444:	e9 27 d0 00 00       	jmp    10470 <fibril_mutex_lock@plt>
    3449:	8d b4 26 00 00 00 00 	lea    0x0(%esi,%eiz,1),%esi

00003450 <hda_unlock>:
    3450:	55                   	push   %ebp
    3451:	89 e5                	mov    %esp,%ebp
    3453:	5d                   	pop    %ebp
    3454:	e9 47 cd 00 00       	jmp    101a0 <fibril_mutex_unlock@plt>
    3459:	66 90                	xchg   %ax,%ax
    345b:	66 90                	xchg   %ax,%ax
    345d:	66 90                	xchg   %ax,%ax
    345f:	90                   	nop

00003460 <main>:
    3460:	8d 4c 24 04          	lea    0x4(%esp),%ecx
    3464:	83 e4 f0             	and    $0xfffffff0,%esp
    3467:	ff 71 fc             	pushl  -0x4(%ecx)
    346a:	55                   	push   %ebp
    346b:	89 e5                	mov    %esp,%ebp
    346d:	51                   	push   %ecx
    346e:	83 ec 10             	sub    $0x10,%esp
    3471:	68 44 de 00 00       	push   $0xde44
    3476:	e8 95 ca 00 00       	call   ff10 <printf@plt>
    347b:	c7 04 24 08 dd 00 00 	movl   $0xdd08,(%esp)
    3482:	e8 f9 1e 00 00       	call   5380 <ddf_log_init>
    3487:	c7 04 24 c8 26 01 00 	movl   $0x126c8,(%esp)
    348e:	e8 4d 1d 00 00       	call   51e0 <ddf_driver_main>
    3493:	8b 4d fc             	mov    -0x4(%ebp),%ecx
    3496:	c9                   	leave  
    3497:	8d 61 fc             	lea    -0x4(%ecx),%esp
    349a:	c3                   	ret    
    349b:	66 90                	xchg   %ax,%ax
    349d:	66 90                	xchg   %ax,%ax
    349f:	90                   	nop

000034a0 <hda_get_buffer_position>:
    34a0:	55                   	push   %ebp
    34a1:	89 e5                	mov    %esp,%ebp
    34a3:	83 ec 10             	sub    $0x10,%esp
    34a6:	68 6b de 00 00       	push   $0xde6b
    34ab:	6a 03                	push   $0x3
    34ad:	e8 de 1e 00 00       	call   5390 <ddf_msg>
    34b2:	b8 f5 ff ff ff       	mov    $0xfffffff5,%eax
    34b7:	c9                   	leave  
    34b8:	c3                   	ret    
    34b9:	8d b4 26 00 00 00 00 	lea    0x0(%esi,%eiz,1),%esi

000034c0 <hda_test_format>:
    34c0:	55                   	push   %ebp
    34c1:	89 e5                	mov    %esp,%ebp
    34c3:	57                   	push   %edi
    34c4:	56                   	push   %esi
    34c5:	53                   	push   %ebx
    34c6:	83 ec 18             	sub    $0x18,%esp
    34c9:	8b 7d 10             	mov    0x10(%ebp),%edi
    34cc:	8b 5d 14             	mov    0x14(%ebp),%ebx
    34cf:	8b 75 0c             	mov    0xc(%ebp),%esi
    34d2:	8b 03                	mov    (%ebx),%eax
    34d4:	8b 17                	mov    (%edi),%edx
    34d6:	50                   	push   %eax
    34d7:	52                   	push   %edx
    34d8:	8b 0e                	mov    (%esi),%ecx
    34da:	51                   	push   %ecx
    34db:	68 85 de 00 00       	push   $0xde85
    34e0:	6a 03                	push   $0x3
    34e2:	e8 a9 1e 00 00       	call   5390 <ddf_msg>
    34e7:	83 c4 20             	add    $0x20,%esp
    34ea:	83 3e 01             	cmpl   $0x1,(%esi)
    34ed:	74 31                	je     3520 <hda_test_format+0x60>
    34ef:	c7 06 02 00 00 00    	movl   $0x2,(%esi)
    34f5:	b8 fd ff ff ff       	mov    $0xfffffffd,%eax
    34fa:	83 3b 04             	cmpl   $0x4,(%ebx)
    34fd:	74 0b                	je     350a <hda_test_format+0x4a>
    34ff:	c7 03 04 00 00 00    	movl   $0x4,(%ebx)
    3505:	b8 fd ff ff ff       	mov    $0xfffffffd,%eax
    350a:	81 3f 44 ac 00 00    	cmpl   $0xac44,(%edi)
    3510:	75 16                	jne    3528 <hda_test_format+0x68>
    3512:	8d 65 f4             	lea    -0xc(%ebp),%esp
    3515:	5b                   	pop    %ebx
    3516:	5e                   	pop    %esi
    3517:	5f                   	pop    %edi
    3518:	5d                   	pop    %ebp
    3519:	c3                   	ret    
    351a:	8d b6 00 00 00 00    	lea    0x0(%esi),%esi
    3520:	31 c0                	xor    %eax,%eax
    3522:	eb d6                	jmp    34fa <hda_test_format+0x3a>
    3524:	8d 74 26 00          	lea    0x0(%esi,%eiz,1),%esi
    3528:	c7 07 44 ac 00 00    	movl   $0xac44,(%edi)
    352e:	b8 fd ff ff ff       	mov    $0xfffffffd,%eax
    3533:	eb dd                	jmp    3512 <hda_test_format+0x52>
    3535:	8d 74 26 00          	lea    0x0(%esi,%eiz,1),%esi
    3539:	8d bc 27 00 00 00 00 	lea    0x0(%edi,%eiz,1),%edi

00003540 <hda_get_info_str>:
    3540:	55                   	push   %ebp
    3541:	89 e5                	mov    %esp,%ebp
    3543:	53                   	push   %ebx
    3544:	83 ec 0c             	sub    $0xc,%esp
    3547:	8b 5d 0c             	mov    0xc(%ebp),%ebx
    354a:	68 a2 de 00 00       	push   $0xdea2
    354f:	6a 03                	push   $0x3
    3551:	e8 3a 1e 00 00       	call   5390 <ddf_msg>
    3556:	83 c4 10             	add    $0x10,%esp
    3559:	85 db                	test   %ebx,%ebx
    355b:	74 06                	je     3563 <hda_get_info_str+0x23>
    355d:	c7 03 b5 de 00 00    	movl   $0xdeb5,(%ebx)
    3563:	31 c0                	xor    %eax,%eax
    3565:	8b 5d fc             	mov    -0x4(%ebp),%ebx
    3568:	c9                   	leave  
    3569:	c3                   	ret    
    356a:	8d b6 00 00 00 00    	lea    0x0(%esi),%esi

00003570 <hda_get_event_session>:
    3570:	55                   	push   %ebp
    3571:	89 e5                	mov    %esp,%ebp
    3573:	56                   	push   %esi
    3574:	53                   	push   %ebx
    3575:	83 ec 0c             	sub    $0xc,%esp
    3578:	8b 45 08             	mov    0x8(%ebp),%eax
    357b:	50                   	push   %eax
    357c:	e8 df 15 00 00       	call   4b60 <ddf_fun_get_dev>
    3581:	89 04 24             	mov    %eax,(%esp)
    3584:	e8 07 15 00 00       	call   4a90 <ddf_dev_data_get>
    3589:	89 c3                	mov    %eax,%ebx
    358b:	5a                   	pop    %edx
    358c:	59                   	pop    %ecx
    358d:	68 cb de 00 00       	push   $0xdecb
    3592:	6a 03                	push   $0x3
    3594:	e8 f7 1d 00 00       	call   5390 <ddf_msg>
    3599:	89 1c 24             	mov    %ebx,(%esp)
    359c:	e8 9f fe ff ff       	call   3440 <hda_lock>
    35a1:	8b 73 14             	mov    0x14(%ebx),%esi
    35a4:	89 1c 24             	mov    %ebx,(%esp)
    35a7:	e8 a4 fe ff ff       	call   3450 <hda_unlock>
    35ac:	8d 65 f8             	lea    -0x8(%ebp),%esp
    35af:	89 f0                	mov    %esi,%eax
    35b1:	5b                   	pop    %ebx
    35b2:	5e                   	pop    %esi
    35b3:	5d                   	pop    %ebp
    35b4:	c3                   	ret    
    35b5:	8d 74 26 00          	lea    0x0(%esi,%eiz,1),%esi
    35b9:	8d bc 27 00 00 00 00 	lea    0x0(%edi,%eiz,1),%edi

000035c0 <hda_set_event_session>:
    35c0:	55                   	push   %ebp
    35c1:	89 e5                	mov    %esp,%ebp
    35c3:	53                   	push   %ebx
    35c4:	83 ec 10             	sub    $0x10,%esp
    35c7:	8b 45 08             	mov    0x8(%ebp),%eax
    35ca:	50                   	push   %eax
    35cb:	e8 90 15 00 00       	call   4b60 <ddf_fun_get_dev>
    35d0:	89 04 24             	mov    %eax,(%esp)
    35d3:	e8 b8 14 00 00       	call   4a90 <ddf_dev_data_get>
    35d8:	5a                   	pop    %edx
    35d9:	89 c3                	mov    %eax,%ebx
    35db:	59                   	pop    %ecx
    35dc:	68 e3 de 00 00       	push   $0xdee3
    35e1:	6a 03                	push   $0x3
    35e3:	e8 a8 1d 00 00       	call   5390 <ddf_msg>
    35e8:	89 1c 24             	mov    %ebx,(%esp)
    35eb:	e8 50 fe ff ff       	call   3440 <hda_lock>
    35f0:	8b 45 0c             	mov    0xc(%ebp),%eax
    35f3:	89 43 14             	mov    %eax,0x14(%ebx)
    35f6:	89 1c 24             	mov    %ebx,(%esp)
    35f9:	e8 52 fe ff ff       	call   3450 <hda_unlock>
    35fe:	31 c0                	xor    %eax,%eax
    3600:	8b 5d fc             	mov    -0x4(%ebp),%ebx
    3603:	c9                   	leave  
    3604:	c3                   	ret    
    3605:	8d 74 26 00          	lea    0x0(%esi,%eiz,1),%esi
    3609:	8d bc 27 00 00 00 00 	lea    0x0(%edi,%eiz,1),%edi

00003610 <hda_query_cap>:
    3610:	55                   	push   %ebp
    3611:	89 e5                	mov    %esp,%ebp
    3613:	56                   	push   %esi
    3614:	53                   	push   %ebx
    3615:	83 ec 0c             	sub    $0xc,%esp
    3618:	8b 45 08             	mov    0x8(%ebp),%eax
    361b:	8b 5d 0c             	mov    0xc(%ebp),%ebx
    361e:	50                   	push   %eax
    361f:	e8 3c 15 00 00       	call   4b60 <ddf_fun_get_dev>
    3624:	89 04 24             	mov    %eax,(%esp)
    3627:	e8 64 14 00 00       	call   4a90 <ddf_dev_data_get>
    362c:	83 c4 0c             	add    $0xc,%esp
    362f:	89 c6                	mov    %eax,%esi
    3631:	53                   	push   %ebx
    3632:	68 fb de 00 00       	push   $0xdefb
    3637:	6a 03                	push   $0x3
    3639:	e8 52 1d 00 00       	call   5390 <ddf_msg>
    363e:	83 c4 10             	add    $0x10,%esp
    3641:	83 fb 06             	cmp    $0x6,%ebx
    3644:	77 7a                	ja     36c0 <hda_query_cap+0xb0>
    3646:	ff 24 9d c4 df 00 00 	jmp    *0xdfc4(,%ebx,4)
    364d:	8d 76 00             	lea    0x0(%esi),%esi
    3650:	8d 65 f8             	lea    -0x8(%ebp),%esp
    3653:	b8 01 00 00 00       	mov    $0x1,%eax
    3658:	5b                   	pop    %ebx
    3659:	5e                   	pop    %esi
    365a:	5d                   	pop    %ebp
    365b:	c3                   	ret    
    365c:	8d 74 26 00          	lea    0x0(%esi,%eiz,1),%esi
    3660:	8d 65 f8             	lea    -0x8(%ebp),%esp
    3663:	b8 00 00 01 00       	mov    $0x10000,%eax
    3668:	5b                   	pop    %ebx
    3669:	5e                   	pop    %esi
    366a:	5d                   	pop    %ebp
    366b:	c3                   	ret    
    366c:	8d 74 26 00          	lea    0x0(%esi,%eiz,1),%esi
    3670:	8d 65 f8             	lea    -0x8(%ebp),%esp
    3673:	31 c0                	xor    %eax,%eax
    3675:	5b                   	pop    %ebx
    3676:	5e                   	pop    %esi
    3677:	5d                   	pop    %ebp
    3678:	c3                   	ret    
    3679:	8d b4 26 00 00 00 00 	lea    0x0(%esi,%eiz,1),%esi
    3680:	8d 65 f8             	lea    -0x8(%ebp),%esp
    3683:	b8 80 00 00 00       	mov    $0x80,%eax
    3688:	5b                   	pop    %ebx
    3689:	5e                   	pop    %esi
    368a:	5d                   	pop    %ebp
    368b:	c3                   	ret    
    368c:	8d 74 26 00          	lea    0x0(%esi,%eiz,1),%esi
    3690:	8d 65 f8             	lea    -0x8(%ebp),%esp
    3693:	b8 00 40 00 00       	mov    $0x4000,%eax
    3698:	5b                   	pop    %ebx
    3699:	5e                   	pop    %esi
    369a:	5d                   	pop    %ebp
    369b:	c3                   	ret    
    369c:	8d 74 26 00          	lea    0x0(%esi,%eiz,1),%esi
    36a0:	8b 46 2c             	mov    0x2c(%esi),%eax
    36a3:	8b 80 54 08 00 00    	mov    0x854(%eax),%eax
    36a9:	8b 80 10 01 00 00    	mov    0x110(%eax),%eax
    36af:	8d 65 f8             	lea    -0x8(%ebp),%esp
    36b2:	83 f0 ff             	xor    $0xffffffff,%eax
    36b5:	c1 e8 1f             	shr    $0x1f,%eax
    36b8:	5b                   	pop    %ebx
    36b9:	5e                   	pop    %esi
    36ba:	5d                   	pop    %ebp
    36bb:	c3                   	ret    
    36bc:	8d 74 26 00          	lea    0x0(%esi,%eiz,1),%esi
    36c0:	8d 65 f8             	lea    -0x8(%ebp),%esp
    36c3:	b8 f5 ff ff ff       	mov    $0xfffffff5,%eax
    36c8:	5b                   	pop    %ebx
    36c9:	5e                   	pop    %esi
    36ca:	5d                   	pop    %ebp
    36cb:	c3                   	ret    
    36cc:	8d 74 26 00          	lea    0x0(%esi,%eiz,1),%esi

000036d0 <hda_start_capture>:
    36d0:	55                   	push   %ebp
    36d1:	89 e5                	mov    %esp,%ebp
    36d3:	53                   	push   %ebx
    36d4:	83 ec 20             	sub    $0x20,%esp
    36d7:	8b 45 08             	mov    0x8(%ebp),%eax
    36da:	50                   	push   %eax
    36db:	e8 80 14 00 00       	call   4b60 <ddf_fun_get_dev>
    36e0:	89 04 24             	mov    %eax,(%esp)
    36e3:	e8 a8 13 00 00       	call   4a90 <ddf_dev_data_get>
    36e8:	89 c3                	mov    %eax,%ebx
    36ea:	58                   	pop    %eax
    36eb:	5a                   	pop    %edx
    36ec:	68 0d df 00 00       	push   $0xdf0d
    36f1:	6a 03                	push   $0x3
    36f3:	e8 98 1c 00 00       	call   5390 <ddf_msg>
    36f8:	89 1c 24             	mov    %ebx,(%esp)
    36fb:	e8 40 fd ff ff       	call   3440 <hda_lock>
    3700:	8b 4b 30             	mov    0x30(%ebx),%ecx
    3703:	83 c4 10             	add    $0x10,%esp
    3706:	85 c9                	test   %ecx,%ecx
    3708:	0f 85 a2 00 00 00    	jne    37b0 <hda_start_capture+0xe0>
    370e:	50                   	push   %eax
    370f:	50                   	push   %eax
    3710:	68 e0 df 00 00       	push   $0xdfe0
    3715:	6a 03                	push   $0x3
    3717:	e8 74 1c 00 00       	call   5390 <ddf_msg>
    371c:	8b 43 34             	mov    0x34(%ebx),%eax
    371f:	68 11 40 00 00       	push   $0x4011
    3724:	50                   	push   %eax
    3725:	6a 00                	push   $0x0
    3727:	53                   	push   %ebx
    3728:	e8 83 06 00 00       	call   3db0 <hda_stream_create>
    372d:	83 c4 20             	add    $0x20,%esp
    3730:	89 43 30             	mov    %eax,0x30(%ebx)
    3733:	85 c0                	test   %eax,%eax
    3735:	0f 84 8b 00 00 00    	je     37c6 <hda_start_capture+0xf6>
    373b:	51                   	push   %ecx
    373c:	51                   	push   %ecx
    373d:	50                   	push   %eax
    373e:	8b 43 2c             	mov    0x2c(%ebx),%eax
    3741:	8b 80 54 08 00 00    	mov    0x854(%eax),%eax
    3747:	50                   	push   %eax
    3748:	e8 43 e6 ff ff       	call   1d90 <hda_in_converter_setup>
    374d:	83 c4 10             	add    $0x10,%esp
    3750:	85 c0                	test   %eax,%eax
    3752:	75 2c                	jne    3780 <hda_start_capture+0xb0>
    3754:	83 ec 0c             	sub    $0xc,%esp
    3757:	89 45 f4             	mov    %eax,-0xc(%ebp)
    375a:	8b 43 30             	mov    0x30(%ebx),%eax
    375d:	c6 43 39 01          	movb   $0x1,0x39(%ebx)
    3761:	50                   	push   %eax
    3762:	e8 29 08 00 00       	call   3f90 <hda_stream_start>
    3767:	89 1c 24             	mov    %ebx,(%esp)
    376a:	e8 e1 fc ff ff       	call   3450 <hda_unlock>
    376f:	83 c4 10             	add    $0x10,%esp
    3772:	8b 45 f4             	mov    -0xc(%ebp),%eax
    3775:	8b 5d fc             	mov    -0x4(%ebp),%ebx
    3778:	c9                   	leave  
    3779:	c3                   	ret    
    377a:	8d b6 00 00 00 00    	lea    0x0(%esi),%esi
    3780:	83 ec 0c             	sub    $0xc,%esp
    3783:	8b 53 30             	mov    0x30(%ebx),%edx
    3786:	89 45 f4             	mov    %eax,-0xc(%ebp)
    3789:	52                   	push   %edx
    378a:	e8 81 07 00 00       	call   3f10 <hda_stream_destroy>
    378f:	c7 43 30 00 00 00 00 	movl   $0x0,0x30(%ebx)
    3796:	89 1c 24             	mov    %ebx,(%esp)
    3799:	e8 b2 fc ff ff       	call   3450 <hda_unlock>
    379e:	8b 45 f4             	mov    -0xc(%ebp),%eax
    37a1:	83 c4 10             	add    $0x10,%esp
    37a4:	8b 5d fc             	mov    -0x4(%ebp),%ebx
    37a7:	c9                   	leave  
    37a8:	c3                   	ret    
    37a9:	8d b4 26 00 00 00 00 	lea    0x0(%esi,%eiz,1),%esi
    37b0:	83 ec 0c             	sub    $0xc,%esp
    37b3:	53                   	push   %ebx
    37b4:	e8 97 fc ff ff       	call   3450 <hda_unlock>
    37b9:	83 c4 10             	add    $0x10,%esp
    37bc:	b8 f1 ff ff ff       	mov    $0xfffffff1,%eax
    37c1:	8b 5d fc             	mov    -0x4(%ebp),%ebx
    37c4:	c9                   	leave  
    37c5:	c3                   	ret    
    37c6:	83 ec 0c             	sub    $0xc,%esp
    37c9:	53                   	push   %ebx
    37ca:	e8 81 fc ff ff       	call   3450 <hda_unlock>
    37cf:	83 c4 10             	add    $0x10,%esp
    37d2:	b8 f6 fe ff ff       	mov    $0xfffffef6,%eax
    37d7:	eb 9c                	jmp    3775 <hda_start_capture+0xa5>
    37d9:	8d b4 26 00 00 00 00 	lea    0x0(%esi,%eiz,1),%esi

000037e0 <hda_start_playback>:
    37e0:	55                   	push   %ebp
    37e1:	89 e5                	mov    %esp,%ebp
    37e3:	53                   	push   %ebx
    37e4:	83 ec 20             	sub    $0x20,%esp
    37e7:	8b 45 08             	mov    0x8(%ebp),%eax
    37ea:	50                   	push   %eax
    37eb:	e8 70 13 00 00       	call   4b60 <ddf_fun_get_dev>
    37f0:	89 04 24             	mov    %eax,(%esp)
    37f3:	e8 98 12 00 00       	call   4a90 <ddf_dev_data_get>
    37f8:	89 c3                	mov    %eax,%ebx
    37fa:	58                   	pop    %eax
    37fb:	5a                   	pop    %edx
    37fc:	68 21 df 00 00       	push   $0xdf21
    3801:	6a 03                	push   $0x3
    3803:	e8 88 1b 00 00       	call   5390 <ddf_msg>
    3808:	89 1c 24             	mov    %ebx,(%esp)
    380b:	e8 30 fc ff ff       	call   3440 <hda_lock>
    3810:	8b 4b 30             	mov    0x30(%ebx),%ecx
    3813:	83 c4 10             	add    $0x10,%esp
    3816:	85 c9                	test   %ecx,%ecx
    3818:	0f 85 a2 00 00 00    	jne    38c0 <hda_start_playback+0xe0>
    381e:	50                   	push   %eax
    381f:	50                   	push   %eax
    3820:	68 0c e0 00 00       	push   $0xe00c
    3825:	6a 03                	push   $0x3
    3827:	e8 64 1b 00 00       	call   5390 <ddf_msg>
    382c:	8b 43 34             	mov    0x34(%ebx),%eax
    382f:	68 11 40 00 00       	push   $0x4011
    3834:	50                   	push   %eax
    3835:	6a 01                	push   $0x1
    3837:	53                   	push   %ebx
    3838:	e8 73 05 00 00       	call   3db0 <hda_stream_create>
    383d:	83 c4 20             	add    $0x20,%esp
    3840:	89 43 30             	mov    %eax,0x30(%ebx)
    3843:	85 c0                	test   %eax,%eax
    3845:	0f 84 8b 00 00 00    	je     38d6 <hda_start_playback+0xf6>
    384b:	51                   	push   %ecx
    384c:	51                   	push   %ecx
    384d:	50                   	push   %eax
    384e:	8b 43 2c             	mov    0x2c(%ebx),%eax
    3851:	8b 80 54 08 00 00    	mov    0x854(%eax),%eax
    3857:	50                   	push   %eax
    3858:	e8 53 e4 ff ff       	call   1cb0 <hda_out_converter_setup>
    385d:	83 c4 10             	add    $0x10,%esp
    3860:	85 c0                	test   %eax,%eax
    3862:	75 2c                	jne    3890 <hda_start_playback+0xb0>
    3864:	83 ec 0c             	sub    $0xc,%esp
    3867:	89 45 f4             	mov    %eax,-0xc(%ebp)
    386a:	8b 43 30             	mov    0x30(%ebx),%eax
    386d:	c6 43 38 01          	movb   $0x1,0x38(%ebx)
    3871:	50                   	push   %eax
    3872:	e8 19 07 00 00       	call   3f90 <hda_stream_start>
    3877:	89 1c 24             	mov    %ebx,(%esp)
    387a:	e8 d1 fb ff ff       	call   3450 <hda_unlock>
    387f:	83 c4 10             	add    $0x10,%esp
    3882:	8b 45 f4             	mov    -0xc(%ebp),%eax
    3885:	8b 5d fc             	mov    -0x4(%ebp),%ebx
    3888:	c9                   	leave  
    3889:	c3                   	ret    
    388a:	8d b6 00 00 00 00    	lea    0x0(%esi),%esi
    3890:	83 ec 0c             	sub    $0xc,%esp
    3893:	8b 53 30             	mov    0x30(%ebx),%edx
    3896:	89 45 f4             	mov    %eax,-0xc(%ebp)
    3899:	52                   	push   %edx
    389a:	e8 71 06 00 00       	call   3f10 <hda_stream_destroy>
    389f:	c7 43 30 00 00 00 00 	movl   $0x0,0x30(%ebx)
    38a6:	89 1c 24             	mov    %ebx,(%esp)
    38a9:	e8 a2 fb ff ff       	call   3450 <hda_unlock>
    38ae:	8b 45 f4             	mov    -0xc(%ebp),%eax
    38b1:	83 c4 10             	add    $0x10,%esp
    38b4:	8b 5d fc             	mov    -0x4(%ebp),%ebx
    38b7:	c9                   	leave  
    38b8:	c3                   	ret    
    38b9:	8d b4 26 00 00 00 00 	lea    0x0(%esi,%eiz,1),%esi
    38c0:	83 ec 0c             	sub    $0xc,%esp
    38c3:	53                   	push   %ebx
    38c4:	e8 87 fb ff ff       	call   3450 <hda_unlock>
    38c9:	83 c4 10             	add    $0x10,%esp
    38cc:	b8 f1 ff ff ff       	mov    $0xfffffff1,%eax
    38d1:	8b 5d fc             	mov    -0x4(%ebp),%ebx
    38d4:	c9                   	leave  
    38d5:	c3                   	ret    
    38d6:	83 ec 0c             	sub    $0xc,%esp
    38d9:	53                   	push   %ebx
    38da:	e8 71 fb ff ff       	call   3450 <hda_unlock>
    38df:	83 c4 10             	add    $0x10,%esp
    38e2:	b8 f6 fe ff ff       	mov    $0xfffffef6,%eax
    38e7:	eb 9c                	jmp    3885 <hda_start_playback+0xa5>
    38e9:	8d b4 26 00 00 00 00 	lea    0x0(%esi,%eiz,1),%esi

000038f0 <hda_release_buffer>:
    38f0:	55                   	push   %ebp
    38f1:	89 e5                	mov    %esp,%ebp
    38f3:	53                   	push   %ebx
    38f4:	83 ec 10             	sub    $0x10,%esp
    38f7:	8b 45 08             	mov    0x8(%ebp),%eax
    38fa:	50                   	push   %eax
    38fb:	e8 60 12 00 00       	call   4b60 <ddf_fun_get_dev>
    3900:	89 04 24             	mov    %eax,(%esp)
    3903:	e8 88 11 00 00       	call   4a90 <ddf_dev_data_get>
    3908:	89 c3                	mov    %eax,%ebx
    390a:	89 04 24             	mov    %eax,(%esp)
    390d:	e8 2e fb ff ff       	call   3440 <hda_lock>
    3912:	5a                   	pop    %edx
    3913:	59                   	pop    %ecx
    3914:	68 36 df 00 00       	push   $0xdf36
    3919:	6a 03                	push   $0x3
    391b:	e8 70 1a 00 00       	call   5390 <ddf_msg>
    3920:	8b 43 34             	mov    0x34(%ebx),%eax
    3923:	83 c4 10             	add    $0x10,%esp
    3926:	85 c0                	test   %eax,%eax
    3928:	74 22                	je     394c <hda_release_buffer+0x5c>
    392a:	83 ec 0c             	sub    $0xc,%esp
    392d:	50                   	push   %eax
    392e:	e8 5d 04 00 00       	call   3d90 <hda_stream_buffers_free>
    3933:	c7 43 34 00 00 00 00 	movl   $0x0,0x34(%ebx)
    393a:	89 1c 24             	mov    %ebx,(%esp)
    393d:	e8 0e fb ff ff       	call   3450 <hda_unlock>
    3942:	83 c4 10             	add    $0x10,%esp
    3945:	31 c0                	xor    %eax,%eax
    3947:	8b 5d fc             	mov    -0x4(%ebp),%ebx
    394a:	c9                   	leave  
    394b:	c3                   	ret    
    394c:	83 ec 0c             	sub    $0xc,%esp
    394f:	53                   	push   %ebx
    3950:	e8 fb fa ff ff       	call   3450 <hda_unlock>
    3955:	83 c4 10             	add    $0x10,%esp
    3958:	b8 f2 ff ff ff       	mov    $0xfffffff2,%eax
    395d:	eb e8                	jmp    3947 <hda_release_buffer+0x57>
    395f:	90                   	nop

00003960 <hda_get_buffer>:
    3960:	55                   	push   %ebp
    3961:	89 e5                	mov    %esp,%ebp
    3963:	56                   	push   %esi
    3964:	53                   	push   %ebx
    3965:	83 ec 1c             	sub    $0x1c,%esp
    3968:	8b 4d 08             	mov    0x8(%ebp),%ecx
    396b:	51                   	push   %ecx
    396c:	e8 ef 11 00 00       	call   4b60 <ddf_fun_get_dev>
    3971:	89 04 24             	mov    %eax,(%esp)
    3974:	e8 17 11 00 00       	call   4a90 <ddf_dev_data_get>
    3979:	89 c3                	mov    %eax,%ebx
    397b:	89 04 24             	mov    %eax,(%esp)
    397e:	e8 bd fa ff ff       	call   3440 <hda_lock>
    3983:	83 c4 0c             	add    $0xc,%esp
    3986:	53                   	push   %ebx
    3987:	68 4b df 00 00       	push   $0xdf4b
    398c:	6a 03                	push   $0x3
    398e:	e8 fd 19 00 00       	call   5390 <ddf_msg>
    3993:	8b 73 34             	mov    0x34(%ebx),%esi
    3996:	83 c4 10             	add    $0x10,%esp
    3999:	85 f6                	test   %esi,%esi
    399b:	0f 85 9f 00 00 00    	jne    3a40 <hda_get_buffer+0xe0>
    39a1:	50                   	push   %eax
    39a2:	50                   	push   %eax
    39a3:	68 38 e0 00 00       	push   $0xe038
    39a8:	6a 03                	push   $0x3
    39aa:	e8 e1 19 00 00       	call   5390 <ddf_msg>
    39af:	58                   	pop    %eax
    39b0:	8d 43 34             	lea    0x34(%ebx),%eax
    39b3:	5a                   	pop    %edx
    39b4:	50                   	push   %eax
    39b5:	53                   	push   %ebx
    39b6:	e8 45 02 00 00       	call   3c00 <hda_stream_buffers_alloc>
    39bb:	83 c4 10             	add    $0x10,%esp
    39be:	85 c0                	test   %eax,%eax
    39c0:	74 26                	je     39e8 <hda_get_buffer+0x88>
    39c2:	83 f8 fe             	cmp    $0xfffffffe,%eax
    39c5:	0f 85 8d 00 00 00    	jne    3a58 <hda_get_buffer+0xf8>
    39cb:	83 ec 0c             	sub    $0xc,%esp
    39ce:	89 45 f4             	mov    %eax,-0xc(%ebp)
    39d1:	53                   	push   %ebx
    39d2:	e8 79 fa ff ff       	call   3450 <hda_unlock>
    39d7:	8b 45 f4             	mov    -0xc(%ebp),%eax
    39da:	83 c4 10             	add    $0x10,%esp
    39dd:	8d 65 f8             	lea    -0x8(%ebp),%esp
    39e0:	5b                   	pop    %ebx
    39e1:	5e                   	pop    %esi
    39e2:	5d                   	pop    %ebp
    39e3:	c3                   	ret    
    39e4:	8d 74 26 00          	lea    0x0(%esi,%eiz,1),%esi
    39e8:	89 45 f4             	mov    %eax,-0xc(%ebp)
    39eb:	50                   	push   %eax
    39ec:	50                   	push   %eax
    39ed:	68 7d df 00 00       	push   $0xdf7d
    39f2:	6a 03                	push   $0x3
    39f4:	e8 97 19 00 00       	call   5390 <ddf_msg>
    39f9:	8b 53 34             	mov    0x34(%ebx),%edx
    39fc:	8b 52 10             	mov    0x10(%edx),%edx
    39ff:	8b 0a                	mov    (%edx),%ecx
    3a01:	8b 55 0c             	mov    0xc(%ebp),%edx
    3a04:	89 0a                	mov    %ecx,(%edx)
    3a06:	8b 73 34             	mov    0x34(%ebx),%esi
    3a09:	8b 06                	mov    (%esi),%eax
    3a0b:	8b 56 04             	mov    0x4(%esi),%edx
    3a0e:	0f af d0             	imul   %eax,%edx
    3a11:	8b 75 10             	mov    0x10(%ebp),%esi
    3a14:	89 16                	mov    %edx,(%esi)
    3a16:	52                   	push   %edx
    3a17:	51                   	push   %ecx
    3a18:	68 64 e0 00 00       	push   $0xe064
    3a1d:	6a 03                	push   $0x3
    3a1f:	e8 6c 19 00 00       	call   5390 <ddf_msg>
    3a24:	83 c4 14             	add    $0x14,%esp
    3a27:	53                   	push   %ebx
    3a28:	e8 23 fa ff ff       	call   3450 <hda_unlock>
    3a2d:	8b 45 f4             	mov    -0xc(%ebp),%eax
    3a30:	83 c4 10             	add    $0x10,%esp
    3a33:	8d 65 f8             	lea    -0x8(%ebp),%esp
    3a36:	5b                   	pop    %ebx
    3a37:	5e                   	pop    %esi
    3a38:	5d                   	pop    %ebp
    3a39:	c3                   	ret    
    3a3a:	8d b6 00 00 00 00    	lea    0x0(%esi),%esi
    3a40:	83 ec 0c             	sub    $0xc,%esp
    3a43:	53                   	push   %ebx
    3a44:	e8 07 fa ff ff       	call   3450 <hda_unlock>
    3a49:	83 c4 10             	add    $0x10,%esp
    3a4c:	8d 65 f8             	lea    -0x8(%ebp),%esp
    3a4f:	b8 f1 ff ff ff       	mov    $0xfffffff1,%eax
    3a54:	5b                   	pop    %ebx
    3a55:	5e                   	pop    %esi
    3a56:	5d                   	pop    %ebp
    3a57:	c3                   	ret    
    3a58:	50                   	push   %eax
    3a59:	68 a8 00 00 00       	push   $0xa8
    3a5e:	68 64 df 00 00       	push   $0xdf64
    3a63:	68 70 df 00 00       	push   $0xdf70
    3a68:	e8 53 c6 00 00       	call   100c0 <assert_abort@plt>
    3a6d:	8d 76 00             	lea    0x0(%esi),%esi

00003a70 <hda_stop_capture>:
    3a70:	55                   	push   %ebp
    3a71:	89 e5                	mov    %esp,%ebp
    3a73:	53                   	push   %ebx
    3a74:	83 ec 10             	sub    $0x10,%esp
    3a77:	8b 45 08             	mov    0x8(%ebp),%eax
    3a7a:	50                   	push   %eax
    3a7b:	e8 e0 10 00 00       	call   4b60 <ddf_fun_get_dev>
    3a80:	89 04 24             	mov    %eax,(%esp)
    3a83:	e8 08 10 00 00       	call   4a90 <ddf_dev_data_get>
    3a88:	89 c3                	mov    %eax,%ebx
    3a8a:	5a                   	pop    %edx
    3a8b:	59                   	pop    %ecx
    3a8c:	68 9a df 00 00       	push   $0xdf9a
    3a91:	6a 03                	push   $0x3
    3a93:	e8 f8 18 00 00       	call   5390 <ddf_msg>
    3a98:	89 1c 24             	mov    %ebx,(%esp)
    3a9b:	e8 a0 f9 ff ff       	call   3440 <hda_lock>
    3aa0:	58                   	pop    %eax
    3aa1:	8b 43 30             	mov    0x30(%ebx),%eax
    3aa4:	50                   	push   %eax
    3aa5:	e8 36 05 00 00       	call   3fe0 <hda_stream_stop>
    3aaa:	58                   	pop    %eax
    3aab:	8b 43 30             	mov    0x30(%ebx),%eax
    3aae:	50                   	push   %eax
    3aaf:	e8 7c 05 00 00       	call   4030 <hda_stream_reset>
    3ab4:	c6 43 39 00          	movb   $0x0,0x39(%ebx)
    3ab8:	58                   	pop    %eax
    3ab9:	8b 43 30             	mov    0x30(%ebx),%eax
    3abc:	50                   	push   %eax
    3abd:	e8 4e 04 00 00       	call   3f10 <hda_stream_destroy>
    3ac2:	c7 43 30 00 00 00 00 	movl   $0x0,0x30(%ebx)
    3ac9:	89 1c 24             	mov    %ebx,(%esp)
    3acc:	e8 7f f9 ff ff       	call   3450 <hda_unlock>
    3ad1:	8b 43 14             	mov    0x14(%ebx),%eax
    3ad4:	83 c4 10             	add    $0x10,%esp
    3ad7:	85 c0                	test   %eax,%eax
    3ad9:	74 26                	je     3b01 <hda_stop_capture+0x91>
    3adb:	83 ec 0c             	sub    $0xc,%esp
    3ade:	50                   	push   %eax
    3adf:	e8 6c c8 00 00       	call   10350 <async_exchange_begin@plt>
    3ae4:	83 c4 0c             	add    $0xc,%esp
    3ae7:	89 c3                	mov    %eax,%ebx
    3ae9:	6a 00                	push   $0x0
    3aeb:	68 05 04 00 00       	push   $0x405
    3af0:	50                   	push   %eax
    3af1:	e8 3a c7 00 00       	call   10230 <async_msg_1@plt>
    3af6:	89 1c 24             	mov    %ebx,(%esp)
    3af9:	e8 b2 c5 00 00       	call   100b0 <async_exchange_end@plt>
    3afe:	83 c4 10             	add    $0x10,%esp
    3b01:	31 c0                	xor    %eax,%eax
    3b03:	8b 5d fc             	mov    -0x4(%ebp),%ebx
    3b06:	c9                   	leave  
    3b07:	c3                   	ret    
    3b08:	90                   	nop
    3b09:	8d b4 26 00 00 00 00 	lea    0x0(%esi,%eiz,1),%esi

00003b10 <hda_stop_playback>:
    3b10:	55                   	push   %ebp
    3b11:	89 e5                	mov    %esp,%ebp
    3b13:	53                   	push   %ebx
    3b14:	83 ec 10             	sub    $0x10,%esp
    3b17:	8b 45 08             	mov    0x8(%ebp),%eax
    3b1a:	50                   	push   %eax
    3b1b:	e8 40 10 00 00       	call   4b60 <ddf_fun_get_dev>
    3b20:	89 04 24             	mov    %eax,(%esp)
    3b23:	e8 68 0f 00 00       	call   4a90 <ddf_dev_data_get>
    3b28:	89 c3                	mov    %eax,%ebx
    3b2a:	5a                   	pop    %edx
    3b2b:	59                   	pop    %ecx
    3b2c:	68 ad df 00 00       	push   $0xdfad
    3b31:	6a 03                	push   $0x3
    3b33:	e8 58 18 00 00       	call   5390 <ddf_msg>
    3b38:	89 1c 24             	mov    %ebx,(%esp)
    3b3b:	e8 00 f9 ff ff       	call   3440 <hda_lock>
    3b40:	58                   	pop    %eax
    3b41:	8b 43 30             	mov    0x30(%ebx),%eax
    3b44:	50                   	push   %eax
    3b45:	e8 96 04 00 00       	call   3fe0 <hda_stream_stop>
    3b4a:	58                   	pop    %eax
    3b4b:	8b 43 30             	mov    0x30(%ebx),%eax
    3b4e:	50                   	push   %eax
    3b4f:	e8 dc 04 00 00       	call   4030 <hda_stream_reset>
    3b54:	c6 43 38 00          	movb   $0x0,0x38(%ebx)
    3b58:	58                   	pop    %eax
    3b59:	8b 43 30             	mov    0x30(%ebx),%eax
    3b5c:	50                   	push   %eax
    3b5d:	e8 ae 03 00 00       	call   3f10 <hda_stream_destroy>
    3b62:	c7 43 30 00 00 00 00 	movl   $0x0,0x30(%ebx)
    3b69:	89 1c 24             	mov    %ebx,(%esp)
    3b6c:	e8 df f8 ff ff       	call   3450 <hda_unlock>
    3b71:	8b 43 14             	mov    0x14(%ebx),%eax
    3b74:	83 c4 10             	add    $0x10,%esp
    3b77:	85 c0                	test   %eax,%eax
    3b79:	74 26                	je     3ba1 <hda_stop_playback+0x91>
    3b7b:	83 ec 0c             	sub    $0xc,%esp
    3b7e:	50                   	push   %eax
    3b7f:	e8 cc c7 00 00       	call   10350 <async_exchange_begin@plt>
    3b84:	83 c4 0c             	add    $0xc,%esp
    3b87:	89 c3                	mov    %eax,%ebx
    3b89:	6a 00                	push   $0x0
    3b8b:	68 04 04 00 00       	push   $0x404
    3b90:	50                   	push   %eax
    3b91:	e8 9a c6 00 00       	call   10230 <async_msg_1@plt>
    3b96:	89 1c 24             	mov    %ebx,(%esp)
    3b99:	e8 12 c5 00 00       	call   100b0 <async_exchange_end@plt>
    3b9e:	83 c4 10             	add    $0x10,%esp
    3ba1:	31 c0                	xor    %eax,%eax
    3ba3:	8b 5d fc             	mov    -0x4(%ebp),%ebx
    3ba6:	c9                   	leave  
    3ba7:	c3                   	ret    
    3ba8:	90                   	nop
    3ba9:	8d b4 26 00 00 00 00 	lea    0x0(%esi,%eiz,1),%esi

00003bb0 <hda_pcm_event>:
    3bb0:	55                   	push   %ebp
    3bb1:	89 e5                	mov    %esp,%ebp
    3bb3:	56                   	push   %esi
    3bb4:	53                   	push   %ebx
    3bb5:	8b 45 08             	mov    0x8(%ebp),%eax
    3bb8:	8b 75 0c             	mov    0xc(%ebp),%esi
    3bbb:	8b 40 14             	mov    0x14(%eax),%eax
    3bbe:	85 c0                	test   %eax,%eax
    3bc0:	74 2e                	je     3bf0 <hda_pcm_event+0x40>
    3bc2:	83 ec 0c             	sub    $0xc,%esp
    3bc5:	50                   	push   %eax
    3bc6:	e8 85 c7 00 00       	call   10350 <async_exchange_begin@plt>
    3bcb:	83 c4 0c             	add    $0xc,%esp
    3bce:	89 c3                	mov    %eax,%ebx
    3bd0:	6a 00                	push   $0x0
    3bd2:	56                   	push   %esi
    3bd3:	50                   	push   %eax
    3bd4:	e8 57 c6 00 00       	call   10230 <async_msg_1@plt>
    3bd9:	89 5d 08             	mov    %ebx,0x8(%ebp)
    3bdc:	83 c4 10             	add    $0x10,%esp
    3bdf:	8d 65 f8             	lea    -0x8(%ebp),%esp
    3be2:	5b                   	pop    %ebx
    3be3:	5e                   	pop    %esi
    3be4:	5d                   	pop    %ebp
    3be5:	e9 c6 c4 00 00       	jmp    100b0 <async_exchange_end@plt>
    3bea:	8d b6 00 00 00 00    	lea    0x0(%esi),%esi
    3bf0:	8d 65 f8             	lea    -0x8(%ebp),%esp
    3bf3:	5b                   	pop    %ebx
    3bf4:	5e                   	pop    %esi
    3bf5:	5d                   	pop    %ebp
    3bf6:	c3                   	ret    
    3bf7:	66 90                	xchg   %ax,%ax
    3bf9:	66 90                	xchg   %ax,%ax
    3bfb:	66 90                	xchg   %ax,%ax
    3bfd:	66 90                	xchg   %ax,%ax
    3bff:	90                   	nop

00003c00 <hda_stream_buffers_alloc>:
    3c00:	55                   	push   %ebp
    3c01:	89 e5                	mov    %esp,%ebp
    3c03:	57                   	push   %edi
    3c04:	56                   	push   %esi
    3c05:	53                   	push   %ebx
    3c06:	83 ec 34             	sub    $0x34,%esp
    3c09:	6a 18                	push   $0x18
    3c0b:	6a 01                	push   $0x1
    3c0d:	e8 ce c4 00 00       	call   100e0 <calloc@plt>
    3c12:	83 c4 10             	add    $0x10,%esp
    3c15:	85 c0                	test   %eax,%eax
    3c17:	74 40                	je     3c59 <hda_stream_buffers_alloc+0x59>
    3c19:	89 c3                	mov    %eax,%ebx
    3c1b:	c7 00 04 00 00 00    	movl   $0x4,(%eax)
    3c21:	c7 40 04 00 40 00 00 	movl   $0x4000,0x4(%eax)
    3c28:	50                   	push   %eax
    3c29:	50                   	push   %eax
    3c2a:	8d 45 dc             	lea    -0x24(%ebp),%eax
    3c2d:	50                   	push   %eax
    3c2e:	8d 43 0c             	lea    0xc(%ebx),%eax
    3c31:	50                   	push   %eax
    3c32:	c7 45 dc ff ff ff ff 	movl   $0xffffffff,-0x24(%ebp)
    3c39:	6a 00                	push   $0x0
    3c3b:	6a 03                	push   $0x3
    3c3d:	6a 00                	push   $0x0
    3c3f:	6a 40                	push   $0x40
    3c41:	e8 7a c6 00 00       	call   102c0 <dmamem_map_anonymous@plt>
    3c46:	83 c4 20             	add    $0x20,%esp
    3c49:	85 c0                	test   %eax,%eax
    3c4b:	74 1b                	je     3c68 <hda_stream_buffers_alloc+0x68>
    3c4d:	83 ec 0c             	sub    $0xc,%esp
    3c50:	53                   	push   %ebx
    3c51:	e8 fa c7 00 00       	call   10450 <free@plt>
    3c56:	83 c4 10             	add    $0x10,%esp
    3c59:	bf fe ff ff ff       	mov    $0xfffffffe,%edi
    3c5e:	8d 65 f4             	lea    -0xc(%ebp),%esp
    3c61:	89 f8                	mov    %edi,%eax
    3c63:	5b                   	pop    %ebx
    3c64:	5e                   	pop    %esi
    3c65:	5f                   	pop    %edi
    3c66:	5d                   	pop    %ebp
    3c67:	c3                   	ret    
    3c68:	8b 45 dc             	mov    -0x24(%ebp),%eax
    3c6b:	89 43 08             	mov    %eax,0x8(%ebx)
    3c6e:	57                   	push   %edi
    3c6f:	57                   	push   %edi
    3c70:	6a 04                	push   $0x4
    3c72:	8b 03                	mov    (%ebx),%eax
    3c74:	50                   	push   %eax
    3c75:	e8 66 c4 00 00       	call   100e0 <calloc@plt>
    3c7a:	83 c4 10             	add    $0x10,%esp
    3c7d:	89 43 10             	mov    %eax,0x10(%ebx)
    3c80:	85 c0                	test   %eax,%eax
    3c82:	74 c9                	je     3c4d <hda_stream_buffers_alloc+0x4d>
    3c84:	51                   	push   %ecx
    3c85:	51                   	push   %ecx
    3c86:	6a 04                	push   $0x4
    3c88:	8b 33                	mov    (%ebx),%esi
    3c8a:	56                   	push   %esi
    3c8b:	e8 50 c4 00 00       	call   100e0 <calloc@plt>
    3c90:	83 c4 10             	add    $0x10,%esp
    3c93:	89 43 14             	mov    %eax,0x14(%ebx)
    3c96:	85 c0                	test   %eax,%eax
    3c98:	74 b3                	je     3c4d <hda_stream_buffers_alloc+0x4d>
    3c9a:	50                   	push   %eax
    3c9b:	50                   	push   %eax
    3c9c:	8d 45 e0             	lea    -0x20(%ebp),%eax
    3c9f:	c7 45 e0 ff ff ff ff 	movl   $0xffffffff,-0x20(%ebp)
    3ca6:	50                   	push   %eax
    3ca7:	8d 45 e4             	lea    -0x1c(%ebp),%eax
    3caa:	50                   	push   %eax
    3cab:	6a 00                	push   $0x0
    3cad:	6a 03                	push   $0x3
    3caf:	6a 00                	push   $0x0
    3cb1:	8b 43 04             	mov    0x4(%ebx),%eax
    3cb4:	8b 13                	mov    (%ebx),%edx
    3cb6:	0f af c2             	imul   %edx,%eax
    3cb9:	50                   	push   %eax
    3cba:	e8 01 c6 00 00       	call   102c0 <dmamem_map_anonymous@plt>
    3cbf:	83 c4 20             	add    $0x20,%esp
    3cc2:	89 c7                	mov    %eax,%edi
    3cc4:	85 c0                	test   %eax,%eax
    3cc6:	0f 85 a4 00 00 00    	jne    3d70 <hda_stream_buffers_alloc+0x170>
    3ccc:	8b 03                	mov    (%ebx),%eax
    3cce:	31 f6                	xor    %esi,%esi
    3cd0:	85 c0                	test   %eax,%eax
    3cd2:	0f 84 8a 00 00 00    	je     3d62 <hda_stream_buffers_alloc+0x162>
    3cd8:	89 7d d4             	mov    %edi,-0x2c(%ebp)
    3cdb:	90                   	nop
    3cdc:	8d 74 26 00          	lea    0x0(%esi,%eiz,1),%esi
    3ce0:	8b 43 04             	mov    0x4(%ebx),%eax
    3ce3:	8b 4b 10             	mov    0x10(%ebx),%ecx
    3ce6:	0f af c6             	imul   %esi,%eax
    3ce9:	8d 14 b5 00 00 00 00 	lea    0x0(,%esi,4),%edx
    3cf0:	8b 7d e0             	mov    -0x20(%ebp),%edi
    3cf3:	01 c7                	add    %eax,%edi
    3cf5:	83 ec 0c             	sub    $0xc,%esp
    3cf8:	89 3c 11             	mov    %edi,(%ecx,%edx,1)
    3cfb:	8b 4d e4             	mov    -0x1c(%ebp),%ecx
    3cfe:	01 c8                	add    %ecx,%eax
    3d00:	8b 4b 14             	mov    0x14(%ebx),%ecx
    3d03:	46                   	inc    %esi
    3d04:	89 04 11             	mov    %eax,(%ecx,%edx,1)
    3d07:	50                   	push   %eax
    3d08:	8b 43 10             	mov    0x10(%ebx),%eax
    3d0b:	8b 04 10             	mov    (%eax,%edx,1),%eax
    3d0e:	31 d2                	xor    %edx,%edx
    3d10:	52                   	push   %edx
    3d11:	50                   	push   %eax
    3d12:	68 28 e1 00 00       	push   $0xe128
    3d17:	6a 03                	push   $0x3
    3d19:	e8 72 16 00 00       	call   5390 <ddf_msg>
    3d1e:	8b 0b                	mov    (%ebx),%ecx
    3d20:	83 c4 20             	add    $0x20,%esp
    3d23:	39 f1                	cmp    %esi,%ecx
    3d25:	77 b9                	ja     3ce0 <hda_stream_buffers_alloc+0xe0>
    3d27:	8b 7d d4             	mov    -0x2c(%ebp),%edi
    3d2a:	85 c9                	test   %ecx,%ecx
    3d2c:	74 34                	je     3d62 <hda_stream_buffers_alloc+0x162>
    3d2e:	8b 53 14             	mov    0x14(%ebx),%edx
    3d31:	8b 73 04             	mov    0x4(%ebx),%esi
    3d34:	8b 43 08             	mov    0x8(%ebx),%eax
    3d37:	89 5d d4             	mov    %ebx,-0x2c(%ebp)
    3d3a:	8d 0c 8a             	lea    (%edx,%ecx,4),%ecx
    3d3d:	8d 76 00             	lea    0x0(%esi),%esi
    3d40:	8b 1a                	mov    (%edx),%ebx
    3d42:	83 c2 04             	add    $0x4,%edx
    3d45:	89 18                	mov    %ebx,(%eax)
    3d47:	c7 40 04 00 00 00 00 	movl   $0x0,0x4(%eax)
    3d4e:	89 70 08             	mov    %esi,0x8(%eax)
    3d51:	c7 40 0c 01 00 00 00 	movl   $0x1,0xc(%eax)
    3d58:	83 c0 10             	add    $0x10,%eax
    3d5b:	39 d1                	cmp    %edx,%ecx
    3d5d:	75 e1                	jne    3d40 <hda_stream_buffers_alloc+0x140>
    3d5f:	8b 5d d4             	mov    -0x2c(%ebp),%ebx
    3d62:	8b 45 0c             	mov    0xc(%ebp),%eax
    3d65:	89 18                	mov    %ebx,(%eax)
    3d67:	e9 f2 fe ff ff       	jmp    3c5e <hda_stream_buffers_alloc+0x5e>
    3d6c:	8d 74 26 00          	lea    0x0(%esi,%eiz,1),%esi
    3d70:	56                   	push   %esi
    3d71:	50                   	push   %eax
    3d72:	68 97 e0 00 00       	push   $0xe097
    3d77:	6a 03                	push   $0x3
    3d79:	e8 12 16 00 00       	call   5390 <ddf_msg>
    3d7e:	83 c4 10             	add    $0x10,%esp
    3d81:	e9 c7 fe ff ff       	jmp    3c4d <hda_stream_buffers_alloc+0x4d>
    3d86:	8d 76 00             	lea    0x0(%esi),%esi
    3d89:	8d bc 27 00 00 00 00 	lea    0x0(%edi,%eiz,1),%edi

00003d90 <hda_stream_buffers_free>:
    3d90:	55                   	push   %ebp
    3d91:	89 e5                	mov    %esp,%ebp
    3d93:	8b 45 08             	mov    0x8(%ebp),%eax
    3d96:	85 c0                	test   %eax,%eax
    3d98:	74 06                	je     3da0 <hda_stream_buffers_free+0x10>
    3d9a:	5d                   	pop    %ebp
    3d9b:	e9 b0 c6 00 00       	jmp    10450 <free@plt>
    3da0:	5d                   	pop    %ebp
    3da1:	c3                   	ret    
    3da2:	8d b4 26 00 00 00 00 	lea    0x0(%esi,%eiz,1),%esi
    3da9:	8d bc 27 00 00 00 00 	lea    0x0(%edi,%eiz,1),%edi

00003db0 <hda_stream_create>:
    3db0:	55                   	push   %ebp
    3db1:	89 e5                	mov    %esp,%ebp
    3db3:	57                   	push   %edi
    3db4:	56                   	push   %esi
    3db5:	53                   	push   %ebx
    3db6:	83 ec 24             	sub    $0x24,%esp
    3db9:	8b 7d 08             	mov    0x8(%ebp),%edi
    3dbc:	8b 75 0c             	mov    0xc(%ebp),%esi
    3dbf:	6a 14                	push   $0x14
    3dc1:	6a 01                	push   $0x1
    3dc3:	e8 18 c3 00 00       	call   100e0 <calloc@plt>
    3dc8:	83 c4 10             	add    $0x10,%esp
    3dcb:	89 c3                	mov    %eax,%ebx
    3dcd:	85 c0                	test   %eax,%eax
    3dcf:	0f 84 f5 00 00 00    	je     3eca <hda_stream_create+0x11a>
    3dd5:	83 fe 01             	cmp    $0x1,%esi
    3dd8:	0f 84 12 01 00 00    	je     3ef0 <hda_stream_create+0x140>
    3dde:	83 fe 02             	cmp    $0x2,%esi
    3de1:	0f 84 f1 00 00 00    	je     3ed8 <hda_stream_create+0x128>
    3de7:	31 c9                	xor    %ecx,%ecx
    3de9:	31 d2                	xor    %edx,%edx
    3deb:	88 53 05             	mov    %dl,0x5(%ebx)
    3dee:	8b 55 14             	mov    0x14(%ebp),%edx
    3df1:	89 53 10             	mov    %edx,0x10(%ebx)
    3df4:	8b 55 10             	mov    0x10(%ebp),%edx
    3df7:	51                   	push   %ecx
    3df8:	89 3b                	mov    %edi,(%ebx)
    3dfa:	6a 01                	push   $0x1
    3dfc:	89 73 08             	mov    %esi,0x8(%ebx)
    3dff:	68 ad e0 00 00       	push   $0xe0ad
    3e04:	89 53 0c             	mov    %edx,0xc(%ebx)
    3e07:	6a 03                	push   $0x3
    3e09:	c6 43 04 01          	movb   $0x1,0x4(%ebx)
    3e0d:	e8 7e 15 00 00       	call   5390 <ddf_msg>
    3e12:	58                   	pop    %eax
    3e13:	5a                   	pop    %edx
    3e14:	68 be e0 00 00       	push   $0xe0be
    3e19:	6a 03                	push   $0x3
    3e1b:	e8 70 15 00 00       	call   5390 <ddf_msg>
    3e20:	8b 03                	mov    (%ebx),%eax
    3e22:	59                   	pop    %ecx
    3e23:	0f b6 73 05          	movzbl 0x5(%ebx),%esi
    3e27:	8b 78 28             	mov    0x28(%eax),%edi
    3e2a:	81 e6 ff 00 00 00    	and    $0xff,%esi
    3e30:	58                   	pop    %eax
    3e31:	8a 43 04             	mov    0x4(%ebx),%al
    3e34:	c1 e0 04             	shl    $0x4,%eax
    3e37:	83 c6 04             	add    $0x4,%esi
    3e3a:	c1 e6 05             	shl    $0x5,%esi
    3e3d:	88 c1                	mov    %al,%cl
    3e3f:	31 c0                	xor    %eax,%eax
    3e41:	8b 53 0c             	mov    0xc(%ebx),%edx
    3e44:	88 c8                	mov    %cl,%al
    3e46:	89 55 e4             	mov    %edx,-0x1c(%ebp)
    3e49:	50                   	push   %eax
    3e4a:	8d 44 37 02          	lea    0x2(%edi,%esi,1),%eax
    3e4e:	50                   	push   %eax
    3e4f:	e8 1c e0 ff ff       	call   1e70 <hda_reg8_write>
    3e54:	58                   	pop    %eax
    3e55:	8d 04 37             	lea    (%edi,%esi,1),%eax
    3e58:	5a                   	pop    %edx
    3e59:	6a 04                	push   $0x4
    3e5b:	50                   	push   %eax
    3e5c:	e8 0f e0 ff ff       	call   1e70 <hda_reg8_write>
    3e61:	8b 55 e4             	mov    -0x1c(%ebp),%edx
    3e64:	59                   	pop    %ecx
    3e65:	58                   	pop    %eax
    3e66:	8b 4a 04             	mov    0x4(%edx),%ecx
    3e69:	8b 02                	mov    (%edx),%eax
    3e6b:	0f af c1             	imul   %ecx,%eax
    3e6e:	50                   	push   %eax
    3e6f:	8d 44 37 08          	lea    0x8(%edi,%esi,1),%eax
    3e73:	50                   	push   %eax
    3e74:	e8 37 e0 ff ff       	call   1eb0 <hda_reg32_write>
    3e79:	58                   	pop    %eax
    3e7a:	5a                   	pop    %edx
    3e7b:	8b 55 e4             	mov    -0x1c(%ebp),%edx
    3e7e:	8b 02                	mov    (%edx),%eax
    3e80:	8d 48 ff             	lea    -0x1(%eax),%ecx
    3e83:	31 c0                	xor    %eax,%eax
    3e85:	66 89 c8             	mov    %cx,%ax
    3e88:	50                   	push   %eax
    3e89:	8d 44 37 0c          	lea    0xc(%edi,%esi,1),%eax
    3e8d:	50                   	push   %eax
    3e8e:	e8 fd df ff ff       	call   1e90 <hda_reg16_write>
    3e93:	59                   	pop    %ecx
    3e94:	58                   	pop    %eax
    3e95:	31 c0                	xor    %eax,%eax
    3e97:	66 8b 43 10          	mov    0x10(%ebx),%ax
    3e9b:	50                   	push   %eax
    3e9c:	8d 44 37 12          	lea    0x12(%edi,%esi,1),%eax
    3ea0:	50                   	push   %eax
    3ea1:	e8 ea df ff ff       	call   1e90 <hda_reg16_write>
    3ea6:	58                   	pop    %eax
    3ea7:	5a                   	pop    %edx
    3ea8:	8b 55 e4             	mov    -0x1c(%ebp),%edx
    3eab:	8d 44 37 18          	lea    0x18(%edi,%esi,1),%eax
    3eaf:	8b 4a 0c             	mov    0xc(%edx),%ecx
    3eb2:	51                   	push   %ecx
    3eb3:	50                   	push   %eax
    3eb4:	e8 f7 df ff ff       	call   1eb0 <hda_reg32_write>
    3eb9:	58                   	pop    %eax
    3eba:	8d 44 37 1c          	lea    0x1c(%edi,%esi,1),%eax
    3ebe:	5a                   	pop    %edx
    3ebf:	6a 00                	push   $0x0
    3ec1:	50                   	push   %eax
    3ec2:	e8 e9 df ff ff       	call   1eb0 <hda_reg32_write>
    3ec7:	83 c4 10             	add    $0x10,%esp
    3eca:	8d 65 f4             	lea    -0xc(%ebp),%esp
    3ecd:	89 d8                	mov    %ebx,%eax
    3ecf:	5b                   	pop    %ebx
    3ed0:	5e                   	pop    %esi
    3ed1:	5f                   	pop    %edi
    3ed2:	5d                   	pop    %ebp
    3ed3:	c3                   	ret    
    3ed4:	8d 74 26 00          	lea    0x0(%esi,%eiz,1),%esi
    3ed8:	8b 47 2c             	mov    0x2c(%edi),%eax
    3edb:	8b 48 04             	mov    0x4(%eax),%ecx
    3ede:	8b 50 08             	mov    0x8(%eax),%edx
    3ee1:	01 ca                	add    %ecx,%edx
    3ee3:	31 c9                	xor    %ecx,%ecx
    3ee5:	88 d1                	mov    %dl,%cl
    3ee7:	e9 ff fe ff ff       	jmp    3deb <hda_stream_create+0x3b>
    3eec:	8d 74 26 00          	lea    0x0(%esi,%eiz,1),%esi
    3ef0:	8b 47 2c             	mov    0x2c(%edi),%eax
    3ef3:	31 c9                	xor    %ecx,%ecx
    3ef5:	8b 40 04             	mov    0x4(%eax),%eax
    3ef8:	88 c2                	mov    %al,%dl
    3efa:	88 c1                	mov    %al,%cl
    3efc:	e9 ea fe ff ff       	jmp    3deb <hda_stream_create+0x3b>
    3f01:	eb 0d                	jmp    3f10 <hda_stream_destroy>
    3f03:	90                   	nop
    3f04:	90                   	nop
    3f05:	90                   	nop
    3f06:	90                   	nop
    3f07:	90                   	nop
    3f08:	90                   	nop
    3f09:	90                   	nop
    3f0a:	90                   	nop
    3f0b:	90                   	nop
    3f0c:	90                   	nop
    3f0d:	90                   	nop
    3f0e:	90                   	nop
    3f0f:	90                   	nop

00003f10 <hda_stream_destroy>:
    3f10:	55                   	push   %ebp
    3f11:	89 e5                	mov    %esp,%ebp
    3f13:	56                   	push   %esi
    3f14:	53                   	push   %ebx
    3f15:	31 db                	xor    %ebx,%ebx
    3f17:	8b 75 08             	mov    0x8(%ebp),%esi
    3f1a:	50                   	push   %eax
    3f1b:	50                   	push   %eax
    3f1c:	68 da e0 00 00       	push   $0xe0da
    3f21:	6a 03                	push   $0x3
    3f23:	e8 68 14 00 00       	call   5390 <ddf_msg>
    3f28:	8b 06                	mov    (%esi),%eax
    3f2a:	8a 5e 05             	mov    0x5(%esi),%bl
    3f2d:	83 c3 04             	add    $0x4,%ebx
    3f30:	c1 e3 05             	shl    $0x5,%ebx
    3f33:	8b 50 28             	mov    0x28(%eax),%edx
    3f36:	01 d3                	add    %edx,%ebx
    3f38:	89 1c 24             	mov    %ebx,(%esp)
    3f3b:	e8 00 df ff ff       	call   1e40 <hda_reg8_read>
    3f40:	83 c8 01             	or     $0x1,%eax
    3f43:	59                   	pop    %ecx
    3f44:	25 ff 00 00 00       	and    $0xff,%eax
    3f49:	5a                   	pop    %edx
    3f4a:	50                   	push   %eax
    3f4b:	53                   	push   %ebx
    3f4c:	e8 1f df ff ff       	call   1e70 <hda_reg8_write>
    3f51:	c7 04 24 a0 86 01 00 	movl   $0x186a0,(%esp)
    3f58:	e8 83 c3 00 00       	call   102e0 <async_usleep@plt>
    3f5d:	89 1c 24             	mov    %ebx,(%esp)
    3f60:	e8 db de ff ff       	call   1e40 <hda_reg8_read>
    3f65:	59                   	pop    %ecx
    3f66:	25 fe 00 00 00       	and    $0xfe,%eax
    3f6b:	5a                   	pop    %edx
    3f6c:	50                   	push   %eax
    3f6d:	53                   	push   %ebx
    3f6e:	e8 fd de ff ff       	call   1e70 <hda_reg8_write>
    3f73:	c7 04 24 a0 86 01 00 	movl   $0x186a0,(%esp)
    3f7a:	e8 61 c3 00 00       	call   102e0 <async_usleep@plt>
    3f7f:	89 75 08             	mov    %esi,0x8(%ebp)
    3f82:	83 c4 10             	add    $0x10,%esp
    3f85:	8d 65 f8             	lea    -0x8(%ebp),%esp
    3f88:	5b                   	pop    %ebx
    3f89:	5e                   	pop    %esi
    3f8a:	5d                   	pop    %ebp
    3f8b:	e9 c0 c4 00 00       	jmp    10450 <free@plt>

00003f90 <hda_stream_start>:
    3f90:	55                   	push   %ebp
    3f91:	89 e5                	mov    %esp,%ebp
    3f93:	53                   	push   %ebx
    3f94:	83 ec 0c             	sub    $0xc,%esp
    3f97:	8b 5d 08             	mov    0x8(%ebp),%ebx
    3f9a:	68 ef e0 00 00       	push   $0xe0ef
    3f9f:	6a 03                	push   $0x3
    3fa1:	e8 ea 13 00 00       	call   5390 <ddf_msg>
    3fa6:	8a 53 05             	mov    0x5(%ebx),%dl
    3fa9:	81 e2 ff 00 00 00    	and    $0xff,%edx
    3faf:	8b 03                	mov    (%ebx),%eax
    3fb1:	89 d3                	mov    %edx,%ebx
    3fb3:	83 c3 04             	add    $0x4,%ebx
    3fb6:	8b 50 28             	mov    0x28(%eax),%edx
    3fb9:	c1 e3 05             	shl    $0x5,%ebx
    3fbc:	01 d3                	add    %edx,%ebx
    3fbe:	89 1c 24             	mov    %ebx,(%esp)
    3fc1:	e8 7a de ff ff       	call   1e40 <hda_reg8_read>
    3fc6:	83 c8 02             	or     $0x2,%eax
    3fc9:	59                   	pop    %ecx
    3fca:	25 ff 00 00 00       	and    $0xff,%eax
    3fcf:	5a                   	pop    %edx
    3fd0:	50                   	push   %eax
    3fd1:	53                   	push   %ebx
    3fd2:	e8 99 de ff ff       	call   1e70 <hda_reg8_write>
    3fd7:	83 c4 10             	add    $0x10,%esp
    3fda:	8b 5d fc             	mov    -0x4(%ebp),%ebx
    3fdd:	c9                   	leave  
    3fde:	c3                   	ret    
    3fdf:	90                   	nop

00003fe0 <hda_stream_stop>:
    3fe0:	55                   	push   %ebp
    3fe1:	89 e5                	mov    %esp,%ebp
    3fe3:	53                   	push   %ebx
    3fe4:	83 ec 0c             	sub    $0xc,%esp
    3fe7:	8b 5d 08             	mov    0x8(%ebp),%ebx
    3fea:	68 02 e1 00 00       	push   $0xe102
    3fef:	6a 03                	push   $0x3
    3ff1:	e8 9a 13 00 00       	call   5390 <ddf_msg>
    3ff6:	8a 53 05             	mov    0x5(%ebx),%dl
    3ff9:	81 e2 ff 00 00 00    	and    $0xff,%edx
    3fff:	8b 03                	mov    (%ebx),%eax
    4001:	89 d3                	mov    %edx,%ebx
    4003:	83 c3 04             	add    $0x4,%ebx
    4006:	8b 50 28             	mov    0x28(%eax),%edx
    4009:	c1 e3 05             	shl    $0x5,%ebx
    400c:	01 d3                	add    %edx,%ebx
    400e:	89 1c 24             	mov    %ebx,(%esp)
    4011:	e8 2a de ff ff       	call   1e40 <hda_reg8_read>
    4016:	25 fd 00 00 00       	and    $0xfd,%eax
    401b:	59                   	pop    %ecx
    401c:	5a                   	pop    %edx
    401d:	50                   	push   %eax
    401e:	53                   	push   %ebx
    401f:	e8 4c de ff ff       	call   1e70 <hda_reg8_write>
    4024:	83 c4 10             	add    $0x10,%esp
    4027:	8b 5d fc             	mov    -0x4(%ebp),%ebx
    402a:	c9                   	leave  
    402b:	c3                   	ret    
    402c:	8d 74 26 00          	lea    0x0(%esi,%eiz,1),%esi

00004030 <hda_stream_reset>:
    4030:	55                   	push   %ebp
    4031:	89 e5                	mov    %esp,%ebp
    4033:	57                   	push   %edi
    4034:	56                   	push   %esi
    4035:	53                   	push   %ebx
    4036:	83 ec 24             	sub    $0x24,%esp
    4039:	31 db                	xor    %ebx,%ebx
    403b:	8b 7d 08             	mov    0x8(%ebp),%edi
    403e:	68 14 e1 00 00       	push   $0xe114
    4043:	6a 03                	push   $0x3
    4045:	e8 46 13 00 00       	call   5390 <ddf_msg>
    404a:	8b 07                	mov    (%edi),%eax
    404c:	8a 5f 05             	mov    0x5(%edi),%bl
    404f:	8b 50 28             	mov    0x28(%eax),%edx
    4052:	83 c3 04             	add    $0x4,%ebx
    4055:	c1 e3 05             	shl    $0x5,%ebx
    4058:	01 d3                	add    %edx,%ebx
    405a:	89 1c 24             	mov    %ebx,(%esp)
    405d:	e8 de dd ff ff       	call   1e40 <hda_reg8_read>
    4062:	83 c8 01             	or     $0x1,%eax
    4065:	59                   	pop    %ecx
    4066:	88 c1                	mov    %al,%cl
    4068:	31 c0                	xor    %eax,%eax
    406a:	88 c8                	mov    %cl,%al
    406c:	5e                   	pop    %esi
    406d:	50                   	push   %eax
    406e:	53                   	push   %ebx
    406f:	e8 fc dd ff ff       	call   1e70 <hda_reg8_write>
    4074:	c7 04 24 a0 86 01 00 	movl   $0x186a0,(%esp)
    407b:	e8 60 c2 00 00       	call   102e0 <async_usleep@plt>
    4080:	89 1c 24             	mov    %ebx,(%esp)
    4083:	e8 b8 dd ff ff       	call   1e40 <hda_reg8_read>
    4088:	5a                   	pop    %edx
    4089:	25 fe 00 00 00       	and    $0xfe,%eax
    408e:	59                   	pop    %ecx
    408f:	50                   	push   %eax
    4090:	53                   	push   %ebx
    4091:	e8 da dd ff ff       	call   1e70 <hda_reg8_write>
    4096:	c7 04 24 a0 86 01 00 	movl   $0x186a0,(%esp)
    409d:	e8 3e c2 00 00       	call   102e0 <async_usleep@plt>
    40a2:	8b 07                	mov    (%edi),%eax
    40a4:	31 db                	xor    %ebx,%ebx
    40a6:	8b 70 28             	mov    0x28(%eax),%esi
    40a9:	8a 5f 05             	mov    0x5(%edi),%bl
    40ac:	58                   	pop    %eax
    40ad:	8a 47 04             	mov    0x4(%edi),%al
    40b0:	83 c3 04             	add    $0x4,%ebx
    40b3:	c1 e0 04             	shl    $0x4,%eax
    40b6:	8b 57 0c             	mov    0xc(%edi),%edx
    40b9:	c1 e3 05             	shl    $0x5,%ebx
    40bc:	88 c1                	mov    %al,%cl
    40be:	31 c0                	xor    %eax,%eax
    40c0:	89 55 e4             	mov    %edx,-0x1c(%ebp)
    40c3:	88 c8                	mov    %cl,%al
    40c5:	5a                   	pop    %edx
    40c6:	50                   	push   %eax
    40c7:	8d 44 1e 02          	lea    0x2(%esi,%ebx,1),%eax
    40cb:	50                   	push   %eax
    40cc:	e8 9f dd ff ff       	call   1e70 <hda_reg8_write>
    40d1:	59                   	pop    %ecx
    40d2:	58                   	pop    %eax
    40d3:	8d 04 1e             	lea    (%esi,%ebx,1),%eax
    40d6:	6a 04                	push   $0x4
    40d8:	50                   	push   %eax
    40d9:	e8 92 dd ff ff       	call   1e70 <hda_reg8_write>
    40de:	58                   	pop    %eax
    40df:	5a                   	pop    %edx
    40e0:	8b 55 e4             	mov    -0x1c(%ebp),%edx
    40e3:	8b 4a 04             	mov    0x4(%edx),%ecx
    40e6:	8b 02                	mov    (%edx),%eax
    40e8:	0f af c1             	imul   %ecx,%eax
    40eb:	50                   	push   %eax
    40ec:	8d 44 1e 08          	lea    0x8(%esi,%ebx,1),%eax
    40f0:	50                   	push   %eax
    40f1:	e8 ba dd ff ff       	call   1eb0 <hda_reg32_write>
    40f6:	58                   	pop    %eax
    40f7:	5a                   	pop    %edx
    40f8:	8b 55 e4             	mov    -0x1c(%ebp),%edx
    40fb:	8b 02                	mov    (%edx),%eax
    40fd:	8d 48 ff             	lea    -0x1(%eax),%ecx
    4100:	31 c0                	xor    %eax,%eax
    4102:	66 89 c8             	mov    %cx,%ax
    4105:	50                   	push   %eax
    4106:	8d 44 1e 0c          	lea    0xc(%esi,%ebx,1),%eax
    410a:	50                   	push   %eax
    410b:	e8 80 dd ff ff       	call   1e90 <hda_reg16_write>
    4110:	59                   	pop    %ecx
    4111:	58                   	pop    %eax
    4112:	31 c0                	xor    %eax,%eax
    4114:	66 8b 47 10          	mov    0x10(%edi),%ax
    4118:	50                   	push   %eax
    4119:	8d 44 1e 12          	lea    0x12(%esi,%ebx,1),%eax
    411d:	50                   	push   %eax
    411e:	e8 6d dd ff ff       	call   1e90 <hda_reg16_write>
    4123:	58                   	pop    %eax
    4124:	5a                   	pop    %edx
    4125:	8b 55 e4             	mov    -0x1c(%ebp),%edx
    4128:	8d 44 1e 18          	lea    0x18(%esi,%ebx,1),%eax
    412c:	8b 4a 0c             	mov    0xc(%edx),%ecx
    412f:	51                   	push   %ecx
    4130:	50                   	push   %eax
    4131:	e8 7a dd ff ff       	call   1eb0 <hda_reg32_write>
    4136:	5f                   	pop    %edi
    4137:	58                   	pop    %eax
    4138:	8d 44 1e 1c          	lea    0x1c(%esi,%ebx,1),%eax
    413c:	6a 00                	push   $0x0
    413e:	50                   	push   %eax
    413f:	e8 6c dd ff ff       	call   1eb0 <hda_reg32_write>
    4144:	83 c4 10             	add    $0x10,%esp
    4147:	8d 65 f4             	lea    -0xc(%ebp),%esp
    414a:	5b                   	pop    %ebx
    414b:	5e                   	pop    %esi
    414c:	5f                   	pop    %edi
    414d:	5d                   	pop    %ebp
    414e:	c3                   	ret    
    414f:	90                   	nop

00004150 <fun_del_ref>:
    4150:	55                   	push   %ebp
    4151:	83 ca ff             	or     $0xffffffff,%edx
    4154:	89 e5                	mov    %esp,%ebp
    4156:	57                   	push   %edi
    4157:	56                   	push   %esi
    4158:	53                   	push   %ebx
    4159:	83 ec 1c             	sub    $0x1c,%esp
    415c:	8b 70 0c             	mov    0xc(%eax),%esi
    415f:	f0 0f c1 50 08       	lock xadd %edx,0x8(%eax)
    4164:	4a                   	dec    %edx
    4165:	74 69                	je     41d0 <fun_del_ref+0x80>
    4167:	83 c8 ff             	or     $0xffffffff,%eax
    416a:	f0 0f c1 46 04       	lock xadd %eax,0x4(%esi)
    416f:	48                   	dec    %eax
    4170:	74 0e                	je     4180 <fun_del_ref+0x30>
    4172:	8d 65 f4             	lea    -0xc(%ebp),%esp
    4175:	5b                   	pop    %ebx
    4176:	5e                   	pop    %esi
    4177:	5f                   	pop    %edi
    4178:	5d                   	pop    %ebp
    4179:	c3                   	ret    
    417a:	8d b6 00 00 00 00    	lea    0x0(%esi),%esi
    4180:	8b 46 08             	mov    0x8(%esi),%eax
    4183:	85 c0                	test   %eax,%eax
    4185:	74 0c                	je     4193 <fun_del_ref+0x43>
    4187:	83 ec 0c             	sub    $0xc,%esp
    418a:	50                   	push   %eax
    418b:	e8 90 bd 00 00       	call   ff20 <async_hangup@plt>
    4190:	83 c4 10             	add    $0x10,%esp
    4193:	8b 46 10             	mov    0x10(%esi),%eax
    4196:	85 c0                	test   %eax,%eax
    4198:	74 0c                	je     41a6 <fun_del_ref+0x56>
    419a:	83 ec 0c             	sub    $0xc,%esp
    419d:	50                   	push   %eax
    419e:	e8 ad c2 00 00       	call   10450 <free@plt>
    41a3:	83 c4 10             	add    $0x10,%esp
    41a6:	8b 46 0c             	mov    0xc(%esi),%eax
    41a9:	85 c0                	test   %eax,%eax
    41ab:	74 0c                	je     41b9 <fun_del_ref+0x69>
    41ad:	83 ec 0c             	sub    $0xc,%esp
    41b0:	50                   	push   %eax
    41b1:	e8 9a c2 00 00       	call   10450 <free@plt>
    41b6:	83 c4 10             	add    $0x10,%esp
    41b9:	83 ec 0c             	sub    $0xc,%esp
    41bc:	56                   	push   %esi
    41bd:	e8 8e c2 00 00       	call   10450 <free@plt>
    41c2:	83 c4 10             	add    $0x10,%esp
    41c5:	8d 65 f4             	lea    -0xc(%ebp),%esp
    41c8:	5b                   	pop    %ebx
    41c9:	5e                   	pop    %esi
    41ca:	5f                   	pop    %edi
    41cb:	5d                   	pop    %ebp
    41cc:	c3                   	ret    
    41cd:	8d 76 00             	lea    0x0(%esi),%esi
    41d0:	8b 58 1c             	mov    0x1c(%eax),%ebx
    41d3:	89 c7                	mov    %eax,%edi
    41d5:	8d 40 18             	lea    0x18(%eax),%eax
    41d8:	89 45 e4             	mov    %eax,-0x1c(%ebp)
    41db:	39 d8                	cmp    %ebx,%eax
    41dd:	74 49                	je     4228 <fun_del_ref+0xd8>
    41df:	90                   	nop
    41e0:	8b 0b                	mov    (%ebx),%ecx
    41e2:	85 c9                	test   %ecx,%ecx
    41e4:	74 0e                	je     41f4 <fun_del_ref+0xa4>
    41e6:	8b 53 04             	mov    0x4(%ebx),%edx
    41e9:	85 d2                	test   %edx,%edx
    41eb:	74 07                	je     41f4 <fun_del_ref+0xa4>
    41ed:	89 0a                	mov    %ecx,(%edx)
    41ef:	8b 0b                	mov    (%ebx),%ecx
    41f1:	89 51 04             	mov    %edx,0x4(%ecx)
    41f4:	8b 53 08             	mov    0x8(%ebx),%edx
    41f7:	c7 03 00 00 00 00    	movl   $0x0,(%ebx)
    41fd:	c7 43 04 00 00 00 00 	movl   $0x0,0x4(%ebx)
    4204:	85 d2                	test   %edx,%edx
    4206:	74 0c                	je     4214 <fun_del_ref+0xc4>
    4208:	83 ec 0c             	sub    $0xc,%esp
    420b:	52                   	push   %edx
    420c:	e8 3f c2 00 00       	call   10450 <free@plt>
    4211:	83 c4 10             	add    $0x10,%esp
    4214:	83 ec 0c             	sub    $0xc,%esp
    4217:	53                   	push   %ebx
    4218:	e8 33 c2 00 00       	call   10450 <free@plt>
    421d:	8b 5f 1c             	mov    0x1c(%edi),%ebx
    4220:	83 c4 10             	add    $0x10,%esp
    4223:	3b 5d e4             	cmp    -0x1c(%ebp),%ebx
    4226:	75 b8                	jne    41e0 <fun_del_ref+0x90>
    4228:	8b 57 20             	mov    0x20(%edi),%edx
    422b:	85 d2                	test   %edx,%edx
    422d:	74 0c                	je     423b <fun_del_ref+0xeb>
    422f:	83 ec 0c             	sub    $0xc,%esp
    4232:	52                   	push   %edx
    4233:	e8 18 c2 00 00       	call   10450 <free@plt>
    4238:	83 c4 10             	add    $0x10,%esp
    423b:	8b 57 14             	mov    0x14(%edi),%edx
    423e:	85 d2                	test   %edx,%edx
    4240:	74 0c                	je     424e <fun_del_ref+0xfe>
    4242:	83 ec 0c             	sub    $0xc,%esp
    4245:	52                   	push   %edx
    4246:	e8 05 c2 00 00       	call   10450 <free@plt>
    424b:	83 c4 10             	add    $0x10,%esp
    424e:	83 ec 0c             	sub    $0xc,%esp
    4251:	57                   	push   %edi
    4252:	e8 f9 c1 00 00       	call   10450 <free@plt>
    4257:	83 c4 10             	add    $0x10,%esp
    425a:	e9 08 ff ff ff       	jmp    4167 <fun_del_ref+0x17>
    425f:	90                   	nop

00004260 <driver_connection_gen.constprop.7>:
    4260:	55                   	push   %ebp
    4261:	89 e5                	mov    %esp,%ebp
    4263:	57                   	push   %edi
    4264:	56                   	push   %esi
    4265:	53                   	push   %ebx
    4266:	83 ec 58             	sub    $0x58,%esp
    4269:	89 d3                	mov    %edx,%ebx
    426b:	8b 72 08             	mov    0x8(%edx),%esi
    426e:	89 45 b4             	mov    %eax,-0x4c(%ebp)
    4271:	68 30 27 01 00       	push   $0x12730
    4276:	e8 f5 c1 00 00       	call   10470 <fibril_mutex_lock@plt>
    427b:	c7 04 24 30 27 01 00 	movl   $0x12730,(%esp)
    4282:	e8 f9 bc 00 00       	call   ff80 <fibril_mutex_is_locked@plt>
    4287:	83 c4 10             	add    $0x10,%esp
    428a:	84 c0                	test   %al,%al
    428c:	0f 84 71 02 00 00    	je     4503 <driver_connection_gen.constprop.7+0x2a3>
    4292:	a1 44 27 01 00       	mov    0x12744,%eax
    4297:	3d 40 27 01 00       	cmp    $0x12740,%eax
    429c:	8d 78 d4             	lea    -0x2c(%eax),%edi
    429f:	75 18                	jne    42b9 <driver_connection_gen.constprop.7+0x59>
    42a1:	e9 22 02 00 00       	jmp    44c8 <driver_connection_gen.constprop.7+0x268>
    42a6:	66 90                	xchg   %ax,%ax
    42a8:	8b 40 04             	mov    0x4(%eax),%eax
    42ab:	3d 40 27 01 00       	cmp    $0x12740,%eax
    42b0:	8d 78 d4             	lea    -0x2c(%eax),%edi
    42b3:	0f 84 0f 02 00 00    	je     44c8 <driver_connection_gen.constprop.7+0x268>
    42b9:	3b 77 04             	cmp    0x4(%edi),%esi
    42bc:	75 ea                	jne    42a8 <driver_connection_gen.constprop.7+0x48>
    42be:	8b 47 0c             	mov    0xc(%edi),%eax
    42c1:	f0 ff 40 04          	lock incl 0x4(%eax)
    42c5:	f0 ff 47 08          	lock incl 0x8(%edi)
    42c9:	83 ec 0c             	sub    $0xc,%esp
    42cc:	68 30 27 01 00       	push   $0x12730
    42d1:	e8 ca be 00 00       	call   101a0 <fibril_mutex_unlock@plt>
    42d6:	8b 47 28             	mov    0x28(%edi),%eax
    42d9:	83 c4 10             	add    $0x10,%esp
    42dc:	85 c0                	test   %eax,%eax
    42de:	74 20                	je     4300 <driver_connection_gen.constprop.7+0xa0>
    42e0:	8b 55 b4             	mov    -0x4c(%ebp),%edx
    42e3:	56                   	push   %esi
    42e4:	57                   	push   %edi
    42e5:	53                   	push   %ebx
    42e6:	52                   	push   %edx
    42e7:	ff d0                	call   *%eax
    42e9:	89 f8                	mov    %edi,%eax
    42eb:	e8 60 fe ff ff       	call   4150 <fun_del_ref>
    42f0:	83 c4 10             	add    $0x10,%esp
    42f3:	8d 65 f4             	lea    -0xc(%ebp),%esp
    42f6:	5b                   	pop    %ebx
    42f7:	5e                   	pop    %esi
    42f8:	5f                   	pop    %edi
    42f9:	5d                   	pop    %ebp
    42fa:	c3                   	ret    
    42fb:	90                   	nop
    42fc:	8d 74 26 00          	lea    0x0(%esi,%eiz,1),%esi
    4300:	8b 47 24             	mov    0x24(%edi),%eax
    4303:	85 c0                	test   %eax,%eax
    4305:	0f 84 a5 01 00 00    	je     44b0 <driver_connection_gen.constprop.7+0x250>
    430b:	8b 00                	mov    (%eax),%eax
    430d:	85 c0                	test   %eax,%eax
    430f:	0f 84 9b 01 00 00    	je     44b0 <driver_connection_gen.constprop.7+0x250>
    4315:	83 ec 0c             	sub    $0xc,%esp
    4318:	57                   	push   %edi
    4319:	ff d0                	call   *%eax
    431b:	8b 4d b4             	mov    -0x4c(%ebp),%ecx
    431e:	89 c3                	mov    %eax,%ebx
    4320:	58                   	pop    %eax
    4321:	5a                   	pop    %edx
    4322:	53                   	push   %ebx
    4323:	51                   	push   %ecx
    4324:	e8 27 bd 00 00       	call   10050 <async_answer_0@plt>
    4329:	83 c4 10             	add    $0x10,%esp
    432c:	85 db                	test   %ebx,%ebx
    432e:	0f 85 70 01 00 00    	jne    44a4 <driver_connection_gen.constprop.7+0x244>
    4334:	8d 74 26 00          	lea    0x0(%esi,%eiz,1),%esi
    4338:	50                   	push   %eax
    4339:	50                   	push   %eax
    433a:	8d 45 c4             	lea    -0x3c(%ebp),%eax
    433d:	6a 00                	push   $0x0
    433f:	50                   	push   %eax
    4340:	e8 cb bf 00 00       	call   10310 <async_get_call_timeout@plt>
    4345:	8b 5d c4             	mov    -0x3c(%ebp),%ebx
    4348:	83 c4 10             	add    $0x10,%esp
    434b:	89 45 b4             	mov    %eax,-0x4c(%ebp)
    434e:	85 db                	test   %ebx,%ebx
    4350:	0f 84 e2 00 00 00    	je     4438 <driver_connection_gen.constprop.7+0x1d8>
    4356:	83 ec 0c             	sub    $0xc,%esp
    4359:	81 eb 00 04 00 00    	sub    $0x400,%ebx
    435f:	53                   	push   %ebx
    4360:	e8 cb 0f 00 00       	call   5330 <is_valid_iface_idx>
    4365:	83 c4 10             	add    $0x10,%esp
    4368:	84 c0                	test   %al,%al
    436a:	75 2c                	jne    4398 <driver_connection_gen.constprop.7+0x138>
    436c:	8b 47 24             	mov    0x24(%edi),%eax
    436f:	85 c0                	test   %eax,%eax
    4371:	0f 84 91 00 00 00    	je     4408 <driver_connection_gen.constprop.7+0x1a8>
    4377:	8b 40 44             	mov    0x44(%eax),%eax
    437a:	85 c0                	test   %eax,%eax
    437c:	0f 84 86 00 00 00    	je     4408 <driver_connection_gen.constprop.7+0x1a8>
    4382:	8d 4d c4             	lea    -0x3c(%ebp),%ecx
    4385:	52                   	push   %edx
    4386:	51                   	push   %ecx
    4387:	8b 4d b4             	mov    -0x4c(%ebp),%ecx
    438a:	51                   	push   %ecx
    438b:	57                   	push   %edi
    438c:	ff d0                	call   *%eax
    438e:	83 c4 10             	add    $0x10,%esp
    4391:	eb a5                	jmp    4338 <driver_connection_gen.constprop.7+0xd8>
    4393:	90                   	nop
    4394:	8d 74 26 00          	lea    0x0(%esi,%eiz,1),%esi
    4398:	83 ec 0c             	sub    $0xc,%esp
    439b:	53                   	push   %ebx
    439c:	e8 8f 0f 00 00       	call   5330 <is_valid_iface_idx>
    43a1:	83 c4 10             	add    $0x10,%esp
    43a4:	84 c0                	test   %al,%al
    43a6:	0f 84 69 01 00 00    	je     4515 <driver_connection_gen.constprop.7+0x2b5>
    43ac:	8b 47 24             	mov    0x24(%edi),%eax
    43af:	85 c0                	test   %eax,%eax
    43b1:	0f 84 b9 00 00 00    	je     4470 <driver_connection_gen.constprop.7+0x210>
    43b7:	8b 44 98 08          	mov    0x8(%eax,%ebx,4),%eax
    43bb:	89 45 b0             	mov    %eax,-0x50(%ebp)
    43be:	85 c0                	test   %eax,%eax
    43c0:	0f 84 aa 00 00 00    	je     4470 <driver_connection_gen.constprop.7+0x210>
    43c6:	83 ec 0c             	sub    $0xc,%esp
    43c9:	53                   	push   %ebx
    43ca:	e8 11 0f 00 00       	call   52e0 <get_remote_iface>
    43cf:	83 c4 10             	add    $0x10,%esp
    43d2:	85 c0                	test   %eax,%eax
    43d4:	0f 84 50 01 00 00    	je     452a <driver_connection_gen.constprop.7+0x2ca>
    43da:	8b 4d c8             	mov    -0x38(%ebp),%ecx
    43dd:	52                   	push   %edx
    43de:	52                   	push   %edx
    43df:	51                   	push   %ecx
    43e0:	50                   	push   %eax
    43e1:	e8 2a 0f 00 00       	call   5310 <get_remote_method>
    43e6:	83 c4 10             	add    $0x10,%esp
    43e9:	85 c0                	test   %eax,%eax
    43eb:	0f 84 9f 00 00 00    	je     4490 <driver_connection_gen.constprop.7+0x230>
    43f1:	8d 55 c4             	lea    -0x3c(%ebp),%edx
    43f4:	8b 4d b0             	mov    -0x50(%ebp),%ecx
    43f7:	52                   	push   %edx
    43f8:	8b 55 b4             	mov    -0x4c(%ebp),%edx
    43fb:	52                   	push   %edx
    43fc:	51                   	push   %ecx
    43fd:	57                   	push   %edi
    43fe:	ff d0                	call   *%eax
    4400:	83 c4 10             	add    $0x10,%esp
    4403:	e9 30 ff ff ff       	jmp    4338 <driver_connection_gen.constprop.7+0xd8>
    4408:	50                   	push   %eax
    4409:	a1 f4 28 01 00       	mov    0x128f4,%eax
    440e:	53                   	push   %ebx
    440f:	8b 00                	mov    (%eax),%eax
    4411:	50                   	push   %eax
    4412:	68 cc e2 00 00       	push   $0xe2cc
    4417:	e8 f4 ba 00 00       	call   ff10 <printf@plt>
    441c:	5b                   	pop    %ebx
    441d:	58                   	pop    %eax
    441e:	8b 45 b4             	mov    -0x4c(%ebp),%eax
    4421:	6a f5                	push   $0xfffffff5
    4423:	50                   	push   %eax
    4424:	e8 27 bc 00 00       	call   10050 <async_answer_0@plt>
    4429:	83 c4 10             	add    $0x10,%esp
    442c:	e9 07 ff ff ff       	jmp    4338 <driver_connection_gen.constprop.7+0xd8>
    4431:	8d b4 26 00 00 00 00 	lea    0x0(%esi,%eiz,1),%esi
    4438:	8b 47 24             	mov    0x24(%edi),%eax
    443b:	85 c0                	test   %eax,%eax
    443d:	74 10                	je     444f <driver_connection_gen.constprop.7+0x1ef>
    443f:	8b 40 04             	mov    0x4(%eax),%eax
    4442:	85 c0                	test   %eax,%eax
    4444:	74 09                	je     444f <driver_connection_gen.constprop.7+0x1ef>
    4446:	83 ec 0c             	sub    $0xc,%esp
    4449:	57                   	push   %edi
    444a:	ff d0                	call   *%eax
    444c:	83 c4 10             	add    $0x10,%esp
    444f:	8b 75 b4             	mov    -0x4c(%ebp),%esi
    4452:	53                   	push   %ebx
    4453:	53                   	push   %ebx
    4454:	6a 00                	push   $0x0
    4456:	56                   	push   %esi
    4457:	e8 f4 bb 00 00       	call   10050 <async_answer_0@plt>
    445c:	89 f8                	mov    %edi,%eax
    445e:	e8 ed fc ff ff       	call   4150 <fun_del_ref>
    4463:	83 c4 10             	add    $0x10,%esp
    4466:	8d 65 f4             	lea    -0xc(%ebp),%esp
    4469:	5b                   	pop    %ebx
    446a:	5e                   	pop    %esi
    446b:	5f                   	pop    %edi
    446c:	5d                   	pop    %ebp
    446d:	c3                   	ret    
    446e:	66 90                	xchg   %ax,%ax
    4470:	50                   	push   %eax
    4471:	50                   	push   %eax
    4472:	a1 f4 28 01 00       	mov    0x128f4,%eax
    4477:	8b 00                	mov    (%eax),%eax
    4479:	50                   	push   %eax
    447a:	68 08 e3 00 00       	push   $0xe308
    447f:	e8 8c ba 00 00       	call   ff10 <printf@plt>
    4484:	83 c4 0c             	add    $0xc,%esp
    4487:	53                   	push   %ebx
    4488:	56                   	push   %esi
    4489:	68 2c e3 00 00       	push   $0xe32c
    448e:	eb 87                	jmp    4417 <driver_connection_gen.constprop.7+0x1b7>
    4490:	50                   	push   %eax
    4491:	50                   	push   %eax
    4492:	a1 f4 28 01 00       	mov    0x128f4,%eax
    4497:	8b 00                	mov    (%eax),%eax
    4499:	50                   	push   %eax
    449a:	68 64 e3 00 00       	push   $0xe364
    449f:	e9 73 ff ff ff       	jmp    4417 <driver_connection_gen.constprop.7+0x1b7>
    44a4:	89 f8                	mov    %edi,%eax
    44a6:	e8 a5 fc ff ff       	call   4150 <fun_del_ref>
    44ab:	e9 43 fe ff ff       	jmp    42f3 <driver_connection_gen.constprop.7+0x93>
    44b0:	8b 55 b4             	mov    -0x4c(%ebp),%edx
    44b3:	50                   	push   %eax
    44b4:	50                   	push   %eax
    44b5:	6a 00                	push   $0x0
    44b7:	52                   	push   %edx
    44b8:	e8 93 bb 00 00       	call   10050 <async_answer_0@plt>
    44bd:	83 c4 10             	add    $0x10,%esp
    44c0:	e9 73 fe ff ff       	jmp    4338 <driver_connection_gen.constprop.7+0xd8>
    44c5:	8d 76 00             	lea    0x0(%esi),%esi
    44c8:	83 ec 0c             	sub    $0xc,%esp
    44cb:	68 30 27 01 00       	push   $0x12730
    44d0:	e8 cb bc 00 00       	call   101a0 <fibril_mutex_unlock@plt>
    44d5:	a1 f4 28 01 00       	mov    0x128f4,%eax
    44da:	83 c4 0c             	add    $0xc,%esp
    44dd:	8b 08                	mov    (%eax),%ecx
    44df:	56                   	push   %esi
    44e0:	51                   	push   %ecx
    44e1:	68 a0 e3 00 00       	push   $0xe3a0
    44e6:	e8 25 ba 00 00       	call   ff10 <printf@plt>
    44eb:	8b 7d b4             	mov    -0x4c(%ebp),%edi
    44ee:	5b                   	pop    %ebx
    44ef:	5e                   	pop    %esi
    44f0:	6a ff                	push   $0xffffffff
    44f2:	57                   	push   %edi
    44f3:	e8 58 bb 00 00       	call   10050 <async_answer_0@plt>
    44f8:	83 c4 10             	add    $0x10,%esp
    44fb:	8d 65 f4             	lea    -0xc(%ebp),%esp
    44fe:	5b                   	pop    %ebx
    44ff:	5e                   	pop    %esi
    4500:	5f                   	pop    %edi
    4501:	5d                   	pop    %ebp
    4502:	c3                   	ret    
    4503:	51                   	push   %ecx
    4504:	6a 6b                	push   $0x6b
    4506:	68 47 e1 00 00       	push   $0xe147
    450b:	68 a0 e2 00 00       	push   $0xe2a0
    4510:	e8 ab bb 00 00       	call   100c0 <assert_abort@plt>
    4515:	50                   	push   %eax
    4516:	68 fb 02 00 00       	push   $0x2fb
    451b:	68 47 e1 00 00       	push   $0xe147
    4520:	68 58 e1 00 00       	push   $0xe158
    4525:	e8 96 bb 00 00       	call   100c0 <assert_abort@plt>
    452a:	53                   	push   %ebx
    452b:	68 aa 01 00 00       	push   $0x1aa
    4530:	68 47 e1 00 00       	push   $0xe147
    4535:	68 70 e1 00 00       	push   $0xe170
    453a:	e8 81 bb 00 00       	call   100c0 <assert_abort@plt>
    453f:	90                   	nop

00004540 <driver_connection_driver>:
    4540:	55                   	push   %ebp
    4541:	89 e5                	mov    %esp,%ebp
    4543:	8b 55 0c             	mov    0xc(%ebp),%edx
    4546:	8b 45 08             	mov    0x8(%ebp),%eax
    4549:	5d                   	pop    %ebp
    454a:	e9 11 fd ff ff       	jmp    4260 <driver_connection_gen.constprop.7>
    454f:	90                   	nop

00004550 <driver_connection_client>:
    4550:	55                   	push   %ebp
    4551:	89 e5                	mov    %esp,%ebp
    4553:	8b 55 0c             	mov    0xc(%ebp),%edx
    4556:	8b 45 08             	mov    0x8(%ebp),%eax
    4559:	5d                   	pop    %ebp
    455a:	e9 01 fd ff ff       	jmp    4260 <driver_connection_gen.constprop.7>
    455f:	90                   	nop

00004560 <driver_connection_devman>:
    4560:	55                   	push   %ebp
    4561:	89 e5                	mov    %esp,%ebp
    4563:	57                   	push   %edi
    4564:	56                   	push   %esi
    4565:	53                   	push   %ebx
    4566:	83 ec 54             	sub    $0x54,%esp
    4569:	8d 75 c4             	lea    -0x3c(%ebp),%esi
    456c:	8b 45 08             	mov    0x8(%ebp),%eax
    456f:	6a 00                	push   $0x0
    4571:	50                   	push   %eax
    4572:	e8 d9 ba 00 00       	call   10050 <async_answer_0@plt>
    4577:	83 c4 10             	add    $0x10,%esp
    457a:	8d b6 00 00 00 00    	lea    0x0(%esi),%esi
    4580:	50                   	push   %eax
    4581:	50                   	push   %eax
    4582:	6a 00                	push   $0x0
    4584:	56                   	push   %esi
    4585:	e8 86 bd 00 00       	call   10310 <async_get_call_timeout@plt>
    458a:	83 c4 10             	add    $0x10,%esp
    458d:	89 c3                	mov    %eax,%ebx
    458f:	8b 45 c4             	mov    -0x3c(%ebp),%eax
    4592:	85 c0                	test   %eax,%eax
    4594:	0f 84 de 03 00 00    	je     4978 <driver_connection_devman+0x418>
    459a:	2d 00 04 00 00       	sub    $0x400,%eax
    459f:	83 f8 04             	cmp    $0x4,%eax
    45a2:	0f 87 b8 03 00 00    	ja     4960 <driver_connection_devman+0x400>
    45a8:	8b 7d c8             	mov    -0x38(%ebp),%edi
    45ab:	ff 24 85 50 e4 00 00 	jmp    *0xe450(,%eax,4)
    45b2:	8d b6 00 00 00 00    	lea    0x0(%esi),%esi
    45b8:	83 ec 0c             	sub    $0xc,%esp
    45bb:	68 30 27 01 00       	push   $0x12730
    45c0:	e8 ab be 00 00       	call   10470 <fibril_mutex_lock@plt>
    45c5:	c7 04 24 30 27 01 00 	movl   $0x12730,(%esp)
    45cc:	e8 af b9 00 00       	call   ff80 <fibril_mutex_is_locked@plt>
    45d1:	83 c4 10             	add    $0x10,%esp
    45d4:	84 c0                	test   %al,%al
    45d6:	0f 84 5a 04 00 00    	je     4a36 <driver_connection_devman+0x4d6>
    45dc:	a1 44 27 01 00       	mov    0x12744,%eax
    45e1:	3d 40 27 01 00       	cmp    $0x12740,%eax
    45e6:	8d 50 d4             	lea    -0x2c(%eax),%edx
    45e9:	75 16                	jne    4601 <driver_connection_devman+0xa1>
    45eb:	e9 90 03 00 00       	jmp    4980 <driver_connection_devman+0x420>
    45f0:	8b 40 04             	mov    0x4(%eax),%eax
    45f3:	3d 40 27 01 00       	cmp    $0x12740,%eax
    45f8:	8d 50 d4             	lea    -0x2c(%eax),%edx
    45fb:	0f 84 7f 03 00 00    	je     4980 <driver_connection_devman+0x420>
    4601:	3b 7a 04             	cmp    0x4(%edx),%edi
    4604:	75 ea                	jne    45f0 <driver_connection_devman+0x90>
    4606:	8b 42 0c             	mov    0xc(%edx),%eax
    4609:	f0 ff 40 04          	lock incl 0x4(%eax)
    460d:	f0 ff 42 08          	lock incl 0x8(%edx)
    4611:	83 ec 0c             	sub    $0xc,%esp
    4614:	89 55 b4             	mov    %edx,-0x4c(%ebp)
    4617:	68 30 27 01 00       	push   $0x12730
    461c:	e8 7f bb 00 00       	call   101a0 <fibril_mutex_unlock@plt>
    4621:	a1 f4 28 01 00       	mov    0x128f4,%eax
    4626:	83 c4 10             	add    $0x10,%esp
    4629:	8b 55 b4             	mov    -0x4c(%ebp),%edx
    462c:	8b 40 04             	mov    0x4(%eax),%eax
    462f:	8b 40 0c             	mov    0xc(%eax),%eax
    4632:	85 c0                	test   %eax,%eax
    4634:	0f 84 76 03 00 00    	je     49b0 <driver_connection_devman+0x450>
    463a:	83 ec 0c             	sub    $0xc,%esp
    463d:	52                   	push   %edx
    463e:	ff d0                	call   *%eax
    4640:	83 c4 10             	add    $0x10,%esp
    4643:	89 c7                	mov    %eax,%edi
    4645:	8b 55 b4             	mov    -0x4c(%ebp),%edx
    4648:	89 d0                	mov    %edx,%eax
    464a:	e8 01 fb ff ff       	call   4150 <fun_del_ref>
    464f:	51                   	push   %ecx
    4650:	51                   	push   %ecx
    4651:	57                   	push   %edi
    4652:	53                   	push   %ebx
    4653:	e8 f8 b9 00 00       	call   10050 <async_answer_0@plt>
    4658:	83 c4 10             	add    $0x10,%esp
    465b:	e9 20 ff ff ff       	jmp    4580 <driver_connection_devman+0x20>
    4660:	83 ec 0c             	sub    $0xc,%esp
    4663:	68 48 27 01 00       	push   $0x12748
    4668:	e8 03 be 00 00       	call   10470 <fibril_mutex_lock@plt>
    466d:	c7 04 24 48 27 01 00 	movl   $0x12748,(%esp)
    4674:	e8 07 b9 00 00       	call   ff80 <fibril_mutex_is_locked@plt>
    4679:	83 c4 10             	add    $0x10,%esp
    467c:	84 c0                	test   %al,%al
    467e:	0f 84 a0 03 00 00    	je     4a24 <driver_connection_devman+0x4c4>
    4684:	a1 5c 27 01 00       	mov    0x1275c,%eax
    4689:	3d 58 27 01 00       	cmp    $0x12758,%eax
    468e:	8d 50 ec             	lea    -0x14(%eax),%edx
    4691:	75 16                	jne    46a9 <driver_connection_devman+0x149>
    4693:	e9 08 03 00 00       	jmp    49a0 <driver_connection_devman+0x440>
    4698:	8b 40 04             	mov    0x4(%eax),%eax
    469b:	3d 58 27 01 00       	cmp    $0x12758,%eax
    46a0:	8d 50 ec             	lea    -0x14(%eax),%edx
    46a3:	0f 84 f7 02 00 00    	je     49a0 <driver_connection_devman+0x440>
    46a9:	3b 78 ec             	cmp    -0x14(%eax),%edi
    46ac:	75 ea                	jne    4698 <driver_connection_devman+0x138>
    46ae:	8d 7a 04             	lea    0x4(%edx),%edi
    46b1:	f0 ff 42 04          	lock incl 0x4(%edx)
    46b5:	83 ec 0c             	sub    $0xc,%esp
    46b8:	89 55 b4             	mov    %edx,-0x4c(%ebp)
    46bb:	68 48 27 01 00       	push   $0x12748
    46c0:	e8 db ba 00 00       	call   101a0 <fibril_mutex_unlock@plt>
    46c5:	a1 f4 28 01 00       	mov    0x128f4,%eax
    46ca:	83 c4 10             	add    $0x10,%esp
    46cd:	8b 40 04             	mov    0x4(%eax),%eax
    46d0:	8b 40 08             	mov    0x8(%eax),%eax
    46d3:	85 c0                	test   %eax,%eax
    46d5:	0f 85 88 00 00 00    	jne    4763 <driver_connection_devman+0x203>
    46db:	b8 f5 ff ff ff       	mov    $0xfffffff5,%eax
    46e0:	e9 63 02 00 00       	jmp    4948 <driver_connection_devman+0x3e8>
    46e5:	8d 76 00             	lea    0x0(%esi),%esi
    46e8:	83 ec 0c             	sub    $0xc,%esp
    46eb:	68 48 27 01 00       	push   $0x12748
    46f0:	e8 7b bd 00 00       	call   10470 <fibril_mutex_lock@plt>
    46f5:	c7 04 24 48 27 01 00 	movl   $0x12748,(%esp)
    46fc:	e8 7f b8 00 00       	call   ff80 <fibril_mutex_is_locked@plt>
    4701:	83 c4 10             	add    $0x10,%esp
    4704:	84 c0                	test   %al,%al
    4706:	0f 84 18 03 00 00    	je     4a24 <driver_connection_devman+0x4c4>
    470c:	a1 5c 27 01 00       	mov    0x1275c,%eax
    4711:	3d 58 27 01 00       	cmp    $0x12758,%eax
    4716:	8d 50 ec             	lea    -0x14(%eax),%edx
    4719:	75 16                	jne    4731 <driver_connection_devman+0x1d1>
    471b:	e9 80 02 00 00       	jmp    49a0 <driver_connection_devman+0x440>
    4720:	8b 40 04             	mov    0x4(%eax),%eax
    4723:	3d 58 27 01 00       	cmp    $0x12758,%eax
    4728:	8d 50 ec             	lea    -0x14(%eax),%edx
    472b:	0f 84 6f 02 00 00    	je     49a0 <driver_connection_devman+0x440>
    4731:	3b 78 ec             	cmp    -0x14(%eax),%edi
    4734:	75 ea                	jne    4720 <driver_connection_devman+0x1c0>
    4736:	8d 7a 04             	lea    0x4(%edx),%edi
    4739:	f0 ff 42 04          	lock incl 0x4(%edx)
    473d:	83 ec 0c             	sub    $0xc,%esp
    4740:	89 55 b4             	mov    %edx,-0x4c(%ebp)
    4743:	68 48 27 01 00       	push   $0x12748
    4748:	e8 53 ba 00 00       	call   101a0 <fibril_mutex_unlock@plt>
    474d:	a1 f4 28 01 00       	mov    0x128f4,%eax
    4752:	83 c4 10             	add    $0x10,%esp
    4755:	8b 40 04             	mov    0x4(%eax),%eax
    4758:	8b 40 04             	mov    0x4(%eax),%eax
    475b:	85 c0                	test   %eax,%eax
    475d:	0f 84 78 ff ff ff    	je     46db <driver_connection_devman+0x17b>
    4763:	83 ec 0c             	sub    $0xc,%esp
    4766:	8b 55 b4             	mov    -0x4c(%ebp),%edx
    4769:	52                   	push   %edx
    476a:	ff d0                	call   *%eax
    476c:	83 c4 10             	add    $0x10,%esp
    476f:	8b 55 b4             	mov    -0x4c(%ebp),%edx
    4772:	85 c0                	test   %eax,%eax
    4774:	0f 85 ce 01 00 00    	jne    4948 <driver_connection_devman+0x3e8>
    477a:	83 c9 ff             	or     $0xffffffff,%ecx
    477d:	f0 0f c1 0f          	lock xadd %ecx,(%edi)
