
fontviewer:     file format elf32-i386


Disassembly of section .init:

000010f4 <__entry>:
    10f4:	66 8c d0             	mov    %ss,%ax
    10f7:	8e d8                	mov    %eax,%ds
    10f9:	8e c0                	mov    %eax,%es
    10fb:	8e e0                	mov    %eax,%fs
    10fd:	b8 01 00 00 00       	mov    $0x1,%eax
    1102:	0f a2                	cpuid  
    1104:	0f ba e2 0b          	bt     $0xb,%edx
    1108:	73 0c                	jae    1116 <__entry+0x22>
    110a:	8d 05 20 50 01 00    	lea    0x15020,%eax
    1110:	c7 00 20 81 00 00    	movl   $0x8120,(%eax)
    1116:	6a 00                	push   $0x0
    1118:	6a 00                	push   $0x0
    111a:	89 e5                	mov    %esp,%ebp
    111c:	57                   	push   %edi
    111d:	e8 5e 6d 00 00       	call   7e80 <__main@plt>

Disassembly of section .text:

00001130 <text.constprop.1>:
    1130:	55                   	push   %ebp
    1131:	89 e5                	mov    %esp,%ebp
    1133:	53                   	push   %ebx
    1134:	83 ec 28             	sub    $0x28,%esp
    1137:	8d 45 20             	lea    0x20(%ebp),%eax
    113a:	8b 5d 08             	mov    0x8(%ebp),%ebx
    113d:	50                   	push   %eax
    113e:	8b 45 1c             	mov    0x1c(%ebp),%eax
    1141:	50                   	push   %eax
    1142:	8d 45 f4             	lea    -0xc(%ebp),%eax
    1145:	50                   	push   %eax
    1146:	c7 45 f4 00 00 00 00 	movl   $0x0,-0xc(%ebp)
    114d:	e8 ee 6f 00 00       	call   8140 <vasprintf@plt>
    1152:	83 c4 10             	add    $0x10,%esp
    1155:	85 c0                	test   %eax,%eax
    1157:	7e 3d                	jle    1196 <text.constprop.1+0x66>
    1159:	8b 55 10             	mov    0x10(%ebp),%edx
    115c:	89 45 e4             	mov    %eax,-0x1c(%ebp)
    115f:	50                   	push   %eax
    1160:	50                   	push   %eax
    1161:	52                   	push   %edx
    1162:	53                   	push   %ebx
    1163:	e8 98 4a 00 00       	call   5c00 <drawctx_set_source>
    1168:	59                   	pop    %ecx
    1169:	58                   	pop    %eax
    116a:	8b 45 0c             	mov    0xc(%ebp),%eax
    116d:	50                   	push   %eax
    116e:	53                   	push   %ebx
    116f:	e8 9c 4a 00 00       	call   5c10 <drawctx_set_font>
    1174:	8b 45 18             	mov    0x18(%ebp),%eax
    1177:	50                   	push   %eax
    1178:	8b 45 f4             	mov    -0xc(%ebp),%eax
    117b:	6a 00                	push   $0x0
    117d:	50                   	push   %eax
    117e:	53                   	push   %ebx
    117f:	e8 0c 4d 00 00       	call   5e90 <drawctx_print>
    1184:	83 c4 14             	add    $0x14,%esp
    1187:	8b 45 f4             	mov    -0xc(%ebp),%eax
    118a:	50                   	push   %eax
    118b:	e8 d0 6f 00 00       	call   8160 <free@plt>
    1190:	83 c4 10             	add    $0x10,%esp
    1193:	8b 45 e4             	mov    -0x1c(%ebp),%eax
    1196:	8b 5d fc             	mov    -0x4(%ebp),%ebx
    1199:	c9                   	leave  
    119a:	c3                   	ret    
    119b:	90                   	nop
    119c:	8d 74 26 00          	lea    0x0(%esi,%eiz,1),%esi

000011a0 <draw>:
    11a0:	55                   	push   %ebp
    11a1:	89 e5                	mov    %esp,%ebp
    11a3:	57                   	push   %edi
    11a4:	56                   	push   %esi
    11a5:	53                   	push   %ebx
    11a6:	81 ec 28 04 00 00    	sub    $0x428,%esp
    11ac:	8d 5d 84             	lea    -0x7c(%ebp),%ebx
    11af:	89 de                	mov    %ebx,%esi
    11b1:	53                   	push   %ebx
    11b2:	e8 09 50 00 00       	call   61c0 <source_init>
    11b7:	5f                   	pop    %edi
    11b8:	8d bd 00 fc ff ff    	lea    -0x400(%ebp),%edi
    11be:	58                   	pop    %eax
    11bf:	6a ff                	push   $0xffffffff
    11c1:	53                   	push   %ebx
    11c2:	e8 89 50 00 00       	call   6250 <source_set_color>
    11c7:	b9 19 00 00 00       	mov    $0x19,%ecx
    11cc:	f3 a5                	rep movsl %ds:(%esi),%es:(%edi)
    11ce:	89 1c 24             	mov    %ebx,(%esp)
    11d1:	8d bd 64 fc ff ff    	lea    -0x39c(%ebp),%edi
    11d7:	e8 e4 4f 00 00       	call   61c0 <source_init>
    11dc:	89 de                	mov    %ebx,%esi
    11de:	58                   	pop    %eax
    11df:	5a                   	pop    %edx
    11e0:	68 00 00 00 ff       	push   $0xff000000
    11e5:	53                   	push   %ebx
    11e6:	e8 65 50 00 00       	call   6250 <source_set_color>
    11eb:	b9 19 00 00 00       	mov    $0x19,%ecx
    11f0:	f3 a5                	rep movsl %ds:(%esi),%es:(%edi)
    11f2:	89 1c 24             	mov    %ebx,(%esp)
    11f5:	8d bd c8 fc ff ff    	lea    -0x338(%ebp),%edi
    11fb:	e8 c0 4f 00 00       	call   61c0 <source_init>
    1200:	59                   	pop    %ecx
    1201:	5e                   	pop    %esi
    1202:	89 de                	mov    %ebx,%esi
    1204:	68 ff 00 00 ff       	push   $0xff0000ff
    1209:	53                   	push   %ebx
    120a:	e8 41 50 00 00       	call   6250 <source_set_color>
    120f:	b9 19 00 00 00       	mov    $0x19,%ecx
    1214:	f3 a5                	rep movsl %ds:(%esi),%es:(%edi)
    1216:	89 1c 24             	mov    %ebx,(%esp)
    1219:	89 de                	mov    %ebx,%esi
    121b:	e8 a0 4f 00 00       	call   61c0 <source_init>
    1220:	5f                   	pop    %edi
    1221:	8d bd 2c fd ff ff    	lea    -0x2d4(%ebp),%edi
    1227:	58                   	pop    %eax
    1228:	68 80 e6 ff ff       	push   $0xffffe680
    122d:	53                   	push   %ebx
    122e:	e8 1d 50 00 00       	call   6250 <source_set_color>
    1233:	b9 19 00 00 00       	mov    $0x19,%ecx
    1238:	f3 a5                	rep movsl %ds:(%esi),%es:(%edi)
    123a:	89 1c 24             	mov    %ebx,(%esp)
    123d:	8d bd 90 fd ff ff    	lea    -0x270(%ebp),%edi
    1243:	e8 78 4f 00 00       	call   61c0 <source_init>
    1248:	89 de                	mov    %ebx,%esi
    124a:	58                   	pop    %eax
    124b:	5a                   	pop    %edx
    124c:	68 55 99 ff ff       	push   $0xffff9955
    1251:	53                   	push   %ebx
    1252:	e8 f9 4f 00 00       	call   6250 <source_set_color>
    1257:	b9 19 00 00 00       	mov    $0x19,%ecx
    125c:	f3 a5                	rep movsl %ds:(%esi),%es:(%edi)
    125e:	89 1c 24             	mov    %ebx,(%esp)
    1261:	8d bd f4 fd ff ff    	lea    -0x20c(%ebp),%edi
    1267:	e8 54 4f 00 00       	call   61c0 <source_init>
    126c:	59                   	pop    %ecx
    126d:	5e                   	pop    %esi
    126e:	89 de                	mov    %ebx,%esi
    1270:	68 aa ff cc ff       	push   $0xffccffaa
    1275:	53                   	push   %ebx
    1276:	e8 d5 4f 00 00       	call   6250 <source_set_color>
    127b:	b9 19 00 00 00       	mov    $0x19,%ecx
    1280:	f3 a5                	rep movsl %ds:(%esi),%es:(%edi)
    1282:	89 1c 24             	mov    %ebx,(%esp)
    1285:	89 de                	mov    %ebx,%esi
    1287:	e8 34 4f 00 00       	call   61c0 <source_init>
    128c:	5f                   	pop    %edi
    128d:	8d bd 58 fe ff ff    	lea    -0x1a8(%ebp),%edi
    1293:	58                   	pop    %eax
    1294:	68 00 d4 55 ff       	push   $0xff55d400
    1299:	53                   	push   %ebx
    129a:	e8 b1 4f 00 00       	call   6250 <source_set_color>
    129f:	b9 19 00 00 00       	mov    $0x19,%ecx
    12a4:	f3 a5                	rep movsl %ds:(%esi),%es:(%edi)
    12a6:	89 1c 24             	mov    %ebx,(%esp)
    12a9:	8d bd bc fe ff ff    	lea    -0x144(%ebp),%edi
    12af:	e8 0c 4f 00 00       	call   61c0 <source_init>
    12b4:	89 de                	mov    %ebx,%esi
    12b6:	58                   	pop    %eax
    12b7:	5a                   	pop    %edx
    12b8:	68 ff ee aa ff       	push   $0xffaaeeff
    12bd:	53                   	push   %ebx
    12be:	e8 8d 4f 00 00       	call   6250 <source_set_color>
    12c3:	b9 19 00 00 00       	mov    $0x19,%ecx
    12c8:	f3 a5                	rep movsl %ds:(%esi),%es:(%edi)
    12ca:	89 1c 24             	mov    %ebx,(%esp)
    12cd:	8d bd 20 ff ff ff    	lea    -0xe0(%ebp),%edi
    12d3:	e8 e8 4e 00 00       	call   61c0 <source_init>
    12d8:	59                   	pop    %ecx
    12d9:	5e                   	pop    %esi
    12da:	89 de                	mov    %ebx,%esi
    12dc:	68 d4 aa 00 ff       	push   $0xff00aad4
    12e1:	53                   	push   %ebx
    12e2:	e8 69 4f 00 00       	call   6250 <source_set_color>
    12e7:	31 d2                	xor    %edx,%edx
    12e9:	b9 19 00 00 00       	mov    $0x19,%ecx
    12ee:	a1 28 50 01 00       	mov    0x15028,%eax
    12f3:	83 c4 10             	add    $0x10,%esp
    12f6:	66 8b 15 c2 99 00 00 	mov    0x99c2,%dx
    12fd:	f3 a5                	rep movsl %ds:(%esi),%es:(%edi)
    12ff:	85 c0                	test   %eax,%eax
    1301:	0f 84 39 02 00 00    	je     1540 <draw+0x3a0>
    1307:	51                   	push   %ecx
    1308:	52                   	push   %edx
    1309:	50                   	push   %eax
    130a:	8d 85 ec fb ff ff    	lea    -0x414(%ebp),%eax
    1310:	50                   	push   %eax
    1311:	e8 ba 38 00 00       	call   4bd0 <pcf_font_create>
    1316:	83 c4 10             	add    $0x10,%esp
    1319:	89 c6                	mov    %eax,%esi
    131b:	85 f6                	test   %esi,%esi
    131d:	75 61                	jne    1380 <draw+0x1e0>
    131f:	50                   	push   %eax
    1320:	50                   	push   %eax
    1321:	8d 85 f0 fb ff ff    	lea    -0x410(%ebp),%eax
    1327:	6a 10                	push   $0x10
    1329:	50                   	push   %eax
    132a:	e8 11 2a 00 00       	call   3d40 <embedded_font_create>
    132f:	83 c4 10             	add    $0x10,%esp
    1332:	89 c6                	mov    %eax,%esi
    1334:	85 c0                	test   %eax,%eax
    1336:	75 28                	jne    1360 <draw+0x1c0>
    1338:	50                   	push   %eax
    1339:	50                   	push   %eax
    133a:	8d 85 f4 fb ff ff    	lea    -0x40c(%ebp),%eax
    1340:	50                   	push   %eax
    1341:	8b 85 ec fb ff ff    	mov    -0x414(%ebp),%eax
    1347:	50                   	push   %eax
    1348:	e8 c3 4b 00 00       	call   5f10 <font_get_metrics>
    134d:	83 c4 10             	add    $0x10,%esp
    1350:	89 c6                	mov    %eax,%esi
    1352:	85 c0                	test   %eax,%eax
    1354:	74 4a                	je     13a0 <draw+0x200>
    1356:	8d 65 f4             	lea    -0xc(%ebp),%esp
    1359:	89 f0                	mov    %esi,%eax
    135b:	5b                   	pop    %ebx
    135c:	5e                   	pop    %esi
    135d:	5f                   	pop    %edi
    135e:	5d                   	pop    %ebp
    135f:	c3                   	ret    
    1360:	83 ec 0c             	sub    $0xc,%esp
    1363:	68 39 7b 00 00       	push   $0x7b39
    1368:	e8 63 6b 00 00       	call   7ed0 <printf@plt>
    136d:	83 c4 10             	add    $0x10,%esp
    1370:	8d 65 f4             	lea    -0xc(%ebp),%esp
    1373:	89 f0                	mov    %esi,%eax
    1375:	5b                   	pop    %ebx
    1376:	5e                   	pop    %esi
    1377:	5f                   	pop    %edi
    1378:	5d                   	pop    %ebp
    1379:	c3                   	ret    
    137a:	8d b6 00 00 00 00    	lea    0x0(%esi),%esi
    1380:	83 ec 0c             	sub    $0xc,%esp
    1383:	68 23 7b 00 00       	push   $0x7b23
    1388:	e8 43 6b 00 00       	call   7ed0 <printf@plt>
    138d:	83 c4 10             	add    $0x10,%esp
    1390:	8d 65 f4             	lea    -0xc(%ebp),%esp
    1393:	89 f0                	mov    %esi,%eax
    1395:	5b                   	pop    %ebx
    1396:	5e                   	pop    %esi
    1397:	5f                   	pop    %edi
    1398:	5d                   	pop    %ebp
    1399:	c3                   	ret    
    139a:	8d b6 00 00 00 00    	lea    0x0(%esi),%esi
    13a0:	8b bd f4 fb ff ff    	mov    -0x40c(%ebp),%edi
    13a6:	8b 8d f8 fb ff ff    	mov    -0x408(%ebp),%ecx
    13ac:	8b 95 fc fb ff ff    	mov    -0x404(%ebp),%edx
    13b2:	8d 47 32             	lea    0x32(%edi),%eax
    13b5:	89 85 e0 fb ff ff    	mov    %eax,-0x420(%ebp)
    13bb:	01 c8                	add    %ecx,%eax
    13bd:	89 85 e4 fb ff ff    	mov    %eax,-0x41c(%ebp)
    13c3:	01 d0                	add    %edx,%eax
    13c5:	89 85 dc fb ff ff    	mov    %eax,-0x424(%ebp)
    13cb:	a1 38 50 01 00       	mov    0x15038,%eax
    13d0:	51                   	push   %ecx
    13d1:	51                   	push   %ecx
    13d2:	50                   	push   %eax
    13d3:	53                   	push   %ebx
    13d4:	e8 57 46 00 00       	call   5a30 <drawctx_init>
    13d9:	58                   	pop    %eax
    13da:	8d 85 00 fc ff ff    	lea    -0x400(%ebp),%eax
    13e0:	5a                   	pop    %edx
    13e1:	50                   	push   %eax
    13e2:	53                   	push   %ebx
    13e3:	e8 18 48 00 00       	call   5c00 <drawctx_set_source>
    13e8:	a1 2c 50 01 00       	mov    0x1502c,%eax
    13ed:	59                   	pop    %ecx
    13ee:	50                   	push   %eax
    13ef:	a1 30 50 01 00       	mov    0x15030,%eax
    13f4:	50                   	push   %eax
    13f5:	6a 00                	push   $0x0
    13f7:	6a 00                	push   $0x0
    13f9:	53                   	push   %ebx
    13fa:	e8 21 48 00 00       	call   5c20 <drawctx_transfer>
    13ff:	83 c4 20             	add    $0x20,%esp
    1402:	80 3d c0 99 00 00 00 	cmpb   $0x0,0x99c0
    1409:	0f 84 d5 00 00 00    	je     14e4 <draw+0x344>
    140f:	8d 4f 31             	lea    0x31(%edi),%ecx
    1412:	a1 30 50 01 00       	mov    0x15030,%eax
    1417:	89 85 d8 fb ff ff    	mov    %eax,-0x428(%ebp)
    141d:	83 f9 31             	cmp    $0x31,%ecx
    1420:	0f 87 82 02 00 00    	ja     16a8 <draw+0x508>
    1426:	50                   	push   %eax
    1427:	50                   	push   %eax
    1428:	8d 85 90 fd ff ff    	lea    -0x270(%ebp),%eax
    142e:	50                   	push   %eax
    142f:	53                   	push   %ebx
    1430:	e8 cb 47 00 00       	call   5c00 <drawctx_set_source>
    1435:	8b bd d8 fb ff ff    	mov    -0x428(%ebp),%edi
    143b:	47                   	inc    %edi
    143c:	c7 04 24 01 00 00 00 	movl   $0x1,(%esp)
    1443:	57                   	push   %edi
    1444:	6a 32                	push   $0x32
    1446:	6a 00                	push   $0x0
    1448:	53                   	push   %ebx
    1449:	e8 d2 47 00 00       	call   5c20 <drawctx_transfer>
    144e:	8b 85 e4 fb ff ff    	mov    -0x41c(%ebp),%eax
    1454:	48                   	dec    %eax
    1455:	83 c4 20             	add    $0x20,%esp
    1458:	8b 3d 30 50 01 00    	mov    0x15030,%edi
    145e:	3b 85 e0 fb ff ff    	cmp    -0x420(%ebp),%eax
    1464:	0f 83 fe 01 00 00    	jae    1668 <draw+0x4c8>
    146a:	50                   	push   %eax
    146b:	50                   	push   %eax
    146c:	8d 85 58 fe ff ff    	lea    -0x1a8(%ebp),%eax
    1472:	47                   	inc    %edi
    1473:	50                   	push   %eax
    1474:	53                   	push   %ebx
    1475:	e8 86 47 00 00       	call   5c00 <drawctx_set_source>
    147a:	8b 85 e0 fb ff ff    	mov    -0x420(%ebp),%eax
    1480:	c7 04 24 01 00 00 00 	movl   $0x1,(%esp)
    1487:	57                   	push   %edi
    1488:	50                   	push   %eax
    1489:	6a 00                	push   $0x0
    148b:	53                   	push   %ebx
    148c:	e8 8f 47 00 00       	call   5c20 <drawctx_transfer>
    1491:	8b 85 dc fb ff ff    	mov    -0x424(%ebp),%eax
    1497:	83 c4 20             	add    $0x20,%esp
    149a:	8d 78 ff             	lea    -0x1(%eax),%edi
    149d:	a1 30 50 01 00       	mov    0x15030,%eax
    14a2:	89 85 e0 fb ff ff    	mov    %eax,-0x420(%ebp)
    14a8:	3b bd e4 fb ff ff    	cmp    -0x41c(%ebp),%edi
    14ae:	0f 83 6c 01 00 00    	jae    1620 <draw+0x480>
    14b4:	8d 85 20 ff ff ff    	lea    -0xe0(%ebp),%eax
    14ba:	57                   	push   %edi
    14bb:	57                   	push   %edi
    14bc:	50                   	push   %eax
    14bd:	53                   	push   %ebx
    14be:	e8 3d 47 00 00       	call   5c00 <drawctx_set_source>
    14c3:	8b 85 e0 fb ff ff    	mov    -0x420(%ebp),%eax
    14c9:	c7 04 24 01 00 00 00 	movl   $0x1,(%esp)
    14d0:	40                   	inc    %eax
    14d1:	50                   	push   %eax
    14d2:	8b 85 e4 fb ff ff    	mov    -0x41c(%ebp),%eax
    14d8:	50                   	push   %eax
    14d9:	6a 00                	push   $0x0
    14db:	53                   	push   %ebx
    14dc:	e8 3f 47 00 00       	call   5c20 <drawctx_transfer>
    14e1:	83 c4 20             	add    $0x20,%esp
    14e4:	50                   	push   %eax
    14e5:	50                   	push   %eax
    14e6:	8d 85 c8 fc ff ff    	lea    -0x338(%ebp),%eax
    14ec:	50                   	push   %eax
    14ed:	53                   	push   %ebx
    14ee:	e8 0d 47 00 00       	call   5c00 <drawctx_set_source>
    14f3:	8b 8d ec fb ff ff    	mov    -0x414(%ebp),%ecx
    14f9:	58                   	pop    %eax
    14fa:	5a                   	pop    %edx
    14fb:	51                   	push   %ecx
    14fc:	53                   	push   %ebx
    14fd:	e8 0e 47 00 00       	call   5c10 <drawctx_set_font>
    1502:	6a 32                	push   $0x32
    1504:	6a 00                	push   $0x0
    1506:	68 54 7b 00 00       	push   $0x7b54
    150b:	53                   	push   %ebx
    150c:	e8 7f 49 00 00       	call   5e90 <drawctx_print>
    1511:	83 c4 20             	add    $0x20,%esp
    1514:	80 3d c0 99 00 00 00 	cmpb   $0x0,0x99c0
    151b:	75 43                	jne    1560 <draw+0x3c0>
    151d:	83 ec 0c             	sub    $0xc,%esp
    1520:	8b 85 ec fb ff ff    	mov    -0x414(%ebp),%eax
    1526:	50                   	push   %eax
    1527:	e8 c4 49 00 00       	call   5ef0 <font_release>
    152c:	83 c4 10             	add    $0x10,%esp
    152f:	8d 65 f4             	lea    -0xc(%ebp),%esp
    1532:	89 f0                	mov    %esi,%eax
    1534:	5b                   	pop    %ebx
    1535:	5e                   	pop    %esi
    1536:	5f                   	pop    %edi
    1537:	5d                   	pop    %ebp
    1538:	c3                   	ret    
    1539:	8d b4 26 00 00 00 00 	lea    0x0(%esi,%eiz,1),%esi
    1540:	8d 85 ec fb ff ff    	lea    -0x414(%ebp),%eax
    1546:	56                   	push   %esi
    1547:	56                   	push   %esi
    1548:	52                   	push   %edx
    1549:	50                   	push   %eax
    154a:	e8 f1 27 00 00       	call   3d40 <embedded_font_create>
    154f:	83 c4 10             	add    $0x10,%esp
    1552:	89 c6                	mov    %eax,%esi
    1554:	e9 c2 fd ff ff       	jmp    131b <draw+0x17b>
    1559:	8d b4 26 00 00 00 00 	lea    0x0(%esi,%eiz,1),%esi
    1560:	8b bd dc fb ff ff    	mov    -0x424(%ebp),%edi
    1566:	8b 8d f4 fb ff ff    	mov    -0x40c(%ebp),%ecx
    156c:	89 f8                	mov    %edi,%eax
    156e:	52                   	push   %edx
    156f:	83 c0 0a             	add    $0xa,%eax
    1572:	51                   	push   %ecx
    1573:	68 5b 7b 00 00       	push   $0x7b5b
    1578:	50                   	push   %eax
    1579:	8d 85 90 fd ff ff    	lea    -0x270(%ebp),%eax
    157f:	6a 00                	push   $0x0
    1581:	50                   	push   %eax
    1582:	8b 85 f0 fb ff ff    	mov    -0x410(%ebp),%eax
    1588:	50                   	push   %eax
    1589:	53                   	push   %ebx
    158a:	e8 a1 fb ff ff       	call   1130 <text.constprop.1>
    158f:	83 c4 1c             	add    $0x1c,%esp
    1592:	8b 85 f8 fb ff ff    	mov    -0x408(%ebp),%eax
    1598:	50                   	push   %eax
    1599:	89 f8                	mov    %edi,%eax
    159b:	83 c0 1a             	add    $0x1a,%eax
    159e:	68 68 7b 00 00       	push   $0x7b68
    15a3:	50                   	push   %eax
    15a4:	8d 85 58 fe ff ff    	lea    -0x1a8(%ebp),%eax
    15aa:	6a 00                	push   $0x0
    15ac:	50                   	push   %eax
    15ad:	8b 85 f0 fb ff ff    	mov    -0x410(%ebp),%eax
    15b3:	50                   	push   %eax
    15b4:	53                   	push   %ebx
    15b5:	e8 76 fb ff ff       	call   1130 <text.constprop.1>
    15ba:	83 c4 1c             	add    $0x1c,%esp
    15bd:	8b 95 f4 fb ff ff    	mov    -0x40c(%ebp),%edx
    15c3:	8b 85 f8 fb ff ff    	mov    -0x408(%ebp),%eax
    15c9:	01 d0                	add    %edx,%eax
    15cb:	8b 8d f0 fb ff ff    	mov    -0x410(%ebp),%ecx
    15d1:	50                   	push   %eax
    15d2:	89 f8                	mov    %edi,%eax
    15d4:	83 c0 2a             	add    $0x2a,%eax
    15d7:	68 76 7b 00 00       	push   $0x7b76
    15dc:	50                   	push   %eax
    15dd:	8d 85 64 fc ff ff    	lea    -0x39c(%ebp),%eax
    15e3:	6a 00                	push   $0x0
    15e5:	50                   	push   %eax
    15e6:	51                   	push   %ecx
    15e7:	53                   	push   %ebx
    15e8:	e8 43 fb ff ff       	call   1130 <text.constprop.1>
    15ed:	83 c4 1c             	add    $0x1c,%esp
    15f0:	8b 85 fc fb ff ff    	mov    -0x404(%ebp),%eax
    15f6:	50                   	push   %eax
    15f7:	89 f8                	mov    %edi,%eax
    15f9:	83 c0 3a             	add    $0x3a,%eax
    15fc:	68 86 7b 00 00       	push   $0x7b86
    1601:	50                   	push   %eax
    1602:	8d 85 20 ff ff ff    	lea    -0xe0(%ebp),%eax
    1608:	6a 00                	push   $0x0
    160a:	50                   	push   %eax
    160b:	8b 85 f0 fb ff ff    	mov    -0x410(%ebp),%eax
    1611:	50                   	push   %eax
    1612:	53                   	push   %ebx
    1613:	e8 18 fb ff ff       	call   1130 <text.constprop.1>
    1618:	83 c4 20             	add    $0x20,%esp
    161b:	e9 fd fe ff ff       	jmp    151d <draw+0x37d>
    1620:	50                   	push   %eax
    1621:	50                   	push   %eax
    1622:	8d 85 bc fe ff ff    	lea    -0x144(%ebp),%eax
    1628:	50                   	push   %eax
    1629:	53                   	push   %ebx
    162a:	e8 d1 45 00 00       	call   5c00 <drawctx_set_source>
    162f:	8b 95 e4 fb ff ff    	mov    -0x41c(%ebp),%edx
    1635:	29 d7                	sub    %edx,%edi
    1637:	8d 47 01             	lea    0x1(%edi),%eax
    163a:	89 04 24             	mov    %eax,(%esp)
    163d:	8b 85 e0 fb ff ff    	mov    -0x420(%ebp),%eax
    1643:	40                   	inc    %eax
    1644:	50                   	push   %eax
    1645:	52                   	push   %edx
    1646:	6a 00                	push   $0x0
    1648:	53                   	push   %ebx
    1649:	e8 d2 45 00 00       	call   5c20 <drawctx_transfer>
    164e:	a1 30 50 01 00       	mov    0x15030,%eax
    1653:	89 85 e0 fb ff ff    	mov    %eax,-0x420(%ebp)
    1659:	83 c4 20             	add    $0x20,%esp
    165c:	e9 53 fe ff ff       	jmp    14b4 <draw+0x314>
    1661:	8d b4 26 00 00 00 00 	lea    0x0(%esi,%eiz,1),%esi
    1668:	89 85 d8 fb ff ff    	mov    %eax,-0x428(%ebp)
    166e:	50                   	push   %eax
    166f:	50                   	push   %eax
    1670:	8d 85 f4 fd ff ff    	lea    -0x20c(%ebp),%eax
    1676:	50                   	push   %eax
    1677:	53                   	push   %ebx
    1678:	e8 83 45 00 00       	call   5c00 <drawctx_set_source>
    167d:	8b 95 e0 fb ff ff    	mov    -0x420(%ebp),%edx
    1683:	8b 85 d8 fb ff ff    	mov    -0x428(%ebp),%eax
    1689:	47                   	inc    %edi
    168a:	29 d0                	sub    %edx,%eax
    168c:	40                   	inc    %eax
    168d:	89 04 24             	mov    %eax,(%esp)
    1690:	57                   	push   %edi
    1691:	52                   	push   %edx
    1692:	6a 00                	push   $0x0
    1694:	53                   	push   %ebx
    1695:	e8 86 45 00 00       	call   5c20 <drawctx_transfer>
    169a:	8b 3d 30 50 01 00    	mov    0x15030,%edi
    16a0:	83 c4 20             	add    $0x20,%esp
    16a3:	e9 c2 fd ff ff       	jmp    146a <draw+0x2ca>
    16a8:	8d 85 2c fd ff ff    	lea    -0x2d4(%ebp),%eax
    16ae:	52                   	push   %edx
    16af:	52                   	push   %edx
    16b0:	50                   	push   %eax
    16b1:	53                   	push   %ebx
    16b2:	e8 49 45 00 00       	call   5c00 <drawctx_set_source>
    16b7:	89 3c 24             	mov    %edi,(%esp)
    16ba:	8b bd d8 fb ff ff    	mov    -0x428(%ebp),%edi
    16c0:	47                   	inc    %edi
    16c1:	57                   	push   %edi
    16c2:	6a 32                	push   $0x32
    16c4:	6a 00                	push   $0x0
    16c6:	53                   	push   %ebx
    16c7:	e8 54 45 00 00       	call   5c20 <drawctx_transfer>
    16cc:	a1 30 50 01 00       	mov    0x15030,%eax
    16d1:	89 85 d8 fb ff ff    	mov    %eax,-0x428(%ebp)
    16d7:	83 c4 20             	add    $0x20,%esp
    16da:	e9 47 fd ff ff       	jmp    1426 <draw+0x286>
    16df:	90                   	nop

000016e0 <on_keyboard_event>:
    16e0:	55                   	push   %ebp
    16e1:	89 e5                	mov    %esp,%ebp
    16e3:	53                   	push   %ebx
    16e4:	51                   	push   %ecx
    16e5:	8b 45 0c             	mov    0xc(%ebp),%eax
    16e8:	8b 58 08             	mov    0x8(%eax),%ebx
    16eb:	85 db                	test   %ebx,%ebx
    16ed:	75 1e                	jne    170d <on_keyboard_event+0x2d>
    16ef:	8b 50 14             	mov    0x14(%eax),%edx
    16f2:	83 fa 71             	cmp    $0x71,%edx
    16f5:	0f 84 c3 00 00 00    	je     17be <on_keyboard_event+0xde>
    16fb:	8b 48 0c             	mov    0xc(%eax),%ecx
    16fe:	89 cb                	mov    %ecx,%ebx
    1700:	83 e3 fd             	and    $0xfffffffd,%ebx
    1703:	83 fb 54             	cmp    $0x54,%ebx
    1706:	74 30                	je     1738 <on_keyboard_event+0x58>
    1708:	83 fa 6d             	cmp    $0x6d,%edx
    170b:	74 54                	je     1761 <on_keyboard_event+0x81>
    170d:	e8 8e fa ff ff       	call   11a0 <draw>
    1712:	85 c0                	test   %eax,%eax
    1714:	0f 85 8b 00 00 00    	jne    17a5 <on_keyboard_event+0xc5>
    171a:	a1 38 50 01 00       	mov    0x15038,%eax
    171f:	8b 5d fc             	mov    -0x4(%ebp),%ebx
    1722:	89 45 0c             	mov    %eax,0xc(%ebp)
    1725:	a1 34 50 01 00       	mov    0x15034,%eax
    172a:	89 45 08             	mov    %eax,0x8(%ebp)
    172d:	c9                   	leave  
    172e:	e9 3d 06 00 00       	jmp    1d70 <update_canvas>
    1733:	90                   	nop
    1734:	8d 74 26 00          	lea    0x0(%esi,%eiz,1),%esi
    1738:	bb 01 00 00 00       	mov    $0x1,%ebx
    173d:	f6 40 10 03          	testb  $0x3,0x10(%eax)
    1741:	75 4d                	jne    1790 <on_keyboard_event+0xb0>
    1743:	83 f9 54             	cmp    $0x54,%ecx
    1746:	74 28                	je     1770 <on_keyboard_event+0x90>
    1748:	66 a1 c2 99 00 00    	mov    0x99c2,%ax
    174e:	66 39 c3             	cmp    %ax,%bx
    1751:	72 45                	jb     1798 <on_keyboard_event+0xb8>
    1753:	66 c7 05 c2 99 00 00 	movw   $0x1,0x99c2
    175a:	01 00 
    175c:	83 fa 6d             	cmp    $0x6d,%edx
    175f:	75 ac                	jne    170d <on_keyboard_event+0x2d>
    1761:	80 35 c0 99 00 00 01 	xorb   $0x1,0x99c0
    1768:	eb a3                	jmp    170d <on_keyboard_event+0x2d>
    176a:	8d b6 00 00 00 00    	lea    0x0(%esi),%esi
    1770:	66 03 1d c2 99 00 00 	add    0x99c2,%bx
    1777:	66 85 db             	test   %bx,%bx
    177a:	66 89 1d c2 99 00 00 	mov    %bx,0x99c2
    1781:	75 85                	jne    1708 <on_keyboard_event+0x28>
    1783:	66 c7 05 c2 99 00 00 	movw   $0x1,0x99c2
    178a:	01 00 
    178c:	eb ce                	jmp    175c <on_keyboard_event+0x7c>
    178e:	66 90                	xchg   %ax,%ax
    1790:	bb 0a 00 00 00       	mov    $0xa,%ebx
    1795:	eb ac                	jmp    1743 <on_keyboard_event+0x63>
    1797:	90                   	nop
    1798:	29 d8                	sub    %ebx,%eax
    179a:	66 a3 c2 99 00 00    	mov    %ax,0x99c2
    17a0:	e9 63 ff ff ff       	jmp    1708 <on_keyboard_event+0x28>
    17a5:	52                   	push   %edx
    17a6:	52                   	push   %edx
    17a7:	50                   	push   %eax
    17a8:	68 92 7b 00 00       	push   $0x7b92
    17ad:	e8 1e 67 00 00       	call   7ed0 <printf@plt>
    17b2:	c7 04 24 01 00 00 00 	movl   $0x1,(%esp)
    17b9:	e8 12 69 00 00       	call   80d0 <exit@plt>
    17be:	83 ec 0c             	sub    $0xc,%esp
    17c1:	6a 00                	push   $0x0
    17c3:	e8 08 69 00 00       	call   80d0 <exit@plt>
    17c8:	66 90                	xchg   %ax,%ax
    17ca:	66 90                	xchg   %ax,%ax
    17cc:	66 90                	xchg   %ax,%ax
    17ce:	66 90                	xchg   %ax,%ax

000017d0 <main>:
    17d0:	8d 4c 24 04          	lea    0x4(%esp),%ecx
    17d4:	83 e4 f0             	and    $0xfffffff0,%esp
    17d7:	ff 71 fc             	pushl  -0x4(%ecx)
    17da:	55                   	push   %ebp
    17db:	89 e5                	mov    %esp,%ebp
    17dd:	56                   	push   %esi
    17de:	53                   	push   %ebx
    17df:	51                   	push   %ecx
    17e0:	83 ec 0c             	sub    $0xc,%esp
    17e3:	8b 01                	mov    (%ecx),%eax
    17e5:	8b 51 04             	mov    0x4(%ecx),%edx
    17e8:	83 f8 01             	cmp    $0x1,%eax
    17eb:	0f 8e 72 01 00 00    	jle    1963 <main+0x193>
    17f1:	31 c9                	xor    %ecx,%ecx
    17f3:	83 f8 02             	cmp    $0x2,%eax
    17f6:	0f 85 84 00 00 00    	jne    1880 <main+0xb0>
    17fc:	68 a7 7b 00 00       	push   $0x7ba7
    1801:	6a 01                	push   $0x1
    1803:	6a 00                	push   $0x0
    1805:	89 0d 28 50 01 00    	mov    %ecx,0x15028
    180b:	8b 42 04             	mov    0x4(%edx),%eax
    180e:	50                   	push   %eax
    180f:	e8 2c 1c 00 00       	call   3440 <window_open>
    1814:	83 c4 10             	add    $0x10,%esp
    1817:	a3 3c 50 01 00       	mov    %eax,0x1503c
    181c:	85 c0                	test   %eax,%eax
    181e:	74 68                	je     1888 <main+0xb8>
    1820:	6a 00                	push   $0x0
    1822:	6a 00                	push   $0x0
    1824:	68 e0 01 00 00       	push   $0x1e0
    1829:	68 80 02 00 00       	push   $0x280
    182e:	e8 ed 4c 00 00       	call   6520 <surface_create>
    1833:	83 c4 10             	add    $0x10,%esp
    1836:	a3 38 50 01 00       	mov    %eax,0x15038
    183b:	85 c0                	test   %eax,%eax
    183d:	74 60                	je     189f <main+0xcf>
    183f:	c7 05 30 50 01 00 80 	movl   $0x280,0x15030
    1846:	02 00 00 
    1849:	c7 05 2c 50 01 00 e0 	movl   $0x1e0,0x1502c
    1850:	01 00 00 
    1853:	e8 48 f9 ff ff       	call   11a0 <draw>
    1858:	89 c3                	mov    %eax,%ebx
    185a:	85 c0                	test   %eax,%eax
    185c:	74 58                	je     18b6 <main+0xe6>
    185e:	50                   	push   %eax
    185f:	50                   	push   %eax
    1860:	53                   	push   %ebx
    1861:	68 92 7b 00 00       	push   $0x7b92
    1866:	bb 02 00 00 00       	mov    $0x2,%ebx
    186b:	e8 60 66 00 00       	call   7ed0 <printf@plt>
    1870:	83 c4 10             	add    $0x10,%esp
    1873:	8d 65 f4             	lea    -0xc(%ebp),%esp
    1876:	89 d8                	mov    %ebx,%eax
    1878:	59                   	pop    %ecx
    1879:	5b                   	pop    %ebx
    187a:	5e                   	pop    %esi
    187b:	5d                   	pop    %ebp
    187c:	8d 61 fc             	lea    -0x4(%ecx),%esp
    187f:	c3                   	ret    
    1880:	8b 4a 08             	mov    0x8(%edx),%ecx
    1883:	e9 74 ff ff ff       	jmp    17fc <main+0x2c>
    1888:	83 ec 0c             	sub    $0xc,%esp
    188b:	bb 02 00 00 00       	mov    $0x2,%ebx
    1890:	68 b2 7b 00 00       	push   $0x7bb2
    1895:	e8 36 66 00 00       	call   7ed0 <printf@plt>
    189a:	83 c4 10             	add    $0x10,%esp
    189d:	eb d4                	jmp    1873 <main+0xa3>
    189f:	83 ec 0c             	sub    $0xc,%esp
    18a2:	bb 02 00 00 00       	mov    $0x2,%ebx
    18a7:	68 cc 7b 00 00       	push   $0x7bcc
    18ac:	e8 1f 66 00 00       	call   7ed0 <printf@plt>
    18b1:	83 c4 10             	add    $0x10,%esp
    18b4:	eb bd                	jmp    1873 <main+0xa3>
    18b6:	83 ec 0c             	sub    $0xc,%esp
    18b9:	8b 35 38 50 01 00    	mov    0x15038,%esi
    18bf:	ff 35 3c 50 01 00    	pushl  0x1503c
    18c5:	e8 26 1e 00 00       	call   36f0 <window_root>
    18ca:	89 34 24             	mov    %esi,(%esp)
    18cd:	68 e0 01 00 00       	push   $0x1e0
    18d2:	68 80 02 00 00       	push   $0x280
    18d7:	6a 00                	push   $0x0
    18d9:	50                   	push   %eax
    18da:	e8 c1 04 00 00       	call   1da0 <create_canvas>
    18df:	83 c4 20             	add    $0x20,%esp
    18e2:	a3 34 50 01 00       	mov    %eax,0x15034
    18e7:	85 c0                	test   %eax,%eax
    18e9:	0f 84 8e 00 00 00    	je     197d <main+0x1ad>
    18ef:	83 c0 68             	add    $0x68,%eax
    18f2:	52                   	push   %edx
    18f3:	68 e0 16 00 00       	push   $0x16e0
    18f8:	6a 00                	push   $0x0
    18fa:	50                   	push   %eax
    18fb:	e8 30 05 00 00       	call   1e30 <sig_connect>
    1900:	59                   	pop    %ecx
    1901:	5e                   	pop    %esi
    1902:	68 c0 00 00 00       	push   $0xc0
    1907:	68 e0 01 00 00       	push   $0x1e0
    190c:	68 80 02 00 00       	push   $0x280
    1911:	68 c8 00 00 00       	push   $0xc8
    1916:	68 c8 00 00 00       	push   $0xc8
    191b:	ff 35 3c 50 01 00    	pushl  0x1503c
    1921:	e8 ca 1c 00 00       	call   35f0 <window_resize>
    1926:	83 c4 14             	add    $0x14,%esp
    1929:	ff 35 3c 50 01 00    	pushl  0x1503c
    192f:	e8 cc 1d 00 00       	call   3700 <window_exec>
    1934:	c7 04 24 00 00 00 00 	movl   $0x0,(%esp)
    193b:	e8 70 65 00 00       	call   7eb0 <task_retval@plt>
    1940:	83 c8 ff             	or     $0xffffffff,%eax
    1943:	f0 0f c1 05 24 50 01 	lock xadd %eax,0x15024
    194a:	00 
    194b:	83 c4 10             	add    $0x10,%esp
    194e:	48                   	dec    %eax
    194f:	78 46                	js     1997 <main+0x1c7>
    1951:	83 ec 0c             	sub    $0xc,%esp
    1954:	6a 03                	push   $0x3
    1956:	e8 a5 67 00 00       	call   8100 <fibril_switch@plt>
    195b:	83 c4 10             	add    $0x10,%esp
    195e:	e9 10 ff ff ff       	jmp    1873 <main+0xa3>
    1963:	83 ec 0c             	sub    $0xc,%esp
    1966:	bb 01 00 00 00       	mov    $0x1,%ebx
    196b:	68 fc 7b 00 00       	push   $0x7bfc
    1970:	e8 5b 65 00 00       	call   7ed0 <printf@plt>
    1975:	83 c4 10             	add    $0x10,%esp
    1978:	e9 f6 fe ff ff       	jmp    1873 <main+0xa3>
    197d:	83 ec 0c             	sub    $0xc,%esp
    1980:	bb 02 00 00 00       	mov    $0x2,%ebx
    1985:	68 e4 7b 00 00       	push   $0x7be4
    198a:	e8 41 65 00 00       	call   7ed0 <printf@plt>
    198f:	83 c4 10             	add    $0x10,%esp
    1992:	e9 dc fe ff ff       	jmp    1873 <main+0xa3>
    1997:	50                   	push   %eax
    1998:	6a 0b                	push   $0xb
    199a:	6a 00                	push   $0x0
    199c:	6a 00                	push   $0x0
    199e:	6a 00                	push   $0x0
    19a0:	6a 00                	push   $0x0
    19a2:	6a 00                	push   $0x0
    19a4:	68 24 50 01 00       	push   $0x15024
    19a9:	ff 15 20 50 01 00    	call   *0x15020
    19af:	83 c4 20             	add    $0x20,%esp
    19b2:	eb 9d                	jmp    1951 <main+0x181>
    19b4:	66 90                	xchg   %ax,%ax
    19b6:	66 90                	xchg   %ax,%ax
    19b8:	66 90                	xchg   %ax,%ax
    19ba:	66 90                	xchg   %ax,%ax
    19bc:	66 90                	xchg   %ax,%ax
    19be:	66 90                	xchg   %ax,%ax

000019c0 <canvas_reconfigure>:
    19c0:	55                   	push   %ebp
    19c1:	89 e5                	mov    %esp,%ebp
    19c3:	5d                   	pop    %ebp
    19c4:	c3                   	ret    
    19c5:	8d 74 26 00          	lea    0x0(%esi,%eiz,1),%esi
    19c9:	8d bc 27 00 00 00 00 	lea    0x0(%edi,%eiz,1),%edi

000019d0 <canvas_handle_position_event>:
    19d0:	55                   	push   %ebp
    19d1:	89 e5                	mov    %esp,%ebp
    19d3:	83 ec 30             	sub    $0x30,%esp
    19d6:	8b 55 0c             	mov    0xc(%ebp),%edx
    19d9:	8b 45 08             	mov    0x8(%ebp),%eax
    19dc:	89 55 e4             	mov    %edx,-0x1c(%ebp)
    19df:	8b 55 10             	mov    0x10(%ebp),%edx
    19e2:	89 55 e8             	mov    %edx,-0x18(%ebp)
    19e5:	8b 55 14             	mov    0x14(%ebp),%edx
    19e8:	89 55 ec             	mov    %edx,-0x14(%ebp)
    19eb:	8b 55 18             	mov    0x18(%ebp),%edx
    19ee:	89 55 f0             	mov    %edx,-0x10(%ebp)
    19f1:	8b 55 1c             	mov    0x1c(%ebp),%edx
    19f4:	89 55 f4             	mov    %edx,-0xc(%ebp)
    19f7:	8b 4d f0             	mov    -0x10(%ebp),%ecx
    19fa:	8b 50 1c             	mov    0x1c(%eax),%edx
    19fd:	83 c0 6c             	add    $0x6c,%eax
    1a00:	29 d1                	sub    %edx,%ecx
    1a02:	8b 50 b4             	mov    -0x4c(%eax),%edx
    1a05:	89 4d f0             	mov    %ecx,-0x10(%ebp)
    1a08:	8b 4d f4             	mov    -0xc(%ebp),%ecx
    1a0b:	29 d1                	sub    %edx,%ecx
    1a0d:	8d 55 e4             	lea    -0x1c(%ebp),%edx
    1a10:	52                   	push   %edx
    1a11:	50                   	push   %eax
    1a12:	89 4d f4             	mov    %ecx,-0xc(%ebp)
    1a15:	e8 26 06 00 00       	call   2040 <sig_send>
    1a1a:	83 c4 10             	add    $0x10,%esp
    1a1d:	c9                   	leave  
    1a1e:	c3                   	ret    
    1a1f:	90                   	nop

00001a20 <canvas_handle_keyboard_event>:
    1a20:	55                   	push   %ebp
    1a21:	89 e5                	mov    %esp,%ebp
    1a23:	83 ec 10             	sub    $0x10,%esp
    1a26:	8d 45 0c             	lea    0xc(%ebp),%eax
    1a29:	50                   	push   %eax
    1a2a:	8b 45 08             	mov    0x8(%ebp),%eax
    1a2d:	83 c0 68             	add    $0x68,%eax
    1a30:	50                   	push   %eax
    1a31:	e8 0a 06 00 00       	call   2040 <sig_send>
    1a36:	83 c4 10             	add    $0x10,%esp
    1a39:	c9                   	leave  
    1a3a:	c3                   	ret    
    1a3b:	90                   	nop
    1a3c:	8d 74 26 00          	lea    0x0(%esi,%eiz,1),%esi

00001a40 <paint_internal>:
    1a40:	55                   	push   %ebp
    1a41:	89 e5                	mov    %esp,%ebp
    1a43:	57                   	push   %edi
    1a44:	56                   	push   %esi
    1a45:	53                   	push   %ebx
    1a46:	81 ec 28 01 00 00    	sub    $0x128,%esp
    1a4c:	89 c3                	mov    %eax,%ebx
    1a4e:	8b 70 14             	mov    0x14(%eax),%esi
    1a51:	56                   	push   %esi
    1a52:	e8 09 1d 00 00       	call   3760 <window_claim>
    1a57:	83 c4 10             	add    $0x10,%esp
    1a5a:	85 c0                	test   %eax,%eax
    1a5c:	0f 84 d6 00 00 00    	je     1b38 <paint_internal+0xf8>
    1a62:	83 ec 0c             	sub    $0xc,%esp
    1a65:	8d b5 3c ff ff ff    	lea    -0xc4(%ebp),%esi
    1a6b:	89 85 ec fe ff ff    	mov    %eax,-0x114(%ebp)
    1a71:	56                   	push   %esi
    1a72:	e8 79 5c 00 00       	call   76f0 <transform_identity>
    1a77:	8b 43 20             	mov    0x20(%ebx),%eax
    1a7a:	31 d2                	xor    %edx,%edx
    1a7c:	89 85 e0 fe ff ff    	mov    %eax,-0x120(%ebp)
    1a82:	89 95 e4 fe ff ff    	mov    %edx,-0x11c(%ebp)
    1a88:	83 ec 0c             	sub    $0xc,%esp
    1a8b:	31 d2                	xor    %edx,%edx
    1a8d:	df ad e0 fe ff ff    	fildll -0x120(%ebp)
    1a93:	8b 43 1c             	mov    0x1c(%ebx),%eax
    1a96:	89 95 e4 fe ff ff    	mov    %edx,-0x11c(%ebp)
    1a9c:	dd 5c 24 08          	fstpl  0x8(%esp)
    1aa0:	89 85 e0 fe ff ff    	mov    %eax,-0x120(%ebp)
    1aa6:	df ad e0 fe ff ff    	fildll -0x120(%ebp)
    1aac:	dd 1c 24             	fstpl  (%esp)
    1aaf:	56                   	push   %esi
    1ab0:	e8 6b 5c 00 00       	call   7720 <transform_translate>
    1ab5:	83 c4 14             	add    $0x14,%esp
    1ab8:	8d 45 84             	lea    -0x7c(%ebp),%eax
    1abb:	50                   	push   %eax
    1abc:	e8 ff 46 00 00       	call   61c0 <source_init>
    1ac1:	83 ec 3c             	sub    $0x3c,%esp
    1ac4:	b9 12 00 00 00       	mov    $0x12,%ecx
    1ac9:	89 e7                	mov    %esp,%edi
    1acb:	8d 45 84             	lea    -0x7c(%ebp),%eax
    1ace:	f3 a5                	rep movsl %ds:(%esi),%es:(%edi)
    1ad0:	50                   	push   %eax
    1ad1:	e8 3a 47 00 00       	call   6210 <source_set_transform>
    1ad6:	83 c4 4c             	add    $0x4c,%esp
    1ad9:	8b 43 64             	mov    0x64(%ebx),%eax
    1adc:	8d b5 04 ff ff ff    	lea    -0xfc(%ebp),%esi
    1ae2:	6a 00                	push   $0x0
    1ae4:	50                   	push   %eax
    1ae5:	8d 45 84             	lea    -0x7c(%ebp),%eax
    1ae8:	50                   	push   %eax
    1ae9:	e8 72 47 00 00       	call   6260 <source_set_texture>
    1aee:	8b 85 ec fe ff ff    	mov    -0x114(%ebp),%eax
    1af4:	5a                   	pop    %edx
    1af5:	59                   	pop    %ecx
    1af6:	50                   	push   %eax
    1af7:	56                   	push   %esi
    1af8:	e8 33 3f 00 00       	call   5a30 <drawctx_init>
    1afd:	5f                   	pop    %edi
    1afe:	58                   	pop    %eax
    1aff:	8d 45 84             	lea    -0x7c(%ebp),%eax
    1b02:	50                   	push   %eax
    1b03:	56                   	push   %esi
    1b04:	e8 f7 40 00 00       	call   5c00 <drawctx_set_source>
    1b09:	58                   	pop    %eax
    1b0a:	8b 43 28             	mov    0x28(%ebx),%eax
    1b0d:	50                   	push   %eax
    1b0e:	8b 43 24             	mov    0x24(%ebx),%eax
    1b11:	50                   	push   %eax
    1b12:	8b 43 20             	mov    0x20(%ebx),%eax
    1b15:	50                   	push   %eax
    1b16:	8b 43 1c             	mov    0x1c(%ebx),%eax
    1b19:	50                   	push   %eax
    1b1a:	56                   	push   %esi
    1b1b:	e8 00 41 00 00       	call   5c20 <drawctx_transfer>
    1b20:	83 c4 14             	add    $0x14,%esp
    1b23:	8b 53 14             	mov    0x14(%ebx),%edx
    1b26:	52                   	push   %edx
    1b27:	e8 64 1c 00 00       	call   3790 <window_yield>
    1b2c:	83 c4 10             	add    $0x10,%esp
    1b2f:	8d 65 f4             	lea    -0xc(%ebp),%esp
    1b32:	5b                   	pop    %ebx
    1b33:	5e                   	pop    %esi
    1b34:	5f                   	pop    %edi
    1b35:	5d                   	pop    %ebp
    1b36:	c3                   	ret    
    1b37:	90                   	nop
    1b38:	83 ec 0c             	sub    $0xc,%esp
    1b3b:	8b 4b 14             	mov    0x14(%ebx),%ecx
    1b3e:	89 85 ec fe ff ff    	mov    %eax,-0x114(%ebp)
    1b44:	51                   	push   %ecx
    1b45:	e8 46 1c 00 00       	call   3790 <window_yield>
    1b4a:	83 c4 10             	add    $0x10,%esp
    1b4d:	8b 85 ec fe ff ff    	mov    -0x114(%ebp),%eax
    1b53:	e9 0a ff ff ff       	jmp    1a62 <paint_internal+0x22>
    1b58:	90                   	nop
    1b59:	8d b4 26 00 00 00 00 	lea    0x0(%esi,%eiz,1),%esi

00001b60 <canvas_rearrange>:
    1b60:	55                   	push   %ebp
    1b61:	89 e5                	mov    %esp,%ebp
    1b63:	53                   	push   %ebx
    1b64:	83 ec 10             	sub    $0x10,%esp
    1b67:	8b 5d 08             	mov    0x8(%ebp),%ebx
    1b6a:	8b 4d 10             	mov    0x10(%ebp),%ecx
    1b6d:	8b 43 60             	mov    0x60(%ebx),%eax
    1b70:	50                   	push   %eax
    1b71:	8b 45 0c             	mov    0xc(%ebp),%eax
    1b74:	8b 53 5c             	mov    0x5c(%ebx),%edx
    1b77:	52                   	push   %edx
    1b78:	51                   	push   %ecx
    1b79:	50                   	push   %eax
    1b7a:	53                   	push   %ebx
    1b7b:	e8 60 07 00 00       	call   22e0 <widget_modify>
    1b80:	83 c4 20             	add    $0x20,%esp
    1b83:	89 d8                	mov    %ebx,%eax
    1b85:	8b 5d fc             	mov    -0x4(%ebp),%ebx
    1b88:	c9                   	leave  
    1b89:	e9 b2 fe ff ff       	jmp    1a40 <paint_internal>
    1b8e:	66 90                	xchg   %ax,%ax

00001b90 <canvas_destroy>:
    1b90:	55                   	push   %ebp
    1b91:	89 e5                	mov    %esp,%ebp
    1b93:	53                   	push   %ebx
    1b94:	83 ec 10             	sub    $0x10,%esp
    1b97:	8b 5d 08             	mov    0x8(%ebp),%ebx
    1b9a:	53                   	push   %ebx
    1b9b:	e8 70 07 00 00       	call   2310 <widget_deinit>
    1ba0:	89 5d 08             	mov    %ebx,0x8(%ebp)
    1ba3:	83 c4 10             	add    $0x10,%esp
    1ba6:	8b 5d fc             	mov    -0x4(%ebp),%ebx
    1ba9:	c9                   	leave  
    1baa:	e9 b1 65 00 00       	jmp    8160 <free@plt>
    1baf:	90                   	nop

00001bb0 <canvas_repaint>:
    1bb0:	55                   	push   %ebp
    1bb1:	89 e5                	mov    %esp,%ebp
    1bb3:	57                   	push   %edi
    1bb4:	56                   	push   %esi
    1bb5:	53                   	push   %ebx
    1bb6:	81 ec 28 01 00 00    	sub    $0x128,%esp
    1bbc:	8b 5d 08             	mov    0x8(%ebp),%ebx
    1bbf:	8b 7b 14             	mov    0x14(%ebx),%edi
    1bc2:	57                   	push   %edi
    1bc3:	e8 98 1b 00 00       	call   3760 <window_claim>
    1bc8:	83 c4 10             	add    $0x10,%esp
    1bcb:	85 c0                	test   %eax,%eax
    1bcd:	0f 84 e5 00 00 00    	je     1cb8 <canvas_repaint+0x108>
    1bd3:	83 ec 0c             	sub    $0xc,%esp
    1bd6:	8d b5 3c ff ff ff    	lea    -0xc4(%ebp),%esi
    1bdc:	89 85 ec fe ff ff    	mov    %eax,-0x114(%ebp)
    1be2:	56                   	push   %esi
    1be3:	e8 08 5b 00 00       	call   76f0 <transform_identity>
    1be8:	8b 43 20             	mov    0x20(%ebx),%eax
    1beb:	31 d2                	xor    %edx,%edx
    1bed:	89 85 e0 fe ff ff    	mov    %eax,-0x120(%ebp)
    1bf3:	89 95 e4 fe ff ff    	mov    %edx,-0x11c(%ebp)
    1bf9:	83 ec 0c             	sub    $0xc,%esp
    1bfc:	8b 43 1c             	mov    0x1c(%ebx),%eax
    1bff:	df ad e0 fe ff ff    	fildll -0x120(%ebp)
    1c05:	31 d2                	xor    %edx,%edx
    1c07:	89 85 e0 fe ff ff    	mov    %eax,-0x120(%ebp)
    1c0d:	dd 5c 24 08          	fstpl  0x8(%esp)
    1c11:	89 95 e4 fe ff ff    	mov    %edx,-0x11c(%ebp)
    1c17:	df ad e0 fe ff ff    	fildll -0x120(%ebp)
    1c1d:	dd 1c 24             	fstpl  (%esp)
    1c20:	56                   	push   %esi
    1c21:	e8 fa 5a 00 00       	call   7720 <transform_translate>
    1c26:	83 c4 14             	add    $0x14,%esp
    1c29:	8d 45 84             	lea    -0x7c(%ebp),%eax
    1c2c:	50                   	push   %eax
    1c2d:	e8 8e 45 00 00       	call   61c0 <source_init>
    1c32:	83 ec 3c             	sub    $0x3c,%esp
    1c35:	b9 12 00 00 00       	mov    $0x12,%ecx
    1c3a:	89 e7                	mov    %esp,%edi
    1c3c:	8d 45 84             	lea    -0x7c(%ebp),%eax
    1c3f:	f3 a5                	rep movsl %ds:(%esi),%es:(%edi)
    1c41:	50                   	push   %eax
    1c42:	e8 c9 45 00 00       	call   6210 <source_set_transform>
    1c47:	83 c4 4c             	add    $0x4c,%esp
    1c4a:	8b 43 64             	mov    0x64(%ebx),%eax
    1c4d:	8d b5 04 ff ff ff    	lea    -0xfc(%ebp),%esi
    1c53:	6a 00                	push   $0x0
    1c55:	50                   	push   %eax
    1c56:	8d 45 84             	lea    -0x7c(%ebp),%eax
    1c59:	50                   	push   %eax
    1c5a:	e8 01 46 00 00       	call   6260 <source_set_texture>
    1c5f:	8b 85 ec fe ff ff    	mov    -0x114(%ebp),%eax
    1c65:	5a                   	pop    %edx
    1c66:	59                   	pop    %ecx
    1c67:	50                   	push   %eax
    1c68:	56                   	push   %esi
    1c69:	e8 c2 3d 00 00       	call   5a30 <drawctx_init>
    1c6e:	5f                   	pop    %edi
    1c6f:	58                   	pop    %eax
    1c70:	8d 45 84             	lea    -0x7c(%ebp),%eax
    1c73:	50                   	push   %eax
    1c74:	56                   	push   %esi
    1c75:	e8 86 3f 00 00       	call   5c00 <drawctx_set_source>
    1c7a:	58                   	pop    %eax
    1c7b:	8b 43 28             	mov    0x28(%ebx),%eax
    1c7e:	50                   	push   %eax
    1c7f:	8b 43 24             	mov    0x24(%ebx),%eax
    1c82:	50                   	push   %eax
    1c83:	8b 43 20             	mov    0x20(%ebx),%eax
    1c86:	50                   	push   %eax
    1c87:	8b 43 1c             	mov    0x1c(%ebx),%eax
    1c8a:	50                   	push   %eax
    1c8b:	56                   	push   %esi
    1c8c:	e8 8f 3f 00 00       	call   5c20 <drawctx_transfer>
    1c91:	83 c4 14             	add    $0x14,%esp
    1c94:	8b 53 14             	mov    0x14(%ebx),%edx
    1c97:	52                   	push   %edx
    1c98:	e8 f3 1a 00 00       	call   3790 <window_yield>
    1c9d:	8b 5b 14             	mov    0x14(%ebx),%ebx
    1ca0:	59                   	pop    %ecx
    1ca1:	53                   	push   %ebx
    1ca2:	e8 09 1a 00 00       	call   36b0 <window_damage>
    1ca7:	83 c4 10             	add    $0x10,%esp
    1caa:	8d 65 f4             	lea    -0xc(%ebp),%esp
    1cad:	5b                   	pop    %ebx
    1cae:	5e                   	pop    %esi
    1caf:	5f                   	pop    %edi
    1cb0:	5d                   	pop    %ebp
    1cb1:	c3                   	ret    
    1cb2:	8d b6 00 00 00 00    	lea    0x0(%esi),%esi
    1cb8:	83 ec 0c             	sub    $0xc,%esp
    1cbb:	8b 73 14             	mov    0x14(%ebx),%esi
    1cbe:	89 85 ec fe ff ff    	mov    %eax,-0x114(%ebp)
    1cc4:	56                   	push   %esi
    1cc5:	e8 c6 1a 00 00       	call   3790 <window_yield>
    1cca:	83 c4 10             	add    $0x10,%esp
    1ccd:	8b 85 ec fe ff ff    	mov    -0x114(%ebp),%eax
    1cd3:	e9 fb fe ff ff       	jmp    1bd3 <canvas_repaint+0x23>
    1cd8:	90                   	nop
    1cd9:	8d b4 26 00 00 00 00 	lea    0x0(%esi,%eiz,1),%esi

00001ce0 <deinit_canvas>:
    1ce0:	55                   	push   %ebp
    1ce1:	89 e5                	mov    %esp,%ebp
    1ce3:	5d                   	pop    %ebp
    1ce4:	e9 27 06 00 00       	jmp    2310 <widget_deinit>
    1ce9:	8d b4 26 00 00 00 00 	lea    0x0(%esi,%eiz,1),%esi

00001cf0 <init_canvas>:
    1cf0:	55                   	push   %ebp
    1cf1:	89 e5                	mov    %esp,%ebp
    1cf3:	57                   	push   %edi
    1cf4:	56                   	push   %esi
    1cf5:	53                   	push   %ebx
    1cf6:	83 ec 10             	sub    $0x10,%esp
    1cf9:	8b 5d 08             	mov    0x8(%ebp),%ebx
    1cfc:	8b 45 10             	mov    0x10(%ebp),%eax
    1cff:	8b 55 0c             	mov    0xc(%ebp),%edx
    1d02:	8b 7d 14             	mov    0x14(%ebp),%edi
    1d05:	8b 75 18             	mov    0x18(%ebp),%esi
    1d08:	50                   	push   %eax
    1d09:	52                   	push   %edx
    1d0a:	53                   	push   %ebx
    1d0b:	e8 30 05 00 00       	call   2240 <widget_init>
    1d10:	8b 45 1c             	mov    0x1c(%ebp),%eax
    1d13:	89 43 64             	mov    %eax,0x64(%ebx)
    1d16:	89 7b 24             	mov    %edi,0x24(%ebx)
    1d19:	89 73 28             	mov    %esi,0x28(%ebx)
    1d1c:	89 7b 2c             	mov    %edi,0x2c(%ebx)
    1d1f:	89 73 30             	mov    %esi,0x30(%ebx)
    1d22:	89 7b 34             	mov    %edi,0x34(%ebx)
    1d25:	89 73 38             	mov    %esi,0x38(%ebx)
    1d28:	89 7b 3c             	mov    %edi,0x3c(%ebx)
    1d2b:	89 73 40             	mov    %esi,0x40(%ebx)
    1d2e:	c7 43 44 90 1b 00 00 	movl   $0x1b90,0x44(%ebx)
    1d35:	c7 43 48 c0 19 00 00 	movl   $0x19c0,0x48(%ebx)
    1d3c:	c7 43 4c 60 1b 00 00 	movl   $0x1b60,0x4c(%ebx)
    1d43:	c7 43 50 b0 1b 00 00 	movl   $0x1bb0,0x50(%ebx)
    1d4a:	c7 43 54 20 1a 00 00 	movl   $0x1a20,0x54(%ebx)
    1d51:	c7 43 58 d0 19 00 00 	movl   $0x19d0,0x58(%ebx)
    1d58:	89 7b 5c             	mov    %edi,0x5c(%ebx)
    1d5b:	89 73 60             	mov    %esi,0x60(%ebx)
    1d5e:	8d 65 f4             	lea    -0xc(%ebp),%esp
    1d61:	b0 01                	mov    $0x1,%al
    1d63:	5b                   	pop    %ebx
    1d64:	5e                   	pop    %esi
    1d65:	5f                   	pop    %edi
    1d66:	5d                   	pop    %ebp
    1d67:	c3                   	ret    
    1d68:	90                   	nop
    1d69:	8d b4 26 00 00 00 00 	lea    0x0(%esi,%eiz,1),%esi

00001d70 <update_canvas>:
    1d70:	55                   	push   %ebp
    1d71:	89 e5                	mov    %esp,%ebp
    1d73:	53                   	push   %ebx
    1d74:	52                   	push   %edx
    1d75:	8b 45 0c             	mov    0xc(%ebp),%eax
    1d78:	8b 5d 08             	mov    0x8(%ebp),%ebx
    1d7b:	85 c0                	test   %eax,%eax
    1d7d:	74 03                	je     1d82 <update_canvas+0x12>
    1d7f:	89 43 64             	mov    %eax,0x64(%ebx)
    1d82:	89 d8                	mov    %ebx,%eax
    1d84:	e8 b7 fc ff ff       	call   1a40 <paint_internal>
    1d89:	83 ec 0c             	sub    $0xc,%esp
    1d8c:	8b 43 14             	mov    0x14(%ebx),%eax
    1d8f:	50                   	push   %eax
    1d90:	e8 1b 19 00 00       	call   36b0 <window_damage>
    1d95:	b0 01                	mov    $0x1,%al
    1d97:	8b 5d fc             	mov    -0x4(%ebp),%ebx
    1d9a:	c9                   	leave  
    1d9b:	c3                   	ret    
    1d9c:	8d 74 26 00          	lea    0x0(%esi,%eiz,1),%esi

00001da0 <create_canvas>:
    1da0:	55                   	push   %ebp
    1da1:	89 e5                	mov    %esp,%ebp
    1da3:	56                   	push   %esi
    1da4:	53                   	push   %ebx
    1da5:	83 ec 1c             	sub    $0x1c,%esp
    1da8:	8b 75 10             	mov    0x10(%ebp),%esi
    1dab:	8b 5d 14             	mov    0x14(%ebp),%ebx
    1dae:	6a 70                	push   $0x70
    1db0:	e8 7b 61 00 00       	call   7f30 <malloc@plt>
    1db5:	83 c4 10             	add    $0x10,%esp
    1db8:	85 c0                	test   %eax,%eax
    1dba:	74 66                	je     1e22 <create_canvas+0x82>
    1dbc:	8b 4d 0c             	mov    0xc(%ebp),%ecx
    1dbf:	52                   	push   %edx
    1dc0:	8b 55 08             	mov    0x8(%ebp),%edx
    1dc3:	51                   	push   %ecx
    1dc4:	89 45 f4             	mov    %eax,-0xc(%ebp)
    1dc7:	52                   	push   %edx
    1dc8:	50                   	push   %eax
    1dc9:	e8 72 04 00 00       	call   2240 <widget_init>
    1dce:	8b 45 f4             	mov    -0xc(%ebp),%eax
    1dd1:	8b 55 18             	mov    0x18(%ebp),%edx
    1dd4:	83 c4 10             	add    $0x10,%esp
    1dd7:	89 70 24             	mov    %esi,0x24(%eax)
    1dda:	89 58 28             	mov    %ebx,0x28(%eax)
    1ddd:	89 70 2c             	mov    %esi,0x2c(%eax)
    1de0:	89 58 30             	mov    %ebx,0x30(%eax)
    1de3:	89 70 34             	mov    %esi,0x34(%eax)
    1de6:	89 58 38             	mov    %ebx,0x38(%eax)
    1de9:	89 70 3c             	mov    %esi,0x3c(%eax)
    1dec:	89 58 40             	mov    %ebx,0x40(%eax)
    1def:	c7 40 44 90 1b 00 00 	movl   $0x1b90,0x44(%eax)
    1df6:	c7 40 48 c0 19 00 00 	movl   $0x19c0,0x48(%eax)
    1dfd:	c7 40 4c 60 1b 00 00 	movl   $0x1b60,0x4c(%eax)
    1e04:	c7 40 50 b0 1b 00 00 	movl   $0x1bb0,0x50(%eax)
    1e0b:	c7 40 54 20 1a 00 00 	movl   $0x1a20,0x54(%eax)
    1e12:	c7 40 58 d0 19 00 00 	movl   $0x19d0,0x58(%eax)
    1e19:	89 70 5c             	mov    %esi,0x5c(%eax)
    1e1c:	89 58 60             	mov    %ebx,0x60(%eax)
    1e1f:	89 50 64             	mov    %edx,0x64(%eax)
    1e22:	8d 65 f8             	lea    -0x8(%ebp),%esp
    1e25:	5b                   	pop    %ebx
    1e26:	5e                   	pop    %esi
    1e27:	5d                   	pop    %ebp
    1e28:	c3                   	ret    
    1e29:	66 90                	xchg   %ax,%ax
    1e2b:	66 90                	xchg   %ax,%ax
    1e2d:	66 90                	xchg   %ax,%ax
    1e2f:	90                   	nop

00001e30 <sig_connect>:
    1e30:	55                   	push   %ebp
    1e31:	89 e5                	mov    %esp,%ebp
    1e33:	57                   	push   %edi
    1e34:	56                   	push   %esi
    1e35:	53                   	push   %ebx
    1e36:	83 ec 28             	sub    $0x28,%esp
    1e39:	8b 5d 08             	mov    0x8(%ebp),%ebx
    1e3c:	8b 75 0c             	mov    0xc(%ebp),%esi
    1e3f:	68 cc 99 00 00       	push   $0x99cc
    1e44:	8b 7d 10             	mov    0x10(%ebp),%edi
    1e47:	e8 54 62 00 00       	call   80a0 <fibril_rwlock_write_lock@plt>
    1e4c:	a1 c8 99 00 00       	mov    0x99c8,%eax
    1e51:	83 c4 10             	add    $0x10,%esp
    1e54:	3d c4 99 00 00       	cmp    $0x99c4,%eax
    1e59:	74 20                	je     1e7b <sig_connect+0x4b>
    1e5b:	3b 58 08             	cmp    0x8(%eax),%ebx
    1e5e:	75 11                	jne    1e71 <sig_connect+0x41>
    1e60:	e9 9b 00 00 00       	jmp    1f00 <sig_connect+0xd0>
    1e65:	8d 76 00             	lea    0x0(%esi),%esi
    1e68:	39 58 08             	cmp    %ebx,0x8(%eax)
    1e6b:	0f 84 8f 00 00 00    	je     1f00 <sig_connect+0xd0>
    1e71:	8b 40 04             	mov    0x4(%eax),%eax
    1e74:	3d c4 99 00 00       	cmp    $0x99c4,%eax
    1e79:	75 ed                	jne    1e68 <sig_connect+0x38>
    1e7b:	83 ec 0c             	sub    $0xc,%esp
    1e7e:	6a 14                	push   $0x14
    1e80:	e8 ab 60 00 00       	call   7f30 <malloc@plt>
    1e85:	83 c4 10             	add    $0x10,%esp
    1e88:	89 45 e4             	mov    %eax,-0x1c(%ebp)
    1e8b:	85 c0                	test   %eax,%eax
    1e8d:	0f 84 a6 00 00 00    	je     1f39 <sig_connect+0x109>
    1e93:	89 58 08             	mov    %ebx,0x8(%eax)
    1e96:	8d 58 0c             	lea    0xc(%eax),%ebx
    1e99:	89 c1                	mov    %eax,%ecx
    1e9b:	89 58 10             	mov    %ebx,0x10(%eax)
    1e9e:	c7 40 04 c4 99 00 00 	movl   $0x99c4,0x4(%eax)
    1ea5:	89 58 0c             	mov    %ebx,0xc(%eax)
    1ea8:	a1 c4 99 00 00       	mov    0x99c4,%eax
    1ead:	89 0d c4 99 00 00    	mov    %ecx,0x99c4
    1eb3:	89 01                	mov    %eax,(%ecx)
    1eb5:	89 48 04             	mov    %ecx,0x4(%eax)
    1eb8:	89 c8                	mov    %ecx,%eax
    1eba:	8b 40 10             	mov    0x10(%eax),%eax
    1ebd:	39 c3                	cmp    %eax,%ebx
    1ebf:	75 5e                	jne    1f1f <sig_connect+0xef>
    1ec1:	8d b4 26 00 00 00 00 	lea    0x0(%esi,%eiz,1),%esi
    1ec8:	83 ec 0c             	sub    $0xc,%esp
    1ecb:	6a 10                	push   $0x10
    1ecd:	e8 5e 60 00 00       	call   7f30 <malloc@plt>
    1ed2:	83 c4 10             	add    $0x10,%esp
    1ed5:	85 c0                	test   %eax,%eax
    1ed7:	74 60                	je     1f39 <sig_connect+0x109>
    1ed9:	8b 4d e4             	mov    -0x1c(%ebp),%ecx
    1edc:	c7 00 00 00 00 00    	movl   $0x0,(%eax)
    1ee2:	89 70 08             	mov    %esi,0x8(%eax)
    1ee5:	89 78 0c             	mov    %edi,0xc(%eax)
    1ee8:	8b 51 0c             	mov    0xc(%ecx),%edx
    1eeb:	89 58 04             	mov    %ebx,0x4(%eax)
    1eee:	89 10                	mov    %edx,(%eax)
    1ef0:	8b 51 0c             	mov    0xc(%ecx),%edx
    1ef3:	89 42 04             	mov    %eax,0x4(%edx)
    1ef6:	89 41 0c             	mov    %eax,0xc(%ecx)
    1ef9:	eb 3e                	jmp    1f39 <sig_connect+0x109>
    1efb:	90                   	nop
    1efc:	8d 74 26 00          	lea    0x0(%esi,%eiz,1),%esi
    1f00:	89 45 e4             	mov    %eax,-0x1c(%ebp)
    1f03:	8d 58 0c             	lea    0xc(%eax),%ebx
    1f06:	8b 45 e4             	mov    -0x1c(%ebp),%eax
    1f09:	8b 40 10             	mov    0x10(%eax),%eax
    1f0c:	39 c3                	cmp    %eax,%ebx
    1f0e:	75 0f                	jne    1f1f <sig_connect+0xef>
    1f10:	eb b6                	jmp    1ec8 <sig_connect+0x98>
    1f12:	8d b6 00 00 00 00    	lea    0x0(%esi),%esi
    1f18:	8b 40 04             	mov    0x4(%eax),%eax
    1f1b:	39 c3                	cmp    %eax,%ebx
    1f1d:	74 a9                	je     1ec8 <sig_connect+0x98>
    1f1f:	39 70 08             	cmp    %esi,0x8(%eax)
    1f22:	75 f4                	jne    1f18 <sig_connect+0xe8>
    1f24:	39 78 0c             	cmp    %edi,0xc(%eax)
    1f27:	75 ef                	jne    1f18 <sig_connect+0xe8>
    1f29:	83 ec 0c             	sub    $0xc,%esp
    1f2c:	68 cc 99 00 00       	push   $0x99cc
    1f31:	e8 da 60 00 00       	call   8010 <fibril_rwlock_write_unlock@plt>
    1f36:	83 c4 10             	add    $0x10,%esp
    1f39:	c7 45 08 cc 99 00 00 	movl   $0x99cc,0x8(%ebp)
    1f40:	8d 65 f4             	lea    -0xc(%ebp),%esp
    1f43:	5b                   	pop    %ebx
    1f44:	5e                   	pop    %esi
    1f45:	5f                   	pop    %edi
    1f46:	5d                   	pop    %ebp
    1f47:	e9 c4 60 00 00       	jmp    8010 <fibril_rwlock_write_unlock@plt>
    1f4c:	8d 74 26 00          	lea    0x0(%esi,%eiz,1),%esi

00001f50 <sig_disconnect>:
    1f50:	55                   	push   %ebp
    1f51:	89 e5                	mov    %esp,%ebp
    1f53:	57                   	push   %edi
    1f54:	56                   	push   %esi
    1f55:	53                   	push   %ebx
    1f56:	83 ec 28             	sub    $0x28,%esp
    1f59:	8b 55 10             	mov    0x10(%ebp),%edx
    1f5c:	8b 75 08             	mov    0x8(%ebp),%esi
    1f5f:	68 cc 99 00 00       	push   $0x99cc
    1f64:	8b 7d 0c             	mov    0xc(%ebp),%edi
    1f67:	89 55 e4             	mov    %edx,-0x1c(%ebp)
    1f6a:	e8 31 61 00 00       	call   80a0 <fibril_rwlock_write_lock@plt>
    1f6f:	8b 1d c8 99 00 00    	mov    0x99c8,%ebx
    1f75:	83 c4 10             	add    $0x10,%esp
    1f78:	81 fb c4 99 00 00    	cmp    $0x99c4,%ebx
    1f7e:	74 20                	je     1fa0 <sig_disconnect+0x50>
    1f80:	3b 73 08             	cmp    0x8(%ebx),%esi
    1f83:	8b 55 e4             	mov    -0x1c(%ebp),%edx
    1f86:	75 0d                	jne    1f95 <sig_disconnect+0x45>
    1f88:	eb 2e                	jmp    1fb8 <sig_disconnect+0x68>
    1f8a:	8d b6 00 00 00 00    	lea    0x0(%esi),%esi
    1f90:	39 73 08             	cmp    %esi,0x8(%ebx)
    1f93:	74 23                	je     1fb8 <sig_disconnect+0x68>
    1f95:	8b 5b 04             	mov    0x4(%ebx),%ebx
    1f98:	81 fb c4 99 00 00    	cmp    $0x99c4,%ebx
    1f9e:	75 f0                	jne    1f90 <sig_disconnect+0x40>
    1fa0:	c7 45 08 cc 99 00 00 	movl   $0x99cc,0x8(%ebp)
    1fa7:	8d 65 f4             	lea    -0xc(%ebp),%esp
    1faa:	5b                   	pop    %ebx
    1fab:	5e                   	pop    %esi
    1fac:	5f                   	pop    %edi
    1fad:	5d                   	pop    %ebp
    1fae:	e9 5d 60 00 00       	jmp    8010 <fibril_rwlock_write_unlock@plt>
    1fb3:	90                   	nop
    1fb4:	8d 74 26 00          	lea    0x0(%esi,%eiz,1),%esi
    1fb8:	8b 43 10             	mov    0x10(%ebx),%eax
    1fbb:	8d 73 0c             	lea    0xc(%ebx),%esi
    1fbe:	39 f0                	cmp    %esi,%eax
    1fc0:	75 0d                	jne    1fcf <sig_disconnect+0x7f>
    1fc2:	eb dc                	jmp    1fa0 <sig_disconnect+0x50>
    1fc4:	8d 74 26 00          	lea    0x0(%esi,%eiz,1),%esi
    1fc8:	8b 40 04             	mov    0x4(%eax),%eax
    1fcb:	39 f0                	cmp    %esi,%eax
    1fcd:	74 d1                	je     1fa0 <sig_disconnect+0x50>
    1fcf:	39 78 08             	cmp    %edi,0x8(%eax)
    1fd2:	75 f4                	jne    1fc8 <sig_disconnect+0x78>
    1fd4:	39 50 0c             	cmp    %edx,0xc(%eax)
    1fd7:	75 ef                	jne    1fc8 <sig_disconnect+0x78>
    1fd9:	8b 10                	mov    (%eax),%edx
    1fdb:	85 d2                	test   %edx,%edx
    1fdd:	74 0e                	je     1fed <sig_disconnect+0x9d>
    1fdf:	8b 48 04             	mov    0x4(%eax),%ecx
    1fe2:	85 c9                	test   %ecx,%ecx
    1fe4:	74 07                	je     1fed <sig_disconnect+0x9d>
    1fe6:	89 11                	mov    %edx,(%ecx)
    1fe8:	8b 10                	mov    (%eax),%edx
    1fea:	89 4a 04             	mov    %ecx,0x4(%edx)
    1fed:	83 ec 0c             	sub    $0xc,%esp
    1ff0:	c7 00 00 00 00 00    	movl   $0x0,(%eax)
    1ff6:	c7 40 04 00 00 00 00 	movl   $0x0,0x4(%eax)
    1ffd:	50                   	push   %eax
    1ffe:	e8 5d 61 00 00       	call   8160 <free@plt>
    2003:	83 c4 10             	add    $0x10,%esp
    2006:	39 73 10             	cmp    %esi,0x10(%ebx)
    2009:	75 95                	jne    1fa0 <sig_disconnect+0x50>
    200b:	8b 13                	mov    (%ebx),%edx
    200d:	85 d2                	test   %edx,%edx
    200f:	74 0e                	je     201f <sig_disconnect+0xcf>
    2011:	8b 43 04             	mov    0x4(%ebx),%eax
    2014:	85 c0                	test   %eax,%eax
    2016:	74 07                	je     201f <sig_disconnect+0xcf>
    2018:	89 10                	mov    %edx,(%eax)
    201a:	8b 13                	mov    (%ebx),%edx
    201c:	89 42 04             	mov    %eax,0x4(%edx)
    201f:	83 ec 0c             	sub    $0xc,%esp
    2022:	c7 03 00 00 00 00    	movl   $0x0,(%ebx)
    2028:	c7 43 04 00 00 00 00 	movl   $0x0,0x4(%ebx)
    202f:	53                   	push   %ebx
    2030:	e8 2b 61 00 00       	call   8160 <free@plt>
    2035:	83 c4 10             	add    $0x10,%esp
    2038:	e9 63 ff ff ff       	jmp    1fa0 <sig_disconnect+0x50>
    203d:	8d 76 00             	lea    0x0(%esi),%esi

00002040 <sig_send>:
    2040:	55                   	push   %ebp
    2041:	89 e5                	mov    %esp,%ebp
    2043:	57                   	push   %edi
    2044:	56                   	push   %esi
    2045:	53                   	push   %ebx
    2046:	83 ec 18             	sub    $0x18,%esp
    2049:	8b 5d 08             	mov    0x8(%ebp),%ebx
    204c:	8b 75 0c             	mov    0xc(%ebp),%esi
    204f:	68 cc 99 00 00       	push   $0x99cc
    2054:	e8 d7 60 00 00       	call   8130 <fibril_rwlock_read_lock@plt>
    2059:	a1 c8 99 00 00       	mov    0x99c8,%eax
    205e:	83 c4 10             	add    $0x10,%esp
    2061:	3d c4 99 00 00       	cmp    $0x99c4,%eax
    2066:	74 17                	je     207f <sig_send+0x3f>
    2068:	3b 58 08             	cmp    0x8(%eax),%ebx
    206b:	75 08                	jne    2075 <sig_send+0x35>
    206d:	eb 29                	jmp    2098 <sig_send+0x58>
    206f:	90                   	nop
    2070:	39 58 08             	cmp    %ebx,0x8(%eax)
    2073:	74 23                	je     2098 <sig_send+0x58>
    2075:	8b 40 04             	mov    0x4(%eax),%eax
    2078:	3d c4 99 00 00       	cmp    $0x99c4,%eax
    207d:	75 f1                	jne    2070 <sig_send+0x30>
    207f:	c7 45 08 cc 99 00 00 	movl   $0x99cc,0x8(%ebp)
    2086:	8d 65 f4             	lea    -0xc(%ebp),%esp
    2089:	5b                   	pop    %ebx
    208a:	5e                   	pop    %esi
    208b:	5f                   	pop    %edi
    208c:	5d                   	pop    %ebp
    208d:	e9 5e 5e 00 00       	jmp    7ef0 <fibril_rwlock_read_unlock@plt>
    2092:	8d b6 00 00 00 00    	lea    0x0(%esi),%esi
    2098:	8b 78 10             	mov    0x10(%eax),%edi
    209b:	8d 58 0c             	lea    0xc(%eax),%ebx
    209e:	39 df                	cmp    %ebx,%edi
    20a0:	74 dd                	je     207f <sig_send+0x3f>
    20a2:	8d b6 00 00 00 00    	lea    0x0(%esi),%esi
    20a8:	50                   	push   %eax
    20a9:	50                   	push   %eax
    20aa:	56                   	push   %esi
    20ab:	8b 57 08             	mov    0x8(%edi),%edx
    20ae:	52                   	push   %edx
    20af:	ff 57 0c             	call   *0xc(%edi)
    20b2:	8b 7f 04             	mov    0x4(%edi),%edi
    20b5:	83 c4 10             	add    $0x10,%esp
    20b8:	39 df                	cmp    %ebx,%edi
    20ba:	75 ec                	jne    20a8 <sig_send+0x68>
    20bc:	eb c1                	jmp    207f <sig_send+0x3f>
    20be:	66 90                	xchg   %ax,%ax

000020c0 <sig_post>:
    20c0:	55                   	push   %ebp
    20c1:	89 e5                	mov    %esp,%ebp
    20c3:	57                   	push   %edi
    20c4:	56                   	push   %esi
    20c5:	53                   	push   %ebx
    20c6:	83 ec 28             	sub    $0x28,%esp
    20c9:	8b 45 0c             	mov    0xc(%ebp),%eax
    20cc:	8b 75 08             	mov    0x8(%ebp),%esi
    20cf:	68 cc 99 00 00       	push   $0x99cc
    20d4:	89 45 e0             	mov    %eax,-0x20(%ebp)
    20d7:	8b 7d 10             	mov    0x10(%ebp),%edi
    20da:	e8 51 60 00 00       	call   8130 <fibril_rwlock_read_lock@plt>
    20df:	8b 1d c8 99 00 00    	mov    0x99c8,%ebx
    20e5:	83 c4 10             	add    $0x10,%esp
    20e8:	81 fb c4 99 00 00    	cmp    $0x99c4,%ebx
    20ee:	74 18                	je     2108 <sig_post+0x48>
    20f0:	3b 73 08             	cmp    0x8(%ebx),%esi
    20f3:	75 08                	jne    20fd <sig_post+0x3d>
    20f5:	eb 29                	jmp    2120 <sig_post+0x60>
    20f7:	90                   	nop
    20f8:	39 73 08             	cmp    %esi,0x8(%ebx)
    20fb:	74 23                	je     2120 <sig_post+0x60>
    20fd:	8b 5b 04             	mov    0x4(%ebx),%ebx
    2100:	81 fb c4 99 00 00    	cmp    $0x99c4,%ebx
    2106:	75 f0                	jne    20f8 <sig_post+0x38>
    2108:	c7 45 08 cc 99 00 00 	movl   $0x99cc,0x8(%ebp)
    210f:	8d 65 f4             	lea    -0xc(%ebp),%esp
    2112:	5b                   	pop    %ebx
    2113:	5e                   	pop    %esi
    2114:	5f                   	pop    %edi
    2115:	5d                   	pop    %ebp
    2116:	e9 d5 5d 00 00       	jmp    7ef0 <fibril_rwlock_read_unlock@plt>
    211b:	90                   	nop
    211c:	8d 74 26 00          	lea    0x0(%esi,%eiz,1),%esi
    2120:	8b 73 10             	mov    0x10(%ebx),%esi
    2123:	83 c3 0c             	add    $0xc,%ebx
    2126:	39 de                	cmp    %ebx,%esi
    2128:	74 de                	je     2108 <sig_post+0x48>
    212a:	8b 45 e0             	mov    -0x20(%ebp),%eax
    212d:	85 c0                	test   %eax,%eax
    212f:	0f 84 a3 00 00 00    	je     21d8 <sig_post+0x118>
    2135:	89 5d e4             	mov    %ebx,-0x1c(%ebp)
    2138:	eb 3d                	jmp    2177 <sig_post+0xb7>
    213a:	8d b6 00 00 00 00    	lea    0x0(%esi),%esi
    2140:	8b 45 e0             	mov    -0x20(%ebp),%eax
    2143:	51                   	push   %ecx
    2144:	57                   	push   %edi
    2145:	50                   	push   %eax
    2146:	53                   	push   %ebx
    2147:	e8 d4 5d 00 00       	call   7f20 <memcpy@plt>
    214c:	c7 04 24 24 00 00 00 	movl   $0x24,(%esp)
    2153:	e8 d8 5d 00 00       	call   7f30 <malloc@plt>
    2158:	83 c4 10             	add    $0x10,%esp
    215b:	85 c0                	test   %eax,%eax
    215d:	0f 85 cd 00 00 00    	jne    2230 <sig_post+0x170>
    2163:	83 ec 0c             	sub    $0xc,%esp
    2166:	53                   	push   %ebx
    2167:	e8 f4 5f 00 00       	call   8160 <free@plt>
    216c:	83 c4 10             	add    $0x10,%esp
    216f:	8b 76 04             	mov    0x4(%esi),%esi
    2172:	3b 75 e4             	cmp    -0x1c(%ebp),%esi
    2175:	74 91                	je     2108 <sig_post+0x48>
    2177:	83 ec 0c             	sub    $0xc,%esp
    217a:	57                   	push   %edi
    217b:	e8 b0 5d 00 00       	call   7f30 <malloc@plt>
    2180:	83 c4 10             	add    $0x10,%esp
    2183:	89 c3                	mov    %eax,%ebx
    2185:	85 c0                	test   %eax,%eax
    2187:	75 b7                	jne    2140 <sig_post+0x80>
    2189:	83 ec 0c             	sub    $0xc,%esp
    218c:	6a 24                	push   $0x24
    218e:	e8 9d 5d 00 00       	call   7f30 <malloc@plt>
    2193:	83 c4 10             	add    $0x10,%esp
    2196:	31 d2                	xor    %edx,%edx
    2198:	85 c0                	test   %eax,%eax
    219a:	74 d3                	je     216f <sig_post+0xaf>
    219c:	8b 4e 08             	mov    0x8(%esi),%ecx
    219f:	c7 00 00 00 00 00    	movl   $0x0,(%eax)
    21a5:	89 48 0c             	mov    %ecx,0xc(%eax)
    21a8:	c7 40 04 00 00 00 00 	movl   $0x0,0x4(%eax)
    21af:	8b 5e 0c             	mov    0xc(%esi),%ebx
    21b2:	c7 40 08 02 00 00 00 	movl   $0x2,0x8(%eax)
    21b9:	89 50 14             	mov    %edx,0x14(%eax)
    21bc:	89 58 10             	mov    %ebx,0x10(%eax)
    21bf:	52                   	push   %edx
    21c0:	52                   	push   %edx
    21c1:	50                   	push   %eax
    21c2:	8b 41 14             	mov    0x14(%ecx),%eax
    21c5:	83 c0 10             	add    $0x10,%eax
    21c8:	50                   	push   %eax
    21c9:	e8 f2 5e 00 00       	call   80c0 <prodcons_produce@plt>
    21ce:	83 c4 10             	add    $0x10,%esp
    21d1:	eb 9c                	jmp    216f <sig_post+0xaf>
    21d3:	90                   	nop
    21d4:	8d 74 26 00          	lea    0x0(%esi,%eiz,1),%esi
    21d8:	83 ec 0c             	sub    $0xc,%esp
    21db:	6a 24                	push   $0x24
    21dd:	e8 4e 5d 00 00       	call   7f30 <malloc@plt>
    21e2:	83 c4 10             	add    $0x10,%esp
    21e5:	85 c0                	test   %eax,%eax
    21e7:	74 39                	je     2222 <sig_post+0x162>
    21e9:	8b 56 08             	mov    0x8(%esi),%edx
    21ec:	c7 00 00 00 00 00    	movl   $0x0,(%eax)
    21f2:	89 50 0c             	mov    %edx,0xc(%eax)
    21f5:	c7 40 04 00 00 00 00 	movl   $0x0,0x4(%eax)
    21fc:	8b 4e 0c             	mov    0xc(%esi),%ecx
    21ff:	c7 40 08 02 00 00 00 	movl   $0x2,0x8(%eax)
    2206:	89 48 10             	mov    %ecx,0x10(%eax)
    2209:	c7 40 14 00 00 00 00 	movl   $0x0,0x14(%eax)
    2210:	51                   	push   %ecx
    2211:	51                   	push   %ecx
    2212:	50                   	push   %eax
    2213:	8b 42 14             	mov    0x14(%edx),%eax
    2216:	83 c0 10             	add    $0x10,%eax
    2219:	50                   	push   %eax
    221a:	e8 a1 5e 00 00       	call   80c0 <prodcons_produce@plt>
    221f:	83 c4 10             	add    $0x10,%esp
    2222:	8b 76 04             	mov    0x4(%esi),%esi
    2225:	39 de                	cmp    %ebx,%esi
    2227:	75 af                	jne    21d8 <sig_post+0x118>
    2229:	e9 da fe ff ff       	jmp    2108 <sig_post+0x48>
    222e:	66 90                	xchg   %ax,%ax
    2230:	89 da                	mov    %ebx,%edx
    2232:	e9 65 ff ff ff       	jmp    219c <sig_post+0xdc>
    2237:	66 90                	xchg   %ax,%ax
    2239:	66 90                	xchg   %ax,%ax
    223b:	66 90                	xchg   %ax,%ax
    223d:	66 90                	xchg   %ax,%ax
    223f:	90                   	nop

00002240 <widget_init>:
    2240:	55                   	push   %ebp
    2241:	89 e5                	mov    %esp,%ebp
    2243:	8b 45 08             	mov    0x8(%ebp),%eax
    2246:	8b 55 0c             	mov    0xc(%ebp),%edx
    2249:	85 d2                	test   %edx,%edx
    224b:	8d 48 0c             	lea    0xc(%eax),%ecx
    224e:	c7 00 00 00 00 00    	movl   $0x0,(%eax)
    2254:	c7 40 04 00 00 00 00 	movl   $0x0,0x4(%eax)
    225b:	89 48 0c             	mov    %ecx,0xc(%eax)
    225e:	89 48 10             	mov    %ecx,0x10(%eax)
    2261:	74 6d                	je     22d0 <widget_init+0x90>
    2263:	8d 4a 0c             	lea    0xc(%edx),%ecx
    2266:	89 50 08             	mov    %edx,0x8(%eax)
    2269:	89 48 04             	mov    %ecx,0x4(%eax)
    226c:	8b 4a 0c             	mov    0xc(%edx),%ecx
    226f:	89 08                	mov    %ecx,(%eax)
    2271:	8b 4a 0c             	mov    0xc(%edx),%ecx
    2274:	89 41 04             	mov    %eax,0x4(%ecx)
    2277:	89 42 0c             	mov    %eax,0xc(%edx)
    227a:	8b 52 14             	mov    0x14(%edx),%edx
    227d:	89 50 14             	mov    %edx,0x14(%eax)
    2280:	8b 55 10             	mov    0x10(%ebp),%edx
    2283:	c7 40 1c 00 00 00 00 	movl   $0x0,0x1c(%eax)
    228a:	89 50 18             	mov    %edx,0x18(%eax)
    228d:	c7 40 20 00 00 00 00 	movl   $0x0,0x20(%eax)
    2294:	c7 40 24 00 00 00 00 	movl   $0x0,0x24(%eax)
    229b:	c7 40 28 00 00 00 00 	movl   $0x0,0x28(%eax)
    22a2:	c7 40 2c 00 00 00 00 	movl   $0x0,0x2c(%eax)
    22a9:	c7 40 30 00 00 00 00 	movl   $0x0,0x30(%eax)
    22b0:	c7 40 34 00 00 00 00 	movl   $0x0,0x34(%eax)
    22b7:	c7 40 38 00 00 00 00 	movl   $0x0,0x38(%eax)
    22be:	c7 40 3c ff ff ff ff 	movl   $0xffffffff,0x3c(%eax)
    22c5:	c7 40 40 ff ff ff ff 	movl   $0xffffffff,0x40(%eax)
    22cc:	5d                   	pop    %ebp
    22cd:	c3                   	ret    
    22ce:	66 90                	xchg   %ax,%ax
    22d0:	c7 40 08 00 00 00 00 	movl   $0x0,0x8(%eax)
    22d7:	c7 40 14 00 00 00 00 	movl   $0x0,0x14(%eax)
    22de:	eb a0                	jmp    2280 <widget_init+0x40>

000022e0 <widget_modify>:
    22e0:	55                   	push   %ebp
    22e1:	89 e5                	mov    %esp,%ebp
    22e3:	8b 45 08             	mov    0x8(%ebp),%eax
    22e6:	8b 55 0c             	mov    0xc(%ebp),%edx
    22e9:	89 50 1c             	mov    %edx,0x1c(%eax)
    22ec:	8b 55 10             	mov    0x10(%ebp),%edx
    22ef:	89 50 20             	mov    %edx,0x20(%eax)
    22f2:	8b 55 14             	mov    0x14(%ebp),%edx
    22f5:	89 50 24             	mov    %edx,0x24(%eax)
    22f8:	8b 55 18             	mov    0x18(%ebp),%edx
    22fb:	89 50 28             	mov    %edx,0x28(%eax)
    22fe:	5d                   	pop    %ebp
    22ff:	c3                   	ret    

00002300 <widget_get_data>:
    2300:	55                   	push   %ebp
    2301:	89 e5                	mov    %esp,%ebp
    2303:	8b 45 08             	mov    0x8(%ebp),%eax
    2306:	5d                   	pop    %ebp
    2307:	8b 40 18             	mov    0x18(%eax),%eax
    230a:	c3                   	ret    
    230b:	90                   	nop
    230c:	8d 74 26 00          	lea    0x0(%esi,%eiz,1),%esi

00002310 <widget_deinit>:
    2310:	55                   	push   %ebp
    2311:	89 e5                	mov    %esp,%ebp
    2313:	8b 45 08             	mov    0x8(%ebp),%eax
    2316:	8b 50 08             	mov    0x8(%eax),%edx
    2319:	85 d2                	test   %edx,%edx
    231b:	74 21                	je     233e <widget_deinit+0x2e>
    231d:	8b 08                	mov    (%eax),%ecx
    231f:	85 c9                	test   %ecx,%ecx
    2321:	74 0e                	je     2331 <widget_deinit+0x21>
    2323:	8b 50 04             	mov    0x4(%eax),%edx
    2326:	85 d2                	test   %edx,%edx
    2328:	74 07                	je     2331 <widget_deinit+0x21>
    232a:	89 0a                	mov    %ecx,(%edx)
    232c:	8b 08                	mov    (%eax),%ecx
    232e:	89 51 04             	mov    %edx,0x4(%ecx)
    2331:	c7 00 00 00 00 00    	movl   $0x0,(%eax)
    2337:	c7 40 04 00 00 00 00 	movl   $0x0,0x4(%eax)
    233e:	5d                   	pop    %ebp
    233f:	c3                   	ret    

00002340 <root_handle_keyboard_event>:
    2340:	55                   	push   %ebp
    2341:	89 e5                	mov    %esp,%ebp
    2343:	57                   	push   %edi
    2344:	56                   	push   %esi
    2345:	8b 45 08             	mov    0x8(%ebp),%eax
    2348:	83 c0 0c             	add    $0xc,%eax
    234b:	8b 50 04             	mov    0x4(%eax),%edx
    234e:	39 c2                	cmp    %eax,%edx
    2350:	74 1e                	je     2370 <root_handle_keyboard_event+0x30>
    2352:	8d 7d 0c             	lea    0xc(%ebp),%edi
    2355:	b9 06 00 00 00       	mov    $0x6,%ecx
    235a:	89 fe                	mov    %edi,%esi
    235c:	f3 a5                	rep movsl %ds:(%esi),%es:(%edi)
    235e:	89 55 08             	mov    %edx,0x8(%ebp)
    2361:	5e                   	pop    %esi
    2362:	8b 42 54             	mov    0x54(%edx),%eax
    2365:	5f                   	pop    %edi
    2366:	5d                   	pop    %ebp
    2367:	ff e0                	jmp    *%eax
    2369:	8d b4 26 00 00 00 00 	lea    0x0(%esi,%eiz,1),%esi
    2370:	5e                   	pop    %esi
    2371:	5f                   	pop    %edi
    2372:	5d                   	pop    %ebp
    2373:	c3                   	ret    
    2374:	8d b6 00 00 00 00    	lea    0x0(%esi),%esi
    237a:	8d bf 00 00 00 00    	lea    0x0(%edi),%edi

00002380 <root_handle_position_event>:
    2380:	55                   	push   %ebp
    2381:	89 e5                	mov    %esp,%ebp
    2383:	57                   	push   %edi
    2384:	56                   	push   %esi
    2385:	53                   	push   %ebx
    2386:	83 ec 3c             	sub    $0x3c,%esp
    2389:	8b 55 08             	mov    0x8(%ebp),%edx
    238c:	8b 45 0c             	mov    0xc(%ebp),%eax
    238f:	89 45 e4             	mov    %eax,-0x1c(%ebp)
    2392:	8b 45 10             	mov    0x10(%ebp),%eax
    2395:	8b 7a 14             	mov    0x14(%edx),%edi
    2398:	89 c1                	mov    %eax,%ecx
    239a:	89 45 d8             	mov    %eax,-0x28(%ebp)
    239d:	8b 45 14             	mov    0x14(%ebp),%eax
    23a0:	89 45 d4             	mov    %eax,-0x2c(%ebp)
    23a3:	8b 5d 18             	mov    0x18(%ebp),%ebx
    23a6:	8b 75 1c             	mov    0x1c(%ebp),%esi
    23a9:	89 7d dc             	mov    %edi,-0x24(%ebp)
    23ac:	80 7f 01 00          	cmpb   $0x0,0x1(%edi)
    23b0:	0f 84 e2 00 00 00    	je     2498 <root_handle_position_event+0x118>
    23b6:	49                   	dec    %ecx
    23b7:	0f 94 45 d3          	sete   -0x2d(%ebp)
    23bb:	83 f8 01             	cmp    $0x1,%eax
    23be:	0f 94 45 e0          	sete   -0x20(%ebp)
    23c2:	8a 4d e0             	mov    -0x20(%ebp),%cl
    23c5:	8b 7a 24             	mov    0x24(%edx),%edi
    23c8:	22 4d d3             	and    -0x2d(%ebp),%cl
    23cb:	89 7d cc             	mov    %edi,-0x34(%ebp)
    23ce:	8b 7a 28             	mov    0x28(%edx),%edi
    23d1:	88 4d e0             	mov    %cl,-0x20(%ebp)
    23d4:	89 7d c8             	mov    %edi,-0x38(%ebp)
    23d7:	0f 85 15 01 00 00    	jne    24f2 <root_handle_position_event+0x172>
    23dd:	83 f8 02             	cmp    $0x2,%eax
    23e0:	0f 94 45 e0          	sete   -0x20(%ebp)
    23e4:	8a 45 e0             	mov    -0x20(%ebp),%al
    23e7:	c7 45 c0 00 00 00 00 	movl   $0x0,-0x40(%ebp)
    23ee:	22 45 d3             	and    -0x2d(%ebp),%al
    23f1:	88 45 e0             	mov    %al,-0x20(%ebp)
    23f4:	8b 45 cc             	mov    -0x34(%ebp),%eax
    23f7:	83 fb 03             	cmp    $0x3,%ebx
    23fa:	0f 96 45 d3          	setbe  -0x2d(%ebp)
    23fe:	83 e8 04             	sub    $0x4,%eax
    2401:	89 c7                	mov    %eax,%edi
    2403:	89 45 bc             	mov    %eax,-0x44(%ebp)
    2406:	8b 45 c8             	mov    -0x38(%ebp),%eax
    2409:	83 fe 03             	cmp    $0x3,%esi
    240c:	0f 96 45 d2          	setbe  -0x2e(%ebp)
    2410:	83 e8 04             	sub    $0x4,%eax
    2413:	39 c6                	cmp    %eax,%esi
    2415:	8d 46 fc             	lea    -0x4(%esi),%eax
    2418:	0f 93 45 c8          	setae  -0x38(%ebp)
    241c:	83 f8 13             	cmp    $0x13,%eax
    241f:	0f 96 45 c4          	setbe  -0x3c(%ebp)
    2423:	83 fb 03             	cmp    $0x3,%ebx
    2426:	8a 4d c4             	mov    -0x3c(%ebp),%cl
    2429:	0f 97 c0             	seta   %al
    242c:	84 c1                	test   %al,%cl
    242e:	0f 84 15 01 00 00    	je     2549 <root_handle_position_event+0x1c9>
    2434:	39 fb                	cmp    %edi,%ebx
    2436:	0f 83 0d 01 00 00    	jae    2549 <root_handle_position_event+0x1c9>
    243c:	8b 45 cc             	mov    -0x34(%ebp),%eax
    243f:	c7 45 c4 01 00 00 00 	movl   $0x1,-0x3c(%ebp)
    2446:	83 e8 18             	sub    $0x18,%eax
    2449:	39 c3                	cmp    %eax,%ebx
    244b:	0f 93 c0             	setae  %al
    244e:	25 ff 00 00 00       	and    $0xff,%eax
    2453:	89 c7                	mov    %eax,%edi
    2455:	8a 45 d2             	mov    -0x2e(%ebp),%al
    2458:	84 45 d3             	test   %al,-0x2d(%ebp)
    245b:	0f 84 9d 00 00 00    	je     24fe <root_handle_position_event+0x17e>
    2461:	80 7d e0 00          	cmpb   $0x0,-0x20(%ebp)
    2465:	0f 84 93 00 00 00    	je     24fe <root_handle_position_event+0x17e>
    246b:	83 7d c0 01          	cmpl   $0x1,-0x40(%ebp)
    246f:	19 c0                	sbb    %eax,%eax
    2471:	83 e0 24             	and    $0x24,%eax
    2474:	83 c0 0f             	add    $0xf,%eax
    2477:	89 45 10             	mov    %eax,0x10(%ebp)
    247a:	8b 45 e4             	mov    -0x1c(%ebp),%eax
    247d:	89 45 0c             	mov    %eax,0xc(%ebp)
    2480:	8b 45 dc             	mov    -0x24(%ebp),%eax
    2483:	8b 40 0c             	mov    0xc(%eax),%eax
    2486:	89 45 08             	mov    %eax,0x8(%ebp)
    2489:	8d 65 f4             	lea    -0xc(%ebp),%esp
    248c:	5b                   	pop    %ebx
    248d:	5e                   	pop    %esi
    248e:	5f                   	pop    %edi
    248f:	5d                   	pop    %ebp
    2490:	e9 0b 5a 00 00       	jmp    7ea0 <win_grab@plt>
    2495:	8d 76 00             	lea    0x0(%esi),%esi
    2498:	8d 42 0c             	lea    0xc(%edx),%eax
    249b:	8b 7a 10             	mov    0x10(%edx),%edi
    249e:	89 45 dc             	mov    %eax,-0x24(%ebp)
    24a1:	39 c7                	cmp    %eax,%edi
    24a3:	74 45                	je     24ea <root_handle_position_event+0x16a>
    24a5:	89 f0                	mov    %esi,%eax
    24a7:	8b 4d e4             	mov    -0x1c(%ebp),%ecx
    24aa:	89 de                	mov    %ebx,%esi
    24ac:	89 c3                	mov    %eax,%ebx
    24ae:	66 90                	xchg   %ax,%ax
    24b0:	8b 47 58             	mov    0x58(%edi),%eax
    24b3:	83 ec 08             	sub    $0x8,%esp
    24b6:	89 45 e4             	mov    %eax,-0x1c(%ebp)
    24b9:	8b 55 d4             	mov    -0x2c(%ebp),%edx
    24bc:	8b 45 d8             	mov    -0x28(%ebp),%eax
    24bf:	53                   	push   %ebx
    24c0:	89 45 10             	mov    %eax,0x10(%ebp)
    24c3:	56                   	push   %esi
    24c4:	52                   	push   %edx
    24c5:	50                   	push   %eax
    24c6:	8b 45 e4             	mov    -0x1c(%ebp),%eax
    24c9:	51                   	push   %ecx
    24ca:	89 4d 0c             	mov    %ecx,0xc(%ebp)
    24cd:	57                   	push   %edi
    24ce:	89 4d e0             	mov    %ecx,-0x20(%ebp)
    24d1:	89 55 14             	mov    %edx,0x14(%ebp)
    24d4:	89 75 18             	mov    %esi,0x18(%ebp)
    24d7:	89 5d 1c             	mov    %ebx,0x1c(%ebp)
    24da:	ff d0                	call   *%eax
    24dc:	8b 7f 04             	mov    0x4(%edi),%edi
    24df:	83 c4 20             	add    $0x20,%esp
    24e2:	8b 4d e0             	mov    -0x20(%ebp),%ecx
    24e5:	3b 7d dc             	cmp    -0x24(%ebp),%edi
    24e8:	75 c6                	jne    24b0 <root_handle_position_event+0x130>
    24ea:	8d 65 f4             	lea    -0xc(%ebp),%esp
    24ed:	5b                   	pop    %ebx
    24ee:	5e                   	pop    %esi
    24ef:	5f                   	pop    %edi
    24f0:	5d                   	pop    %ebp
    24f1:	c3                   	ret    
    24f2:	c7 45 c0 01 00 00 00 	movl   $0x1,-0x40(%ebp)
    24f9:	e9 f6 fe ff ff       	jmp    23f4 <root_handle_position_event+0x74>
    24fe:	8a 4d c8             	mov    -0x38(%ebp),%cl
    2501:	84 4d d3             	test   %cl,-0x2d(%ebp)
    2504:	74 1a                	je     2520 <root_handle_position_event+0x1a0>
    2506:	80 7d e0 00          	cmpb   $0x0,-0x20(%ebp)
    250a:	74 14                	je     2520 <root_handle_position_event+0x1a0>
    250c:	83 7d c0 01          	cmpl   $0x1,-0x40(%ebp)
    2510:	19 c0                	sbb    %eax,%eax
    2512:	83 e0 24             	and    $0x24,%eax
    2515:	83 c0 0d             	add    $0xd,%eax
    2518:	89 45 10             	mov    %eax,0x10(%ebp)
    251b:	e9 5a ff ff ff       	jmp    247a <root_handle_position_event+0xfa>
    2520:	3b 5d bc             	cmp    -0x44(%ebp),%ebx
    2523:	0f 93 45 cc          	setae  -0x34(%ebp)
    2527:	8a 45 cc             	mov    -0x34(%ebp),%al
    252a:	84 45 c8             	test   %al,-0x38(%ebp)
    252d:	74 28                	je     2557 <root_handle_position_event+0x1d7>
    252f:	80 7d e0 00          	cmpb   $0x0,-0x20(%ebp)
    2533:	74 22                	je     2557 <root_handle_position_event+0x1d7>
    2535:	83 7d c0 01          	cmpl   $0x1,-0x40(%ebp)
    2539:	19 c0                	sbb    %eax,%eax
    253b:	83 e0 24             	and    $0x24,%eax
    253e:	83 c0 0c             	add    $0xc,%eax
    2541:	89 45 10             	mov    %eax,0x10(%ebp)
    2544:	e9 31 ff ff ff       	jmp    247a <root_handle_position_event+0xfa>
    2549:	c7 45 c4 00 00 00 00 	movl   $0x0,-0x3c(%ebp)
    2550:	31 ff                	xor    %edi,%edi
    2552:	e9 fe fe ff ff       	jmp    2455 <root_handle_position_event+0xd5>
    2557:	8a 4d d2             	mov    -0x2e(%ebp),%cl
    255a:	84 4d cc             	test   %cl,-0x34(%ebp)
    255d:	74 1a                	je     2579 <root_handle_position_event+0x1f9>
    255f:	80 7d e0 00          	cmpb   $0x0,-0x20(%ebp)
    2563:	74 14                	je     2579 <root_handle_position_event+0x1f9>
    2565:	83 7d c0 01          	cmpl   $0x1,-0x40(%ebp)
    2569:	19 c0                	sbb    %eax,%eax
    256b:	83 e0 24             	and    $0x24,%eax
    256e:	83 c0 0e             	add    $0xe,%eax
    2571:	89 45 10             	mov    %eax,0x10(%ebp)
    2574:	e9 01 ff ff ff       	jmp    247a <root_handle_position_event+0xfa>
    2579:	80 7d d2 00          	cmpb   $0x0,-0x2e(%ebp)
    257d:	74 1a                	je     2599 <root_handle_position_event+0x219>
    257f:	80 7d e0 00          	cmpb   $0x0,-0x20(%ebp)
    2583:	74 14                	je     2599 <root_handle_position_event+0x219>
    2585:	83 7d c0 01          	cmpl   $0x1,-0x40(%ebp)
    2589:	19 c0                	sbb    %eax,%eax
    258b:	83 e0 18             	and    $0x18,%eax
    258e:	83 c0 0a             	add    $0xa,%eax
    2591:	89 45 10             	mov    %eax,0x10(%ebp)
    2594:	e9 e1 fe ff ff       	jmp    247a <root_handle_position_event+0xfa>
    2599:	80 7d d3 00          	cmpb   $0x0,-0x2d(%ebp)
    259d:	74 1a                	je     25b9 <root_handle_position_event+0x239>
    259f:	80 7d e0 00          	cmpb   $0x0,-0x20(%ebp)
    25a3:	74 14                	je     25b9 <root_handle_position_event+0x239>
    25a5:	83 7d c0 01          	cmpl   $0x1,-0x40(%ebp)
    25a9:	19 c0                	sbb    %eax,%eax
    25ab:	83 e0 0c             	and    $0xc,%eax
    25ae:	83 c0 05             	add    $0x5,%eax
    25b1:	89 45 10             	mov    %eax,0x10(%ebp)
    25b4:	e9 c1 fe ff ff       	jmp    247a <root_handle_position_event+0xfa>
    25b9:	80 7d c8 00          	cmpb   $0x0,-0x38(%ebp)
    25bd:	74 1a                	je     25d9 <root_handle_position_event+0x259>
    25bf:	80 7d e0 00          	cmpb   $0x0,-0x20(%ebp)
    25c3:	74 14                	je     25d9 <root_handle_position_event+0x259>
    25c5:	83 7d c0 01          	cmpl   $0x1,-0x40(%ebp)
    25c9:	19 c0                	sbb    %eax,%eax
    25cb:	83 e0 18             	and    $0x18,%eax
    25ce:	83 c0 08             	add    $0x8,%eax
    25d1:	89 45 10             	mov    %eax,0x10(%ebp)
    25d4:	e9 a1 fe ff ff       	jmp    247a <root_handle_position_event+0xfa>
    25d9:	80 7d cc 00          	cmpb   $0x0,-0x34(%ebp)
    25dd:	74 1a                	je     25f9 <root_handle_position_event+0x279>
    25df:	80 7d e0 00          	cmpb   $0x0,-0x20(%ebp)
    25e3:	74 14                	je     25f9 <root_handle_position_event+0x279>
    25e5:	83 7d c0 01          	cmpl   $0x1,-0x40(%ebp)
    25e9:	19 c0                	sbb    %eax,%eax
    25eb:	83 e0 0c             	and    $0xc,%eax
    25ee:	83 c0 04             	add    $0x4,%eax
    25f1:	89 45 10             	mov    %eax,0x10(%ebp)
    25f4:	e9 81 fe ff ff       	jmp    247a <root_handle_position_event+0xfa>
    25f9:	85 7d c0             	test   %edi,-0x40(%ebp)
    25fc:	75 61                	jne    265f <root_handle_position_event+0x2df>
    25fe:	8b 4d c4             	mov    -0x3c(%ebp),%ecx
    2601:	85 4d c0             	test   %ecx,-0x40(%ebp)
    2604:	75 6e                	jne    2674 <root_handle_position_event+0x2f4>
    2606:	8d 42 0c             	lea    0xc(%edx),%eax
    2609:	8b 7a 10             	mov    0x10(%edx),%edi
    260c:	89 45 dc             	mov    %eax,-0x24(%ebp)
    260f:	39 f8                	cmp    %edi,%eax
    2611:	0f 84 d3 fe ff ff    	je     24ea <root_handle_position_event+0x16a>
    2617:	89 f0                	mov    %esi,%eax
    2619:	8b 4d e4             	mov    -0x1c(%ebp),%ecx
    261c:	89 de                	mov    %ebx,%esi
    261e:	89 c3                	mov    %eax,%ebx
    2620:	8b 47 58             	mov    0x58(%edi),%eax
    2623:	83 ec 08             	sub    $0x8,%esp
    2626:	89 45 e4             	mov    %eax,-0x1c(%ebp)
    2629:	8b 55 d4             	mov    -0x2c(%ebp),%edx
    262c:	8b 45 d8             	mov    -0x28(%ebp),%eax
    262f:	53                   	push   %ebx
    2630:	89 45 10             	mov    %eax,0x10(%ebp)
    2633:	56                   	push   %esi
    2634:	52                   	push   %edx
    2635:	50                   	push   %eax
    2636:	8b 45 e4             	mov    -0x1c(%ebp),%eax
    2639:	51                   	push   %ecx
    263a:	89 4d 0c             	mov    %ecx,0xc(%ebp)
    263d:	57                   	push   %edi
    263e:	89 4d e0             	mov    %ecx,-0x20(%ebp)
    2641:	89 55 14             	mov    %edx,0x14(%ebp)
    2644:	89 75 18             	mov    %esi,0x18(%ebp)
    2647:	89 5d 1c             	mov    %ebx,0x1c(%ebp)
    264a:	ff d0                	call   *%eax
    264c:	8b 7f 04             	mov    0x4(%edi),%edi
    264f:	83 c4 20             	add    $0x20,%esp
    2652:	8b 4d e0             	mov    -0x20(%ebp),%ecx
    2655:	39 7d dc             	cmp    %edi,-0x24(%ebp)
    2658:	75 c6                	jne    2620 <root_handle_position_event+0x2a0>
    265a:	e9 8b fe ff ff       	jmp    24ea <root_handle_position_event+0x16a>
    265f:	8b 45 dc             	mov    -0x24(%ebp),%eax
    2662:	8b 40 0c             	mov    0xc(%eax),%eax
    2665:	89 45 08             	mov    %eax,0x8(%ebp)
    2668:	8d 65 f4             	lea    -0xc(%ebp),%esp
    266b:	5b                   	pop    %ebx
    266c:	5e                   	pop    %esi
    266d:	5f                   	pop    %edi
    266e:	5d                   	pop    %ebp
    266f:	e9 dc 5a 00 00       	jmp    8150 <win_close_request@plt>
    2674:	c7 45 10 03 00 00 00 	movl   $0x3,0x10(%ebp)
    267b:	e9 fa fd ff ff       	jmp    247a <root_handle_position_event+0xfa>

00002680 <root_destroy>:
    2680:	55                   	push   %ebp
    2681:	89 e5                	mov    %esp,%ebp
    2683:	5d                   	pop    %ebp
    2684:	e9 87 fc ff ff       	jmp    2310 <widget_deinit>
    2689:	8d b4 26 00 00 00 00 	lea    0x0(%esi,%eiz,1),%esi

00002690 <fetch_input>:
    2690:	55                   	push   %ebp
    2691:	89 e5                	mov    %esp,%ebp
    2693:	57                   	push   %edi
    2694:	56                   	push   %esi
    2695:	53                   	push   %ebx
    2696:	83 ec 0c             	sub    $0xc,%esp
    2699:	8b 45 08             	mov    0x8(%ebp),%eax
    269c:	8d 78 10             	lea    0x10(%eax),%edi
    269f:	90                   	nop
    26a0:	83 ec 0c             	sub    $0xc,%esp
    26a3:	6a 24                	push   $0x24
    26a5:	e8 86 58 00 00       	call   7f30 <malloc@plt>
    26aa:	83 c4 10             	add    $0x10,%esp
    26ad:	89 c6                	mov    %eax,%esi
    26af:	85 c0                	test   %eax,%eax
    26b1:	74 37                	je     26ea <fetch_input+0x5a>
    26b3:	52                   	push   %edx
    26b4:	52                   	push   %edx
    26b5:	50                   	push   %eax
    26b6:	8b 45 08             	mov    0x8(%ebp),%eax
    26b9:	8b 48 08             	mov    0x8(%eax),%ecx
    26bc:	51                   	push   %ecx
    26bd:	e8 1e 59 00 00       	call   7fe0 <win_get_event@plt>
    26c2:	83 c4 10             	add    $0x10,%esp
    26c5:	85 c0                	test   %eax,%eax
    26c7:	75 2f                	jne    26f8 <fetch_input+0x68>
    26c9:	8b 5e 08             	mov    0x8(%esi),%ebx
    26cc:	50                   	push   %eax
    26cd:	50                   	push   %eax
    26ce:	56                   	push   %esi
    26cf:	57                   	push   %edi
    26d0:	c7 06 00 00 00 00    	movl   $0x0,(%esi)
    26d6:	c7 46 04 00 00 00 00 	movl   $0x0,0x4(%esi)
    26dd:	e8 de 59 00 00       	call   80c0 <prodcons_produce@plt>
    26e2:	83 c4 10             	add    $0x10,%esp
    26e5:	83 fb 08             	cmp    $0x8,%ebx
    26e8:	75 b6                	jne    26a0 <fetch_input+0x10>
    26ea:	8d 65 f4             	lea    -0xc(%ebp),%esp
    26ed:	31 c0                	xor    %eax,%eax
    26ef:	5b                   	pop    %ebx
    26f0:	5e                   	pop    %esi
    26f1:	5f                   	pop    %edi
    26f2:	5d                   	pop    %ebp
    26f3:	c3                   	ret    
    26f4:	8d 74 26 00          	lea    0x0(%esi,%eiz,1),%esi
    26f8:	83 ec 0c             	sub    $0xc,%esp
    26fb:	56                   	push   %esi
    26fc:	e8 5f 5a 00 00       	call   8160 <free@plt>
    2701:	83 c4 10             	add    $0x10,%esp
    2704:	8d 65 f4             	lea    -0xc(%ebp),%esp
    2707:	31 c0                	xor    %eax,%eax
    2709:	5b                   	pop    %ebx
    270a:	5e                   	pop    %esi
    270b:	5f                   	pop    %edi
    270c:	5d                   	pop    %ebp
    270d:	c3                   	ret    
    270e:	66 90                	xchg   %ax,%ax

00002710 <paint_internal>:
    2710:	55                   	push   %ebp
    2711:	89 e5                	mov    %esp,%ebp
    2713:	57                   	push   %edi
    2714:	56                   	push   %esi
    2715:	53                   	push   %ebx
    2716:	81 ec e8 00 00 00    	sub    $0xe8,%esp
    271c:	89 c3                	mov    %eax,%ebx
    271e:	8b 70 14             	mov    0x14(%eax),%esi
    2721:	8d 86 94 00 00 00    	lea    0x94(%esi),%eax
    2727:	50                   	push   %eax
    2728:	e8 43 5a 00 00       	call   8170 <fibril_mutex_lock@plt>
    272d:	8b 86 a4 00 00 00    	mov    0xa4(%esi),%eax
    2733:	83 c4 10             	add    $0x10,%esp
    2736:	89 85 2c ff ff ff    	mov    %eax,-0xd4(%ebp)
    273c:	85 c0                	test   %eax,%eax
    273e:	0f 84 5c 03 00 00    	je     2aa0 <paint_internal+0x390>
    2744:	83 ec 0c             	sub    $0xc,%esp
    2747:	8d 75 84             	lea    -0x7c(%ebp),%esi
    274a:	8d bd 4c ff ff ff    	lea    -0xb4(%ebp),%edi
    2750:	56                   	push   %esi
    2751:	e8 6a 3a 00 00       	call   61c0 <source_init>
    2756:	8b 8d 2c ff ff ff    	mov    -0xd4(%ebp),%ecx
    275c:	58                   	pop    %eax
    275d:	5a                   	pop    %edx
    275e:	51                   	push   %ecx
    275f:	57                   	push   %edi
    2760:	e8 cb 32 00 00       	call   5a30 <drawctx_init>
    2765:	58                   	pop    %eax
    2766:	5a                   	pop    %edx
    2767:	56                   	push   %esi
    2768:	57                   	push   %edi
    2769:	e8 92 34 00 00       	call   5c00 <drawctx_set_source>
    276e:	8b 4b 28             	mov    0x28(%ebx),%ecx
    2771:	8b 43 24             	mov    0x24(%ebx),%eax
    2774:	68 55 55 55 ff       	push   $0xff555555
    2779:	6a ff                	push   $0xffffffff
    277b:	51                   	push   %ecx
    277c:	50                   	push   %eax
    277d:	8b 43 1c             	mov    0x1c(%ebx),%eax
    2780:	50                   	push   %eax
    2781:	8b 43 20             	mov    0x20(%ebx),%eax
    2784:	50                   	push   %eax
    2785:	56                   	push   %esi
    2786:	57                   	push   %edi
    2787:	e8 e4 13 00 00       	call   3b70 <draw_bevel>
    278c:	83 c4 28             	add    $0x28,%esp
    278f:	68 ba ba ba ff       	push   $0xffbababa
    2794:	56                   	push   %esi
    2795:	e8 b6 3a 00 00       	call   6250 <source_set_color>
    279a:	8b 43 24             	mov    0x24(%ebx),%eax
    279d:	83 e8 02             	sub    $0x2,%eax
    27a0:	c7 04 24 02 00 00 00 	movl   $0x2,(%esp)
    27a7:	50                   	push   %eax
    27a8:	8b 43 20             	mov    0x20(%ebx),%eax
    27ab:	40                   	inc    %eax
    27ac:	50                   	push   %eax
    27ad:	8b 43 1c             	mov    0x1c(%ebx),%eax
    27b0:	40                   	inc    %eax
    27b1:	50                   	push   %eax
    27b2:	57                   	push   %edi
    27b3:	e8 68 34 00 00       	call   5c20 <drawctx_transfer>
    27b8:	83 c4 14             	add    $0x14,%esp
    27bb:	8b 43 28             	mov    0x28(%ebx),%eax
    27be:	83 e8 02             	sub    $0x2,%eax
    27c1:	50                   	push   %eax
    27c2:	8b 43 20             	mov    0x20(%ebx),%eax
    27c5:	40                   	inc    %eax
    27c6:	6a 02                	push   $0x2
    27c8:	50                   	push   %eax
    27c9:	8b 43 1c             	mov    0x1c(%ebx),%eax
    27cc:	40                   	inc    %eax
    27cd:	50                   	push   %eax
    27ce:	57                   	push   %edi
    27cf:	e8 4c 34 00 00       	call   5c20 <drawctx_transfer>
    27d4:	83 c4 14             	add    $0x14,%esp
    27d7:	8b 43 24             	mov    0x24(%ebx),%eax
    27da:	6a 02                	push   $0x2
    27dc:	83 e8 02             	sub    $0x2,%eax
    27df:	8b 53 20             	mov    0x20(%ebx),%edx
    27e2:	50                   	push   %eax
    27e3:	8b 43 28             	mov    0x28(%ebx),%eax
    27e6:	01 d0                	add    %edx,%eax
    27e8:	83 e8 03             	sub    $0x3,%eax
    27eb:	50                   	push   %eax
    27ec:	8b 43 1c             	mov    0x1c(%ebx),%eax
    27ef:	40                   	inc    %eax
    27f0:	50                   	push   %eax
    27f1:	57                   	push   %edi
    27f2:	e8 29 34 00 00       	call   5c20 <drawctx_transfer>
    27f7:	83 c4 14             	add    $0x14,%esp
    27fa:	8b 43 28             	mov    0x28(%ebx),%eax
    27fd:	8b 4b 1c             	mov    0x1c(%ebx),%ecx
    2800:	83 e8 04             	sub    $0x4,%eax
    2803:	50                   	push   %eax
    2804:	8b 43 20             	mov    0x20(%ebx),%eax
    2807:	40                   	inc    %eax
    2808:	6a 02                	push   $0x2
    280a:	50                   	push   %eax
    280b:	8b 43 24             	mov    0x24(%ebx),%eax
    280e:	01 c8                	add    %ecx,%eax
    2810:	83 e8 03             	sub    $0x3,%eax
    2813:	50                   	push   %eax
    2814:	57                   	push   %edi
    2815:	e8 06 34 00 00       	call   5c20 <drawctx_transfer>
    281a:	83 c4 20             	add    $0x20,%esp
    281d:	8b 43 28             	mov    0x28(%ebx),%eax
    2820:	6a ff                	push   $0xffffffff
    2822:	83 e8 06             	sub    $0x6,%eax
    2825:	68 55 55 55 ff       	push   $0xff555555
    282a:	50                   	push   %eax
    282b:	8b 43 24             	mov    0x24(%ebx),%eax
    282e:	83 e8 06             	sub    $0x6,%eax
    2831:	50                   	push   %eax
    2832:	8b 43 20             	mov    0x20(%ebx),%eax
    2835:	83 c0 03             	add    $0x3,%eax
    2838:	50                   	push   %eax
    2839:	8b 43 1c             	mov    0x1c(%ebx),%eax
    283c:	83 c0 03             	add    $0x3,%eax
    283f:	50                   	push   %eax
    2840:	56                   	push   %esi
    2841:	57                   	push   %edi
    2842:	e8 29 13 00 00       	call   3b70 <draw_bevel>
    2847:	8b 43 1c             	mov    0x1c(%ebx),%eax
    284a:	83 c4 20             	add    $0x20,%esp
    284d:	89 85 34 ff ff ff    	mov    %eax,-0xcc(%ebp)
    2853:	8d 50 04             	lea    0x4(%eax),%edx
    2856:	8b 43 14             	mov    0x14(%ebx),%eax
    2859:	89 95 30 ff ff ff    	mov    %edx,-0xd0(%ebp)
    285f:	8b 53 20             	mov    0x20(%ebx),%edx
    2862:	89 95 28 ff ff ff    	mov    %edx,-0xd8(%ebp)
    2868:	8d 4a 04             	lea    0x4(%edx),%ecx
    286b:	89 8d 24 ff ff ff    	mov    %ecx,-0xdc(%ebp)
    2871:	8b 4b 24             	mov    0x24(%ebx),%ecx
    2874:	89 8d 20 ff ff ff    	mov    %ecx,-0xe0(%ebp)
    287a:	83 e9 1c             	sub    $0x1c,%ecx
    287d:	80 78 02 01          	cmpb   $0x1,0x2(%eax)
    2881:	19 d2                	sbb    %edx,%edx
    2883:	81 e2 d1 e9 dc ff    	and    $0xffdce9d1,%edx
    2889:	81 ea a7 cf d7 00    	sub    $0xd7cfa7,%edx
    288f:	80 78 02 01          	cmpb   $0x1,0x2(%eax)
    2893:	19 c0                	sbb    %eax,%eax
    2895:	52                   	push   %edx
    2896:	25 7f bc 97 ff       	and    $0xff97bc7f,%eax
    289b:	2d 01 6e 87 00       	sub    $0x876e01,%eax
    28a0:	50                   	push   %eax
    28a1:	8b 85 24 ff ff ff    	mov    -0xdc(%ebp),%eax
    28a7:	6a 14                	push   $0x14
    28a9:	51                   	push   %ecx
    28aa:	50                   	push   %eax
    28ab:	8b 85 30 ff ff ff    	mov    -0xd0(%ebp),%eax
    28b1:	50                   	push   %eax
    28b2:	56                   	push   %esi
    28b3:	57                   	push   %edi
    28b4:	e8 b7 12 00 00       	call   3b70 <draw_bevel>
    28b9:	8b 43 14             	mov    0x14(%ebx),%eax
    28bc:	83 c4 18             	add    $0x18,%esp
    28bf:	80 78 02 01          	cmpb   $0x1,0x2(%eax)
    28c3:	19 c0                	sbb    %eax,%eax
    28c5:	25 98 ce b3 ff       	and    $0xffb3ce98,%eax
    28ca:	2d 3c 95 a7 00       	sub    $0xa7953c,%eax
    28cf:	50                   	push   %eax
    28d0:	56                   	push   %esi
    28d1:	e8 7a 39 00 00       	call   6250 <source_set_color>
    28d6:	8b 8d 20 ff ff ff    	mov    -0xe0(%ebp),%ecx
    28dc:	8b 95 28 ff ff ff    	mov    -0xd8(%ebp),%edx
    28e2:	8d 41 e2             	lea    -0x1e(%ecx),%eax
    28e5:	c7 04 24 12 00 00 00 	movl   $0x12,(%esp)
    28ec:	50                   	push   %eax
    28ed:	8d 42 05             	lea    0x5(%edx),%eax
    28f0:	50                   	push   %eax
    28f1:	8b 85 34 ff ff ff    	mov    -0xcc(%ebp),%eax
    28f7:	83 c0 05             	add    $0x5,%eax
    28fa:	50                   	push   %eax
    28fb:	57                   	push   %edi
    28fc:	e8 1f 33 00 00       	call   5c20 <drawctx_transfer>
    2901:	8b 53 1c             	mov    0x1c(%ebx),%edx
    2904:	8b 43 24             	mov    0x24(%ebx),%eax
    2907:	83 c4 20             	add    $0x20,%esp
    290a:	01 d0                	add    %edx,%eax
    290c:	89 c2                	mov    %eax,%edx
    290e:	8b 43 20             	mov    0x20(%ebx),%eax
    2911:	89 85 30 ff ff ff    	mov    %eax,-0xd0(%ebp)
    2917:	83 c0 04             	add    $0x4,%eax
    291a:	68 55 55 55 ff       	push   $0xff555555
    291f:	6a ff                	push   $0xffffffff
    2921:	6a 14                	push   $0x14
    2923:	6a 14                	push   $0x14
    2925:	50                   	push   %eax
    2926:	89 d0                	mov    %edx,%eax
    2928:	83 e8 18             	sub    $0x18,%eax
    292b:	89 95 34 ff ff ff    	mov    %edx,-0xcc(%ebp)
    2931:	50                   	push   %eax
    2932:	56                   	push   %esi
    2933:	57                   	push   %edi
    2934:	e8 37 12 00 00       	call   3b70 <draw_bevel>
    2939:	83 c4 18             	add    $0x18,%esp
    293c:	68 ba ba ba ff       	push   $0xffbababa
    2941:	56                   	push   %esi
    2942:	e8 09 39 00 00       	call   6250 <source_set_color>
    2947:	8b 8d 30 ff ff ff    	mov    -0xd0(%ebp),%ecx
    294d:	8d 41 05             	lea    0x5(%ecx),%eax
    2950:	c7 04 24 12 00 00 00 	movl   $0x12,(%esp)
    2957:	6a 12                	push   $0x12
    2959:	50                   	push   %eax
    295a:	8b 85 34 ff ff ff    	mov    -0xcc(%ebp),%eax
    2960:	83 e8 17             	sub    $0x17,%eax
    2963:	50                   	push   %eax
    2964:	57                   	push   %edi
    2965:	e8 b6 32 00 00       	call   5c20 <drawctx_transfer>
    296a:	8b 8d 30 ff ff ff    	mov    -0xd0(%ebp),%ecx
    2970:	83 c4 14             	add    $0x14,%esp
    2973:	8d 41 07             	lea    0x7(%ecx),%eax
    2976:	8b 8d 2c ff ff ff    	mov    -0xd4(%ebp),%ecx
    297c:	68 55 55 55 ff       	push   $0xff555555
    2981:	6a ff                	push   $0xffffffff
    2983:	50                   	push   %eax
    2984:	8b 85 34 ff ff ff    	mov    -0xcc(%ebp),%eax
    298a:	83 e8 15             	sub    $0x15,%eax
    298d:	50                   	push   %eax
    298e:	51                   	push   %ecx
    298f:	e8 3c 0e 00 00       	call   37d0 <draw_icon_cross>
    2994:	83 c4 18             	add    $0x18,%esp
    2997:	8d 85 40 ff ff ff    	lea    -0xc0(%ebp),%eax
    299d:	6a 10                	push   $0x10
    299f:	50                   	push   %eax
    29a0:	e8 9b 13 00 00       	call   3d40 <embedded_font_create>
    29a5:	83 c4 10             	add    $0x10,%esp
    29a8:	85 c0                	test   %eax,%eax
    29aa:	0f 85 d0 00 00 00    	jne    2a80 <paint_internal+0x370>
    29b0:	50                   	push   %eax
    29b1:	50                   	push   %eax
    29b2:	8b 85 40 ff ff ff    	mov    -0xc0(%ebp),%eax
    29b8:	50                   	push   %eax
    29b9:	57                   	push   %edi
    29ba:	e8 51 32 00 00       	call   5c10 <drawctx_set_font>
    29bf:	8b 43 14             	mov    0x14(%ebx),%eax
    29c2:	80 78 02 00          	cmpb   $0x0,0x2(%eax)
    29c6:	0f 95 c0             	setne  %al
    29c9:	25 ff 00 00 00       	and    $0xff,%eax
    29ce:	5a                   	pop    %edx
    29cf:	f7 d8                	neg    %eax
    29d1:	0d cf cf cf ff       	or     $0xffcfcfcf,%eax
    29d6:	59                   	pop    %ecx
    29d7:	50                   	push   %eax
    29d8:	56                   	push   %esi
    29d9:	e8 72 38 00 00       	call   6250 <source_set_color>
    29de:	8d 85 48 ff ff ff    	lea    -0xb8(%ebp),%eax
    29e4:	50                   	push   %eax
    29e5:	8d 85 44 ff ff ff    	lea    -0xbc(%ebp),%eax
    29eb:	50                   	push   %eax
    29ec:	8b 43 14             	mov    0x14(%ebx),%eax
    29ef:	8b 70 04             	mov    0x4(%eax),%esi
    29f2:	8b 85 40 ff ff ff    	mov    -0xc0(%ebp),%eax
    29f8:	56                   	push   %esi
    29f9:	50                   	push   %eax
    29fa:	e8 91 35 00 00       	call   5f90 <font_get_box>
    29ff:	8b 95 44 ff ff ff    	mov    -0xbc(%ebp),%edx
    2a05:	8b 43 24             	mov    0x24(%ebx),%eax
    2a08:	8d 4a 1e             	lea    0x1e(%edx),%ecx
    2a0b:	83 c4 20             	add    $0x20,%esp
    2a0e:	39 c8                	cmp    %ecx,%eax
    2a10:	72 41                	jb     2a53 <paint_internal+0x343>
    2a12:	8b 4b 14             	mov    0x14(%ebx),%ecx
    2a15:	8b 71 04             	mov    0x4(%ecx),%esi
    2a18:	89 b5 34 ff ff ff    	mov    %esi,-0xcc(%ebp)
    2a1e:	85 f6                	test   %esi,%esi
    2a20:	74 31                	je     2a53 <paint_internal+0x343>
    2a22:	8b b5 48 ff ff ff    	mov    -0xb8(%ebp),%esi
    2a28:	b9 14 00 00 00       	mov    $0x14,%ecx
    2a2d:	29 f1                	sub    %esi,%ecx
    2a2f:	8b 73 20             	mov    0x20(%ebx),%esi
    2a32:	d1 e9                	shr    %ecx
    2a34:	29 d0                	sub    %edx,%eax
    2a36:	d1 e8                	shr    %eax
    2a38:	8b 53 1c             	mov    0x1c(%ebx),%edx
    2a3b:	8d 4c 31 04          	lea    0x4(%ecx,%esi,1),%ecx
    2a3f:	01 d0                	add    %edx,%eax
    2a41:	51                   	push   %ecx
    2a42:	8b 8d 34 ff ff ff    	mov    -0xcc(%ebp),%ecx
    2a48:	50                   	push   %eax
    2a49:	51                   	push   %ecx
    2a4a:	57                   	push   %edi
    2a4b:	e8 40 34 00 00       	call   5e90 <drawctx_print>
    2a50:	83 c4 10             	add    $0x10,%esp
    2a53:	83 ec 0c             	sub    $0xc,%esp
    2a56:	8b 85 40 ff ff ff    	mov    -0xc0(%ebp),%eax
    2a5c:	50                   	push   %eax
    2a5d:	e8 8e 34 00 00       	call   5ef0 <font_release>
    2a62:	8b 43 14             	mov    0x14(%ebx),%eax
    2a65:	05 94 00 00 00       	add    $0x94,%eax
    2a6a:	89 04 24             	mov    %eax,(%esp)
    2a6d:	e8 3e 55 00 00       	call   7fb0 <fibril_mutex_unlock@plt>
    2a72:	83 c4 10             	add    $0x10,%esp
    2a75:	8d 65 f4             	lea    -0xc(%ebp),%esp
    2a78:	5b                   	pop    %ebx
    2a79:	5e                   	pop    %esi
    2a7a:	5f                   	pop    %edi
    2a7b:	5d                   	pop    %ebp
    2a7c:	c3                   	ret    
    2a7d:	8d 76 00             	lea    0x0(%esi),%esi
    2a80:	83 ec 0c             	sub    $0xc,%esp
    2a83:	8b 43 14             	mov    0x14(%ebx),%eax
    2a86:	05 94 00 00 00       	add    $0x94,%eax
    2a8b:	50                   	push   %eax
    2a8c:	e8 1f 55 00 00       	call   7fb0 <fibril_mutex_unlock@plt>
    2a91:	83 c4 10             	add    $0x10,%esp
    2a94:	8d 65 f4             	lea    -0xc(%ebp),%esp
    2a97:	5b                   	pop    %ebx
    2a98:	5e                   	pop    %esi
    2a99:	5f                   	pop    %edi
    2a9a:	5d                   	pop    %ebp
    2a9b:	c3                   	ret    
    2a9c:	8d 74 26 00          	lea    0x0(%esi,%eiz,1),%esi
    2aa0:	83 ec 0c             	sub    $0xc,%esp
    2aa3:	8b 43 14             	mov    0x14(%ebx),%eax
    2aa6:	05 94 00 00 00       	add    $0x94,%eax
    2aab:	50                   	push   %eax
    2aac:	e8 ff 54 00 00       	call   7fb0 <fibril_mutex_unlock@plt>
    2ab1:	83 c4 10             	add    $0x10,%esp
    2ab4:	e9 8b fc ff ff       	jmp    2744 <paint_internal+0x34>
    2ab9:	8d b4 26 00 00 00 00 	lea    0x0(%esi,%eiz,1),%esi

00002ac0 <root_reconfigure>:
    2ac0:	55                   	push   %ebp
    2ac1:	89 e5                	mov    %esp,%ebp
    2ac3:	57                   	push   %edi
    2ac4:	56                   	push   %esi
    2ac5:	53                   	push   %ebx
    2ac6:	83 ec 0c             	sub    $0xc,%esp
    2ac9:	8b 5d 08             	mov    0x8(%ebp),%ebx
    2acc:	8b 43 14             	mov    0x14(%ebx),%eax
    2acf:	80 78 01 00          	cmpb   $0x0,0x1(%eax)
    2ad3:	74 43                	je     2b18 <root_reconfigure+0x58>
    2ad5:	8b 73 10             	mov    0x10(%ebx),%esi
    2ad8:	8d 7b 0c             	lea    0xc(%ebx),%edi
    2adb:	39 fe                	cmp    %edi,%esi
    2add:	74 2e                	je     2b0d <root_reconfigure+0x4d>
    2adf:	90                   	nop
    2ae0:	83 ec 0c             	sub    $0xc,%esp
    2ae3:	8b 43 28             	mov    0x28(%ebx),%eax
    2ae6:	83 e8 1c             	sub    $0x1c,%eax
    2ae9:	50                   	push   %eax
    2aea:	8b 43 24             	mov    0x24(%ebx),%eax
    2aed:	83 e8 08             	sub    $0x8,%eax
    2af0:	50                   	push   %eax
    2af1:	8b 43 20             	mov    0x20(%ebx),%eax
    2af4:	83 c0 18             	add    $0x18,%eax
    2af7:	50                   	push   %eax
    2af8:	8b 43 1c             	mov    0x1c(%ebx),%eax
    2afb:	83 c0 04             	add    $0x4,%eax
    2afe:	50                   	push   %eax
    2aff:	56                   	push   %esi
    2b00:	ff 56 4c             	call   *0x4c(%esi)
    2b03:	8b 76 04             	mov    0x4(%esi),%esi
    2b06:	83 c4 20             	add    $0x20,%esp
    2b09:	39 fe                	cmp    %edi,%esi
    2b0b:	75 d3                	jne    2ae0 <root_reconfigure+0x20>
    2b0d:	8d 65 f4             	lea    -0xc(%ebp),%esp
    2b10:	5b                   	pop    %ebx
    2b11:	5e                   	pop    %esi
    2b12:	5f                   	pop    %edi
    2b13:	5d                   	pop    %ebp
    2b14:	c3                   	ret    
    2b15:	8d 76 00             	lea    0x0(%esi),%esi
    2b18:	8b 73 10             	mov    0x10(%ebx),%esi
    2b1b:	8d 7b 0c             	lea    0xc(%ebx),%edi
    2b1e:	39 f7                	cmp    %esi,%edi
    2b20:	74 eb                	je     2b0d <root_reconfigure+0x4d>
    2b22:	8d b6 00 00 00 00    	lea    0x0(%esi),%esi
    2b28:	83 ec 0c             	sub    $0xc,%esp
    2b2b:	8b 43 28             	mov    0x28(%ebx),%eax
    2b2e:	50                   	push   %eax
    2b2f:	8b 53 24             	mov    0x24(%ebx),%edx
    2b32:	52                   	push   %edx
    2b33:	8b 4b 20             	mov    0x20(%ebx),%ecx
    2b36:	51                   	push   %ecx
    2b37:	8b 43 1c             	mov    0x1c(%ebx),%eax
    2b3a:	50                   	push   %eax
    2b3b:	56                   	push   %esi
    2b3c:	ff 56 4c             	call   *0x4c(%esi)
    2b3f:	8b 76 04             	mov    0x4(%esi),%esi
    2b42:	83 c4 20             	add    $0x20,%esp
    2b45:	39 f7                	cmp    %esi,%edi
    2b47:	75 df                	jne    2b28 <root_reconfigure+0x68>
    2b49:	8d 65 f4             	lea    -0xc(%ebp),%esp
    2b4c:	5b                   	pop    %ebx
    2b4d:	5e                   	pop    %esi
    2b4e:	5f                   	pop    %edi
    2b4f:	5d                   	pop    %ebp
    2b50:	c3                   	ret    
    2b51:	eb 0d                	jmp    2b60 <root_rearrange>
    2b53:	90                   	nop
    2b54:	90                   	nop
    2b55:	90                   	nop
    2b56:	90                   	nop
    2b57:	90                   	nop
    2b58:	90                   	nop
    2b59:	90                   	nop
    2b5a:	90                   	nop
    2b5b:	90                   	nop
    2b5c:	90                   	nop
    2b5d:	90                   	nop
    2b5e:	90                   	nop
    2b5f:	90                   	nop

00002b60 <root_rearrange>:
    2b60:	55                   	push   %ebp
    2b61:	89 e5                	mov    %esp,%ebp
    2b63:	57                   	push   %edi
    2b64:	56                   	push   %esi
    2b65:	53                   	push   %ebx
    2b66:	83 ec 28             	sub    $0x28,%esp
    2b69:	8b 45 10             	mov    0x10(%ebp),%eax
    2b6c:	8b 75 14             	mov    0x14(%ebp),%esi
    2b6f:	8b 7d 18             	mov    0x18(%ebp),%edi
    2b72:	8b 55 08             	mov    0x8(%ebp),%edx
    2b75:	57                   	push   %edi
    2b76:	56                   	push   %esi
    2b77:	50                   	push   %eax
    2b78:	8b 45 0c             	mov    0xc(%ebp),%eax
    2b7b:	50                   	push   %eax
    2b7c:	89 55 e4             	mov    %edx,-0x1c(%ebp)
    2b7f:	52                   	push   %edx
    2b80:	e8 5b f7 ff ff       	call   22e0 <widget_modify>
    2b85:	8b 55 e4             	mov    -0x1c(%ebp),%edx
    2b88:	83 c4 20             	add    $0x20,%esp
    2b8b:	8b 42 14             	mov    0x14(%edx),%eax
    2b8e:	80 78 01 00          	cmpb   $0x0,0x1(%eax)
    2b92:	75 3c                	jne    2bd0 <root_rearrange+0x70>
    2b94:	8d 42 0c             	lea    0xc(%edx),%eax
    2b97:	8b 5a 10             	mov    0x10(%edx),%ebx
    2b9a:	89 45 e4             	mov    %eax,-0x1c(%ebp)
    2b9d:	39 c3                	cmp    %eax,%ebx
    2b9f:	74 23                	je     2bc4 <root_rearrange+0x64>
    2ba1:	8d b4 26 00 00 00 00 	lea    0x0(%esi,%eiz,1),%esi
    2ba8:	83 ec 0c             	sub    $0xc,%esp
    2bab:	8b 45 10             	mov    0x10(%ebp),%eax
    2bae:	8b 55 0c             	mov    0xc(%ebp),%edx
    2bb1:	57                   	push   %edi
    2bb2:	56                   	push   %esi
    2bb3:	50                   	push   %eax
    2bb4:	52                   	push   %edx
    2bb5:	53                   	push   %ebx
    2bb6:	ff 53 4c             	call   *0x4c(%ebx)
    2bb9:	8b 5b 04             	mov    0x4(%ebx),%ebx
    2bbc:	83 c4 20             	add    $0x20,%esp
    2bbf:	3b 5d e4             	cmp    -0x1c(%ebp),%ebx
    2bc2:	75 e4                	jne    2ba8 <root_rearrange+0x48>
    2bc4:	8d 65 f4             	lea    -0xc(%ebp),%esp
    2bc7:	5b                   	pop    %ebx
    2bc8:	5e                   	pop    %esi
    2bc9:	5f                   	pop    %edi
    2bca:	5d                   	pop    %ebp
    2bcb:	c3                   	ret    
    2bcc:	8d 74 26 00          	lea    0x0(%esi,%eiz,1),%esi
    2bd0:	89 d0                	mov    %edx,%eax
    2bd2:	e8 39 fb ff ff       	call   2710 <paint_internal>
    2bd7:	8b 55 e4             	mov    -0x1c(%ebp),%edx
    2bda:	8d 42 0c             	lea    0xc(%edx),%eax
    2bdd:	8b 5a 10             	mov    0x10(%edx),%ebx
    2be0:	89 45 e4             	mov    %eax,-0x1c(%ebp)
    2be3:	39 c3                	cmp    %eax,%ebx
    2be5:	74 dd                	je     2bc4 <root_rearrange+0x64>
    2be7:	8b 45 10             	mov    0x10(%ebp),%eax
    2bea:	83 ef 1c             	sub    $0x1c,%edi
    2bed:	83 c0 18             	add    $0x18,%eax
    2bf0:	83 ee 08             	sub    $0x8,%esi
    2bf3:	89 45 dc             	mov    %eax,-0x24(%ebp)
    2bf6:	8b 45 0c             	mov    0xc(%ebp),%eax
    2bf9:	83 c0 04             	add    $0x4,%eax
    2bfc:	89 45 e0             	mov    %eax,-0x20(%ebp)
    2bff:	90                   	nop
    2c00:	83 ec 0c             	sub    $0xc,%esp
    2c03:	8b 4d dc             	mov    -0x24(%ebp),%ecx
    2c06:	8b 45 e0             	mov    -0x20(%ebp),%eax
    2c09:	57                   	push   %edi
    2c0a:	56                   	push   %esi
    2c0b:	51                   	push   %ecx
    2c0c:	50                   	push   %eax
    2c0d:	53                   	push   %ebx
    2c0e:	ff 53 4c             	call   *0x4c(%ebx)
    2c11:	8b 5b 04             	mov    0x4(%ebx),%ebx
    2c14:	83 c4 20             	add    $0x20,%esp
    2c17:	3b 5d e4             	cmp    -0x1c(%ebp),%ebx
    2c1a:	75 e4                	jne    2c00 <root_rearrange+0xa0>
    2c1c:	8d 65 f4             	lea    -0xc(%ebp),%esp
    2c1f:	5b                   	pop    %ebx
    2c20:	5e                   	pop    %esi
    2c21:	5f                   	pop    %edi
    2c22:	5d                   	pop    %ebp
    2c23:	c3                   	ret    
    2c24:	8d b6 00 00 00 00    	lea    0x0(%esi),%esi
    2c2a:	8d bf 00 00 00 00    	lea    0x0(%edi),%edi

00002c30 <destroy_children>:
    2c30:	55                   	push   %ebp
    2c31:	89 e5                	mov    %esp,%ebp
    2c33:	57                   	push   %edi
    2c34:	56                   	push   %esi
    2c35:	53                   	push   %ebx
    2c36:	83 ec 4c             	sub    $0x4c,%esp
    2c39:	89 45 a8             	mov    %eax,-0x58(%ebp)
    2c3c:	8b 48 10             	mov    0x10(%eax),%ecx
    2c3f:	83 c0 0c             	add    $0xc,%eax
    2c42:	89 4d d4             	mov    %ecx,-0x2c(%ebp)
    2c45:	89 45 bc             	mov    %eax,-0x44(%ebp)
    2c48:	39 c1                	cmp    %eax,%ecx
    2c4a:	0f 84 af 01 00 00    	je     2dff <destroy_children+0x1cf>
    2c50:	8b 45 d4             	mov    -0x2c(%ebp),%eax
    2c53:	83 c0 0c             	add    $0xc,%eax
    2c56:	8b 48 04             	mov    0x4(%eax),%ecx
    2c59:	89 45 c0             	mov    %eax,-0x40(%ebp)
    2c5c:	89 4d d0             	mov    %ecx,-0x30(%ebp)
    2c5f:	39 c8                	cmp    %ecx,%eax
    2c61:	0f 84 79 01 00 00    	je     2de0 <destroy_children+0x1b0>
    2c67:	8b 45 d0             	mov    -0x30(%ebp),%eax
    2c6a:	83 c0 0c             	add    $0xc,%eax
    2c6d:	8b 50 04             	mov    0x4(%eax),%edx
    2c70:	89 45 b4             	mov    %eax,-0x4c(%ebp)
    2c73:	89 55 cc             	mov    %edx,-0x34(%ebp)
    2c76:	39 c2                	cmp    %eax,%edx
    2c78:	0f 84 43 01 00 00    	je     2dc1 <destroy_children+0x191>
    2c7e:	8b 45 cc             	mov    -0x34(%ebp),%eax
    2c81:	83 c0 0c             	add    $0xc,%eax
    2c84:	8b 48 04             	mov    0x4(%eax),%ecx
    2c87:	89 45 b8             	mov    %eax,-0x48(%ebp)
    2c8a:	89 4d c8             	mov    %ecx,-0x38(%ebp)
    2c8d:	39 c8                	cmp    %ecx,%eax
    2c8f:	0f 84 0d 01 00 00    	je     2da2 <destroy_children+0x172>
    2c95:	8b 45 c8             	mov    -0x38(%ebp),%eax
    2c98:	83 c0 0c             	add    $0xc,%eax
    2c9b:	8b 50 04             	mov    0x4(%eax),%edx
    2c9e:	89 45 b0             	mov    %eax,-0x50(%ebp)
    2ca1:	89 55 c4             	mov    %edx,-0x3c(%ebp)
    2ca4:	39 c2                	cmp    %eax,%edx
    2ca6:	0f 84 d7 00 00 00    	je     2d83 <destroy_children+0x153>
    2cac:	8b 45 c4             	mov    -0x3c(%ebp),%eax
    2caf:	83 c0 0c             	add    $0xc,%eax
    2cb2:	8b 48 04             	mov    0x4(%eax),%ecx
    2cb5:	89 45 ac             	mov    %eax,-0x54(%ebp)
    2cb8:	89 4d dc             	mov    %ecx,-0x24(%ebp)
    2cbb:	39 c1                	cmp    %eax,%ecx
    2cbd:	0f 84 a1 00 00 00    	je     2d64 <destroy_children+0x134>
    2cc3:	8b 45 dc             	mov    -0x24(%ebp),%eax
    2cc6:	83 c0 0c             	add    $0xc,%eax
    2cc9:	8b 48 04             	mov    0x4(%eax),%ecx
    2ccc:	89 45 d8             	mov    %eax,-0x28(%ebp)
    2ccf:	89 4d e4             	mov    %ecx,-0x1c(%ebp)
    2cd2:	39 c1                	cmp    %eax,%ecx
    2cd4:	74 6f                	je     2d45 <destroy_children+0x115>
    2cd6:	8b 45 e4             	mov    -0x1c(%ebp),%eax
    2cd9:	83 c0 0c             	add    $0xc,%eax
    2cdc:	8b 58 04             	mov    0x4(%eax),%ebx
    2cdf:	89 45 e0             	mov    %eax,-0x20(%ebp)
    2ce2:	39 c3                	cmp    %eax,%ebx
    2ce4:	0f 84 1e 01 00 00    	je     2e08 <destroy_children+0x1d8>
    2cea:	8d b6 00 00 00 00    	lea    0x0(%esi),%esi
    2cf0:	8b 7b 10             	mov    0x10(%ebx),%edi
    2cf3:	8d 73 0c             	lea    0xc(%ebx),%esi
    2cf6:	39 f7                	cmp    %esi,%edi
    2cf8:	74 1e                	je     2d18 <destroy_children+0xe8>
    2cfa:	8d b6 00 00 00 00    	lea    0x0(%esi),%esi
    2d00:	89 f8                	mov    %edi,%eax
    2d02:	e8 29 ff ff ff       	call   2c30 <destroy_children>
    2d07:	83 ec 0c             	sub    $0xc,%esp
    2d0a:	57                   	push   %edi
    2d0b:	ff 57 44             	call   *0x44(%edi)
    2d0e:	8b 7b 10             	mov    0x10(%ebx),%edi
    2d11:	83 c4 10             	add    $0x10,%esp
    2d14:	39 f7                	cmp    %esi,%edi
    2d16:	75 e8                	jne    2d00 <destroy_children+0xd0>
    2d18:	83 ec 0c             	sub    $0xc,%esp
    2d1b:	53                   	push   %ebx
    2d1c:	ff 53 44             	call   *0x44(%ebx)
    2d1f:	8b 45 e4             	mov    -0x1c(%ebp),%eax
    2d22:	83 c4 10             	add    $0x10,%esp
    2d25:	8b 58 10             	mov    0x10(%eax),%ebx
    2d28:	3b 5d e0             	cmp    -0x20(%ebp),%ebx
    2d2b:	75 c3                	jne    2cf0 <destroy_children+0xc0>
    2d2d:	83 ec 0c             	sub    $0xc,%esp
    2d30:	50                   	push   %eax
    2d31:	ff 50 44             	call   *0x44(%eax)
    2d34:	8b 45 dc             	mov    -0x24(%ebp),%eax
    2d37:	83 c4 10             	add    $0x10,%esp
    2d3a:	8b 40 10             	mov    0x10(%eax),%eax
    2d3d:	89 45 e4             	mov    %eax,-0x1c(%ebp)
    2d40:	3b 45 d8             	cmp    -0x28(%ebp),%eax
    2d43:	75 91                	jne    2cd6 <destroy_children+0xa6>
    2d45:	83 ec 0c             	sub    $0xc,%esp
    2d48:	8b 45 dc             	mov    -0x24(%ebp),%eax
    2d4b:	50                   	push   %eax
    2d4c:	ff 50 44             	call   *0x44(%eax)
    2d4f:	8b 45 c4             	mov    -0x3c(%ebp),%eax
    2d52:	83 c4 10             	add    $0x10,%esp
    2d55:	8b 40 10             	mov    0x10(%eax),%eax
    2d58:	89 45 dc             	mov    %eax,-0x24(%ebp)
    2d5b:	3b 45 ac             	cmp    -0x54(%ebp),%eax
    2d5e:	0f 85 5f ff ff ff    	jne    2cc3 <destroy_children+0x93>
    2d64:	83 ec 0c             	sub    $0xc,%esp
    2d67:	8b 45 c4             	mov    -0x3c(%ebp),%eax
    2d6a:	50                   	push   %eax
    2d6b:	ff 50 44             	call   *0x44(%eax)
    2d6e:	8b 45 c8             	mov    -0x38(%ebp),%eax
    2d71:	83 c4 10             	add    $0x10,%esp
    2d74:	8b 40 10             	mov    0x10(%eax),%eax
    2d77:	89 45 c4             	mov    %eax,-0x3c(%ebp)
    2d7a:	3b 45 b0             	cmp    -0x50(%ebp),%eax
    2d7d:	0f 85 29 ff ff ff    	jne    2cac <destroy_children+0x7c>
    2d83:	83 ec 0c             	sub    $0xc,%esp
    2d86:	8b 45 c8             	mov    -0x38(%ebp),%eax
    2d89:	50                   	push   %eax
    2d8a:	ff 50 44             	call   *0x44(%eax)
    2d8d:	8b 45 cc             	mov    -0x34(%ebp),%eax
    2d90:	83 c4 10             	add    $0x10,%esp
    2d93:	8b 40 10             	mov    0x10(%eax),%eax
    2d96:	89 45 c8             	mov    %eax,-0x38(%ebp)
    2d99:	3b 45 b8             	cmp    -0x48(%ebp),%eax
    2d9c:	0f 85 f3 fe ff ff    	jne    2c95 <destroy_children+0x65>
    2da2:	83 ec 0c             	sub    $0xc,%esp
    2da5:	8b 45 cc             	mov    -0x34(%ebp),%eax
    2da8:	50                   	push   %eax
    2da9:	ff 50 44             	call   *0x44(%eax)
    2dac:	8b 45 d0             	mov    -0x30(%ebp),%eax
    2daf:	83 c4 10             	add    $0x10,%esp
    2db2:	8b 40 10             	mov    0x10(%eax),%eax
    2db5:	89 45 cc             	mov    %eax,-0x34(%ebp)
    2db8:	3b 45 b4             	cmp    -0x4c(%ebp),%eax
    2dbb:	0f 85 bd fe ff ff    	jne    2c7e <destroy_children+0x4e>
    2dc1:	83 ec 0c             	sub    $0xc,%esp
    2dc4:	8b 45 d0             	mov    -0x30(%ebp),%eax
    2dc7:	50                   	push   %eax
    2dc8:	ff 50 44             	call   *0x44(%eax)
    2dcb:	8b 45 d4             	mov    -0x2c(%ebp),%eax
    2dce:	83 c4 10             	add    $0x10,%esp
    2dd1:	8b 40 10             	mov    0x10(%eax),%eax
    2dd4:	89 45 d0             	mov    %eax,-0x30(%ebp)
    2dd7:	3b 45 c0             	cmp    -0x40(%ebp),%eax
    2dda:	0f 85 87 fe ff ff    	jne    2c67 <destroy_children+0x37>
    2de0:	83 ec 0c             	sub    $0xc,%esp
    2de3:	8b 45 d4             	mov    -0x2c(%ebp),%eax
    2de6:	50                   	push   %eax
    2de7:	ff 50 44             	call   *0x44(%eax)
    2dea:	8b 45 a8             	mov    -0x58(%ebp),%eax
    2ded:	83 c4 10             	add    $0x10,%esp
    2df0:	8b 40 10             	mov    0x10(%eax),%eax
    2df3:	89 45 d4             	mov    %eax,-0x2c(%ebp)
    2df6:	3b 45 bc             	cmp    -0x44(%ebp),%eax
    2df9:	0f 85 51 fe ff ff    	jne    2c50 <destroy_children+0x20>
    2dff:	8d 65 f4             	lea    -0xc(%ebp),%esp
    2e02:	5b                   	pop    %ebx
    2e03:	5e                   	pop    %esi
    2e04:	5f                   	pop    %edi
    2e05:	5d                   	pop    %ebp
    2e06:	c3                   	ret    
    2e07:	90                   	nop
    2e08:	8b 45 e4             	mov    -0x1c(%ebp),%eax
    2e0b:	e9 1d ff ff ff       	jmp    2d2d <destroy_children+0xfd>

00002e10 <event_loop>:
    2e10:	55                   	push   %ebp
    2e11:	89 e5                	mov    %esp,%ebp
    2e13:	57                   	push   %edi
    2e14:	56                   	push   %esi
    2e15:	53                   	push   %ebx
    2e16:	83 ec 6c             	sub    $0x6c,%esp
    2e19:	8b 45 08             	mov    0x8(%ebp),%eax
    2e1c:	83 c0 10             	add    $0x10,%eax
    2e1f:	89 45 a4             	mov    %eax,-0x5c(%ebp)
    2e22:	8b 45 08             	mov    0x8(%ebp),%eax
    2e25:	83 c0 30             	add    $0x30,%eax
    2e28:	89 45 a0             	mov    %eax,-0x60(%ebp)
    2e2b:	8b 45 08             	mov    0x8(%ebp),%eax
    2e2e:	05 94 00 00 00       	add    $0x94,%eax
    2e33:	89 45 9c             	mov    %eax,-0x64(%ebp)
    2e36:	66 90                	xchg   %ax,%ax
    2e38:	83 ec 0c             	sub    $0xc,%esp
    2e3b:	8b 45 a4             	mov    -0x5c(%ebp),%eax
    2e3e:	50                   	push   %eax
    2e3f:	e8 ec 51 00 00       	call   8030 <prodcons_consume@plt>
    2e44:	83 c4 10             	add    $0x10,%esp
    2e47:	89 c3                	mov    %eax,%ebx
    2e49:	83 78 08 08          	cmpl   $0x8,0x8(%eax)
    2e4d:	0f 87 55 02 00 00    	ja     30a8 <event_loop+0x298>
    2e53:	8b 40 08             	mov    0x8(%eax),%eax
    2e56:	ff 24 85 20 7c 00 00 	jmp    *0x7c20(,%eax,4)
    2e5d:	8d 76 00             	lea    0x0(%esi),%esi
    2e60:	83 ec 0c             	sub    $0xc,%esp
    2e63:	8b 7d 9c             	mov    -0x64(%ebp),%edi
    2e66:	57                   	push   %edi
    2e67:	e8 04 53 00 00       	call   8170 <fibril_mutex_lock@plt>
    2e6c:	8d 45 b8             	lea    -0x48(%ebp),%eax
    2e6f:	89 04 24             	mov    %eax,(%esp)
    2e72:	8d 45 b4             	lea    -0x4c(%ebp),%eax
    2e75:	50                   	push   %eax
    2e76:	8d 45 b0             	lea    -0x50(%ebp),%eax
    2e79:	50                   	push   %eax
    2e7a:	8d 45 ac             	lea    -0x54(%ebp),%eax
    2e7d:	50                   	push   %eax
    2e7e:	8b 45 08             	mov    0x8(%ebp),%eax
    2e81:	8b b0 a4 00 00 00    	mov    0xa4(%eax),%esi
    2e87:	56                   	push   %esi
    2e88:	e8 23 38 00 00       	call   66b0 <surface_get_damaged_region>
    2e8d:	8b 45 08             	mov    0x8(%ebp),%eax
    2e90:	83 c4 14             	add    $0x14,%esp
    2e93:	8b 80 a4 00 00 00    	mov    0xa4(%eax),%eax
    2e99:	50                   	push   %eax
    2e9a:	e8 21 39 00 00       	call   67c0 <surface_reset_damaged_region>
    2e9f:	89 3c 24             	mov    %edi,(%esp)
    2ea2:	e8 09 51 00 00       	call   7fb0 <fibril_mutex_unlock@plt>
    2ea7:	8b 45 b4             	mov    -0x4c(%ebp),%eax
    2eaa:	83 c4 10             	add    $0x10,%esp
    2ead:	85 c0                	test   %eax,%eax
    2eaf:	0f 84 f3 01 00 00    	je     30a8 <event_loop+0x298>
    2eb5:	8b 55 b8             	mov    -0x48(%ebp),%edx
    2eb8:	85 d2                	test   %edx,%edx
    2eba:	0f 84 e8 01 00 00    	je     30a8 <event_loop+0x298>
    2ec0:	83 ec 0c             	sub    $0xc,%esp
    2ec3:	52                   	push   %edx
    2ec4:	50                   	push   %eax
    2ec5:	8b 45 b0             	mov    -0x50(%ebp),%eax
    2ec8:	8b 55 ac             	mov    -0x54(%ebp),%edx
    2ecb:	50                   	push   %eax
    2ecc:	8b 45 08             	mov    0x8(%ebp),%eax
    2ecf:	52                   	push   %edx
    2ed0:	8b 48 0c             	mov    0xc(%eax),%ecx
    2ed3:	51                   	push   %ecx
    2ed4:	e8 b7 51 00 00       	call   8090 <win_damage@plt>
    2ed9:	83 c4 20             	add    $0x20,%esp
    2edc:	e9 c7 01 00 00       	jmp    30a8 <event_loop+0x298>
    2ee1:	8d b4 26 00 00 00 00 	lea    0x0(%esi,%eiz,1),%esi
    2ee8:	83 ec 0c             	sub    $0xc,%esp
    2eeb:	8b 45 a0             	mov    -0x60(%ebp),%eax
    2eee:	50                   	push   %eax
    2eef:	8b 45 08             	mov    0x8(%ebp),%eax
    2ef2:	ff 90 80 00 00 00    	call   *0x80(%eax)
    2ef8:	89 1c 24             	mov    %ebx,(%esp)
    2efb:	e8 60 52 00 00       	call   8160 <free@plt>
    2f00:	83 c4 10             	add    $0x10,%esp
    2f03:	e9 30 ff ff ff       	jmp    2e38 <event_loop+0x28>
    2f08:	8b 7b 14             	mov    0x14(%ebx),%edi
    2f0b:	83 ff 2f             	cmp    $0x2f,%edi
    2f0e:	0f 86 a4 03 00 00    	jbe    32b8 <event_loop+0x4a8>
    2f14:	8b 73 18             	mov    0x18(%ebx),%esi
    2f17:	83 fe 1b             	cmp    $0x1b,%esi
    2f1a:	0f 86 98 03 00 00    	jbe    32b8 <event_loop+0x4a8>
    2f20:	8b 43 1c             	mov    0x1c(%ebx),%eax
    2f23:	8b 53 10             	mov    0x10(%ebx),%edx
    2f26:	8b 4b 0c             	mov    0xc(%ebx),%ecx
    2f29:	89 45 94             	mov    %eax,-0x6c(%ebp)
    2f2c:	6a 01                	push   $0x1
    2f2e:	89 55 90             	mov    %edx,-0x70(%ebp)
    2f31:	6a 00                	push   $0x0
    2f33:	89 4d 8c             	mov    %ecx,-0x74(%ebp)
    2f36:	56                   	push   %esi
    2f37:	57                   	push   %edi
    2f38:	e8 e3 35 00 00       	call   6520 <surface_create>
    2f3d:	83 c4 10             	add    $0x10,%esp
    2f40:	89 45 88             	mov    %eax,-0x78(%ebp)
    2f43:	85 c0                	test   %eax,%eax
    2f45:	0f 84 5d 01 00 00    	je     30a8 <event_loop+0x298>
    2f4b:	83 ec 0c             	sub    $0xc,%esp
    2f4e:	8b 4d 9c             	mov    -0x64(%ebp),%ecx
    2f51:	51                   	push   %ecx
    2f52:	e8 19 52 00 00       	call   8170 <fibril_mutex_lock@plt>
    2f57:	8b 45 08             	mov    0x8(%ebp),%eax
    2f5a:	8b 55 08             	mov    0x8(%ebp),%edx
    2f5d:	8b 80 a4 00 00 00    	mov    0xa4(%eax),%eax
    2f63:	89 45 98             	mov    %eax,-0x68(%ebp)
    2f66:	8b 45 88             	mov    -0x78(%ebp),%eax
    2f69:	89 82 a4 00 00 00    	mov    %eax,0xa4(%edx)
    2f6f:	58                   	pop    %eax
    2f70:	8b 45 9c             	mov    -0x64(%ebp),%eax
    2f73:	50                   	push   %eax
    2f74:	e8 37 50 00 00       	call   7fb0 <fibril_mutex_unlock@plt>
    2f79:	8b 45 a0             	mov    -0x60(%ebp),%eax
    2f7c:	8b 55 08             	mov    0x8(%ebp),%edx
    2f7f:	89 34 24             	mov    %esi,(%esp)
    2f82:	57                   	push   %edi
    2f83:	6a 00                	push   $0x0
    2f85:	6a 00                	push   $0x0
    2f87:	50                   	push   %eax
    2f88:	ff 52 7c             	call   *0x7c(%edx)
    2f8b:	83 c4 14             	add    $0x14,%esp
    2f8e:	8b 45 9c             	mov    -0x64(%ebp),%eax
    2f91:	50                   	push   %eax
    2f92:	e8 d9 51 00 00       	call   8170 <fibril_mutex_lock@plt>
    2f97:	8b 55 08             	mov    0x8(%ebp),%edx
    2f9a:	58                   	pop    %eax
    2f9b:	8b 82 a4 00 00 00    	mov    0xa4(%edx),%eax
    2fa1:	50                   	push   %eax
    2fa2:	e8 19 38 00 00       	call   67c0 <surface_reset_damaged_region>
    2fa7:	8b 4d 9c             	mov    -0x64(%ebp),%ecx
    2faa:	5a                   	pop    %edx
    2fab:	51                   	push   %ecx
    2fac:	e8 ff 4f 00 00       	call   7fb0 <fibril_mutex_unlock@plt>
    2fb1:	8b 45 88             	mov    -0x78(%ebp),%eax
    2fb4:	89 04 24             	mov    %eax,(%esp)
    2fb7:	e8 84 36 00 00       	call   6640 <surface_direct_access>
    2fbc:	83 c4 0c             	add    $0xc,%esp
    2fbf:	50                   	push   %eax
    2fc0:	8b 45 94             	mov    -0x6c(%ebp),%eax
    2fc3:	50                   	push   %eax
    2fc4:	8b 45 90             	mov    -0x70(%ebp),%eax
    2fc7:	56                   	push   %esi
    2fc8:	8b 75 08             	mov    0x8(%ebp),%esi
    2fcb:	57                   	push   %edi
    2fcc:	50                   	push   %eax
    2fcd:	8b 45 8c             	mov    -0x74(%ebp),%eax
    2fd0:	50                   	push   %eax
    2fd1:	8b 46 0c             	mov    0xc(%esi),%eax
    2fd4:	50                   	push   %eax
    2fd5:	e8 96 4f 00 00       	call   7f70 <win_resize@plt>
    2fda:	83 c4 20             	add    $0x20,%esp
    2fdd:	85 c0                	test   %eax,%eax
    2fdf:	0f 84 2b 03 00 00    	je     3310 <event_loop+0x500>
    2fe5:	8b 7d 98             	mov    -0x68(%ebp),%edi
    2fe8:	c7 45 b4 00 00 00 00 	movl   $0x0,-0x4c(%ebp)
    2fef:	c7 45 b8 00 00 00 00 	movl   $0x0,-0x48(%ebp)
    2ff6:	85 ff                	test   %edi,%edi
    2ff8:	74 12                	je     300c <event_loop+0x1fc>
    2ffa:	8d 45 b8             	lea    -0x48(%ebp),%eax
    2ffd:	52                   	push   %edx
    2ffe:	50                   	push   %eax
    2fff:	8d 45 b4             	lea    -0x4c(%ebp),%eax
    3002:	50                   	push   %eax
    3003:	57                   	push   %edi
    3004:	e8 57 36 00 00       	call   6660 <surface_get_resolution>
    3009:	83 c4 10             	add    $0x10,%esp
    300c:	83 ec 0c             	sub    $0xc,%esp
    300f:	8b 7d 9c             	mov    -0x64(%ebp),%edi
    3012:	57                   	push   %edi
    3013:	e8 58 51 00 00       	call   8170 <fibril_mutex_lock@plt>
    3018:	8b 45 08             	mov    0x8(%ebp),%eax
    301b:	8b 55 98             	mov    -0x68(%ebp),%edx
    301e:	8b b0 a4 00 00 00    	mov    0xa4(%eax),%esi
    3024:	89 90 a4 00 00 00    	mov    %edx,0xa4(%eax)
    302a:	89 3c 24             	mov    %edi,(%esp)
    302d:	e8 7e 4f 00 00       	call   7fb0 <fibril_mutex_unlock@plt>
    3032:	58                   	pop    %eax
    3033:	8b 45 b8             	mov    -0x48(%ebp),%eax
    3036:	50                   	push   %eax
    3037:	8b 45 b4             	mov    -0x4c(%ebp),%eax
    303a:	50                   	push   %eax
    303b:	8b 45 a0             	mov    -0x60(%ebp),%eax
    303e:	6a 00                	push   $0x0
    3040:	6a 00                	push   $0x0
    3042:	50                   	push   %eax
    3043:	8b 45 08             	mov    0x8(%ebp),%eax
    3046:	ff 50 7c             	call   *0x7c(%eax)
    3049:	8b 45 08             	mov    0x8(%ebp),%eax
    304c:	8b 80 a4 00 00 00    	mov    0xa4(%eax),%eax
    3052:	83 c4 20             	add    $0x20,%esp
    3055:	85 c0                	test   %eax,%eax
    3057:	74 24                	je     307d <event_loop+0x26d>
    3059:	83 ec 0c             	sub    $0xc,%esp
    305c:	57                   	push   %edi
    305d:	e8 0e 51 00 00       	call   8170 <fibril_mutex_lock@plt>
    3062:	8b 45 08             	mov    0x8(%ebp),%eax
    3065:	59                   	pop    %ecx
    3066:	8b 80 a4 00 00 00    	mov    0xa4(%eax),%eax
    306c:	50                   	push   %eax
    306d:	e8 4e 37 00 00       	call   67c0 <surface_reset_damaged_region>
    3072:	89 3c 24             	mov    %edi,(%esp)
    3075:	e8 36 4f 00 00       	call   7fb0 <fibril_mutex_unlock@plt>
    307a:	83 c4 10             	add    $0x10,%esp
    307d:	83 ec 0c             	sub    $0xc,%esp
    3080:	56                   	push   %esi
    3081:	e8 6a 35 00 00       	call   65f0 <surface_destroy>
    3086:	89 1c 24             	mov    %ebx,(%esp)
    3089:	e8 d2 50 00 00       	call   8160 <free@plt>
    308e:	83 c4 10             	add    $0x10,%esp
    3091:	e9 a2 fd ff ff       	jmp    2e38 <event_loop+0x28>
    3096:	66 90                	xchg   %ax,%ax
    3098:	8b 45 08             	mov    0x8(%ebp),%eax
    309b:	80 78 02 00          	cmpb   $0x0,0x2(%eax)
    309f:	0f 85 3b 02 00 00    	jne    32e0 <event_loop+0x4d0>
    30a5:	8d 76 00             	lea    0x0(%esi),%esi
    30a8:	83 ec 0c             	sub    $0xc,%esp
    30ab:	53                   	push   %ebx
    30ac:	e8 af 50 00 00       	call   8160 <free@plt>
    30b1:	83 c4 10             	add    $0x10,%esp
    30b4:	e9 7f fd ff ff       	jmp    2e38 <event_loop+0x28>
    30b9:	8d b4 26 00 00 00 00 	lea    0x0(%esi,%eiz,1),%esi
    30c0:	8b 45 08             	mov    0x8(%ebp),%eax
    30c3:	80 78 02 00          	cmpb   $0x0,0x2(%eax)
    30c7:	75 df                	jne    30a8 <event_loop+0x298>
    30c9:	c6 40 02 01          	movb   $0x1,0x2(%eax)
    30cd:	83 ec 0c             	sub    $0xc,%esp
    30d0:	8b 55 a0             	mov    -0x60(%ebp),%edx
    30d3:	52                   	push   %edx
    30d4:	ff 90 80 00 00 00    	call   *0x80(%eax)
    30da:	89 1c 24             	mov    %ebx,(%esp)
    30dd:	e8 7e 50 00 00       	call   8160 <free@plt>
    30e2:	83 c4 10             	add    $0x10,%esp
    30e5:	e9 4e fd ff ff       	jmp    2e38 <event_loop+0x28>
    30ea:	8d b6 00 00 00 00    	lea    0x0(%esi),%esi
    30f0:	8b 73 14             	mov    0x14(%ebx),%esi
    30f3:	50                   	push   %eax
    30f4:	50                   	push   %eax
    30f5:	56                   	push   %esi
    30f6:	8b 53 0c             	mov    0xc(%ebx),%edx
    30f9:	52                   	push   %edx
    30fa:	ff 53 10             	call   *0x10(%ebx)
    30fd:	89 34 24             	mov    %esi,(%esp)
    3100:	e8 5b 50 00 00       	call   8160 <free@plt>
    3105:	89 1c 24             	mov    %ebx,(%esp)
    3108:	e8 53 50 00 00       	call   8160 <free@plt>
    310d:	83 c4 10             	add    $0x10,%esp
    3110:	e9 23 fd ff ff       	jmp    2e38 <event_loop+0x28>
    3115:	8d 76 00             	lea    0x0(%esi),%esi
    3118:	8b 45 08             	mov    0x8(%ebp),%eax
    311b:	80 78 02 00          	cmpb   $0x0,0x2(%eax)
    311f:	0f 84 cb 01 00 00    	je     32f0 <event_loop+0x4e0>
    3125:	8b 43 14             	mov    0x14(%ebx),%eax
    3128:	8b 53 0c             	mov    0xc(%ebx),%edx
    312b:	89 45 98             	mov    %eax,-0x68(%ebp)
    312e:	89 45 c4             	mov    %eax,-0x3c(%ebp)
    3131:	8b 45 08             	mov    0x8(%ebp),%eax
    3134:	8b 4b 10             	mov    0x10(%ebx),%ecx
    3137:	8b 73 18             	mov    0x18(%ebx),%esi
    313a:	8b 7b 1c             	mov    0x1c(%ebx),%edi
    313d:	8b 80 8c 00 00 00    	mov    0x8c(%eax),%eax
    3143:	89 55 bc             	mov    %edx,-0x44(%ebp)
    3146:	89 4d c0             	mov    %ecx,-0x40(%ebp)
    3149:	89 75 c8             	mov    %esi,-0x38(%ebp)
    314c:	89 7d cc             	mov    %edi,-0x34(%ebp)
    314f:	85 c0                	test   %eax,%eax
    3151:	0f 84 11 02 00 00    	je     3368 <event_loop+0x558>
    3157:	83 ec 08             	sub    $0x8,%esp
    315a:	57                   	push   %edi
    315b:	56                   	push   %esi
    315c:	8b 75 98             	mov    -0x68(%ebp),%esi
    315f:	56                   	push   %esi
    3160:	51                   	push   %ecx
    3161:	52                   	push   %edx
    3162:	50                   	push   %eax
    3163:	ff 50 58             	call   *0x58(%eax)
    3166:	83 c4 14             	add    $0x14,%esp
    3169:	53                   	push   %ebx
    316a:	e8 f1 4f 00 00       	call   8160 <free@plt>
    316f:	83 c4 10             	add    $0x10,%esp
    3172:	e9 c1 fc ff ff       	jmp    2e38 <event_loop+0x28>
    3177:	90                   	nop
    3178:	8b 45 08             	mov    0x8(%ebp),%eax
    317b:	8b 75 a0             	mov    -0x60(%ebp),%esi
    317e:	0f b6 38             	movzbl (%eax),%edi
    3181:	89 f0                	mov    %esi,%eax
    3183:	e8 a8 fa ff ff       	call   2c30 <destroy_children>
    3188:	83 ec 0c             	sub    $0xc,%esp
    318b:	8b 45 08             	mov    0x8(%ebp),%eax
    318e:	56                   	push   %esi
    318f:	ff 50 74             	call   *0x74(%eax)
    3192:	8b 45 08             	mov    0x8(%ebp),%eax
    3195:	c7 80 8c 00 00 00 00 	movl   $0x0,0x8c(%eax)
    319c:	00 00 00 
    319f:	c7 80 90 00 00 00 00 	movl   $0x0,0x90(%eax)
    31a6:	00 00 00 
    31a9:	8b 40 0c             	mov    0xc(%eax),%eax
    31ac:	5e                   	pop    %esi
    31ad:	50                   	push   %eax
    31ae:	e8 fd 4e 00 00       	call   80b0 <win_close@plt>
    31b3:	58                   	pop    %eax
    31b4:	8b 45 08             	mov    0x8(%ebp),%eax
    31b7:	8b 40 08             	mov    0x8(%eax),%eax
    31ba:	50                   	push   %eax
    31bb:	e8 20 4d 00 00       	call   7ee0 <async_hangup@plt>
    31c0:	58                   	pop    %eax
    31c1:	8b 45 08             	mov    0x8(%ebp),%eax
    31c4:	8b 40 0c             	mov    0xc(%eax),%eax
    31c7:	50                   	push   %eax
    31c8:	e8 13 4d 00 00       	call   7ee0 <async_hangup@plt>
    31cd:	8b 45 08             	mov    0x8(%ebp),%eax
    31d0:	8b 75 08             	mov    0x8(%ebp),%esi
    31d3:	83 c6 28             	add    $0x28,%esi
    31d6:	83 c4 10             	add    $0x10,%esp
    31d9:	8b 40 2c             	mov    0x2c(%eax),%eax
    31dc:	39 c6                	cmp    %eax,%esi
    31de:	74 3f                	je     321f <event_loop+0x40f>
    31e0:	89 5d a4             	mov    %ebx,-0x5c(%ebp)
    31e3:	8b 5d 08             	mov    0x8(%ebp),%ebx
    31e6:	66 90                	xchg   %ax,%ax
    31e8:	8b 08                	mov    (%eax),%ecx
    31ea:	85 c9                	test   %ecx,%ecx
    31ec:	74 0e                	je     31fc <event_loop+0x3ec>
    31ee:	8b 50 04             	mov    0x4(%eax),%edx
    31f1:	85 d2                	test   %edx,%edx
    31f3:	74 07                	je     31fc <event_loop+0x3ec>
    31f5:	89 0a                	mov    %ecx,(%edx)
    31f7:	8b 08                	mov    (%eax),%ecx
    31f9:	89 51 04             	mov    %edx,0x4(%ecx)
    31fc:	83 ec 0c             	sub    $0xc,%esp
    31ff:	c7 00 00 00 00 00    	movl   $0x0,(%eax)
    3205:	c7 40 04 00 00 00 00 	movl   $0x0,0x4(%eax)
    320c:	50                   	push   %eax
    320d:	e8 4e 4f 00 00       	call   8160 <free@plt>
    3212:	8b 43 2c             	mov    0x2c(%ebx),%eax
    3215:	83 c4 10             	add    $0x10,%esp
    3218:	39 f0                	cmp    %esi,%eax
    321a:	75 cc                	jne    31e8 <event_loop+0x3d8>
    321c:	8b 5d a4             	mov    -0x5c(%ebp),%ebx
    321f:	8b 45 08             	mov    0x8(%ebp),%eax
    3222:	8b 80 a4 00 00 00    	mov    0xa4(%eax),%eax
    3228:	85 c0                	test   %eax,%eax
    322a:	74 0c                	je     3238 <event_loop+0x428>
    322c:	83 ec 0c             	sub    $0xc,%esp
    322f:	50                   	push   %eax
    3230:	e8 bb 33 00 00       	call   65f0 <surface_destroy>
    3235:	83 c4 10             	add    $0x10,%esp
    3238:	8b 45 08             	mov    0x8(%ebp),%eax
    323b:	83 ec 0c             	sub    $0xc,%esp
    323e:	8b 40 04             	mov    0x4(%eax),%eax
    3241:	50                   	push   %eax
    3242:	e8 19 4f 00 00       	call   8160 <free@plt>
    3247:	8b 4d 08             	mov    0x8(%ebp),%ecx
    324a:	5a                   	pop    %edx
    324b:	51                   	push   %ecx
    324c:	e8 0f 4f 00 00       	call   8160 <free@plt>
    3251:	89 1c 24             	mov    %ebx,(%esp)
    3254:	e8 07 4f 00 00       	call   8160 <free@plt>
    3259:	89 f8                	mov    %edi,%eax
    325b:	83 c4 10             	add    $0x10,%esp
    325e:	84 c0                	test   %al,%al
    3260:	0f 85 2a 01 00 00    	jne    3390 <event_loop+0x580>
    3266:	8d 65 f4             	lea    -0xc(%ebp),%esp
    3269:	31 c0                	xor    %eax,%eax
    326b:	5b                   	pop    %ebx
    326c:	5e                   	pop    %esi
    326d:	5f                   	pop    %edi
    326e:	5d                   	pop    %ebp
    326f:	c3                   	ret    
    3270:	8b 45 08             	mov    0x8(%ebp),%eax
    3273:	8d 55 d0             	lea    -0x30(%ebp),%edx
    3276:	8d 73 0c             	lea    0xc(%ebx),%esi
    3279:	b9 06 00 00 00       	mov    $0x6,%ecx
    327e:	89 d7                	mov    %edx,%edi
    3280:	8b 80 90 00 00 00    	mov    0x90(%eax),%eax
    3286:	f3 a5                	rep movsl %ds:(%esi),%es:(%edi)
    3288:	85 c0                	test   %eax,%eax
    328a:	0f 84 a8 00 00 00    	je     3338 <event_loop+0x528>
    3290:	83 ec 1c             	sub    $0x1c,%esp
    3293:	89 d6                	mov    %edx,%esi
    3295:	89 e7                	mov    %esp,%edi
    3297:	b9 06 00 00 00       	mov    $0x6,%ecx
    329c:	f3 a5                	rep movsl %ds:(%esi),%es:(%edi)
    329e:	50                   	push   %eax
    329f:	ff 50 54             	call   *0x54(%eax)
    32a2:	83 c4 14             	add    $0x14,%esp
    32a5:	53                   	push   %ebx
    32a6:	e8 b5 4e 00 00       	call   8160 <free@plt>
    32ab:	83 c4 10             	add    $0x10,%esp
    32ae:	e9 85 fb ff ff       	jmp    2e38 <event_loop+0x28>
    32b3:	90                   	nop
    32b4:	8d 74 26 00          	lea    0x0(%esi,%eiz,1),%esi
    32b8:	8b 45 08             	mov    0x8(%ebp),%eax
    32bb:	83 ec 0c             	sub    $0xc,%esp
    32be:	8b 40 0c             	mov    0xc(%eax),%eax
    32c1:	6a 00                	push   $0x0
    32c3:	6a 00                	push   $0x0
    32c5:	6a 00                	push   $0x0
    32c7:	6a 00                	push   $0x0
    32c9:	50                   	push   %eax
    32ca:	e8 c1 4d 00 00       	call   8090 <win_damage@plt>
    32cf:	83 c4 14             	add    $0x14,%esp
    32d2:	53                   	push   %ebx
    32d3:	e8 88 4e 00 00       	call   8160 <free@plt>
    32d8:	83 c4 10             	add    $0x10,%esp
    32db:	e9 58 fb ff ff       	jmp    2e38 <event_loop+0x28>
    32e0:	c6 40 02 00          	movb   $0x0,0x2(%eax)
    32e4:	e9 e4 fd ff ff       	jmp    30cd <event_loop+0x2bd>
    32e9:	8d b4 26 00 00 00 00 	lea    0x0(%esi,%eiz,1),%esi
    32f0:	83 ec 0c             	sub    $0xc,%esp
    32f3:	8b 7d a0             	mov    -0x60(%ebp),%edi
    32f6:	c6 40 02 01          	movb   $0x1,0x2(%eax)
    32fa:	57                   	push   %edi
    32fb:	ff 90 80 00 00 00    	call   *0x80(%eax)
    3301:	83 c4 10             	add    $0x10,%esp
    3304:	e9 1c fe ff ff       	jmp    3125 <event_loop+0x315>
    3309:	8d b4 26 00 00 00 00 	lea    0x0(%esi,%eiz,1),%esi
    3310:	8b 45 98             	mov    -0x68(%ebp),%eax
    3313:	85 c0                	test   %eax,%eax
    3315:	0f 84 8d fd ff ff    	je     30a8 <event_loop+0x298>
    331b:	83 ec 0c             	sub    $0xc,%esp
    331e:	50                   	push   %eax
    331f:	e8 cc 32 00 00       	call   65f0 <surface_destroy>
    3324:	89 1c 24             	mov    %ebx,(%esp)
    3327:	e8 34 4e 00 00       	call   8160 <free@plt>
    332c:	83 c4 10             	add    $0x10,%esp
    332f:	e9 04 fb ff ff       	jmp    2e38 <event_loop+0x28>
    3334:	8d 74 26 00          	lea    0x0(%esi,%eiz,1),%esi
    3338:	83 ec 1c             	sub    $0x1c,%esp
    333b:	89 d6                	mov    %edx,%esi
    333d:	89 e7                	mov    %esp,%edi
    333f:	b9 06 00 00 00       	mov    $0x6,%ecx
    3344:	f3 a5                	rep movsl %ds:(%esi),%es:(%edi)
    3346:	8b 45 a0             	mov    -0x60(%ebp),%eax
    3349:	50                   	push   %eax
    334a:	8b 45 08             	mov    0x8(%ebp),%eax
    334d:	ff 90 84 00 00 00    	call   *0x84(%eax)
    3353:	83 c4 14             	add    $0x14,%esp
    3356:	53                   	push   %ebx
    3357:	e8 04 4e 00 00       	call   8160 <free@plt>
    335c:	83 c4 10             	add    $0x10,%esp
    335f:	e9 d4 fa ff ff       	jmp    2e38 <event_loop+0x28>
    3364:	8d 74 26 00          	lea    0x0(%esi,%eiz,1),%esi
    3368:	50                   	push   %eax
    3369:	50                   	push   %eax
    336a:	8b 45 98             	mov    -0x68(%ebp),%eax
    336d:	57                   	push   %edi
    336e:	56                   	push   %esi
    336f:	50                   	push   %eax
    3370:	8b 45 a0             	mov    -0x60(%ebp),%eax
    3373:	51                   	push   %ecx
    3374:	52                   	push   %edx
    3375:	50                   	push   %eax
    3376:	8b 45 08             	mov    0x8(%ebp),%eax
    3379:	ff 90 88 00 00 00    	call   *0x88(%eax)
    337f:	83 c4 14             	add    $0x14,%esp
    3382:	53                   	push   %ebx
    3383:	e8 d8 4d 00 00       	call   8160 <free@plt>
    3388:	83 c4 10             	add    $0x10,%esp
    338b:	e9 a8 fa ff ff       	jmp    2e38 <event_loop+0x28>
    3390:	83 ec 0c             	sub    $0xc,%esp
    3393:	6a 00                	push   $0x0
    3395:	e8 36 4d 00 00       	call   80d0 <exit@plt>
    339a:	8d b6 00 00 00 00    	lea    0x0(%esi),%esi

000033a0 <root_repaint>:
    33a0:	55                   	push   %ebp
    33a1:	89 e5                	mov    %esp,%ebp
    33a3:	57                   	push   %edi
    33a4:	56                   	push   %esi
    33a5:	53                   	push   %ebx
    33a6:	83 ec 0c             	sub    $0xc,%esp
    33a9:	8b 7d 08             	mov    0x8(%ebp),%edi
    33ac:	8b 47 14             	mov    0x14(%edi),%eax
    33af:	80 78 01 00          	cmpb   $0x0,0x1(%eax)
    33b3:	75 2d                	jne    33e2 <root_repaint+0x42>
    33b5:	8b 5f 10             	mov    0x10(%edi),%ebx
    33b8:	8d 77 0c             	lea    0xc(%edi),%esi
    33bb:	39 de                	cmp    %ebx,%esi
    33bd:	74 1b                	je     33da <root_repaint+0x3a>
    33bf:	90                   	nop
    33c0:	83 ec 0c             	sub    $0xc,%esp
    33c3:	53                   	push   %ebx
    33c4:	ff 53 50             	call   *0x50(%ebx)
    33c7:	8b 5b 04             	mov    0x4(%ebx),%ebx
    33ca:	83 c4 10             	add    $0x10,%esp
    33cd:	39 f3                	cmp    %esi,%ebx
    33cf:	75 ef                	jne    33c0 <root_repaint+0x20>
    33d1:	8b 5f 14             	mov    0x14(%edi),%ebx
    33d4:	80 7b 01 00          	cmpb   $0x0,0x1(%ebx)
    33d8:	75 26                	jne    3400 <root_repaint+0x60>
    33da:	8d 65 f4             	lea    -0xc(%ebp),%esp
    33dd:	5b                   	pop    %ebx
    33de:	5e                   	pop    %esi
    33df:	5f                   	pop    %edi
    33e0:	5d                   	pop    %ebp
    33e1:	c3                   	ret    
    33e2:	89 f8                	mov    %edi,%eax
    33e4:	8d 77 0c             	lea    0xc(%edi),%esi
    33e7:	e8 24 f3 ff ff       	call   2710 <paint_internal>
    33ec:	8b 5f 10             	mov    0x10(%edi),%ebx
    33ef:	39 f3                	cmp    %esi,%ebx
    33f1:	75 cd                	jne    33c0 <root_repaint+0x20>
    33f3:	8b 5f 14             	mov    0x14(%edi),%ebx
    33f6:	80 7b 01 00          	cmpb   $0x0,0x1(%ebx)
    33fa:	74 de                	je     33da <root_repaint+0x3a>
    33fc:	8d 74 26 00          	lea    0x0(%esi,%eiz,1),%esi
    3400:	83 ec 0c             	sub    $0xc,%esp
    3403:	6a 24                	push   $0x24
    3405:	e8 26 4b 00 00       	call   7f30 <malloc@plt>
    340a:	83 c4 10             	add    $0x10,%esp
    340d:	85 c0                	test   %eax,%eax
    340f:	74 c9                	je     33da <root_repaint+0x3a>
    3411:	83 c3 10             	add    $0x10,%ebx
    3414:	c7 00 00 00 00 00    	movl   $0x0,(%eax)
    341a:	c7 40 04 00 00 00 00 	movl   $0x0,0x4(%eax)
    3421:	c7 40 08 07 00 00 00 	movl   $0x7,0x8(%eax)
    3428:	52                   	push   %edx
    3429:	52                   	push   %edx
    342a:	50                   	push   %eax
    342b:	53                   	push   %ebx
    342c:	e8 8f 4c 00 00       	call   80c0 <prodcons_produce@plt>
    3431:	83 c4 10             	add    $0x10,%esp
    3434:	8d 65 f4             	lea    -0xc(%ebp),%esp
    3437:	5b                   	pop    %ebx
    3438:	5e                   	pop    %esi
    3439:	5f                   	pop    %edi
    343a:	5d                   	pop    %ebp
    343b:	c3                   	ret    
    343c:	8d 74 26 00          	lea    0x0(%esi,%eiz,1),%esi

00003440 <window_open>:
    3440:	55                   	push   %ebp
    3441:	89 e5                	mov    %esp,%ebp
    3443:	57                   	push   %edi
    3444:	56                   	push   %esi
    3445:	53                   	push   %ebx
    3446:	83 ec 28             	sub    $0x28,%esp
    3449:	8b 75 10             	mov    0x10(%ebp),%esi
    344c:	68 a8 00 00 00       	push   $0xa8
    3451:	e8 da 4a 00 00       	call   7f30 <malloc@plt>
    3456:	83 c4 10             	add    $0x10,%esp
    3459:	89 c3                	mov    %eax,%ebx
    345b:	85 c0                	test   %eax,%eax
    345d:	0f 84 3b 01 00 00    	je     359e <window_open+0x15e>
    3463:	89 f0                	mov    %esi,%eax
    3465:	83 ec 0c             	sub    $0xc,%esp
    3468:	88 03                	mov    %al,(%ebx)
    346a:	89 f0                	mov    %esi,%eax
    346c:	80 23 01             	andb   $0x1,(%ebx)
    346f:	c6 43 02 01          	movb   $0x1,0x2(%ebx)
    3473:	d1 e8                	shr    %eax
    3475:	83 e0 01             	and    $0x1,%eax
    3478:	88 43 01             	mov    %al,0x1(%ebx)
    347b:	8d 43 10             	lea    0x10(%ebx),%eax
    347e:	50                   	push   %eax
    347f:	e8 6c 4b 00 00       	call   7ff0 <prodcons_initialize@plt>
    3484:	8d 83 94 00 00 00    	lea    0x94(%ebx),%eax
    348a:	89 04 24             	mov    %eax,(%esp)
    348d:	e8 3e 4b 00 00       	call   7fd0 <fibril_mutex_initialize@plt>
    3492:	83 c4 0c             	add    $0xc,%esp
    3495:	8b 45 0c             	mov    0xc(%ebp),%eax
    3498:	50                   	push   %eax
    3499:	8d 43 30             	lea    0x30(%ebx),%eax
    349c:	6a 00                	push   $0x0
    349e:	50                   	push   %eax
    349f:	e8 9c ed ff ff       	call   2240 <widget_init>
    34a4:	83 c4 0c             	add    $0xc,%esp
    34a7:	8d 45 dc             	lea    -0x24(%ebp),%eax
    34aa:	89 5b 44             	mov    %ebx,0x44(%ebx)
    34ad:	c7 43 74 80 26 00 00 	movl   $0x2680,0x74(%ebx)
    34b4:	c7 43 78 c0 2a 00 00 	movl   $0x2ac0,0x78(%ebx)
    34bb:	c7 43 7c 60 2b 00 00 	movl   $0x2b60,0x7c(%ebx)
    34c2:	c7 83 80 00 00 00 a0 	movl   $0x33a0,0x80(%ebx)
    34c9:	33 00 00 
    34cc:	c7 83 84 00 00 00 40 	movl   $0x2340,0x84(%ebx)
    34d3:	23 00 00 
    34d6:	c7 83 88 00 00 00 80 	movl   $0x2380,0x88(%ebx)
    34dd:	23 00 00 
    34e0:	c7 83 8c 00 00 00 00 	movl   $0x0,0x8c(%ebx)
    34e7:	00 00 00 
    34ea:	c7 83 90 00 00 00 00 	movl   $0x0,0x90(%ebx)
    34f1:	00 00 00 
    34f4:	c7 83 a4 00 00 00 00 	movl   $0x0,0xa4(%ebx)
    34fb:	00 00 00 
    34fe:	6a 00                	push   $0x0
    3500:	50                   	push   %eax
    3501:	8b 45 08             	mov    0x8(%ebp),%eax
    3504:	50                   	push   %eax
    3505:	e8 46 4a 00 00       	call   7f50 <loc_service_get_id@plt>
    350a:	83 c4 10             	add    $0x10,%esp
    350d:	85 c0                	test   %eax,%eax
    350f:	0f 85 93 00 00 00    	jne    35a8 <window_open+0x168>
    3515:	50                   	push   %eax
    3516:	8b 45 dc             	mov    -0x24(%ebp),%eax
    3519:	6a 00                	push   $0x0
    351b:	68 31 6e c3 e7       	push   $0xe7c36e31
    3520:	50                   	push   %eax
    3521:	e8 9a 49 00 00       	call   7ec0 <loc_service_connect@plt>
    3526:	83 c4 10             	add    $0x10,%esp
    3529:	89 c7                	mov    %eax,%edi
    352b:	85 c0                	test   %eax,%eax
    352d:	74 79                	je     35a8 <window_open+0x168>
    352f:	8d 45 e4             	lea    -0x1c(%ebp),%eax
    3532:	50                   	push   %eax
    3533:	8d 45 e0             	lea    -0x20(%ebp),%eax
    3536:	50                   	push   %eax
    3537:	56                   	push   %esi
    3538:	57                   	push   %edi
    3539:	e8 c2 4a 00 00       	call   8000 <win_register@plt>
    353e:	89 c6                	mov    %eax,%esi
    3540:	89 3c 24             	mov    %edi,(%esp)
    3543:	e8 98 49 00 00       	call   7ee0 <async_hangup@plt>
    3548:	83 c4 10             	add    $0x10,%esp
    354b:	85 f6                	test   %esi,%esi
    354d:	75 59                	jne    35a8 <window_open+0x168>
    354f:	50                   	push   %eax
    3550:	8b 45 e4             	mov    -0x1c(%ebp),%eax
    3553:	6a 00                	push   $0x0
    3555:	68 31 6e c3 e7       	push   $0xe7c36e31
    355a:	50                   	push   %eax
    355b:	e8 60 49 00 00       	call   7ec0 <loc_service_connect@plt>
    3560:	83 c4 10             	add    $0x10,%esp
    3563:	89 43 0c             	mov    %eax,0xc(%ebx)
    3566:	85 c0                	test   %eax,%eax
    3568:	74 3e                	je     35a8 <window_open+0x168>
    356a:	8b 7d e0             	mov    -0x20(%ebp),%edi
    356d:	56                   	push   %esi
    356e:	6a 00                	push   $0x0
    3570:	68 31 6e c3 e7       	push   $0xe7c36e31
    3575:	57                   	push   %edi
    3576:	e8 45 49 00 00       	call   7ec0 <loc_service_connect@plt>
    357b:	83 c4 10             	add    $0x10,%esp
    357e:	89 43 08             	mov    %eax,0x8(%ebx)
    3581:	85 c0                	test   %eax,%eax
    3583:	74 4c                	je     35d1 <window_open+0x191>
    3585:	8b 55 14             	mov    0x14(%ebp),%edx
    3588:	85 d2                	test   %edx,%edx
    358a:	74 34                	je     35c0 <window_open+0x180>
    358c:	83 ec 0c             	sub    $0xc,%esp
    358f:	8b 45 14             	mov    0x14(%ebp),%eax
    3592:	50                   	push   %eax
    3593:	e8 28 4a 00 00       	call   7fc0 <str_dup@plt>
    3598:	83 c4 10             	add    $0x10,%esp
    359b:	89 43 04             	mov    %eax,0x4(%ebx)
    359e:	8d 65 f4             	lea    -0xc(%ebp),%esp
    35a1:	89 d8                	mov    %ebx,%eax
    35a3:	5b                   	pop    %ebx
    35a4:	5e                   	pop    %esi
    35a5:	5f                   	pop    %edi
    35a6:	5d                   	pop    %ebp
    35a7:	c3                   	ret    
    35a8:	83 ec 0c             	sub    $0xc,%esp
    35ab:	53                   	push   %ebx
    35ac:	e8 af 4b 00 00       	call   8160 <free@plt>
    35b1:	83 c4 10             	add    $0x10,%esp
    35b4:	8d 65 f4             	lea    -0xc(%ebp),%esp
    35b7:	31 db                	xor    %ebx,%ebx
    35b9:	89 d8                	mov    %ebx,%eax
    35bb:	5b                   	pop    %ebx
    35bc:	5e                   	pop    %esi
    35bd:	5f                   	pop    %edi
    35be:	5d                   	pop    %ebp
    35bf:	c3                   	ret    
    35c0:	c7 43 04 00 00 00 00 	movl   $0x0,0x4(%ebx)
    35c7:	8d 65 f4             	lea    -0xc(%ebp),%esp
    35ca:	89 d8                	mov    %ebx,%eax
    35cc:	5b                   	pop    %ebx
    35cd:	5e                   	pop    %esi
    35ce:	5f                   	pop    %edi
    35cf:	5d                   	pop    %ebp
    35d0:	c3                   	ret    
    35d1:	83 ec 0c             	sub    $0xc,%esp
    35d4:	8b 4b 0c             	mov    0xc(%ebx),%ecx
    35d7:	51                   	push   %ecx
    35d8:	e8 03 49 00 00       	call   7ee0 <async_hangup@plt>
    35dd:	89 1c 24             	mov    %ebx,(%esp)
    35e0:	e8 7b 4b 00 00       	call   8160 <free@plt>
    35e5:	31 db                	xor    %ebx,%ebx
    35e7:	83 c4 10             	add    $0x10,%esp
    35ea:	eb b2                	jmp    359e <window_open+0x15e>
    35ec:	8d 74 26 00          	lea    0x0(%esi,%eiz,1),%esi

000035f0 <window_resize>:
    35f0:	55                   	push   %ebp
    35f1:	89 e5                	mov    %esp,%ebp
    35f3:	57                   	push   %edi
    35f4:	56                   	push   %esi
    35f5:	53                   	push   %ebx
    35f6:	83 ec 28             	sub    $0x28,%esp
    35f9:	8b 45 08             	mov    0x8(%ebp),%eax
    35fc:	8b 55 18             	mov    0x18(%ebp),%edx
    35ff:	8b 4d 1c             	mov    0x1c(%ebp),%ecx
    3602:	6a 24                	push   $0x24
    3604:	89 45 e4             	mov    %eax,-0x1c(%ebp)
    3607:	8b 7d 0c             	mov    0xc(%ebp),%edi
    360a:	8b 75 10             	mov    0x10(%ebp),%esi
    360d:	8b 5d 14             	mov    0x14(%ebp),%ebx
    3610:	89 55 e0             	mov    %edx,-0x20(%ebp)
    3613:	89 4d dc             	mov    %ecx,-0x24(%ebp)
    3616:	e8 15 49 00 00       	call   7f30 <malloc@plt>
    361b:	83 c4 10             	add    $0x10,%esp
    361e:	85 c0                	test   %eax,%eax
    3620:	74 46                	je     3668 <window_resize+0x78>
    3622:	8b 55 e0             	mov    -0x20(%ebp),%edx
    3625:	8b 4d dc             	mov    -0x24(%ebp),%ecx
    3628:	c7 00 00 00 00 00    	movl   $0x0,(%eax)
    362e:	c7 40 04 00 00 00 00 	movl   $0x0,0x4(%eax)
    3635:	c7 40 08 05 00 00 00 	movl   $0x5,0x8(%eax)
    363c:	89 78 0c             	mov    %edi,0xc(%eax)
    363f:	89 70 10             	mov    %esi,0x10(%eax)
    3642:	89 58 14             	mov    %ebx,0x14(%eax)
    3645:	89 50 18             	mov    %edx,0x18(%eax)
    3648:	89 48 1c             	mov    %ecx,0x1c(%eax)
    364b:	89 45 0c             	mov    %eax,0xc(%ebp)
    364e:	8b 45 e4             	mov    -0x1c(%ebp),%eax
    3651:	83 c0 10             	add    $0x10,%eax
    3654:	89 45 08             	mov    %eax,0x8(%ebp)
    3657:	8d 65 f4             	lea    -0xc(%ebp),%esp
    365a:	5b                   	pop    %ebx
    365b:	5e                   	pop    %esi
    365c:	5f                   	pop    %edi
    365d:	5d                   	pop    %ebp
    365e:	e9 5d 4a 00 00       	jmp    80c0 <prodcons_produce@plt>
    3663:	90                   	nop
    3664:	8d 74 26 00          	lea    0x0(%esi,%eiz,1),%esi
    3668:	8d 65 f4             	lea    -0xc(%ebp),%esp
    366b:	5b                   	pop    %ebx
    366c:	5e                   	pop    %esi
    366d:	5f                   	pop    %edi
    366e:	5d                   	pop    %ebp
    366f:	c3                   	ret    

00003670 <window_refresh>:
    3670:	55                   	push   %ebp
    3671:	89 e5                	mov    %esp,%ebp
    3673:	83 ec 14             	sub    $0x14,%esp
    3676:	6a 24                	push   $0x24
    3678:	e8 b3 48 00 00       	call   7f30 <malloc@plt>
    367d:	83 c4 10             	add    $0x10,%esp
    3680:	85 c0                	test   %eax,%eax
    3682:	74 26                	je     36aa <window_refresh+0x3a>
    3684:	c7 00 00 00 00 00    	movl   $0x0,(%eax)
    368a:	c7 40 04 00 00 00 00 	movl   $0x0,0x4(%eax)
    3691:	c7 40 08 06 00 00 00 	movl   $0x6,0x8(%eax)
    3698:	52                   	push   %edx
    3699:	52                   	push   %edx
    369a:	50                   	push   %eax
    369b:	8b 45 08             	mov    0x8(%ebp),%eax
    369e:	83 c0 10             	add    $0x10,%eax
    36a1:	50                   	push   %eax
    36a2:	e8 19 4a 00 00       	call   80c0 <prodcons_produce@plt>
    36a7:	83 c4 10             	add    $0x10,%esp
    36aa:	c9                   	leave  
    36ab:	c3                   	ret    
    36ac:	8d 74 26 00          	lea    0x0(%esi,%eiz,1),%esi

000036b0 <window_damage>:
    36b0:	55                   	push   %ebp
    36b1:	89 e5                	mov    %esp,%ebp
    36b3:	83 ec 14             	sub    $0x14,%esp
    36b6:	6a 24                	push   $0x24
    36b8:	e8 73 48 00 00       	call   7f30 <malloc@plt>
    36bd:	83 c4 10             	add    $0x10,%esp
    36c0:	85 c0                	test   %eax,%eax
    36c2:	74 26                	je     36ea <window_damage+0x3a>
    36c4:	c7 00 00 00 00 00    	movl   $0x0,(%eax)
    36ca:	c7 40 04 00 00 00 00 	movl   $0x0,0x4(%eax)
    36d1:	c7 40 08 07 00 00 00 	movl   $0x7,0x8(%eax)
    36d8:	52                   	push   %edx
    36d9:	52                   	push   %edx
    36da:	50                   	push   %eax
    36db:	8b 45 08             	mov    0x8(%ebp),%eax
    36de:	83 c0 10             	add    $0x10,%eax
    36e1:	50                   	push   %eax
    36e2:	e8 d9 49 00 00       	call   80c0 <prodcons_produce@plt>
    36e7:	83 c4 10             	add    $0x10,%esp
    36ea:	c9                   	leave  
    36eb:	c3                   	ret    
    36ec:	8d 74 26 00          	lea    0x0(%esi,%eiz,1),%esi

000036f0 <window_root>:
    36f0:	55                   	push   %ebp
    36f1:	89 e5                	mov    %esp,%ebp
    36f3:	8b 45 08             	mov    0x8(%ebp),%eax
    36f6:	5d                   	pop    %ebp
    36f7:	83 c0 30             	add    $0x30,%eax
    36fa:	c3                   	ret    
    36fb:	90                   	nop
    36fc:	8d 74 26 00          	lea    0x0(%esi,%eiz,1),%esi

00003700 <window_exec>:
    3700:	55                   	push   %ebp
    3701:	89 e5                	mov    %esp,%ebp
    3703:	56                   	push   %esi
    3704:	53                   	push   %ebx
    3705:	83 ec 14             	sub    $0x14,%esp
    3708:	8b 5d 08             	mov    0x8(%ebp),%ebx
    370b:	6a 00                	push   $0x0
    370d:	53                   	push   %ebx
    370e:	68 10 2e 00 00       	push   $0x2e10
    3713:	e8 c8 49 00 00       	call   80e0 <fibril_create_generic@plt>
    3718:	83 c4 0c             	add    $0xc,%esp
    371b:	89 c6                	mov    %eax,%esi
    371d:	6a 00                	push   $0x0
    371f:	53                   	push   %ebx
    3720:	68 90 26 00 00       	push   $0x2690
    3725:	e8 b6 49 00 00       	call   80e0 <fibril_create_generic@plt>
    372a:	83 c4 10             	add    $0x10,%esp
    372d:	85 f6                	test   %esi,%esi
    372f:	74 27                	je     3758 <window_exec+0x58>
    3731:	85 c0                	test   %eax,%eax
    3733:	89 45 f4             	mov    %eax,-0xc(%ebp)
    3736:	74 20                	je     3758 <window_exec+0x58>
    3738:	83 ec 0c             	sub    $0xc,%esp
    373b:	56                   	push   %esi
    373c:	e8 af 49 00 00       	call   80f0 <fibril_add_ready@plt>
    3741:	8b 45 f4             	mov    -0xc(%ebp),%eax
    3744:	83 c4 10             	add    $0x10,%esp
    3747:	89 45 08             	mov    %eax,0x8(%ebp)
    374a:	8d 65 f8             	lea    -0x8(%ebp),%esp
    374d:	5b                   	pop    %ebx
    374e:	5e                   	pop    %esi
    374f:	5d                   	pop    %ebp
    3750:	e9 9b 49 00 00       	jmp    80f0 <fibril_add_ready@plt>
    3755:	8d 76 00             	lea    0x0(%esi),%esi
    3758:	8d 65 f8             	lea    -0x8(%ebp),%esp
    375b:	5b                   	pop    %ebx
    375c:	5e                   	pop    %esi
    375d:	5d                   	pop    %ebp
    375e:	c3                   	ret    
    375f:	90                   	nop

00003760 <window_claim>:
    3760:	55                   	push   %ebp
    3761:	89 e5                	mov    %esp,%ebp
    3763:	53                   	push   %ebx
    3764:	83 ec 10             	sub    $0x10,%esp
    3767:	8b 5d 08             	mov    0x8(%ebp),%ebx
    376a:	8d 83 94 00 00 00    	lea    0x94(%ebx),%eax
    3770:	50                   	push   %eax
    3771:	e8 fa 49 00 00       	call   8170 <fibril_mutex_lock@plt>
    3776:	8b 83 a4 00 00 00    	mov    0xa4(%ebx),%eax
    377c:	8b 5d fc             	mov    -0x4(%ebp),%ebx
    377f:	c9                   	leave  
    3780:	c3                   	ret    
    3781:	eb 0d                	jmp    3790 <window_yield>
    3783:	90                   	nop
    3784:	90                   	nop
    3785:	90                   	nop
    3786:	90                   	nop
    3787:	90                   	nop
    3788:	90                   	nop
    3789:	90                   	nop
    378a:	90                   	nop
    378b:	90                   	nop
    378c:	90                   	nop
    378d:	90                   	nop
    378e:	90                   	nop
    378f:	90                   	nop

00003790 <window_yield>:
    3790:	55                   	push   %ebp
    3791:	89 e5                	mov    %esp,%ebp
    3793:	8b 45 08             	mov    0x8(%ebp),%eax
    3796:	05 94 00 00 00       	add    $0x94,%eax
    379b:	89 45 08             	mov    %eax,0x8(%ebp)
    379e:	5d                   	pop    %ebp
    379f:	e9 0c 48 00 00       	jmp    7fb0 <fibril_mutex_unlock@plt>
    37a4:	8d b6 00 00 00 00    	lea    0x0(%esi),%esi
    37aa:	8d bf 00 00 00 00    	lea    0x0(%edi),%edi

000037b0 <window_close>:
    37b0:	55                   	push   %ebp
    37b1:	89 e5                	mov    %esp,%ebp
    37b3:	8b 45 08             	mov    0x8(%ebp),%eax
    37b6:	8b 40 0c             	mov    0xc(%eax),%eax
    37b9:	89 45 08             	mov    %eax,0x8(%ebp)
    37bc:	5d                   	pop    %ebp
    37bd:	e9 8e 49 00 00       	jmp    8150 <win_close_request@plt>
    37c2:	66 90                	xchg   %ax,%ax
    37c4:	66 90                	xchg   %ax,%ax
    37c6:	66 90                	xchg   %ax,%ax
    37c8:	66 90                	xchg   %ax,%ax
    37ca:	66 90                	xchg   %ax,%ax
    37cc:	66 90                	xchg   %ax,%ax
    37ce:	66 90                	xchg   %ax,%ax

000037d0 <draw_icon_cross>:
    37d0:	55                   	push   %ebp
    37d1:	31 c0                	xor    %eax,%eax
    37d3:	89 e5                	mov    %esp,%ebp
    37d5:	57                   	push   %edi
    37d6:	56                   	push   %esi
    37d7:	53                   	push   %ebx
    37d8:	83 ec 1c             	sub    $0x1c,%esp
    37db:	31 f6                	xor    %esi,%esi
    37dd:	8b 5d 18             	mov    0x18(%ebp),%ebx
    37e0:	c6 45 e7 00          	movb   $0x0,-0x19(%ebp)
    37e4:	bf 02 00 00 00       	mov    $0x2,%edi
    37e9:	8d b4 26 00 00 00 00 	lea    0x0(%esi,%eiz,1),%esi
    37f0:	89 f2                	mov    %esi,%edx
    37f2:	89 d9                	mov    %ebx,%ecx
    37f4:	83 e2 02             	and    $0x2,%edx
    37f7:	a8 02                	test   $0x2,%al
    37f9:	74 03                	je     37fe <draw_icon_cross+0x2e>
    37fb:	8b 4d 14             	mov    0x14(%ebp),%ecx
    37fe:	84 d2                	test   %dl,%dl
    3800:	0f 85 3a 03 00 00    	jne    3b40 <draw_icon_cross+0x370>
    3806:	89 f2                	mov    %esi,%edx
    3808:	89 d9                	mov    %ebx,%ecx
    380a:	83 e2 04             	and    $0x4,%edx
    380d:	a8 04                	test   $0x4,%al
    380f:	74 03                	je     3814 <draw_icon_cross+0x44>
    3811:	8b 4d 14             	mov    0x14(%ebp),%ecx
    3814:	84 d2                	test   %dl,%dl
    3816:	0f 85 fc 02 00 00    	jne    3b18 <draw_icon_cross+0x348>
    381c:	89 f2                	mov    %esi,%edx
    381e:	89 d9                	mov    %ebx,%ecx
    3820:	83 e2 08             	and    $0x8,%edx
    3823:	a8 08                	test   $0x8,%al
    3825:	74 03                	je     382a <draw_icon_cross+0x5a>
    3827:	8b 4d 14             	mov    0x14(%ebp),%ecx
    382a:	84 d2                	test   %dl,%dl
    382c:	0f 85 be 02 00 00    	jne    3af0 <draw_icon_cross+0x320>
    3832:	89 f2                	mov    %esi,%edx
    3834:	89 d9                	mov    %ebx,%ecx
    3836:	83 e2 10             	and    $0x10,%edx
    3839:	a8 10                	test   $0x10,%al
    383b:	74 03                	je     3840 <draw_icon_cross+0x70>
    383d:	8b 4d 14             	mov    0x14(%ebp),%ecx
    3840:	84 d2                	test   %dl,%dl
    3842:	0f 85 80 02 00 00    	jne    3ac8 <draw_icon_cross+0x2f8>
    3848:	89 f2                	mov    %esi,%edx
    384a:	89 d9                	mov    %ebx,%ecx
    384c:	83 e2 20             	and    $0x20,%edx
    384f:	a8 20                	test   $0x20,%al
    3851:	74 03                	je     3856 <draw_icon_cross+0x86>
    3853:	8b 4d 14             	mov    0x14(%ebp),%ecx
    3856:	84 d2                	test   %dl,%dl
    3858:	0f 85 42 02 00 00    	jne    3aa0 <draw_icon_cross+0x2d0>
    385e:	89 f2                	mov    %esi,%edx
    3860:	8b 4d 14             	mov    0x14(%ebp),%ecx
    3863:	83 e2 40             	and    $0x40,%edx
    3866:	a8 40                	test   $0x40,%al
    3868:	75 02                	jne    386c <draw_icon_cross+0x9c>
    386a:	89 d9                	mov    %ebx,%ecx
    386c:	84 d2                	test   %dl,%dl
    386e:	0f 85 0c 02 00 00    	jne    3a80 <draw_icon_cross+0x2b0>
    3874:	8b 45 14             	mov    0x14(%ebp),%eax
    3877:	80 7d e7 00          	cmpb   $0x0,-0x19(%ebp)
    387b:	78 02                	js     387f <draw_icon_cross+0xaf>
    387d:	89 d8                	mov    %ebx,%eax
    387f:	89 f1                	mov    %esi,%ecx
    3881:	84 c9                	test   %cl,%cl
    3883:	0f 88 d7 01 00 00    	js     3a60 <draw_icon_cross+0x290>
    3889:	0f b6 b7 43 7c 00 00 	movzbl 0x7c43(%edi),%esi
    3890:	8a 87 5f 7c 00 00    	mov    0x7c5f(%edi),%al
    3896:	89 f2                	mov    %esi,%edx
    3898:	83 e2 01             	and    $0x1,%edx
    389b:	8b 4d 14             	mov    0x14(%ebp),%ecx
    389e:	a8 01                	test   $0x1,%al
    38a0:	75 02                	jne    38a4 <draw_icon_cross+0xd4>
    38a2:	89 d9                	mov    %ebx,%ecx
    38a4:	84 d2                	test   %dl,%dl
    38a6:	0f 85 8c 01 00 00    	jne    3a38 <draw_icon_cross+0x268>
    38ac:	89 f2                	mov    %esi,%edx
    38ae:	89 d9                	mov    %ebx,%ecx
    38b0:	83 e2 02             	and    $0x2,%edx
    38b3:	a8 02                	test   $0x2,%al
    38b5:	74 03                	je     38ba <draw_icon_cross+0xea>
    38b7:	8b 4d 14             	mov    0x14(%ebp),%ecx
    38ba:	84 d2                	test   %dl,%dl
    38bc:	0f 85 4e 01 00 00    	jne    3a10 <draw_icon_cross+0x240>
    38c2:	89 f2                	mov    %esi,%edx
    38c4:	89 d9                	mov    %ebx,%ecx
    38c6:	83 e2 04             	and    $0x4,%edx
    38c9:	a8 04                	test   $0x4,%al
    38cb:	74 03                	je     38d0 <draw_icon_cross+0x100>
    38cd:	8b 4d 14             	mov    0x14(%ebp),%ecx
    38d0:	84 d2                	test   %dl,%dl
    38d2:	0f 85 10 01 00 00    	jne    39e8 <draw_icon_cross+0x218>
    38d8:	89 f2                	mov    %esi,%edx
    38da:	89 d9                	mov    %ebx,%ecx
    38dc:	83 e2 08             	and    $0x8,%edx
    38df:	a8 08                	test   $0x8,%al
    38e1:	74 03                	je     38e6 <draw_icon_cross+0x116>
    38e3:	8b 4d 14             	mov    0x14(%ebp),%ecx
    38e6:	84 d2                	test   %dl,%dl
    38e8:	0f 85 d2 00 00 00    	jne    39c0 <draw_icon_cross+0x1f0>
    38ee:	89 f2                	mov    %esi,%edx
    38f0:	89 d9                	mov    %ebx,%ecx
    38f2:	83 e2 10             	and    $0x10,%edx
    38f5:	a8 10                	test   $0x10,%al
    38f7:	74 03                	je     38fc <draw_icon_cross+0x12c>
    38f9:	8b 4d 14             	mov    0x14(%ebp),%ecx
    38fc:	84 d2                	test   %dl,%dl
    38fe:	0f 85 94 00 00 00    	jne    3998 <draw_icon_cross+0x1c8>
    3904:	89 f2                	mov    %esi,%edx
    3906:	8b 4d 14             	mov    0x14(%ebp),%ecx
    3909:	83 e2 20             	and    $0x20,%edx
    390c:	a8 20                	test   $0x20,%al
    390e:	75 02                	jne    3912 <draw_icon_cross+0x142>
    3910:	89 d9                	mov    %ebx,%ecx
    3912:	84 d2                	test   %dl,%dl
    3914:	75 5a                	jne    3970 <draw_icon_cross+0x1a0>
    3916:	83 ff 1c             	cmp    $0x1c,%edi
    3919:	74 72                	je     398d <draw_icon_cross+0x1bd>
    391b:	0f b6 b7 44 7c 00 00 	movzbl 0x7c44(%edi),%esi
    3922:	8a 87 60 7c 00 00    	mov    0x7c60(%edi),%al
    3928:	89 f2                	mov    %esi,%edx
    392a:	88 c1                	mov    %al,%cl
    392c:	88 45 e7             	mov    %al,-0x19(%ebp)
    392f:	31 c0                	xor    %eax,%eax
    3931:	83 e2 01             	and    $0x1,%edx
    3934:	88 c8                	mov    %cl,%al
    3936:	f6 45 e7 01          	testb  $0x1,-0x19(%ebp)
    393a:	89 d9                	mov    %ebx,%ecx
    393c:	74 03                	je     3941 <draw_icon_cross+0x171>
    393e:	8b 4d 14             	mov    0x14(%ebp),%ecx
    3941:	83 c7 02             	add    $0x2,%edi
    3944:	ff 45 10             	incl   0x10(%ebp)
    3947:	84 d2                	test   %dl,%dl
    3949:	0f 84 a1 fe ff ff    	je     37f0 <draw_icon_cross+0x20>
    394f:	51                   	push   %ecx
    3950:	89 45 e0             	mov    %eax,-0x20(%ebp)
    3953:	8b 4d 10             	mov    0x10(%ebp),%ecx
    3956:	8b 45 0c             	mov    0xc(%ebp),%eax
    3959:	51                   	push   %ecx
    395a:	50                   	push   %eax
    395b:	8b 45 08             	mov    0x8(%ebp),%eax
    395e:	50                   	push   %eax
    395f:	e8 8c 2e 00 00       	call   67f0 <surface_put_pixel>
    3964:	83 c4 10             	add    $0x10,%esp
    3967:	8b 45 e0             	mov    -0x20(%ebp),%eax
    396a:	e9 81 fe ff ff       	jmp    37f0 <draw_icon_cross+0x20>
    396f:	90                   	nop
    3970:	8b 45 10             	mov    0x10(%ebp),%eax
    3973:	51                   	push   %ecx
    3974:	50                   	push   %eax
    3975:	8b 45 0c             	mov    0xc(%ebp),%eax
    3978:	83 c0 0d             	add    $0xd,%eax
    397b:	8b 55 08             	mov    0x8(%ebp),%edx
    397e:	50                   	push   %eax
    397f:	52                   	push   %edx
    3980:	e8 6b 2e 00 00       	call   67f0 <surface_put_pixel>
    3985:	83 c4 10             	add    $0x10,%esp
    3988:	83 ff 1c             	cmp    $0x1c,%edi
    398b:	75 8e                	jne    391b <draw_icon_cross+0x14b>
    398d:	8d 65 f4             	lea    -0xc(%ebp),%esp
    3990:	5b                   	pop    %ebx
    3991:	5e                   	pop    %esi
    3992:	5f                   	pop    %edi
    3993:	5d                   	pop    %ebp
    3994:	c3                   	ret    
    3995:	8d 76 00             	lea    0x0(%esi),%esi
    3998:	88 45 e7             	mov    %al,-0x19(%ebp)
    399b:	8b 45 0c             	mov    0xc(%ebp),%eax
    399e:	51                   	push   %ecx
    399f:	8b 4d 10             	mov    0x10(%ebp),%ecx
    39a2:	8d 50 0c             	lea    0xc(%eax),%edx
    39a5:	8b 45 08             	mov    0x8(%ebp),%eax
    39a8:	51                   	push   %ecx
    39a9:	52                   	push   %edx
    39aa:	50                   	push   %eax
    39ab:	e8 40 2e 00 00       	call   67f0 <surface_put_pixel>
    39b0:	83 c4 10             	add    $0x10,%esp
    39b3:	8a 45 e7             	mov    -0x19(%ebp),%al
    39b6:	e9 49 ff ff ff       	jmp    3904 <draw_icon_cross+0x134>
    39bb:	90                   	nop
    39bc:	8d 74 26 00          	lea    0x0(%esi,%eiz,1),%esi
    39c0:	88 45 e7             	mov    %al,-0x19(%ebp)
    39c3:	8b 45 10             	mov    0x10(%ebp),%eax
    39c6:	51                   	push   %ecx
    39c7:	50                   	push   %eax
    39c8:	8b 45 0c             	mov    0xc(%ebp),%eax
    39cb:	8d 50 0b             	lea    0xb(%eax),%edx
    39ce:	8b 45 08             	mov    0x8(%ebp),%eax
    39d1:	52                   	push   %edx
    39d2:	50                   	push   %eax
    39d3:	e8 18 2e 00 00       	call   67f0 <surface_put_pixel>
    39d8:	83 c4 10             	add    $0x10,%esp
    39db:	8a 45 e7             	mov    -0x19(%ebp),%al
    39de:	e9 0b ff ff ff       	jmp    38ee <draw_icon_cross+0x11e>
    39e3:	90                   	nop
    39e4:	8d 74 26 00          	lea    0x0(%esi,%eiz,1),%esi
    39e8:	88 45 e7             	mov    %al,-0x19(%ebp)
    39eb:	8b 45 10             	mov    0x10(%ebp),%eax
    39ee:	51                   	push   %ecx
    39ef:	50                   	push   %eax
    39f0:	8b 45 0c             	mov    0xc(%ebp),%eax
    39f3:	8d 50 0a             	lea    0xa(%eax),%edx
    39f6:	8b 45 08             	mov    0x8(%ebp),%eax
    39f9:	52                   	push   %edx
    39fa:	50                   	push   %eax
    39fb:	e8 f0 2d 00 00       	call   67f0 <surface_put_pixel>
    3a00:	83 c4 10             	add    $0x10,%esp
    3a03:	8a 45 e7             	mov    -0x19(%ebp),%al
    3a06:	e9 cd fe ff ff       	jmp    38d8 <draw_icon_cross+0x108>
    3a0b:	90                   	nop
    3a0c:	8d 74 26 00          	lea    0x0(%esi,%eiz,1),%esi
    3a10:	88 45 e7             	mov    %al,-0x19(%ebp)
    3a13:	8b 45 10             	mov    0x10(%ebp),%eax
    3a16:	51                   	push   %ecx
    3a17:	50                   	push   %eax
    3a18:	8b 45 0c             	mov    0xc(%ebp),%eax
    3a1b:	8d 50 09             	lea    0x9(%eax),%edx
    3a1e:	52                   	push   %edx
    3a1f:	8b 55 08             	mov    0x8(%ebp),%edx
    3a22:	52                   	push   %edx
    3a23:	e8 c8 2d 00 00       	call   67f0 <surface_put_pixel>
    3a28:	83 c4 10             	add    $0x10,%esp
    3a2b:	8a 45 e7             	mov    -0x19(%ebp),%al
    3a2e:	e9 8f fe ff ff       	jmp    38c2 <draw_icon_cross+0xf2>
    3a33:	90                   	nop
    3a34:	8d 74 26 00          	lea    0x0(%esi,%eiz,1),%esi
    3a38:	88 45 e7             	mov    %al,-0x19(%ebp)
    3a3b:	8b 45 0c             	mov    0xc(%ebp),%eax
    3a3e:	51                   	push   %ecx
    3a3f:	8b 4d 10             	mov    0x10(%ebp),%ecx
    3a42:	8d 50 08             	lea    0x8(%eax),%edx
    3a45:	8b 45 08             	mov    0x8(%ebp),%eax
    3a48:	51                   	push   %ecx
    3a49:	52                   	push   %edx
    3a4a:	50                   	push   %eax
    3a4b:	e8 a0 2d 00 00       	call   67f0 <surface_put_pixel>
    3a50:	83 c4 10             	add    $0x10,%esp
    3a53:	8a 45 e7             	mov    -0x19(%ebp),%al
    3a56:	e9 51 fe ff ff       	jmp    38ac <draw_icon_cross+0xdc>
    3a5b:	90                   	nop
    3a5c:	8d 74 26 00          	lea    0x0(%esi,%eiz,1),%esi
    3a60:	50                   	push   %eax
    3a61:	8b 45 10             	mov    0x10(%ebp),%eax
    3a64:	50                   	push   %eax
    3a65:	8b 45 0c             	mov    0xc(%ebp),%eax
    3a68:	83 c0 07             	add    $0x7,%eax
    3a6b:	50                   	push   %eax
    3a6c:	8b 45 08             	mov    0x8(%ebp),%eax
    3a6f:	50                   	push   %eax
    3a70:	e8 7b 2d 00 00       	call   67f0 <surface_put_pixel>
    3a75:	83 c4 10             	add    $0x10,%esp
    3a78:	e9 0c fe ff ff       	jmp    3889 <draw_icon_cross+0xb9>
    3a7d:	8d 76 00             	lea    0x0(%esi),%esi
    3a80:	8b 45 10             	mov    0x10(%ebp),%eax
    3a83:	51                   	push   %ecx
    3a84:	50                   	push   %eax
    3a85:	8b 45 0c             	mov    0xc(%ebp),%eax
    3a88:	83 c0 06             	add    $0x6,%eax
    3a8b:	50                   	push   %eax
    3a8c:	8b 45 08             	mov    0x8(%ebp),%eax
    3a8f:	50                   	push   %eax
    3a90:	e8 5b 2d 00 00       	call   67f0 <surface_put_pixel>
    3a95:	83 c4 10             	add    $0x10,%esp
    3a98:	e9 d7 fd ff ff       	jmp    3874 <draw_icon_cross+0xa4>
    3a9d:	8d 76 00             	lea    0x0(%esi),%esi
    3aa0:	89 45 e0             	mov    %eax,-0x20(%ebp)
    3aa3:	8b 45 10             	mov    0x10(%ebp),%eax
    3aa6:	51                   	push   %ecx
    3aa7:	50                   	push   %eax
    3aa8:	8b 45 0c             	mov    0xc(%ebp),%eax
    3aab:	8d 50 05             	lea    0x5(%eax),%edx
    3aae:	52                   	push   %edx
    3aaf:	8b 55 08             	mov    0x8(%ebp),%edx
    3ab2:	52                   	push   %edx
    3ab3:	e8 38 2d 00 00       	call   67f0 <surface_put_pixel>
    3ab8:	83 c4 10             	add    $0x10,%esp
    3abb:	8b 45 e0             	mov    -0x20(%ebp),%eax
    3abe:	e9 9b fd ff ff       	jmp    385e <draw_icon_cross+0x8e>
    3ac3:	90                   	nop
    3ac4:	8d 74 26 00          	lea    0x0(%esi,%eiz,1),%esi
    3ac8:	89 45 e0             	mov    %eax,-0x20(%ebp)
    3acb:	8b 45 0c             	mov    0xc(%ebp),%eax
    3ace:	51                   	push   %ecx
    3acf:	8b 4d 10             	mov    0x10(%ebp),%ecx
    3ad2:	8d 50 04             	lea    0x4(%eax),%edx
    3ad5:	8b 45 08             	mov    0x8(%ebp),%eax
    3ad8:	51                   	push   %ecx
    3ad9:	52                   	push   %edx
    3ada:	50                   	push   %eax
    3adb:	e8 10 2d 00 00       	call   67f0 <surface_put_pixel>
    3ae0:	83 c4 10             	add    $0x10,%esp
    3ae3:	8b 45 e0             	mov    -0x20(%ebp),%eax
    3ae6:	e9 5d fd ff ff       	jmp    3848 <draw_icon_cross+0x78>
    3aeb:	90                   	nop
    3aec:	8d 74 26 00          	lea    0x0(%esi,%eiz,1),%esi
    3af0:	89 45 e0             	mov    %eax,-0x20(%ebp)
    3af3:	8b 45 10             	mov    0x10(%ebp),%eax
    3af6:	51                   	push   %ecx
    3af7:	50                   	push   %eax
    3af8:	8b 45 0c             	mov    0xc(%ebp),%eax
    3afb:	8d 50 03             	lea    0x3(%eax),%edx
    3afe:	8b 45 08             	mov    0x8(%ebp),%eax
    3b01:	52                   	push   %edx
    3b02:	50                   	push   %eax
    3b03:	e8 e8 2c 00 00       	call   67f0 <surface_put_pixel>
    3b08:	83 c4 10             	add    $0x10,%esp
    3b0b:	8b 45 e0             	mov    -0x20(%ebp),%eax
    3b0e:	e9 1f fd ff ff       	jmp    3832 <draw_icon_cross+0x62>
    3b13:	90                   	nop
    3b14:	8d 74 26 00          	lea    0x0(%esi,%eiz,1),%esi
    3b18:	89 45 e0             	mov    %eax,-0x20(%ebp)
    3b1b:	8b 45 10             	mov    0x10(%ebp),%eax
    3b1e:	51                   	push   %ecx
    3b1f:	50                   	push   %eax
    3b20:	8b 45 0c             	mov    0xc(%ebp),%eax
    3b23:	8d 50 02             	lea    0x2(%eax),%edx
    3b26:	8b 45 08             	mov    0x8(%ebp),%eax
    3b29:	52                   	push   %edx
    3b2a:	50                   	push   %eax
    3b2b:	e8 c0 2c 00 00       	call   67f0 <surface_put_pixel>
    3b30:	83 c4 10             	add    $0x10,%esp
    3b33:	8b 45 e0             	mov    -0x20(%ebp),%eax
    3b36:	e9 e1 fc ff ff       	jmp    381c <draw_icon_cross+0x4c>
    3b3b:	90                   	nop
    3b3c:	8d 74 26 00          	lea    0x0(%esi,%eiz,1),%esi
    3b40:	89 45 e0             	mov    %eax,-0x20(%ebp)
    3b43:	8b 45 10             	mov    0x10(%ebp),%eax
    3b46:	51                   	push   %ecx
    3b47:	50                   	push   %eax
    3b48:	8b 45 0c             	mov    0xc(%ebp),%eax
    3b4b:	8d 50 01             	lea    0x1(%eax),%edx
    3b4e:	52                   	push   %edx
    3b4f:	8b 55 08             	mov    0x8(%ebp),%edx
    3b52:	52                   	push   %edx
    3b53:	e8 98 2c 00 00       	call   67f0 <surface_put_pixel>
    3b58:	83 c4 10             	add    $0x10,%esp
    3b5b:	8b 45 e0             	mov    -0x20(%ebp),%eax
    3b5e:	e9 a3 fc ff ff       	jmp    3806 <draw_icon_cross+0x36>
    3b63:	8d b6 00 00 00 00    	lea    0x0(%esi),%esi
    3b69:	8d bc 27 00 00 00 00 	lea    0x0(%edi,%eiz,1),%edi

00003b70 <draw_bevel>:
    3b70:	55                   	push   %ebp
    3b71:	89 e5                	mov    %esp,%ebp
    3b73:	57                   	push   %edi
    3b74:	56                   	push   %esi
    3b75:	53                   	push   %ebx
    3b76:	83 ec 24             	sub    $0x24,%esp
    3b79:	8b 55 18             	mov    0x18(%ebp),%edx
    3b7c:	8b 45 0c             	mov    0xc(%ebp),%eax
    3b7f:	89 55 e4             	mov    %edx,-0x1c(%ebp)
    3b82:	8b 55 24             	mov    0x24(%ebp),%edx
    3b85:	8b 4d 1c             	mov    0x1c(%ebp),%ecx
    3b88:	89 55 d8             	mov    %edx,-0x28(%ebp)
    3b8b:	8b 55 20             	mov    0x20(%ebp),%edx
    3b8e:	8b 5d 08             	mov    0x8(%ebp),%ebx
    3b91:	52                   	push   %edx
    3b92:	8b 75 10             	mov    0x10(%ebp),%esi
    3b95:	50                   	push   %eax
    3b96:	8b 7d 14             	mov    0x14(%ebp),%edi
    3b99:	89 45 dc             	mov    %eax,-0x24(%ebp)
    3b9c:	89 4d e0             	mov    %ecx,-0x20(%ebp)
    3b9f:	e8 ac 26 00 00       	call   6250 <source_set_color>
    3ba4:	8b 55 e4             	mov    -0x1c(%ebp),%edx
    3ba7:	8d 4a ff             	lea    -0x1(%edx),%ecx
    3baa:	c7 04 24 01 00 00 00 	movl   $0x1,(%esp)
    3bb1:	51                   	push   %ecx
    3bb2:	57                   	push   %edi
    3bb3:	56                   	push   %esi
    3bb4:	53                   	push   %ebx
    3bb5:	e8 66 20 00 00       	call   5c20 <drawctx_transfer>
    3bba:	83 c4 14             	add    $0x14,%esp
    3bbd:	8b 4d e0             	mov    -0x20(%ebp),%ecx
    3bc0:	83 e9 02             	sub    $0x2,%ecx
    3bc3:	51                   	push   %ecx
    3bc4:	8d 4f 01             	lea    0x1(%edi),%ecx
    3bc7:	6a 01                	push   $0x1
    3bc9:	51                   	push   %ecx
    3bca:	56                   	push   %esi
    3bcb:	53                   	push   %ebx
    3bcc:	e8 4f 20 00 00       	call   5c20 <drawctx_transfer>
    3bd1:	83 c4 18             	add    $0x18,%esp
    3bd4:	8b 55 d8             	mov    -0x28(%ebp),%edx
    3bd7:	8b 45 dc             	mov    -0x24(%ebp),%eax
    3bda:	52                   	push   %edx
    3bdb:	50                   	push   %eax
    3bdc:	e8 6f 26 00 00       	call   6250 <source_set_color>
    3be1:	8b 4d e4             	mov    -0x1c(%ebp),%ecx
    3be4:	c7 04 24 01 00 00 00 	movl   $0x1,(%esp)
    3beb:	51                   	push   %ecx
    3bec:	8b 4d e0             	mov    -0x20(%ebp),%ecx
    3bef:	8d 44 0f ff          	lea    -0x1(%edi,%ecx,1),%eax
    3bf3:	50                   	push   %eax
    3bf4:	56                   	push   %esi
    3bf5:	53                   	push   %ebx
    3bf6:	e8 25 20 00 00       	call   5c20 <drawctx_transfer>
    3bfb:	8b 55 e4             	mov    -0x1c(%ebp),%edx
    3bfe:	8b 4d e0             	mov    -0x20(%ebp),%ecx
    3c01:	89 7d 10             	mov    %edi,0x10(%ebp)
    3c04:	89 5d 08             	mov    %ebx,0x8(%ebp)
    3c07:	8d 44 16 ff          	lea    -0x1(%esi,%edx,1),%eax
    3c0b:	89 4d 18             	mov    %ecx,0x18(%ebp)
    3c0e:	c7 45 14 01 00 00 00 	movl   $0x1,0x14(%ebp)
    3c15:	89 45 0c             	mov    %eax,0xc(%ebp)
    3c18:	83 c4 20             	add    $0x20,%esp
    3c1b:	8d 65 f4             	lea    -0xc(%ebp),%esp
    3c1e:	5b                   	pop    %ebx
    3c1f:	5e                   	pop    %esi
    3c20:	5f                   	pop    %edi
    3c21:	5d                   	pop    %ebp
    3c22:	e9 f9 1f 00 00       	jmp    5c20 <drawctx_transfer>
    3c27:	66 90                	xchg   %ax,%ax
    3c29:	66 90                	xchg   %ax,%ax
    3c2b:	66 90                	xchg   %ax,%ax
    3c2d:	66 90                	xchg   %ax,%ax
    3c2f:	90                   	nop

00003c30 <fde_load_glyph_metrics>:
    3c30:	55                   	push   %ebp
    3c31:	89 e5                	mov    %esp,%ebp
    3c33:	8b 45 10             	mov    0x10(%ebp),%eax
    3c36:	c7 00 00 00 00 00    	movl   $0x0,(%eax)
    3c3c:	c7 40 04 08 00 00 00 	movl   $0x8,0x4(%eax)
    3c43:	c7 40 08 00 00 00 00 	movl   $0x0,0x8(%eax)
    3c4a:	c7 40 0c 0c 00 00 00 	movl   $0xc,0xc(%eax)
    3c51:	c7 40 10 10 00 00 00 	movl   $0x10,0x10(%eax)
    3c58:	31 c0                	xor    %eax,%eax
    3c5a:	5d                   	pop    %ebp
    3c5b:	c3                   	ret    
    3c5c:	8d 74 26 00          	lea    0x0(%esi,%eiz,1),%esi

00003c60 <fde_release>:
    3c60:	55                   	push   %ebp
    3c61:	89 e5                	mov    %esp,%ebp
    3c63:	5d                   	pop    %ebp
    3c64:	c3                   	ret    
    3c65:	8d 74 26 00          	lea    0x0(%esi,%eiz,1),%esi
    3c69:	8d bc 27 00 00 00 00 	lea    0x0(%edi,%eiz,1),%edi

00003c70 <fde_load_glyph_surface>:
    3c70:	55                   	push   %ebp
    3c71:	89 e5                	mov    %esp,%ebp
    3c73:	57                   	push   %edi
    3c74:	56                   	push   %esi
    3c75:	53                   	push   %ebx
    3c76:	83 ec 1c             	sub    $0x1c,%esp
    3c79:	6a 00                	push   $0x0
    3c7b:	6a 00                	push   $0x0
    3c7d:	6a 10                	push   $0x10
    3c7f:	6a 08                	push   $0x8
    3c81:	e8 9a 28 00 00       	call   6520 <surface_create>
    3c86:	83 c4 10             	add    $0x10,%esp
    3c89:	85 c0                	test   %eax,%eax
    3c8b:	74 63                	je     3cf0 <fde_load_glyph_surface+0x80>
    3c8d:	89 c3                	mov    %eax,%ebx
    3c8f:	8b 45 0c             	mov    0xc(%ebp),%eax
    3c92:	c1 e0 04             	shl    $0x4,%eax
    3c95:	31 f6                	xor    %esi,%esi
    3c97:	89 45 e4             	mov    %eax,-0x1c(%ebp)
    3c9a:	89 f7                	mov    %esi,%edi
    3c9c:	8d 74 26 00          	lea    0x0(%esi,%eiz,1),%esi
    3ca0:	31 f6                	xor    %esi,%esi
    3ca2:	89 f8                	mov    %edi,%eax
    3ca4:	89 f7                	mov    %esi,%edi
    3ca6:	89 c6                	mov    %eax,%esi
    3ca8:	8b 55 e4             	mov    -0x1c(%ebp),%edx
    3cab:	31 c0                	xor    %eax,%eax
    3cad:	b9 07 00 00 00       	mov    $0x7,%ecx
    3cb2:	29 f9                	sub    %edi,%ecx
    3cb4:	8a 84 16 20 9a 00 00 	mov    0x9a20(%esi,%edx,1),%al
    3cbb:	d3 f8                	sar    %cl,%eax
    3cbd:	83 e0 01             	and    $0x1,%eax
    3cc0:	f7 d8                	neg    %eax
    3cc2:	25 00 00 00 ff       	and    $0xff000000,%eax
    3cc7:	50                   	push   %eax
    3cc8:	56                   	push   %esi
    3cc9:	57                   	push   %edi
    3cca:	47                   	inc    %edi
    3ccb:	53                   	push   %ebx
    3ccc:	e8 1f 2b 00 00       	call   67f0 <surface_put_pixel>
    3cd1:	83 c4 10             	add    $0x10,%esp
    3cd4:	83 ff 08             	cmp    $0x8,%edi
    3cd7:	75 cf                	jne    3ca8 <fde_load_glyph_surface+0x38>
    3cd9:	89 f7                	mov    %esi,%edi
    3cdb:	47                   	inc    %edi
    3cdc:	83 ff 10             	cmp    $0x10,%edi
    3cdf:	75 bf                	jne    3ca0 <fde_load_glyph_surface+0x30>
    3ce1:	8b 45 10             	mov    0x10(%ebp),%eax
    3ce4:	89 18                	mov    %ebx,(%eax)
    3ce6:	31 c0                	xor    %eax,%eax
    3ce8:	8d 65 f4             	lea    -0xc(%ebp),%esp
    3ceb:	5b                   	pop    %ebx
    3cec:	5e                   	pop    %esi
    3ced:	5f                   	pop    %edi
    3cee:	5d                   	pop    %ebp
    3cef:	c3                   	ret    
    3cf0:	b8 fe ff ff ff       	mov    $0xfffffffe,%eax
    3cf5:	eb f1                	jmp    3ce8 <fde_load_glyph_surface+0x78>
    3cf7:	89 f6                	mov    %esi,%esi
    3cf9:	8d bc 27 00 00 00 00 	lea    0x0(%edi,%eiz,1),%edi

00003d00 <fde_resolve_glyph>:
    3d00:	55                   	push   %ebp
    3d01:	89 e5                	mov    %esp,%ebp
    3d03:	83 ec 20             	sub    $0x20,%esp
    3d06:	8d 45 f7             	lea    -0x9(%ebp),%eax
    3d09:	c6 45 f7 00          	movb   $0x0,-0x9(%ebp)
    3d0d:	50                   	push   %eax
    3d0e:	8b 45 0c             	mov    0xc(%ebp),%eax
    3d11:	50                   	push   %eax
    3d12:	e8 39 14 00 00       	call   5150 <fb_font_glyph>
    3d17:	83 c4 10             	add    $0x10,%esp
    3d1a:	80 7d f7 00          	cmpb   $0x0,-0x9(%ebp)
    3d1e:	74 10                	je     3d30 <fde_resolve_glyph+0x30>
    3d20:	8b 55 10             	mov    0x10(%ebp),%edx
    3d23:	25 ff ff 00 00       	and    $0xffff,%eax
    3d28:	89 02                	mov    %eax,(%edx)
    3d2a:	31 c0                	xor    %eax,%eax
    3d2c:	c9                   	leave  
    3d2d:	c3                   	ret    
    3d2e:	66 90                	xchg   %ax,%ax
    3d30:	83 c8 ff             	or     $0xffffffff,%eax
    3d33:	c9                   	leave  
    3d34:	c3                   	ret    
    3d35:	8d 74 26 00          	lea    0x0(%esi,%eiz,1),%esi
    3d39:	8d bc 27 00 00 00 00 	lea    0x0(%edi,%eiz,1),%edi

00003d40 <embedded_font_create>:
    3d40:	55                   	push   %ebp
    3d41:	31 c0                	xor    %eax,%eax
    3d43:	89 e5                	mov    %esp,%ebp
    3d45:	83 ec 08             	sub    $0x8,%esp
    3d48:	8b 0d e8 99 00 00    	mov    0x99e8,%ecx
    3d4e:	66 8b 45 0c          	mov    0xc(%ebp),%ax
    3d52:	8b 55 08             	mov    0x8(%ebp),%edx
    3d55:	52                   	push   %edx
    3d56:	50                   	push   %eax
    3d57:	a1 e4 99 00 00       	mov    0x99e4,%eax
    3d5c:	51                   	push   %ecx
    3d5d:	50                   	push   %eax
    3d5e:	a1 e0 99 00 00       	mov    0x99e0,%eax
    3d63:	50                   	push   %eax
    3d64:	68 53 0b 00 00       	push   $0xb53
    3d69:	6a 00                	push   $0x0
    3d6b:	68 ec 99 00 00       	push   $0x99ec
    3d70:	e8 8b 06 00 00       	call   4400 <bitmap_font_create>
    3d75:	c9                   	leave  
    3d76:	c3                   	ret    
    3d77:	66 90                	xchg   %ax,%ax
    3d79:	66 90                	xchg   %ax,%ax
    3d7b:	66 90                	xchg   %ax,%ax
    3d7d:	66 90                	xchg   %ax,%ax
    3d7f:	90                   	nop

00003d80 <bb_get_font_metrics>:
    3d80:	55                   	push   %ebp
    3d81:	89 e5                	mov    %esp,%ebp
    3d83:	8b 55 08             	mov    0x8(%ebp),%edx
    3d86:	8b 45 0c             	mov    0xc(%ebp),%eax
    3d89:	8b 4a 08             	mov    0x8(%edx),%ecx
    3d8c:	89 08                	mov    %ecx,(%eax)
    3d8e:	8b 4a 0c             	mov    0xc(%edx),%ecx
    3d91:	89 48 04             	mov    %ecx,0x4(%eax)
    3d94:	8b 52 10             	mov    0x10(%edx),%edx
    3d97:	89 50 08             	mov    %edx,0x8(%eax)
    3d9a:	31 c0                	xor    %eax,%eax
    3d9c:	5d                   	pop    %ebp
    3d9d:	c3                   	ret    
    3d9e:	66 90                	xchg   %ax,%ax

00003da0 <bb_resolve_glyph>:
    3da0:	55                   	push   %ebp
    3da1:	89 e5                	mov    %esp,%ebp
    3da3:	8b 45 08             	mov    0x8(%ebp),%eax
    3da6:	8b 50 18             	mov    0x18(%eax),%edx
    3da9:	8b 40 1c             	mov    0x1c(%eax),%eax
    3dac:	89 45 08             	mov    %eax,0x8(%ebp)
    3daf:	5d                   	pop    %ebp
    3db0:	8b 02                	mov    (%edx),%eax
    3db2:	ff e0                	jmp    *%eax
    3db4:	8d b6 00 00 00 00    	lea    0x0(%esi),%esi
    3dba:	8d bf 00 00 00 00    	lea    0x0(%edi),%edi

00003dc0 <bb_get_glyph_metrics>:
    3dc0:	55                   	push   %ebp
    3dc1:	89 e5                	mov    %esp,%ebp
    3dc3:	57                   	push   %edi
    3dc4:	56                   	push   %esi
    3dc5:	53                   	push   %ebx
    3dc6:	83 ec 3c             	sub    $0x3c,%esp
    3dc9:	8b 7d 08             	mov    0x8(%ebp),%edi
    3dcc:	8b 55 0c             	mov    0xc(%ebp),%edx
    3dcf:	8b 75 10             	mov    0x10(%ebp),%esi
    3dd2:	39 57 04             	cmp    %edx,0x4(%edi)
    3dd5:	0f 86 1d 01 00 00    	jbe    3ef8 <bb_get_glyph_metrics+0x138>
    3ddb:	8d 1c d5 00 00 00 00 	lea    0x0(,%edx,8),%ebx
    3de2:	8b 47 14             	mov    0x14(%edi),%eax
    3de5:	29 d3                	sub    %edx,%ebx
    3de7:	c1 e3 02             	shl    $0x2,%ebx
    3dea:	01 d8                	add    %ebx,%eax
    3dec:	80 78 18 00          	cmpb   $0x0,0x18(%eax)
    3df0:	74 2e                	je     3e20 <bb_get_glyph_metrics+0x60>
    3df2:	8b 50 04             	mov    0x4(%eax),%edx
    3df5:	89 16                	mov    %edx,(%esi)
    3df7:	8b 50 08             	mov    0x8(%eax),%edx
    3dfa:	89 56 04             	mov    %edx,0x4(%esi)
    3dfd:	8b 50 0c             	mov    0xc(%eax),%edx
    3e00:	89 56 08             	mov    %edx,0x8(%esi)
    3e03:	8b 50 10             	mov    0x10(%eax),%edx
    3e06:	89 56 0c             	mov    %edx,0xc(%esi)
    3e09:	8b 40 14             	mov    0x14(%eax),%eax
    3e0c:	89 46 10             	mov    %eax,0x10(%esi)
    3e0f:	31 c0                	xor    %eax,%eax
    3e11:	8d 65 f4             	lea    -0xc(%ebp),%esp
    3e14:	5b                   	pop    %ebx
    3e15:	5e                   	pop    %esi
    3e16:	5f                   	pop    %edi
    3e17:	5d                   	pop    %ebp
    3e18:	c3                   	ret    
    3e19:	8d b4 26 00 00 00 00 	lea    0x0(%esi,%eiz,1),%esi
    3e20:	51                   	push   %ecx
    3e21:	8d 4d d4             	lea    -0x2c(%ebp),%ecx
    3e24:	8b 47 18             	mov    0x18(%edi),%eax
    3e27:	51                   	push   %ecx
    3e28:	52                   	push   %edx
    3e29:	8b 57 1c             	mov    0x1c(%edi),%edx
    3e2c:	52                   	push   %edx
    3e2d:	ff 50 08             	call   *0x8(%eax)
    3e30:	83 c4 10             	add    $0x10,%esp
    3e33:	85 c0                	test   %eax,%eax
    3e35:	75 da                	jne    3e11 <bb_get_glyph_metrics+0x51>
    3e37:	80 7f 20 00          	cmpb   $0x0,0x20(%edi)
    3e3b:	74 68                	je     3ea5 <bb_get_glyph_metrics+0xe5>
    3e3d:	dd 47 24             	fldl   0x24(%edi)
    3e40:	d9 7d c6             	fnstcw -0x3a(%ebp)
    3e43:	db 45 d4             	fildl  -0x2c(%ebp)
    3e46:	d8 c9                	fmul   %st(1),%st
    3e48:	66 8b 55 c6          	mov    -0x3a(%ebp),%dx
    3e4c:	b6 0c                	mov    $0xc,%dh
    3e4e:	66 89 55 c4          	mov    %dx,-0x3c(%ebp)
    3e52:	d9 05 7c 7c 00 00    	flds   0x7c7c
    3e58:	dc c1                	fadd   %st,%st(1)
    3e5a:	d9 c9                	fxch   %st(1)
    3e5c:	d9 6d c4             	fldcw  -0x3c(%ebp)
    3e5f:	db 5d d4             	fistpl -0x2c(%ebp)
    3e62:	d9 6d c6             	fldcw  -0x3a(%ebp)
    3e65:	db 45 d8             	fildl  -0x28(%ebp)
    3e68:	d8 ca                	fmul   %st(2),%st
    3e6a:	d8 c1                	fadd   %st(1),%st
    3e6c:	d9 6d c4             	fldcw  -0x3c(%ebp)
    3e6f:	db 5d d8             	fistpl -0x28(%ebp)
    3e72:	d9 6d c6             	fldcw  -0x3a(%ebp)
    3e75:	db 45 dc             	fildl  -0x24(%ebp)
    3e78:	d8 ca                	fmul   %st(2),%st
    3e7a:	d8 c1                	fadd   %st(1),%st
    3e7c:	d9 6d c4             	fldcw  -0x3c(%ebp)
    3e7f:	db 5d dc             	fistpl -0x24(%ebp)
    3e82:	d9 6d c6             	fldcw  -0x3a(%ebp)
    3e85:	db 45 e0             	fildl  -0x20(%ebp)
    3e88:	d8 ca                	fmul   %st(2),%st
    3e8a:	d8 c1                	fadd   %st(1),%st
    3e8c:	d9 6d c4             	fldcw  -0x3c(%ebp)
    3e8f:	db 5d e0             	fistpl -0x20(%ebp)
    3e92:	d9 6d c6             	fldcw  -0x3a(%ebp)
    3e95:	db 45 e4             	fildl  -0x1c(%ebp)
    3e98:	de ca                	fmulp  %st,%st(2)
    3e9a:	de c1                	faddp  %st,%st(1)
    3e9c:	d9 6d c4             	fldcw  -0x3c(%ebp)
    3e9f:	db 5d e4             	fistpl -0x1c(%ebp)
    3ea2:	d9 6d c6             	fldcw  -0x3a(%ebp)
    3ea5:	8b 57 14             	mov    0x14(%edi),%edx
    3ea8:	01 d3                	add    %edx,%ebx
    3eaa:	8b 55 d4             	mov    -0x2c(%ebp),%edx
    3ead:	89 53 04             	mov    %edx,0x4(%ebx)
    3eb0:	8b 55 d8             	mov    -0x28(%ebp),%edx
    3eb3:	89 53 08             	mov    %edx,0x8(%ebx)
    3eb6:	8b 55 dc             	mov    -0x24(%ebp),%edx
    3eb9:	89 53 0c             	mov    %edx,0xc(%ebx)
    3ebc:	8b 55 e0             	mov    -0x20(%ebp),%edx
    3ebf:	89 53 10             	mov    %edx,0x10(%ebx)
    3ec2:	8b 55 e4             	mov    -0x1c(%ebp),%edx
    3ec5:	89 53 14             	mov    %edx,0x14(%ebx)
    3ec8:	8b 55 d4             	mov    -0x2c(%ebp),%edx
    3ecb:	c6 43 18 01          	movb   $0x1,0x18(%ebx)
    3ecf:	89 16                	mov    %edx,(%esi)
    3ed1:	8b 55 d8             	mov    -0x28(%ebp),%edx
    3ed4:	89 56 04             	mov    %edx,0x4(%esi)
    3ed7:	8b 55 dc             	mov    -0x24(%ebp),%edx
    3eda:	89 56 08             	mov    %edx,0x8(%esi)
    3edd:	8b 55 e0             	mov    -0x20(%ebp),%edx
    3ee0:	89 56 0c             	mov    %edx,0xc(%esi)
    3ee3:	8b 55 e4             	mov    -0x1c(%ebp),%edx
    3ee6:	89 56 10             	mov    %edx,0x10(%esi)
    3ee9:	8d 65 f4             	lea    -0xc(%ebp),%esp
    3eec:	5b                   	pop    %ebx
    3eed:	5e                   	pop    %esi
    3eee:	5f                   	pop    %edi
    3eef:	5d                   	pop    %ebp
    3ef0:	c3                   	ret    
    3ef1:	8d b4 26 00 00 00 00 	lea    0x0(%esi,%eiz,1),%esi
    3ef8:	83 c8 ff             	or     $0xffffffff,%eax
    3efb:	e9 11 ff ff ff       	jmp    3e11 <bb_get_glyph_metrics+0x51>

00003f00 <bb_release>:
    3f00:	55                   	push   %ebp
    3f01:	89 e5                	mov    %esp,%ebp
    3f03:	56                   	push   %esi
    3f04:	53                   	push   %ebx
    3f05:	8b 75 08             	mov    0x8(%ebp),%esi
    3f08:	8b 56 04             	mov    0x4(%esi),%edx
    3f0b:	8b 4e 14             	mov    0x14(%esi),%ecx
    3f0e:	85 d2                	test   %edx,%edx
    3f10:	74 2d                	je     3f3f <bb_release+0x3f>
    3f12:	31 db                	xor    %ebx,%ebx
    3f14:	8d 74 26 00          	lea    0x0(%esi,%eiz,1),%esi
    3f18:	8d 04 dd 00 00 00 00 	lea    0x0(,%ebx,8),%eax
    3f1f:	29 d8                	sub    %ebx,%eax
    3f21:	8b 04 81             	mov    (%ecx,%eax,4),%eax
    3f24:	85 c0                	test   %eax,%eax
    3f26:	74 12                	je     3f3a <bb_release+0x3a>
    3f28:	83 ec 0c             	sub    $0xc,%esp
    3f2b:	50                   	push   %eax
    3f2c:	e8 bf 26 00 00       	call   65f0 <surface_destroy>
    3f31:	8b 56 04             	mov    0x4(%esi),%edx
    3f34:	8b 4e 14             	mov    0x14(%esi),%ecx
    3f37:	83 c4 10             	add    $0x10,%esp
    3f3a:	43                   	inc    %ebx
    3f3b:	39 d3                	cmp    %edx,%ebx
    3f3d:	72 d9                	jb     3f18 <bb_release+0x18>
    3f3f:	83 ec 0c             	sub    $0xc,%esp
    3f42:	51                   	push   %ecx
    3f43:	e8 18 42 00 00       	call   8160 <free@plt>
    3f48:	8b 46 18             	mov    0x18(%esi),%eax
    3f4b:	8b 56 1c             	mov    0x1c(%esi),%edx
    3f4e:	89 55 08             	mov    %edx,0x8(%ebp)
    3f51:	83 c4 10             	add    $0x10,%esp
    3f54:	8b 40 0c             	mov    0xc(%eax),%eax
    3f57:	8d 65 f8             	lea    -0x8(%ebp),%esp
    3f5a:	5b                   	pop    %ebx
    3f5b:	5e                   	pop    %esi
    3f5c:	5d                   	pop    %ebp
    3f5d:	ff e0                	jmp    *%eax
    3f5f:	90                   	nop

00003f60 <bb_render_glyph>:
    3f60:	55                   	push   %ebp
    3f61:	89 e5                	mov    %esp,%ebp
    3f63:	57                   	push   %edi
    3f64:	56                   	push   %esi
    3f65:	53                   	push   %ebx
    3f66:	81 ec 3c 01 00 00    	sub    $0x13c,%esp
    3f6c:	8b 5d 08             	mov    0x8(%ebp),%ebx
    3f6f:	8b 75 1c             	mov    0x1c(%ebp),%esi
    3f72:	3b 73 04             	cmp    0x4(%ebx),%esi
    3f75:	0f 83 6e 01 00 00    	jae    40e9 <bb_render_glyph+0x189>
    3f7b:	8d 04 f5 00 00 00 00 	lea    0x0(,%esi,8),%eax
    3f82:	8b 4b 14             	mov    0x14(%ebx),%ecx
    3f85:	29 f0                	sub    %esi,%eax
    3f87:	c1 e0 02             	shl    $0x2,%eax
    3f8a:	89 85 dc fe ff ff    	mov    %eax,-0x124(%ebp)
    3f90:	01 c8                	add    %ecx,%eax
    3f92:	80 78 18 00          	cmpb   $0x0,0x18(%eax)
    3f96:	0f 84 dc 00 00 00    	je     4078 <bb_render_glyph+0x118>
    3f9c:	8b 78 08             	mov    0x8(%eax),%edi
    3f9f:	8b 48 14             	mov    0x14(%eax),%ecx
    3fa2:	89 bd d8 fe ff ff    	mov    %edi,-0x128(%ebp)
    3fa8:	8b 78 10             	mov    0x10(%eax),%edi
    3fab:	8b 50 04             	mov    0x4(%eax),%edx
    3fae:	89 bd d4 fe ff ff    	mov    %edi,-0x12c(%ebp)
    3fb4:	89 8d d0 fe ff ff    	mov    %ecx,-0x130(%ebp)
    3fba:	8b 00                	mov    (%eax),%eax
    3fbc:	8d 7d 84             	lea    -0x7c(%ebp),%edi
    3fbf:	89 bd cc fe ff ff    	mov    %edi,-0x134(%ebp)
    3fc5:	85 c0                	test   %eax,%eax
    3fc7:	0f 84 03 02 00 00    	je     41d0 <bb_render_glyph+0x270>
    3fcd:	89 85 c0 fe ff ff    	mov    %eax,-0x140(%ebp)
    3fd3:	8b 45 14             	mov    0x14(%ebp),%eax
    3fd6:	01 c2                	add    %eax,%edx
    3fd8:	83 ec 0c             	sub    $0xc,%esp
    3fdb:	89 d3                	mov    %edx,%ebx
    3fdd:	8b 45 18             	mov    0x18(%ebp),%eax
    3fe0:	8b 95 d4 fe ff ff    	mov    -0x12c(%ebp),%edx
    3fe6:	8b b5 cc fe ff ff    	mov    -0x134(%ebp),%esi
    3fec:	29 d0                	sub    %edx,%eax
    3fee:	56                   	push   %esi
    3fef:	89 c7                	mov    %eax,%edi
    3ff1:	e8 fa 36 00 00       	call   76f0 <transform_identity>
    3ff6:	89 bd dc fe ff ff    	mov    %edi,-0x124(%ebp)
    3ffc:	83 ec 0c             	sub    $0xc,%esp
    3fff:	db 85 dc fe ff ff    	fildl  -0x124(%ebp)
    4005:	89 9d d4 fe ff ff    	mov    %ebx,-0x12c(%ebp)
    400b:	dd 5c 24 08          	fstpl  0x8(%esp)
    400f:	db 85 d4 fe ff ff    	fildl  -0x12c(%ebp)
    4015:	dd 1c 24             	fstpl  (%esp)
    4018:	56                   	push   %esi
    4019:	e8 02 37 00 00       	call   7720 <transform_translate>
    401e:	83 ec 2c             	sub    $0x2c,%esp
    4021:	b9 12 00 00 00       	mov    $0x12,%ecx
    4026:	89 e7                	mov    %esp,%edi
    4028:	f3 a5                	rep movsl %ds:(%esi),%es:(%edi)
    402a:	8b 4d 10             	mov    0x10(%ebp),%ecx
    402d:	51                   	push   %ecx
    402e:	e8 dd 21 00 00       	call   6210 <source_set_transform>
    4033:	83 c4 4c             	add    $0x4c,%esp
    4036:	8b 85 c0 fe ff ff    	mov    -0x140(%ebp),%eax
    403c:	8b 75 10             	mov    0x10(%ebp),%esi
    403f:	6a 00                	push   $0x0
    4041:	50                   	push   %eax
    4042:	56                   	push   %esi
    4043:	e8 48 22 00 00       	call   6290 <source_set_mask>
    4048:	8b 85 d0 fe ff ff    	mov    -0x130(%ebp),%eax
    404e:	5f                   	pop    %edi
    404f:	50                   	push   %eax
    4050:	8b 85 d8 fe ff ff    	mov    -0x128(%ebp),%eax
    4056:	50                   	push   %eax
    4057:	8b 85 dc fe ff ff    	mov    -0x124(%ebp),%eax
    405d:	50                   	push   %eax
    405e:	8b 45 0c             	mov    0xc(%ebp),%eax
    4061:	53                   	push   %ebx
    4062:	50                   	push   %eax
    4063:	e8 b8 1b 00 00       	call   5c20 <drawctx_transfer>
    4068:	83 c4 20             	add    $0x20,%esp
    406b:	31 c0                	xor    %eax,%eax
    406d:	8d 65 f4             	lea    -0xc(%ebp),%esp
    4070:	5b                   	pop    %ebx
    4071:	5e                   	pop    %esi
    4072:	5f                   	pop    %edi
    4073:	5d                   	pop    %ebp
    4074:	c3                   	ret    
    4075:	8d 76 00             	lea    0x0(%esi),%esi
    4078:	8d 55 84             	lea    -0x7c(%ebp),%edx
    407b:	57                   	push   %edi
    407c:	8b 43 18             	mov    0x18(%ebx),%eax
    407f:	52                   	push   %edx
    4080:	8b 53 1c             	mov    0x1c(%ebx),%edx
    4083:	56                   	push   %esi
    4084:	52                   	push   %edx
    4085:	ff 50 08             	call   *0x8(%eax)
    4088:	83 c4 10             	add    $0x10,%esp
    408b:	85 c0                	test   %eax,%eax
    408d:	75 de                	jne    406d <bb_render_glyph+0x10d>
    408f:	80 7b 20 00          	cmpb   $0x0,0x20(%ebx)
    4093:	75 63                	jne    40f8 <bb_render_glyph+0x198>
    4095:	8b 45 94             	mov    -0x6c(%ebp),%eax
    4098:	8b 55 84             	mov    -0x7c(%ebp),%edx
    409b:	89 85 d0 fe ff ff    	mov    %eax,-0x130(%ebp)
    40a1:	8b 45 90             	mov    -0x70(%ebp),%eax
    40a4:	89 85 d4 fe ff ff    	mov    %eax,-0x12c(%ebp)
    40aa:	8b 45 88             	mov    -0x78(%ebp),%eax
    40ad:	89 85 d8 fe ff ff    	mov    %eax,-0x128(%ebp)
    40b3:	8b 4b 14             	mov    0x14(%ebx),%ecx
    40b6:	8b 85 dc fe ff ff    	mov    -0x124(%ebp),%eax
    40bc:	01 c8                	add    %ecx,%eax
    40be:	8b 4d 84             	mov    -0x7c(%ebp),%ecx
    40c1:	3b 73 04             	cmp    0x4(%ebx),%esi
    40c4:	89 48 04             	mov    %ecx,0x4(%eax)
    40c7:	8b 4d 88             	mov    -0x78(%ebp),%ecx
    40ca:	89 48 08             	mov    %ecx,0x8(%eax)
    40cd:	8b 4d 8c             	mov    -0x74(%ebp),%ecx
    40d0:	89 48 0c             	mov    %ecx,0xc(%eax)
    40d3:	8b 4d 90             	mov    -0x70(%ebp),%ecx
    40d6:	89 48 10             	mov    %ecx,0x10(%eax)
    40d9:	8b 4d 94             	mov    -0x6c(%ebp),%ecx
    40dc:	c6 40 18 01          	movb   $0x1,0x18(%eax)
    40e0:	89 48 14             	mov    %ecx,0x14(%eax)
    40e3:	0f 82 d1 fe ff ff    	jb     3fba <bb_render_glyph+0x5a>
    40e9:	83 c8 ff             	or     $0xffffffff,%eax
    40ec:	e9 7c ff ff ff       	jmp    406d <bb_render_glyph+0x10d>
    40f1:	8d b4 26 00 00 00 00 	lea    0x0(%esi,%eiz,1),%esi
    40f8:	dd 43 24             	fldl   0x24(%ebx)
    40fb:	d9 bd ee fe ff ff    	fnstcw -0x112(%ebp)
    4101:	db 45 84             	fildl  -0x7c(%ebp)
    4104:	d8 c9                	fmul   %st(1),%st
    4106:	66 8b 85 ee fe ff ff 	mov    -0x112(%ebp),%ax
    410d:	b4 0c                	mov    $0xc,%ah
    410f:	66 89 85 ec fe ff ff 	mov    %ax,-0x114(%ebp)
    4116:	d9 05 7c 7c 00 00    	flds   0x7c7c
    411c:	dc c1                	fadd   %st,%st(1)
    411e:	d9 c9                	fxch   %st(1)
    4120:	d9 ad ec fe ff ff    	fldcw  -0x114(%ebp)
    4126:	db 9d e8 fe ff ff    	fistpl -0x118(%ebp)
    412c:	d9 ad ee fe ff ff    	fldcw  -0x112(%ebp)
    4132:	db 45 88             	fildl  -0x78(%ebp)
    4135:	d8 ca                	fmul   %st(2),%st
    4137:	8b 95 e8 fe ff ff    	mov    -0x118(%ebp),%edx
    413d:	89 55 84             	mov    %edx,-0x7c(%ebp)
    4140:	d8 c1                	fadd   %st(1),%st
    4142:	d9 ad ec fe ff ff    	fldcw  -0x114(%ebp)
    4148:	db 9d e8 fe ff ff    	fistpl -0x118(%ebp)
    414e:	d9 ad ee fe ff ff    	fldcw  -0x112(%ebp)
    4154:	db 45 8c             	fildl  -0x74(%ebp)
    4157:	d8 ca                	fmul   %st(2),%st
    4159:	8b 85 e8 fe ff ff    	mov    -0x118(%ebp),%eax
    415f:	89 85 d8 fe ff ff    	mov    %eax,-0x128(%ebp)
    4165:	89 45 88             	mov    %eax,-0x78(%ebp)
    4168:	d8 c1                	fadd   %st(1),%st
    416a:	d9 ad ec fe ff ff    	fldcw  -0x114(%ebp)
    4170:	db 5d 8c             	fistpl -0x74(%ebp)
    4173:	d9 ad ee fe ff ff    	fldcw  -0x112(%ebp)
    4179:	db 45 90             	fildl  -0x70(%ebp)
    417c:	d8 ca                	fmul   %st(2),%st
    417e:	d8 c1                	fadd   %st(1),%st
    4180:	d9 ad ec fe ff ff    	fldcw  -0x114(%ebp)
    4186:	db 9d e8 fe ff ff    	fistpl -0x118(%ebp)
    418c:	d9 ad ee fe ff ff    	fldcw  -0x112(%ebp)
    4192:	db 45 94             	fildl  -0x6c(%ebp)
    4195:	de ca                	fmulp  %st,%st(2)
    4197:	8b 85 e8 fe ff ff    	mov    -0x118(%ebp),%eax
    419d:	89 85 d4 fe ff ff    	mov    %eax,-0x12c(%ebp)
    41a3:	89 45 90             	mov    %eax,-0x70(%ebp)
    41a6:	de c1                	faddp  %st,%st(1)
    41a8:	d9 ad ec fe ff ff    	fldcw  -0x114(%ebp)
    41ae:	db 9d e8 fe ff ff    	fistpl -0x118(%ebp)
    41b4:	d9 ad ee fe ff ff    	fldcw  -0x112(%ebp)
    41ba:	8b 85 e8 fe ff ff    	mov    -0x118(%ebp),%eax
    41c0:	89 85 d0 fe ff ff    	mov    %eax,-0x130(%ebp)
    41c6:	89 45 94             	mov    %eax,-0x6c(%ebp)
    41c9:	e9 e5 fe ff ff       	jmp    40b3 <bb_render_glyph+0x153>
    41ce:	66 90                	xchg   %ax,%ax
    41d0:	8d 8d f8 fe ff ff    	lea    -0x108(%ebp),%ecx
    41d6:	50                   	push   %eax
    41d7:	8b 43 18             	mov    0x18(%ebx),%eax
    41da:	51                   	push   %ecx
    41db:	89 95 c0 fe ff ff    	mov    %edx,-0x140(%ebp)
    41e1:	8b 53 1c             	mov    0x1c(%ebx),%edx
    41e4:	56                   	push   %esi
    41e5:	52                   	push   %edx
    41e6:	ff 50 04             	call   *0x4(%eax)
    41e9:	83 c4 10             	add    $0x10,%esp
    41ec:	85 c0                	test   %eax,%eax
    41ee:	0f 85 79 fe ff ff    	jne    406d <bb_render_glyph+0x10d>
    41f4:	8d 85 00 ff ff ff    	lea    -0x100(%ebp),%eax
    41fa:	57                   	push   %edi
    41fb:	50                   	push   %eax
    41fc:	8d 85 fc fe ff ff    	lea    -0x104(%ebp),%eax
    4202:	50                   	push   %eax
    4203:	8b 85 f8 fe ff ff    	mov    -0x108(%ebp),%eax
    4209:	50                   	push   %eax
    420a:	e8 51 24 00 00       	call   6660 <surface_get_resolution>
    420f:	83 c4 10             	add    $0x10,%esp
    4212:	8b 95 c0 fe ff ff    	mov    -0x140(%ebp),%edx
    4218:	80 7b 20 00          	cmpb   $0x0,0x20(%ebx)
    421c:	75 0b                	jne    4229 <bb_render_glyph+0x2c9>
    421e:	8b 85 f8 fe ff ff    	mov    -0x108(%ebp),%eax
    4224:	e9 a4 fd ff ff       	jmp    3fcd <bb_render_glyph+0x6d>
    4229:	83 ec 0c             	sub    $0xc,%esp
    422c:	8b bd cc fe ff ff    	mov    -0x134(%ebp),%edi
    4232:	89 95 c8 fe ff ff    	mov    %edx,-0x138(%ebp)
    4238:	8d b5 3c ff ff ff    	lea    -0xc4(%ebp),%esi
    423e:	57                   	push   %edi
    423f:	e8 7c 1f 00 00       	call   61c0 <source_init>
    4244:	83 c4 0c             	add    $0xc,%esp
    4247:	8b 85 f8 fe ff ff    	mov    -0x108(%ebp),%eax
    424d:	89 bd cc fe ff ff    	mov    %edi,-0x134(%ebp)
    4253:	6a 00                	push   $0x0
    4255:	50                   	push   %eax
    4256:	57                   	push   %edi
    4257:	e8 04 20 00 00       	call   6260 <source_set_texture>
    425c:	89 34 24             	mov    %esi,(%esp)
    425f:	e8 8c 34 00 00       	call   76f0 <transform_identity>
    4264:	83 ec 0c             	sub    $0xc,%esp
    4267:	d9 05 7c 7c 00 00    	flds   0x7c7c
    426d:	dd 54 24 08          	fstl   0x8(%esp)
    4271:	dd 14 24             	fstl   (%esp)
    4274:	56                   	push   %esi
    4275:	dd 9d b8 fe ff ff    	fstpl  -0x148(%ebp)
    427b:	e8 a0 34 00 00       	call   7720 <transform_translate>
    4280:	83 c4 14             	add    $0x14,%esp
    4283:	8b 43 28             	mov    0x28(%ebx),%eax
    4286:	50                   	push   %eax
    4287:	8b 43 24             	mov    0x24(%ebx),%eax
    428a:	50                   	push   %eax
    428b:	8b 53 28             	mov    0x28(%ebx),%edx
    428e:	52                   	push   %edx
    428f:	8b 4b 24             	mov    0x24(%ebx),%ecx
    4292:	51                   	push   %ecx
    4293:	56                   	push   %esi
    4294:	e8 47 35 00 00       	call   77e0 <transform_scale>
    4299:	83 ec 2c             	sub    $0x2c,%esp
    429c:	89 e7                	mov    %esp,%edi
    429e:	b9 12 00 00 00       	mov    $0x12,%ecx
    42a3:	f3 a5                	rep movsl %ds:(%esi),%es:(%edi)
    42a5:	8b b5 cc fe ff ff    	mov    -0x134(%ebp),%esi
    42ab:	31 ff                	xor    %edi,%edi
    42ad:	56                   	push   %esi
    42ae:	e8 5d 1f 00 00       	call   6210 <source_set_transform>
    42b3:	8b b5 fc fe ff ff    	mov    -0x104(%ebp),%esi
    42b9:	89 bd c4 fe ff ff    	mov    %edi,-0x13c(%ebp)
    42bf:	89 b5 c0 fe ff ff    	mov    %esi,-0x140(%ebp)
    42c5:	31 ff                	xor    %edi,%edi
    42c7:	df ad c0 fe ff ff    	fildll -0x140(%ebp)
    42cd:	dc 4b 24             	fmull  0x24(%ebx)
    42d0:	d9 bd ee fe ff ff    	fnstcw -0x112(%ebp)
    42d6:	66 8b 85 ee fe ff ff 	mov    -0x112(%ebp),%ax
    42dd:	8b b5 00 ff ff ff    	mov    -0x100(%ebp),%esi
    42e3:	b4 0c                	mov    $0xc,%ah
    42e5:	83 c4 50             	add    $0x50,%esp
    42e8:	dd 85 b8 fe ff ff    	fldl   -0x148(%ebp)
    42ee:	dc c1                	fadd   %st,%st(1)
    42f0:	d9 c9                	fxch   %st(1)
    42f2:	66 89 85 ec fe ff ff 	mov    %ax,-0x114(%ebp)
    42f9:	89 b5 b8 fe ff ff    	mov    %esi,-0x148(%ebp)
    42ff:	89 bd bc fe ff ff    	mov    %edi,-0x144(%ebp)
    4305:	d9 ad ec fe ff ff    	fldcw  -0x114(%ebp)
    430b:	df bd e0 fe ff ff    	fistpll -0x120(%ebp)
    4311:	d9 ad ee fe ff ff    	fldcw  -0x112(%ebp)
    4317:	df ad b8 fe ff ff    	fildll -0x148(%ebp)
    431d:	dc 4b 24             	fmull  0x24(%ebx)
    4320:	8b 85 e0 fe ff ff    	mov    -0x120(%ebp),%eax
    4326:	8b 95 e4 fe ff ff    	mov    -0x11c(%ebp),%edx
    432c:	6a 00                	push   $0x0
    432e:	89 95 c4 fe ff ff    	mov    %edx,-0x13c(%ebp)
    4334:	6a 00                	push   $0x0
    4336:	de c1                	faddp  %st,%st(1)
    4338:	89 85 c0 fe ff ff    	mov    %eax,-0x140(%ebp)
    433e:	d9 ad ec fe ff ff    	fldcw  -0x114(%ebp)
    4344:	df bd e0 fe ff ff    	fistpll -0x120(%ebp)
    434a:	d9 ad ee fe ff ff    	fldcw  -0x112(%ebp)
    4350:	8b b5 e0 fe ff ff    	mov    -0x120(%ebp),%esi
    4356:	56                   	push   %esi
    4357:	50                   	push   %eax
    4358:	e8 c3 21 00 00       	call   6520 <surface_create>
    435d:	83 c4 10             	add    $0x10,%esp
    4360:	8b 95 c8 fe ff ff    	mov    -0x138(%ebp),%edx
    4366:	85 c0                	test   %eax,%eax
    4368:	74 79                	je     43e3 <bb_render_glyph+0x483>
    436a:	89 95 c8 fe ff ff    	mov    %edx,-0x138(%ebp)
    4370:	89 85 b8 fe ff ff    	mov    %eax,-0x148(%ebp)
    4376:	52                   	push   %edx
    4377:	52                   	push   %edx
    4378:	50                   	push   %eax
    4379:	8d 85 04 ff ff ff    	lea    -0xfc(%ebp),%eax
    437f:	50                   	push   %eax
    4380:	e8 ab 16 00 00       	call   5a30 <drawctx_init>
    4385:	8b 85 cc fe ff ff    	mov    -0x134(%ebp),%eax
    438b:	59                   	pop    %ecx
    438c:	5f                   	pop    %edi
    438d:	50                   	push   %eax
    438e:	8d 85 04 ff ff ff    	lea    -0xfc(%ebp),%eax
    4394:	50                   	push   %eax
    4395:	e8 66 18 00 00       	call   5c00 <drawctx_set_source>
    439a:	8b 85 c0 fe ff ff    	mov    -0x140(%ebp),%eax
    43a0:	89 34 24             	mov    %esi,(%esp)
    43a3:	50                   	push   %eax
    43a4:	8d 85 04 ff ff ff    	lea    -0xfc(%ebp),%eax
    43aa:	6a 00                	push   $0x0
    43ac:	6a 00                	push   $0x0
    43ae:	50                   	push   %eax
    43af:	e8 6c 18 00 00       	call   5c20 <drawctx_transfer>
    43b4:	83 c4 14             	add    $0x14,%esp
    43b7:	8b 85 f8 fe ff ff    	mov    -0x108(%ebp),%eax
    43bd:	50                   	push   %eax
    43be:	e8 2d 22 00 00       	call   65f0 <surface_destroy>
    43c3:	8b 4b 14             	mov    0x14(%ebx),%ecx
    43c6:	8b bd dc fe ff ff    	mov    -0x124(%ebp),%edi
    43cc:	8b 85 b8 fe ff ff    	mov    -0x148(%ebp),%eax
    43d2:	83 c4 10             	add    $0x10,%esp
    43d5:	89 04 39             	mov    %eax,(%ecx,%edi,1)
    43d8:	8b 95 c8 fe ff ff    	mov    -0x138(%ebp),%edx
    43de:	e9 ea fb ff ff       	jmp    3fcd <bb_render_glyph+0x6d>
    43e3:	83 ec 0c             	sub    $0xc,%esp
    43e6:	ff b5 f8 fe ff ff    	pushl  -0x108(%ebp)
    43ec:	e8 ff 21 00 00       	call   65f0 <surface_destroy>
    43f1:	83 c4 10             	add    $0x10,%esp
    43f4:	b8 fe ff ff ff       	mov    $0xfffffffe,%eax
    43f9:	e9 6f fc ff ff       	jmp    406d <bb_render_glyph+0x10d>
    43fe:	66 90                	xchg   %ax,%ax

00004400 <bitmap_font_create>:
    4400:	55                   	push   %ebp
    4401:	89 e5                	mov    %esp,%ebp
    4403:	57                   	push   %edi
    4404:	56                   	push   %esi
    4405:	53                   	push   %ebx
    4406:	83 ec 1c             	sub    $0x1c,%esp
    4409:	8b 75 10             	mov    0x10(%ebp),%esi
    440c:	8b 7d 20             	mov    0x20(%ebp),%edi
    440f:	85 f6                	test   %esi,%esi
    4411:	0f 84 21 01 00 00    	je     4538 <bitmap_font_create+0x138>
    4417:	83 ec 0c             	sub    $0xc,%esp
    441a:	6a 2c                	push   $0x2c
    441c:	e8 0f 3b 00 00       	call   7f30 <malloc@plt>
    4421:	83 c4 10             	add    $0x10,%esp
    4424:	89 c3                	mov    %eax,%ebx
    4426:	85 c0                	test   %eax,%eax
    4428:	0f 84 11 01 00 00    	je     453f <bitmap_font_create+0x13f>
    442e:	66 89 38             	mov    %di,(%eax)
    4431:	89 70 04             	mov    %esi,0x4(%eax)
    4434:	8b 45 08             	mov    0x8(%ebp),%eax
    4437:	8b 55 14             	mov    0x14(%ebp),%edx
    443a:	89 43 18             	mov    %eax,0x18(%ebx)
    443d:	8b 45 0c             	mov    0xc(%ebp),%eax
    4440:	89 43 1c             	mov    %eax,0x1c(%ebx)
    4443:	8b 45 18             	mov    0x18(%ebp),%eax
    4446:	89 43 0c             	mov    %eax,0xc(%ebx)
    4449:	8b 4d 1c             	mov    0x1c(%ebp),%ecx
    444c:	01 d0                	add    %edx,%eax
    444e:	81 e7 ff ff 00 00    	and    $0xffff,%edi
    4454:	89 53 08             	mov    %edx,0x8(%ebx)
    4457:	89 4b 10             	mov    %ecx,0x10(%ebx)
    445a:	39 f8                	cmp    %edi,%eax
    445c:	0f 84 ce 00 00 00    	je     4530 <bitmap_font_create+0x130>
    4462:	89 45 dc             	mov    %eax,-0x24(%ebp)
    4465:	d9 7d e6             	fnstcw -0x1a(%ebp)
    4468:	db 45 dc             	fildl  -0x24(%ebp)
    446b:	89 7d dc             	mov    %edi,-0x24(%ebp)
    446e:	66 8b 45 e6          	mov    -0x1a(%ebp),%ax
    4472:	db 45 dc             	fildl  -0x24(%ebp)
    4475:	d8 f1                	fdiv   %st(1),%st
    4477:	89 55 dc             	mov    %edx,-0x24(%ebp)
    447a:	b4 0c                	mov    $0xc,%ah
    447c:	66 89 45 e4          	mov    %ax,-0x1c(%ebp)
    4480:	db 45 dc             	fildl  -0x24(%ebp)
    4483:	d8 c9                	fmul   %st(1),%st
    4485:	d9 05 7c 7c 00 00    	flds   0x7c7c
    448b:	dc c1                	fadd   %st,%st(1)
    448d:	d9 c9                	fxch   %st(1)
    448f:	d9 6d e4             	fldcw  -0x1c(%ebp)
    4492:	db 5d e0             	fistpl -0x20(%ebp)
    4495:	d9 6d e6             	fldcw  -0x1a(%ebp)
    4498:	d9 ca                	fxch   %st(2)
    449a:	d8 c9                	fmul   %st(1),%st
    449c:	8b 55 e0             	mov    -0x20(%ebp),%edx
    449f:	89 53 08             	mov    %edx,0x8(%ebx)
    44a2:	d9 6d e4             	fldcw  -0x1c(%ebp)
    44a5:	db 5d e0             	fistpl -0x20(%ebp)
    44a8:	d9 6d e6             	fldcw  -0x1a(%ebp)
    44ab:	db 43 10             	fildl  0x10(%ebx)
    44ae:	d8 c9                	fmul   %st(1),%st
    44b0:	8b 45 e0             	mov    -0x20(%ebp),%eax
    44b3:	29 d0                	sub    %edx,%eax
    44b5:	89 43 0c             	mov    %eax,0xc(%ebx)
    44b8:	b0 01                	mov    $0x1,%al
    44ba:	de c2                	faddp  %st,%st(2)
    44bc:	d9 c9                	fxch   %st(1)
    44be:	d9 6d e4             	fldcw  -0x1c(%ebp)
    44c1:	db 5b 10             	fistpl 0x10(%ebx)
    44c4:	d9 6d e6             	fldcw  -0x1a(%ebp)
    44c7:	dd 5b 24             	fstpl  0x24(%ebx)
    44ca:	51                   	push   %ecx
    44cb:	88 43 20             	mov    %al,0x20(%ebx)
    44ce:	51                   	push   %ecx
    44cf:	6a 1c                	push   $0x1c
    44d1:	56                   	push   %esi
    44d2:	e8 b9 3a 00 00       	call   7f90 <calloc@plt>
    44d7:	83 c4 10             	add    $0x10,%esp
    44da:	89 43 14             	mov    %eax,0x14(%ebx)
    44dd:	85 c0                	test   %eax,%eax
    44df:	0f 84 7f 00 00 00    	je     4564 <bitmap_font_create+0x164>
    44e5:	8b 53 04             	mov    0x4(%ebx),%edx
    44e8:	85 d2                	test   %edx,%edx
    44ea:	74 1d                	je     4509 <bitmap_font_create+0x109>
    44ec:	8d 0c d5 00 00 00 00 	lea    0x0(,%edx,8),%ecx
    44f3:	29 d1                	sub    %edx,%ecx
    44f5:	8d 14 88             	lea    (%eax,%ecx,4),%edx
    44f8:	c7 00 00 00 00 00    	movl   $0x0,(%eax)
    44fe:	c6 40 18 00          	movb   $0x0,0x18(%eax)
    4502:	83 c0 1c             	add    $0x1c,%eax
    4505:	39 c2                	cmp    %eax,%edx
    4507:	75 ef                	jne    44f8 <bitmap_font_create+0xf8>
    4509:	52                   	push   %edx
    450a:	52                   	push   %edx
    450b:	53                   	push   %ebx
    450c:	68 fc 99 00 00       	push   $0x99fc
    4511:	e8 aa 19 00 00       	call   5ec0 <font_create>
    4516:	83 c4 10             	add    $0x10,%esp
    4519:	85 c0                	test   %eax,%eax
    451b:	74 29                	je     4546 <bitmap_font_create+0x146>
    451d:	8b 55 24             	mov    0x24(%ebp),%edx
    4520:	89 02                	mov    %eax,(%edx)
    4522:	31 c0                	xor    %eax,%eax
    4524:	8d 65 f4             	lea    -0xc(%ebp),%esp
    4527:	5b                   	pop    %ebx
    4528:	5e                   	pop    %esi
    4529:	5f                   	pop    %edi
    452a:	5d                   	pop    %ebp
    452b:	c3                   	ret    
    452c:	8d 74 26 00          	lea    0x0(%esi,%eiz,1),%esi
    4530:	d9 e8                	fld1   
    4532:	31 c0                	xor    %eax,%eax
    4534:	eb 91                	jmp    44c7 <bitmap_font_create+0xc7>
    4536:	66 90                	xchg   %ax,%ax
    4538:	b8 f2 ff ff ff       	mov    $0xfffffff2,%eax
    453d:	eb e5                	jmp    4524 <bitmap_font_create+0x124>
    453f:	b8 fe ff ff ff       	mov    $0xfffffffe,%eax
    4544:	eb de                	jmp    4524 <bitmap_font_create+0x124>
    4546:	83 ec 0c             	sub    $0xc,%esp
    4549:	8b 43 14             	mov    0x14(%ebx),%eax
    454c:	50                   	push   %eax
    454d:	e8 0e 3c 00 00       	call   8160 <free@plt>
    4552:	89 1c 24             	mov    %ebx,(%esp)
    4555:	e8 06 3c 00 00       	call   8160 <free@plt>
    455a:	83 c4 10             	add    $0x10,%esp
    455d:	b8 fe ff ff ff       	mov    $0xfffffffe,%eax
    4562:	eb c0                	jmp    4524 <bitmap_font_create+0x124>
    4564:	83 ec 0c             	sub    $0xc,%esp
    4567:	53                   	push   %ebx
    4568:	e8 f3 3b 00 00       	call   8160 <free@plt>
    456d:	83 c4 10             	add    $0x10,%esp
    4570:	b8 fe ff ff ff       	mov    $0xfffffffe,%eax
    4575:	eb ad                	jmp    4524 <bitmap_font_create+0x124>
    4577:	66 90                	xchg   %ax,%ax
    4579:	66 90                	xchg   %ax,%ax
    457b:	66 90                	xchg   %ax,%ax
    457d:	66 90                	xchg   %ax,%ax
    457f:	90                   	nop

00004580 <pcf_release>:
    4580:	55                   	push   %ebp
    4581:	89 e5                	mov    %esp,%ebp
    4583:	53                   	push   %ebx
    4584:	83 ec 10             	sub    $0x10,%esp
    4587:	8b 5d 08             	mov    0x8(%ebp),%ebx
    458a:	8b 03                	mov    (%ebx),%eax
    458c:	50                   	push   %eax
    458d:	e8 ee 3a 00 00       	call   8080 <fclose@plt>
    4592:	89 5d 08             	mov    %ebx,0x8(%ebp)
    4595:	83 c4 10             	add    $0x10,%esp
    4598:	8b 5d fc             	mov    -0x4(%ebp),%ebx
    459b:	c9                   	leave  
    459c:	e9 bf 3b 00 00       	jmp    8160 <free@plt>
    45a1:	eb 0d                	jmp    45b0 <pcf_resolve_glyph>
    45a3:	90                   	nop
    45a4:	90                   	nop
    45a5:	90                   	nop
    45a6:	90                   	nop
    45a7:	90                   	nop
    45a8:	90                   	nop
    45a9:	90                   	nop
    45aa:	90                   	nop
    45ab:	90                   	nop
    45ac:	90                   	nop
    45ad:	90                   	nop
    45ae:	90                   	nop
    45af:	90                   	nop

000045b0 <pcf_resolve_glyph>:
    45b0:	55                   	push   %ebp
    45b1:	31 d2                	xor    %edx,%edx
    45b3:	89 e5                	mov    %esp,%ebp
    45b5:	57                   	push   %edi
    45b6:	56                   	push   %esi
    45b7:	53                   	push   %ebx
    45b8:	83 ec 1c             	sub    $0x1c,%esp
    45bb:	31 db                	xor    %ebx,%ebx
    45bd:	8b 75 08             	mov    0x8(%ebp),%esi
    45c0:	8b 4d 0c             	mov    0xc(%ebp),%ecx
    45c3:	31 ff                	xor    %edi,%edi
    45c5:	66 8b 5e 48          	mov    0x48(%esi),%bx
    45c9:	66 8b 56 4a          	mov    0x4a(%esi),%dx
    45cd:	66 8b 7e 4c          	mov    0x4c(%esi),%di
    45d1:	29 da                	sub    %ebx,%edx
    45d3:	0f b6 c5             	movzbl %ch,%eax
    45d6:	29 f8                	sub    %edi,%eax
    45d8:	42                   	inc    %edx
    45d9:	0f af d0             	imul   %eax,%edx
    45dc:	31 c0                	xor    %eax,%eax
    45de:	6a 00                	push   $0x0
    45e0:	88 c8                	mov    %cl,%al
    45e2:	8b 7e 34             	mov    0x34(%esi),%edi
    45e5:	29 d8                	sub    %ebx,%eax
    45e7:	01 d0                	add    %edx,%eax
    45e9:	8d 4f 0e             	lea    0xe(%edi),%ecx
    45ec:	89 c3                	mov    %eax,%ebx
    45ee:	c1 fb 1f             	sar    $0x1f,%ebx
    45f1:	89 da                	mov    %ebx,%edx
    45f3:	31 db                	xor    %ebx,%ebx
    45f5:	0f a4 c2 01          	shld   $0x1,%eax,%edx
    45f9:	01 c0                	add    %eax,%eax
    45fb:	01 c8                	add    %ecx,%eax
    45fd:	11 da                	adc    %ebx,%edx
    45ff:	52                   	push   %edx
    4600:	8b 16                	mov    (%esi),%edx
    4602:	50                   	push   %eax
    4603:	52                   	push   %edx
    4604:	e8 97 39 00 00       	call   7fa0 <fseek@plt>
    4609:	83 c4 10             	add    $0x10,%esp
    460c:	85 c0                	test   %eax,%eax
    460e:	74 18                	je     4628 <pcf_resolve_glyph+0x78>
    4610:	e8 eb 38 00 00       	call   7f00 <__errno@plt>
    4615:	8b 18                	mov    (%eax),%ebx
    4617:	8d 65 f4             	lea    -0xc(%ebp),%esp
    461a:	89 d8                	mov    %ebx,%eax
    461c:	5b                   	pop    %ebx
    461d:	5e                   	pop    %esi
    461e:	5f                   	pop    %edi
    461f:	5d                   	pop    %ebp
    4620:	c3                   	ret    
    4621:	8d b4 26 00 00 00 00 	lea    0x0(%esi,%eiz,1),%esi
    4628:	89 c3                	mov    %eax,%ebx
    462a:	8b 06                	mov    (%esi),%eax
    462c:	50                   	push   %eax
    462d:	8d 45 e6             	lea    -0x1a(%ebp),%eax
    4630:	6a 01                	push   $0x1
    4632:	66 c7 45 e6 00 00    	movw   $0x0,-0x1a(%ebp)
    4638:	6a 02                	push   $0x2
    463a:	50                   	push   %eax
    463b:	e8 e0 39 00 00       	call   8020 <fread@plt>
    4640:	83 c4 10             	add    $0x10,%esp
    4643:	48                   	dec    %eax
    4644:	75 32                	jne    4678 <pcf_resolve_glyph+0xc8>
    4646:	66 8b 7d e6          	mov    -0x1a(%ebp),%di
    464a:	f6 46 2c 04          	testb  $0x4,0x2c(%esi)
    464e:	75 20                	jne    4670 <pcf_resolve_glyph+0xc0>
    4650:	66 83 ff ff          	cmp    $0xffff,%di
    4654:	74 29                	je     467f <pcf_resolve_glyph+0xcf>
    4656:	8b 55 10             	mov    0x10(%ebp),%edx
    4659:	31 c0                	xor    %eax,%eax
    465b:	66 89 f8             	mov    %di,%ax
    465e:	89 02                	mov    %eax,(%edx)
    4660:	8d 65 f4             	lea    -0xc(%ebp),%esp
    4663:	89 d8                	mov    %ebx,%eax
    4665:	5b                   	pop    %ebx
    4666:	5e                   	pop    %esi
    4667:	5f                   	pop    %edi
    4668:	5d                   	pop    %ebp
    4669:	c3                   	ret    
    466a:	8d b6 00 00 00 00    	lea    0x0(%esi),%esi
    4670:	66 c1 c7 08          	rol    $0x8,%di
    4674:	eb da                	jmp    4650 <pcf_resolve_glyph+0xa0>
    4676:	66 90                	xchg   %ax,%ax
    4678:	bb f2 ff ff ff       	mov    $0xfffffff2,%ebx
    467d:	eb 98                	jmp    4617 <pcf_resolve_glyph+0x67>
    467f:	83 cb ff             	or     $0xffffffff,%ebx
    4682:	eb 93                	jmp    4617 <pcf_resolve_glyph+0x67>
    4684:	8d b6 00 00 00 00    	lea    0x0(%esi),%esi
    468a:	8d bf 00 00 00 00    	lea    0x0(%edi),%edi

00004690 <pcf_load_glyph_surface>:
    4690:	55                   	push   %ebp
    4691:	89 e5                	mov    %esp,%ebp
    4693:	57                   	push   %edi
    4694:	56                   	push   %esi
    4695:	53                   	push   %ebx
    4696:	83 ec 60             	sub    $0x60,%esp
    4699:	8d 45 d0             	lea    -0x30(%ebp),%eax
    469c:	8b 75 08             	mov    0x8(%ebp),%esi
    469f:	8b 5d 0c             	mov    0xc(%ebp),%ebx
    46a2:	6a 0c                	push   $0xc
    46a4:	6a 00                	push   $0x0
    46a6:	50                   	push   %eax
    46a7:	e8 a4 39 00 00       	call   8050 <memset@plt>
    46ac:	83 c4 10             	add    $0x10,%esp
    46af:	f6 46 1d 01          	testb  $0x1,0x1d(%esi)
    46b3:	74 43                	je     46f8 <pcf_load_glyph_surface+0x68>
    46b5:	6a 00                	push   $0x0
    46b7:	8d 44 9b 06          	lea    0x6(%ebx,%ebx,4),%eax
    46bb:	8b 56 24             	mov    0x24(%esi),%edx
    46be:	8b 0e                	mov    (%esi),%ecx
    46c0:	01 d0                	add    %edx,%eax
    46c2:	31 d2                	xor    %edx,%edx
    46c4:	52                   	push   %edx
    46c5:	50                   	push   %eax
    46c6:	51                   	push   %ecx
    46c7:	e8 d4 38 00 00       	call   7fa0 <fseek@plt>
    46cc:	83 c4 10             	add    $0x10,%esp
    46cf:	85 c0                	test   %eax,%eax
    46d1:	0f 84 d1 00 00 00    	je     47a8 <pcf_load_glyph_surface+0x118>
    46d7:	e8 24 38 00 00       	call   7f00 <__errno@plt>
    46dc:	8b 00                	mov    (%eax),%eax
    46de:	89 45 a8             	mov    %eax,-0x58(%ebp)
    46e1:	8b 45 a8             	mov    -0x58(%ebp),%eax
    46e4:	85 c0                	test   %eax,%eax
    46e6:	0f 84 84 00 00 00    	je     4770 <pcf_load_glyph_surface+0xe0>
    46ec:	8b 45 a8             	mov    -0x58(%ebp),%eax
    46ef:	8d 65 f4             	lea    -0xc(%ebp),%esp
    46f2:	5b                   	pop    %ebx
    46f3:	5e                   	pop    %esi
    46f4:	5f                   	pop    %edi
    46f5:	5d                   	pop    %ebp
    46f6:	c3                   	ret    
    46f7:	90                   	nop
    46f8:	6a 00                	push   $0x0
    46fa:	8d 14 5b             	lea    (%ebx,%ebx,2),%edx
    46fd:	8b 46 24             	mov    0x24(%esi),%eax
    4700:	8d 44 90 08          	lea    0x8(%eax,%edx,4),%eax
    4704:	31 d2                	xor    %edx,%edx
    4706:	52                   	push   %edx
    4707:	50                   	push   %eax
    4708:	8b 06                	mov    (%esi),%eax
    470a:	50                   	push   %eax
    470b:	e8 90 38 00 00       	call   7fa0 <fseek@plt>
    4710:	83 c4 10             	add    $0x10,%esp
    4713:	85 c0                	test   %eax,%eax
    4715:	75 c0                	jne    46d7 <pcf_load_glyph_surface+0x47>
    4717:	8b 3e                	mov    (%esi),%edi
    4719:	8d 45 dc             	lea    -0x24(%ebp),%eax
    471c:	57                   	push   %edi
    471d:	6a 01                	push   $0x1
    471f:	6a 0c                	push   $0xc
    4721:	50                   	push   %eax
    4722:	e8 f9 38 00 00       	call   8020 <fread@plt>
    4727:	83 c4 10             	add    $0x10,%esp
    472a:	c7 45 a8 f2 ff ff ff 	movl   $0xfffffff2,-0x58(%ebp)
    4731:	48                   	dec    %eax
    4732:	75 b8                	jne    46ec <pcf_load_glyph_surface+0x5c>
    4734:	8b 45 dc             	mov    -0x24(%ebp),%eax
    4737:	f6 46 1c 04          	testb  $0x4,0x1c(%esi)
    473b:	0f 85 9d 02 00 00    	jne    49de <pcf_load_glyph_surface+0x34e>
    4741:	66 89 45 d0          	mov    %ax,-0x30(%ebp)
    4745:	66 8b 45 de          	mov    -0x22(%ebp),%ax
    4749:	66 89 45 d2          	mov    %ax,-0x2e(%ebp)
    474d:	8b 45 e0             	mov    -0x20(%ebp),%eax
    4750:	66 89 45 d4          	mov    %ax,-0x2c(%ebp)
    4754:	66 8b 45 e2          	mov    -0x1e(%ebp),%ax
    4758:	66 89 45 d6          	mov    %ax,-0x2a(%ebp)
    475c:	8b 45 e4             	mov    -0x1c(%ebp),%eax
    475f:	66 89 45 d8          	mov    %ax,-0x28(%ebp)
    4763:	66 8b 45 e6          	mov    -0x1a(%ebp),%ax
    4767:	66 89 45 da          	mov    %ax,-0x26(%ebp)
    476b:	90                   	nop
    476c:	8d 74 26 00          	lea    0x0(%esi,%eiz,1),%esi
    4770:	6a 00                	push   $0x0
    4772:	31 d2                	xor    %edx,%edx
    4774:	8b 46 14             	mov    0x14(%esi),%eax
    4777:	8b 0e                	mov    (%esi),%ecx
    4779:	52                   	push   %edx
    477a:	8d 44 98 08          	lea    0x8(%eax,%ebx,4),%eax
    477e:	50                   	push   %eax
    477f:	51                   	push   %ecx
    4780:	e8 1b 38 00 00       	call   7fa0 <fseek@plt>
    4785:	83 c4 10             	add    $0x10,%esp
