
fontviewer:     file format elf32-i386


Disassembly of section .init:

000010f4 <__entry>:
    10f4:	66 8c d0             	mov    %ss,%ax
    10f7:	8e d8                	mov    %eax,%ds
    10f9:	8e c0                	mov    %eax,%es
    10fb:	8e e0                	mov    %eax,%fs
    10fd:	b8 01 00 00 00       	mov    $0x1,%eax
    1102:	0f a2                	cpuid  
    1104:	0f ba e2 0b          	bt     $0xb,%edx
    1108:	73 0c                	jae    1116 <__entry+0x22>
    110a:	8d 05 20 50 01 00    	lea    0x15020,%eax
    1110:	c7 00 20 81 00 00    	movl   $0x8120,(%eax)
    1116:	6a 00                	push   $0x0
    1118:	6a 00                	push   $0x0
    111a:	89 e5                	mov    %esp,%ebp
    111c:	57                   	push   %edi
    111d:	e8 5e 6d 00 00       	call   7e80 <__main@plt>

Disassembly of section .text:

00001130 <text.constprop.1>:
    1130:	55                   	push   %ebp
    1131:	89 e5                	mov    %esp,%ebp
    1133:	53                   	push   %ebx
    1134:	83 ec 28             	sub    $0x28,%esp
    1137:	8d 45 20             	lea    0x20(%ebp),%eax
    113a:	8b 5d 08             	mov    0x8(%ebp),%ebx
    113d:	50                   	push   %eax
    113e:	8b 45 1c             	mov    0x1c(%ebp),%eax
    1141:	50                   	push   %eax
    1142:	8d 45 f4             	lea    -0xc(%ebp),%eax
    1145:	50                   	push   %eax
    1146:	c7 45 f4 00 00 00 00 	movl   $0x0,-0xc(%ebp)
    114d:	e8 ee 6f 00 00       	call   8140 <vasprintf@plt>
    1152:	83 c4 10             	add    $0x10,%esp
    1155:	85 c0                	test   %eax,%eax
    1157:	7e 3d                	jle    1196 <text.constprop.1+0x66>
    1159:	8b 55 10             	mov    0x10(%ebp),%edx
    115c:	89 45 e4             	mov    %eax,-0x1c(%ebp)
    115f:	50                   	push   %eax
    1160:	50                   	push   %eax
    1161:	52                   	push   %edx
    1162:	53                   	push   %ebx
    1163:	e8 98 4a 00 00       	call   5c00 <drawctx_set_source>
    1168:	59                   	pop    %ecx
    1169:	58                   	pop    %eax
    116a:	8b 45 0c             	mov    0xc(%ebp),%eax
    116d:	50                   	push   %eax
    116e:	53                   	push   %ebx
    116f:	e8 9c 4a 00 00       	call   5c10 <drawctx_set_font>
    1174:	8b 45 18             	mov    0x18(%ebp),%eax
    1177:	50                   	push   %eax
    1178:	8b 45 f4             	mov    -0xc(%ebp),%eax
    117b:	6a 00                	push   $0x0
    117d:	50                   	push   %eax
    117e:	53                   	push   %ebx
    117f:	e8 0c 4d 00 00       	call   5e90 <drawctx_print>
    1184:	83 c4 14             	add    $0x14,%esp
    1187:	8b 45 f4             	mov    -0xc(%ebp),%eax
    118a:	50                   	push   %eax
    118b:	e8 d0 6f 00 00       	call   8160 <free@plt>
    1190:	83 c4 10             	add    $0x10,%esp
    1193:	8b 45 e4             	mov    -0x1c(%ebp),%eax
    1196:	8b 5d fc             	mov    -0x4(%ebp),%ebx
    1199:	c9                   	leave  
    119a:	c3                   	ret    
    119b:	90                   	nop
    119c:	8d 74 26 00          	lea    0x0(%esi,%eiz,1),%esi

000011a0 <draw>:
    11a0:	55                   	push   %ebp
    11a1:	89 e5                	mov    %esp,%ebp
    11a3:	57                   	push   %edi
    11a4:	56                   	push   %esi
    11a5:	53                   	push   %ebx
    11a6:	81 ec 28 04 00 00    	sub    $0x428,%esp
    11ac:	8d 5d 84             	lea    -0x7c(%ebp),%ebx
    11af:	89 de                	mov    %ebx,%esi
    11b1:	53                   	push   %ebx
    11b2:	e8 09 50 00 00       	call   61c0 <source_init>
    11b7:	5f                   	pop    %edi
    11b8:	8d bd 00 fc ff ff    	lea    -0x400(%ebp),%edi
    11be:	58                   	pop    %eax
    11bf:	6a ff                	push   $0xffffffff
    11c1:	53                   	push   %ebx
    11c2:	e8 89 50 00 00       	call   6250 <source_set_color>
    11c7:	b9 19 00 00 00       	mov    $0x19,%ecx
    11cc:	f3 a5                	rep movsl %ds:(%esi),%es:(%edi)
    11ce:	89 1c 24             	mov    %ebx,(%esp)
    11d1:	8d bd 64 fc ff ff    	lea    -0x39c(%ebp),%edi
    11d7:	e8 e4 4f 00 00       	call   61c0 <source_init>
    11dc:	89 de                	mov    %ebx,%esi
    11de:	58                   	pop    %eax
    11df:	5a                   	pop    %edx
    11e0:	68 00 00 00 ff       	push   $0xff000000
    11e5:	53                   	push   %ebx
    11e6:	e8 65 50 00 00       	call   6250 <source_set_color>
    11eb:	b9 19 00 00 00       	mov    $0x19,%ecx
    11f0:	f3 a5                	rep movsl %ds:(%esi),%es:(%edi)
    11f2:	89 1c 24             	mov    %ebx,(%esp)
    11f5:	8d bd c8 fc ff ff    	lea    -0x338(%ebp),%edi
    11fb:	e8 c0 4f 00 00       	call   61c0 <source_init>
    1200:	59                   	pop    %ecx
    1201:	5e                   	pop    %esi
    1202:	89 de                	mov    %ebx,%esi
    1204:	68 ff 00 00 ff       	push   $0xff0000ff
    1209:	53                   	push   %ebx
    120a:	e8 41 50 00 00       	call   6250 <source_set_color>
    120f:	b9 19 00 00 00       	mov    $0x19,%ecx
    1214:	f3 a5                	rep movsl %ds:(%esi),%es:(%edi)
    1216:	89 1c 24             	mov    %ebx,(%esp)
    1219:	89 de                	mov    %ebx,%esi
    121b:	e8 a0 4f 00 00       	call   61c0 <source_init>
    1220:	5f                   	pop    %edi
    1221:	8d bd 2c fd ff ff    	lea    -0x2d4(%ebp),%edi
    1227:	58                   	pop    %eax
    1228:	68 80 e6 ff ff       	push   $0xffffe680
    122d:	53                   	push   %ebx
    122e:	e8 1d 50 00 00       	call   6250 <source_set_color>
    1233:	b9 19 00 00 00       	mov    $0x19,%ecx
    1238:	f3 a5                	rep movsl %ds:(%esi),%es:(%edi)
    123a:	89 1c 24             	mov    %ebx,(%esp)
    123d:	8d bd 90 fd ff ff    	lea    -0x270(%ebp),%edi
    1243:	e8 78 4f 00 00       	call   61c0 <source_init>
    1248:	89 de                	mov    %ebx,%esi
    124a:	58                   	pop    %eax
    124b:	5a                   	pop    %edx
    124c:	68 55 99 ff ff       	push   $0xffff9955
    1251:	53                   	push   %ebx
    1252:	e8 f9 4f 00 00       	call   6250 <source_set_color>
    1257:	b9 19 00 00 00       	mov    $0x19,%ecx
    125c:	f3 a5                	rep movsl %ds:(%esi),%es:(%edi)
    125e:	89 1c 24             	mov    %ebx,(%esp)
    1261:	8d bd f4 fd ff ff    	lea    -0x20c(%ebp),%edi
    1267:	e8 54 4f 00 00       	call   61c0 <source_init>
    126c:	59                   	pop    %ecx
    126d:	5e                   	pop    %esi
    126e:	89 de                	mov    %ebx,%esi
    1270:	68 aa ff cc ff       	push   $0xffccffaa
    1275:	53                   	push   %ebx
    1276:	e8 d5 4f 00 00       	call   6250 <source_set_color>
    127b:	b9 19 00 00 00       	mov    $0x19,%ecx
    1280:	f3 a5                	rep movsl %ds:(%esi),%es:(%edi)
    1282:	89 1c 24             	mov    %ebx,(%esp)
    1285:	89 de                	mov    %ebx,%esi
    1287:	e8 34 4f 00 00       	call   61c0 <source_init>
    128c:	5f                   	pop    %edi
    128d:	8d bd 58 fe ff ff    	lea    -0x1a8(%ebp),%edi
    1293:	58                   	pop    %eax
    1294:	68 00 d4 55 ff       	push   $0xff55d400
    1299:	53                   	push   %ebx
    129a:	e8 b1 4f 00 00       	call   6250 <source_set_color>
    129f:	b9 19 00 00 00       	mov    $0x19,%ecx
    12a4:	f3 a5                	rep movsl %ds:(%esi),%es:(%edi)
    12a6:	89 1c 24             	mov    %ebx,(%esp)
    12a9:	8d bd bc fe ff ff    	lea    -0x144(%ebp),%edi
    12af:	e8 0c 4f 00 00       	call   61c0 <source_init>
    12b4:	89 de                	mov    %ebx,%esi
    12b6:	58                   	pop    %eax
    12b7:	5a                   	pop    %edx
    12b8:	68 ff ee aa ff       	push   $0xffaaeeff
    12bd:	53                   	push   %ebx
    12be:	e8 8d 4f 00 00       	call   6250 <source_set_color>
    12c3:	b9 19 00 00 00       	mov    $0x19,%ecx
    12c8:	f3 a5                	rep movsl %ds:(%esi),%es:(%edi)
    12ca:	89 1c 24             	mov    %ebx,(%esp)
    12cd:	8d bd 20 ff ff ff    	lea    -0xe0(%ebp),%edi
    12d3:	e8 e8 4e 00 00       	call   61c0 <source_init>
    12d8:	59                   	pop    %ecx
    12d9:	5e                   	pop    %esi
    12da:	89 de                	mov    %ebx,%esi
    12dc:	68 d4 aa 00 ff       	push   $0xff00aad4
    12e1:	53                   	push   %ebx
    12e2:	e8 69 4f 00 00       	call   6250 <source_set_color>
    12e7:	31 d2                	xor    %edx,%edx
    12e9:	b9 19 00 00 00       	mov    $0x19,%ecx
    12ee:	a1 28 50 01 00       	mov    0x15028,%eax
    12f3:	83 c4 10             	add    $0x10,%esp
    12f6:	66 8b 15 c2 99 00 00 	mov    0x99c2,%dx
    12fd:	f3 a5                	rep movsl %ds:(%esi),%es:(%edi)
    12ff:	85 c0                	test   %eax,%eax
    1301:	0f 84 39 02 00 00    	je     1540 <draw+0x3a0>
    1307:	51                   	push   %ecx
    1308:	52                   	push   %edx
    1309:	50                   	push   %eax
    130a:	8d 85 ec fb ff ff    	lea    -0x414(%ebp),%eax
    1310:	50                   	push   %eax
    1311:	e8 ba 38 00 00       	call   4bd0 <pcf_font_create>
    1316:	83 c4 10             	add    $0x10,%esp
    1319:	89 c6                	mov    %eax,%esi
    131b:	85 f6                	test   %esi,%esi
    131d:	75 61                	jne    1380 <draw+0x1e0>
    131f:	50                   	push   %eax
    1320:	50                   	push   %eax
    1321:	8d 85 f0 fb ff ff    	lea    -0x410(%ebp),%eax
    1327:	6a 10                	push   $0x10
    1329:	50                   	push   %eax
    132a:	e8 11 2a 00 00       	call   3d40 <embedded_font_create>
    132f:	83 c4 10             	add    $0x10,%esp
    1332:	89 c6                	mov    %eax,%esi
    1334:	85 c0                	test   %eax,%eax
    1336:	75 28                	jne    1360 <draw+0x1c0>
    1338:	50                   	push   %eax
    1339:	50                   	push   %eax
    133a:	8d 85 f4 fb ff ff    	lea    -0x40c(%ebp),%eax
    1340:	50                   	push   %eax
    1341:	8b 85 ec fb ff ff    	mov    -0x414(%ebp),%eax
    1347:	50                   	push   %eax
    1348:	e8 c3 4b 00 00       	call   5f10 <font_get_metrics>
    134d:	83 c4 10             	add    $0x10,%esp
    1350:	89 c6                	mov    %eax,%esi
    1352:	85 c0                	test   %eax,%eax
    1354:	74 4a                	je     13a0 <draw+0x200>
    1356:	8d 65 f4             	lea    -0xc(%ebp),%esp
    1359:	89 f0                	mov    %esi,%eax
    135b:	5b                   	pop    %ebx
    135c:	5e                   	pop    %esi
    135d:	5f                   	pop    %edi
    135e:	5d                   	pop    %ebp
    135f:	c3                   	ret    
    1360:	83 ec 0c             	sub    $0xc,%esp
    1363:	68 39 7b 00 00       	push   $0x7b39
    1368:	e8 63 6b 00 00       	call   7ed0 <printf@plt>
    136d:	83 c4 10             	add    $0x10,%esp
    1370:	8d 65 f4             	lea    -0xc(%ebp),%esp
    1373:	89 f0                	mov    %esi,%eax
    1375:	5b                   	pop    %ebx
    1376:	5e                   	pop    %esi
    1377:	5f                   	pop    %edi
    1378:	5d                   	pop    %ebp
    1379:	c3                   	ret    
    137a:	8d b6 00 00 00 00    	lea    0x0(%esi),%esi
    1380:	83 ec 0c             	sub    $0xc,%esp
    1383:	68 23 7b 00 00       	push   $0x7b23
    1388:	e8 43 6b 00 00       	call   7ed0 <printf@plt>
    138d:	83 c4 10             	add    $0x10,%esp
    1390:	8d 65 f4             	lea    -0xc(%ebp),%esp
    1393:	89 f0                	mov    %esi,%eax
    1395:	5b                   	pop    %ebx
    1396:	5e                   	pop    %esi
    1397:	5f                   	pop    %edi
    1398:	5d                   	pop    %ebp
    1399:	c3                   	ret    
    139a:	8d b6 00 00 00 00    	lea    0x0(%esi),%esi
    13a0:	8b bd f4 fb ff ff    	mov    -0x40c(%ebp),%edi
    13a6:	8b 8d f8 fb ff ff    	mov    -0x408(%ebp),%ecx
    13ac:	8b 95 fc fb ff ff    	mov    -0x404(%ebp),%edx
    13b2:	8d 47 32             	lea    0x32(%edi),%eax
    13b5:	89 85 e0 fb ff ff    	mov    %eax,-0x420(%ebp)
    13bb:	01 c8                	add    %ecx,%eax
    13bd:	89 85 e4 fb ff ff    	mov    %eax,-0x41c(%ebp)
    13c3:	01 d0                	add    %edx,%eax
    13c5:	89 85 dc fb ff ff    	mov    %eax,-0x424(%ebp)
    13cb:	a1 38 50 01 00       	mov    0x15038,%eax
    13d0:	51                   	push   %ecx
    13d1:	51                   	push   %ecx
    13d2:	50                   	push   %eax
    13d3:	53                   	push   %ebx
    13d4:	e8 57 46 00 00       	call   5a30 <drawctx_init>
    13d9:	58                   	pop    %eax
    13da:	8d 85 00 fc ff ff    	lea    -0x400(%ebp),%eax
    13e0:	5a                   	pop    %edx
    13e1:	50                   	push   %eax
    13e2:	53                   	push   %ebx
    13e3:	e8 18 48 00 00       	call   5c00 <drawctx_set_source>
    13e8:	a1 2c 50 01 00       	mov    0x1502c,%eax
    13ed:	59                   	pop    %ecx
    13ee:	50                   	push   %eax
    13ef:	a1 30 50 01 00       	mov    0x15030,%eax
    13f4:	50                   	push   %eax
    13f5:	6a 00                	push   $0x0
    13f7:	6a 00                	push   $0x0
    13f9:	53                   	push   %ebx
    13fa:	e8 21 48 00 00       	call   5c20 <drawctx_transfer>
    13ff:	83 c4 20             	add    $0x20,%esp
    1402:	80 3d c0 99 00 00 00 	cmpb   $0x0,0x99c0
    1409:	0f 84 d5 00 00 00    	je     14e4 <draw+0x344>
    140f:	8d 4f 31             	lea    0x31(%edi),%ecx
    1412:	a1 30 50 01 00       	mov    0x15030,%eax
    1417:	89 85 d8 fb ff ff    	mov    %eax,-0x428(%ebp)
    141d:	83 f9 31             	cmp    $0x31,%ecx
    1420:	0f 87 82 02 00 00    	ja     16a8 <draw+0x508>
    1426:	50                   	push   %eax
    1427:	50                   	push   %eax
    1428:	8d 85 90 fd ff ff    	lea    -0x270(%ebp),%eax
    142e:	50                   	push   %eax
    142f:	53                   	push   %ebx
    1430:	e8 cb 47 00 00       	call   5c00 <drawctx_set_source>
    1435:	8b bd d8 fb ff ff    	mov    -0x428(%ebp),%edi
    143b:	47                   	inc    %edi
    143c:	c7 04 24 01 00 00 00 	movl   $0x1,(%esp)
    1443:	57                   	push   %edi
    1444:	6a 32                	push   $0x32
    1446:	6a 00                	push   $0x0
    1448:	53                   	push   %ebx
    1449:	e8 d2 47 00 00       	call   5c20 <drawctx_transfer>
    144e:	8b 85 e4 fb ff ff    	mov    -0x41c(%ebp),%eax
    1454:	48                   	dec    %eax
    1455:	83 c4 20             	add    $0x20,%esp
    1458:	8b 3d 30 50 01 00    	mov    0x15030,%edi
    145e:	3b 85 e0 fb ff ff    	cmp    -0x420(%ebp),%eax
    1464:	0f 83 fe 01 00 00    	jae    1668 <draw+0x4c8>
    146a:	50                   	push   %eax
    146b:	50                   	push   %eax
    146c:	8d 85 58 fe ff ff    	lea    -0x1a8(%ebp),%eax
    1472:	47                   	inc    %edi
    1473:	50                   	push   %eax
    1474:	53                   	push   %ebx
    1475:	e8 86 47 00 00       	call   5c00 <drawctx_set_source>
    147a:	8b 85 e0 fb ff ff    	mov    -0x420(%ebp),%eax
    1480:	c7 04 24 01 00 00 00 	movl   $0x1,(%esp)
    1487:	57                   	push   %edi
    1488:	50                   	push   %eax
    1489:	6a 00                	push   $0x0
    148b:	53                   	push   %ebx
    148c:	e8 8f 47 00 00       	call   5c20 <drawctx_transfer>
    1491:	8b 85 dc fb ff ff    	mov    -0x424(%ebp),%eax
    1497:	83 c4 20             	add    $0x20,%esp
    149a:	8d 78 ff             	lea    -0x1(%eax),%edi
    149d:	a1 30 50 01 00       	mov    0x15030,%eax
    14a2:	89 85 e0 fb ff ff    	mov    %eax,-0x420(%ebp)
    14a8:	3b bd e4 fb ff ff    	cmp    -0x41c(%ebp),%edi
    14ae:	0f 83 6c 01 00 00    	jae    1620 <draw+0x480>
    14b4:	8d 85 20 ff ff ff    	lea    -0xe0(%ebp),%eax
    14ba:	57                   	push   %edi
    14bb:	57                   	push   %edi
    14bc:	50                   	push   %eax
    14bd:	53                   	push   %ebx
    14be:	e8 3d 47 00 00       	call   5c00 <drawctx_set_source>
    14c3:	8b 85 e0 fb ff ff    	mov    -0x420(%ebp),%eax
    14c9:	c7 04 24 01 00 00 00 	movl   $0x1,(%esp)
    14d0:	40                   	inc    %eax
    14d1:	50                   	push   %eax
    14d2:	8b 85 e4 fb ff ff    	mov    -0x41c(%ebp),%eax
    14d8:	50                   	push   %eax
    14d9:	6a 00                	push   $0x0
    14db:	53                   	push   %ebx
    14dc:	e8 3f 47 00 00       	call   5c20 <drawctx_transfer>
    14e1:	83 c4 20             	add    $0x20,%esp
    14e4:	50                   	push   %eax
    14e5:	50                   	push   %eax
    14e6:	8d 85 c8 fc ff ff    	lea    -0x338(%ebp),%eax
    14ec:	50                   	push   %eax
    14ed:	53                   	push   %ebx
    14ee:	e8 0d 47 00 00       	call   5c00 <drawctx_set_source>
    14f3:	8b 8d ec fb ff ff    	mov    -0x414(%ebp),%ecx
    14f9:	58                   	pop    %eax
    14fa:	5a                   	pop    %edx
    14fb:	51                   	push   %ecx
    14fc:	53                   	push   %ebx
    14fd:	e8 0e 47 00 00       	call   5c10 <drawctx_set_font>
    1502:	6a 32                	push   $0x32
    1504:	6a 00                	push   $0x0
    1506:	68 54 7b 00 00       	push   $0x7b54
    150b:	53                   	push   %ebx
    150c:	e8 7f 49 00 00       	call   5e90 <drawctx_print>
    1511:	83 c4 20             	add    $0x20,%esp
    1514:	80 3d c0 99 00 00 00 	cmpb   $0x0,0x99c0
    151b:	75 43                	jne    1560 <draw+0x3c0>
    151d:	83 ec 0c             	sub    $0xc,%esp
    1520:	8b 85 ec fb ff ff    	mov    -0x414(%ebp),%eax
    1526:	50                   	push   %eax
    1527:	e8 c4 49 00 00       	call   5ef0 <font_release>
    152c:	83 c4 10             	add    $0x10,%esp
    152f:	8d 65 f4             	lea    -0xc(%ebp),%esp
    1532:	89 f0                	mov    %esi,%eax
    1534:	5b                   	pop    %ebx
    1535:	5e                   	pop    %esi
    1536:	5f                   	pop    %edi
    1537:	5d                   	pop    %ebp
    1538:	c3                   	ret    
    1539:	8d b4 26 00 00 00 00 	lea    0x0(%esi,%eiz,1),%esi
    1540:	8d 85 ec fb ff ff    	lea    -0x414(%ebp),%eax
    1546:	56                   	push   %esi
    1547:	56                   	push   %esi
    1548:	52                   	push   %edx
    1549:	50                   	push   %eax
    154a:	e8 f1 27 00 00       	call   3d40 <embedded_font_create>
    154f:	83 c4 10             	add    $0x10,%esp
    1552:	89 c6                	mov    %eax,%esi
    1554:	e9 c2 fd ff ff       	jmp    131b <draw+0x17b>
    1559:	8d b4 26 00 00 00 00 	lea    0x0(%esi,%eiz,1),%esi
    1560:	8b bd dc fb ff ff    	mov    -0x424(%ebp),%edi
    1566:	8b 8d f4 fb ff ff    	mov    -0x40c(%ebp),%ecx
    156c:	89 f8                	mov    %edi,%eax
    156e:	52                   	push   %edx
    156f:	83 c0 0a             	add    $0xa,%eax
    1572:	51                   	push   %ecx
    1573:	68 5b 7b 00 00       	push   $0x7b5b
    1578:	50                   	push   %eax
    1579:	8d 85 90 fd ff ff    	lea    -0x270(%ebp),%eax
    157f:	6a 00                	push   $0x0
    1581:	50                   	push   %eax
    1582:	8b 85 f0 fb ff ff    	mov    -0x410(%ebp),%eax
    1588:	50                   	push   %eax
    1589:	53                   	push   %ebx
    158a:	e8 a1 fb ff ff       	call   1130 <text.constprop.1>
    158f:	83 c4 1c             	add    $0x1c,%esp
    1592:	8b 85 f8 fb ff ff    	mov    -0x408(%ebp),%eax
    1598:	50                   	push   %eax
    1599:	89 f8                	mov    %edi,%eax
    159b:	83 c0 1a             	add    $0x1a,%eax
    159e:	68 68 7b 00 00       	push   $0x7b68
    15a3:	50                   	push   %eax
    15a4:	8d 85 58 fe ff ff    	lea    -0x1a8(%ebp),%eax
    15aa:	6a 00                	push   $0x0
    15ac:	50                   	push   %eax
    15ad:	8b 85 f0 fb ff ff    	mov    -0x410(%ebp),%eax
    15b3:	50                   	push   %eax
    15b4:	53                   	push   %ebx
    15b5:	e8 76 fb ff ff       	call   1130 <text.constprop.1>
    15ba:	83 c4 1c             	add    $0x1c,%esp
    15bd:	8b 95 f4 fb ff ff    	mov    -0x40c(%ebp),%edx
    15c3:	8b 85 f8 fb ff ff    	mov    -0x408(%ebp),%eax
    15c9:	01 d0                	add    %edx,%eax
    15cb:	8b 8d f0 fb ff ff    	mov    -0x410(%ebp),%ecx
    15d1:	50                   	push   %eax
    15d2:	89 f8                	mov    %edi,%eax
    15d4:	83 c0 2a             	add    $0x2a,%eax
    15d7:	68 76 7b 00 00       	push   $0x7b76
    15dc:	50                   	push   %eax
    15dd:	8d 85 64 fc ff ff    	lea    -0x39c(%ebp),%eax
    15e3:	6a 00                	push   $0x0
    15e5:	50                   	push   %eax
    15e6:	51                   	push   %ecx
    15e7:	53                   	push   %ebx
    15e8:	e8 43 fb ff ff       	call   1130 <text.constprop.1>
    15ed:	83 c4 1c             	add    $0x1c,%esp
    15f0:	8b 85 fc fb ff ff    	mov    -0x404(%ebp),%eax
    15f6:	50                   	push   %eax
    15f7:	89 f8                	mov    %edi,%eax
    15f9:	83 c0 3a             	add    $0x3a,%eax
    15fc:	68 86 7b 00 00       	push   $0x7b86
    1601:	50                   	push   %eax
    1602:	8d 85 20 ff ff ff    	lea    -0xe0(%ebp),%eax
    1608:	6a 00                	push   $0x0
    160a:	50                   	push   %eax
    160b:	8b 85 f0 fb ff ff    	mov    -0x410(%ebp),%eax
    1611:	50                   	push   %eax
    1612:	53                   	push   %ebx
    1613:	e8 18 fb ff ff       	call   1130 <text.constprop.1>
    1618:	83 c4 20             	add    $0x20,%esp
    161b:	e9 fd fe ff ff       	jmp    151d <draw+0x37d>
    1620:	50                   	push   %eax
    1621:	50                   	push   %eax
    1622:	8d 85 bc fe ff ff    	lea    -0x144(%ebp),%eax
    1628:	50                   	push   %eax
    1629:	53                   	push   %ebx
    162a:	e8 d1 45 00 00       	call   5c00 <drawctx_set_source>
    162f:	8b 95 e4 fb ff ff    	mov    -0x41c(%ebp),%edx
    1635:	29 d7                	sub    %edx,%edi
    1637:	8d 47 01             	lea    0x1(%edi),%eax
    163a:	89 04 24             	mov    %eax,(%esp)
    163d:	8b 85 e0 fb ff ff    	mov    -0x420(%ebp),%eax
    1643:	40                   	inc    %eax
    1644:	50                   	push   %eax
    1645:	52                   	push   %edx
    1646:	6a 00                	push   $0x0
    1648:	53                   	push   %ebx
    1649:	e8 d2 45 00 00       	call   5c20 <drawctx_transfer>
    164e:	a1 30 50 01 00       	mov    0x15030,%eax
    1653:	89 85 e0 fb ff ff    	mov    %eax,-0x420(%ebp)
    1659:	83 c4 20             	add    $0x20,%esp
    165c:	e9 53 fe ff ff       	jmp    14b4 <draw+0x314>
    1661:	8d b4 26 00 00 00 00 	lea    0x0(%esi,%eiz,1),%esi
    1668:	89 85 d8 fb ff ff    	mov    %eax,-0x428(%ebp)
    166e:	50                   	push   %eax
    166f:	50                   	push   %eax
    1670:	8d 85 f4 fd ff ff    	lea    -0x20c(%ebp),%eax
    1676:	50                   	push   %eax
    1677:	53                   	push   %ebx
    1678:	e8 83 45 00 00       	call   5c00 <drawctx_set_source>
    167d:	8b 95 e0 fb ff ff    	mov    -0x420(%ebp),%edx
    1683:	8b 85 d8 fb ff ff    	mov    -0x428(%ebp),%eax
    1689:	47                   	inc    %edi
    168a:	29 d0                	sub    %edx,%eax
    168c:	40                   	inc    %eax
    168d:	89 04 24             	mov    %eax,(%esp)
    1690:	57                   	push   %edi
    1691:	52                   	push   %edx
    1692:	6a 00                	push   $0x0
    1694:	53                   	push   %ebx
    1695:	e8 86 45 00 00       	call   5c20 <drawctx_transfer>
    169a:	8b 3d 30 50 01 00    	mov    0x15030,%edi
    16a0:	83 c4 20             	add    $0x20,%esp
    16a3:	e9 c2 fd ff ff       	jmp    146a <draw+0x2ca>
    16a8:	8d 85 2c fd ff ff    	lea    -0x2d4(%ebp),%eax
    16ae:	52                   	push   %edx
    16af:	52                   	push   %edx
    16b0:	50                   	push   %eax
    16b1:	53                   	push   %ebx
    16b2:	e8 49 45 00 00       	call   5c00 <drawctx_set_source>
    16b7:	89 3c 24             	mov    %edi,(%esp)
    16ba:	8b bd d8 fb ff ff    	mov    -0x428(%ebp),%edi
    16c0:	47                   	inc    %edi
    16c1:	57                   	push   %edi
    16c2:	6a 32                	push   $0x32
    16c4:	6a 00                	push   $0x0
    16c6:	53                   	push   %ebx
    16c7:	e8 54 45 00 00       	call   5c20 <drawctx_transfer>
    16cc:	a1 30 50 01 00       	mov    0x15030,%eax
    16d1:	89 85 d8 fb ff ff    	mov    %eax,-0x428(%ebp)
    16d7:	83 c4 20             	add    $0x20,%esp
    16da:	e9 47 fd ff ff       	jmp    1426 <draw+0x286>
    16df:	90                   	nop

000016e0 <on_keyboard_event>:
    16e0:	55                   	push   %ebp
    16e1:	89 e5                	mov    %esp,%ebp
    16e3:	53                   	push   %ebx
    16e4:	51                   	push   %ecx
    16e5:	8b 45 0c             	mov    0xc(%ebp),%eax
    16e8:	8b 58 08             	mov    0x8(%eax),%ebx
    16eb:	85 db                	test   %ebx,%ebx
    16ed:	75 1e                	jne    170d <on_keyboard_event+0x2d>
    16ef:	8b 50 14             	mov    0x14(%eax),%edx
    16f2:	83 fa 71             	cmp    $0x71,%edx
    16f5:	0f 84 c3 00 00 00    	je     17be <on_keyboard_event+0xde>
    16fb:	8b 48 0c             	mov    0xc(%eax),%ecx
    16fe:	89 cb                	mov    %ecx,%ebx
    1700:	83 e3 fd             	and    $0xfffffffd,%ebx
    1703:	83 fb 54             	cmp    $0x54,%ebx
    1706:	74 30                	je     1738 <on_keyboard_event+0x58>
    1708:	83 fa 6d             	cmp    $0x6d,%edx
    170b:	74 54                	je     1761 <on_keyboard_event+0x81>
    170d:	e8 8e fa ff ff       	call   11a0 <draw>
    1712:	85 c0                	test   %eax,%eax
    1714:	0f 85 8b 00 00 00    	jne    17a5 <on_keyboard_event+0xc5>
    171a:	a1 38 50 01 00       	mov    0x15038,%eax
    171f:	8b 5d fc             	mov    -0x4(%ebp),%ebx
    1722:	89 45 0c             	mov    %eax,0xc(%ebp)
    1725:	a1 34 50 01 00       	mov    0x15034,%eax
    172a:	89 45 08             	mov    %eax,0x8(%ebp)
    172d:	c9                   	leave  
    172e:	e9 3d 06 00 00       	jmp    1d70 <update_canvas>
    1733:	90                   	nop
    1734:	8d 74 26 00          	lea    0x0(%esi,%eiz,1),%esi
    1738:	bb 01 00 00 00       	mov    $0x1,%ebx
    173d:	f6 40 10 03          	testb  $0x3,0x10(%eax)
    1741:	75 4d                	jne    1790 <on_keyboard_event+0xb0>
    1743:	83 f9 54             	cmp    $0x54,%ecx
    1746:	74 28                	je     1770 <on_keyboard_event+0x90>
    1748:	66 a1 c2 99 00 00    	mov    0x99c2,%ax
    174e:	66 39 c3             	cmp    %ax,%bx
    1751:	72 45                	jb     1798 <on_keyboard_event+0xb8>
    1753:	66 c7 05 c2 99 00 00 	movw   $0x1,0x99c2
    175a:	01 00 
    175c:	83 fa 6d             	cmp    $0x6d,%edx
    175f:	75 ac                	jne    170d <on_keyboard_event+0x2d>
    1761:	80 35 c0 99 00 00 01 	xorb   $0x1,0x99c0
    1768:	eb a3                	jmp    170d <on_keyboard_event+0x2d>
    176a:	8d b6 00 00 00 00    	lea    0x0(%esi),%esi
    1770:	66 03 1d c2 99 00 00 	add    0x99c2,%bx
    1777:	66 85 db             	test   %bx,%bx
    177a:	66 89 1d c2 99 00 00 	mov    %bx,0x99c2
    1781:	75 85                	jne    1708 <on_keyboard_event+0x28>
    1783:	66 c7 05 c2 99 00 00 	movw   $0x1,0x99c2
    178a:	01 00 
    178c:	eb ce                	jmp    175c <on_keyboard_event+0x7c>
    178e:	66 90                	xchg   %ax,%ax
    1790:	bb 0a 00 00 00       	mov    $0xa,%ebx
    1795:	eb ac                	jmp    1743 <on_keyboard_event+0x63>
    1797:	90                   	nop
    1798:	29 d8                	sub    %ebx,%eax
    179a:	66 a3 c2 99 00 00    	mov    %ax,0x99c2
    17a0:	e9 63 ff ff ff       	jmp    1708 <on_keyboard_event+0x28>
    17a5:	52                   	push   %edx
    17a6:	52                   	push   %edx
    17a7:	50                   	push   %eax
    17a8:	68 92 7b 00 00       	push   $0x7b92
    17ad:	e8 1e 67 00 00       	call   7ed0 <printf@plt>
    17b2:	c7 04 24 01 00 00 00 	movl   $0x1,(%esp)
    17b9:	e8 12 69 00 00       	call   80d0 <exit@plt>
    17be:	83 ec 0c             	sub    $0xc,%esp
    17c1:	6a 00                	push   $0x0
    17c3:	e8 08 69 00 00       	call   80d0 <exit@plt>
    17c8:	66 90                	xchg   %ax,%ax
    17ca:	66 90                	xchg   %ax,%ax
    17cc:	66 90                	xchg   %ax,%ax
    17ce:	66 90                	xchg   %ax,%ax

000017d0 <main>:
    17d0:	8d 4c 24 04          	lea    0x4(%esp),%ecx
    17d4:	83 e4 f0             	and    $0xfffffff0,%esp
    17d7:	ff 71 fc             	pushl  -0x4(%ecx)
    17da:	55                   	push   %ebp
    17db:	89 e5                	mov    %esp,%ebp
    17dd:	56                   	push   %esi
    17de:	53                   	push   %ebx
    17df:	51                   	push   %ecx
    17e0:	83 ec 0c             	sub    $0xc,%esp
    17e3:	8b 01                	mov    (%ecx),%eax
    17e5:	8b 51 04             	mov    0x4(%ecx),%edx
    17e8:	83 f8 01             	cmp    $0x1,%eax
    17eb:	0f 8e 72 01 00 00    	jle    1963 <main+0x193>
    17f1:	31 c9                	xor    %ecx,%ecx
    17f3:	83 f8 02             	cmp    $0x2,%eax
    17f6:	0f 85 84 00 00 00    	jne    1880 <main+0xb0>
    17fc:	68 a7 7b 00 00       	push   $0x7ba7
    1801:	6a 01                	push   $0x1
    1803:	6a 00                	push   $0x0
    1805:	89 0d 28 50 01 00    	mov    %ecx,0x15028
    180b:	8b 42 04             	mov    0x4(%edx),%eax
    180e:	50                   	push   %eax
    180f:	e8 2c 1c 00 00       	call   3440 <window_open>
    1814:	83 c4 10             	add    $0x10,%esp
    1817:	a3 3c 50 01 00       	mov    %eax,0x1503c
    181c:	85 c0                	test   %eax,%eax
    181e:	74 68                	je     1888 <main+0xb8>
    1820:	6a 00                	push   $0x0
    1822:	6a 00                	push   $0x0
    1824:	68 e0 01 00 00       	push   $0x1e0
    1829:	68 80 02 00 00       	push   $0x280
    182e:	e8 ed 4c 00 00       	call   6520 <surface_create>
    1833:	83 c4 10             	add    $0x10,%esp
    1836:	a3 38 50 01 00       	mov    %eax,0x15038
    183b:	85 c0                	test   %eax,%eax
    183d:	74 60                	je     189f <main+0xcf>
    183f:	c7 05 30 50 01 00 80 	movl   $0x280,0x15030
    1846:	02 00 00 
    1849:	c7 05 2c 50 01 00 e0 	movl   $0x1e0,0x1502c
    1850:	01 00 00 
    1853:	e8 48 f9 ff ff       	call   11a0 <draw>
    1858:	89 c3                	mov    %eax,%ebx
    185a:	85 c0                	test   %eax,%eax
    185c:	74 58                	je     18b6 <main+0xe6>
    185e:	50                   	push   %eax
    185f:	50                   	push   %eax
    1860:	53                   	push   %ebx
    1861:	68 92 7b 00 00       	push   $0x7b92
    1866:	bb 02 00 00 00       	mov    $0x2,%ebx
    186b:	e8 60 66 00 00       	call   7ed0 <printf@plt>
    1870:	83 c4 10             	add    $0x10,%esp
    1873:	8d 65 f4             	lea    -0xc(%ebp),%esp
    1876:	89 d8                	mov    %ebx,%eax
    1878:	59                   	pop    %ecx
    1879:	5b                   	pop    %ebx
    187a:	5e                   	pop    %esi
    187b:	5d                   	pop    %ebp
    187c:	8d 61 fc             	lea    -0x4(%ecx),%esp
    187f:	c3                   	ret    
    1880:	8b 4a 08             	mov    0x8(%edx),%ecx
    1883:	e9 74 ff ff ff       	jmp    17fc <main+0x2c>
    1888:	83 ec 0c             	sub    $0xc,%esp
    188b:	bb 02 00 00 00       	mov    $0x2,%ebx
    1890:	68 b2 7b 00 00       	push   $0x7bb2
    1895:	e8 36 66 00 00       	call   7ed0 <printf@plt>
    189a:	83 c4 10             	add    $0x10,%esp
    189d:	eb d4                	jmp    1873 <main+0xa3>
    189f:	83 ec 0c             	sub    $0xc,%esp
    18a2:	bb 02 00 00 00       	mov    $0x2,%ebx
    18a7:	68 cc 7b 00 00       	push   $0x7bcc
    18ac:	e8 1f 66 00 00       	call   7ed0 <printf@plt>
    18b1:	83 c4 10             	add    $0x10,%esp
    18b4:	eb bd                	jmp    1873 <main+0xa3>
    18b6:	83 ec 0c             	sub    $0xc,%esp
    18b9:	8b 35 38 50 01 00    	mov    0x15038,%esi
    18bf:	ff 35 3c 50 01 00    	pushl  0x1503c
    18c5:	e8 26 1e 00 00       	call   36f0 <window_root>
    18ca:	89 34 24             	mov    %esi,(%esp)
    18cd:	68 e0 01 00 00       	push   $0x1e0
    18d2:	68 80 02 00 00       	push   $0x280
    18d7:	6a 00                	push   $0x0
    18d9:	50                   	push   %eax
    18da:	e8 c1 04 00 00       	call   1da0 <create_canvas>
    18df:	83 c4 20             	add    $0x20,%esp
    18e2:	a3 34 50 01 00       	mov    %eax,0x15034
    18e7:	85 c0                	test   %eax,%eax
    18e9:	0f 84 8e 00 00 00    	je     197d <main+0x1ad>
    18ef:	83 c0 68             	add    $0x68,%eax
    18f2:	52                   	push   %edx
    18f3:	68 e0 16 00 00       	push   $0x16e0
    18f8:	6a 00                	push   $0x0
    18fa:	50                   	push   %eax
    18fb:	e8 30 05 00 00       	call   1e30 <sig_connect>
    1900:	59                   	pop    %ecx
    1901:	5e                   	pop    %esi
    1902:	68 c0 00 00 00       	push   $0xc0
    1907:	68 e0 01 00 00       	push   $0x1e0
    190c:	68 80 02 00 00       	push   $0x280
    1911:	68 c8 00 00 00       	push   $0xc8
    1916:	68 c8 00 00 00       	push   $0xc8
    191b:	ff 35 3c 50 01 00    	pushl  0x1503c
    1921:	e8 ca 1c 00 00       	call   35f0 <window_resize>
    1926:	83 c4 14             	add    $0x14,%esp
    1929:	ff 35 3c 50 01 00    	pushl  0x1503c
    192f:	e8 cc 1d 00 00       	call   3700 <window_exec>
    1934:	c7 04 24 00 00 00 00 	movl   $0x0,(%esp)
    193b:	e8 70 65 00 00       	call   7eb0 <task_retval@plt>
    1940:	83 c8 ff             	or     $0xffffffff,%eax
    1943:	f0 0f c1 05 24 50 01 	lock xadd %eax,0x15024
    194a:	00 
    194b:	83 c4 10             	add    $0x10,%esp
    194e:	48                   	dec    %eax
    194f:	78 46                	js     1997 <main+0x1c7>
    1951:	83 ec 0c             	sub    $0xc,%esp
    1954:	6a 03                	push   $0x3
    1956:	e8 a5 67 00 00       	call   8100 <fibril_switch@plt>
    195b:	83 c4 10             	add    $0x10,%esp
    195e:	e9 10 ff ff ff       	jmp    1873 <main+0xa3>
    1963:	83 ec 0c             	sub    $0xc,%esp
    1966:	bb 01 00 00 00       	mov    $0x1,%ebx
    196b:	68 fc 7b 00 00       	push   $0x7bfc
    1970:	e8 5b 65 00 00       	call   7ed0 <printf@plt>
    1975:	83 c4 10             	add    $0x10,%esp
    1978:	e9 f6 fe ff ff       	jmp    1873 <main+0xa3>
    197d:	83 ec 0c             	sub    $0xc,%esp
    1980:	bb 02 00 00 00       	mov    $0x2,%ebx
    1985:	68 e4 7b 00 00       	push   $0x7be4
    198a:	e8 41 65 00 00       	call   7ed0 <printf@plt>
    198f:	83 c4 10             	add    $0x10,%esp
    1992:	e9 dc fe ff ff       	jmp    1873 <main+0xa3>
    1997:	50                   	push   %eax
    1998:	6a 0b                	push   $0xb
    199a:	6a 00                	push   $0x0
    199c:	6a 00                	push   $0x0
    199e:	6a 00                	push   $0x0
    19a0:	6a 00                	push   $0x0
    19a2:	6a 00                	push   $0x0
    19a4:	68 24 50 01 00       	push   $0x15024
    19a9:	ff 15 20 50 01 00    	call   *0x15020
    19af:	83 c4 20             	add    $0x20,%esp
    19b2:	eb 9d                	jmp    1951 <main+0x181>
    19b4:	66 90                	xchg   %ax,%ax
    19b6:	66 90                	xchg   %ax,%ax
    19b8:	66 90                	xchg   %ax,%ax
    19ba:	66 90                	xchg   %ax,%ax
    19bc:	66 90                	xchg   %ax,%ax
    19be:	66 90                	xchg   %ax,%ax

000019c0 <canvas_reconfigure>:
    19c0:	55                   	push   %ebp
    19c1:	89 e5                	mov    %esp,%ebp
    19c3:	5d                   	pop    %ebp
    19c4:	c3                   	ret    
    19c5:	8d 74 26 00          	lea    0x0(%esi,%eiz,1),%esi
    19c9:	8d bc 27 00 00 00 00 	lea    0x0(%edi,%eiz,1),%edi

000019d0 <canvas_handle_position_event>:
    19d0:	55                   	push   %ebp
    19d1:	89 e5                	mov    %esp,%ebp
    19d3:	83 ec 30             	sub    $0x30,%esp
    19d6:	8b 55 0c             	mov    0xc(%ebp),%edx
    19d9:	8b 45 08             	mov    0x8(%ebp),%eax
    19dc:	89 55 e4             	mov    %edx,-0x1c(%ebp)
    19df:	8b 55 10             	mov    0x10(%ebp),%edx
    19e2:	89 55 e8             	mov    %edx,-0x18(%ebp)
    19e5:	8b 55 14             	mov    0x14(%ebp),%edx
    19e8:	89 55 ec             	mov    %edx,-0x14(%ebp)
    19eb:	8b 55 18             	mov    0x18(%ebp),%edx
    19ee:	89 55 f0             	mov    %edx,-0x10(%ebp)
    19f1:	8b 55 1c             	mov    0x1c(%ebp),%edx
    19f4:	89 55 f4             	mov    %edx,-0xc(%ebp)
    19f7:	8b 4d f0             	mov    -0x10(%ebp),%ecx
    19fa:	8b 50 1c             	mov    0x1c(%eax),%edx
    19fd:	83 c0 6c             	add    $0x6c,%eax
    1a00:	29 d1                	sub    %edx,%ecx
    1a02:	8b 50 b4             	mov    -0x4c(%eax),%edx
    1a05:	89 4d f0             	mov    %ecx,-0x10(%ebp)
    1a08:	8b 4d f4             	mov    -0xc(%ebp),%ecx
    1a0b:	29 d1                	sub    %edx,%ecx
    1a0d:	8d 55 e4             	lea    -0x1c(%ebp),%edx
    1a10:	52                   	push   %edx
    1a11:	50                   	push   %eax
    1a12:	89 4d f4             	mov    %ecx,-0xc(%ebp)
    1a15:	e8 26 06 00 00       	call   2040 <sig_send>
    1a1a:	83 c4 10             	add    $0x10,%esp
    1a1d:	c9                   	leave  
    1a1e:	c3                   	ret    
    1a1f:	90                   	nop

00001a20 <canvas_handle_keyboard_event>:
    1a20:	55                   	push   %ebp
    1a21:	89 e5                	mov    %esp,%ebp
    1a23:	83 ec 10             	sub    $0x10,%esp
    1a26:	8d 45 0c             	lea    0xc(%ebp),%eax
    1a29:	50                   	push   %eax
    1a2a:	8b 45 08             	mov    0x8(%ebp),%eax
    1a2d:	83 c0 68             	add    $0x68,%eax
    1a30:	50                   	push   %eax
    1a31:	e8 0a 06 00 00       	call   2040 <sig_send>
    1a36:	83 c4 10             	add    $0x10,%esp
    1a39:	c9                   	leave  
    1a3a:	c3                   	ret    
    1a3b:	90                   	nop
    1a3c:	8d 74 26 00          	lea    0x0(%esi,%eiz,1),%esi

00001a40 <paint_internal>:
    1a40:	55                   	push   %ebp
    1a41:	89 e5                	mov    %esp,%ebp
    1a43:	57                   	push   %edi
    1a44:	56                   	push   %esi
    1a45:	53                   	push   %ebx
    1a46:	81 ec 28 01 00 00    	sub    $0x128,%esp
    1a4c:	89 c3                	mov    %eax,%ebx
    1a4e:	8b 70 14             	mov    0x14(%eax),%esi
    1a51:	56                   	push   %esi
    1a52:	e8 09 1d 00 00       	call   3760 <window_claim>
    1a57:	83 c4 10             	add    $0x10,%esp
    1a5a:	85 c0                	test   %eax,%eax
    1a5c:	0f 84 d6 00 00 00    	je     1b38 <paint_internal+0xf8>
    1a62:	83 ec 0c             	sub    $0xc,%esp
    1a65:	8d b5 3c ff ff ff    	lea    -0xc4(%ebp),%esi
    1a6b:	89 85 ec fe ff ff    	mov    %eax,-0x114(%ebp)
    1a71:	56                   	push   %esi
    1a72:	e8 79 5c 00 00       	call   76f0 <transform_identity>
    1a77:	8b 43 20             	mov    0x20(%ebx),%eax
    1a7a:	31 d2                	xor    %edx,%edx
    1a7c:	89 85 e0 fe ff ff    	mov    %eax,-0x120(%ebp)
    1a82:	89 95 e4 fe ff ff    	mov    %edx,-0x11c(%ebp)
    1a88:	83 ec 0c             	sub    $0xc,%esp
    1a8b:	31 d2                	xor    %edx,%edx
    1a8d:	df ad e0 fe ff ff    	fildll -0x120(%ebp)
    1a93:	8b 43 1c             	mov    0x1c(%ebx),%eax
    1a96:	89 95 e4 fe ff ff    	mov    %edx,-0x11c(%ebp)
    1a9c:	dd 5c 24 08          	fstpl  0x8(%esp)
    1aa0:	89 85 e0 fe ff ff    	mov    %eax,-0x120(%ebp)
    1aa6:	df ad e0 fe ff ff    	fildll -0x120(%ebp)
    1aac:	dd 1c 24             	fstpl  (%esp)
    1aaf:	56                   	push   %esi
    1ab0:	e8 6b 5c 00 00       	call   7720 <transform_translate>
    1ab5:	83 c4 14             	add    $0x14,%esp
    1ab8:	8d 45 84             	lea    -0x7c(%ebp),%eax
    1abb:	50                   	push   %eax
    1abc:	e8 ff 46 00 00       	call   61c0 <source_init>
    1ac1:	83 ec 3c             	sub    $0x3c,%esp
    1ac4:	b9 12 00 00 00       	mov    $0x12,%ecx
    1ac9:	89 e7                	mov    %esp,%edi
    1acb:	8d 45 84             	lea    -0x7c(%ebp),%eax
    1ace:	f3 a5                	rep movsl %ds:(%esi),%es:(%edi)
    1ad0:	50                   	push   %eax
    1ad1:	e8 3a 47 00 00       	call   6210 <source_set_transform>
    1ad6:	83 c4 4c             	add    $0x4c,%esp
    1ad9:	8b 43 64             	mov    0x64(%ebx),%eax
    1adc:	8d b5 04 ff ff ff    	lea    -0xfc(%ebp),%esi
    1ae2:	6a 00                	push   $0x0
    1ae4:	50                   	push   %eax
    1ae5:	8d 45 84             	lea    -0x7c(%ebp),%eax
    1ae8:	50                   	push   %eax
    1ae9:	e8 72 47 00 00       	call   6260 <source_set_texture>
    1aee:	8b 85 ec fe ff ff    	mov    -0x114(%ebp),%eax
    1af4:	5a                   	pop    %edx
    1af5:	59                   	pop    %ecx
    1af6:	50                   	push   %eax
    1af7:	56                   	push   %esi
    1af8:	e8 33 3f 00 00       	call   5a30 <drawctx_init>
    1afd:	5f                   	pop    %edi
    1afe:	58                   	pop    %eax
    1aff:	8d 45 84             	lea    -0x7c(%ebp),%eax
    1b02:	50                   	push   %eax
    1b03:	56                   	push   %esi
    1b04:	e8 f7 40 00 00       	call   5c00 <drawctx_set_source>
    1b09:	58                   	pop    %eax
    1b0a:	8b 43 28             	mov    0x28(%ebx),%eax
    1b0d:	50                   	push   %eax
    1b0e:	8b 43 24             	mov    0x24(%ebx),%eax
    1b11:	50                   	push   %eax
    1b12:	8b 43 20             	mov    0x20(%ebx),%eax
    1b15:	50                   	push   %eax
    1b16:	8b 43 1c             	mov    0x1c(%ebx),%eax
    1b19:	50                   	push   %eax
    1b1a:	56                   	push   %esi
    1b1b:	e8 00 41 00 00       	call   5c20 <drawctx_transfer>
    1b20:	83 c4 14             	add    $0x14,%esp
    1b23:	8b 53 14             	mov    0x14(%ebx),%edx
    1b26:	52                   	push   %edx
    1b27:	e8 64 1c 00 00       	call   3790 <window_yield>
    1b2c:	83 c4 10             	add    $0x10,%esp
    1b2f:	8d 65 f4             	lea    -0xc(%ebp),%esp
    1b32:	5b                   	pop    %ebx
    1b33:	5e                   	pop    %esi
    1b34:	5f                   	pop    %edi
    1b35:	5d                   	pop    %ebp
    1b36:	c3                   	ret    
    1b37:	90                   	nop
    1b38:	83 ec 0c             	sub    $0xc,%esp
    1b3b:	8b 4b 14             	mov    0x14(%ebx),%ecx
    1b3e:	89 85 ec fe ff ff    	mov    %eax,-0x114(%ebp)
    1b44:	51                   	push   %ecx
    1b45:	e8 46 1c 00 00       	call   3790 <window_yield>
    1b4a:	83 c4 10             	add    $0x10,%esp
    1b4d:	8b 85 ec fe ff ff    	mov    -0x114(%ebp),%eax
    1b53:	e9 0a ff ff ff       	jmp    1a62 <paint_internal+0x22>
    1b58:	90                   	nop
    1b59:	8d b4 26 00 00 00 00 	lea    0x0(%esi,%eiz,1),%esi

00001b60 <canvas_rearrange>:
    1b60:	55                   	push   %ebp
    1b61:	89 e5                	mov    %esp,%ebp
    1b63:	53                   	push   %ebx
    1b64:	83 ec 10             	sub    $0x10,%esp
    1b67:	8b 5d 08             	mov    0x8(%ebp),%ebx
    1b6a:	8b 4d 10             	mov    0x10(%ebp),%ecx
    1b6d:	8b 43 60             	mov    0x60(%ebx),%eax
    1b70:	50                   	push   %eax
    1b71:	8b 45 0c             	mov    0xc(%ebp),%eax
    1b74:	8b 53 5c             	mov    0x5c(%ebx),%edx
    1b77:	52                   	push   %edx
    1b78:	51                   	push   %ecx
    1b79:	50                   	push   %eax
    1b7a:	53                   	push   %ebx
    1b7b:	e8 60 07 00 00       	call   22e0 <widget_modify>
    1b80:	83 c4 20             	add    $0x20,%esp
    1b83:	89 d8                	mov    %ebx,%eax
    1b85:	8b 5d fc             	mov    -0x4(%ebp),%ebx
    1b88:	c9                   	leave  
    1b89:	e9 b2 fe ff ff       	jmp    1a40 <paint_internal>
    1b8e:	66 90                	xchg   %ax,%ax

00001b90 <canvas_destroy>:
    1b90:	55                   	push   %ebp
    1b91:	89 e5                	mov    %esp,%ebp
    1b93:	53                   	push   %ebx
    1b94:	83 ec 10             	sub    $0x10,%esp
    1b97:	8b 5d 08             	mov    0x8(%ebp),%ebx
    1b9a:	53                   	push   %ebx
    1b9b:	e8 70 07 00 00       	call   2310 <widget_deinit>
    1ba0:	89 5d 08             	mov    %ebx,0x8(%ebp)
    1ba3:	83 c4 10             	add    $0x10,%esp
    1ba6:	8b 5d fc             	mov    -0x4(%ebp),%ebx
    1ba9:	c9                   	leave  
    1baa:	e9 b1 65 00 00       	jmp    8160 <free@plt>
    1baf:	90                   	nop

00001bb0 <canvas_repaint>:
    1bb0:	55                   	push   %ebp
    1bb1:	89 e5                	mov    %esp,%ebp
    1bb3:	57                   	push   %edi
    1bb4:	56                   	push   %esi
    1bb5:	53                   	push   %ebx
    1bb6:	81 ec 28 01 00 00    	sub    $0x128,%esp
    1bbc:	8b 5d 08             	mov    0x8(%ebp),%ebx
    1bbf:	8b 7b 14             	mov    0x14(%ebx),%edi
    1bc2:	57                   	push   %edi
    1bc3:	e8 98 1b 00 00       	call   3760 <window_claim>
    1bc8:	83 c4 10             	add    $0x10,%esp
    1bcb:	85 c0                	test   %eax,%eax
    1bcd:	0f 84 e5 00 00 00    	je     1cb8 <canvas_repaint+0x108>
    1bd3:	83 ec 0c             	sub    $0xc,%esp
    1bd6:	8d b5 3c ff ff ff    	lea    -0xc4(%ebp),%esi
    1bdc:	89 85 ec fe ff ff    	mov    %eax,-0x114(%ebp)
    1be2:	56                   	push   %esi
    1be3:	e8 08 5b 00 00       	call   76f0 <transform_identity>
    1be8:	8b 43 20             	mov    0x20(%ebx),%eax
    1beb:	31 d2                	xor    %edx,%edx
    1bed:	89 85 e0 fe ff ff    	mov    %eax,-0x120(%ebp)
    1bf3:	89 95 e4 fe ff ff    	mov    %edx,-0x11c(%ebp)
    1bf9:	83 ec 0c             	sub    $0xc,%esp
    1bfc:	8b 43 1c             	mov    0x1c(%ebx),%eax
    1bff:	df ad e0 fe ff ff    	fildll -0x120(%ebp)
    1c05:	31 d2                	xor    %edx,%edx
    1c07:	89 85 e0 fe ff ff    	mov    %eax,-0x120(%ebp)
    1c0d:	dd 5c 24 08          	fstpl  0x8(%esp)
    1c11:	89 95 e4 fe ff ff    	mov    %edx,-0x11c(%ebp)
    1c17:	df ad e0 fe ff ff    	fildll -0x120(%ebp)
    1c1d:	dd 1c 24             	fstpl  (%esp)
    1c20:	56                   	push   %esi
    1c21:	e8 fa 5a 00 00       	call   7720 <transform_translate>
    1c26:	83 c4 14             	add    $0x14,%esp
    1c29:	8d 45 84             	lea    -0x7c(%ebp),%eax
    1c2c:	50                   	push   %eax
    1c2d:	e8 8e 45 00 00       	call   61c0 <source_init>
    1c32:	83 ec 3c             	sub    $0x3c,%esp
    1c35:	b9 12 00 00 00       	mov    $0x12,%ecx
    1c3a:	89 e7                	mov    %esp,%edi
    1c3c:	8d 45 84             	lea    -0x7c(%ebp),%eax
    1c3f:	f3 a5                	rep movsl %ds:(%esi),%es:(%edi)
    1c41:	50                   	push   %eax
    1c42:	e8 c9 45 00 00       	call   6210 <source_set_transform>
    1c47:	83 c4 4c             	add    $0x4c,%esp
    1c4a:	8b 43 64             	mov    0x64(%ebx),%eax
    1c4d:	8d b5 04 ff ff ff    	lea    -0xfc(%ebp),%esi
    1c53:	6a 00                	push   $0x0
    1c55:	50                   	push   %eax
    1c56:	8d 45 84             	lea    -0x7c(%ebp),%eax
    1c59:	50                   	push   %eax
    1c5a:	e8 01 46 00 00       	call   6260 <source_set_texture>
    1c5f:	8b 85 ec fe ff ff    	mov    -0x114(%ebp),%eax
    1c65:	5a                   	pop    %edx
    1c66:	59                   	pop    %ecx
    1c67:	50                   	push   %eax
    1c68:	56                   	push   %esi
    1c69:	e8 c2 3d 00 00       	call   5a30 <drawctx_init>
    1c6e:	5f                   	pop    %edi
    1c6f:	58                   	pop    %eax
    1c70:	8d 45 84             	lea    -0x7c(%ebp),%eax
    1c73:	50                   	push   %eax
    1c74:	56                   	push   %esi
    1c75:	e8 86 3f 00 00       	call   5c00 <drawctx_set_source>
    1c7a:	58                   	pop    %eax
    1c7b:	8b 43 28             	mov    0x28(%ebx),%eax
    1c7e:	50                   	push   %eax
    1c7f:	8b 43 24             	mov    0x24(%ebx),%eax
    1c82:	50                   	push   %eax
    1c83:	8b 43 20             	mov    0x20(%ebx),%eax
    1c86:	50                   	push   %eax
    1c87:	8b 43 1c             	mov    0x1c(%ebx),%eax
    1c8a:	50                   	push   %eax
    1c8b:	56                   	push   %esi
    1c8c:	e8 8f 3f 00 00       	call   5c20 <drawctx_transfer>
    1c91:	83 c4 14             	add    $0x14,%esp
    1c94:	8b 53 14             	mov    0x14(%ebx),%edx
    1c97:	52                   	push   %edx
    1c98:	e8 f3 1a 00 00       	call   3790 <window_yield>
    1c9d:	8b 5b 14             	mov    0x14(%ebx),%ebx
    1ca0:	59                   	pop    %ecx
    1ca1:	53                   	push   %ebx
    1ca2:	e8 09 1a 00 00       	call   36b0 <window_damage>
    1ca7:	83 c4 10             	add    $0x10,%esp
    1caa:	8d 65 f4             	lea    -0xc(%ebp),%esp
    1cad:	5b                   	pop    %ebx
    1cae:	5e                   	pop    %esi
    1caf:	5f                   	pop    %edi
    1cb0:	5d                   	pop    %ebp
    1cb1:	c3                   	ret    
    1cb2:	8d b6 00 00 00 00    	lea    0x0(%esi),%esi
    1cb8:	83 ec 0c             	sub    $0xc,%esp
    1cbb:	8b 73 14             	mov    0x14(%ebx),%esi
    1cbe:	89 85 ec fe ff ff    	mov    %eax,-0x114(%ebp)
    1cc4:	56                   	push   %esi
    1cc5:	e8 c6 1a 00 00       	call   3790 <window_yield>
    1cca:	83 c4 10             	add    $0x10,%esp
    1ccd:	8b 85 ec fe ff ff    	mov    -0x114(%ebp),%eax
    1cd3:	e9 fb fe ff ff       	jmp    1bd3 <canvas_repaint+0x23>
    1cd8:	90                   	nop
    1cd9:	8d b4 26 00 00 00 00 	lea    0x0(%esi,%eiz,1),%esi

00001ce0 <deinit_canvas>:
    1ce0:	55                   	push   %ebp
    1ce1:	89 e5                	mov    %esp,%ebp
    1ce3:	5d                   	pop    %ebp
    1ce4:	e9 27 06 00 00       	jmp    2310 <widget_deinit>
    1ce9:	8d b4 26 00 00 00 00 	lea    0x0(%esi,%eiz,1),%esi

00001cf0 <init_canvas>:
    1cf0:	55                   	push   %ebp
    1cf1:	89 e5                	mov    %esp,%ebp
    1cf3:	57                   	push   %edi
    1cf4:	56                   	push   %esi
    1cf5:	53                   	push   %ebx
    1cf6:	83 ec 10             	sub    $0x10,%esp
    1cf9:	8b 5d 08             	mov    0x8(%ebp),%ebx
    1cfc:	8b 45 10             	mov    0x10(%ebp),%eax
    1cff:	8b 55 0c             	mov    0xc(%ebp),%edx
    1d02:	8b 7d 14             	mov    0x14(%ebp),%edi
    1d05:	8b 75 18             	mov    0x18(%ebp),%esi
    1d08:	50                   	push   %eax
    1d09:	52                   	push   %edx
    1d0a:	53                   	push   %ebx
    1d0b:	e8 30 05 00 00       	call   2240 <widget_init>
    1d10:	8b 45 1c             	mov    0x1c(%ebp),%eax
    1d13:	89 43 64             	mov    %eax,0x64(%ebx)
    1d16:	89 7b 24             	mov    %edi,0x24(%ebx)
    1d19:	89 73 28             	mov    %esi,0x28(%ebx)
    1d1c:	89 7b 2c             	mov    %edi,0x2c(%ebx)
    1d1f:	89 73 30             	mov    %esi,0x30(%ebx)
    1d22:	89 7b 34             	mov    %edi,0x34(%ebx)
    1d25:	89 73 38             	mov    %esi,0x38(%ebx)
    1d28:	89 7b 3c             	mov    %edi,0x3c(%ebx)
    1d2b:	89 73 40             	mov    %esi,0x40(%ebx)
    1d2e:	c7 43 44 90 1b 00 00 	movl   $0x1b90,0x44(%ebx)
    1d35:	c7 43 48 c0 19 00 00 	movl   $0x19c0,0x48(%ebx)
    1d3c:	c7 43 4c 60 1b 00 00 	movl   $0x1b60,0x4c(%ebx)
    1d43:	c7 43 50 b0 1b 00 00 	movl   $0x1bb0,0x50(%ebx)
    1d4a:	c7 43 54 20 1a 00 00 	movl   $0x1a20,0x54(%ebx)
    1d51:	c7 43 58 d0 19 00 00 	movl   $0x19d0,0x58(%ebx)
    1d58:	89 7b 5c             	mov    %edi,0x5c(%ebx)
    1d5b:	89 73 60             	mov    %esi,0x60(%ebx)
    1d5e:	8d 65 f4             	lea    -0xc(%ebp),%esp
    1d61:	b0 01                	mov    $0x1,%al
    1d63:	5b                   	pop    %ebx
    1d64:	5e                   	pop    %esi
    1d65:	5f                   	pop    %edi
    1d66:	5d                   	pop    %ebp
    1d67:	c3                   	ret    
    1d68:	90                   	nop
    1d69:	8d b4 26 00 00 00 00 	lea    0x0(%esi,%eiz,1),%esi

00001d70 <update_canvas>:
    1d70:	55                   	push   %ebp
    1d71:	89 e5                	mov    %esp,%ebp
    1d73:	53                   	push   %ebx
    1d74:	52                   	push   %edx
    1d75:	8b 45 0c             	mov    0xc(%ebp),%eax
    1d78:	8b 5d 08             	mov    0x8(%ebp),%ebx
    1d7b:	85 c0                	test   %eax,%eax
    1d7d:	74 03                	je     1d82 <update_canvas+0x12>
    1d7f:	89 43 64             	mov    %eax,0x64(%ebx)
    1d82:	89 d8                	mov    %ebx,%eax
    1d84:	e8 b7 fc ff ff       	call   1a40 <paint_internal>
    1d89:	83 ec 0c             	sub    $0xc,%esp
    1d8c:	8b 43 14             	mov    0x14(%ebx),%eax
    1d8f:	50                   	push   %eax
    1d90:	e8 1b 19 00 00       	call   36b0 <window_damage>
    1d95:	b0 01                	mov    $0x1,%al
    1d97:	8b 5d fc             	mov    -0x4(%ebp),%ebx
    1d9a:	c9                   	leave  
    1d9b:	c3                   	ret    
    1d9c:	8d 74 26 00          	lea    0x0(%esi,%eiz,1),%esi

00001da0 <create_canvas>:
    1da0:	55                   	push   %ebp
    1da1:	89 e5                	mov    %esp,%ebp
    1da3:	56                   	push   %esi
    1da4:	53                   	push   %ebx
    1da5:	83 ec 1c             	sub    $0x1c,%esp
    1da8:	8b 75 10             	mov    0x10(%ebp),%esi
    1dab:	8b 5d 14             	mov    0x14(%ebp),%ebx
    1dae:	6a 70                	push   $0x70
    1db0:	e8 7b 61 00 00       	call   7f30 <malloc@plt>
    1db5:	83 c4 10             	add    $0x10,%esp
    1db8:	85 c0                	test   %eax,%eax
    1dba:	74 66                	je     1e22 <create_canvas+0x82>
    1dbc:	8b 4d 0c             	mov    0xc(%ebp),%ecx
    1dbf:	52                   	push   %edx
    1dc0:	8b 55 08             	mov    0x8(%ebp),%edx
    1dc3:	51                   	push   %ecx
    1dc4:	89 45 f4             	mov    %eax,-0xc(%ebp)
    1dc7:	52                   	push   %edx
    1dc8:	50                   	push   %eax
    1dc9:	e8 72 04 00 00       	call   2240 <widget_init>
    1dce:	8b 45 f4             	mov    -0xc(%ebp),%eax
    1dd1:	8b 55 18             	mov    0x18(%ebp),%edx
    1dd4:	83 c4 10             	add    $0x10,%esp
    1dd7:	89 70 24             	mov    %esi,0x24(%eax)
    1dda:	89 58 28             	mov    %ebx,0x28(%eax)
    1ddd:	89 70 2c             	mov    %esi,0x2c(%eax)
    1de0:	89 58 30             	mov    %ebx,0x30(%eax)
    1de3:	89 70 34             	mov    %esi,0x34(%eax)
    1de6:	89 58 38             	mov    %ebx,0x38(%eax)
    1de9:	89 70 3c             	mov    %esi,0x3c(%eax)
    1dec:	89 58 40             	mov    %ebx,0x40(%eax)
    1def:	c7 40 44 90 1b 00 00 	movl   $0x1b90,0x44(%eax)
    1df6:	c7 40 48 c0 19 00 00 	movl   $0x19c0,0x48(%eax)
    1dfd:	c7 40 4c 60 1b 00 00 	movl   $0x1b60,0x4c(%eax)
    1e04:	c7 40 50 b0 1b 00 00 	movl   $0x1bb0,0x50(%eax)
    1e0b:	c7 40 54 20 1a 00 00 	movl   $0x1a20,0x54(%eax)
    1e12:	c7 40 58 d0 19 00 00 	movl   $0x19d0,0x58(%eax)
    1e19:	89 70 5c             	mov    %esi,0x5c(%eax)
    1e1c:	89 58 60             	mov    %ebx,0x60(%eax)
    1e1f:	89 50 64             	mov    %edx,0x64(%eax)
    1e22:	8d 65 f8             	lea    -0x8(%ebp),%esp
    1e25:	5b                   	pop    %ebx
    1e26:	5e                   	pop    %esi
    1e27:	5d                   	pop    %ebp
    1e28:	c3                   	ret    
    1e29:	66 90                	xchg   %ax,%ax
    1e2b:	66 90                	xchg   %ax,%ax
    1e2d:	66 90                	xchg   %ax,%ax
    1e2f:	90                   	nop

00001e30 <sig_connect>:
    1e30:	55                   	push   %ebp
    1e31:	89 e5                	mov    %esp,%ebp
    1e33:	57                   	push   %edi
    1e34:	56                   	push   %esi
    1e35:	53                   	push   %ebx
    1e36:	83 ec 28             	sub    $0x28,%esp
    1e39:	8b 5d 08             	mov    0x8(%ebp),%ebx
    1e3c:	8b 75 0c             	mov    0xc(%ebp),%esi
    1e3f:	68 cc 99 00 00       	push   $0x99cc
    1e44:	8b 7d 10             	mov    0x10(%ebp),%edi
    1e47:	e8 54 62 00 00       	call   80a0 <fibril_rwlock_write_lock@plt>
    1e4c:	a1 c8 99 00 00       	mov    0x99c8,%eax
    1e51:	83 c4 10             	add    $0x10,%esp
    1e54:	3d c4 99 00 00       	cmp    $0x99c4,%eax
    1e59:	74 20                	je     1e7b <sig_connect+0x4b>
    1e5b:	3b 58 08             	cmp    0x8(%eax),%ebx
    1e5e:	75 11                	jne    1e71 <sig_connect+0x41>
    1e60:	e9 9b 00 00 00       	jmp    1f00 <sig_connect+0xd0>
    1e65:	8d 76 00             	lea    0x0(%esi),%esi
    1e68:	39 58 08             	cmp    %ebx,0x8(%eax)
    1e6b:	0f 84 8f 00 00 00    	je     1f00 <sig_connect+0xd0>
    1e71:	8b 40 04             	mov    0x4(%eax),%eax
    1e74:	3d c4 99 00 00       	cmp    $0x99c4,%eax
    1e79:	75 ed                	jne    1e68 <sig_connect+0x38>
    1e7b:	83 ec 0c             	sub    $0xc,%esp
    1e7e:	6a 14                	push   $0x14
    1e80:	e8 ab 60 00 00       	call   7f30 <malloc@plt>
    1e85:	83 c4 10             	add    $0x10,%esp
    1e88:	89 45 e4             	mov    %eax,-0x1c(%ebp)
    1e8b:	85 c0                	test   %eax,%eax
    1e8d:	0f 84 a6 00 00 00    	je     1f39 <sig_connect+0x109>
    1e93:	89 58 08             	mov    %ebx,0x8(%eax)
    1e96:	8d 58 0c             	lea    0xc(%eax),%ebx
    1e99:	89 c1                	mov    %eax,%ecx
    1e9b:	89 58 10             	mov    %ebx,0x10(%eax)
    1e9e:	c7 40 04 c4 99 00 00 	movl   $0x99c4,0x4(%eax)
    1ea5:	89 58 0c             	mov    %ebx,0xc(%eax)
    1ea8:	a1 c4 99 00 00       	mov    0x99c4,%eax
    1ead:	89 0d c4 99 00 00    	mov    %ecx,0x99c4
    1eb3:	89 01                	mov    %eax,(%ecx)
    1eb5:	89 48 04             	mov    %ecx,0x4(%eax)
    1eb8:	89 c8                	mov    %ecx,%eax
    1eba:	8b 40 10             	mov    0x10(%eax),%eax
    1ebd:	39 c3                	cmp    %eax,%ebx
    1ebf:	75 5e                	jne    1f1f <sig_connect+0xef>
    1ec1:	8d b4 26 00 00 00 00 	lea    0x0(%esi,%eiz,1),%esi
    1ec8:	83 ec 0c             	sub    $0xc,%esp
    1ecb:	6a 10                	push   $0x10
    1ecd:	e8 5e 60 00 00       	call   7f30 <malloc@plt>
    1ed2:	83 c4 10             	add    $0x10,%esp
    1ed5:	85 c0                	test   %eax,%eax
    1ed7:	74 60                	je     1f39 <sig_connect+0x109>
    1ed9:	8b 4d e4             	mov    -0x1c(%ebp),%ecx
    1edc:	c7 00 00 00 00 00    	movl   $0x0,(%eax)
    1ee2:	89 70 08             	mov    %esi,0x8(%eax)
    1ee5:	89 78 0c             	mov    %edi,0xc(%eax)
    1ee8:	8b 51 0c             	mov    0xc(%ecx),%edx
    1eeb:	89 58 04             	mov    %ebx,0x4(%eax)
    1eee:	89 10                	mov    %edx,(%eax)
    1ef0:	8b 51 0c             	mov    0xc(%ecx),%edx
    1ef3:	89 42 04             	mov    %eax,0x4(%edx)
    1ef6:	89 41 0c             	mov    %eax,0xc(%ecx)
    1ef9:	eb 3e                	jmp    1f39 <sig_connect+0x109>
    1efb:	90                   	nop
    1efc:	8d 74 26 00          	lea    0x0(%esi,%eiz,1),%esi
    1f00:	89 45 e4             	mov    %eax,-0x1c(%ebp)
    1f03:	8d 58 0c             	lea    0xc(%eax),%ebx
    1f06:	8b 45 e4             	mov    -0x1c(%ebp),%eax
    1f09:	8b 40 10             	mov    0x10(%eax),%eax
    1f0c:	39 c3                	cmp    %eax,%ebx
    1f0e:	75 0f                	jne    1f1f <sig_connect+0xef>
    1f10:	eb b6                	jmp    1ec8 <sig_connect+0x98>
    1f12:	8d b6 00 00 00 00    	lea    0x0(%esi),%esi
    1f18:	8b 40 04             	mov    0x4(%eax),%eax
    1f1b:	39 c3                	cmp    %eax,%ebx
    1f1d:	74 a9                	je     1ec8 <sig_connect+0x98>
    1f1f:	39 70 08             	cmp    %esi,0x8(%eax)
    1f22:	75 f4                	jne    1f18 <sig_connect+0xe8>
    1f24:	39 78 0c             	cmp    %edi,0xc(%eax)
    1f27:	75 ef                	jne    1f18 <sig_connect+0xe8>
    1f29:	83 ec 0c             	sub    $0xc,%esp
    1f2c:	68 cc 99 00 00       	push   $0x99cc
    1f31:	e8 da 60 00 00       	call   8010 <fibril_rwlock_write_unlock@plt>
    1f36:	83 c4 10             	add    $0x10,%esp
    1f39:	c7 45 08 cc 99 00 00 	movl   $0x99cc,0x8(%ebp)
    1f40:	8d 65 f4             	lea    -0xc(%ebp),%esp
    1f43:	5b                   	pop    %ebx
    1f44:	5e                   	pop    %esi
    1f45:	5f                   	pop    %edi
    1f46:	5d                   	pop    %ebp
    1f47:	e9 c4 60 00 00       	jmp    8010 <fibril_rwlock_write_unlock@plt>
    1f4c:	8d 74 26 00          	lea    0x0(%esi,%eiz,1),%esi

00001f50 <sig_disconnect>:
    1f50:	55                   	push   %ebp
    1f51:	89 e5                	mov    %esp,%ebp
    1f53:	57                   	push   %edi
    1f54:	56                   	push   %esi
    1f55:	53                   	push   %ebx
    1f56:	83 ec 28             	sub    $0x28,%esp
    1f59:	8b 55 10             	mov    0x10(%ebp),%edx
    1f5c:	8b 75 08             	mov    0x8(%ebp),%esi
    1f5f:	68 cc 99 00 00       	push   $0x99cc
    1f64:	8b 7d 0c             	mov    0xc(%ebp),%edi
    1f67:	89 55 e4             	mov    %edx,-0x1c(%ebp)
    1f6a:	e8 31 61 00 00       	call   80a0 <fibril_rwlock_write_lock@plt>
    1f6f:	8b 1d c8 99 00 00    	mov    0x99c8,%ebx
    1f75:	83 c4 10             	add    $0x10,%esp
    1f78:	81 fb c4 99 00 00    	cmp    $0x99c4,%ebx
    1f7e:	74 20                	je     1fa0 <sig_disconnect+0x50>
    1f80:	3b 73 08             	cmp    0x8(%ebx),%esi
    1f83:	8b 55 e4             	mov    -0x1c(%ebp),%edx
    1f86:	75 0d                	jne    1f95 <sig_disconnect+0x45>
    1f88:	eb 2e                	jmp    1fb8 <sig_disconnect+0x68>
    1f8a:	8d b6 00 00 00 00    	lea    0x0(%esi),%esi
    1f90:	39 73 08             	cmp    %esi,0x8(%ebx)
    1f93:	74 23                	je     1fb8 <sig_disconnect+0x68>
    1f95:	8b 5b 04             	mov    0x4(%ebx),%ebx
    1f98:	81 fb c4 99 00 00    	cmp    $0x99c4,%ebx
    1f9e:	75 f0                	jne    1f90 <sig_disconnect+0x40>
    1fa0:	c7 45 08 cc 99 00 00 	movl   $0x99cc,0x8(%ebp)
    1fa7:	8d 65 f4             	lea    -0xc(%ebp),%esp
    1faa:	5b                   	pop    %ebx
    1fab:	5e                   	pop    %esi
    1fac:	5f                   	pop    %edi
    1fad:	5d                   	pop    %ebp
    1fae:	e9 5d 60 00 00       	jmp    8010 <fibril_rwlock_write_unlock@plt>
    1fb3:	90                   	nop
    1fb4:	8d 74 26 00          	lea    0x0(%esi,%eiz,1),%esi
    1fb8:	8b 43 10             	mov    0x10(%ebx),%eax
    1fbb:	8d 73 0c             	lea    0xc(%ebx),%esi
    1fbe:	39 f0                	cmp    %esi,%eax
    1fc0:	75 0d                	jne    1fcf <sig_disconnect+0x7f>
    1fc2:	eb dc                	jmp    1fa0 <sig_disconnect+0x50>
    1fc4:	8d 74 26 00          	lea    0x0(%esi,%eiz,1),%esi
    1fc8:	8b 40 04             	mov    0x4(%eax),%eax
    1fcb:	39 f0                	cmp    %esi,%eax
    1fcd:	74 d1                	je     1fa0 <sig_disconnect+0x50>
    1fcf:	39 78 08             	cmp    %edi,0x8(%eax)
    1fd2:	75 f4                	jne    1fc8 <sig_disconnect+0x78>
    1fd4:	39 50 0c             	cmp    %edx,0xc(%eax)
    1fd7:	75 ef                	jne    1fc8 <sig_disconnect+0x78>
    1fd9:	8b 10                	mov    (%eax),%edx
    1fdb:	85 d2                	test   %edx,%edx
    1fdd:	74 0e                	je     1fed <sig_disconnect+0x9d>
    1fdf:	8b 48 04             	mov    0x4(%eax),%ecx
    1fe2:	85 c9                	test   %ecx,%ecx
    1fe4:	74 07                	je     1fed <sig_disconnect+0x9d>
    1fe6:	89 11                	mov    %edx,(%ecx)
    1fe8:	8b 10                	mov    (%eax),%edx
    1fea:	89 4a 04             	mov    %ecx,0x4(%edx)
    1fed:	83 ec 0c             	sub    $0xc,%esp
    1ff0:	c7 00 00 00 00 00    	movl   $0x0,(%eax)
    1ff6:	c7 40 04 00 00 00 00 	movl   $0x0,0x4(%eax)
    1ffd:	50                   	push   %eax
    1ffe:	e8 5d 61 00 00       	call   8160 <free@plt>
    2003:	83 c4 10             	add    $0x10,%esp
    2006:	39 73 10             	cmp    %esi,0x10(%ebx)
    2009:	75 95                	jne    1fa0 <sig_disconnect+0x50>
    200b:	8b 13                	mov    (%ebx),%edx
    200d:	85 d2                	test   %edx,%edx
    200f:	74 0e                	je     201f <sig_disconnect+0xcf>
    2011:	8b 43 04             	mov    0x4(%ebx),%eax
    2014:	85 c0                	test   %eax,%eax
    2016:	74 07                	je     201f <sig_disconnect+0xcf>
    2018:	89 10                	mov    %edx,(%eax)
    201a:	8b 13                	mov    (%ebx),%edx
    201c:	89 42 04             	mov    %eax,0x4(%edx)
    201f:	83 ec 0c             	sub    $0xc,%esp
    2022:	c7 03 00 00 00 00    	movl   $0x0,(%ebx)
    2028:	c7 43 04 00 00 00 00 	movl   $0x0,0x4(%ebx)
    202f:	53                   	push   %ebx
    2030:	e8 2b 61 00 00       	call   8160 <free@plt>
    2035:	83 c4 10             	add    $0x10,%esp
    2038:	e9 63 ff ff ff       	jmp    1fa0 <sig_disconnect+0x50>
    203d:	8d 76 00             	lea    0x0(%esi),%esi

00002040 <sig_send>:
    2040:	55                   	push   %ebp
    2041:	89 e5                	mov    %esp,%ebp
    2043:	57                   	push   %edi
    2044:	56                   	push   %esi
    2045:	53                   	push   %ebx
    2046:	83 ec 18             	sub    $0x18,%esp
    2049:	8b 5d 08             	mov    0x8(%ebp),%ebx
    204c:	8b 75 0c             	mov    0xc(%ebp),%esi
    204f:	68 cc 99 00 00       	push   $0x99cc
    2054:	e8 d7 60 00 00       	call   8130 <fibril_rwlock_read_lock@plt>
    2059:	a1 c8 99 00 00       	mov    0x99c8,%eax
    205e:	83 c4 10             	add    $0x10,%esp
    2061:	3d c4 99 00 00       	cmp    $0x99c4,%eax
    2066:	74 17                	je     207f <sig_send+0x3f>
    2068:	3b 58 08             	cmp    0x8(%eax),%ebx
    206b:	75 08                	jne    2075 <sig_send+0x35>
    206d:	eb 29                	jmp    2098 <sig_send+0x58>
    206f:	90                   	nop
    2070:	39 58 08             	cmp    %ebx,0x8(%eax)
    2073:	74 23                	je     2098 <sig_send+0x58>
    2075:	8b 40 04             	mov    0x4(%eax),%eax
    2078:	3d c4 99 00 00       	cmp    $0x99c4,%eax
    207d:	75 f1                	jne    2070 <sig_send+0x30>
    207f:	c7 45 08 cc 99 00 00 	movl   $0x99cc,0x8(%ebp)
    2086:	8d 65 f4             	lea    -0xc(%ebp),%esp
    2089:	5b                   	pop    %ebx
    208a:	5e                   	pop    %esi
    208b:	5f                   	pop    %edi
    208c:	5d                   	pop    %ebp
    208d:	e9 5e 5e 00 00       	jmp    7ef0 <fibril_rwlock_read_unlock@plt>
    2092:	8d b6 00 00 00 00    	lea    0x0(%esi),%esi
    2098:	8b 78 10             	mov    0x10(%eax),%edi
    209b:	8d 58 0c             	lea    0xc(%eax),%ebx
    209e:	39 df                	cmp    %ebx,%edi
    20a0:	74 dd                	je     207f <sig_send+0x3f>
    20a2:	8d b6 00 00 00 00    	lea    0x0(%esi),%esi
    20a8:	50                   	push   %eax
    20a9:	50                   	push   %eax
    20aa:	56                   	push   %esi
    20ab:	8b 57 08             	mov    0x8(%edi),%edx
    20ae:	52                   	push   %edx
    20af:	ff 57 0c             	call   *0xc(%edi)
    20b2:	8b 7f 04             	mov    0x4(%edi),%edi
    20b5:	83 c4 10             	add    $0x10,%esp
    20b8:	39 df                	cmp    %ebx,%edi
    20ba:	75 ec                	jne    20a8 <sig_send+0x68>
    20bc:	eb c1                	jmp    207f <sig_send+0x3f>
    20be:	66 90                	xchg   %ax,%ax

000020c0 <sig_post>:
    20c0:	55                   	push   %ebp
    20c1:	89 e5                	mov    %esp,%ebp
    20c3:	57                   	push   %edi
    20c4:	56                   	push   %esi
    20c5:	53                   	push   %ebx
    20c6:	83 ec 28             	sub    $0x28,%esp
    20c9:	8b 45 0c             	mov    0xc(%ebp),%eax
    20cc:	8b 75 08             	mov    0x8(%ebp),%esi
    20cf:	68 cc 99 00 00       	push   $0x99cc
    20d4:	89 45 e0             	mov    %eax,-0x20(%ebp)
    20d7:	8b 7d 10             	mov    0x10(%ebp),%edi
    20da:	e8 51 60 00 00       	call   8130 <fibril_rwlock_read_lock@plt>
    20df:	8b 1d c8 99 00 00    	mov    0x99c8,%ebx
    20e5:	83 c4 10             	add    $0x10,%esp
    20e8:	81 fb c4 99 00 00    	cmp    $0x99c4,%ebx
    20ee:	74 18                	je     2108 <sig_post+0x48>
    20f0:	3b 73 08             	cmp    0x8(%ebx),%esi
    20f3:	75 08                	jne    20fd <sig_post+0x3d>
    20f5:	eb 29                	jmp    2120 <sig_post+0x60>
    20f7:	90                   	nop
    20f8:	39 73 08             	cmp    %esi,0x8(%ebx)
    20fb:	74 23                	je     2120 <sig_post+0x60>
    20fd:	8b 5b 04             	mov    0x4(%ebx),%ebx
    2100:	81 fb c4 99 00 00    	cmp    $0x99c4,%ebx
    2106:	75 f0                	jne    20f8 <sig_post+0x38>
    2108:	c7 45 08 cc 99 00 00 	movl   $0x99cc,0x8(%ebp)
    210f:	8d 65 f4             	lea    -0xc(%ebp),%esp
    2112:	5b                   	pop    %ebx
    2113:	5e                   	pop    %esi
    2114:	5f                   	pop    %edi
    2115:	5d                   	pop    %ebp
    2116:	e9 d5 5d 00 00       	jmp    7ef0 <fibril_rwlock_read_unlock@plt>
    211b:	90                   	nop
    211c:	8d 74 26 00          	lea    0x0(%esi,%eiz,1),%esi
    2120:	8b 73 10             	mov    0x10(%ebx),%esi
    2123:	83 c3 0c             	add    $0xc,%ebx
    2126:	39 de                	cmp    %ebx,%esi
    2128:	74 de                	je     2108 <sig_post+0x48>
    212a:	8b 45 e0             	mov    -0x20(%ebp),%eax
    212d:	85 c0                	test   %eax,%eax
    212f:	0f 84 a3 00 00 00    	je     21d8 <sig_post+0x118>
    2135:	89 5d e4             	mov    %ebx,-0x1c(%ebp)
    2138:	eb 3d                	jmp    2177 <sig_post+0xb7>
    213a:	8d b6 00 00 00 00    	lea    0x0(%esi),%esi
    2140:	8b 45 e0             	mov    -0x20(%ebp),%eax
    2143:	51                   	push   %ecx
    2144:	57                   	push   %edi
    2145:	50                   	push   %eax
    2146:	53                   	push   %ebx
    2147:	e8 d4 5d 00 00       	call   7f20 <memcpy@plt>
    214c:	c7 04 24 24 00 00 00 	movl   $0x24,(%esp)
    2153:	e8 d8 5d 00 00       	call   7f30 <malloc@plt>
    2158:	83 c4 10             	add    $0x10,%esp
    215b:	85 c0                	test   %eax,%eax
    215d:	0f 85 cd 00 00 00    	jne    2230 <sig_post+0x170>
    2163:	83 ec 0c             	sub    $0xc,%esp
    2166:	53                   	push   %ebx
    2167:	e8 f4 5f 00 00       	call   8160 <free@plt>
    216c:	83 c4 10             	add    $0x10,%esp
    216f:	8b 76 04             	mov    0x4(%esi),%esi
    2172:	3b 75 e4             	cmp    -0x1c(%ebp),%esi
    2175:	74 91                	je     2108 <sig_post+0x48>
    2177:	83 ec 0c             	sub    $0xc,%esp
    217a:	57                   	push   %edi
    217b:	e8 b0 5d 00 00       	call   7f30 <malloc@plt>
    2180:	83 c4 10             	add    $0x10,%esp
    2183:	89 c3                	mov    %eax,%ebx
    2185:	85 c0                	test   %eax,%eax
    2187:	75 b7                	jne    2140 <sig_post+0x80>
    2189:	83 ec 0c             	sub    $0xc,%esp
    218c:	6a 24                	push   $0x24
    218e:	e8 9d 5d 00 00       	call   7f30 <malloc@plt>
    2193:	83 c4 10             	add    $0x10,%esp
    2196:	31 d2                	xor    %edx,%edx
    2198:	85 c0                	test   %eax,%eax
    219a:	74 d3                	je     216f <sig_post+0xaf>
    219c:	8b 4e 08             	mov    0x8(%esi),%ecx
    219f:	c7 00 00 00 00 00    	movl   $0x0,(%eax)
    21a5:	89 48 0c             	mov    %ecx,0xc(%eax)
    21a8:	c7 40 04 00 00 00 00 	movl   $0x0,0x4(%eax)
    21af:	8b 5e 0c             	mov    0xc(%esi),%ebx
    21b2:	c7 40 08 02 00 00 00 	movl   $0x2,0x8(%eax)
    21b9:	89 50 14             	mov    %edx,0x14(%eax)
    21bc:	89 58 10             	mov    %ebx,0x10(%eax)
    21bf:	52                   	push   %edx
    21c0:	52                   	push   %edx
    21c1:	50                   	push   %eax
    21c2:	8b 41 14             	mov    0x14(%ecx),%eax
    21c5:	83 c0 10             	add    $0x10,%eax
    21c8:	50                   	push   %eax
    21c9:	e8 f2 5e 00 00       	call   80c0 <prodcons_produce@plt>
    21ce:	83 c4 10             	add    $0x10,%esp
    21d1:	eb 9c                	jmp    216f <sig_post+0xaf>
    21d3:	90                   	nop
    21d4:	8d 74 26 00          	lea    0x0(%esi,%eiz,1),%esi
    21d8:	83 ec 0c             	sub    $0xc,%esp
    21db:	6a 24                	push   $0x24
    21dd:	e8 4e 5d 00 00       	call   7f30 <malloc@plt>
    21e2:	83 c4 10             	add    $0x10,%esp
    21e5:	85 c0                	test   %eax,%eax
    21e7:	74 39                	je     2222 <sig_post+0x162>
    21e9:	8b 56 08             	mov    0x8(%esi),%edx
    21ec:	c7 00 00 00 00 00    	movl   $0x0,(%eax)
    21f2:	89 50 0c             	mov    %edx,0xc(%eax)
    21f5:	c7 40 04 00 00 00 00 	movl   $0x0,0x4(%eax)
    21fc:	8b 4e 0c             	mov    0xc(%esi),%ecx
    21ff:	c7 40 08 02 00 00 00 	movl   $0x2,0x8(%eax)
    2206:	89 48 10             	mov    %ecx,0x10(%eax)
    2209:	c7 40 14 00 00 00 00 	movl   $0x0,0x14(%eax)
    2210:	51                   	push   %ecx
    2211:	51                   	push   %ecx
    2212:	50                   	push   %eax
    2213:	8b 42 14             	mov    0x14(%edx),%eax
    2216:	83 c0 10             	add    $0x10,%eax
    2219:	50                   	push   %eax
    221a:	e8 a1 5e 00 00       	call   80c0 <prodcons_produce@plt>
    221f:	83 c4 10             	add    $0x10,%esp
    2222:	8b 76 04             	mov    0x4(%esi),%esi
    2225:	39 de                	cmp    %ebx,%esi
    2227:	75 af                	jne    21d8 <sig_post+0x118>
    2229:	e9 da fe ff ff       	jmp    2108 <sig_post+0x48>
    222e:	66 90                	xchg   %ax,%ax
    2230:	89 da                	mov    %ebx,%edx
    2232:	e9 65 ff ff ff       	jmp    219c <sig_post+0xdc>
    2237:	66 90                	xchg   %ax,%ax
    2239:	66 90                	xchg   %ax,%ax
    223b:	66 90                	xchg   %ax,%ax
    223d:	66 90                	xchg   %ax,%ax
    223f:	90                   	nop

00002240 <widget_init>:
    2240:	55                   	push   %ebp
    2241:	89 e5                	mov    %esp,%ebp
    2243:	8b 45 08             	mov    0x8(%ebp),%eax
    2246:	8b 55 0c             	mov    0xc(%ebp),%edx
    2249:	85 d2                	test   %edx,%edx
    224b:	8d 48 0c             	lea    0xc(%eax),%ecx
    224e:	c7 00 00 00 00 00    	movl   $0x0,(%eax)
    2254:	c7 40 04 00 00 00 00 	movl   $0x0,0x4(%eax)
    225b:	89 48 0c             	mov    %ecx,0xc(%eax)
    225e:	89 48 10             	mov    %ecx,0x10(%eax)
    2261:	74 6d                	je     22d0 <widget_init+0x90>
    2263:	8d 4a 0c             	lea    0xc(%edx),%ecx
    2266:	89 50 08             	mov    %edx,0x8(%eax)
    2269:	89 48 04             	mov    %ecx,0x4(%eax)
    226c:	8b 4a 0c             	mov    0xc(%edx),%ecx
    226f:	89 08                	mov    %ecx,(%eax)
    2271:	8b 4a 0c             	mov    0xc(%edx),%ecx
    2274:	89 41 04             	mov    %eax,0x4(%ecx)
    2277:	89 42 0c             	mov    %eax,0xc(%edx)
    227a:	8b 52 14             	mov    0x14(%edx),%edx
    227d:	89 50 14             	mov    %edx,0x14(%eax)
    2280:	8b 55 10             	mov    0x10(%ebp),%edx
    2283:	c7 40 1c 00 00 00 00 	movl   $0x0,0x1c(%eax)
    228a:	89 50 18             	mov    %edx,0x18(%eax)
    228d:	c7 40 20 00 00 00 00 	movl   $0x0,0x20(%eax)
    2294:	c7 40 24 00 00 00 00 	movl   $0x0,0x24(%eax)
    229b:	c7 40 28 00 00 00 00 	movl   $0x0,0x28(%eax)
    22a2:	c7 40 2c 00 00 00 00 	movl   $0x0,0x2c(%eax)
    22a9:	c7 40 30 00 00 00 00 	movl   $0x0,0x30(%eax)
    22b0:	c7 40 34 00 00 00 00 	movl   $0x0,0x34(%eax)
    22b7:	c7 40 38 00 00 00 00 	movl   $0x0,0x38(%eax)
    22be:	c7 40 3c ff ff ff ff 	movl   $0xffffffff,0x3c(%eax)
    22c5:	c7 40 40 ff ff ff ff 	movl   $0xffffffff,0x40(%eax)
    22cc:	5d                   	pop    %ebp
    22cd:	c3                   	ret    
    22ce:	66 90                	xchg   %ax,%ax
    22d0:	c7 40 08 00 00 00 00 	movl   $0x0,0x8(%eax)
    22d7:	c7 40 14 00 00 00 00 	movl   $0x0,0x14(%eax)
    22de:	eb a0                	jmp    2280 <widget_init+0x40>

000022e0 <widget_modify>:
    22e0:	55                   	push   %ebp
    22e1:	89 e5                	mov    %esp,%ebp
    22e3:	8b 45 08             	mov    0x8(%ebp),%eax
    22e6:	8b 55 0c             	mov    0xc(%ebp),%edx
    22e9:	89 50 1c             	mov    %edx,0x1c(%eax)
    22ec:	8b 55 10             	mov    0x10(%ebp),%edx
    22ef:	89 50 20             	mov    %edx,0x20(%eax)
    22f2:	8b 55 14             	mov    0x14(%ebp),%edx
    22f5:	89 50 24             	mov    %edx,0x24(%eax)
    22f8:	8b 55 18             	mov    0x18(%ebp),%edx
    22fb:	89 50 28             	mov    %edx,0x28(%eax)
    22fe:	5d                   	pop    %ebp
    22ff:	c3                   	ret    

00002300 <widget_get_data>:
    2300:	55                   	push   %ebp
    2301:	89 e5                	mov    %esp,%ebp
    2303:	8b 45 08             	mov    0x8(%ebp),%eax
    2306:	5d                   	pop    %ebp
    2307:	8b 40 18             	mov    0x18(%eax),%eax
    230a:	c3                   	ret    
    230b:	90                   	nop
    230c:	8d 74 26 00          	lea    0x0(%esi,%eiz,1),%esi

00002310 <widget_deinit>:
    2310:	55                   	push   %ebp
    2311:	89 e5                	mov    %esp,%ebp
    2313:	8b 45 08             	mov    0x8(%ebp),%eax
    2316:	8b 50 08             	mov    0x8(%eax),%edx
    2319:	85 d2                	test   %edx,%edx
    231b:	74 21                	je     233e <widget_deinit+0x2e>
    231d:	8b 08                	mov    (%eax),%ecx
    231f:	85 c9                	test   %ecx,%ecx
    2321:	74 0e                	je     2331 <widget_deinit+0x21>
    2323:	8b 50 04             	mov    0x4(%eax),%edx
    2326:	85 d2                	test   %edx,%edx
    2328:	74 07                	je     2331 <widget_deinit+0x21>
    232a:	89 0a                	mov    %ecx,(%edx)
    232c:	8b 08                	mov    (%eax),%ecx
    232e:	89 51 04             	mov    %edx,0x4(%ecx)
    2331:	c7 00 00 00 00 00    	movl   $0x0,(%eax)
    2337:	c7 40 04 00 00 00 00 	movl   $0x0,0x4(%eax)
    233e:	5d                   	pop    %ebp
    233f:	c3                   	ret    

00002340 <root_handle_keyboard_event>:
    2340:	55                   	push   %ebp
    2341:	89 e5                	mov    %esp,%ebp
    2343:	57                   	push   %edi
    2344:	56                   	push   %esi
    2345:	8b 45 08             	mov    0x8(%ebp),%eax
    2348:	83 c0 0c             	add    $0xc,%eax
    234b:	8b 50 04             	mov    0x4(%eax),%edx
    234e:	39 c2                	cmp    %eax,%edx
    2350:	74 1e                	je     2370 <root_handle_keyboard_event+0x30>
    2352:	8d 7d 0c             	lea    0xc(%ebp),%edi
    2355:	b9 06 00 00 00       	mov    $0x6,%ecx
    235a:	89 fe                	mov    %edi,%esi
    235c:	f3 a5                	rep movsl %ds:(%esi),%es:(%edi)
    235e:	89 55 08             	mov    %edx,0x8(%ebp)
    2361:	5e                   	pop    %esi
    2362:	8b 42 54             	mov    0x54(%edx),%eax
    2365:	5f                   	pop    %edi
    2366:	5d                   	pop    %ebp
    2367:	ff e0                	jmp    *%eax
    2369:	8d b4 26 00 00 00 00 	lea    0x0(%esi,%eiz,1),%esi
    2370:	5e                   	pop    %esi
    2371:	5f                   	pop    %edi
    2372:	5d                   	pop    %ebp
    2373:	c3                   	ret    
    2374:	8d b6 00 00 00 00    	lea    0x0(%esi),%esi
    237a:	8d bf 00 00 00 00    	lea    0x0(%edi),%edi

00002380 <root_handle_position_event>:
    2380:	55                   	push   %ebp
    2381:	89 e5                	mov    %esp,%ebp
    2383:	57                   	push   %edi
    2384:	56                   	push   %esi
    2385:	53                   	push   %ebx
    2386:	83 ec 3c             	sub    $0x3c,%esp
    2389:	8b 55 08             	mov    0x8(%ebp),%edx
    238c:	8b 45 0c             	mov    0xc(%ebp),%eax
    238f:	89 45 e4             	mov    %eax,-0x1c(%ebp)
    2392:	8b 45 10             	mov    0x10(%ebp),%eax
    2395:	8b 7a 14             	mov    0x14(%edx),%edi
    2398:	89 c1                	mov    %eax,%ecx
    239a:	89 45 d8             	mov    %eax,-0x28(%ebp)
    239d:	8b 45 14             	mov    0x14(%ebp),%eax
    23a0:	89 45 d4             	mov    %eax,-0x2c(%ebp)
    23a3:	8b 5d 18             	mov    0x18(%ebp),%ebx
    23a6:	8b 75 1c             	mov    0x1c(%ebp),%esi
    23a9:	89 7d dc             	mov    %edi,-0x24(%ebp)
    23ac:	80 7f 01 00          	cmpb   $0x0,0x1(%edi)
    23b0:	0f 84 e2 00 00 00    	je     2498 <root_handle_position_event+0x118>
    23b6:	49                   	dec    %ecx
    23b7:	0f 94 45 d3          	sete   -0x2d(%ebp)
    23bb:	83 f8 01             	cmp    $0x1,%eax
    23be:	0f 94 45 e0          	sete   -0x20(%ebp)
    23c2:	8a 4d e0             	mov    -0x20(%ebp),%cl
    23c5:	8b 7a 24             	mov    0x24(%edx),%edi
    23c8:	22 4d d3             	and    -0x2d(%ebp),%cl
    23cb:	89 7d cc             	mov    %edi,-0x34(%ebp)
    23ce:	8b 7a 28             	mov    0x28(%edx),%edi
    23d1:	88 4d e0             	mov    %cl,-0x20(%ebp)
    23d4:	89 7d c8             	mov    %edi,-0x38(%ebp)
    23d7:	0f 85 15 01 00 00    	jne    24f2 <root_handle_position_event+0x172>
    23dd:	83 f8 02             	cmp    $0x2,%eax
    23e0:	0f 94 45 e0          	sete   -0x20(%ebp)
    23e4:	8a 45 e0             	mov    -0x20(%ebp),%al
    23e7:	c7 45 c0 00 00 00 00 	movl   $0x0,-0x40(%ebp)
    23ee:	22 45 d3             	and    -0x2d(%ebp),%al
    23f1:	88 45 e0             	mov    %al,-0x20(%ebp)
    23f4:	8b 45 cc             	mov    -0x34(%ebp),%eax
    23f7:	83 fb 03             	cmp    $0x3,%ebx
    23fa:	0f 96 45 d3          	setbe  -0x2d(%ebp)
    23fe:	83 e8 04             	sub    $0x4,%eax
    2401:	89 c7                	mov    %eax,%edi
    2403:	89 45 bc             	mov    %eax,-0x44(%ebp)
    2406:	8b 45 c8             	mov    -0x38(%ebp),%eax
    2409:	83 fe 03             	cmp    $0x3,%esi
    240c:	0f 96 45 d2          	setbe  -0x2e(%ebp)
    2410:	83 e8 04             	sub    $0x4,%eax
    2413:	39 c6                	cmp    %eax,%esi
    2415:	8d 46 fc             	lea    -0x4(%esi),%eax
    2418:	0f 93 45 c8          	setae  -0x38(%ebp)
    241c:	83 f8 13             	cmp    $0x13,%eax
    241f:	0f 96 45 c4          	setbe  -0x3c(%ebp)
    2423:	83 fb 03             	cmp    $0x3,%ebx
    2426:	8a 4d c4             	mov    -0x3c(%ebp),%cl
    2429:	0f 97 c0             	seta   %al
    242c:	84 c1                	test   %al,%cl
    242e:	0f 84 15 01 00 00    	je     2549 <root_handle_position_event+0x1c9>
    2434:	39 fb                	cmp    %edi,%ebx
    2436:	0f 83 0d 01 00 00    	jae    2549 <root_handle_position_event+0x1c9>
    243c:	8b 45 cc             	mov    -0x34(%ebp),%eax
    243f:	c7 45 c4 01 00 00 00 	movl   $0x1,-0x3c(%ebp)
    2446:	83 e8 18             	sub    $0x18,%eax
    2449:	39 c3                	cmp    %eax,%ebx
    244b:	0f 93 c0             	setae  %al
    244e:	25 ff 00 00 00       	and    $0xff,%eax
    2453:	89 c7                	mov    %eax,%edi
    2455:	8a 45 d2             	mov    -0x2e(%ebp),%al
    2458:	84 45 d3             	test   %al,-0x2d(%ebp)
    245b:	0f 84 9d 00 00 00    	je     24fe <root_handle_position_event+0x17e>
    2461:	80 7d e0 00          	cmpb   $0x0,-0x20(%ebp)
    2465:	0f 84 93 00 00 00    	je     24fe <root_handle_position_event+0x17e>
    246b:	83 7d c0 01          	cmpl   $0x1,-0x40(%ebp)
    246f:	19 c0                	sbb    %eax,%eax
    2471:	83 e0 24             	and    $0x24,%eax
    2474:	83 c0 0f             	add    $0xf,%eax
    2477:	89 45 10             	mov    %eax,0x10(%ebp)
    247a:	8b 45 e4             	mov    -0x1c(%ebp),%eax
    247d:	89 45 0c             	mov    %eax,0xc(%ebp)
    2480:	8b 45 dc             	mov    -0x24(%ebp),%eax
    2483:	8b 40 0c             	mov    0xc(%eax),%eax
    2486:	89 45 08             	mov    %eax,0x8(%ebp)
    2489:	8d 65 f4             	lea    -0xc(%ebp),%esp
    248c:	5b                   	pop    %ebx
    248d:	5e                   	pop    %esi
    248e:	5f                   	pop    %edi
    248f:	5d                   	pop    %ebp
    2490:	e9 0b 5a 00 00       	jmp    7ea0 <win_grab@plt>
    2495:	8d 76 00             	lea    0x0(%esi),%esi
    2498:	8d 42 0c             	lea    0xc(%edx),%eax
    249b:	8b 7a 10             	mov    0x10(%edx),%edi
    249e:	89 45 dc             	mov    %eax,-0x24(%ebp)
    24a1:	39 c7                	cmp    %eax,%edi
    24a3:	74 45                	je     24ea <root_handle_position_event+0x16a>
    24a5:	89 f0                	mov    %esi,%eax
    24a7:	8b 4d e4             	mov    -0x1c(%ebp),%ecx
    24aa:	89 de                	mov    %ebx,%esi
    24ac:	89 c3                	mov    %eax,%ebx
    24ae:	66 90                	xchg   %ax,%ax
    24b0:	8b 47 58             	mov    0x58(%edi),%eax
    24b3:	83 ec 08             	sub    $0x8,%esp
    24b6:	89 45 e4             	mov    %eax,-0x1c(%ebp)
    24b9:	8b 55 d4             	mov    -0x2c(%ebp),%edx
    24bc:	8b 45 d8             	mov    -0x28(%ebp),%eax
    24bf:	53                   	push   %ebx
    24c0:	89 45 10             	mov    %eax,0x10(%ebp)
    24c3:	56                   	push   %esi
    24c4:	52                   	push   %edx
    24c5:	50                   	push   %eax
    24c6:	8b 45 e4             	mov    -0x1c(%ebp),%eax
    24c9:	51                   	push   %ecx
    24ca:	89 4d 0c             	mov    %ecx,0xc(%ebp)
    24cd:	57                   	push   %edi
    24ce:	89 4d e0             	mov    %ecx,-0x20(%ebp)
    24d1:	89 55 14             	mov    %edx,0x14(%ebp)
    24d4:	89 75 18             	mov    %esi,0x18(%ebp)
    24d7:	89 5d 1c             	mov    %ebx,0x1c(%ebp)
    24da:	ff d0                	call   *%eax
    24dc:	8b 7f 04             	mov    0x4(%edi),%edi
    24df:	83 c4 20             	add    $0x20,%esp
    24e2:	8b 4d e0             	mov    -0x20(%ebp),%ecx
    24e5:	3b 7d dc             	cmp    -0x24(%ebp),%edi
    24e8:	75 c6                	jne    24b0 <root_handle_position_event+0x130>
    24ea:	8d 65 f4             	lea    -0xc(%ebp),%esp
    24ed:	5b                   	pop    %ebx
    24ee:	5e                   	pop    %esi
    24ef:	5f                   	pop    %edi
    24f0:	5d                   	pop    %ebp
    24f1:	c3                   	ret    
    24f2:	c7 45 c0 01 00 00 00 	movl   $0x1,-0x40(%ebp)
    24f9:	e9 f6 fe ff ff       	jmp    23f4 <root_handle_position_event+0x74>
    24fe:	8a 4d c8             	mov    -0x38(%ebp),%cl
    2501:	84 4d d3             	test   %cl,-0x2d(%ebp)
    2504:	74 1a                	je     2520 <root_handle_position_event+0x1a0>
    2506:	80 7d e0 00          	cmpb   $0x0,-0x20(%ebp)
    250a:	74 14                	je     2520 <root_handle_position_event+0x1a0>
    250c:	83 7d c0 01          	cmpl   $0x1,-0x40(%ebp)
    2510:	19 c0                	sbb    %eax,%eax
    2512:	83 e0 24             	and    $0x24,%eax
    2515:	83 c0 0d             	add    $0xd,%eax
    2518:	89 45 10             	mov    %eax,0x10(%ebp)
    251b:	e9 5a ff ff ff       	jmp    247a <root_handle_position_event+0xfa>
    2520:	3b 5d bc             	cmp    -0x44(%ebp),%ebx
    2523:	0f 93 45 cc          	setae  -0x34(%ebp)
    2527:	8a 45 cc             	mov    -0x34(%ebp),%al
    252a:	84 45 c8             	test   %al,-0x38(%ebp)
    252d:	74 28                	je     2557 <root_handle_position_event+0x1d7>
    252f:	80 7d e0 00          	cmpb   $0x0,-0x20(%ebp)
    2533:	74 22                	je     2557 <root_handle_position_event+0x1d7>
    2535:	83 7d c0 01          	cmpl   $0x1,-0x40(%ebp)
    2539:	19 c0                	sbb    %eax,%eax
    253b:	83 e0 24             	and    $0x24,%eax
    253e:	83 c0 0c             	add    $0xc,%eax
    2541:	89 45 10             	mov    %eax,0x10(%ebp)
    2544:	e9 31 ff ff ff       	jmp    247a <root_handle_position_event+0xfa>
    2549:	c7 45 c4 00 00 00 00 	movl   $0x0,-0x3c(%ebp)
    2550:	31 ff                	xor    %edi,%edi
    2552:	e9 fe fe ff ff       	jmp    2455 <root_handle_position_event+0xd5>
    2557:	8a 4d d2             	mov    -0x2e(%ebp),%cl
    255a:	84 4d cc             	test   %cl,-0x34(%ebp)
    255d:	74 1a                	je     2579 <root_handle_position_event+0x1f9>
    255f:	80 7d e0 00          	cmpb   $0x0,-0x20(%ebp)
    2563:	74 14                	je     2579 <root_handle_position_event+0x1f9>
    2565:	83 7d c0 01          	cmpl   $0x1,-0x40(%ebp)
    2569:	19 c0                	sbb    %eax,%eax
    256b:	83 e0 24             	and    $0x24,%eax
    256e:	83 c0 0e             	add    $0xe,%eax
    2571:	89 45 10             	mov    %eax,0x10(%ebp)
    2574:	e9 01 ff ff ff       	jmp    247a <root_handle_position_event+0xfa>
    2579:	80 7d d2 00          	cmpb   $0x0,-0x2e(%ebp)
    257d:	74 1a                	je     2599 <root_handle_position_event+0x219>
    257f:	80 7d e0 00          	cmpb   $0x0,-0x20(%ebp)
    2583:	74 14                	je     2599 <root_handle_position_event+0x219>
    2585:	83 7d c0 01          	cmpl   $0x1,-0x40(%ebp)
    2589:	19 c0                	sbb    %eax,%eax
    258b:	83 e0 18             	and    $0x18,%eax
    258e:	83 c0 0a             	add    $0xa,%eax
    2591:	89 45 10             	mov    %eax,0x10(%ebp)
    2594:	e9 e1 fe ff ff       	jmp    247a <root_handle_position_event+0xfa>
    2599:	80 7d d3 00          	cmpb   $0x0,-0x2d(%ebp)
    259d:	74 1a                	je     25b9 <root_handle_position_event+0x239>
    259f:	80 7d e0 00          	cmpb   $0x0,-0x20(%ebp)
    25a3:	74 14                	je     25b9 <root_handle_position_event+0x239>
    25a5:	83 7d c0 01          	cmpl   $0x1,-0x40(%ebp)
    25a9:	19 c0                	sbb    %eax,%eax
    25ab:	83 e0 0c             	and    $0xc,%eax
    25ae:	83 c0 05             	add    $0x5,%eax
    25b1:	89 45 10             	mov    %eax,0x10(%ebp)
    25b4:	e9 c1 fe ff ff       	jmp    247a <root_handle_position_event+0xfa>
    25b9:	80 7d c8 00          	cmpb   $0x0,-0x38(%ebp)
    25bd:	74 1a                	je     25d9 <root_handle_position_event+0x259>
    25bf:	80 7d e0 00          	cmpb   $0x0,-0x20(%ebp)
    25c3:	74 14                	je     25d9 <root_handle_position_event+0x259>
    25c5:	83 7d c0 01          	cmpl   $0x1,-0x40(%ebp)
    25c9:	19 c0                	sbb    %eax,%eax
    25cb:	83 e0 18             	and    $0x18,%eax
    25ce:	83 c0 08             	add    $0x8,%eax
    25d1:	89 45 10             	mov    %eax,0x10(%ebp)
    25d4:	e9 a1 fe ff ff       	jmp    247a <root_handle_position_event+0xfa>
    25d9:	80 7d cc 00          	cmpb   $0x0,-0x34(%ebp)
    25dd:	74 1a                	je     25f9 <root_handle_position_event+0x279>
    25df:	80 7d e0 00          	cmpb   $0x0,-0x20(%ebp)
    25e3:	74 14                	je     25f9 <root_handle_position_event+0x279>
    25e5:	83 7d c0 01          	cmpl   $0x1,-0x40(%ebp)
    25e9:	19 c0                	sbb    %eax,%eax
    25eb:	83 e0 0c             	and    $0xc,%eax
    25ee:	83 c0 04             	add    $0x4,%eax
    25f1:	89 45 10             	mov    %eax,0x10(%ebp)
    25f4:	e9 81 fe ff ff       	jmp    247a <root_handle_position_event+0xfa>
    25f9:	85 7d c0             	test   %edi,-0x40(%ebp)
    25fc:	75 61                	jne    265f <root_handle_position_event+0x2df>
    25fe:	8b 4d c4             	mov    -0x3c(%ebp),%ecx
    2601:	85 4d c0             	test   %ecx,-0x40(%ebp)
    2604:	75 6e                	jne    2674 <root_handle_position_event+0x2f4>
    2606:	8d 42 0c             	lea    0xc(%edx),%eax
    2609:	8b 7a 10             	mov    0x10(%edx),%edi
    260c:	89 45 dc             	mov    %eax,-0x24(%ebp)
    260f:	39 f8                	cmp    %edi,%eax
    2611:	0f 84 d3 fe ff ff    	je     24ea <root_handle_position_event+0x16a>
    2617:	89 f0                	mov    %esi,%eax
    2619:	8b 4d e4             	mov    -0x1c(%ebp),%ecx
    261c:	89 de                	mov    %ebx,%esi
    261e:	89 c3                	mov    %eax,%ebx
    2620:	8b 47 58             	mov    0x58(%edi),%eax
    2623:	83 ec 08             	sub    $0x8,%esp
    2626:	89 45 e4             	mov    %eax,-0x1c(%ebp)
    2629:	8b 55 d4             	mov    -0x2c(%ebp),%edx
    262c:	8b 45 d8             	mov    -0x28(%ebp),%eax
    262f:	53                   	push   %ebx
    2630:	89 45 10             	mov    %eax,0x10(%ebp)
    2633:	56                   	push   %esi
    2634:	52                   	push   %edx
    2635:	50                   	push   %eax
    2636:	8b 45 e4             	mov    -0x1c(%ebp),%eax
    2639:	51                   	push   %ecx
    263a:	89 4d 0c             	mov    %ecx,0xc(%ebp)
    263d:	57                   	push   %edi
    263e:	89 4d e0             	mov    %ecx,-0x20(%ebp)
    2641:	89 55 14             	mov    %edx,0x14(%ebp)
    2644:	89 75 18             	mov    %esi,0x18(%ebp)
    2647:	89 5d 1c             	mov    %ebx,0x1c(%ebp)
    264a:	ff d0                	call   *%eax
    264c:	8b 7f 04             	mov    0x4(%edi),%edi
    264f:	83 c4 20             	add    $0x20,%esp
    2652:	8b 4d e0             	mov    -0x20(%ebp),%ecx
    2655:	39 7d dc             	cmp    %edi,-0x24(%ebp)
    2658:	75 c6                	jne    2620 <root_handle_position_event+0x2a0>
    265a:	e9 8b fe ff ff       	jmp    24ea <root_handle_position_event+0x16a>
    265f:	8b 45 dc             	mov    -0x24(%ebp),%eax
    2662:	8b 40 0c             	mov    0xc(%eax),%eax
    2665:	89 45 08             	mov    %eax,0x8(%ebp)
    2668:	8d 65 f4             	lea    -0xc(%ebp),%esp
    266b:	5b                   	pop    %ebx
    266c:	5e                   	pop    %esi
    266d:	5f                   	pop    %edi
    266e:	5d                   	pop    %ebp
    266f:	e9 dc 5a 00 00       	jmp    8150 <win_close_request@plt>
    2674:	c7 45 10 03 00 00 00 	movl   $0x3,0x10(%ebp)
    267b:	e9 fa fd ff ff       	jmp    247a <root_handle_position_event+0xfa>

00002680 <root_destroy>:
    2680:	55                   	push   %ebp
    2681:	89 e5                	mov    %esp,%ebp
    2683:	5d                   	pop    %ebp
    2684:	e9 87 fc ff ff       	jmp    2310 <widget_deinit>
    2689:	8d b4 26 00 00 00 00 	lea    0x0(%esi,%eiz,1),%esi

00002690 <fetch_input>:
    2690:	55                   	push   %ebp
    2691:	89 e5                	mov    %esp,%ebp
    2693:	57                   	push   %edi
    2694:	56                   	push   %esi
    2695:	53                   	push   %ebx
    2696:	83 ec 0c             	sub    $0xc,%esp
    2699:	8b 45 08             	mov    0x8(%ebp),%eax
    269c:	8d 78 10             	lea    0x10(%eax),%edi
    269f:	90                   	nop
    26a0:	83 ec 0c             	sub    $0xc,%esp
    26a3:	6a 24                	push   $0x24
    26a5:	e8 86 58 00 00       	call   7f30 <malloc@plt>
    26aa:	83 c4 10             	add    $0x10,%esp
    26ad:	89 c6                	mov    %eax,%esi
    26af:	85 c0                	test   %eax,%eax
    26b1:	74 37                	je     26ea <fetch_input+0x5a>
    26b3:	52                   	push   %edx
    26b4:	52                   	push   %edx
    26b5:	50                   	push   %eax
    26b6:	8b 45 08             	mov    0x8(%ebp),%eax
    26b9:	8b 48 08             	mov    0x8(%eax),%ecx
    26bc:	51                   	push   %ecx
    26bd:	e8 1e 59 00 00       	call   7fe0 <win_get_event@plt>
    26c2:	83 c4 10             	add    $0x10,%esp
    26c5:	85 c0                	test   %eax,%eax
    26c7:	75 2f                	jne    26f8 <fetch_input+0x68>
    26c9:	8b 5e 08             	mov    0x8(%esi),%ebx
    26cc:	50                   	push   %eax
    26cd:	50                   	push   %eax
    26ce:	56                   	push   %esi
    26cf:	57                   	push   %edi
    26d0:	c7 06 00 00 00 00    	movl   $0x0,(%esi)
    26d6:	c7 46 04 00 00 00 00 	movl   $0x0,0x4(%esi)
    26dd:	e8 de 59 00 00       	call   80c0 <prodcons_produce@plt>
    26e2:	83 c4 10             	add    $0x10,%esp
    26e5:	83 fb 08             	cmp    $0x8,%ebx
    26e8:	75 b6                	jne    26a0 <fetch_input+0x10>
    26ea:	8d 65 f4             	lea    -0xc(%ebp),%esp
    26ed:	31 c0                	xor    %eax,%eax
    26ef:	5b                   	pop    %ebx
    26f0:	5e                   	pop    %esi
    26f1:	5f                   	pop    %edi
    26f2:	5d                   	pop    %ebp
    26f3:	c3                   	ret    
    26f4:	8d 74 26 00          	lea    0x0(%esi,%eiz,1),%esi
    26f8:	83 ec 0c             	sub    $0xc,%esp
    26fb:	56                   	push   %esi
    26fc:	e8 5f 5a 00 00       	call   8160 <free@plt>
    2701:	83 c4 10             	add    $0x10,%esp
    2704:	8d 65 f4             	lea    -0xc(%ebp),%esp
    2707:	31 c0                	xor    %eax,%eax
    2709:	5b                   	pop    %ebx
    270a:	5e                   	pop    %esi
    270b:	5f                   	pop    %edi
    270c:	5d                   	pop    %ebp
    270d:	c3                   	ret    
    270e:	66 90                	xchg   %ax,%ax

00002710 <paint_internal>:
    2710:	55                   	push   %ebp
    2711:	89 e5                	mov    %esp,%ebp
    2713:	57                   	push   %edi
    2714:	56                   	push   %esi
    2715:	53                   	push   %ebx
    2716:	81 ec e8 00 00 00    	sub    $0xe8,%esp
    271c:	89 c3                	mov    %eax,%ebx
    271e:	8b 70 14             	mov    0x14(%eax),%esi
    2721:	8d 86 94 00 00 00    	lea    0x94(%esi),%eax
    2727:	50                   	push   %eax
    2728:	e8 43 5a 00 00       	call   8170 <fibril_mutex_lock@plt>
    272d:	8b 86 a4 00 00 00    	mov    0xa4(%esi),%eax
    2733:	83 c4 10             	add    $0x10,%esp
    2736:	89 85 2c ff ff ff    	mov    %eax,-0xd4(%ebp)
    273c:	85 c0                	test   %eax,%eax
    273e:	0f 84 5c 03 00 00    	je     2aa0 <paint_internal+0x390>
    2744:	83 ec 0c             	sub    $0xc,%esp
    2747:	8d 75 84             	lea    -0x7c(%ebp),%esi
    274a:	8d bd 4c ff ff ff    	lea    -0xb4(%ebp),%edi
    2750:	56                   	push   %esi
    2751:	e8 6a 3a 00 00       	call   61c0 <source_init>
    2756:	8b 8d 2c ff ff ff    	mov    -0xd4(%ebp),%ecx
    275c:	58                   	pop    %eax
    275d:	5a                   	pop    %edx
    275e:	51                   	push   %ecx
    275f:	57                   	push   %edi
    2760:	e8 cb 32 00 00       	call   5a30 <drawctx_init>
    2765:	58                   	pop    %eax
    2766:	5a                   	pop    %edx
    2767:	56                   	push   %esi
    2768:	57                   	push   %edi
    2769:	e8 92 34 00 00       	call   5c00 <drawctx_set_source>
    276e:	8b 4b 28             	mov    0x28(%ebx),%ecx
    2771:	8b 43 24             	mov    0x24(%ebx),%eax
    2774:	68 55 55 55 ff       	push   $0xff555555
    2779:	6a ff                	push   $0xffffffff
    277b:	51                   	push   %ecx
    277c:	50                   	push   %eax
    277d:	8b 43 1c             	mov    0x1c(%ebx),%eax
    2780:	50                   	push   %eax
    2781:	8b 43 20             	mov    0x20(%ebx),%eax
    2784:	50                   	push   %eax
    2785:	56                   	push   %esi
    2786:	57                   	push   %edi
    2787:	e8 e4 13 00 00       	call   3b70 <draw_bevel>
    278c:	83 c4 28             	add    $0x28,%esp
    278f:	68 ba ba ba ff       	push   $0xffbababa
    2794:	56                   	push   %esi
    2795:	e8 b6 3a 00 00       	call   6250 <source_set_color>
    279a:	8b 43 24             	mov    0x24(%ebx),%eax
    279d:	83 e8 02             	sub    $0x2,%eax
    27a0:	c7 04 24 02 00 00 00 	movl   $0x2,(%esp)
    27a7:	50                   	push   %eax
    27a8:	8b 43 20             	mov    0x20(%ebx),%eax
    27ab:	40                   	inc    %eax
    27ac:	50                   	push   %eax
    27ad:	8b 43 1c             	mov    0x1c(%ebx),%eax
    27b0:	40                   	inc    %eax
    27b1:	50                   	push   %eax
    27b2:	57                   	push   %edi
    27b3:	e8 68 34 00 00       	call   5c20 <drawctx_transfer>
    27b8:	83 c4 14             	add    $0x14,%esp
    27bb:	8b 43 28             	mov    0x28(%ebx),%eax
    27be:	83 e8 02             	sub    $0x2,%eax
    27c1:	50                   	push   %eax
    27c2:	8b 43 20             	mov    0x20(%ebx),%eax
    27c5:	40                   	inc    %eax
    27c6:	6a 02                	push   $0x2
    27c8:	50                   	push   %eax
    27c9:	8b 43 1c             	mov    0x1c(%ebx),%eax
    27cc:	40                   	inc    %eax
    27cd:	50                   	push   %eax
    27ce:	57                   	push   %edi
    27cf:	e8 4c 34 00 00       	call   5c20 <drawctx_transfer>
    27d4:	83 c4 14             	add    $0x14,%esp
    27d7:	8b 43 24             	mov    0x24(%ebx),%eax
    27da:	6a 02                	push   $0x2
    27dc:	83 e8 02             	sub    $0x2,%eax
    27df:	8b 53 20             	mov    0x20(%ebx),%edx
    27e2:	50                   	push   %eax
    27e3:	8b 43 28             	mov    0x28(%ebx),%eax
    27e6:	01 d0                	add    %edx,%eax
    27e8:	83 e8 03             	sub    $0x3,%eax
    27eb:	50                   	push   %eax
    27ec:	8b 43 1c             	mov    0x1c(%ebx),%eax
    27ef:	40                   	inc    %eax
    27f0:	50                   	push   %eax
    27f1:	57                   	push   %edi
    27f2:	e8 29 34 00 00       	call   5c20 <drawctx_transfer>
    27f7:	83 c4 14             	add    $0x14,%esp
    27fa:	8b 43 28             	mov    0x28(%ebx),%eax
    27fd:	8b 4b 1c             	mov    0x1c(%ebx),%ecx
    2800:	83 e8 04             	sub    $0x4,%eax
    2803:	50                   	push   %eax
    2804:	8b 43 20             	mov    0x20(%ebx),%eax
    2807:	40                   	inc    %eax
    2808:	6a 02                	push   $0x2
    280a:	50                   	push   %eax
    280b:	8b 43 24             	mov    0x24(%ebx),%eax
    280e:	01 c8                	add    %ecx,%eax
    2810:	83 e8 03             	sub    $0x3,%eax
    2813:	50                   	push   %eax
    2814:	57                   	push   %edi
    2815:	e8 06 34 00 00       	call   5c20 <drawctx_transfer>
    281a:	83 c4 20             	add    $0x20,%esp
    281d:	8b 43 28             	mov    0x28(%ebx),%eax
    2820:	6a ff                	push   $0xffffffff
    2822:	83 e8 06             	sub    $0x6,%eax
    2825:	68 55 55 55 ff       	push   $0xff555555
    282a:	50                   	push   %eax
    282b:	8b 43 24             	mov    0x24(%ebx),%eax
    282e:	83 e8 06             	sub    $0x6,%eax
    2831:	50                   	push   %eax
    2832:	8b 43 20             	mov    0x20(%ebx),%eax
    2835:	83 c0 03             	add    $0x3,%eax
    2838:	50                   	push   %eax
    2839:	8b 43 1c             	mov    0x1c(%ebx),%eax
    283c:	83 c0 03             	add    $0x3,%eax
    283f:	50                   	push   %eax
    2840:	56                   	push   %esi
    2841:	57                   	push   %edi
    2842:	e8 29 13 00 00       	call   3b70 <draw_bevel>
    2847:	8b 43 1c             	mov    0x1c(%ebx),%eax
    284a:	83 c4 20             	add    $0x20,%esp
    284d:	89 85 34 ff ff ff    	mov    %eax,-0xcc(%ebp)
    2853:	8d 50 04             	lea    0x4(%eax),%edx
    2856:	8b 43 14             	mov    0x14(%ebx),%eax
    2859:	89 95 30 ff ff ff    	mov    %edx,-0xd0(%ebp)
    285f:	8b 53 20             	mov    0x20(%ebx),%edx
    2862:	89 95 28 ff ff ff    	mov    %edx,-0xd8(%ebp)
    2868:	8d 4a 04             	lea    0x4(%edx),%ecx
    286b:	89 8d 24 ff ff ff    	mov    %ecx,-0xdc(%ebp)
    2871:	8b 4b 24             	mov    0x24(%ebx),%ecx
    2874:	89 8d 20 ff ff ff    	mov    %ecx,-0xe0(%ebp)
    287a:	83 e9 1c             	sub    $0x1c,%ecx
    287d:	80 78 02 01          	cmpb   $0x1,0x2(%eax)
    2881:	19 d2                	sbb    %edx,%edx
    2883:	81 e2 d1 e9 dc ff    	and    $0xffdce9d1,%edx
    2889:	81 ea a7 cf d7 00    	sub    $0xd7cfa7,%edx
    288f:	80 78 02 01          	cmpb   $0x1,0x2(%eax)
    2893:	19 c0                	sbb    %eax,%eax
    2895:	52                   	push   %edx
    2896:	25 7f bc 97 ff       	and    $0xff97bc7f,%eax
    289b:	2d 01 6e 87 00       	sub    $0x876e01,%eax
    28a0:	50                   	push   %eax
    28a1:	8b 85 24 ff ff ff    	mov    -0xdc(%ebp),%eax
    28a7:	6a 14                	push   $0x14
    28a9:	51                   	push   %ecx
    28aa:	50                   	push   %eax
    28ab:	8b 85 30 ff ff ff    	mov    -0xd0(%ebp),%eax
    28b1:	50                   	push   %eax
    28b2:	56                   	push   %esi
    28b3:	57                   	push   %edi
    28b4:	e8 b7 12 00 00       	call   3b70 <draw_bevel>
    28b9:	8b 43 14             	mov    0x14(%ebx),%eax
    28bc:	83 c4 18             	add    $0x18,%esp
    28bf:	80 78 02 01          	cmpb   $0x1,0x2(%eax)
    28c3:	19 c0                	sbb    %eax,%eax
    28c5:	25 98 ce b3 ff       	and    $0xffb3ce98,%eax
    28ca:	2d 3c 95 a7 00       	sub    $0xa7953c,%eax
    28cf:	50                   	push   %eax
    28d0:	56                   	push   %esi
    28d1:	e8 7a 39 00 00       	call   6250 <source_set_color>
    28d6:	8b 8d 20 ff ff ff    	mov    -0xe0(%ebp),%ecx
    28dc:	8b 95 28 ff ff ff    	mov    -0xd8(%ebp),%edx
    28e2:	8d 41 e2             	lea    -0x1e(%ecx),%eax
    28e5:	c7 04 24 12 00 00 00 	movl   $0x12,(%esp)
    28ec:	50                   	push   %eax
    28ed:	8d 42 05             	lea    0x5(%edx),%eax
    28f0:	50                   	push   %eax
    28f1:	8b 85 34 ff ff ff    	mov    -0xcc(%ebp),%eax
    28f7:	83 c0 05             	add    $0x5,%eax
    28fa:	50                   	push   %eax
    28fb:	57                   	push   %edi
    28fc:	e8 1f 33 00 00       	call   5c20 <drawctx_transfer>
    2901:	8b 53 1c             	mov    0x1c(%ebx),%edx
    2904:	8b 43 24             	mov    0x24(%ebx),%eax
    2907:	83 c4 20             	add    $0x20,%esp
    290a:	01 d0                	add    %edx,%eax
    290c:	89 c2                	mov    %eax,%edx
    290e:	8b 43 20             	mov    0x20(%ebx),%eax
    2911:	89 85 30 ff ff ff    	mov    %eax,-0xd0(%ebp)
    2917:	83 c0 04             	add    $0x4,%eax
    291a:	68 55 55 55 ff       	push   $0xff555555
    291f:	6a ff                	push   $0xffffffff
    2921:	6a 14                	push   $0x14
    2923:	6a 14                	push   $0x14
    2925:	50                   	push   %eax
    2926:	89 d0                	mov    %edx,%eax
    2928:	83 e8 18             	sub    $0x18,%eax
    292b:	89 95 34 ff ff ff    	mov    %edx,-0xcc(%ebp)
    2931:	50                   	push   %eax
    2932:	56                   	push   %esi
    2933:	57                   	push   %edi
    2934:	e8 37 12 00 00       	call   3b70 <draw_bevel>
    2939:	83 c4 18             	add    $0x18,%esp
    293c:	68 ba ba ba ff       	push   $0xffbababa
    2941:	56                   	push   %esi
    2942:	e8 09 39 00 00       	call   6250 <source_set_color>
    2947:	8b 8d 30 ff ff ff    	mov    -0xd0(%ebp),%ecx
    294d:	8d 41 05             	lea    0x5(%ecx),%eax
    2950:	c7 04 24 12 00 00 00 	movl   $0x12,(%esp)
    2957:	6a 12                	push   $0x12
    2959:	50                   	push   %eax
    295a:	8b 85 34 ff ff ff    	mov    -0xcc(%ebp),%eax
    2960:	83 e8 17             	sub    $0x17,%eax
    2963:	50                   	push   %eax
    2964:	57                   	push   %edi
    2965:	e8 b6 32 00 00       	call   5c20 <drawctx_transfer>
    296a:	8b 8d 30 ff ff ff    	mov    -0xd0(%ebp),%ecx
    2970:	83 c4 14             	add    $0x14,%esp
    2973:	8d 41 07             	lea    0x7(%ecx),%eax
    2976:	8b 8d 2c ff ff ff    	mov    -0xd4(%ebp),%ecx
    297c:	68 55 55 55 ff       	push   $0xff555555
    2981:	6a ff                	push   $0xffffffff
    2983:	50                   	push   %eax
    2984:	8b 85 34 ff ff ff    	mov    -0xcc(%ebp),%eax
    298a:	83 e8 15             	sub    $0x15,%eax
    298d:	50                   	push   %eax
    298e:	51                   	push   %ecx
    298f:	e8 3c 0e 00 00       	call   37d0 <draw_icon_cross>
    2994:	83 c4 18             	add    $0x18,%esp
    2997:	8d 85 40 ff ff ff    	lea    -0xc0(%ebp),%eax
    299d:	6a 10                	push   $0x10
    299f:	50                   	push   %eax
    29a0:	e8 9b 13 00 00       	call   3d40 <embedded_font_create>
    29a5:	83 c4 10             	add    $0x10,%esp
    29a8:	85 c0                	test   %eax,%eax
    29aa:	0f 85 d0 00 00 00    	jne    2a80 <paint_internal+0x370>
    29b0:	50                   	push   %eax
    29b1:	50                   	push   %eax
    29b2:	8b 85 40 ff ff ff    	mov    -0xc0(%ebp),%eax
    29b8:	50                   	push   %eax
    29b9:	57                   	push   %edi
    29ba:	e8 51 32 00 00       	call   5c10 <drawctx_set_font>
    29bf:	8b 43 14             	mov    0x14(%ebx),%eax
    29c2:	80 78 02 00          	cmpb   $0x0,0x2(%eax)
    29c6:	0f 95 c0             	setne  %al
    29c9:	25 ff 00 00 00       	and    $0xff,%eax
    29ce:	5a                   	pop    %edx
    29cf:	f7 d8                	neg    %eax
    29d1:	0d cf cf cf ff       	or     $0xffcfcfcf,%eax
    29d6:	59                   	pop    %ecx
    29d7:	50                   	push   %eax
    29d8:	56                   	push   %esi
    29d9:	e8 72 38 00 00       	call   6250 <source_set_color>
    29de:	8d 85 48 ff ff ff    	lea    -0xb8(%ebp),%eax
    29e4:	50                   	push   %eax
    29e5:	8d 85 44 ff ff ff    	lea    -0xbc(%ebp),%eax
    29eb:	50                   	push   %eax
    29ec:	8b 43 14             	mov    0x14(%ebx),%eax
    29ef:	8b 70 04             	mov    0x4(%eax),%esi
    29f2:	8b 85 40 ff ff ff    	mov    -0xc0(%ebp),%eax
    29f8:	56                   	push   %esi
    29f9:	50                   	push   %eax
    29fa:	e8 91 35 00 00       	call   5f90 <font_get_box>
    29ff:	8b 95 44 ff ff ff    	mov    -0xbc(%ebp),%edx
    2a05:	8b 43 24             	mov    0x24(%ebx),%eax
    2a08:	8d 4a 1e             	lea    0x1e(%edx),%ecx
    2a0b:	83 c4 20             	add    $0x20,%esp
    2a0e:	39 c8                	cmp    %ecx,%eax
    2a10:	72 41                	jb     2a53 <paint_internal+0x343>
    2a12:	8b 4b 14             	mov    0x14(%ebx),%ecx
    2a15:	8b 71 04             	mov    0x4(%ecx),%esi
    2a18:	89 b5 34 ff ff ff    	mov    %esi,-0xcc(%ebp)
    2a1e:	85 f6                	test   %esi,%esi
    2a20:	74 31                	je     2a53 <paint_internal+0x343>
    2a22:	8b b5 48 ff ff ff    	mov    -0xb8(%ebp),%esi
    2a28:	b9 14 00 00 00       	mov    $0x14,%ecx
    2a2d:	29 f1                	sub    %esi,%ecx
    2a2f:	8b 73 20             	mov    0x20(%ebx),%esi
    2a32:	d1 e9                	shr    %ecx
    2a34:	29 d0                	sub    %edx,%eax
    2a36:	d1 e8                	shr    %eax
    2a38:	8b 53 1c             	mov    0x1c(%ebx),%edx
    2a3b:	8d 4c 31 04          	lea    0x4(%ecx,%esi,1),%ecx
    2a3f:	01 d0                	add    %edx,%eax
    2a41:	51                   	push   %ecx
    2a42:	8b 8d 34 ff ff ff    	mov    -0xcc(%ebp),%ecx
    2a48:	50                   	push   %eax
    2a49:	51                   	push   %ecx
    2a4a:	57                   	push   %edi
    2a4b:	e8 40 34 00 00       	call   5e90 <drawctx_print>
    2a50:	83 c4 10             	add    $0x10,%esp
    2a53:	83 ec 0c             	sub    $0xc,%esp
    2a56:	8b 85 40 ff ff ff    	mov    -0xc0(%ebp),%eax
    2a5c:	50                   	push   %eax
    2a5d:	e8 8e 34 00 00       	call   5ef0 <font_release>
    2a62:	8b 43 14             	mov    0x14(%ebx),%eax
    2a65:	05 94 00 00 00       	add    $0x94,%eax
    2a6a:	89 04 24             	mov    %eax,(%esp)
    2a6d:	e8 3e 55 00 00       	call   7fb0 <fibril_mutex_unlock@plt>
    2a72:	83 c4 10             	add    $0x10,%esp
    2a75:	8d 65 f4             	lea    -0xc(%ebp),%esp
    2a78:	5b                   	pop    %ebx
    2a79:	5e                   	pop    %esi
    2a7a:	5f                   	pop    %edi
    2a7b:	5d                   	pop    %ebp
    2a7c:	c3                   	ret    
    2a7d:	8d 76 00             	lea    0x0(%esi),%esi
    2a80:	83 ec 0c             	sub    $0xc,%esp
    2a83:	8b 43 14             	mov    0x14(%ebx),%eax
    2a86:	05 94 00 00 00       	add    $0x94,%eax
    2a8b:	50                   	push   %eax
    2a8c:	e8 1f 55 00 00       	call   7fb0 <fibril_mutex_unlock@plt>
    2a91:	83 c4 10             	add    $0x10,%esp
    2a94:	8d 65 f4             	lea    -0xc(%ebp),%esp
    2a97:	5b                   	pop    %ebx
    2a98:	5e                   	pop    %esi
    2a99:	5f                   	pop    %edi
    2a9a:	5d                   	pop    %ebp
    2a9b:	c3                   	ret    
    2a9c:	8d 74 26 00          	lea    0x0(%esi,%eiz,1),%esi
    2aa0:	83 ec 0c             	sub    $0xc,%esp
    2aa3:	8b 43 14             	mov    0x14(%ebx),%eax
    2aa6:	05 94 00 00 00       	add    $0x94,%eax
    2aab:	50                   	push   %eax
    2aac:	e8 ff 54 00 00       	call   7fb0 <fibril_mutex_unlock@plt>
    2ab1:	83 c4 10             	add    $0x10,%esp
    2ab4:	e9 8b fc ff ff       	jmp    2744 <paint_internal+0x34>
    2ab9:	8d b4 26 00 00 00 00 	lea    0x0(%esi,%eiz,1),%esi

00002ac0 <root_reconfigure>:
    2ac0:	55                   	push   %ebp
    2ac1:	89 e5                	mov    %esp,%ebp
    2ac3:	57                   	push   %edi
    2ac4:	56                   	push   %esi
    2ac5:	53                   	push   %ebx
    2ac6:	83 ec 0c             	sub    $0xc,%esp
    2ac9:	8b 5d 08             	mov    0x8(%ebp),%ebx
    2acc:	8b 43 14             	mov    0x14(%ebx),%eax
    2acf:	80 78 01 00          	cmpb   $0x0,0x1(%eax)
    2ad3:	74 43                	je     2b18 <root_reconfigure+0x58>
    2ad5:	8b 73 10             	mov    0x10(%ebx),%esi
    2ad8:	8d 7b 0c             	lea    0xc(%ebx),%edi
    2adb:	39 fe                	cmp    %edi,%esi
    2add:	74 2e                	je     2b0d <root_reconfigure+0x4d>
    2adf:	90                   	nop
    2ae0:	83 ec 0c             	sub    $0xc,%esp
    2ae3:	8b 43 28             	mov    0x28(%ebx),%eax
    2ae6:	83 e8 1c             	sub    $0x1c,%eax
    2ae9:	50                   	push   %eax
    2aea:	8b 43 24             	mov    0x24(%ebx),%eax
    2aed:	83 e8 08             	sub    $0x8,%eax
    2af0:	50                   	push   %eax
    2af1:	8b 43 20             	mov    0x20(%ebx),%eax
    2af4:	83 c0 18             	add    $0x18,%eax
    2af7:	50                   	push   %eax
    2af8:	8b 43 1c             	mov    0x1c(%ebx),%eax
    2afb:	83 c0 04             	add    $0x4,%eax
    2afe:	50                   	push   %eax
    2aff:	56                   	push   %esi
    2b00:	ff 56 4c             	call   *0x4c(%esi)
    2b03:	8b 76 04             	mov    0x4(%esi),%esi
    2b06:	83 c4 20             	add    $0x20,%esp
    2b09:	39 fe                	cmp    %edi,%esi
    2b0b:	75 d3                	jne    2ae0 <root_reconfigure+0x20>
    2b0d:	8d 65 f4             	lea    -0xc(%ebp),%esp
    2b10:	5b                   	pop    %ebx
    2b11:	5e                   	pop    %esi
    2b12:	5f                   	pop    %edi
    2b13:	5d                   	pop    %ebp
    2b14:	c3                   	ret    
    2b15:	8d 76 00             	lea    0x0(%esi),%esi
    2b18:	8b 73 10             	mov    0x10(%ebx),%esi
    2b1b:	8d 7b 0c             	lea    0xc(%ebx),%edi
    2b1e:	39 f7                	cmp    %esi,%edi
    2b20:	74 eb                	je     2b0d <root_reconfigure+0x4d>
    2b22:	8d b6 00 00 00 00    	lea    0x0(%esi),%esi
    2b28:	83 ec 0c             	sub    $0xc,%esp
    2b2b:	8b 43 28             	mov    0x28(%ebx),%eax
    2b2e:	50                   	push   %eax
    2b2f:	8b 53 24             	mov    0x24(%ebx),%edx
    2b32:	52                   	push   %edx
    2b33:	8b 4b 20             	mov    0x20(%ebx),%ecx
    2b36:	51                   	push   %ecx
    2b37:	8b 43 1c             	mov    0x1c(%ebx),%eax
    2b3a:	50                   	push   %eax
    2b3b:	56                   	push   %esi
    2b3c:	ff 56 4c             	call   *0x4c(%esi)
    2b3f:	8b 76 04             	mov    0x4(%esi),%esi
    2b42:	83 c4 20             	add    $0x20,%esp
    2b45:	39 f7                	cmp    %esi,%edi
    2b47:	75 df                	jne    2b28 <root_reconfigure+0x68>
    2b49:	8d 65 f4             	lea    -0xc(%ebp),%esp
    2b4c:	5b                   	pop    %ebx
    2b4d:	5e                   	pop    %esi
    2b4e:	5f                   	pop    %edi
    2b4f:	5d                   	pop    %ebp
    2b50:	c3                   	ret    
    2b51:	eb 0d                	jmp    2b60 <root_rearrange>
    2b53:	90                   	nop
    2b54:	90                   	nop
    2b55:	90                   	nop
    2b56:	90                   	nop
    2b57:	90                   	nop
    2b58:	90                   	nop
    2b59:	90                   	nop
    2b5a:	90                   	nop
    2b5b:	90                   	nop
    2b5c:	90                   	nop
    2b5d:	90                   	nop
    2b5e:	90                   	nop
    2b5f:	90                   	nop

00002b60 <root_rearrange>:
    2b60:	55                   	push   %ebp
    2b61:	89 e5                	mov    %esp,%ebp
    2b63:	57                   	push   %edi
    2b64:	56                   	push   %esi
    2b65:	53                   	push   %ebx
    2b66:	83 ec 28             	sub    $0x28,%esp
    2b69:	8b 45 10             	mov    0x10(%ebp),%eax
    2b6c:	8b 75 14             	mov    0x14(%ebp),%esi
    2b6f:	8b 7d 18             	mov    0x18(%ebp),%edi
    2b72:	8b 55 08             	mov    0x8(%ebp),%edx
    2b75:	57                   	push   %edi
    2b76:	56                   	push   %esi
    2b77:	50                   	push   %eax
    2b78:	8b 45 0c             	mov    0xc(%ebp),%eax
    2b7b:	50                   	push   %eax
    2b7c:	89 55 e4             	mov    %edx,-0x1c(%ebp)
    2b7f:	52                   	push   %edx
    2b80:	e8 5b f7 ff ff       	call   22e0 <widget_modify>
    2b85:	8b 55 e4             	mov    -0x1c(%ebp),%edx
    2b88:	83 c4 20             	add    $0x20,%esp
    2b8b:	8b 42 14             	mov    0x14(%edx),%eax
    2b8e:	80 78 01 00          	cmpb   $0x0,0x1(%eax)
    2b92:	75 3c                	jne    2bd0 <root_rearrange+0x70>
    2b94:	8d 42 0c             	lea    0xc(%edx),%eax
    2b97:	8b 5a 10             	mov    0x10(%edx),%ebx
    2b9a:	89 45 e4             	mov    %eax,-0x1c(%ebp)
    2b9d:	39 c3                	cmp    %eax,%ebx
    2b9f:	74 23                	je     2bc4 <root_rearrange+0x64>
    2ba1:	8d b4 26 00 00 00 00 	lea    0x0(%esi,%eiz,1),%esi
    2ba8:	83 ec 0c             	sub    $0xc,%esp
    2bab:	8b 45 10             	mov    0x10(%ebp),%eax
    2bae:	8b 55 0c             	mov    0xc(%ebp),%edx
    2bb1:	57                   	push   %edi
    2bb2:	56                   	push   %esi
    2bb3:	50                   	push   %eax
    2bb4:	52                   	push   %edx
    2bb5:	53                   	push   %ebx
    2bb6:	ff 53 4c             	call   *0x4c(%ebx)
    2bb9:	8b 5b 04             	mov    0x4(%ebx),%ebx
    2bbc:	83 c4 20             	add    $0x20,%esp
    2bbf:	3b 5d e4             	cmp    -0x1c(%ebp),%ebx
    2bc2:	75 e4                	jne    2ba8 <root_rearrange+0x48>
    2bc4:	8d 65 f4             	lea    -0xc(%ebp),%esp
    2bc7:	5b                   	pop    %ebx
    2bc8:	5e                   	pop    %esi
    2bc9:	5f                   	pop    %edi
    2bca:	5d                   	pop    %ebp
    2bcb:	c3                   	ret    
    2bcc:	8d 74 26 00          	lea    0x0(%esi,%eiz,1),%esi
    2bd0:	89 d0                	mov    %edx,%eax
    2bd2:	e8 39 fb ff ff       	call   2710 <paint_internal>
    2bd7:	8b 55 e4             	mov    -0x1c(%ebp),%edx
    2bda:	8d 42 0c             	lea    0xc(%edx),%eax
    2bdd:	8b 5a 10             	mov    0x10(%edx),%ebx
    2be0:	89 45 e4             	mov    %eax,-0x1c(%ebp)
    2be3:	39 c3                	cmp    %eax,%ebx
    2be5:	74 dd                	je     2bc4 <root_rearrange+0x64>
    2be7:	8b 45 10             	mov    0x10(%ebp),%eax
    2bea:	83 ef 1c             	sub    $0x1c,%edi
    2bed:	83 c0 18             	add    $0x18,%eax
    2bf0:	83 ee 08             	sub    $0x8,%esi
    2bf3:	89 45 dc             	mov    %eax,-0x24(%ebp)
    2bf6:	8b 45 0c             	mov    0xc(%ebp),%eax
    2bf9:	83 c0 04             	add    $0x4,%eax
    2bfc:	89 45 e0             	mov    %eax,-0x20(%ebp)
    2bff:	90                   	nop
    2c00:	83 ec 0c             	sub    $0xc,%esp
    2c03:	8b 4d dc             	mov    -0x24(%ebp),%ecx
    2c06:	8b 45 e0             	mov    -0x20(%ebp),%eax
    2c09:	57                   	push   %edi
    2c0a:	56                   	push   %esi
    2c0b:	51                   	push   %ecx
    2c0c:	50                   	push   %eax
    2c0d:	53                   	push   %ebx
    2c0e:	ff 53 4c             	call   *0x4c(%ebx)
    2c11:	8b 5b 04             	mov    0x4(%ebx),%ebx
    2c14:	83 c4 20             	add    $0x20,%esp
    2c17:	3b 5d e4             	cmp    -0x1c(%ebp),%ebx
    2c1a:	75 e4                	jne    2c00 <root_rearrange+0xa0>
    2c1c:	8d 65 f4             	lea    -0xc(%ebp),%esp
    2c1f:	5b                   	pop    %ebx
    2c20:	5e                   	pop    %esi
    2c21:	5f                   	pop    %edi
    2c22:	5d                   	pop    %ebp
    2c23:	c3                   	ret    
    2c24:	8d b6 00 00 00 00    	lea    0x0(%esi),%esi
    2c2a:	8d bf 00 00 00 00    	lea    0x0(%edi),%edi

00002c30 <destroy_children>:
    2c30:	55                   	push   %ebp
    2c31:	89 e5                	mov    %esp,%ebp
    2c33:	57                   	push   %edi
    2c34:	56                   	push   %esi
    2c35:	53                   	push   %ebx
    2c36:	83 ec 4c             	sub    $0x4c,%esp
    2c39:	89 45 a8             	mov    %eax,-0x58(%ebp)
    2c3c:	8b 48 10             	mov    0x10(%eax),%ecx
    2c3f:	83 c0 0c             	add    $0xc,%eax
    2c42:	89 4d d4             	mov    %ecx,-0x2c(%ebp)
    2c45:	89 45 bc             	mov    %eax,-0x44(%ebp)
    2c48:	39 c1                	cmp    %eax,%ecx
    2c4a:	0f 84 af 01 00 00    	je     2dff <destroy_children+0x1cf>
    2c50:	8b 45 d4             	mov    -0x2c(%ebp),%eax
    2c53:	83 c0 0c             	add    $0xc,%eax
    2c56:	8b 48 04             	mov    0x4(%eax),%ecx
    2c59:	89 45 c0             	mov    %eax,-0x40(%ebp)
    2c5c:	89 4d d0             	mov    %ecx,-0x30(%ebp)
    2c5f:	39 c8                	cmp    %ecx,%eax
    2c61:	0f 84 79 01 00 00    	je     2de0 <destroy_children+0x1b0>
    2c67:	8b 45 d0             	mov    -0x30(%ebp),%eax
    2c6a:	83 c0 0c             	add    $0xc,%eax
    2c6d:	8b 50 04             	mov    0x4(%eax),%edx
    2c70:	89 45 b4             	mov    %eax,-0x4c(%ebp)
    2c73:	89 55 cc             	mov    %edx,-0x34(%ebp)
    2c76:	39 c2                	cmp    %eax,%edx
    2c78:	0f 84 43 01 00 00    	je     2dc1 <destroy_children+0x191>
    2c7e:	8b 45 cc             	mov    -0x34(%ebp),%eax
    2c81:	83 c0 0c             	add    $0xc,%eax
    2c84:	8b 48 04             	mov    0x4(%eax),%ecx
    2c87:	89 45 b8             	mov    %eax,-0x48(%ebp)
    2c8a:	89 4d c8             	mov    %ecx,-0x38(%ebp)
    2c8d:	39 c8                	cmp    %ecx,%eax
    2c8f:	0f 84 0d 01 00 00    	je     2da2 <destroy_children+0x172>
    2c95:	8b 45 c8             	mov    -0x38(%ebp),%eax
    2c98:	83 c0 0c             	add    $0xc,%eax
    2c9b:	8b 50 04             	mov    0x4(%eax),%edx
    2c9e:	89 45 b0             	mov    %eax,-0x50(%ebp)
    2ca1:	89 55 c4             	mov    %edx,-0x3c(%ebp)
    2ca4:	39 c2                	cmp    %eax,%edx
    2ca6:	0f 84 d7 00 00 00    	je     2d83 <destroy_children+0x153>
    2cac:	8b 45 c4             	mov    -0x3c(%ebp),%eax
    2caf:	83 c0 0c             	add    $0xc,%eax
    2cb2:	8b 48 04             	mov    0x4(%eax),%ecx
    2cb5:	89 45 ac             	mov    %eax,-0x54(%ebp)
    2cb8:	89 4d dc             	mov    %ecx,-0x24(%ebp)
    2cbb:	39 c1                	cmp    %eax,%ecx
    2cbd:	0f 84 a1 00 00 00    	je     2d64 <destroy_children+0x134>
    2cc3:	8b 45 dc             	mov    -0x24(%ebp),%eax
    2cc6:	83 c0 0c             	add    $0xc,%eax
    2cc9:	8b 48 04             	mov    0x4(%eax),%ecx
    2ccc:	89 45 d8             	mov    %eax,-0x28(%ebp)
    2ccf:	89 4d e4             	mov    %ecx,-0x1c(%ebp)
    2cd2:	39 c1                	cmp    %eax,%ecx
    2cd4:	74 6f                	je     2d45 <destroy_children+0x115>
    2cd6:	8b 45 e4             	mov    -0x1c(%ebp),%eax
    2cd9:	83 c0 0c             	add    $0xc,%eax
    2cdc:	8b 58 04             	mov    0x4(%eax),%ebx
    2cdf:	89 45 e0             	mov    %eax,-0x20(%ebp)
    2ce2:	39 c3                	cmp    %eax,%ebx
    2ce4:	0f 84 1e 01 00 00    	je     2e08 <destroy_children+0x1d8>
    2cea:	8d b6 00 00 00 00    	lea    0x0(%esi),%esi
    2cf0:	8b 7b 10             	mov    0x10(%ebx),%edi
    2cf3:	8d 73 0c             	lea    0xc(%ebx),%esi
    2cf6:	39 f7                	cmp    %esi,%edi
    2cf8:	74 1e                	je     2d18 <destroy_children+0xe8>
    2cfa:	8d b6 00 00 00 00    	lea    0x0(%esi),%esi
    2d00:	89 f8                	mov    %edi,%eax
    2d02:	e8 29 ff ff ff       	call   2c30 <destroy_children>
    2d07:	83 ec 0c             	sub    $0xc,%esp
    2d0a:	57                   	push   %edi
    2d0b:	ff 57 44             	call   *0x44(%edi)
    2d0e:	8b 7b 10             	mov    0x10(%ebx),%edi
    2d11:	83 c4 10             	add    $0x10,%esp
    2d14:	39 f7                	cmp    %esi,%edi
    2d16:	75 e8                	jne    2d00 <destroy_children+0xd0>
    2d18:	83 ec 0c             	sub    $0xc,%esp
    2d1b:	53                   	push   %ebx
    2d1c:	ff 53 44             	call   *0x44(%ebx)
    2d1f:	8b 45 e4             	mov    -0x1c(%ebp),%eax
    2d22:	83 c4 10             	add    $0x10,%esp
    2d25:	8b 58 10             	mov    0x10(%eax),%ebx
    2d28:	3b 5d e0             	cmp    -0x20(%ebp),%ebx
    2d2b:	75 c3                	jne    2cf0 <destroy_children+0xc0>
    2d2d:	83 ec 0c             	sub    $0xc,%esp
    2d30:	50                   	push   %eax
    2d31:	ff 50 44             	call   *0x44(%eax)
    2d34:	8b 45 dc             	mov    -0x24(%ebp),%eax
    2d37:	83 c4 10             	add    $0x10,%esp
    2d3a:	8b 40 10             	mov    0x10(%eax),%eax
    2d3d:	89 45 e4             	mov    %eax,-0x1c(%ebp)
    2d40:	3b 45 d8             	cmp    -0x28(%ebp),%eax
    2d43:	75 91                	jne    2cd6 <destroy_children+0xa6>
    2d45:	83 ec 0c             	sub    $0xc,%esp
    2d48:	8b 45 dc             	mov    -0x24(%ebp),%eax
    2d4b:	50                   	push   %eax
    2d4c:	ff 50 44             	call   *0x44(%eax)
    2d4f:	8b 45 c4             	mov    -0x3c(%ebp),%eax
    2d52:	83 c4 10             	add    $0x10,%esp
    2d55:	8b 40 10             	mov    0x10(%eax),%eax
    2d58:	89 45 dc             	mov    %eax,-0x24(%ebp)
    2d5b:	3b 45 ac             	cmp    -0x54(%ebp),%eax
    2d5e:	0f 85 5f ff ff ff    	jne    2cc3 <destroy_children+0x93>
    2d64:	83 ec 0c             	sub    $0xc,%esp
    2d67:	8b 45 c4             	mov    -0x3c(%ebp),%eax
    2d6a:	50                   	push   %eax
    2d6b:	ff 50 44             	call   *0x44(%eax)
    2d6e:	8b 45 c8             	mov    -0x38(%ebp),%eax
    2d71:	83 c4 10             	add    $0x10,%esp
    2d74:	8b 40 10             	mov    0x10(%eax),%eax
    2d77:	89 45 c4             	mov    %eax,-0x3c(%ebp)
    2d7a:	3b 45 b0             	cmp    -0x50(%ebp),%eax
    2d7d:	0f 85 29 ff ff ff    	jne    2cac <destroy_children+0x7c>
    2d83:	83 ec 0c             	sub    $0xc,%esp
    2d86:	8b 45 c8             	mov    -0x38(%ebp),%eax
    2d89:	50                   	push   %eax
    2d8a:	ff 50 44             	call   *0x44(%eax)
    2d8d:	8b 45 cc             	mov    -0x34(%ebp),%eax
    2d90:	83 c4 10             	add    $0x10,%esp
    2d93:	8b 40 10             	mov    0x10(%eax),%eax
    2d96:	89 45 c8             	mov    %eax,-0x38(%ebp)
    2d99:	3b 45 b8             	cmp    -0x48(%ebp),%eax
    2d9c:	0f 85 f3 fe ff ff    	jne    2c95 <destroy_children+0x65>
    2da2:	83 ec 0c             	sub    $0xc,%esp
    2da5:	8b 45 cc             	mov    -0x34(%ebp),%eax
    2da8:	50                   	push   %eax
    2da9:	ff 50 44             	call   *0x44(%eax)
    2dac:	8b 45 d0             	mov    -0x30(%ebp),%eax
    2daf:	83 c4 10             	add    $0x10,%esp
    2db2:	8b 40 10             	mov    0x10(%eax),%eax
    2db5:	89 45 cc             	mov    %eax,-0x34(%ebp)
    2db8:	3b 45 b4             	cmp    -0x4c(%ebp),%eax
    2dbb:	0f 85 bd fe ff ff    	jne    2c7e <destroy_children+0x4e>
    2dc1:	83 ec 0c             	sub    $0xc,%esp
    2dc4:	8b 45 d0             	mov    -0x30(%ebp),%eax
    2dc7:	50                   	push   %eax
    2dc8:	ff 50 44             	call   *0x44(%eax)
    2dcb:	8b 45 d4             	mov    -0x2c(%ebp),%eax
    2dce:	83 c4 10             	add    $0x10,%esp
    2dd1:	8b 40 10             	mov    0x10(%eax),%eax
    2dd4:	89 45 d0             	mov    %eax,-0x30(%ebp)
    2dd7:	3b 45 c0             	cmp    -0x40(%ebp),%eax
    2dda:	0f 85 87 fe ff ff    	jne    2c67 <destroy_children+0x37>
    2de0:	83 ec 0c             	sub    $0xc,%esp
    2de3:	8b 45 d4             	mov    -0x2c(%ebp),%eax
    2de6:	50                   	push   %eax
    2de7:	ff 50 44             	call   *0x44(%eax)
    2dea:	8b 45 a8             	mov    -0x58(%ebp),%eax
    2ded:	83 c4 10             	add    $0x10,%esp
    2df0:	8b 40 10             	mov    0x10(%eax),%eax
    2df3:	89 45 d4             	mov    %eax,-0x2c(%ebp)
    2df6:	3b 45 bc             	cmp    -0x44(%ebp),%eax
    2df9:	0f 85 51 fe ff ff    	jne    2c50 <destroy_children+0x20>
    2dff:	8d 65 f4             	lea    -0xc(%ebp),%esp
    2e02:	5b                   	pop    %ebx
    2e03:	5e                   	pop    %esi
    2e04:	5f                   	pop    %edi
    2e05:	5d                   	pop    %ebp
    2e06:	c3                   	ret    
    2e07:	90                   	nop
    2e08:	8b 45 e4             	mov    -0x1c(%ebp),%eax
    2e0b:	e9 1d ff ff ff       	jmp    2d2d <destroy_children+0xfd>

00002e10 <event_loop>:
    2e10:	55                   	push   %ebp
    2e11:	89 e5                	mov    %esp,%ebp
    2e13:	57                   	push   %edi
    2e14:	56                   	push   %esi
    2e15:	53                   	push   %ebx
    2e16:	83 ec 6c             	sub    $0x6c,%esp
    2e19:	8b 45 08             	mov    0x8(%ebp),%eax
    2e1c:	83 c0 10             	add    $0x10,%eax
    2e1f:	89 45 a4             	mov    %eax,-0x5c(%ebp)
    2e22:	8b 45 08             	mov    0x8(%ebp),%eax
    2e25:	83 c0 30             	add    $0x30,%eax
    2e28:	89 45 a0             	mov    %eax,-0x60(%ebp)
    2e2b:	8b 45 08             	mov    0x8(%ebp),%eax
    2e2e:	05 94 00 00 00       	add    $0x94,%eax
    2e33:	89 45 9c             	mov    %eax,-0x64(%ebp)
    2e36:	66 90                	xchg   %ax,%ax
    2e38:	83 ec 0c             	sub    $0xc,%esp
    2e3b:	8b 45 a4             	mov    -0x5c(%ebp),%eax
    2e3e:	50                   	push   %eax
    2e3f:	e8 ec 51 00 00       	call   8030 <prodcons_consume@plt>
    2e44:	83 c4 10             	add    $0x10,%esp
    2e47:	89 c3                	mov    %eax,%ebx
    2e49:	83 78 08 08          	cmpl   $0x8,0x8(%eax)
    2e4d:	0f 87 55 02 00 00    	ja     30a8 <event_loop+0x298>
    2e53:	8b 40 08             	mov    0x8(%eax),%eax
    2e56:	ff 24 85 20 7c 00 00 	jmp    *0x7c20(,%eax,4)
    2e5d:	8d 76 00             	lea    0x0(%esi),%esi
    2e60:	83 ec 0c             	sub    $0xc,%esp
    2e63:	8b 7d 9c             	mov    -0x64(%ebp),%edi
    2e66:	57                   	push   %edi
    2e67:	e8 04 53 00 00       	call   8170 <fibril_mutex_lock@plt>
    2e6c:	8d 45 b8             	lea    -0x48(%ebp),%eax
    2e6f:	89 04 24             	mov    %eax,(%esp)
    2e72:	8d 45 b4             	lea    -0x4c(%ebp),%eax
    2e75:	50                   	push   %eax
    2e76:	8d 45 b0             	lea    -0x50(%ebp),%eax
    2e79:	50                   	push   %eax
    2e7a:	8d 45 ac             	lea    -0x54(%ebp),%eax
    2e7d:	50                   	push   %eax
    2e7e:	8b 45 08             	mov    0x8(%ebp),%eax
    2e81:	8b b0 a4 00 00 00    	mov    0xa4(%eax),%esi
    2e87:	56                   	push   %esi
    2e88:	e8 23 38 00 00       	call   66b0 <surface_get_damaged_region>
    2e8d:	8b 45 08             	mov    0x8(%ebp),%eax
    2e90:	83 c4 14             	add    $0x14,%esp
    2e93:	8b 80 a4 00 00 00    	mov    0xa4(%eax),%eax
    2e99:	50                   	push   %eax
    2e9a:	e8 21 39 00 00       	call   67c0 <surface_reset_damaged_region>
    2e9f:	89 3c 24             	mov    %edi,(%esp)
    2ea2:	e8 09 51 00 00       	call   7fb0 <fibril_mutex_unlock@plt>
    2ea7:	8b 45 b4             	mov    -0x4c(%ebp),%eax
    2eaa:	83 c4 10             	add    $0x10,%esp
    2ead:	85 c0                	test   %eax,%eax
    2eaf:	0f 84 f3 01 00 00    	je     30a8 <event_loop+0x298>
    2eb5:	8b 55 b8             	mov    -0x48(%ebp),%edx
    2eb8:	85 d2                	test   %edx,%edx
    2eba:	0f 84 e8 01 00 00    	je     30a8 <event_loop+0x298>
    2ec0:	83 ec 0c             	sub    $0xc,%esp
    2ec3:	52                   	push   %edx
    2ec4:	50                   	push   %eax
    2ec5:	8b 45 b0             	mov    -0x50(%ebp),%eax
    2ec8:	8b 55 ac             	mov    -0x54(%ebp),%edx
    2ecb:	50                   	push   %eax
    2ecc:	8b 45 08             	mov    0x8(%ebp),%eax
    2ecf:	52                   	push   %edx
    2ed0:	8b 48 0c             	mov    0xc(%eax),%ecx
    2ed3:	51                   	push   %ecx
    2ed4:	e8 b7 51 00 00       	call   8090 <win_damage@plt>
    2ed9:	83 c4 20             	add    $0x20,%esp
    2edc:	e9 c7 01 00 00       	jmp    30a8 <event_loop+0x298>
    2ee1:	8d b4 26 00 00 00 00 	lea    0x0(%esi,%eiz,1),%esi
    2ee8:	83 ec 0c             	sub    $0xc,%esp
    2eeb:	8b 45 a0             	mov    -0x60(%ebp),%eax
    2eee:	50                   	push   %eax
    2eef:	8b 45 08             	mov    0x8(%ebp),%eax
    2ef2:	ff 90 80 00 00 00    	call   *0x80(%eax)
    2ef8:	89 1c 24             	mov    %ebx,(%esp)
    2efb:	e8 60 52 00 00       	call   8160 <free@plt>
    2f00:	83 c4 10             	add    $0x10,%esp
    2f03:	e9 30 ff ff ff       	jmp    2e38 <event_loop+0x28>
    2f08:	8b 7b 14             	mov    0x14(%ebx),%edi
    2f0b:	83 ff 2f             	cmp    $0x2f,%edi
    2f0e:	0f 86 a4 03 00 00    	jbe    32b8 <event_loop+0x4a8>
    2f14:	8b 73 18             	mov    0x18(%ebx),%esi
    2f17:	83 fe 1b             	cmp    $0x1b,%esi
    2f1a:	0f 86 98 03 00 00    	jbe    32b8 <event_loop+0x4a8>
    2f20:	8b 43 1c             	mov    0x1c(%ebx),%eax
    2f23:	8b 53 10             	mov    0x10(%ebx),%edx
    2f26:	8b 4b 0c             	mov    0xc(%ebx),%ecx
    2f29:	89 45 94             	mov    %eax,-0x6c(%ebp)
    2f2c:	6a 01                	push   $0x1
    2f2e:	89 55 90             	mov    %edx,-0x70(%ebp)
    2f31:	6a 00                	push   $0x0
    2f33:	89 4d 8c             	mov    %ecx,-0x74(%ebp)
    2f36:	56                   	push   %esi
    2f37:	57                   	push   %edi
    2f38:	e8 e3 35 00 00       	call   6520 <surface_create>
    2f3d:	83 c4 10             	add    $0x10,%esp
    2f40:	89 45 88             	mov    %eax,-0x78(%ebp)
    2f43:	85 c0                	test   %eax,%eax
    2f45:	0f 84 5d 01 00 00    	je     30a8 <event_loop+0x298>
    2f4b:	83 ec 0c             	sub    $0xc,%esp
    2f4e:	8b 4d 9c             	mov    -0x64(%ebp),%ecx
    2f51:	51                   	push   %ecx
    2f52:	e8 19 52 00 00       	call   8170 <fibril_mutex_lock@plt>
    2f57:	8b 45 08             	mov    0x8(%ebp),%eax
    2f5a:	8b 55 08             	mov    0x8(%ebp),%edx
    2f5d:	8b 80 a4 00 00 00    	mov    0xa4(%eax),%eax
    2f63:	89 45 98             	mov    %eax,-0x68(%ebp)
    2f66:	8b 45 88             	mov    -0x78(%ebp),%eax
    2f69:	89 82 a4 00 00 00    	mov    %eax,0xa4(%edx)
    2f6f:	58                   	pop    %eax
    2f70:	8b 45 9c             	mov    -0x64(%ebp),%eax
    2f73:	50                   	push   %eax
    2f74:	e8 37 50 00 00       	call   7fb0 <fibril_mutex_unlock@plt>
    2f79:	8b 45 a0             	mov    -0x60(%ebp),%eax
    2f7c:	8b 55 08             	mov    0x8(%ebp),%edx
    2f7f:	89 34 24             	mov    %esi,(%esp)
    2f82:	57                   	push   %edi
    2f83:	6a 00                	push   $0x0
    2f85:	6a 00                	push   $0x0
    2f87:	50                   	push   %eax
    2f88:	ff 52 7c             	call   *0x7c(%edx)
    2f8b:	83 c4 14             	add    $0x14,%esp
    2f8e:	8b 45 9c             	mov    -0x64(%ebp),%eax
    2f91:	50                   	push   %eax
    2f92:	e8 d9 51 00 00       	call   8170 <fibril_mutex_lock@plt>
    2f97:	8b 55 08             	mov    0x8(%ebp),%edx
    2f9a:	58                   	pop    %eax
    2f9b:	8b 82 a4 00 00 00    	mov    0xa4(%edx),%eax
    2fa1:	50                   	push   %eax
    2fa2:	e8 19 38 00 00       	call   67c0 <surface_reset_damaged_region>
    2fa7:	8b 4d 9c             	mov    -0x64(%ebp),%ecx
    2faa:	5a                   	pop    %edx
    2fab:	51                   	push   %ecx
    2fac:	e8 ff 4f 00 00       	call   7fb0 <fibril_mutex_unlock@plt>
    2fb1:	8b 45 88             	mov    -0x78(%ebp),%eax
    2fb4:	89 04 24             	mov    %eax,(%esp)
    2fb7:	e8 84 36 00 00       	call   6640 <surface_direct_access>
    2fbc:	83 c4 0c             	add    $0xc,%esp
    2fbf:	50                   	push   %eax
    2fc0:	8b 45 94             	mov    -0x6c(%ebp),%eax
    2fc3:	50                   	push   %eax
    2fc4:	8b 45 90             	mov    -0x70(%ebp),%eax
    2fc7:	56                   	push   %esi
    2fc8:	8b 75 08             	mov    0x8(%ebp),%esi
    2fcb:	57                   	push   %edi
    2fcc:	50                   	push   %eax
    2fcd:	8b 45 8c             	mov    -0x74(%ebp),%eax
    2fd0:	50                   	push   %eax
    2fd1:	8b 46 0c             	mov    0xc(%esi),%eax
    2fd4:	50                   	push   %eax
    2fd5:	e8 96 4f 00 00       	call   7f70 <win_resize@plt>
    2fda:	83 c4 20             	add    $0x20,%esp
    2fdd:	85 c0                	test   %eax,%eax
    2fdf:	0f 84 2b 03 00 00    	je     3310 <event_loop+0x500>
    2fe5:	8b 7d 98             	mov    -0x68(%ebp),%edi
    2fe8:	c7 45 b4 00 00 00 00 	movl   $0x0,-0x4c(%ebp)
    2fef:	c7 45 b8 00 00 00 00 	movl   $0x0,-0x48(%ebp)
    2ff6:	85 ff                	test   %edi,%edi
    2ff8:	74 12                	je     300c <event_loop+0x1fc>
    2ffa:	8d 45 b8             	lea    -0x48(%ebp),%eax
    2ffd:	52                   	push   %edx
    2ffe:	50                   	push   %eax
    2fff:	8d 45 b4             	lea    -0x4c(%ebp),%eax
    3002:	50                   	push   %eax
    3003:	57                   	push   %edi
    3004:	e8 57 36 00 00       	call   6660 <surface_get_resolution>
    3009:	83 c4 10             	add    $0x10,%esp
    300c:	83 ec 0c             	sub    $0xc,%esp
    300f:	8b 7d 9c             	mov    -0x64(%ebp),%edi
    3012:	57                   	push   %edi
    3013:	e8 58 51 00 00       	call   8170 <fibril_mutex_lock@plt>
    3018:	8b 45 08             	mov    0x8(%ebp),%eax
    301b:	8b 55 98             	mov    -0x68(%ebp),%edx
    301e:	8b b0 a4 00 00 00    	mov    0xa4(%eax),%esi
    3024:	89 90 a4 00 00 00    	mov    %edx,0xa4(%eax)
    302a:	89 3c 24             	mov    %edi,(%esp)
    302d:	e8 7e 4f 00 00       	call   7fb0 <fibril_mutex_unlock@plt>
    3032:	58                   	pop    %eax
    3033:	8b 45 b8             	mov    -0x48(%ebp),%eax
    3036:	50                   	push   %eax
    3037:	8b 45 b4             	mov    -0x4c(%ebp),%eax
    303a:	50                   	push   %eax
    303b:	8b 45 a0             	mov    -0x60(%ebp),%eax
    303e:	6a 00                	push   $0x0
    3040:	6a 00                	push   $0x0
    3042:	50                   	push   %eax
    3043:	8b 45 08             	mov    0x8(%ebp),%eax
    3046:	ff 50 7c             	call   *0x7c(%eax)
    3049:	8b 45 08             	mov    0x8(%ebp),%eax
    304c:	8b 80 a4 00 00 00    	mov    0xa4(%eax),%eax
    3052:	83 c4 20             	add    $0x20,%esp
    3055:	85 c0                	test   %eax,%eax
    3057:	74 24                	je     307d <event_loop+0x26d>
    3059:	83 ec 0c             	sub    $0xc,%esp
    305c:	57                   	push   %edi
    305d:	e8 0e 51 00 00       	call   8170 <fibril_mutex_lock@plt>
    3062:	8b 45 08             	mov    0x8(%ebp),%eax
    3065:	59                   	pop    %ecx
    3066:	8b 80 a4 00 00 00    	mov    0xa4(%eax),%eax
    306c:	50                   	push   %eax
    306d:	e8 4e 37 00 00       	call   67c0 <surface_reset_damaged_region>
    3072:	89 3c 24             	mov    %edi,(%esp)
    3075:	e8 36 4f 00 00       	call   7fb0 <fibril_mutex_unlock@plt>
    307a:	83 c4 10             	add    $0x10,%esp
    307d:	83 ec 0c             	sub    $0xc,%esp
    3080:	56                   	push   %esi
    3081:	e8 6a 35 00 00       	call   65f0 <surface_destroy>
    3086:	89 1c 24             	mov    %ebx,(%esp)
    3089:	e8 d2 50 00 00       	call   8160 <free@plt>
    308e:	83 c4 10             	add    $0x10,%esp
    3091:	e9 a2 fd ff ff       	jmp    2e38 <event_loop+0x28>
    3096:	66 90                	xchg   %ax,%ax
    3098:	8b 45 08             	mov    0x8(%ebp),%eax
    309b:	80 78 02 00          	cmpb   $0x0,0x2(%eax)
    309f:	0f 85 3b 02 00 00    	jne    32e0 <event_loop+0x4d0>
    30a5:	8d 76 00             	lea    0x0(%esi),%esi
    30a8:	83 ec 0c             	sub    $0xc,%esp
    30ab:	53                   	push   %ebx
    30ac:	e8 af 50 00 00       	call   8160 <free@plt>
    30b1:	83 c4 10             	add    $0x10,%esp
    30b4:	e9 7f fd ff ff       	jmp    2e38 <event_loop+0x28>
    30b9:	8d b4 26 00 00 00 00 	lea    0x0(%esi,%eiz,1),%esi
    30c0:	8b 45 08             	mov    0x8(%ebp),%eax
    30c3:	80 78 02 00          	cmpb   $0x0,0x2(%eax)
    30c7:	75 df                	jne    30a8 <event_loop+0x298>
    30c9:	c6 40 02 01          	movb   $0x1,0x2(%eax)
    30cd:	83 ec 0c             	sub    $0xc,%esp
    30d0:	8b 55 a0             	mov    -0x60(%ebp),%edx
    30d3:	52                   	push   %edx
    30d4:	ff 90 80 00 00 00    	call   *0x80(%eax)
    30da:	89 1c 24             	mov    %ebx,(%esp)
    30dd:	e8 7e 50 00 00       	call   8160 <free@plt>
    30e2:	83 c4 10             	add    $0x10,%esp
    30e5:	e9 4e fd ff ff       	jmp    2e38 <event_loop+0x28>
    30ea:	8d b6 00 00 00 00    	lea    0x0(%esi),%esi
    30f0:	8b 73 14             	mov    0x14(%ebx),%esi
    30f3:	50                   	push   %eax
    30f4:	50                   	push   %eax
    30f5:	56                   	push   %esi
    30f6:	8b 53 0c             	mov    0xc(%ebx),%edx
    30f9:	52                   	push   %edx
    30fa:	ff 53 10             	call   *0x10(%ebx)
    30fd:	89 34 24             	mov    %esi,(%esp)
    3100:	e8 5b 50 00 00       	call   8160 <free@plt>
    3105:	89 1c 24             	mov    %ebx,(%esp)
    3108:	e8 53 50 00 00       	call   8160 <free@plt>
    310d:	83 c4 10             	add    $0x10,%esp
    3110:	e9 23 fd ff ff       	jmp    2e38 <event_loop+0x28>
    3115:	8d 76 00             	lea    0x0(%esi),%esi
    3118:	8b 45 08             	mov    0x8(%ebp),%eax
    311b:	80 78 02 00          	cmpb   $0x0,0x2(%eax)
    311f:	0f 84 cb 01 00 00    	je     32f0 <event_loop+0x4e0>
    3125:	8b 43 14             	mov    0x14(%ebx),%eax
    3128:	8b 53 0c             	mov    0xc(%ebx),%edx
    312b:	89 45 98             	mov    %eax,-0x68(%ebp)
    312e:	89 45 c4             	mov    %eax,-0x3c(%ebp)
    3131:	8b 45 08             	mov    0x8(%ebp),%eax
    3134:	8b 4b 10             	mov    0x10(%ebx),%ecx
    3137:	8b 73 18             	mov    0x18(%ebx),%esi
    313a:	8b 7b 1c             	mov    0x1c(%ebx),%edi
    313d:	8b 80 8c 00 00 00    	mov    0x8c(%eax),%eax
    3143:	89 55 bc             	mov    %edx,-0x44(%ebp)
    3146:	89 4d c0             	mov    %ecx,-0x40(%ebp)
    3149:	89 75 c8             	mov    %esi,-0x38(%ebp)
    314c:	89 7d cc             	mov    %edi,-0x34(%ebp)
    314f:	85 c0                	test   %eax,%eax
    3151:	0f 84 11 02 00 00    	je     3368 <event_loop+0x558>
    3157:	83 ec 08             	sub    $0x8,%esp
    315a:	57                   	push   %edi
    315b:	56                   	push   %esi
    315c:	8b 75 98             	mov    -0x68(%ebp),%esi
    315f:	56                   	push   %esi
    3160:	51                   	push   %ecx
    3161:	52                   	push   %edx
    3162:	50                   	push   %eax
    3163:	ff 50 58             	call   *0x58(%eax)
    3166:	83 c4 14             	add    $0x14,%esp
    3169:	53                   	push   %ebx
    316a:	e8 f1 4f 00 00       	call   8160 <free@plt>
    316f:	83 c4 10             	add    $0x10,%esp
    3172:	e9 c1 fc ff ff       	jmp    2e38 <event_loop+0x28>
    3177:	90                   	nop
    3178:	8b 45 08             	mov    0x8(%ebp),%eax
    317b:	8b 75 a0             	mov    -0x60(%ebp),%esi
    317e:	0f b6 38             	movzbl (%eax),%edi
    3181:	89 f0                	mov    %esi,%eax
    3183:	e8 a8 fa ff ff       	call   2c30 <destroy_children>
    3188:	83 ec 0c             	sub    $0xc,%esp
    318b:	8b 45 08             	mov    0x8(%ebp),%eax
    318e:	56                   	push   %esi
    318f:	ff 50 74             	call   *0x74(%eax)
    3192:	8b 45 08             	mov    0x8(%ebp),%eax
    3195:	c7 80 8c 00 00 00 00 	movl   $0x0,0x8c(%eax)
    319c:	00 00 00 
    319f:	c7 80 90 00 00 00 00 	movl   $0x0,0x90(%eax)
    31a6:	00 00 00 
    31a9:	8b 40 0c             	mov    0xc(%eax),%eax
    31ac:	5e                   	pop    %esi
    31ad:	50                   	push   %eax
    31ae:	e8 fd 4e 00 00       	call   80b0 <win_close@plt>
    31b3:	58                   	pop    %eax
    31b4:	8b 45 08             	mov    0x8(%ebp),%eax
    31b7:	8b 40 08             	mov    0x8(%eax),%eax
    31ba:	50                   	push   %eax
    31bb:	e8 20 4d 00 00       	call   7ee0 <async_hangup@plt>
    31c0:	58                   	pop    %eax
    31c1:	8b 45 08             	mov    0x8(%ebp),%eax
    31c4:	8b 40 0c             	mov    0xc(%eax),%eax
    31c7:	50                   	push   %eax
    31c8:	e8 13 4d 00 00       	call   7ee0 <async_hangup@plt>
    31cd:	8b 45 08             	mov    0x8(%ebp),%eax
    31d0:	8b 75 08             	mov    0x8(%ebp),%esi
    31d3:	83 c6 28             	add    $0x28,%esi
    31d6:	83 c4 10             	add    $0x10,%esp
    31d9:	8b 40 2c             	mov    0x2c(%eax),%eax
    31dc:	39 c6                	cmp    %eax,%esi
    31de:	74 3f                	je     321f <event_loop+0x40f>
    31e0:	89 5d a4             	mov    %ebx,-0x5c(%ebp)
    31e3:	8b 5d 08             	mov    0x8(%ebp),%ebx
    31e6:	66 90                	xchg   %ax,%ax
    31e8:	8b 08                	mov    (%eax),%ecx
    31ea:	85 c9                	test   %ecx,%ecx
    31ec:	74 0e                	je     31fc <event_loop+0x3ec>
    31ee:	8b 50 04             	mov    0x4(%eax),%edx
    31f1:	85 d2                	test   %edx,%edx
    31f3:	74 07                	je     31fc <event_loop+0x3ec>
    31f5:	89 0a                	mov    %ecx,(%edx)
    31f7:	8b 08                	mov    (%eax),%ecx
    31f9:	89 51 04             	mov    %edx,0x4(%ecx)
    31fc:	83 ec 0c             	sub    $0xc,%esp
    31ff:	c7 00 00 00 00 00    	movl   $0x0,(%eax)
    3205:	c7 40 04 00 00 00 00 	movl   $0x0,0x4(%eax)
    320c:	50                   	push   %eax
    320d:	e8 4e 4f 00 00       	call   8160 <free@plt>
    3212:	8b 43 2c             	mov    0x2c(%ebx),%eax
    3215:	83 c4 10             	add    $0x10,%esp
    3218:	39 f0                	cmp    %esi,%eax
    321a:	75 cc                	jne    31e8 <event_loop+0x3d8>
    321c:	8b 5d a4             	mov    -0x5c(%ebp),%ebx
    321f:	8b 45 08             	mov    0x8(%ebp),%eax
    3222:	8b 80 a4 00 00 00    	mov    0xa4(%eax),%eax
    3228:	85 c0                	test   %eax,%eax
    322a:	74 0c                	je     3238 <event_loop+0x428>
    322c:	83 ec 0c             	sub    $0xc,%esp
    322f:	50                   	push   %eax
    3230:	e8 bb 33 00 00       	call   65f0 <surface_destroy>
    3235:	83 c4 10             	add    $0x10,%esp
    3238:	8b 45 08             	mov    0x8(%ebp),%eax
    323b:	83 ec 0c             	sub    $0xc,%esp
    323e:	8b 40 04             	mov    0x4(%eax),%eax
    3241:	50                   	push   %eax
    3242:	e8 19 4f 00 00       	call   8160 <free@plt>
    3247:	8b 4d 08             	mov    0x8(%ebp),%ecx
    324a:	5a                   	pop    %edx
    324b:	51                   	push   %ecx
    324c:	e8 0f 4f 00 00       	call   8160 <free@plt>
    3251:	89 1c 24             	mov    %ebx,(%esp)
    3254:	e8 07 4f 00 00       	call   8160 <free@plt>
    3259:	89 f8                	mov    %edi,%eax
    325b:	83 c4 10             	add    $0x10,%esp
    325e:	84 c0                	test   %al,%al
    3260:	0f 85 2a 01 00 00    	jne    3390 <event_loop+0x580>
    3266:	8d 65 f4             	lea    -0xc(%ebp),%esp
    3269:	31 c0                	xor    %eax,%eax
    326b:	5b                   	pop    %ebx
    326c:	5e                   	pop    %esi
    326d:	5f                   	pop    %edi
    326e:	5d                   	pop    %ebp
    326f:	c3                   	ret    
    3270:	8b 45 08             	mov    0x8(%ebp),%eax
    3273:	8d 55 d0             	lea    -0x30(%ebp),%edx
    3276:	8d 73 0c             	lea    0xc(%ebx),%esi
    3279:	b9 06 00 00 00       	mov    $0x6,%ecx
    327e:	89 d7                	mov    %edx,%edi
    3280:	8b 80 90 00 00 00    	mov    0x90(%eax),%eax
    3286:	f3 a5                	rep movsl %ds:(%esi),%es:(%edi)
    3288:	85 c0                	test   %eax,%eax
    328a:	0f 84 a8 00 00 00    	je     3338 <event_loop+0x528>
    3290:	83 ec 1c             	sub    $0x1c,%esp
    3293:	89 d6                	mov    %edx,%esi
    3295:	89 e7                	mov    %esp,%edi
    3297:	b9 06 00 00 00       	mov    $0x6,%ecx
    329c:	f3 a5                	rep movsl %ds:(%esi),%es:(%edi)
    329e:	50                   	push   %eax
    329f:	ff 50 54             	call   *0x54(%eax)
    32a2:	83 c4 14             	add    $0x14,%esp
    32a5:	53                   	push   %ebx
    32a6:	e8 b5 4e 00 00       	call   8160 <free@plt>
    32ab:	83 c4 10             	add    $0x10,%esp
    32ae:	e9 85 fb ff ff       	jmp    2e38 <event_loop+0x28>
    32b3:	90                   	nop
    32b4:	8d 74 26 00          	lea    0x0(%esi,%eiz,1),%esi
    32b8:	8b 45 08             	mov    0x8(%ebp),%eax
    32bb:	83 ec 0c             	sub    $0xc,%esp
    32be:	8b 40 0c             	mov    0xc(%eax),%eax
    32c1:	6a 00                	push   $0x0
    32c3:	6a 00                	push   $0x0
    32c5:	6a 00                	push   $0x0
    32c7:	6a 00                	push   $0x0
    32c9:	50                   	push   %eax
    32ca:	e8 c1 4d 00 00       	call   8090 <win_damage@plt>
    32cf:	83 c4 14             	add    $0x14,%esp
    32d2:	53                   	push   %ebx
    32d3:	e8 88 4e 00 00       	call   8160 <free@plt>
    32d8:	83 c4 10             	add    $0x10,%esp
    32db:	e9 58 fb ff ff       	jmp    2e38 <event_loop+0x28>
    32e0:	c6 40 02 00          	movb   $0x0,0x2(%eax)
    32e4:	e9 e4 fd ff ff       	jmp    30cd <event_loop+0x2bd>
    32e9:	8d b4 26 00 00 00 00 	lea    0x0(%esi,%eiz,1),%esi
    32f0:	83 ec 0c             	sub    $0xc,%esp
    32f3:	8b 7d a0             	mov    -0x60(%ebp),%edi
    32f6:	c6 40 02 01          	movb   $0x1,0x2(%eax)
    32fa:	57                   	push   %edi
    32fb:	ff 90 80 00 00 00    	call   *0x80(%eax)
    3301:	83 c4 10             	add    $0x10,%esp
    3304:	e9 1c fe ff ff       	jmp    3125 <event_loop+0x315>
    3309:	8d b4 26 00 00 00 00 	lea    0x0(%esi,%eiz,1),%esi
    3310:	8b 45 98             	mov    -0x68(%ebp),%eax
    3313:	85 c0                	test   %eax,%eax
    3315:	0f 84 8d fd ff ff    	je     30a8 <event_loop+0x298>
    331b:	83 ec 0c             	sub    $0xc,%esp
    331e:	50                   	push   %eax
    331f:	e8 cc 32 00 00       	call   65f0 <surface_destroy>
    3324:	89 1c 24             	mov    %ebx,(%esp)
    3327:	e8 34 4e 00 00       	call   8160 <free@plt>
    332c:	83 c4 10             	add    $0x10,%esp
    332f:	e9 04 fb ff ff       	jmp    2e38 <event_loop+0x28>
    3334:	8d 74 26 00          	lea    0x0(%esi,%eiz,1),%esi
    3338:	83 ec 1c             	sub    $0x1c,%esp
    333b:	89 d6                	mov    %edx,%esi
    333d:	89 e7                	mov    %esp,%edi
    333f:	b9 06 00 00 00       	mov    $0x6,%ecx
    3344:	f3 a5                	rep movsl %ds:(%esi),%es:(%edi)
    3346:	8b 45 a0             	mov    -0x60(%ebp),%eax
    3349:	50                   	push   %eax
    334a:	8b 45 08             	mov    0x8(%ebp),%eax
    334d:	ff 90 84 00 00 00    	call   *0x84(%eax)
    3353:	83 c4 14             	add    $0x14,%esp
    3356:	53                   	push   %ebx
    3357:	e8 04 4e 00 00       	call   8160 <free@plt>
    335c:	83 c4 10             	add    $0x10,%esp
    335f:	e9 d4 fa ff ff       	jmp    2e38 <event_loop+0x28>
    3364:	8d 74 26 00          	lea    0x0(%esi,%eiz,1),%esi
    3368:	50                   	push   %eax
    3369:	50                   	push   %eax
    336a:	8b 45 98             	mov    -0x68(%ebp),%eax
    336d:	57                   	push   %edi
    336e:	56                   	push   %esi
    336f:	50                   	push   %eax
    3370:	8b 45 a0             	mov    -0x60(%ebp),%eax
    3373:	51                   	push   %ecx
    3374:	52                   	push   %edx
    3375:	50                   	push   %eax
    3376:	8b 45 08             	mov    0x8(%ebp),%eax
    3379:	ff 90 88 00 00 00    	call   *0x88(%eax)
    337f:	83 c4 14             	add    $0x14,%esp
    3382:	53                   	push   %ebx
    3383:	e8 d8 4d 00 00       	call   8160 <free@plt>
    3388:	83 c4 10             	add    $0x10,%esp
    338b:	e9 a8 fa ff ff       	jmp    2e38 <event_loop+0x28>
    3390:	83 ec 0c             	sub    $0xc,%esp
    3393:	6a 00                	push   $0x0
    3395:	e8 36 4d 00 00       	call   80d0 <exit@plt>
    339a:	8d b6 00 00 00 00    	lea    0x0(%esi),%esi

000033a0 <root_repaint>:
    33a0:	55                   	push   %ebp
    33a1:	89 e5                	mov    %esp,%ebp
    33a3:	57                   	push   %edi
    33a4:	56                   	push   %esi
    33a5:	53                   	push   %ebx
    33a6:	83 ec 0c             	sub    $0xc,%esp
    33a9:	8b 7d 08             	mov    0x8(%ebp),%edi
    33ac:	8b 47 14             	mov    0x14(%edi),%eax
    33af:	80 78 01 00          	cmpb   $0x0,0x1(%eax)
    33b3:	75 2d                	jne    33e2 <root_repaint+0x42>
    33b5:	8b 5f 10             	mov    0x10(%edi),%ebx
    33b8:	8d 77 0c             	lea    0xc(%edi),%esi
    33bb:	39 de                	cmp    %ebx,%esi
    33bd:	74 1b                	je     33da <root_repaint+0x3a>
    33bf:	90                   	nop
    33c0:	83 ec 0c             	sub    $0xc,%esp
    33c3:	53                   	push   %ebx
    33c4:	ff 53 50             	call   *0x50(%ebx)
    33c7:	8b 5b 04             	mov    0x4(%ebx),%ebx
    33ca:	83 c4 10             	add    $0x10,%esp
    33cd:	39 f3                	cmp    %esi,%ebx
    33cf:	75 ef                	jne    33c0 <root_repaint+0x20>
    33d1:	8b 5f 14             	mov    0x14(%edi),%ebx
    33d4:	80 7b 01 00          	cmpb   $0x0,0x1(%ebx)
    33d8:	75 26                	jne    3400 <root_repaint+0x60>
    33da:	8d 65 f4             	lea    -0xc(%ebp),%esp
    33dd:	5b                   	pop    %ebx
    33de:	5e                   	pop    %esi
    33df:	5f                   	pop    %edi
    33e0:	5d                   	pop    %ebp
    33e1:	c3                   	ret    
    33e2:	89 f8                	mov    %edi,%eax
    33e4:	8d 77 0c             	lea    0xc(%edi),%esi
    33e7:	e8 24 f3 ff ff       	call   2710 <paint_internal>
    33ec:	8b 5f 10             	mov    0x10(%edi),%ebx
    33ef:	39 f3                	cmp    %esi,%ebx
    33f1:	75 cd                	jne    33c0 <root_repaint+0x20>
    33f3:	8b 5f 14             	mov    0x14(%edi),%ebx
    33f6:	80 7b 01 00          	cmpb   $0x0,0x1(%ebx)
    33fa:	74 de                	je     33da <root_repaint+0x3a>
    33fc:	8d 74 26 00          	lea    0x0(%esi,%eiz,1),%esi
    3400:	83 ec 0c             	sub    $0xc,%esp
    3403:	6a 24                	push   $0x24
    3405:	e8 26 4b 00 00       	call   7f30 <malloc@plt>
    340a:	83 c4 10             	add    $0x10,%esp
    340d:	85 c0                	test   %eax,%eax
    340f:	74 c9                	je     33da <root_repaint+0x3a>
    3411:	83 c3 10             	add    $0x10,%ebx
    3414:	c7 00 00 00 00 00    	movl   $0x0,(%eax)
    341a:	c7 40 04 00 00 00 00 	movl   $0x0,0x4(%eax)
    3421:	c7 40 08 07 00 00 00 	movl   $0x7,0x8(%eax)
    3428:	52                   	push   %edx
    3429:	52                   	push   %edx
    342a:	50                   	push   %eax
    342b:	53                   	push   %ebx
    342c:	e8 8f 4c 00 00       	call   80c0 <prodcons_produce@plt>
    3431:	83 c4 10             	add    $0x10,%esp
    3434:	8d 65 f4             	lea    -0xc(%ebp),%esp
    3437:	5b                   	pop    %ebx
    3438:	5e                   	pop    %esi
    3439:	5f                   	pop    %edi
    343a:	5d                   	pop    %ebp
    343b:	c3                   	ret    
    343c:	8d 74 26 00          	lea    0x0(%esi,%eiz,1),%esi

00003440 <window_open>:
    3440:	55                   	push   %ebp
    3441:	89 e5                	mov    %esp,%ebp
    3443:	57                   	push   %edi
    3444:	56                   	push   %esi
    3445:	53                   	push   %ebx
    3446:	83 ec 28             	sub    $0x28,%esp
    3449:	8b 75 10             	mov    0x10(%ebp),%esi
    344c:	68 a8 00 00 00       	push   $0xa8
    3451:	e8 da 4a 00 00       	call   7f30 <malloc@plt>
    3456:	83 c4 10             	add    $0x10,%esp
    3459:	89 c3                	mov    %eax,%ebx
    345b:	85 c0                	test   %eax,%eax
    345d:	0f 84 3b 01 00 00    	je     359e <window_open+0x15e>
    3463:	89 f0                	mov    %esi,%eax
    3465:	83 ec 0c             	sub    $0xc,%esp
    3468:	88 03                	mov    %al,(%ebx)
    346a:	89 f0                	mov    %esi,%eax
    346c:	80 23 01             	andb   $0x1,(%ebx)
    346f:	c6 43 02 01          	movb   $0x1,0x2(%ebx)
    3473:	d1 e8                	shr    %eax
    3475:	83 e0 01             	and    $0x1,%eax
    3478:	88 43 01             	mov    %al,0x1(%ebx)
    347b:	8d 43 10             	lea    0x10(%ebx),%eax
    347e:	50                   	push   %eax
    347f:	e8 6c 4b 00 00       	call   7ff0 <prodcons_initialize@plt>
    3484:	8d 83 94 00 00 00    	lea    0x94(%ebx),%eax
    348a:	89 04 24             	mov    %eax,(%esp)
    348d:	e8 3e 4b 00 00       	call   7fd0 <fibril_mutex_initialize@plt>
    3492:	83 c4 0c             	add    $0xc,%esp
    3495:	8b 45 0c             	mov    0xc(%ebp),%eax
    3498:	50                   	push   %eax
    3499:	8d 43 30             	lea    0x30(%ebx),%eax
    349c:	6a 00                	push   $0x0
    349e:	50                   	push   %eax
    349f:	e8 9c ed ff ff       	call   2240 <widget_init>
    34a4:	83 c4 0c             	add    $0xc,%esp
    34a7:	8d 45 dc             	lea    -0x24(%ebp),%eax
    34aa:	89 5b 44             	mov    %ebx,0x44(%ebx)
    34ad:	c7 43 74 80 26 00 00 	movl   $0x2680,0x74(%ebx)
    34b4:	c7 43 78 c0 2a 00 00 	movl   $0x2ac0,0x78(%ebx)
    34bb:	c7 43 7c 60 2b 00 00 	movl   $0x2b60,0x7c(%ebx)
    34c2:	c7 83 80 00 00 00 a0 	movl   $0x33a0,0x80(%ebx)
    34c9:	33 00 00 
    34cc:	c7 83 84 00 00 00 40 	movl   $0x2340,0x84(%ebx)
    34d3:	23 00 00 
    34d6:	c7 83 88 00 00 00 80 	movl   $0x2380,0x88(%ebx)
    34dd:	23 00 00 
    34e0:	c7 83 8c 00 00 00 00 	movl   $0x0,0x8c(%ebx)
    34e7:	00 00 00 
    34ea:	c7 83 90 00 00 00 00 	movl   $0x0,0x90(%ebx)
    34f1:	00 00 00 
    34f4:	c7 83 a4 00 00 00 00 	movl   $0x0,0xa4(%ebx)
    34fb:	00 00 00 
    34fe:	6a 00                	push   $0x0
    3500:	50                   	push   %eax
    3501:	8b 45 08             	mov    0x8(%ebp),%eax
    3504:	50                   	push   %eax
    3505:	e8 46 4a 00 00       	call   7f50 <loc_service_get_id@plt>
    350a:	83 c4 10             	add    $0x10,%esp
    350d:	85 c0                	test   %eax,%eax
    350f:	0f 85 93 00 00 00    	jne    35a8 <window_open+0x168>
    3515:	50                   	push   %eax
    3516:	8b 45 dc             	mov    -0x24(%ebp),%eax
    3519:	6a 00                	push   $0x0
    351b:	68 31 6e c3 e7       	push   $0xe7c36e31
    3520:	50                   	push   %eax
    3521:	e8 9a 49 00 00       	call   7ec0 <loc_service_connect@plt>
    3526:	83 c4 10             	add    $0x10,%esp
    3529:	89 c7                	mov    %eax,%edi
    352b:	85 c0                	test   %eax,%eax
    352d:	74 79                	je     35a8 <window_open+0x168>
    352f:	8d 45 e4             	lea    -0x1c(%ebp),%eax
    3532:	50                   	push   %eax
    3533:	8d 45 e0             	lea    -0x20(%ebp),%eax
    3536:	50                   	push   %eax
    3537:	56                   	push   %esi
    3538:	57                   	push   %edi
    3539:	e8 c2 4a 00 00       	call   8000 <win_register@plt>
    353e:	89 c6                	mov    %eax,%esi
    3540:	89 3c 24             	mov    %edi,(%esp)
    3543:	e8 98 49 00 00       	call   7ee0 <async_hangup@plt>
    3548:	83 c4 10             	add    $0x10,%esp
    354b:	85 f6                	test   %esi,%esi
    354d:	75 59                	jne    35a8 <window_open+0x168>
    354f:	50                   	push   %eax
    3550:	8b 45 e4             	mov    -0x1c(%ebp),%eax
    3553:	6a 00                	push   $0x0
    3555:	68 31 6e c3 e7       	push   $0xe7c36e31
    355a:	50                   	push   %eax
    355b:	e8 60 49 00 00       	call   7ec0 <loc_service_connect@plt>
    3560:	83 c4 10             	add    $0x10,%esp
    3563:	89 43 0c             	mov    %eax,0xc(%ebx)
    3566:	85 c0                	test   %eax,%eax
    3568:	74 3e                	je     35a8 <window_open+0x168>
    356a:	8b 7d e0             	mov    -0x20(%ebp),%edi
    356d:	56                   	push   %esi
    356e:	6a 00                	push   $0x0
    3570:	68 31 6e c3 e7       	push   $0xe7c36e31
    3575:	57                   	push   %edi
    3576:	e8 45 49 00 00       	call   7ec0 <loc_service_connect@plt>
    357b:	83 c4 10             	add    $0x10,%esp
    357e:	89 43 08             	mov    %eax,0x8(%ebx)
    3581:	85 c0                	test   %eax,%eax
    3583:	74 4c                	je     35d1 <window_open+0x191>
    3585:	8b 55 14             	mov    0x14(%ebp),%edx
    3588:	85 d2                	test   %edx,%edx
    358a:	74 34                	je     35c0 <window_open+0x180>
    358c:	83 ec 0c             	sub    $0xc,%esp
    358f:	8b 45 14             	mov    0x14(%ebp),%eax
    3592:	50                   	push   %eax
    3593:	e8 28 4a 00 00       	call   7fc0 <str_dup@plt>
    3598:	83 c4 10             	add    $0x10,%esp
    359b:	89 43 04             	mov    %eax,0x4(%ebx)
    359e:	8d 65 f4             	lea    -0xc(%ebp),%esp
    35a1:	89 d8                	mov    %ebx,%eax
    35a3:	5b                   	pop    %ebx
    35a4:	5e                   	pop    %esi
    35a5:	5f                   	pop    %edi
    35a6:	5d                   	pop    %ebp
    35a7:	c3                   	ret    
    35a8:	83 ec 0c             	sub    $0xc,%esp
    35ab:	53                   	push   %ebx
    35ac:	e8 af 4b 00 00       	call   8160 <free@plt>
    35b1:	83 c4 10             	add    $0x10,%esp
    35b4:	8d 65 f4             	lea    -0xc(%ebp),%esp
    35b7:	31 db                	xor    %ebx,%ebx
    35b9:	89 d8                	mov    %ebx,%eax
    35bb:	5b                   	pop    %ebx
    35bc:	5e                   	pop    %esi
    35bd:	5f                   	pop    %edi
    35be:	5d                   	pop    %ebp
    35bf:	c3                   	ret    
    35c0:	c7 43 04 00 00 00 00 	movl   $0x0,0x4(%ebx)
    35c7:	8d 65 f4             	lea    -0xc(%ebp),%esp
    35ca:	89 d8                	mov    %ebx,%eax
    35cc:	5b                   	pop    %ebx
    35cd:	5e                   	pop    %esi
    35ce:	5f                   	pop    %edi
    35cf:	5d                   	pop    %ebp
    35d0:	c3                   	ret    
    35d1:	83 ec 0c             	sub    $0xc,%esp
    35d4:	8b 4b 0c             	mov    0xc(%ebx),%ecx
    35d7:	51                   	push   %ecx
    35d8:	e8 03 49 00 00       	call   7ee0 <async_hangup@plt>
    35dd:	89 1c 24             	mov    %ebx,(%esp)
    35e0:	e8 7b 4b 00 00       	call   8160 <free@plt>
    35e5:	31 db                	xor    %ebx,%ebx
    35e7:	83 c4 10             	add    $0x10,%esp
    35ea:	eb b2                	jmp    359e <window_open+0x15e>
    35ec:	8d 74 26 00          	lea    0x0(%esi,%eiz,1),%esi

000035f0 <window_resize>:
    35f0:	55                   	push   %ebp
    35f1:	89 e5                	mov    %esp,%ebp
    35f3:	57                   	push   %edi
    35f4:	56                   	push   %esi
    35f5:	53                   	push   %ebx
    35f6:	83 ec 28             	sub    $0x28,%esp
    35f9:	8b 45 08             	mov    0x8(%ebp),%eax
    35fc:	8b 55 18             	mov    0x18(%ebp),%edx
    35ff:	8b 4d 1c             	mov    0x1c(%ebp),%ecx
    3602:	6a 24                	push   $0x24
    3604:	89 45 e4             	mov    %eax,-0x1c(%ebp)
    3607:	8b 7d 0c             	mov    0xc(%ebp),%edi
    360a:	8b 75 10             	mov    0x10(%ebp),%esi
    360d:	8b 5d 14             	mov    0x14(%ebp),%ebx
    3610:	89 55 e0             	mov    %edx,-0x20(%ebp)
    3613:	89 4d dc             	mov    %ecx,-0x24(%ebp)
    3616:	e8 15 49 00 00       	call   7f30 <malloc@plt>
    361b:	83 c4 10             	add    $0x10,%esp
    361e:	85 c0                	test   %eax,%eax
    3620:	74 46                	je     3668 <window_resize+0x78>
    3622:	8b 55 e0             	mov    -0x20(%ebp),%edx
    3625:	8b 4d dc             	mov    -0x24(%ebp),%ecx
    3628:	c7 00 00 00 00 00    	movl   $0x0,(%eax)
    362e:	c7 40 04 00 00 00 00 	movl   $0x0,0x4(%eax)
    3635:	c7 40 08 05 00 00 00 	movl   $0x5,0x8(%eax)
    363c:	89 78 0c             	mov    %edi,0xc(%eax)
    363f:	89 70 10             	mov    %esi,0x10(%eax)
    3642:	89 58 14             	mov    %ebx,0x14(%eax)
    3645:	89 50 18             	mov    %edx,0x18(%eax)
    3648:	89 48 1c             	mov    %ecx,0x1c(%eax)
    364b:	89 45 0c             	mov    %eax,0xc(%ebp)
    364e:	8b 45 e4             	mov    -0x1c(%ebp),%eax
    3651:	83 c0 10             	add    $0x10,%eax
    3654:	89 45 08             	mov    %eax,0x8(%ebp)
    3657:	8d 65 f4             	lea    -0xc(%ebp),%esp
    365a:	5b                   	pop    %ebx
    365b:	5e                   	pop    %esi
    365c:	5f                   	pop    %edi
    365d:	5d                   	pop    %ebp
    365e:	e9 5d 4a 00 00       	jmp    80c0 <prodcons_produce@plt>
    3663:	90                   	nop
    3664:	8d 74 26 00          	lea    0x0(%esi,%eiz,1),%esi
    3668:	8d 65 f4             	lea    -0xc(%ebp),%esp
    366b:	5b                   	pop    %ebx
    366c:	5e                   	pop    %esi
    366d:	5f                   	pop    %edi
    366e:	5d                   	pop    %ebp
    366f:	c3                   	ret    

00003670 <window_refresh>:
    3670:	55                   	push   %ebp
    3671:	89 e5                	mov    %esp,%ebp
    3673:	83 ec 14             	sub    $0x14,%esp
    3676:	6a 24                	push   $0x24
    3678:	e8 b3 48 00 00       	call   7f30 <malloc@plt>
    367d:	83 c4 10             	add    $0x10,%esp
    3680:	85 c0                	test   %eax,%eax
    3682:	74 26                	je     36aa <window_refresh+0x3a>
    3684:	c7 00 00 00 00 00    	movl   $0x0,(%eax)
    368a:	c7 40 04 00 00 00 00 	movl   $0x0,0x4(%eax)
    3691:	c7 40 08 06 00 00 00 	movl   $0x6,0x8(%eax)
    3698:	52                   	push   %edx
    3699:	52                   	push   %edx
    369a:	50                   	push   %eax
    369b:	8b 45 08             	mov    0x8(%ebp),%eax
    369e:	83 c0 10             	add    $0x10,%eax
    36a1:	50                   	push   %eax
    36a2:	e8 19 4a 00 00       	call   80c0 <prodcons_produce@plt>
    36a7:	83 c4 10             	add    $0x10,%esp
    36aa:	c9                   	leave  
    36ab:	c3                   	ret    
    36ac:	8d 74 26 00          	lea    0x0(%esi,%eiz,1),%esi

000036b0 <window_damage>:
    36b0:	55                   	push   %ebp
    36b1:	89 e5                	mov    %esp,%ebp
    36b3:	83 ec 14             	sub    $0x14,%esp
    36b6:	6a 24                	push   $0x24
    36b8:	e8 73 48 00 00       	call   7f30 <malloc@plt>
    36bd:	83 c4 10             	add    $0x10,%esp
    36c0:	85 c0                	test   %eax,%eax
    36c2:	74 26                	je     36ea <window_damage+0x3a>
    36c4:	c7 00 00 00 00 00    	movl   $0x0,(%eax)
    36ca:	c7 40 04 00 00 00 00 	movl   $0x0,0x4(%eax)
    36d1:	c7 40 08 07 00 00 00 	movl   $0x7,0x8(%eax)
    36d8:	52                   	push   %edx
    36d9:	52                   	push   %edx
    36da:	50                   	push   %eax
    36db:	8b 45 08             	mov    0x8(%ebp),%eax
    36de:	83 c0 10             	add    $0x10,%eax
    36e1:	50                   	push   %eax
    36e2:	e8 d9 49 00 00       	call   80c0 <prodcons_produce@plt>
    36e7:	83 c4 10             	add    $0x10,%esp
    36ea:	c9                   	leave  
    36eb:	c3                   	ret    
    36ec:	8d 74 26 00          	lea    0x0(%esi,%eiz,1),%esi

000036f0 <window_root>:
    36f0:	55                   	push   %ebp
    36f1:	89 e5                	mov    %esp,%ebp
    36f3:	8b 45 08             	mov    0x8(%ebp),%eax
    36f6:	5d                   	pop    %ebp
    36f7:	83 c0 30             	add    $0x30,%eax
    36fa:	c3                   	ret    
    36fb:	90                   	nop
    36fc:	8d 74 26 00          	lea    0x0(%esi,%eiz,1),%esi

00003700 <window_exec>:
    3700:	55                   	push   %ebp
    3701:	89 e5                	mov    %esp,%ebp
    3703:	56                   	push   %esi
    3704:	53                   	push   %ebx
    3705:	83 ec 14             	sub    $0x14,%esp
    3708:	8b 5d 08             	mov    0x8(%ebp),%ebx
    370b:	6a 00                	push   $0x0
    370d:	53                   	push   %ebx
    370e:	68 10 2e 00 00       	push   $0x2e10
    3713:	e8 c8 49 00 00       	call   80e0 <fibril_create_generic@plt>
    3718:	83 c4 0c             	add    $0xc,%esp
    371b:	89 c6                	mov    %eax,%esi
    371d:	6a 00                	push   $0x0
    371f:	53                   	push   %ebx
    3720:	68 90 26 00 00       	push   $0x2690
    3725:	e8 b6 49 00 00       	call   80e0 <fibril_create_generic@plt>
    372a:	83 c4 10             	add    $0x10,%esp
    372d:	85 f6                	test   %esi,%esi
    372f:	74 27                	je     3758 <window_exec+0x58>
    3731:	85 c0                	test   %eax,%eax
    3733:	89 45 f4             	mov    %eax,-0xc(%ebp)
    3736:	74 20                	je     3758 <window_exec+0x58>
    3738:	83 ec 0c             	sub    $0xc,%esp
    373b:	56                   	push   %esi
    373c:	e8 af 49 00 00       	call   80f0 <fibril_add_ready@plt>
    3741:	8b 45 f4             	mov    -0xc(%ebp),%eax
    3744:	83 c4 10             	add    $0x10,%esp
    3747:	89 45 08             	mov    %eax,0x8(%ebp)
    374a:	8d 65 f8             	lea    -0x8(%ebp),%esp
    374d:	5b                   	pop    %ebx
    374e:	5e                   	pop    %esi
    374f:	5d                   	pop    %ebp
    3750:	e9 9b 49 00 00       	jmp    80f0 <fibril_add_ready@plt>
    3755:	8d 76 00             	lea    0x0(%esi),%esi
    3758:	8d 65 f8             	lea    -0x8(%ebp),%esp
    375b:	5b                   	pop    %ebx
    375c:	5e                   	pop    %esi
    375d:	5d                   	pop    %ebp
    375e:	c3                   	ret    
    375f:	90                   	nop

00003760 <window_claim>:
    3760:	55                   	push   %ebp
    3761:	89 e5                	mov    %esp,%ebp
    3763:	53                   	push   %ebx
    3764:	83 ec 10             	sub    $0x10,%esp
    3767:	8b 5d 08             	mov    0x8(%ebp),%ebx
    376a:	8d 83 94 00 00 00    	lea    0x94(%ebx),%eax
    3770:	50                   	push   %eax
    3771:	e8 fa 49 00 00       	call   8170 <fibril_mutex_lock@plt>
    3776:	8b 83 a4 00 00 00    	mov    0xa4(%ebx),%eax
    377c:	8b 5d fc             	mov    -0x4(%ebp),%ebx
    377f:	c9                   	leave  
    3780:	c3                   	ret    
    3781:	eb 0d                	jmp    3790 <window_yield>
    3783:	90                   	nop
    3784:	90                   	nop
    3785:	90                   	nop
    3786:	90                   	nop
    3787:	90                   	nop
    3788:	90                   	nop
    3789:	90                   	nop
    378a:	90                   	nop
    378b:	90                   	nop
    378c:	90                   	nop
    378d:	90                   	nop
    378e:	90                   	nop
    378f:	90                   	nop

00003790 <window_yield>:
    3790:	55                   	push   %ebp
    3791:	89 e5                	mov    %esp,%ebp
    3793:	8b 45 08             	mov    0x8(%ebp),%eax
    3796:	05 94 00 00 00       	add    $0x94,%eax
    379b:	89 45 08             	mov    %eax,0x8(%ebp)
    379e:	5d                   	pop    %ebp
    379f:	e9 0c 48 00 00       	jmp    7fb0 <fibril_mutex_unlock@plt>
    37a4:	8d b6 00 00 00 00    	lea    0x0(%esi),%esi
    37aa:	8d bf 00 00 00 00    	lea    0x0(%edi),%edi

000037b0 <window_close>:
    37b0:	55                   	push   %ebp
    37b1:	89 e5                	mov    %esp,%ebp
    37b3:	8b 45 08             	mov    0x8(%ebp),%eax
    37b6:	8b 40 0c             	mov    0xc(%eax),%eax
    37b9:	89 45 08             	mov    %eax,0x8(%ebp)
    37bc:	5d                   	pop    %ebp
    37bd:	e9 8e 49 00 00       	jmp    8150 <win_close_request@plt>
    37c2:	66 90                	xchg   %ax,%ax
    37c4:	66 90                	xchg   %ax,%ax
    37c6:	66 90                	xchg   %ax,%ax
    37c8:	66 90                	xchg   %ax,%ax
    37ca:	66 90                	xchg   %ax,%ax
    37cc:	66 90                	xchg   %ax,%ax
    37ce:	66 90                	xchg   %ax,%ax

000037d0 <draw_icon_cross>:
    37d0:	55                   	push   %ebp
    37d1:	31 c0                	xor    %eax,%eax
    37d3:	89 e5                	mov    %esp,%ebp
    37d5:	57                   	push   %edi
    37d6:	56                   	push   %esi
    37d7:	53                   	push   %ebx
    37d8:	83 ec 1c             	sub    $0x1c,%esp
    37db:	31 f6                	xor    %esi,%esi
    37dd:	8b 5d 18             	mov    0x18(%ebp),%ebx
    37e0:	c6 45 e7 00          	movb   $0x0,-0x19(%ebp)
    37e4:	bf 02 00 00 00       	mov    $0x2,%edi
    37e9:	8d b4 26 00 00 00 00 	lea    0x0(%esi,%eiz,1),%esi
    37f0:	89 f2                	mov    %esi,%edx
    37f2:	89 d9                	mov    %ebx,%ecx
    37f4:	83 e2 02             	and    $0x2,%edx
    37f7:	a8 02                	test   $0x2,%al
    37f9:	74 03                	je     37fe <draw_icon_cross+0x2e>
    37fb:	8b 4d 14             	mov    0x14(%ebp),%ecx
    37fe:	84 d2                	test   %dl,%dl
    3800:	0f 85 3a 03 00 00    	jne    3b40 <draw_icon_cross+0x370>
    3806:	89 f2                	mov    %esi,%edx
    3808:	89 d9                	mov    %ebx,%ecx
    380a:	83 e2 04             	and    $0x4,%edx
    380d:	a8 04                	test   $0x4,%al
    380f:	74 03                	je     3814 <draw_icon_cross+0x44>
    3811:	8b 4d 14             	mov    0x14(%ebp),%ecx
    3814:	84 d2                	test   %dl,%dl
    3816:	0f 85 fc 02 00 00    	jne    3b18 <draw_icon_cross+0x348>
    381c:	89 f2                	mov    %esi,%edx
    381e:	89 d9                	mov    %ebx,%ecx
    3820:	83 e2 08             	and    $0x8,%edx
    3823:	a8 08                	test   $0x8,%al
    3825:	74 03                	je     382a <draw_icon_cross+0x5a>
    3827:	8b 4d 14             	mov    0x14(%ebp),%ecx
    382a:	84 d2                	test   %dl,%dl
    382c:	0f 85 be 02 00 00    	jne    3af0 <draw_icon_cross+0x320>
    3832:	89 f2                	mov    %esi,%edx
    3834:	89 d9                	mov    %ebx,%ecx
    3836:	83 e2 10             	and    $0x10,%edx
    3839:	a8 10                	test   $0x10,%al
    383b:	74 03                	je     3840 <draw_icon_cross+0x70>
    383d:	8b 4d 14             	mov    0x14(%ebp),%ecx
    3840:	84 d2                	test   %dl,%dl
    3842:	0f 85 80 02 00 00    	jne    3ac8 <draw_icon_cross+0x2f8>
    3848:	89 f2                	mov    %esi,%edx
    384a:	89 d9                	mov    %ebx,%ecx
    384c:	83 e2 20             	and    $0x20,%edx
    384f:	a8 20                	test   $0x20,%al
    3851:	74 03                	je     3856 <draw_icon_cross+0x86>
    3853:	8b 4d 14             	mov    0x14(%ebp),%ecx
    3856:	84 d2                	test   %dl,%dl
    3858:	0f 85 42 02 00 00    	jne    3aa0 <draw_icon_cross+0x2d0>
    385e:	89 f2                	mov    %esi,%edx
    3860:	8b 4d 14             	mov    0x14(%ebp),%ecx
    3863:	83 e2 40             	and    $0x40,%edx
    3866:	a8 40                	test   $0x40,%al
    3868:	75 02                	jne    386c <draw_icon_cross+0x9c>
    386a:	89 d9                	mov    %ebx,%ecx
    386c:	84 d2                	test   %dl,%dl
    386e:	0f 85 0c 02 00 00    	jne    3a80 <draw_icon_cross+0x2b0>
    3874:	8b 45 14             	mov    0x14(%ebp),%eax
    3877:	80 7d e7 00          	cmpb   $0x0,-0x19(%ebp)
    387b:	78 02                	js     387f <draw_icon_cross+0xaf>
    387d:	89 d8                	mov    %ebx,%eax
    387f:	89 f1                	mov    %esi,%ecx
    3881:	84 c9                	test   %cl,%cl
    3883:	0f 88 d7 01 00 00    	js     3a60 <draw_icon_cross+0x290>
    3889:	0f b6 b7 43 7c 00 00 	movzbl 0x7c43(%edi),%esi
    3890:	8a 87 5f 7c 00 00    	mov    0x7c5f(%edi),%al
    3896:	89 f2                	mov    %esi,%edx
    3898:	83 e2 01             	and    $0x1,%edx
    389b:	8b 4d 14             	mov    0x14(%ebp),%ecx
    389e:	a8 01                	test   $0x1,%al
    38a0:	75 02                	jne    38a4 <draw_icon_cross+0xd4>
    38a2:	89 d9                	mov    %ebx,%ecx
    38a4:	84 d2                	test   %dl,%dl
    38a6:	0f 85 8c 01 00 00    	jne    3a38 <draw_icon_cross+0x268>
    38ac:	89 f2                	mov    %esi,%edx
    38ae:	89 d9                	mov    %ebx,%ecx
    38b0:	83 e2 02             	and    $0x2,%edx
    38b3:	a8 02                	test   $0x2,%al
    38b5:	74 03                	je     38ba <draw_icon_cross+0xea>
    38b7:	8b 4d 14             	mov    0x14(%ebp),%ecx
    38ba:	84 d2                	test   %dl,%dl
    38bc:	0f 85 4e 01 00 00    	jne    3a10 <draw_icon_cross+0x240>
    38c2:	89 f2                	mov    %esi,%edx
    38c4:	89 d9                	mov    %ebx,%ecx
    38c6:	83 e2 04             	and    $0x4,%edx
    38c9:	a8 04                	test   $0x4,%al
    38cb:	74 03                	je     38d0 <draw_icon_cross+0x100>
    38cd:	8b 4d 14             	mov    0x14(%ebp),%ecx
    38d0:	84 d2                	test   %dl,%dl
    38d2:	0f 85 10 01 00 00    	jne    39e8 <draw_icon_cross+0x218>
    38d8:	89 f2                	mov    %esi,%edx
    38da:	89 d9                	mov    %ebx,%ecx
    38dc:	83 e2 08             	and    $0x8,%edx
    38df:	a8 08                	test   $0x8,%al
    38e1:	74 03                	je     38e6 <draw_icon_cross+0x116>
    38e3:	8b 4d 14             	mov    0x14(%ebp),%ecx
    38e6:	84 d2                	test   %dl,%dl
    38e8:	0f 85 d2 00 00 00    	jne    39c0 <draw_icon_cross+0x1f0>
    38ee:	89 f2                	mov    %esi,%edx
    38f0:	89 d9                	mov    %ebx,%ecx
    38f2:	83 e2 10             	and    $0x10,%edx
    38f5:	a8 10                	test   $0x10,%al
    38f7:	74 03                	je     38fc <draw_icon_cross+0x12c>
    38f9:	8b 4d 14             	mov    0x14(%ebp),%ecx
    38fc:	84 d2                	test   %dl,%dl
    38fe:	0f 85 94 00 00 00    	jne    3998 <draw_icon_cross+0x1c8>
    3904:	89 f2                	mov    %esi,%edx
    3906:	8b 4d 14             	mov    0x14(%ebp),%ecx
    3909:	83 e2 20             	and    $0x20,%edx
    390c:	a8 20                	test   $0x20,%al
    390e:	75 02                	jne    3912 <draw_icon_cross+0x142>
    3910:	89 d9                	mov    %ebx,%ecx
    3912:	84 d2                	test   %dl,%dl
    3914:	75 5a                	jne    3970 <draw_icon_cross+0x1a0>
    3916:	83 ff 1c             	cmp    $0x1c,%edi
    3919:	74 72                	je     398d <draw_icon_cross+0x1bd>
    391b:	0f b6 b7 44 7c 00 00 	movzbl 0x7c44(%edi),%esi
    3922:	8a 87 60 7c 00 00    	mov    0x7c60(%edi),%al
    3928:	89 f2                	mov    %esi,%edx
    392a:	88 c1                	mov    %al,%cl
    392c:	88 45 e7             	mov    %al,-0x19(%ebp)
    392f:	31 c0                	xor    %eax,%eax
    3931:	83 e2 01             	and    $0x1,%edx
    3934:	88 c8                	mov    %cl,%al
    3936:	f6 45 e7 01          	testb  $0x1,-0x19(%ebp)
    393a:	89 d9                	mov    %ebx,%ecx
    393c:	74 03                	je     3941 <draw_icon_cross+0x171>
    393e:	8b 4d 14             	mov    0x14(%ebp),%ecx
    3941:	83 c7 02             	add    $0x2,%edi
    3944:	ff 45 10             	incl   0x10(%ebp)
    3947:	84 d2                	test   %dl,%dl
    3949:	0f 84 a1 fe ff ff    	je     37f0 <draw_icon_cross+0x20>
    394f:	51                   	push   %ecx
    3950:	89 45 e0             	mov    %eax,-0x20(%ebp)
    3953:	8b 4d 10             	mov    0x10(%ebp),%ecx
    3956:	8b 45 0c             	mov    0xc(%ebp),%eax
    3959:	51                   	push   %ecx
    395a:	50                   	push   %eax
    395b:	8b 45 08             	mov    0x8(%ebp),%eax
    395e:	50                   	push   %eax
    395f:	e8 8c 2e 00 00       	call   67f0 <surface_put_pixel>
    3964:	83 c4 10             	add    $0x10,%esp
    3967:	8b 45 e0             	mov    -0x20(%ebp),%eax
    396a:	e9 81 fe ff ff       	jmp    37f0 <draw_icon_cross+0x20>
    396f:	90                   	nop
    3970:	8b 45 10             	mov    0x10(%ebp),%eax
    3973:	51                   	push   %ecx
    3974:	50                   	push   %eax
    3975:	8b 45 0c             	mov    0xc(%ebp),%eax
    3978:	83 c0 0d             	add    $0xd,%eax
    397b:	8b 55 08             	mov    0x8(%ebp),%edx
    397e:	50                   	push   %eax
    397f:	52                   	push   %edx
    3980:	e8 6b 2e 00 00       	call   67f0 <surface_put_pixel>
    3985:	83 c4 10             	add    $0x10,%esp
    3988:	83 ff 1c             	cmp    $0x1c,%edi
    398b:	75 8e                	jne    391b <draw_icon_cross+0x14b>
    398d:	8d 65 f4             	lea    -0xc(%ebp),%esp
    3990:	5b                   	pop    %ebx
    3991:	5e                   	pop    %esi
    3992:	5f                   	pop    %edi
    3993:	5d                   	pop    %ebp
    3994:	c3                   	ret    
    3995:	8d 76 00             	lea    0x0(%esi),%esi
    3998:	88 45 e7             	mov    %al,-0x19(%ebp)
    399b:	8b 45 0c             	mov    0xc(%ebp),%eax
    399e:	51                   	push   %ecx
    399f:	8b 4d 10             	mov    0x10(%ebp),%ecx
    39a2:	8d 50 0c             	lea    0xc(%eax),%edx
    39a5:	8b 45 08             	mov    0x8(%ebp),%eax
    39a8:	51                   	push   %ecx
    39a9:	52                   	push   %edx
    39aa:	50                   	push   %eax
    39ab:	e8 40 2e 00 00       	call   67f0 <surface_put_pixel>
    39b0:	83 c4 10             	add    $0x10,%esp
    39b3:	8a 45 e7             	mov    -0x19(%ebp),%al
    39b6:	e9 49 ff ff ff       	jmp    3904 <draw_icon_cross+0x134>
    39bb:	90                   	nop
    39bc:	8d 74 26 00          	lea    0x0(%esi,%eiz,1),%esi
    39c0:	88 45 e7             	mov    %al,-0x19(%ebp)
    39c3:	8b 45 10             	mov    0x10(%ebp),%eax
    39c6:	51                   	push   %ecx
    39c7:	50                   	push   %eax
    39c8:	8b 45 0c             	mov    0xc(%ebp),%eax
    39cb:	8d 50 0b             	lea    0xb(%eax),%edx
    39ce:	8b 45 08             	mov    0x8(%ebp),%eax
    39d1:	52                   	push   %edx
    39d2:	50                   	push   %eax
    39d3:	e8 18 2e 00 00       	call   67f0 <surface_put_pixel>
    39d8:	83 c4 10             	add    $0x10,%esp
    39db:	8a 45 e7             	mov    -0x19(%ebp),%al
    39de:	e9 0b ff ff ff       	jmp    38ee <draw_icon_cross+0x11e>
    39e3:	90                   	nop
    39e4:	8d 74 26 00          	lea    0x0(%esi,%eiz,1),%esi
    39e8:	88 45 e7             	mov    %al,-0x19(%ebp)
    39eb:	8b 45 10             	mov    0x10(%ebp),%eax
    39ee:	51                   	push   %ecx
    39ef:	50                   	push   %eax
    39f0:	8b 45 0c             	mov    0xc(%ebp),%eax
    39f3:	8d 50 0a             	lea    0xa(%eax),%edx
    39f6:	8b 45 08             	mov    0x8(%ebp),%eax
    39f9:	52                   	push   %edx
    39fa:	50                   	push   %eax
    39fb:	e8 f0 2d 00 00       	call   67f0 <surface_put_pixel>
    3a00:	83 c4 10             	add    $0x10,%esp
    3a03:	8a 45 e7             	mov    -0x19(%ebp),%al
    3a06:	e9 cd fe ff ff       	jmp    38d8 <draw_icon_cross+0x108>
    3a0b:	90                   	nop
    3a0c:	8d 74 26 00          	lea    0x0(%esi,%eiz,1),%esi
    3a10:	88 45 e7             	mov    %al,-0x19(%ebp)
    3a13:	8b 45 10             	mov    0x10(%ebp),%eax
    3a16:	51                   	push   %ecx
    3a17:	50                   	push   %eax
    3a18:	8b 45 0c             	mov    0xc(%ebp),%eax
    3a1b:	8d 50 09             	lea    0x9(%eax),%edx
    3a1e:	52                   	push   %edx
    3a1f:	8b 55 08             	mov    0x8(%ebp),%edx
    3a22:	52                   	push   %edx
    3a23:	e8 c8 2d 00 00       	call   67f0 <surface_put_pixel>
    3a28:	83 c4 10             	add    $0x10,%esp
    3a2b:	8a 45 e7             	mov    -0x19(%ebp),%al
    3a2e:	e9 8f fe ff ff       	jmp    38c2 <draw_icon_cross+0xf2>
    3a33:	90                   	nop
    3a34:	8d 74 26 00          	lea    0x0(%esi,%eiz,1),%esi
    3a38:	88 45 e7             	mov    %al,-0x19(%ebp)
    3a3b:	8b 45 0c             	mov    0xc(%ebp),%eax
    3a3e:	51                   	push   %ecx
    3a3f:	8b 4d 10             	mov    0x10(%ebp),%ecx
    3a42:	8d 50 08             	lea    0x8(%eax),%edx
    3a45:	8b 45 08             	mov    0x8(%ebp),%eax
    3a48:	51                   	push   %ecx
    3a49:	52                   	push   %edx
    3a4a:	50                   	push   %eax
    3a4b:	e8 a0 2d 00 00       	call   67f0 <surface_put_pixel>
    3a50:	83 c4 10             	add    $0x10,%esp
    3a53:	8a 45 e7             	mov    -0x19(%ebp),%al
    3a56:	e9 51 fe ff ff       	jmp    38ac <draw_icon_cross+0xdc>
    3a5b:	90                   	nop
    3a5c:	8d 74 26 00          	lea    0x0(%esi,%eiz,1),%esi
    3a60:	50                   	push   %eax
    3a61:	8b 45 10             	mov    0x10(%ebp),%eax
    3a64:	50                   	push   %eax
    3a65:	8b 45 0c             	mov    0xc(%ebp),%eax
    3a68:	83 c0 07             	add    $0x7,%eax
    3a6b:	50                   	push   %eax
    3a6c:	8b 45 08             	mov    0x8(%ebp),%eax
    3a6f:	50                   	push   %eax
    3a70:	e8 7b 2d 00 00       	call   67f0 <surface_put_pixel>
    3a75:	83 c4 10             	add    $0x10,%esp
    3a78:	e9 0c fe ff ff       	jmp    3889 <draw_icon_cross+0xb9>
    3a7d:	8d 76 00             	lea    0x0(%esi),%esi
    3a80:	8b 45 10             	mov    0x10(%ebp),%eax
    3a83:	51                   	push   %ecx
    3a84:	50                   	push   %eax
    3a85:	8b 45 0c             	mov    0xc(%ebp),%eax
    3a88:	83 c0 06             	add    $0x6,%eax
    3a8b:	50                   	push   %eax
    3a8c:	8b 45 08             	mov    0x8(%ebp),%eax
    3a8f:	50                   	push   %eax
    3a90:	e8 5b 2d 00 00       	call   67f0 <surface_put_pixel>
    3a95:	83 c4 10             	add    $0x10,%esp
    3a98:	e9 d7 fd ff ff       	jmp    3874 <draw_icon_cross+0xa4>
    3a9d:	8d 76 00             	lea    0x0(%esi),%esi
    3aa0:	89 45 e0             	mov    %eax,-0x20(%ebp)
    3aa3:	8b 45 10             	mov    0x10(%ebp),%eax
    3aa6:	51                   	push   %ecx
    3aa7:	50                   	push   %eax
    3aa8:	8b 45 0c             	mov    0xc(%ebp),%eax
    3aab:	8d 50 05             	lea    0x5(%eax),%edx
    3aae:	52                   	push   %edx
    3aaf:	8b 55 08             	mov    0x8(%ebp),%edx
    3ab2:	52                   	push   %edx
    3ab3:	e8 38 2d 00 00       	call   67f0 <surface_put_pixel>
    3ab8:	83 c4 10             	add    $0x10,%esp
    3abb:	8b 45 e0             	mov    -0x20(%ebp),%eax
    3abe:	e9 9b fd ff ff       	jmp    385e <draw_icon_cross+0x8e>
    3ac3:	90                   	nop
    3ac4:	8d 74 26 00          	lea    0x0(%esi,%eiz,1),%esi
    3ac8:	89 45 e0             	mov    %eax,-0x20(%ebp)
    3acb:	8b 45 0c             	mov    0xc(%ebp),%eax
    3ace:	51                   	push   %ecx
    3acf:	8b 4d 10             	mov    0x10(%ebp),%ecx
    3ad2:	8d 50 04             	lea    0x4(%eax),%edx
    3ad5:	8b 45 08             	mov    0x8(%ebp),%eax
    3ad8:	51                   	push   %ecx
    3ad9:	52                   	push   %edx
    3ada:	50                   	push   %eax
    3adb:	e8 10 2d 00 00       	call   67f0 <surface_put_pixel>
    3ae0:	83 c4 10             	add    $0x10,%esp
    3ae3:	8b 45 e0             	mov    -0x20(%ebp),%eax
    3ae6:	e9 5d fd ff ff       	jmp    3848 <draw_icon_cross+0x78>
    3aeb:	90                   	nop
    3aec:	8d 74 26 00          	lea    0x0(%esi,%eiz,1),%esi
    3af0:	89 45 e0             	mov    %eax,-0x20(%ebp)
    3af3:	8b 45 10             	mov    0x10(%ebp),%eax
    3af6:	51                   	push   %ecx
    3af7:	50                   	push   %eax
    3af8:	8b 45 0c             	mov    0xc(%ebp),%eax
    3afb:	8d 50 03             	lea    0x3(%eax),%edx
    3afe:	8b 45 08             	mov    0x8(%ebp),%eax
    3b01:	52                   	push   %edx
    3b02:	50                   	push   %eax
    3b03:	e8 e8 2c 00 00       	call   67f0 <surface_put_pixel>
    3b08:	83 c4 10             	add    $0x10,%esp
    3b0b:	8b 45 e0             	mov    -0x20(%ebp),%eax
    3b0e:	e9 1f fd ff ff       	jmp    3832 <draw_icon_cross+0x62>
    3b13:	90                   	nop
    3b14:	8d 74 26 00          	lea    0x0(%esi,%eiz,1),%esi
    3b18:	89 45 e0             	mov    %eax,-0x20(%ebp)
    3b1b:	8b 45 10             	mov    0x10(%ebp),%eax
    3b1e:	51                   	push   %ecx
    3b1f:	50                   	push   %eax
    3b20:	8b 45 0c             	mov    0xc(%ebp),%eax
    3b23:	8d 50 02             	lea    0x2(%eax),%edx
    3b26:	8b 45 08             	mov    0x8(%ebp),%eax
    3b29:	52                   	push   %edx
    3b2a:	50                   	push   %eax
    3b2b:	e8 c0 2c 00 00       	call   67f0 <surface_put_pixel>
    3b30:	83 c4 10             	add    $0x10,%esp
    3b33:	8b 45 e0             	mov    -0x20(%ebp),%eax
    3b36:	e9 e1 fc ff ff       	jmp    381c <draw_icon_cross+0x4c>
    3b3b:	90                   	nop
    3b3c:	8d 74 26 00          	lea    0x0(%esi,%eiz,1),%esi
    3b40:	89 45 e0             	mov    %eax,-0x20(%ebp)
    3b43:	8b 45 10             	mov    0x10(%ebp),%eax
    3b46:	51                   	push   %ecx
    3b47:	50                   	push   %eax
    3b48:	8b 45 0c             	mov    0xc(%ebp),%eax
    3b4b:	8d 50 01             	lea    0x1(%eax),%edx
    3b4e:	52                   	push   %edx
    3b4f:	8b 55 08             	mov    0x8(%ebp),%edx
    3b52:	52                   	push   %edx
    3b53:	e8 98 2c 00 00       	call   67f0 <surface_put_pixel>
    3b58:	83 c4 10             	add    $0x10,%esp
    3b5b:	8b 45 e0             	mov    -0x20(%ebp),%eax
    3b5e:	e9 a3 fc ff ff       	jmp    3806 <draw_icon_cross+0x36>
    3b63:	8d b6 00 00 00 00    	lea    0x0(%esi),%esi
    3b69:	8d bc 27 00 00 00 00 	lea    0x0(%edi,%eiz,1),%edi

00003b70 <draw_bevel>:
    3b70:	55                   	push   %ebp
    3b71:	89 e5                	mov    %esp,%ebp
    3b73:	57                   	push   %edi
    3b74:	56                   	push   %esi
    3b75:	53                   	push   %ebx
    3b76:	83 ec 24             	sub    $0x24,%esp
    3b79:	8b 55 18             	mov    0x18(%ebp),%edx
    3b7c:	8b 45 0c             	mov    0xc(%ebp),%eax
    3b7f:	89 55 e4             	mov    %edx,-0x1c(%ebp)
    3b82:	8b 55 24             	mov    0x24(%ebp),%edx
    3b85:	8b 4d 1c             	mov    0x1c(%ebp),%ecx
    3b88:	89 55 d8             	mov    %edx,-0x28(%ebp)
    3b8b:	8b 55 20             	mov    0x20(%ebp),%edx
    3b8e:	8b 5d 08             	mov    0x8(%ebp),%ebx
    3b91:	52                   	push   %edx
    3b92:	8b 75 10             	mov    0x10(%ebp),%esi
    3b95:	50                   	push   %eax
    3b96:	8b 7d 14             	mov    0x14(%ebp),%edi
    3b99:	89 45 dc             	mov    %eax,-0x24(%ebp)
    3b9c:	89 4d e0             	mov    %ecx,-0x20(%ebp)
    3b9f:	e8 ac 26 00 00       	call   6250 <source_set_color>
    3ba4:	8b 55 e4             	mov    -0x1c(%ebp),%edx
    3ba7:	8d 4a ff             	lea    -0x1(%edx),%ecx
    3baa:	c7 04 24 01 00 00 00 	movl   $0x1,(%esp)
    3bb1:	51                   	push   %ecx
    3bb2:	57                   	push   %edi
    3bb3:	56                   	push   %esi
    3bb4:	53                   	push   %ebx
    3bb5:	e8 66 20 00 00       	call   5c20 <drawctx_transfer>
    3bba:	83 c4 14             	add    $0x14,%esp
    3bbd:	8b 4d e0             	mov    -0x20(%ebp),%ecx
    3bc0:	83 e9 02             	sub    $0x2,%ecx
    3bc3:	51                   	push   %ecx
    3bc4:	8d 4f 01             	lea    0x1(%edi),%ecx
    3bc7:	6a 01                	push   $0x1
    3bc9:	51                   	push   %ecx
    3bca:	56                   	push   %esi
    3bcb:	53                   	push   %ebx
    3bcc:	e8 4f 20 00 00       	call   5c20 <drawctx_transfer>
    3bd1:	83 c4 18             	add    $0x18,%esp
    3bd4:	8b 55 d8             	mov    -0x28(%ebp),%edx
    3bd7:	8b 45 dc             	mov    -0x24(%ebp),%eax
    3bda:	52                   	push   %edx
    3bdb:	50                   	push   %eax
    3bdc:	e8 6f 26 00 00       	call   6250 <source_set_color>
    3be1:	8b 4d e4             	mov    -0x1c(%ebp),%ecx
    3be4:	c7 04 24 01 00 00 00 	movl   $0x1,(%esp)
    3beb:	51                   	push   %ecx
    3bec:	8b 4d e0             	mov    -0x20(%ebp),%ecx
    3bef:	8d 44 0f ff          	lea    -0x1(%edi,%ecx,1),%eax
    3bf3:	50                   	push   %eax
    3bf4:	56                   	push   %esi
    3bf5:	53                   	push   %ebx
    3bf6:	e8 25 20 00 00       	call   5c20 <drawctx_transfer>
    3bfb:	8b 55 e4             	mov    -0x1c(%ebp),%edx
    3bfe:	8b 4d e0             	mov    -0x20(%ebp),%ecx
    3c01:	89 7d 10             	mov    %edi,0x10(%ebp)
    3c04:	89 5d 08             	mov    %ebx,0x8(%ebp)
    3c07:	8d 44 16 ff          	lea    -0x1(%esi,%edx,1),%eax
    3c0b:	89 4d 18             	mov    %ecx,0x18(%ebp)
    3c0e:	c7 45 14 01 00 00 00 	movl   $0x1,0x14(%ebp)
    3c15:	89 45 0c             	mov    %eax,0xc(%ebp)
    3c18:	83 c4 20             	add    $0x20,%esp
    3c1b:	8d 65 f4             	lea    -0xc(%ebp),%esp
    3c1e:	5b                   	pop    %ebx
    3c1f:	5e                   	pop    %esi
    3c20:	5f                   	pop    %edi
    3c21:	5d                   	pop    %ebp
    3c22:	e9 f9 1f 00 00       	jmp    5c20 <drawctx_transfer>
    3c27:	66 90                	xchg   %ax,%ax
    3c29:	66 90                	xchg   %ax,%ax
    3c2b:	66 90                	xchg   %ax,%ax
    3c2d:	66 90                	xchg   %ax,%ax
    3c2f:	90                   	nop

00003c30 <fde_load_glyph_metrics>:
    3c30:	55                   	push   %ebp
    3c31:	89 e5                	mov    %esp,%ebp
    3c33:	8b 45 10             	mov    0x10(%ebp),%eax
    3c36:	c7 00 00 00 00 00    	movl   $0x0,(%eax)
    3c3c:	c7 40 04 08 00 00 00 	movl   $0x8,0x4(%eax)
    3c43:	c7 40 08 00 00 00 00 	movl   $0x0,0x8(%eax)
    3c4a:	c7 40 0c 0c 00 00 00 	movl   $0xc,0xc(%eax)
    3c51:	c7 40 10 10 00 00 00 	movl   $0x10,0x10(%eax)
    3c58:	31 c0                	xor    %eax,%eax
    3c5a:	5d                   	pop    %ebp
    3c5b:	c3                   	ret    
    3c5c:	8d 74 26 00          	lea    0x0(%esi,%eiz,1),%esi

00003c60 <fde_release>:
    3c60:	55                   	push   %ebp
    3c61:	89 e5                	mov    %esp,%ebp
    3c63:	5d                   	pop    %ebp
    3c64:	c3                   	ret    
    3c65:	8d 74 26 00          	lea    0x0(%esi,%eiz,1),%esi
    3c69:	8d bc 27 00 00 00 00 	lea    0x0(%edi,%eiz,1),%edi

00003c70 <fde_load_glyph_surface>:
    3c70:	55                   	push   %ebp
    3c71:	89 e5                	mov    %esp,%ebp
    3c73:	57                   	push   %edi
    3c74:	56                   	push   %esi
    3c75:	53                   	push   %ebx
    3c76:	83 ec 1c             	sub    $0x1c,%esp
    3c79:	6a 00                	push   $0x0
    3c7b:	6a 00                	push   $0x0
    3c7d:	6a 10                	push   $0x10
    3c7f:	6a 08                	push   $0x8
    3c81:	e8 9a 28 00 00       	call   6520 <surface_create>
    3c86:	83 c4 10             	add    $0x10,%esp
    3c89:	85 c0                	test   %eax,%eax
    3c8b:	74 63                	je     3cf0 <fde_load_glyph_surface+0x80>
    3c8d:	89 c3                	mov    %eax,%ebx
    3c8f:	8b 45 0c             	mov    0xc(%ebp),%eax
    3c92:	c1 e0 04             	shl    $0x4,%eax
    3c95:	31 f6                	xor    %esi,%esi
    3c97:	89 45 e4             	mov    %eax,-0x1c(%ebp)
    3c9a:	89 f7                	mov    %esi,%edi
    3c9c:	8d 74 26 00          	lea    0x0(%esi,%eiz,1),%esi
    3ca0:	31 f6                	xor    %esi,%esi
    3ca2:	89 f8                	mov    %edi,%eax
    3ca4:	89 f7                	mov    %esi,%edi
    3ca6:	89 c6                	mov    %eax,%esi
    3ca8:	8b 55 e4             	mov    -0x1c(%ebp),%edx
    3cab:	31 c0                	xor    %eax,%eax
    3cad:	b9 07 00 00 00       	mov    $0x7,%ecx
    3cb2:	29 f9                	sub    %edi,%ecx
    3cb4:	8a 84 16 20 9a 00 00 	mov    0x9a20(%esi,%edx,1),%al
    3cbb:	d3 f8                	sar    %cl,%eax
    3cbd:	83 e0 01             	and    $0x1,%eax
    3cc0:	f7 d8                	neg    %eax
    3cc2:	25 00 00 00 ff       	and    $0xff000000,%eax
    3cc7:	50                   	push   %eax
    3cc8:	56                   	push   %esi
    3cc9:	57                   	push   %edi
    3cca:	47                   	inc    %edi
    3ccb:	53                   	push   %ebx
    3ccc:	e8 1f 2b 00 00       	call   67f0 <surface_put_pixel>
    3cd1:	83 c4 10             	add    $0x10,%esp
    3cd4:	83 ff 08             	cmp    $0x8,%edi
    3cd7:	75 cf                	jne    3ca8 <fde_load_glyph_surface+0x38>
    3cd9:	89 f7                	mov    %esi,%edi
    3cdb:	47                   	inc    %edi
    3cdc:	83 ff 10             	cmp    $0x10,%edi
    3cdf:	75 bf                	jne    3ca0 <fde_load_glyph_surface+0x30>
    3ce1:	8b 45 10             	mov    0x10(%ebp),%eax
    3ce4:	89 18                	mov    %ebx,(%eax)
    3ce6:	31 c0                	xor    %eax,%eax
    3ce8:	8d 65 f4             	lea    -0xc(%ebp),%esp
    3ceb:	5b                   	pop    %ebx
    3cec:	5e                   	pop    %esi
    3ced:	5f                   	pop    %edi
    3cee:	5d                   	pop    %ebp
    3cef:	c3                   	ret    
    3cf0:	b8 fe ff ff ff       	mov    $0xfffffffe,%eax
    3cf5:	eb f1                	jmp    3ce8 <fde_load_glyph_surface+0x78>
    3cf7:	89 f6                	mov    %esi,%esi
    3cf9:	8d bc 27 00 00 00 00 	lea    0x0(%edi,%eiz,1),%edi

00003d00 <fde_resolve_glyph>:
    3d00:	55                   	push   %ebp
    3d01:	89 e5                	mov    %esp,%ebp
    3d03:	83 ec 20             	sub    $0x20,%esp
    3d06:	8d 45 f7             	lea    -0x9(%ebp),%eax
    3d09:	c6 45 f7 00          	movb   $0x0,-0x9(%ebp)
    3d0d:	50                   	push   %eax
    3d0e:	8b 45 0c             	mov    0xc(%ebp),%eax
    3d11:	50                   	push   %eax
    3d12:	e8 39 14 00 00       	call   5150 <fb_font_glyph>
    3d17:	83 c4 10             	add    $0x10,%esp
    3d1a:	80 7d f7 00          	cmpb   $0x0,-0x9(%ebp)
    3d1e:	74 10                	je     3d30 <fde_resolve_glyph+0x30>
    3d20:	8b 55 10             	mov    0x10(%ebp),%edx
    3d23:	25 ff ff 00 00       	and    $0xffff,%eax
    3d28:	89 02                	mov    %eax,(%edx)
    3d2a:	31 c0                	xor    %eax,%eax
    3d2c:	c9                   	leave  
    3d2d:	c3                   	ret    
    3d2e:	66 90                	xchg   %ax,%ax
    3d30:	83 c8 ff             	or     $0xffffffff,%eax
    3d33:	c9                   	leave  
    3d34:	c3                   	ret    
    3d35:	8d 74 26 00          	lea    0x0(%esi,%eiz,1),%esi
    3d39:	8d bc 27 00 00 00 00 	lea    0x0(%edi,%eiz,1),%edi

00003d40 <embedded_font_create>:
    3d40:	55                   	push   %ebp
    3d41:	31 c0                	xor    %eax,%eax
    3d43:	89 e5                	mov    %esp,%ebp
    3d45:	83 ec 08             	sub    $0x8,%esp
    3d48:	8b 0d e8 99 00 00    	mov    0x99e8,%ecx
    3d4e:	66 8b 45 0c          	mov    0xc(%ebp),%ax
    3d52:	8b 55 08             	mov    0x8(%ebp),%edx
    3d55:	52                   	push   %edx
    3d56:	50                   	push   %eax
    3d57:	a1 e4 99 00 00       	mov    0x99e4,%eax
    3d5c:	51                   	push   %ecx
    3d5d:	50                   	push   %eax
    3d5e:	a1 e0 99 00 00       	mov    0x99e0,%eax
    3d63:	50                   	push   %eax
    3d64:	68 53 0b 00 00       	push   $0xb53
    3d69:	6a 00                	push   $0x0
    3d6b:	68 ec 99 00 00       	push   $0x99ec
    3d70:	e8 8b 06 00 00       	call   4400 <bitmap_font_create>
    3d75:	c9                   	leave  
    3d76:	c3                   	ret    
    3d77:	66 90                	xchg   %ax,%ax
    3d79:	66 90                	xchg   %ax,%ax
    3d7b:	66 90                	xchg   %ax,%ax
    3d7d:	66 90                	xchg   %ax,%ax
    3d7f:	90                   	nop

00003d80 <bb_get_font_metrics>:
    3d80:	55                   	push   %ebp
    3d81:	89 e5                	mov    %esp,%ebp
    3d83:	8b 55 08             	mov    0x8(%ebp),%edx
    3d86:	8b 45 0c             	mov    0xc(%ebp),%eax
    3d89:	8b 4a 08             	mov    0x8(%edx),%ecx
    3d8c:	89 08                	mov    %ecx,(%eax)
    3d8e:	8b 4a 0c             	mov    0xc(%edx),%ecx
    3d91:	89 48 04             	mov    %ecx,0x4(%eax)
    3d94:	8b 52 10             	mov    0x10(%edx),%edx
    3d97:	89 50 08             	mov    %edx,0x8(%eax)
    3d9a:	31 c0                	xor    %eax,%eax
    3d9c:	5d                   	pop    %ebp
    3d9d:	c3                   	ret    
    3d9e:	66 90                	xchg   %ax,%ax

00003da0 <bb_resolve_glyph>:
    3da0:	55                   	push   %ebp
    3da1:	89 e5                	mov    %esp,%ebp
    3da3:	8b 45 08             	mov    0x8(%ebp),%eax
    3da6:	8b 50 18             	mov    0x18(%eax),%edx
    3da9:	8b 40 1c             	mov    0x1c(%eax),%eax
    3dac:	89 45 08             	mov    %eax,0x8(%ebp)
    3daf:	5d                   	pop    %ebp
    3db0:	8b 02                	mov    (%edx),%eax
    3db2:	ff e0                	jmp    *%eax
    3db4:	8d b6 00 00 00 00    	lea    0x0(%esi),%esi
    3dba:	8d bf 00 00 00 00    	lea    0x0(%edi),%edi

00003dc0 <bb_get_glyph_metrics>:
    3dc0:	55                   	push   %ebp
    3dc1:	89 e5                	mov    %esp,%ebp
    3dc3:	57                   	push   %edi
    3dc4:	56                   	push   %esi
    3dc5:	53                   	push   %ebx
    3dc6:	83 ec 3c             	sub    $0x3c,%esp
    3dc9:	8b 7d 08             	mov    0x8(%ebp),%edi
    3dcc:	8b 55 0c             	mov    0xc(%ebp),%edx
    3dcf:	8b 75 10             	mov    0x10(%ebp),%esi
    3dd2:	39 57 04             	cmp    %edx,0x4(%edi)
    3dd5:	0f 86 1d 01 00 00    	jbe    3ef8 <bb_get_glyph_metrics+0x138>
    3ddb:	8d 1c d5 00 00 00 00 	lea    0x0(,%edx,8),%ebx
    3de2:	8b 47 14             	mov    0x14(%edi),%eax
    3de5:	29 d3                	sub    %edx,%ebx
    3de7:	c1 e3 02             	shl    $0x2,%ebx
    3dea:	01 d8                	add    %ebx,%eax
    3dec:	80 78 18 00          	cmpb   $0x0,0x18(%eax)
    3df0:	74 2e                	je     3e20 <bb_get_glyph_metrics+0x60>
    3df2:	8b 50 04             	mov    0x4(%eax),%edx
    3df5:	89 16                	mov    %edx,(%esi)
    3df7:	8b 50 08             	mov    0x8(%eax),%edx
    3dfa:	89 56 04             	mov    %edx,0x4(%esi)
    3dfd:	8b 50 0c             	mov    0xc(%eax),%edx
    3e00:	89 56 08             	mov    %edx,0x8(%esi)
    3e03:	8b 50 10             	mov    0x10(%eax),%edx
    3e06:	89 56 0c             	mov    %edx,0xc(%esi)
    3e09:	8b 40 14             	mov    0x14(%eax),%eax
    3e0c:	89 46 10             	mov    %eax,0x10(%esi)
    3e0f:	31 c0                	xor    %eax,%eax
    3e11:	8d 65 f4             	lea    -0xc(%ebp),%esp
    3e14:	5b                   	pop    %ebx
    3e15:	5e                   	pop    %esi
    3e16:	5f                   	pop    %edi
    3e17:	5d                   	pop    %ebp
    3e18:	c3                   	ret    
    3e19:	8d b4 26 00 00 00 00 	lea    0x0(%esi,%eiz,1),%esi
    3e20:	51                   	push   %ecx
    3e21:	8d 4d d4             	lea    -0x2c(%ebp),%ecx
    3e24:	8b 47 18             	mov    0x18(%edi),%eax
    3e27:	51                   	push   %ecx
    3e28:	52                   	push   %edx
    3e29:	8b 57 1c             	mov    0x1c(%edi),%edx
    3e2c:	52                   	push   %edx
    3e2d:	ff 50 08             	call   *0x8(%eax)
    3e30:	83 c4 10             	add    $0x10,%esp
    3e33:	85 c0                	test   %eax,%eax
    3e35:	75 da                	jne    3e11 <bb_get_glyph_metrics+0x51>
    3e37:	80 7f 20 00          	cmpb   $0x0,0x20(%edi)
    3e3b:	74 68                	je     3ea5 <bb_get_glyph_metrics+0xe5>
    3e3d:	dd 47 24             	fldl   0x24(%edi)
    3e40:	d9 7d c6             	fnstcw -0x3a(%ebp)
    3e43:	db 45 d4             	fildl  -0x2c(%ebp)
    3e46:	d8 c9                	fmul   %st(1),%st
    3e48:	66 8b 55 c6          	mov    -0x3a(%ebp),%dx
    3e4c:	b6 0c                	mov    $0xc,%dh
    3e4e:	66 89 55 c4          	mov    %dx,-0x3c(%ebp)
    3e52:	d9 05 7c 7c 00 00    	flds   0x7c7c
    3e58:	dc c1                	fadd   %st,%st(1)
    3e5a:	d9 c9                	fxch   %st(1)
    3e5c:	d9 6d c4             	fldcw  -0x3c(%ebp)
    3e5f:	db 5d d4             	fistpl -0x2c(%ebp)
    3e62:	d9 6d c6             	fldcw  -0x3a(%ebp)
    3e65:	db 45 d8             	fildl  -0x28(%ebp)
    3e68:	d8 ca                	fmul   %st(2),%st
    3e6a:	d8 c1                	fadd   %st(1),%st
    3e6c:	d9 6d c4             	fldcw  -0x3c(%ebp)
    3e6f:	db 5d d8             	fistpl -0x28(%ebp)
    3e72:	d9 6d c6             	fldcw  -0x3a(%ebp)
    3e75:	db 45 dc             	fildl  -0x24(%ebp)
    3e78:	d8 ca                	fmul   %st(2),%st
    3e7a:	d8 c1                	fadd   %st(1),%st
    3e7c:	d9 6d c4             	fldcw  -0x3c(%ebp)
    3e7f:	db 5d dc             	fistpl -0x24(%ebp)
    3e82:	d9 6d c6             	fldcw  -0x3a(%ebp)
    3e85:	db 45 e0             	fildl  -0x20(%ebp)
    3e88:	d8 ca                	fmul   %st(2),%st
    3e8a:	d8 c1                	fadd   %st(1),%st
    3e8c:	d9 6d c4             	fldcw  -0x3c(%ebp)
    3e8f:	db 5d e0             	fistpl -0x20(%ebp)
    3e92:	d9 6d c6             	fldcw  -0x3a(%ebp)
    3e95:	db 45 e4             	fildl  -0x1c(%ebp)
    3e98:	de ca                	fmulp  %st,%st(2)
    3e9a:	de c1                	faddp  %st,%st(1)
    3e9c:	d9 6d c4             	fldcw  -0x3c(%ebp)
    3e9f:	db 5d e4             	fistpl -0x1c(%ebp)
    3ea2:	d9 6d c6             	fldcw  -0x3a(%ebp)
    3ea5:	8b 57 14             	mov    0x14(%edi),%edx
    3ea8:	01 d3                	add    %edx,%ebx
    3eaa:	8b 55 d4             	mov    -0x2c(%ebp),%edx
    3ead:	89 53 04             	mov    %edx,0x4(%ebx)
    3eb0:	8b 55 d8             	mov    -0x28(%ebp),%edx
    3eb3:	89 53 08             	mov    %edx,0x8(%ebx)
    3eb6:	8b 55 dc             	mov    -0x24(%ebp),%edx
    3eb9:	89 53 0c             	mov    %edx,0xc(%ebx)
    3ebc:	8b 55 e0             	mov    -0x20(%ebp),%edx
    3ebf:	89 53 10             	mov    %edx,0x10(%ebx)
    3ec2:	8b 55 e4             	mov    -0x1c(%ebp),%edx
    3ec5:	89 53 14             	mov    %edx,0x14(%ebx)
    3ec8:	8b 55 d4             	mov    -0x2c(%ebp),%edx
    3ecb:	c6 43 18 01          	movb   $0x1,0x18(%ebx)
    3ecf:	89 16                	mov    %edx,(%esi)
    3ed1:	8b 55 d8             	mov    -0x28(%ebp),%edx
    3ed4:	89 56 04             	mov    %edx,0x4(%esi)
    3ed7:	8b 55 dc             	mov    -0x24(%ebp),%edx
    3eda:	89 56 08             	mov    %edx,0x8(%esi)
    3edd:	8b 55 e0             	mov    -0x20(%ebp),%edx
    3ee0:	89 56 0c             	mov    %edx,0xc(%esi)
    3ee3:	8b 55 e4             	mov    -0x1c(%ebp),%edx
    3ee6:	89 56 10             	mov    %edx,0x10(%esi)
    3ee9:	8d 65 f4             	lea    -0xc(%ebp),%esp
    3eec:	5b                   	pop    %ebx
    3eed:	5e                   	pop    %esi
    3eee:	5f                   	pop    %edi
    3eef:	5d                   	pop    %ebp
    3ef0:	c3                   	ret    
    3ef1:	8d b4 26 00 00 00 00 	lea    0x0(%esi,%eiz,1),%esi
    3ef8:	83 c8 ff             	or     $0xffffffff,%eax
    3efb:	e9 11 ff ff ff       	jmp    3e11 <bb_get_glyph_metrics+0x51>

00003f00 <bb_release>:
    3f00:	55                   	push   %ebp
    3f01:	89 e5                	mov    %esp,%ebp
    3f03:	56                   	push   %esi
    3f04:	53                   	push   %ebx
    3f05:	8b 75 08             	mov    0x8(%ebp),%esi
    3f08:	8b 56 04             	mov    0x4(%esi),%edx
    3f0b:	8b 4e 14             	mov    0x14(%esi),%ecx
    3f0e:	85 d2                	test   %edx,%edx
    3f10:	74 2d                	je     3f3f <bb_release+0x3f>
    3f12:	31 db                	xor    %ebx,%ebx
    3f14:	8d 74 26 00          	lea    0x0(%esi,%eiz,1),%esi
    3f18:	8d 04 dd 00 00 00 00 	lea    0x0(,%ebx,8),%eax
    3f1f:	29 d8                	sub    %ebx,%eax
    3f21:	8b 04 81             	mov    (%ecx,%eax,4),%eax
    3f24:	85 c0                	test   %eax,%eax
    3f26:	74 12                	je     3f3a <bb_release+0x3a>
    3f28:	83 ec 0c             	sub    $0xc,%esp
    3f2b:	50                   	push   %eax
    3f2c:	e8 bf 26 00 00       	call   65f0 <surface_destroy>
    3f31:	8b 56 04             	mov    0x4(%esi),%edx
    3f34:	8b 4e 14             	mov    0x14(%esi),%ecx
    3f37:	83 c4 10             	add    $0x10,%esp
    3f3a:	43                   	inc    %ebx
    3f3b:	39 d3                	cmp    %edx,%ebx
    3f3d:	72 d9                	jb     3f18 <bb_release+0x18>
    3f3f:	83 ec 0c             	sub    $0xc,%esp
    3f42:	51                   	push   %ecx
    3f43:	e8 18 42 00 00       	call   8160 <free@plt>
    3f48:	8b 46 18             	mov    0x18(%esi),%eax
    3f4b:	8b 56 1c             	mov    0x1c(%esi),%edx
    3f4e:	89 55 08             	mov    %edx,0x8(%ebp)
    3f51:	83 c4 10             	add    $0x10,%esp
    3f54:	8b 40 0c             	mov    0xc(%eax),%eax
    3f57:	8d 65 f8             	lea    -0x8(%ebp),%esp
    3f5a:	5b                   	pop    %ebx
    3f5b:	5e                   	pop    %esi
    3f5c:	5d                   	pop    %ebp
    3f5d:	ff e0                	jmp    *%eax
    3f5f:	90                   	nop

00003f60 <bb_render_glyph>:
    3f60:	55                   	push   %ebp
    3f61:	89 e5                	mov    %esp,%ebp
    3f63:	57                   	push   %edi
    3f64:	56                   	push   %esi
    3f65:	53                   	push   %ebx
    3f66:	81 ec 3c 01 00 00    	sub    $0x13c,%esp
    3f6c:	8b 5d 08             	mov    0x8(%ebp),%ebx
    3f6f:	8b 75 1c             	mov    0x1c(%ebp),%esi
    3f72:	3b 73 04             	cmp    0x4(%ebx),%esi
    3f75:	0f 83 6e 01 00 00    	jae    40e9 <bb_render_glyph+0x189>
    3f7b:	8d 04 f5 00 00 00 00 	lea    0x0(,%esi,8),%eax
    3f82:	8b 4b 14             	mov    0x14(%ebx),%ecx
    3f85:	29 f0                	sub    %esi,%eax
    3f87:	c1 e0 02             	shl    $0x2,%eax
    3f8a:	89 85 dc fe ff ff    	mov    %eax,-0x124(%ebp)
    3f90:	01 c8                	add    %ecx,%eax
    3f92:	80 78 18 00          	cmpb   $0x0,0x18(%eax)
    3f96:	0f 84 dc 00 00 00    	je     4078 <bb_render_glyph+0x118>
    3f9c:	8b 78 08             	mov    0x8(%eax),%edi
    3f9f:	8b 48 14             	mov    0x14(%eax),%ecx
    3fa2:	89 bd d8 fe ff ff    	mov    %edi,-0x128(%ebp)
    3fa8:	8b 78 10             	mov    0x10(%eax),%edi
    3fab:	8b 50 04             	mov    0x4(%eax),%edx
    3fae:	89 bd d4 fe ff ff    	mov    %edi,-0x12c(%ebp)
    3fb4:	89 8d d0 fe ff ff    	mov    %ecx,-0x130(%ebp)
    3fba:	8b 00                	mov    (%eax),%eax
    3fbc:	8d 7d 84             	lea    -0x7c(%ebp),%edi
    3fbf:	89 bd cc fe ff ff    	mov    %edi,-0x134(%ebp)
    3fc5:	85 c0                	test   %eax,%eax
    3fc7:	0f 84 03 02 00 00    	je     41d0 <bb_render_glyph+0x270>
    3fcd:	89 85 c0 fe ff ff    	mov    %eax,-0x140(%ebp)
    3fd3:	8b 45 14             	mov    0x14(%ebp),%eax
    3fd6:	01 c2                	add    %eax,%edx
    3fd8:	83 ec 0c             	sub    $0xc,%esp
    3fdb:	89 d3                	mov    %edx,%ebx
    3fdd:	8b 45 18             	mov    0x18(%ebp),%eax
    3fe0:	8b 95 d4 fe ff ff    	mov    -0x12c(%ebp),%edx
    3fe6:	8b b5 cc fe ff ff    	mov    -0x134(%ebp),%esi
    3fec:	29 d0                	sub    %edx,%eax
    3fee:	56                   	push   %esi
    3fef:	89 c7                	mov    %eax,%edi
    3ff1:	e8 fa 36 00 00       	call   76f0 <transform_identity>
    3ff6:	89 bd dc fe ff ff    	mov    %edi,-0x124(%ebp)
    3ffc:	83 ec 0c             	sub    $0xc,%esp
    3fff:	db 85 dc fe ff ff    	fildl  -0x124(%ebp)
    4005:	89 9d d4 fe ff ff    	mov    %ebx,-0x12c(%ebp)
    400b:	dd 5c 24 08          	fstpl  0x8(%esp)
    400f:	db 85 d4 fe ff ff    	fildl  -0x12c(%ebp)
    4015:	dd 1c 24             	fstpl  (%esp)
    4018:	56                   	push   %esi
    4019:	e8 02 37 00 00       	call   7720 <transform_translate>
    401e:	83 ec 2c             	sub    $0x2c,%esp
    4021:	b9 12 00 00 00       	mov    $0x12,%ecx
    4026:	89 e7                	mov    %esp,%edi
    4028:	f3 a5                	rep movsl %ds:(%esi),%es:(%edi)
    402a:	8b 4d 10             	mov    0x10(%ebp),%ecx
    402d:	51                   	push   %ecx
    402e:	e8 dd 21 00 00       	call   6210 <source_set_transform>
    4033:	83 c4 4c             	add    $0x4c,%esp
    4036:	8b 85 c0 fe ff ff    	mov    -0x140(%ebp),%eax
    403c:	8b 75 10             	mov    0x10(%ebp),%esi
    403f:	6a 00                	push   $0x0
    4041:	50                   	push   %eax
    4042:	56                   	push   %esi
    4043:	e8 48 22 00 00       	call   6290 <source_set_mask>
    4048:	8b 85 d0 fe ff ff    	mov    -0x130(%ebp),%eax
    404e:	5f                   	pop    %edi
    404f:	50                   	push   %eax
    4050:	8b 85 d8 fe ff ff    	mov    -0x128(%ebp),%eax
    4056:	50                   	push   %eax
    4057:	8b 85 dc fe ff ff    	mov    -0x124(%ebp),%eax
    405d:	50                   	push   %eax
    405e:	8b 45 0c             	mov    0xc(%ebp),%eax
    4061:	53                   	push   %ebx
    4062:	50                   	push   %eax
    4063:	e8 b8 1b 00 00       	call   5c20 <drawctx_transfer>
    4068:	83 c4 20             	add    $0x20,%esp
    406b:	31 c0                	xor    %eax,%eax
    406d:	8d 65 f4             	lea    -0xc(%ebp),%esp
    4070:	5b                   	pop    %ebx
    4071:	5e                   	pop    %esi
    4072:	5f                   	pop    %edi
    4073:	5d                   	pop    %ebp
    4074:	c3                   	ret    
    4075:	8d 76 00             	lea    0x0(%esi),%esi
    4078:	8d 55 84             	lea    -0x7c(%ebp),%edx
    407b:	57                   	push   %edi
    407c:	8b 43 18             	mov    0x18(%ebx),%eax
    407f:	52                   	push   %edx
    4080:	8b 53 1c             	mov    0x1c(%ebx),%edx
    4083:	56                   	push   %esi
    4084:	52                   	push   %edx
    4085:	ff 50 08             	call   *0x8(%eax)
    4088:	83 c4 10             	add    $0x10,%esp
    408b:	85 c0                	test   %eax,%eax
    408d:	75 de                	jne    406d <bb_render_glyph+0x10d>
    408f:	80 7b 20 00          	cmpb   $0x0,0x20(%ebx)
    4093:	75 63                	jne    40f8 <bb_render_glyph+0x198>
    4095:	8b 45 94             	mov    -0x6c(%ebp),%eax
    4098:	8b 55 84             	mov    -0x7c(%ebp),%edx
    409b:	89 85 d0 fe ff ff    	mov    %eax,-0x130(%ebp)
    40a1:	8b 45 90             	mov    -0x70(%ebp),%eax
    40a4:	89 85 d4 fe ff ff    	mov    %eax,-0x12c(%ebp)
    40aa:	8b 45 88             	mov    -0x78(%ebp),%eax
    40ad:	89 85 d8 fe ff ff    	mov    %eax,-0x128(%ebp)
    40b3:	8b 4b 14             	mov    0x14(%ebx),%ecx
    40b6:	8b 85 dc fe ff ff    	mov    -0x124(%ebp),%eax
    40bc:	01 c8                	add    %ecx,%eax
    40be:	8b 4d 84             	mov    -0x7c(%ebp),%ecx
    40c1:	3b 73 04             	cmp    0x4(%ebx),%esi
    40c4:	89 48 04             	mov    %ecx,0x4(%eax)
    40c7:	8b 4d 88             	mov    -0x78(%ebp),%ecx
    40ca:	89 48 08             	mov    %ecx,0x8(%eax)
    40cd:	8b 4d 8c             	mov    -0x74(%ebp),%ecx
    40d0:	89 48 0c             	mov    %ecx,0xc(%eax)
    40d3:	8b 4d 90             	mov    -0x70(%ebp),%ecx
    40d6:	89 48 10             	mov    %ecx,0x10(%eax)
    40d9:	8b 4d 94             	mov    -0x6c(%ebp),%ecx
    40dc:	c6 40 18 01          	movb   $0x1,0x18(%eax)
    40e0:	89 48 14             	mov    %ecx,0x14(%eax)
    40e3:	0f 82 d1 fe ff ff    	jb     3fba <bb_render_glyph+0x5a>
    40e9:	83 c8 ff             	or     $0xffffffff,%eax
    40ec:	e9 7c ff ff ff       	jmp    406d <bb_render_glyph+0x10d>
    40f1:	8d b4 26 00 00 00 00 	lea    0x0(%esi,%eiz,1),%esi
    40f8:	dd 43 24             	fldl   0x24(%ebx)
    40fb:	d9 bd ee fe ff ff    	fnstcw -0x112(%ebp)
    4101:	db 45 84             	fildl  -0x7c(%ebp)
    4104:	d8 c9                	fmul   %st(1),%st
    4106:	66 8b 85 ee fe ff ff 	mov    -0x112(%ebp),%ax
    410d:	b4 0c                	mov    $0xc,%ah
    410f:	66 89 85 ec fe ff ff 	mov    %ax,-0x114(%ebp)
    4116:	d9 05 7c 7c 00 00    	flds   0x7c7c
    411c:	dc c1                	fadd   %st,%st(1)
    411e:	d9 c9                	fxch   %st(1)
    4120:	d9 ad ec fe ff ff    	fldcw  -0x114(%ebp)
    4126:	db 9d e8 fe ff ff    	fistpl -0x118(%ebp)
    412c:	d9 ad ee fe ff ff    	fldcw  -0x112(%ebp)
    4132:	db 45 88             	fildl  -0x78(%ebp)
    4135:	d8 ca                	fmul   %st(2),%st
    4137:	8b 95 e8 fe ff ff    	mov    -0x118(%ebp),%edx
    413d:	89 55 84             	mov    %edx,-0x7c(%ebp)
    4140:	d8 c1                	fadd   %st(1),%st
    4142:	d9 ad ec fe ff ff    	fldcw  -0x114(%ebp)
    4148:	db 9d e8 fe ff ff    	fistpl -0x118(%ebp)
    414e:	d9 ad ee fe ff ff    	fldcw  -0x112(%ebp)
    4154:	db 45 8c             	fildl  -0x74(%ebp)
    4157:	d8 ca                	fmul   %st(2),%st
    4159:	8b 85 e8 fe ff ff    	mov    -0x118(%ebp),%eax
    415f:	89 85 d8 fe ff ff    	mov    %eax,-0x128(%ebp)
    4165:	89 45 88             	mov    %eax,-0x78(%ebp)
    4168:	d8 c1                	fadd   %st(1),%st
    416a:	d9 ad ec fe ff ff    	fldcw  -0x114(%ebp)
    4170:	db 5d 8c             	fistpl -0x74(%ebp)
    4173:	d9 ad ee fe ff ff    	fldcw  -0x112(%ebp)
    4179:	db 45 90             	fildl  -0x70(%ebp)
    417c:	d8 ca                	fmul   %st(2),%st
    417e:	d8 c1                	fadd   %st(1),%st
    4180:	d9 ad ec fe ff ff    	fldcw  -0x114(%ebp)
    4186:	db 9d e8 fe ff ff    	fistpl -0x118(%ebp)
    418c:	d9 ad ee fe ff ff    	fldcw  -0x112(%ebp)
    4192:	db 45 94             	fildl  -0x6c(%ebp)
    4195:	de ca                	fmulp  %st,%st(2)
    4197:	8b 85 e8 fe ff ff    	mov    -0x118(%ebp),%eax
    419d:	89 85 d4 fe ff ff    	mov    %eax,-0x12c(%ebp)
    41a3:	89 45 90             	mov    %eax,-0x70(%ebp)
    41a6:	de c1                	faddp  %st,%st(1)
    41a8:	d9 ad ec fe ff ff    	fldcw  -0x114(%ebp)
    41ae:	db 9d e8 fe ff ff    	fistpl -0x118(%ebp)
    41b4:	d9 ad ee fe ff ff    	fldcw  -0x112(%ebp)
    41ba:	8b 85 e8 fe ff ff    	mov    -0x118(%ebp),%eax
    41c0:	89 85 d0 fe ff ff    	mov    %eax,-0x130(%ebp)
    41c6:	89 45 94             	mov    %eax,-0x6c(%ebp)
    41c9:	e9 e5 fe ff ff       	jmp    40b3 <bb_render_glyph+0x153>
    41ce:	66 90                	xchg   %ax,%ax
    41d0:	8d 8d f8 fe ff ff    	lea    -0x108(%ebp),%ecx
    41d6:	50                   	push   %eax
    41d7:	8b 43 18             	mov    0x18(%ebx),%eax
    41da:	51                   	push   %ecx
    41db:	89 95 c0 fe ff ff    	mov    %edx,-0x140(%ebp)
    41e1:	8b 53 1c             	mov    0x1c(%ebx),%edx
    41e4:	56                   	push   %esi
    41e5:	52                   	push   %edx
    41e6:	ff 50 04             	call   *0x4(%eax)
    41e9:	83 c4 10             	add    $0x10,%esp
    41ec:	85 c0                	test   %eax,%eax
    41ee:	0f 85 79 fe ff ff    	jne    406d <bb_render_glyph+0x10d>
    41f4:	8d 85 00 ff ff ff    	lea    -0x100(%ebp),%eax
    41fa:	57                   	push   %edi
    41fb:	50                   	push   %eax
    41fc:	8d 85 fc fe ff ff    	lea    -0x104(%ebp),%eax
    4202:	50                   	push   %eax
    4203:	8b 85 f8 fe ff ff    	mov    -0x108(%ebp),%eax
    4209:	50                   	push   %eax
    420a:	e8 51 24 00 00       	call   6660 <surface_get_resolution>
    420f:	83 c4 10             	add    $0x10,%esp
    4212:	8b 95 c0 fe ff ff    	mov    -0x140(%ebp),%edx
    4218:	80 7b 20 00          	cmpb   $0x0,0x20(%ebx)
    421c:	75 0b                	jne    4229 <bb_render_glyph+0x2c9>
    421e:	8b 85 f8 fe ff ff    	mov    -0x108(%ebp),%eax
    4224:	e9 a4 fd ff ff       	jmp    3fcd <bb_render_glyph+0x6d>
    4229:	83 ec 0c             	sub    $0xc,%esp
    422c:	8b bd cc fe ff ff    	mov    -0x134(%ebp),%edi
    4232:	89 95 c8 fe ff ff    	mov    %edx,-0x138(%ebp)
    4238:	8d b5 3c ff ff ff    	lea    -0xc4(%ebp),%esi
    423e:	57                   	push   %edi
    423f:	e8 7c 1f 00 00       	call   61c0 <source_init>
    4244:	83 c4 0c             	add    $0xc,%esp
    4247:	8b 85 f8 fe ff ff    	mov    -0x108(%ebp),%eax
    424d:	89 bd cc fe ff ff    	mov    %edi,-0x134(%ebp)
    4253:	6a 00                	push   $0x0
    4255:	50                   	push   %eax
    4256:	57                   	push   %edi
    4257:	e8 04 20 00 00       	call   6260 <source_set_texture>
    425c:	89 34 24             	mov    %esi,(%esp)
    425f:	e8 8c 34 00 00       	call   76f0 <transform_identity>
    4264:	83 ec 0c             	sub    $0xc,%esp
    4267:	d9 05 7c 7c 00 00    	flds   0x7c7c
    426d:	dd 54 24 08          	fstl   0x8(%esp)
    4271:	dd 14 24             	fstl   (%esp)
    4274:	56                   	push   %esi
    4275:	dd 9d b8 fe ff ff    	fstpl  -0x148(%ebp)
    427b:	e8 a0 34 00 00       	call   7720 <transform_translate>
    4280:	83 c4 14             	add    $0x14,%esp
    4283:	8b 43 28             	mov    0x28(%ebx),%eax
    4286:	50                   	push   %eax
    4287:	8b 43 24             	mov    0x24(%ebx),%eax
    428a:	50                   	push   %eax
    428b:	8b 53 28             	mov    0x28(%ebx),%edx
    428e:	52                   	push   %edx
    428f:	8b 4b 24             	mov    0x24(%ebx),%ecx
    4292:	51                   	push   %ecx
    4293:	56                   	push   %esi
    4294:	e8 47 35 00 00       	call   77e0 <transform_scale>
    4299:	83 ec 2c             	sub    $0x2c,%esp
    429c:	89 e7                	mov    %esp,%edi
    429e:	b9 12 00 00 00       	mov    $0x12,%ecx
    42a3:	f3 a5                	rep movsl %ds:(%esi),%es:(%edi)
    42a5:	8b b5 cc fe ff ff    	mov    -0x134(%ebp),%esi
    42ab:	31 ff                	xor    %edi,%edi
    42ad:	56                   	push   %esi
    42ae:	e8 5d 1f 00 00       	call   6210 <source_set_transform>
    42b3:	8b b5 fc fe ff ff    	mov    -0x104(%ebp),%esi
    42b9:	89 bd c4 fe ff ff    	mov    %edi,-0x13c(%ebp)
    42bf:	89 b5 c0 fe ff ff    	mov    %esi,-0x140(%ebp)
    42c5:	31 ff                	xor    %edi,%edi
    42c7:	df ad c0 fe ff ff    	fildll -0x140(%ebp)
    42cd:	dc 4b 24             	fmull  0x24(%ebx)
    42d0:	d9 bd ee fe ff ff    	fnstcw -0x112(%ebp)
    42d6:	66 8b 85 ee fe ff ff 	mov    -0x112(%ebp),%ax
    42dd:	8b b5 00 ff ff ff    	mov    -0x100(%ebp),%esi
    42e3:	b4 0c                	mov    $0xc,%ah
    42e5:	83 c4 50             	add    $0x50,%esp
    42e8:	dd 85 b8 fe ff ff    	fldl   -0x148(%ebp)
    42ee:	dc c1                	fadd   %st,%st(1)
    42f0:	d9 c9                	fxch   %st(1)
    42f2:	66 89 85 ec fe ff ff 	mov    %ax,-0x114(%ebp)
    42f9:	89 b5 b8 fe ff ff    	mov    %esi,-0x148(%ebp)
    42ff:	89 bd bc fe ff ff    	mov    %edi,-0x144(%ebp)
    4305:	d9 ad ec fe ff ff    	fldcw  -0x114(%ebp)
    430b:	df bd e0 fe ff ff    	fistpll -0x120(%ebp)
    4311:	d9 ad ee fe ff ff    	fldcw  -0x112(%ebp)
    4317:	df ad b8 fe ff ff    	fildll -0x148(%ebp)
    431d:	dc 4b 24             	fmull  0x24(%ebx)
    4320:	8b 85 e0 fe ff ff    	mov    -0x120(%ebp),%eax
    4326:	8b 95 e4 fe ff ff    	mov    -0x11c(%ebp),%edx
    432c:	6a 00                	push   $0x0
    432e:	89 95 c4 fe ff ff    	mov    %edx,-0x13c(%ebp)
    4334:	6a 00                	push   $0x0
    4336:	de c1                	faddp  %st,%st(1)
    4338:	89 85 c0 fe ff ff    	mov    %eax,-0x140(%ebp)
    433e:	d9 ad ec fe ff ff    	fldcw  -0x114(%ebp)
    4344:	df bd e0 fe ff ff    	fistpll -0x120(%ebp)
    434a:	d9 ad ee fe ff ff    	fldcw  -0x112(%ebp)
    4350:	8b b5 e0 fe ff ff    	mov    -0x120(%ebp),%esi
    4356:	56                   	push   %esi
    4357:	50                   	push   %eax
    4358:	e8 c3 21 00 00       	call   6520 <surface_create>
    435d:	83 c4 10             	add    $0x10,%esp
    4360:	8b 95 c8 fe ff ff    	mov    -0x138(%ebp),%edx
    4366:	85 c0                	test   %eax,%eax
    4368:	74 79                	je     43e3 <bb_render_glyph+0x483>
    436a:	89 95 c8 fe ff ff    	mov    %edx,-0x138(%ebp)
    4370:	89 85 b8 fe ff ff    	mov    %eax,-0x148(%ebp)
    4376:	52                   	push   %edx
    4377:	52                   	push   %edx
    4378:	50                   	push   %eax
    4379:	8d 85 04 ff ff ff    	lea    -0xfc(%ebp),%eax
    437f:	50                   	push   %eax
    4380:	e8 ab 16 00 00       	call   5a30 <drawctx_init>
    4385:	8b 85 cc fe ff ff    	mov    -0x134(%ebp),%eax
    438b:	59                   	pop    %ecx
    438c:	5f                   	pop    %edi
    438d:	50                   	push   %eax
    438e:	8d 85 04 ff ff ff    	lea    -0xfc(%ebp),%eax
    4394:	50                   	push   %eax
    4395:	e8 66 18 00 00       	call   5c00 <drawctx_set_source>
    439a:	8b 85 c0 fe ff ff    	mov    -0x140(%ebp),%eax
    43a0:	89 34 24             	mov    %esi,(%esp)
    43a3:	50                   	push   %eax
    43a4:	8d 85 04 ff ff ff    	lea    -0xfc(%ebp),%eax
    43aa:	6a 00                	push   $0x0
    43ac:	6a 00                	push   $0x0
    43ae:	50                   	push   %eax
    43af:	e8 6c 18 00 00       	call   5c20 <drawctx_transfer>
    43b4:	83 c4 14             	add    $0x14,%esp
    43b7:	8b 85 f8 fe ff ff    	mov    -0x108(%ebp),%eax
    43bd:	50                   	push   %eax
    43be:	e8 2d 22 00 00       	call   65f0 <surface_destroy>
    43c3:	8b 4b 14             	mov    0x14(%ebx),%ecx
    43c6:	8b bd dc fe ff ff    	mov    -0x124(%ebp),%edi
    43cc:	8b 85 b8 fe ff ff    	mov    -0x148(%ebp),%eax
    43d2:	83 c4 10             	add    $0x10,%esp
    43d5:	89 04 39             	mov    %eax,(%ecx,%edi,1)
    43d8:	8b 95 c8 fe ff ff    	mov    -0x138(%ebp),%edx
    43de:	e9 ea fb ff ff       	jmp    3fcd <bb_render_glyph+0x6d>
    43e3:	83 ec 0c             	sub    $0xc,%esp
    43e6:	ff b5 f8 fe ff ff    	pushl  -0x108(%ebp)
    43ec:	e8 ff 21 00 00       	call   65f0 <surface_destroy>
    43f1:	83 c4 10             	add    $0x10,%esp
    43f4:	b8 fe ff ff ff       	mov    $0xfffffffe,%eax
    43f9:	e9 6f fc ff ff       	jmp    406d <bb_render_glyph+0x10d>
    43fe:	66 90                	xchg   %ax,%ax

00004400 <bitmap_font_create>:
    4400:	55                   	push   %ebp
    4401:	89 e5                	mov    %esp,%ebp
    4403:	57                   	push   %edi
    4404:	56                   	push   %esi
    4405:	53                   	push   %ebx
    4406:	83 ec 1c             	sub    $0x1c,%esp
    4409:	8b 75 10             	mov    0x10(%ebp),%esi
    440c:	8b 7d 20             	mov    0x20(%ebp),%edi
    440f:	85 f6                	test   %esi,%esi
    4411:	0f 84 21 01 00 00    	je     4538 <bitmap_font_create+0x138>
    4417:	83 ec 0c             	sub    $0xc,%esp
    441a:	6a 2c                	push   $0x2c
    441c:	e8 0f 3b 00 00       	call   7f30 <malloc@plt>
    4421:	83 c4 10             	add    $0x10,%esp
    4424:	89 c3                	mov    %eax,%ebx
    4426:	85 c0                	test   %eax,%eax
    4428:	0f 84 11 01 00 00    	je     453f <bitmap_font_create+0x13f>
    442e:	66 89 38             	mov    %di,(%eax)
    4431:	89 70 04             	mov    %esi,0x4(%eax)
    4434:	8b 45 08             	mov    0x8(%ebp),%eax
    4437:	8b 55 14             	mov    0x14(%ebp),%edx
    443a:	89 43 18             	mov    %eax,0x18(%ebx)
    443d:	8b 45 0c             	mov    0xc(%ebp),%eax
    4440:	89 43 1c             	mov    %eax,0x1c(%ebx)
    4443:	8b 45 18             	mov    0x18(%ebp),%eax
    4446:	89 43 0c             	mov    %eax,0xc(%ebx)
    4449:	8b 4d 1c             	mov    0x1c(%ebp),%ecx
    444c:	01 d0                	add    %edx,%eax
    444e:	81 e7 ff ff 00 00    	and    $0xffff,%edi
    4454:	89 53 08             	mov    %edx,0x8(%ebx)
    4457:	89 4b 10             	mov    %ecx,0x10(%ebx)
    445a:	39 f8                	cmp    %edi,%eax
    445c:	0f 84 ce 00 00 00    	je     4530 <bitmap_font_create+0x130>
    4462:	89 45 dc             	mov    %eax,-0x24(%ebp)
    4465:	d9 7d e6             	fnstcw -0x1a(%ebp)
    4468:	db 45 dc             	fildl  -0x24(%ebp)
    446b:	89 7d dc             	mov    %edi,-0x24(%ebp)
    446e:	66 8b 45 e6          	mov    -0x1a(%ebp),%ax
    4472:	db 45 dc             	fildl  -0x24(%ebp)
    4475:	d8 f1                	fdiv   %st(1),%st
    4477:	89 55 dc             	mov    %edx,-0x24(%ebp)
    447a:	b4 0c                	mov    $0xc,%ah
    447c:	66 89 45 e4          	mov    %ax,-0x1c(%ebp)
    4480:	db 45 dc             	fildl  -0x24(%ebp)
    4483:	d8 c9                	fmul   %st(1),%st
    4485:	d9 05 7c 7c 00 00    	flds   0x7c7c
    448b:	dc c1                	fadd   %st,%st(1)
    448d:	d9 c9                	fxch   %st(1)
    448f:	d9 6d e4             	fldcw  -0x1c(%ebp)
    4492:	db 5d e0             	fistpl -0x20(%ebp)
    4495:	d9 6d e6             	fldcw  -0x1a(%ebp)
    4498:	d9 ca                	fxch   %st(2)
    449a:	d8 c9                	fmul   %st(1),%st
    449c:	8b 55 e0             	mov    -0x20(%ebp),%edx
    449f:	89 53 08             	mov    %edx,0x8(%ebx)
    44a2:	d9 6d e4             	fldcw  -0x1c(%ebp)
    44a5:	db 5d e0             	fistpl -0x20(%ebp)
    44a8:	d9 6d e6             	fldcw  -0x1a(%ebp)
    44ab:	db 43 10             	fildl  0x10(%ebx)
    44ae:	d8 c9                	fmul   %st(1),%st
    44b0:	8b 45 e0             	mov    -0x20(%ebp),%eax
    44b3:	29 d0                	sub    %edx,%eax
    44b5:	89 43 0c             	mov    %eax,0xc(%ebx)
    44b8:	b0 01                	mov    $0x1,%al
    44ba:	de c2                	faddp  %st,%st(2)
    44bc:	d9 c9                	fxch   %st(1)
    44be:	d9 6d e4             	fldcw  -0x1c(%ebp)
    44c1:	db 5b 10             	fistpl 0x10(%ebx)
    44c4:	d9 6d e6             	fldcw  -0x1a(%ebp)
    44c7:	dd 5b 24             	fstpl  0x24(%ebx)
    44ca:	51                   	push   %ecx
    44cb:	88 43 20             	mov    %al,0x20(%ebx)
    44ce:	51                   	push   %ecx
    44cf:	6a 1c                	push   $0x1c
    44d1:	56                   	push   %esi
    44d2:	e8 b9 3a 00 00       	call   7f90 <calloc@plt>
    44d7:	83 c4 10             	add    $0x10,%esp
    44da:	89 43 14             	mov    %eax,0x14(%ebx)
    44dd:	85 c0                	test   %eax,%eax
    44df:	0f 84 7f 00 00 00    	je     4564 <bitmap_font_create+0x164>
    44e5:	8b 53 04             	mov    0x4(%ebx),%edx
    44e8:	85 d2                	test   %edx,%edx
    44ea:	74 1d                	je     4509 <bitmap_font_create+0x109>
    44ec:	8d 0c d5 00 00 00 00 	lea    0x0(,%edx,8),%ecx
    44f3:	29 d1                	sub    %edx,%ecx
    44f5:	8d 14 88             	lea    (%eax,%ecx,4),%edx
    44f8:	c7 00 00 00 00 00    	movl   $0x0,(%eax)
    44fe:	c6 40 18 00          	movb   $0x0,0x18(%eax)
    4502:	83 c0 1c             	add    $0x1c,%eax
    4505:	39 c2                	cmp    %eax,%edx
    4507:	75 ef                	jne    44f8 <bitmap_font_create+0xf8>
    4509:	52                   	push   %edx
    450a:	52                   	push   %edx
    450b:	53                   	push   %ebx
    450c:	68 fc 99 00 00       	push   $0x99fc
    4511:	e8 aa 19 00 00       	call   5ec0 <font_create>
    4516:	83 c4 10             	add    $0x10,%esp
    4519:	85 c0                	test   %eax,%eax
    451b:	74 29                	je     4546 <bitmap_font_create+0x146>
    451d:	8b 55 24             	mov    0x24(%ebp),%edx
    4520:	89 02                	mov    %eax,(%edx)
    4522:	31 c0                	xor    %eax,%eax
    4524:	8d 65 f4             	lea    -0xc(%ebp),%esp
    4527:	5b                   	pop    %ebx
    4528:	5e                   	pop    %esi
    4529:	5f                   	pop    %edi
    452a:	5d                   	pop    %ebp
    452b:	c3                   	ret    
    452c:	8d 74 26 00          	lea    0x0(%esi,%eiz,1),%esi
    4530:	d9 e8                	fld1   
    4532:	31 c0                	xor    %eax,%eax
    4534:	eb 91                	jmp    44c7 <bitmap_font_create+0xc7>
    4536:	66 90                	xchg   %ax,%ax
    4538:	b8 f2 ff ff ff       	mov    $0xfffffff2,%eax
    453d:	eb e5                	jmp    4524 <bitmap_font_create+0x124>
    453f:	b8 fe ff ff ff       	mov    $0xfffffffe,%eax
    4544:	eb de                	jmp    4524 <bitmap_font_create+0x124>
    4546:	83 ec 0c             	sub    $0xc,%esp
    4549:	8b 43 14             	mov    0x14(%ebx),%eax
    454c:	50                   	push   %eax
    454d:	e8 0e 3c 00 00       	call   8160 <free@plt>
    4552:	89 1c 24             	mov    %ebx,(%esp)
    4555:	e8 06 3c 00 00       	call   8160 <free@plt>
    455a:	83 c4 10             	add    $0x10,%esp
    455d:	b8 fe ff ff ff       	mov    $0xfffffffe,%eax
    4562:	eb c0                	jmp    4524 <bitmap_font_create+0x124>
    4564:	83 ec 0c             	sub    $0xc,%esp
    4567:	53                   	push   %ebx
    4568:	e8 f3 3b 00 00       	call   8160 <free@plt>
    456d:	83 c4 10             	add    $0x10,%esp
    4570:	b8 fe ff ff ff       	mov    $0xfffffffe,%eax
    4575:	eb ad                	jmp    4524 <bitmap_font_create+0x124>
    4577:	66 90                	xchg   %ax,%ax
    4579:	66 90                	xchg   %ax,%ax
    457b:	66 90                	xchg   %ax,%ax
    457d:	66 90                	xchg   %ax,%ax
    457f:	90                   	nop

00004580 <pcf_release>:
    4580:	55                   	push   %ebp
    4581:	89 e5                	mov    %esp,%ebp
    4583:	53                   	push   %ebx
    4584:	83 ec 10             	sub    $0x10,%esp
    4587:	8b 5d 08             	mov    0x8(%ebp),%ebx
    458a:	8b 03                	mov    (%ebx),%eax
    458c:	50                   	push   %eax
    458d:	e8 ee 3a 00 00       	call   8080 <fclose@plt>
    4592:	89 5d 08             	mov    %ebx,0x8(%ebp)
    4595:	83 c4 10             	add    $0x10,%esp
    4598:	8b 5d fc             	mov    -0x4(%ebp),%ebx
    459b:	c9                   	leave  
    459c:	e9 bf 3b 00 00       	jmp    8160 <free@plt>
    45a1:	eb 0d                	jmp    45b0 <pcf_resolve_glyph>
    45a3:	90                   	nop
    45a4:	90                   	nop
    45a5:	90                   	nop
    45a6:	90                   	nop
    45a7:	90                   	nop
    45a8:	90                   	nop
    45a9:	90                   	nop
    45aa:	90                   	nop
    45ab:	90                   	nop
    45ac:	90                   	nop
    45ad:	90                   	nop
    45ae:	90                   	nop
    45af:	90                   	nop

000045b0 <pcf_resolve_glyph>:
    45b0:	55                   	push   %ebp
    45b1:	31 d2                	xor    %edx,%edx
    45b3:	89 e5                	mov    %esp,%ebp
    45b5:	57                   	push   %edi
    45b6:	56                   	push   %esi
    45b7:	53                   	push   %ebx
    45b8:	83 ec 1c             	sub    $0x1c,%esp
    45bb:	31 db                	xor    %ebx,%ebx
    45bd:	8b 75 08             	mov    0x8(%ebp),%esi
    45c0:	8b 4d 0c             	mov    0xc(%ebp),%ecx
    45c3:	31 ff                	xor    %edi,%edi
    45c5:	66 8b 5e 48          	mov    0x48(%esi),%bx
    45c9:	66 8b 56 4a          	mov    0x4a(%esi),%dx
    45cd:	66 8b 7e 4c          	mov    0x4c(%esi),%di
    45d1:	29 da                	sub    %ebx,%edx
    45d3:	0f b6 c5             	movzbl %ch,%eax
    45d6:	29 f8                	sub    %edi,%eax
    45d8:	42                   	inc    %edx
    45d9:	0f af d0             	imul   %eax,%edx
    45dc:	31 c0                	xor    %eax,%eax
    45de:	6a 00                	push   $0x0
    45e0:	88 c8                	mov    %cl,%al
    45e2:	8b 7e 34             	mov    0x34(%esi),%edi
    45e5:	29 d8                	sub    %ebx,%eax
    45e7:	01 d0                	add    %edx,%eax
    45e9:	8d 4f 0e             	lea    0xe(%edi),%ecx
    45ec:	89 c3                	mov    %eax,%ebx
    45ee:	c1 fb 1f             	sar    $0x1f,%ebx
    45f1:	89 da                	mov    %ebx,%edx
    45f3:	31 db                	xor    %ebx,%ebx
    45f5:	0f a4 c2 01          	shld   $0x1,%eax,%edx
    45f9:	01 c0                	add    %eax,%eax
    45fb:	01 c8                	add    %ecx,%eax
    45fd:	11 da                	adc    %ebx,%edx
    45ff:	52                   	push   %edx
    4600:	8b 16                	mov    (%esi),%edx
    4602:	50                   	push   %eax
    4603:	52                   	push   %edx
    4604:	e8 97 39 00 00       	call   7fa0 <fseek@plt>
    4609:	83 c4 10             	add    $0x10,%esp
    460c:	85 c0                	test   %eax,%eax
    460e:	74 18                	je     4628 <pcf_resolve_glyph+0x78>
    4610:	e8 eb 38 00 00       	call   7f00 <__errno@plt>
    4615:	8b 18                	mov    (%eax),%ebx
    4617:	8d 65 f4             	lea    -0xc(%ebp),%esp
    461a:	89 d8                	mov    %ebx,%eax
    461c:	5b                   	pop    %ebx
    461d:	5e                   	pop    %esi
    461e:	5f                   	pop    %edi
    461f:	5d                   	pop    %ebp
    4620:	c3                   	ret    
    4621:	8d b4 26 00 00 00 00 	lea    0x0(%esi,%eiz,1),%esi
    4628:	89 c3                	mov    %eax,%ebx
    462a:	8b 06                	mov    (%esi),%eax
    462c:	50                   	push   %eax
    462d:	8d 45 e6             	lea    -0x1a(%ebp),%eax
    4630:	6a 01                	push   $0x1
    4632:	66 c7 45 e6 00 00    	movw   $0x0,-0x1a(%ebp)
    4638:	6a 02                	push   $0x2
    463a:	50                   	push   %eax
    463b:	e8 e0 39 00 00       	call   8020 <fread@plt>
    4640:	83 c4 10             	add    $0x10,%esp
    4643:	48                   	dec    %eax
    4644:	75 32                	jne    4678 <pcf_resolve_glyph+0xc8>
    4646:	66 8b 7d e6          	mov    -0x1a(%ebp),%di
    464a:	f6 46 2c 04          	testb  $0x4,0x2c(%esi)
    464e:	75 20                	jne    4670 <pcf_resolve_glyph+0xc0>
    4650:	66 83 ff ff          	cmp    $0xffff,%di
    4654:	74 29                	je     467f <pcf_resolve_glyph+0xcf>
    4656:	8b 55 10             	mov    0x10(%ebp),%edx
    4659:	31 c0                	xor    %eax,%eax
    465b:	66 89 f8             	mov    %di,%ax
    465e:	89 02                	mov    %eax,(%edx)
    4660:	8d 65 f4             	lea    -0xc(%ebp),%esp
    4663:	89 d8                	mov    %ebx,%eax
    4665:	5b                   	pop    %ebx
    4666:	5e                   	pop    %esi
    4667:	5f                   	pop    %edi
    4668:	5d                   	pop    %ebp
    4669:	c3                   	ret    
    466a:	8d b6 00 00 00 00    	lea    0x0(%esi),%esi
    4670:	66 c1 c7 08          	rol    $0x8,%di
    4674:	eb da                	jmp    4650 <pcf_resolve_glyph+0xa0>
    4676:	66 90                	xchg   %ax,%ax
    4678:	bb f2 ff ff ff       	mov    $0xfffffff2,%ebx
    467d:	eb 98                	jmp    4617 <pcf_resolve_glyph+0x67>
    467f:	83 cb ff             	or     $0xffffffff,%ebx
    4682:	eb 93                	jmp    4617 <pcf_resolve_glyph+0x67>
    4684:	8d b6 00 00 00 00    	lea    0x0(%esi),%esi
    468a:	8d bf 00 00 00 00    	lea    0x0(%edi),%edi

00004690 <pcf_load_glyph_surface>:
    4690:	55                   	push   %ebp
    4691:	89 e5                	mov    %esp,%ebp
    4693:	57                   	push   %edi
    4694:	56                   	push   %esi
    4695:	53                   	push   %ebx
    4696:	83 ec 60             	sub    $0x60,%esp
    4699:	8d 45 d0             	lea    -0x30(%ebp),%eax
    469c:	8b 75 08             	mov    0x8(%ebp),%esi
    469f:	8b 5d 0c             	mov    0xc(%ebp),%ebx
    46a2:	6a 0c                	push   $0xc
    46a4:	6a 00                	push   $0x0
    46a6:	50                   	push   %eax
    46a7:	e8 a4 39 00 00       	call   8050 <memset@plt>
    46ac:	83 c4 10             	add    $0x10,%esp
    46af:	f6 46 1d 01          	testb  $0x1,0x1d(%esi)
    46b3:	74 43                	je     46f8 <pcf_load_glyph_surface+0x68>
    46b5:	6a 00                	push   $0x0
    46b7:	8d 44 9b 06          	lea    0x6(%ebx,%ebx,4),%eax
    46bb:	8b 56 24             	mov    0x24(%esi),%edx
    46be:	8b 0e                	mov    (%esi),%ecx
    46c0:	01 d0                	add    %edx,%eax
    46c2:	31 d2                	xor    %edx,%edx
    46c4:	52                   	push   %edx
    46c5:	50                   	push   %eax
    46c6:	51                   	push   %ecx
    46c7:	e8 d4 38 00 00       	call   7fa0 <fseek@plt>
    46cc:	83 c4 10             	add    $0x10,%esp
    46cf:	85 c0                	test   %eax,%eax
    46d1:	0f 84 d1 00 00 00    	je     47a8 <pcf_load_glyph_surface+0x118>
    46d7:	e8 24 38 00 00       	call   7f00 <__errno@plt>
    46dc:	8b 00                	mov    (%eax),%eax
    46de:	89 45 a8             	mov    %eax,-0x58(%ebp)
    46e1:	8b 45 a8             	mov    -0x58(%ebp),%eax
    46e4:	85 c0                	test   %eax,%eax
    46e6:	0f 84 84 00 00 00    	je     4770 <pcf_load_glyph_surface+0xe0>
    46ec:	8b 45 a8             	mov    -0x58(%ebp),%eax
    46ef:	8d 65 f4             	lea    -0xc(%ebp),%esp
    46f2:	5b                   	pop    %ebx
    46f3:	5e                   	pop    %esi
    46f4:	5f                   	pop    %edi
    46f5:	5d                   	pop    %ebp
    46f6:	c3                   	ret    
    46f7:	90                   	nop
    46f8:	6a 00                	push   $0x0
    46fa:	8d 14 5b             	lea    (%ebx,%ebx,2),%edx
    46fd:	8b 46 24             	mov    0x24(%esi),%eax
    4700:	8d 44 90 08          	lea    0x8(%eax,%edx,4),%eax
    4704:	31 d2                	xor    %edx,%edx
    4706:	52                   	push   %edx
    4707:	50                   	push   %eax
    4708:	8b 06                	mov    (%esi),%eax
    470a:	50                   	push   %eax
    470b:	e8 90 38 00 00       	call   7fa0 <fseek@plt>
    4710:	83 c4 10             	add    $0x10,%esp
    4713:	85 c0                	test   %eax,%eax
    4715:	75 c0                	jne    46d7 <pcf_load_glyph_surface+0x47>
    4717:	8b 3e                	mov    (%esi),%edi
    4719:	8d 45 dc             	lea    -0x24(%ebp),%eax
    471c:	57                   	push   %edi
    471d:	6a 01                	push   $0x1
    471f:	6a 0c                	push   $0xc
    4721:	50                   	push   %eax
    4722:	e8 f9 38 00 00       	call   8020 <fread@plt>
    4727:	83 c4 10             	add    $0x10,%esp
    472a:	c7 45 a8 f2 ff ff ff 	movl   $0xfffffff2,-0x58(%ebp)
    4731:	48                   	dec    %eax
    4732:	75 b8                	jne    46ec <pcf_load_glyph_surface+0x5c>
    4734:	8b 45 dc             	mov    -0x24(%ebp),%eax
    4737:	f6 46 1c 04          	testb  $0x4,0x1c(%esi)
    473b:	0f 85 9d 02 00 00    	jne    49de <pcf_load_glyph_surface+0x34e>
    4741:	66 89 45 d0          	mov    %ax,-0x30(%ebp)
    4745:	66 8b 45 de          	mov    -0x22(%ebp),%ax
    4749:	66 89 45 d2          	mov    %ax,-0x2e(%ebp)
    474d:	8b 45 e0             	mov    -0x20(%ebp),%eax
    4750:	66 89 45 d4          	mov    %ax,-0x2c(%ebp)
    4754:	66 8b 45 e2          	mov    -0x1e(%ebp),%ax
    4758:	66 89 45 d6          	mov    %ax,-0x2a(%ebp)
    475c:	8b 45 e4             	mov    -0x1c(%ebp),%eax
    475f:	66 89 45 d8          	mov    %ax,-0x28(%ebp)
    4763:	66 8b 45 e6          	mov    -0x1a(%ebp),%ax
    4767:	66 89 45 da          	mov    %ax,-0x26(%ebp)
    476b:	90                   	nop
    476c:	8d 74 26 00          	lea    0x0(%esi,%eiz,1),%esi
    4770:	6a 00                	push   $0x0
    4772:	31 d2                	xor    %edx,%edx
    4774:	8b 46 14             	mov    0x14(%esi),%eax
    4777:	8b 0e                	mov    (%esi),%ecx
    4779:	52                   	push   %edx
    477a:	8d 44 98 08          	lea    0x8(%eax,%ebx,4),%eax
    477e:	50                   	push   %eax
    477f:	51                   	push   %ecx
    4780:	e8 1b 38 00 00       	call   7fa0 <fseek@plt>
    4785:	83 c4 10             	add    $0x10,%esp
    4788:	85 c0                	test   %eax,%eax
    478a:	0f 84 80 00 00 00    	je     4810 <pcf_load_glyph_surface+0x180>
    4790:	e8 6b 37 00 00       	call   7f00 <__errno@plt>
    4795:	8b 00                	mov    (%eax),%eax
    4797:	89 45 a8             	mov    %eax,-0x58(%ebp)
    479a:	8b 45 a8             	mov    -0x58(%ebp),%eax
    479d:	8d 65 f4             	lea    -0xc(%ebp),%esp
    47a0:	5b                   	pop    %ebx
    47a1:	5e                   	pop    %esi
    47a2:	5f                   	pop    %edi
    47a3:	5d                   	pop    %ebp
    47a4:	c3                   	ret    
    47a5:	8d 76 00             	lea    0x0(%esi),%esi
    47a8:	8b 06                	mov    (%esi),%eax
    47aa:	50                   	push   %eax
    47ab:	8d 45 dc             	lea    -0x24(%ebp),%eax
    47ae:	6a 01                	push   $0x1
    47b0:	6a 05                	push   $0x5
    47b2:	50                   	push   %eax
    47b3:	e8 68 38 00 00       	call   8020 <fread@plt>
    47b8:	83 c4 10             	add    $0x10,%esp
    47bb:	c7 45 a8 f2 ff ff ff 	movl   $0xfffffff2,-0x58(%ebp)
    47c2:	48                   	dec    %eax
    47c3:	0f 85 23 ff ff ff    	jne    46ec <pcf_load_glyph_surface+0x5c>
    47c9:	31 c0                	xor    %eax,%eax
    47cb:	66 c7 45 da 00 00    	movw   $0x0,-0x26(%ebp)
    47d1:	8a 45 dc             	mov    -0x24(%ebp),%al
    47d4:	83 c0 80             	add    $0xffffff80,%eax
    47d7:	66 89 45 d0          	mov    %ax,-0x30(%ebp)
    47db:	31 c0                	xor    %eax,%eax
    47dd:	8a 45 dd             	mov    -0x23(%ebp),%al
    47e0:	83 c0 80             	add    $0xffffff80,%eax
    47e3:	66 89 45 d2          	mov    %ax,-0x2e(%ebp)
    47e7:	31 c0                	xor    %eax,%eax
    47e9:	8a 45 de             	mov    -0x22(%ebp),%al
    47ec:	83 c0 80             	add    $0xffffff80,%eax
    47ef:	66 89 45 d4          	mov    %ax,-0x2c(%ebp)
    47f3:	31 c0                	xor    %eax,%eax
    47f5:	8a 45 df             	mov    -0x21(%ebp),%al
    47f8:	83 c0 80             	add    $0xffffff80,%eax
    47fb:	66 89 45 d6          	mov    %ax,-0x2a(%ebp)
    47ff:	31 c0                	xor    %eax,%eax
    4801:	8a 45 e0             	mov    -0x20(%ebp),%al
    4804:	83 c0 80             	add    $0xffffff80,%eax
    4807:	66 89 45 d8          	mov    %ax,-0x28(%ebp)
    480b:	e9 60 ff ff ff       	jmp    4770 <pcf_load_glyph_surface+0xe0>
    4810:	8b 16                	mov    (%esi),%edx
    4812:	8d 45 dc             	lea    -0x24(%ebp),%eax
    4815:	52                   	push   %edx
    4816:	c7 45 dc 00 00 00 00 	movl   $0x0,-0x24(%ebp)
    481d:	6a 01                	push   $0x1
    481f:	6a 04                	push   $0x4
    4821:	50                   	push   %eax
    4822:	e8 f9 37 00 00       	call   8020 <fread@plt>
    4827:	83 c4 10             	add    $0x10,%esp
    482a:	48                   	dec    %eax
    482b:	0f 85 f0 01 00 00    	jne    4a21 <pcf_load_glyph_surface+0x391>
    4831:	8b 45 dc             	mov    -0x24(%ebp),%eax
    4834:	f6 46 0c 04          	testb  $0x4,0xc(%esi)
    4838:	89 c2                	mov    %eax,%edx
    483a:	0f ca                	bswap  %edx
    483c:	75 02                	jne    4840 <pcf_load_glyph_surface+0x1b0>
    483e:	89 c2                	mov    %eax,%edx
    4840:	6a 00                	push   $0x0
    4842:	89 55 dc             	mov    %edx,-0x24(%ebp)
    4845:	8b 4e 04             	mov    0x4(%esi),%ecx
    4848:	8b 46 14             	mov    0x14(%esi),%eax
    484b:	8d 44 88 18          	lea    0x18(%eax,%ecx,4),%eax
    484f:	01 d0                	add    %edx,%eax
    4851:	31 d2                	xor    %edx,%edx
    4853:	52                   	push   %edx
    4854:	50                   	push   %eax
    4855:	8b 06                	mov    (%esi),%eax
    4857:	50                   	push   %eax
    4858:	e8 43 37 00 00       	call   7fa0 <fseek@plt>
    485d:	83 c4 10             	add    $0x10,%esp
    4860:	89 45 a8             	mov    %eax,-0x58(%ebp)
    4863:	85 c0                	test   %eax,%eax
    4865:	0f 85 25 ff ff ff    	jne    4790 <pcf_load_glyph_surface+0x100>
    486b:	0f bf 45 d4          	movswl -0x2c(%ebp),%eax
    486f:	0f bf 55 d6          	movswl -0x2a(%ebp),%edx
    4873:	89 45 c0             	mov    %eax,-0x40(%ebp)
    4876:	bb 01 00 00 00       	mov    $0x1,%ebx
    487b:	0f bf 45 d8          	movswl -0x28(%ebp),%eax
    487f:	01 d0                	add    %edx,%eax
    4881:	8b 56 0c             	mov    0xc(%esi),%edx
    4884:	89 d1                	mov    %edx,%ecx
    4886:	89 c7                	mov    %eax,%edi
    4888:	c1 ea 04             	shr    $0x4,%edx
    488b:	83 e1 03             	and    $0x3,%ecx
    488e:	83 e2 03             	and    $0x3,%edx
    4891:	89 d8                	mov    %ebx,%eax
    4893:	d3 e0                	shl    %cl,%eax
    4895:	89 55 b8             	mov    %edx,-0x48(%ebp)
    4898:	88 d1                	mov    %dl,%cl
    489a:	8b 55 c0             	mov    -0x40(%ebp),%edx
    489d:	89 7d a0             	mov    %edi,-0x60(%ebp)
    48a0:	83 c2 07             	add    $0x7,%edx
    48a3:	83 ec 0c             	sub    $0xc,%esp
    48a6:	c1 fa 03             	sar    $0x3,%edx
    48a9:	d3 e3                	shl    %cl,%ebx
    48ab:	8d 54 10 ff          	lea    -0x1(%eax,%edx,1),%edx
    48af:	f7 d8                	neg    %eax
    48b1:	21 c2                	and    %eax,%edx
    48b3:	0f af fa             	imul   %edx,%edi
    48b6:	89 55 9c             	mov    %edx,-0x64(%ebp)
    48b9:	57                   	push   %edi
    48ba:	e8 71 36 00 00       	call   7f30 <malloc@plt>
    48bf:	83 c4 10             	add    $0x10,%esp
    48c2:	89 c1                	mov    %eax,%ecx
    48c4:	89 45 bc             	mov    %eax,-0x44(%ebp)
    48c7:	85 c0                	test   %eax,%eax
    48c9:	0f 84 5e 01 00 00    	je     4a2d <pcf_load_glyph_surface+0x39d>
    48cf:	8b 06                	mov    (%esi),%eax
    48d1:	50                   	push   %eax
    48d2:	57                   	push   %edi
    48d3:	6a 01                	push   $0x1
    48d5:	51                   	push   %ecx
    48d6:	e8 45 37 00 00       	call   8020 <fread@plt>
    48db:	8b 7d a0             	mov    -0x60(%ebp),%edi
    48de:	8b 45 c0             	mov    -0x40(%ebp),%eax
    48e1:	6a 00                	push   $0x0
    48e3:	6a 00                	push   $0x0
    48e5:	57                   	push   %edi
    48e6:	50                   	push   %eax
    48e7:	e8 34 1c 00 00       	call   6520 <surface_create>
    48ec:	83 c4 20             	add    $0x20,%esp
    48ef:	89 45 b4             	mov    %eax,-0x4c(%ebp)
    48f2:	85 c0                	test   %eax,%eax
    48f4:	0f 84 3f 01 00 00    	je     4a39 <pcf_load_glyph_surface+0x3a9>
    48fa:	85 ff                	test   %edi,%edi
    48fc:	0f 84 c0 00 00 00    	je     49c2 <pcf_load_glyph_surface+0x332>
    4902:	b8 08 00 00 00       	mov    $0x8,%eax
    4907:	8a 4d b8             	mov    -0x48(%ebp),%cl
    490a:	d3 e0                	shl    %cl,%eax
    490c:	89 45 ac             	mov    %eax,-0x54(%ebp)
    490f:	48                   	dec    %eax
    4910:	89 45 b0             	mov    %eax,-0x50(%ebp)
    4913:	8b 45 c0             	mov    -0x40(%ebp),%eax
    4916:	85 c0                	test   %eax,%eax
    4918:	0f 84 a4 00 00 00    	je     49c2 <pcf_load_glyph_surface+0x332>
    491e:	31 d2                	xor    %edx,%edx
    4920:	8d 43 ff             	lea    -0x1(%ebx),%eax
    4923:	89 75 08             	mov    %esi,0x8(%ebp)
    4926:	31 ff                	xor    %edi,%edi
    4928:	89 45 a4             	mov    %eax,-0x5c(%ebp)
    492b:	89 d6                	mov    %edx,%esi
    492d:	8d 76 00             	lea    0x0(%esi),%esi
    4930:	31 db                	xor    %ebx,%ebx
    4932:	89 75 c4             	mov    %esi,-0x3c(%ebp)
    4935:	eb 2c                	jmp    4963 <pcf_load_glyph_surface+0x2d3>
    4937:	90                   	nop
    4938:	83 f1 ff             	xor    $0xffffffff,%ecx
    493b:	83 e1 07             	and    $0x7,%ecx
    493e:	d3 f8                	sar    %cl,%eax
    4940:	83 e0 01             	and    $0x1,%eax
    4943:	c1 e0 1f             	shl    $0x1f,%eax
    4946:	c1 f8 1f             	sar    $0x1f,%eax
    4949:	25 00 00 00 ff       	and    $0xff000000,%eax
    494e:	50                   	push   %eax
    494f:	8b 45 b4             	mov    -0x4c(%ebp),%eax
    4952:	57                   	push   %edi
    4953:	53                   	push   %ebx
    4954:	43                   	inc    %ebx
    4955:	50                   	push   %eax
    4956:	e8 95 1e 00 00       	call   67f0 <surface_put_pixel>
    495b:	83 c4 10             	add    $0x10,%esp
    495e:	39 5d c0             	cmp    %ebx,-0x40(%ebp)
    4961:	74 4d                	je     49b0 <pcf_load_glyph_surface+0x320>
    4963:	31 d2                	xor    %edx,%edx
    4965:	89 d8                	mov    %ebx,%eax
    4967:	f7 75 ac             	divl   -0x54(%ebp)
    496a:	8a 4d b8             	mov    -0x48(%ebp),%cl
    496d:	8b 55 b0             	mov    -0x50(%ebp),%edx
    4970:	d3 e0                	shl    %cl,%eax
    4972:	8b 4d 08             	mov    0x8(%ebp),%ecx
    4975:	21 da                	and    %ebx,%edx
    4977:	c1 ea 03             	shr    $0x3,%edx
    497a:	8b 49 0c             	mov    0xc(%ecx),%ecx
    497d:	f6 c1 04             	test   $0x4,%cl
    4980:	74 07                	je     4989 <pcf_load_glyph_surface+0x2f9>
    4982:	8b 75 a4             	mov    -0x5c(%ebp),%esi
    4985:	29 d6                	sub    %edx,%esi
    4987:	89 f2                	mov    %esi,%edx
    4989:	8b 75 bc             	mov    -0x44(%ebp),%esi
    498c:	01 f2                	add    %esi,%edx
    498e:	8b 75 c4             	mov    -0x3c(%ebp),%esi
    4991:	01 d0                	add    %edx,%eax
    4993:	8a 04 30             	mov    (%eax,%esi,1),%al
    4996:	25 ff 00 00 00       	and    $0xff,%eax
    499b:	83 e1 08             	and    $0x8,%ecx
    499e:	89 d9                	mov    %ebx,%ecx
    49a0:	75 96                	jne    4938 <pcf_load_glyph_surface+0x2a8>
    49a2:	83 e1 07             	and    $0x7,%ecx
    49a5:	d3 f8                	sar    %cl,%eax
    49a7:	83 e0 01             	and    $0x1,%eax
    49aa:	eb 97                	jmp    4943 <pcf_load_glyph_surface+0x2b3>
    49ac:	8d 74 26 00          	lea    0x0(%esi,%eiz,1),%esi
    49b0:	8b 75 c4             	mov    -0x3c(%ebp),%esi
    49b3:	47                   	inc    %edi
    49b4:	8b 45 9c             	mov    -0x64(%ebp),%eax
    49b7:	01 c6                	add    %eax,%esi
    49b9:	39 7d a0             	cmp    %edi,-0x60(%ebp)
    49bc:	0f 85 6e ff ff ff    	jne    4930 <pcf_load_glyph_surface+0x2a0>
    49c2:	8b 45 10             	mov    0x10(%ebp),%eax
    49c5:	83 ec 0c             	sub    $0xc,%esp
    49c8:	8b 7d b4             	mov    -0x4c(%ebp),%edi
    49cb:	89 38                	mov    %edi,(%eax)
    49cd:	8b 45 bc             	mov    -0x44(%ebp),%eax
    49d0:	50                   	push   %eax
    49d1:	e8 8a 37 00 00       	call   8160 <free@plt>
    49d6:	83 c4 10             	add    $0x10,%esp
    49d9:	e9 0e fd ff ff       	jmp    46ec <pcf_load_glyph_surface+0x5c>
    49de:	66 c1 c0 08          	rol    $0x8,%ax
    49e2:	66 89 45 d0          	mov    %ax,-0x30(%ebp)
    49e6:	66 8b 45 de          	mov    -0x22(%ebp),%ax
    49ea:	66 c1 c0 08          	rol    $0x8,%ax
    49ee:	66 89 45 d2          	mov    %ax,-0x2e(%ebp)
    49f2:	8b 45 e0             	mov    -0x20(%ebp),%eax
    49f5:	66 c1 c0 08          	rol    $0x8,%ax
    49f9:	66 89 45 d4          	mov    %ax,-0x2c(%ebp)
    49fd:	66 8b 45 e2          	mov    -0x1e(%ebp),%ax
    4a01:	66 c1 c0 08          	rol    $0x8,%ax
    4a05:	66 89 45 d6          	mov    %ax,-0x2a(%ebp)
    4a09:	8b 45 e4             	mov    -0x1c(%ebp),%eax
    4a0c:	66 c1 c0 08          	rol    $0x8,%ax
    4a10:	66 89 45 d8          	mov    %ax,-0x28(%ebp)
    4a14:	66 8b 45 e6          	mov    -0x1a(%ebp),%ax
    4a18:	66 c1 c0 08          	rol    $0x8,%ax
    4a1c:	e9 46 fd ff ff       	jmp    4767 <pcf_load_glyph_surface+0xd7>
    4a21:	c7 45 a8 f2 ff ff ff 	movl   $0xfffffff2,-0x58(%ebp)
    4a28:	e9 bf fc ff ff       	jmp    46ec <pcf_load_glyph_surface+0x5c>
    4a2d:	c7 45 a8 fe ff ff ff 	movl   $0xfffffffe,-0x58(%ebp)
    4a34:	e9 b3 fc ff ff       	jmp    46ec <pcf_load_glyph_surface+0x5c>
    4a39:	83 ec 0c             	sub    $0xc,%esp
    4a3c:	ff 75 bc             	pushl  -0x44(%ebp)
    4a3f:	e8 1c 37 00 00       	call   8160 <free@plt>
    4a44:	83 c4 10             	add    $0x10,%esp
    4a47:	c7 45 a8 fe ff ff ff 	movl   $0xfffffffe,-0x58(%ebp)
    4a4e:	e9 99 fc ff ff       	jmp    46ec <pcf_load_glyph_surface+0x5c>
    4a53:	8d b6 00 00 00 00    	lea    0x0(%esi),%esi
    4a59:	8d bc 27 00 00 00 00 	lea    0x0(%edi,%eiz,1),%edi

00004a60 <pcf_load_glyph_metrics>:
    4a60:	55                   	push   %ebp
    4a61:	89 e5                	mov    %esp,%ebp
    4a63:	57                   	push   %edi
    4a64:	56                   	push   %esi
    4a65:	53                   	push   %ebx
    4a66:	83 ec 30             	sub    $0x30,%esp
    4a69:	8d 45 d0             	lea    -0x30(%ebp),%eax
    4a6c:	8b 5d 08             	mov    0x8(%ebp),%ebx
    4a6f:	8b 7d 0c             	mov    0xc(%ebp),%edi
    4a72:	6a 0c                	push   $0xc
    4a74:	6a 00                	push   $0x0
    4a76:	50                   	push   %eax
    4a77:	8b 75 10             	mov    0x10(%ebp),%esi
    4a7a:	e8 d1 35 00 00       	call   8050 <memset@plt>
    4a7f:	83 c4 10             	add    $0x10,%esp
    4a82:	f6 43 1d 01          	testb  $0x1,0x1d(%ebx)
    4a86:	74 68                	je     4af0 <pcf_load_glyph_metrics+0x90>
    4a88:	6a 00                	push   $0x0
    4a8a:	8d 44 bf 06          	lea    0x6(%edi,%edi,4),%eax
    4a8e:	8b 7b 24             	mov    0x24(%ebx),%edi
    4a91:	31 d2                	xor    %edx,%edx
    4a93:	01 f8                	add    %edi,%eax
    4a95:	52                   	push   %edx
    4a96:	50                   	push   %eax
    4a97:	8b 03                	mov    (%ebx),%eax
    4a99:	50                   	push   %eax
    4a9a:	e8 01 35 00 00       	call   7fa0 <fseek@plt>
    4a9f:	83 c4 10             	add    $0x10,%esp
    4aa2:	85 c0                	test   %eax,%eax
    4aa4:	0f 84 9e 00 00 00    	je     4b48 <pcf_load_glyph_metrics+0xe8>
    4aaa:	e8 51 34 00 00       	call   7f00 <__errno@plt>
    4aaf:	8b 00                	mov    (%eax),%eax
    4ab1:	85 c0                	test   %eax,%eax
    4ab3:	75 32                	jne    4ae7 <pcf_load_glyph_metrics+0x87>
    4ab5:	8b 7d d0             	mov    -0x30(%ebp),%edi
    4ab8:	8b 5d d4             	mov    -0x2c(%ebp),%ebx
    4abb:	66 8b 55 d2          	mov    -0x2e(%ebp),%dx
    4abf:	8b 45 d8             	mov    -0x28(%ebp),%eax
    4ac2:	66 8b 4d d6          	mov    -0x2a(%ebp),%cx
    4ac6:	0f bf db             	movswl %bx,%ebx
    4ac9:	0f bf d2             	movswl %dx,%edx
    4acc:	29 da                	sub    %ebx,%edx
    4ace:	89 5e 04             	mov    %ebx,0x4(%esi)
    4ad1:	89 56 08             	mov    %edx,0x8(%esi)
    4ad4:	98                   	cwtl   
    4ad5:	0f bf d1             	movswl %cx,%edx
    4ad8:	01 d0                	add    %edx,%eax
    4ada:	89 56 0c             	mov    %edx,0xc(%esi)
    4add:	0f bf ff             	movswl %di,%edi
    4ae0:	89 46 10             	mov    %eax,0x10(%esi)
    4ae3:	89 3e                	mov    %edi,(%esi)
    4ae5:	31 c0                	xor    %eax,%eax
    4ae7:	8d 65 f4             	lea    -0xc(%ebp),%esp
    4aea:	5b                   	pop    %ebx
    4aeb:	5e                   	pop    %esi
    4aec:	5f                   	pop    %edi
    4aed:	5d                   	pop    %ebp
    4aee:	c3                   	ret    
    4aef:	90                   	nop
    4af0:	6a 00                	push   $0x0
    4af2:	8d 14 7f             	lea    (%edi,%edi,2),%edx
    4af5:	8b 43 24             	mov    0x24(%ebx),%eax
    4af8:	8d 44 90 08          	lea    0x8(%eax,%edx,4),%eax
    4afc:	31 d2                	xor    %edx,%edx
    4afe:	52                   	push   %edx
    4aff:	8b 13                	mov    (%ebx),%edx
    4b01:	50                   	push   %eax
    4b02:	52                   	push   %edx
    4b03:	e8 98 34 00 00       	call   7fa0 <fseek@plt>
    4b08:	83 c4 10             	add    $0x10,%esp
    4b0b:	85 c0                	test   %eax,%eax
    4b0d:	75 9b                	jne    4aaa <pcf_load_glyph_metrics+0x4a>
    4b0f:	8b 03                	mov    (%ebx),%eax
    4b11:	50                   	push   %eax
    4b12:	8d 45 dc             	lea    -0x24(%ebp),%eax
    4b15:	6a 01                	push   $0x1
    4b17:	6a 0c                	push   $0xc
    4b19:	50                   	push   %eax
    4b1a:	e8 01 35 00 00       	call   8020 <fread@plt>
    4b1f:	89 c2                	mov    %eax,%edx
    4b21:	83 c4 10             	add    $0x10,%esp
    4b24:	b8 f2 ff ff ff       	mov    $0xfffffff2,%eax
    4b29:	4a                   	dec    %edx
    4b2a:	75 bb                	jne    4ae7 <pcf_load_glyph_metrics+0x87>
    4b2c:	8b 7d dc             	mov    -0x24(%ebp),%edi
    4b2f:	f6 43 1c 04          	testb  $0x4,0x1c(%ebx)
    4b33:	75 6b                	jne    4ba0 <pcf_load_glyph_metrics+0x140>
    4b35:	66 8b 55 de          	mov    -0x22(%ebp),%dx
    4b39:	8b 5d e0             	mov    -0x20(%ebp),%ebx
    4b3c:	66 8b 4d e2          	mov    -0x1e(%ebp),%cx
    4b40:	8b 45 e4             	mov    -0x1c(%ebp),%eax
    4b43:	e9 7e ff ff ff       	jmp    4ac6 <pcf_load_glyph_metrics+0x66>
    4b48:	8b 0b                	mov    (%ebx),%ecx
    4b4a:	8d 45 dc             	lea    -0x24(%ebp),%eax
    4b4d:	51                   	push   %ecx
    4b4e:	6a 01                	push   $0x1
    4b50:	6a 05                	push   $0x5
    4b52:	50                   	push   %eax
    4b53:	e8 c8 34 00 00       	call   8020 <fread@plt>
    4b58:	83 c4 10             	add    $0x10,%esp
    4b5b:	89 c2                	mov    %eax,%edx
    4b5d:	b8 f2 ff ff ff       	mov    $0xfffffff2,%eax
    4b62:	4a                   	dec    %edx
    4b63:	0f 85 7e ff ff ff    	jne    4ae7 <pcf_load_glyph_metrics+0x87>
    4b69:	0f b6 7d dc          	movzbl -0x24(%ebp),%edi
    4b6d:	31 d2                	xor    %edx,%edx
    4b6f:	31 db                	xor    %ebx,%ebx
    4b71:	31 c9                	xor    %ecx,%ecx
    4b73:	31 c0                	xor    %eax,%eax
    4b75:	81 e7 ff 00 00 00    	and    $0xff,%edi
    4b7b:	8a 55 dd             	mov    -0x23(%ebp),%dl
    4b7e:	8a 5d de             	mov    -0x22(%ebp),%bl
    4b81:	8a 4d df             	mov    -0x21(%ebp),%cl
    4b84:	8a 45 e0             	mov    -0x20(%ebp),%al
    4b87:	83 c7 80             	add    $0xffffff80,%edi
    4b8a:	83 c2 80             	add    $0xffffff80,%edx
    4b8d:	83 c3 80             	add    $0xffffff80,%ebx
    4b90:	83 c1 80             	add    $0xffffff80,%ecx
    4b93:	83 c0 80             	add    $0xffffff80,%eax
    4b96:	e9 2b ff ff ff       	jmp    4ac6 <pcf_load_glyph_metrics+0x66>
    4b9b:	90                   	nop
    4b9c:	8d 74 26 00          	lea    0x0(%esi,%eiz,1),%esi
    4ba0:	66 8b 4d e2          	mov    -0x1e(%ebp),%cx
    4ba4:	8b 45 e4             	mov    -0x1c(%ebp),%eax
    4ba7:	66 8b 55 de          	mov    -0x22(%ebp),%dx
    4bab:	8b 5d e0             	mov    -0x20(%ebp),%ebx
    4bae:	66 c1 c1 08          	rol    $0x8,%cx
    4bb2:	66 c1 c0 08          	rol    $0x8,%ax
    4bb6:	66 c1 c2 08          	rol    $0x8,%dx
    4bba:	66 c1 c3 08          	rol    $0x8,%bx
    4bbe:	66 c1 c7 08          	rol    $0x8,%di
    4bc2:	e9 ff fe ff ff       	jmp    4ac6 <pcf_load_glyph_metrics+0x66>
    4bc7:	89 f6                	mov    %esi,%esi
    4bc9:	8d bc 27 00 00 00 00 	lea    0x0(%edi,%eiz,1),%edi

00004bd0 <pcf_font_create>:
    4bd0:	55                   	push   %ebp
    4bd1:	89 e5                	mov    %esp,%ebp
    4bd3:	57                   	push   %edi
    4bd4:	56                   	push   %esi
    4bd5:	53                   	push   %ebx
    4bd6:	83 ec 58             	sub    $0x58,%esp
    4bd9:	8b 45 10             	mov    0x10(%ebp),%eax
    4bdc:	6a 60                	push   $0x60
    4bde:	89 45 bc             	mov    %eax,-0x44(%ebp)
    4be1:	e8 4a 33 00 00       	call   7f30 <malloc@plt>
    4be6:	83 c4 10             	add    $0x10,%esp
    4be9:	85 c0                	test   %eax,%eax
    4beb:	0f 84 0b 05 00 00    	je     50fc <pcf_font_create+0x52c>
    4bf1:	8b 55 0c             	mov    0xc(%ebp),%edx
    4bf4:	89 c6                	mov    %eax,%esi
    4bf6:	50                   	push   %eax
    4bf7:	50                   	push   %eax
    4bf8:	68 80 7c 00 00       	push   $0x7c80
    4bfd:	52                   	push   %edx
    4bfe:	e8 3d 34 00 00       	call   8040 <fopen@plt>
    4c03:	83 c4 10             	add    $0x10,%esp
    4c06:	89 06                	mov    %eax,(%esi)
    4c08:	85 c0                	test   %eax,%eax
    4c0a:	0f 84 90 01 00 00    	je     4da0 <pcf_font_create+0x1d0>
    4c10:	6a 02                	push   $0x2
    4c12:	6a 00                	push   $0x0
    4c14:	6a 00                	push   $0x0
    4c16:	50                   	push   %eax
    4c17:	e8 84 33 00 00       	call   7fa0 <fseek@plt>
    4c1c:	83 c4 10             	add    $0x10,%esp
    4c1f:	85 c0                	test   %eax,%eax
    4c21:	74 3d                	je     4c60 <pcf_font_create+0x90>
    4c23:	e8 d8 32 00 00       	call   7f00 <__errno@plt>
    4c28:	8b 18                	mov    (%eax),%ebx
    4c2a:	85 db                	test   %ebx,%ebx
    4c2c:	0f 84 a6 01 00 00    	je     4dd8 <pcf_font_create+0x208>
    4c32:	8b 06                	mov    (%esi),%eax
    4c34:	85 c0                	test   %eax,%eax
    4c36:	74 0c                	je     4c44 <pcf_font_create+0x74>
    4c38:	83 ec 0c             	sub    $0xc,%esp
    4c3b:	50                   	push   %eax
    4c3c:	e8 3f 34 00 00       	call   8080 <fclose@plt>
    4c41:	83 c4 10             	add    $0x10,%esp
    4c44:	83 ec 0c             	sub    $0xc,%esp
    4c47:	56                   	push   %esi
    4c48:	e8 13 35 00 00       	call   8160 <free@plt>
    4c4d:	83 c4 10             	add    $0x10,%esp
    4c50:	8d 65 f4             	lea    -0xc(%ebp),%esp
    4c53:	89 d8                	mov    %ebx,%eax
    4c55:	5b                   	pop    %ebx
    4c56:	5e                   	pop    %esi
    4c57:	5f                   	pop    %edi
    4c58:	5d                   	pop    %ebp
    4c59:	c3                   	ret    
    4c5a:	8d b6 00 00 00 00    	lea    0x0(%esi),%esi
    4c60:	83 ec 0c             	sub    $0xc,%esp
    4c63:	8b 06                	mov    (%esi),%eax
    4c65:	50                   	push   %eax
    4c66:	e8 f5 33 00 00       	call   8060 <ftell@plt>
    4c6b:	89 c7                	mov    %eax,%edi
    4c6d:	8b 06                	mov    (%esi),%eax
    4c6f:	6a 00                	push   $0x0
    4c71:	89 d3                	mov    %edx,%ebx
    4c73:	6a 00                	push   $0x0
    4c75:	6a 00                	push   $0x0
    4c77:	50                   	push   %eax
    4c78:	e8 23 33 00 00       	call   7fa0 <fseek@plt>
    4c7d:	83 c4 20             	add    $0x20,%esp
    4c80:	85 c0                	test   %eax,%eax
    4c82:	75 9f                	jne    4c23 <pcf_font_create+0x53>
    4c84:	8b 06                	mov    (%esi),%eax
    4c86:	50                   	push   %eax
    4c87:	8d 45 d4             	lea    -0x2c(%ebp),%eax
    4c8a:	6a 04                	push   $0x4
    4c8c:	6a 01                	push   $0x1
    4c8e:	50                   	push   %eax
    4c8f:	e8 8c 33 00 00       	call   8020 <fread@plt>
    4c94:	83 c4 10             	add    $0x10,%esp
    4c97:	83 f8 04             	cmp    $0x4,%eax
    4c9a:	0f 85 48 03 00 00    	jne    4fe8 <pcf_font_create+0x418>
    4ca0:	80 7d d4 01          	cmpb   $0x1,-0x2c(%ebp)
    4ca4:	0f 85 3e 03 00 00    	jne    4fe8 <pcf_font_create+0x418>
    4caa:	80 7d d5 66          	cmpb   $0x66,-0x2b(%ebp)
    4cae:	0f 85 34 03 00 00    	jne    4fe8 <pcf_font_create+0x418>
    4cb4:	80 7d d6 63          	cmpb   $0x63,-0x2a(%ebp)
    4cb8:	0f 85 2a 03 00 00    	jne    4fe8 <pcf_font_create+0x418>
    4cbe:	80 7d d7 70          	cmpb   $0x70,-0x29(%ebp)
    4cc2:	0f 85 20 03 00 00    	jne    4fe8 <pcf_font_create+0x418>
    4cc8:	8b 06                	mov    (%esi),%eax
    4cca:	50                   	push   %eax
    4ccb:	8d 45 d0             	lea    -0x30(%ebp),%eax
    4cce:	6a 01                	push   $0x1
    4cd0:	6a 04                	push   $0x4
    4cd2:	50                   	push   %eax
    4cd3:	e8 48 33 00 00       	call   8020 <fread@plt>
    4cd8:	83 c4 10             	add    $0x10,%esp
    4cdb:	48                   	dec    %eax
    4cdc:	0f 85 06 03 00 00    	jne    4fe8 <pcf_font_create+0x418>
    4ce2:	8b 45 d0             	mov    -0x30(%ebp),%eax
    4ce5:	85 c0                	test   %eax,%eax
    4ce7:	0f 84 fb 02 00 00    	je     4fe8 <pcf_font_create+0x418>
    4ced:	8d 45 d8             	lea    -0x28(%ebp),%eax
    4cf0:	89 7d b8             	mov    %edi,-0x48(%ebp)
    4cf3:	89 5d c4             	mov    %ebx,-0x3c(%ebp)
    4cf6:	31 ff                	xor    %edi,%edi
    4cf8:	c6 45 b4 00          	movb   $0x0,-0x4c(%ebp)
    4cfc:	c6 45 b5 00          	movb   $0x0,-0x4b(%ebp)
    4d00:	c6 45 b6 00          	movb   $0x0,-0x4a(%ebp)
    4d04:	c6 45 b7 00          	movb   $0x0,-0x49(%ebp)
    4d08:	89 45 c0             	mov    %eax,-0x40(%ebp)
    4d0b:	eb 29                	jmp    4d36 <pcf_font_create+0x166>
    4d0d:	8d 76 00             	lea    0x0(%esi),%esi
    4d10:	83 f8 04             	cmp    $0x4,%eax
    4d13:	0f 84 07 03 00 00    	je     5020 <pcf_font_create+0x450>
    4d19:	83 f8 20             	cmp    $0x20,%eax
    4d1c:	0f 84 26 03 00 00    	je     5048 <pcf_font_create+0x478>
    4d22:	83 f8 02             	cmp    $0x2,%eax
    4d25:	0f 84 45 03 00 00    	je     5070 <pcf_font_create+0x4a0>
    4d2b:	90                   	nop
    4d2c:	8d 74 26 00          	lea    0x0(%esi,%eiz,1),%esi
    4d30:	47                   	inc    %edi
    4d31:	3b 7d d0             	cmp    -0x30(%ebp),%edi
    4d34:	73 7a                	jae    4db0 <pcf_font_create+0x1e0>
    4d36:	8b 0e                	mov    (%esi),%ecx
    4d38:	8b 5d c0             	mov    -0x40(%ebp),%ebx
    4d3b:	51                   	push   %ecx
    4d3c:	6a 01                	push   $0x1
    4d3e:	6a 10                	push   $0x10
    4d40:	53                   	push   %ebx
    4d41:	31 db                	xor    %ebx,%ebx
    4d43:	e8 d8 32 00 00       	call   8020 <fread@plt>
    4d48:	83 c4 10             	add    $0x10,%esp
    4d4b:	8b 4d e4             	mov    -0x1c(%ebp),%ecx
    4d4e:	83 7d c4 00          	cmpl   $0x0,-0x3c(%ebp)
    4d52:	77 05                	ja     4d59 <pcf_font_create+0x189>
    4d54:	39 4d b8             	cmp    %ecx,-0x48(%ebp)
    4d57:	76 d7                	jbe    4d30 <pcf_font_create+0x160>
    4d59:	8b 45 e0             	mov    -0x20(%ebp),%eax
    4d5c:	31 d2                	xor    %edx,%edx
    4d5e:	01 c8                	add    %ecx,%eax
    4d60:	11 da                	adc    %ebx,%edx
    4d62:	39 55 c4             	cmp    %edx,-0x3c(%ebp)
    4d65:	72 c9                	jb     4d30 <pcf_font_create+0x160>
    4d67:	77 05                	ja     4d6e <pcf_font_create+0x19e>
    4d69:	39 45 b8             	cmp    %eax,-0x48(%ebp)
    4d6c:	72 c2                	jb     4d30 <pcf_font_create+0x160>
    4d6e:	8b 45 d8             	mov    -0x28(%ebp),%eax
    4d71:	83 f8 08             	cmp    $0x8,%eax
    4d74:	75 9a                	jne    4d10 <pcf_font_create+0x140>
    4d76:	80 7d b7 00          	cmpb   $0x0,-0x49(%ebp)
    4d7a:	0f 85 68 02 00 00    	jne    4fe8 <pcf_font_create+0x418>
    4d80:	8b 45 dc             	mov    -0x24(%ebp),%eax
    4d83:	c7 46 08 08 00 00 00 	movl   $0x8,0x8(%esi)
    4d8a:	89 46 0c             	mov    %eax,0xc(%esi)
    4d8d:	8b 45 e0             	mov    -0x20(%ebp),%eax
    4d90:	89 46 10             	mov    %eax,0x10(%esi)
    4d93:	8b 45 e4             	mov    -0x1c(%ebp),%eax
    4d96:	89 46 14             	mov    %eax,0x14(%esi)
    4d99:	c6 45 b7 01          	movb   $0x1,-0x49(%ebp)
    4d9d:	eb 91                	jmp    4d30 <pcf_font_create+0x160>
    4d9f:	90                   	nop
    4da0:	bb f2 ff ff ff       	mov    $0xfffffff2,%ebx
    4da5:	e9 9a fe ff ff       	jmp    4c44 <pcf_font_create+0x74>
    4daa:	8d b6 00 00 00 00    	lea    0x0(%esi),%esi
    4db0:	80 7d b7 00          	cmpb   $0x0,-0x49(%ebp)
    4db4:	0f 84 2e 02 00 00    	je     4fe8 <pcf_font_create+0x418>
    4dba:	80 7d b6 00          	cmpb   $0x0,-0x4a(%ebp)
    4dbe:	0f 84 24 02 00 00    	je     4fe8 <pcf_font_create+0x418>
    4dc4:	80 7d b5 00          	cmpb   $0x0,-0x4b(%ebp)
    4dc8:	0f 84 1a 02 00 00    	je     4fe8 <pcf_font_create+0x418>
    4dce:	80 7d b4 00          	cmpb   $0x0,-0x4c(%ebp)
    4dd2:	0f 84 10 02 00 00    	je     4fe8 <pcf_font_create+0x418>
    4dd8:	6a 00                	push   $0x0
    4dda:	31 d2                	xor    %edx,%edx
    4ddc:	8b 46 14             	mov    0x14(%esi),%eax
    4ddf:	52                   	push   %edx
    4de0:	8b 16                	mov    (%esi),%edx
    4de2:	50                   	push   %eax
    4de3:	52                   	push   %edx
    4de4:	e8 b7 31 00 00       	call   7fa0 <fseek@plt>
    4de9:	83 c4 10             	add    $0x10,%esp
    4dec:	85 c0                	test   %eax,%eax
    4dee:	0f 84 04 02 00 00    	je     4ff8 <pcf_font_create+0x428>
    4df4:	e8 07 31 00 00       	call   7f00 <__errno@plt>
    4df9:	8b 18                	mov    (%eax),%ebx
    4dfb:	85 db                	test   %ebx,%ebx
    4dfd:	0f 85 2f fe ff ff    	jne    4c32 <pcf_font_create+0x62>
    4e03:	f7 46 0c 00 ff ff ff 	testl  $0xffffff00,0xc(%esi)
    4e0a:	0f 85 d8 01 00 00    	jne    4fe8 <pcf_font_create+0x418>
    4e10:	8b 06                	mov    (%esi),%eax
    4e12:	c7 45 d8 00 00 00 00 	movl   $0x0,-0x28(%ebp)
    4e19:	50                   	push   %eax
    4e1a:	8d 45 d8             	lea    -0x28(%ebp),%eax
    4e1d:	6a 01                	push   $0x1
    4e1f:	89 45 c0             	mov    %eax,-0x40(%ebp)
    4e22:	6a 04                	push   $0x4
    4e24:	50                   	push   %eax
    4e25:	e8 f6 31 00 00       	call   8020 <fread@plt>
    4e2a:	83 c4 10             	add    $0x10,%esp
    4e2d:	48                   	dec    %eax
    4e2e:	0f 85 b4 01 00 00    	jne    4fe8 <pcf_font_create+0x418>
    4e34:	8b 55 d8             	mov    -0x28(%ebp),%edx
    4e37:	f6 46 0c 04          	testb  $0x4,0xc(%esi)
    4e3b:	89 d0                	mov    %edx,%eax
    4e3d:	0f c8                	bswap  %eax
    4e3f:	75 02                	jne    4e43 <pcf_font_create+0x273>
    4e41:	89 d0                	mov    %edx,%eax
    4e43:	89 46 04             	mov    %eax,0x4(%esi)
    4e46:	6a 00                	push   $0x0
    4e48:	8b 46 24             	mov    0x24(%esi),%eax
    4e4b:	31 d2                	xor    %edx,%edx
    4e4d:	52                   	push   %edx
    4e4e:	50                   	push   %eax
    4e4f:	8b 06                	mov    (%esi),%eax
    4e51:	50                   	push   %eax
    4e52:	e8 49 31 00 00       	call   7fa0 <fseek@plt>
    4e57:	83 c4 10             	add    $0x10,%esp
    4e5a:	85 c0                	test   %eax,%eax
    4e5c:	0f 84 3e 02 00 00    	je     50a0 <pcf_font_create+0x4d0>
    4e62:	e8 99 30 00 00       	call   7f00 <__errno@plt>
    4e67:	8b 18                	mov    (%eax),%ebx
    4e69:	85 db                	test   %ebx,%ebx
    4e6b:	0f 85 c1 fd ff ff    	jne    4c32 <pcf_font_create+0x62>
    4e71:	f6 46 1d 01          	testb  $0x1,0x1d(%esi)
    4e75:	0f 84 50 02 00 00    	je     50cb <pcf_font_create+0x4fb>
    4e7b:	8b 06                	mov    (%esi),%eax
    4e7d:	50                   	push   %eax
    4e7e:	8d 45 d4             	lea    -0x2c(%ebp),%eax
    4e81:	6a 01                	push   $0x1
    4e83:	6a 02                	push   $0x2
    4e85:	50                   	push   %eax
    4e86:	e8 95 31 00 00       	call   8020 <fread@plt>
    4e8b:	83 c4 10             	add    $0x10,%esp
    4e8e:	48                   	dec    %eax
    4e8f:	0f 85 53 01 00 00    	jne    4fe8 <pcf_font_create+0x418>
    4e95:	8b 45 d4             	mov    -0x2c(%ebp),%eax
    4e98:	f6 46 1c 04          	testb  $0x4,0x1c(%esi)
    4e9c:	74 04                	je     4ea2 <pcf_font_create+0x2d2>
    4e9e:	66 c1 c0 08          	rol    $0x8,%ax
    4ea2:	25 ff ff 00 00       	and    $0xffff,%eax
    4ea7:	89 45 d8             	mov    %eax,-0x28(%ebp)
    4eaa:	39 46 04             	cmp    %eax,0x4(%esi)
    4ead:	0f 85 35 01 00 00    	jne    4fe8 <pcf_font_create+0x418>
    4eb3:	6a 00                	push   $0x0
    4eb5:	31 d2                	xor    %edx,%edx
    4eb7:	8b 46 34             	mov    0x34(%esi),%eax
    4eba:	52                   	push   %edx
    4ebb:	50                   	push   %eax
    4ebc:	8b 06                	mov    (%esi),%eax
    4ebe:	50                   	push   %eax
    4ebf:	e8 dc 30 00 00       	call   7fa0 <fseek@plt>
    4ec4:	83 c4 10             	add    $0x10,%esp
    4ec7:	85 c0                	test   %eax,%eax
    4ec9:	0f 84 37 02 00 00    	je     5106 <pcf_font_create+0x536>
    4ecf:	e8 2c 30 00 00       	call   7f00 <__errno@plt>
    4ed4:	8b 18                	mov    (%eax),%ebx
    4ed6:	85 db                	test   %ebx,%ebx
    4ed8:	0f 85 54 fd ff ff    	jne    4c32 <pcf_font_create+0x62>
    4ede:	8b 06                	mov    (%esi),%eax
    4ee0:	50                   	push   %eax
    4ee1:	8b 45 c0             	mov    -0x40(%ebp),%eax
    4ee4:	6a 01                	push   $0x1
    4ee6:	6a 0a                	push   $0xa
    4ee8:	50                   	push   %eax
    4ee9:	e8 32 31 00 00       	call   8020 <fread@plt>
    4eee:	83 c4 10             	add    $0x10,%esp
    4ef1:	48                   	dec    %eax
    4ef2:	0f 85 f0 00 00 00    	jne    4fe8 <pcf_font_create+0x418>
    4ef8:	f6 46 2c 04          	testb  $0x4,0x2c(%esi)
    4efc:	0f 84 2f 02 00 00    	je     5131 <pcf_font_create+0x561>
    4f02:	66 c1 45 dc 08       	rolw   $0x8,-0x24(%ebp)
    4f07:	66 c1 45 de 08       	rolw   $0x8,-0x22(%ebp)
    4f0c:	66 c1 45 d8 08       	rolw   $0x8,-0x28(%ebp)
    4f11:	66 c1 45 da 08       	rolw   $0x8,-0x26(%ebp)
    4f16:	8b 45 e0             	mov    -0x20(%ebp),%eax
    4f19:	66 c1 c0 08          	rol    $0x8,%ax
    4f1d:	8b 55 d8             	mov    -0x28(%ebp),%edx
    4f20:	66 89 46 50          	mov    %ax,0x50(%esi)
    4f24:	89 56 48             	mov    %edx,0x48(%esi)
    4f27:	8b 55 dc             	mov    -0x24(%ebp),%edx
    4f2a:	89 56 4c             	mov    %edx,0x4c(%esi)
    4f2d:	6a 00                	push   $0x0
    4f2f:	31 d2                	xor    %edx,%edx
    4f31:	66 89 45 e0          	mov    %ax,-0x20(%ebp)
    4f35:	8b 46 44             	mov    0x44(%esi),%eax
    4f38:	52                   	push   %edx
    4f39:	50                   	push   %eax
    4f3a:	8b 06                	mov    (%esi),%eax
    4f3c:	50                   	push   %eax
    4f3d:	e8 5e 30 00 00       	call   7fa0 <fseek@plt>
    4f42:	83 c4 10             	add    $0x10,%esp
    4f45:	85 c0                	test   %eax,%eax
    4f47:	74 7a                	je     4fc3 <pcf_font_create+0x3f3>
    4f49:	e8 b2 2f 00 00       	call   7f00 <__errno@plt>
    4f4e:	8b 18                	mov    (%eax),%ebx
    4f50:	85 db                	test   %ebx,%ebx
    4f52:	0f 85 da fc ff ff    	jne    4c32 <pcf_font_create+0x62>
    4f58:	8b 3e                	mov    (%esi),%edi
    4f5a:	8b 45 c0             	mov    -0x40(%ebp),%eax
    4f5d:	57                   	push   %edi
    4f5e:	6a 01                	push   $0x1
    4f60:	6a 10                	push   $0x10
    4f62:	50                   	push   %eax
    4f63:	e8 b8 30 00 00       	call   8020 <fread@plt>
    4f68:	83 c4 10             	add    $0x10,%esp
    4f6b:	48                   	dec    %eax
    4f6c:	75 7a                	jne    4fe8 <pcf_font_create+0x418>
    4f6e:	8b 45 e0             	mov    -0x20(%ebp),%eax
    4f71:	f6 46 3c 04          	testb  $0x4,0x3c(%esi)
    4f75:	89 c2                	mov    %eax,%edx
    4f77:	0f ca                	bswap  %edx
    4f79:	0f 84 ba 01 00 00    	je     5139 <pcf_font_create+0x569>
    4f7f:	89 d0                	mov    %edx,%eax
    4f81:	8b 55 e4             	mov    -0x1c(%ebp),%edx
    4f84:	0f ca                	bswap  %edx
    4f86:	8b 4d 08             	mov    0x8(%ebp),%ecx
    4f89:	89 46 54             	mov    %eax,0x54(%esi)
    4f8c:	89 56 58             	mov    %edx,0x58(%esi)
    4f8f:	c7 46 5c 00 00 00 00 	movl   $0x0,0x5c(%esi)
    4f96:	51                   	push   %ecx
    4f97:	31 c9                	xor    %ecx,%ecx
    4f99:	66 8b 4d bc          	mov    -0x44(%ebp),%cx
    4f9d:	51                   	push   %ecx
    4f9e:	6a 00                	push   $0x0
    4fa0:	52                   	push   %edx
    4fa1:	50                   	push   %eax
    4fa2:	8b 5e 04             	mov    0x4(%esi),%ebx
    4fa5:	53                   	push   %ebx
    4fa6:	56                   	push   %esi
    4fa7:	68 10 9a 00 00       	push   $0x9a10
    4fac:	e8 4f f4 ff ff       	call   4400 <bitmap_font_create>
    4fb1:	83 c4 20             	add    $0x20,%esp
    4fb4:	89 c3                	mov    %eax,%ebx
    4fb6:	85 c0                	test   %eax,%eax
    4fb8:	0f 85 74 fc ff ff    	jne    4c32 <pcf_font_create+0x62>
    4fbe:	e9 8d fc ff ff       	jmp    4c50 <pcf_font_create+0x80>
    4fc3:	8b 06                	mov    (%esi),%eax
    4fc5:	50                   	push   %eax
    4fc6:	8b 45 c0             	mov    -0x40(%ebp),%eax
    4fc9:	6a 01                	push   $0x1
    4fcb:	6a 04                	push   $0x4
    4fcd:	50                   	push   %eax
    4fce:	e8 4d 30 00 00       	call   8020 <fread@plt>
    4fd3:	83 c4 10             	add    $0x10,%esp
    4fd6:	48                   	dec    %eax
    4fd7:	75 0f                	jne    4fe8 <pcf_font_create+0x418>
    4fd9:	8b 46 3c             	mov    0x3c(%esi),%eax
    4fdc:	39 45 d8             	cmp    %eax,-0x28(%ebp)
    4fdf:	0f 84 73 ff ff ff    	je     4f58 <pcf_font_create+0x388>
    4fe5:	8d 76 00             	lea    0x0(%esi),%esi
    4fe8:	bb f2 ff ff ff       	mov    $0xfffffff2,%ebx
    4fed:	e9 40 fc ff ff       	jmp    4c32 <pcf_font_create+0x62>
    4ff2:	8d b6 00 00 00 00    	lea    0x0(%esi),%esi
    4ff8:	8b 06                	mov    (%esi),%eax
    4ffa:	50                   	push   %eax
    4ffb:	8d 45 d8             	lea    -0x28(%ebp),%eax
    4ffe:	6a 01                	push   $0x1
    5000:	6a 04                	push   $0x4
    5002:	50                   	push   %eax
    5003:	e8 18 30 00 00       	call   8020 <fread@plt>
    5008:	83 c4 10             	add    $0x10,%esp
    500b:	48                   	dec    %eax
    500c:	75 da                	jne    4fe8 <pcf_font_create+0x418>
    500e:	8b 46 0c             	mov    0xc(%esi),%eax
    5011:	39 45 d8             	cmp    %eax,-0x28(%ebp)
    5014:	0f 84 e9 fd ff ff    	je     4e03 <pcf_font_create+0x233>
    501a:	eb cc                	jmp    4fe8 <pcf_font_create+0x418>
    501c:	8d 74 26 00          	lea    0x0(%esi,%eiz,1),%esi
    5020:	80 7d b6 00          	cmpb   $0x0,-0x4a(%ebp)
    5024:	75 c2                	jne    4fe8 <pcf_font_create+0x418>
    5026:	8b 45 dc             	mov    -0x24(%ebp),%eax
    5029:	c7 46 18 04 00 00 00 	movl   $0x4,0x18(%esi)
    5030:	89 46 1c             	mov    %eax,0x1c(%esi)
    5033:	8b 45 e0             	mov    -0x20(%ebp),%eax
    5036:	89 46 20             	mov    %eax,0x20(%esi)
    5039:	8b 45 e4             	mov    -0x1c(%ebp),%eax
    503c:	89 46 24             	mov    %eax,0x24(%esi)
    503f:	c6 45 b6 01          	movb   $0x1,-0x4a(%ebp)
    5043:	e9 e8 fc ff ff       	jmp    4d30 <pcf_font_create+0x160>
    5048:	80 7d b5 00          	cmpb   $0x0,-0x4b(%ebp)
    504c:	75 9a                	jne    4fe8 <pcf_font_create+0x418>
    504e:	8b 45 dc             	mov    -0x24(%ebp),%eax
    5051:	c7 46 28 20 00 00 00 	movl   $0x20,0x28(%esi)
    5058:	89 46 2c             	mov    %eax,0x2c(%esi)
    505b:	8b 45 e0             	mov    -0x20(%ebp),%eax
    505e:	89 46 30             	mov    %eax,0x30(%esi)
    5061:	8b 45 e4             	mov    -0x1c(%ebp),%eax
    5064:	89 46 34             	mov    %eax,0x34(%esi)
    5067:	c6 45 b5 01          	movb   $0x1,-0x4b(%ebp)
    506b:	e9 c0 fc ff ff       	jmp    4d30 <pcf_font_create+0x160>
    5070:	80 7d b4 00          	cmpb   $0x0,-0x4c(%ebp)
    5074:	0f 85 6e ff ff ff    	jne    4fe8 <pcf_font_create+0x418>
    507a:	8b 45 dc             	mov    -0x24(%ebp),%eax
    507d:	c7 46 38 02 00 00 00 	movl   $0x2,0x38(%esi)
    5084:	89 46 3c             	mov    %eax,0x3c(%esi)
    5087:	8b 45 e0             	mov    -0x20(%ebp),%eax
    508a:	89 46 40             	mov    %eax,0x40(%esi)
    508d:	8b 45 e4             	mov    -0x1c(%ebp),%eax
    5090:	89 46 44             	mov    %eax,0x44(%esi)
    5093:	c6 45 b4 01          	movb   $0x1,-0x4c(%ebp)
    5097:	e9 94 fc ff ff       	jmp    4d30 <pcf_font_create+0x160>
    509c:	8d 74 26 00          	lea    0x0(%esi,%eiz,1),%esi
    50a0:	8b 06                	mov    (%esi),%eax
    50a2:	50                   	push   %eax
    50a3:	8b 45 c0             	mov    -0x40(%ebp),%eax
    50a6:	6a 01                	push   $0x1
    50a8:	6a 04                	push   $0x4
    50aa:	50                   	push   %eax
    50ab:	e8 70 2f 00 00       	call   8020 <fread@plt>
    50b0:	83 c4 10             	add    $0x10,%esp
    50b3:	48                   	dec    %eax
    50b4:	0f 85 2e ff ff ff    	jne    4fe8 <pcf_font_create+0x418>
    50ba:	8b 46 1c             	mov    0x1c(%esi),%eax
    50bd:	39 45 d8             	cmp    %eax,-0x28(%ebp)
    50c0:	0f 84 ab fd ff ff    	je     4e71 <pcf_font_create+0x2a1>
    50c6:	e9 1d ff ff ff       	jmp    4fe8 <pcf_font_create+0x418>
    50cb:	8b 1e                	mov    (%esi),%ebx
    50cd:	8b 7d c0             	mov    -0x40(%ebp),%edi
    50d0:	53                   	push   %ebx
    50d1:	6a 01                	push   $0x1
    50d3:	6a 04                	push   $0x4
    50d5:	57                   	push   %edi
    50d6:	e8 45 2f 00 00       	call   8020 <fread@plt>
    50db:	83 c4 10             	add    $0x10,%esp
    50de:	48                   	dec    %eax
    50df:	0f 85 03 ff ff ff    	jne    4fe8 <pcf_font_create+0x418>
    50e5:	8b 55 d8             	mov    -0x28(%ebp),%edx
    50e8:	f6 46 1c 04          	testb  $0x4,0x1c(%esi)
    50ec:	89 d0                	mov    %edx,%eax
    50ee:	0f c8                	bswap  %eax
    50f0:	75 02                	jne    50f4 <pcf_font_create+0x524>
    50f2:	89 d0                	mov    %edx,%eax
    50f4:	89 45 d8             	mov    %eax,-0x28(%ebp)
    50f7:	e9 ae fd ff ff       	jmp    4eaa <pcf_font_create+0x2da>
    50fc:	bb fe ff ff ff       	mov    $0xfffffffe,%ebx
    5101:	e9 4a fb ff ff       	jmp    4c50 <pcf_font_create+0x80>
    5106:	8b 16                	mov    (%esi),%edx
    5108:	8b 4d c0             	mov    -0x40(%ebp),%ecx
    510b:	52                   	push   %edx
    510c:	6a 01                	push   $0x1
    510e:	6a 04                	push   $0x4
    5110:	51                   	push   %ecx
    5111:	e8 0a 2f 00 00       	call   8020 <fread@plt>
    5116:	83 c4 10             	add    $0x10,%esp
    5119:	48                   	dec    %eax
    511a:	0f 85 c8 fe ff ff    	jne    4fe8 <pcf_font_create+0x418>
    5120:	8b 46 2c             	mov    0x2c(%esi),%eax
    5123:	39 45 d8             	cmp    %eax,-0x28(%ebp)
    5126:	0f 84 b2 fd ff ff    	je     4ede <pcf_font_create+0x30e>
    512c:	e9 b7 fe ff ff       	jmp    4fe8 <pcf_font_create+0x418>
    5131:	8b 45 e0             	mov    -0x20(%ebp),%eax
    5134:	e9 e4 fd ff ff       	jmp    4f1d <pcf_font_create+0x34d>
    5139:	8b 55 e4             	mov    -0x1c(%ebp),%edx
    513c:	e9 45 fe ff ff       	jmp    4f86 <pcf_font_create+0x3b6>
    5141:	66 90                	xchg   %ax,%ax
    5143:	66 90                	xchg   %ax,%ax
    5145:	66 90                	xchg   %ax,%ax
    5147:	66 90                	xchg   %ax,%ax
    5149:	66 90                	xchg   %ax,%ax
    514b:	66 90                	xchg   %ax,%ax
    514d:	66 90                	xchg   %ax,%ax
    514f:	90                   	nop

00005150 <fb_font_glyph>:
    5150:	55                   	push   %ebp
    5151:	89 e5                	mov    %esp,%ebp
    5153:	8b 4d 0c             	mov    0xc(%ebp),%ecx
    5156:	8b 55 08             	mov    0x8(%ebp),%edx
    5159:	85 c9                	test   %ecx,%ecx
    515b:	74 03                	je     5160 <fb_font_glyph+0x10>
    515d:	c6 01 01             	movb   $0x1,(%ecx)
    5160:	31 c0                	xor    %eax,%eax
    5162:	85 d2                	test   %edx,%edx
    5164:	0f 84 5b 06 00 00    	je     57c5 <fb_font_glyph+0x675>
    516a:	8d 42 e0             	lea    -0x20(%edx),%eax
    516d:	83 f8 5f             	cmp    $0x5f,%eax
    5170:	0f 86 52 06 00 00    	jbe    57c8 <fb_font_glyph+0x678>
    5176:	8d 82 60 ff ff ff    	lea    -0xa0(%edx),%eax
    517c:	3d 7f 01 00 00       	cmp    $0x17f,%eax
    5181:	0f 86 51 06 00 00    	jbe    57d8 <fb_font_glyph+0x688>
    5187:	8d 82 de fd ff ff    	lea    -0x222(%edx),%eax
    518d:	83 f8 11             	cmp    $0x11,%eax
    5190:	0f 86 3a 06 00 00    	jbe    57d0 <fb_font_glyph+0x680>
    5196:	8d 82 b0 fd ff ff    	lea    -0x250(%edx),%eax
    519c:	83 f8 5d             	cmp    $0x5d,%eax
    519f:	0f 86 3b 06 00 00    	jbe    57e0 <fb_font_glyph+0x690>
    51a5:	8d 82 50 fd ff ff    	lea    -0x2b0(%edx),%eax
    51ab:	83 f8 1f             	cmp    $0x1f,%eax
    51ae:	0f 86 3c 06 00 00    	jbe    57f0 <fb_font_glyph+0x6a0>
    51b4:	8d 82 28 fd ff ff    	lea    -0x2d8(%edx),%eax
    51ba:	83 f8 05             	cmp    $0x5,%eax
    51bd:	0f 86 25 06 00 00    	jbe    57e8 <fb_font_glyph+0x698>
    51c3:	b8 76 02 00 00       	mov    $0x276,%eax
    51c8:	81 fa ee 02 00 00    	cmp    $0x2ee,%edx
    51ce:	0f 84 f1 05 00 00    	je     57c5 <fb_font_glyph+0x675>
    51d4:	8d 82 00 fd ff ff    	lea    -0x300(%edx),%eax
    51da:	83 f8 01             	cmp    $0x1,%eax
    51dd:	0f 86 12 06 00 00    	jbe    57f5 <fb_font_glyph+0x6a5>
    51e3:	b8 79 02 00 00       	mov    $0x279,%eax
    51e8:	81 fa 03 03 00 00    	cmp    $0x303,%edx
    51ee:	0f 84 d1 05 00 00    	je     57c5 <fb_font_glyph+0x675>
    51f4:	b8 7a 02 00 00       	mov    $0x27a,%eax
    51f9:	81 fa 09 03 00 00    	cmp    $0x309,%edx
    51ff:	0f 84 c0 05 00 00    	je     57c5 <fb_font_glyph+0x675>
    5205:	8d 82 ee fc ff ff    	lea    -0x312(%edx),%eax
    520b:	83 f8 02             	cmp    $0x2,%eax
    520e:	0f 86 e9 05 00 00    	jbe    57fd <fb_font_glyph+0x6ad>
    5214:	b8 7e 02 00 00       	mov    $0x27e,%eax
    5219:	81 fa 23 03 00 00    	cmp    $0x323,%edx
    521f:	0f 84 a0 05 00 00    	je     57c5 <fb_font_glyph+0x675>
    5225:	8d 82 c0 fc ff ff    	lea    -0x340(%edx),%eax
    522b:	83 f8 01             	cmp    $0x1,%eax
    522e:	0f 86 d1 05 00 00    	jbe    5805 <fb_font_glyph+0x6b5>
    5234:	8d 82 8c fc ff ff    	lea    -0x374(%edx),%eax
    523a:	83 f8 01             	cmp    $0x1,%eax
    523d:	0f 86 ca 05 00 00    	jbe    580d <fb_font_glyph+0x6bd>
    5243:	b8 83 02 00 00       	mov    $0x283,%eax
    5248:	81 fa 7a 03 00 00    	cmp    $0x37a,%edx
    524e:	0f 84 71 05 00 00    	je     57c5 <fb_font_glyph+0x675>
    5254:	b8 84 02 00 00       	mov    $0x284,%eax
    5259:	81 fa 7e 03 00 00    	cmp    $0x37e,%edx
    525f:	0f 84 60 05 00 00    	je     57c5 <fb_font_glyph+0x675>
    5265:	8d 82 7c fc ff ff    	lea    -0x384(%edx),%eax
    526b:	83 f8 06             	cmp    $0x6,%eax
    526e:	0f 86 a1 05 00 00    	jbe    5815 <fb_font_glyph+0x6c5>
    5274:	b8 8c 02 00 00       	mov    $0x28c,%eax
    5279:	81 fa 8c 03 00 00    	cmp    $0x38c,%edx
    527f:	0f 84 40 05 00 00    	je     57c5 <fb_font_glyph+0x675>
    5285:	8d 82 72 fc ff ff    	lea    -0x38e(%edx),%eax
    528b:	83 f8 13             	cmp    $0x13,%eax
    528e:	0f 86 89 05 00 00    	jbe    581d <fb_font_glyph+0x6cd>
    5294:	8d 82 5d fc ff ff    	lea    -0x3a3(%edx),%eax
    529a:	83 f8 2b             	cmp    $0x2b,%eax
    529d:	0f 86 99 05 00 00    	jbe    583c <fb_font_glyph+0x6ec>
    52a3:	8d 82 30 fc ff ff    	lea    -0x3d0(%edx),%eax
    52a9:	83 f8 07             	cmp    $0x7,%eax
    52ac:	0f 86 82 05 00 00    	jbe    5834 <fb_font_glyph+0x6e4>
    52b2:	8d 82 26 fc ff ff    	lea    -0x3da(%edx),%eax
    52b8:	83 f8 19             	cmp    $0x19,%eax
    52bb:	0f 86 db 05 00 00    	jbe    589c <fb_font_glyph+0x74c>
    52c1:	8d 82 00 fc ff ff    	lea    -0x400(%edx),%eax
    52c7:	3d 86 00 00 00       	cmp    $0x86,%eax
    52cc:	0f 86 c2 05 00 00    	jbe    5894 <fb_font_glyph+0x744>
    52d2:	8d 82 78 fb ff ff    	lea    -0x488(%edx),%eax
    52d8:	83 f8 46             	cmp    $0x46,%eax
    52db:	0f 86 ab 05 00 00    	jbe    588c <fb_font_glyph+0x73c>
    52e1:	8d 82 30 fb ff ff    	lea    -0x4d0(%edx),%eax
    52e7:	83 f8 25             	cmp    $0x25,%eax
    52ea:	0f 86 94 05 00 00    	jbe    5884 <fb_font_glyph+0x734>
    52f0:	8d 82 08 fb ff ff    	lea    -0x4f8(%edx),%eax
    52f6:	83 f8 01             	cmp    $0x1,%eax
    52f9:	0f 86 7d 05 00 00    	jbe    587c <fb_font_glyph+0x72c>
    52ff:	8d 82 00 fb ff ff    	lea    -0x500(%edx),%eax
    5305:	83 f8 0f             	cmp    $0xf,%eax
    5308:	0f 86 66 05 00 00    	jbe    5874 <fb_font_glyph+0x724>
    530e:	8d 82 d0 fa ff ff    	lea    -0x530(%edx),%eax
    5314:	83 f8 26             	cmp    $0x26,%eax
    5317:	0f 86 4f 05 00 00    	jbe    586c <fb_font_glyph+0x71c>
    531d:	8d 82 a7 fa ff ff    	lea    -0x559(%edx),%eax
    5323:	83 f8 06             	cmp    $0x6,%eax
    5326:	0f 86 38 05 00 00    	jbe    5864 <fb_font_glyph+0x714>
    532c:	8d 82 9f fa ff ff    	lea    -0x561(%edx),%eax
    5332:	83 f8 26             	cmp    $0x26,%eax
    5335:	0f 86 e1 05 00 00    	jbe    591c <fb_font_glyph+0x7cc>
    533b:	8d 82 77 fa ff ff    	lea    -0x589(%edx),%eax
    5341:	83 f8 01             	cmp    $0x1,%eax
    5344:	0f 86 ca 05 00 00    	jbe    5914 <fb_font_glyph+0x7c4>
    534a:	8d 82 6f fa ff ff    	lea    -0x591(%edx),%eax
    5350:	83 f8 10             	cmp    $0x10,%eax
    5353:	0f 86 b3 05 00 00    	jbe    590c <fb_font_glyph+0x7bc>
    5359:	8d 82 5d fa ff ff    	lea    -0x5a3(%edx),%eax
    535f:	83 f8 16             	cmp    $0x16,%eax
    5362:	0f 86 9c 05 00 00    	jbe    5904 <fb_font_glyph+0x7b4>
    5368:	8d 82 45 fa ff ff    	lea    -0x5bb(%edx),%eax
    536e:	83 f8 09             	cmp    $0x9,%eax
    5371:	0f 86 85 05 00 00    	jbe    58fc <fb_font_glyph+0x7ac>
    5377:	8d 82 30 fa ff ff    	lea    -0x5d0(%edx),%eax
    537d:	83 f8 1a             	cmp    $0x1a,%eax
    5380:	0f 86 6e 05 00 00    	jbe    58f4 <fb_font_glyph+0x7a4>
    5386:	8d 82 10 fa ff ff    	lea    -0x5f0(%edx),%eax
    538c:	83 f8 04             	cmp    $0x4,%eax
    538f:	0f 86 57 05 00 00    	jbe    58ec <fb_font_glyph+0x79c>
    5395:	b8 9e 04 00 00       	mov    $0x49e,%eax
    539a:	81 fa 0c 06 00 00    	cmp    $0x60c,%edx
    53a0:	0f 84 1f 04 00 00    	je     57c5 <fb_font_glyph+0x675>
    53a6:	b8 9f 04 00 00       	mov    $0x49f,%eax
    53ab:	81 fa 1b 06 00 00    	cmp    $0x61b,%edx
    53b1:	0f 84 0e 04 00 00    	je     57c5 <fb_font_glyph+0x675>
    53b7:	b8 a0 04 00 00       	mov    $0x4a0,%eax
    53bc:	81 fa 1f 06 00 00    	cmp    $0x61f,%edx
    53c2:	0f 84 fd 03 00 00    	je     57c5 <fb_font_glyph+0x675>
    53c8:	8d 82 df f9 ff ff    	lea    -0x621(%edx),%eax
    53ce:	83 f8 19             	cmp    $0x19,%eax
    53d1:	0f 86 0d 05 00 00    	jbe    58e4 <fb_font_glyph+0x794>
    53d7:	8d 82 c0 f9 ff ff    	lea    -0x640(%edx),%eax
    53dd:	83 f8 15             	cmp    $0x15,%eax
    53e0:	0f 86 f6 04 00 00    	jbe    58dc <fb_font_glyph+0x78c>
    53e6:	8d 82 a0 f9 ff ff    	lea    -0x660(%edx),%eax
    53ec:	83 f8 0d             	cmp    $0xd,%eax
    53ef:	0f 86 df 04 00 00    	jbe    58d4 <fb_font_glyph+0x784>
    53f5:	8d 82 90 f9 ff ff    	lea    -0x670(%edx),%eax
    53fb:	83 f8 7d             	cmp    $0x7d,%eax
    53fe:	0f 86 c8 04 00 00    	jbe    58cc <fb_font_glyph+0x77c>
    5404:	8d 82 10 f9 ff ff    	lea    -0x6f0(%edx),%eax
    540a:	83 f8 0e             	cmp    $0xe,%eax
    540d:	0f 86 b1 04 00 00    	jbe    58c4 <fb_font_glyph+0x774>
    5413:	b8 6c 05 00 00       	mov    $0x56c,%eax
    5418:	81 fa d3 10 00 00    	cmp    $0x10d3,%edx
    541e:	0f 84 a1 03 00 00    	je     57c5 <fb_font_glyph+0x675>
    5424:	b8 6d 05 00 00       	mov    $0x56d,%eax
    5429:	81 fa d7 10 00 00    	cmp    $0x10d7,%edx
    542f:	0f 84 90 03 00 00    	je     57c5 <fb_font_glyph+0x675>
    5435:	b8 6e 05 00 00       	mov    $0x56e,%eax
    543a:	81 fa da 10 00 00    	cmp    $0x10da,%edx
    5440:	0f 84 7f 03 00 00    	je     57c5 <fb_font_glyph+0x675>
    5446:	b8 6f 05 00 00       	mov    $0x56f,%eax
    544b:	81 fa dd 10 00 00    	cmp    $0x10dd,%edx
    5451:	0f 84 6e 03 00 00    	je     57c5 <fb_font_glyph+0x675>
    5457:	b8 70 05 00 00       	mov    $0x570,%eax
    545c:	81 fa e6 10 00 00    	cmp    $0x10e6,%edx
    5462:	0f 84 5d 03 00 00    	je     57c5 <fb_font_glyph+0x675>
    5468:	8d 82 00 e2 ff ff    	lea    -0x1e00(%edx),%eax
    546e:	3d 9b 00 00 00       	cmp    $0x9b,%eax
    5473:	0f 86 43 04 00 00    	jbe    58bc <fb_font_glyph+0x76c>
    5479:	8d 82 60 e1 ff ff    	lea    -0x1ea0(%edx),%eax
    547f:	83 f8 59             	cmp    $0x59,%eax
    5482:	0f 86 2c 04 00 00    	jbe    58b4 <fb_font_glyph+0x764>
    5488:	8d 82 00 e1 ff ff    	lea    -0x1f00(%edx),%eax
    548e:	83 f8 07             	cmp    $0x7,%eax
    5491:	0f 86 15 04 00 00    	jbe    58ac <fb_font_glyph+0x75c>
    5497:	8d 82 00 e0 ff ff    	lea    -0x2000(%edx),%eax
    549d:	83 f8 27             	cmp    $0x27,%eax
    54a0:	0f 86 fe 03 00 00    	jbe    58a4 <fb_font_glyph+0x754>
    54a6:	8d 82 d0 df ff ff    	lea    -0x2030(%edx),%eax
    54ac:	83 f8 16             	cmp    $0x16,%eax
    54af:	0f 86 67 05 00 00    	jbe    5a1c <fb_font_glyph+0x8cc>
    54b5:	8d 82 b8 df ff ff    	lea    -0x2048(%edx),%eax
    54bb:	83 f8 05             	cmp    $0x5,%eax
    54be:	0f 86 50 05 00 00    	jbe    5a14 <fb_font_glyph+0x8c4>
    54c4:	b8 b4 06 00 00       	mov    $0x6b4,%eax
    54c9:	81 fa 70 20 00 00    	cmp    $0x2070,%edx
    54cf:	0f 84 f0 02 00 00    	je     57c5 <fb_font_glyph+0x675>
    54d5:	8d 82 8c df ff ff    	lea    -0x2074(%edx),%eax
    54db:	83 f8 1b             	cmp    $0x1b,%eax
    54de:	0f 86 28 05 00 00    	jbe    5a0c <fb_font_glyph+0x8bc>
    54e4:	8d 82 60 df ff ff    	lea    -0x20a0(%edx),%eax
    54ea:	83 f8 0f             	cmp    $0xf,%eax
    54ed:	0f 86 11 05 00 00    	jbe    5a04 <fb_font_glyph+0x8b4>
    54f3:	8d 82 00 df ff ff    	lea    -0x2100(%edx),%eax
    54f9:	83 f8 3a             	cmp    $0x3a,%eax
    54fc:	0f 86 fa 04 00 00    	jbe    59fc <fb_font_glyph+0x8ac>
    5502:	8d 82 ad de ff ff    	lea    -0x2153(%edx),%eax
    5508:	83 f8 30             	cmp    $0x30,%eax
    550b:	0f 86 e3 04 00 00    	jbe    59f4 <fb_font_glyph+0x8a4>
    5511:	8d 82 70 de ff ff    	lea    -0x2190(%edx),%eax
    5517:	83 f8 63             	cmp    $0x63,%eax
    551a:	0f 86 cc 04 00 00    	jbe    59ec <fb_font_glyph+0x89c>
    5520:	8d 82 00 de ff ff    	lea    -0x2200(%edx),%eax
    5526:	3d f1 00 00 00       	cmp    $0xf1,%eax
    552b:	0f 86 b3 04 00 00    	jbe    59e4 <fb_font_glyph+0x894>
    5531:	b8 a3 08 00 00       	mov    $0x8a3,%eax
    5536:	81 fa 00 23 00 00    	cmp    $0x2300,%edx
    553c:	0f 84 83 02 00 00    	je     57c5 <fb_font_glyph+0x675>
    5542:	b8 a4 08 00 00       	mov    $0x8a4,%eax
    5547:	81 fa 02 23 00 00    	cmp    $0x2302,%edx
    554d:	0f 84 72 02 00 00    	je     57c5 <fb_font_glyph+0x675>
    5553:	8d 82 f8 dc ff ff    	lea    -0x2308(%edx),%eax
    5559:	83 f8 03             	cmp    $0x3,%eax
    555c:	0f 86 7a 04 00 00    	jbe    59dc <fb_font_glyph+0x88c>
    5562:	b8 a9 08 00 00       	mov    $0x8a9,%eax
    5567:	81 fa 10 23 00 00    	cmp    $0x2310,%edx
    556d:	0f 84 52 02 00 00    	je     57c5 <fb_font_glyph+0x675>
    5573:	b8 aa 08 00 00       	mov    $0x8aa,%eax
    5578:	81 fa 18 23 00 00    	cmp    $0x2318,%edx
    557e:	0f 84 41 02 00 00    	je     57c5 <fb_font_glyph+0x675>
    5584:	8d 82 e6 dc ff ff    	lea    -0x231a(%edx),%eax
    558a:	83 f8 01             	cmp    $0x1,%eax
    558d:	0f 86 41 04 00 00    	jbe    59d4 <fb_font_glyph+0x884>
    5593:	8d 82 e0 dc ff ff    	lea    -0x2320(%edx),%eax
    5599:	83 f8 01             	cmp    $0x1,%eax
    559c:	0f 86 2a 04 00 00    	jbe    59cc <fb_font_glyph+0x87c>
    55a2:	8d 82 d7 dc ff ff    	lea    -0x2329(%edx),%eax
    55a8:	83 f8 01             	cmp    $0x1,%eax
    55ab:	0f 86 13 04 00 00    	jbe    59c4 <fb_font_glyph+0x874>
    55b1:	8d 82 65 dc ff ff    	lea    -0x239b(%edx),%eax
    55b7:	83 f8 22             	cmp    $0x22,%eax
    55ba:	0f 86 fc 03 00 00    	jbe    59bc <fb_font_glyph+0x86c>
    55c0:	b8 d4 08 00 00       	mov    $0x8d4,%eax
    55c5:	81 fa ce 23 00 00    	cmp    $0x23ce,%edx
    55cb:	0f 84 f4 01 00 00    	je     57c5 <fb_font_glyph+0x675>
    55d1:	8d 82 f7 db ff ff    	lea    -0x2409(%edx),%eax
    55d7:	83 f8 04             	cmp    $0x4,%eax
    55da:	0f 86 d4 03 00 00    	jbe    59b4 <fb_font_glyph+0x864>
    55e0:	8d 82 dd db ff ff    	lea    -0x2423(%edx),%eax
    55e6:	83 f8 01             	cmp    $0x1,%eax
    55e9:	0f 86 bd 03 00 00    	jbe    59ac <fb_font_glyph+0x85c>
    55ef:	b8 dc 08 00 00       	mov    $0x8dc,%eax
    55f4:	81 fa 26 24 00 00    	cmp    $0x2426,%edx
    55fa:	0f 84 c5 01 00 00    	je     57c5 <fb_font_glyph+0x675>
    5600:	8d 82 00 db ff ff    	lea    -0x2500(%edx),%eax
    5606:	3d 95 00 00 00       	cmp    $0x95,%eax
    560b:	0f 86 93 03 00 00    	jbe    59a4 <fb_font_glyph+0x854>
    5611:	8d 82 60 da ff ff    	lea    -0x25a0(%edx),%eax
    5617:	83 f8 57             	cmp    $0x57,%eax
    561a:	0f 86 7c 03 00 00    	jbe    599c <fb_font_glyph+0x84c>
    5620:	8d 82 00 da ff ff    	lea    -0x2600(%edx),%eax
    5626:	83 f8 02             	cmp    $0x2,%eax
    5629:	0f 86 65 03 00 00    	jbe    5994 <fb_font_glyph+0x844>
    562f:	8d 82 fb d9 ff ff    	lea    -0x2605(%edx),%eax
    5635:	83 f8 08             	cmp    $0x8,%eax
    5638:	0f 86 4e 03 00 00    	jbe    598c <fb_font_glyph+0x83c>
    563e:	8d 82 f0 d9 ff ff    	lea    -0x2610(%edx),%eax
    5644:	83 f8 03             	cmp    $0x3,%eax
    5647:	0f 86 37 03 00 00    	jbe    5984 <fb_font_glyph+0x834>
    564d:	b8 db 09 00 00       	mov    $0x9db,%eax
    5652:	81 fa 20 26 00 00    	cmp    $0x2620,%edx
    5658:	0f 84 67 01 00 00    	je     57c5 <fb_font_glyph+0x675>
    565e:	b8 dc 09 00 00       	mov    $0x9dc,%eax
    5663:	81 fa 22 26 00 00    	cmp    $0x2622,%edx
    5669:	0f 84 56 01 00 00    	je     57c5 <fb_font_glyph+0x675>
    566f:	b8 dd 09 00 00       	mov    $0x9dd,%eax
    5674:	81 fa 26 26 00 00    	cmp    $0x2626,%edx
    567a:	0f 84 45 01 00 00    	je     57c5 <fb_font_glyph+0x675>
    5680:	8d 82 d8 d9 ff ff    	lea    -0x2628(%edx),%eax
    5686:	83 f8 03             	cmp    $0x3,%eax
    5689:	0f 86 ed 02 00 00    	jbe    597c <fb_font_glyph+0x82c>
    568f:	8d 82 d2 d9 ff ff    	lea    -0x262e(%edx),%eax
    5695:	83 f8 09             	cmp    $0x9,%eax
    5698:	0f 86 d6 02 00 00    	jbe    5974 <fb_font_glyph+0x824>
    569e:	8d 82 c7 d9 ff ff    	lea    -0x2639(%edx),%eax
    56a4:	83 f8 1a             	cmp    $0x1a,%eax
    56a7:	0f 86 bf 02 00 00    	jbe    596c <fb_font_glyph+0x81c>
    56ad:	8d 82 a0 d9 ff ff    	lea    -0x2660(%edx),%eax
    56b3:	83 f8 07             	cmp    $0x7,%eax
    56b6:	0f 86 a8 02 00 00    	jbe    5964 <fb_font_glyph+0x814>
    56bc:	8d 82 97 d9 ff ff    	lea    -0x2669(%edx),%eax
    56c2:	83 f8 06             	cmp    $0x6,%eax
    56c5:	0f 86 91 02 00 00    	jbe    595c <fb_font_glyph+0x80c>
    56cb:	8d 82 00 05 ff ff    	lea    -0xfb00(%edx),%eax
    56d1:	83 f8 05             	cmp    $0x5,%eax
    56d4:	0f 86 7a 02 00 00    	jbe    5954 <fb_font_glyph+0x804>
    56da:	8d 82 b0 04 ff ff    	lea    -0xfb50(%edx),%eax
    56e0:	83 f8 61             	cmp    $0x61,%eax
    56e3:	0f 86 63 02 00 00    	jbe    594c <fb_font_glyph+0x7fc>
    56e9:	8d 82 2d 04 ff ff    	lea    -0xfbd3(%edx),%eax
    56ef:	83 f8 16             	cmp    $0x16,%eax
    56f2:	0f 86 4c 02 00 00    	jbe    5944 <fb_font_glyph+0x7f4>
    56f8:	8d 82 04 04 ff ff    	lea    -0xfbfc(%edx),%eax
    56fe:	83 f8 03             	cmp    $0x3,%eax
    5701:	0f 86 35 02 00 00    	jbe    593c <fb_font_glyph+0x7ec>
    5707:	8d 82 a5 03 ff ff    	lea    -0xfc5b(%edx),%eax
    570d:	83 f8 08             	cmp    $0x8,%eax
    5710:	0f 86 1e 02 00 00    	jbe    5934 <fb_font_glyph+0x7e4>
    5716:	b8 a2 0a 00 00       	mov    $0xaa2,%eax
    571b:	81 fa 90 fc 00 00    	cmp    $0xfc90,%edx
    5721:	0f 84 9e 00 00 00    	je     57c5 <fb_font_glyph+0x675>
    5727:	8d 82 0e 03 ff ff    	lea    -0xfcf2(%edx),%eax
    572d:	83 f8 02             	cmp    $0x2,%eax
    5730:	0f 86 f6 01 00 00    	jbe    592c <fb_font_glyph+0x7dc>
    5736:	8d 82 c4 02 ff ff    	lea    -0xfd3c(%edx),%eax
    573c:	83 f8 03             	cmp    $0x3,%eax
    573f:	0f 86 df 01 00 00    	jbe    5924 <fb_font_glyph+0x7d4>
    5745:	b8 aa 0a 00 00       	mov    $0xaaa,%eax
    574a:	81 fa f2 fd 00 00    	cmp    $0xfdf2,%edx
    5750:	74 73                	je     57c5 <fb_font_glyph+0x675>
    5752:	8d 82 b0 01 ff ff    	lea    -0xfe50(%edx),%eax
    5758:	83 f8 02             	cmp    $0x2,%eax
    575b:	0f 86 fb 00 00 00    	jbe    585c <fb_font_glyph+0x70c>
    5761:	8d 82 ac 01 ff ff    	lea    -0xfe54(%edx),%eax
    5767:	83 f8 12             	cmp    $0x12,%eax
    576a:	0f 86 e4 00 00 00    	jbe    5854 <fb_font_glyph+0x704>
    5770:	8d 82 98 01 ff ff    	lea    -0xfe68(%edx),%eax
    5776:	83 f8 03             	cmp    $0x3,%eax
    5779:	0f 86 cd 00 00 00    	jbe    584c <fb_font_glyph+0x6fc>
    577f:	8d 82 90 01 ff ff    	lea    -0xfe70(%edx),%eax
    5785:	83 f8 02             	cmp    $0x2,%eax
    5788:	0f 86 b6 00 00 00    	jbe    5844 <fb_font_glyph+0x6f4>
    578e:	b8 c8 0a 00 00       	mov    $0xac8,%eax
    5793:	81 fa 74 fe 00 00    	cmp    $0xfe74,%edx
    5799:	74 2a                	je     57c5 <fb_font_glyph+0x675>
    579b:	8d 82 8a 01 ff ff    	lea    -0xfe76(%edx),%eax
    57a1:	3d 86 00 00 00       	cmp    $0x86,%eax
    57a6:	0f 86 80 00 00 00    	jbe    582c <fb_font_glyph+0x6dc>
    57ac:	b8 50 0b 00 00       	mov    $0xb50,%eax
    57b1:	81 fa ff fe 00 00    	cmp    $0xfeff,%edx
    57b7:	74 0c                	je     57c5 <fb_font_glyph+0x675>
    57b9:	85 c9                	test   %ecx,%ecx
    57bb:	74 68                	je     5825 <fb_font_glyph+0x6d5>
    57bd:	c6 01 00             	movb   $0x0,(%ecx)
    57c0:	b8 52 0b 00 00       	mov    $0xb52,%eax
    57c5:	5d                   	pop    %ebp
    57c6:	c3                   	ret    
    57c7:	90                   	nop
    57c8:	8d 42 e0             	lea    -0x20(%edx),%eax
    57cb:	5d                   	pop    %ebp
    57cc:	c3                   	ret    
    57cd:	8d 76 00             	lea    0x0(%esi),%esi
    57d0:	8d 42 be             	lea    -0x42(%edx),%eax
    57d3:	5d                   	pop    %ebp
    57d4:	c3                   	ret    
    57d5:	8d 76 00             	lea    0x0(%esi),%esi
    57d8:	8d 42 c0             	lea    -0x40(%edx),%eax
    57db:	5d                   	pop    %ebp
    57dc:	c3                   	ret    
    57dd:	8d 76 00             	lea    0x0(%esi),%esi
    57e0:	8d 42 a2             	lea    -0x5e(%edx),%eax
    57e3:	5d                   	pop    %ebp
    57e4:	c3                   	ret    
    57e5:	8d 76 00             	lea    0x0(%esi),%esi
    57e8:	8d 42 98             	lea    -0x68(%edx),%eax
    57eb:	5d                   	pop    %ebp
    57ec:	c3                   	ret    
    57ed:	8d 76 00             	lea    0x0(%esi),%esi
    57f0:	8d 42 a0             	lea    -0x60(%edx),%eax
    57f3:	5d                   	pop    %ebp
    57f4:	c3                   	ret    
    57f5:	8d 82 77 ff ff ff    	lea    -0x89(%edx),%eax
    57fb:	5d                   	pop    %ebp
    57fc:	c3                   	ret    
    57fd:	8d 82 69 ff ff ff    	lea    -0x97(%edx),%eax
    5803:	5d                   	pop    %ebp
    5804:	c3                   	ret    
    5805:	8d 82 3f ff ff ff    	lea    -0xc1(%edx),%eax
    580b:	5d                   	pop    %ebp
    580c:	c3                   	ret    
    580d:	8d 82 0d ff ff ff    	lea    -0xf3(%edx),%eax
    5813:	5d                   	pop    %ebp
    5814:	c3                   	ret    
    5815:	8d 82 01 ff ff ff    	lea    -0xff(%edx),%eax
    581b:	5d                   	pop    %ebp
    581c:	c3                   	ret    
    581d:	8d 82 ff fe ff ff    	lea    -0x101(%edx),%eax
    5823:	5d                   	pop    %ebp
    5824:	c3                   	ret    
    5825:	b8 52 0b 00 00       	mov    $0xb52,%eax
    582a:	5d                   	pop    %ebp
    582b:	c3                   	ret    
    582c:	8d 82 53 0c 00 00    	lea    0xc53(%edx),%eax
    5832:	5d                   	pop    %ebp
    5833:	c3                   	ret    
    5834:	8d 82 fd fe ff ff    	lea    -0x103(%edx),%eax
    583a:	5d                   	pop    %ebp
    583b:	c3                   	ret    
    583c:	8d 82 fe fe ff ff    	lea    -0x102(%edx),%eax
    5842:	5d                   	pop    %ebp
    5843:	c3                   	ret    
    5844:	8d 82 55 0c 00 00    	lea    0xc55(%edx),%eax
    584a:	5d                   	pop    %ebp
    584b:	c3                   	ret    
    584c:	8d 82 59 0c 00 00    	lea    0xc59(%edx),%eax
    5852:	5d                   	pop    %ebp
    5853:	c3                   	ret    
    5854:	8d 82 5a 0c 00 00    	lea    0xc5a(%edx),%eax
    585a:	5d                   	pop    %ebp
    585b:	c3                   	ret    
    585c:	8d 82 5b 0c 00 00    	lea    0xc5b(%edx),%eax
    5862:	5d                   	pop    %ebp
    5863:	c3                   	ret    
    5864:	8d 82 c3 fe ff ff    	lea    -0x13d(%edx),%eax
    586a:	5d                   	pop    %ebp
    586b:	c3                   	ret    
    586c:	8d 82 c5 fe ff ff    	lea    -0x13b(%edx),%eax
    5872:	5d                   	pop    %ebp
    5873:	c3                   	ret    
    5874:	8d 82 e5 fe ff ff    	lea    -0x11b(%edx),%eax
    587a:	5d                   	pop    %ebp
    587b:	c3                   	ret    
    587c:	8d 82 eb fe ff ff    	lea    -0x115(%edx),%eax
    5882:	5d                   	pop    %ebp
    5883:	c3                   	ret    
    5884:	8d 82 ed fe ff ff    	lea    -0x113(%edx),%eax
    588a:	5d                   	pop    %ebp
    588b:	c3                   	ret    
    588c:	8d 82 ee fe ff ff    	lea    -0x112(%edx),%eax
    5892:	5d                   	pop    %ebp
    5893:	c3                   	ret    
    5894:	8d 82 ef fe ff ff    	lea    -0x111(%edx),%eax
    589a:	5d                   	pop    %ebp
    589b:	c3                   	ret    
    589c:	8d 82 fb fe ff ff    	lea    -0x105(%edx),%eax
    58a2:	5d                   	pop    %ebp
    58a3:	c3                   	ret    
    58a4:	8d 82 6f e6 ff ff    	lea    -0x1991(%edx),%eax
    58aa:	5d                   	pop    %ebp
    58ab:	c3                   	ret    
    58ac:	8d 82 67 e7 ff ff    	lea    -0x1899(%edx),%eax
    58b2:	5d                   	pop    %ebp
    58b3:	c3                   	ret    
    58b4:	8d 82 6d e7 ff ff    	lea    -0x1893(%edx),%eax
    58ba:	5d                   	pop    %ebp
    58bb:	c3                   	ret    
    58bc:	8d 82 71 e7 ff ff    	lea    -0x188f(%edx),%eax
    58c2:	5d                   	pop    %ebp
    58c3:	c3                   	ret    
    58c4:	8d 82 6d fe ff ff    	lea    -0x193(%edx),%eax
    58ca:	5d                   	pop    %ebp
    58cb:	c3                   	ret    
    58cc:	8d 82 6f fe ff ff    	lea    -0x191(%edx),%eax
    58d2:	5d                   	pop    %ebp
    58d3:	c3                   	ret    
    58d4:	8d 82 71 fe ff ff    	lea    -0x18f(%edx),%eax
    58da:	5d                   	pop    %ebp
    58db:	c3                   	ret    
    58dc:	8d 82 7b fe ff ff    	lea    -0x185(%edx),%eax
    58e2:	5d                   	pop    %ebp
    58e3:	c3                   	ret    
    58e4:	8d 82 80 fe ff ff    	lea    -0x180(%edx),%eax
    58ea:	5d                   	pop    %ebp
    58eb:	c3                   	ret    
    58ec:	8d 82 a9 fe ff ff    	lea    -0x157(%edx),%eax
    58f2:	5d                   	pop    %ebp
    58f3:	c3                   	ret    
    58f4:	8d 82 ae fe ff ff    	lea    -0x152(%edx),%eax
    58fa:	5d                   	pop    %ebp
    58fb:	c3                   	ret    
    58fc:	8d 82 b9 fe ff ff    	lea    -0x147(%edx),%eax
    5902:	5d                   	pop    %ebp
    5903:	c3                   	ret    
    5904:	8d 82 ba fe ff ff    	lea    -0x146(%edx),%eax
    590a:	5d                   	pop    %ebp
    590b:	c3                   	ret    
    590c:	8d 82 bb fe ff ff    	lea    -0x145(%edx),%eax
    5912:	5d                   	pop    %ebp
    5913:	c3                   	ret    
    5914:	8d 82 c1 fe ff ff    	lea    -0x13f(%edx),%eax
    591a:	5d                   	pop    %ebp
    591b:	c3                   	ret    
    591c:	8d 82 c2 fe ff ff    	lea    -0x13e(%edx),%eax
    5922:	5d                   	pop    %ebp
    5923:	c3                   	ret    
    5924:	8d 82 6a 0d 00 00    	lea    0xd6a(%edx),%eax
    592a:	5d                   	pop    %ebp
    592b:	c3                   	ret    
    592c:	8d 82 b1 0d 00 00    	lea    0xdb1(%edx),%eax
    5932:	5d                   	pop    %ebp
    5933:	c3                   	ret    
    5934:	8d 82 3e 0e 00 00    	lea    0xe3e(%edx),%eax
    593a:	5d                   	pop    %ebp
    593b:	c3                   	ret    
    593c:	8d 82 99 0e 00 00    	lea    0xe99(%edx),%eax
    5942:	5d                   	pop    %ebp
    5943:	c3                   	ret    
    5944:	8d 82 ab 0e 00 00    	lea    0xeab(%edx),%eax
    594a:	5d                   	pop    %ebp
    594b:	c3                   	ret    
    594c:	8d 82 cc 0e 00 00    	lea    0xecc(%edx),%eax
    5952:	5d                   	pop    %ebp
    5953:	c3                   	ret    
    5954:	8d 82 16 0f 00 00    	lea    0xf16(%edx),%eax
    595a:	5d                   	pop    %ebp
    595b:	c3                   	ret    
    595c:	8d 82 a6 e3 ff ff    	lea    -0x1c5a(%edx),%eax
    5962:	5d                   	pop    %ebp
    5963:	c3                   	ret    
    5964:	8d 82 a7 e3 ff ff    	lea    -0x1c59(%edx),%eax
    596a:	5d                   	pop    %ebp
    596b:	c3                   	ret    
    596c:	8d 82 b3 e3 ff ff    	lea    -0x1c4d(%edx),%eax
    5972:	5d                   	pop    %ebp
    5973:	c3                   	ret    
    5974:	8d 82 b4 e3 ff ff    	lea    -0x1c4c(%edx),%eax
    597a:	5d                   	pop    %ebp
    597b:	c3                   	ret    
    597c:	8d 82 b6 e3 ff ff    	lea    -0x1c4a(%edx),%eax
    5982:	5d                   	pop    %ebp
    5983:	c3                   	ret    
    5984:	8d 82 c7 e3 ff ff    	lea    -0x1c39(%edx),%eax
    598a:	5d                   	pop    %ebp
    598b:	c3                   	ret    
    598c:	8d 82 c9 e3 ff ff    	lea    -0x1c37(%edx),%eax
    5992:	5d                   	pop    %ebp
    5993:	c3                   	ret    
    5994:	8d 82 cb e3 ff ff    	lea    -0x1c35(%edx),%eax
    599a:	5d                   	pop    %ebp
    599b:	c3                   	ret    
    599c:	8d 82 d3 e3 ff ff    	lea    -0x1c2d(%edx),%eax
    59a2:	5d                   	pop    %ebp
    59a3:	c3                   	ret    
    59a4:	8d 82 dd e3 ff ff    	lea    -0x1c23(%edx),%eax
    59aa:	5d                   	pop    %ebp
    59ab:	c3                   	ret    
    59ac:	8d 82 b7 e4 ff ff    	lea    -0x1b49(%edx),%eax
    59b2:	5d                   	pop    %ebp
    59b3:	c3                   	ret    
    59b4:	8d 82 cc e4 ff ff    	lea    -0x1b34(%edx),%eax
    59ba:	5d                   	pop    %ebp
    59bb:	c3                   	ret    
    59bc:	8d 82 16 e5 ff ff    	lea    -0x1aea(%edx),%eax
    59c2:	5d                   	pop    %ebp
    59c3:	c3                   	ret    
    59c4:	8d 82 86 e5 ff ff    	lea    -0x1a7a(%edx),%eax
    59ca:	5d                   	pop    %ebp
    59cb:	c3                   	ret    
    59cc:	8d 82 8d e5 ff ff    	lea    -0x1a73(%edx),%eax
    59d2:	5d                   	pop    %ebp
    59d3:	c3                   	ret    
    59d4:	8d 82 91 e5 ff ff    	lea    -0x1a6f(%edx),%eax
    59da:	5d                   	pop    %ebp
    59db:	c3                   	ret    
    59dc:	8d 82 9d e5 ff ff    	lea    -0x1a63(%edx),%eax
    59e2:	5d                   	pop    %ebp
    59e3:	c3                   	ret    
    59e4:	8d 82 b1 e5 ff ff    	lea    -0x1a4f(%edx),%eax
    59ea:	5d                   	pop    %ebp
    59eb:	c3                   	ret    
    59ec:	8d 82 bd e5 ff ff    	lea    -0x1a43(%edx),%eax
    59f2:	5d                   	pop    %ebp
    59f3:	c3                   	ret    
    59f4:	8d 82 c9 e5 ff ff    	lea    -0x1a37(%edx),%eax
    59fa:	5d                   	pop    %ebp
    59fb:	c3                   	ret    
    59fc:	8d 82 e1 e5 ff ff    	lea    -0x1a1f(%edx),%eax
    5a02:	5d                   	pop    %ebp
    5a03:	c3                   	ret    
    5a04:	8d 82 31 e6 ff ff    	lea    -0x19cf(%edx),%eax
    5a0a:	5d                   	pop    %ebp
    5a0b:	c3                   	ret    
    5a0c:	8d 82 41 e6 ff ff    	lea    -0x19bf(%edx),%eax
    5a12:	5d                   	pop    %ebp
    5a13:	c3                   	ret    
    5a14:	8d 82 66 e6 ff ff    	lea    -0x199a(%edx),%eax
    5a1a:	5d                   	pop    %ebp
    5a1b:	c3                   	ret    
    5a1c:	8d 82 67 e6 ff ff    	lea    -0x1999(%edx),%eax
    5a22:	5d                   	pop    %ebp
    5a23:	c3                   	ret    
    5a24:	66 90                	xchg   %ax,%ax
    5a26:	66 90                	xchg   %ax,%ax
    5a28:	66 90                	xchg   %ax,%ax
    5a2a:	66 90                	xchg   %ax,%ax
    5a2c:	66 90                	xchg   %ax,%ax
    5a2e:	66 90                	xchg   %ax,%ax

00005a30 <drawctx_init>:
    5a30:	55                   	push   %ebp
    5a31:	89 e5                	mov    %esp,%ebp
    5a33:	83 ec 08             	sub    $0x8,%esp
    5a36:	8b 55 0c             	mov    0xc(%ebp),%edx
    5a39:	8b 45 08             	mov    0x8(%ebp),%eax
    5a3c:	85 d2                	test   %edx,%edx
    5a3e:	74 47                	je     5a87 <drawctx_init+0x57>
    5a40:	8d 48 08             	lea    0x8(%eax),%ecx
    5a43:	89 50 10             	mov    %edx,0x10(%eax)
    5a46:	89 48 08             	mov    %ecx,0x8(%eax)
    5a49:	89 48 0c             	mov    %ecx,0xc(%eax)
    5a4c:	c7 40 14 a0 68 00 00 	movl   $0x68a0,0x14(%eax)
    5a53:	c7 40 18 00 00 00 00 	movl   $0x0,0x18(%eax)
    5a5a:	c7 40 1c 00 00 00 00 	movl   $0x0,0x1c(%eax)
    5a61:	c6 40 24 00          	movb   $0x0,0x24(%eax)
    5a65:	c7 40 28 00 00 00 00 	movl   $0x0,0x28(%eax)
    5a6c:	c7 40 2c 00 00 00 00 	movl   $0x0,0x2c(%eax)
    5a73:	51                   	push   %ecx
    5a74:	8d 48 34             	lea    0x34(%eax),%ecx
    5a77:	83 c0 30             	add    $0x30,%eax
    5a7a:	51                   	push   %ecx
    5a7b:	50                   	push   %eax
    5a7c:	52                   	push   %edx
    5a7d:	e8 de 0b 00 00       	call   6660 <surface_get_resolution>
    5a82:	83 c4 10             	add    $0x10,%esp
    5a85:	c9                   	leave  
    5a86:	c3                   	ret    
    5a87:	50                   	push   %eax
    5a88:	6a 2c                	push   $0x2c
    5a8a:	68 83 7c 00 00       	push   $0x7c83
    5a8f:	68 8d 7c 00 00       	push   $0x7c8d
    5a94:	e8 e7 24 00 00       	call   7f80 <assert_abort@plt>
    5a99:	8d b4 26 00 00 00 00 	lea    0x0(%esi,%eiz,1),%esi

00005aa0 <drawctx_save>:
    5aa0:	55                   	push   %ebp
    5aa1:	89 e5                	mov    %esp,%ebp
    5aa3:	53                   	push   %ebx
    5aa4:	83 ec 10             	sub    $0x10,%esp
    5aa7:	8b 5d 08             	mov    0x8(%ebp),%ebx
    5aaa:	6a 38                	push   $0x38
    5aac:	e8 7f 24 00 00       	call   7f30 <malloc@plt>
    5ab1:	83 c4 10             	add    $0x10,%esp
    5ab4:	85 c0                	test   %eax,%eax
    5ab6:	74 41                	je     5af9 <drawctx_save+0x59>
    5ab8:	8b 53 14             	mov    0x14(%ebx),%edx
    5abb:	8a 4b 24             	mov    0x24(%ebx),%cl
    5abe:	89 50 14             	mov    %edx,0x14(%eax)
    5ac1:	8b 53 18             	mov    0x18(%ebx),%edx
    5ac4:	89 50 18             	mov    %edx,0x18(%eax)
    5ac7:	8b 53 1c             	mov    0x1c(%ebx),%edx
    5aca:	89 50 1c             	mov    %edx,0x1c(%eax)
    5acd:	8b 53 28             	mov    0x28(%ebx),%edx
    5ad0:	89 50 28             	mov    %edx,0x28(%eax)
    5ad3:	8b 53 2c             	mov    0x2c(%ebx),%edx
    5ad6:	89 50 2c             	mov    %edx,0x2c(%eax)
    5ad9:	8b 53 30             	mov    0x30(%ebx),%edx
    5adc:	89 50 30             	mov    %edx,0x30(%eax)
    5adf:	8b 53 34             	mov    0x34(%ebx),%edx
    5ae2:	89 50 34             	mov    %edx,0x34(%eax)
    5ae5:	8d 53 08             	lea    0x8(%ebx),%edx
    5ae8:	89 50 04             	mov    %edx,0x4(%eax)
    5aeb:	8b 53 08             	mov    0x8(%ebx),%edx
    5aee:	88 48 24             	mov    %cl,0x24(%eax)
    5af1:	89 10                	mov    %edx,(%eax)
    5af3:	89 42 04             	mov    %eax,0x4(%edx)
    5af6:	89 43 08             	mov    %eax,0x8(%ebx)
    5af9:	8b 5d fc             	mov    -0x4(%ebp),%ebx
    5afc:	c9                   	leave  
    5afd:	c3                   	ret    
    5afe:	66 90                	xchg   %ax,%ax

00005b00 <drawctx_restore>:
    5b00:	55                   	push   %ebp
    5b01:	89 e5                	mov    %esp,%ebp
    5b03:	53                   	push   %ebx
    5b04:	8b 55 08             	mov    0x8(%ebp),%edx
    5b07:	8b 42 08             	mov    0x8(%edx),%eax
    5b0a:	85 c0                	test   %eax,%eax
    5b0c:	74 62                	je     5b70 <drawctx_restore+0x70>
    5b0e:	8d 4a 08             	lea    0x8(%edx),%ecx
    5b11:	39 c8                	cmp    %ecx,%eax
    5b13:	74 5b                	je     5b70 <drawctx_restore+0x70>
    5b15:	8b 18                	mov    (%eax),%ebx
    5b17:	85 db                	test   %ebx,%ebx
    5b19:	74 0e                	je     5b29 <drawctx_restore+0x29>
    5b1b:	8b 48 04             	mov    0x4(%eax),%ecx
    5b1e:	85 c9                	test   %ecx,%ecx
    5b20:	74 07                	je     5b29 <drawctx_restore+0x29>
    5b22:	89 19                	mov    %ebx,(%ecx)
    5b24:	8b 18                	mov    (%eax),%ebx
    5b26:	89 4b 04             	mov    %ecx,0x4(%ebx)
    5b29:	8b 48 14             	mov    0x14(%eax),%ecx
    5b2c:	c7 00 00 00 00 00    	movl   $0x0,(%eax)
    5b32:	c7 40 04 00 00 00 00 	movl   $0x0,0x4(%eax)
    5b39:	89 4a 14             	mov    %ecx,0x14(%edx)
    5b3c:	8b 48 18             	mov    0x18(%eax),%ecx
    5b3f:	8a 58 24             	mov    0x24(%eax),%bl
    5b42:	89 4a 18             	mov    %ecx,0x18(%edx)
    5b45:	8b 48 1c             	mov    0x1c(%eax),%ecx
    5b48:	89 4a 1c             	mov    %ecx,0x1c(%edx)
    5b4b:	8b 48 28             	mov    0x28(%eax),%ecx
    5b4e:	89 4a 28             	mov    %ecx,0x28(%edx)
    5b51:	8b 48 2c             	mov    0x2c(%eax),%ecx
    5b54:	89 4a 2c             	mov    %ecx,0x2c(%edx)
    5b57:	8b 48 30             	mov    0x30(%eax),%ecx
    5b5a:	89 4a 30             	mov    %ecx,0x30(%edx)
    5b5d:	8b 48 34             	mov    0x34(%eax),%ecx
    5b60:	88 5a 24             	mov    %bl,0x24(%edx)
    5b63:	89 4a 34             	mov    %ecx,0x34(%edx)
    5b66:	5b                   	pop    %ebx
    5b67:	89 45 08             	mov    %eax,0x8(%ebp)
    5b6a:	5d                   	pop    %ebp
    5b6b:	e9 f0 25 00 00       	jmp    8160 <free@plt>
    5b70:	5b                   	pop    %ebx
    5b71:	5d                   	pop    %ebp
    5b72:	c3                   	ret    
    5b73:	8d b6 00 00 00 00    	lea    0x0(%esi),%esi
    5b79:	8d bc 27 00 00 00 00 	lea    0x0(%edi,%eiz,1),%edi

00005b80 <drawctx_set_compose>:
    5b80:	55                   	push   %ebp
    5b81:	89 e5                	mov    %esp,%ebp
    5b83:	8b 45 08             	mov    0x8(%ebp),%eax
    5b86:	8b 55 0c             	mov    0xc(%ebp),%edx
    5b89:	89 50 14             	mov    %edx,0x14(%eax)
    5b8c:	5d                   	pop    %ebp
    5b8d:	c3                   	ret    
    5b8e:	66 90                	xchg   %ax,%ax

00005b90 <drawctx_set_clip>:
    5b90:	55                   	push   %ebp
    5b91:	89 e5                	mov    %esp,%ebp
    5b93:	57                   	push   %edi
    5b94:	56                   	push   %esi
    5b95:	53                   	push   %ebx
    5b96:	83 ec 10             	sub    $0x10,%esp
    5b99:	8b 5d 08             	mov    0x8(%ebp),%ebx
    5b9c:	8b 75 0c             	mov    0xc(%ebp),%esi
    5b9f:	8b 7d 14             	mov    0x14(%ebp),%edi
    5ba2:	8d 53 34             	lea    0x34(%ebx),%edx
    5ba5:	8b 43 10             	mov    0x10(%ebx),%eax
    5ba8:	52                   	push   %edx
    5ba9:	8d 53 30             	lea    0x30(%ebx),%edx
    5bac:	52                   	push   %edx
    5bad:	50                   	push   %eax
    5bae:	e8 ad 0a 00 00       	call   6660 <surface_get_resolution>
    5bb3:	89 f0                	mov    %esi,%eax
    5bb5:	83 c4 10             	add    $0x10,%esp
    5bb8:	b2 01                	mov    $0x1,%dl
    5bba:	0b 45 10             	or     0x10(%ebp),%eax
    5bbd:	75 0e                	jne    5bcd <drawctx_set_clip+0x3d>
    5bbf:	39 7b 30             	cmp    %edi,0x30(%ebx)
    5bc2:	77 09                	ja     5bcd <drawctx_set_clip+0x3d>
    5bc4:	8b 45 18             	mov    0x18(%ebp),%eax
    5bc7:	39 43 34             	cmp    %eax,0x34(%ebx)
    5bca:	0f 97 c2             	seta   %dl
    5bcd:	8b 45 10             	mov    0x10(%ebp),%eax
    5bd0:	88 53 24             	mov    %dl,0x24(%ebx)
    5bd3:	89 43 2c             	mov    %eax,0x2c(%ebx)
    5bd6:	8b 45 18             	mov    0x18(%ebp),%eax
    5bd9:	89 73 28             	mov    %esi,0x28(%ebx)
    5bdc:	89 7b 30             	mov    %edi,0x30(%ebx)
    5bdf:	89 43 34             	mov    %eax,0x34(%ebx)
    5be2:	8d 65 f4             	lea    -0xc(%ebp),%esp
    5be5:	5b                   	pop    %ebx
    5be6:	5e                   	pop    %esi
    5be7:	5f                   	pop    %edi
    5be8:	5d                   	pop    %ebp
    5be9:	c3                   	ret    
    5bea:	8d b6 00 00 00 00    	lea    0x0(%esi),%esi

00005bf0 <drawctx_set_mask>:
    5bf0:	55                   	push   %ebp
    5bf1:	89 e5                	mov    %esp,%ebp
    5bf3:	8b 45 08             	mov    0x8(%ebp),%eax
    5bf6:	8b 55 0c             	mov    0xc(%ebp),%edx
    5bf9:	89 50 18             	mov    %edx,0x18(%eax)
    5bfc:	5d                   	pop    %ebp
    5bfd:	c3                   	ret    
    5bfe:	66 90                	xchg   %ax,%ax

00005c00 <drawctx_set_source>:
    5c00:	55                   	push   %ebp
    5c01:	89 e5                	mov    %esp,%ebp
    5c03:	8b 45 08             	mov    0x8(%ebp),%eax
    5c06:	8b 55 0c             	mov    0xc(%ebp),%edx
    5c09:	89 50 1c             	mov    %edx,0x1c(%eax)
    5c0c:	5d                   	pop    %ebp
    5c0d:	c3                   	ret    
    5c0e:	66 90                	xchg   %ax,%ax

00005c10 <drawctx_set_font>:
    5c10:	55                   	push   %ebp
    5c11:	89 e5                	mov    %esp,%ebp
    5c13:	8b 45 08             	mov    0x8(%ebp),%eax
    5c16:	8b 55 0c             	mov    0xc(%ebp),%edx
    5c19:	89 50 20             	mov    %edx,0x20(%eax)
    5c1c:	5d                   	pop    %ebp
    5c1d:	c3                   	ret    
    5c1e:	66 90                	xchg   %ax,%ax

00005c20 <drawctx_transfer>:
    5c20:	55                   	push   %ebp
    5c21:	89 e5                	mov    %esp,%ebp
    5c23:	57                   	push   %edi
    5c24:	56                   	push   %esi
    5c25:	53                   	push   %ebx
    5c26:	83 ec 4c             	sub    $0x4c,%esp
    5c29:	8b 45 0c             	mov    0xc(%ebp),%eax
    5c2c:	8b 7d 08             	mov    0x8(%ebp),%edi
    5c2f:	89 45 d0             	mov    %eax,-0x30(%ebp)
    5c32:	8b 45 14             	mov    0x14(%ebp),%eax
    5c35:	89 45 b0             	mov    %eax,-0x50(%ebp)
    5c38:	8b 45 18             	mov    0x18(%ebp),%eax
    5c3b:	89 45 b8             	mov    %eax,-0x48(%ebp)
    5c3e:	8b 47 1c             	mov    0x1c(%edi),%eax
    5c41:	8b 75 10             	mov    0x10(%ebp),%esi
    5c44:	85 c0                	test   %eax,%eax
    5c46:	0f 84 fd 00 00 00    	je     5d49 <drawctx_transfer+0x129>
    5c4c:	83 ec 0c             	sub    $0xc,%esp
    5c4f:	50                   	push   %eax
    5c50:	e8 5b 06 00 00       	call   62b0 <source_is_fast>
    5c55:	83 c4 10             	add    $0x10,%esp
    5c58:	84 c0                	test   %al,%al
    5c5a:	0f 85 f1 00 00 00    	jne    5d51 <drawctx_transfer+0x131>
    5c60:	8b 45 b8             	mov    -0x48(%ebp),%eax
    5c63:	01 f0                	add    %esi,%eax
    5c65:	89 45 b4             	mov    %eax,-0x4c(%ebp)
    5c68:	39 c6                	cmp    %eax,%esi
    5c6a:	0f 83 d9 00 00 00    	jae    5d49 <drawctx_transfer+0x129>
    5c70:	8b 55 d0             	mov    -0x30(%ebp),%edx
    5c73:	8b 45 b0             	mov    -0x50(%ebp),%eax
    5c76:	01 d0                	add    %edx,%eax
    5c78:	89 45 d4             	mov    %eax,-0x2c(%ebp)
    5c7b:	39 c2                	cmp    %eax,%edx
    5c7d:	0f 83 c6 00 00 00    	jae    5d49 <drawctx_transfer+0x129>
    5c83:	31 c9                	xor    %ecx,%ecx
    5c85:	c6 45 d8 00          	movb   $0x0,-0x28(%ebp)
    5c89:	8d b4 26 00 00 00 00 	lea    0x0(%esi,%eiz,1),%esi
    5c90:	8b 5d d0             	mov    -0x30(%ebp),%ebx
    5c93:	89 75 b8             	mov    %esi,-0x48(%ebp)
    5c96:	c7 45 bc 00 00 00 00 	movl   $0x0,-0x44(%ebp)
    5c9d:	8d 76 00             	lea    0x0(%esi),%esi
    5ca0:	80 7f 24 00          	cmpb   $0x0,0x24(%edi)
    5ca4:	74 1a                	je     5cc0 <drawctx_transfer+0xa0>
    5ca6:	c6 45 d8 00          	movb   $0x0,-0x28(%ebp)
    5caa:	39 5f 28             	cmp    %ebx,0x28(%edi)
    5cad:	76 11                	jbe    5cc0 <drawctx_transfer+0xa0>
    5caf:	39 5f 30             	cmp    %ebx,0x30(%edi)
    5cb2:	77 0c                	ja     5cc0 <drawctx_transfer+0xa0>
    5cb4:	39 77 2c             	cmp    %esi,0x2c(%edi)
    5cb7:	76 07                	jbe    5cc0 <drawctx_transfer+0xa0>
    5cb9:	39 77 34             	cmp    %esi,0x34(%edi)
    5cbc:	0f 96 45 d8          	setbe  -0x28(%ebp)
    5cc0:	8b 47 18             	mov    0x18(%edi),%eax
    5cc3:	85 c0                	test   %eax,%eax
    5cc5:	74 11                	je     5cd8 <drawctx_transfer+0xb8>
    5cc7:	52                   	push   %edx
    5cc8:	56                   	push   %esi
    5cc9:	53                   	push   %ebx
    5cca:	50                   	push   %eax
    5ccb:	e8 80 0b 00 00       	call   6850 <surface_get_pixel>
    5cd0:	83 c4 10             	add    $0x10,%esp
    5cd3:	85 c0                	test   %eax,%eax
    5cd5:	0f 94 c1             	sete   %cl
    5cd8:	80 7d d8 00          	cmpb   $0x0,-0x28(%ebp)
    5cdc:	75 57                	jne    5d35 <drawctx_transfer+0x115>
    5cde:	84 c9                	test   %cl,%cl
    5ce0:	75 53                	jne    5d35 <drawctx_transfer+0x115>
    5ce2:	83 ec 1c             	sub    $0x1c,%esp
    5ce5:	89 5d c8             	mov    %ebx,-0x38(%ebp)
    5ce8:	df 6d b8             	fildll -0x48(%ebp)
    5ceb:	c7 45 cc 00 00 00 00 	movl   $0x0,-0x34(%ebp)
    5cf2:	88 4d c0             	mov    %cl,-0x40(%ebp)
    5cf5:	dd 5c 24 08          	fstpl  0x8(%esp)
    5cf9:	df 6d c8             	fildll -0x38(%ebp)
    5cfc:	dd 1c 24             	fstpl  (%esp)
    5cff:	8b 47 1c             	mov    0x1c(%edi),%eax
    5d02:	50                   	push   %eax
    5d03:	e8 c8 06 00 00       	call   63d0 <source_determine_pixel>
    5d08:	83 c4 1c             	add    $0x1c,%esp
    5d0b:	89 45 c8             	mov    %eax,-0x38(%ebp)
    5d0e:	56                   	push   %esi
    5d0f:	53                   	push   %ebx
    5d10:	8b 57 10             	mov    0x10(%edi),%edx
    5d13:	52                   	push   %edx
    5d14:	e8 37 0b 00 00       	call   6850 <surface_get_pixel>
    5d19:	59                   	pop    %ecx
    5d1a:	5a                   	pop    %edx
    5d1b:	8b 55 c8             	mov    -0x38(%ebp),%edx
    5d1e:	50                   	push   %eax
    5d1f:	52                   	push   %edx
    5d20:	ff 57 14             	call   *0x14(%edi)
    5d23:	50                   	push   %eax
    5d24:	56                   	push   %esi
    5d25:	53                   	push   %ebx
    5d26:	8b 4f 10             	mov    0x10(%edi),%ecx
    5d29:	51                   	push   %ecx
    5d2a:	e8 c1 0a 00 00       	call   67f0 <surface_put_pixel>
    5d2f:	83 c4 20             	add    $0x20,%esp
    5d32:	8a 4d c0             	mov    -0x40(%ebp),%cl
    5d35:	43                   	inc    %ebx
    5d36:	39 5d d4             	cmp    %ebx,-0x2c(%ebp)
    5d39:	0f 85 61 ff ff ff    	jne    5ca0 <drawctx_transfer+0x80>
    5d3f:	46                   	inc    %esi
    5d40:	3b 75 b4             	cmp    -0x4c(%ebp),%esi
    5d43:	0f 85 47 ff ff ff    	jne    5c90 <drawctx_transfer+0x70>
    5d49:	8d 65 f4             	lea    -0xc(%ebp),%esp
    5d4c:	5b                   	pop    %ebx
    5d4d:	5e                   	pop    %esi
    5d4e:	5f                   	pop    %edi
    5d4f:	5d                   	pop    %ebp
    5d50:	c3                   	ret    
    5d51:	80 7f 24 00          	cmpb   $0x0,0x24(%edi)
    5d55:	0f 85 05 ff ff ff    	jne    5c60 <drawctx_transfer+0x40>
    5d5b:	8b 47 18             	mov    0x18(%edi),%eax
    5d5e:	85 c0                	test   %eax,%eax
    5d60:	0f 85 fa fe ff ff    	jne    5c60 <drawctx_transfer+0x40>
    5d66:	8b 47 14             	mov    0x14(%edi),%eax
    5d69:	3d a0 68 00 00       	cmp    $0x68a0,%eax
    5d6e:	74 0b                	je     5d7b <drawctx_transfer+0x15b>
    5d70:	3d c0 68 00 00       	cmp    $0x68c0,%eax
    5d75:	0f 85 e5 fe ff ff    	jne    5c60 <drawctx_transfer+0x40>
    5d7b:	8b 45 b8             	mov    -0x48(%ebp),%eax
    5d7e:	01 f0                	add    %esi,%eax
    5d80:	89 45 c8             	mov    %eax,-0x38(%ebp)
    5d83:	39 c6                	cmp    %eax,%esi
    5d85:	0f 83 9c 00 00 00    	jae    5e27 <drawctx_transfer+0x207>
    5d8b:	8b 45 d0             	mov    -0x30(%ebp),%eax
    5d8e:	c7 45 dc 00 00 00 00 	movl   $0x0,-0x24(%ebp)
    5d95:	89 45 d8             	mov    %eax,-0x28(%ebp)
    5d98:	89 f2                	mov    %esi,%edx
    5d9a:	df 6d d8             	fildll -0x28(%ebp)
    5d9d:	89 75 b4             	mov    %esi,-0x4c(%ebp)
    5da0:	8b 75 b0             	mov    -0x50(%ebp),%esi
    5da3:	dd 5d c0             	fstpl  -0x40(%ebp)
    5da6:	66 90                	xchg   %ax,%ax
    5da8:	89 55 d8             	mov    %edx,-0x28(%ebp)
    5dab:	c7 45 dc 00 00 00 00 	movl   $0x0,-0x24(%ebp)
    5db2:	83 ec 14             	sub    $0x14,%esp
    5db5:	89 55 d4             	mov    %edx,-0x2c(%ebp)
    5db8:	df 6d d8             	fildll -0x28(%ebp)
    5dbb:	8b 55 c0             	mov    -0x40(%ebp),%edx
    5dbe:	8b 45 c4             	mov    -0x3c(%ebp),%eax
    5dc1:	dd 1c 24             	fstpl  (%esp)
    5dc4:	50                   	push   %eax
    5dc5:	52                   	push   %edx
    5dc6:	8b 4f 1c             	mov    0x1c(%edi),%ecx
    5dc9:	51                   	push   %ecx
    5dca:	e8 21 05 00 00       	call   62f0 <source_direct_access>
    5dcf:	83 c4 14             	add    $0x14,%esp
    5dd2:	89 c3                	mov    %eax,%ebx
    5dd4:	8b 47 10             	mov    0x10(%edi),%eax
    5dd7:	50                   	push   %eax
    5dd8:	e8 73 08 00 00       	call   6650 <surface_pixmap_access>
    5ddd:	83 c4 10             	add    $0x10,%esp
    5de0:	8b 55 d4             	mov    -0x2c(%ebp),%edx
    5de3:	8b 08                	mov    (%eax),%ecx
    5de5:	39 4d d0             	cmp    %ecx,-0x30(%ebp)
    5de8:	73 34                	jae    5e1e <drawctx_transfer+0x1fe>
    5dea:	39 50 04             	cmp    %edx,0x4(%eax)
    5ded:	76 2f                	jbe    5e1e <drawctx_transfer+0x1fe>
    5def:	0f af ca             	imul   %edx,%ecx
    5df2:	03 4d d0             	add    -0x30(%ebp),%ecx
    5df5:	8b 40 08             	mov    0x8(%eax),%eax
    5df8:	85 db                	test   %ebx,%ebx
    5dfa:	8d 0c 88             	lea    (%eax,%ecx,4),%ecx
    5dfd:	74 1f                	je     5e1e <drawctx_transfer+0x1fe>
    5dff:	85 c9                	test   %ecx,%ecx
    5e01:	74 1b                	je     5e1e <drawctx_transfer+0x1fe>
    5e03:	85 f6                	test   %esi,%esi
    5e05:	74 17                	je     5e1e <drawctx_transfer+0x1fe>
    5e07:	31 c0                	xor    %eax,%eax
    5e09:	89 55 d8             	mov    %edx,-0x28(%ebp)
    5e0c:	8d 74 26 00          	lea    0x0(%esi,%eiz,1),%esi
    5e10:	8b 14 83             	mov    (%ebx,%eax,4),%edx
    5e13:	89 14 81             	mov    %edx,(%ecx,%eax,4)
    5e16:	40                   	inc    %eax
    5e17:	39 c6                	cmp    %eax,%esi
    5e19:	75 f5                	jne    5e10 <drawctx_transfer+0x1f0>
    5e1b:	8b 55 d8             	mov    -0x28(%ebp),%edx
    5e1e:	42                   	inc    %edx
    5e1f:	3b 55 c8             	cmp    -0x38(%ebp),%edx
    5e22:	75 84                	jne    5da8 <drawctx_transfer+0x188>
    5e24:	8b 75 b4             	mov    -0x4c(%ebp),%esi
    5e27:	8b 45 b8             	mov    -0x48(%ebp),%eax
    5e2a:	89 75 10             	mov    %esi,0x10(%ebp)
    5e2d:	89 45 18             	mov    %eax,0x18(%ebp)
    5e30:	8b 45 b0             	mov    -0x50(%ebp),%eax
    5e33:	89 45 14             	mov    %eax,0x14(%ebp)
    5e36:	8b 45 d0             	mov    -0x30(%ebp),%eax
    5e39:	89 45 0c             	mov    %eax,0xc(%ebp)
    5e3c:	8b 47 10             	mov    0x10(%edi),%eax
    5e3f:	89 45 08             	mov    %eax,0x8(%ebp)
    5e42:	8d 65 f4             	lea    -0xc(%ebp),%esp
    5e45:	5b                   	pop    %ebx
    5e46:	5e                   	pop    %esi
    5e47:	5f                   	pop    %edi
    5e48:	5d                   	pop    %ebp
    5e49:	e9 22 09 00 00       	jmp    6770 <surface_add_damaged_region>
    5e4e:	66 90                	xchg   %ax,%ax

00005e50 <drawctx_stroke>:
    5e50:	55                   	push   %ebp
    5e51:	89 e5                	mov    %esp,%ebp
    5e53:	8b 45 08             	mov    0x8(%ebp),%eax
    5e56:	8b 55 0c             	mov    0xc(%ebp),%edx
    5e59:	8b 40 1c             	mov    0x1c(%eax),%eax
    5e5c:	85 c0                	test   %eax,%eax
    5e5e:	74 17                	je     5e77 <drawctx_stroke+0x27>
    5e60:	85 d2                	test   %edx,%edx
    5e62:	74 13                	je     5e77 <drawctx_stroke+0x27>
    5e64:	8b 42 04             	mov    0x4(%edx),%eax
    5e67:	39 d0                	cmp    %edx,%eax
    5e69:	74 0c                	je     5e77 <drawctx_stroke+0x27>
    5e6b:	90                   	nop
    5e6c:	8d 74 26 00          	lea    0x0(%esi,%eiz,1),%esi
    5e70:	8b 40 04             	mov    0x4(%eax),%eax
    5e73:	39 d0                	cmp    %edx,%eax
    5e75:	75 f9                	jne    5e70 <drawctx_stroke+0x20>
    5e77:	5d                   	pop    %ebp
    5e78:	c3                   	ret    
    5e79:	8d b4 26 00 00 00 00 	lea    0x0(%esi,%eiz,1),%esi

00005e80 <drawctx_fill>:
    5e80:	55                   	push   %ebp
    5e81:	89 e5                	mov    %esp,%ebp
    5e83:	5d                   	pop    %ebp
    5e84:	c3                   	ret    
    5e85:	8d 74 26 00          	lea    0x0(%esi,%eiz,1),%esi
    5e89:	8d bc 27 00 00 00 00 	lea    0x0(%edi,%eiz,1),%edi

00005e90 <drawctx_print>:
    5e90:	55                   	push   %ebp
    5e91:	89 e5                	mov    %esp,%ebp
    5e93:	83 ec 08             	sub    $0x8,%esp
    5e96:	8b 45 08             	mov    0x8(%ebp),%eax
    5e99:	8b 50 20             	mov    0x20(%eax),%edx
    5e9c:	85 d2                	test   %edx,%edx
    5e9e:	74 1e                	je     5ebe <drawctx_print+0x2e>
    5ea0:	8b 48 1c             	mov    0x1c(%eax),%ecx
    5ea3:	85 c9                	test   %ecx,%ecx
    5ea5:	74 17                	je     5ebe <drawctx_print+0x2e>
    5ea7:	83 ec 08             	sub    $0x8,%esp
    5eaa:	ff 75 14             	pushl  0x14(%ebp)
    5ead:	ff 75 10             	pushl  0x10(%ebp)
    5eb0:	ff 75 0c             	pushl  0xc(%ebp)
    5eb3:	51                   	push   %ecx
    5eb4:	50                   	push   %eax
    5eb5:	52                   	push   %edx
    5eb6:	e8 c5 01 00 00       	call   6080 <font_draw_text>
    5ebb:	83 c4 20             	add    $0x20,%esp
    5ebe:	c9                   	leave  
    5ebf:	c3                   	ret    

00005ec0 <font_create>:
    5ec0:	55                   	push   %ebp
    5ec1:	89 e5                	mov    %esp,%ebp
    5ec3:	83 ec 14             	sub    $0x14,%esp
    5ec6:	6a 08                	push   $0x8
    5ec8:	e8 63 20 00 00       	call   7f30 <malloc@plt>
    5ecd:	83 c4 10             	add    $0x10,%esp
    5ed0:	85 c0                	test   %eax,%eax
    5ed2:	74 0b                	je     5edf <font_create+0x1f>
    5ed4:	8b 55 08             	mov    0x8(%ebp),%edx
    5ed7:	89 10                	mov    %edx,(%eax)
    5ed9:	8b 55 0c             	mov    0xc(%ebp),%edx
    5edc:	89 50 04             	mov    %edx,0x4(%eax)
    5edf:	c9                   	leave  
    5ee0:	c3                   	ret    
    5ee1:	eb 0d                	jmp    5ef0 <font_release>
    5ee3:	90                   	nop
    5ee4:	90                   	nop
    5ee5:	90                   	nop
    5ee6:	90                   	nop
    5ee7:	90                   	nop
    5ee8:	90                   	nop
    5ee9:	90                   	nop
    5eea:	90                   	nop
    5eeb:	90                   	nop
    5eec:	90                   	nop
    5eed:	90                   	nop
    5eee:	90                   	nop
    5eef:	90                   	nop

00005ef0 <font_release>:
    5ef0:	55                   	push   %ebp
    5ef1:	89 e5                	mov    %esp,%ebp
    5ef3:	8b 45 08             	mov    0x8(%ebp),%eax
    5ef6:	8b 10                	mov    (%eax),%edx
    5ef8:	8b 40 04             	mov    0x4(%eax),%eax
    5efb:	89 45 08             	mov    %eax,0x8(%ebp)
    5efe:	5d                   	pop    %ebp
    5eff:	8b 42 10             	mov    0x10(%edx),%eax
    5f02:	ff e0                	jmp    *%eax
    5f04:	8d b6 00 00 00 00    	lea    0x0(%esi),%esi
    5f0a:	8d bf 00 00 00 00    	lea    0x0(%edi),%edi

00005f10 <font_get_metrics>:
    5f10:	55                   	push   %ebp
    5f11:	89 e5                	mov    %esp,%ebp
    5f13:	8b 45 08             	mov    0x8(%ebp),%eax
    5f16:	8b 10                	mov    (%eax),%edx
    5f18:	8b 40 04             	mov    0x4(%eax),%eax
    5f1b:	89 45 08             	mov    %eax,0x8(%ebp)
    5f1e:	5d                   	pop    %ebp
    5f1f:	8b 02                	mov    (%edx),%eax
    5f21:	ff e0                	jmp    *%eax
    5f23:	8d b6 00 00 00 00    	lea    0x0(%esi),%esi
    5f29:	8d bc 27 00 00 00 00 	lea    0x0(%edi,%eiz,1),%edi

00005f30 <font_resolve_glyph>:
    5f30:	55                   	push   %ebp
    5f31:	89 e5                	mov    %esp,%ebp
    5f33:	8b 45 08             	mov    0x8(%ebp),%eax
    5f36:	8b 10                	mov    (%eax),%edx
    5f38:	8b 40 04             	mov    0x4(%eax),%eax
    5f3b:	89 45 08             	mov    %eax,0x8(%ebp)
    5f3e:	5d                   	pop    %ebp
    5f3f:	8b 42 04             	mov    0x4(%edx),%eax
    5f42:	ff e0                	jmp    *%eax
    5f44:	8d b6 00 00 00 00    	lea    0x0(%esi),%esi
    5f4a:	8d bf 00 00 00 00    	lea    0x0(%edi),%edi

00005f50 <font_get_glyph_metrics>:
    5f50:	55                   	push   %ebp
    5f51:	89 e5                	mov    %esp,%ebp
    5f53:	8b 45 08             	mov    0x8(%ebp),%eax
    5f56:	8b 10                	mov    (%eax),%edx
    5f58:	8b 40 04             	mov    0x4(%eax),%eax
    5f5b:	89 45 08             	mov    %eax,0x8(%ebp)
    5f5e:	5d                   	pop    %ebp
    5f5f:	8b 42 08             	mov    0x8(%edx),%eax
    5f62:	ff e0                	jmp    *%eax
    5f64:	8d b6 00 00 00 00    	lea    0x0(%esi),%esi
    5f6a:	8d bf 00 00 00 00    	lea    0x0(%edi),%edi

00005f70 <font_render_glyph>:
    5f70:	55                   	push   %ebp
    5f71:	89 e5                	mov    %esp,%ebp
    5f73:	8b 45 08             	mov    0x8(%ebp),%eax
    5f76:	8b 10                	mov    (%eax),%edx
    5f78:	8b 40 04             	mov    0x4(%eax),%eax
    5f7b:	89 45 08             	mov    %eax,0x8(%ebp)
    5f7e:	5d                   	pop    %ebp
    5f7f:	8b 42 0c             	mov    0xc(%edx),%eax
    5f82:	ff e0                	jmp    *%eax
    5f84:	8d b6 00 00 00 00    	lea    0x0(%esi),%esi
    5f8a:	8d bf 00 00 00 00    	lea    0x0(%edi),%edi

00005f90 <font_get_box>:
    5f90:	55                   	push   %ebp
    5f91:	89 e5                	mov    %esp,%ebp
    5f93:	57                   	push   %edi
    5f94:	56                   	push   %esi
    5f95:	53                   	push   %ebx
    5f96:	83 ec 54             	sub    $0x54,%esp
    5f99:	8d 4d c8             	lea    -0x38(%ebp),%ecx
    5f9c:	8b 5d 08             	mov    0x8(%ebp),%ebx
    5f9f:	8b 03                	mov    (%ebx),%eax
    5fa1:	51                   	push   %ecx
    5fa2:	8b 53 04             	mov    0x4(%ebx),%edx
    5fa5:	52                   	push   %edx
    5fa6:	ff 10                	call   *(%eax)
    5fa8:	83 c4 10             	add    $0x10,%esp
    5fab:	89 45 ac             	mov    %eax,-0x54(%ebp)
    5fae:	85 c0                	test   %eax,%eax
    5fb0:	0f 85 a3 00 00 00    	jne    6059 <font_get_box+0xc9>
    5fb6:	c7 45 c0 00 00 00 00 	movl   $0x0,-0x40(%ebp)
    5fbd:	c7 45 b4 00 00 00 00 	movl   $0x0,-0x4c(%ebp)
    5fc4:	8d 7d c0             	lea    -0x40(%ebp),%edi
    5fc7:	8d 75 c4             	lea    -0x3c(%ebp),%esi
    5fca:	eb 61                	jmp    602d <font_get_box+0x9d>
    5fcc:	8d 74 26 00          	lea    0x0(%esi,%eiz,1),%esi
    5fd0:	52                   	push   %edx
    5fd1:	8b 0b                	mov    (%ebx),%ecx
    5fd3:	56                   	push   %esi
    5fd4:	50                   	push   %eax
    5fd5:	8b 43 04             	mov    0x4(%ebx),%eax
    5fd8:	50                   	push   %eax
    5fd9:	ff 51 04             	call   *0x4(%ecx)
    5fdc:	83 c4 10             	add    $0x10,%esp
    5fdf:	85 c0                	test   %eax,%eax
    5fe1:	74 1a                	je     5ffd <font_get_box+0x6d>
    5fe3:	89 45 b0             	mov    %eax,-0x50(%ebp)
    5fe6:	50                   	push   %eax
    5fe7:	8b 03                	mov    (%ebx),%eax
    5fe9:	56                   	push   %esi
    5fea:	8b 53 04             	mov    0x4(%ebx),%edx
    5fed:	6a 3f                	push   $0x3f
    5fef:	52                   	push   %edx
    5ff0:	ff 50 04             	call   *0x4(%eax)
    5ff3:	83 c4 10             	add    $0x10,%esp
    5ff6:	8b 4d b0             	mov    -0x50(%ebp),%ecx
    5ff9:	85 c0                	test   %eax,%eax
    5ffb:	75 6b                	jne    6068 <font_get_box+0xd8>
    5ffd:	8d 55 d4             	lea    -0x2c(%ebp),%edx
    6000:	51                   	push   %ecx
    6001:	8b 03                	mov    (%ebx),%eax
    6003:	52                   	push   %edx
    6004:	8b 4b 04             	mov    0x4(%ebx),%ecx
    6007:	8b 55 c4             	mov    -0x3c(%ebp),%edx
    600a:	52                   	push   %edx
    600b:	51                   	push   %ecx
    600c:	ff 50 08             	call   *0x8(%eax)
    600f:	83 c4 10             	add    $0x10,%esp
    6012:	89 c1                	mov    %eax,%ecx
    6014:	85 c0                	test   %eax,%eax
    6016:	75 50                	jne    6068 <font_get_box+0xd8>
    6018:	8b 4d d4             	mov    -0x2c(%ebp),%ecx
    601b:	8b 45 d8             	mov    -0x28(%ebp),%eax
    601e:	01 c8                	add    %ecx,%eax
    6020:	8b 55 dc             	mov    -0x24(%ebp),%edx
    6023:	8b 4d b4             	mov    -0x4c(%ebp),%ecx
    6026:	01 d0                	add    %edx,%eax
    6028:	01 c1                	add    %eax,%ecx
    602a:	89 4d b4             	mov    %ecx,-0x4c(%ebp)
    602d:	50                   	push   %eax
    602e:	8b 45 0c             	mov    0xc(%ebp),%eax
    6031:	6a ff                	push   $0xffffffff
    6033:	57                   	push   %edi
    6034:	50                   	push   %eax
    6035:	e8 d6 1e 00 00       	call   7f10 <str_decode@plt>
    603a:	83 c4 10             	add    $0x10,%esp
    603d:	85 c0                	test   %eax,%eax
    603f:	75 8f                	jne    5fd0 <font_get_box+0x40>
    6041:	8b 45 10             	mov    0x10(%ebp),%eax
    6044:	8b 7d b4             	mov    -0x4c(%ebp),%edi
    6047:	8b 55 c8             	mov    -0x38(%ebp),%edx
    604a:	89 38                	mov    %edi,(%eax)
    604c:	8b 45 cc             	mov    -0x34(%ebp),%eax
    604f:	01 d0                	add    %edx,%eax
    6051:	8b 55 14             	mov    0x14(%ebp),%edx
    6054:	89 02                	mov    %eax,(%edx)
    6056:	8b 45 ac             	mov    -0x54(%ebp),%eax
    6059:	8d 65 f4             	lea    -0xc(%ebp),%esp
    605c:	5b                   	pop    %ebx
    605d:	5e                   	pop    %esi
    605e:	5f                   	pop    %edi
    605f:	5d                   	pop    %ebp
    6060:	c3                   	ret    
    6061:	8d b4 26 00 00 00 00 	lea    0x0(%esi,%eiz,1),%esi
    6068:	89 4d ac             	mov    %ecx,-0x54(%ebp)
    606b:	8d 65 f4             	lea    -0xc(%ebp),%esp
    606e:	89 c8                	mov    %ecx,%eax
    6070:	5b                   	pop    %ebx
    6071:	5e                   	pop    %esi
    6072:	5f                   	pop    %edi
    6073:	5d                   	pop    %ebp
    6074:	c3                   	ret    
    6075:	8d 74 26 00          	lea    0x0(%esi,%eiz,1),%esi
    6079:	8d bc 27 00 00 00 00 	lea    0x0(%edi,%eiz,1),%edi

00006080 <font_draw_text>:
    6080:	55                   	push   %ebp
    6081:	89 e5                	mov    %esp,%ebp
    6083:	57                   	push   %edi
    6084:	56                   	push   %esi
    6085:	53                   	push   %ebx
    6086:	83 ec 58             	sub    $0x58,%esp
    6089:	8b 4d 0c             	mov    0xc(%ebp),%ecx
    608c:	8b 7d 08             	mov    0x8(%ebp),%edi
    608f:	51                   	push   %ecx
    6090:	e8 0b fa ff ff       	call   5aa0 <drawctx_save>
    6095:	8b 45 0c             	mov    0xc(%ebp),%eax
    6098:	5b                   	pop    %ebx
    6099:	5e                   	pop    %esi
    609a:	68 c0 68 00 00       	push   $0x68c0
    609f:	50                   	push   %eax
    60a0:	e8 db fa ff ff       	call   5b80 <drawctx_set_compose>
    60a5:	8d 4d c8             	lea    -0x38(%ebp),%ecx
    60a8:	58                   	pop    %eax
    60a9:	8b 07                	mov    (%edi),%eax
    60ab:	5a                   	pop    %edx
    60ac:	51                   	push   %ecx
    60ad:	8b 4f 04             	mov    0x4(%edi),%ecx
    60b0:	51                   	push   %ecx
    60b1:	ff 10                	call   *(%eax)
    60b3:	83 c4 10             	add    $0x10,%esp
    60b6:	89 45 ac             	mov    %eax,-0x54(%ebp)
    60b9:	85 c0                	test   %eax,%eax
    60bb:	0f 85 d8 00 00 00    	jne    6199 <font_draw_text+0x119>
    60c1:	8b 45 1c             	mov    0x1c(%ebp),%eax
    60c4:	8b 55 c8             	mov    -0x38(%ebp),%edx
    60c7:	01 d0                	add    %edx,%eax
    60c9:	8b 5d 18             	mov    0x18(%ebp),%ebx
    60cc:	89 45 b4             	mov    %eax,-0x4c(%ebp)
    60cf:	c7 45 c0 00 00 00 00 	movl   $0x0,-0x40(%ebp)
    60d6:	8d 75 c4             	lea    -0x3c(%ebp),%esi
    60d9:	e9 7e 00 00 00       	jmp    615c <font_draw_text+0xdc>
    60de:	66 90                	xchg   %ax,%ax
    60e0:	52                   	push   %edx
    60e1:	8b 0f                	mov    (%edi),%ecx
    60e3:	56                   	push   %esi
    60e4:	50                   	push   %eax
    60e5:	8b 47 04             	mov    0x4(%edi),%eax
    60e8:	50                   	push   %eax
    60e9:	ff 51 04             	call   *0x4(%ecx)
    60ec:	83 c4 10             	add    $0x10,%esp
    60ef:	85 c0                	test   %eax,%eax
    60f1:	74 1e                	je     6111 <font_draw_text+0x91>
    60f3:	51                   	push   %ecx
    60f4:	89 45 b0             	mov    %eax,-0x50(%ebp)
    60f7:	8b 07                	mov    (%edi),%eax
    60f9:	56                   	push   %esi
    60fa:	8b 57 04             	mov    0x4(%edi),%edx
    60fd:	6a 3f                	push   $0x3f
    60ff:	52                   	push   %edx
    6100:	ff 50 04             	call   *0x4(%eax)
    6103:	83 c4 10             	add    $0x10,%esp
    6106:	8b 4d b0             	mov    -0x50(%ebp),%ecx
    6109:	85 c0                	test   %eax,%eax
    610b:	0f 85 a7 00 00 00    	jne    61b8 <font_draw_text+0x138>
    6111:	8d 55 d4             	lea    -0x2c(%ebp),%edx
    6114:	51                   	push   %ecx
    6115:	8b 07                	mov    (%edi),%eax
    6117:	52                   	push   %edx
    6118:	8b 4f 04             	mov    0x4(%edi),%ecx
    611b:	8b 55 c4             	mov    -0x3c(%ebp),%edx
    611e:	52                   	push   %edx
    611f:	51                   	push   %ecx
    6120:	ff 50 08             	call   *0x8(%eax)
    6123:	83 c4 10             	add    $0x10,%esp
    6126:	85 c0                	test   %eax,%eax
    6128:	75 7e                	jne    61a8 <font_draw_text+0x128>
    612a:	8b 55 c4             	mov    -0x3c(%ebp),%edx
    612d:	51                   	push   %ecx
    612e:	51                   	push   %ecx
    612f:	8b 4d b4             	mov    -0x4c(%ebp),%ecx
    6132:	8b 07                	mov    (%edi),%eax
    6134:	52                   	push   %edx
    6135:	8b 55 10             	mov    0x10(%ebp),%edx
    6138:	51                   	push   %ecx
    6139:	8b 4d 0c             	mov    0xc(%ebp),%ecx
    613c:	53                   	push   %ebx
    613d:	52                   	push   %edx
    613e:	51                   	push   %ecx
    613f:	8b 57 04             	mov    0x4(%edi),%edx
    6142:	52                   	push   %edx
    6143:	ff 50 0c             	call   *0xc(%eax)
    6146:	83 c4 20             	add    $0x20,%esp
    6149:	85 c0                	test   %eax,%eax
    614b:	75 5b                	jne    61a8 <font_draw_text+0x128>
    614d:	8b 45 d8             	mov    -0x28(%ebp),%eax
    6150:	8b 4d d4             	mov    -0x2c(%ebp),%ecx
    6153:	01 c8                	add    %ecx,%eax
    6155:	8b 55 dc             	mov    -0x24(%ebp),%edx
    6158:	01 d0                	add    %edx,%eax
    615a:	01 c3                	add    %eax,%ebx
    615c:	50                   	push   %eax
    615d:	8d 45 c0             	lea    -0x40(%ebp),%eax
    6160:	6a ff                	push   $0xffffffff
    6162:	50                   	push   %eax
    6163:	8b 45 14             	mov    0x14(%ebp),%eax
    6166:	50                   	push   %eax
    6167:	e8 a4 1d 00 00       	call   7f10 <str_decode@plt>
    616c:	83 c4 10             	add    $0x10,%esp
    616f:	85 c0                	test   %eax,%eax
    6171:	0f 85 69 ff ff ff    	jne    60e0 <font_draw_text+0x60>
    6177:	83 ec 0c             	sub    $0xc,%esp
    617a:	8b 45 0c             	mov    0xc(%ebp),%eax
    617d:	50                   	push   %eax
    617e:	e8 7d f9 ff ff       	call   5b00 <drawctx_restore>
    6183:	83 c4 0c             	add    $0xc,%esp
    6186:	8b 55 10             	mov    0x10(%ebp),%edx
    6189:	6a 00                	push   $0x0
    618b:	6a 00                	push   $0x0
    618d:	52                   	push   %edx
    618e:	e8 fd 00 00 00       	call   6290 <source_set_mask>
    6193:	83 c4 10             	add    $0x10,%esp
    6196:	8b 45 ac             	mov    -0x54(%ebp),%eax
    6199:	8d 65 f4             	lea    -0xc(%ebp),%esp
    619c:	5b                   	pop    %ebx
    619d:	5e                   	pop    %esi
    619e:	5f                   	pop    %edi
    619f:	5d                   	pop    %ebp
    61a0:	c3                   	ret    
    61a1:	8d b4 26 00 00 00 00 	lea    0x0(%esi,%eiz,1),%esi
    61a8:	89 45 ac             	mov    %eax,-0x54(%ebp)
    61ab:	8d 65 f4             	lea    -0xc(%ebp),%esp
    61ae:	5b                   	pop    %ebx
    61af:	5e                   	pop    %esi
    61b0:	5f                   	pop    %edi
    61b1:	5d                   	pop    %ebp
    61b2:	c3                   	ret    
    61b3:	90                   	nop
    61b4:	8d 74 26 00          	lea    0x0(%esi,%eiz,1),%esi
    61b8:	89 4d ac             	mov    %ecx,-0x54(%ebp)
    61bb:	89 c8                	mov    %ecx,%eax
    61bd:	eb da                	jmp    6199 <font_draw_text+0x119>
    61bf:	90                   	nop

000061c0 <source_init>:
    61c0:	55                   	push   %ebp
    61c1:	89 e5                	mov    %esp,%ebp
    61c3:	53                   	push   %ebx
    61c4:	83 ec 10             	sub    $0x10,%esp
    61c7:	8b 5d 08             	mov    0x8(%ebp),%ebx
    61ca:	53                   	push   %ebx
    61cb:	e8 20 15 00 00       	call   76f0 <transform_identity>
    61d0:	c7 43 48 e0 69 00 00 	movl   $0x69e0,0x48(%ebx)
    61d7:	c7 43 4c 00 00 00 00 	movl   $0x0,0x4c(%ebx)
    61de:	c7 43 50 00 00 00 00 	movl   $0x0,0x50(%ebx)
    61e5:	c7 43 54 00 00 00 00 	movl   $0x0,0x54(%ebx)
    61ec:	c7 43 58 00 00 00 ff 	movl   $0xff000000,0x58(%ebx)
    61f3:	c7 43 5c 00 00 00 00 	movl   $0x0,0x5c(%ebx)
    61fa:	c7 43 60 00 00 00 00 	movl   $0x0,0x60(%ebx)
    6201:	83 c4 10             	add    $0x10,%esp
    6204:	8b 5d fc             	mov    -0x4(%ebp),%ebx
    6207:	c9                   	leave  
    6208:	c3                   	ret    
    6209:	8d b4 26 00 00 00 00 	lea    0x0(%esi,%eiz,1),%esi

00006210 <source_set_transform>:
    6210:	55                   	push   %ebp
    6211:	b9 12 00 00 00       	mov    $0x12,%ecx
    6216:	89 e5                	mov    %esp,%ebp
    6218:	57                   	push   %edi
    6219:	56                   	push   %esi
    621a:	8b 45 08             	mov    0x8(%ebp),%eax
    621d:	8d 75 0c             	lea    0xc(%ebp),%esi
    6220:	89 c7                	mov    %eax,%edi
    6222:	f3 a5                	rep movsl %ds:(%esi),%es:(%edi)
    6224:	5e                   	pop    %esi
    6225:	5f                   	pop    %edi
    6226:	5d                   	pop    %ebp
    6227:	e9 e4 13 00 00       	jmp    7610 <transform_invert>
    622c:	8d 74 26 00          	lea    0x0(%esi,%eiz,1),%esi

00006230 <source_reset_transform>:
    6230:	55                   	push   %ebp
    6231:	89 e5                	mov    %esp,%ebp
    6233:	5d                   	pop    %ebp
    6234:	e9 b7 14 00 00       	jmp    76f0 <transform_identity>
    6239:	8d b4 26 00 00 00 00 	lea    0x0(%esi,%eiz,1),%esi

00006240 <source_set_filter>:
    6240:	55                   	push   %ebp
    6241:	89 e5                	mov    %esp,%ebp
    6243:	8b 45 08             	mov    0x8(%ebp),%eax
    6246:	8b 55 0c             	mov    0xc(%ebp),%edx
    6249:	89 50 48             	mov    %edx,0x48(%eax)
    624c:	5d                   	pop    %ebp
    624d:	c3                   	ret    
    624e:	66 90                	xchg   %ax,%ax

00006250 <source_set_color>:
    6250:	55                   	push   %ebp
    6251:	89 e5                	mov    %esp,%ebp
    6253:	8b 45 08             	mov    0x8(%ebp),%eax
    6256:	8b 55 0c             	mov    0xc(%ebp),%edx
    6259:	89 50 4c             	mov    %edx,0x4c(%eax)
    625c:	5d                   	pop    %ebp
    625d:	c3                   	ret    
    625e:	66 90                	xchg   %ax,%ax

00006260 <source_set_texture>:
    6260:	55                   	push   %ebp
    6261:	89 e5                	mov    %esp,%ebp
    6263:	8b 45 08             	mov    0x8(%ebp),%eax
    6266:	8b 55 0c             	mov    0xc(%ebp),%edx
    6269:	89 50 50             	mov    %edx,0x50(%eax)
    626c:	8b 55 10             	mov    0x10(%ebp),%edx
    626f:	89 50 54             	mov    %edx,0x54(%eax)
    6272:	5d                   	pop    %ebp
    6273:	c3                   	ret    
    6274:	8d b6 00 00 00 00    	lea    0x0(%esi),%esi
    627a:	8d bf 00 00 00 00    	lea    0x0(%edi),%edi

00006280 <source_set_alpha>:
    6280:	55                   	push   %ebp
    6281:	89 e5                	mov    %esp,%ebp
    6283:	8b 45 08             	mov    0x8(%ebp),%eax
    6286:	8b 55 0c             	mov    0xc(%ebp),%edx
    6289:	89 50 58             	mov    %edx,0x58(%eax)
    628c:	5d                   	pop    %ebp
    628d:	c3                   	ret    
    628e:	66 90                	xchg   %ax,%ax

00006290 <source_set_mask>:
    6290:	55                   	push   %ebp
    6291:	89 e5                	mov    %esp,%ebp
    6293:	8b 45 08             	mov    0x8(%ebp),%eax
    6296:	8b 55 0c             	mov    0xc(%ebp),%edx
    6299:	89 50 5c             	mov    %edx,0x5c(%eax)
    629c:	8b 55 10             	mov    0x10(%ebp),%edx
    629f:	89 50 60             	mov    %edx,0x60(%eax)
    62a2:	5d                   	pop    %ebp
    62a3:	c3                   	ret    
    62a4:	8d b6 00 00 00 00    	lea    0x0(%esi),%esi
    62aa:	8d bf 00 00 00 00    	lea    0x0(%edi),%edi

000062b0 <source_is_fast>:
    62b0:	55                   	push   %ebp
    62b1:	31 c0                	xor    %eax,%eax
    62b3:	89 e5                	mov    %esp,%ebp
    62b5:	83 ec 08             	sub    $0x8,%esp
    62b8:	8b 55 08             	mov    0x8(%ebp),%edx
    62bb:	8b 4a 5c             	mov    0x5c(%edx),%ecx
    62be:	85 c9                	test   %ecx,%ecx
    62c0:	74 06                	je     62c8 <source_is_fast+0x18>
    62c2:	c9                   	leave  
    62c3:	c3                   	ret    
    62c4:	8d 74 26 00          	lea    0x0(%esi,%eiz,1),%esi
    62c8:	81 7a 58 00 00 00 ff 	cmpl   $0xff000000,0x58(%edx)
    62cf:	75 f1                	jne    62c2 <source_is_fast+0x12>
    62d1:	8b 4a 50             	mov    0x50(%edx),%ecx
    62d4:	85 c9                	test   %ecx,%ecx
    62d6:	74 ea                	je     62c2 <source_is_fast+0x12>
    62d8:	83 ec 0c             	sub    $0xc,%esp
    62db:	52                   	push   %edx
    62dc:	e8 0f 17 00 00       	call   79f0 <transform_is_fast>
    62e1:	83 c4 10             	add    $0x10,%esp
    62e4:	c9                   	leave  
    62e5:	c3                   	ret    
    62e6:	8d 76 00             	lea    0x0(%esi),%esi
    62e9:	8d bc 27 00 00 00 00 	lea    0x0(%edi,%eiz,1),%edi

000062f0 <source_direct_access>:
    62f0:	55                   	push   %ebp
    62f1:	89 e5                	mov    %esp,%ebp
    62f3:	57                   	push   %edi
    62f4:	56                   	push   %esi
    62f5:	53                   	push   %ebx
    62f6:	83 ec 2c             	sub    $0x2c,%esp
    62f9:	8b 7d 08             	mov    0x8(%ebp),%edi
    62fc:	dd 45 0c             	fldl   0xc(%ebp)
    62ff:	8b 5f 5c             	mov    0x5c(%edi),%ebx
    6302:	dd 45 14             	fldl   0x14(%ebp)
    6305:	85 db                	test   %ebx,%ebx
    6307:	74 2f                	je     6338 <source_direct_access+0x48>
    6309:	dd d8                	fstp   %st(0)
    630b:	dd d8                	fstp   %st(0)
    630d:	eb 11                	jmp    6320 <source_direct_access+0x30>
    630f:	90                   	nop
    6310:	dd d8                	fstp   %st(0)
    6312:	dd d8                	fstp   %st(0)
    6314:	eb 0a                	jmp    6320 <source_direct_access+0x30>
    6316:	66 90                	xchg   %ax,%ax
    6318:	dd d8                	fstp   %st(0)
    631a:	dd d8                	fstp   %st(0)
    631c:	8d 74 26 00          	lea    0x0(%esi,%eiz,1),%esi
    6320:	52                   	push   %edx
    6321:	6a 68                	push   $0x68
    6323:	68 95 7c 00 00       	push   $0x7c95
    6328:	68 9e 7c 00 00       	push   $0x7c9e
    632d:	e8 4e 1c 00 00       	call   7f80 <assert_abort@plt>
    6332:	8d b6 00 00 00 00    	lea    0x0(%esi),%esi
    6338:	81 7f 58 00 00 00 ff 	cmpl   $0xff000000,0x58(%edi)
    633f:	75 cf                	jne    6310 <source_direct_access+0x20>
    6341:	dd 5d d0             	fstpl  -0x30(%ebp)
    6344:	8b 4f 50             	mov    0x50(%edi),%ecx
    6347:	dd 5d d8             	fstpl  -0x28(%ebp)
    634a:	85 c9                	test   %ecx,%ecx
    634c:	74 d2                	je     6320 <source_direct_access+0x30>
    634e:	83 ec 0c             	sub    $0xc,%esp
    6351:	57                   	push   %edi
    6352:	e8 99 16 00 00       	call   79f0 <transform_is_fast>
    6357:	dd 45 d8             	fldl   -0x28(%ebp)
    635a:	83 c4 10             	add    $0x10,%esp
    635d:	84 c0                	test   %al,%al
    635f:	dd 45 d0             	fldl   -0x30(%ebp)
    6362:	74 b4                	je     6318 <source_direct_access+0x28>
    6364:	dc 47 28             	faddl  0x28(%edi)
    6367:	d9 7d e6             	fnstcw -0x1a(%ebp)
    636a:	66 8b 45 e6          	mov    -0x1a(%ebp),%ax
    636e:	83 ec 0c             	sub    $0xc,%esp
    6371:	b4 0c                	mov    $0xc,%ah
    6373:	66 89 45 e4          	mov    %ax,-0x1c(%ebp)
    6377:	d9 6d e4             	fldcw  -0x1c(%ebp)
    637a:	db 5d e0             	fistpl -0x20(%ebp)
    637d:	d9 6d e6             	fldcw  -0x1a(%ebp)
    6380:	dc 47 10             	faddl  0x10(%edi)
    6383:	8b 75 e0             	mov    -0x20(%ebp),%esi
    6386:	d9 6d e4             	fldcw  -0x1c(%ebp)
    6389:	db 5d e0             	fistpl -0x20(%ebp)
    638c:	d9 6d e6             	fldcw  -0x1a(%ebp)
    638f:	8b 47 50             	mov    0x50(%edi),%eax
    6392:	8b 5d e0             	mov    -0x20(%ebp),%ebx
    6395:	50                   	push   %eax
    6396:	e8 b5 02 00 00       	call   6650 <surface_pixmap_access>
    639b:	83 c4 10             	add    $0x10,%esp
    639e:	8b 10                	mov    (%eax),%edx
    63a0:	39 d3                	cmp    %edx,%ebx
    63a2:	73 1c                	jae    63c0 <source_direct_access+0xd0>
    63a4:	3b 70 04             	cmp    0x4(%eax),%esi
    63a7:	73 17                	jae    63c0 <source_direct_access+0xd0>
    63a9:	0f af f2             	imul   %edx,%esi
    63ac:	8b 40 08             	mov    0x8(%eax),%eax
    63af:	01 f3                	add    %esi,%ebx
    63b1:	8d 65 f4             	lea    -0xc(%ebp),%esp
    63b4:	8d 04 98             	lea    (%eax,%ebx,4),%eax
    63b7:	5b                   	pop    %ebx
    63b8:	5e                   	pop    %esi
    63b9:	5f                   	pop    %edi
    63ba:	5d                   	pop    %ebp
    63bb:	c3                   	ret    
    63bc:	8d 74 26 00          	lea    0x0(%esi,%eiz,1),%esi
    63c0:	8d 65 f4             	lea    -0xc(%ebp),%esp
    63c3:	31 c0                	xor    %eax,%eax
    63c5:	5b                   	pop    %ebx
    63c6:	5e                   	pop    %esi
    63c7:	5f                   	pop    %edi
    63c8:	5d                   	pop    %ebp
    63c9:	c3                   	ret    
    63ca:	8d b6 00 00 00 00    	lea    0x0(%esi),%esi

000063d0 <source_determine_pixel>:
    63d0:	55                   	push   %ebp
    63d1:	89 e5                	mov    %esp,%ebp
    63d3:	57                   	push   %edi
    63d4:	56                   	push   %esi
    63d5:	53                   	push   %ebx
    63d6:	83 ec 3c             	sub    $0x3c,%esp
    63d9:	8b 45 0c             	mov    0xc(%ebp),%eax
    63dc:	8b 5d 08             	mov    0x8(%ebp),%ebx
    63df:	89 45 e0             	mov    %eax,-0x20(%ebp)
    63e2:	8b 45 10             	mov    0x10(%ebp),%eax
    63e5:	89 45 e4             	mov    %eax,-0x1c(%ebp)
    63e8:	8b 45 14             	mov    0x14(%ebp),%eax
    63eb:	89 45 d8             	mov    %eax,-0x28(%ebp)
    63ee:	8b 45 18             	mov    0x18(%ebp),%eax
    63f1:	89 45 dc             	mov    %eax,-0x24(%ebp)
    63f4:	8b 43 5c             	mov    0x5c(%ebx),%eax
    63f7:	85 c0                	test   %eax,%eax
    63f9:	0f 84 f1 00 00 00    	je     64f0 <source_determine_pixel+0x120>
    63ff:	8d 45 d8             	lea    -0x28(%ebp),%eax
    6402:	56                   	push   %esi
    6403:	50                   	push   %eax
    6404:	8d 45 e0             	lea    -0x20(%ebp),%eax
    6407:	50                   	push   %eax
    6408:	53                   	push   %ebx
    6409:	e8 e2 16 00 00       	call   7af0 <transform_apply_affine>
    640e:	8b 43 5c             	mov    0x5c(%ebx),%eax
    6411:	83 c4 10             	add    $0x10,%esp
    6414:	85 c0                	test   %eax,%eax
    6416:	0f 84 e4 00 00 00    	je     6500 <source_determine_pixel+0x130>
    641c:	dd 45 d8             	fldl   -0x28(%ebp)
    641f:	83 ec 0c             	sub    $0xc,%esp
    6422:	8b 73 48             	mov    0x48(%ebx),%esi
    6425:	dd 5d b8             	fstpl  -0x48(%ebp)
    6428:	dd 45 e0             	fldl   -0x20(%ebp)
    642b:	8b 7b 60             	mov    0x60(%ebx),%edi
    642e:	50                   	push   %eax
    642f:	dd 5d c0             	fstpl  -0x40(%ebp)
    6432:	e8 19 02 00 00       	call   6650 <surface_pixmap_access>
    6437:	5a                   	pop    %edx
    6438:	59                   	pop    %ecx
    6439:	57                   	push   %edi
    643a:	83 ec 10             	sub    $0x10,%esp
    643d:	dd 45 b8             	fldl   -0x48(%ebp)
    6440:	dd 5c 24 08          	fstpl  0x8(%esp)
    6444:	dd 45 c0             	fldl   -0x40(%ebp)
    6447:	dd 1c 24             	fstpl  (%esp)
    644a:	50                   	push   %eax
    644b:	ff d6                	call   *%esi
    644d:	83 c4 20             	add    $0x20,%esp
    6450:	c1 e8 18             	shr    $0x18,%eax
    6453:	89 c7                	mov    %eax,%edi
    6455:	0f 84 85 00 00 00    	je     64e0 <source_determine_pixel+0x110>
    645b:	8b 43 50             	mov    0x50(%ebx),%eax
    645e:	85 c0                	test   %eax,%eax
    6460:	0f 84 b2 00 00 00    	je     6518 <source_determine_pixel+0x148>
    6466:	dd 45 d8             	fldl   -0x28(%ebp)
    6469:	83 ec 0c             	sub    $0xc,%esp
    646c:	8b 73 48             	mov    0x48(%ebx),%esi
    646f:	dd 5d b8             	fstpl  -0x48(%ebp)
    6472:	dd 45 e0             	fldl   -0x20(%ebp)
    6475:	8b 5b 54             	mov    0x54(%ebx),%ebx
    6478:	50                   	push   %eax
    6479:	dd 5d c0             	fstpl  -0x40(%ebp)
    647c:	e8 cf 01 00 00       	call   6650 <surface_pixmap_access>
    6481:	5a                   	pop    %edx
    6482:	59                   	pop    %ecx
    6483:	53                   	push   %ebx
    6484:	83 ec 10             	sub    $0x10,%esp
    6487:	dd 45 b8             	fldl   -0x48(%ebp)
    648a:	dd 5c 24 08          	fstpl  0x8(%esp)
    648e:	dd 45 c0             	fldl   -0x40(%ebp)
    6491:	dd 1c 24             	fstpl  (%esp)
    6494:	50                   	push   %eax
    6495:	ff d6                	call   *%esi
    6497:	83 c4 20             	add    $0x20,%esp
    649a:	81 ff ff 00 00 00    	cmp    $0xff,%edi
    64a0:	74 66                	je     6508 <source_determine_pixel+0x138>
    64a2:	89 7d c0             	mov    %edi,-0x40(%ebp)
    64a5:	89 c2                	mov    %eax,%edx
    64a7:	db 45 c0             	fildl  -0x40(%ebp)
    64aa:	d9 7d d6             	fnstcw -0x2a(%ebp)
    64ad:	d8 35 b8 7c 00 00    	fdivs  0x7cb8
    64b3:	c1 ea 18             	shr    $0x18,%edx
    64b6:	25 ff ff ff 00       	and    $0xffffff,%eax
    64bb:	89 55 c0             	mov    %edx,-0x40(%ebp)
    64be:	66 8b 55 d6          	mov    -0x2a(%ebp),%dx
    64c2:	b6 0c                	mov    $0xc,%dh
    64c4:	66 89 55 d4          	mov    %dx,-0x2c(%ebp)
    64c8:	db 45 c0             	fildl  -0x40(%ebp)
    64cb:	de c9                	fmulp  %st,%st(1)
    64cd:	d9 6d d4             	fldcw  -0x2c(%ebp)
    64d0:	df 7d c8             	fistpll -0x38(%ebp)
    64d3:	d9 6d d6             	fldcw  -0x2a(%ebp)
    64d6:	8b 4d c8             	mov    -0x38(%ebp),%ecx
    64d9:	c1 e1 18             	shl    $0x18,%ecx
    64dc:	09 c1                	or     %eax,%ecx
    64de:	89 cf                	mov    %ecx,%edi
    64e0:	8d 65 f4             	lea    -0xc(%ebp),%esp
    64e3:	89 f8                	mov    %edi,%eax
    64e5:	5b                   	pop    %ebx
    64e6:	5e                   	pop    %esi
    64e7:	5f                   	pop    %edi
    64e8:	5d                   	pop    %ebp
    64e9:	c3                   	ret    
    64ea:	8d b6 00 00 00 00    	lea    0x0(%esi),%esi
    64f0:	8b 7b 50             	mov    0x50(%ebx),%edi
    64f3:	85 ff                	test   %edi,%edi
    64f5:	0f 85 04 ff ff ff    	jne    63ff <source_determine_pixel+0x2f>
    64fb:	90                   	nop
    64fc:	8d 74 26 00          	lea    0x0(%esi,%eiz,1),%esi
    6500:	8b 43 58             	mov    0x58(%ebx),%eax
    6503:	e9 48 ff ff ff       	jmp    6450 <source_determine_pixel+0x80>
    6508:	8d 65 f4             	lea    -0xc(%ebp),%esp
    650b:	89 c7                	mov    %eax,%edi
    650d:	89 f8                	mov    %edi,%eax
    650f:	5b                   	pop    %ebx
    6510:	5e                   	pop    %esi
    6511:	5f                   	pop    %edi
    6512:	5d                   	pop    %ebp
    6513:	c3                   	ret    
    6514:	8d 74 26 00          	lea    0x0(%esi,%eiz,1),%esi
    6518:	8b 43 4c             	mov    0x4c(%ebx),%eax
    651b:	e9 7a ff ff ff       	jmp    649a <source_determine_pixel+0xca>

00006520 <surface_create>:
    6520:	55                   	push   %ebp
    6521:	89 e5                	mov    %esp,%ebp
    6523:	57                   	push   %edi
    6524:	56                   	push   %esi
    6525:	53                   	push   %ebx
    6526:	83 ec 28             	sub    $0x28,%esp
    6529:	8b 75 08             	mov    0x8(%ebp),%esi
    652c:	8b 5d 0c             	mov    0xc(%ebp),%ebx
    652f:	6a 20                	push   $0x20
    6531:	8b 7d 10             	mov    0x10(%ebp),%edi
    6534:	e8 f7 19 00 00       	call   7f30 <malloc@plt>
    6539:	83 c4 10             	add    $0x10,%esp
    653c:	89 c2                	mov    %eax,%edx
    653e:	85 c0                	test   %eax,%eax
    6540:	74 28                	je     656a <surface_create+0x4a>
    6542:	85 ff                	test   %edi,%edi
    6544:	74 32                	je     6578 <surface_create+0x58>
    6546:	8b 45 14             	mov    0x14(%ebp),%eax
    6549:	89 72 14             	mov    %esi,0x14(%edx)
    654c:	89 5a 18             	mov    %ebx,0x18(%edx)
    654f:	4e                   	dec    %esi
    6550:	4b                   	dec    %ebx
    6551:	89 02                	mov    %eax,(%edx)
    6553:	89 7a 1c             	mov    %edi,0x1c(%edx)
    6556:	89 72 04             	mov    %esi,0x4(%edx)
    6559:	c7 42 08 00 00 00 00 	movl   $0x0,0x8(%edx)
    6560:	89 5a 0c             	mov    %ebx,0xc(%edx)
    6563:	c7 42 10 00 00 00 00 	movl   $0x0,0x10(%edx)
    656a:	8d 65 f4             	lea    -0xc(%ebp),%esp
    656d:	89 d0                	mov    %edx,%eax
    656f:	5b                   	pop    %ebx
    6570:	5e                   	pop    %esi
    6571:	5f                   	pop    %edi
    6572:	5d                   	pop    %ebp
    6573:	c3                   	ret    
    6574:	8d 74 26 00          	lea    0x0(%esi,%eiz,1),%esi
    6578:	8d 0c 9d 00 00 00 00 	lea    0x0(,%ebx,4),%ecx
    657f:	89 45 e0             	mov    %eax,-0x20(%ebp)
    6582:	0f af ce             	imul   %esi,%ecx
    6585:	f6 45 14 01          	testb  $0x1,0x14(%ebp)
    6589:	74 35                	je     65c0 <surface_create+0xa0>
    658b:	6a 00                	push   $0x0
    658d:	89 4d e4             	mov    %ecx,-0x1c(%ebp)
    6590:	6a 0b                	push   $0xb
    6592:	51                   	push   %ecx
    6593:	6a ff                	push   $0xffffffff
    6595:	e8 76 1b 00 00       	call   8110 <as_area_create@plt>
    659a:	83 c4 10             	add    $0x10,%esp
    659d:	89 c7                	mov    %eax,%edi
    659f:	83 f8 ff             	cmp    $0xffffffff,%eax
    65a2:	8b 4d e4             	mov    -0x1c(%ebp),%ecx
    65a5:	8b 55 e0             	mov    -0x20(%ebp),%edx
    65a8:	74 31                	je     65db <surface_create+0xbb>
    65aa:	50                   	push   %eax
    65ab:	51                   	push   %ecx
    65ac:	6a 00                	push   $0x0
    65ae:	57                   	push   %edi
    65af:	89 55 e4             	mov    %edx,-0x1c(%ebp)
    65b2:	e8 99 1a 00 00       	call   8050 <memset@plt>
    65b7:	83 c4 10             	add    $0x10,%esp
    65ba:	8b 55 e4             	mov    -0x1c(%ebp),%edx
    65bd:	eb 87                	jmp    6546 <surface_create+0x26>
    65bf:	90                   	nop
    65c0:	83 ec 0c             	sub    $0xc,%esp
    65c3:	89 4d e4             	mov    %ecx,-0x1c(%ebp)
    65c6:	51                   	push   %ecx
    65c7:	e8 64 19 00 00       	call   7f30 <malloc@plt>
    65cc:	83 c4 10             	add    $0x10,%esp
    65cf:	89 c7                	mov    %eax,%edi
    65d1:	85 c0                	test   %eax,%eax
    65d3:	8b 4d e4             	mov    -0x1c(%ebp),%ecx
    65d6:	8b 55 e0             	mov    -0x20(%ebp),%edx
    65d9:	75 cf                	jne    65aa <surface_create+0x8a>
    65db:	83 ec 0c             	sub    $0xc,%esp
    65de:	52                   	push   %edx
    65df:	e8 7c 1b 00 00       	call   8160 <free@plt>
    65e4:	83 c4 10             	add    $0x10,%esp
    65e7:	31 d2                	xor    %edx,%edx
    65e9:	e9 7c ff ff ff       	jmp    656a <surface_create+0x4a>
    65ee:	66 90                	xchg   %ax,%ax

000065f0 <surface_destroy>:
    65f0:	55                   	push   %ebp
    65f1:	89 e5                	mov    %esp,%ebp
    65f3:	53                   	push   %ebx
    65f4:	50                   	push   %eax
    65f5:	8b 5d 08             	mov    0x8(%ebp),%ebx
    65f8:	8b 43 1c             	mov    0x1c(%ebx),%eax
    65fb:	f6 03 01             	testb  $0x1,(%ebx)
    65fe:	75 18                	jne    6618 <surface_destroy+0x28>
    6600:	83 ec 0c             	sub    $0xc,%esp
    6603:	50                   	push   %eax
    6604:	e8 57 1b 00 00       	call   8160 <free@plt>
    6609:	89 5d 08             	mov    %ebx,0x8(%ebp)
    660c:	83 c4 10             	add    $0x10,%esp
    660f:	8b 5d fc             	mov    -0x4(%ebp),%ebx
    6612:	c9                   	leave  
    6613:	e9 48 1b 00 00       	jmp    8160 <free@plt>
    6618:	83 ec 0c             	sub    $0xc,%esp
    661b:	50                   	push   %eax
    661c:	e8 3f 19 00 00       	call   7f60 <as_area_destroy@plt>
    6621:	89 5d 08             	mov    %ebx,0x8(%ebp)
    6624:	83 c4 10             	add    $0x10,%esp
    6627:	8b 5d fc             	mov    -0x4(%ebp),%ebx
    662a:	c9                   	leave  
    662b:	e9 30 1b 00 00       	jmp    8160 <free@plt>

00006630 <surface_is_shared>:
    6630:	55                   	push   %ebp
    6631:	89 e5                	mov    %esp,%ebp
    6633:	8b 45 08             	mov    0x8(%ebp),%eax
    6636:	5d                   	pop    %ebp
    6637:	8b 00                	mov    (%eax),%eax
    6639:	83 e0 01             	and    $0x1,%eax
    663c:	c3                   	ret    
    663d:	8d 76 00             	lea    0x0(%esi),%esi

00006640 <surface_direct_access>:
    6640:	55                   	push   %ebp
    6641:	89 e5                	mov    %esp,%ebp
    6643:	8b 45 08             	mov    0x8(%ebp),%eax
    6646:	5d                   	pop    %ebp
    6647:	8b 40 1c             	mov    0x1c(%eax),%eax
    664a:	c3                   	ret    
    664b:	90                   	nop
    664c:	8d 74 26 00          	lea    0x0(%esi,%eiz,1),%esi

00006650 <surface_pixmap_access>:
    6650:	55                   	push   %ebp
    6651:	89 e5                	mov    %esp,%ebp
    6653:	8b 45 08             	mov    0x8(%ebp),%eax
    6656:	5d                   	pop    %ebp
    6657:	83 c0 14             	add    $0x14,%eax
    665a:	c3                   	ret    
    665b:	90                   	nop
    665c:	8d 74 26 00          	lea    0x0(%esi,%eiz,1),%esi

00006660 <surface_get_resolution>:
    6660:	55                   	push   %ebp
    6661:	89 e5                	mov    %esp,%ebp
    6663:	53                   	push   %ebx
    6664:	51                   	push   %ecx
    6665:	8b 45 0c             	mov    0xc(%ebp),%eax
    6668:	8b 4d 08             	mov    0x8(%ebp),%ecx
    666b:	8b 55 10             	mov    0x10(%ebp),%edx
    666e:	85 c0                	test   %eax,%eax
    6670:	74 13                	je     6685 <surface_get_resolution+0x25>
    6672:	85 d2                	test   %edx,%edx
    6674:	74 21                	je     6697 <surface_get_resolution+0x37>
    6676:	8b 59 14             	mov    0x14(%ecx),%ebx
    6679:	89 18                	mov    %ebx,(%eax)
    667b:	8b 5d fc             	mov    -0x4(%ebp),%ebx
    667e:	8b 41 18             	mov    0x18(%ecx),%eax
    6681:	89 02                	mov    %eax,(%edx)
    6683:	c9                   	leave  
    6684:	c3                   	ret    
    6685:	52                   	push   %edx
    6686:	6a 7c                	push   $0x7c
    6688:	68 bc 7c 00 00       	push   $0x7cbc
    668d:	68 c6 7c 00 00       	push   $0x7cc6
    6692:	e8 e9 18 00 00       	call   7f80 <assert_abort@plt>
    6697:	50                   	push   %eax
    6698:	6a 7d                	push   $0x7d
    669a:	68 bc 7c 00 00       	push   $0x7cbc
    669f:	68 cc 7c 00 00       	push   $0x7ccc
    66a4:	e8 d7 18 00 00       	call   7f80 <assert_abort@plt>
    66a9:	8d b4 26 00 00 00 00 	lea    0x0(%esi,%eiz,1),%esi

000066b0 <surface_get_damaged_region>:
    66b0:	55                   	push   %ebp
    66b1:	89 e5                	mov    %esp,%ebp
    66b3:	57                   	push   %edi
    66b4:	56                   	push   %esi
    66b5:	53                   	push   %ebx
    66b6:	83 ec 0c             	sub    $0xc,%esp
    66b9:	8b 55 0c             	mov    0xc(%ebp),%edx
    66bc:	8b 45 08             	mov    0x8(%ebp),%eax
    66bf:	8b 75 10             	mov    0x10(%ebp),%esi
    66c2:	8b 5d 14             	mov    0x14(%ebp),%ebx
    66c5:	8b 4d 18             	mov    0x18(%ebp),%ecx
    66c8:	85 d2                	test   %edx,%edx
    66ca:	0f 84 86 00 00 00    	je     6756 <surface_get_damaged_region+0xa6>
    66d0:	85 f6                	test   %esi,%esi
    66d2:	74 6d                	je     6741 <surface_get_damaged_region+0x91>
    66d4:	85 db                	test   %ebx,%ebx
    66d6:	74 54                	je     672c <surface_get_damaged_region+0x7c>
    66d8:	85 c9                	test   %ecx,%ecx
    66da:	74 3b                	je     6717 <surface_get_damaged_region+0x67>
    66dc:	8b 78 04             	mov    0x4(%eax),%edi
    66df:	89 3a                	mov    %edi,(%edx)
    66e1:	8b 50 0c             	mov    0xc(%eax),%edx
    66e4:	89 16                	mov    %edx,(%esi)
    66e6:	31 d2                	xor    %edx,%edx
    66e8:	8b 70 04             	mov    0x4(%eax),%esi
    66eb:	8b 78 08             	mov    0x8(%eax),%edi
    66ee:	39 fe                	cmp    %edi,%esi
    66f0:	76 1e                	jbe    6710 <surface_get_damaged_region+0x60>
    66f2:	89 13                	mov    %edx,(%ebx)
    66f4:	8b 50 0c             	mov    0xc(%eax),%edx
    66f7:	8b 58 10             	mov    0x10(%eax),%ebx
    66fa:	31 c0                	xor    %eax,%eax
    66fc:	39 da                	cmp    %ebx,%edx
    66fe:	77 05                	ja     6705 <surface_get_damaged_region+0x55>
    6700:	8d 43 01             	lea    0x1(%ebx),%eax
    6703:	29 d0                	sub    %edx,%eax
    6705:	89 01                	mov    %eax,(%ecx)
    6707:	8d 65 f4             	lea    -0xc(%ebp),%esp
    670a:	5b                   	pop    %ebx
    670b:	5e                   	pop    %esi
    670c:	5f                   	pop    %edi
    670d:	5d                   	pop    %ebp
    670e:	c3                   	ret    
    670f:	90                   	nop
    6710:	8d 57 01             	lea    0x1(%edi),%edx
    6713:	29 f2                	sub    %esi,%edx
    6715:	eb db                	jmp    66f2 <surface_get_damaged_region+0x42>
    6717:	50                   	push   %eax
    6718:	68 89 00 00 00       	push   $0x89
    671d:	68 bc 7c 00 00       	push   $0x7cbc
    6722:	68 cc 7c 00 00       	push   $0x7ccc
    6727:	e8 54 18 00 00       	call   7f80 <assert_abort@plt>
    672c:	52                   	push   %edx
    672d:	68 88 00 00 00       	push   $0x88
    6732:	68 bc 7c 00 00       	push   $0x7cbc
    6737:	68 c6 7c 00 00       	push   $0x7cc6
    673c:	e8 3f 18 00 00       	call   7f80 <assert_abort@plt>
    6741:	51                   	push   %ecx
    6742:	68 87 00 00 00       	push   $0x87
    6747:	68 bc 7c 00 00       	push   $0x7cbc
    674c:	68 d5 7c 00 00       	push   $0x7cd5
    6751:	e8 2a 18 00 00       	call   7f80 <assert_abort@plt>
    6756:	53                   	push   %ebx
    6757:	68 86 00 00 00       	push   $0x86
    675c:	68 bc 7c 00 00       	push   $0x7cbc
    6761:	68 d3 7c 00 00       	push   $0x7cd3
    6766:	e8 15 18 00 00       	call   7f80 <assert_abort@plt>
    676b:	90                   	nop
    676c:	8d 74 26 00          	lea    0x0(%esi,%eiz,1),%esi

00006770 <surface_add_damaged_region>:
    6770:	55                   	push   %ebp
    6771:	89 e5                	mov    %esp,%ebp
    6773:	56                   	push   %esi
    6774:	53                   	push   %ebx
    6775:	8b 45 08             	mov    0x8(%ebp),%eax
    6778:	8b 4d 0c             	mov    0xc(%ebp),%ecx
    677b:	8b 55 10             	mov    0x10(%ebp),%edx
    677e:	8b 58 04             	mov    0x4(%eax),%ebx
    6781:	39 cb                	cmp    %ecx,%ebx
    6783:	76 02                	jbe    6787 <surface_add_damaged_region+0x17>
    6785:	89 cb                	mov    %ecx,%ebx
    6787:	89 58 04             	mov    %ebx,0x4(%eax)
    678a:	8b 58 0c             	mov    0xc(%eax),%ebx
    678d:	39 d3                	cmp    %edx,%ebx
    678f:	76 02                	jbe    6793 <surface_add_damaged_region+0x23>
    6791:	89 d3                	mov    %edx,%ebx
    6793:	8b 75 14             	mov    0x14(%ebp),%esi
    6796:	89 58 0c             	mov    %ebx,0xc(%eax)
    6799:	8b 58 08             	mov    0x8(%eax),%ebx
    679c:	8d 4c 31 ff          	lea    -0x1(%ecx,%esi,1),%ecx
    67a0:	39 d9                	cmp    %ebx,%ecx
    67a2:	73 02                	jae    67a6 <surface_add_damaged_region+0x36>
    67a4:	89 d9                	mov    %ebx,%ecx
    67a6:	8b 5d 18             	mov    0x18(%ebp),%ebx
    67a9:	89 48 08             	mov    %ecx,0x8(%eax)
    67ac:	8b 48 10             	mov    0x10(%eax),%ecx
    67af:	8d 54 1a ff          	lea    -0x1(%edx,%ebx,1),%edx
    67b3:	39 ca                	cmp    %ecx,%edx
    67b5:	73 02                	jae    67b9 <surface_add_damaged_region+0x49>
    67b7:	89 ca                	mov    %ecx,%edx
    67b9:	89 50 10             	mov    %edx,0x10(%eax)
    67bc:	5b                   	pop    %ebx
    67bd:	5e                   	pop    %esi
    67be:	5d                   	pop    %ebp
    67bf:	c3                   	ret    

000067c0 <surface_reset_damaged_region>:
    67c0:	55                   	push   %ebp
    67c1:	89 e5                	mov    %esp,%ebp
    67c3:	8b 45 08             	mov    0x8(%ebp),%eax
    67c6:	8b 48 14             	mov    0x14(%eax),%ecx
    67c9:	c7 40 08 00 00 00 00 	movl   $0x0,0x8(%eax)
    67d0:	c7 40 10 00 00 00 00 	movl   $0x0,0x10(%eax)
    67d7:	8d 51 ff             	lea    -0x1(%ecx),%edx
    67da:	8b 48 18             	mov    0x18(%eax),%ecx
    67dd:	89 50 04             	mov    %edx,0x4(%eax)
    67e0:	8d 51 ff             	lea    -0x1(%ecx),%edx
    67e3:	89 50 0c             	mov    %edx,0xc(%eax)
    67e6:	5d                   	pop    %ebp
    67e7:	c3                   	ret    
    67e8:	90                   	nop
    67e9:	8d b4 26 00 00 00 00 	lea    0x0(%esi,%eiz,1),%esi

000067f0 <surface_put_pixel>:
    67f0:	55                   	push   %ebp
    67f1:	89 e5                	mov    %esp,%ebp
    67f3:	53                   	push   %ebx
    67f4:	8b 45 08             	mov    0x8(%ebp),%eax
    67f7:	8b 4d 0c             	mov    0xc(%ebp),%ecx
    67fa:	8b 55 10             	mov    0x10(%ebp),%edx
    67fd:	8b 58 04             	mov    0x4(%eax),%ebx
    6800:	39 cb                	cmp    %ecx,%ebx
    6802:	76 02                	jbe    6806 <surface_put_pixel+0x16>
    6804:	89 cb                	mov    %ecx,%ebx
    6806:	89 58 04             	mov    %ebx,0x4(%eax)
    6809:	8b 58 08             	mov    0x8(%eax),%ebx
    680c:	39 cb                	cmp    %ecx,%ebx
    680e:	73 02                	jae    6812 <surface_put_pixel+0x22>
    6810:	89 cb                	mov    %ecx,%ebx
    6812:	89 58 08             	mov    %ebx,0x8(%eax)
    6815:	8b 58 0c             	mov    0xc(%eax),%ebx
    6818:	39 d3                	cmp    %edx,%ebx
    681a:	76 02                	jbe    681e <surface_put_pixel+0x2e>
    681c:	89 d3                	mov    %edx,%ebx
    681e:	89 58 0c             	mov    %ebx,0xc(%eax)
    6821:	8b 58 10             	mov    0x10(%eax),%ebx
    6824:	39 d3                	cmp    %edx,%ebx
    6826:	73 02                	jae    682a <surface_put_pixel+0x3a>
    6828:	89 d3                	mov    %edx,%ebx
    682a:	89 58 10             	mov    %ebx,0x10(%eax)
    682d:	8b 58 14             	mov    0x14(%eax),%ebx
    6830:	39 d9                	cmp    %ebx,%ecx
    6832:	73 19                	jae    684d <surface_put_pixel+0x5d>
    6834:	3b 50 18             	cmp    0x18(%eax),%edx
    6837:	73 14                	jae    684d <surface_put_pixel+0x5d>
    6839:	0f af d3             	imul   %ebx,%edx
    683c:	8b 40 1c             	mov    0x1c(%eax),%eax
    683f:	01 ca                	add    %ecx,%edx
    6841:	8d 14 90             	lea    (%eax,%edx,4),%edx
    6844:	85 d2                	test   %edx,%edx
    6846:	74 05                	je     684d <surface_put_pixel+0x5d>
    6848:	8b 45 14             	mov    0x14(%ebp),%eax
    684b:	89 02                	mov    %eax,(%edx)
    684d:	5b                   	pop    %ebx
    684e:	5d                   	pop    %ebp
    684f:	c3                   	ret    

00006850 <surface_get_pixel>:
    6850:	55                   	push   %ebp
    6851:	31 c0                	xor    %eax,%eax
    6853:	89 e5                	mov    %esp,%ebp
    6855:	53                   	push   %ebx
    6856:	8b 4d 08             	mov    0x8(%ebp),%ecx
    6859:	8b 51 14             	mov    0x14(%ecx),%edx
    685c:	39 55 0c             	cmp    %edx,0xc(%ebp)
    685f:	73 1f                	jae    6880 <surface_get_pixel+0x30>
    6861:	8b 59 18             	mov    0x18(%ecx),%ebx
    6864:	39 5d 10             	cmp    %ebx,0x10(%ebp)
    6867:	73 17                	jae    6880 <surface_get_pixel+0x30>
    6869:	8b 5d 10             	mov    0x10(%ebp),%ebx
    686c:	8b 49 1c             	mov    0x1c(%ecx),%ecx
    686f:	0f af d3             	imul   %ebx,%edx
    6872:	8b 5d 0c             	mov    0xc(%ebp),%ebx
    6875:	01 da                	add    %ebx,%edx
    6877:	8d 14 91             	lea    (%ecx,%edx,4),%edx
    687a:	85 d2                	test   %edx,%edx
    687c:	74 02                	je     6880 <surface_get_pixel+0x30>
    687e:	8b 02                	mov    (%edx),%eax
    6880:	5b                   	pop    %ebx
    6881:	5d                   	pop    %ebp
    6882:	c3                   	ret    
    6883:	66 90                	xchg   %ax,%ax
    6885:	66 90                	xchg   %ax,%ax
    6887:	66 90                	xchg   %ax,%ax
    6889:	66 90                	xchg   %ax,%ax
    688b:	66 90                	xchg   %ax,%ax
    688d:	66 90                	xchg   %ax,%ax
    688f:	90                   	nop

00006890 <compose_clr>:
    6890:	55                   	push   %ebp
    6891:	31 c0                	xor    %eax,%eax
    6893:	89 e5                	mov    %esp,%ebp
    6895:	5d                   	pop    %ebp
    6896:	c3                   	ret    
    6897:	89 f6                	mov    %esi,%esi
    6899:	8d bc 27 00 00 00 00 	lea    0x0(%edi,%eiz,1),%edi

000068a0 <compose_src>:
    68a0:	55                   	push   %ebp
    68a1:	89 e5                	mov    %esp,%ebp
    68a3:	8b 45 08             	mov    0x8(%ebp),%eax
    68a6:	5d                   	pop    %ebp
    68a7:	c3                   	ret    
    68a8:	90                   	nop
    68a9:	8d b4 26 00 00 00 00 	lea    0x0(%esi,%eiz,1),%esi

000068b0 <compose_dst>:
    68b0:	55                   	push   %ebp
    68b1:	89 e5                	mov    %esp,%ebp
    68b3:	8b 45 0c             	mov    0xc(%ebp),%eax
    68b6:	5d                   	pop    %ebp
    68b7:	c3                   	ret    
    68b8:	90                   	nop
    68b9:	8d b4 26 00 00 00 00 	lea    0x0(%esi,%eiz,1),%esi

000068c0 <compose_over>:
    68c0:	55                   	push   %ebp
    68c1:	ba 01 fe 00 00       	mov    $0xfe01,%edx
    68c6:	89 e5                	mov    %esp,%ebp
    68c8:	57                   	push   %edi
    68c9:	56                   	push   %esi
    68ca:	53                   	push   %ebx
    68cb:	50                   	push   %eax
    68cc:	be 81 80 80 80       	mov    $0x80808081,%esi
    68d1:	8b 5d 08             	mov    0x8(%ebp),%ebx
    68d4:	8b 7d 0c             	mov    0xc(%ebp),%edi
    68d7:	c1 eb 18             	shr    $0x18,%ebx
    68da:	c1 ef 18             	shr    $0x18,%edi
    68dd:	89 d8                	mov    %ebx,%eax
    68df:	0f af c7             	imul   %edi,%eax
    68e2:	29 c2                	sub    %eax,%edx
    68e4:	89 d0                	mov    %edx,%eax
    68e6:	f7 e6                	mul    %esi
    68e8:	c1 ea 07             	shr    $0x7,%edx
    68eb:	89 d1                	mov    %edx,%ecx
    68ed:	31 d2                	xor    %edx,%edx
    68ef:	8a 55 08             	mov    0x8(%ebp),%dl
    68f2:	89 4d f0             	mov    %ecx,-0x10(%ebp)
    68f5:	89 d0                	mov    %edx,%eax
    68f7:	31 d2                	xor    %edx,%edx
    68f9:	8a 55 0c             	mov    0xc(%ebp),%dl
    68fc:	0f af c3             	imul   %ebx,%eax
    68ff:	0f af d1             	imul   %ecx,%edx
    6902:	01 c2                	add    %eax,%edx
    6904:	31 c9                	xor    %ecx,%ecx
    6906:	89 d0                	mov    %edx,%eax
    6908:	f7 e6                	mul    %esi
    690a:	c1 ea 07             	shr    $0x7,%edx
    690d:	88 d1                	mov    %dl,%cl
    690f:	ba ff 00 00 00       	mov    $0xff,%edx
    6914:	29 da                	sub    %ebx,%edx
    6916:	0f af fa             	imul   %edx,%edi
    6919:	89 da                	mov    %ebx,%edx
    691b:	c1 e2 08             	shl    $0x8,%edx
    691e:	29 da                	sub    %ebx,%edx
    6920:	01 fa                	add    %edi,%edx
    6922:	8b 7d f0             	mov    -0x10(%ebp),%edi
    6925:	89 d0                	mov    %edx,%eax
    6927:	f7 e6                	mul    %esi
    6929:	c1 ea 07             	shr    $0x7,%edx
    692c:	c1 e2 18             	shl    $0x18,%edx
    692f:	09 d1                	or     %edx,%ecx
    6931:	8b 55 08             	mov    0x8(%ebp),%edx
    6934:	c1 ea 10             	shr    $0x10,%edx
    6937:	81 e2 ff 00 00 00    	and    $0xff,%edx
    693d:	89 d0                	mov    %edx,%eax
    693f:	8b 55 0c             	mov    0xc(%ebp),%edx
    6942:	c1 ea 10             	shr    $0x10,%edx
    6945:	81 e2 ff 00 00 00    	and    $0xff,%edx
    694b:	0f af c3             	imul   %ebx,%eax
    694e:	0f af d7             	imul   %edi,%edx
    6951:	01 c2                	add    %eax,%edx
    6953:	89 d0                	mov    %edx,%eax
    6955:	f7 e6                	mul    %esi
    6957:	c1 e2 09             	shl    $0x9,%edx
    695a:	8b 45 08             	mov    0x8(%ebp),%eax
    695d:	81 e2 00 00 ff 00    	and    $0xff0000,%edx
    6963:	09 d1                	or     %edx,%ecx
    6965:	0f b6 d4             	movzbl %ah,%edx
    6968:	8b 45 0c             	mov    0xc(%ebp),%eax
    696b:	0f af da             	imul   %edx,%ebx
    696e:	0f b6 d4             	movzbl %ah,%edx
    6971:	0f af d7             	imul   %edi,%edx
    6974:	01 da                	add    %ebx,%edx
    6976:	89 d0                	mov    %edx,%eax
    6978:	f7 e6                	mul    %esi
    697a:	8d 04 12             	lea    (%edx,%edx,1),%eax
    697d:	5a                   	pop    %edx
    697e:	25 00 ff 00 00       	and    $0xff00,%eax
    6983:	5b                   	pop    %ebx
    6984:	09 c8                	or     %ecx,%eax
    6986:	5e                   	pop    %esi
    6987:	5f                   	pop    %edi
    6988:	5d                   	pop    %ebp
    6989:	c3                   	ret    
    698a:	8d b6 00 00 00 00    	lea    0x0(%esi),%esi

00006990 <compose_in>:
    6990:	55                   	push   %ebp
    6991:	31 c0                	xor    %eax,%eax
    6993:	89 e5                	mov    %esp,%ebp
    6995:	5d                   	pop    %ebp
    6996:	c3                   	ret    
    6997:	89 f6                	mov    %esi,%esi
    6999:	8d bc 27 00 00 00 00 	lea    0x0(%edi,%eiz,1),%edi

000069a0 <compose_out>:
    69a0:	55                   	push   %ebp
    69a1:	31 c0                	xor    %eax,%eax
    69a3:	89 e5                	mov    %esp,%ebp
    69a5:	5d                   	pop    %ebp
    69a6:	c3                   	ret    
    69a7:	89 f6                	mov    %esi,%esi
    69a9:	8d bc 27 00 00 00 00 	lea    0x0(%edi,%eiz,1),%edi

000069b0 <compose_atop>:
    69b0:	55                   	push   %ebp
    69b1:	31 c0                	xor    %eax,%eax
    69b3:	89 e5                	mov    %esp,%ebp
    69b5:	5d                   	pop    %ebp
    69b6:	c3                   	ret    
    69b7:	89 f6                	mov    %esi,%esi
    69b9:	8d bc 27 00 00 00 00 	lea    0x0(%edi,%eiz,1),%edi

000069c0 <compose_xor>:
    69c0:	55                   	push   %ebp
    69c1:	31 c0                	xor    %eax,%eax
    69c3:	89 e5                	mov    %esp,%ebp
    69c5:	5d                   	pop    %ebp
    69c6:	c3                   	ret    
    69c7:	89 f6                	mov    %esi,%esi
    69c9:	8d bc 27 00 00 00 00 	lea    0x0(%edi,%eiz,1),%edi

000069d0 <compose_add>:
    69d0:	55                   	push   %ebp
    69d1:	31 c0                	xor    %eax,%eax
    69d3:	89 e5                	mov    %esp,%ebp
    69d5:	5d                   	pop    %ebp
    69d6:	c3                   	ret    
    69d7:	66 90                	xchg   %ax,%ax
    69d9:	66 90                	xchg   %ax,%ax
    69db:	66 90                	xchg   %ax,%ax
    69dd:	66 90                	xchg   %ax,%ax
    69df:	90                   	nop

000069e0 <filter_nearest>:
    69e0:	55                   	push   %ebp
    69e1:	89 e5                	mov    %esp,%ebp
    69e3:	57                   	push   %edi
    69e4:	56                   	push   %esi
    69e5:	53                   	push   %ebx
    69e6:	83 ec 0c             	sub    $0xc,%esp
    69e9:	dd 45 0c             	fldl   0xc(%ebp)
    69ec:	dd 45 14             	fldl   0x14(%ebp)
    69ef:	d9 ee                	fldz   
    69f1:	d9 c9                	fxch   %st(1)
    69f3:	dd e1                	fucom  %st(1)
    69f5:	df e0                	fnstsw %ax
    69f7:	dd d9                	fstp   %st(1)
    69f9:	8b 75 08             	mov    0x8(%ebp),%esi
    69fc:	8b 55 1c             	mov    0x1c(%ebp),%edx
    69ff:	f6 c4 45             	test   $0x45,%ah
    6a02:	0f 85 d0 00 00 00    	jne    6ad8 <filter_nearest+0xf8>
    6a08:	d8 05 7c 7c 00 00    	fadds  0x7c7c
    6a0e:	d9 7d ee             	fnstcw -0x12(%ebp)
    6a11:	66 8b 45 ee          	mov    -0x12(%ebp),%ax
    6a15:	b4 0c                	mov    $0xc,%ah
    6a17:	66 89 45 ec          	mov    %ax,-0x14(%ebp)
    6a1b:	d9 6d ec             	fldcw  -0x14(%ebp)
    6a1e:	db 5d e8             	fistpl -0x18(%ebp)
    6a21:	d9 6d ee             	fldcw  -0x12(%ebp)
    6a24:	d9 ee                	fldz   
    6a26:	d9 c9                	fxch   %st(1)
    6a28:	dd e1                	fucom  %st(1)
    6a2a:	df e0                	fnstsw %ax
    6a2c:	dd d9                	fstp   %st(1)
    6a2e:	8b 4d e8             	mov    -0x18(%ebp),%ecx
    6a31:	f6 c4 45             	test   $0x45,%ah
    6a34:	75 6a                	jne    6aa0 <filter_nearest+0xc0>
    6a36:	d8 05 7c 7c 00 00    	fadds  0x7c7c
    6a3c:	83 fa 01             	cmp    $0x1,%edx
    6a3f:	d9 6d ec             	fldcw  -0x14(%ebp)
    6a42:	db 5d e8             	fistpl -0x18(%ebp)
    6a45:	d9 6d ee             	fldcw  -0x12(%ebp)
    6a48:	8b 45 e8             	mov    -0x18(%ebp),%eax
    6a4b:	74 6a                	je     6ab7 <filter_nearest+0xd7>
    6a4d:	8d 5a fe             	lea    -0x2(%edx),%ebx
    6a50:	83 fb 01             	cmp    $0x1,%ebx
    6a53:	0f 86 8f 00 00 00    	jbe    6ae8 <filter_nearest+0x108>
    6a59:	89 ca                	mov    %ecx,%edx
    6a5b:	89 c3                	mov    %eax,%ebx
    6a5d:	31 ff                	xor    %edi,%edi
    6a5f:	85 db                	test   %ebx,%ebx
    6a61:	78 67                	js     6aca <filter_nearest+0xea>
    6a63:	89 d0                	mov    %edx,%eax
    6a65:	c1 e8 1f             	shr    $0x1f,%eax
    6a68:	8b 0e                	mov    (%esi),%ecx
    6a6a:	39 d9                	cmp    %ebx,%ecx
    6a6c:	76 5c                	jbe    6aca <filter_nearest+0xea>
    6a6e:	84 c0                	test   %al,%al
    6a70:	75 58                	jne    6aca <filter_nearest+0xea>
    6a72:	31 c0                	xor    %eax,%eax
    6a74:	39 56 04             	cmp    %edx,0x4(%esi)
    6a77:	76 1c                	jbe    6a95 <filter_nearest+0xb5>
    6a79:	0f af ca             	imul   %edx,%ecx
    6a7c:	8b 56 08             	mov    0x8(%esi),%edx
    6a7f:	01 cb                	add    %ecx,%ebx
    6a81:	8d 14 9a             	lea    (%edx,%ebx,4),%edx
    6a84:	85 d2                	test   %edx,%edx
    6a86:	74 02                	je     6a8a <filter_nearest+0xaa>
    6a88:	8b 02                	mov    (%edx),%eax
    6a8a:	89 f9                	mov    %edi,%ecx
    6a8c:	84 c9                	test   %cl,%cl
    6a8e:	74 05                	je     6a95 <filter_nearest+0xb5>
    6a90:	25 ff ff ff 00       	and    $0xffffff,%eax
    6a95:	83 c4 0c             	add    $0xc,%esp
    6a98:	5b                   	pop    %ebx
    6a99:	5e                   	pop    %esi
    6a9a:	5f                   	pop    %edi
    6a9b:	5d                   	pop    %ebp
    6a9c:	c3                   	ret    
    6a9d:	8d 76 00             	lea    0x0(%esi),%esi
    6aa0:	d8 25 7c 7c 00 00    	fsubs  0x7c7c
    6aa6:	83 fa 01             	cmp    $0x1,%edx
    6aa9:	d9 6d ec             	fldcw  -0x14(%ebp)
    6aac:	db 5d e8             	fistpl -0x18(%ebp)
    6aaf:	d9 6d ee             	fldcw  -0x12(%ebp)
    6ab2:	8b 45 e8             	mov    -0x18(%ebp),%eax
    6ab5:	75 96                	jne    6a4d <filter_nearest+0x6d>
    6ab7:	31 d2                	xor    %edx,%edx
    6ab9:	31 ff                	xor    %edi,%edi
    6abb:	f7 36                	divl   (%esi)
    6abd:	89 d3                	mov    %edx,%ebx
    6abf:	89 c8                	mov    %ecx,%eax
    6ac1:	31 d2                	xor    %edx,%edx
    6ac3:	f7 76 04             	divl   0x4(%esi)
    6ac6:	85 db                	test   %ebx,%ebx
    6ac8:	79 99                	jns    6a63 <filter_nearest+0x83>
    6aca:	83 c4 0c             	add    $0xc,%esp
    6acd:	31 c0                	xor    %eax,%eax
    6acf:	5b                   	pop    %ebx
    6ad0:	5e                   	pop    %esi
    6ad1:	5f                   	pop    %edi
    6ad2:	5d                   	pop    %ebp
    6ad3:	c3                   	ret    
    6ad4:	8d 74 26 00          	lea    0x0(%esi,%eiz,1),%esi
    6ad8:	d8 25 7c 7c 00 00    	fsubs  0x7c7c
    6ade:	e9 2b ff ff ff       	jmp    6a0e <filter_nearest+0x2e>
    6ae3:	90                   	nop
    6ae4:	8d 74 26 00          	lea    0x0(%esi,%eiz,1),%esi
    6ae8:	83 fa 03             	cmp    $0x3,%edx
    6aeb:	0f 94 c3             	sete   %bl
    6aee:	89 df                	mov    %ebx,%edi
    6af0:	85 c0                	test   %eax,%eax
    6af2:	78 3c                	js     6b30 <filter_nearest+0x150>
    6af4:	8b 16                	mov    (%esi),%edx
    6af6:	89 c3                	mov    %eax,%ebx
    6af8:	39 c2                	cmp    %eax,%edx
    6afa:	77 1c                	ja     6b18 <filter_nearest+0x138>
    6afc:	8d 5a ff             	lea    -0x1(%edx),%ebx
    6aff:	85 c9                	test   %ecx,%ecx
    6b01:	78 5d                	js     6b60 <filter_nearest+0x180>
    6b03:	8b 46 04             	mov    0x4(%esi),%eax
    6b06:	89 ca                	mov    %ecx,%edx
    6b08:	39 c8                	cmp    %ecx,%eax
    6b0a:	0f 87 4f ff ff ff    	ja     6a5f <filter_nearest+0x7f>
    6b10:	8d 50 ff             	lea    -0x1(%eax),%edx
    6b13:	e9 47 ff ff ff       	jmp    6a5f <filter_nearest+0x7f>
    6b18:	85 c9                	test   %ecx,%ecx
    6b1a:	78 34                	js     6b50 <filter_nearest+0x170>
    6b1c:	89 c3                	mov    %eax,%ebx
    6b1e:	31 d2                	xor    %edx,%edx
    6b20:	8b 46 04             	mov    0x4(%esi),%eax
    6b23:	39 c8                	cmp    %ecx,%eax
    6b25:	76 e9                	jbe    6b10 <filter_nearest+0x130>
    6b27:	89 d7                	mov    %edx,%edi
    6b29:	89 ca                	mov    %ecx,%edx
    6b2b:	e9 33 ff ff ff       	jmp    6a63 <filter_nearest+0x83>
    6b30:	85 c9                	test   %ecx,%ecx
    6b32:	78 0c                	js     6b40 <filter_nearest+0x160>
    6b34:	88 da                	mov    %bl,%dl
    6b36:	31 db                	xor    %ebx,%ebx
    6b38:	eb e6                	jmp    6b20 <filter_nearest+0x140>
    6b3a:	8d b6 00 00 00 00    	lea    0x0(%esi),%esi
    6b40:	31 db                	xor    %ebx,%ebx
    6b42:	31 c0                	xor    %eax,%eax
    6b44:	31 d2                	xor    %edx,%edx
    6b46:	e9 1d ff ff ff       	jmp    6a68 <filter_nearest+0x88>
    6b4b:	90                   	nop
    6b4c:	8d 74 26 00          	lea    0x0(%esi,%eiz,1),%esi
    6b50:	89 d1                	mov    %edx,%ecx
    6b52:	31 d2                	xor    %edx,%edx
    6b54:	e9 19 ff ff ff       	jmp    6a72 <filter_nearest+0x92>
    6b59:	8d b4 26 00 00 00 00 	lea    0x0(%esi,%eiz,1),%esi
    6b60:	31 d2                	xor    %edx,%edx
    6b62:	e9 f8 fe ff ff       	jmp    6a5f <filter_nearest+0x7f>
    6b67:	89 f6                	mov    %esi,%esi
    6b69:	8d bc 27 00 00 00 00 	lea    0x0(%edi,%eiz,1),%edi

00006b70 <filter_bilinear>:
    6b70:	55                   	push   %ebp
    6b71:	89 e5                	mov    %esp,%ebp
    6b73:	57                   	push   %edi
    6b74:	56                   	push   %esi
    6b75:	53                   	push   %ebx
    6b76:	83 ec 34             	sub    $0x34,%esp
    6b79:	d9 7d da             	fnstcw -0x26(%ebp)
    6b7c:	66 8b 45 da          	mov    -0x26(%ebp),%ax
    6b80:	8b 4d 08             	mov    0x8(%ebp),%ecx
    6b83:	b4 0c                	mov    $0xc,%ah
    6b85:	dd 45 0c             	fldl   0xc(%ebp)
    6b88:	66 89 45 d8          	mov    %ax,-0x28(%ebp)
    6b8c:	dd 45 14             	fldl   0x14(%ebp)
    6b8f:	d9 c9                	fxch   %st(1)
    6b91:	d9 6d d8             	fldcw  -0x28(%ebp)
    6b94:	db 55 c8             	fistl  -0x38(%ebp)
    6b97:	d9 6d da             	fldcw  -0x26(%ebp)
    6b9a:	d9 ee                	fldz   
    6b9c:	dd e1                	fucom  %st(1)
    6b9e:	df e0                	fnstsw %ax
    6ba0:	f6 c4 45             	test   $0x45,%ah
    6ba3:	0f 84 f7 02 00 00    	je     6ea0 <filter_bilinear+0x330>
    6ba9:	d9 c9                	fxch   %st(1)
    6bab:	dd e1                	fucom  %st(1)
    6bad:	df e0                	fnstsw %ax
    6baf:	dd d9                	fstp   %st(1)
    6bb1:	f6 c4 45             	test   $0x45,%ah
    6bb4:	0f 85 e6 04 00 00    	jne    70a0 <filter_bilinear+0x530>
    6bba:	8b 5d c8             	mov    -0x38(%ebp),%ebx
    6bbd:	b2 01                	mov    $0x1,%dl
    6bbf:	89 5d cc             	mov    %ebx,-0x34(%ebp)
    6bc2:	89 5d c4             	mov    %ebx,-0x3c(%ebp)
    6bc5:	db 45 cc             	fildl  -0x34(%ebp)
    6bc8:	d9 c9                	fxch   %st(1)
    6bca:	dd e1                	fucom  %st(1)
    6bcc:	df e0                	fnstsw %ax
    6bce:	dd d9                	fstp   %st(1)
    6bd0:	80 e4 45             	and    $0x45,%ah
    6bd3:	80 fc 40             	cmp    $0x40,%ah
    6bd6:	0f 85 fa 02 00 00    	jne    6ed6 <filter_bilinear+0x366>
    6bdc:	d9 c9                	fxch   %st(1)
    6bde:	eb 08                	jmp    6be8 <filter_bilinear+0x78>
    6be0:	d9 c9                	fxch   %st(1)
    6be2:	8d b6 00 00 00 00    	lea    0x0(%esi),%esi
    6be8:	d9 6d d8             	fldcw  -0x28(%ebp)
    6beb:	db 55 cc             	fistl  -0x34(%ebp)
    6bee:	d9 6d da             	fldcw  -0x26(%ebp)
    6bf1:	d9 ee                	fldz   
    6bf3:	dd e1                	fucom  %st(1)
    6bf5:	df e0                	fnstsw %ax
    6bf7:	f6 c4 45             	test   $0x45,%ah
    6bfa:	0f 84 f0 01 00 00    	je     6df0 <filter_bilinear+0x280>
    6c00:	d9 c9                	fxch   %st(1)
    6c02:	dd e1                	fucom  %st(1)
    6c04:	df e0                	fnstsw %ax
    6c06:	dd d9                	fstp   %st(1)
    6c08:	f6 c4 45             	test   $0x45,%ah
    6c0b:	0f 85 6f 05 00 00    	jne    7180 <filter_bilinear+0x610>
    6c11:	8b 7d cc             	mov    -0x34(%ebp),%edi
    6c14:	89 7d c0             	mov    %edi,-0x40(%ebp)
    6c17:	db 45 c0             	fildl  -0x40(%ebp)
    6c1a:	d9 c9                	fxch   %st(1)
    6c1c:	dd e1                	fucom  %st(1)
    6c1e:	df e0                	fnstsw %ax
    6c20:	dd d9                	fstp   %st(1)
    6c22:	80 e4 45             	and    $0x45,%ah
    6c25:	80 fc 40             	cmp    $0x40,%ah
    6c28:	89 f8                	mov    %edi,%eax
    6c2a:	0f 84 e1 01 00 00    	je     6e11 <filter_bilinear+0x2a1>
    6c30:	8b 45 cc             	mov    -0x34(%ebp),%eax
    6c33:	40                   	inc    %eax
    6c34:	89 45 cc             	mov    %eax,-0x34(%ebp)
    6c37:	8b 45 cc             	mov    -0x34(%ebp),%eax
    6c3a:	39 45 c0             	cmp    %eax,-0x40(%ebp)
    6c3d:	0f 94 c0             	sete   %al
    6c40:	20 c2                	and    %al,%dl
    6c42:	88 55 d5             	mov    %dl,-0x2b(%ebp)
    6c45:	0f 85 dd 01 00 00    	jne    6e28 <filter_bilinear+0x2b8>
    6c4b:	db 45 c4             	fildl  -0x3c(%ebp)
    6c4e:	de ea                	fsubrp %st,%st(2)
    6c50:	83 7d 1c 01          	cmpl   $0x1,0x1c(%ebp)
    6c54:	db 45 c0             	fildl  -0x40(%ebp)
    6c57:	de e9                	fsubrp %st,%st(1)
    6c59:	0f 84 59 05 00 00    	je     71b8 <filter_bilinear+0x648>
    6c5f:	8b 45 1c             	mov    0x1c(%ebp),%eax
    6c62:	83 e8 02             	sub    $0x2,%eax
    6c65:	83 f8 01             	cmp    $0x1,%eax
    6c68:	0f 86 b2 05 00 00    	jbe    7220 <filter_bilinear+0x6b0>
    6c6e:	c6 45 d4 00          	movb   $0x0,-0x2c(%ebp)
    6c72:	8b 75 c0             	mov    -0x40(%ebp),%esi
    6c75:	8b 7d c4             	mov    -0x3c(%ebp),%edi
    6c78:	85 ff                	test   %edi,%edi
    6c7a:	0f 88 50 06 00 00    	js     72d0 <filter_bilinear+0x760>
    6c80:	89 f2                	mov    %esi,%edx
    6c82:	8b 19                	mov    (%ecx),%ebx
    6c84:	c1 ea 1f             	shr    $0x1f,%edx
    6c87:	0f 85 43 06 00 00    	jne    72d0 <filter_bilinear+0x760>
    6c8d:	39 df                	cmp    %ebx,%edi
    6c8f:	0f 83 3b 06 00 00    	jae    72d0 <filter_bilinear+0x760>
    6c95:	31 c0                	xor    %eax,%eax
    6c97:	39 71 04             	cmp    %esi,0x4(%ecx)
    6c9a:	76 1c                	jbe    6cb8 <filter_bilinear+0x148>
    6c9c:	0f af f3             	imul   %ebx,%esi
    6c9f:	01 f7                	add    %esi,%edi
    6ca1:	8b 71 08             	mov    0x8(%ecx),%esi
    6ca4:	8d 34 be             	lea    (%esi,%edi,4),%esi
    6ca7:	85 f6                	test   %esi,%esi
    6ca9:	74 02                	je     6cad <filter_bilinear+0x13d>
    6cab:	8b 06                	mov    (%esi),%eax
    6cad:	80 7d d4 00          	cmpb   $0x0,-0x2c(%ebp)
    6cb1:	74 05                	je     6cb8 <filter_bilinear+0x148>
    6cb3:	25 ff ff ff 00       	and    $0xffffff,%eax
    6cb8:	89 45 e0             	mov    %eax,-0x20(%ebp)
    6cbb:	8b 45 1c             	mov    0x1c(%ebp),%eax
    6cbe:	83 e8 02             	sub    $0x2,%eax
    6cc1:	83 7d 1c 01          	cmpl   $0x1,0x1c(%ebp)
    6cc5:	0f 84 65 06 00 00    	je     7330 <filter_bilinear+0x7c0>
    6ccb:	83 f8 01             	cmp    $0x1,%eax
    6cce:	0f 86 94 05 00 00    	jbe    7268 <filter_bilinear+0x6f8>
    6cd4:	31 ff                	xor    %edi,%edi
    6cd6:	8b 75 c0             	mov    -0x40(%ebp),%esi
    6cd9:	8b 55 c8             	mov    -0x38(%ebp),%edx
    6cdc:	85 d2                	test   %edx,%edx
    6cde:	0f 88 44 04 00 00    	js     7128 <filter_bilinear+0x5b8>
    6ce4:	8b 19                	mov    (%ecx),%ebx
    6ce6:	89 f0                	mov    %esi,%eax
    6ce8:	c1 e8 1f             	shr    $0x1f,%eax
    6ceb:	b8 00 00 00 00       	mov    $0x0,%eax
    6cf0:	75 25                	jne    6d17 <filter_bilinear+0x1a7>
    6cf2:	39 da                	cmp    %ebx,%edx
    6cf4:	73 21                	jae    6d17 <filter_bilinear+0x1a7>
    6cf6:	39 71 04             	cmp    %esi,0x4(%ecx)
    6cf9:	76 1c                	jbe    6d17 <filter_bilinear+0x1a7>
    6cfb:	0f af f3             	imul   %ebx,%esi
    6cfe:	01 f2                	add    %esi,%edx
    6d00:	8b 71 08             	mov    0x8(%ecx),%esi
    6d03:	8d 14 96             	lea    (%esi,%edx,4),%edx
    6d06:	85 d2                	test   %edx,%edx
    6d08:	74 02                	je     6d0c <filter_bilinear+0x19c>
    6d0a:	8b 02                	mov    (%edx),%eax
    6d0c:	89 fa                	mov    %edi,%edx
    6d0e:	84 d2                	test   %dl,%dl
    6d10:	74 05                	je     6d17 <filter_bilinear+0x1a7>
    6d12:	25 ff ff ff 00       	and    $0xffffff,%eax
    6d17:	89 45 e4             	mov    %eax,-0x1c(%ebp)
    6d1a:	8b 45 1c             	mov    0x1c(%ebp),%eax
    6d1d:	83 e8 02             	sub    $0x2,%eax
    6d20:	83 7d 1c 01          	cmpl   $0x1,0x1c(%ebp)
    6d24:	0f 84 6e 04 00 00    	je     7198 <filter_bilinear+0x628>
    6d2a:	83 f8 01             	cmp    $0x1,%eax
    6d2d:	0f 86 05 04 00 00    	jbe    7138 <filter_bilinear+0x5c8>
    6d33:	31 ff                	xor    %edi,%edi
    6d35:	8b 55 cc             	mov    -0x34(%ebp),%edx
    6d38:	8b 75 c4             	mov    -0x3c(%ebp),%esi
    6d3b:	85 f6                	test   %esi,%esi
    6d3d:	0f 88 95 03 00 00    	js     70d8 <filter_bilinear+0x568>
    6d43:	8b 19                	mov    (%ecx),%ebx
    6d45:	39 de                	cmp    %ebx,%esi
    6d47:	0f 83 7b 05 00 00    	jae    72c8 <filter_bilinear+0x758>
    6d4d:	89 d0                	mov    %edx,%eax
    6d4f:	c1 e8 1f             	shr    $0x1f,%eax
    6d52:	0f 85 70 05 00 00    	jne    72c8 <filter_bilinear+0x758>
    6d58:	31 c0                	xor    %eax,%eax
    6d5a:	39 51 04             	cmp    %edx,0x4(%ecx)
    6d5d:	76 1c                	jbe    6d7b <filter_bilinear+0x20b>
    6d5f:	0f af d3             	imul   %ebx,%edx
    6d62:	01 d6                	add    %edx,%esi
    6d64:	8b 51 08             	mov    0x8(%ecx),%edx
    6d67:	8d 14 b2             	lea    (%edx,%esi,4),%edx
    6d6a:	85 d2                	test   %edx,%edx
    6d6c:	74 02                	je     6d70 <filter_bilinear+0x200>
    6d6e:	8b 02                	mov    (%edx),%eax
    6d70:	89 fa                	mov    %edi,%edx
    6d72:	84 d2                	test   %dl,%dl
    6d74:	74 05                	je     6d7b <filter_bilinear+0x20b>
    6d76:	25 ff ff ff 00       	and    $0xffffff,%eax
    6d7b:	89 45 e8             	mov    %eax,-0x18(%ebp)
    6d7e:	8b 45 1c             	mov    0x1c(%ebp),%eax
    6d81:	83 e8 02             	sub    $0x2,%eax
    6d84:	83 7d 1c 01          	cmpl   $0x1,0x1c(%ebp)
    6d88:	0f 84 6a 04 00 00    	je     71f8 <filter_bilinear+0x688>
    6d8e:	83 f8 01             	cmp    $0x1,%eax
    6d91:	0f 86 51 03 00 00    	jbe    70e8 <filter_bilinear+0x578>
    6d97:	8b 55 cc             	mov    -0x34(%ebp),%edx
    6d9a:	8b 75 c8             	mov    -0x38(%ebp),%esi
    6d9d:	85 f6                	test   %esi,%esi
    6d9f:	0f 88 4b 01 00 00    	js     6ef0 <filter_bilinear+0x380>
    6da5:	89 d0                	mov    %edx,%eax
    6da7:	c1 e8 1f             	shr    $0x1f,%eax
    6daa:	8b 39                	mov    (%ecx),%edi
    6dac:	39 f7                	cmp    %esi,%edi
    6dae:	0f 86 3c 01 00 00    	jbe    6ef0 <filter_bilinear+0x380>
    6db4:	84 c0                	test   %al,%al
    6db6:	0f 85 34 01 00 00    	jne    6ef0 <filter_bilinear+0x380>
    6dbc:	39 51 04             	cmp    %edx,0x4(%ecx)
    6dbf:	0f 86 2b 01 00 00    	jbe    6ef0 <filter_bilinear+0x380>
    6dc5:	0f af d7             	imul   %edi,%edx
    6dc8:	8b 41 08             	mov    0x8(%ecx),%eax
    6dcb:	01 d6                	add    %edx,%esi
    6dcd:	8d 04 b0             	lea    (%eax,%esi,4),%eax
    6dd0:	85 c0                	test   %eax,%eax
    6dd2:	0f 84 88 06 00 00    	je     7460 <filter_bilinear+0x8f0>
    6dd8:	8b 10                	mov    (%eax),%edx
    6dda:	80 7d d5 00          	cmpb   $0x0,-0x2b(%ebp)
    6dde:	0f 84 0e 01 00 00    	je     6ef2 <filter_bilinear+0x382>
    6de4:	81 e2 ff ff ff 00    	and    $0xffffff,%edx
    6dea:	e9 03 01 00 00       	jmp    6ef2 <filter_bilinear+0x382>
    6def:	90                   	nop
    6df0:	8b 5d cc             	mov    -0x34(%ebp),%ebx
    6df3:	89 5d c0             	mov    %ebx,-0x40(%ebp)
    6df6:	db 45 c0             	fildl  -0x40(%ebp)
    6df9:	d9 ca                	fxch   %st(2)
    6dfb:	dd e2                	fucom  %st(2)
    6dfd:	df e0                	fnstsw %ax
    6dff:	dd da                	fstp   %st(2)
    6e01:	80 e4 45             	and    $0x45,%ah
    6e04:	80 fc 40             	cmp    $0x40,%ah
    6e07:	89 d8                	mov    %ebx,%eax
    6e09:	0f 85 a9 02 00 00    	jne    70b8 <filter_bilinear+0x548>
    6e0f:	dd d8                	fstp   %st(0)
    6e11:	89 45 c0             	mov    %eax,-0x40(%ebp)
    6e14:	b0 01                	mov    $0x1,%al
    6e16:	20 c2                	and    %al,%dl
    6e18:	88 55 d5             	mov    %dl,-0x2b(%ebp)
    6e1b:	0f 84 2a fe ff ff    	je     6c4b <filter_bilinear+0xdb>
    6e21:	dd d8                	fstp   %st(0)
    6e23:	dd d8                	fstp   %st(0)
    6e25:	eb 05                	jmp    6e2c <filter_bilinear+0x2bc>
    6e27:	90                   	nop
    6e28:	dd d8                	fstp   %st(0)
    6e2a:	dd d8                	fstp   %st(0)
    6e2c:	83 7d 1c 01          	cmpl   $0x1,0x1c(%ebp)
    6e30:	0f 84 7a 04 00 00    	je     72b0 <filter_bilinear+0x740>
    6e36:	8b 45 1c             	mov    0x1c(%ebp),%eax
    6e39:	83 e8 02             	sub    $0x2,%eax
    6e3c:	83 f8 01             	cmp    $0x1,%eax
    6e3f:	0f 86 9b 04 00 00    	jbe    72e0 <filter_bilinear+0x770>
    6e45:	8b 55 c0             	mov    -0x40(%ebp),%edx
    6e48:	8b 75 c4             	mov    -0x3c(%ebp),%esi
    6e4b:	31 db                	xor    %ebx,%ebx
    6e4d:	85 f6                	test   %esi,%esi
    6e4f:	0f 88 bb 03 00 00    	js     7210 <filter_bilinear+0x6a0>
    6e55:	89 d0                	mov    %edx,%eax
    6e57:	c1 e8 1f             	shr    $0x1f,%eax
    6e5a:	8b 39                	mov    (%ecx),%edi
    6e5c:	39 f7                	cmp    %esi,%edi
    6e5e:	0f 86 ac 03 00 00    	jbe    7210 <filter_bilinear+0x6a0>
    6e64:	84 c0                	test   %al,%al
    6e66:	0f 85 a4 03 00 00    	jne    7210 <filter_bilinear+0x6a0>
    6e6c:	31 c0                	xor    %eax,%eax
    6e6e:	39 51 04             	cmp    %edx,0x4(%ecx)
    6e71:	0f 86 1a 02 00 00    	jbe    7091 <filter_bilinear+0x521>
    6e77:	0f af d7             	imul   %edi,%edx
    6e7a:	01 d6                	add    %edx,%esi
    6e7c:	8b 51 08             	mov    0x8(%ecx),%edx
    6e7f:	8d 14 b2             	lea    (%edx,%esi,4),%edx
    6e82:	85 d2                	test   %edx,%edx
    6e84:	74 02                	je     6e88 <filter_bilinear+0x318>
    6e86:	8b 02                	mov    (%edx),%eax
    6e88:	84 db                	test   %bl,%bl
    6e8a:	0f 84 01 02 00 00    	je     7091 <filter_bilinear+0x521>
    6e90:	25 ff ff ff 00       	and    $0xffffff,%eax
    6e95:	e9 f7 01 00 00       	jmp    7091 <filter_bilinear+0x521>
    6e9a:	8d b6 00 00 00 00    	lea    0x0(%esi),%esi
    6ea0:	8b 7d c8             	mov    -0x38(%ebp),%edi
    6ea3:	89 7d cc             	mov    %edi,-0x34(%ebp)
    6ea6:	db 45 cc             	fildl  -0x34(%ebp)
    6ea9:	d9 ca                	fxch   %st(2)
    6eab:	dd e2                	fucom  %st(2)
    6ead:	df e0                	fnstsw %ax
    6eaf:	dd da                	fstp   %st(2)
    6eb1:	80 e4 45             	and    $0x45,%ah
    6eb4:	80 fc 40             	cmp    $0x40,%ah
    6eb7:	89 f8                	mov    %edi,%eax
    6eb9:	0f 84 e9 01 00 00    	je     70a8 <filter_bilinear+0x538>
    6ebf:	d9 c9                	fxch   %st(1)
    6ec1:	48                   	dec    %eax
    6ec2:	31 d2                	xor    %edx,%edx
    6ec4:	89 45 c4             	mov    %eax,-0x3c(%ebp)
    6ec7:	dd e1                	fucom  %st(1)
    6ec9:	df e0                	fnstsw %ax
    6ecb:	dd d9                	fstp   %st(1)
    6ecd:	f6 c4 45             	test   $0x45,%ah
    6ed0:	0f 85 0a fd ff ff    	jne    6be0 <filter_bilinear+0x70>
    6ed6:	d9 c9                	fxch   %st(1)
    6ed8:	8b 45 c8             	mov    -0x38(%ebp),%eax
    6edb:	40                   	inc    %eax
    6edc:	89 45 c8             	mov    %eax,-0x38(%ebp)
    6edf:	8b 45 c8             	mov    -0x38(%ebp),%eax
    6ee2:	3b 45 c4             	cmp    -0x3c(%ebp),%eax
    6ee5:	0f 94 c2             	sete   %dl
    6ee8:	e9 fb fc ff ff       	jmp    6be8 <filter_bilinear+0x78>
    6eed:	8d 76 00             	lea    0x0(%esi),%esi
    6ef0:	31 d2                	xor    %edx,%edx
    6ef2:	d9 e8                	fld1   
    6ef4:	d9 c0                	fld    %st(0)
    6ef6:	d8 e3                	fsub   %st(3),%st
    6ef8:	d9 c9                	fxch   %st(1)
    6efa:	8b 4d e0             	mov    -0x20(%ebp),%ecx
    6efd:	89 c8                	mov    %ecx,%eax
    6eff:	c1 e8 18             	shr    $0x18,%eax
    6f02:	d8 e2                	fsub   %st(2),%st
    6f04:	89 45 cc             	mov    %eax,-0x34(%ebp)
    6f07:	89 c8                	mov    %ecx,%eax
    6f09:	c1 e8 10             	shr    $0x10,%eax
    6f0c:	d9 c1                	fld    %st(1)
    6f0e:	d8 c9                	fmul   %st(1),%st
    6f10:	25 ff 00 00 00       	and    $0xff,%eax
    6f15:	d9 5d dc             	fstps  -0x24(%ebp)
    6f18:	d9 45 dc             	flds   -0x24(%ebp)
    6f1b:	d9 c9                	fxch   %st(1)
    6f1d:	d8 cc                	fmul   %st(4),%st
    6f1f:	d9 5d dc             	fstps  -0x24(%ebp)
    6f22:	d9 45 dc             	flds   -0x24(%ebp)
    6f25:	d9 ca                	fxch   %st(2)
    6f27:	d8 cb                	fmul   %st(3),%st
    6f29:	d9 5d dc             	fstps  -0x24(%ebp)
    6f2c:	d9 45 dc             	flds   -0x24(%ebp)
    6f2f:	d9 cb                	fxch   %st(3)
    6f31:	de cc                	fmulp  %st,%st(4)
    6f33:	d9 cb                	fxch   %st(3)
    6f35:	d9 5d dc             	fstps  -0x24(%ebp)
    6f38:	d9 45 dc             	flds   -0x24(%ebp)
    6f3b:	db 45 cc             	fildl  -0x34(%ebp)
    6f3e:	d8 cc                	fmul   %st(4),%st
    6f40:	89 45 cc             	mov    %eax,-0x34(%ebp)
    6f43:	0f b6 c5             	movzbl %ch,%eax
    6f46:	81 e1 ff 00 00 00    	and    $0xff,%ecx
    6f4c:	d9 ee                	fldz   
    6f4e:	dc c1                	fadd   %st,%st(1)
    6f50:	db 45 cc             	fildl  -0x34(%ebp)
    6f53:	d8 ce                	fmul   %st(6),%st
    6f55:	89 45 cc             	mov    %eax,-0x34(%ebp)
    6f58:	8b 45 e4             	mov    -0x1c(%ebp),%eax
    6f5b:	de c1                	faddp  %st,%st(1)
    6f5d:	db 45 cc             	fildl  -0x34(%ebp)
    6f60:	d8 ce                	fmul   %st(6),%st
    6f62:	89 4d cc             	mov    %ecx,-0x34(%ebp)
    6f65:	89 c1                	mov    %eax,%ecx
    6f67:	c1 e9 18             	shr    $0x18,%ecx
    6f6a:	d9 ee                	fldz   
    6f6c:	de c1                	faddp  %st,%st(1)
    6f6e:	db 45 cc             	fildl  -0x34(%ebp)
    6f71:	de cf                	fmulp  %st,%st(7)
    6f73:	89 4d cc             	mov    %ecx,-0x34(%ebp)
    6f76:	89 c1                	mov    %eax,%ecx
    6f78:	c1 e9 10             	shr    $0x10,%ecx
    6f7b:	d9 ee                	fldz   
    6f7d:	de c7                	faddp  %st,%st(7)
    6f7f:	81 e1 ff 00 00 00    	and    $0xff,%ecx
    6f85:	db 45 cc             	fildl  -0x34(%ebp)
    6f88:	d8 cd                	fmul   %st(5),%st
    6f8a:	89 4d cc             	mov    %ecx,-0x34(%ebp)
    6f8d:	0f b6 cc             	movzbl %ah,%ecx
    6f90:	25 ff 00 00 00       	and    $0xff,%eax
    6f95:	de c3                	faddp  %st,%st(3)
    6f97:	db 45 cc             	fildl  -0x34(%ebp)
    6f9a:	d8 cd                	fmul   %st(5),%st
    6f9c:	89 4d cc             	mov    %ecx,-0x34(%ebp)
    6f9f:	de c2                	faddp  %st,%st(2)
    6fa1:	db 45 cc             	fildl  -0x34(%ebp)
    6fa4:	d8 cd                	fmul   %st(5),%st
    6fa6:	89 45 cc             	mov    %eax,-0x34(%ebp)
    6fa9:	8b 45 e8             	mov    -0x18(%ebp),%eax
    6fac:	89 c1                	mov    %eax,%ecx
    6fae:	de c1                	faddp  %st,%st(1)
    6fb0:	c1 e9 18             	shr    $0x18,%ecx
    6fb3:	db 45 cc             	fildl  -0x34(%ebp)
    6fb6:	de cd                	fmulp  %st,%st(5)
    6fb8:	d9 cc                	fxch   %st(4)
    6fba:	89 4d cc             	mov    %ecx,-0x34(%ebp)
    6fbd:	89 c1                	mov    %eax,%ecx
    6fbf:	c1 e9 10             	shr    $0x10,%ecx
    6fc2:	de c6                	faddp  %st,%st(6)
    6fc4:	81 e1 ff 00 00 00    	and    $0xff,%ecx
    6fca:	db 45 cc             	fildl  -0x34(%ebp)
    6fcd:	d8 cd                	fmul   %st(5),%st
    6fcf:	89 4d cc             	mov    %ecx,-0x34(%ebp)
    6fd2:	0f b6 cc             	movzbl %ah,%ecx
    6fd5:	25 ff 00 00 00       	and    $0xff,%eax
    6fda:	de c2                	faddp  %st,%st(2)
    6fdc:	db 45 cc             	fildl  -0x34(%ebp)
    6fdf:	d8 cd                	fmul   %st(5),%st
    6fe1:	89 4d cc             	mov    %ecx,-0x34(%ebp)
    6fe4:	31 c9                	xor    %ecx,%ecx
    6fe6:	88 d1                	mov    %dl,%cl
    6fe8:	de c1                	faddp  %st,%st(1)
    6fea:	db 45 cc             	fildl  -0x34(%ebp)
    6fed:	d8 cd                	fmul   %st(5),%st
    6fef:	89 45 cc             	mov    %eax,-0x34(%ebp)
    6ff2:	89 d0                	mov    %edx,%eax
    6ff4:	c1 e8 18             	shr    $0x18,%eax
    6ff7:	de c4                	faddp  %st,%st(4)
    6ff9:	db 45 cc             	fildl  -0x34(%ebp)
    6ffc:	de cd                	fmulp  %st,%st(5)
    6ffe:	d9 cd                	fxch   %st(5)
    7000:	89 45 cc             	mov    %eax,-0x34(%ebp)
    7003:	de c4                	faddp  %st,%st(4)
    7005:	db 45 cc             	fildl  -0x34(%ebp)
    7008:	d8 ca                	fmul   %st(2),%st
    700a:	89 4d cc             	mov    %ecx,-0x34(%ebp)
    700d:	de c1                	faddp  %st,%st(1)
    700f:	d9 6d d8             	fldcw  -0x28(%ebp)
    7012:	df 5d d6             	fistp  -0x2a(%ebp)
    7015:	d9 6d da             	fldcw  -0x26(%ebp)
    7018:	db 45 cc             	fildl  -0x34(%ebp)
    701b:	d8 c9                	fmul   %st(1),%st
    701d:	66 8b 45 d6          	mov    -0x2a(%ebp),%ax
    7021:	c1 e0 18             	shl    $0x18,%eax
    7024:	de c3                	faddp  %st,%st(3)
    7026:	d9 ca                	fxch   %st(2)
    7028:	d9 6d d8             	fldcw  -0x28(%ebp)
    702b:	df 5d d6             	fistp  -0x2a(%ebp)
    702e:	d9 6d da             	fldcw  -0x26(%ebp)
    7031:	66 8b 4d d6          	mov    -0x2a(%ebp),%cx
    7035:	81 e1 ff 00 00 00    	and    $0xff,%ecx
    703b:	09 c8                	or     %ecx,%eax
    703d:	89 d1                	mov    %edx,%ecx
    703f:	c1 e9 10             	shr    $0x10,%ecx
    7042:	81 e1 ff 00 00 00    	and    $0xff,%ecx
    7048:	89 4d cc             	mov    %ecx,-0x34(%ebp)
    704b:	db 45 cc             	fildl  -0x34(%ebp)
    704e:	d8 ca                	fmul   %st(2),%st
    7050:	de c3                	faddp  %st,%st(3)
    7052:	d9 ca                	fxch   %st(2)
    7054:	d9 6d d8             	fldcw  -0x28(%ebp)
    7057:	df 5d d6             	fistp  -0x2a(%ebp)
    705a:	d9 6d da             	fldcw  -0x26(%ebp)
    705d:	66 8b 4d d6          	mov    -0x2a(%ebp),%cx
    7061:	81 e1 ff 00 00 00    	and    $0xff,%ecx
    7067:	c1 e1 10             	shl    $0x10,%ecx
    706a:	09 c8                	or     %ecx,%eax
    706c:	0f b6 ce             	movzbl %dh,%ecx
    706f:	89 4d cc             	mov    %ecx,-0x34(%ebp)
    7072:	db 45 cc             	fildl  -0x34(%ebp)
    7075:	de c9                	fmulp  %st,%st(1)
    7077:	de c1                	faddp  %st,%st(1)
    7079:	d9 6d d8             	fldcw  -0x28(%ebp)
    707c:	df 5d d6             	fistp  -0x2a(%ebp)
    707f:	d9 6d da             	fldcw  -0x26(%ebp)
    7082:	66 8b 55 d6          	mov    -0x2a(%ebp),%dx
    7086:	81 e2 ff 00 00 00    	and    $0xff,%edx
    708c:	c1 e2 08             	shl    $0x8,%edx
    708f:	09 d0                	or     %edx,%eax
    7091:	83 c4 34             	add    $0x34,%esp
    7094:	5b                   	pop    %ebx
    7095:	5e                   	pop    %esi
    7096:	5f                   	pop    %edi
    7097:	5d                   	pop    %ebp
    7098:	c3                   	ret    
    7099:	8d b4 26 00 00 00 00 	lea    0x0(%esi,%eiz,1),%esi
    70a0:	8b 45 c8             	mov    -0x38(%ebp),%eax
    70a3:	eb 05                	jmp    70aa <filter_bilinear+0x53a>
    70a5:	8d 76 00             	lea    0x0(%esi),%esi
    70a8:	dd d8                	fstp   %st(0)
    70aa:	d9 c9                	fxch   %st(1)
    70ac:	89 45 c4             	mov    %eax,-0x3c(%ebp)
    70af:	b2 01                	mov    $0x1,%dl
    70b1:	e9 32 fb ff ff       	jmp    6be8 <filter_bilinear+0x78>
    70b6:	66 90                	xchg   %ax,%ax
    70b8:	d9 c9                	fxch   %st(1)
    70ba:	48                   	dec    %eax
    70bb:	89 45 c0             	mov    %eax,-0x40(%ebp)
    70be:	dd e1                	fucom  %st(1)
    70c0:	df e0                	fnstsw %ax
    70c2:	dd d9                	fstp   %st(1)
    70c4:	f6 c4 45             	test   $0x45,%ah
    70c7:	0f 84 63 fb ff ff    	je     6c30 <filter_bilinear+0xc0>
    70cd:	31 c0                	xor    %eax,%eax
    70cf:	e9 6c fb ff ff       	jmp    6c40 <filter_bilinear+0xd0>
    70d4:	8d 74 26 00          	lea    0x0(%esi,%eiz,1),%esi
    70d8:	c7 45 e8 00 00 00 00 	movl   $0x0,-0x18(%ebp)
    70df:	83 f8 01             	cmp    $0x1,%eax
    70e2:	0f 87 af fc ff ff    	ja     6d97 <filter_bilinear+0x227>
    70e8:	8b 45 c8             	mov    -0x38(%ebp),%eax
    70eb:	83 7d 1c 03          	cmpl   $0x3,0x1c(%ebp)
    70ef:	0f 94 c3             	sete   %bl
    70f2:	85 c0                	test   %eax,%eax
    70f4:	0f 88 1e 03 00 00    	js     7418 <filter_bilinear+0x8a8>
    70fa:	8b 39                	mov    (%ecx),%edi
    70fc:	89 c6                	mov    %eax,%esi
    70fe:	39 c7                	cmp    %eax,%edi
    7100:	0f 86 4a 02 00 00    	jbe    7350 <filter_bilinear+0x7e0>
    7106:	8b 55 cc             	mov    -0x34(%ebp),%edx
    7109:	85 d2                	test   %edx,%edx
    710b:	0f 88 8f 03 00 00    	js     74a0 <filter_bilinear+0x930>
    7111:	89 c6                	mov    %eax,%esi
    7113:	8b 51 04             	mov    0x4(%ecx),%edx
    7116:	8b 45 cc             	mov    -0x34(%ebp),%eax
    7119:	39 d0                	cmp    %edx,%eax
    711b:	0f 83 e7 02 00 00    	jae    7408 <filter_bilinear+0x898>
    7121:	89 c2                	mov    %eax,%edx
    7123:	e9 7d fc ff ff       	jmp    6da5 <filter_bilinear+0x235>
    7128:	c7 45 e4 00 00 00 00 	movl   $0x0,-0x1c(%ebp)
    712f:	83 f8 01             	cmp    $0x1,%eax
    7132:	0f 87 fb fb ff ff    	ja     6d33 <filter_bilinear+0x1c3>
    7138:	83 7d 1c 03          	cmpl   $0x3,0x1c(%ebp)
    713c:	0f 94 c3             	sete   %bl
    713f:	89 df                	mov    %ebx,%edi
    7141:	8b 5d c4             	mov    -0x3c(%ebp),%ebx
    7144:	85 db                	test   %ebx,%ebx
    7146:	0f 88 04 03 00 00    	js     7450 <filter_bilinear+0x8e0>
    714c:	8b 31                	mov    (%ecx),%esi
    714e:	39 de                	cmp    %ebx,%esi
    7150:	0f 86 42 02 00 00    	jbe    7398 <filter_bilinear+0x828>
    7156:	89 de                	mov    %ebx,%esi
    7158:	c6 45 c0 00          	movb   $0x0,-0x40(%ebp)
    715c:	8b 5d cc             	mov    -0x34(%ebp),%ebx
    715f:	85 db                	test   %ebx,%ebx
    7161:	0f 88 19 03 00 00    	js     7480 <filter_bilinear+0x910>
    7167:	8b 59 04             	mov    0x4(%ecx),%ebx
    716a:	8b 55 cc             	mov    -0x34(%ebp),%edx
    716d:	39 da                	cmp    %ebx,%edx
    716f:	0f 83 3a 02 00 00    	jae    73af <filter_bilinear+0x83f>
    7175:	0f b6 7d c0          	movzbl -0x40(%ebp),%edi
    7179:	e9 c5 fb ff ff       	jmp    6d43 <filter_bilinear+0x1d3>
    717e:	66 90                	xchg   %ax,%ax
    7180:	8b 45 cc             	mov    -0x34(%ebp),%eax
    7183:	89 45 c0             	mov    %eax,-0x40(%ebp)
    7186:	b0 01                	mov    $0x1,%al
    7188:	e9 b3 fa ff ff       	jmp    6c40 <filter_bilinear+0xd0>
    718d:	c7 45 e4 00 00 00 00 	movl   $0x0,-0x1c(%ebp)
    7194:	8d 74 26 00          	lea    0x0(%esi,%eiz,1),%esi
    7198:	31 d2                	xor    %edx,%edx
    719a:	8b 45 c4             	mov    -0x3c(%ebp),%eax
    719d:	f7 f3                	div    %ebx
    719f:	89 d6                	mov    %edx,%esi
    71a1:	8b 45 cc             	mov    -0x34(%ebp),%eax
    71a4:	31 d2                	xor    %edx,%edx
    71a6:	f7 71 04             	divl   0x4(%ecx)
    71a9:	85 f6                	test   %esi,%esi
    71ab:	78 41                	js     71ee <filter_bilinear+0x67e>
    71ad:	31 ff                	xor    %edi,%edi
    71af:	e9 91 fb ff ff       	jmp    6d45 <filter_bilinear+0x1d5>
    71b4:	8d 74 26 00          	lea    0x0(%esi,%eiz,1),%esi
    71b8:	31 d2                	xor    %edx,%edx
    71ba:	8b 19                	mov    (%ecx),%ebx
    71bc:	8b 45 c4             	mov    -0x3c(%ebp),%eax
    71bf:	f7 f3                	div    %ebx
    71c1:	89 d7                	mov    %edx,%edi
    71c3:	8b 45 c0             	mov    -0x40(%ebp),%eax
    71c6:	31 d2                	xor    %edx,%edx
    71c8:	f7 71 04             	divl   0x4(%ecx)
    71cb:	89 d6                	mov    %edx,%esi
    71cd:	85 ff                	test   %edi,%edi
    71cf:	0f 89 6b 01 00 00    	jns    7340 <filter_bilinear+0x7d0>
    71d5:	c7 45 e0 00 00 00 00 	movl   $0x0,-0x20(%ebp)
    71dc:	31 d2                	xor    %edx,%edx
    71de:	8b 45 c8             	mov    -0x38(%ebp),%eax
    71e1:	f7 f3                	div    %ebx
    71e3:	85 d2                	test   %edx,%edx
    71e5:	78 a6                	js     718d <filter_bilinear+0x61d>
    71e7:	31 ff                	xor    %edi,%edi
    71e9:	e9 f8 fa ff ff       	jmp    6ce6 <filter_bilinear+0x176>
    71ee:	c7 45 e8 00 00 00 00 	movl   $0x0,-0x18(%ebp)
    71f5:	8d 76 00             	lea    0x0(%esi),%esi
    71f8:	8b 45 c8             	mov    -0x38(%ebp),%eax
    71fb:	31 d2                	xor    %edx,%edx
    71fd:	f7 f3                	div    %ebx
    71ff:	89 d6                	mov    %edx,%esi
    7201:	8b 45 cc             	mov    -0x34(%ebp),%eax
    7204:	31 d2                	xor    %edx,%edx
    7206:	f7 71 04             	divl   0x4(%ecx)
    7209:	e9 8f fb ff ff       	jmp    6d9d <filter_bilinear+0x22d>
    720e:	66 90                	xchg   %ax,%ax
    7210:	83 c4 34             	add    $0x34,%esp
    7213:	31 c0                	xor    %eax,%eax
    7215:	5b                   	pop    %ebx
    7216:	5e                   	pop    %esi
    7217:	5f                   	pop    %edi
    7218:	5d                   	pop    %ebp
    7219:	c3                   	ret    
    721a:	8d b6 00 00 00 00    	lea    0x0(%esi),%esi
    7220:	8b 5d c4             	mov    -0x3c(%ebp),%ebx
    7223:	83 7d 1c 03          	cmpl   $0x3,0x1c(%ebp)
    7227:	0f 94 45 d4          	sete   -0x2c(%ebp)
    722b:	85 db                	test   %ebx,%ebx
    722d:	0f 88 fd 01 00 00    	js     7430 <filter_bilinear+0x8c0>
    7233:	8b 39                	mov    (%ecx),%edi
    7235:	39 df                	cmp    %ebx,%edi
    7237:	0f 86 7b 01 00 00    	jbe    73b8 <filter_bilinear+0x848>
    723d:	89 df                	mov    %ebx,%edi
    723f:	31 d2                	xor    %edx,%edx
    7241:	8b 5d c0             	mov    -0x40(%ebp),%ebx
    7244:	85 db                	test   %ebx,%ebx
    7246:	0f 88 3c 02 00 00    	js     7488 <filter_bilinear+0x918>
    724c:	8b 59 04             	mov    0x4(%ecx),%ebx
    724f:	8b 75 c0             	mov    -0x40(%ebp),%esi
    7252:	39 de                	cmp    %ebx,%esi
    7254:	0f 83 77 01 00 00    	jae    73d1 <filter_bilinear+0x861>
    725a:	88 55 d4             	mov    %dl,-0x2c(%ebp)
    725d:	e9 1e fa ff ff       	jmp    6c80 <filter_bilinear+0x110>
    7262:	8d b6 00 00 00 00    	lea    0x0(%esi),%esi
    7268:	83 7d 1c 03          	cmpl   $0x3,0x1c(%ebp)
    726c:	0f 94 c3             	sete   %bl
    726f:	89 df                	mov    %ebx,%edi
    7271:	8b 5d c8             	mov    -0x38(%ebp),%ebx
    7274:	85 db                	test   %ebx,%ebx
    7276:	0f 88 c4 01 00 00    	js     7440 <filter_bilinear+0x8d0>
    727c:	8b 11                	mov    (%ecx),%edx
    727e:	39 da                	cmp    %ebx,%edx
    7280:	0f 86 f2 00 00 00    	jbe    7378 <filter_bilinear+0x808>
    7286:	89 da                	mov    %ebx,%edx
    7288:	c6 45 d4 00          	movb   $0x0,-0x2c(%ebp)
    728c:	8b 75 c0             	mov    -0x40(%ebp),%esi
    728f:	85 f6                	test   %esi,%esi
    7291:	0f 88 e1 01 00 00    	js     7478 <filter_bilinear+0x908>
    7297:	8b 59 04             	mov    0x4(%ecx),%ebx
    729a:	8b 75 c0             	mov    -0x40(%ebp),%esi
    729d:	39 de                	cmp    %ebx,%esi
    729f:	0f 83 ea 00 00 00    	jae    738f <filter_bilinear+0x81f>
    72a5:	0f b6 7d d4          	movzbl -0x2c(%ebp),%edi
    72a9:	e9 36 fa ff ff       	jmp    6ce4 <filter_bilinear+0x174>
    72ae:	66 90                	xchg   %ax,%ax
    72b0:	8b 45 c4             	mov    -0x3c(%ebp),%eax
    72b3:	31 d2                	xor    %edx,%edx
    72b5:	f7 31                	divl   (%ecx)
    72b7:	89 d6                	mov    %edx,%esi
    72b9:	8b 45 c0             	mov    -0x40(%ebp),%eax
    72bc:	31 d2                	xor    %edx,%edx
    72be:	31 db                	xor    %ebx,%ebx
    72c0:	f7 71 04             	divl   0x4(%ecx)
    72c3:	e9 85 fb ff ff       	jmp    6e4d <filter_bilinear+0x2dd>
    72c8:	31 c0                	xor    %eax,%eax
    72ca:	e9 ac fa ff ff       	jmp    6d7b <filter_bilinear+0x20b>
    72cf:	90                   	nop
    72d0:	c7 45 e0 00 00 00 00 	movl   $0x0,-0x20(%ebp)
    72d7:	e9 ef f9 ff ff       	jmp    6ccb <filter_bilinear+0x15b>
    72dc:	8d 74 26 00          	lea    0x0(%esi,%eiz,1),%esi
    72e0:	8b 45 c4             	mov    -0x3c(%ebp),%eax
    72e3:	83 7d 1c 03          	cmpl   $0x3,0x1c(%ebp)
    72e7:	0f 94 c3             	sete   %bl
    72ea:	85 c0                	test   %eax,%eax
    72ec:	0f 88 76 01 00 00    	js     7468 <filter_bilinear+0x8f8>
    72f2:	8b 39                	mov    (%ecx),%edi
    72f4:	89 c6                	mov    %eax,%esi
    72f6:	39 c7                	cmp    %eax,%edi
    72f8:	0f 86 e2 00 00 00    	jbe    73e0 <filter_bilinear+0x870>
    72fe:	8b 55 c0             	mov    -0x40(%ebp),%edx
    7301:	85 d2                	test   %edx,%edx
    7303:	0f 88 cc 01 00 00    	js     74d5 <filter_bilinear+0x965>
    7309:	89 c6                	mov    %eax,%esi
    730b:	31 d2                	xor    %edx,%edx
    730d:	8b 41 04             	mov    0x4(%ecx),%eax
    7310:	8b 7d c0             	mov    -0x40(%ebp),%edi
    7313:	39 c7                	cmp    %eax,%edi
    7315:	0f 83 de 00 00 00    	jae    73f9 <filter_bilinear+0x889>
    731b:	88 d3                	mov    %dl,%bl
    731d:	89 fa                	mov    %edi,%edx
    731f:	e9 31 fb ff ff       	jmp    6e55 <filter_bilinear+0x2e5>
    7324:	c7 45 e0 00 00 00 00 	movl   $0x0,-0x20(%ebp)
    732b:	90                   	nop
    732c:	8d 74 26 00          	lea    0x0(%esi,%eiz,1),%esi
    7330:	8b 45 c0             	mov    -0x40(%ebp),%eax
    7333:	31 d2                	xor    %edx,%edx
    7335:	f7 71 04             	divl   0x4(%ecx)
    7338:	89 d6                	mov    %edx,%esi
    733a:	e9 9d fe ff ff       	jmp    71dc <filter_bilinear+0x66c>
    733f:	90                   	nop
    7340:	85 d2                	test   %edx,%edx
    7342:	78 e0                	js     7324 <filter_bilinear+0x7b4>
    7344:	c6 45 d4 00          	movb   $0x0,-0x2c(%ebp)
    7348:	e9 48 f9 ff ff       	jmp    6c95 <filter_bilinear+0x125>
    734d:	8d 76 00             	lea    0x0(%esi),%esi
    7350:	8b 45 cc             	mov    -0x34(%ebp),%eax
    7353:	8d 77 ff             	lea    -0x1(%edi),%esi
    7356:	85 c0                	test   %eax,%eax
    7358:	0f 88 52 01 00 00    	js     74b0 <filter_bilinear+0x940>
    735e:	8b 51 04             	mov    0x4(%ecx),%edx
    7361:	39 c2                	cmp    %eax,%edx
    7363:	0f 86 9f 00 00 00    	jbe    7408 <filter_bilinear+0x898>
    7369:	89 c2                	mov    %eax,%edx
    736b:	88 5d d5             	mov    %bl,-0x2b(%ebp)
    736e:	e9 2a fa ff ff       	jmp    6d9d <filter_bilinear+0x22d>
    7373:	90                   	nop
    7374:	8d 74 26 00          	lea    0x0(%esi,%eiz,1),%esi
    7378:	8b 75 c0             	mov    -0x40(%ebp),%esi
    737b:	4a                   	dec    %edx
    737c:	85 f6                	test   %esi,%esi
    737e:	0f 88 3c 01 00 00    	js     74c0 <filter_bilinear+0x950>
    7384:	8b 59 04             	mov    0x4(%ecx),%ebx
    7387:	39 f3                	cmp    %esi,%ebx
    7389:	0f 87 4d f9 ff ff    	ja     6cdc <filter_bilinear+0x16c>
    738f:	8d 73 ff             	lea    -0x1(%ebx),%esi
    7392:	e9 45 f9 ff ff       	jmp    6cdc <filter_bilinear+0x16c>
    7397:	90                   	nop
    7398:	8b 55 cc             	mov    -0x34(%ebp),%edx
    739b:	4e                   	dec    %esi
    739c:	85 d2                	test   %edx,%edx
    739e:	0f 88 f4 00 00 00    	js     7498 <filter_bilinear+0x928>
    73a4:	8b 59 04             	mov    0x4(%ecx),%ebx
    73a7:	39 d3                	cmp    %edx,%ebx
    73a9:	0f 87 8c f9 ff ff    	ja     6d3b <filter_bilinear+0x1cb>
    73af:	8d 53 ff             	lea    -0x1(%ebx),%edx
    73b2:	e9 84 f9 ff ff       	jmp    6d3b <filter_bilinear+0x1cb>
    73b7:	90                   	nop
    73b8:	8b 55 c0             	mov    -0x40(%ebp),%edx
    73bb:	4f                   	dec    %edi
    73bc:	85 d2                	test   %edx,%edx
    73be:	0f 88 cc 00 00 00    	js     7490 <filter_bilinear+0x920>
    73c4:	8b 59 04             	mov    0x4(%ecx),%ebx
    73c7:	89 d6                	mov    %edx,%esi
    73c9:	39 d3                	cmp    %edx,%ebx
    73cb:	0f 87 a7 f8 ff ff    	ja     6c78 <filter_bilinear+0x108>
    73d1:	8d 73 ff             	lea    -0x1(%ebx),%esi
    73d4:	e9 9f f8 ff ff       	jmp    6c78 <filter_bilinear+0x108>
    73d9:	8d b4 26 00 00 00 00 	lea    0x0(%esi,%eiz,1),%esi
    73e0:	8b 55 c0             	mov    -0x40(%ebp),%edx
    73e3:	8d 77 ff             	lea    -0x1(%edi),%esi
    73e6:	85 d2                	test   %edx,%edx
    73e8:	0f 88 ee 00 00 00    	js     74dc <filter_bilinear+0x96c>
    73ee:	8b 41 04             	mov    0x4(%ecx),%eax
    73f1:	39 d0                	cmp    %edx,%eax
    73f3:	0f 87 54 fa ff ff    	ja     6e4d <filter_bilinear+0x2dd>
    73f9:	8d 50 ff             	lea    -0x1(%eax),%edx
    73fc:	e9 4c fa ff ff       	jmp    6e4d <filter_bilinear+0x2dd>
    7401:	8d b4 26 00 00 00 00 	lea    0x0(%esi,%eiz,1),%esi
    7408:	4a                   	dec    %edx
    7409:	88 5d d5             	mov    %bl,-0x2b(%ebp)
    740c:	e9 8c f9 ff ff       	jmp    6d9d <filter_bilinear+0x22d>
    7411:	8d b4 26 00 00 00 00 	lea    0x0(%esi,%eiz,1),%esi
    7418:	8b 75 cc             	mov    -0x34(%ebp),%esi
    741b:	85 f6                	test   %esi,%esi
    741d:	0f 88 a4 00 00 00    	js     74c7 <filter_bilinear+0x957>
    7423:	88 5d d5             	mov    %bl,-0x2b(%ebp)
    7426:	31 f6                	xor    %esi,%esi
    7428:	e9 e6 fc ff ff       	jmp    7113 <filter_bilinear+0x5a3>
    742d:	8d 76 00             	lea    0x0(%esi),%esi
    7430:	8a 55 d4             	mov    -0x2c(%ebp),%dl
    7433:	31 ff                	xor    %edi,%edi
    7435:	e9 07 fe ff ff       	jmp    7241 <filter_bilinear+0x6d1>
    743a:	8d b6 00 00 00 00    	lea    0x0(%esi),%esi
    7440:	89 fb                	mov    %edi,%ebx
    7442:	31 d2                	xor    %edx,%edx
    7444:	88 5d d4             	mov    %bl,-0x2c(%ebp)
    7447:	e9 40 fe ff ff       	jmp    728c <filter_bilinear+0x71c>
    744c:	8d 74 26 00          	lea    0x0(%esi,%eiz,1),%esi
    7450:	89 fb                	mov    %edi,%ebx
    7452:	31 f6                	xor    %esi,%esi
    7454:	88 5d c0             	mov    %bl,-0x40(%ebp)
    7457:	e9 00 fd ff ff       	jmp    715c <filter_bilinear+0x5ec>
    745c:	8d 74 26 00          	lea    0x0(%esi,%eiz,1),%esi
    7460:	31 d2                	xor    %edx,%edx
    7462:	e9 73 f9 ff ff       	jmp    6dda <filter_bilinear+0x26a>
    7467:	90                   	nop
    7468:	8b 7d c0             	mov    -0x40(%ebp),%edi
    746b:	85 ff                	test   %edi,%edi
    746d:	78 74                	js     74e3 <filter_bilinear+0x973>
    746f:	88 da                	mov    %bl,%dl
    7471:	31 f6                	xor    %esi,%esi
    7473:	e9 95 fe ff ff       	jmp    730d <filter_bilinear+0x79d>
    7478:	31 f6                	xor    %esi,%esi
    747a:	e9 65 f8 ff ff       	jmp    6ce4 <filter_bilinear+0x174>
    747f:	90                   	nop
    7480:	31 d2                	xor    %edx,%edx
    7482:	e9 bc f8 ff ff       	jmp    6d43 <filter_bilinear+0x1d3>
    7487:	90                   	nop
    7488:	31 f6                	xor    %esi,%esi
    748a:	e9 f1 f7 ff ff       	jmp    6c80 <filter_bilinear+0x110>
    748f:	90                   	nop
    7490:	31 f6                	xor    %esi,%esi
    7492:	e9 e1 f7 ff ff       	jmp    6c78 <filter_bilinear+0x108>
    7497:	90                   	nop
    7498:	31 d2                	xor    %edx,%edx
    749a:	e9 9c f8 ff ff       	jmp    6d3b <filter_bilinear+0x1cb>
    749f:	90                   	nop
    74a0:	88 5d d5             	mov    %bl,-0x2b(%ebp)
    74a3:	31 d2                	xor    %edx,%edx
    74a5:	e9 12 f9 ff ff       	jmp    6dbc <filter_bilinear+0x24c>
    74aa:	8d b6 00 00 00 00    	lea    0x0(%esi),%esi
    74b0:	88 5d d5             	mov    %bl,-0x2b(%ebp)
    74b3:	31 d2                	xor    %edx,%edx
    74b5:	e9 e3 f8 ff ff       	jmp    6d9d <filter_bilinear+0x22d>
    74ba:	8d b6 00 00 00 00    	lea    0x0(%esi),%esi
    74c0:	31 f6                	xor    %esi,%esi
    74c2:	e9 15 f8 ff ff       	jmp    6cdc <filter_bilinear+0x16c>
    74c7:	31 c0                	xor    %eax,%eax
    74c9:	88 5d d5             	mov    %bl,-0x2b(%ebp)
    74cc:	31 f6                	xor    %esi,%esi
    74ce:	31 d2                	xor    %edx,%edx
    74d0:	e9 d5 f8 ff ff       	jmp    6daa <filter_bilinear+0x23a>
    74d5:	31 d2                	xor    %edx,%edx
    74d7:	e9 90 f9 ff ff       	jmp    6e6c <filter_bilinear+0x2fc>
    74dc:	31 d2                	xor    %edx,%edx
    74de:	e9 6a f9 ff ff       	jmp    6e4d <filter_bilinear+0x2dd>
    74e3:	31 f6                	xor    %esi,%esi
    74e5:	31 c0                	xor    %eax,%eax
    74e7:	31 d2                	xor    %edx,%edx
    74e9:	e9 6c f9 ff ff       	jmp    6e5a <filter_bilinear+0x2ea>
    74ee:	66 90                	xchg   %ax,%ax

000074f0 <filter_bicubic>:
    74f0:	55                   	push   %ebp
    74f1:	31 c0                	xor    %eax,%eax
    74f3:	89 e5                	mov    %esp,%ebp
    74f5:	5d                   	pop    %ebp
    74f6:	c3                   	ret    
    74f7:	66 90                	xchg   %ax,%ax
    74f9:	66 90                	xchg   %ax,%ax
    74fb:	66 90                	xchg   %ax,%ax
    74fd:	66 90                	xchg   %ax,%ax
    74ff:	90                   	nop

00007500 <transform_product>:
    7500:	55                   	push   %ebp
    7501:	89 e5                	mov    %esp,%ebp
    7503:	8b 45 10             	mov    0x10(%ebp),%eax
    7506:	8b 55 0c             	mov    0xc(%ebp),%edx
    7509:	8b 4d 08             	mov    0x8(%ebp),%ecx
    750c:	dd 00                	fldl   (%eax)
    750e:	dc 0a                	fmull  (%edx)
    7510:	d9 ee                	fldz   
    7512:	dc c1                	fadd   %st,%st(1)
    7514:	dd 42 08             	fldl   0x8(%edx)
    7517:	dd 40 18             	fldl   0x18(%eax)
    751a:	d9 c0                	fld    %st(0)
    751c:	d8 ca                	fmul   %st(2),%st
    751e:	de c4                	faddp  %st,%st(4)
    7520:	dd 42 10             	fldl   0x10(%edx)
    7523:	dd 40 30             	fldl   0x30(%eax)
    7526:	d9 c0                	fld    %st(0)
    7528:	d8 ca                	fmul   %st(2),%st
    752a:	de c6                	faddp  %st,%st(6)
    752c:	d9 cd                	fxch   %st(5)
    752e:	dd 19                	fstpl  (%ecx)
    7530:	dd 02                	fldl   (%edx)
    7532:	dd 40 08             	fldl   0x8(%eax)
    7535:	d8 c9                	fmul   %st(1),%st
    7537:	d8 c5                	fadd   %st(5),%st
    7539:	d9 cc                	fxch   %st(4)
    753b:	dc 48 20             	fmull  0x20(%eax)
    753e:	de c4                	faddp  %st,%st(4)
    7540:	dd 40 38             	fldl   0x38(%eax)
    7543:	d8 ca                	fmul   %st(2),%st
    7545:	de c4                	faddp  %st,%st(4)
    7547:	d9 cb                	fxch   %st(3)
    7549:	dd 59 08             	fstpl  0x8(%ecx)
    754c:	d9 ca                	fxch   %st(2)
    754e:	dc 48 10             	fmull  0x10(%eax)
    7551:	d8 c3                	fadd   %st(3),%st
    7553:	dd 42 08             	fldl   0x8(%edx)
    7556:	dc 48 28             	fmull  0x28(%eax)
    7559:	de c1                	faddp  %st,%st(1)
    755b:	d9 ca                	fxch   %st(2)
    755d:	dc 48 40             	fmull  0x40(%eax)
    7560:	de c2                	faddp  %st,%st(2)
    7562:	d9 c9                	fxch   %st(1)
    7564:	dd 59 10             	fstpl  0x10(%ecx)
    7567:	dd 42 18             	fldl   0x18(%edx)
    756a:	dc 08                	fmull  (%eax)
    756c:	d8 c2                	fadd   %st(2),%st
    756e:	d9 c9                	fxch   %st(1)
    7570:	dc 4a 20             	fmull  0x20(%edx)
    7573:	de c1                	faddp  %st,%st(1)
    7575:	d9 ca                	fxch   %st(2)
    7577:	dc 4a 28             	fmull  0x28(%edx)
    757a:	de c2                	faddp  %st,%st(2)
    757c:	d9 c9                	fxch   %st(1)
    757e:	dd 59 18             	fstpl  0x18(%ecx)
    7581:	dd 42 18             	fldl   0x18(%edx)
    7584:	dc 48 08             	fmull  0x8(%eax)
    7587:	d8 c1                	fadd   %st(1),%st
    7589:	dd 42 20             	fldl   0x20(%edx)
    758c:	dc 48 20             	fmull  0x20(%eax)
    758f:	de c1                	faddp  %st,%st(1)
    7591:	dd 42 28             	fldl   0x28(%edx)
    7594:	dd 40 38             	fldl   0x38(%eax)
    7597:	d8 c9                	fmul   %st(1),%st
    7599:	de c2                	faddp  %st,%st(2)
    759b:	d9 c9                	fxch   %st(1)
    759d:	dd 59 20             	fstpl  0x20(%ecx)
    75a0:	dd 42 18             	fldl   0x18(%edx)
    75a3:	dc 48 10             	fmull  0x10(%eax)
    75a6:	d8 c2                	fadd   %st(2),%st
    75a8:	dd 42 20             	fldl   0x20(%edx)
    75ab:	dc 48 28             	fmull  0x28(%eax)
    75ae:	de c1                	faddp  %st,%st(1)
    75b0:	d9 c9                	fxch   %st(1)
    75b2:	dc 48 40             	fmull  0x40(%eax)
    75b5:	de c1                	faddp  %st,%st(1)
    75b7:	dd 59 28             	fstpl  0x28(%ecx)
    75ba:	dd 42 30             	fldl   0x30(%edx)
    75bd:	dc 08                	fmull  (%eax)
    75bf:	d8 c1                	fadd   %st(1),%st
    75c1:	dd 42 38             	fldl   0x38(%edx)
    75c4:	dc 48 18             	fmull  0x18(%eax)
    75c7:	de c1                	faddp  %st,%st(1)
    75c9:	dd 42 40             	fldl   0x40(%edx)
    75cc:	dc 48 30             	fmull  0x30(%eax)
    75cf:	de c1                	faddp  %st,%st(1)
    75d1:	dd 59 30             	fstpl  0x30(%ecx)
    75d4:	dd 42 30             	fldl   0x30(%edx)
    75d7:	dc 48 08             	fmull  0x8(%eax)
    75da:	d8 c1                	fadd   %st(1),%st
    75dc:	dd 42 38             	fldl   0x38(%edx)
    75df:	dc 48 20             	fmull  0x20(%eax)
    75e2:	de c1                	faddp  %st,%st(1)
    75e4:	dd 42 40             	fldl   0x40(%edx)
    75e7:	dd 40 38             	fldl   0x38(%eax)
    75ea:	d8 c9                	fmul   %st(1),%st
    75ec:	de c2                	faddp  %st,%st(2)
    75ee:	d9 c9                	fxch   %st(1)
    75f0:	dd 59 38             	fstpl  0x38(%ecx)
    75f3:	dd 42 30             	fldl   0x30(%edx)
    75f6:	dc 48 10             	fmull  0x10(%eax)
    75f9:	de c2                	faddp  %st,%st(2)
    75fb:	dd 42 38             	fldl   0x38(%edx)
    75fe:	dc 48 28             	fmull  0x28(%eax)
    7601:	de c2                	faddp  %st,%st(2)
    7603:	dc 48 40             	fmull  0x40(%eax)
    7606:	de c1                	faddp  %st,%st(1)
    7608:	dd 59 40             	fstpl  0x40(%ecx)
    760b:	5d                   	pop    %ebp
    760c:	c3                   	ret    
    760d:	8d 76 00             	lea    0x0(%esi),%esi

00007610 <transform_invert>:
    7610:	55                   	push   %ebp
    7611:	89 e5                	mov    %esp,%ebp
    7613:	83 ec 18             	sub    $0x18,%esp
    7616:	8b 45 08             	mov    0x8(%ebp),%eax
    7619:	dd 40 20             	fldl   0x20(%eax)
    761c:	dd 40 40             	fldl   0x40(%eax)
    761f:	d8 c9                	fmul   %st(1),%st
    7621:	dd 40 28             	fldl   0x28(%eax)
    7624:	dc 48 38             	fmull  0x38(%eax)
    7627:	de e9                	fsubrp %st,%st(1)
    7629:	dd 40 30             	fldl   0x30(%eax)
    762c:	dd 40 18             	fldl   0x18(%eax)
    762f:	dd 40 28             	fldl   0x28(%eax)
    7632:	d8 ca                	fmul   %st(2),%st
    7634:	dd 40 40             	fldl   0x40(%eax)
    7637:	d8 ca                	fmul   %st(2),%st
    7639:	de e9                	fsubrp %st,%st(1)
    763b:	d9 c9                	fxch   %st(1)
    763d:	dd 55 e8             	fstl   -0x18(%ebp)
    7640:	dd 40 38             	fldl   0x38(%eax)
    7643:	de c9                	fmulp  %st,%st(1)
    7645:	d9 cc                	fxch   %st(4)
    7647:	dd 55 f8             	fstl   -0x8(%ebp)
    764a:	d9 ca                	fxch   %st(2)
    764c:	dd 55 f0             	fstl   -0x10(%ebp)
    764f:	de ca                	fmulp  %st,%st(2)
    7651:	d9 cb                	fxch   %st(3)
    7653:	de e1                	fsubp  %st,%st(1)
    7655:	dd 40 10             	fldl   0x10(%eax)
    7658:	dd 40 08             	fldl   0x8(%eax)
    765b:	dd 00                	fldl   (%eax)
    765d:	d9 c4                	fld    %st(4)
    765f:	d8 c9                	fmul   %st(1),%st
    7661:	d9 c6                	fld    %st(6)
    7663:	d8 cb                	fmul   %st(3),%st
    7665:	de c1                	faddp  %st,%st(1)
    7667:	d9 c4                	fld    %st(4)
    7669:	d8 cc                	fmul   %st(4),%st
    766b:	de c1                	faddp  %st,%st(1)
    766d:	d8 3d d8 7c 00 00    	fdivrs 0x7cd8
    7673:	dc cd                	fmul   %st,%st(5)
    7675:	d9 cd                	fxch   %st(5)
    7677:	dd 18                	fstpl  (%eax)
    7679:	d9 cd                	fxch   %st(5)
    767b:	d8 cc                	fmul   %st(4),%st
    767d:	dd 58 18             	fstpl  0x18(%eax)
    7680:	d9 ca                	fxch   %st(2)
    7682:	d8 cb                	fmul   %st(3),%st
    7684:	dd 58 30             	fstpl  0x30(%eax)
    7687:	dd 40 38             	fldl   0x38(%eax)
    768a:	d8 c9                	fmul   %st(1),%st
    768c:	dd 40 40             	fldl   0x40(%eax)
    768f:	d8 cb                	fmul   %st(3),%st
    7691:	de e9                	fsubrp %st,%st(1)
    7693:	d8 cb                	fmul   %st(3),%st
    7695:	dd 58 08             	fstpl  0x8(%eax)
    7698:	dd 40 40             	fldl   0x40(%eax)
    769b:	d8 cc                	fmul   %st(4),%st
    769d:	dd 45 f0             	fldl   -0x10(%ebp)
    76a0:	d9 c0                	fld    %st(0)
    76a2:	d8 cb                	fmul   %st(3),%st
    76a4:	de ea                	fsubrp %st,%st(2)
    76a6:	d9 c9                	fxch   %st(1)
    76a8:	d8 cc                	fmul   %st(4),%st
    76aa:	dd 58 20             	fstpl  0x20(%eax)
    76ad:	d8 ca                	fmul   %st(2),%st
    76af:	dd 40 38             	fldl   0x38(%eax)
    76b2:	d8 cd                	fmul   %st(5),%st
    76b4:	de e9                	fsubrp %st,%st(1)
    76b6:	d8 cb                	fmul   %st(3),%st
    76b8:	dd 58 38             	fstpl  0x38(%eax)
    76bb:	dd 40 28             	fldl   0x28(%eax)
    76be:	d8 ca                	fmul   %st(2),%st
    76c0:	dd 45 f8             	fldl   -0x8(%ebp)
    76c3:	d9 c0                	fld    %st(0)
    76c5:	d8 cb                	fmul   %st(3),%st
    76c7:	de ea                	fsubrp %st,%st(2)
    76c9:	d9 c9                	fxch   %st(1)
    76cb:	d8 cc                	fmul   %st(4),%st
    76cd:	dd 58 10             	fstpl  0x10(%eax)
    76d0:	dd 45 e8             	fldl   -0x18(%ebp)
    76d3:	dc ca                	fmul   %st,%st(2)
    76d5:	dd 40 28             	fldl   0x28(%eax)
    76d8:	d8 ce                	fmul   %st(6),%st
    76da:	de eb                	fsubrp %st,%st(3)
    76dc:	d9 ca                	fxch   %st(2)
    76de:	d8 cc                	fmul   %st(4),%st
    76e0:	dd 58 28             	fstpl  0x28(%eax)
    76e3:	de cc                	fmulp  %st,%st(4)
    76e5:	de c9                	fmulp  %st,%st(1)
    76e7:	de ea                	fsubrp %st,%st(2)
    76e9:	de c9                	fmulp  %st,%st(1)
    76eb:	dd 58 40             	fstpl  0x40(%eax)
    76ee:	c9                   	leave  
    76ef:	c3                   	ret    

000076f0 <transform_identity>:
    76f0:	55                   	push   %ebp
    76f1:	89 e5                	mov    %esp,%ebp
    76f3:	d9 e8                	fld1   
    76f5:	8b 45 08             	mov    0x8(%ebp),%eax
    76f8:	dd 10                	fstl   (%eax)
    76fa:	d9 ee                	fldz   
    76fc:	dd 50 18             	fstl   0x18(%eax)
    76ff:	dd 50 30             	fstl   0x30(%eax)
    7702:	dd 50 08             	fstl   0x8(%eax)
    7705:	d9 c9                	fxch   %st(1)
    7707:	dd 50 20             	fstl   0x20(%eax)
    770a:	d9 c9                	fxch   %st(1)
    770c:	dd 50 38             	fstl   0x38(%eax)
    770f:	dd 50 10             	fstl   0x10(%eax)
    7712:	dd 58 28             	fstpl  0x28(%eax)
    7715:	dd 58 40             	fstpl  0x40(%eax)
    7718:	5d                   	pop    %ebp
    7719:	c3                   	ret    
    771a:	8d b6 00 00 00 00    	lea    0x0(%esi),%esi

00007720 <transform_translate>:
    7720:	55                   	push   %ebp
    7721:	89 e5                	mov    %esp,%ebp
    7723:	83 ec 08             	sub    $0x8,%esp
    7726:	8b 45 08             	mov    0x8(%ebp),%eax
    7729:	dd 00                	fldl   (%eax)
    772b:	dd 40 08             	fldl   0x8(%eax)
    772e:	dd 40 10             	fldl   0x10(%eax)
    7731:	d9 ee                	fldz   
    7733:	d9 c3                	fld    %st(3)
    7735:	d8 c1                	fadd   %st(1),%st
    7737:	dd 40 18             	fldl   0x18(%eax)
    773a:	d8 ca                	fmul   %st(2),%st
    773c:	dd 55 f8             	fstl   -0x8(%ebp)
    773f:	de c1                	faddp  %st,%st(1)
    7741:	dd 45 0c             	fldl   0xc(%ebp)
    7744:	dc 48 30             	fmull  0x30(%eax)
    7747:	de c1                	faddp  %st,%st(1)
    7749:	dd 18                	fstpl  (%eax)
    774b:	d9 c2                	fld    %st(2)
    774d:	d8 c1                	fadd   %st(1),%st
    774f:	dd 40 20             	fldl   0x20(%eax)
    7752:	d8 ca                	fmul   %st(2),%st
    7754:	d9 c0                	fld    %st(0)
    7756:	d9 ca                	fxch   %st(2)
    7758:	de c1                	faddp  %st,%st(1)
    775a:	dd 45 0c             	fldl   0xc(%ebp)
    775d:	dc 48 38             	fmull  0x38(%eax)
    7760:	de c1                	faddp  %st,%st(1)
    7762:	dd 58 08             	fstpl  0x8(%eax)
    7765:	d9 c2                	fld    %st(2)
    7767:	d8 c2                	fadd   %st(2),%st
    7769:	dd 40 28             	fldl   0x28(%eax)
    776c:	d8 cb                	fmul   %st(3),%st
    776e:	dc c1                	fadd   %st,%st(1)
    7770:	dd 45 0c             	fldl   0xc(%ebp)
    7773:	dc 48 40             	fmull  0x40(%eax)
    7776:	de c2                	faddp  %st,%st(2)
    7778:	d9 c9                	fxch   %st(1)
    777a:	dd 58 10             	fstpl  0x10(%eax)
    777d:	d9 cd                	fxch   %st(5)
    777f:	d8 ca                	fmul   %st(2),%st
    7781:	d8 c2                	fadd   %st(2),%st
    7783:	dd 40 18             	fldl   0x18(%eax)
    7786:	d8 c1                	fadd   %st(1),%st
    7788:	dd 45 14             	fldl   0x14(%ebp)
    778b:	dc 48 30             	fmull  0x30(%eax)
    778e:	de c1                	faddp  %st,%st(1)
    7790:	dd 58 18             	fstpl  0x18(%eax)
    7793:	d9 cc                	fxch   %st(4)
    7795:	d8 ca                	fmul   %st(2),%st
    7797:	d8 c2                	fadd   %st(2),%st
    7799:	dd 40 20             	fldl   0x20(%eax)
    779c:	d8 c1                	fadd   %st(1),%st
    779e:	dd 45 14             	fldl   0x14(%ebp)
    77a1:	dc 48 38             	fmull  0x38(%eax)
    77a4:	de c1                	faddp  %st,%st(1)
    77a6:	dd 58 20             	fstpl  0x20(%eax)
    77a9:	d9 cb                	fxch   %st(3)
    77ab:	d8 ca                	fmul   %st(2),%st
    77ad:	de c2                	faddp  %st,%st(2)
    77af:	dd 40 28             	fldl   0x28(%eax)
    77b2:	d8 c2                	fadd   %st(2),%st
    77b4:	dd 45 14             	fldl   0x14(%ebp)
    77b7:	dc 48 40             	fmull  0x40(%eax)
    77ba:	de c1                	faddp  %st,%st(1)
    77bc:	dd 58 28             	fstpl  0x28(%eax)
    77bf:	d9 cb                	fxch   %st(3)
    77c1:	dc 45 f8             	faddl  -0x8(%ebp)
    77c4:	dc 40 30             	faddl  0x30(%eax)
    77c7:	dd 58 30             	fstpl  0x30(%eax)
    77ca:	d9 c9                	fxch   %st(1)
    77cc:	de c2                	faddp  %st,%st(2)
    77ce:	d9 c9                	fxch   %st(1)
    77d0:	dc 40 38             	faddl  0x38(%eax)
    77d3:	dd 58 38             	fstpl  0x38(%eax)
    77d6:	de c1                	faddp  %st,%st(1)
    77d8:	dc 40 40             	faddl  0x40(%eax)
    77db:	dd 58 40             	fstpl  0x40(%eax)
    77de:	c9                   	leave  
    77df:	c3                   	ret    

000077e0 <transform_scale>:
    77e0:	55                   	push   %ebp
    77e1:	89 e5                	mov    %esp,%ebp
    77e3:	83 ec 18             	sub    $0x18,%esp
    77e6:	8b 45 08             	mov    0x8(%ebp),%eax
    77e9:	dd 45 0c             	fldl   0xc(%ebp)
    77ec:	dd 00                	fldl   (%eax)
    77ee:	dd 40 08             	fldl   0x8(%eax)
    77f1:	dd 40 10             	fldl   0x10(%eax)
    77f4:	d9 c3                	fld    %st(3)
    77f6:	d8 cb                	fmul   %st(3),%st
    77f8:	d9 ee                	fldz   
    77fa:	dc c1                	fadd   %st,%st(1)
    77fc:	dd 40 18             	fldl   0x18(%eax)
    77ff:	d8 c9                	fmul   %st(1),%st
    7801:	dd 55 e8             	fstl   -0x18(%ebp)
    7804:	de c2                	faddp  %st,%st(2)
    7806:	dd 40 30             	fldl   0x30(%eax)
    7809:	d8 c9                	fmul   %st(1),%st
    780b:	dc c2                	fadd   %st,%st(2)
    780d:	d9 ca                	fxch   %st(2)
    780f:	dd 18                	fstpl  (%eax)
    7811:	d9 c5                	fld    %st(5)
    7813:	d8 cc                	fmul   %st(4),%st
    7815:	d8 c1                	fadd   %st(1),%st
    7817:	dd 40 20             	fldl   0x20(%eax)
    781a:	d8 ca                	fmul   %st(2),%st
    781c:	dd 55 f0             	fstl   -0x10(%ebp)
    781f:	de c1                	faddp  %st,%st(1)
    7821:	dd 40 38             	fldl   0x38(%eax)
    7824:	d8 ca                	fmul   %st(2),%st
    7826:	dd 55 f8             	fstl   -0x8(%ebp)
    7829:	de c1                	faddp  %st,%st(1)
    782b:	dd 58 08             	fstpl  0x8(%eax)
    782e:	d9 cd                	fxch   %st(5)
    7830:	d8 ca                	fmul   %st(2),%st
    7832:	d8 c5                	fadd   %st(5),%st
    7834:	dd 40 28             	fldl   0x28(%eax)
    7837:	d8 ce                	fmul   %st(6),%st
    7839:	dc c1                	fadd   %st,%st(1)
    783b:	dd 40 40             	fldl   0x40(%eax)
    783e:	d8 cf                	fmul   %st(7),%st
    7840:	dc c2                	fadd   %st,%st(2)
    7842:	d9 ca                	fxch   %st(2)
    7844:	dd 58 10             	fstpl  0x10(%eax)
    7847:	d9 cd                	fxch   %st(5)
    7849:	d8 ce                	fmul   %st(6),%st
    784b:	d8 c6                	fadd   %st(6),%st
    784d:	dd 45 14             	fldl   0x14(%ebp)
    7850:	dc 48 18             	fmull  0x18(%eax)
    7853:	d8 c1                	fadd   %st(1),%st
    7855:	de c3                	faddp  %st,%st(3)
    7857:	d9 ca                	fxch   %st(2)
    7859:	dd 58 18             	fstpl  0x18(%eax)
    785c:	d9 cb                	fxch   %st(3)
    785e:	d8 cd                	fmul   %st(5),%st
    7860:	d8 c5                	fadd   %st(5),%st
    7862:	dd 45 14             	fldl   0x14(%ebp)
    7865:	dc 48 20             	fmull  0x20(%eax)
    7868:	d8 c1                	fadd   %st(1),%st
    786a:	dc 45 f8             	faddl  -0x8(%ebp)
    786d:	dd 58 20             	fstpl  0x20(%eax)
    7870:	d9 ca                	fxch   %st(2)
    7872:	d8 cd                	fmul   %st(5),%st
    7874:	de c5                	faddp  %st,%st(5)
    7876:	dd 45 14             	fldl   0x14(%ebp)
    7879:	dc 48 28             	fmull  0x28(%eax)
    787c:	d8 c5                	fadd   %st(5),%st
    787e:	de c3                	faddp  %st,%st(3)
    7880:	d9 ca                	fxch   %st(2)
    7882:	dd 58 28             	fstpl  0x28(%eax)
    7885:	d9 c9                	fxch   %st(1)
    7887:	dc 45 e8             	faddl  -0x18(%ebp)
    788a:	dc 40 30             	faddl  0x30(%eax)
    788d:	dd 58 30             	fstpl  0x30(%eax)
    7890:	dc 45 f0             	faddl  -0x10(%ebp)
    7893:	dc 40 38             	faddl  0x38(%eax)
    7896:	dd 58 38             	fstpl  0x38(%eax)
    7899:	de c1                	faddp  %st,%st(1)
    789b:	dc 40 40             	faddl  0x40(%eax)
    789e:	dd 58 40             	fstpl  0x40(%eax)
    78a1:	c9                   	leave  
    78a2:	c3                   	ret    
    78a3:	8d b6 00 00 00 00    	lea    0x0(%esi),%esi
    78a9:	8d bc 27 00 00 00 00 	lea    0x0(%edi,%eiz,1),%edi

000078b0 <transform_rotate>:
    78b0:	55                   	push   %ebp
    78b1:	89 e5                	mov    %esp,%ebp
    78b3:	53                   	push   %ebx
    78b4:	83 ec 54             	sub    $0x54,%esp
    78b7:	dd 45 0c             	fldl   0xc(%ebp)
    78ba:	8b 5d 08             	mov    0x8(%ebp),%ebx
    78bd:	dd 55 f0             	fstl   -0x10(%ebp)
    78c0:	dd 1c 24             	fstpl  (%esp)
    78c3:	e8 c8 05 00 00       	call   7e90 <cos_f64@plt>
    78c8:	58                   	pop    %eax
    78c9:	8b 4d f4             	mov    -0xc(%ebp),%ecx
    78cc:	8b 45 f0             	mov    -0x10(%ebp),%eax
    78cf:	dd 5d e0             	fstpl  -0x20(%ebp)
    78d2:	5a                   	pop    %edx
    78d3:	51                   	push   %ecx
    78d4:	50                   	push   %eax
    78d5:	e8 96 07 00 00       	call   8070 <sin_f64@plt>
    78da:	58                   	pop    %eax
    78db:	8b 4d f4             	mov    -0xc(%ebp),%ecx
    78de:	dd 5d e8             	fstpl  -0x18(%ebp)
    78e1:	8b 45 f0             	mov    -0x10(%ebp),%eax
    78e4:	5a                   	pop    %edx
    78e5:	51                   	push   %ecx
    78e6:	50                   	push   %eax
    78e7:	e8 84 07 00 00       	call   8070 <sin_f64@plt>
    78ec:	58                   	pop    %eax
    78ed:	d9 e0                	fchs   
    78ef:	8b 4d f4             	mov    -0xc(%ebp),%ecx
    78f2:	8b 45 f0             	mov    -0x10(%ebp),%eax
    78f5:	dd 5d c8             	fstpl  -0x38(%ebp)
    78f8:	5a                   	pop    %edx
    78f9:	51                   	push   %ecx
    78fa:	50                   	push   %eax
    78fb:	e8 90 05 00 00       	call   7e90 <cos_f64@plt>
    7900:	dd 03                	fldl   (%ebx)
    7902:	dd 43 08             	fldl   0x8(%ebx)
    7905:	83 c4 10             	add    $0x10,%esp
    7908:	dd 5d f0             	fstpl  -0x10(%ebp)
    790b:	dd 43 10             	fldl   0x10(%ebx)
    790e:	dd 43 18             	fldl   0x18(%ebx)
    7911:	dd 43 20             	fldl   0x20(%ebx)
    7914:	dd 43 28             	fldl   0x28(%ebx)
    7917:	dd 5d d0             	fstpl  -0x30(%ebp)
    791a:	dd 45 e0             	fldl   -0x20(%ebp)
    791d:	d8 cc                	fmul   %st(4),%st
    791f:	d9 ee                	fldz   
    7921:	dc c1                	fadd   %st,%st(1)
    7923:	d9 cb                	fxch   %st(3)
    7925:	dd 55 d8             	fstl   -0x28(%ebp)
    7928:	dd 45 c8             	fldl   -0x38(%ebp)
    792b:	dc c9                	fmul   %st,%st(1)
    792d:	d9 ca                	fxch   %st(2)
    792f:	de c1                	faddp  %st,%st(1)
    7931:	dd 43 30             	fldl   0x30(%ebx)
    7934:	d8 cc                	fmul   %st(4),%st
    7936:	dd 55 c0             	fstl   -0x40(%ebp)
    7939:	de c1                	faddp  %st,%st(1)
    793b:	dd 1b                	fstpl  (%ebx)
    793d:	dd 45 e0             	fldl   -0x20(%ebp)
    7940:	dc 4d f0             	fmull  -0x10(%ebp)
    7943:	d8 c3                	fadd   %st(3),%st
    7945:	d9 c1                	fld    %st(1)
    7947:	d8 cb                	fmul   %st(3),%st
    7949:	de c1                	faddp  %st,%st(1)
    794b:	dd 43 38             	fldl   0x38(%ebx)
    794e:	d8 cc                	fmul   %st(4),%st
    7950:	dd 55 c8             	fstl   -0x38(%ebp)
    7953:	de c1                	faddp  %st,%st(1)
    7955:	dd 5b 08             	fstpl  0x8(%ebx)
    7958:	dd 45 e0             	fldl   -0x20(%ebp)
    795b:	d8 cc                	fmul   %st(4),%st
    795d:	d8 c3                	fadd   %st(3),%st
    795f:	dd 45 d0             	fldl   -0x30(%ebp)
    7962:	de ca                	fmulp  %st,%st(2)
    7964:	de c1                	faddp  %st,%st(1)
    7966:	dd 43 40             	fldl   0x40(%ebx)
    7969:	d8 cb                	fmul   %st(3),%st
    796b:	dc c1                	fadd   %st,%st(1)
    796d:	d9 c9                	fxch   %st(1)
    796f:	dd 5b 10             	fstpl  0x10(%ebx)
    7972:	dd 45 e8             	fldl   -0x18(%ebp)
    7975:	d8 cd                	fmul   %st(5),%st
    7977:	d8 c3                	fadd   %st(3),%st
    7979:	dd 45 d8             	fldl   -0x28(%ebp)
    797c:	d8 cf                	fmul   %st(7),%st
    797e:	de c1                	faddp  %st,%st(1)
    7980:	dc 45 c0             	faddl  -0x40(%ebp)
    7983:	dd 5b 18             	fstpl  0x18(%ebx)
    7986:	dd 45 e8             	fldl   -0x18(%ebp)
    7989:	dc 4d f0             	fmull  -0x10(%ebp)
    798c:	d8 c3                	fadd   %st(3),%st
    798e:	d9 c6                	fld    %st(6)
    7990:	d8 cb                	fmul   %st(3),%st
    7992:	de c1                	faddp  %st,%st(1)
    7994:	dc 45 c8             	faddl  -0x38(%ebp)
    7997:	dd 5b 20             	fstpl  0x20(%ebx)
    799a:	dd 45 e8             	fldl   -0x18(%ebp)
    799d:	d8 cc                	fmul   %st(4),%st
    799f:	d8 c3                	fadd   %st(3),%st
    79a1:	dd 45 d0             	fldl   -0x30(%ebp)
    79a4:	dc cf                	fmul   %st,%st(7)
    79a6:	d9 cf                	fxch   %st(7)
    79a8:	de c1                	faddp  %st,%st(1)
    79aa:	de c1                	faddp  %st,%st(1)
    79ac:	dd 5b 28             	fstpl  0x28(%ebx)
    79af:	d9 cb                	fxch   %st(3)
    79b1:	d8 c9                	fmul   %st(1),%st
    79b3:	d8 c1                	fadd   %st(1),%st
    79b5:	dd 45 d8             	fldl   -0x28(%ebp)
    79b8:	d8 ca                	fmul   %st(2),%st
    79ba:	de c1                	faddp  %st,%st(1)
    79bc:	dc 43 30             	faddl  0x30(%ebx)
    79bf:	dd 5b 30             	fstpl  0x30(%ebx)
    79c2:	dd 45 f0             	fldl   -0x10(%ebp)
    79c5:	d8 c9                	fmul   %st(1),%st
    79c7:	d8 c1                	fadd   %st(1),%st
    79c9:	d9 cb                	fxch   %st(3)
    79cb:	d8 c9                	fmul   %st(1),%st
    79cd:	de c3                	faddp  %st,%st(3)
    79cf:	d9 ca                	fxch   %st(2)
    79d1:	dc 43 38             	faddl  0x38(%ebx)
    79d4:	dd 5b 38             	fstpl  0x38(%ebx)
    79d7:	d8 c9                	fmul   %st(1),%st
    79d9:	d8 c1                	fadd   %st(1),%st
    79db:	d9 c9                	fxch   %st(1)
    79dd:	de ca                	fmulp  %st,%st(2)
    79df:	de c1                	faddp  %st,%st(1)
    79e1:	dc 43 40             	faddl  0x40(%ebx)
    79e4:	dd 5b 40             	fstpl  0x40(%ebx)
    79e7:	8b 5d fc             	mov    -0x4(%ebp),%ebx
    79ea:	c9                   	leave  
    79eb:	c3                   	ret    
    79ec:	8d 74 26 00          	lea    0x0(%esi,%eiz,1),%esi

000079f0 <transform_is_fast>:
    79f0:	55                   	push   %ebp
    79f1:	89 e5                	mov    %esp,%ebp
    79f3:	53                   	push   %ebx
    79f4:	83 ec 14             	sub    $0x14,%esp
    79f7:	8b 5d 08             	mov    0x8(%ebp),%ebx
    79fa:	d9 e8                	fld1   
    79fc:	dd 03                	fldl   (%ebx)
    79fe:	dd e9                	fucomp %st(1)
    7a00:	df e0                	fnstsw %ax
    7a02:	80 e4 45             	and    $0x45,%ah
    7a05:	80 fc 40             	cmp    $0x40,%ah
    7a08:	75 36                	jne    7a40 <transform_is_fast+0x50>
    7a0a:	d9 ee                	fldz   
    7a0c:	dd 43 08             	fldl   0x8(%ebx)
    7a0f:	dd e9                	fucomp %st(1)
    7a11:	df e0                	fnstsw %ax
    7a13:	80 e4 45             	and    $0x45,%ah
    7a16:	80 f4 40             	xor    $0x40,%ah
    7a19:	75 2d                	jne    7a48 <transform_is_fast+0x58>
    7a1b:	dd 43 18             	fldl   0x18(%ebx)
    7a1e:	dd e9                	fucomp %st(1)
    7a20:	df e0                	fnstsw %ax
    7a22:	80 e4 45             	and    $0x45,%ah
    7a25:	80 f4 40             	xor    $0x40,%ah
    7a28:	75 26                	jne    7a50 <transform_is_fast+0x60>
    7a2a:	dd 43 20             	fldl   0x20(%ebx)
    7a2d:	dd ea                	fucomp %st(2)
    7a2f:	df e0                	fnstsw %ax
    7a31:	dd d9                	fstp   %st(1)
    7a33:	80 e4 45             	and    $0x45,%ah
    7a36:	80 f4 40             	xor    $0x40,%ah
    7a39:	74 25                	je     7a60 <transform_is_fast+0x70>
    7a3b:	dd d8                	fstp   %st(0)
    7a3d:	eb 19                	jmp    7a58 <transform_is_fast+0x68>
    7a3f:	90                   	nop
    7a40:	dd d8                	fstp   %st(0)
    7a42:	eb 14                	jmp    7a58 <transform_is_fast+0x68>
    7a44:	8d 74 26 00          	lea    0x0(%esi,%eiz,1),%esi
    7a48:	dd d8                	fstp   %st(0)
    7a4a:	dd d8                	fstp   %st(0)
    7a4c:	eb 0a                	jmp    7a58 <transform_is_fast+0x68>
    7a4e:	66 90                	xchg   %ax,%ax
    7a50:	dd d8                	fstp   %st(0)
    7a52:	dd d8                	fstp   %st(0)
    7a54:	8d 74 26 00          	lea    0x0(%esi,%eiz,1),%esi
    7a58:	31 c0                	xor    %eax,%eax
    7a5a:	8b 5d fc             	mov    -0x4(%ebp),%ebx
    7a5d:	c9                   	leave  
    7a5e:	c3                   	ret    
    7a5f:	90                   	nop
    7a60:	dd 5d e8             	fstpl  -0x18(%ebp)
    7a63:	83 ec 10             	sub    $0x10,%esp
    7a66:	dd 43 10             	fldl   0x10(%ebx)
    7a69:	dd 14 24             	fstl   (%esp)
    7a6c:	dd 5d f0             	fstpl  -0x10(%ebp)
    7a6f:	e8 cc 04 00 00       	call   7f40 <trunc_f64@plt>
    7a74:	83 c4 10             	add    $0x10,%esp
    7a77:	dd 45 f0             	fldl   -0x10(%ebp)
    7a7a:	de e1                	fsubp  %st,%st(1)
    7a7c:	dd 45 e8             	fldl   -0x18(%ebp)
    7a7f:	d9 c9                	fxch   %st(1)
    7a81:	da e9                	fucompp 
    7a83:	df e0                	fnstsw %ax
    7a85:	80 e4 45             	and    $0x45,%ah
    7a88:	80 f4 40             	xor    $0x40,%ah
    7a8b:	75 cb                	jne    7a58 <transform_is_fast+0x68>
    7a8d:	dd 43 28             	fldl   0x28(%ebx)
    7a90:	83 ec 10             	sub    $0x10,%esp
    7a93:	dd 14 24             	fstl   (%esp)
    7a96:	dd 5d f0             	fstpl  -0x10(%ebp)
    7a99:	e8 a2 04 00 00       	call   7f40 <trunc_f64@plt>
    7a9e:	83 c4 10             	add    $0x10,%esp
    7aa1:	dd 45 f0             	fldl   -0x10(%ebp)
    7aa4:	de e1                	fsubp  %st,%st(1)
    7aa6:	dd 45 e8             	fldl   -0x18(%ebp)
    7aa9:	d9 c9                	fxch   %st(1)
    7aab:	da e9                	fucompp 
    7aad:	df e0                	fnstsw %ax
    7aaf:	80 e4 45             	and    $0x45,%ah
    7ab2:	80 fc 40             	cmp    $0x40,%ah
    7ab5:	0f 94 c0             	sete   %al
    7ab8:	eb a0                	jmp    7a5a <transform_is_fast+0x6a>
    7aba:	8d b6 00 00 00 00    	lea    0x0(%esi),%esi

00007ac0 <transform_apply_linear>:
    7ac0:	55                   	push   %ebp
    7ac1:	89 e5                	mov    %esp,%ebp
    7ac3:	8b 4d 0c             	mov    0xc(%ebp),%ecx
    7ac6:	8b 55 10             	mov    0x10(%ebp),%edx
    7ac9:	8b 45 08             	mov    0x8(%ebp),%eax
    7acc:	dd 01                	fldl   (%ecx)
    7ace:	dd 02                	fldl   (%edx)
    7ad0:	dd 00                	fldl   (%eax)
    7ad2:	d8 ca                	fmul   %st(2),%st
    7ad4:	dd 40 08             	fldl   0x8(%eax)
    7ad7:	d8 ca                	fmul   %st(2),%st
    7ad9:	de c1                	faddp  %st,%st(1)
    7adb:	dd 19                	fstpl  (%ecx)
    7add:	d9 c9                	fxch   %st(1)
    7adf:	dc 48 18             	fmull  0x18(%eax)
    7ae2:	d9 c9                	fxch   %st(1)
    7ae4:	dc 48 20             	fmull  0x20(%eax)
    7ae7:	de c1                	faddp  %st,%st(1)
    7ae9:	dd 1a                	fstpl  (%edx)
    7aeb:	5d                   	pop    %ebp
    7aec:	c3                   	ret    
    7aed:	8d 76 00             	lea    0x0(%esi),%esi

00007af0 <transform_apply_affine>:
    7af0:	55                   	push   %ebp
    7af1:	89 e5                	mov    %esp,%ebp
    7af3:	8b 4d 0c             	mov    0xc(%ebp),%ecx
    7af6:	8b 55 10             	mov    0x10(%ebp),%edx
    7af9:	8b 45 08             	mov    0x8(%ebp),%eax
    7afc:	dd 01                	fldl   (%ecx)
    7afe:	dd 02                	fldl   (%edx)
    7b00:	dd 00                	fldl   (%eax)
    7b02:	d8 ca                	fmul   %st(2),%st
    7b04:	dd 40 08             	fldl   0x8(%eax)
    7b07:	d8 ca                	fmul   %st(2),%st
    7b09:	de c1                	faddp  %st,%st(1)
    7b0b:	dc 40 10             	faddl  0x10(%eax)
    7b0e:	dd 19                	fstpl  (%ecx)
    7b10:	d9 c9                	fxch   %st(1)
    7b12:	dc 48 18             	fmull  0x18(%eax)
    7b15:	d9 c9                	fxch   %st(1)
    7b17:	dc 48 20             	fmull  0x20(%eax)
    7b1a:	de c1                	faddp  %st,%st(1)
    7b1c:	dc 40 28             	faddl  0x28(%eax)
    7b1f:	dd 1a                	fstpl  (%edx)
    7b21:	5d                   	pop    %ebp
    7b22:	c3                   	ret    
    7b23:	46                   	inc    %esi
    7b24:	61                   	popa   
    7b25:	69 6c 65 64 20 63 72 	imul   $0x65726320,0x64(%ebp,%eiz,2),%ebp
    7b2c:	65 
    7b2d:	61                   	popa   
    7b2e:	74 69                	je     7b99 <transform_apply_affine+0xa9>
    7b30:	6e                   	outsb  %ds:(%esi),(%dx)
    7b31:	67 20 66 6f          	and    %ah,0x6f(%bp)
    7b35:	6e                   	outsb  %ds:(%esi),(%dx)
    7b36:	74 0a                	je     7b42 <transform_apply_affine+0x52>
    7b38:	00 46 61             	add    %al,0x61(%esi)
    7b3b:	69 6c 65 64 20 63 72 	imul   $0x65726320,0x64(%ebp,%eiz,2),%ebp
    7b42:	65 
    7b43:	61                   	popa   
    7b44:	74 69                	je     7baf <transform_apply_affine+0xbf>
    7b46:	6e                   	outsb  %ds:(%esi),(%dx)
    7b47:	67 20 69 6e          	and    %ch,0x6e(%bx,%di)
    7b4b:	66 6f                	outsw  %ds:(%esi),(%dx)
    7b4d:	20 66 6f             	and    %ah,0x6f(%esi)
    7b50:	6e                   	outsb  %ds:(%esi),(%dx)
    7b51:	74 0a                	je     7b5d <transform_apply_affine+0x6d>
    7b53:	00 c4                	add    %al,%ah
    7b55:	8c 61 6a             	mov    %fs,0x6a(%ecx)
    7b58:	27                   	daa    
    7b59:	5f                   	pop    %edi
    7b5a:	00 41 73             	add    %al,0x73(%ecx)
    7b5d:	63 65 6e             	arpl   %sp,0x6e(%ebp)
    7b60:	64 65 72 3a          	fs gs jb 7b9e <transform_apply_affine+0xae>
    7b64:	20 25 64 00 44 65    	and    %ah,0x65440064
    7b6a:	73 63                	jae    7bcf <transform_apply_affine+0xdf>
    7b6c:	65 6e                	outsb  %gs:(%esi),(%dx)
    7b6e:	64 65 72 3a          	fs gs jb 7bac <transform_apply_affine+0xbc>
    7b72:	20 25 64 00 4c 69    	and    %ah,0x694c0064
    7b78:	6e                   	outsb  %ds:(%esi),(%dx)
    7b79:	65 20 68 65          	and    %ch,%gs:0x65(%eax)
    7b7d:	69 67 68 74 3a 20 25 	imul   $0x25203a74,0x68(%edi),%esp
    7b84:	64 00 4c 65 61       	add    %cl,%fs:0x61(%ebp,%eiz,2)
    7b89:	64 69 6e 67 3a 20 25 	imul   $0x6425203a,%fs:0x67(%esi),%ebp
    7b90:	64 
    7b91:	00 46 61             	add    %al,0x61(%esi)
    7b94:	69 6c 65 64 20 64 72 	imul   $0x61726420,0x64(%ebp,%eiz,2),%ebp
    7b9b:	61 
    7b9c:	77 69                	ja     7c07 <transform_apply_affine+0x117>
    7b9e:	6e                   	outsb  %ds:(%esi),(%dx)
    7b9f:	67 3a 20             	cmp    (%bx,%si),%ah
    7ba2:	25 64 2e 0a 00       	and    $0xa2e64,%eax
    7ba7:	66 6f                	outsw  %ds:(%esi),(%dx)
    7ba9:	6e                   	outsb  %ds:(%esi),(%dx)
    7baa:	74 76                	je     7c22 <transform_apply_affine+0x132>
    7bac:	69 65 77 65 72 00 43 	imul   $0x43007265,0x77(%ebp),%esp
    7bb3:	61                   	popa   
    7bb4:	6e                   	outsb  %ds:(%esi),(%dx)
    7bb5:	6e                   	outsb  %ds:(%esi),(%dx)
    7bb6:	6f                   	outsl  %ds:(%esi),(%dx)
    7bb7:	74 20                	je     7bd9 <transform_apply_affine+0xe9>
    7bb9:	6f                   	outsl  %ds:(%esi),(%dx)
    7bba:	70 65                	jo     7c21 <transform_apply_affine+0x131>
    7bbc:	6e                   	outsb  %ds:(%esi),(%dx)
    7bbd:	20 6d 61             	and    %ch,0x61(%ebp)
    7bc0:	69 6e 20 77 69 6e 64 	imul   $0x646e6977,0x20(%esi),%ebp
    7bc7:	6f                   	outsl  %ds:(%esi),(%dx)
    7bc8:	77 2e                	ja     7bf8 <transform_apply_affine+0x108>
    7bca:	0a 00                	or     (%eax),%al
    7bcc:	43                   	inc    %ebx
    7bcd:	61                   	popa   
    7bce:	6e                   	outsb  %ds:(%esi),(%dx)
    7bcf:	6e                   	outsb  %ds:(%esi),(%dx)
    7bd0:	6f                   	outsl  %ds:(%esi),(%dx)
    7bd1:	74 20                	je     7bf3 <transform_apply_affine+0x103>
    7bd3:	63 72 65             	arpl   %si,0x65(%edx)
    7bd6:	61                   	popa   
    7bd7:	74 65                	je     7c3e <transform_apply_affine+0x14e>
    7bd9:	20 73 75             	and    %dh,0x75(%ebx)
    7bdc:	72 66                	jb     7c44 <cross_mask>
    7bde:	61                   	popa   
    7bdf:	63 65 2e             	arpl   %sp,0x2e(%ebp)
    7be2:	0a 00                	or     (%eax),%al
    7be4:	43                   	inc    %ebx
    7be5:	61                   	popa   
    7be6:	6e                   	outsb  %ds:(%esi),(%dx)
    7be7:	6e                   	outsb  %ds:(%esi),(%dx)
    7be8:	6f                   	outsl  %ds:(%esi),(%dx)
    7be9:	74 20                	je     7c0b <transform_apply_affine+0x11b>
    7beb:	63 72 65             	arpl   %si,0x65(%edx)
    7bee:	61                   	popa   
    7bef:	74 65                	je     7c56 <cross_mask+0x12>
    7bf1:	20 63 61             	and    %ah,0x61(%ebx)
    7bf4:	6e                   	outsb  %ds:(%esi),(%dx)
    7bf5:	76 61                	jbe    7c58 <cross_mask+0x14>
    7bf7:	73 2e                	jae    7c27 <transform_apply_affine+0x137>
    7bf9:	0a 00                	or     (%eax),%al
    7bfb:	90                   	nop
    7bfc:	43                   	inc    %ebx
    7bfd:	6f                   	outsl  %ds:(%esi),(%dx)
    7bfe:	6d                   	insl   (%dx),%es:(%edi)
    7bff:	70 6f                	jo     7c70 <cross_texture+0x10>
    7c01:	73 69                	jae    7c6c <cross_texture+0xc>
    7c03:	74 6f                	je     7c74 <cross_texture+0x14>
    7c05:	72 20                	jb     7c27 <transform_apply_affine+0x137>
    7c07:	73 65                	jae    7c6e <cross_texture+0xe>
    7c09:	72 76                	jb     7c81 <cross_texture+0x21>
    7c0b:	65 72 20             	gs jb  7c2e <transform_apply_affine+0x13e>
    7c0e:	6e                   	outsb  %ds:(%esi),(%dx)
    7c0f:	6f                   	outsl  %ds:(%esi),(%dx)
    7c10:	74 20                	je     7c32 <transform_apply_affine+0x142>
    7c12:	73 70                	jae    7c84 <cross_texture+0x24>
    7c14:	65 63 69 66          	arpl   %bp,%gs:0x66(%ecx)
    7c18:	69 65 64 2e 0a 00 00 	imul   $0xa2e,0x64(%ebp),%esp
    7c1f:	00 70 32             	add    %dh,0x32(%eax)
    7c22:	00 00                	add    %al,(%eax)
    7c24:	18 31                	sbb    %dh,(%ecx)
    7c26:	00 00                	add    %al,(%eax)
    7c28:	f0 30 00             	lock xor %al,(%eax)
    7c2b:	00 c0                	add    %al,%al
    7c2d:	30 00                	xor    %al,(%eax)
    7c2f:	00 98 30 00 00 08    	add    %bl,0x8000030(%eax)
    7c35:	2f                   	das    
    7c36:	00 00                	add    %al,(%eax)
    7c38:	e8 2e 00 00 60       	call   60007c6b <main_window+0x5fff2c2f>
    7c3d:	2e 00 00             	add    %al,%cs:(%eax)
    7c40:	78 31                	js     7c73 <cross_texture+0x13>
	...

00007c44 <cross_mask>:
    7c44:	00 00 02 18 06 0c 0c 06 18 03 b0 01 e0 00 e0 00     ................
    7c54:	b0 01 18 03 0c 06 06 0c 03 18 00 00                 ............

00007c60 <cross_texture>:
    7c60:	00 00 02 08 04 04 08 02 10 01 a0 00 40 00 a0 00     ............@...
    7c70:	10 01 08 02 04 04 02 08 01 10 00 00 00 00 00 3f     ...............?
    7c80:	72 62 00 64 72 61 77 63 74 78 2e 63 00 73 75 72     rb.drawctx.c.sur
    7c90:	66 61 63 65 00 73 6f 75 72 63 65 2e 63 00 73 6f     face.source.c.so
    7ca0:	75 72 63 65 5f 69 73 5f 66 61 73 74 28 73 6f 75     urce_is_fast(sou
    7cb0:	72 63 65 29 00 66 90 90 00 00 7f 43 73 75 72 66     rce).f.....Csurf
    7cc0:	61 63 65 2e 63 00 77 69 64 74 68 00 68 65 69 67     ace.c.width.heig
    7cd0:	68 74 00 78 00 79 00 90 00 00 80 3f                 ht.x.y.....?

Disassembly of section .plt:

00007e70 <__main@plt-0x10>:
    7e70:	ff 35 54 4f 01 00    	pushl  0x14f54
    7e76:	ff 25 58 4f 01 00    	jmp    *0x14f58
    7e7c:	00 00                	add    %al,(%eax)
	...

00007e80 <__main@plt>:
    7e80:	ff 25 5c 4f 01 00    	jmp    *0x14f5c
    7e86:	68 00 00 00 00       	push   $0x0
    7e8b:	e9 e0 ff ff ff       	jmp    7e70 <cross_texture+0x210>

00007e90 <cos_f64@plt>:
    7e90:	ff 25 60 4f 01 00    	jmp    *0x14f60
    7e96:	68 08 00 00 00       	push   $0x8
    7e9b:	e9 d0 ff ff ff       	jmp    7e70 <cross_texture+0x210>

00007ea0 <win_grab@plt>:
    7ea0:	ff 25 64 4f 01 00    	jmp    *0x14f64
    7ea6:	68 10 00 00 00       	push   $0x10
    7eab:	e9 c0 ff ff ff       	jmp    7e70 <cross_texture+0x210>

00007eb0 <task_retval@plt>:
    7eb0:	ff 25 68 4f 01 00    	jmp    *0x14f68
    7eb6:	68 18 00 00 00       	push   $0x18
    7ebb:	e9 b0 ff ff ff       	jmp    7e70 <cross_texture+0x210>

00007ec0 <loc_service_connect@plt>:
    7ec0:	ff 25 6c 4f 01 00    	jmp    *0x14f6c
    7ec6:	68 20 00 00 00       	push   $0x20
    7ecb:	e9 a0 ff ff ff       	jmp    7e70 <cross_texture+0x210>

00007ed0 <printf@plt>:
    7ed0:	ff 25 70 4f 01 00    	jmp    *0x14f70
    7ed6:	68 28 00 00 00       	push   $0x28
    7edb:	e9 90 ff ff ff       	jmp    7e70 <cross_texture+0x210>

00007ee0 <async_hangup@plt>:
    7ee0:	ff 25 74 4f 01 00    	jmp    *0x14f74
    7ee6:	68 30 00 00 00       	push   $0x30
    7eeb:	e9 80 ff ff ff       	jmp    7e70 <cross_texture+0x210>

00007ef0 <fibril_rwlock_read_unlock@plt>:
    7ef0:	ff 25 78 4f 01 00    	jmp    *0x14f78
    7ef6:	68 38 00 00 00       	push   $0x38
    7efb:	e9 70 ff ff ff       	jmp    7e70 <cross_texture+0x210>

00007f00 <__errno@plt>:
    7f00:	ff 25 7c 4f 01 00    	jmp    *0x14f7c
    7f06:	68 40 00 00 00       	push   $0x40
    7f0b:	e9 60 ff ff ff       	jmp    7e70 <cross_texture+0x210>

00007f10 <str_decode@plt>:
    7f10:	ff 25 80 4f 01 00    	jmp    *0x14f80
    7f16:	68 48 00 00 00       	push   $0x48
    7f1b:	e9 50 ff ff ff       	jmp    7e70 <cross_texture+0x210>

00007f20 <memcpy@plt>:
    7f20:	ff 25 84 4f 01 00    	jmp    *0x14f84
    7f26:	68 50 00 00 00       	push   $0x50
    7f2b:	e9 40 ff ff ff       	jmp    7e70 <cross_texture+0x210>

00007f30 <malloc@plt>:
    7f30:	ff 25 88 4f 01 00    	jmp    *0x14f88
    7f36:	68 58 00 00 00       	push   $0x58
    7f3b:	e9 30 ff ff ff       	jmp    7e70 <cross_texture+0x210>

00007f40 <trunc_f64@plt>:
    7f40:	ff 25 8c 4f 01 00    	jmp    *0x14f8c
    7f46:	68 60 00 00 00       	push   $0x60
    7f4b:	e9 20 ff ff ff       	jmp    7e70 <cross_texture+0x210>

00007f50 <loc_service_get_id@plt>:
    7f50:	ff 25 90 4f 01 00    	jmp    *0x14f90
    7f56:	68 68 00 00 00       	push   $0x68
    7f5b:	e9 10 ff ff ff       	jmp    7e70 <cross_texture+0x210>

00007f60 <as_area_destroy@plt>:
    7f60:	ff 25 94 4f 01 00    	jmp    *0x14f94
    7f66:	68 70 00 00 00       	push   $0x70
    7f6b:	e9 00 ff ff ff       	jmp    7e70 <cross_texture+0x210>

00007f70 <win_resize@plt>:
    7f70:	ff 25 98 4f 01 00    	jmp    *0x14f98
    7f76:	68 78 00 00 00       	push   $0x78
    7f7b:	e9 f0 fe ff ff       	jmp    7e70 <cross_texture+0x210>

00007f80 <assert_abort@plt>:
    7f80:	ff 25 9c 4f 01 00    	jmp    *0x14f9c
    7f86:	68 80 00 00 00       	push   $0x80
    7f8b:	e9 e0 fe ff ff       	jmp    7e70 <cross_texture+0x210>

00007f90 <calloc@plt>:
    7f90:	ff 25 a0 4f 01 00    	jmp    *0x14fa0
    7f96:	68 88 00 00 00       	push   $0x88
    7f9b:	e9 d0 fe ff ff       	jmp    7e70 <cross_texture+0x210>

00007fa0 <fseek@plt>:
    7fa0:	ff 25 a4 4f 01 00    	jmp    *0x14fa4
    7fa6:	68 90 00 00 00       	push   $0x90
    7fab:	e9 c0 fe ff ff       	jmp    7e70 <cross_texture+0x210>

00007fb0 <fibril_mutex_unlock@plt>:
    7fb0:	ff 25 a8 4f 01 00    	jmp    *0x14fa8
    7fb6:	68 98 00 00 00       	push   $0x98
    7fbb:	e9 b0 fe ff ff       	jmp    7e70 <cross_texture+0x210>

00007fc0 <str_dup@plt>:
    7fc0:	ff 25 ac 4f 01 00    	jmp    *0x14fac
    7fc6:	68 a0 00 00 00       	push   $0xa0
    7fcb:	e9 a0 fe ff ff       	jmp    7e70 <cross_texture+0x210>

00007fd0 <fibril_mutex_initialize@plt>:
    7fd0:	ff 25 b0 4f 01 00    	jmp    *0x14fb0
    7fd6:	68 a8 00 00 00       	push   $0xa8
    7fdb:	e9 90 fe ff ff       	jmp    7e70 <cross_texture+0x210>

00007fe0 <win_get_event@plt>:
    7fe0:	ff 25 b4 4f 01 00    	jmp    *0x14fb4
    7fe6:	68 b0 00 00 00       	push   $0xb0
    7feb:	e9 80 fe ff ff       	jmp    7e70 <cross_texture+0x210>

00007ff0 <prodcons_initialize@plt>:
    7ff0:	ff 25 b8 4f 01 00    	jmp    *0x14fb8
    7ff6:	68 b8 00 00 00       	push   $0xb8
    7ffb:	e9 70 fe ff ff       	jmp    7e70 <cross_texture+0x210>

00008000 <win_register@plt>:
    8000:	ff 25 bc 4f 01 00    	jmp    *0x14fbc
    8006:	68 c0 00 00 00       	push   $0xc0
    800b:	e9 60 fe ff ff       	jmp    7e70 <cross_texture+0x210>

00008010 <fibril_rwlock_write_unlock@plt>:
    8010:	ff 25 c0 4f 01 00    	jmp    *0x14fc0
    8016:	68 c8 00 00 00       	push   $0xc8
    801b:	e9 50 fe ff ff       	jmp    7e70 <cross_texture+0x210>

00008020 <fread@plt>:
    8020:	ff 25 c4 4f 01 00    	jmp    *0x14fc4
    8026:	68 d0 00 00 00       	push   $0xd0
    802b:	e9 40 fe ff ff       	jmp    7e70 <cross_texture+0x210>

00008030 <prodcons_consume@plt>:
    8030:	ff 25 c8 4f 01 00    	jmp    *0x14fc8
    8036:	68 d8 00 00 00       	push   $0xd8
    803b:	e9 30 fe ff ff       	jmp    7e70 <cross_texture+0x210>

00008040 <fopen@plt>:
    8040:	ff 25 cc 4f 01 00    	jmp    *0x14fcc
    8046:	68 e0 00 00 00       	push   $0xe0
    804b:	e9 20 fe ff ff       	jmp    7e70 <cross_texture+0x210>

00008050 <memset@plt>:
    8050:	ff 25 d0 4f 01 00    	jmp    *0x14fd0
    8056:	68 e8 00 00 00       	push   $0xe8
    805b:	e9 10 fe ff ff       	jmp    7e70 <cross_texture+0x210>

00008060 <ftell@plt>:
    8060:	ff 25 d4 4f 01 00    	jmp    *0x14fd4
    8066:	68 f0 00 00 00       	push   $0xf0
    806b:	e9 00 fe ff ff       	jmp    7e70 <cross_texture+0x210>

00008070 <sin_f64@plt>:
    8070:	ff 25 d8 4f 01 00    	jmp    *0x14fd8
    8076:	68 f8 00 00 00       	push   $0xf8
    807b:	e9 f0 fd ff ff       	jmp    7e70 <cross_texture+0x210>

00008080 <fclose@plt>:
    8080:	ff 25 dc 4f 01 00    	jmp    *0x14fdc
    8086:	68 00 01 00 00       	push   $0x100
    808b:	e9 e0 fd ff ff       	jmp    7e70 <cross_texture+0x210>

00008090 <win_damage@plt>:
    8090:	ff 25 e0 4f 01 00    	jmp    *0x14fe0
    8096:	68 08 01 00 00       	push   $0x108
    809b:	e9 d0 fd ff ff       	jmp    7e70 <cross_texture+0x210>

000080a0 <fibril_rwlock_write_lock@plt>:
    80a0:	ff 25 e4 4f 01 00    	jmp    *0x14fe4
    80a6:	68 10 01 00 00       	push   $0x110
    80ab:	e9 c0 fd ff ff       	jmp    7e70 <cross_texture+0x210>

000080b0 <win_close@plt>:
    80b0:	ff 25 e8 4f 01 00    	jmp    *0x14fe8
    80b6:	68 18 01 00 00       	push   $0x118
    80bb:	e9 b0 fd ff ff       	jmp    7e70 <cross_texture+0x210>

000080c0 <prodcons_produce@plt>:
    80c0:	ff 25 ec 4f 01 00    	jmp    *0x14fec
    80c6:	68 20 01 00 00       	push   $0x120
    80cb:	e9 a0 fd ff ff       	jmp    7e70 <cross_texture+0x210>

000080d0 <exit@plt>:
    80d0:	ff 25 f0 4f 01 00    	jmp    *0x14ff0
    80d6:	68 28 01 00 00       	push   $0x128
    80db:	e9 90 fd ff ff       	jmp    7e70 <cross_texture+0x210>

000080e0 <fibril_create_generic@plt>:
    80e0:	ff 25 f4 4f 01 00    	jmp    *0x14ff4
    80e6:	68 30 01 00 00       	push   $0x130
    80eb:	e9 80 fd ff ff       	jmp    7e70 <cross_texture+0x210>

000080f0 <fibril_add_ready@plt>:
    80f0:	ff 25 f8 4f 01 00    	jmp    *0x14ff8
    80f6:	68 38 01 00 00       	push   $0x138
    80fb:	e9 70 fd ff ff       	jmp    7e70 <cross_texture+0x210>

00008100 <fibril_switch@plt>:
    8100:	ff 25 fc 4f 01 00    	jmp    *0x14ffc
    8106:	68 40 01 00 00       	push   $0x140
    810b:	e9 60 fd ff ff       	jmp    7e70 <cross_texture+0x210>

00008110 <as_area_create@plt>:
    8110:	ff 25 00 50 01 00    	jmp    *0x15000
    8116:	68 48 01 00 00       	push   $0x148
    811b:	e9 50 fd ff ff       	jmp    7e70 <cross_texture+0x210>

00008120 <__syscall_fast@plt>:
    8120:	ff 25 04 50 01 00    	jmp    *0x15004
    8126:	68 50 01 00 00       	push   $0x150
    812b:	e9 40 fd ff ff       	jmp    7e70 <cross_texture+0x210>

00008130 <fibril_rwlock_read_lock@plt>:
    8130:	ff 25 08 50 01 00    	jmp    *0x15008
    8136:	68 58 01 00 00       	push   $0x158
    813b:	e9 30 fd ff ff       	jmp    7e70 <cross_texture+0x210>

00008140 <vasprintf@plt>:
    8140:	ff 25 0c 50 01 00    	jmp    *0x1500c
    8146:	68 60 01 00 00       	push   $0x160
    814b:	e9 20 fd ff ff       	jmp    7e70 <cross_texture+0x210>

00008150 <win_close_request@plt>:
    8150:	ff 25 10 50 01 00    	jmp    *0x15010
    8156:	68 68 01 00 00       	push   $0x168
    815b:	e9 10 fd ff ff       	jmp    7e70 <cross_texture+0x210>

00008160 <free@plt>:
    8160:	ff 25 14 50 01 00    	jmp    *0x15014
    8166:	68 70 01 00 00       	push   $0x170
    816b:	e9 00 fd ff ff       	jmp    7e70 <cross_texture+0x210>

00008170 <fibril_mutex_lock@plt>:
    8170:	ff 25 18 50 01 00    	jmp    *0x15018
    8176:	68 78 01 00 00       	push   $0x178
    817b:	e9 f0 fc ff ff       	jmp    7e70 <cross_texture+0x210>
