
test1:     file format elf32-i386


Disassembly of section .init:

000010f4 <__entry>:
    10f4:	66 8c d0             	mov    %ss,%ax
    10f7:	8e d8                	mov    %eax,%ds
    10f9:	8e c0                	mov    %eax,%es
    10fb:	8e e0                	mov    %eax,%fs
    10fd:	b8 01 00 00 00       	mov    $0x1,%eax
    1102:	0f a2                	cpuid  
    1104:	0f ba e2 0b          	bt     $0xb,%edx
    1108:	73 0c                	jae    1116 <__entry+0x22>
    110a:	8d 05 80 ed 00 00    	lea    0xed80,%eax
    1110:	c7 00 50 cd 00 00    	movl   $0xcd50,(%eax)
    1116:	6a 00                	push   $0x0
    1118:	6a 00                	push   $0x0
    111a:	89 e5                	mov    %esp,%ebp
    111c:	57                   	push   %edi
    111d:	e8 be b7 00 00       	call   c8e0 <__main@plt>

Disassembly of section .text:

00001140 <imp_char_write>:
    1140:	55                   	push   %ebp
    1141:	89 e5                	mov    %esp,%ebp
    1143:	8b 45 10             	mov    0x10(%ebp),%eax
    1146:	5d                   	pop    %ebp
    1147:	c3                   	ret    
    1148:	90                   	nop
    1149:	8d b4 26 00 00 00 00 	lea    0x0(%esi,%eiz,1),%esi

00001150 <impl_char_read>:
    1150:	55                   	push   %ebp
    1151:	89 e5                	mov    %esp,%ebp
    1153:	53                   	push   %ebx
    1154:	83 ec 08             	sub    $0x8,%esp
    1157:	8b 5d 10             	mov    0x10(%ebp),%ebx
    115a:	8b 55 0c             	mov    0xc(%ebp),%edx
    115d:	53                   	push   %ebx
    115e:	6a 00                	push   $0x0
    1160:	52                   	push   %edx
    1161:	e8 8a ba 00 00       	call   cbf0 <memset@plt>
    1166:	89 d8                	mov    %ebx,%eax
    1168:	8b 5d fc             	mov    -0x4(%ebp),%ebx
    116b:	c9                   	leave  
    116c:	c3                   	ret    
    116d:	66 90                	xchg   %ax,%ax
    116f:	90                   	nop

00001170 <test1_fun_offline>:
    1170:	55                   	push   %ebp
    1171:	89 e5                	mov    %esp,%ebp
    1173:	53                   	push   %ebx
    1174:	83 ec 0c             	sub    $0xc,%esp
    1177:	8b 5d 08             	mov    0x8(%ebp),%ebx
    117a:	68 2f a9 00 00       	push   $0xa92f
    117f:	6a 04                	push   $0x4
    1181:	e8 9a 18 00 00       	call   2a20 <ddf_msg>
    1186:	89 5d 08             	mov    %ebx,0x8(%ebp)
    1189:	83 c4 10             	add    $0x10,%esp
    118c:	8b 5d fc             	mov    -0x4(%ebp),%ebx
    118f:	c9                   	leave  
    1190:	e9 7b 15 00 00       	jmp    2710 <ddf_fun_offline>
    1195:	8d 74 26 00          	lea    0x0(%esi,%eiz,1),%esi
    1199:	8d bc 27 00 00 00 00 	lea    0x0(%edi,%eiz,1),%edi

000011a0 <test1_fun_online>:
    11a0:	55                   	push   %ebp
    11a1:	89 e5                	mov    %esp,%ebp
    11a3:	53                   	push   %ebx
    11a4:	83 ec 0c             	sub    $0xc,%esp
    11a7:	8b 5d 08             	mov    0x8(%ebp),%ebx
    11aa:	68 43 a9 00 00       	push   $0xa943
    11af:	6a 04                	push   $0x4
    11b1:	e8 6a 18 00 00       	call   2a20 <ddf_msg>
    11b6:	89 5d 08             	mov    %ebx,0x8(%ebp)
    11b9:	83 c4 10             	add    $0x10,%esp
    11bc:	8b 5d fc             	mov    -0x4(%ebp),%ebx
    11bf:	c9                   	leave  
    11c0:	e9 1b 15 00 00       	jmp    26e0 <ddf_fun_online>
    11c5:	8d 74 26 00          	lea    0x0(%esi,%eiz,1),%esi
    11c9:	8d bc 27 00 00 00 00 	lea    0x0(%edi,%eiz,1),%edi

000011d0 <register_fun_verbose.constprop.1>:
    11d0:	55                   	push   %ebp
    11d1:	89 e5                	mov    %esp,%ebp
    11d3:	57                   	push   %edi
    11d4:	56                   	push   %esi
    11d5:	53                   	push   %ebx
    11d6:	83 ec 1c             	sub    $0x1c,%esp
    11d9:	89 c3                	mov    %eax,%ebx
    11db:	89 cf                	mov    %ecx,%edi
    11dd:	52                   	push   %edx
    11de:	51                   	push   %ecx
    11df:	68 bc aa 00 00       	push   $0xaabc
    11e4:	6a 04                	push   $0x4
    11e6:	e8 35 18 00 00       	call   2a20 <ddf_msg>
    11eb:	83 c4 0c             	add    $0xc,%esp
    11ee:	57                   	push   %edi
    11ef:	6a 01                	push   $0x1
    11f1:	53                   	push   %ebx
    11f2:	e8 59 10 00 00       	call   2250 <ddf_fun_create>
    11f7:	83 c4 10             	add    $0x10,%esp
    11fa:	89 c6                	mov    %eax,%esi
    11fc:	85 c0                	test   %eax,%eax
    11fe:	0f 84 ea 00 00 00    	je     12ee <register_fun_verbose.constprop.1+0x11e>
    1204:	50                   	push   %eax
    1205:	8b 45 08             	mov    0x8(%ebp),%eax
    1208:	6a 0a                	push   $0xa
    120a:	50                   	push   %eax
    120b:	56                   	push   %esi
    120c:	e8 2f 15 00 00       	call   2740 <ddf_fun_add_match_id>
    1211:	83 c4 10             	add    $0x10,%esp
    1214:	89 c3                	mov    %eax,%ebx
    1216:	85 c0                	test   %eax,%eax
    1218:	0f 85 9a 00 00 00    	jne    12b8 <register_fun_verbose.constprop.1+0xe8>
    121e:	83 ec 0c             	sub    $0xc,%esp
    1221:	56                   	push   %esi
    1222:	e8 e9 12 00 00       	call   2510 <ddf_fun_bind>
    1227:	83 c4 10             	add    $0x10,%esp
    122a:	89 c3                	mov    %eax,%ebx
    122c:	85 c0                	test   %eax,%eax
    122e:	0f 84 9c 00 00 00    	je     12d0 <register_fun_verbose.constprop.1+0x100>
    1234:	83 ec 0c             	sub    $0xc,%esp
    1237:	50                   	push   %eax
    1238:	e8 63 ba 00 00       	call   cca0 <str_error@plt>
    123d:	50                   	push   %eax
    123e:	57                   	push   %edi
    123f:	68 04 ab 00 00       	push   $0xab04
    1244:	6a 01                	push   $0x1
    1246:	e8 d5 17 00 00       	call   2a20 <ddf_msg>
    124b:	83 c4 20             	add    $0x20,%esp
    124e:	b2 01                	mov    $0x1,%dl
    1250:	3b 5d 0c             	cmp    0xc(%ebp),%ebx
    1253:	74 38                	je     128d <register_fun_verbose.constprop.1+0xbd>
    1255:	83 ec 0c             	sub    $0xc,%esp
    1258:	88 55 e3             	mov    %dl,-0x1d(%ebp)
    125b:	53                   	push   %ebx
    125c:	e8 3f ba 00 00       	call   cca0 <str_error@plt>
    1261:	8b 4d 0c             	mov    0xc(%ebp),%ecx
    1264:	5a                   	pop    %edx
    1265:	89 45 e4             	mov    %eax,-0x1c(%ebp)
    1268:	51                   	push   %ecx
    1269:	e8 32 ba 00 00       	call   cca0 <str_error@plt>
    126e:	8b 4d e4             	mov    -0x1c(%ebp),%ecx
    1271:	89 0c 24             	mov    %ecx,(%esp)
    1274:	50                   	push   %eax
    1275:	57                   	push   %edi
    1276:	8b 3d 88 ed 00 00    	mov    0xed88,%edi
    127c:	68 24 ab 00 00       	push   $0xab24
    1281:	57                   	push   %edi
    1282:	e8 79 b8 00 00       	call   cb00 <fprintf@plt>
    1287:	83 c4 20             	add    $0x20,%esp
    128a:	8a 55 e3             	mov    -0x1d(%ebp),%dl
    128d:	85 f6                	test   %esi,%esi
    128f:	74 10                	je     12a1 <register_fun_verbose.constprop.1+0xd1>
    1291:	84 d2                	test   %dl,%dl
    1293:	74 0c                	je     12a1 <register_fun_verbose.constprop.1+0xd1>
    1295:	83 ec 0c             	sub    $0xc,%esp
    1298:	56                   	push   %esi
    1299:	e8 42 11 00 00       	call   23e0 <ddf_fun_destroy>
    129e:	83 c4 10             	add    $0x10,%esp
    12a1:	8b 45 10             	mov    0x10(%ebp),%eax
    12a4:	85 c0                	test   %eax,%eax
    12a6:	74 05                	je     12ad <register_fun_verbose.constprop.1+0xdd>
    12a8:	8b 45 10             	mov    0x10(%ebp),%eax
    12ab:	89 30                	mov    %esi,(%eax)
    12ad:	8d 65 f4             	lea    -0xc(%ebp),%esp
    12b0:	89 d8                	mov    %ebx,%eax
    12b2:	5b                   	pop    %ebx
    12b3:	5e                   	pop    %esi
    12b4:	5f                   	pop    %edi
    12b5:	5d                   	pop    %ebp
    12b6:	c3                   	ret    
    12b7:	90                   	nop
    12b8:	50                   	push   %eax
    12b9:	57                   	push   %edi
    12ba:	68 dc aa 00 00       	push   $0xaadc
    12bf:	6a 01                	push   $0x1
    12c1:	e8 5a 17 00 00       	call   2a20 <ddf_msg>
    12c6:	83 c4 10             	add    $0x10,%esp
    12c9:	eb 83                	jmp    124e <register_fun_verbose.constprop.1+0x7e>
    12cb:	90                   	nop
    12cc:	8d 74 26 00          	lea    0x0(%esi,%eiz,1),%esi
    12d0:	50                   	push   %eax
    12d1:	57                   	push   %edi
    12d2:	68 72 a9 00 00       	push   $0xa972
    12d7:	6a 03                	push   $0x3
    12d9:	e8 42 17 00 00       	call   2a20 <ddf_msg>
    12de:	83 c4 10             	add    $0x10,%esp
    12e1:	31 d2                	xor    %edx,%edx
    12e3:	39 5d 0c             	cmp    %ebx,0xc(%ebp)
    12e6:	0f 85 69 ff ff ff    	jne    1255 <register_fun_verbose.constprop.1+0x85>
    12ec:	eb b3                	jmp    12a1 <register_fun_verbose.constprop.1+0xd1>
    12ee:	50                   	push   %eax
    12ef:	57                   	push   %edi
    12f0:	68 56 a9 00 00       	push   $0xa956
    12f5:	6a 01                	push   $0x1
    12f7:	bb fe ff ff ff       	mov    $0xfffffffe,%ebx
    12fc:	e8 1f 17 00 00       	call   2a20 <ddf_msg>
    1301:	83 c4 10             	add    $0x10,%esp
    1304:	b2 01                	mov    $0x1,%dl
    1306:	eb db                	jmp    12e3 <register_fun_verbose.constprop.1+0x113>
    1308:	90                   	nop
    1309:	8d b4 26 00 00 00 00 	lea    0x0(%esi,%eiz,1),%esi

00001310 <test1_dev_add>:
    1310:	55                   	push   %ebp
    1311:	89 e5                	mov    %esp,%ebp
    1313:	57                   	push   %edi
    1314:	56                   	push   %esi
    1315:	53                   	push   %ebx
    1316:	83 ec 28             	sub    $0x28,%esp
    1319:	8b 5d 08             	mov    0x8(%ebp),%ebx
    131c:	53                   	push   %ebx
    131d:	e8 5e 0e 00 00       	call   2180 <ddf_dev_get_name>
    1322:	89 1c 24             	mov    %ebx,(%esp)
    1325:	89 c6                	mov    %eax,%esi
    1327:	e8 44 0e 00 00       	call   2170 <ddf_dev_get_handle>
    132c:	50                   	push   %eax
    132d:	56                   	push   %esi
    132e:	68 8f a9 00 00       	push   $0xa98f
    1333:	6a 04                	push   $0x4
    1335:	e8 e6 16 00 00       	call   2a20 <ddf_msg>
    133a:	83 c4 18             	add    $0x18,%esp
    133d:	6a 0c                	push   $0xc
    133f:	53                   	push   %ebx
    1340:	e8 db 0d 00 00       	call   2120 <ddf_dev_data_alloc>
    1345:	83 c4 10             	add    $0x10,%esp
    1348:	89 45 e4             	mov    %eax,-0x1c(%ebp)
    134b:	85 c0                	test   %eax,%eax
    134d:	0f 84 55 01 00 00    	je     14a8 <test1_dev_add+0x198>
    1353:	57                   	push   %edi
    1354:	68 ad a9 00 00       	push   $0xa9ad
    1359:	6a 02                	push   $0x2
    135b:	53                   	push   %ebx
    135c:	e8 ef 0e 00 00       	call   2250 <ddf_fun_create>
    1361:	83 c4 10             	add    $0x10,%esp
    1364:	89 c7                	mov    %eax,%edi
    1366:	85 c0                	test   %eax,%eax
    1368:	0f 84 57 01 00 00    	je     14c5 <test1_dev_add+0x1b5>
    136e:	8b 45 e4             	mov    -0x1c(%ebp),%eax
    1371:	83 ec 0c             	sub    $0xc,%esp
    1374:	89 38                	mov    %edi,(%eax)
    1376:	57                   	push   %edi
    1377:	e8 94 11 00 00       	call   2510 <ddf_fun_bind>
    137c:	83 c4 10             	add    $0x10,%esp
    137f:	89 45 e0             	mov    %eax,-0x20(%ebp)
    1382:	85 c0                	test   %eax,%eax
    1384:	0f 85 b6 00 00 00    	jne    1440 <test1_dev_add+0x130>
    138a:	51                   	push   %ecx
    138b:	51                   	push   %ecx
    138c:	68 ea a9 00 00       	push   $0xa9ea
    1391:	57                   	push   %edi
    1392:	e8 c9 14 00 00       	call   2860 <ddf_fun_add_to_category>
    1397:	58                   	pop    %eax
    1398:	5a                   	pop    %edx
    1399:	68 f7 a9 00 00       	push   $0xa9f7
    139e:	56                   	push   %esi
    139f:	e8 1c b8 00 00       	call   cbc0 <str_cmp@plt>
    13a4:	83 c4 10             	add    $0x10,%esp
    13a7:	85 c0                	test   %eax,%eax
    13a9:	75 3d                	jne    13e8 <test1_dev_add+0xd8>
    13ab:	50                   	push   %eax
    13ac:	50                   	push   %eax
    13ad:	68 a0 eb 00 00       	push   $0xeba0
    13b2:	57                   	push   %edi
    13b3:	e8 48 14 00 00       	call   2800 <ddf_fun_set_ops>
    13b8:	58                   	pop    %eax
    13b9:	5a                   	pop    %edx
    13ba:	68 f2 a9 00 00       	push   $0xa9f2
    13bf:	57                   	push   %edi
    13c0:	e8 9b 14 00 00       	call   2860 <ddf_fun_add_to_category>
    13c5:	83 c4 10             	add    $0x10,%esp
    13c8:	50                   	push   %eax
    13c9:	56                   	push   %esi
    13ca:	68 65 aa 00 00       	push   $0xaa65
    13cf:	6a 04                	push   $0x4
    13d1:	e8 4a 16 00 00       	call   2a20 <ddf_msg>
    13d6:	83 c4 10             	add    $0x10,%esp
    13d9:	8b 45 e0             	mov    -0x20(%ebp),%eax
    13dc:	8d 65 f4             	lea    -0xc(%ebp),%esp
    13df:	5b                   	pop    %ebx
    13e0:	5e                   	pop    %esi
    13e1:	5f                   	pop    %edi
    13e2:	5d                   	pop    %ebp
    13e3:	c3                   	ret    
    13e4:	8d 74 26 00          	lea    0x0(%esi,%eiz,1),%esi
    13e8:	50                   	push   %eax
    13e9:	50                   	push   %eax
    13ea:	68 1d aa 00 00       	push   $0xaa1d
    13ef:	56                   	push   %esi
    13f0:	e8 cb b7 00 00       	call   cbc0 <str_cmp@plt>
    13f5:	83 c4 10             	add    $0x10,%esp
    13f8:	85 c0                	test   %eax,%eax
    13fa:	75 6c                	jne    1468 <test1_dev_add+0x158>
    13fc:	57                   	push   %edi
    13fd:	8b 7d e4             	mov    -0x1c(%ebp),%edi
    1400:	83 c7 04             	add    $0x4,%edi
    1403:	b9 fc a9 00 00       	mov    $0xa9fc,%ecx
    1408:	57                   	push   %edi
    1409:	ba 02 aa 00 00       	mov    $0xaa02,%edx
    140e:	6a 00                	push   $0x0
    1410:	89 d8                	mov    %ebx,%eax
    1412:	68 15 aa 00 00       	push   $0xaa15
    1417:	e8 b4 fd ff ff       	call   11d0 <register_fun_verbose.constprop.1>
    141c:	83 c4 0c             	add    $0xc,%esp
    141f:	b9 fc a9 00 00       	mov    $0xa9fc,%ecx
    1424:	ba 23 aa 00 00       	mov    $0xaa23,%edx
    1429:	89 d8                	mov    %ebx,%eax
    142b:	6a 00                	push   $0x0
    142d:	6a f7                	push   $0xfffffff7
    142f:	68 15 aa 00 00       	push   $0xaa15
    1434:	e8 97 fd ff ff       	call   11d0 <register_fun_verbose.constprop.1>
    1439:	83 c4 10             	add    $0x10,%esp
    143c:	eb 8a                	jmp    13c8 <test1_dev_add+0xb8>
    143e:	66 90                	xchg   %ax,%ax
    1440:	51                   	push   %ecx
    1441:	51                   	push   %ecx
    1442:	68 cd a9 00 00       	push   $0xa9cd
    1447:	6a 01                	push   $0x1
    1449:	e8 d2 15 00 00       	call   2a20 <ddf_msg>
    144e:	89 3c 24             	mov    %edi,(%esp)
    1451:	e8 8a 0f 00 00       	call   23e0 <ddf_fun_destroy>
    1456:	8b 45 e0             	mov    -0x20(%ebp),%eax
    1459:	83 c4 10             	add    $0x10,%esp
    145c:	8d 65 f4             	lea    -0xc(%ebp),%esp
    145f:	5b                   	pop    %ebx
    1460:	5e                   	pop    %esi
    1461:	5f                   	pop    %edi
    1462:	5d                   	pop    %ebp
    1463:	c3                   	ret    
    1464:	8d 74 26 00          	lea    0x0(%esi,%eiz,1),%esi
    1468:	51                   	push   %ecx
    1469:	51                   	push   %ecx
    146a:	68 fc a9 00 00       	push   $0xa9fc
    146f:	56                   	push   %esi
    1470:	e8 4b b7 00 00       	call   cbc0 <str_cmp@plt>
    1475:	83 c4 10             	add    $0x10,%esp
    1478:	85 c0                	test   %eax,%eax
    147a:	0f 85 48 ff ff ff    	jne    13c8 <test1_dev_add+0xb8>
    1480:	8b 7d e4             	mov    -0x1c(%ebp),%edi
    1483:	b9 5f aa 00 00       	mov    $0xaa5f,%ecx
    1488:	83 c7 08             	add    $0x8,%edi
    148b:	52                   	push   %edx
    148c:	89 d8                	mov    %ebx,%eax
    148e:	57                   	push   %edi
    148f:	ba 3c aa 00 00       	mov    $0xaa3c,%edx
    1494:	6a 00                	push   $0x0
    1496:	68 51 aa 00 00       	push   $0xaa51
    149b:	e8 30 fd ff ff       	call   11d0 <register_fun_verbose.constprop.1>
    14a0:	83 c4 10             	add    $0x10,%esp
    14a3:	e9 20 ff ff ff       	jmp    13c8 <test1_dev_add+0xb8>
    14a8:	50                   	push   %eax
    14a9:	50                   	push   %eax
    14aa:	68 80 ab 00 00       	push   $0xab80
    14af:	6a 01                	push   $0x1
    14b1:	e8 6a 15 00 00       	call   2a20 <ddf_msg>
    14b6:	83 c4 10             	add    $0x10,%esp
    14b9:	c7 45 e0 fe ff ff ff 	movl   $0xfffffffe,-0x20(%ebp)
    14c0:	e9 14 ff ff ff       	jmp    13d9 <test1_dev_add+0xc9>
    14c5:	53                   	push   %ebx
    14c6:	53                   	push   %ebx
    14c7:	68 af a9 00 00       	push   $0xa9af
    14cc:	6a 01                	push   $0x1
    14ce:	e8 4d 15 00 00       	call   2a20 <ddf_msg>
    14d3:	83 c4 10             	add    $0x10,%esp
    14d6:	c7 45 e0 fe ff ff ff 	movl   $0xfffffffe,-0x20(%ebp)
    14dd:	e9 f7 fe ff ff       	jmp    13d9 <test1_dev_add+0xc9>
    14e2:	8d b4 26 00 00 00 00 	lea    0x0(%esi,%eiz,1),%esi
    14e9:	8d bc 27 00 00 00 00 	lea    0x0(%edi,%eiz,1),%edi

000014f0 <test1_dev_gone>:
    14f0:	55                   	push   %ebp
    14f1:	89 e5                	mov    %esp,%ebp
    14f3:	56                   	push   %esi
    14f4:	53                   	push   %ebx
    14f5:	83 ec 1c             	sub    $0x1c,%esp
    14f8:	8b 5d 08             	mov    0x8(%ebp),%ebx
    14fb:	53                   	push   %ebx
    14fc:	e8 5f 0c 00 00       	call   2160 <ddf_dev_data_get>
    1501:	83 c4 0c             	add    $0xc,%esp
    1504:	89 c6                	mov    %eax,%esi
    1506:	53                   	push   %ebx
    1507:	68 7b aa 00 00       	push   $0xaa7b
    150c:	6a 04                	push   $0x4
    150e:	e8 0d 15 00 00       	call   2a20 <ddf_msg>
    1513:	8b 1e                	mov    (%esi),%ebx
    1515:	83 c4 10             	add    $0x10,%esp
    1518:	85 db                	test   %ebx,%ebx
    151a:	74 31                	je     154d <test1_dev_gone+0x5d>
    151c:	68 ad a9 00 00       	push   $0xa9ad
    1521:	53                   	push   %ebx
    1522:	68 90 aa 00 00       	push   $0xaa90
    1527:	6a 04                	push   $0x4
    1529:	e8 f2 14 00 00       	call   2a20 <ddf_msg>
    152e:	89 1c 24             	mov    %ebx,(%esp)
    1531:	e8 0a 11 00 00       	call   2640 <ddf_fun_unbind>
    1536:	83 c4 10             	add    $0x10,%esp
    1539:	85 c0                	test   %eax,%eax
    153b:	0f 85 87 00 00 00    	jne    15c8 <test1_dev_gone+0xd8>
    1541:	83 ec 0c             	sub    $0xc,%esp
    1544:	53                   	push   %ebx
    1545:	e8 96 0e 00 00       	call   23e0 <ddf_fun_destroy>
    154a:	83 c4 10             	add    $0x10,%esp
    154d:	8b 5e 04             	mov    0x4(%esi),%ebx
    1550:	85 db                	test   %ebx,%ebx
    1552:	74 2d                	je     1581 <test1_dev_gone+0x91>
    1554:	68 fc a9 00 00       	push   $0xa9fc
    1559:	53                   	push   %ebx
    155a:	68 90 aa 00 00       	push   $0xaa90
    155f:	6a 04                	push   $0x4
    1561:	e8 ba 14 00 00       	call   2a20 <ddf_msg>
    1566:	89 1c 24             	mov    %ebx,(%esp)
    1569:	e8 d2 10 00 00       	call   2640 <ddf_fun_unbind>
    156e:	83 c4 10             	add    $0x10,%esp
    1571:	85 c0                	test   %eax,%eax
    1573:	75 7b                	jne    15f0 <test1_dev_gone+0x100>
    1575:	83 ec 0c             	sub    $0xc,%esp
    1578:	53                   	push   %ebx
    1579:	e8 62 0e 00 00       	call   23e0 <ddf_fun_destroy>
    157e:	83 c4 10             	add    $0x10,%esp
    1581:	8b 5e 08             	mov    0x8(%esi),%ebx
    1584:	85 db                	test   %ebx,%ebx
    1586:	74 78                	je     1600 <test1_dev_gone+0x110>
    1588:	68 5f aa 00 00       	push   $0xaa5f
    158d:	53                   	push   %ebx
    158e:	68 90 aa 00 00       	push   $0xaa90
    1593:	6a 04                	push   $0x4
    1595:	e8 86 14 00 00       	call   2a20 <ddf_msg>
    159a:	89 1c 24             	mov    %ebx,(%esp)
    159d:	e8 9e 10 00 00       	call   2640 <ddf_fun_unbind>
    15a2:	83 c4 10             	add    $0x10,%esp
    15a5:	89 45 f4             	mov    %eax,-0xc(%ebp)
    15a8:	85 c0                	test   %eax,%eax
    15aa:	75 64                	jne    1610 <test1_dev_gone+0x120>
    15ac:	83 ec 0c             	sub    $0xc,%esp
    15af:	53                   	push   %ebx
    15b0:	e8 2b 0e 00 00       	call   23e0 <ddf_fun_destroy>
    15b5:	8b 45 f4             	mov    -0xc(%ebp),%eax
    15b8:	83 c4 10             	add    $0x10,%esp
    15bb:	8d 65 f8             	lea    -0x8(%ebp),%esp
    15be:	5b                   	pop    %ebx
    15bf:	5e                   	pop    %esi
    15c0:	5d                   	pop    %ebp
    15c1:	c3                   	ret    
    15c2:	8d b6 00 00 00 00    	lea    0x0(%esi),%esi
    15c8:	89 45 f4             	mov    %eax,-0xc(%ebp)
    15cb:	51                   	push   %ecx
    15cc:	68 ad a9 00 00       	push   $0xa9ad
    15d1:	68 a0 ab 00 00       	push   $0xaba0
    15d6:	6a 01                	push   $0x1
    15d8:	e8 43 14 00 00       	call   2a20 <ddf_msg>
    15dd:	8b 45 f4             	mov    -0xc(%ebp),%eax
    15e0:	83 c4 10             	add    $0x10,%esp
    15e3:	8d 65 f8             	lea    -0x8(%ebp),%esp
    15e6:	5b                   	pop    %ebx
    15e7:	5e                   	pop    %esi
    15e8:	5d                   	pop    %ebp
    15e9:	c3                   	ret    
    15ea:	8d b6 00 00 00 00    	lea    0x0(%esi),%esi
    15f0:	89 45 f4             	mov    %eax,-0xc(%ebp)
    15f3:	52                   	push   %edx
    15f4:	68 fc a9 00 00       	push   $0xa9fc
    15f9:	eb d6                	jmp    15d1 <test1_dev_gone+0xe1>
    15fb:	90                   	nop
    15fc:	8d 74 26 00          	lea    0x0(%esi,%eiz,1),%esi
    1600:	8d 65 f8             	lea    -0x8(%ebp),%esp
    1603:	31 c0                	xor    %eax,%eax
    1605:	5b                   	pop    %ebx
    1606:	5e                   	pop    %esi
    1607:	5d                   	pop    %ebp
    1608:	c3                   	ret    
    1609:	8d b4 26 00 00 00 00 	lea    0x0(%esi,%eiz,1),%esi
    1610:	50                   	push   %eax
    1611:	68 5f aa 00 00       	push   $0xaa5f
    1616:	eb b9                	jmp    15d1 <test1_dev_gone+0xe1>
    1618:	90                   	nop
    1619:	8d b4 26 00 00 00 00 	lea    0x0(%esi,%eiz,1),%esi

00001620 <test1_dev_remove>:
    1620:	55                   	push   %ebp
    1621:	89 e5                	mov    %esp,%ebp
    1623:	56                   	push   %esi
    1624:	53                   	push   %ebx
    1625:	83 ec 1c             	sub    $0x1c,%esp
    1628:	8b 5d 08             	mov    0x8(%ebp),%ebx
    162b:	53                   	push   %ebx
    162c:	e8 2f 0b 00 00       	call   2160 <ddf_dev_data_get>
    1631:	83 c4 0c             	add    $0xc,%esp
    1634:	89 c6                	mov    %eax,%esi
    1636:	53                   	push   %ebx
    1637:	68 7b aa 00 00       	push   $0xaa7b
    163c:	6a 04                	push   $0x4
    163e:	e8 dd 13 00 00       	call   2a20 <ddf_msg>
    1643:	8b 1e                	mov    (%esi),%ebx
    1645:	83 c4 10             	add    $0x10,%esp
    1648:	85 db                	test   %ebx,%ebx
    164a:	74 45                	je     1691 <test1_dev_remove+0x71>
    164c:	68 ad a9 00 00       	push   $0xa9ad
    1651:	53                   	push   %ebx
    1652:	68 a5 aa 00 00       	push   $0xaaa5
    1657:	6a 04                	push   $0x4
    1659:	e8 c2 13 00 00       	call   2a20 <ddf_msg>
    165e:	89 1c 24             	mov    %ebx,(%esp)
    1661:	e8 aa 10 00 00       	call   2710 <ddf_fun_offline>
    1666:	83 c4 10             	add    $0x10,%esp
    1669:	85 c0                	test   %eax,%eax
    166b:	0f 85 cf 00 00 00    	jne    1740 <test1_dev_remove+0x120>
    1671:	83 ec 0c             	sub    $0xc,%esp
    1674:	53                   	push   %ebx
    1675:	e8 c6 0f 00 00       	call   2640 <ddf_fun_unbind>
    167a:	83 c4 10             	add    $0x10,%esp
    167d:	85 c0                	test   %eax,%eax
    167f:	0f 85 33 01 00 00    	jne    17b8 <test1_dev_remove+0x198>
    1685:	83 ec 0c             	sub    $0xc,%esp
    1688:	53                   	push   %ebx
    1689:	e8 52 0d 00 00       	call   23e0 <ddf_fun_destroy>
    168e:	83 c4 10             	add    $0x10,%esp
    1691:	8b 5e 04             	mov    0x4(%esi),%ebx
    1694:	85 db                	test   %ebx,%ebx
    1696:	74 45                	je     16dd <test1_dev_remove+0xbd>
    1698:	68 fc a9 00 00       	push   $0xa9fc
    169d:	53                   	push   %ebx
    169e:	68 a5 aa 00 00       	push   $0xaaa5
    16a3:	6a 04                	push   $0x4
    16a5:	e8 76 13 00 00       	call   2a20 <ddf_msg>
    16aa:	89 1c 24             	mov    %ebx,(%esp)
    16ad:	e8 5e 10 00 00       	call   2710 <ddf_fun_offline>
    16b2:	83 c4 10             	add    $0x10,%esp
    16b5:	85 c0                	test   %eax,%eax
    16b7:	0f 85 ab 00 00 00    	jne    1768 <test1_dev_remove+0x148>
    16bd:	83 ec 0c             	sub    $0xc,%esp
    16c0:	53                   	push   %ebx
    16c1:	e8 7a 0f 00 00       	call   2640 <ddf_fun_unbind>
    16c6:	83 c4 10             	add    $0x10,%esp
    16c9:	85 c0                	test   %eax,%eax
    16cb:	0f 85 a7 00 00 00    	jne    1778 <test1_dev_remove+0x158>
    16d1:	83 ec 0c             	sub    $0xc,%esp
    16d4:	53                   	push   %ebx
    16d5:	e8 06 0d 00 00       	call   23e0 <ddf_fun_destroy>
    16da:	83 c4 10             	add    $0x10,%esp
    16dd:	8b 5e 08             	mov    0x8(%esi),%ebx
    16e0:	85 db                	test   %ebx,%ebx
    16e2:	0f 84 b8 00 00 00    	je     17a0 <test1_dev_remove+0x180>
    16e8:	68 5f aa 00 00       	push   $0xaa5f
    16ed:	53                   	push   %ebx
    16ee:	68 a5 aa 00 00       	push   $0xaaa5
    16f3:	6a 04                	push   $0x4
    16f5:	e8 26 13 00 00       	call   2a20 <ddf_msg>
    16fa:	89 1c 24             	mov    %ebx,(%esp)
    16fd:	e8 0e 10 00 00       	call   2710 <ddf_fun_offline>
    1702:	83 c4 10             	add    $0x10,%esp
    1705:	85 c0                	test   %eax,%eax
    1707:	0f 85 bb 00 00 00    	jne    17c8 <test1_dev_remove+0x1a8>
    170d:	83 ec 0c             	sub    $0xc,%esp
    1710:	53                   	push   %ebx
    1711:	e8 2a 0f 00 00       	call   2640 <ddf_fun_unbind>
    1716:	83 c4 10             	add    $0x10,%esp
    1719:	89 45 f4             	mov    %eax,-0xc(%ebp)
    171c:	85 c0                	test   %eax,%eax
    171e:	0f 85 8c 00 00 00    	jne    17b0 <test1_dev_remove+0x190>
    1724:	83 ec 0c             	sub    $0xc,%esp
    1727:	53                   	push   %ebx
    1728:	e8 b3 0c 00 00       	call   23e0 <ddf_fun_destroy>
    172d:	8b 45 f4             	mov    -0xc(%ebp),%eax
    1730:	83 c4 10             	add    $0x10,%esp
    1733:	8d 65 f8             	lea    -0x8(%ebp),%esp
    1736:	5b                   	pop    %ebx
    1737:	5e                   	pop    %esi
    1738:	5d                   	pop    %ebp
    1739:	c3                   	ret    
    173a:	8d b6 00 00 00 00    	lea    0x0(%esi),%esi
    1740:	89 45 f4             	mov    %eax,-0xc(%ebp)
    1743:	50                   	push   %eax
    1744:	68 ad a9 00 00       	push   $0xa9ad
    1749:	68 c0 ab 00 00       	push   $0xabc0
    174e:	6a 01                	push   $0x1
    1750:	e8 cb 12 00 00       	call   2a20 <ddf_msg>
    1755:	8b 45 f4             	mov    -0xc(%ebp),%eax
    1758:	83 c4 10             	add    $0x10,%esp
    175b:	8d 65 f8             	lea    -0x8(%ebp),%esp
    175e:	5b                   	pop    %ebx
    175f:	5e                   	pop    %esi
    1760:	5d                   	pop    %ebp
    1761:	c3                   	ret    
    1762:	8d b6 00 00 00 00    	lea    0x0(%esi),%esi
    1768:	89 45 f4             	mov    %eax,-0xc(%ebp)
    176b:	53                   	push   %ebx
    176c:	68 fc a9 00 00       	push   $0xa9fc
    1771:	eb d6                	jmp    1749 <test1_dev_remove+0x129>
    1773:	90                   	nop
    1774:	8d 74 26 00          	lea    0x0(%esi,%eiz,1),%esi
    1778:	89 45 f4             	mov    %eax,-0xc(%ebp)
    177b:	51                   	push   %ecx
    177c:	68 fc a9 00 00       	push   $0xa9fc
    1781:	68 a0 ab 00 00       	push   $0xaba0
    1786:	6a 01                	push   $0x1
    1788:	e8 93 12 00 00       	call   2a20 <ddf_msg>
    178d:	8b 45 f4             	mov    -0xc(%ebp),%eax
    1790:	83 c4 10             	add    $0x10,%esp
    1793:	8d 65 f8             	lea    -0x8(%ebp),%esp
    1796:	5b                   	pop    %ebx
    1797:	5e                   	pop    %esi
    1798:	5d                   	pop    %ebp
    1799:	c3                   	ret    
    179a:	8d b6 00 00 00 00    	lea    0x0(%esi),%esi
    17a0:	8d 65 f8             	lea    -0x8(%ebp),%esp
    17a3:	31 c0                	xor    %eax,%eax
    17a5:	5b                   	pop    %ebx
    17a6:	5e                   	pop    %esi
    17a7:	5d                   	pop    %ebp
    17a8:	c3                   	ret    
    17a9:	8d b4 26 00 00 00 00 	lea    0x0(%esi,%eiz,1),%esi
    17b0:	50                   	push   %eax
    17b1:	68 5f aa 00 00       	push   $0xaa5f
    17b6:	eb c9                	jmp    1781 <test1_dev_remove+0x161>
    17b8:	89 45 f4             	mov    %eax,-0xc(%ebp)
    17bb:	56                   	push   %esi
    17bc:	68 ad a9 00 00       	push   $0xa9ad
    17c1:	eb be                	jmp    1781 <test1_dev_remove+0x161>
    17c3:	90                   	nop
    17c4:	8d 74 26 00          	lea    0x0(%esi,%eiz,1),%esi
    17c8:	89 45 f4             	mov    %eax,-0xc(%ebp)
    17cb:	52                   	push   %edx
    17cc:	68 5f aa 00 00       	push   $0xaa5f
    17d1:	e9 73 ff ff ff       	jmp    1749 <test1_dev_remove+0x129>
    17d6:	66 90                	xchg   %ax,%ax
    17d8:	66 90                	xchg   %ax,%ax
    17da:	66 90                	xchg   %ax,%ax
    17dc:	66 90                	xchg   %ax,%ax
    17de:	66 90                	xchg   %ax,%ax

000017e0 <main>:
    17e0:	8d 4c 24 04          	lea    0x4(%esp),%ecx
    17e4:	83 e4 f0             	and    $0xfffffff0,%esp
    17e7:	ff 71 fc             	pushl  -0x4(%ecx)
    17ea:	55                   	push   %ebp
    17eb:	89 e5                	mov    %esp,%ebp
    17ed:	51                   	push   %ecx
    17ee:	83 ec 10             	sub    $0x10,%esp
    17f1:	68 e0 ab 00 00       	push   $0xabe0
    17f6:	e8 45 b1 00 00       	call   c940 <printf@plt>
    17fb:	c7 04 24 1d aa 00 00 	movl   $0xaa1d,(%esp)
    1802:	e8 09 12 00 00       	call   2a10 <ddf_log_init>
    1807:	c7 04 24 f0 eb 00 00 	movl   $0xebf0,(%esp)
    180e:	e8 9d 10 00 00       	call   28b0 <ddf_driver_main>
    1813:	8b 4d fc             	mov    -0x4(%ebp),%ecx
    1816:	c9                   	leave  
    1817:	8d 61 fc             	lea    -0x4(%ecx),%esp
    181a:	c3                   	ret    
    181b:	66 90                	xchg   %ax,%ax
    181d:	66 90                	xchg   %ax,%ax
    181f:	90                   	nop

00001820 <fun_del_ref>:
    1820:	55                   	push   %ebp
    1821:	83 ca ff             	or     $0xffffffff,%edx
    1824:	89 e5                	mov    %esp,%ebp
    1826:	57                   	push   %edi
    1827:	56                   	push   %esi
    1828:	53                   	push   %ebx
    1829:	83 ec 1c             	sub    $0x1c,%esp
    182c:	8b 70 0c             	mov    0xc(%eax),%esi
    182f:	f0 0f c1 50 08       	lock xadd %edx,0x8(%eax)
    1834:	4a                   	dec    %edx
    1835:	74 69                	je     18a0 <fun_del_ref+0x80>
    1837:	83 c8 ff             	or     $0xffffffff,%eax
    183a:	f0 0f c1 46 04       	lock xadd %eax,0x4(%esi)
    183f:	48                   	dec    %eax
    1840:	74 0e                	je     1850 <fun_del_ref+0x30>
    1842:	8d 65 f4             	lea    -0xc(%ebp),%esp
    1845:	5b                   	pop    %ebx
    1846:	5e                   	pop    %esi
    1847:	5f                   	pop    %edi
    1848:	5d                   	pop    %ebp
    1849:	c3                   	ret    
    184a:	8d b6 00 00 00 00    	lea    0x0(%esi),%esi
    1850:	8b 46 08             	mov    0x8(%esi),%eax
    1853:	85 c0                	test   %eax,%eax
    1855:	74 0c                	je     1863 <fun_del_ref+0x43>
    1857:	83 ec 0c             	sub    $0xc,%esp
    185a:	50                   	push   %eax
    185b:	e8 f0 b0 00 00       	call   c950 <async_hangup@plt>
    1860:	83 c4 10             	add    $0x10,%esp
    1863:	8b 46 10             	mov    0x10(%esi),%eax
    1866:	85 c0                	test   %eax,%eax
    1868:	74 0c                	je     1876 <fun_del_ref+0x56>
    186a:	83 ec 0c             	sub    $0xc,%esp
    186d:	50                   	push   %eax
    186e:	e8 0d b5 00 00       	call   cd80 <free@plt>
    1873:	83 c4 10             	add    $0x10,%esp
    1876:	8b 46 0c             	mov    0xc(%esi),%eax
    1879:	85 c0                	test   %eax,%eax
    187b:	74 0c                	je     1889 <fun_del_ref+0x69>
    187d:	83 ec 0c             	sub    $0xc,%esp
    1880:	50                   	push   %eax
    1881:	e8 fa b4 00 00       	call   cd80 <free@plt>
    1886:	83 c4 10             	add    $0x10,%esp
    1889:	83 ec 0c             	sub    $0xc,%esp
    188c:	56                   	push   %esi
    188d:	e8 ee b4 00 00       	call   cd80 <free@plt>
    1892:	83 c4 10             	add    $0x10,%esp
    1895:	8d 65 f4             	lea    -0xc(%ebp),%esp
    1898:	5b                   	pop    %ebx
    1899:	5e                   	pop    %esi
    189a:	5f                   	pop    %edi
    189b:	5d                   	pop    %ebp
    189c:	c3                   	ret    
    189d:	8d 76 00             	lea    0x0(%esi),%esi
    18a0:	8b 58 1c             	mov    0x1c(%eax),%ebx
    18a3:	89 c7                	mov    %eax,%edi
    18a5:	8d 40 18             	lea    0x18(%eax),%eax
    18a8:	89 45 e4             	mov    %eax,-0x1c(%ebp)
    18ab:	39 d8                	cmp    %ebx,%eax
    18ad:	74 49                	je     18f8 <fun_del_ref+0xd8>
    18af:	90                   	nop
    18b0:	8b 0b                	mov    (%ebx),%ecx
    18b2:	85 c9                	test   %ecx,%ecx
    18b4:	74 0e                	je     18c4 <fun_del_ref+0xa4>
    18b6:	8b 53 04             	mov    0x4(%ebx),%edx
    18b9:	85 d2                	test   %edx,%edx
    18bb:	74 07                	je     18c4 <fun_del_ref+0xa4>
    18bd:	89 0a                	mov    %ecx,(%edx)
    18bf:	8b 0b                	mov    (%ebx),%ecx
    18c1:	89 51 04             	mov    %edx,0x4(%ecx)
    18c4:	8b 53 08             	mov    0x8(%ebx),%edx
    18c7:	c7 03 00 00 00 00    	movl   $0x0,(%ebx)
    18cd:	c7 43 04 00 00 00 00 	movl   $0x0,0x4(%ebx)
    18d4:	85 d2                	test   %edx,%edx
    18d6:	74 0c                	je     18e4 <fun_del_ref+0xc4>
    18d8:	83 ec 0c             	sub    $0xc,%esp
    18db:	52                   	push   %edx
    18dc:	e8 9f b4 00 00       	call   cd80 <free@plt>
    18e1:	83 c4 10             	add    $0x10,%esp
    18e4:	83 ec 0c             	sub    $0xc,%esp
    18e7:	53                   	push   %ebx
    18e8:	e8 93 b4 00 00       	call   cd80 <free@plt>
    18ed:	8b 5f 1c             	mov    0x1c(%edi),%ebx
    18f0:	83 c4 10             	add    $0x10,%esp
    18f3:	3b 5d e4             	cmp    -0x1c(%ebp),%ebx
    18f6:	75 b8                	jne    18b0 <fun_del_ref+0x90>
    18f8:	8b 57 20             	mov    0x20(%edi),%edx
    18fb:	85 d2                	test   %edx,%edx
    18fd:	74 0c                	je     190b <fun_del_ref+0xeb>
    18ff:	83 ec 0c             	sub    $0xc,%esp
    1902:	52                   	push   %edx
    1903:	e8 78 b4 00 00       	call   cd80 <free@plt>
    1908:	83 c4 10             	add    $0x10,%esp
    190b:	8b 57 14             	mov    0x14(%edi),%edx
    190e:	85 d2                	test   %edx,%edx
    1910:	74 0c                	je     191e <fun_del_ref+0xfe>
    1912:	83 ec 0c             	sub    $0xc,%esp
    1915:	52                   	push   %edx
    1916:	e8 65 b4 00 00       	call   cd80 <free@plt>
    191b:	83 c4 10             	add    $0x10,%esp
    191e:	83 ec 0c             	sub    $0xc,%esp
    1921:	57                   	push   %edi
    1922:	e8 59 b4 00 00       	call   cd80 <free@plt>
    1927:	83 c4 10             	add    $0x10,%esp
    192a:	e9 08 ff ff ff       	jmp    1837 <fun_del_ref+0x17>
    192f:	90                   	nop

00001930 <driver_connection_gen.constprop.7>:
    1930:	55                   	push   %ebp
    1931:	89 e5                	mov    %esp,%ebp
    1933:	57                   	push   %edi
    1934:	56                   	push   %esi
    1935:	53                   	push   %ebx
    1936:	83 ec 58             	sub    $0x58,%esp
    1939:	89 d3                	mov    %edx,%ebx
    193b:	8b 72 08             	mov    0x8(%edx),%esi
    193e:	89 45 b4             	mov    %eax,-0x4c(%ebp)
    1941:	68 0c ec 00 00       	push   $0xec0c
    1946:	e8 55 b4 00 00       	call   cda0 <fibril_mutex_lock@plt>
    194b:	c7 04 24 0c ec 00 00 	movl   $0xec0c,(%esp)
    1952:	e8 59 b0 00 00       	call   c9b0 <fibril_mutex_is_locked@plt>
    1957:	83 c4 10             	add    $0x10,%esp
    195a:	84 c0                	test   %al,%al
    195c:	0f 84 71 02 00 00    	je     1bd3 <driver_connection_gen.constprop.7+0x2a3>
    1962:	a1 20 ec 00 00       	mov    0xec20,%eax
    1967:	3d 1c ec 00 00       	cmp    $0xec1c,%eax
    196c:	8d 78 d4             	lea    -0x2c(%eax),%edi
    196f:	75 18                	jne    1989 <driver_connection_gen.constprop.7+0x59>
    1971:	e9 22 02 00 00       	jmp    1b98 <driver_connection_gen.constprop.7+0x268>
    1976:	66 90                	xchg   %ax,%ax
    1978:	8b 40 04             	mov    0x4(%eax),%eax
    197b:	3d 1c ec 00 00       	cmp    $0xec1c,%eax
    1980:	8d 78 d4             	lea    -0x2c(%eax),%edi
    1983:	0f 84 0f 02 00 00    	je     1b98 <driver_connection_gen.constprop.7+0x268>
    1989:	3b 77 04             	cmp    0x4(%edi),%esi
    198c:	75 ea                	jne    1978 <driver_connection_gen.constprop.7+0x48>
    198e:	8b 47 0c             	mov    0xc(%edi),%eax
    1991:	f0 ff 40 04          	lock incl 0x4(%eax)
    1995:	f0 ff 47 08          	lock incl 0x8(%edi)
    1999:	83 ec 0c             	sub    $0xc,%esp
    199c:	68 0c ec 00 00       	push   $0xec0c
    19a1:	e8 8a b1 00 00       	call   cb30 <fibril_mutex_unlock@plt>
    19a6:	8b 47 28             	mov    0x28(%edi),%eax
    19a9:	83 c4 10             	add    $0x10,%esp
    19ac:	85 c0                	test   %eax,%eax
    19ae:	74 20                	je     19d0 <driver_connection_gen.constprop.7+0xa0>
    19b0:	8b 55 b4             	mov    -0x4c(%ebp),%edx
    19b3:	56                   	push   %esi
    19b4:	57                   	push   %edi
    19b5:	53                   	push   %ebx
    19b6:	52                   	push   %edx
    19b7:	ff d0                	call   *%eax
    19b9:	89 f8                	mov    %edi,%eax
    19bb:	e8 60 fe ff ff       	call   1820 <fun_del_ref>
    19c0:	83 c4 10             	add    $0x10,%esp
    19c3:	8d 65 f4             	lea    -0xc(%ebp),%esp
    19c6:	5b                   	pop    %ebx
    19c7:	5e                   	pop    %esi
    19c8:	5f                   	pop    %edi
    19c9:	5d                   	pop    %ebp
    19ca:	c3                   	ret    
    19cb:	90                   	nop
    19cc:	8d 74 26 00          	lea    0x0(%esi,%eiz,1),%esi
    19d0:	8b 47 24             	mov    0x24(%edi),%eax
    19d3:	85 c0                	test   %eax,%eax
    19d5:	0f 84 a5 01 00 00    	je     1b80 <driver_connection_gen.constprop.7+0x250>
    19db:	8b 00                	mov    (%eax),%eax
    19dd:	85 c0                	test   %eax,%eax
    19df:	0f 84 9b 01 00 00    	je     1b80 <driver_connection_gen.constprop.7+0x250>
    19e5:	83 ec 0c             	sub    $0xc,%esp
    19e8:	57                   	push   %edi
    19e9:	ff d0                	call   *%eax
    19eb:	8b 4d b4             	mov    -0x4c(%ebp),%ecx
    19ee:	89 c3                	mov    %eax,%ebx
    19f0:	58                   	pop    %eax
    19f1:	5a                   	pop    %edx
    19f2:	53                   	push   %ebx
    19f3:	51                   	push   %ecx
    19f4:	e8 47 b0 00 00       	call   ca40 <async_answer_0@plt>
    19f9:	83 c4 10             	add    $0x10,%esp
    19fc:	85 db                	test   %ebx,%ebx
    19fe:	0f 85 70 01 00 00    	jne    1b74 <driver_connection_gen.constprop.7+0x244>
    1a04:	8d 74 26 00          	lea    0x0(%esi,%eiz,1),%esi
    1a08:	50                   	push   %eax
    1a09:	50                   	push   %eax
    1a0a:	8d 45 c4             	lea    -0x3c(%ebp),%eax
    1a0d:	6a 00                	push   $0x0
    1a0f:	50                   	push   %eax
    1a10:	e8 3b b2 00 00       	call   cc50 <async_get_call_timeout@plt>
    1a15:	8b 5d c4             	mov    -0x3c(%ebp),%ebx
    1a18:	83 c4 10             	add    $0x10,%esp
    1a1b:	89 45 b4             	mov    %eax,-0x4c(%ebp)
    1a1e:	85 db                	test   %ebx,%ebx
    1a20:	0f 84 e2 00 00 00    	je     1b08 <driver_connection_gen.constprop.7+0x1d8>
    1a26:	83 ec 0c             	sub    $0xc,%esp
    1a29:	81 eb 00 04 00 00    	sub    $0x400,%ebx
    1a2f:	53                   	push   %ebx
    1a30:	e8 cb 0f 00 00       	call   2a00 <is_valid_iface_idx>
    1a35:	83 c4 10             	add    $0x10,%esp
    1a38:	84 c0                	test   %al,%al
    1a3a:	75 2c                	jne    1a68 <driver_connection_gen.constprop.7+0x138>
    1a3c:	8b 47 24             	mov    0x24(%edi),%eax
    1a3f:	85 c0                	test   %eax,%eax
    1a41:	0f 84 91 00 00 00    	je     1ad8 <driver_connection_gen.constprop.7+0x1a8>
    1a47:	8b 40 44             	mov    0x44(%eax),%eax
    1a4a:	85 c0                	test   %eax,%eax
    1a4c:	0f 84 86 00 00 00    	je     1ad8 <driver_connection_gen.constprop.7+0x1a8>
    1a52:	8d 4d c4             	lea    -0x3c(%ebp),%ecx
    1a55:	52                   	push   %edx
    1a56:	51                   	push   %ecx
    1a57:	8b 4d b4             	mov    -0x4c(%ebp),%ecx
    1a5a:	51                   	push   %ecx
    1a5b:	57                   	push   %edi
    1a5c:	ff d0                	call   *%eax
    1a5e:	83 c4 10             	add    $0x10,%esp
    1a61:	eb a5                	jmp    1a08 <driver_connection_gen.constprop.7+0xd8>
    1a63:	90                   	nop
    1a64:	8d 74 26 00          	lea    0x0(%esi,%eiz,1),%esi
    1a68:	83 ec 0c             	sub    $0xc,%esp
    1a6b:	53                   	push   %ebx
    1a6c:	e8 8f 0f 00 00       	call   2a00 <is_valid_iface_idx>
    1a71:	83 c4 10             	add    $0x10,%esp
    1a74:	84 c0                	test   %al,%al
    1a76:	0f 84 69 01 00 00    	je     1be5 <driver_connection_gen.constprop.7+0x2b5>
    1a7c:	8b 47 24             	mov    0x24(%edi),%eax
    1a7f:	85 c0                	test   %eax,%eax
    1a81:	0f 84 b9 00 00 00    	je     1b40 <driver_connection_gen.constprop.7+0x210>
    1a87:	8b 44 98 08          	mov    0x8(%eax,%ebx,4),%eax
    1a8b:	89 45 b0             	mov    %eax,-0x50(%ebp)
    1a8e:	85 c0                	test   %eax,%eax
    1a90:	0f 84 aa 00 00 00    	je     1b40 <driver_connection_gen.constprop.7+0x210>
    1a96:	83 ec 0c             	sub    $0xc,%esp
    1a99:	53                   	push   %ebx
    1a9a:	e8 11 0f 00 00       	call   29b0 <get_remote_iface>
    1a9f:	83 c4 10             	add    $0x10,%esp
    1aa2:	85 c0                	test   %eax,%eax
    1aa4:	0f 84 50 01 00 00    	je     1bfa <driver_connection_gen.constprop.7+0x2ca>
    1aaa:	8b 4d c8             	mov    -0x38(%ebp),%ecx
    1aad:	52                   	push   %edx
    1aae:	52                   	push   %edx
    1aaf:	51                   	push   %ecx
    1ab0:	50                   	push   %eax
    1ab1:	e8 2a 0f 00 00       	call   29e0 <get_remote_method>
    1ab6:	83 c4 10             	add    $0x10,%esp
    1ab9:	85 c0                	test   %eax,%eax
    1abb:	0f 84 9f 00 00 00    	je     1b60 <driver_connection_gen.constprop.7+0x230>
    1ac1:	8d 55 c4             	lea    -0x3c(%ebp),%edx
    1ac4:	8b 4d b0             	mov    -0x50(%ebp),%ecx
    1ac7:	52                   	push   %edx
    1ac8:	8b 55 b4             	mov    -0x4c(%ebp),%edx
    1acb:	52                   	push   %edx
    1acc:	51                   	push   %ecx
    1acd:	57                   	push   %edi
    1ace:	ff d0                	call   *%eax
    1ad0:	83 c4 10             	add    $0x10,%esp
    1ad3:	e9 30 ff ff ff       	jmp    1a08 <driver_connection_gen.constprop.7+0xd8>
    1ad8:	50                   	push   %eax
    1ad9:	a1 90 ed 00 00       	mov    0xed90,%eax
    1ade:	53                   	push   %ebx
    1adf:	8b 00                	mov    (%eax),%eax
    1ae1:	50                   	push   %eax
    1ae2:	68 90 ad 00 00       	push   $0xad90
    1ae7:	e8 54 ae 00 00       	call   c940 <printf@plt>
    1aec:	5b                   	pop    %ebx
    1aed:	58                   	pop    %eax
    1aee:	8b 45 b4             	mov    -0x4c(%ebp),%eax
    1af1:	6a f5                	push   $0xfffffff5
    1af3:	50                   	push   %eax
    1af4:	e8 47 af 00 00       	call   ca40 <async_answer_0@plt>
    1af9:	83 c4 10             	add    $0x10,%esp
    1afc:	e9 07 ff ff ff       	jmp    1a08 <driver_connection_gen.constprop.7+0xd8>
    1b01:	8d b4 26 00 00 00 00 	lea    0x0(%esi,%eiz,1),%esi
    1b08:	8b 47 24             	mov    0x24(%edi),%eax
    1b0b:	85 c0                	test   %eax,%eax
    1b0d:	74 10                	je     1b1f <driver_connection_gen.constprop.7+0x1ef>
    1b0f:	8b 40 04             	mov    0x4(%eax),%eax
    1b12:	85 c0                	test   %eax,%eax
    1b14:	74 09                	je     1b1f <driver_connection_gen.constprop.7+0x1ef>
    1b16:	83 ec 0c             	sub    $0xc,%esp
    1b19:	57                   	push   %edi
    1b1a:	ff d0                	call   *%eax
    1b1c:	83 c4 10             	add    $0x10,%esp
    1b1f:	8b 75 b4             	mov    -0x4c(%ebp),%esi
    1b22:	53                   	push   %ebx
    1b23:	53                   	push   %ebx
    1b24:	6a 00                	push   $0x0
    1b26:	56                   	push   %esi
    1b27:	e8 14 af 00 00       	call   ca40 <async_answer_0@plt>
    1b2c:	89 f8                	mov    %edi,%eax
    1b2e:	e8 ed fc ff ff       	call   1820 <fun_del_ref>
    1b33:	83 c4 10             	add    $0x10,%esp
    1b36:	8d 65 f4             	lea    -0xc(%ebp),%esp
    1b39:	5b                   	pop    %ebx
    1b3a:	5e                   	pop    %esi
    1b3b:	5f                   	pop    %edi
    1b3c:	5d                   	pop    %ebp
    1b3d:	c3                   	ret    
    1b3e:	66 90                	xchg   %ax,%ax
    1b40:	50                   	push   %eax
    1b41:	50                   	push   %eax
    1b42:	a1 90 ed 00 00       	mov    0xed90,%eax
    1b47:	8b 00                	mov    (%eax),%eax
    1b49:	50                   	push   %eax
    1b4a:	68 cc ad 00 00       	push   $0xadcc
    1b4f:	e8 ec ad 00 00       	call   c940 <printf@plt>
    1b54:	83 c4 0c             	add    $0xc,%esp
    1b57:	53                   	push   %ebx
    1b58:	56                   	push   %esi
    1b59:	68 f0 ad 00 00       	push   $0xadf0
    1b5e:	eb 87                	jmp    1ae7 <driver_connection_gen.constprop.7+0x1b7>
    1b60:	50                   	push   %eax
    1b61:	50                   	push   %eax
    1b62:	a1 90 ed 00 00       	mov    0xed90,%eax
    1b67:	8b 00                	mov    (%eax),%eax
    1b69:	50                   	push   %eax
    1b6a:	68 28 ae 00 00       	push   $0xae28
    1b6f:	e9 73 ff ff ff       	jmp    1ae7 <driver_connection_gen.constprop.7+0x1b7>
    1b74:	89 f8                	mov    %edi,%eax
    1b76:	e8 a5 fc ff ff       	call   1820 <fun_del_ref>
    1b7b:	e9 43 fe ff ff       	jmp    19c3 <driver_connection_gen.constprop.7+0x93>
    1b80:	8b 55 b4             	mov    -0x4c(%ebp),%edx
    1b83:	50                   	push   %eax
    1b84:	50                   	push   %eax
    1b85:	6a 00                	push   $0x0
    1b87:	52                   	push   %edx
    1b88:	e8 b3 ae 00 00       	call   ca40 <async_answer_0@plt>
    1b8d:	83 c4 10             	add    $0x10,%esp
    1b90:	e9 73 fe ff ff       	jmp    1a08 <driver_connection_gen.constprop.7+0xd8>
    1b95:	8d 76 00             	lea    0x0(%esi),%esi
    1b98:	83 ec 0c             	sub    $0xc,%esp
    1b9b:	68 0c ec 00 00       	push   $0xec0c
    1ba0:	e8 8b af 00 00       	call   cb30 <fibril_mutex_unlock@plt>
    1ba5:	a1 90 ed 00 00       	mov    0xed90,%eax
    1baa:	83 c4 0c             	add    $0xc,%esp
    1bad:	8b 08                	mov    (%eax),%ecx
    1baf:	56                   	push   %esi
    1bb0:	51                   	push   %ecx
    1bb1:	68 64 ae 00 00       	push   $0xae64
    1bb6:	e8 85 ad 00 00       	call   c940 <printf@plt>
    1bbb:	8b 7d b4             	mov    -0x4c(%ebp),%edi
    1bbe:	5b                   	pop    %ebx
    1bbf:	5e                   	pop    %esi
    1bc0:	6a ff                	push   $0xffffffff
    1bc2:	57                   	push   %edi
    1bc3:	e8 78 ae 00 00       	call   ca40 <async_answer_0@plt>
    1bc8:	83 c4 10             	add    $0x10,%esp
    1bcb:	8d 65 f4             	lea    -0xc(%ebp),%esp
    1bce:	5b                   	pop    %ebx
    1bcf:	5e                   	pop    %esi
    1bd0:	5f                   	pop    %edi
    1bd1:	5d                   	pop    %ebp
    1bd2:	c3                   	ret    
    1bd3:	51                   	push   %ecx
    1bd4:	6a 6b                	push   $0x6b
    1bd6:	68 0c ac 00 00       	push   $0xac0c
    1bdb:	68 64 ad 00 00       	push   $0xad64
    1be0:	e8 bb ae 00 00       	call   caa0 <assert_abort@plt>
    1be5:	50                   	push   %eax
    1be6:	68 fb 02 00 00       	push   $0x2fb
    1beb:	68 0c ac 00 00       	push   $0xac0c
    1bf0:	68 1d ac 00 00       	push   $0xac1d
    1bf5:	e8 a6 ae 00 00       	call   caa0 <assert_abort@plt>
    1bfa:	53                   	push   %ebx
    1bfb:	68 aa 01 00 00       	push   $0x1aa
    1c00:	68 0c ac 00 00       	push   $0xac0c
    1c05:	68 35 ac 00 00       	push   $0xac35
    1c0a:	e8 91 ae 00 00       	call   caa0 <assert_abort@plt>
    1c0f:	90                   	nop

00001c10 <driver_connection_driver>:
    1c10:	55                   	push   %ebp
    1c11:	89 e5                	mov    %esp,%ebp
    1c13:	8b 55 0c             	mov    0xc(%ebp),%edx
    1c16:	8b 45 08             	mov    0x8(%ebp),%eax
    1c19:	5d                   	pop    %ebp
    1c1a:	e9 11 fd ff ff       	jmp    1930 <driver_connection_gen.constprop.7>
    1c1f:	90                   	nop

00001c20 <driver_connection_client>:
    1c20:	55                   	push   %ebp
    1c21:	89 e5                	mov    %esp,%ebp
    1c23:	8b 55 0c             	mov    0xc(%ebp),%edx
    1c26:	8b 45 08             	mov    0x8(%ebp),%eax
    1c29:	5d                   	pop    %ebp
    1c2a:	e9 01 fd ff ff       	jmp    1930 <driver_connection_gen.constprop.7>
    1c2f:	90                   	nop

00001c30 <driver_connection_devman>:
    1c30:	55                   	push   %ebp
    1c31:	89 e5                	mov    %esp,%ebp
    1c33:	57                   	push   %edi
    1c34:	56                   	push   %esi
    1c35:	53                   	push   %ebx
    1c36:	83 ec 54             	sub    $0x54,%esp
    1c39:	8d 75 c4             	lea    -0x3c(%ebp),%esi
    1c3c:	8b 45 08             	mov    0x8(%ebp),%eax
    1c3f:	6a 00                	push   $0x0
    1c41:	50                   	push   %eax
    1c42:	e8 f9 ad 00 00       	call   ca40 <async_answer_0@plt>
    1c47:	83 c4 10             	add    $0x10,%esp
    1c4a:	8d b6 00 00 00 00    	lea    0x0(%esi),%esi
    1c50:	50                   	push   %eax
    1c51:	50                   	push   %eax
    1c52:	6a 00                	push   $0x0
    1c54:	56                   	push   %esi
    1c55:	e8 f6 af 00 00       	call   cc50 <async_get_call_timeout@plt>
    1c5a:	83 c4 10             	add    $0x10,%esp
    1c5d:	89 c3                	mov    %eax,%ebx
    1c5f:	8b 45 c4             	mov    -0x3c(%ebp),%eax
    1c62:	85 c0                	test   %eax,%eax
    1c64:	0f 84 de 03 00 00    	je     2048 <driver_connection_devman+0x418>
    1c6a:	2d 00 04 00 00       	sub    $0x400,%eax
    1c6f:	83 f8 04             	cmp    $0x4,%eax
    1c72:	0f 87 b8 03 00 00    	ja     2030 <driver_connection_devman+0x400>
    1c78:	8b 7d c8             	mov    -0x38(%ebp),%edi
    1c7b:	ff 24 85 14 af 00 00 	jmp    *0xaf14(,%eax,4)
    1c82:	8d b6 00 00 00 00    	lea    0x0(%esi),%esi
    1c88:	83 ec 0c             	sub    $0xc,%esp
    1c8b:	68 0c ec 00 00       	push   $0xec0c
    1c90:	e8 0b b1 00 00       	call   cda0 <fibril_mutex_lock@plt>
    1c95:	c7 04 24 0c ec 00 00 	movl   $0xec0c,(%esp)
    1c9c:	e8 0f ad 00 00       	call   c9b0 <fibril_mutex_is_locked@plt>
    1ca1:	83 c4 10             	add    $0x10,%esp
    1ca4:	84 c0                	test   %al,%al
    1ca6:	0f 84 5a 04 00 00    	je     2106 <driver_connection_devman+0x4d6>
    1cac:	a1 20 ec 00 00       	mov    0xec20,%eax
    1cb1:	3d 1c ec 00 00       	cmp    $0xec1c,%eax
    1cb6:	8d 50 d4             	lea    -0x2c(%eax),%edx
    1cb9:	75 16                	jne    1cd1 <driver_connection_devman+0xa1>
    1cbb:	e9 90 03 00 00       	jmp    2050 <driver_connection_devman+0x420>
    1cc0:	8b 40 04             	mov    0x4(%eax),%eax
    1cc3:	3d 1c ec 00 00       	cmp    $0xec1c,%eax
    1cc8:	8d 50 d4             	lea    -0x2c(%eax),%edx
    1ccb:	0f 84 7f 03 00 00    	je     2050 <driver_connection_devman+0x420>
    1cd1:	3b 7a 04             	cmp    0x4(%edx),%edi
    1cd4:	75 ea                	jne    1cc0 <driver_connection_devman+0x90>
    1cd6:	8b 42 0c             	mov    0xc(%edx),%eax
    1cd9:	f0 ff 40 04          	lock incl 0x4(%eax)
    1cdd:	f0 ff 42 08          	lock incl 0x8(%edx)
    1ce1:	83 ec 0c             	sub    $0xc,%esp
    1ce4:	89 55 b4             	mov    %edx,-0x4c(%ebp)
    1ce7:	68 0c ec 00 00       	push   $0xec0c
    1cec:	e8 3f ae 00 00       	call   cb30 <fibril_mutex_unlock@plt>
    1cf1:	a1 90 ed 00 00       	mov    0xed90,%eax
    1cf6:	83 c4 10             	add    $0x10,%esp
    1cf9:	8b 55 b4             	mov    -0x4c(%ebp),%edx
    1cfc:	8b 40 04             	mov    0x4(%eax),%eax
    1cff:	8b 40 0c             	mov    0xc(%eax),%eax
    1d02:	85 c0                	test   %eax,%eax
    1d04:	0f 84 76 03 00 00    	je     2080 <driver_connection_devman+0x450>
    1d0a:	83 ec 0c             	sub    $0xc,%esp
    1d0d:	52                   	push   %edx
    1d0e:	ff d0                	call   *%eax
    1d10:	83 c4 10             	add    $0x10,%esp
    1d13:	89 c7                	mov    %eax,%edi
    1d15:	8b 55 b4             	mov    -0x4c(%ebp),%edx
    1d18:	89 d0                	mov    %edx,%eax
    1d1a:	e8 01 fb ff ff       	call   1820 <fun_del_ref>
    1d1f:	51                   	push   %ecx
    1d20:	51                   	push   %ecx
    1d21:	57                   	push   %edi
    1d22:	53                   	push   %ebx
    1d23:	e8 18 ad 00 00       	call   ca40 <async_answer_0@plt>
    1d28:	83 c4 10             	add    $0x10,%esp
    1d2b:	e9 20 ff ff ff       	jmp    1c50 <driver_connection_devman+0x20>
    1d30:	83 ec 0c             	sub    $0xc,%esp
    1d33:	68 24 ec 00 00       	push   $0xec24
    1d38:	e8 63 b0 00 00       	call   cda0 <fibril_mutex_lock@plt>
    1d3d:	c7 04 24 24 ec 00 00 	movl   $0xec24,(%esp)
    1d44:	e8 67 ac 00 00       	call   c9b0 <fibril_mutex_is_locked@plt>
    1d49:	83 c4 10             	add    $0x10,%esp
    1d4c:	84 c0                	test   %al,%al
    1d4e:	0f 84 a0 03 00 00    	je     20f4 <driver_connection_devman+0x4c4>
    1d54:	a1 38 ec 00 00       	mov    0xec38,%eax
    1d59:	3d 34 ec 00 00       	cmp    $0xec34,%eax
    1d5e:	8d 50 ec             	lea    -0x14(%eax),%edx
    1d61:	75 16                	jne    1d79 <driver_connection_devman+0x149>
    1d63:	e9 08 03 00 00       	jmp    2070 <driver_connection_devman+0x440>
    1d68:	8b 40 04             	mov    0x4(%eax),%eax
    1d6b:	3d 34 ec 00 00       	cmp    $0xec34,%eax
    1d70:	8d 50 ec             	lea    -0x14(%eax),%edx
    1d73:	0f 84 f7 02 00 00    	je     2070 <driver_connection_devman+0x440>
    1d79:	3b 78 ec             	cmp    -0x14(%eax),%edi
    1d7c:	75 ea                	jne    1d68 <driver_connection_devman+0x138>
    1d7e:	8d 7a 04             	lea    0x4(%edx),%edi
    1d81:	f0 ff 42 04          	lock incl 0x4(%edx)
    1d85:	83 ec 0c             	sub    $0xc,%esp
    1d88:	89 55 b4             	mov    %edx,-0x4c(%ebp)
    1d8b:	68 24 ec 00 00       	push   $0xec24
    1d90:	e8 9b ad 00 00       	call   cb30 <fibril_mutex_unlock@plt>
    1d95:	a1 90 ed 00 00       	mov    0xed90,%eax
    1d9a:	83 c4 10             	add    $0x10,%esp
    1d9d:	8b 40 04             	mov    0x4(%eax),%eax
    1da0:	8b 40 08             	mov    0x8(%eax),%eax
    1da3:	85 c0                	test   %eax,%eax
    1da5:	0f 85 88 00 00 00    	jne    1e33 <driver_connection_devman+0x203>
    1dab:	b8 f5 ff ff ff       	mov    $0xfffffff5,%eax
    1db0:	e9 63 02 00 00       	jmp    2018 <driver_connection_devman+0x3e8>
    1db5:	8d 76 00             	lea    0x0(%esi),%esi
    1db8:	83 ec 0c             	sub    $0xc,%esp
    1dbb:	68 24 ec 00 00       	push   $0xec24
    1dc0:	e8 db af 00 00       	call   cda0 <fibril_mutex_lock@plt>
    1dc5:	c7 04 24 24 ec 00 00 	movl   $0xec24,(%esp)
    1dcc:	e8 df ab 00 00       	call   c9b0 <fibril_mutex_is_locked@plt>
    1dd1:	83 c4 10             	add    $0x10,%esp
    1dd4:	84 c0                	test   %al,%al
    1dd6:	0f 84 18 03 00 00    	je     20f4 <driver_connection_devman+0x4c4>
    1ddc:	a1 38 ec 00 00       	mov    0xec38,%eax
    1de1:	3d 34 ec 00 00       	cmp    $0xec34,%eax
    1de6:	8d 50 ec             	lea    -0x14(%eax),%edx
    1de9:	75 16                	jne    1e01 <driver_connection_devman+0x1d1>
    1deb:	e9 80 02 00 00       	jmp    2070 <driver_connection_devman+0x440>
    1df0:	8b 40 04             	mov    0x4(%eax),%eax
    1df3:	3d 34 ec 00 00       	cmp    $0xec34,%eax
    1df8:	8d 50 ec             	lea    -0x14(%eax),%edx
    1dfb:	0f 84 6f 02 00 00    	je     2070 <driver_connection_devman+0x440>
    1e01:	3b 78 ec             	cmp    -0x14(%eax),%edi
    1e04:	75 ea                	jne    1df0 <driver_connection_devman+0x1c0>
    1e06:	8d 7a 04             	lea    0x4(%edx),%edi
    1e09:	f0 ff 42 04          	lock incl 0x4(%edx)
    1e0d:	83 ec 0c             	sub    $0xc,%esp
    1e10:	89 55 b4             	mov    %edx,-0x4c(%ebp)
    1e13:	68 24 ec 00 00       	push   $0xec24
    1e18:	e8 13 ad 00 00       	call   cb30 <fibril_mutex_unlock@plt>
    1e1d:	a1 90 ed 00 00       	mov    0xed90,%eax
    1e22:	83 c4 10             	add    $0x10,%esp
    1e25:	8b 40 04             	mov    0x4(%eax),%eax
    1e28:	8b 40 04             	mov    0x4(%eax),%eax
    1e2b:	85 c0                	test   %eax,%eax
    1e2d:	0f 84 78 ff ff ff    	je     1dab <driver_connection_devman+0x17b>
    1e33:	83 ec 0c             	sub    $0xc,%esp
    1e36:	8b 55 b4             	mov    -0x4c(%ebp),%edx
    1e39:	52                   	push   %edx
    1e3a:	ff d0                	call   *%eax
    1e3c:	83 c4 10             	add    $0x10,%esp
    1e3f:	8b 55 b4             	mov    -0x4c(%ebp),%edx
    1e42:	85 c0                	test   %eax,%eax
    1e44:	0f 85 ce 01 00 00    	jne    2018 <driver_connection_devman+0x3e8>
    1e4a:	83 c9 ff             	or     $0xffffffff,%ecx
    1e4d:	f0 0f c1 0f          	lock xadd %ecx,(%edi)
    1e51:	49                   	dec    %ecx
    1e52:	0f 85 c0 01 00 00    	jne    2018 <driver_connection_devman+0x3e8>
    1e58:	8b 42 08             	mov    0x8(%edx),%eax
    1e5b:	85 c0                	test   %eax,%eax
    1e5d:	74 0f                	je     1e6e <driver_connection_devman+0x23e>
    1e5f:	83 ec 0c             	sub    $0xc,%esp
    1e62:	50                   	push   %eax
    1e63:	e8 e8 aa 00 00       	call   c950 <async_hangup@plt>
    1e68:	83 c4 10             	add    $0x10,%esp
    1e6b:	8b 55 b4             	mov    -0x4c(%ebp),%edx
    1e6e:	8b 42 10             	mov    0x10(%edx),%eax
    1e71:	85 c0                	test   %eax,%eax
    1e73:	74 12                	je     1e87 <driver_connection_devman+0x257>
    1e75:	83 ec 0c             	sub    $0xc,%esp
    1e78:	89 55 b4             	mov    %edx,-0x4c(%ebp)
    1e7b:	50                   	push   %eax
    1e7c:	e8 ff ae 00 00       	call   cd80 <free@plt>
    1e81:	83 c4 10             	add    $0x10,%esp
    1e84:	8b 55 b4             	mov    -0x4c(%ebp),%edx
    1e87:	8b 42 0c             	mov    0xc(%edx),%eax
    1e8a:	85 c0                	test   %eax,%eax
    1e8c:	74 12                	je     1ea0 <driver_connection_devman+0x270>
    1e8e:	83 ec 0c             	sub    $0xc,%esp
    1e91:	89 55 b4             	mov    %edx,-0x4c(%ebp)
    1e94:	50                   	push   %eax
    1e95:	e8 e6 ae 00 00       	call   cd80 <free@plt>
    1e9a:	83 c4 10             	add    $0x10,%esp
    1e9d:	8b 55 b4             	mov    -0x4c(%ebp),%edx
    1ea0:	83 ec 0c             	sub    $0xc,%esp
    1ea3:	52                   	push   %edx
    1ea4:	e8 d7 ae 00 00       	call   cd80 <free@plt>
    1ea9:	83 c4 10             	add    $0x10,%esp
    1eac:	31 c0                	xor    %eax,%eax
    1eae:	e9 65 01 00 00       	jmp    2018 <driver_connection_devman+0x3e8>
    1eb3:	90                   	nop
    1eb4:	8d 74 26 00          	lea    0x0(%esi,%eiz,1),%esi
    1eb8:	50                   	push   %eax
    1eb9:	50                   	push   %eax
    1eba:	8d 45 c0             	lea    -0x40(%ebp),%eax
    1ebd:	6a 00                	push   $0x0
    1ebf:	c7 45 c0 00 00 00 00 	movl   $0x0,-0x40(%ebp)
    1ec6:	6a 00                	push   $0x0
    1ec8:	6a 00                	push   $0x0
    1eca:	6a 00                	push   $0x0
    1ecc:	6a 01                	push   $0x1
    1ece:	50                   	push   %eax
    1ecf:	e8 3c ae 00 00       	call   cd10 <async_data_write_accept@plt>
    1ed4:	83 c4 20             	add    $0x20,%esp
    1ed7:	85 c0                	test   %eax,%eax
    1ed9:	0f 85 39 01 00 00    	jne    2018 <driver_connection_devman+0x3e8>
    1edf:	50                   	push   %eax
    1ee0:	50                   	push   %eax
    1ee1:	6a 1c                	push   $0x1c
    1ee3:	6a 01                	push   $0x1
    1ee5:	e8 d6 ab 00 00       	call   cac0 <calloc@plt>
    1eea:	83 c4 10             	add    $0x10,%esp
    1eed:	89 c2                	mov    %eax,%edx
    1eef:	85 c0                	test   %eax,%eax
    1ef1:	0f 84 df 01 00 00    	je     20d6 <driver_connection_devman+0x4a6>
    1ef7:	f0 ff 40 04          	lock incl 0x4(%eax)
    1efb:	89 38                	mov    %edi,(%eax)
    1efd:	8b 45 c0             	mov    -0x40(%ebp),%eax
    1f00:	89 42 0c             	mov    %eax,0xc(%edx)
    1f03:	a1 90 ed 00 00       	mov    0xed90,%eax
    1f08:	83 ec 0c             	sub    $0xc,%esp
    1f0b:	89 55 b4             	mov    %edx,-0x4c(%ebp)
    1f0e:	8b 40 04             	mov    0x4(%eax),%eax
    1f11:	52                   	push   %edx
    1f12:	ff 10                	call   *(%eax)
    1f14:	83 c4 10             	add    $0x10,%esp
    1f17:	89 c7                	mov    %eax,%edi
    1f19:	85 c0                	test   %eax,%eax
    1f1b:	8b 55 b4             	mov    -0x4c(%ebp),%edx
    1f1e:	0f 84 66 01 00 00    	je     208a <driver_connection_devman+0x45a>
    1f24:	83 c8 ff             	or     $0xffffffff,%eax
    1f27:	f0 0f c1 42 04       	lock xadd %eax,0x4(%edx)
    1f2c:	48                   	dec    %eax
    1f2d:	0f 85 ec fd ff ff    	jne    1d1f <driver_connection_devman+0xef>
    1f33:	8b 42 08             	mov    0x8(%edx),%eax
    1f36:	85 c0                	test   %eax,%eax
    1f38:	74 12                	je     1f4c <driver_connection_devman+0x31c>
    1f3a:	83 ec 0c             	sub    $0xc,%esp
    1f3d:	89 55 b4             	mov    %edx,-0x4c(%ebp)
    1f40:	50                   	push   %eax
    1f41:	e8 0a aa 00 00       	call   c950 <async_hangup@plt>
    1f46:	83 c4 10             	add    $0x10,%esp
    1f49:	8b 55 b4             	mov    -0x4c(%ebp),%edx
    1f4c:	8b 42 10             	mov    0x10(%edx),%eax
    1f4f:	85 c0                	test   %eax,%eax
    1f51:	74 12                	je     1f65 <driver_connection_devman+0x335>
    1f53:	83 ec 0c             	sub    $0xc,%esp
    1f56:	89 55 b4             	mov    %edx,-0x4c(%ebp)
    1f59:	50                   	push   %eax
    1f5a:	e8 21 ae 00 00       	call   cd80 <free@plt>
    1f5f:	83 c4 10             	add    $0x10,%esp
    1f62:	8b 55 b4             	mov    -0x4c(%ebp),%edx
    1f65:	8b 42 0c             	mov    0xc(%edx),%eax
    1f68:	85 c0                	test   %eax,%eax
    1f6a:	74 12                	je     1f7e <driver_connection_devman+0x34e>
    1f6c:	83 ec 0c             	sub    $0xc,%esp
    1f6f:	89 55 b4             	mov    %edx,-0x4c(%ebp)
    1f72:	50                   	push   %eax
    1f73:	e8 08 ae 00 00       	call   cd80 <free@plt>
    1f78:	83 c4 10             	add    $0x10,%esp
    1f7b:	8b 55 b4             	mov    -0x4c(%ebp),%edx
    1f7e:	83 ec 0c             	sub    $0xc,%esp
    1f81:	52                   	push   %edx
    1f82:	e8 f9 ad 00 00       	call   cd80 <free@plt>
    1f87:	83 c4 10             	add    $0x10,%esp
    1f8a:	e9 90 fd ff ff       	jmp    1d1f <driver_connection_devman+0xef>
    1f8f:	90                   	nop
    1f90:	83 ec 0c             	sub    $0xc,%esp
    1f93:	68 0c ec 00 00       	push   $0xec0c
    1f98:	e8 03 ae 00 00       	call   cda0 <fibril_mutex_lock@plt>
    1f9d:	c7 04 24 0c ec 00 00 	movl   $0xec0c,(%esp)
    1fa4:	e8 07 aa 00 00       	call   c9b0 <fibril_mutex_is_locked@plt>
    1fa9:	83 c4 10             	add    $0x10,%esp
    1fac:	84 c0                	test   %al,%al
    1fae:	0f 84 52 01 00 00    	je     2106 <driver_connection_devman+0x4d6>
    1fb4:	a1 20 ec 00 00       	mov    0xec20,%eax
    1fb9:	3d 1c ec 00 00       	cmp    $0xec1c,%eax
    1fbe:	8d 50 d4             	lea    -0x2c(%eax),%edx
    1fc1:	75 12                	jne    1fd5 <driver_connection_devman+0x3a5>
    1fc3:	e9 88 00 00 00       	jmp    2050 <driver_connection_devman+0x420>
    1fc8:	8b 40 04             	mov    0x4(%eax),%eax
    1fcb:	3d 1c ec 00 00       	cmp    $0xec1c,%eax
    1fd0:	8d 50 d4             	lea    -0x2c(%eax),%edx
    1fd3:	74 7b                	je     2050 <driver_connection_devman+0x420>
    1fd5:	3b 7a 04             	cmp    0x4(%edx),%edi
    1fd8:	75 ee                	jne    1fc8 <driver_connection_devman+0x398>
    1fda:	8b 42 0c             	mov    0xc(%edx),%eax
    1fdd:	f0 ff 40 04          	lock incl 0x4(%eax)
    1fe1:	f0 ff 42 08          	lock incl 0x8(%edx)
    1fe5:	83 ec 0c             	sub    $0xc,%esp
    1fe8:	89 55 b4             	mov    %edx,-0x4c(%ebp)
    1feb:	68 0c ec 00 00       	push   $0xec0c
    1ff0:	e8 3b ab 00 00       	call   cb30 <fibril_mutex_unlock@plt>
    1ff5:	a1 90 ed 00 00       	mov    0xed90,%eax
    1ffa:	83 c4 10             	add    $0x10,%esp
    1ffd:	8b 40 04             	mov    0x4(%eax),%eax
    2000:	8b 40 10             	mov    0x10(%eax),%eax
    2003:	85 c0                	test   %eax,%eax
    2005:	0f 84 a0 fd ff ff    	je     1dab <driver_connection_devman+0x17b>
    200b:	83 ec 0c             	sub    $0xc,%esp
    200e:	8b 55 b4             	mov    -0x4c(%ebp),%edx
    2011:	52                   	push   %edx
    2012:	ff d0                	call   *%eax
    2014:	83 c4 10             	add    $0x10,%esp
    2017:	90                   	nop
    2018:	52                   	push   %edx
    2019:	52                   	push   %edx
    201a:	50                   	push   %eax
    201b:	53                   	push   %ebx
    201c:	e8 1f aa 00 00       	call   ca40 <async_answer_0@plt>
    2021:	83 c4 10             	add    $0x10,%esp
    2024:	e9 27 fc ff ff       	jmp    1c50 <driver_connection_devman+0x20>
    2029:	8d b4 26 00 00 00 00 	lea    0x0(%esi,%eiz,1),%esi
    2030:	50                   	push   %eax
    2031:	50                   	push   %eax
    2032:	6a f5                	push   $0xfffffff5
    2034:	53                   	push   %ebx
    2035:	e8 06 aa 00 00       	call   ca40 <async_answer_0@plt>
    203a:	83 c4 10             	add    $0x10,%esp
    203d:	e9 0e fc ff ff       	jmp    1c50 <driver_connection_devman+0x20>
    2042:	8d b6 00 00 00 00    	lea    0x0(%esi),%esi
    2048:	8d 65 f4             	lea    -0xc(%ebp),%esp
    204b:	5b                   	pop    %ebx
    204c:	5e                   	pop    %esi
    204d:	5f                   	pop    %edi
    204e:	5d                   	pop    %ebp
    204f:	c3                   	ret    
    2050:	83 ec 0c             	sub    $0xc,%esp
    2053:	68 0c ec 00 00       	push   $0xec0c
    2058:	e8 d3 aa 00 00       	call   cb30 <fibril_mutex_unlock@plt>
    205d:	58                   	pop    %eax
    205e:	5a                   	pop    %edx
    205f:	6a ff                	push   $0xffffffff
    2061:	53                   	push   %ebx
    2062:	e8 d9 a9 00 00       	call   ca40 <async_answer_0@plt>
    2067:	83 c4 10             	add    $0x10,%esp
    206a:	e9 e1 fb ff ff       	jmp    1c50 <driver_connection_devman+0x20>
    206f:	90                   	nop
    2070:	83 ec 0c             	sub    $0xc,%esp
    2073:	68 24 ec 00 00       	push   $0xec24
    2078:	eb de                	jmp    2058 <driver_connection_devman+0x428>
    207a:	8d b6 00 00 00 00    	lea    0x0(%esi),%esi
    2080:	bf f5 ff ff ff       	mov    $0xfffffff5,%edi
    2085:	e9 8e fc ff ff       	jmp    1d18 <driver_connection_devman+0xe8>
    208a:	83 ec 0c             	sub    $0xc,%esp
    208d:	89 55 b4             	mov    %edx,-0x4c(%ebp)
    2090:	68 24 ec 00 00       	push   $0xec24
    2095:	e8 06 ad 00 00       	call   cda0 <fibril_mutex_lock@plt>
    209a:	8b 55 b4             	mov    -0x4c(%ebp),%edx
    209d:	8b 0d 34 ec 00 00    	mov    0xec34,%ecx
    20a3:	8d 42 14             	lea    0x14(%edx),%eax
    20a6:	c7 42 18 34 ec 00 00 	movl   $0xec34,0x18(%edx)
    20ad:	89 4a 14             	mov    %ecx,0x14(%edx)
    20b0:	89 41 04             	mov    %eax,0x4(%ecx)
    20b3:	a3 34 ec 00 00       	mov    %eax,0xec34
    20b8:	c7 04 24 24 ec 00 00 	movl   $0xec24,(%esp)
    20bf:	e8 6c aa 00 00       	call   cb30 <fibril_mutex_unlock@plt>
    20c4:	5f                   	pop    %edi
    20c5:	58                   	pop    %eax
    20c6:	6a 00                	push   $0x0
    20c8:	53                   	push   %ebx
    20c9:	e8 72 a9 00 00       	call   ca40 <async_answer_0@plt>
    20ce:	83 c4 10             	add    $0x10,%esp
    20d1:	e9 7a fb ff ff       	jmp    1c50 <driver_connection_devman+0x20>
    20d6:	83 ec 0c             	sub    $0xc,%esp
    20d9:	8b 4d c0             	mov    -0x40(%ebp),%ecx
    20dc:	51                   	push   %ecx
    20dd:	e8 9e ac 00 00       	call   cd80 <free@plt>
    20e2:	5f                   	pop    %edi
    20e3:	58                   	pop    %eax
    20e4:	6a fe                	push   $0xfffffffe
    20e6:	53                   	push   %ebx
    20e7:	e8 54 a9 00 00       	call   ca40 <async_answer_0@plt>
    20ec:	83 c4 10             	add    $0x10,%esp
    20ef:	e9 5c fb ff ff       	jmp    1c50 <driver_connection_devman+0x20>
    20f4:	56                   	push   %esi
    20f5:	6a 5f                	push   $0x5f
    20f7:	68 0c ac 00 00       	push   $0xac0c
    20fc:	68 b0 ae 00 00       	push   $0xaeb0
    2101:	e8 9a a9 00 00       	call   caa0 <assert_abort@plt>
    2106:	53                   	push   %ebx
    2107:	6a 6b                	push   $0x6b
    2109:	68 0c ac 00 00       	push   $0xac0c
    210e:	68 64 ad 00 00       	push   $0xad64
    2113:	e8 88 a9 00 00       	call   caa0 <assert_abort@plt>
    2118:	90                   	nop
    2119:	8d b4 26 00 00 00 00 	lea    0x0(%esi,%eiz,1),%esi

00002120 <ddf_dev_data_alloc>:
    2120:	55                   	push   %ebp
    2121:	89 e5                	mov    %esp,%ebp
    2123:	53                   	push   %ebx
    2124:	53                   	push   %ebx
    2125:	8b 5d 08             	mov    0x8(%ebp),%ebx
    2128:	8b 43 10             	mov    0x10(%ebx),%eax
    212b:	85 c0                	test   %eax,%eax
    212d:	75 1c                	jne    214b <ddf_dev_data_alloc+0x2b>
    212f:	8b 55 0c             	mov    0xc(%ebp),%edx
    2132:	50                   	push   %eax
    2133:	50                   	push   %eax
    2134:	52                   	push   %edx
    2135:	6a 01                	push   $0x1
    2137:	e8 84 a9 00 00       	call   cac0 <calloc@plt>
    213c:	83 c4 10             	add    $0x10,%esp
    213f:	85 c0                	test   %eax,%eax
    2141:	74 03                	je     2146 <ddf_dev_data_alloc+0x26>
    2143:	89 43 10             	mov    %eax,0x10(%ebx)
    2146:	8b 5d fc             	mov    -0x4(%ebp),%ebx
    2149:	c9                   	leave  
    214a:	c3                   	ret    
    214b:	51                   	push   %ecx
    214c:	68 39 02 00 00       	push   $0x239
    2151:	68 0c ac 00 00       	push   $0xac0c
    2156:	68 47 ac 00 00       	push   $0xac47
    215b:	e8 40 a9 00 00       	call   caa0 <assert_abort@plt>

00002160 <ddf_dev_data_get>:
    2160:	55                   	push   %ebp
    2161:	89 e5                	mov    %esp,%ebp
    2163:	8b 45 08             	mov    0x8(%ebp),%eax
    2166:	5d                   	pop    %ebp
    2167:	8b 40 10             	mov    0x10(%eax),%eax
    216a:	c3                   	ret    
    216b:	90                   	nop
    216c:	8d 74 26 00          	lea    0x0(%esi,%eiz,1),%esi

00002170 <ddf_dev_get_handle>:
    2170:	55                   	push   %ebp
    2171:	89 e5                	mov    %esp,%ebp
    2173:	8b 45 08             	mov    0x8(%ebp),%eax
    2176:	5d                   	pop    %ebp
    2177:	8b 00                	mov    (%eax),%eax
    2179:	c3                   	ret    
    217a:	8d b6 00 00 00 00    	lea    0x0(%esi),%esi

00002180 <ddf_dev_get_name>:
    2180:	55                   	push   %ebp
    2181:	89 e5                	mov    %esp,%ebp
    2183:	8b 45 08             	mov    0x8(%ebp),%eax
    2186:	5d                   	pop    %ebp
    2187:	8b 40 0c             	mov    0xc(%eax),%eax
    218a:	c3                   	ret    
    218b:	90                   	nop
    218c:	8d 74 26 00          	lea    0x0(%esi,%eiz,1),%esi

00002190 <ddf_dev_parent_sess_create>:
    2190:	55                   	push   %ebp
    2191:	89 e5                	mov    %esp,%ebp
    2193:	53                   	push   %ebx
    2194:	53                   	push   %ebx
    2195:	8b 5d 08             	mov    0x8(%ebp),%ebx
    2198:	8b 43 08             	mov    0x8(%ebx),%eax
    219b:	85 c0                	test   %eax,%eax
    219d:	75 14                	jne    21b3 <ddf_dev_parent_sess_create+0x23>
    219f:	50                   	push   %eax
    21a0:	50                   	push   %eax
    21a1:	6a 01                	push   $0x1
    21a3:	8b 13                	mov    (%ebx),%edx
    21a5:	52                   	push   %edx
    21a6:	e8 d5 a7 00 00       	call   c980 <devman_parent_device_connect@plt>
    21ab:	89 43 08             	mov    %eax,0x8(%ebx)
    21ae:	8b 5d fc             	mov    -0x4(%ebp),%ebx
    21b1:	c9                   	leave  
    21b2:	c3                   	ret    
    21b3:	51                   	push   %ecx
    21b4:	68 64 02 00 00       	push   $0x264
    21b9:	68 0c ac 00 00       	push   $0xac0c
    21be:	68 60 ac 00 00       	push   $0xac60
    21c3:	e8 d8 a8 00 00       	call   caa0 <assert_abort@plt>
    21c8:	90                   	nop
    21c9:	8d b4 26 00 00 00 00 	lea    0x0(%esi,%eiz,1),%esi

000021d0 <ddf_dev_parent_sess_get>:
    21d0:	55                   	push   %ebp
    21d1:	89 e5                	mov    %esp,%ebp
    21d3:	8b 45 08             	mov    0x8(%ebp),%eax
    21d6:	5d                   	pop    %ebp
    21d7:	8b 40 08             	mov    0x8(%eax),%eax
    21da:	c3                   	ret    
    21db:	90                   	nop
    21dc:	8d 74 26 00          	lea    0x0(%esi,%eiz,1),%esi

000021e0 <ddf_fun_set_name>:
    21e0:	55                   	push   %ebp
    21e1:	89 e5                	mov    %esp,%ebp
    21e3:	53                   	push   %ebx
    21e4:	51                   	push   %ecx
    21e5:	8b 5d 08             	mov    0x8(%ebp),%ebx
    21e8:	8b 43 14             	mov    0x14(%ebx),%eax
    21eb:	85 c0                	test   %eax,%eax
    21ed:	75 23                	jne    2212 <ddf_fun_set_name+0x32>
    21ef:	83 ec 0c             	sub    $0xc,%esp
    21f2:	8b 45 0c             	mov    0xc(%ebp),%eax
    21f5:	50                   	push   %eax
    21f6:	e8 55 a9 00 00       	call   cb50 <str_dup@plt>
    21fb:	83 c4 10             	add    $0x10,%esp
    21fe:	89 43 14             	mov    %eax,0x14(%ebx)
    2201:	85 c0                	test   %eax,%eax
    2203:	8b 5d fc             	mov    -0x4(%ebp),%ebx
    2206:	0f 94 c0             	sete   %al
    2209:	25 ff 00 00 00       	and    $0xff,%eax
    220e:	c9                   	leave  
    220f:	f7 d8                	neg    %eax
    2211:	c3                   	ret    
    2212:	52                   	push   %edx
    2213:	68 7d 02 00 00       	push   $0x27d
    2218:	68 0c ac 00 00       	push   $0xac0c
    221d:	68 79 ac 00 00       	push   $0xac79
    2222:	e8 79 a8 00 00       	call   caa0 <assert_abort@plt>
    2227:	89 f6                	mov    %esi,%esi
    2229:	8d bc 27 00 00 00 00 	lea    0x0(%edi,%eiz,1),%edi

00002230 <ddf_fun_get_dev>:
    2230:	55                   	push   %ebp
    2231:	89 e5                	mov    %esp,%ebp
    2233:	8b 45 08             	mov    0x8(%ebp),%eax
    2236:	5d                   	pop    %ebp
    2237:	8b 40 0c             	mov    0xc(%eax),%eax
    223a:	c3                   	ret    
    223b:	90                   	nop
    223c:	8d 74 26 00          	lea    0x0(%esi,%eiz,1),%esi

00002240 <ddf_fun_get_handle>:
    2240:	55                   	push   %ebp
    2241:	89 e5                	mov    %esp,%ebp
    2243:	8b 45 08             	mov    0x8(%ebp),%eax
    2246:	5d                   	pop    %ebp
    2247:	8b 40 04             	mov    0x4(%eax),%eax
    224a:	c3                   	ret    
    224b:	90                   	nop
    224c:	8d 74 26 00          	lea    0x0(%esi,%eiz,1),%esi

00002250 <ddf_fun_create>:
    2250:	55                   	push   %ebp
    2251:	89 e5                	mov    %esp,%ebp
    2253:	57                   	push   %edi
    2254:	56                   	push   %esi
    2255:	53                   	push   %ebx
    2256:	83 ec 14             	sub    $0x14,%esp
    2259:	8b 75 08             	mov    0x8(%ebp),%esi
    225c:	6a 34                	push   $0x34
    225e:	6a 01                	push   $0x1
    2260:	e8 5b a8 00 00       	call   cac0 <calloc@plt>
    2265:	83 c4 10             	add    $0x10,%esp
    2268:	89 c3                	mov    %eax,%ebx
    226a:	85 c0                	test   %eax,%eax
    226c:	74 48                	je     22b6 <ddf_fun_create+0x66>
    226e:	8d 78 18             	lea    0x18(%eax),%edi
    2271:	c7 40 2c 00 00 00 00 	movl   $0x0,0x2c(%eax)
    2278:	89 78 18             	mov    %edi,0x18(%eax)
    227b:	89 78 1c             	mov    %edi,0x1c(%eax)
    227e:	c7 40 30 00 00 00 00 	movl   $0x0,0x30(%eax)
    2285:	89 70 0c             	mov    %esi,0xc(%eax)
    2288:	f0 ff 46 04          	lock incl 0x4(%esi)
    228c:	f0 ff 40 08          	lock incl 0x8(%eax)
    2290:	c6 00 00             	movb   $0x0,(%eax)
    2293:	8b 55 10             	mov    0x10(%ebp),%edx
    2296:	8b 45 0c             	mov    0xc(%ebp),%eax
    2299:	85 d2                	test   %edx,%edx
    229b:	89 43 10             	mov    %eax,0x10(%ebx)
    229e:	74 16                	je     22b6 <ddf_fun_create+0x66>
    22a0:	83 ec 0c             	sub    $0xc,%esp
    22a3:	8b 45 10             	mov    0x10(%ebp),%eax
    22a6:	50                   	push   %eax
    22a7:	e8 a4 a8 00 00       	call   cb50 <str_dup@plt>
    22ac:	83 c4 10             	add    $0x10,%esp
    22af:	89 43 14             	mov    %eax,0x14(%ebx)
    22b2:	85 c0                	test   %eax,%eax
    22b4:	74 0a                	je     22c0 <ddf_fun_create+0x70>
    22b6:	8d 65 f4             	lea    -0xc(%ebp),%esp
    22b9:	89 d8                	mov    %ebx,%eax
    22bb:	5b                   	pop    %ebx
    22bc:	5e                   	pop    %esi
    22bd:	5f                   	pop    %edi
    22be:	5d                   	pop    %ebp
    22bf:	c3                   	ret    
    22c0:	8b 73 1c             	mov    0x1c(%ebx),%esi
    22c3:	39 f7                	cmp    %esi,%edi
    22c5:	0f 84 85 00 00 00    	je     2350 <ddf_fun_create+0x100>
    22cb:	90                   	nop
    22cc:	8d 74 26 00          	lea    0x0(%esi,%eiz,1),%esi
    22d0:	8b 0e                	mov    (%esi),%ecx
    22d2:	85 c9                	test   %ecx,%ecx
    22d4:	74 0e                	je     22e4 <ddf_fun_create+0x94>
    22d6:	8b 46 04             	mov    0x4(%esi),%eax
    22d9:	85 c0                	test   %eax,%eax
    22db:	74 07                	je     22e4 <ddf_fun_create+0x94>
    22dd:	89 08                	mov    %ecx,(%eax)
    22df:	8b 0e                	mov    (%esi),%ecx
    22e1:	89 41 04             	mov    %eax,0x4(%ecx)
    22e4:	8b 46 08             	mov    0x8(%esi),%eax
    22e7:	c7 06 00 00 00 00    	movl   $0x0,(%esi)
    22ed:	c7 46 04 00 00 00 00 	movl   $0x0,0x4(%esi)
    22f4:	85 c0                	test   %eax,%eax
    22f6:	74 0c                	je     2304 <ddf_fun_create+0xb4>
    22f8:	83 ec 0c             	sub    $0xc,%esp
    22fb:	50                   	push   %eax
    22fc:	e8 7f aa 00 00       	call   cd80 <free@plt>
    2301:	83 c4 10             	add    $0x10,%esp
    2304:	83 ec 0c             	sub    $0xc,%esp
    2307:	56                   	push   %esi
    2308:	e8 73 aa 00 00       	call   cd80 <free@plt>
    230d:	8b 73 1c             	mov    0x1c(%ebx),%esi
    2310:	83 c4 10             	add    $0x10,%esp
    2313:	39 f7                	cmp    %esi,%edi
    2315:	75 b9                	jne    22d0 <ddf_fun_create+0x80>
    2317:	8b 43 20             	mov    0x20(%ebx),%eax
    231a:	85 c0                	test   %eax,%eax
    231c:	74 0c                	je     232a <ddf_fun_create+0xda>
    231e:	83 ec 0c             	sub    $0xc,%esp
    2321:	50                   	push   %eax
    2322:	e8 59 aa 00 00       	call   cd80 <free@plt>
    2327:	83 c4 10             	add    $0x10,%esp
    232a:	8b 43 14             	mov    0x14(%ebx),%eax
    232d:	85 c0                	test   %eax,%eax
    232f:	74 0c                	je     233d <ddf_fun_create+0xed>
    2331:	83 ec 0c             	sub    $0xc,%esp
    2334:	50                   	push   %eax
    2335:	e8 46 aa 00 00       	call   cd80 <free@plt>
    233a:	83 c4 10             	add    $0x10,%esp
    233d:	83 ec 0c             	sub    $0xc,%esp
    2340:	53                   	push   %ebx
    2341:	31 db                	xor    %ebx,%ebx
    2343:	e8 38 aa 00 00       	call   cd80 <free@plt>
    2348:	83 c4 10             	add    $0x10,%esp
    234b:	e9 66 ff ff ff       	jmp    22b6 <ddf_fun_create+0x66>
    2350:	8b 43 20             	mov    0x20(%ebx),%eax
    2353:	85 c0                	test   %eax,%eax
    2355:	75 c7                	jne    231e <ddf_fun_create+0xce>
    2357:	eb e4                	jmp    233d <ddf_fun_create+0xed>
    2359:	8d b4 26 00 00 00 00 	lea    0x0(%esi,%eiz,1),%esi

00002360 <ddf_fun_data_alloc>:
    2360:	55                   	push   %ebp
    2361:	89 e5                	mov    %esp,%ebp
    2363:	53                   	push   %ebx
    2364:	50                   	push   %eax
    2365:	8b 5d 08             	mov    0x8(%ebp),%ebx
    2368:	80 3b 00             	cmpb   $0x0,(%ebx)
    236b:	75 23                	jne    2390 <ddf_fun_data_alloc+0x30>
    236d:	8b 43 20             	mov    0x20(%ebx),%eax
    2370:	85 c0                	test   %eax,%eax
    2372:	75 31                	jne    23a5 <ddf_fun_data_alloc+0x45>
    2374:	8b 55 0c             	mov    0xc(%ebp),%edx
    2377:	50                   	push   %eax
    2378:	50                   	push   %eax
    2379:	52                   	push   %edx
    237a:	6a 01                	push   $0x1
    237c:	e8 3f a7 00 00       	call   cac0 <calloc@plt>
    2381:	83 c4 10             	add    $0x10,%esp
    2384:	85 c0                	test   %eax,%eax
    2386:	74 03                	je     238b <ddf_fun_data_alloc+0x2b>
    2388:	89 43 20             	mov    %eax,0x20(%ebx)
    238b:	8b 5d fc             	mov    -0x4(%ebp),%ebx
    238e:	c9                   	leave  
    238f:	c3                   	ret    
    2390:	50                   	push   %eax
    2391:	68 c9 02 00 00       	push   $0x2c9
    2396:	68 0c ac 00 00       	push   $0xac0c
    239b:	68 8b ac 00 00       	push   $0xac8b
    23a0:	e8 fb a6 00 00       	call   caa0 <assert_abort@plt>
    23a5:	51                   	push   %ecx
    23a6:	68 ca 02 00 00       	push   $0x2ca
    23ab:	68 0c ac 00 00       	push   $0xac0c
    23b0:	68 9f ac 00 00       	push   $0xac9f
    23b5:	e8 e6 a6 00 00       	call   caa0 <assert_abort@plt>
    23ba:	8d b6 00 00 00 00    	lea    0x0(%esi),%esi

000023c0 <ddf_fun_data_get>:
    23c0:	55                   	push   %ebp
    23c1:	89 e5                	mov    %esp,%ebp
    23c3:	8b 45 08             	mov    0x8(%ebp),%eax
    23c6:	5d                   	pop    %ebp
    23c7:	8b 40 20             	mov    0x20(%eax),%eax
    23ca:	c3                   	ret    
    23cb:	90                   	nop
    23cc:	8d 74 26 00          	lea    0x0(%esi,%eiz,1),%esi

000023d0 <ddf_fun_get_name>:
    23d0:	55                   	push   %ebp
    23d1:	89 e5                	mov    %esp,%ebp
    23d3:	8b 45 08             	mov    0x8(%ebp),%eax
    23d6:	5d                   	pop    %ebp
    23d7:	8b 40 14             	mov    0x14(%eax),%eax
    23da:	c3                   	ret    
    23db:	90                   	nop
    23dc:	8d 74 26 00          	lea    0x0(%esi,%eiz,1),%esi

000023e0 <ddf_fun_destroy>:
    23e0:	55                   	push   %ebp
    23e1:	89 e5                	mov    %esp,%ebp
    23e3:	57                   	push   %edi
    23e4:	56                   	push   %esi
    23e5:	53                   	push   %ebx
    23e6:	83 ec 1c             	sub    $0x1c,%esp
    23e9:	8b 7d 08             	mov    0x8(%ebp),%edi
    23ec:	80 3f 00             	cmpb   $0x0,(%edi)
    23ef:	0f 85 fa 00 00 00    	jne    24ef <ddf_fun_destroy+0x10f>
    23f5:	8b 77 0c             	mov    0xc(%edi),%esi
    23f8:	83 ca ff             	or     $0xffffffff,%edx
    23fb:	f0 0f c1 57 08       	lock xadd %edx,0x8(%edi)
    2400:	4a                   	dec    %edx
    2401:	74 5d                	je     2460 <ddf_fun_destroy+0x80>
    2403:	83 c8 ff             	or     $0xffffffff,%eax
    2406:	f0 0f c1 46 04       	lock xadd %eax,0x4(%esi)
    240b:	48                   	dec    %eax
    240c:	74 0a                	je     2418 <ddf_fun_destroy+0x38>
    240e:	8d 65 f4             	lea    -0xc(%ebp),%esp
    2411:	5b                   	pop    %ebx
    2412:	5e                   	pop    %esi
    2413:	5f                   	pop    %edi
    2414:	5d                   	pop    %ebp
    2415:	c3                   	ret    
    2416:	66 90                	xchg   %ax,%ax
    2418:	8b 46 08             	mov    0x8(%esi),%eax
    241b:	85 c0                	test   %eax,%eax
    241d:	74 0c                	je     242b <ddf_fun_destroy+0x4b>
    241f:	83 ec 0c             	sub    $0xc,%esp
    2422:	50                   	push   %eax
    2423:	e8 28 a5 00 00       	call   c950 <async_hangup@plt>
    2428:	83 c4 10             	add    $0x10,%esp
    242b:	8b 46 10             	mov    0x10(%esi),%eax
    242e:	85 c0                	test   %eax,%eax
    2430:	74 0c                	je     243e <ddf_fun_destroy+0x5e>
    2432:	83 ec 0c             	sub    $0xc,%esp
    2435:	50                   	push   %eax
    2436:	e8 45 a9 00 00       	call   cd80 <free@plt>
    243b:	83 c4 10             	add    $0x10,%esp
    243e:	8b 46 0c             	mov    0xc(%esi),%eax
    2441:	85 c0                	test   %eax,%eax
    2443:	74 0c                	je     2451 <ddf_fun_destroy+0x71>
    2445:	83 ec 0c             	sub    $0xc,%esp
    2448:	50                   	push   %eax
    2449:	e8 32 a9 00 00       	call   cd80 <free@plt>
    244e:	83 c4 10             	add    $0x10,%esp
    2451:	89 75 08             	mov    %esi,0x8(%ebp)
    2454:	8d 65 f4             	lea    -0xc(%ebp),%esp
    2457:	5b                   	pop    %ebx
    2458:	5e                   	pop    %esi
    2459:	5f                   	pop    %edi
    245a:	5d                   	pop    %ebp
    245b:	e9 20 a9 00 00       	jmp    cd80 <free@plt>
    2460:	8d 47 18             	lea    0x18(%edi),%eax
    2463:	8b 5f 1c             	mov    0x1c(%edi),%ebx
    2466:	89 45 e4             	mov    %eax,-0x1c(%ebp)
    2469:	39 d8                	cmp    %ebx,%eax
    246b:	74 4b                	je     24b8 <ddf_fun_destroy+0xd8>
    246d:	8d 76 00             	lea    0x0(%esi),%esi
    2470:	8b 0b                	mov    (%ebx),%ecx
    2472:	85 c9                	test   %ecx,%ecx
    2474:	74 0e                	je     2484 <ddf_fun_destroy+0xa4>
    2476:	8b 53 04             	mov    0x4(%ebx),%edx
    2479:	85 d2                	test   %edx,%edx
    247b:	74 07                	je     2484 <ddf_fun_destroy+0xa4>
    247d:	89 0a                	mov    %ecx,(%edx)
    247f:	8b 0b                	mov    (%ebx),%ecx
    2481:	89 51 04             	mov    %edx,0x4(%ecx)
    2484:	8b 53 08             	mov    0x8(%ebx),%edx
    2487:	c7 03 00 00 00 00    	movl   $0x0,(%ebx)
    248d:	c7 43 04 00 00 00 00 	movl   $0x0,0x4(%ebx)
    2494:	85 d2                	test   %edx,%edx
    2496:	74 0c                	je     24a4 <ddf_fun_destroy+0xc4>
    2498:	83 ec 0c             	sub    $0xc,%esp
    249b:	52                   	push   %edx
    249c:	e8 df a8 00 00       	call   cd80 <free@plt>
    24a1:	83 c4 10             	add    $0x10,%esp
    24a4:	83 ec 0c             	sub    $0xc,%esp
    24a7:	53                   	push   %ebx
    24a8:	e8 d3 a8 00 00       	call   cd80 <free@plt>
    24ad:	8b 5f 1c             	mov    0x1c(%edi),%ebx
    24b0:	83 c4 10             	add    $0x10,%esp
    24b3:	3b 5d e4             	cmp    -0x1c(%ebp),%ebx
    24b6:	75 b8                	jne    2470 <ddf_fun_destroy+0x90>
    24b8:	8b 57 20             	mov    0x20(%edi),%edx
    24bb:	85 d2                	test   %edx,%edx
    24bd:	74 0c                	je     24cb <ddf_fun_destroy+0xeb>
    24bf:	83 ec 0c             	sub    $0xc,%esp
    24c2:	52                   	push   %edx
    24c3:	e8 b8 a8 00 00       	call   cd80 <free@plt>
    24c8:	83 c4 10             	add    $0x10,%esp
    24cb:	8b 57 14             	mov    0x14(%edi),%edx
    24ce:	85 d2                	test   %edx,%edx
    24d0:	74 0c                	je     24de <ddf_fun_destroy+0xfe>
    24d2:	83 ec 0c             	sub    $0xc,%esp
    24d5:	52                   	push   %edx
    24d6:	e8 a5 a8 00 00       	call   cd80 <free@plt>
    24db:	83 c4 10             	add    $0x10,%esp
    24de:	83 ec 0c             	sub    $0xc,%esp
    24e1:	57                   	push   %edi
    24e2:	e8 99 a8 00 00       	call   cd80 <free@plt>
    24e7:	83 c4 10             	add    $0x10,%esp
    24ea:	e9 14 ff ff ff       	jmp    2403 <ddf_fun_destroy+0x23>
    24ef:	50                   	push   %eax
    24f0:	68 ee 02 00 00       	push   $0x2ee
    24f5:	68 0c ac 00 00       	push   $0xac0c
    24fa:	68 8b ac 00 00       	push   $0xac8b
    24ff:	e8 9c a5 00 00       	call   caa0 <assert_abort@plt>
    2504:	8d b6 00 00 00 00    	lea    0x0(%esi),%esi
    250a:	8d bf 00 00 00 00    	lea    0x0(%edi),%edi

00002510 <ddf_fun_bind>:
    2510:	55                   	push   %ebp
    2511:	89 e5                	mov    %esp,%ebp
    2513:	53                   	push   %ebx
    2514:	83 ec 14             	sub    $0x14,%esp
    2517:	8b 5d 08             	mov    0x8(%ebp),%ebx
    251a:	80 3b 00             	cmpb   $0x0,(%ebx)
    251d:	0f 85 d2 00 00 00    	jne    25f5 <ddf_fun_bind+0xe5>
    2523:	8b 43 14             	mov    0x14(%ebx),%eax
    2526:	85 c0                	test   %eax,%eax
    2528:	0f 84 f1 00 00 00    	je     261f <ddf_fun_bind+0x10f>
    252e:	8b 43 0c             	mov    0xc(%ebx),%eax
    2531:	85 c0                	test   %eax,%eax
    2533:	0f 84 d1 00 00 00    	je     260a <ddf_fun_bind+0xfa>
    2539:	83 ec 0c             	sub    $0xc,%esp
    253c:	68 0c ec 00 00       	push   $0xec0c
    2541:	e8 5a a8 00 00       	call   cda0 <fibril_mutex_lock@plt>
    2546:	8b 15 1c ec 00 00    	mov    0xec1c,%edx
    254c:	8d 43 2c             	lea    0x2c(%ebx),%eax
    254f:	89 53 2c             	mov    %edx,0x2c(%ebx)
    2552:	c7 43 30 1c ec 00 00 	movl   $0xec1c,0x30(%ebx)
    2559:	89 42 04             	mov    %eax,0x4(%edx)
    255c:	a3 1c ec 00 00       	mov    %eax,0xec1c
    2561:	c7 04 24 0c ec 00 00 	movl   $0xec0c,(%esp)
    2568:	e8 c3 a5 00 00       	call   cb30 <fibril_mutex_unlock@plt>
    256d:	8d 43 04             	lea    0x4(%ebx),%eax
    2570:	8b 53 10             	mov    0x10(%ebx),%edx
    2573:	89 04 24             	mov    %eax,(%esp)
    2576:	8b 43 0c             	mov    0xc(%ebx),%eax
    2579:	8b 4b 14             	mov    0x14(%ebx),%ecx
    257c:	8b 00                	mov    (%eax),%eax
    257e:	50                   	push   %eax
    257f:	8d 43 18             	lea    0x18(%ebx),%eax
    2582:	50                   	push   %eax
    2583:	52                   	push   %edx
    2584:	51                   	push   %ecx
    2585:	e8 f6 a4 00 00       	call   ca80 <devman_add_function@plt>
    258a:	83 c4 20             	add    $0x20,%esp
    258d:	85 c0                	test   %eax,%eax
    258f:	75 0f                	jne    25a0 <ddf_fun_bind+0x90>
    2591:	c6 03 01             	movb   $0x1,(%ebx)
    2594:	8b 5d fc             	mov    -0x4(%ebp),%ebx
    2597:	c9                   	leave  
    2598:	c3                   	ret    
    2599:	8d b4 26 00 00 00 00 	lea    0x0(%esi,%eiz,1),%esi
    25a0:	83 ec 0c             	sub    $0xc,%esp
    25a3:	89 45 f4             	mov    %eax,-0xc(%ebp)
    25a6:	68 0c ec 00 00       	push   $0xec0c
    25ab:	e8 f0 a7 00 00       	call   cda0 <fibril_mutex_lock@plt>
    25b0:	8b 4b 2c             	mov    0x2c(%ebx),%ecx
    25b3:	83 c4 10             	add    $0x10,%esp
    25b6:	8b 45 f4             	mov    -0xc(%ebp),%eax
    25b9:	85 c9                	test   %ecx,%ecx
    25bb:	74 0f                	je     25cc <ddf_fun_bind+0xbc>
    25bd:	8b 53 30             	mov    0x30(%ebx),%edx
    25c0:	85 d2                	test   %edx,%edx
    25c2:	74 08                	je     25cc <ddf_fun_bind+0xbc>
    25c4:	89 0a                	mov    %ecx,(%edx)
    25c6:	8b 4b 2c             	mov    0x2c(%ebx),%ecx
    25c9:	89 51 04             	mov    %edx,0x4(%ecx)
    25cc:	83 ec 0c             	sub    $0xc,%esp
    25cf:	c7 43 2c 00 00 00 00 	movl   $0x0,0x2c(%ebx)
    25d6:	c7 43 30 00 00 00 00 	movl   $0x0,0x30(%ebx)
    25dd:	89 45 f4             	mov    %eax,-0xc(%ebp)
    25e0:	68 0c ec 00 00       	push   $0xec0c
    25e5:	e8 46 a5 00 00       	call   cb30 <fibril_mutex_unlock@plt>
    25ea:	8b 45 f4             	mov    -0xc(%ebp),%eax
    25ed:	83 c4 10             	add    $0x10,%esp
    25f0:	8b 5d fc             	mov    -0x4(%ebp),%ebx
    25f3:	c9                   	leave  
    25f4:	c3                   	ret    
    25f5:	50                   	push   %eax
    25f6:	68 12 03 00 00       	push   $0x312
    25fb:	68 0c ac 00 00       	push   $0xac0c
    2600:	68 8b ac 00 00       	push   $0xac8b
    2605:	e8 96 a4 00 00       	call   caa0 <assert_abort@plt>
    260a:	53                   	push   %ebx
    260b:	68 14 03 00 00       	push   $0x314
    2610:	68 0c ac 00 00       	push   $0xac0c
    2615:	68 ca ac 00 00       	push   $0xacca
    261a:	e8 81 a4 00 00       	call   caa0 <assert_abort@plt>
    261f:	50                   	push   %eax
    2620:	68 13 03 00 00       	push   $0x313
    2625:	68 0c ac 00 00       	push   $0xac0c
    262a:	68 b8 ac 00 00       	push   $0xacb8
    262f:	e8 6c a4 00 00       	call   caa0 <assert_abort@plt>
    2634:	8d b6 00 00 00 00    	lea    0x0(%esi),%esi
    263a:	8d bf 00 00 00 00    	lea    0x0(%edi),%edi

00002640 <ddf_fun_unbind>:
    2640:	55                   	push   %ebp
    2641:	89 e5                	mov    %esp,%ebp
    2643:	53                   	push   %ebx
    2644:	83 ec 14             	sub    $0x14,%esp
    2647:	8b 5d 08             	mov    0x8(%ebp),%ebx
    264a:	80 3b 00             	cmpb   $0x0,(%ebx)
    264d:	74 71                	je     26c0 <ddf_fun_unbind+0x80>
    264f:	83 ec 0c             	sub    $0xc,%esp
    2652:	8b 43 04             	mov    0x4(%ebx),%eax
    2655:	50                   	push   %eax
    2656:	e8 85 a4 00 00       	call   cae0 <devman_remove_function@plt>
    265b:	83 c4 10             	add    $0x10,%esp
    265e:	85 c0                	test   %eax,%eax
    2660:	74 06                	je     2668 <ddf_fun_unbind+0x28>
    2662:	8b 5d fc             	mov    -0x4(%ebp),%ebx
    2665:	c9                   	leave  
    2666:	c3                   	ret    
    2667:	90                   	nop
    2668:	83 ec 0c             	sub    $0xc,%esp
    266b:	89 45 f4             	mov    %eax,-0xc(%ebp)
    266e:	68 0c ec 00 00       	push   $0xec0c
    2673:	e8 28 a7 00 00       	call   cda0 <fibril_mutex_lock@plt>
    2678:	8b 4b 2c             	mov    0x2c(%ebx),%ecx
    267b:	83 c4 10             	add    $0x10,%esp
    267e:	8b 45 f4             	mov    -0xc(%ebp),%eax
    2681:	85 c9                	test   %ecx,%ecx
    2683:	74 0f                	je     2694 <ddf_fun_unbind+0x54>
    2685:	8b 53 30             	mov    0x30(%ebx),%edx
    2688:	85 d2                	test   %edx,%edx
    268a:	74 08                	je     2694 <ddf_fun_unbind+0x54>
    268c:	89 0a                	mov    %ecx,(%edx)
    268e:	8b 4b 2c             	mov    0x2c(%ebx),%ecx
    2691:	89 51 04             	mov    %edx,0x4(%ecx)
    2694:	83 ec 0c             	sub    $0xc,%esp
    2697:	c7 43 2c 00 00 00 00 	movl   $0x0,0x2c(%ebx)
    269e:	c7 43 30 00 00 00 00 	movl   $0x0,0x30(%ebx)
    26a5:	89 45 f4             	mov    %eax,-0xc(%ebp)
    26a8:	68 0c ec 00 00       	push   $0xec0c
    26ad:	e8 7e a4 00 00       	call   cb30 <fibril_mutex_unlock@plt>
    26b2:	c6 03 00             	movb   $0x0,(%ebx)
    26b5:	8b 45 f4             	mov    -0xc(%ebp),%eax
    26b8:	83 c4 10             	add    $0x10,%esp
    26bb:	8b 5d fc             	mov    -0x4(%ebp),%ebx
    26be:	c9                   	leave  
    26bf:	c3                   	ret    
    26c0:	52                   	push   %edx
    26c1:	68 2e 03 00 00       	push   $0x32e
    26c6:	68 0c ac 00 00       	push   $0xac0c
    26cb:	68 db ac 00 00       	push   $0xacdb
    26d0:	e8 cb a3 00 00       	call   caa0 <assert_abort@plt>
    26d5:	8d 74 26 00          	lea    0x0(%esi,%eiz,1),%esi
    26d9:	8d bc 27 00 00 00 00 	lea    0x0(%edi,%eiz,1),%edi

000026e0 <ddf_fun_online>:
    26e0:	55                   	push   %ebp
    26e1:	89 e5                	mov    %esp,%ebp
    26e3:	83 ec 08             	sub    $0x8,%esp
    26e6:	8b 45 08             	mov    0x8(%ebp),%eax
    26e9:	80 38 00             	cmpb   $0x0,(%eax)
    26ec:	74 0c                	je     26fa <ddf_fun_online+0x1a>
    26ee:	8b 40 04             	mov    0x4(%eax),%eax
    26f1:	89 45 08             	mov    %eax,0x8(%ebp)
    26f4:	c9                   	leave  
    26f5:	e9 c6 a2 00 00       	jmp    c9c0 <devman_drv_fun_online@plt>
    26fa:	50                   	push   %eax
    26fb:	68 43 03 00 00       	push   $0x343
    2700:	68 0c ac 00 00       	push   $0xac0c
    2705:	68 db ac 00 00       	push   $0xacdb
    270a:	e8 91 a3 00 00       	call   caa0 <assert_abort@plt>
    270f:	90                   	nop

00002710 <ddf_fun_offline>:
    2710:	55                   	push   %ebp
    2711:	89 e5                	mov    %esp,%ebp
    2713:	83 ec 08             	sub    $0x8,%esp
    2716:	8b 45 08             	mov    0x8(%ebp),%eax
    2719:	80 38 00             	cmpb   $0x0,(%eax)
    271c:	74 0c                	je     272a <ddf_fun_offline+0x1a>
    271e:	8b 40 04             	mov    0x4(%eax),%eax
    2721:	89 45 08             	mov    %eax,0x8(%ebp)
    2724:	c9                   	leave  
    2725:	e9 76 a4 00 00       	jmp    cba0 <devman_drv_fun_offline@plt>
    272a:	50                   	push   %eax
    272b:	68 55 03 00 00       	push   $0x355
    2730:	68 0c ac 00 00       	push   $0xac0c
    2735:	68 db ac 00 00       	push   $0xacdb
    273a:	e8 61 a3 00 00       	call   caa0 <assert_abort@plt>
    273f:	90                   	nop

00002740 <ddf_fun_add_match_id>:
    2740:	55                   	push   %ebp
    2741:	89 e5                	mov    %esp,%ebp
    2743:	57                   	push   %edi
    2744:	56                   	push   %esi
    2745:	53                   	push   %ebx
    2746:	83 ec 0c             	sub    $0xc,%esp
    2749:	8b 5d 08             	mov    0x8(%ebp),%ebx
    274c:	8b 75 10             	mov    0x10(%ebp),%esi
    274f:	80 3b 00             	cmpb   $0x0,(%ebx)
    2752:	0f 85 89 00 00 00    	jne    27e1 <ddf_fun_add_match_id+0xa1>
    2758:	83 7b 10 01          	cmpl   $0x1,0x10(%ebx)
    275c:	75 6e                	jne    27cc <ddf_fun_add_match_id+0x8c>
    275e:	83 ec 0c             	sub    $0xc,%esp
    2761:	6a 10                	push   $0x10
    2763:	e8 98 a2 00 00       	call   ca00 <malloc@plt>
    2768:	83 c4 0c             	add    $0xc,%esp
    276b:	89 c7                	mov    %eax,%edi
    276d:	6a 10                	push   $0x10
    276f:	6a 00                	push   $0x0
    2771:	50                   	push   %eax
    2772:	e8 79 a4 00 00       	call   cbf0 <memset@plt>
    2777:	8b 55 0c             	mov    0xc(%ebp),%edx
    277a:	58                   	pop    %eax
    277b:	52                   	push   %edx
    277c:	e8 cf a3 00 00       	call   cb50 <str_dup@plt>
    2781:	8d 53 18             	lea    0x18(%ebx),%edx
    2784:	89 47 08             	mov    %eax,0x8(%edi)
    2787:	8b 43 1c             	mov    0x1c(%ebx),%eax
    278a:	83 c4 10             	add    $0x10,%esp
    278d:	89 77 0c             	mov    %esi,0xc(%edi)
    2790:	39 c2                	cmp    %eax,%edx
    2792:	74 18                	je     27ac <ddf_fun_add_match_id+0x6c>
    2794:	39 70 0c             	cmp    %esi,0xc(%eax)
    2797:	73 0c                	jae    27a5 <ddf_fun_add_match_id+0x65>
    2799:	eb 2d                	jmp    27c8 <ddf_fun_add_match_id+0x88>
    279b:	90                   	nop
    279c:	8d 74 26 00          	lea    0x0(%esi,%eiz,1),%esi
    27a0:	3b 70 0c             	cmp    0xc(%eax),%esi
    27a3:	77 23                	ja     27c8 <ddf_fun_add_match_id+0x88>
    27a5:	8b 40 04             	mov    0x4(%eax),%eax
    27a8:	39 c2                	cmp    %eax,%edx
    27aa:	75 f4                	jne    27a0 <ddf_fun_add_match_id+0x60>
    27ac:	8b 02                	mov    (%edx),%eax
    27ae:	89 57 04             	mov    %edx,0x4(%edi)
    27b1:	89 07                	mov    %eax,(%edi)
    27b3:	8b 02                	mov    (%edx),%eax
    27b5:	89 78 04             	mov    %edi,0x4(%eax)
    27b8:	89 3a                	mov    %edi,(%edx)
    27ba:	8d 65 f4             	lea    -0xc(%ebp),%esp
    27bd:	31 c0                	xor    %eax,%eax
    27bf:	5b                   	pop    %ebx
    27c0:	5e                   	pop    %esi
    27c1:	5f                   	pop    %edi
    27c2:	5d                   	pop    %ebp
    27c3:	c3                   	ret    
    27c4:	8d 74 26 00          	lea    0x0(%esi,%eiz,1),%esi
    27c8:	89 c2                	mov    %eax,%edx
    27ca:	eb e0                	jmp    27ac <ddf_fun_add_match_id+0x6c>
    27cc:	51                   	push   %ecx
    27cd:	68 6f 03 00 00       	push   $0x36f
    27d2:	68 0c ac 00 00       	push   $0xac0c
    27d7:	68 ee ac 00 00       	push   $0xacee
    27dc:	e8 bf a2 00 00       	call   caa0 <assert_abort@plt>
    27e1:	53                   	push   %ebx
    27e2:	68 6e 03 00 00       	push   $0x36e
    27e7:	68 0c ac 00 00       	push   $0xac0c
    27ec:	68 8b ac 00 00       	push   $0xac8b
    27f1:	e8 aa a2 00 00       	call   caa0 <assert_abort@plt>
    27f6:	8d 76 00             	lea    0x0(%esi),%esi
    27f9:	8d bc 27 00 00 00 00 	lea    0x0(%edi,%eiz,1),%edi

00002800 <ddf_fun_set_ops>:
    2800:	55                   	push   %ebp
    2801:	89 e5                	mov    %esp,%ebp
    2803:	83 ec 08             	sub    $0x8,%esp
    2806:	8b 45 08             	mov    0x8(%ebp),%eax
    2809:	8b 48 28             	mov    0x28(%eax),%ecx
    280c:	85 c9                	test   %ecx,%ecx
    280e:	75 08                	jne    2818 <ddf_fun_set_ops+0x18>
    2810:	8b 55 0c             	mov    0xc(%ebp),%edx
    2813:	89 50 24             	mov    %edx,0x24(%eax)
    2816:	c9                   	leave  
    2817:	c3                   	ret    
    2818:	50                   	push   %eax
    2819:	68 7f 03 00 00       	push   $0x37f
    281e:	68 0c ac 00 00       	push   $0xac0c
    2823:	68 06 ad 00 00       	push   $0xad06
    2828:	e8 73 a2 00 00       	call   caa0 <assert_abort@plt>
    282d:	8d 76 00             	lea    0x0(%esi),%esi

00002830 <ddf_fun_set_conn_handler>:
    2830:	55                   	push   %ebp
    2831:	89 e5                	mov    %esp,%ebp
    2833:	83 ec 08             	sub    $0x8,%esp
    2836:	8b 45 08             	mov    0x8(%ebp),%eax
    2839:	8b 48 24             	mov    0x24(%eax),%ecx
    283c:	85 c9                	test   %ecx,%ecx
    283e:	75 08                	jne    2848 <ddf_fun_set_conn_handler+0x18>
    2840:	8b 55 0c             	mov    0xc(%ebp),%edx
    2843:	89 50 28             	mov    %edx,0x28(%eax)
    2846:	c9                   	leave  
    2847:	c3                   	ret    
    2848:	50                   	push   %eax
    2849:	68 89 03 00 00       	push   $0x389
    284e:	68 0c ac 00 00       	push   $0xac0c
    2853:	68 20 ad 00 00       	push   $0xad20
    2858:	e8 43 a2 00 00       	call   caa0 <assert_abort@plt>
    285d:	8d 76 00             	lea    0x0(%esi),%esi

00002860 <ddf_fun_add_to_category>:
    2860:	55                   	push   %ebp
    2861:	89 e5                	mov    %esp,%ebp
    2863:	83 ec 08             	sub    $0x8,%esp
    2866:	8b 45 08             	mov    0x8(%ebp),%eax
    2869:	8b 55 0c             	mov    0xc(%ebp),%edx
    286c:	80 38 00             	cmpb   $0x0,(%eax)
    286f:	74 15                	je     2886 <ddf_fun_add_to_category+0x26>
    2871:	83 78 10 02          	cmpl   $0x2,0x10(%eax)
    2875:	75 24                	jne    289b <ddf_fun_add_to_category+0x3b>
    2877:	89 55 0c             	mov    %edx,0xc(%ebp)
    287a:	8b 40 04             	mov    0x4(%eax),%eax
    287d:	89 45 08             	mov    %eax,0x8(%ebp)
    2880:	c9                   	leave  
    2881:	e9 8a a1 00 00       	jmp    ca10 <devman_add_device_to_category@plt>
    2886:	52                   	push   %edx
    2887:	68 9c 03 00 00       	push   $0x39c
    288c:	68 0c ac 00 00       	push   $0xac0c
    2891:	68 db ac 00 00       	push   $0xacdb
    2896:	e8 05 a2 00 00       	call   caa0 <assert_abort@plt>
    289b:	50                   	push   %eax
    289c:	68 9d 03 00 00       	push   $0x39d
    28a1:	68 0c ac 00 00       	push   $0xac0c
    28a6:	68 31 ad 00 00       	push   $0xad31
    28ab:	e8 f0 a1 00 00       	call   caa0 <assert_abort@plt>

000028b0 <ddf_driver_main>:
    28b0:	55                   	push   %ebp
    28b1:	89 e5                	mov    %esp,%ebp
    28b3:	56                   	push   %esi
    28b4:	53                   	push   %ebx
    28b5:	83 ec 10             	sub    $0x10,%esp
    28b8:	8d 75 f4             	lea    -0xc(%ebp),%esi
    28bb:	8b 45 08             	mov    0x8(%ebp),%eax
    28be:	56                   	push   %esi
    28bf:	a3 90 ed 00 00       	mov    %eax,0xed90
    28c4:	6a 00                	push   $0x0
    28c6:	68 10 1c 00 00       	push   $0x1c10
    28cb:	68 41 26 9b c9       	push   $0xc99b2641
    28d0:	e8 1b a4 00 00       	call   ccf0 <async_create_port@plt>
    28d5:	83 c4 10             	add    $0x10,%esp
    28d8:	89 c3                	mov    %eax,%ebx
    28da:	85 c0                	test   %eax,%eax
    28dc:	74 0a                	je     28e8 <ddf_driver_main+0x38>
    28de:	8d 65 f8             	lea    -0x8(%ebp),%esp
    28e1:	89 d8                	mov    %ebx,%eax
    28e3:	5b                   	pop    %ebx
    28e4:	5e                   	pop    %esi
    28e5:	5d                   	pop    %ebp
    28e6:	c3                   	ret    
    28e7:	90                   	nop
    28e8:	56                   	push   %esi
    28e9:	6a 00                	push   $0x0
    28eb:	68 30 1c 00 00       	push   $0x1c30
    28f0:	68 41 26 9b db       	push   $0xdb9b2641
    28f5:	e8 f6 a3 00 00       	call   ccf0 <async_create_port@plt>
    28fa:	83 c4 10             	add    $0x10,%esp
    28fd:	89 c3                	mov    %eax,%ebx
    28ff:	85 c0                	test   %eax,%eax
    2901:	75 db                	jne    28de <ddf_driver_main+0x2e>
    2903:	51                   	push   %ecx
    2904:	51                   	push   %ecx
    2905:	6a 00                	push   $0x0
    2907:	68 20 1c 00 00       	push   $0x1c20
    290c:	e8 4f a4 00 00       	call   cd60 <async_set_fallback_port_handler@plt>
    2911:	a1 90 ed 00 00       	mov    0xed90,%eax
    2916:	8b 30                	mov    (%eax),%esi
    2918:	5b                   	pop    %ebx
    2919:	56                   	push   %esi
    291a:	e8 c1 a2 00 00       	call   cbe0 <devman_driver_register@plt>
    291f:	83 c4 10             	add    $0x10,%esp
    2922:	89 c3                	mov    %eax,%ebx
    2924:	85 c0                	test   %eax,%eax
    2926:	74 30                	je     2958 <ddf_driver_main+0xa8>
    2928:	b8 4b ad 00 00       	mov    $0xad4b,%eax
    292d:	83 fb f7             	cmp    $0xfffffff7,%ebx
    2930:	74 0c                	je     293e <ddf_driver_main+0x8e>
    2932:	83 ec 0c             	sub    $0xc,%esp
    2935:	53                   	push   %ebx
    2936:	e8 65 a3 00 00       	call   cca0 <str_error@plt>
    293b:	83 c4 10             	add    $0x10,%esp
    293e:	52                   	push   %edx
    293f:	52                   	push   %edx
    2940:	50                   	push   %eax
    2941:	68 d8 ae 00 00       	push   $0xaed8
    2946:	e8 f5 9f 00 00       	call   c940 <printf@plt>
    294b:	83 c4 10             	add    $0x10,%esp
    294e:	8d 65 f8             	lea    -0x8(%ebp),%esp
    2951:	89 d8                	mov    %ebx,%eax
    2953:	5b                   	pop    %ebx
    2954:	5e                   	pop    %esi
    2955:	5d                   	pop    %ebp
    2956:	c3                   	ret    
    2957:	90                   	nop
    2958:	83 ec 0c             	sub    $0xc,%esp
    295b:	6a 00                	push   $0x0
    295d:	e8 ae 9f 00 00       	call   c910 <task_retval@plt>
    2962:	83 c4 10             	add    $0x10,%esp
    2965:	89 c3                	mov    %eax,%ebx
    2967:	85 c0                	test   %eax,%eax
    2969:	0f 85 6f ff ff ff    	jne    28de <ddf_driver_main+0x2e>
    296f:	83 c8 ff             	or     $0xffffffff,%eax
    2972:	f0 0f c1 05 84 ed 00 	lock xadd %eax,0xed84
    2979:	00 
    297a:	48                   	dec    %eax
    297b:	78 12                	js     298f <ddf_driver_main+0xdf>
    297d:	83 ec 0c             	sub    $0xc,%esp
    2980:	6a 03                	push   $0x3
    2982:	e8 a9 a3 00 00       	call   cd30 <fibril_switch@plt>
    2987:	83 c4 10             	add    $0x10,%esp
    298a:	e9 4f ff ff ff       	jmp    28de <ddf_driver_main+0x2e>
    298f:	50                   	push   %eax
    2990:	6a 0b                	push   $0xb
    2992:	6a 00                	push   $0x0
    2994:	6a 00                	push   $0x0
    2996:	6a 00                	push   $0x0
    2998:	6a 00                	push   $0x0
    299a:	6a 00                	push   $0x0
    299c:	68 84 ed 00 00       	push   $0xed84
    29a1:	ff 15 80 ed 00 00    	call   *0xed80
    29a7:	83 c4 20             	add    $0x20,%esp
    29aa:	eb d1                	jmp    297d <ddf_driver_main+0xcd>
    29ac:	66 90                	xchg   %ax,%ax
    29ae:	66 90                	xchg   %ax,%ax

000029b0 <get_remote_iface>:
    29b0:	55                   	push   %ebp
    29b1:	89 e5                	mov    %esp,%ebp
    29b3:	83 ec 08             	sub    $0x8,%esp
    29b6:	8b 45 08             	mov    0x8(%ebp),%eax
    29b9:	83 f8 0e             	cmp    $0xe,%eax
    29bc:	77 09                	ja     29c7 <get_remote_iface+0x17>
    29be:	8b 04 85 40 af 00 00 	mov    0xaf40(,%eax,4),%eax
    29c5:	c9                   	leave  
    29c6:	c3                   	ret    
    29c7:	50                   	push   %eax
    29c8:	6a 4f                	push   $0x4f
    29ca:	68 28 af 00 00       	push   $0xaf28
    29cf:	68 1d ac 00 00       	push   $0xac1d
    29d4:	e8 c7 a0 00 00       	call   caa0 <assert_abort@plt>
    29d9:	8d b4 26 00 00 00 00 	lea    0x0(%esi,%eiz,1),%esi

000029e0 <get_remote_method>:
    29e0:	55                   	push   %ebp
    29e1:	89 e5                	mov    %esp,%ebp
    29e3:	8b 55 08             	mov    0x8(%ebp),%edx
    29e6:	8b 45 0c             	mov    0xc(%ebp),%eax
    29e9:	39 02                	cmp    %eax,(%edx)
    29eb:	76 0b                	jbe    29f8 <get_remote_method+0x18>
    29ed:	8b 52 04             	mov    0x4(%edx),%edx
    29f0:	5d                   	pop    %ebp
    29f1:	8b 04 82             	mov    (%edx,%eax,4),%eax
    29f4:	c3                   	ret    
    29f5:	8d 76 00             	lea    0x0(%esi),%esi
    29f8:	31 c0                	xor    %eax,%eax
    29fa:	5d                   	pop    %ebp
    29fb:	c3                   	ret    
    29fc:	8d 74 26 00          	lea    0x0(%esi,%eiz,1),%esi

00002a00 <is_valid_iface_idx>:
    2a00:	55                   	push   %ebp
    2a01:	89 e5                	mov    %esp,%ebp
    2a03:	83 7d 08 0e          	cmpl   $0xe,0x8(%ebp)
    2a07:	5d                   	pop    %ebp
    2a08:	0f 96 c0             	setbe  %al
    2a0b:	c3                   	ret    
    2a0c:	66 90                	xchg   %ax,%ax
    2a0e:	66 90                	xchg   %ax,%ax

00002a10 <ddf_log_init>:
    2a10:	55                   	push   %ebp
    2a11:	89 e5                	mov    %esp,%ebp
    2a13:	5d                   	pop    %ebp
    2a14:	e9 77 9f 00 00       	jmp    c990 <log_init@plt>
    2a19:	8d b4 26 00 00 00 00 	lea    0x0(%esi,%eiz,1),%esi

00002a20 <ddf_msg>:
    2a20:	55                   	push   %ebp
    2a21:	89 e5                	mov    %esp,%ebp
    2a23:	83 ec 08             	sub    $0x8,%esp
    2a26:	8d 45 10             	lea    0x10(%ebp),%eax
    2a29:	8b 55 0c             	mov    0xc(%ebp),%edx
    2a2c:	8b 4d 08             	mov    0x8(%ebp),%ecx
    2a2f:	50                   	push   %eax
    2a30:	52                   	push   %edx
    2a31:	51                   	push   %ecx
    2a32:	6a ff                	push   $0xffffffff
    2a34:	e8 37 a0 00 00       	call   ca70 <log_msgv@plt>
    2a39:	83 c4 10             	add    $0x10,%esp
    2a3c:	c9                   	leave  
    2a3d:	c3                   	ret    
    2a3e:	66 90                	xchg   %ax,%ax

00002a40 <remote_audio_mixer_set_item_level>:
    2a40:	55                   	push   %ebp
    2a41:	89 e5                	mov    %esp,%ebp
    2a43:	53                   	push   %ebx
    2a44:	51                   	push   %ecx
    2a45:	8b 45 0c             	mov    0xc(%ebp),%eax
    2a48:	8b 4d 08             	mov    0x8(%ebp),%ecx
    2a4b:	8b 5d 10             	mov    0x10(%ebp),%ebx
    2a4e:	8b 55 14             	mov    0x14(%ebp),%edx
    2a51:	8b 40 0c             	mov    0xc(%eax),%eax
    2a54:	85 c0                	test   %eax,%eax
    2a56:	74 20                	je     2a78 <remote_audio_mixer_set_item_level+0x38>
    2a58:	83 ec 04             	sub    $0x4,%esp
    2a5b:	ff 72 0c             	pushl  0xc(%edx)
    2a5e:	8b 52 08             	mov    0x8(%edx),%edx
    2a61:	52                   	push   %edx
    2a62:	51                   	push   %ecx
    2a63:	ff d0                	call   *%eax
    2a65:	89 5d 08             	mov    %ebx,0x8(%ebp)
    2a68:	83 c4 10             	add    $0x10,%esp
    2a6b:	8b 5d fc             	mov    -0x4(%ebp),%ebx
    2a6e:	89 45 0c             	mov    %eax,0xc(%ebp)
    2a71:	c9                   	leave  
    2a72:	e9 c9 9f 00 00       	jmp    ca40 <async_answer_0@plt>
    2a77:	90                   	nop
    2a78:	89 5d 08             	mov    %ebx,0x8(%ebp)
    2a7b:	8b 5d fc             	mov    -0x4(%ebp),%ebx
    2a7e:	c7 45 0c f5 ff ff ff 	movl   $0xfffffff5,0xc(%ebp)
    2a85:	c9                   	leave  
    2a86:	e9 b5 9f 00 00       	jmp    ca40 <async_answer_0@plt>
    2a8b:	90                   	nop
    2a8c:	8d 74 26 00          	lea    0x0(%esi,%eiz,1),%esi

00002a90 <remote_audio_mixer_get_item_level>:
    2a90:	55                   	push   %ebp
    2a91:	89 e5                	mov    %esp,%ebp
    2a93:	83 ec 18             	sub    $0x18,%esp
    2a96:	8b 45 0c             	mov    0xc(%ebp),%eax
    2a99:	8b 40 08             	mov    0x8(%eax),%eax
    2a9c:	85 c0                	test   %eax,%eax
    2a9e:	74 30                	je     2ad0 <remote_audio_mixer_get_item_level+0x40>
    2aa0:	8b 55 14             	mov    0x14(%ebp),%edx
    2aa3:	c7 45 f4 00 00 00 00 	movl   $0x0,-0xc(%ebp)
    2aaa:	8b 52 08             	mov    0x8(%edx),%edx
    2aad:	51                   	push   %ecx
    2aae:	8d 4d f4             	lea    -0xc(%ebp),%ecx
    2ab1:	51                   	push   %ecx
    2ab2:	52                   	push   %edx
    2ab3:	8b 55 08             	mov    0x8(%ebp),%edx
    2ab6:	52                   	push   %edx
    2ab7:	ff d0                	call   *%eax
    2ab9:	83 c4 0c             	add    $0xc,%esp
    2abc:	8b 4d f4             	mov    -0xc(%ebp),%ecx
    2abf:	51                   	push   %ecx
    2ac0:	50                   	push   %eax
    2ac1:	8b 45 10             	mov    0x10(%ebp),%eax
    2ac4:	50                   	push   %eax
    2ac5:	e8 b6 a1 00 00       	call   cc80 <async_answer_1@plt>
    2aca:	83 c4 10             	add    $0x10,%esp
    2acd:	c9                   	leave  
    2ace:	c3                   	ret    
    2acf:	90                   	nop
    2ad0:	50                   	push   %eax
    2ad1:	50                   	push   %eax
    2ad2:	8b 45 10             	mov    0x10(%ebp),%eax
    2ad5:	6a f5                	push   $0xfffffff5
    2ad7:	50                   	push   %eax
    2ad8:	e8 63 9f 00 00       	call   ca40 <async_answer_0@plt>
    2add:	83 c4 10             	add    $0x10,%esp
    2ae0:	c9                   	leave  
    2ae1:	c3                   	ret    
    2ae2:	8d b4 26 00 00 00 00 	lea    0x0(%esi,%eiz,1),%esi
    2ae9:	8d bc 27 00 00 00 00 	lea    0x0(%edi,%eiz,1),%edi

00002af0 <remote_audio_mixer_get_item_info>:
    2af0:	55                   	push   %ebp
    2af1:	89 e5                	mov    %esp,%ebp
    2af3:	56                   	push   %esi
    2af4:	53                   	push   %ebx
    2af5:	83 ec 10             	sub    $0x10,%esp
    2af8:	8b 45 0c             	mov    0xc(%ebp),%eax
    2afb:	8b 40 04             	mov    0x4(%eax),%eax
    2afe:	85 c0                	test   %eax,%eax
    2b00:	0f 84 c2 00 00 00    	je     2bc8 <remote_audio_mixer_get_item_info+0xd8>
    2b06:	8b 55 14             	mov    0x14(%ebp),%edx
    2b09:	8d 4d ec             	lea    -0x14(%ebp),%ecx
    2b0c:	c7 45 e8 00 00 00 00 	movl   $0x0,-0x18(%ebp)
    2b13:	c7 45 ec 00 00 00 00 	movl   $0x0,-0x14(%ebp)
    2b1a:	8b 52 08             	mov    0x8(%edx),%edx
    2b1d:	51                   	push   %ecx
    2b1e:	8d 4d e8             	lea    -0x18(%ebp),%ecx
    2b21:	51                   	push   %ecx
    2b22:	8b 4d 08             	mov    0x8(%ebp),%ecx
    2b25:	52                   	push   %edx
    2b26:	51                   	push   %ecx
    2b27:	ff d0                	call   *%eax
    2b29:	83 c4 10             	add    $0x10,%esp
    2b2c:	89 c6                	mov    %eax,%esi
    2b2e:	8b 45 e8             	mov    -0x18(%ebp),%eax
    2b31:	85 c0                	test   %eax,%eax
    2b33:	74 5b                	je     2b90 <remote_audio_mixer_get_item_info+0xa0>
    2b35:	83 ec 0c             	sub    $0xc,%esp
    2b38:	50                   	push   %eax
    2b39:	e8 22 a1 00 00       	call   cc60 <str_size@plt>
    2b3e:	8b 55 10             	mov    0x10(%ebp),%edx
    2b41:	8d 58 01             	lea    0x1(%eax),%ebx
    2b44:	8b 45 ec             	mov    -0x14(%ebp),%eax
    2b47:	50                   	push   %eax
    2b48:	53                   	push   %ebx
    2b49:	56                   	push   %esi
    2b4a:	52                   	push   %edx
    2b4b:	e8 d0 9f 00 00       	call   cb20 <async_answer_2@plt>
    2b50:	83 c4 20             	add    $0x20,%esp
    2b53:	85 f6                	test   %esi,%esi
    2b55:	75 2f                	jne    2b86 <remote_audio_mixer_get_item_info+0x96>
    2b57:	85 db                	test   %ebx,%ebx
    2b59:	74 2b                	je     2b86 <remote_audio_mixer_get_item_info+0x96>
    2b5b:	50                   	push   %eax
    2b5c:	50                   	push   %eax
    2b5d:	8d 45 f0             	lea    -0x10(%ebp),%eax
    2b60:	50                   	push   %eax
    2b61:	8d 45 f4             	lea    -0xc(%ebp),%eax
    2b64:	50                   	push   %eax
    2b65:	e8 96 a0 00 00       	call   cc00 <async_data_read_receive@plt>
    2b6a:	83 c4 10             	add    $0x10,%esp
    2b6d:	84 c0                	test   %al,%al
    2b6f:	74 6f                	je     2be0 <remote_audio_mixer_get_item_info+0xf0>
    2b71:	3b 5d f0             	cmp    -0x10(%ebp),%ebx
    2b74:	74 3a                	je     2bb0 <remote_audio_mixer_get_item_info+0xc0>
    2b76:	50                   	push   %eax
    2b77:	50                   	push   %eax
    2b78:	8b 45 f4             	mov    -0xc(%ebp),%eax
    2b7b:	6a fd                	push   $0xfffffffd
    2b7d:	50                   	push   %eax
    2b7e:	e8 bd 9e 00 00       	call   ca40 <async_answer_0@plt>
    2b83:	83 c4 10             	add    $0x10,%esp
    2b86:	8d 65 f8             	lea    -0x8(%ebp),%esp
    2b89:	5b                   	pop    %ebx
    2b8a:	5e                   	pop    %esi
    2b8b:	5d                   	pop    %ebp
    2b8c:	c3                   	ret    
    2b8d:	8d 76 00             	lea    0x0(%esi),%esi
    2b90:	8b 45 ec             	mov    -0x14(%ebp),%eax
    2b93:	8b 55 10             	mov    0x10(%ebp),%edx
    2b96:	50                   	push   %eax
    2b97:	6a 00                	push   $0x0
    2b99:	56                   	push   %esi
    2b9a:	52                   	push   %edx
    2b9b:	e8 80 9f 00 00       	call   cb20 <async_answer_2@plt>
    2ba0:	83 c4 10             	add    $0x10,%esp
    2ba3:	8d 65 f8             	lea    -0x8(%ebp),%esp
    2ba6:	5b                   	pop    %ebx
    2ba7:	5e                   	pop    %esi
    2ba8:	5d                   	pop    %ebp
    2ba9:	c3                   	ret    
    2baa:	8d b6 00 00 00 00    	lea    0x0(%esi),%esi
    2bb0:	8b 75 f4             	mov    -0xc(%ebp),%esi
    2bb3:	51                   	push   %ecx
    2bb4:	53                   	push   %ebx
    2bb5:	8b 5d e8             	mov    -0x18(%ebp),%ebx
    2bb8:	53                   	push   %ebx
    2bb9:	56                   	push   %esi
    2bba:	e8 11 9e 00 00       	call   c9d0 <async_data_read_finalize@plt>
    2bbf:	83 c4 10             	add    $0x10,%esp
    2bc2:	eb c2                	jmp    2b86 <remote_audio_mixer_get_item_info+0x96>
    2bc4:	8d 74 26 00          	lea    0x0(%esi,%eiz,1),%esi
    2bc8:	8b 75 10             	mov    0x10(%ebp),%esi
    2bcb:	53                   	push   %ebx
    2bcc:	53                   	push   %ebx
    2bcd:	6a f5                	push   $0xfffffff5
    2bcf:	56                   	push   %esi
    2bd0:	e8 6b 9e 00 00       	call   ca40 <async_answer_0@plt>
    2bd5:	83 c4 10             	add    $0x10,%esp
    2bd8:	8d 65 f8             	lea    -0x8(%ebp),%esp
    2bdb:	5b                   	pop    %ebx
    2bdc:	5e                   	pop    %esi
    2bdd:	5d                   	pop    %ebp
    2bde:	c3                   	ret    
    2bdf:	90                   	nop
    2be0:	50                   	push   %eax
    2be1:	50                   	push   %eax
    2be2:	8b 45 f4             	mov    -0xc(%ebp),%eax
    2be5:	6a f8                	push   $0xfffffff8
    2be7:	50                   	push   %eax
    2be8:	e8 53 9e 00 00       	call   ca40 <async_answer_0@plt>
    2bed:	83 c4 10             	add    $0x10,%esp
    2bf0:	eb 94                	jmp    2b86 <remote_audio_mixer_get_item_info+0x96>
    2bf2:	8d b4 26 00 00 00 00 	lea    0x0(%esi,%eiz,1),%esi
    2bf9:	8d bc 27 00 00 00 00 	lea    0x0(%edi,%eiz,1),%edi

00002c00 <remote_audio_mixer_get_info>:
    2c00:	55                   	push   %ebp
    2c01:	89 e5                	mov    %esp,%ebp
    2c03:	56                   	push   %esi
    2c04:	53                   	push   %ebx
    2c05:	83 ec 10             	sub    $0x10,%esp
    2c08:	8b 45 0c             	mov    0xc(%ebp),%eax
    2c0b:	8b 00                	mov    (%eax),%eax
    2c0d:	85 c0                	test   %eax,%eax
    2c0f:	0f 84 bb 00 00 00    	je     2cd0 <remote_audio_mixer_get_info+0xd0>
    2c15:	8d 55 ec             	lea    -0x14(%ebp),%edx
    2c18:	8b 5d 08             	mov    0x8(%ebp),%ebx
    2c1b:	c7 45 e8 00 00 00 00 	movl   $0x0,-0x18(%ebp)
    2c22:	c7 45 ec 00 00 00 00 	movl   $0x0,-0x14(%ebp)
    2c29:	51                   	push   %ecx
    2c2a:	52                   	push   %edx
    2c2b:	8d 55 e8             	lea    -0x18(%ebp),%edx
    2c2e:	52                   	push   %edx
    2c2f:	53                   	push   %ebx
    2c30:	ff d0                	call   *%eax
    2c32:	83 c4 10             	add    $0x10,%esp
    2c35:	89 c6                	mov    %eax,%esi
    2c37:	8b 45 e8             	mov    -0x18(%ebp),%eax
    2c3a:	85 c0                	test   %eax,%eax
    2c3c:	74 5a                	je     2c98 <remote_audio_mixer_get_info+0x98>
    2c3e:	83 ec 0c             	sub    $0xc,%esp
    2c41:	50                   	push   %eax
    2c42:	e8 19 a0 00 00       	call   cc60 <str_size@plt>
    2c47:	8b 55 10             	mov    0x10(%ebp),%edx
    2c4a:	8d 58 01             	lea    0x1(%eax),%ebx
    2c4d:	8b 45 ec             	mov    -0x14(%ebp),%eax
    2c50:	50                   	push   %eax
    2c51:	53                   	push   %ebx
    2c52:	56                   	push   %esi
    2c53:	52                   	push   %edx
    2c54:	e8 c7 9e 00 00       	call   cb20 <async_answer_2@plt>
    2c59:	83 c4 20             	add    $0x20,%esp
    2c5c:	85 f6                	test   %esi,%esi
    2c5e:	75 2f                	jne    2c8f <remote_audio_mixer_get_info+0x8f>
    2c60:	85 db                	test   %ebx,%ebx
    2c62:	74 2b                	je     2c8f <remote_audio_mixer_get_info+0x8f>
    2c64:	50                   	push   %eax
    2c65:	50                   	push   %eax
    2c66:	8d 45 f0             	lea    -0x10(%ebp),%eax
    2c69:	50                   	push   %eax
    2c6a:	8d 45 f4             	lea    -0xc(%ebp),%eax
    2c6d:	50                   	push   %eax
    2c6e:	e8 8d 9f 00 00       	call   cc00 <async_data_read_receive@plt>
    2c73:	83 c4 10             	add    $0x10,%esp
    2c76:	84 c0                	test   %al,%al
    2c78:	74 6e                	je     2ce8 <remote_audio_mixer_get_info+0xe8>
    2c7a:	3b 5d f0             	cmp    -0x10(%ebp),%ebx
    2c7d:	74 39                	je     2cb8 <remote_audio_mixer_get_info+0xb8>
    2c7f:	50                   	push   %eax
    2c80:	50                   	push   %eax
    2c81:	8b 45 f4             	mov    -0xc(%ebp),%eax
    2c84:	6a fd                	push   $0xfffffffd
    2c86:	50                   	push   %eax
    2c87:	e8 b4 9d 00 00       	call   ca40 <async_answer_0@plt>
    2c8c:	83 c4 10             	add    $0x10,%esp
    2c8f:	8d 65 f8             	lea    -0x8(%ebp),%esp
    2c92:	5b                   	pop    %ebx
    2c93:	5e                   	pop    %esi
    2c94:	5d                   	pop    %ebp
    2c95:	c3                   	ret    
    2c96:	66 90                	xchg   %ax,%ax
    2c98:	8b 45 ec             	mov    -0x14(%ebp),%eax
    2c9b:	8b 55 10             	mov    0x10(%ebp),%edx
    2c9e:	50                   	push   %eax
    2c9f:	6a 00                	push   $0x0
    2ca1:	56                   	push   %esi
    2ca2:	52                   	push   %edx
    2ca3:	e8 78 9e 00 00       	call   cb20 <async_answer_2@plt>
    2ca8:	83 c4 10             	add    $0x10,%esp
    2cab:	8d 65 f8             	lea    -0x8(%ebp),%esp
    2cae:	5b                   	pop    %ebx
    2caf:	5e                   	pop    %esi
    2cb0:	5d                   	pop    %ebp
    2cb1:	c3                   	ret    
    2cb2:	8d b6 00 00 00 00    	lea    0x0(%esi),%esi
    2cb8:	8b 75 f4             	mov    -0xc(%ebp),%esi
    2cbb:	51                   	push   %ecx
    2cbc:	53                   	push   %ebx
    2cbd:	8b 5d e8             	mov    -0x18(%ebp),%ebx
    2cc0:	53                   	push   %ebx
    2cc1:	56                   	push   %esi
    2cc2:	e8 09 9d 00 00       	call   c9d0 <async_data_read_finalize@plt>
    2cc7:	83 c4 10             	add    $0x10,%esp
    2cca:	eb c3                	jmp    2c8f <remote_audio_mixer_get_info+0x8f>
    2ccc:	8d 74 26 00          	lea    0x0(%esi,%eiz,1),%esi
    2cd0:	8b 45 10             	mov    0x10(%ebp),%eax
    2cd3:	56                   	push   %esi
    2cd4:	56                   	push   %esi
    2cd5:	6a f5                	push   $0xfffffff5
    2cd7:	50                   	push   %eax
    2cd8:	e8 63 9d 00 00       	call   ca40 <async_answer_0@plt>
    2cdd:	83 c4 10             	add    $0x10,%esp
    2ce0:	8d 65 f8             	lea    -0x8(%ebp),%esp
    2ce3:	5b                   	pop    %ebx
    2ce4:	5e                   	pop    %esi
    2ce5:	5d                   	pop    %ebp
    2ce6:	c3                   	ret    
    2ce7:	90                   	nop
    2ce8:	50                   	push   %eax
    2ce9:	50                   	push   %eax
    2cea:	8b 45 f4             	mov    -0xc(%ebp),%eax
    2ced:	6a f8                	push   $0xfffffff8
    2cef:	50                   	push   %eax
    2cf0:	e8 4b 9d 00 00       	call   ca40 <async_answer_0@plt>
    2cf5:	83 c4 10             	add    $0x10,%esp
    2cf8:	eb 95                	jmp    2c8f <remote_audio_mixer_get_info+0x8f>
    2cfa:	8d b6 00 00 00 00    	lea    0x0(%esi),%esi

00002d00 <audio_mixer_get_info>:
    2d00:	55                   	push   %ebp
    2d01:	89 e5                	mov    %esp,%ebp
    2d03:	57                   	push   %edi
    2d04:	56                   	push   %esi
    2d05:	53                   	push   %ebx
    2d06:	83 ec 2c             	sub    $0x2c,%esp
    2d09:	8b 75 08             	mov    0x8(%ebp),%esi
    2d0c:	85 f6                	test   %esi,%esi
    2d0e:	0f 84 bc 00 00 00    	je     2dd0 <audio_mixer_get_info+0xd0>
    2d14:	50                   	push   %eax
    2d15:	8d 45 e4             	lea    -0x1c(%ebp),%eax
    2d18:	6a 00                	push   $0x0
    2d1a:	6a 00                	push   $0x0
    2d1c:	6a 00                	push   $0x0
    2d1e:	50                   	push   %eax
    2d1f:	8d 45 e0             	lea    -0x20(%ebp),%eax
    2d22:	50                   	push   %eax
    2d23:	6a 00                	push   $0x0
    2d25:	6a 00                	push   $0x0
    2d27:	6a 00                	push   $0x0
    2d29:	6a 00                	push   $0x0
    2d2b:	68 03 04 00 00       	push   $0x403
    2d30:	56                   	push   %esi
    2d31:	e8 fa 9c 00 00       	call   ca30 <async_req_fast@plt>
    2d36:	83 c4 30             	add    $0x30,%esp
    2d39:	89 c3                	mov    %eax,%ebx
    2d3b:	85 c0                	test   %eax,%eax
    2d3d:	8b 45 0c             	mov    0xc(%ebp),%eax
    2d40:	0f 94 c2             	sete   %dl
    2d43:	85 c0                	test   %eax,%eax
    2d45:	74 04                	je     2d4b <audio_mixer_get_info+0x4b>
    2d47:	84 d2                	test   %dl,%dl
    2d49:	75 1d                	jne    2d68 <audio_mixer_get_info+0x68>
    2d4b:	8b 45 10             	mov    0x10(%ebp),%eax
    2d4e:	85 c0                	test   %eax,%eax
    2d50:	74 57                	je     2da9 <audio_mixer_get_info+0xa9>
    2d52:	84 d2                	test   %dl,%dl
    2d54:	74 53                	je     2da9 <audio_mixer_get_info+0xa9>
    2d56:	8b 4d 10             	mov    0x10(%ebp),%ecx
    2d59:	8b 45 e4             	mov    -0x1c(%ebp),%eax
    2d5c:	89 01                	mov    %eax,(%ecx)
    2d5e:	89 d8                	mov    %ebx,%eax
    2d60:	8d 65 f4             	lea    -0xc(%ebp),%esp
    2d63:	5b                   	pop    %ebx
    2d64:	5e                   	pop    %esi
    2d65:	5f                   	pop    %edi
    2d66:	5d                   	pop    %ebp
    2d67:	c3                   	ret    
    2d68:	8b 45 e0             	mov    -0x20(%ebp),%eax
    2d6b:	88 55 d4             	mov    %dl,-0x2c(%ebp)
    2d6e:	57                   	push   %edi
    2d6f:	57                   	push   %edi
    2d70:	50                   	push   %eax
    2d71:	6a 01                	push   $0x1
    2d73:	e8 48 9d 00 00       	call   cac0 <calloc@plt>
    2d78:	83 c4 10             	add    $0x10,%esp
    2d7b:	89 c7                	mov    %eax,%edi
    2d7d:	85 c0                	test   %eax,%eax
    2d7f:	8a 55 d4             	mov    -0x2c(%ebp),%dl
    2d82:	74 53                	je     2dd7 <audio_mixer_get_info+0xd7>
    2d84:	8b 4d e0             	mov    -0x20(%ebp),%ecx
    2d87:	88 55 d4             	mov    %dl,-0x2c(%ebp)
    2d8a:	52                   	push   %edx
    2d8b:	51                   	push   %ecx
    2d8c:	50                   	push   %eax
    2d8d:	56                   	push   %esi
    2d8e:	e8 7d 9e 00 00       	call   cc10 <async_data_read_start@plt>
    2d93:	83 c4 10             	add    $0x10,%esp
    2d96:	8a 55 d4             	mov    -0x2c(%ebp),%dl
    2d99:	85 c0                	test   %eax,%eax
    2d9b:	75 1b                	jne    2db8 <audio_mixer_get_info+0xb8>
    2d9d:	8b 45 0c             	mov    0xc(%ebp),%eax
    2da0:	89 38                	mov    %edi,(%eax)
    2da2:	8b 45 10             	mov    0x10(%ebp),%eax
    2da5:	85 c0                	test   %eax,%eax
    2da7:	75 a9                	jne    2d52 <audio_mixer_get_info+0x52>
    2da9:	8d 65 f4             	lea    -0xc(%ebp),%esp
    2dac:	89 d8                	mov    %ebx,%eax
    2dae:	5b                   	pop    %ebx
    2daf:	5e                   	pop    %esi
    2db0:	5f                   	pop    %edi
    2db1:	5d                   	pop    %ebp
    2db2:	c3                   	ret    
    2db3:	90                   	nop
    2db4:	8d 74 26 00          	lea    0x0(%esi,%eiz,1),%esi
    2db8:	83 ec 0c             	sub    $0xc,%esp
    2dbb:	89 45 d4             	mov    %eax,-0x2c(%ebp)
    2dbe:	57                   	push   %edi
    2dbf:	e8 bc 9f 00 00       	call   cd80 <free@plt>
    2dc4:	83 c4 10             	add    $0x10,%esp
    2dc7:	8b 45 d4             	mov    -0x2c(%ebp),%eax
    2dca:	eb 94                	jmp    2d60 <audio_mixer_get_info+0x60>
    2dcc:	8d 74 26 00          	lea    0x0(%esi,%eiz,1),%esi
    2dd0:	b8 f2 ff ff ff       	mov    $0xfffffff2,%eax
    2dd5:	eb 89                	jmp    2d60 <audio_mixer_get_info+0x60>
    2dd7:	53                   	push   %ebx
    2dd8:	6a 00                	push   $0x0
    2dda:	6a ff                	push   $0xffffffff
    2ddc:	56                   	push   %esi
    2ddd:	e8 2e 9e 00 00       	call   cc10 <async_data_read_start@plt>
    2de2:	83 c4 10             	add    $0x10,%esp
    2de5:	b8 fe ff ff ff       	mov    $0xfffffffe,%eax
    2dea:	e9 71 ff ff ff       	jmp    2d60 <audio_mixer_get_info+0x60>
    2def:	90                   	nop

00002df0 <audio_mixer_get_item_info>:
    2df0:	55                   	push   %ebp
    2df1:	89 e5                	mov    %esp,%ebp
    2df3:	57                   	push   %edi
    2df4:	56                   	push   %esi
    2df5:	53                   	push   %ebx
    2df6:	83 ec 2c             	sub    $0x2c,%esp
    2df9:	8b 75 08             	mov    0x8(%ebp),%esi
    2dfc:	85 f6                	test   %esi,%esi
    2dfe:	0f 84 c4 00 00 00    	je     2ec8 <audio_mixer_get_item_info+0xd8>
    2e04:	50                   	push   %eax
    2e05:	8d 45 e4             	lea    -0x1c(%ebp),%eax
    2e08:	6a 00                	push   $0x0
    2e0a:	6a 00                	push   $0x0
    2e0c:	6a 00                	push   $0x0
    2e0e:	50                   	push   %eax
    2e0f:	8d 45 e0             	lea    -0x20(%ebp),%eax
    2e12:	50                   	push   %eax
    2e13:	8b 45 0c             	mov    0xc(%ebp),%eax
    2e16:	6a 00                	push   $0x0
    2e18:	6a 00                	push   $0x0
    2e1a:	50                   	push   %eax
    2e1b:	6a 01                	push   $0x1
    2e1d:	68 03 04 00 00       	push   $0x403
    2e22:	56                   	push   %esi
    2e23:	e8 08 9c 00 00       	call   ca30 <async_req_fast@plt>
    2e28:	83 c4 30             	add    $0x30,%esp
    2e2b:	89 c3                	mov    %eax,%ebx
    2e2d:	85 c0                	test   %eax,%eax
    2e2f:	8b 45 10             	mov    0x10(%ebp),%eax
    2e32:	0f 94 c2             	sete   %dl
    2e35:	85 c0                	test   %eax,%eax
    2e37:	74 04                	je     2e3d <audio_mixer_get_item_info+0x4d>
    2e39:	84 d2                	test   %dl,%dl
    2e3b:	75 23                	jne    2e60 <audio_mixer_get_item_info+0x70>
    2e3d:	8b 45 14             	mov    0x14(%ebp),%eax
    2e40:	85 c0                	test   %eax,%eax
    2e42:	74 5d                	je     2ea1 <audio_mixer_get_item_info+0xb1>
    2e44:	84 d2                	test   %dl,%dl
    2e46:	74 59                	je     2ea1 <audio_mixer_get_item_info+0xb1>
    2e48:	8b 4d 14             	mov    0x14(%ebp),%ecx
    2e4b:	8b 45 e4             	mov    -0x1c(%ebp),%eax
    2e4e:	89 01                	mov    %eax,(%ecx)
    2e50:	89 d8                	mov    %ebx,%eax
    2e52:	8d 65 f4             	lea    -0xc(%ebp),%esp
    2e55:	5b                   	pop    %ebx
    2e56:	5e                   	pop    %esi
    2e57:	5f                   	pop    %edi
    2e58:	5d                   	pop    %ebp
    2e59:	c3                   	ret    
    2e5a:	8d b6 00 00 00 00    	lea    0x0(%esi),%esi
    2e60:	8b 45 e0             	mov    -0x20(%ebp),%eax
    2e63:	88 55 d4             	mov    %dl,-0x2c(%ebp)
    2e66:	57                   	push   %edi
    2e67:	57                   	push   %edi
    2e68:	50                   	push   %eax
    2e69:	6a 01                	push   $0x1
    2e6b:	e8 50 9c 00 00       	call   cac0 <calloc@plt>
    2e70:	83 c4 10             	add    $0x10,%esp
    2e73:	89 c7                	mov    %eax,%edi
    2e75:	85 c0                	test   %eax,%eax
    2e77:	8a 55 d4             	mov    -0x2c(%ebp),%dl
    2e7a:	74 53                	je     2ecf <audio_mixer_get_item_info+0xdf>
    2e7c:	8b 4d e0             	mov    -0x20(%ebp),%ecx
    2e7f:	88 55 d4             	mov    %dl,-0x2c(%ebp)
    2e82:	52                   	push   %edx
    2e83:	51                   	push   %ecx
    2e84:	50                   	push   %eax
    2e85:	56                   	push   %esi
    2e86:	e8 85 9d 00 00       	call   cc10 <async_data_read_start@plt>
    2e8b:	83 c4 10             	add    $0x10,%esp
    2e8e:	8a 55 d4             	mov    -0x2c(%ebp),%dl
    2e91:	85 c0                	test   %eax,%eax
    2e93:	75 1b                	jne    2eb0 <audio_mixer_get_item_info+0xc0>
    2e95:	8b 45 10             	mov    0x10(%ebp),%eax
    2e98:	89 38                	mov    %edi,(%eax)
    2e9a:	8b 45 14             	mov    0x14(%ebp),%eax
    2e9d:	85 c0                	test   %eax,%eax
    2e9f:	75 a3                	jne    2e44 <audio_mixer_get_item_info+0x54>
    2ea1:	8d 65 f4             	lea    -0xc(%ebp),%esp
    2ea4:	89 d8                	mov    %ebx,%eax
    2ea6:	5b                   	pop    %ebx
    2ea7:	5e                   	pop    %esi
    2ea8:	5f                   	pop    %edi
    2ea9:	5d                   	pop    %ebp
    2eaa:	c3                   	ret    
    2eab:	90                   	nop
    2eac:	8d 74 26 00          	lea    0x0(%esi,%eiz,1),%esi
    2eb0:	83 ec 0c             	sub    $0xc,%esp
    2eb3:	89 45 d4             	mov    %eax,-0x2c(%ebp)
    2eb6:	57                   	push   %edi
    2eb7:	e8 c4 9e 00 00       	call   cd80 <free@plt>
    2ebc:	83 c4 10             	add    $0x10,%esp
    2ebf:	8b 45 d4             	mov    -0x2c(%ebp),%eax
    2ec2:	eb 8e                	jmp    2e52 <audio_mixer_get_item_info+0x62>
    2ec4:	8d 74 26 00          	lea    0x0(%esi,%eiz,1),%esi
    2ec8:	b8 f2 ff ff ff       	mov    $0xfffffff2,%eax
    2ecd:	eb 83                	jmp    2e52 <audio_mixer_get_item_info+0x62>
    2ecf:	53                   	push   %ebx
    2ed0:	6a 00                	push   $0x0
    2ed2:	6a ff                	push   $0xffffffff
    2ed4:	56                   	push   %esi
    2ed5:	e8 36 9d 00 00       	call   cc10 <async_data_read_start@plt>
    2eda:	83 c4 10             	add    $0x10,%esp
    2edd:	b8 fe ff ff ff       	mov    $0xfffffffe,%eax
    2ee2:	e9 6b ff ff ff       	jmp    2e52 <audio_mixer_get_item_info+0x62>
    2ee7:	89 f6                	mov    %esi,%esi
    2ee9:	8d bc 27 00 00 00 00 	lea    0x0(%edi,%eiz,1),%edi

00002ef0 <audio_mixer_set_item_level>:
    2ef0:	55                   	push   %ebp
    2ef1:	89 e5                	mov    %esp,%ebp
    2ef3:	83 ec 08             	sub    $0x8,%esp
    2ef6:	8b 45 08             	mov    0x8(%ebp),%eax
    2ef9:	85 c0                	test   %eax,%eax
    2efb:	74 2b                	je     2f28 <audio_mixer_set_item_level+0x38>
    2efd:	8b 4d 10             	mov    0x10(%ebp),%ecx
    2f00:	52                   	push   %edx
    2f01:	8b 55 0c             	mov    0xc(%ebp),%edx
    2f04:	6a 00                	push   $0x0
    2f06:	6a 00                	push   $0x0
    2f08:	6a 00                	push   $0x0
    2f0a:	6a 00                	push   $0x0
    2f0c:	6a 00                	push   $0x0
    2f0e:	6a 00                	push   $0x0
    2f10:	51                   	push   %ecx
    2f11:	52                   	push   %edx
    2f12:	6a 02                	push   $0x2
    2f14:	68 03 04 00 00       	push   $0x403
    2f19:	50                   	push   %eax
    2f1a:	e8 11 9b 00 00       	call   ca30 <async_req_fast@plt>
    2f1f:	83 c4 30             	add    $0x30,%esp
    2f22:	c9                   	leave  
    2f23:	c3                   	ret    
    2f24:	8d 74 26 00          	lea    0x0(%esi,%eiz,1),%esi
    2f28:	b8 f2 ff ff ff       	mov    $0xfffffff2,%eax
    2f2d:	c9                   	leave  
    2f2e:	c3                   	ret    
    2f2f:	90                   	nop

00002f30 <audio_mixer_get_item_level>:
    2f30:	55                   	push   %ebp
    2f31:	89 e5                	mov    %esp,%ebp
    2f33:	53                   	push   %ebx
    2f34:	83 ec 14             	sub    $0x14,%esp
    2f37:	8b 45 08             	mov    0x8(%ebp),%eax
    2f3a:	8b 5d 10             	mov    0x10(%ebp),%ebx
    2f3d:	85 c0                	test   %eax,%eax
    2f3f:	74 37                	je     2f78 <audio_mixer_get_item_level+0x48>
    2f41:	8b 4d 0c             	mov    0xc(%ebp),%ecx
    2f44:	52                   	push   %edx
    2f45:	8d 55 f4             	lea    -0xc(%ebp),%edx
    2f48:	6a 00                	push   $0x0
    2f4a:	6a 00                	push   $0x0
    2f4c:	6a 00                	push   $0x0
    2f4e:	6a 00                	push   $0x0
    2f50:	52                   	push   %edx
    2f51:	6a 00                	push   $0x0
    2f53:	6a 00                	push   $0x0
    2f55:	51                   	push   %ecx
    2f56:	6a 03                	push   $0x3
    2f58:	68 03 04 00 00       	push   $0x403
    2f5d:	50                   	push   %eax
    2f5e:	e8 cd 9a 00 00       	call   ca30 <async_req_fast@plt>
    2f63:	83 c4 30             	add    $0x30,%esp
    2f66:	85 c0                	test   %eax,%eax
    2f68:	75 09                	jne    2f73 <audio_mixer_get_item_level+0x43>
    2f6a:	85 db                	test   %ebx,%ebx
    2f6c:	74 05                	je     2f73 <audio_mixer_get_item_level+0x43>
    2f6e:	8b 55 f4             	mov    -0xc(%ebp),%edx
    2f71:	89 13                	mov    %edx,(%ebx)
    2f73:	8b 5d fc             	mov    -0x4(%ebp),%ebx
    2f76:	c9                   	leave  
    2f77:	c3                   	ret    
    2f78:	b8 f2 ff ff ff       	mov    $0xfffffff2,%eax
    2f7d:	eb f4                	jmp    2f73 <audio_mixer_get_item_level+0x43>
    2f7f:	90                   	nop

00002f80 <remote_audio_pcm_stop_capture>:
    2f80:	55                   	push   %ebp
    2f81:	89 e5                	mov    %esp,%ebp
    2f83:	53                   	push   %ebx
    2f84:	50                   	push   %eax
    2f85:	8b 45 14             	mov    0x14(%ebp),%eax
    2f88:	8b 4d 08             	mov    0x8(%ebp),%ecx
    2f8b:	8b 5d 10             	mov    0x10(%ebp),%ebx
    2f8e:	8b 50 08             	mov    0x8(%eax),%edx
    2f91:	85 d2                	test   %edx,%edx
    2f93:	8b 55 0c             	mov    0xc(%ebp),%edx
    2f96:	0f 95 c0             	setne  %al
    2f99:	8b 52 2c             	mov    0x2c(%edx),%edx
    2f9c:	85 d2                	test   %edx,%edx
    2f9e:	74 20                	je     2fc0 <remote_audio_pcm_stop_capture+0x40>
    2fa0:	83 ec 08             	sub    $0x8,%esp
    2fa3:	25 ff 00 00 00       	and    $0xff,%eax
    2fa8:	50                   	push   %eax
    2fa9:	51                   	push   %ecx
    2faa:	ff d2                	call   *%edx
    2fac:	89 5d 08             	mov    %ebx,0x8(%ebp)
    2faf:	83 c4 10             	add    $0x10,%esp
    2fb2:	8b 5d fc             	mov    -0x4(%ebp),%ebx
    2fb5:	89 45 0c             	mov    %eax,0xc(%ebp)
    2fb8:	c9                   	leave  
    2fb9:	e9 82 9a 00 00       	jmp    ca40 <async_answer_0@plt>
    2fbe:	66 90                	xchg   %ax,%ax
    2fc0:	89 5d 08             	mov    %ebx,0x8(%ebp)
    2fc3:	b8 f5 ff ff ff       	mov    $0xfffffff5,%eax
    2fc8:	8b 5d fc             	mov    -0x4(%ebp),%ebx
    2fcb:	89 45 0c             	mov    %eax,0xc(%ebp)
    2fce:	c9                   	leave  
    2fcf:	e9 6c 9a 00 00       	jmp    ca40 <async_answer_0@plt>
    2fd4:	8d b6 00 00 00 00    	lea    0x0(%esi),%esi
    2fda:	8d bf 00 00 00 00    	lea    0x0(%edi),%edi

00002fe0 <remote_audio_pcm_start_capture>:
    2fe0:	55                   	push   %ebp
    2fe1:	89 e5                	mov    %esp,%ebp
    2fe3:	57                   	push   %edi
    2fe4:	56                   	push   %esi
    2fe5:	53                   	push   %ebx
    2fe6:	83 ec 0c             	sub    $0xc,%esp
    2fe9:	8b 55 14             	mov    0x14(%ebp),%edx
    2fec:	8b 7d 0c             	mov    0xc(%ebp),%edi
    2fef:	8b 4d 08             	mov    0x8(%ebp),%ecx
    2ff2:	8b 5d 10             	mov    0x10(%ebp),%ebx
    2ff5:	8b 42 10             	mov    0x10(%edx),%eax
    2ff8:	8b 7f 28             	mov    0x28(%edi),%edi
    2ffb:	89 c6                	mov    %eax,%esi
    2ffd:	25 ff ff 00 00       	and    $0xffff,%eax
    3002:	c1 ee 10             	shr    $0x10,%esi
    3005:	85 ff                	test   %edi,%edi
    3007:	74 27                	je     3030 <remote_audio_pcm_start_capture+0x50>
    3009:	83 ec 0c             	sub    $0xc,%esp
    300c:	50                   	push   %eax
    300d:	8b 42 0c             	mov    0xc(%edx),%eax
    3010:	50                   	push   %eax
    3011:	56                   	push   %esi
    3012:	8b 52 08             	mov    0x8(%edx),%edx
    3015:	52                   	push   %edx
    3016:	51                   	push   %ecx
    3017:	ff d7                	call   *%edi
    3019:	83 c4 20             	add    $0x20,%esp
    301c:	89 5d 08             	mov    %ebx,0x8(%ebp)
    301f:	89 45 0c             	mov    %eax,0xc(%ebp)
    3022:	8d 65 f4             	lea    -0xc(%ebp),%esp
    3025:	5b                   	pop    %ebx
    3026:	5e                   	pop    %esi
    3027:	5f                   	pop    %edi
    3028:	5d                   	pop    %ebp
    3029:	e9 12 9a 00 00       	jmp    ca40 <async_answer_0@plt>
    302e:	66 90                	xchg   %ax,%ax
    3030:	b8 f5 ff ff ff       	mov    $0xfffffff5,%eax
    3035:	eb e5                	jmp    301c <remote_audio_pcm_start_capture+0x3c>
    3037:	89 f6                	mov    %esi,%esi
    3039:	8d bc 27 00 00 00 00 	lea    0x0(%edi,%eiz,1),%edi

00003040 <remote_audio_pcm_stop_playback>:
    3040:	55                   	push   %ebp
    3041:	89 e5                	mov    %esp,%ebp
    3043:	53                   	push   %ebx
    3044:	50                   	push   %eax
    3045:	8b 45 14             	mov    0x14(%ebp),%eax
    3048:	8b 4d 08             	mov    0x8(%ebp),%ecx
    304b:	8b 5d 10             	mov    0x10(%ebp),%ebx
    304e:	8b 50 08             	mov    0x8(%eax),%edx
    3051:	85 d2                	test   %edx,%edx
    3053:	8b 55 0c             	mov    0xc(%ebp),%edx
    3056:	0f 95 c0             	setne  %al
    3059:	8b 52 24             	mov    0x24(%edx),%edx
    305c:	85 d2                	test   %edx,%edx
    305e:	74 20                	je     3080 <remote_audio_pcm_stop_playback+0x40>
    3060:	83 ec 08             	sub    $0x8,%esp
    3063:	25 ff 00 00 00       	and    $0xff,%eax
    3068:	50                   	push   %eax
    3069:	51                   	push   %ecx
    306a:	ff d2                	call   *%edx
    306c:	89 5d 08             	mov    %ebx,0x8(%ebp)
    306f:	83 c4 10             	add    $0x10,%esp
    3072:	8b 5d fc             	mov    -0x4(%ebp),%ebx
    3075:	89 45 0c             	mov    %eax,0xc(%ebp)
    3078:	c9                   	leave  
    3079:	e9 c2 99 00 00       	jmp    ca40 <async_answer_0@plt>
    307e:	66 90                	xchg   %ax,%ax
    3080:	89 5d 08             	mov    %ebx,0x8(%ebp)
    3083:	b8 f5 ff ff ff       	mov    $0xfffffff5,%eax
    3088:	8b 5d fc             	mov    -0x4(%ebp),%ebx
    308b:	89 45 0c             	mov    %eax,0xc(%ebp)
    308e:	c9                   	leave  
    308f:	e9 ac 99 00 00       	jmp    ca40 <async_answer_0@plt>
    3094:	8d b6 00 00 00 00    	lea    0x0(%esi),%esi
    309a:	8d bf 00 00 00 00    	lea    0x0(%edi),%edi

000030a0 <remote_audio_pcm_start_playback>:
    30a0:	55                   	push   %ebp
    30a1:	89 e5                	mov    %esp,%ebp
    30a3:	57                   	push   %edi
    30a4:	56                   	push   %esi
    30a5:	53                   	push   %ebx
    30a6:	83 ec 0c             	sub    $0xc,%esp
    30a9:	8b 4d 14             	mov    0x14(%ebp),%ecx
    30ac:	8b 7d 0c             	mov    0xc(%ebp),%edi
    30af:	8b 75 08             	mov    0x8(%ebp),%esi
    30b2:	8b 5d 10             	mov    0x10(%ebp),%ebx
    30b5:	8b 41 10             	mov    0x10(%ecx),%eax
    30b8:	8b 7f 20             	mov    0x20(%edi),%edi
    30bb:	89 c2                	mov    %eax,%edx
    30bd:	25 ff ff 00 00       	and    $0xffff,%eax
    30c2:	c1 ea 10             	shr    $0x10,%edx
    30c5:	81 e2 ff 00 00 00    	and    $0xff,%edx
    30cb:	85 ff                	test   %edi,%edi
    30cd:	74 29                	je     30f8 <remote_audio_pcm_start_playback+0x58>
    30cf:	83 ec 0c             	sub    $0xc,%esp
    30d2:	50                   	push   %eax
    30d3:	8b 41 0c             	mov    0xc(%ecx),%eax
    30d6:	50                   	push   %eax
    30d7:	52                   	push   %edx
    30d8:	8b 51 08             	mov    0x8(%ecx),%edx
    30db:	52                   	push   %edx
    30dc:	56                   	push   %esi
    30dd:	ff d7                	call   *%edi
    30df:	83 c4 20             	add    $0x20,%esp
    30e2:	89 5d 08             	mov    %ebx,0x8(%ebp)
    30e5:	89 45 0c             	mov    %eax,0xc(%ebp)
    30e8:	8d 65 f4             	lea    -0xc(%ebp),%esp
    30eb:	5b                   	pop    %ebx
    30ec:	5e                   	pop    %esi
    30ed:	5f                   	pop    %edi
    30ee:	5d                   	pop    %ebp
    30ef:	e9 4c 99 00 00       	jmp    ca40 <async_answer_0@plt>
    30f4:	8d 74 26 00          	lea    0x0(%esi,%eiz,1),%esi
    30f8:	b8 f5 ff ff ff       	mov    $0xfffffff5,%eax
    30fd:	eb e3                	jmp    30e2 <remote_audio_pcm_start_playback+0x42>
    30ff:	90                   	nop

00003100 <remote_audio_pcm_release_buffer>:
    3100:	55                   	push   %ebp
    3101:	89 e5                	mov    %esp,%ebp
    3103:	53                   	push   %ebx
    3104:	50                   	push   %eax
    3105:	8b 45 0c             	mov    0xc(%ebp),%eax
    3108:	8b 55 08             	mov    0x8(%ebp),%edx
    310b:	8b 5d 10             	mov    0x10(%ebp),%ebx
    310e:	8b 40 14             	mov    0x14(%eax),%eax
    3111:	85 c0                	test   %eax,%eax
    3113:	74 1b                	je     3130 <remote_audio_pcm_release_buffer+0x30>
    3115:	83 ec 0c             	sub    $0xc,%esp
    3118:	52                   	push   %edx
    3119:	ff d0                	call   *%eax
    311b:	89 5d 08             	mov    %ebx,0x8(%ebp)
    311e:	83 c4 10             	add    $0x10,%esp
    3121:	8b 5d fc             	mov    -0x4(%ebp),%ebx
    3124:	89 45 0c             	mov    %eax,0xc(%ebp)
    3127:	c9                   	leave  
    3128:	e9 13 99 00 00       	jmp    ca40 <async_answer_0@plt>
    312d:	8d 76 00             	lea    0x0(%esi),%esi
    3130:	89 5d 08             	mov    %ebx,0x8(%ebp)
    3133:	b8 f5 ff ff ff       	mov    $0xfffffff5,%eax
    3138:	8b 5d fc             	mov    -0x4(%ebp),%ebx
    313b:	89 45 0c             	mov    %eax,0xc(%ebp)
    313e:	c9                   	leave  
    313f:	e9 fc 98 00 00       	jmp    ca40 <async_answer_0@plt>
    3144:	8d b6 00 00 00 00    	lea    0x0(%esi),%esi
    314a:	8d bf 00 00 00 00    	lea    0x0(%edi),%edi

00003150 <remote_audio_pcm_events_unregister>:
    3150:	55                   	push   %ebp
    3151:	89 e5                	mov    %esp,%ebp
    3153:	57                   	push   %edi
    3154:	56                   	push   %esi
    3155:	53                   	push   %ebx
    3156:	83 ec 0c             	sub    $0xc,%esp
    3159:	8b 5d 0c             	mov    0xc(%ebp),%ebx
    315c:	8b 75 08             	mov    0x8(%ebp),%esi
    315f:	8b 7d 10             	mov    0x10(%ebp),%edi
    3162:	8b 43 1c             	mov    0x1c(%ebx),%eax
    3165:	85 c0                	test   %eax,%eax
    3167:	74 3f                	je     31a8 <remote_audio_pcm_events_unregister+0x58>
    3169:	8b 4b 18             	mov    0x18(%ebx),%ecx
    316c:	85 c9                	test   %ecx,%ecx
    316e:	74 38                	je     31a8 <remote_audio_pcm_events_unregister+0x58>
    3170:	83 ec 0c             	sub    $0xc,%esp
    3173:	56                   	push   %esi
    3174:	ff d0                	call   *%eax
    3176:	83 c4 10             	add    $0x10,%esp
    3179:	85 c0                	test   %eax,%eax
    317b:	74 14                	je     3191 <remote_audio_pcm_events_unregister+0x41>
    317d:	83 ec 0c             	sub    $0xc,%esp
    3180:	50                   	push   %eax
    3181:	e8 ca 97 00 00       	call   c950 <async_hangup@plt>
    3186:	58                   	pop    %eax
    3187:	5a                   	pop    %edx
    3188:	6a 00                	push   $0x0
    318a:	56                   	push   %esi
    318b:	ff 53 18             	call   *0x18(%ebx)
    318e:	83 c4 10             	add    $0x10,%esp
    3191:	89 7d 08             	mov    %edi,0x8(%ebp)
    3194:	c7 45 0c 00 00 00 00 	movl   $0x0,0xc(%ebp)
    319b:	8d 65 f4             	lea    -0xc(%ebp),%esp
    319e:	5b                   	pop    %ebx
    319f:	5e                   	pop    %esi
    31a0:	5f                   	pop    %edi
    31a1:	5d                   	pop    %ebp
    31a2:	e9 99 98 00 00       	jmp    ca40 <async_answer_0@plt>
    31a7:	90                   	nop
    31a8:	89 7d 08             	mov    %edi,0x8(%ebp)
    31ab:	c7 45 0c f5 ff ff ff 	movl   $0xfffffff5,0xc(%ebp)
    31b2:	8d 65 f4             	lea    -0xc(%ebp),%esp
    31b5:	5b                   	pop    %ebx
    31b6:	5e                   	pop    %esi
    31b7:	5f                   	pop    %edi
    31b8:	5d                   	pop    %ebp
    31b9:	e9 82 98 00 00       	jmp    ca40 <async_answer_0@plt>
    31be:	66 90                	xchg   %ax,%ax

000031c0 <remote_audio_pcm_get_buffer_pos>:
    31c0:	55                   	push   %ebp
    31c1:	89 e5                	mov    %esp,%ebp
    31c3:	83 ec 18             	sub    $0x18,%esp
    31c6:	8b 45 0c             	mov    0xc(%ebp),%eax
    31c9:	c7 45 f4 00 00 00 00 	movl   $0x0,-0xc(%ebp)
    31d0:	8b 40 0c             	mov    0xc(%eax),%eax
    31d3:	85 c0                	test   %eax,%eax
    31d5:	74 29                	je     3200 <remote_audio_pcm_get_buffer_pos+0x40>
    31d7:	8b 4d 08             	mov    0x8(%ebp),%ecx
    31da:	52                   	push   %edx
    31db:	52                   	push   %edx
    31dc:	8d 55 f4             	lea    -0xc(%ebp),%edx
    31df:	52                   	push   %edx
    31e0:	51                   	push   %ecx
    31e1:	ff d0                	call   *%eax
    31e3:	8b 55 f4             	mov    -0xc(%ebp),%edx
    31e6:	83 c4 10             	add    $0x10,%esp
    31e9:	51                   	push   %ecx
    31ea:	52                   	push   %edx
    31eb:	50                   	push   %eax
    31ec:	8b 45 10             	mov    0x10(%ebp),%eax
    31ef:	50                   	push   %eax
    31f0:	e8 8b 9a 00 00       	call   cc80 <async_answer_1@plt>
    31f5:	83 c4 10             	add    $0x10,%esp
    31f8:	c9                   	leave  
    31f9:	c3                   	ret    
    31fa:	8d b6 00 00 00 00    	lea    0x0(%esi),%esi
    3200:	b8 f5 ff ff ff       	mov    $0xfffffff5,%eax
    3205:	31 d2                	xor    %edx,%edx
    3207:	eb e0                	jmp    31e9 <remote_audio_pcm_get_buffer_pos+0x29>
    3209:	8d b4 26 00 00 00 00 	lea    0x0(%esi,%eiz,1),%esi

00003210 <remote_audio_pcm_query_caps>:
    3210:	55                   	push   %ebp
    3211:	89 e5                	mov    %esp,%ebp
    3213:	53                   	push   %ebx
    3214:	53                   	push   %ebx
    3215:	8b 45 0c             	mov    0xc(%ebp),%eax
    3218:	8b 55 08             	mov    0x8(%ebp),%edx
    321b:	8b 5d 10             	mov    0x10(%ebp),%ebx
    321e:	8b 4d 14             	mov    0x14(%ebp),%ecx
    3221:	8b 40 08             	mov    0x8(%eax),%eax
    3224:	85 c0                	test   %eax,%eax
    3226:	74 28                	je     3250 <remote_audio_pcm_query_caps+0x40>
    3228:	83 ec 08             	sub    $0x8,%esp
    322b:	8b 49 08             	mov    0x8(%ecx),%ecx
    322e:	51                   	push   %ecx
    322f:	52                   	push   %edx
    3230:	ff d0                	call   *%eax
    3232:	89 5d 08             	mov    %ebx,0x8(%ebp)
    3235:	83 c4 10             	add    $0x10,%esp
    3238:	8b 5d fc             	mov    -0x4(%ebp),%ebx
    323b:	89 45 10             	mov    %eax,0x10(%ebp)
    323e:	c7 45 0c 00 00 00 00 	movl   $0x0,0xc(%ebp)
    3245:	c9                   	leave  
    3246:	e9 35 9a 00 00       	jmp    cc80 <async_answer_1@plt>
    324b:	90                   	nop
    324c:	8d 74 26 00          	lea    0x0(%esi,%eiz,1),%esi
    3250:	89 5d 08             	mov    %ebx,0x8(%ebp)
    3253:	8b 5d fc             	mov    -0x4(%ebp),%ebx
    3256:	c7 45 0c f5 ff ff ff 	movl   $0xfffffff5,0xc(%ebp)
    325d:	c9                   	leave  
    325e:	e9 dd 97 00 00       	jmp    ca40 <async_answer_0@plt>
    3263:	8d b6 00 00 00 00    	lea    0x0(%esi),%esi
    3269:	8d bc 27 00 00 00 00 	lea    0x0(%edi,%eiz,1),%edi

00003270 <remote_audio_pcm_get_buffer>:
    3270:	55                   	push   %ebp
    3271:	89 e5                	mov    %esp,%ebp
    3273:	56                   	push   %esi
    3274:	53                   	push   %ebx
    3275:	83 ec 10             	sub    $0x10,%esp
    3278:	8b 5d 0c             	mov    0xc(%ebp),%ebx
    327b:	8b 43 10             	mov    0x10(%ebx),%eax
    327e:	85 c0                	test   %eax,%eax
    3280:	0f 84 d2 00 00 00    	je     3358 <remote_audio_pcm_get_buffer+0xe8>
    3286:	8b 53 14             	mov    0x14(%ebx),%edx
    3289:	85 d2                	test   %edx,%edx
    328b:	0f 84 c7 00 00 00    	je     3358 <remote_audio_pcm_get_buffer+0xe8>
    3291:	8b 55 14             	mov    0x14(%ebp),%edx
    3294:	c7 45 e8 00 00 00 00 	movl   $0x0,-0x18(%ebp)
    329b:	8b 52 08             	mov    0x8(%edx),%edx
    329e:	56                   	push   %esi
    329f:	89 55 ec             	mov    %edx,-0x14(%ebp)
    32a2:	8d 55 ec             	lea    -0x14(%ebp),%edx
    32a5:	52                   	push   %edx
    32a6:	8d 55 e8             	lea    -0x18(%ebp),%edx
    32a9:	52                   	push   %edx
    32aa:	8b 55 08             	mov    0x8(%ebp),%edx
    32ad:	52                   	push   %edx
    32ae:	ff d0                	call   *%eax
    32b0:	83 c4 0c             	add    $0xc,%esp
    32b3:	8b 4d ec             	mov    -0x14(%ebp),%ecx
    32b6:	89 c6                	mov    %eax,%esi
    32b8:	51                   	push   %ecx
    32b9:	50                   	push   %eax
    32ba:	8b 45 10             	mov    0x10(%ebp),%eax
    32bd:	50                   	push   %eax
    32be:	e8 bd 99 00 00       	call   cc80 <async_answer_1@plt>
    32c3:	83 c4 10             	add    $0x10,%esp
    32c6:	85 f6                	test   %esi,%esi
    32c8:	74 0e                	je     32d8 <remote_audio_pcm_get_buffer+0x68>
    32ca:	8d 65 f8             	lea    -0x8(%ebp),%esp
    32cd:	5b                   	pop    %ebx
    32ce:	5e                   	pop    %esi
    32cf:	5d                   	pop    %ebp
    32d0:	c3                   	ret    
    32d1:	8d b4 26 00 00 00 00 	lea    0x0(%esi,%eiz,1),%esi
    32d8:	8b 4d ec             	mov    -0x14(%ebp),%ecx
    32db:	85 c9                	test   %ecx,%ecx
    32dd:	74 eb                	je     32ca <remote_audio_pcm_get_buffer+0x5a>
    32df:	c7 45 f0 00 00 00 00 	movl   $0x0,-0x10(%ebp)
    32e6:	56                   	push   %esi
    32e7:	c7 45 f4 00 00 00 00 	movl   $0x0,-0xc(%ebp)
    32ee:	56                   	push   %esi
    32ef:	68 94 af 00 00       	push   $0xaf94
    32f4:	6a 05                	push   $0x5
    32f6:	e8 25 f7 ff ff       	call   2a20 <ddf_msg>
    32fb:	58                   	pop    %eax
    32fc:	8d 45 f0             	lea    -0x10(%ebp),%eax
    32ff:	5a                   	pop    %edx
    3300:	50                   	push   %eax
    3301:	8d 45 f4             	lea    -0xc(%ebp),%eax
    3304:	50                   	push   %eax
    3305:	e8 16 99 00 00       	call   cc20 <async_share_in_receive@plt>
    330a:	83 c4 10             	add    $0x10,%esp
    330d:	84 c0                	test   %al,%al
    330f:	74 5f                	je     3370 <remote_audio_pcm_get_buffer+0x100>
    3311:	50                   	push   %eax
    3312:	50                   	push   %eax
    3313:	68 58 b1 00 00       	push   $0xb158
    3318:	6a 05                	push   $0x5
    331a:	e8 01 f7 ff ff       	call   2a20 <ddf_msg>
    331f:	8b 45 ec             	mov    -0x14(%ebp),%eax
    3322:	83 c4 10             	add    $0x10,%esp
    3325:	39 45 f0             	cmp    %eax,-0x10(%ebp)
    3328:	74 76                	je     33a0 <remote_audio_pcm_get_buffer+0x130>
    332a:	50                   	push   %eax
    332b:	50                   	push   %eax
    332c:	68 78 b1 00 00       	push   $0xb178
    3331:	6a 04                	push   $0x4
    3333:	e8 e8 f6 ff ff       	call   2a20 <ddf_msg>
    3338:	8b 55 08             	mov    0x8(%ebp),%edx
    333b:	58                   	pop    %eax
    333c:	52                   	push   %edx
    333d:	ff 53 14             	call   *0x14(%ebx)
    3340:	8b 75 f4             	mov    -0xc(%ebp),%esi
    3343:	59                   	pop    %ecx
    3344:	5b                   	pop    %ebx
    3345:	6a fd                	push   $0xfffffffd
    3347:	56                   	push   %esi
    3348:	e8 f3 96 00 00       	call   ca40 <async_answer_0@plt>
    334d:	83 c4 10             	add    $0x10,%esp
    3350:	e9 75 ff ff ff       	jmp    32ca <remote_audio_pcm_get_buffer+0x5a>
    3355:	8d 76 00             	lea    0x0(%esi),%esi
    3358:	50                   	push   %eax
    3359:	50                   	push   %eax
    335a:	8b 45 10             	mov    0x10(%ebp),%eax
    335d:	6a f5                	push   $0xfffffff5
    335f:	50                   	push   %eax
    3360:	e8 db 96 00 00       	call   ca40 <async_answer_0@plt>
    3365:	83 c4 10             	add    $0x10,%esp
    3368:	8d 65 f8             	lea    -0x8(%ebp),%esp
    336b:	5b                   	pop    %ebx
    336c:	5e                   	pop    %esi
    336d:	5d                   	pop    %ebp
    336e:	c3                   	ret    
    336f:	90                   	nop
    3370:	50                   	push   %eax
    3371:	50                   	push   %eax
    3372:	68 ad af 00 00       	push   $0xafad
    3377:	6a 04                	push   $0x4
    3379:	e8 a2 f6 ff ff       	call   2a20 <ddf_msg>
    337e:	58                   	pop    %eax
    337f:	8b 45 08             	mov    0x8(%ebp),%eax
    3382:	50                   	push   %eax
    3383:	ff 53 14             	call   *0x14(%ebx)
    3386:	8b 4d f4             	mov    -0xc(%ebp),%ecx
    3389:	58                   	pop    %eax
    338a:	5a                   	pop    %edx
    338b:	6a f8                	push   $0xfffffff8
    338d:	51                   	push   %ecx
    338e:	e8 ad 96 00 00       	call   ca40 <async_answer_0@plt>
    3393:	83 c4 10             	add    $0x10,%esp
    3396:	e9 2f ff ff ff       	jmp    32ca <remote_audio_pcm_get_buffer+0x5a>
    339b:	90                   	nop
    339c:	8d 74 26 00          	lea    0x0(%esi,%eiz,1),%esi
    33a0:	50                   	push   %eax
    33a1:	50                   	push   %eax
    33a2:	68 c9 af 00 00       	push   $0xafc9
    33a7:	6a 05                	push   $0x5
    33a9:	e8 72 f6 ff ff       	call   2a20 <ddf_msg>
    33ae:	83 c4 0c             	add    $0xc,%esp
    33b1:	8b 45 e8             	mov    -0x18(%ebp),%eax
    33b4:	6a 03                	push   $0x3
    33b6:	50                   	push   %eax
    33b7:	8b 45 f4             	mov    -0xc(%ebp),%eax
    33ba:	50                   	push   %eax
    33bb:	e8 00 99 00 00       	call   ccc0 <async_share_in_finalize@plt>
    33c0:	83 c4 10             	add    $0x10,%esp
    33c3:	85 c0                	test   %eax,%eax
    33c5:	74 1e                	je     33e5 <remote_audio_pcm_get_buffer+0x175>
    33c7:	51                   	push   %ecx
    33c8:	51                   	push   %ecx
    33c9:	68 e1 af 00 00       	push   $0xafe1
    33ce:	6a 04                	push   $0x4
    33d0:	e8 4b f6 ff ff       	call   2a20 <ddf_msg>
    33d5:	8b 45 08             	mov    0x8(%ebp),%eax
    33d8:	5e                   	pop    %esi
    33d9:	50                   	push   %eax
    33da:	ff 53 14             	call   *0x14(%ebx)
    33dd:	83 c4 10             	add    $0x10,%esp
    33e0:	e9 e5 fe ff ff       	jmp    32ca <remote_audio_pcm_get_buffer+0x5a>
    33e5:	8b 55 f0             	mov    -0x10(%ebp),%edx
    33e8:	50                   	push   %eax
    33e9:	52                   	push   %edx
    33ea:	68 f9 af 00 00       	push   $0xaff9
    33ef:	6a 05                	push   $0x5
    33f1:	e8 2a f6 ff ff       	call   2a20 <ddf_msg>
    33f6:	83 c4 10             	add    $0x10,%esp
    33f9:	e9 cc fe ff ff       	jmp    32ca <remote_audio_pcm_get_buffer+0x5a>
    33fe:	66 90                	xchg   %ax,%ax

00003400 <remote_audio_pcm_test_format>:
    3400:	55                   	push   %ebp
    3401:	89 e5                	mov    %esp,%ebp
    3403:	53                   	push   %ebx
    3404:	83 ec 14             	sub    $0x14,%esp
    3407:	8b 45 14             	mov    0x14(%ebp),%eax
    340a:	8b 55 0c             	mov    0xc(%ebp),%edx
    340d:	8b 48 08             	mov    0x8(%eax),%ecx
    3410:	8b 58 0c             	mov    0xc(%eax),%ebx
    3413:	8b 52 04             	mov    0x4(%edx),%edx
    3416:	8b 40 10             	mov    0x10(%eax),%eax
    3419:	89 4d ec             	mov    %ecx,-0x14(%ebp)
    341c:	89 5d f0             	mov    %ebx,-0x10(%ebp)
    341f:	89 45 f4             	mov    %eax,-0xc(%ebp)
    3422:	85 d2                	test   %edx,%edx
    3424:	74 3a                	je     3460 <remote_audio_pcm_test_format+0x60>
    3426:	8d 45 f4             	lea    -0xc(%ebp),%eax
    3429:	8b 4d 08             	mov    0x8(%ebp),%ecx
    342c:	50                   	push   %eax
    342d:	8d 45 f0             	lea    -0x10(%ebp),%eax
    3430:	50                   	push   %eax
    3431:	8d 45 ec             	lea    -0x14(%ebp),%eax
    3434:	50                   	push   %eax
    3435:	51                   	push   %ecx
    3436:	ff d2                	call   *%edx
    3438:	8b 55 f4             	mov    -0xc(%ebp),%edx
    343b:	8b 5d f0             	mov    -0x10(%ebp),%ebx
    343e:	8b 4d ec             	mov    -0x14(%ebp),%ecx
    3441:	83 c4 10             	add    $0x10,%esp
    3444:	83 ec 0c             	sub    $0xc,%esp
    3447:	52                   	push   %edx
    3448:	53                   	push   %ebx
    3449:	51                   	push   %ecx
    344a:	50                   	push   %eax
    344b:	8b 45 10             	mov    0x10(%ebp),%eax
    344e:	50                   	push   %eax
    344f:	e8 7c 98 00 00       	call   ccd0 <async_answer_3@plt>
    3454:	83 c4 20             	add    $0x20,%esp
    3457:	8b 5d fc             	mov    -0x4(%ebp),%ebx
    345a:	c9                   	leave  
    345b:	c3                   	ret    
    345c:	8d 74 26 00          	lea    0x0(%esi,%eiz,1),%esi
    3460:	89 c2                	mov    %eax,%edx
    3462:	b8 f5 ff ff ff       	mov    $0xfffffff5,%eax
    3467:	eb db                	jmp    3444 <remote_audio_pcm_test_format+0x44>
    3469:	8d b4 26 00 00 00 00 	lea    0x0(%esi,%eiz,1),%esi

00003470 <remote_audio_pcm_events_register>:
    3470:	55                   	push   %ebp
    3471:	89 e5                	mov    %esp,%ebp
    3473:	57                   	push   %edi
    3474:	56                   	push   %esi
    3475:	53                   	push   %ebx
    3476:	83 ec 3c             	sub    $0x3c,%esp
    3479:	8b 5d 0c             	mov    0xc(%ebp),%ebx
    347c:	8b 7b 1c             	mov    0x1c(%ebx),%edi
    347f:	85 ff                	test   %edi,%edi
    3481:	0f 84 91 00 00 00    	je     3518 <remote_audio_pcm_events_register+0xa8>
    3487:	8b 73 18             	mov    0x18(%ebx),%esi
    348a:	85 f6                	test   %esi,%esi
    348c:	0f 84 86 00 00 00    	je     3518 <remote_audio_pcm_events_register+0xa8>
    3492:	8b 75 10             	mov    0x10(%ebp),%esi
    3495:	51                   	push   %ecx
    3496:	51                   	push   %ecx
    3497:	6a 00                	push   $0x0
    3499:	56                   	push   %esi
    349a:	8d 75 c4             	lea    -0x3c(%ebp),%esi
    349d:	e8 9e 95 00 00       	call   ca40 <async_answer_0@plt>
    34a2:	5f                   	pop    %edi
    34a3:	58                   	pop    %eax
    34a4:	6a 00                	push   $0x0
    34a6:	56                   	push   %esi
    34a7:	e8 a4 97 00 00       	call   cc50 <async_get_call_timeout@plt>
    34ac:	89 c7                	mov    %eax,%edi
    34ae:	58                   	pop    %eax
    34af:	5a                   	pop    %edx
    34b0:	56                   	push   %esi
    34b1:	6a 00                	push   $0x0
    34b3:	e8 88 96 00 00       	call   cb40 <async_callback_receive_start@plt>
    34b8:	83 c4 10             	add    $0x10,%esp
    34bb:	89 c6                	mov    %eax,%esi
    34bd:	85 c0                	test   %eax,%eax
    34bf:	74 6f                	je     3530 <remote_audio_pcm_events_register+0xc0>
    34c1:	50                   	push   %eax
    34c2:	50                   	push   %eax
    34c3:	8b 45 08             	mov    0x8(%ebp),%eax
    34c6:	56                   	push   %esi
    34c7:	50                   	push   %eax
    34c8:	ff 53 18             	call   *0x18(%ebx)
    34cb:	83 c4 10             	add    $0x10,%esp
    34ce:	89 c3                	mov    %eax,%ebx
    34d0:	85 c0                	test   %eax,%eax
    34d2:	74 2c                	je     3500 <remote_audio_pcm_events_register+0x90>
    34d4:	52                   	push   %edx
    34d5:	52                   	push   %edx
    34d6:	68 16 b0 00 00       	push   $0xb016
    34db:	6a 04                	push   $0x4
    34dd:	e8 3e f5 ff ff       	call   2a20 <ddf_msg>
    34e2:	89 34 24             	mov    %esi,(%esp)
    34e5:	e8 66 94 00 00       	call   c950 <async_hangup@plt>
    34ea:	59                   	pop    %ecx
    34eb:	5e                   	pop    %esi
    34ec:	53                   	push   %ebx
    34ed:	57                   	push   %edi
    34ee:	e8 4d 95 00 00       	call   ca40 <async_answer_0@plt>
    34f3:	83 c4 10             	add    $0x10,%esp
    34f6:	8d 65 f4             	lea    -0xc(%ebp),%esp
    34f9:	5b                   	pop    %ebx
    34fa:	5e                   	pop    %esi
    34fb:	5f                   	pop    %edi
    34fc:	5d                   	pop    %ebp
    34fd:	c3                   	ret    
    34fe:	66 90                	xchg   %ax,%ax
    3500:	50                   	push   %eax
    3501:	50                   	push   %eax
    3502:	6a 00                	push   $0x0
    3504:	57                   	push   %edi
    3505:	e8 36 95 00 00       	call   ca40 <async_answer_0@plt>
    350a:	83 c4 10             	add    $0x10,%esp
    350d:	8d 65 f4             	lea    -0xc(%ebp),%esp
    3510:	5b                   	pop    %ebx
    3511:	5e                   	pop    %esi
    3512:	5f                   	pop    %edi
    3513:	5d                   	pop    %ebp
    3514:	c3                   	ret    
    3515:	8d 76 00             	lea    0x0(%esi),%esi
    3518:	8b 5d 10             	mov    0x10(%ebp),%ebx
    351b:	51                   	push   %ecx
    351c:	51                   	push   %ecx
    351d:	6a f5                	push   $0xfffffff5
    351f:	53                   	push   %ebx
    3520:	e8 1b 95 00 00       	call   ca40 <async_answer_0@plt>
    3525:	83 c4 10             	add    $0x10,%esp
    3528:	8d 65 f4             	lea    -0xc(%ebp),%esp
    352b:	5b                   	pop    %ebx
    352c:	5e                   	pop    %esi
    352d:	5f                   	pop    %edi
    352e:	5d                   	pop    %ebp
    352f:	c3                   	ret    
    3530:	50                   	push   %eax
    3531:	50                   	push   %eax
    3532:	68 a0 b1 00 00       	push   $0xb1a0
    3537:	6a 04                	push   $0x4
    3539:	e8 e2 f4 ff ff       	call   2a20 <ddf_msg>
    353e:	58                   	pop    %eax
    353f:	5a                   	pop    %edx
    3540:	68 06 d5 ff ff       	push   $0xffffd506
    3545:	57                   	push   %edi
    3546:	e8 f5 94 00 00       	call   ca40 <async_answer_0@plt>
    354b:	83 c4 10             	add    $0x10,%esp
    354e:	eb a6                	jmp    34f6 <remote_audio_pcm_events_register+0x86>

00003550 <remote_audio_pcm_get_info_str>:
    3550:	55                   	push   %ebp
    3551:	89 e5                	mov    %esp,%ebp
    3553:	56                   	push   %esi
    3554:	53                   	push   %ebx
    3555:	83 ec 10             	sub    $0x10,%esp
    3558:	8b 45 0c             	mov    0xc(%ebp),%eax
    355b:	8b 00                	mov    (%eax),%eax
    355d:	85 c0                	test   %eax,%eax
    355f:	0f 84 ab 00 00 00    	je     3610 <remote_audio_pcm_get_info_str+0xc0>
    3565:	8b 4d 08             	mov    0x8(%ebp),%ecx
    3568:	52                   	push   %edx
    3569:	c7 45 ec 00 00 00 00 	movl   $0x0,-0x14(%ebp)
    3570:	52                   	push   %edx
    3571:	8d 55 ec             	lea    -0x14(%ebp),%edx
    3574:	52                   	push   %edx
    3575:	51                   	push   %ecx
    3576:	ff d0                	call   *%eax
    3578:	83 c4 10             	add    $0x10,%esp
    357b:	89 c6                	mov    %eax,%esi
    357d:	8b 45 ec             	mov    -0x14(%ebp),%eax
    3580:	85 c0                	test   %eax,%eax
    3582:	74 5c                	je     35e0 <remote_audio_pcm_get_info_str+0x90>
    3584:	83 ec 0c             	sub    $0xc,%esp
    3587:	50                   	push   %eax
    3588:	e8 d3 96 00 00       	call   cc60 <str_size@plt>
    358d:	83 c4 0c             	add    $0xc,%esp
    3590:	8d 58 01             	lea    0x1(%eax),%ebx
    3593:	8b 45 10             	mov    0x10(%ebp),%eax
    3596:	53                   	push   %ebx
    3597:	56                   	push   %esi
    3598:	50                   	push   %eax
    3599:	e8 e2 96 00 00       	call   cc80 <async_answer_1@plt>
    359e:	83 c4 10             	add    $0x10,%esp
    35a1:	85 f6                	test   %esi,%esi
    35a3:	75 2f                	jne    35d4 <remote_audio_pcm_get_info_str+0x84>
    35a5:	85 db                	test   %ebx,%ebx
    35a7:	74 2b                	je     35d4 <remote_audio_pcm_get_info_str+0x84>
    35a9:	50                   	push   %eax
    35aa:	50                   	push   %eax
    35ab:	8d 45 f0             	lea    -0x10(%ebp),%eax
    35ae:	50                   	push   %eax
    35af:	8d 45 f4             	lea    -0xc(%ebp),%eax
    35b2:	50                   	push   %eax
    35b3:	e8 48 96 00 00       	call   cc00 <async_data_read_receive@plt>
    35b8:	83 c4 10             	add    $0x10,%esp
    35bb:	84 c0                	test   %al,%al
    35bd:	74 69                	je     3628 <remote_audio_pcm_get_info_str+0xd8>
    35bf:	3b 5d f0             	cmp    -0x10(%ebp),%ebx
    35c2:	74 34                	je     35f8 <remote_audio_pcm_get_info_str+0xa8>
    35c4:	50                   	push   %eax
    35c5:	50                   	push   %eax
    35c6:	8b 45 f4             	mov    -0xc(%ebp),%eax
    35c9:	6a fd                	push   $0xfffffffd
    35cb:	50                   	push   %eax
    35cc:	e8 6f 94 00 00       	call   ca40 <async_answer_0@plt>
    35d1:	83 c4 10             	add    $0x10,%esp
    35d4:	8d 65 f8             	lea    -0x8(%ebp),%esp
    35d7:	5b                   	pop    %ebx
    35d8:	5e                   	pop    %esi
    35d9:	5d                   	pop    %ebp
    35da:	c3                   	ret    
    35db:	90                   	nop
    35dc:	8d 74 26 00          	lea    0x0(%esi,%eiz,1),%esi
    35e0:	8b 55 10             	mov    0x10(%ebp),%edx
    35e3:	50                   	push   %eax
    35e4:	6a 00                	push   $0x0
    35e6:	56                   	push   %esi
    35e7:	52                   	push   %edx
    35e8:	e8 93 96 00 00       	call   cc80 <async_answer_1@plt>
    35ed:	83 c4 10             	add    $0x10,%esp
    35f0:	8d 65 f8             	lea    -0x8(%ebp),%esp
    35f3:	5b                   	pop    %ebx
    35f4:	5e                   	pop    %esi
    35f5:	5d                   	pop    %ebp
    35f6:	c3                   	ret    
    35f7:	90                   	nop
    35f8:	8b 75 f4             	mov    -0xc(%ebp),%esi
    35fb:	51                   	push   %ecx
    35fc:	53                   	push   %ebx
    35fd:	8b 5d ec             	mov    -0x14(%ebp),%ebx
    3600:	53                   	push   %ebx
    3601:	56                   	push   %esi
    3602:	e8 c9 93 00 00       	call   c9d0 <async_data_read_finalize@plt>
    3607:	83 c4 10             	add    $0x10,%esp
    360a:	eb c8                	jmp    35d4 <remote_audio_pcm_get_info_str+0x84>
    360c:	8d 74 26 00          	lea    0x0(%esi,%eiz,1),%esi
    3610:	8b 75 10             	mov    0x10(%ebp),%esi
    3613:	53                   	push   %ebx
    3614:	53                   	push   %ebx
    3615:	6a f5                	push   $0xfffffff5
    3617:	56                   	push   %esi
    3618:	e8 23 94 00 00       	call   ca40 <async_answer_0@plt>
    361d:	83 c4 10             	add    $0x10,%esp
    3620:	8d 65 f8             	lea    -0x8(%ebp),%esp
    3623:	5b                   	pop    %ebx
    3624:	5e                   	pop    %esi
    3625:	5d                   	pop    %ebp
    3626:	c3                   	ret    
    3627:	90                   	nop
    3628:	50                   	push   %eax
    3629:	50                   	push   %eax
    362a:	8b 45 f4             	mov    -0xc(%ebp),%eax
    362d:	6a f8                	push   $0xfffffff8
    362f:	50                   	push   %eax
    3630:	e8 0b 94 00 00       	call   ca40 <async_answer_0@plt>
    3635:	83 c4 10             	add    $0x10,%esp
    3638:	eb 9a                	jmp    35d4 <remote_audio_pcm_get_info_str+0x84>
    363a:	8d b6 00 00 00 00    	lea    0x0(%esi),%esi

00003640 <audio_pcm_cap_str>:
    3640:	55                   	push   %ebp
    3641:	b8 34 b0 00 00       	mov    $0xb034,%eax
    3646:	89 e5                	mov    %esp,%ebp
    3648:	8b 55 08             	mov    0x8(%ebp),%edx
    364b:	83 fa 06             	cmp    $0x6,%edx
    364e:	77 07                	ja     3657 <audio_pcm_cap_str+0x17>
    3650:	8b 04 95 f8 c1 00 00 	mov    0xc1f8(,%edx,4),%eax
    3657:	5d                   	pop    %ebp
    3658:	c3                   	ret    
    3659:	8d b4 26 00 00 00 00 	lea    0x0(%esi,%eiz,1),%esi

00003660 <audio_pcm_event_str>:
    3660:	55                   	push   %ebp
    3661:	b8 40 b0 00 00       	mov    $0xb040,%eax
    3666:	89 e5                	mov    %esp,%ebp
    3668:	8b 55 08             	mov    0x8(%ebp),%edx
    366b:	81 fa 05 04 00 00    	cmp    $0x405,%edx
    3671:	77 07                	ja     367a <audio_pcm_event_str+0x1a>
    3673:	8b 04 95 e0 b1 00 00 	mov    0xb1e0(,%edx,4),%eax
    367a:	5d                   	pop    %ebp
    367b:	c3                   	ret    
    367c:	8d 74 26 00          	lea    0x0(%esi,%eiz,1),%esi

00003680 <audio_pcm_open_default>:
    3680:	55                   	push   %ebp
    3681:	89 e5                	mov    %esp,%ebp
    3683:	83 ec 28             	sub    $0x28,%esp
    3686:	80 3d 98 ed 00 00 00 	cmpb   $0x0,0xed98
    368d:	75 20                	jne    36af <audio_pcm_open_default+0x2f>
    368f:	50                   	push   %eax
    3690:	6a 01                	push   $0x1
    3692:	68 94 ed 00 00       	push   $0xed94
    3697:	68 4e b0 00 00       	push   $0xb04e
    369c:	e8 4f 92 00 00       	call   c8f0 <loc_category_get_id@plt>
    36a1:	83 c4 10             	add    $0x10,%esp
    36a4:	85 c0                	test   %eax,%eax
    36a6:	75 68                	jne    3710 <audio_pcm_open_default+0x90>
    36a8:	c6 05 98 ed 00 00 01 	movb   $0x1,0xed98
    36af:	8d 45 f4             	lea    -0xc(%ebp),%eax
    36b2:	51                   	push   %ecx
    36b3:	50                   	push   %eax
    36b4:	8d 45 f0             	lea    -0x10(%ebp),%eax
    36b7:	50                   	push   %eax
    36b8:	a1 94 ed 00 00       	mov    0xed94,%eax
    36bd:	50                   	push   %eax
    36be:	c7 45 f0 00 00 00 00 	movl   $0x0,-0x10(%ebp)
    36c5:	c7 45 f4 00 00 00 00 	movl   $0x0,-0xc(%ebp)
    36cc:	e8 6f 95 00 00       	call   cc40 <loc_category_get_svcs@plt>
    36d1:	83 c4 10             	add    $0x10,%esp
    36d4:	85 c0                	test   %eax,%eax
    36d6:	75 38                	jne    3710 <audio_pcm_open_default+0x90>
    36d8:	8b 55 f4             	mov    -0xc(%ebp),%edx
    36db:	85 d2                	test   %edx,%edx
    36dd:	75 19                	jne    36f8 <audio_pcm_open_default+0x78>
    36df:	83 ec 0c             	sub    $0xc,%esp
    36e2:	89 45 e4             	mov    %eax,-0x1c(%ebp)
    36e5:	8b 45 f0             	mov    -0x10(%ebp),%eax
    36e8:	50                   	push   %eax
    36e9:	e8 92 96 00 00       	call   cd80 <free@plt>
    36ee:	8b 45 e4             	mov    -0x1c(%ebp),%eax
    36f1:	83 c4 10             	add    $0x10,%esp
    36f4:	c9                   	leave  
    36f5:	c3                   	ret    
    36f6:	66 90                	xchg   %ax,%ax
    36f8:	8b 45 f0             	mov    -0x10(%ebp),%eax
    36fb:	52                   	push   %edx
    36fc:	6a 01                	push   $0x1
    36fe:	68 41 26 9b 41       	push   $0x419b2641
    3703:	8b 08                	mov    (%eax),%ecx
    3705:	51                   	push   %ecx
    3706:	e8 15 92 00 00       	call   c920 <loc_service_connect@plt>
    370b:	83 c4 10             	add    $0x10,%esp
    370e:	eb cf                	jmp    36df <audio_pcm_open_default+0x5f>
    3710:	31 c0                	xor    %eax,%eax
    3712:	c9                   	leave  
    3713:	c3                   	ret    
    3714:	8d b6 00 00 00 00    	lea    0x0(%esi),%esi
    371a:	8d bf 00 00 00 00    	lea    0x0(%edi),%edi

00003720 <audio_pcm_open>:
    3720:	55                   	push   %ebp
    3721:	89 e5                	mov    %esp,%ebp
    3723:	83 ec 1c             	sub    $0x1c,%esp
    3726:	8d 45 f4             	lea    -0xc(%ebp),%eax
    3729:	8b 4d 08             	mov    0x8(%ebp),%ecx
    372c:	6a 00                	push   $0x0
    372e:	c7 45 f4 00 00 00 00 	movl   $0x0,-0xc(%ebp)
    3735:	50                   	push   %eax
    3736:	51                   	push   %ecx
    3737:	e8 74 95 00 00       	call   ccb0 <devman_fun_get_handle@plt>
    373c:	83 c4 10             	add    $0x10,%esp
    373f:	85 c0                	test   %eax,%eax
    3741:	75 15                	jne    3758 <audio_pcm_open+0x38>
    3743:	8b 55 f4             	mov    -0xc(%ebp),%edx
    3746:	50                   	push   %eax
    3747:	50                   	push   %eax
    3748:	6a 01                	push   $0x1
    374a:	52                   	push   %edx
    374b:	e8 b0 91 00 00       	call   c900 <devman_device_connect@plt>
    3750:	83 c4 10             	add    $0x10,%esp
    3753:	c9                   	leave  
    3754:	c3                   	ret    
    3755:	8d 76 00             	lea    0x0(%esi),%esi
    3758:	31 c0                	xor    %eax,%eax
    375a:	c9                   	leave  
    375b:	c3                   	ret    
    375c:	8d 74 26 00          	lea    0x0(%esi,%eiz,1),%esi

00003760 <audio_pcm_open_service>:
    3760:	55                   	push   %ebp
    3761:	89 e5                	mov    %esp,%ebp
    3763:	83 ec 0c             	sub    $0xc,%esp
    3766:	8b 45 08             	mov    0x8(%ebp),%eax
    3769:	6a 01                	push   $0x1
    376b:	68 41 26 9b 41       	push   $0x419b2641
    3770:	50                   	push   %eax
    3771:	e8 aa 91 00 00       	call   c920 <loc_service_connect@plt>
    3776:	c9                   	leave  
    3777:	c3                   	ret    
    3778:	90                   	nop
    3779:	8d b4 26 00 00 00 00 	lea    0x0(%esi,%eiz,1),%esi

00003780 <audio_pcm_close>:
    3780:	55                   	push   %ebp
    3781:	89 e5                	mov    %esp,%ebp
    3783:	8b 45 08             	mov    0x8(%ebp),%eax
    3786:	85 c0                	test   %eax,%eax
    3788:	74 06                	je     3790 <audio_pcm_close+0x10>
    378a:	5d                   	pop    %ebp
    378b:	e9 c0 91 00 00       	jmp    c950 <async_hangup@plt>
    3790:	5d                   	pop    %ebp
    3791:	c3                   	ret    
    3792:	8d b4 26 00 00 00 00 	lea    0x0(%esi,%eiz,1),%esi
    3799:	8d bc 27 00 00 00 00 	lea    0x0(%edi,%eiz,1),%edi

000037a0 <audio_pcm_get_info_str>:
    37a0:	55                   	push   %ebp
    37a1:	89 e5                	mov    %esp,%ebp
    37a3:	57                   	push   %edi
    37a4:	56                   	push   %esi
    37a5:	53                   	push   %ebx
    37a6:	83 ec 2c             	sub    $0x2c,%esp
    37a9:	8b 45 0c             	mov    0xc(%ebp),%eax
    37ac:	85 c0                	test   %eax,%eax
    37ae:	0f 84 ac 00 00 00    	je     3860 <audio_pcm_get_info_str+0xc0>
    37b4:	83 ec 0c             	sub    $0xc,%esp
    37b7:	8b 45 08             	mov    0x8(%ebp),%eax
    37ba:	50                   	push   %eax
    37bb:	e8 d0 94 00 00       	call   cc90 <async_exchange_begin@plt>
    37c0:	83 c4 0c             	add    $0xc,%esp
    37c3:	89 c6                	mov    %eax,%esi
    37c5:	8d 45 e4             	lea    -0x1c(%ebp),%eax
    37c8:	6a 00                	push   $0x0
    37ca:	6a 00                	push   $0x0
    37cc:	6a 00                	push   $0x0
    37ce:	6a 00                	push   $0x0
    37d0:	50                   	push   %eax
    37d1:	6a 00                	push   $0x0
    37d3:	6a 00                	push   $0x0
    37d5:	6a 00                	push   $0x0
    37d7:	6a 00                	push   $0x0
    37d9:	68 04 04 00 00       	push   $0x404
    37de:	56                   	push   %esi
    37df:	e8 4c 92 00 00       	call   ca30 <async_req_fast@plt>
    37e4:	83 c4 30             	add    $0x30,%esp
    37e7:	89 c3                	mov    %eax,%ebx
    37e9:	85 c0                	test   %eax,%eax
    37eb:	75 2e                	jne    381b <audio_pcm_get_info_str+0x7b>
    37ed:	8b 45 e4             	mov    -0x1c(%ebp),%eax
    37f0:	57                   	push   %edi
    37f1:	57                   	push   %edi
    37f2:	50                   	push   %eax
    37f3:	6a 01                	push   $0x1
    37f5:	e8 c6 92 00 00       	call   cac0 <calloc@plt>
    37fa:	83 c4 10             	add    $0x10,%esp
    37fd:	89 c7                	mov    %eax,%edi
    37ff:	85 c0                	test   %eax,%eax
    3801:	74 64                	je     3867 <audio_pcm_get_info_str+0xc7>
    3803:	8b 55 e4             	mov    -0x1c(%ebp),%edx
    3806:	50                   	push   %eax
    3807:	52                   	push   %edx
    3808:	57                   	push   %edi
    3809:	56                   	push   %esi
    380a:	e8 01 94 00 00       	call   cc10 <async_data_read_start@plt>
    380f:	83 c4 10             	add    $0x10,%esp
    3812:	85 c0                	test   %eax,%eax
    3814:	75 22                	jne    3838 <audio_pcm_get_info_str+0x98>
    3816:	8b 45 0c             	mov    0xc(%ebp),%eax
    3819:	89 38                	mov    %edi,(%eax)
    381b:	83 ec 0c             	sub    $0xc,%esp
    381e:	56                   	push   %esi
    381f:	e8 6c 92 00 00       	call   ca90 <async_exchange_end@plt>
    3824:	83 c4 10             	add    $0x10,%esp
    3827:	89 d8                	mov    %ebx,%eax
    3829:	8d 65 f4             	lea    -0xc(%ebp),%esp
    382c:	5b                   	pop    %ebx
    382d:	5e                   	pop    %esi
    382e:	5f                   	pop    %edi
    382f:	5d                   	pop    %ebp
    3830:	c3                   	ret    
    3831:	8d b4 26 00 00 00 00 	lea    0x0(%esi,%eiz,1),%esi
    3838:	83 ec 0c             	sub    $0xc,%esp
    383b:	89 45 d4             	mov    %eax,-0x2c(%ebp)
    383e:	57                   	push   %edi
    383f:	e8 3c 95 00 00       	call   cd80 <free@plt>
    3844:	89 34 24             	mov    %esi,(%esp)
    3847:	e8 44 92 00 00       	call   ca90 <async_exchange_end@plt>
    384c:	8b 45 d4             	mov    -0x2c(%ebp),%eax
    384f:	83 c4 10             	add    $0x10,%esp
    3852:	8d 65 f4             	lea    -0xc(%ebp),%esp
    3855:	5b                   	pop    %ebx
    3856:	5e                   	pop    %esi
    3857:	5f                   	pop    %edi
    3858:	5d                   	pop    %ebp
    3859:	c3                   	ret    
    385a:	8d b6 00 00 00 00    	lea    0x0(%esi),%esi
    3860:	b8 f2 ff ff ff       	mov    $0xfffffff2,%eax
    3865:	eb c2                	jmp    3829 <audio_pcm_get_info_str+0x89>
    3867:	51                   	push   %ecx
    3868:	6a 00                	push   $0x0
    386a:	6a ff                	push   $0xffffffff
    386c:	56                   	push   %esi
    386d:	e8 9e 93 00 00       	call   cc10 <async_data_read_start@plt>
    3872:	89 34 24             	mov    %esi,(%esp)
    3875:	e8 16 92 00 00       	call   ca90 <async_exchange_end@plt>
    387a:	83 c4 10             	add    $0x10,%esp
    387d:	b8 fe ff ff ff       	mov    $0xfffffffe,%eax
    3882:	eb a5                	jmp    3829 <audio_pcm_get_info_str+0x89>
    3884:	8d b6 00 00 00 00    	lea    0x0(%esi),%esi
    388a:	8d bf 00 00 00 00    	lea    0x0(%edi),%edi

00003890 <audio_pcm_query_cap>:
    3890:	55                   	push   %ebp
    3891:	89 e5                	mov    %esp,%ebp
    3893:	53                   	push   %ebx
    3894:	83 ec 30             	sub    $0x30,%esp
    3897:	8b 45 08             	mov    0x8(%ebp),%eax
    389a:	50                   	push   %eax
    389b:	e8 f0 93 00 00       	call   cc90 <async_exchange_begin@plt>
    38a0:	83 c4 0c             	add    $0xc,%esp
    38a3:	89 c3                	mov    %eax,%ebx
    38a5:	8b 55 0c             	mov    0xc(%ebp),%edx
    38a8:	8d 45 f4             	lea    -0xc(%ebp),%eax
    38ab:	6a 00                	push   $0x0
    38ad:	c7 45 f4 00 00 00 00 	movl   $0x0,-0xc(%ebp)
    38b4:	6a 00                	push   $0x0
    38b6:	6a 00                	push   $0x0
    38b8:	6a 00                	push   $0x0
    38ba:	50                   	push   %eax
    38bb:	6a 00                	push   $0x0
    38bd:	6a 00                	push   $0x0
    38bf:	52                   	push   %edx
    38c0:	6a 01                	push   $0x1
    38c2:	68 04 04 00 00       	push   $0x404
    38c7:	53                   	push   %ebx
    38c8:	e8 63 91 00 00       	call   ca30 <async_req_fast@plt>
    38cd:	83 c4 24             	add    $0x24,%esp
    38d0:	89 45 e4             	mov    %eax,-0x1c(%ebp)
    38d3:	53                   	push   %ebx
    38d4:	e8 b7 91 00 00       	call   ca90 <async_exchange_end@plt>
    38d9:	8b 45 e4             	mov    -0x1c(%ebp),%eax
    38dc:	83 c4 10             	add    $0x10,%esp
    38df:	85 c0                	test   %eax,%eax
    38e1:	75 03                	jne    38e6 <audio_pcm_query_cap+0x56>
    38e3:	8b 45 f4             	mov    -0xc(%ebp),%eax
    38e6:	8b 5d fc             	mov    -0x4(%ebp),%ebx
    38e9:	c9                   	leave  
    38ea:	c3                   	ret    
    38eb:	90                   	nop
    38ec:	8d 74 26 00          	lea    0x0(%esi,%eiz,1),%esi

000038f0 <audio_pcm_get_buffer_pos>:
    38f0:	55                   	push   %ebp
    38f1:	89 e5                	mov    %esp,%ebp
    38f3:	56                   	push   %esi
    38f4:	53                   	push   %ebx
    38f5:	83 ec 20             	sub    $0x20,%esp
    38f8:	8b 75 0c             	mov    0xc(%ebp),%esi
    38fb:	85 f6                	test   %esi,%esi
    38fd:	74 61                	je     3960 <audio_pcm_get_buffer_pos+0x70>
    38ff:	83 ec 0c             	sub    $0xc,%esp
    3902:	8b 45 08             	mov    0x8(%ebp),%eax
    3905:	50                   	push   %eax
    3906:	e8 85 93 00 00       	call   cc90 <async_exchange_begin@plt>
    390b:	83 c4 0c             	add    $0xc,%esp
    390e:	89 c3                	mov    %eax,%ebx
    3910:	8d 45 f4             	lea    -0xc(%ebp),%eax
    3913:	c7 45 f4 00 00 00 00 	movl   $0x0,-0xc(%ebp)
    391a:	6a 00                	push   $0x0
    391c:	6a 00                	push   $0x0
    391e:	6a 00                	push   $0x0
    3920:	6a 00                	push   $0x0
    3922:	50                   	push   %eax
    3923:	6a 00                	push   $0x0
    3925:	6a 00                	push   $0x0
    3927:	6a 00                	push   $0x0
    3929:	6a 07                	push   $0x7
    392b:	68 04 04 00 00       	push   $0x404
    3930:	53                   	push   %ebx
    3931:	e8 fa 90 00 00       	call   ca30 <async_req_fast@plt>
    3936:	83 c4 30             	add    $0x30,%esp
    3939:	85 c0                	test   %eax,%eax
    393b:	74 1b                	je     3958 <audio_pcm_get_buffer_pos+0x68>
    393d:	83 ec 0c             	sub    $0xc,%esp
    3940:	89 45 e4             	mov    %eax,-0x1c(%ebp)
    3943:	53                   	push   %ebx
    3944:	e8 47 91 00 00       	call   ca90 <async_exchange_end@plt>
    3949:	83 c4 10             	add    $0x10,%esp
    394c:	8b 45 e4             	mov    -0x1c(%ebp),%eax
    394f:	8d 65 f8             	lea    -0x8(%ebp),%esp
    3952:	5b                   	pop    %ebx
    3953:	5e                   	pop    %esi
    3954:	5d                   	pop    %ebp
    3955:	c3                   	ret    
    3956:	66 90                	xchg   %ax,%ax
    3958:	8b 55 f4             	mov    -0xc(%ebp),%edx
    395b:	89 16                	mov    %edx,(%esi)
    395d:	eb de                	jmp    393d <audio_pcm_get_buffer_pos+0x4d>
    395f:	90                   	nop
    3960:	b8 f2 ff ff ff       	mov    $0xfffffff2,%eax
    3965:	eb e8                	jmp    394f <audio_pcm_get_buffer_pos+0x5f>
    3967:	89 f6                	mov    %esi,%esi
    3969:	8d bc 27 00 00 00 00 	lea    0x0(%edi,%eiz,1),%edi

00003970 <audio_pcm_test_format>:
    3970:	55                   	push   %ebp
    3971:	89 e5                	mov    %esp,%ebp
    3973:	57                   	push   %edi
    3974:	56                   	push   %esi
    3975:	53                   	push   %ebx
    3976:	83 ec 38             	sub    $0x38,%esp
    3979:	8b 45 08             	mov    0x8(%ebp),%eax
    397c:	8b 5d 0c             	mov    0xc(%ebp),%ebx
    397f:	50                   	push   %eax
    3980:	e8 0b 93 00 00       	call   cc90 <async_exchange_begin@plt>
    3985:	83 c4 10             	add    $0x10,%esp
    3988:	89 c6                	mov    %eax,%esi
    398a:	85 db                	test   %ebx,%ebx
    398c:	0f 84 be 00 00 00    	je     3a50 <audio_pcm_test_format+0xe0>
    3992:	8b 03                	mov    (%ebx),%eax
    3994:	8b 7d 10             	mov    0x10(%ebp),%edi
    3997:	89 45 dc             	mov    %eax,-0x24(%ebp)
    399a:	85 ff                	test   %edi,%edi
    399c:	0f 84 be 00 00 00    	je     3a60 <audio_pcm_test_format+0xf0>
    39a2:	8b 4d 10             	mov    0x10(%ebp),%ecx
    39a5:	8b 11                	mov    (%ecx),%edx
    39a7:	8b 4d 14             	mov    0x14(%ebp),%ecx
    39aa:	89 55 e0             	mov    %edx,-0x20(%ebp)
    39ad:	85 c9                	test   %ecx,%ecx
    39af:	0f 84 bb 00 00 00    	je     3a70 <audio_pcm_test_format+0x100>
    39b5:	8b 7d 14             	mov    0x14(%ebp),%edi
    39b8:	8b 0f                	mov    (%edi),%ecx
    39ba:	57                   	push   %edi
    39bb:	8d 7d e4             	lea    -0x1c(%ebp),%edi
    39be:	6a 00                	push   $0x0
    39c0:	6a 00                	push   $0x0
    39c2:	57                   	push   %edi
    39c3:	8d 7d e0             	lea    -0x20(%ebp),%edi
    39c6:	57                   	push   %edi
    39c7:	8d 7d dc             	lea    -0x24(%ebp),%edi
    39ca:	57                   	push   %edi
    39cb:	89 4d e4             	mov    %ecx,-0x1c(%ebp)
    39ce:	51                   	push   %ecx
    39cf:	52                   	push   %edx
    39d0:	50                   	push   %eax
    39d1:	6a 04                	push   $0x4
    39d3:	68 04 04 00 00       	push   $0x404
    39d8:	56                   	push   %esi
    39d9:	e8 52 90 00 00       	call   ca30 <async_req_fast@plt>
    39de:	83 c4 24             	add    $0x24,%esp
    39e1:	89 45 d4             	mov    %eax,-0x2c(%ebp)
    39e4:	56                   	push   %esi
    39e5:	e8 a6 90 00 00       	call   ca90 <async_exchange_end@plt>
    39ea:	8b 45 d4             	mov    -0x2c(%ebp),%eax
    39ed:	83 c4 10             	add    $0x10,%esp
    39f0:	85 c0                	test   %eax,%eax
    39f2:	74 34                	je     3a28 <audio_pcm_test_format+0xb8>
    39f4:	83 f8 fd             	cmp    $0xfffffffd,%eax
    39f7:	74 2f                	je     3a28 <audio_pcm_test_format+0xb8>
    39f9:	85 db                	test   %ebx,%ebx
    39fb:	74 05                	je     3a02 <audio_pcm_test_format+0x92>
    39fd:	8b 55 dc             	mov    -0x24(%ebp),%edx
    3a00:	89 13                	mov    %edx,(%ebx)
    3a02:	8b 4d 10             	mov    0x10(%ebp),%ecx
    3a05:	85 c9                	test   %ecx,%ecx
    3a07:	74 08                	je     3a11 <audio_pcm_test_format+0xa1>
    3a09:	8b 55 e0             	mov    -0x20(%ebp),%edx
    3a0c:	8b 75 10             	mov    0x10(%ebp),%esi
    3a0f:	89 16                	mov    %edx,(%esi)
    3a11:	8b 55 14             	mov    0x14(%ebp),%edx
    3a14:	85 d2                	test   %edx,%edx
    3a16:	74 08                	je     3a20 <audio_pcm_test_format+0xb0>
    3a18:	8b 4d 14             	mov    0x14(%ebp),%ecx
    3a1b:	8b 55 e4             	mov    -0x1c(%ebp),%edx
    3a1e:	89 11                	mov    %edx,(%ecx)
    3a20:	8d 65 f4             	lea    -0xc(%ebp),%esp
    3a23:	5b                   	pop    %ebx
    3a24:	5e                   	pop    %esi
    3a25:	5f                   	pop    %edi
    3a26:	5d                   	pop    %ebp
    3a27:	c3                   	ret    
    3a28:	85 db                	test   %ebx,%ebx
    3a2a:	74 07                	je     3a33 <audio_pcm_test_format+0xc3>
    3a2c:	8b 55 dc             	mov    -0x24(%ebp),%edx
    3a2f:	39 13                	cmp    %edx,(%ebx)
    3a31:	75 cd                	jne    3a00 <audio_pcm_test_format+0x90>
    3a33:	8b 7d 10             	mov    0x10(%ebp),%edi
    3a36:	85 ff                	test   %edi,%edi
    3a38:	74 3e                	je     3a78 <audio_pcm_test_format+0x108>
    3a3a:	8b 75 10             	mov    0x10(%ebp),%esi
    3a3d:	8b 55 e0             	mov    -0x20(%ebp),%edx
    3a40:	39 16                	cmp    %edx,(%esi)
    3a42:	74 34                	je     3a78 <audio_pcm_test_format+0x108>
    3a44:	85 db                	test   %ebx,%ebx
    3a46:	75 b5                	jne    39fd <audio_pcm_test_format+0x8d>
    3a48:	eb c5                	jmp    3a0f <audio_pcm_test_format+0x9f>
    3a4a:	8d b6 00 00 00 00    	lea    0x0(%esi),%esi
    3a50:	31 c0                	xor    %eax,%eax
    3a52:	8b 7d 10             	mov    0x10(%ebp),%edi
    3a55:	89 45 dc             	mov    %eax,-0x24(%ebp)
    3a58:	85 ff                	test   %edi,%edi
    3a5a:	0f 85 42 ff ff ff    	jne    39a2 <audio_pcm_test_format+0x32>
    3a60:	31 d2                	xor    %edx,%edx
    3a62:	8b 4d 14             	mov    0x14(%ebp),%ecx
    3a65:	89 55 e0             	mov    %edx,-0x20(%ebp)
    3a68:	85 c9                	test   %ecx,%ecx
    3a6a:	0f 85 45 ff ff ff    	jne    39b5 <audio_pcm_test_format+0x45>
    3a70:	31 c9                	xor    %ecx,%ecx
    3a72:	e9 43 ff ff ff       	jmp    39ba <audio_pcm_test_format+0x4a>
    3a77:	90                   	nop
    3a78:	8b 75 14             	mov    0x14(%ebp),%esi
    3a7b:	85 f6                	test   %esi,%esi
    3a7d:	74 0e                	je     3a8d <audio_pcm_test_format+0x11d>
    3a7f:	8b 75 14             	mov    0x14(%ebp),%esi
    3a82:	8b 4d e4             	mov    -0x1c(%ebp),%ecx
    3a85:	39 0e                	cmp    %ecx,(%esi)
    3a87:	0f 85 6c ff ff ff    	jne    39f9 <audio_pcm_test_format+0x89>
    3a8d:	31 c0                	xor    %eax,%eax
    3a8f:	eb 8f                	jmp    3a20 <audio_pcm_test_format+0xb0>
    3a91:	eb 0d                	jmp    3aa0 <audio_pcm_register_event_callback>
    3a93:	90                   	nop
    3a94:	90                   	nop
    3a95:	90                   	nop
    3a96:	90                   	nop
    3a97:	90                   	nop
    3a98:	90                   	nop
    3a99:	90                   	nop
    3a9a:	90                   	nop
    3a9b:	90                   	nop
    3a9c:	90                   	nop
    3a9d:	90                   	nop
    3a9e:	90                   	nop
    3a9f:	90                   	nop

00003aa0 <audio_pcm_register_event_callback>:
    3aa0:	55                   	push   %ebp
    3aa1:	89 e5                	mov    %esp,%ebp
    3aa3:	56                   	push   %esi
    3aa4:	53                   	push   %ebx
    3aa5:	83 ec 20             	sub    $0x20,%esp
    3aa8:	8b 75 0c             	mov    0xc(%ebp),%esi
    3aab:	85 f6                	test   %esi,%esi
    3aad:	74 71                	je     3b20 <audio_pcm_register_event_callback+0x80>
    3aaf:	83 ec 0c             	sub    $0xc,%esp
    3ab2:	8b 4d 08             	mov    0x8(%ebp),%ecx
    3ab5:	51                   	push   %ecx
    3ab6:	e8 d5 91 00 00       	call   cc90 <async_exchange_begin@plt>
    3abb:	83 c4 0c             	add    $0xc,%esp
    3abe:	89 c3                	mov    %eax,%ebx
    3ac0:	6a 00                	push   $0x0
    3ac2:	6a 00                	push   $0x0
    3ac4:	6a 00                	push   $0x0
    3ac6:	6a 00                	push   $0x0
    3ac8:	6a 00                	push   $0x0
    3aca:	6a 00                	push   $0x0
    3acc:	6a 00                	push   $0x0
    3ace:	6a 00                	push   $0x0
    3ad0:	6a 02                	push   $0x2
    3ad2:	68 04 04 00 00       	push   $0x404
    3ad7:	50                   	push   %eax
    3ad8:	e8 53 8f 00 00       	call   ca30 <async_req_fast@plt>
    3add:	83 c4 30             	add    $0x30,%esp
    3ae0:	85 c0                	test   %eax,%eax
    3ae2:	74 1c                	je     3b00 <audio_pcm_register_event_callback+0x60>
    3ae4:	83 ec 0c             	sub    $0xc,%esp
    3ae7:	89 45 e4             	mov    %eax,-0x1c(%ebp)
    3aea:	53                   	push   %ebx
    3aeb:	e8 a0 8f 00 00       	call   ca90 <async_exchange_end@plt>
    3af0:	83 c4 10             	add    $0x10,%esp
    3af3:	8b 45 e4             	mov    -0x1c(%ebp),%eax
    3af6:	8d 65 f8             	lea    -0x8(%ebp),%esp
    3af9:	5b                   	pop    %ebx
    3afa:	5e                   	pop    %esi
    3afb:	5d                   	pop    %ebp
    3afc:	c3                   	ret    
    3afd:	8d 76 00             	lea    0x0(%esi),%esi
    3b00:	8b 55 10             	mov    0x10(%ebp),%edx
    3b03:	50                   	push   %eax
    3b04:	8d 45 f4             	lea    -0xc(%ebp),%eax
    3b07:	50                   	push   %eax
    3b08:	52                   	push   %edx
    3b09:	56                   	push   %esi
    3b0a:	6a 00                	push   $0x0
    3b0c:	6a 00                	push   $0x0
    3b0e:	68 16 86 8f db       	push   $0xdb8f8616
    3b13:	53                   	push   %ebx
    3b14:	e8 97 90 00 00       	call   cbb0 <async_create_callback_port@plt>
    3b19:	83 c4 20             	add    $0x20,%esp
    3b1c:	eb c6                	jmp    3ae4 <audio_pcm_register_event_callback+0x44>
    3b1e:	66 90                	xchg   %ax,%ax
    3b20:	b8 f2 ff ff ff       	mov    $0xfffffff2,%eax
    3b25:	eb cf                	jmp    3af6 <audio_pcm_register_event_callback+0x56>
    3b27:	89 f6                	mov    %esi,%esi
    3b29:	8d bc 27 00 00 00 00 	lea    0x0(%edi,%eiz,1),%edi

00003b30 <audio_pcm_unregister_event_callback>:
    3b30:	55                   	push   %ebp
    3b31:	89 e5                	mov    %esp,%ebp
    3b33:	53                   	push   %ebx
    3b34:	83 ec 20             	sub    $0x20,%esp
    3b37:	8b 45 08             	mov    0x8(%ebp),%eax
    3b3a:	50                   	push   %eax
    3b3b:	e8 50 91 00 00       	call   cc90 <async_exchange_begin@plt>
    3b40:	83 c4 0c             	add    $0xc,%esp
    3b43:	89 c3                	mov    %eax,%ebx
    3b45:	6a 00                	push   $0x0
    3b47:	6a 00                	push   $0x0
    3b49:	6a 00                	push   $0x0
    3b4b:	6a 00                	push   $0x0
    3b4d:	6a 00                	push   $0x0
    3b4f:	6a 00                	push   $0x0
    3b51:	6a 00                	push   $0x0
    3b53:	6a 00                	push   $0x0
    3b55:	6a 03                	push   $0x3
    3b57:	68 04 04 00 00       	push   $0x404
    3b5c:	50                   	push   %eax
    3b5d:	e8 ce 8e 00 00       	call   ca30 <async_req_fast@plt>
    3b62:	83 c4 24             	add    $0x24,%esp
    3b65:	89 45 f4             	mov    %eax,-0xc(%ebp)
    3b68:	53                   	push   %ebx
    3b69:	e8 22 8f 00 00       	call   ca90 <async_exchange_end@plt>
    3b6e:	8b 45 f4             	mov    -0xc(%ebp),%eax
    3b71:	8b 5d fc             	mov    -0x4(%ebp),%ebx
    3b74:	c9                   	leave  
    3b75:	c3                   	ret    
    3b76:	8d 76 00             	lea    0x0(%esi),%esi
    3b79:	8d bc 27 00 00 00 00 	lea    0x0(%edi,%eiz,1),%edi

00003b80 <audio_pcm_get_buffer>:
    3b80:	55                   	push   %ebp
    3b81:	89 e5                	mov    %esp,%ebp
    3b83:	57                   	push   %edi
    3b84:	56                   	push   %esi
    3b85:	53                   	push   %ebx
    3b86:	83 ec 2c             	sub    $0x2c,%esp
    3b89:	8b 75 0c             	mov    0xc(%ebp),%esi
    3b8c:	8b 5d 10             	mov    0x10(%ebp),%ebx
    3b8f:	85 f6                	test   %esi,%esi
    3b91:	0f 84 91 00 00 00    	je     3c28 <audio_pcm_get_buffer+0xa8>
    3b97:	85 db                	test   %ebx,%ebx
    3b99:	0f 84 89 00 00 00    	je     3c28 <audio_pcm_get_buffer+0xa8>
    3b9f:	83 ec 0c             	sub    $0xc,%esp
    3ba2:	8b 55 08             	mov    0x8(%ebp),%edx
    3ba5:	52                   	push   %edx
    3ba6:	e8 e5 90 00 00       	call   cc90 <async_exchange_begin@plt>
    3bab:	83 c4 0c             	add    $0xc,%esp
    3bae:	89 c7                	mov    %eax,%edi
    3bb0:	8d 55 e0             	lea    -0x20(%ebp),%edx
    3bb3:	8b 03                	mov    (%ebx),%eax
    3bb5:	89 45 e0             	mov    %eax,-0x20(%ebp)
    3bb8:	6a 00                	push   $0x0
    3bba:	6a 00                	push   $0x0
    3bbc:	6a 00                	push   $0x0
    3bbe:	6a 00                	push   $0x0
    3bc0:	52                   	push   %edx
    3bc1:	6a 00                	push   $0x0
    3bc3:	6a 00                	push   $0x0
    3bc5:	50                   	push   %eax
    3bc6:	6a 05                	push   $0x5
    3bc8:	68 04 04 00 00       	push   $0x404
    3bcd:	57                   	push   %edi
    3bce:	e8 5d 8e 00 00       	call   ca30 <async_req_fast@plt>
    3bd3:	83 c4 30             	add    $0x30,%esp
    3bd6:	85 c0                	test   %eax,%eax
    3bd8:	75 2d                	jne    3c07 <audio_pcm_get_buffer+0x87>
    3bda:	83 ec 0c             	sub    $0xc,%esp
    3bdd:	8d 45 e4             	lea    -0x1c(%ebp),%eax
    3be0:	c7 45 e4 00 00 00 00 	movl   $0x0,-0x1c(%ebp)
    3be7:	50                   	push   %eax
    3be8:	8b 45 e0             	mov    -0x20(%ebp),%eax
    3beb:	6a 00                	push   $0x0
    3bed:	6a 00                	push   $0x0
    3bef:	50                   	push   %eax
    3bf0:	57                   	push   %edi
    3bf1:	e8 ea 8d 00 00       	call   c9e0 <async_share_in_start@plt>
    3bf6:	83 c4 20             	add    $0x20,%esp
    3bf9:	85 c0                	test   %eax,%eax
    3bfb:	75 0a                	jne    3c07 <audio_pcm_get_buffer+0x87>
    3bfd:	8b 55 e4             	mov    -0x1c(%ebp),%edx
    3c00:	89 16                	mov    %edx,(%esi)
    3c02:	8b 55 e0             	mov    -0x20(%ebp),%edx
    3c05:	89 13                	mov    %edx,(%ebx)
    3c07:	83 ec 0c             	sub    $0xc,%esp
    3c0a:	89 45 d4             	mov    %eax,-0x2c(%ebp)
    3c0d:	57                   	push   %edi
    3c0e:	e8 7d 8e 00 00       	call   ca90 <async_exchange_end@plt>
    3c13:	83 c4 10             	add    $0x10,%esp
    3c16:	8b 45 d4             	mov    -0x2c(%ebp),%eax
    3c19:	8d 65 f4             	lea    -0xc(%ebp),%esp
    3c1c:	5b                   	pop    %ebx
    3c1d:	5e                   	pop    %esi
    3c1e:	5f                   	pop    %edi
    3c1f:	5d                   	pop    %ebp
    3c20:	c3                   	ret    
    3c21:	8d b4 26 00 00 00 00 	lea    0x0(%esi,%eiz,1),%esi
    3c28:	b8 f2 ff ff ff       	mov    $0xfffffff2,%eax
    3c2d:	eb ea                	jmp    3c19 <audio_pcm_get_buffer+0x99>
    3c2f:	90                   	nop

00003c30 <audio_pcm_release_buffer>:
    3c30:	55                   	push   %ebp
    3c31:	89 e5                	mov    %esp,%ebp
    3c33:	53                   	push   %ebx
    3c34:	83 ec 20             	sub    $0x20,%esp
    3c37:	8b 45 08             	mov    0x8(%ebp),%eax
    3c3a:	50                   	push   %eax
    3c3b:	e8 50 90 00 00       	call   cc90 <async_exchange_begin@plt>
    3c40:	83 c4 0c             	add    $0xc,%esp
    3c43:	89 c3                	mov    %eax,%ebx
    3c45:	6a 00                	push   $0x0
    3c47:	6a 00                	push   $0x0
    3c49:	6a 00                	push   $0x0
    3c4b:	6a 00                	push   $0x0
    3c4d:	6a 00                	push   $0x0
    3c4f:	6a 00                	push   $0x0
    3c51:	6a 00                	push   $0x0
    3c53:	6a 00                	push   $0x0
    3c55:	6a 06                	push   $0x6
    3c57:	68 04 04 00 00       	push   $0x404
    3c5c:	50                   	push   %eax
    3c5d:	e8 ce 8d 00 00       	call   ca30 <async_req_fast@plt>
    3c62:	83 c4 24             	add    $0x24,%esp
    3c65:	89 45 f4             	mov    %eax,-0xc(%ebp)
    3c68:	53                   	push   %ebx
    3c69:	e8 22 8e 00 00       	call   ca90 <async_exchange_end@plt>
    3c6e:	8b 45 f4             	mov    -0xc(%ebp),%eax
    3c71:	8b 5d fc             	mov    -0x4(%ebp),%ebx
    3c74:	c9                   	leave  
    3c75:	c3                   	ret    
    3c76:	8d 76 00             	lea    0x0(%esi),%esi
    3c79:	8d bc 27 00 00 00 00 	lea    0x0(%edi,%eiz,1),%edi

00003c80 <audio_pcm_start_playback_fragment>:
    3c80:	55                   	push   %ebp
    3c81:	89 e5                	mov    %esp,%ebp
    3c83:	56                   	push   %esi
    3c84:	53                   	push   %ebx
    3c85:	83 ec 10             	sub    $0x10,%esp
    3c88:	81 7d 10 ff ff 00 00 	cmpl   $0xffff,0x10(%ebp)
    3c8f:	77 5f                	ja     3cf0 <audio_pcm_start_playback_fragment+0x70>
    3c91:	f7 45 18 00 00 ff ff 	testl  $0xffff0000,0x18(%ebp)
    3c98:	75 5d                	jne    3cf7 <audio_pcm_start_playback_fragment+0x77>
    3c9a:	83 ec 0c             	sub    $0xc,%esp
    3c9d:	8b 5d 10             	mov    0x10(%ebp),%ebx
    3ca0:	8b 55 08             	mov    0x8(%ebp),%edx
    3ca3:	8b 45 18             	mov    0x18(%ebp),%eax
    3ca6:	c1 e3 10             	shl    $0x10,%ebx
    3ca9:	52                   	push   %edx
    3caa:	09 c3                	or     %eax,%ebx
    3cac:	e8 df 8f 00 00       	call   cc90 <async_exchange_begin@plt>
    3cb1:	83 c4 0c             	add    $0xc,%esp
    3cb4:	8b 4d 14             	mov    0x14(%ebp),%ecx
    3cb7:	89 c6                	mov    %eax,%esi
    3cb9:	6a 00                	push   $0x0
    3cbb:	6a 00                	push   $0x0
    3cbd:	6a 00                	push   $0x0
    3cbf:	6a 00                	push   $0x0
    3cc1:	6a 00                	push   $0x0
    3cc3:	53                   	push   %ebx
    3cc4:	8b 5d 0c             	mov    0xc(%ebp),%ebx
    3cc7:	51                   	push   %ecx
    3cc8:	53                   	push   %ebx
    3cc9:	6a 08                	push   $0x8
    3ccb:	68 04 04 00 00       	push   $0x404
    3cd0:	50                   	push   %eax
    3cd1:	e8 5a 8d 00 00       	call   ca30 <async_req_fast@plt>
    3cd6:	83 c4 24             	add    $0x24,%esp
    3cd9:	56                   	push   %esi
    3cda:	89 45 f4             	mov    %eax,-0xc(%ebp)
    3cdd:	e8 ae 8d 00 00       	call   ca90 <async_exchange_end@plt>
    3ce2:	83 c4 10             	add    $0x10,%esp
    3ce5:	8b 45 f4             	mov    -0xc(%ebp),%eax
    3ce8:	8d 65 f8             	lea    -0x8(%ebp),%esp
    3ceb:	5b                   	pop    %ebx
    3cec:	5e                   	pop    %esi
    3ced:	5d                   	pop    %ebp
    3cee:	c3                   	ret    
    3cef:	90                   	nop
    3cf0:	b8 f2 ff ff ff       	mov    $0xfffffff2,%eax
    3cf5:	eb f1                	jmp    3ce8 <audio_pcm_start_playback_fragment+0x68>
    3cf7:	56                   	push   %esi
    3cf8:	68 a6 01 00 00       	push   $0x1a6
    3cfd:	68 58 b0 00 00       	push   $0xb058
    3d02:	68 c0 b1 00 00       	push   $0xb1c0
    3d07:	e8 94 8d 00 00       	call   caa0 <assert_abort@plt>
    3d0c:	8d 74 26 00          	lea    0x0(%esi,%eiz,1),%esi

00003d10 <audio_pcm_last_playback_fragment>:
    3d10:	55                   	push   %ebp
    3d11:	89 e5                	mov    %esp,%ebp
    3d13:	53                   	push   %ebx
    3d14:	83 ec 20             	sub    $0x20,%esp
    3d17:	8b 45 08             	mov    0x8(%ebp),%eax
    3d1a:	50                   	push   %eax
    3d1b:	e8 70 8f 00 00       	call   cc90 <async_exchange_begin@plt>
    3d20:	83 c4 0c             	add    $0xc,%esp
    3d23:	89 c3                	mov    %eax,%ebx
    3d25:	6a 00                	push   $0x0
    3d27:	6a 00                	push   $0x0
    3d29:	6a 00                	push   $0x0
    3d2b:	6a 00                	push   $0x0
    3d2d:	6a 00                	push   $0x0
    3d2f:	6a 00                	push   $0x0
    3d31:	6a 00                	push   $0x0
    3d33:	6a 00                	push   $0x0
    3d35:	6a 09                	push   $0x9
    3d37:	68 04 04 00 00       	push   $0x404
    3d3c:	50                   	push   %eax
    3d3d:	e8 ee 8c 00 00       	call   ca30 <async_req_fast@plt>
    3d42:	83 c4 24             	add    $0x24,%esp
    3d45:	89 45 f4             	mov    %eax,-0xc(%ebp)
    3d48:	53                   	push   %ebx
    3d49:	e8 42 8d 00 00       	call   ca90 <async_exchange_end@plt>
    3d4e:	8b 45 f4             	mov    -0xc(%ebp),%eax
    3d51:	8b 5d fc             	mov    -0x4(%ebp),%ebx
    3d54:	c9                   	leave  
    3d55:	c3                   	ret    
    3d56:	8d 76 00             	lea    0x0(%esi),%esi
    3d59:	8d bc 27 00 00 00 00 	lea    0x0(%edi,%eiz,1),%edi

00003d60 <audio_pcm_start_playback>:
    3d60:	55                   	push   %ebp
    3d61:	89 e5                	mov    %esp,%ebp
    3d63:	56                   	push   %esi
    3d64:	53                   	push   %ebx
    3d65:	83 ec 10             	sub    $0x10,%esp
    3d68:	81 7d 0c ff ff 00 00 	cmpl   $0xffff,0xc(%ebp)
    3d6f:	77 5f                	ja     3dd0 <audio_pcm_start_playback+0x70>
    3d71:	f7 45 14 00 00 ff ff 	testl  $0xffff0000,0x14(%ebp)
    3d78:	75 5d                	jne    3dd7 <audio_pcm_start_playback+0x77>
    3d7a:	83 ec 0c             	sub    $0xc,%esp
    3d7d:	8b 5d 0c             	mov    0xc(%ebp),%ebx
    3d80:	8b 55 08             	mov    0x8(%ebp),%edx
    3d83:	8b 45 14             	mov    0x14(%ebp),%eax
    3d86:	c1 e3 10             	shl    $0x10,%ebx
    3d89:	52                   	push   %edx
    3d8a:	09 c3                	or     %eax,%ebx
    3d8c:	e8 ff 8e 00 00       	call   cc90 <async_exchange_begin@plt>
    3d91:	83 c4 0c             	add    $0xc,%esp
    3d94:	8b 4d 10             	mov    0x10(%ebp),%ecx
    3d97:	89 c6                	mov    %eax,%esi
    3d99:	6a 00                	push   $0x0
    3d9b:	6a 00                	push   $0x0
    3d9d:	6a 00                	push   $0x0
    3d9f:	6a 00                	push   $0x0
    3da1:	6a 00                	push   $0x0
    3da3:	53                   	push   %ebx
    3da4:	51                   	push   %ecx
    3da5:	6a 00                	push   $0x0
    3da7:	6a 08                	push   $0x8
    3da9:	68 04 04 00 00       	push   $0x404
    3dae:	50                   	push   %eax
    3daf:	e8 7c 8c 00 00       	call   ca30 <async_req_fast@plt>
    3db4:	83 c4 24             	add    $0x24,%esp
    3db7:	89 45 f4             	mov    %eax,-0xc(%ebp)
    3dba:	56                   	push   %esi
    3dbb:	e8 d0 8c 00 00       	call   ca90 <async_exchange_end@plt>
    3dc0:	83 c4 10             	add    $0x10,%esp
    3dc3:	8b 45 f4             	mov    -0xc(%ebp),%eax
    3dc6:	8d 65 f8             	lea    -0x8(%ebp),%esp
    3dc9:	5b                   	pop    %ebx
    3dca:	5e                   	pop    %esi
    3dcb:	5d                   	pop    %ebp
    3dcc:	c3                   	ret    
    3dcd:	8d 76 00             	lea    0x0(%esi),%esi
    3dd0:	b8 f2 ff ff ff       	mov    $0xfffffff2,%eax
    3dd5:	eb ef                	jmp    3dc6 <audio_pcm_start_playback+0x66>
    3dd7:	53                   	push   %ebx
    3dd8:	68 a6 01 00 00       	push   $0x1a6
    3ddd:	68 58 b0 00 00       	push   $0xb058
    3de2:	68 c0 b1 00 00       	push   $0xb1c0
    3de7:	e8 b4 8c 00 00       	call   caa0 <assert_abort@plt>
    3dec:	8d 74 26 00          	lea    0x0(%esi,%eiz,1),%esi

00003df0 <audio_pcm_stop_playback_immediate>:
    3df0:	55                   	push   %ebp
    3df1:	89 e5                	mov    %esp,%ebp
    3df3:	53                   	push   %ebx
    3df4:	83 ec 20             	sub    $0x20,%esp
    3df7:	8b 45 08             	mov    0x8(%ebp),%eax
    3dfa:	50                   	push   %eax
    3dfb:	e8 90 8e 00 00       	call   cc90 <async_exchange_begin@plt>
    3e00:	83 c4 0c             	add    $0xc,%esp
    3e03:	89 c3                	mov    %eax,%ebx
    3e05:	6a 00                	push   $0x0
    3e07:	6a 00                	push   $0x0
    3e09:	6a 00                	push   $0x0
    3e0b:	6a 00                	push   $0x0
    3e0d:	6a 00                	push   $0x0
    3e0f:	6a 00                	push   $0x0
    3e11:	6a 00                	push   $0x0
    3e13:	6a 01                	push   $0x1
    3e15:	6a 09                	push   $0x9
    3e17:	68 04 04 00 00       	push   $0x404
    3e1c:	50                   	push   %eax
    3e1d:	e8 0e 8c 00 00       	call   ca30 <async_req_fast@plt>
    3e22:	83 c4 24             	add    $0x24,%esp
    3e25:	89 45 f4             	mov    %eax,-0xc(%ebp)
    3e28:	53                   	push   %ebx
    3e29:	e8 62 8c 00 00       	call   ca90 <async_exchange_end@plt>
    3e2e:	8b 45 f4             	mov    -0xc(%ebp),%eax
    3e31:	8b 5d fc             	mov    -0x4(%ebp),%ebx
    3e34:	c9                   	leave  
    3e35:	c3                   	ret    
    3e36:	8d 76 00             	lea    0x0(%esi),%esi
    3e39:	8d bc 27 00 00 00 00 	lea    0x0(%edi,%eiz,1),%edi

00003e40 <audio_pcm_stop_playback>:
    3e40:	55                   	push   %ebp
    3e41:	89 e5                	mov    %esp,%ebp
    3e43:	53                   	push   %ebx
    3e44:	83 ec 20             	sub    $0x20,%esp
    3e47:	8b 45 08             	mov    0x8(%ebp),%eax
    3e4a:	50                   	push   %eax
    3e4b:	e8 40 8e 00 00       	call   cc90 <async_exchange_begin@plt>
    3e50:	83 c4 0c             	add    $0xc,%esp
    3e53:	89 c3                	mov    %eax,%ebx
    3e55:	6a 00                	push   $0x0
    3e57:	6a 00                	push   $0x0
    3e59:	6a 00                	push   $0x0
    3e5b:	6a 00                	push   $0x0
    3e5d:	6a 00                	push   $0x0
    3e5f:	6a 00                	push   $0x0
    3e61:	6a 00                	push   $0x0
    3e63:	6a 00                	push   $0x0
    3e65:	6a 09                	push   $0x9
    3e67:	68 04 04 00 00       	push   $0x404
    3e6c:	50                   	push   %eax
    3e6d:	e8 be 8b 00 00       	call   ca30 <async_req_fast@plt>
    3e72:	83 c4 24             	add    $0x24,%esp
    3e75:	89 45 f4             	mov    %eax,-0xc(%ebp)
    3e78:	53                   	push   %ebx
    3e79:	e8 12 8c 00 00       	call   ca90 <async_exchange_end@plt>
    3e7e:	8b 45 f4             	mov    -0xc(%ebp),%eax
    3e81:	8b 5d fc             	mov    -0x4(%ebp),%ebx
    3e84:	c9                   	leave  
    3e85:	c3                   	ret    
    3e86:	8d 76 00             	lea    0x0(%esi),%esi
    3e89:	8d bc 27 00 00 00 00 	lea    0x0(%edi,%eiz,1),%edi

00003e90 <audio_pcm_start_capture_fragment>:
    3e90:	55                   	push   %ebp
    3e91:	89 e5                	mov    %esp,%ebp
    3e93:	56                   	push   %esi
    3e94:	53                   	push   %ebx
    3e95:	83 ec 10             	sub    $0x10,%esp
    3e98:	81 7d 10 ff ff 00 00 	cmpl   $0xffff,0x10(%ebp)
    3e9f:	77 5f                	ja     3f00 <audio_pcm_start_capture_fragment+0x70>
    3ea1:	f7 45 18 00 00 ff ff 	testl  $0xffff0000,0x18(%ebp)
    3ea8:	75 5d                	jne    3f07 <audio_pcm_start_capture_fragment+0x77>
    3eaa:	83 ec 0c             	sub    $0xc,%esp
    3ead:	8b 5d 10             	mov    0x10(%ebp),%ebx
    3eb0:	8b 55 08             	mov    0x8(%ebp),%edx
    3eb3:	8b 45 18             	mov    0x18(%ebp),%eax
    3eb6:	c1 e3 10             	shl    $0x10,%ebx
    3eb9:	52                   	push   %edx
    3eba:	09 c3                	or     %eax,%ebx
    3ebc:	e8 cf 8d 00 00       	call   cc90 <async_exchange_begin@plt>
    3ec1:	83 c4 0c             	add    $0xc,%esp
    3ec4:	8b 4d 14             	mov    0x14(%ebp),%ecx
    3ec7:	89 c6                	mov    %eax,%esi
    3ec9:	6a 00                	push   $0x0
    3ecb:	6a 00                	push   $0x0
    3ecd:	6a 00                	push   $0x0
    3ecf:	6a 00                	push   $0x0
    3ed1:	6a 00                	push   $0x0
    3ed3:	53                   	push   %ebx
    3ed4:	8b 5d 0c             	mov    0xc(%ebp),%ebx
    3ed7:	51                   	push   %ecx
    3ed8:	53                   	push   %ebx
    3ed9:	6a 0a                	push   $0xa
    3edb:	68 04 04 00 00       	push   $0x404
    3ee0:	50                   	push   %eax
    3ee1:	e8 4a 8b 00 00       	call   ca30 <async_req_fast@plt>
    3ee6:	83 c4 24             	add    $0x24,%esp
    3ee9:	56                   	push   %esi
    3eea:	89 45 f4             	mov    %eax,-0xc(%ebp)
    3eed:	e8 9e 8b 00 00       	call   ca90 <async_exchange_end@plt>
    3ef2:	83 c4 10             	add    $0x10,%esp
    3ef5:	8b 45 f4             	mov    -0xc(%ebp),%eax
    3ef8:	8d 65 f8             	lea    -0x8(%ebp),%esp
    3efb:	5b                   	pop    %ebx
    3efc:	5e                   	pop    %esi
    3efd:	5d                   	pop    %ebp
    3efe:	c3                   	ret    
    3eff:	90                   	nop
    3f00:	b8 f2 ff ff ff       	mov    $0xfffffff2,%eax
    3f05:	eb f1                	jmp    3ef8 <audio_pcm_start_capture_fragment+0x68>
    3f07:	56                   	push   %esi
    3f08:	68 07 02 00 00       	push   $0x207
    3f0d:	68 58 b0 00 00       	push   $0xb058
    3f12:	68 c0 b1 00 00       	push   $0xb1c0
    3f17:	e8 84 8b 00 00       	call   caa0 <assert_abort@plt>
    3f1c:	8d 74 26 00          	lea    0x0(%esi,%eiz,1),%esi

00003f20 <audio_pcm_start_capture>:
    3f20:	55                   	push   %ebp
    3f21:	89 e5                	mov    %esp,%ebp
    3f23:	56                   	push   %esi
    3f24:	53                   	push   %ebx
    3f25:	83 ec 10             	sub    $0x10,%esp
    3f28:	81 7d 0c ff ff 00 00 	cmpl   $0xffff,0xc(%ebp)
    3f2f:	77 5f                	ja     3f90 <audio_pcm_start_capture+0x70>
    3f31:	f7 45 14 00 00 ff ff 	testl  $0xffff0000,0x14(%ebp)
    3f38:	75 5d                	jne    3f97 <audio_pcm_start_capture+0x77>
    3f3a:	83 ec 0c             	sub    $0xc,%esp
    3f3d:	8b 5d 0c             	mov    0xc(%ebp),%ebx
    3f40:	8b 55 08             	mov    0x8(%ebp),%edx
    3f43:	8b 45 14             	mov    0x14(%ebp),%eax
    3f46:	c1 e3 10             	shl    $0x10,%ebx
    3f49:	52                   	push   %edx
    3f4a:	09 c3                	or     %eax,%ebx
    3f4c:	e8 3f 8d 00 00       	call   cc90 <async_exchange_begin@plt>
    3f51:	83 c4 0c             	add    $0xc,%esp
    3f54:	8b 4d 10             	mov    0x10(%ebp),%ecx
    3f57:	89 c6                	mov    %eax,%esi
    3f59:	6a 00                	push   $0x0
    3f5b:	6a 00                	push   $0x0
    3f5d:	6a 00                	push   $0x0
    3f5f:	6a 00                	push   $0x0
    3f61:	6a 00                	push   $0x0
    3f63:	53                   	push   %ebx
    3f64:	51                   	push   %ecx
    3f65:	6a 00                	push   $0x0
    3f67:	6a 0a                	push   $0xa
    3f69:	68 04 04 00 00       	push   $0x404
    3f6e:	50                   	push   %eax
    3f6f:	e8 bc 8a 00 00       	call   ca30 <async_req_fast@plt>
    3f74:	83 c4 24             	add    $0x24,%esp
    3f77:	89 45 f4             	mov    %eax,-0xc(%ebp)
    3f7a:	56                   	push   %esi
    3f7b:	e8 10 8b 00 00       	call   ca90 <async_exchange_end@plt>
    3f80:	83 c4 10             	add    $0x10,%esp
    3f83:	8b 45 f4             	mov    -0xc(%ebp),%eax
    3f86:	8d 65 f8             	lea    -0x8(%ebp),%esp
    3f89:	5b                   	pop    %ebx
    3f8a:	5e                   	pop    %esi
    3f8b:	5d                   	pop    %ebp
    3f8c:	c3                   	ret    
    3f8d:	8d 76 00             	lea    0x0(%esi),%esi
    3f90:	b8 f2 ff ff ff       	mov    $0xfffffff2,%eax
    3f95:	eb ef                	jmp    3f86 <audio_pcm_start_capture+0x66>
    3f97:	53                   	push   %ebx
    3f98:	68 07 02 00 00       	push   $0x207
    3f9d:	68 58 b0 00 00       	push   $0xb058
    3fa2:	68 c0 b1 00 00       	push   $0xb1c0
    3fa7:	e8 f4 8a 00 00       	call   caa0 <assert_abort@plt>
    3fac:	8d 74 26 00          	lea    0x0(%esi,%eiz,1),%esi

00003fb0 <audio_pcm_last_capture_fragment>:
    3fb0:	55                   	push   %ebp
    3fb1:	89 e5                	mov    %esp,%ebp
    3fb3:	53                   	push   %ebx
    3fb4:	83 ec 20             	sub    $0x20,%esp
    3fb7:	8b 45 08             	mov    0x8(%ebp),%eax
    3fba:	50                   	push   %eax
    3fbb:	e8 d0 8c 00 00       	call   cc90 <async_exchange_begin@plt>
    3fc0:	83 c4 0c             	add    $0xc,%esp
    3fc3:	89 c3                	mov    %eax,%ebx
    3fc5:	6a 00                	push   $0x0
    3fc7:	6a 00                	push   $0x0
    3fc9:	6a 00                	push   $0x0
    3fcb:	6a 00                	push   $0x0
    3fcd:	6a 00                	push   $0x0
    3fcf:	6a 00                	push   $0x0
    3fd1:	6a 00                	push   $0x0
    3fd3:	6a 00                	push   $0x0
    3fd5:	6a 0b                	push   $0xb
    3fd7:	68 04 04 00 00       	push   $0x404
    3fdc:	50                   	push   %eax
    3fdd:	e8 4e 8a 00 00       	call   ca30 <async_req_fast@plt>
    3fe2:	83 c4 24             	add    $0x24,%esp
    3fe5:	89 45 f4             	mov    %eax,-0xc(%ebp)
    3fe8:	53                   	push   %ebx
    3fe9:	e8 a2 8a 00 00       	call   ca90 <async_exchange_end@plt>
    3fee:	8b 45 f4             	mov    -0xc(%ebp),%eax
    3ff1:	8b 5d fc             	mov    -0x4(%ebp),%ebx
    3ff4:	c9                   	leave  
    3ff5:	c3                   	ret    
    3ff6:	8d 76 00             	lea    0x0(%esi),%esi
    3ff9:	8d bc 27 00 00 00 00 	lea    0x0(%edi,%eiz,1),%edi

00004000 <audio_pcm_stop_capture_immediate>:
    4000:	55                   	push   %ebp
    4001:	89 e5                	mov    %esp,%ebp
    4003:	53                   	push   %ebx
    4004:	83 ec 20             	sub    $0x20,%esp
    4007:	8b 45 08             	mov    0x8(%ebp),%eax
    400a:	50                   	push   %eax
    400b:	e8 80 8c 00 00       	call   cc90 <async_exchange_begin@plt>
    4010:	83 c4 0c             	add    $0xc,%esp
    4013:	89 c3                	mov    %eax,%ebx
    4015:	6a 00                	push   $0x0
    4017:	6a 00                	push   $0x0
    4019:	6a 00                	push   $0x0
    401b:	6a 00                	push   $0x0
    401d:	6a 00                	push   $0x0
    401f:	6a 00                	push   $0x0
    4021:	6a 00                	push   $0x0
    4023:	6a 01                	push   $0x1
    4025:	6a 0b                	push   $0xb
    4027:	68 04 04 00 00       	push   $0x404
    402c:	50                   	push   %eax
    402d:	e8 fe 89 00 00       	call   ca30 <async_req_fast@plt>
    4032:	83 c4 24             	add    $0x24,%esp
    4035:	89 45 f4             	mov    %eax,-0xc(%ebp)
    4038:	53                   	push   %ebx
    4039:	e8 52 8a 00 00       	call   ca90 <async_exchange_end@plt>
    403e:	8b 45 f4             	mov    -0xc(%ebp),%eax
    4041:	8b 5d fc             	mov    -0x4(%ebp),%ebx
    4044:	c9                   	leave  
    4045:	c3                   	ret    
    4046:	8d 76 00             	lea    0x0(%esi),%esi
    4049:	8d bc 27 00 00 00 00 	lea    0x0(%edi,%eiz,1),%edi

00004050 <audio_pcm_stop_capture>:
    4050:	55                   	push   %ebp
    4051:	89 e5                	mov    %esp,%ebp
    4053:	53                   	push   %ebx
    4054:	83 ec 20             	sub    $0x20,%esp
    4057:	8b 45 08             	mov    0x8(%ebp),%eax
    405a:	50                   	push   %eax
    405b:	e8 30 8c 00 00       	call   cc90 <async_exchange_begin@plt>
    4060:	83 c4 0c             	add    $0xc,%esp
    4063:	89 c3                	mov    %eax,%ebx
    4065:	6a 00                	push   $0x0
    4067:	6a 00                	push   $0x0
    4069:	6a 00                	push   $0x0
    406b:	6a 00                	push   $0x0
    406d:	6a 00                	push   $0x0
    406f:	6a 00                	push   $0x0
    4071:	6a 00                	push   $0x0
    4073:	6a 00                	push   $0x0
    4075:	6a 0b                	push   $0xb
    4077:	68 04 04 00 00       	push   $0x404
    407c:	50                   	push   %eax
    407d:	e8 ae 89 00 00       	call   ca30 <async_req_fast@plt>
    4082:	83 c4 24             	add    $0x24,%esp
    4085:	89 45 f4             	mov    %eax,-0xc(%ebp)
    4088:	53                   	push   %ebx
    4089:	e8 02 8a 00 00       	call   ca90 <async_exchange_end@plt>
    408e:	8b 45 f4             	mov    -0xc(%ebp),%eax
    4091:	8b 5d fc             	mov    -0x4(%ebp),%ebx
    4094:	c9                   	leave  
    4095:	c3                   	ret    
    4096:	66 90                	xchg   %ax,%ax
    4098:	66 90                	xchg   %ax,%ax
    409a:	66 90                	xchg   %ax,%ax
    409c:	66 90                	xchg   %ax,%ax
    409e:	66 90                	xchg   %ax,%ax

000040a0 <remote_hw_res_dma_channel_setup>:
    40a0:	55                   	push   %ebp
    40a1:	89 e5                	mov    %esp,%ebp
    40a3:	57                   	push   %edi
    40a4:	56                   	push   %esi
    40a5:	53                   	push   %ebx
    40a6:	83 ec 0c             	sub    $0xc,%esp
    40a9:	8b 45 0c             	mov    0xc(%ebp),%eax
    40ac:	8b 75 08             	mov    0x8(%ebp),%esi
    40af:	8b 5d 10             	mov    0x10(%ebp),%ebx
    40b2:	8b 55 14             	mov    0x14(%ebp),%edx
    40b5:	8b 48 08             	mov    0x8(%eax),%ecx
    40b8:	85 c9                	test   %ecx,%ecx
    40ba:	74 3c                	je     40f8 <remote_hw_res_dma_channel_setup+0x58>
    40bc:	8b 42 08             	mov    0x8(%edx),%eax
    40bf:	83 ec 0c             	sub    $0xc,%esp
    40c2:	89 c7                	mov    %eax,%edi
    40c4:	25 ff ff 00 00       	and    $0xffff,%eax
    40c9:	c1 ef 10             	shr    $0x10,%edi
    40cc:	81 e7 ff 00 00 00    	and    $0xff,%edi
    40d2:	57                   	push   %edi
    40d3:	8b 7a 10             	mov    0x10(%edx),%edi
    40d6:	57                   	push   %edi
    40d7:	8b 52 0c             	mov    0xc(%edx),%edx
    40da:	52                   	push   %edx
    40db:	50                   	push   %eax
    40dc:	56                   	push   %esi
    40dd:	ff d1                	call   *%ecx
    40df:	89 5d 08             	mov    %ebx,0x8(%ebp)
    40e2:	89 45 0c             	mov    %eax,0xc(%ebp)
    40e5:	83 c4 20             	add    $0x20,%esp
    40e8:	8d 65 f4             	lea    -0xc(%ebp),%esp
    40eb:	5b                   	pop    %ebx
    40ec:	5e                   	pop    %esi
    40ed:	5f                   	pop    %edi
    40ee:	5d                   	pop    %ebp
    40ef:	e9 4c 89 00 00       	jmp    ca40 <async_answer_0@plt>
    40f4:	8d 74 26 00          	lea    0x0(%esi,%eiz,1),%esi
    40f8:	89 5d 08             	mov    %ebx,0x8(%ebp)
    40fb:	c7 45 0c f5 ff ff ff 	movl   $0xfffffff5,0xc(%ebp)
    4102:	8d 65 f4             	lea    -0xc(%ebp),%esp
    4105:	5b                   	pop    %ebx
    4106:	5e                   	pop    %esi
    4107:	5f                   	pop    %edi
    4108:	5d                   	pop    %ebp
    4109:	e9 32 89 00 00       	jmp    ca40 <async_answer_0@plt>
    410e:	66 90                	xchg   %ax,%ax

00004110 <remote_hw_res_enable_interrupt>:
    4110:	55                   	push   %ebp
    4111:	89 e5                	mov    %esp,%ebp
    4113:	53                   	push   %ebx
    4114:	50                   	push   %eax
    4115:	8b 45 0c             	mov    0xc(%ebp),%eax
    4118:	8b 55 08             	mov    0x8(%ebp),%edx
    411b:	8b 5d 10             	mov    0x10(%ebp),%ebx
    411e:	8b 40 04             	mov    0x4(%eax),%eax
    4121:	85 c0                	test   %eax,%eax
    4123:	74 3b                	je     4160 <remote_hw_res_enable_interrupt+0x50>
    4125:	83 ec 0c             	sub    $0xc,%esp
    4128:	52                   	push   %edx
    4129:	ff d0                	call   *%eax
    412b:	83 c4 10             	add    $0x10,%esp
    412e:	84 c0                	test   %al,%al
    4130:	75 16                	jne    4148 <remote_hw_res_enable_interrupt+0x38>
    4132:	89 5d 08             	mov    %ebx,0x8(%ebp)
    4135:	8b 5d fc             	mov    -0x4(%ebp),%ebx
    4138:	c7 45 0c fc ff ff ff 	movl   $0xfffffffc,0xc(%ebp)
    413f:	c9                   	leave  
    4140:	e9 fb 88 00 00       	jmp    ca40 <async_answer_0@plt>
    4145:	8d 76 00             	lea    0x0(%esi),%esi
    4148:	89 5d 08             	mov    %ebx,0x8(%ebp)
    414b:	8b 5d fc             	mov    -0x4(%ebp),%ebx
    414e:	c7 45 0c 00 00 00 00 	movl   $0x0,0xc(%ebp)
    4155:	c9                   	leave  
    4156:	e9 e5 88 00 00       	jmp    ca40 <async_answer_0@plt>
    415b:	90                   	nop
    415c:	8d 74 26 00          	lea    0x0(%esi,%eiz,1),%esi
    4160:	89 5d 08             	mov    %ebx,0x8(%ebp)
    4163:	8b 5d fc             	mov    -0x4(%ebp),%ebx
    4166:	c7 45 0c f5 ff ff ff 	movl   $0xfffffff5,0xc(%ebp)
    416d:	c9                   	leave  
    416e:	e9 cd 88 00 00       	jmp    ca40 <async_answer_0@plt>
    4173:	8d b6 00 00 00 00    	lea    0x0(%esi),%esi
    4179:	8d bc 27 00 00 00 00 	lea    0x0(%edi,%eiz,1),%edi

00004180 <remote_hw_res_dma_channel_remain>:
    4180:	55                   	push   %ebp
    4181:	89 e5                	mov    %esp,%ebp
    4183:	83 ec 18             	sub    $0x18,%esp
    4186:	8b 45 0c             	mov    0xc(%ebp),%eax
    4189:	8b 50 08             	mov    0x8(%eax),%edx
    418c:	85 d2                	test   %edx,%edx
    418e:	74 30                	je     41c0 <remote_hw_res_dma_channel_remain+0x40>
    4190:	8b 55 14             	mov    0x14(%ebp),%edx
    4193:	c7 45 f4 00 00 00 00 	movl   $0x0,-0xc(%ebp)
    419a:	8b 52 08             	mov    0x8(%edx),%edx
    419d:	51                   	push   %ecx
    419e:	8d 4d f4             	lea    -0xc(%ebp),%ecx
    41a1:	51                   	push   %ecx
    41a2:	52                   	push   %edx
    41a3:	8b 55 08             	mov    0x8(%ebp),%edx
    41a6:	52                   	push   %edx
    41a7:	ff 50 0c             	call   *0xc(%eax)
    41aa:	83 c4 0c             	add    $0xc,%esp
    41ad:	8b 4d f4             	mov    -0xc(%ebp),%ecx
    41b0:	51                   	push   %ecx
    41b1:	50                   	push   %eax
    41b2:	8b 45 10             	mov    0x10(%ebp),%eax
    41b5:	50                   	push   %eax
    41b6:	e8 c5 8a 00 00       	call   cc80 <async_answer_1@plt>
    41bb:	83 c4 10             	add    $0x10,%esp
    41be:	c9                   	leave  
    41bf:	c3                   	ret    
    41c0:	50                   	push   %eax
    41c1:	50                   	push   %eax
    41c2:	8b 45 10             	mov    0x10(%ebp),%eax
    41c5:	6a f5                	push   $0xfffffff5
    41c7:	50                   	push   %eax
    41c8:	e8 73 88 00 00       	call   ca40 <async_answer_0@plt>
    41cd:	83 c4 10             	add    $0x10,%esp
    41d0:	c9                   	leave  
    41d1:	c3                   	ret    
    41d2:	8d b4 26 00 00 00 00 	lea    0x0(%esi,%eiz,1),%esi
    41d9:	8d bc 27 00 00 00 00 	lea    0x0(%edi,%eiz,1),%edi

000041e0 <remote_hw_res_get_resource_list>:
    41e0:	55                   	push   %ebp
    41e1:	89 e5                	mov    %esp,%ebp
    41e3:	53                   	push   %ebx
    41e4:	83 ec 14             	sub    $0x14,%esp
    41e7:	8b 45 0c             	mov    0xc(%ebp),%eax
    41ea:	8b 00                	mov    (%eax),%eax
    41ec:	85 c0                	test   %eax,%eax
    41ee:	74 40                	je     4230 <remote_hw_res_get_resource_list+0x50>
    41f0:	83 ec 0c             	sub    $0xc,%esp
    41f3:	8b 55 08             	mov    0x8(%ebp),%edx
    41f6:	52                   	push   %edx
    41f7:	ff d0                	call   *%eax
    41f9:	83 c4 10             	add    $0x10,%esp
    41fc:	89 c3                	mov    %eax,%ebx
    41fe:	85 c0                	test   %eax,%eax
    4200:	74 66                	je     4268 <remote_hw_res_get_resource_list+0x88>
    4202:	50                   	push   %eax
    4203:	8b 03                	mov    (%ebx),%eax
    4205:	50                   	push   %eax
    4206:	8b 45 10             	mov    0x10(%ebp),%eax
    4209:	6a 00                	push   $0x0
    420b:	50                   	push   %eax
    420c:	e8 6f 8a 00 00       	call   cc80 <async_answer_1@plt>
    4211:	58                   	pop    %eax
    4212:	8d 45 f4             	lea    -0xc(%ebp),%eax
    4215:	5a                   	pop    %edx
    4216:	50                   	push   %eax
    4217:	8d 45 10             	lea    0x10(%ebp),%eax
    421a:	50                   	push   %eax
    421b:	e8 e0 89 00 00       	call   cc00 <async_data_read_receive@plt>
    4220:	83 c4 10             	add    $0x10,%esp
    4223:	84 c0                	test   %al,%al
    4225:	75 21                	jne    4248 <remote_hw_res_get_resource_list+0x68>
    4227:	8b 5d fc             	mov    -0x4(%ebp),%ebx
    422a:	c9                   	leave  
    422b:	c3                   	ret    
    422c:	8d 74 26 00          	lea    0x0(%esi,%eiz,1),%esi
    4230:	8b 5d 10             	mov    0x10(%ebp),%ebx
    4233:	51                   	push   %ecx
    4234:	51                   	push   %ecx
    4235:	6a f5                	push   $0xfffffff5
    4237:	53                   	push   %ebx
    4238:	e8 03 88 00 00       	call   ca40 <async_answer_0@plt>
    423d:	83 c4 10             	add    $0x10,%esp
    4240:	8b 5d fc             	mov    -0x4(%ebp),%ebx
    4243:	c9                   	leave  
    4244:	c3                   	ret    
    4245:	8d 76 00             	lea    0x0(%esi),%esi
    4248:	50                   	push   %eax
    4249:	8b 55 f4             	mov    -0xc(%ebp),%edx
    424c:	8b 4b 04             	mov    0x4(%ebx),%ecx
    424f:	8b 5d 10             	mov    0x10(%ebp),%ebx
    4252:	52                   	push   %edx
    4253:	51                   	push   %ecx
    4254:	53                   	push   %ebx
    4255:	e8 76 87 00 00       	call   c9d0 <async_data_read_finalize@plt>
    425a:	83 c4 10             	add    $0x10,%esp
    425d:	8b 5d fc             	mov    -0x4(%ebp),%ebx
    4260:	c9                   	leave  
    4261:	c3                   	ret    
    4262:	8d b6 00 00 00 00    	lea    0x0(%esi),%esi
    4268:	8b 5d 10             	mov    0x10(%ebp),%ebx
    426b:	51                   	push   %ecx
    426c:	51                   	push   %ecx
    426d:	6a ff                	push   $0xffffffff
    426f:	53                   	push   %ebx
    4270:	e8 cb 87 00 00       	call   ca40 <async_answer_0@plt>
    4275:	83 c4 10             	add    $0x10,%esp
    4278:	8b 5d fc             	mov    -0x4(%ebp),%ebx
    427b:	c9                   	leave  
    427c:	c3                   	ret    
    427d:	66 90                	xchg   %ax,%ax
    427f:	90                   	nop

00004280 <remote_pio_window_get>:
    4280:	55                   	push   %ebp
    4281:	89 e5                	mov    %esp,%ebp
    4283:	53                   	push   %ebx
    4284:	83 ec 14             	sub    $0x14,%esp
    4287:	8b 45 0c             	mov    0xc(%ebp),%eax
    428a:	8b 00                	mov    (%eax),%eax
    428c:	85 c0                	test   %eax,%eax
    428e:	74 40                	je     42d0 <remote_pio_window_get+0x50>
    4290:	83 ec 0c             	sub    $0xc,%esp
    4293:	8b 55 08             	mov    0x8(%ebp),%edx
    4296:	52                   	push   %edx
    4297:	ff d0                	call   *%eax
    4299:	83 c4 10             	add    $0x10,%esp
    429c:	89 c3                	mov    %eax,%ebx
    429e:	85 c0                	test   %eax,%eax
    42a0:	74 5e                	je     4300 <remote_pio_window_get+0x80>
    42a2:	50                   	push   %eax
    42a3:	50                   	push   %eax
    42a4:	8b 45 10             	mov    0x10(%ebp),%eax
    42a7:	6a 00                	push   $0x0
    42a9:	50                   	push   %eax
    42aa:	e8 91 87 00 00       	call   ca40 <async_answer_0@plt>
    42af:	58                   	pop    %eax
    42b0:	8d 45 f4             	lea    -0xc(%ebp),%eax
    42b3:	5a                   	pop    %edx
    42b4:	50                   	push   %eax
    42b5:	8d 45 10             	lea    0x10(%ebp),%eax
    42b8:	50                   	push   %eax
    42b9:	e8 42 89 00 00       	call   cc00 <async_data_read_receive@plt>
    42be:	83 c4 10             	add    $0x10,%esp
    42c1:	84 c0                	test   %al,%al
    42c3:	75 23                	jne    42e8 <remote_pio_window_get+0x68>
    42c5:	8b 5d fc             	mov    -0x4(%ebp),%ebx
    42c8:	c9                   	leave  
    42c9:	c3                   	ret    
    42ca:	8d b6 00 00 00 00    	lea    0x0(%esi),%esi
    42d0:	8b 5d 10             	mov    0x10(%ebp),%ebx
    42d3:	51                   	push   %ecx
    42d4:	51                   	push   %ecx
    42d5:	6a f5                	push   $0xfffffff5
    42d7:	53                   	push   %ebx
    42d8:	e8 63 87 00 00       	call   ca40 <async_answer_0@plt>
    42dd:	83 c4 10             	add    $0x10,%esp
    42e0:	8b 5d fc             	mov    -0x4(%ebp),%ebx
    42e3:	c9                   	leave  
    42e4:	c3                   	ret    
    42e5:	8d 76 00             	lea    0x0(%esi),%esi
    42e8:	8b 55 f4             	mov    -0xc(%ebp),%edx
    42eb:	8b 4d 10             	mov    0x10(%ebp),%ecx
    42ee:	50                   	push   %eax
    42ef:	52                   	push   %edx
    42f0:	53                   	push   %ebx
    42f1:	51                   	push   %ecx
    42f2:	e8 d9 86 00 00       	call   c9d0 <async_data_read_finalize@plt>
    42f7:	83 c4 10             	add    $0x10,%esp
    42fa:	8b 5d fc             	mov    -0x4(%ebp),%ebx
    42fd:	c9                   	leave  
    42fe:	c3                   	ret    
    42ff:	90                   	nop
    4300:	8b 5d 10             	mov    0x10(%ebp),%ebx
    4303:	51                   	push   %ecx
