
cdfs:     file format elf32-i386


Disassembly of section .init:

000010f4 <__entry>:
    10f4:	66 8c d0             	mov    %ss,%ax
    10f7:	8e d8                	mov    %eax,%ds
    10f9:	8e c0                	mov    %eax,%es
    10fb:	8e e0                	mov    %eax,%fs
    10fd:	b8 01 00 00 00       	mov    $0x1,%eax
    1102:	0f a2                	cpuid  
    1104:	0f ba e2 0b          	bt     $0xb,%edx
    1108:	73 0c                	jae    1116 <__entry+0x22>
    110a:	8d 05 d8 80 00 00    	lea    0x80d8,%eax
    1110:	c7 00 30 62 00 00    	movl   $0x6230,(%eax)
    1116:	6a 00                	push   $0x0
    1118:	6a 00                	push   $0x0
    111a:	89 e5                	mov    %esp,%ebp
    111c:	57                   	push   %edi
    111d:	e8 fe 4c 00 00       	call   5e20 <__main@plt>

Disassembly of section .text:

00001130 <main>:
    1130:	8d 4c 24 04          	lea    0x4(%esp),%ecx
    1134:	83 e4 f0             	and    $0xfffffff0,%esp
    1137:	ff 71 fc             	pushl  -0x4(%ecx)
    113a:	55                   	push   %ebp
    113b:	89 e5                	mov    %esp,%ebp
    113d:	56                   	push   %esi
    113e:	53                   	push   %ebx
    113f:	51                   	push   %ecx
    1140:	83 ec 14             	sub    $0x14,%esp
    1143:	8b 19                	mov    (%ecx),%ebx
    1145:	8b 71 04             	mov    0x4(%ecx),%esi
    1148:	68 f5 58 00 00       	push   $0x58f5
    114d:	68 5c 59 00 00       	push   $0x595c
    1152:	e8 f9 4c 00 00       	call   5e50 <printf@plt>
    1157:	83 c4 10             	add    $0x10,%esp
    115a:	83 fb 03             	cmp    $0x3,%ebx
    115d:	0f 84 a6 00 00 00    	je     1209 <main+0xd9>
    1163:	e8 78 19 00 00       	call   2ae0 <cdfs_init>
    1168:	84 c0                	test   %al,%al
    116a:	0f 84 e6 00 00 00    	je     1256 <main+0x126>
    1170:	56                   	push   %esi
    1171:	6a 00                	push   $0x0
    1173:	68 61 37 cf c9       	push   $0xc9cf3761
    1178:	68 76 66 73 20       	push   $0x20736676
    117d:	e8 8e 4d 00 00       	call   5f10 <service_connect_blocking@plt>
    1182:	83 c4 10             	add    $0x10,%esp
    1185:	85 c0                	test   %eax,%eax
    1187:	0f 84 fd 00 00 00    	je     128a <main+0x15a>
    118d:	68 00 7f 00 00       	push   $0x7f00
    1192:	68 e0 7e 00 00       	push   $0x7ee0
    1197:	68 c0 7e 00 00       	push   $0x7ec0
    119c:	50                   	push   %eax
    119d:	e8 ce 43 00 00       	call   5570 <fs_register>
    11a2:	83 c4 10             	add    $0x10,%esp
    11a5:	89 c3                	mov    %eax,%ebx
    11a7:	85 c0                	test   %eax,%eax
    11a9:	75 48                	jne    11f3 <main+0xc3>
    11ab:	52                   	push   %edx
    11ac:	52                   	push   %edx
    11ad:	68 f5 58 00 00       	push   $0x58f5
    11b2:	68 40 59 00 00       	push   $0x5940
    11b7:	e8 94 4c 00 00       	call   5e50 <printf@plt>
    11bc:	c7 04 24 00 00 00 00 	movl   $0x0,(%esp)
    11c3:	e8 68 4c 00 00       	call   5e30 <task_retval@plt>
    11c8:	83 c8 ff             	or     $0xffffffff,%eax
    11cb:	f0 0f c1 05 dc 80 00 	lock xadd %eax,0x80dc
    11d2:	00 
    11d3:	83 c4 10             	add    $0x10,%esp
    11d6:	48                   	dec    %eax
    11d7:	78 60                	js     1239 <main+0x109>
    11d9:	83 ec 0c             	sub    $0xc,%esp
    11dc:	6a 03                	push   $0x3
    11de:	e8 3d 50 00 00       	call   6220 <fibril_switch@plt>
    11e3:	83 c4 10             	add    $0x10,%esp
    11e6:	8d 65 f4             	lea    -0xc(%ebp),%esp
    11e9:	89 d8                	mov    %ebx,%eax
    11eb:	59                   	pop    %ecx
    11ec:	5b                   	pop    %ebx
    11ed:	5e                   	pop    %esi
    11ee:	5d                   	pop    %ebp
    11ef:	8d 61 fc             	lea    -0x4(%ecx),%esp
    11f2:	c3                   	ret    
    11f3:	51                   	push   %ecx
    11f4:	50                   	push   %eax
    11f5:	68 f5 58 00 00       	push   $0x58f5
    11fa:	68 a4 59 00 00       	push   $0x59a4
    11ff:	e8 4c 4c 00 00       	call   5e50 <printf@plt>
    1204:	83 c4 10             	add    $0x10,%esp
    1207:	eb dd                	jmp    11e6 <main+0xb6>
    1209:	50                   	push   %eax
    120a:	50                   	push   %eax
    120b:	68 fa 58 00 00       	push   $0x58fa
    1210:	ff 76 04             	pushl  0x4(%esi)
    1213:	e8 e8 4e 00 00       	call   6100 <str_cmp@plt>
    1218:	83 c4 10             	add    $0x10,%esp
    121b:	85 c0                	test   %eax,%eax
    121d:	75 53                	jne    1272 <main+0x142>
    121f:	50                   	push   %eax
    1220:	6a 0a                	push   $0xa
    1222:	6a 00                	push   $0x0
    1224:	ff 76 08             	pushl  0x8(%esi)
    1227:	e8 e4 4d 00 00       	call   6010 <strtol@plt>
    122c:	83 c4 10             	add    $0x10,%esp
    122f:	a3 d8 7e 00 00       	mov    %eax,0x7ed8
    1234:	e9 2a ff ff ff       	jmp    1163 <main+0x33>
    1239:	50                   	push   %eax
    123a:	6a 0b                	push   $0xb
    123c:	6a 00                	push   $0x0
    123e:	6a 00                	push   $0x0
    1240:	6a 00                	push   $0x0
    1242:	6a 00                	push   $0x0
    1244:	6a 00                	push   $0x0
    1246:	68 dc 80 00 00       	push   $0x80dc
    124b:	ff 15 d8 80 00 00    	call   *0x80d8
    1251:	83 c4 20             	add    $0x20,%esp
    1254:	eb 83                	jmp    11d9 <main+0xa9>
    1256:	50                   	push   %eax
    1257:	50                   	push   %eax
    1258:	68 f5 58 00 00       	push   $0x58f5
    125d:	68 84 59 00 00       	push   $0x5984
    1262:	83 cb ff             	or     $0xffffffff,%ebx
    1265:	e8 e6 4b 00 00       	call   5e50 <printf@plt>
    126a:	83 c4 10             	add    $0x10,%esp
    126d:	e9 74 ff ff ff       	jmp    11e6 <main+0xb6>
    1272:	83 ec 0c             	sub    $0xc,%esp
    1275:	83 cb ff             	or     $0xffffffff,%ebx
    1278:	68 05 59 00 00       	push   $0x5905
    127d:	e8 ce 4b 00 00       	call   5e50 <printf@plt>
    1282:	83 c4 10             	add    $0x10,%esp
    1285:	e9 5c ff ff ff       	jmp    11e6 <main+0xb6>
    128a:	53                   	push   %ebx
    128b:	53                   	push   %ebx
    128c:	68 f5 58 00 00       	push   $0x58f5
    1291:	68 22 59 00 00       	push   $0x5922
    1296:	83 cb ff             	or     $0xffffffff,%ebx
    1299:	e8 b2 4b 00 00       	call   5e50 <printf@plt>
    129e:	83 c4 10             	add    $0x10,%esp
    12a1:	e9 40 ff ff ff       	jmp    11e6 <main+0xb6>
    12a6:	66 90                	xchg   %ax,%ax
    12a8:	66 90                	xchg   %ax,%ax
    12aa:	66 90                	xchg   %ax,%ax
    12ac:	66 90                	xchg   %ax,%ax
    12ae:	66 90                	xchg   %ax,%ax

000012b0 <nodes_key_hash>:
    12b0:	55                   	push   %ebp
    12b1:	89 e5                	mov    %esp,%ebp
    12b3:	8b 45 08             	mov    0x8(%ebp),%eax
    12b6:	5d                   	pop    %ebp
    12b7:	8b 10                	mov    (%eax),%edx
    12b9:	8b 48 04             	mov    0x4(%eax),%ecx
    12bc:	89 d0                	mov    %edx,%eax
    12be:	c1 c0 05             	rol    $0x5,%eax
    12c1:	8d 84 01 b9 79 37 9e 	lea    -0x61c88647(%ecx,%eax,1),%eax
    12c8:	31 d0                	xor    %edx,%eax
    12ca:	c3                   	ret    
    12cb:	90                   	nop
    12cc:	8d 74 26 00          	lea    0x0(%esi,%eiz,1),%esi

000012d0 <nodes_hash>:
    12d0:	55                   	push   %ebp
    12d1:	89 e5                	mov    %esp,%ebp
    12d3:	8b 45 08             	mov    0x8(%ebp),%eax
    12d6:	5d                   	pop    %ebp
    12d7:	8d 50 f4             	lea    -0xc(%eax),%edx
    12da:	8b 40 fc             	mov    -0x4(%eax),%eax
    12dd:	8b 48 08             	mov    0x8(%eax),%ecx
    12e0:	8b 52 04             	mov    0x4(%edx),%edx
    12e3:	89 c8                	mov    %ecx,%eax
    12e5:	c1 c0 05             	rol    $0x5,%eax
    12e8:	8d 84 02 b9 79 37 9e 	lea    -0x61c88647(%edx,%eax,1),%eax
    12ef:	31 c8                	xor    %ecx,%eax
    12f1:	c3                   	ret    
    12f2:	8d b4 26 00 00 00 00 	lea    0x0(%esi,%eiz,1),%esi
    12f9:	8d bc 27 00 00 00 00 	lea    0x0(%edi,%eiz,1),%edi

00001300 <nodes_key_equal>:
    1300:	55                   	push   %ebp
    1301:	89 e5                	mov    %esp,%ebp
    1303:	53                   	push   %ebx
    1304:	8b 45 0c             	mov    0xc(%ebp),%eax
    1307:	8b 4d 08             	mov    0x8(%ebp),%ecx
    130a:	8d 50 f4             	lea    -0xc(%eax),%edx
    130d:	8b 5a 08             	mov    0x8(%edx),%ebx
    1310:	31 c0                	xor    %eax,%eax
    1312:	8b 5b 08             	mov    0x8(%ebx),%ebx
    1315:	39 19                	cmp    %ebx,(%ecx)
    1317:	74 07                	je     1320 <nodes_key_equal+0x20>
    1319:	5b                   	pop    %ebx
    131a:	5d                   	pop    %ebp
    131b:	c3                   	ret    
    131c:	8d 74 26 00          	lea    0x0(%esi,%eiz,1),%esi
    1320:	8b 42 04             	mov    0x4(%edx),%eax
    1323:	5b                   	pop    %ebx
    1324:	39 41 04             	cmp    %eax,0x4(%ecx)
    1327:	5d                   	pop    %ebp
    1328:	0f 94 c0             	sete   %al
    132b:	c3                   	ret    
    132c:	8d 74 26 00          	lea    0x0(%esi,%eiz,1),%esi

00001330 <cdfs_node_put>:
    1330:	55                   	push   %ebp
    1331:	31 c0                	xor    %eax,%eax
    1333:	89 e5                	mov    %esp,%ebp
    1335:	5d                   	pop    %ebp
    1336:	c3                   	ret    
    1337:	89 f6                	mov    %esi,%esi
    1339:	8d bc 27 00 00 00 00 	lea    0x0(%edi,%eiz,1),%edi

00001340 <cdfs_create_node>:
    1340:	55                   	push   %ebp
    1341:	b8 f5 ff ff ff       	mov    $0xfffffff5,%eax
    1346:	89 e5                	mov    %esp,%ebp
    1348:	5d                   	pop    %ebp
    1349:	c3                   	ret    
    134a:	8d b6 00 00 00 00    	lea    0x0(%esi),%esi

00001350 <cdfs_destroy_node>:
    1350:	55                   	push   %ebp
    1351:	b8 f5 ff ff ff       	mov    $0xfffffff5,%eax
    1356:	89 e5                	mov    %esp,%ebp
    1358:	5d                   	pop    %ebp
    1359:	c3                   	ret    
    135a:	8d b6 00 00 00 00    	lea    0x0(%esi),%esi

00001360 <cdfs_unlink_node>:
    1360:	55                   	push   %ebp
    1361:	b8 f5 ff ff ff       	mov    $0xfffffff5,%eax
    1366:	89 e5                	mov    %esp,%ebp
    1368:	5d                   	pop    %ebp
    1369:	c3                   	ret    
    136a:	8d b6 00 00 00 00    	lea    0x0(%esi),%esi

00001370 <cdfs_index_get>:
    1370:	55                   	push   %ebp
    1371:	89 e5                	mov    %esp,%ebp
    1373:	8b 45 08             	mov    0x8(%ebp),%eax
    1376:	85 c0                	test   %eax,%eax
    1378:	74 0e                	je     1388 <cdfs_index_get+0x18>
    137a:	8b 40 10             	mov    0x10(%eax),%eax
    137d:	5d                   	pop    %ebp
    137e:	8b 40 04             	mov    0x4(%eax),%eax
    1381:	c3                   	ret    
    1382:	8d b6 00 00 00 00    	lea    0x0(%esi),%esi
    1388:	a1 04 00 00 00       	mov    0x4,%eax
    138d:	0f 0b                	ud2    
    138f:	90                   	nop

00001390 <cdfs_size_get>:
    1390:	55                   	push   %ebp
    1391:	89 e5                	mov    %esp,%ebp
    1393:	8b 45 08             	mov    0x8(%ebp),%eax
    1396:	85 c0                	test   %eax,%eax
    1398:	74 0e                	je     13a8 <cdfs_size_get+0x18>
    139a:	8b 40 10             	mov    0x10(%eax),%eax
    139d:	31 d2                	xor    %edx,%edx
    139f:	5d                   	pop    %ebp
    13a0:	8b 40 1c             	mov    0x1c(%eax),%eax
    13a3:	c3                   	ret    
    13a4:	8d 74 26 00          	lea    0x0(%esi,%eiz,1),%esi
    13a8:	a1 1c 00 00 00       	mov    0x1c,%eax
    13ad:	0f 0b                	ud2    
    13af:	90                   	nop

000013b0 <cdfs_lnkcnt_get>:
    13b0:	55                   	push   %ebp
    13b1:	89 e5                	mov    %esp,%ebp
    13b3:	8b 45 08             	mov    0x8(%ebp),%eax
    13b6:	85 c0                	test   %eax,%eax
    13b8:	74 0e                	je     13c8 <cdfs_lnkcnt_get+0x18>
    13ba:	8b 40 10             	mov    0x10(%eax),%eax
    13bd:	5d                   	pop    %ebp
    13be:	8b 40 18             	mov    0x18(%eax),%eax
    13c1:	c3                   	ret    
    13c2:	8d b6 00 00 00 00    	lea    0x0(%esi),%esi
    13c8:	a1 18 00 00 00       	mov    0x18,%eax
    13cd:	0f 0b                	ud2    
    13cf:	90                   	nop

000013d0 <cdfs_is_directory>:
    13d0:	55                   	push   %ebp
    13d1:	89 e5                	mov    %esp,%ebp
    13d3:	8b 45 08             	mov    0x8(%ebp),%eax
    13d6:	85 c0                	test   %eax,%eax
    13d8:	74 0e                	je     13e8 <cdfs_is_directory+0x18>
    13da:	8b 40 10             	mov    0x10(%eax),%eax
    13dd:	5d                   	pop    %ebp
    13de:	83 78 14 02          	cmpl   $0x2,0x14(%eax)
    13e2:	0f 94 c0             	sete   %al
    13e5:	c3                   	ret    
    13e6:	66 90                	xchg   %ax,%ax
    13e8:	a1 14 00 00 00       	mov    0x14,%eax
    13ed:	0f 0b                	ud2    
    13ef:	90                   	nop

000013f0 <cdfs_is_file>:
    13f0:	55                   	push   %ebp
    13f1:	89 e5                	mov    %esp,%ebp
    13f3:	8b 45 08             	mov    0x8(%ebp),%eax
    13f6:	85 c0                	test   %eax,%eax
    13f8:	74 0e                	je     1408 <cdfs_is_file+0x18>
    13fa:	8b 40 10             	mov    0x10(%eax),%eax
    13fd:	5d                   	pop    %ebp
    13fe:	83 78 14 01          	cmpl   $0x1,0x14(%eax)
    1402:	0f 94 c0             	sete   %al
    1405:	c3                   	ret    
    1406:	66 90                	xchg   %ax,%ax
    1408:	a1 14 00 00 00       	mov    0x14,%eax
    140d:	0f 0b                	ud2    
    140f:	90                   	nop

00001410 <cdfs_service_get>:
    1410:	55                   	push   %ebp
    1411:	31 c0                	xor    %eax,%eax
    1413:	89 e5                	mov    %esp,%ebp
    1415:	5d                   	pop    %ebp
    1416:	c3                   	ret    
    1417:	89 f6                	mov    %esi,%esi
    1419:	8d bc 27 00 00 00 00 	lea    0x0(%edi,%eiz,1),%edi

00001420 <cdfs_size_block>:
    1420:	55                   	push   %ebp
    1421:	89 e5                	mov    %esp,%ebp
    1423:	8b 45 0c             	mov    0xc(%ebp),%eax
    1426:	c7 00 00 08 00 00    	movl   $0x800,(%eax)
    142c:	31 c0                	xor    %eax,%eax
    142e:	5d                   	pop    %ebp
    142f:	c3                   	ret    

00001430 <cdfs_free_block_count>:
    1430:	55                   	push   %ebp
    1431:	89 e5                	mov    %esp,%ebp
    1433:	8b 45 0c             	mov    0xc(%ebp),%eax
    1436:	c7 00 00 00 00 00    	movl   $0x0,(%eax)
    143c:	c7 40 04 00 00 00 00 	movl   $0x0,0x4(%eax)
    1443:	5d                   	pop    %ebp
    1444:	31 c0                	xor    %eax,%eax
    1446:	c3                   	ret    
    1447:	89 f6                	mov    %esi,%esi
    1449:	8d bc 27 00 00 00 00 	lea    0x0(%edi,%eiz,1),%edi

00001450 <cdfs_write>:
    1450:	55                   	push   %ebp
    1451:	b8 f5 ff ff ff       	mov    $0xfffffff5,%eax
    1456:	89 e5                	mov    %esp,%ebp
    1458:	5d                   	pop    %ebp
    1459:	c3                   	ret    
    145a:	8d b6 00 00 00 00    	lea    0x0(%esi),%esi

00001460 <cdfs_truncate>:
    1460:	55                   	push   %ebp
    1461:	b8 f5 ff ff ff       	mov    $0xfffffff5,%eax
    1466:	89 e5                	mov    %esp,%ebp
    1468:	5d                   	pop    %ebp
    1469:	c3                   	ret    
    146a:	8d b6 00 00 00 00    	lea    0x0(%esi),%esi

00001470 <cdfs_destroy>:
    1470:	55                   	push   %ebp
    1471:	b8 f5 ff ff ff       	mov    $0xfffffff5,%eax
    1476:	89 e5                	mov    %esp,%ebp
    1478:	5d                   	pop    %ebp
    1479:	c3                   	ret    
    147a:	8d b6 00 00 00 00    	lea    0x0(%esi),%esi

00001480 <cdfs_sync>:
    1480:	55                   	push   %ebp
    1481:	31 c0                	xor    %eax,%eax
    1483:	89 e5                	mov    %esp,%ebp
    1485:	5d                   	pop    %ebp
    1486:	c3                   	ret    
    1487:	89 f6                	mov    %esi,%esi
    1489:	8d bc 27 00 00 00 00 	lea    0x0(%edi,%eiz,1),%edi

00001490 <nodes_remove_callback>:
    1490:	55                   	push   %ebp
    1491:	89 e5                	mov    %esp,%ebp
    1493:	57                   	push   %edi
    1494:	56                   	push   %esi
    1495:	53                   	push   %ebx
    1496:	83 ec 0c             	sub    $0xc,%esp
    1499:	8b 7d 08             	mov    0x8(%ebp),%edi
    149c:	8d 5f f4             	lea    -0xc(%edi),%ebx
    149f:	83 7b 14 02          	cmpl   $0x2,0x14(%ebx)
    14a3:	74 23                	je     14c8 <nodes_remove_callback+0x38>
    14a5:	83 ec 0c             	sub    $0xc,%esp
    14a8:	8b 47 f4             	mov    -0xc(%edi),%eax
    14ab:	50                   	push   %eax
    14ac:	e8 af 4d 00 00       	call   6260 <free@plt>
    14b1:	89 5d 08             	mov    %ebx,0x8(%ebp)
    14b4:	83 c4 10             	add    $0x10,%esp
    14b7:	8d 65 f4             	lea    -0xc(%ebp),%esp
    14ba:	5b                   	pop    %ebx
    14bb:	5e                   	pop    %esi
    14bc:	5f                   	pop    %edi
    14bd:	5d                   	pop    %ebp
    14be:	e9 9d 4d 00 00       	jmp    6260 <free@plt>
    14c3:	90                   	nop
    14c4:	8d 74 26 00          	lea    0x0(%esi,%eiz,1),%esi
    14c8:	8b 43 24             	mov    0x24(%ebx),%eax
    14cb:	8d 77 14             	lea    0x14(%edi),%esi
    14ce:	39 f0                	cmp    %esi,%eax
    14d0:	75 3a                	jne    150c <nodes_remove_callback+0x7c>
    14d2:	eb d1                	jmp    14a5 <nodes_remove_callback+0x15>
    14d4:	8d 74 26 00          	lea    0x0(%esi,%eiz,1),%esi
    14d8:	8b 08                	mov    (%eax),%ecx
    14da:	85 c9                	test   %ecx,%ecx
    14dc:	74 0e                	je     14ec <nodes_remove_callback+0x5c>
    14de:	8b 50 04             	mov    0x4(%eax),%edx
    14e1:	85 d2                	test   %edx,%edx
    14e3:	74 07                	je     14ec <nodes_remove_callback+0x5c>
    14e5:	89 0a                	mov    %ecx,(%edx)
    14e7:	8b 08                	mov    (%eax),%ecx
    14e9:	89 51 04             	mov    %edx,0x4(%ecx)
    14ec:	83 ec 0c             	sub    $0xc,%esp
    14ef:	c7 00 00 00 00 00    	movl   $0x0,(%eax)
    14f5:	c7 40 04 00 00 00 00 	movl   $0x0,0x4(%eax)
    14fc:	50                   	push   %eax
    14fd:	e8 5e 4d 00 00       	call   6260 <free@plt>
    1502:	8b 43 24             	mov    0x24(%ebx),%eax
    1505:	83 c4 10             	add    $0x10,%esp
    1508:	39 f0                	cmp    %esi,%eax
    150a:	74 99                	je     14a5 <nodes_remove_callback+0x15>
    150c:	85 c0                	test   %eax,%eax
    150e:	75 c8                	jne    14d8 <nodes_remove_callback+0x48>
    1510:	eb 93                	jmp    14a5 <nodes_remove_callback+0x15>
    1512:	8d b4 26 00 00 00 00 	lea    0x0(%esi,%eiz,1),%esi
    1519:	8d bc 27 00 00 00 00 	lea    0x0(%edi,%eiz,1),%edi

00001520 <cdfs_node_get>:
    1520:	55                   	push   %ebp
    1521:	89 e5                	mov    %esp,%ebp
    1523:	83 ec 20             	sub    $0x20,%esp
    1526:	8b 45 0c             	mov    0xc(%ebp),%eax
    1529:	89 45 f0             	mov    %eax,-0x10(%ebp)
    152c:	8b 45 10             	mov    0x10(%ebp),%eax
    152f:	89 45 f4             	mov    %eax,-0xc(%ebp)
    1532:	8d 45 f0             	lea    -0x10(%ebp),%eax
    1535:	50                   	push   %eax
    1536:	68 e0 80 00 00       	push   $0x80e0
    153b:	e8 a0 4c 00 00       	call   61e0 <hash_table_find@plt>
    1540:	83 c4 10             	add    $0x10,%esp
    1543:	85 c0                	test   %eax,%eax
    1545:	74 11                	je     1558 <cdfs_node_get+0x38>
    1547:	83 f8 0c             	cmp    $0xc,%eax
    154a:	74 1c                	je     1568 <cdfs_node_get+0x48>
    154c:	8b 40 f4             	mov    -0xc(%eax),%eax
    154f:	8b 55 08             	mov    0x8(%ebp),%edx
    1552:	89 02                	mov    %eax,(%edx)
    1554:	31 c0                	xor    %eax,%eax
    1556:	c9                   	leave  
    1557:	c3                   	ret    
    1558:	8b 45 08             	mov    0x8(%ebp),%eax
    155b:	c7 00 00 00 00 00    	movl   $0x0,(%eax)
    1561:	31 c0                	xor    %eax,%eax
    1563:	c9                   	leave  
    1564:	c3                   	ret    
    1565:	8d 76 00             	lea    0x0(%esi),%esi
    1568:	31 c0                	xor    %eax,%eax
    156a:	eb e3                	jmp    154f <cdfs_node_get+0x2f>
    156c:	8d 74 26 00          	lea    0x0(%esi,%eiz,1),%esi

00001570 <cache_remove_closed>:
    1570:	55                   	push   %ebp
    1571:	89 e5                	mov    %esp,%ebp
    1573:	53                   	push   %ebx
    1574:	53                   	push   %ebx
    1575:	8b 5d 0c             	mov    0xc(%ebp),%ebx
    1578:	8b 03                	mov    (%ebx),%eax
    157a:	85 c0                	test   %eax,%eax
    157c:	74 0a                	je     1588 <cache_remove_closed+0x18>
    157e:	8b 55 08             	mov    0x8(%ebp),%edx
    1581:	8b 4a 24             	mov    0x24(%edx),%ecx
    1584:	85 c9                	test   %ecx,%ecx
    1586:	74 10                	je     1598 <cache_remove_closed+0x28>
    1588:	85 c0                	test   %eax,%eax
    158a:	8b 5d fc             	mov    -0x4(%ebp),%ebx
    158d:	0f 95 c0             	setne  %al
    1590:	c9                   	leave  
    1591:	c3                   	ret    
    1592:	8d b6 00 00 00 00    	lea    0x0(%esi),%esi
    1598:	50                   	push   %eax
    1599:	50                   	push   %eax
    159a:	52                   	push   %edx
    159b:	68 e0 80 00 00       	push   $0x80e0
    15a0:	e8 6b 4b 00 00       	call   6110 <hash_table_remove_item@plt>
    15a5:	8b 03                	mov    (%ebx),%eax
    15a7:	8b 15 fc 80 00 00    	mov    0x80fc,%edx
    15ad:	48                   	dec    %eax
    15ae:	89 03                	mov    %eax,(%ebx)
    15b0:	4a                   	dec    %edx
    15b1:	83 c4 10             	add    $0x10,%esp
    15b4:	89 15 fc 80 00 00    	mov    %edx,0x80fc
    15ba:	85 c0                	test   %eax,%eax
    15bc:	8b 5d fc             	mov    -0x4(%ebp),%ebx
    15bf:	0f 95 c0             	setne  %al
    15c2:	c9                   	leave  
    15c3:	c3                   	ret    
    15c4:	8d b6 00 00 00 00    	lea    0x0(%esi),%esi
    15ca:	8d bf 00 00 00 00    	lea    0x0(%edi),%edi

000015d0 <rm_service_id_nodes>:
    15d0:	55                   	push   %ebp
    15d1:	89 e5                	mov    %esp,%ebp
    15d3:	83 ec 08             	sub    $0x8,%esp
    15d6:	8b 45 08             	mov    0x8(%ebp),%eax
    15d9:	8b 4d 0c             	mov    0xc(%ebp),%ecx
    15dc:	8b 50 fc             	mov    -0x4(%eax),%edx
    15df:	8b 52 08             	mov    0x8(%edx),%edx
    15e2:	39 11                	cmp    %edx,(%ecx)
    15e4:	74 0a                	je     15f0 <rm_service_id_nodes+0x20>
    15e6:	b0 01                	mov    $0x1,%al
    15e8:	c9                   	leave  
    15e9:	c3                   	ret    
    15ea:	8d b6 00 00 00 00    	lea    0x0(%esi),%esi
    15f0:	52                   	push   %edx
    15f1:	52                   	push   %edx
    15f2:	50                   	push   %eax
    15f3:	68 e0 80 00 00       	push   $0x80e0
    15f8:	e8 13 4b 00 00       	call   6110 <hash_table_remove_item@plt>
    15fd:	83 c4 10             	add    $0x10,%esp
    1600:	b0 01                	mov    $0x1,%al
    1602:	c9                   	leave  
    1603:	c3                   	ret    
    1604:	8d b6 00 00 00 00    	lea    0x0(%esi),%esi
    160a:	8d bf 00 00 00 00    	lea    0x0(%edi),%edi

00001610 <cdfs_unmounted>:
    1610:	55                   	push   %ebp
    1611:	89 e5                	mov    %esp,%ebp
    1613:	53                   	push   %ebx
    1614:	50                   	push   %eax
    1615:	8b 1d 68 7f 00 00    	mov    0x7f68,%ebx
    161b:	8b 45 08             	mov    0x8(%ebp),%eax
    161e:	81 fb 64 7f 00 00    	cmp    $0x7f64,%ebx
    1624:	75 0d                	jne    1633 <cdfs_unmounted+0x23>
    1626:	eb 70                	jmp    1698 <cdfs_unmounted+0x88>
    1628:	8b 5b 04             	mov    0x4(%ebx),%ebx
    162b:	81 fb 64 7f 00 00    	cmp    $0x7f64,%ebx
    1631:	74 65                	je     1698 <cdfs_unmounted+0x88>
    1633:	3b 43 08             	cmp    0x8(%ebx),%eax
    1636:	75 f0                	jne    1628 <cdfs_unmounted+0x18>
    1638:	8b 13                	mov    (%ebx),%edx
    163a:	85 d2                	test   %edx,%edx
    163c:	74 0e                	je     164c <cdfs_unmounted+0x3c>
    163e:	8b 43 04             	mov    0x4(%ebx),%eax
    1641:	85 c0                	test   %eax,%eax
    1643:	74 07                	je     164c <cdfs_unmounted+0x3c>
    1645:	89 10                	mov    %edx,(%eax)
    1647:	8b 13                	mov    (%ebx),%edx
    1649:	89 42 04             	mov    %eax,0x4(%edx)
    164c:	c7 03 00 00 00 00    	movl   $0x0,(%ebx)
    1652:	c7 43 04 00 00 00 00 	movl   $0x0,0x4(%ebx)
    1659:	50                   	push   %eax
    165a:	8d 43 08             	lea    0x8(%ebx),%eax
    165d:	50                   	push   %eax
    165e:	68 d0 15 00 00       	push   $0x15d0
    1663:	68 e0 80 00 00       	push   $0x80e0
    1668:	e8 53 4b 00 00       	call   61c0 <hash_table_apply@plt>
    166d:	8b 4b 08             	mov    0x8(%ebx),%ecx
    1670:	5a                   	pop    %edx
    1671:	51                   	push   %ecx
    1672:	e8 a9 19 00 00       	call   3020 <block_cache_fini>
    1677:	58                   	pop    %eax
    1678:	8b 43 08             	mov    0x8(%ebx),%eax
    167b:	50                   	push   %eax
    167c:	e8 4f 1b 00 00       	call   31d0 <block_fini>
    1681:	89 1c 24             	mov    %ebx,(%esp)
    1684:	e8 d7 4b 00 00       	call   6260 <free@plt>
    1689:	83 c4 10             	add    $0x10,%esp
    168c:	31 c0                	xor    %eax,%eax
    168e:	8b 5d fc             	mov    -0x4(%ebp),%ebx
    1691:	c9                   	leave  
    1692:	c3                   	ret    
    1693:	90                   	nop
    1694:	8d 74 26 00          	lea    0x0(%esi,%eiz,1),%esi
    1698:	83 c8 ff             	or     $0xffffffff,%eax
    169b:	8b 5d fc             	mov    -0x4(%ebp),%ebx
    169e:	c9                   	leave  
    169f:	c3                   	ret    

000016a0 <cdfs_close>:
    16a0:	55                   	push   %ebp
    16a1:	89 e5                	mov    %esp,%ebp
    16a3:	83 ec 18             	sub    $0x18,%esp
    16a6:	8b 45 0c             	mov    0xc(%ebp),%eax
    16a9:	85 c0                	test   %eax,%eax
    16ab:	75 0b                	jne    16b8 <cdfs_close+0x18>
    16ad:	31 c0                	xor    %eax,%eax
    16af:	c9                   	leave  
    16b0:	c3                   	ret    
    16b1:	8d b4 26 00 00 00 00 	lea    0x0(%esi,%eiz,1),%esi
    16b8:	8b 55 08             	mov    0x8(%ebp),%edx
    16bb:	89 45 f4             	mov    %eax,-0xc(%ebp)
    16be:	8d 45 f0             	lea    -0x10(%ebp),%eax
    16c1:	89 55 f0             	mov    %edx,-0x10(%ebp)
    16c4:	51                   	push   %ecx
    16c5:	51                   	push   %ecx
    16c6:	50                   	push   %eax
    16c7:	68 e0 80 00 00       	push   $0x80e0
    16cc:	e8 0f 4b 00 00       	call   61e0 <hash_table_find@plt>
    16d1:	83 c4 10             	add    $0x10,%esp
    16d4:	85 c0                	test   %eax,%eax
    16d6:	74 3d                	je     1715 <cdfs_close+0x75>
    16d8:	83 e8 0c             	sub    $0xc,%eax
    16db:	8b 50 30             	mov    0x30(%eax),%edx
    16de:	85 d2                	test   %edx,%edx
    16e0:	74 38                	je     171a <cdfs_close+0x7a>
    16e2:	4a                   	dec    %edx
    16e3:	89 50 30             	mov    %edx,0x30(%eax)
    16e6:	a1 fc 80 00 00       	mov    0x80fc,%eax
    16eb:	3d c8 00 00 00       	cmp    $0xc8,%eax
    16f0:	76 bb                	jbe    16ad <cdfs_close+0xd>
    16f2:	2d c8 00 00 00       	sub    $0xc8,%eax
    16f7:	89 45 ec             	mov    %eax,-0x14(%ebp)
    16fa:	50                   	push   %eax
    16fb:	8d 45 ec             	lea    -0x14(%ebp),%eax
    16fe:	50                   	push   %eax
    16ff:	68 70 15 00 00       	push   $0x1570
    1704:	68 e0 80 00 00       	push   $0x80e0
    1709:	e8 b2 4a 00 00       	call   61c0 <hash_table_apply@plt>
    170e:	83 c4 10             	add    $0x10,%esp
    1711:	31 c0                	xor    %eax,%eax
    1713:	eb 9a                	jmp    16af <cdfs_close+0xf>
    1715:	83 c8 ff             	or     $0xffffffff,%eax
    1718:	c9                   	leave  
    1719:	c3                   	ret    
    171a:	52                   	push   %edx
    171b:	68 f6 04 00 00       	push   $0x4f6
    1720:	68 cd 59 00 00       	push   $0x59cd
    1725:	68 d8 59 00 00       	push   $0x59d8
    172a:	e8 21 49 00 00       	call   6050 <assert_abort@plt>
    172f:	90                   	nop

00001730 <cdfs_link_node>:
    1730:	55                   	push   %ebp
    1731:	b8 f5 ff ff ff       	mov    $0xfffffff5,%eax
    1736:	89 e5                	mov    %esp,%ebp
    1738:	5d                   	pop    %ebp
    1739:	c3                   	ret    
    173a:	8d b6 00 00 00 00    	lea    0x0(%esi),%esi

00001740 <cdfs_total_block_count>:
    1740:	55                   	push   %ebp
    1741:	89 e5                	mov    %esp,%ebp
    1743:	8b 45 0c             	mov    0xc(%ebp),%eax
    1746:	c7 00 00 00 00 00    	movl   $0x0,(%eax)
    174c:	c7 40 04 00 00 00 00 	movl   $0x0,0x4(%eax)
    1753:	5d                   	pop    %ebp
    1754:	31 c0                	xor    %eax,%eax
    1756:	c3                   	ret    
    1757:	89 f6                	mov    %esi,%esi
    1759:	8d bc 27 00 00 00 00 	lea    0x0(%edi,%eiz,1),%edi

00001760 <cdfs_root_get>:
    1760:	55                   	push   %ebp
    1761:	89 e5                	mov    %esp,%ebp
    1763:	83 ec 20             	sub    $0x20,%esp
    1766:	8b 45 0c             	mov    0xc(%ebp),%eax
    1769:	c7 45 f4 00 00 00 00 	movl   $0x0,-0xc(%ebp)
    1770:	89 45 f0             	mov    %eax,-0x10(%ebp)
    1773:	8d 45 f0             	lea    -0x10(%ebp),%eax
    1776:	50                   	push   %eax
    1777:	68 e0 80 00 00       	push   $0x80e0
    177c:	e8 5f 4a 00 00       	call   61e0 <hash_table_find@plt>
    1781:	83 c4 10             	add    $0x10,%esp
    1784:	85 c0                	test   %eax,%eax
    1786:	74 18                	je     17a0 <cdfs_root_get+0x40>
    1788:	83 f8 0c             	cmp    $0xc,%eax
    178b:	74 23                	je     17b0 <cdfs_root_get+0x50>
    178d:	8b 40 f4             	mov    -0xc(%eax),%eax
    1790:	8b 55 08             	mov    0x8(%ebp),%edx
    1793:	89 02                	mov    %eax,(%edx)
    1795:	31 c0                	xor    %eax,%eax
    1797:	c9                   	leave  
    1798:	c3                   	ret    
    1799:	8d b4 26 00 00 00 00 	lea    0x0(%esi,%eiz,1),%esi
    17a0:	8b 45 08             	mov    0x8(%ebp),%eax
    17a3:	c7 00 00 00 00 00    	movl   $0x0,(%eax)
    17a9:	31 c0                	xor    %eax,%eax
    17ab:	c9                   	leave  
    17ac:	c3                   	ret    
    17ad:	8d 76 00             	lea    0x0(%esi),%esi
    17b0:	31 c0                	xor    %eax,%eax
    17b2:	eb dc                	jmp    1790 <cdfs_root_get+0x30>
    17b4:	8d b6 00 00 00 00    	lea    0x0(%esi),%esi
    17ba:	8d bf 00 00 00 00    	lea    0x0(%edi),%edi

000017c0 <create_node>:
    17c0:	55                   	push   %ebp
    17c1:	89 e5                	mov    %esp,%ebp
    17c3:	57                   	push   %edi
    17c4:	56                   	push   %esi
    17c5:	53                   	push   %ebx
    17c6:	83 ec 2c             	sub    $0x2c,%esp
    17c9:	89 45 d4             	mov    %eax,-0x2c(%ebp)
    17cc:	f6 c1 03             	test   $0x3,%cl
    17cf:	0f 84 25 01 00 00    	je     18fa <create_node+0x13a>
    17d5:	83 ec 0c             	sub    $0xc,%esp
    17d8:	89 d6                	mov    %edx,%esi
    17da:	89 cb                	mov    %ecx,%ebx
    17dc:	6a 34                	push   $0x34
    17de:	e8 8d 47 00 00       	call   5f70 <malloc@plt>
    17e3:	83 c4 10             	add    $0x10,%esp
    17e6:	89 c7                	mov    %eax,%edi
    17e8:	85 c0                	test   %eax,%eax
    17ea:	0f 84 f0 00 00 00    	je     18e0 <create_node+0x120>
    17f0:	83 ec 0c             	sub    $0xc,%esp
    17f3:	c7 00 00 00 00 00    	movl   $0x0,(%eax)
    17f9:	c7 40 04 00 00 00 00 	movl   $0x0,0x4(%eax)
    1800:	c7 40 08 00 00 00 00 	movl   $0x0,0x8(%eax)
    1807:	c7 40 14 00 00 00 00 	movl   $0x0,0x14(%eax)
    180e:	c7 40 18 00 00 00 00 	movl   $0x0,0x18(%eax)
    1815:	c7 40 1c 00 00 00 00 	movl   $0x0,0x1c(%eax)
    181c:	c7 40 28 00 00 00 00 	movl   $0x0,0x28(%eax)
    1823:	c6 40 2c 00          	movb   $0x0,0x2c(%eax)
    1827:	c7 40 30 00 00 00 00 	movl   $0x0,0x30(%eax)
    182e:	8d 40 20             	lea    0x20(%eax),%eax
    1831:	6a 14                	push   $0x14
    1833:	89 47 20             	mov    %eax,0x20(%edi)
    1836:	89 47 24             	mov    %eax,0x24(%edi)
    1839:	e8 32 47 00 00       	call   5f70 <malloc@plt>
    183e:	83 c4 10             	add    $0x10,%esp
    1841:	89 07                	mov    %eax,(%edi)
    1843:	85 c0                	test   %eax,%eax
    1845:	0f 84 9c 00 00 00    	je     18e7 <create_node+0x127>
    184b:	83 ec 0c             	sub    $0xc,%esp
    184e:	50                   	push   %eax
    184f:	e8 5c 3e 00 00       	call   56b0 <fs_node_initialize>
    1854:	8b 07                	mov    (%edi),%eax
    1856:	c7 45 e4 00 00 00 00 	movl   $0x0,-0x1c(%ebp)
    185d:	89 78 10             	mov    %edi,0x10(%eax)
    1860:	8b 46 08             	mov    0x8(%esi),%eax
    1863:	89 45 e0             	mov    %eax,-0x20(%ebp)
    1866:	58                   	pop    %eax
    1867:	8d 45 e0             	lea    -0x20(%ebp),%eax
    186a:	5a                   	pop    %edx
    186b:	50                   	push   %eax
    186c:	68 e0 80 00 00       	push   $0x80e0
    1871:	e8 6a 49 00 00       	call   61e0 <hash_table_find@plt>
    1876:	83 c4 10             	add    $0x10,%esp
    1879:	85 c0                	test   %eax,%eax
    187b:	74 53                	je     18d0 <create_node+0x110>
    187d:	83 f8 0c             	cmp    $0xc,%eax
    1880:	74 4e                	je     18d0 <create_node+0x110>
    1882:	8b 48 f4             	mov    -0xc(%eax),%ecx
    1885:	85 c9                	test   %ecx,%ecx
    1887:	74 47                	je     18d0 <create_node+0x110>
    1889:	8b 45 08             	mov    0x8(%ebp),%eax
    188c:	89 77 08             	mov    %esi,0x8(%edi)
    188f:	89 47 04             	mov    %eax,0x4(%edi)
    1892:	31 c0                	xor    %eax,%eax
    1894:	83 e3 02             	and    $0x2,%ebx
    1897:	0f 95 c0             	setne  %al
    189a:	40                   	inc    %eax
    189b:	89 47 14             	mov    %eax,0x14(%edi)
    189e:	50                   	push   %eax
    189f:	50                   	push   %eax
    18a0:	8d 47 0c             	lea    0xc(%edi),%eax
    18a3:	50                   	push   %eax
    18a4:	68 e0 80 00 00       	push   $0x80e0
    18a9:	e8 22 46 00 00       	call   5ed0 <hash_table_insert@plt>
    18ae:	8b 55 d4             	mov    -0x2c(%ebp),%edx
    18b1:	8b 07                	mov    (%edi),%eax
    18b3:	83 c4 10             	add    $0x10,%esp
    18b6:	89 02                	mov    %eax,(%edx)
    18b8:	8b 15 fc 80 00 00    	mov    0x80fc,%edx
    18be:	42                   	inc    %edx
    18bf:	31 c0                	xor    %eax,%eax
    18c1:	89 15 fc 80 00 00    	mov    %edx,0x80fc
    18c7:	8d 65 f4             	lea    -0xc(%ebp),%esp
    18ca:	5b                   	pop    %ebx
    18cb:	5e                   	pop    %esi
    18cc:	5f                   	pop    %edi
    18cd:	5d                   	pop    %ebp
    18ce:	c3                   	ret    
    18cf:	90                   	nop
    18d0:	c7 45 08 00 00 00 00 	movl   $0x0,0x8(%ebp)
    18d7:	eb b0                	jmp    1889 <create_node+0xc9>
    18d9:	8d b4 26 00 00 00 00 	lea    0x0(%esi,%eiz,1),%esi
    18e0:	b8 fe ff ff ff       	mov    $0xfffffffe,%eax
    18e5:	eb e0                	jmp    18c7 <create_node+0x107>
    18e7:	83 ec 0c             	sub    $0xc,%esp
    18ea:	57                   	push   %edi
    18eb:	e8 70 49 00 00       	call   6260 <free@plt>
    18f0:	83 c4 10             	add    $0x10,%esp
    18f3:	b8 fe ff ff ff       	mov    $0xfffffffe,%eax
    18f8:	eb cd                	jmp    18c7 <create_node+0x107>
    18fa:	51                   	push   %ecx
    18fb:	68 62 01 00 00       	push   $0x162
    1900:	68 cd 59 00 00       	push   $0x59cd
    1905:	68 04 5a 00 00       	push   $0x5a04
    190a:	e8 41 47 00 00       	call   6050 <assert_abort@plt>
    190f:	90                   	nop

00001910 <cdfs_readdir>:
    1910:	55                   	push   %ebp
    1911:	89 e5                	mov    %esp,%ebp
    1913:	57                   	push   %edi
    1914:	56                   	push   %esi
    1915:	53                   	push   %ebx
    1916:	83 ec 5c             	sub    $0x5c,%esp
    1919:	89 45 bc             	mov    %eax,-0x44(%ebp)
    191c:	89 55 b0             	mov    %edx,-0x50(%ebp)
    191f:	85 d2                	test   %edx,%edx
    1921:	0f 84 db 03 00 00    	je     1d02 <cdfs_readdir+0x3f2>
    1927:	8b 42 10             	mov    0x10(%edx),%eax
    192a:	89 45 d0             	mov    %eax,-0x30(%ebp)
    192d:	85 c0                	test   %eax,%eax
    192f:	0f 84 cd 03 00 00    	je     1d02 <cdfs_readdir+0x3f2>
    1935:	89 c1                	mov    %eax,%ecx
    1937:	8a 40 2c             	mov    0x2c(%eax),%al
    193a:	88 45 b7             	mov    %al,-0x49(%ebp)
    193d:	84 c0                	test   %al,%al
    193f:	0f 85 88 02 00 00    	jne    1bcd <cdfs_readdir+0x2bd>
    1945:	8b 41 1c             	mov    0x1c(%ecx),%eax
    1948:	89 c1                	mov    %eax,%ecx
    194a:	c1 e9 0b             	shr    $0xb,%ecx
    194d:	a9 ff 07 00 00       	test   $0x7ff,%eax
    1952:	89 4d a8             	mov    %ecx,-0x58(%ebp)
    1955:	0f 85 7d 02 00 00    	jne    1bd8 <cdfs_readdir+0x2c8>
    195b:	8b 45 a8             	mov    -0x58(%ebp),%eax
    195e:	85 c0                	test   %eax,%eax
    1960:	0f 84 5c 02 00 00    	je     1bc2 <cdfs_readdir+0x2b2>
    1966:	c7 45 b8 00 00 00 00 	movl   $0x0,-0x48(%ebp)
    196d:	8b 45 b8             	mov    -0x48(%ebp),%eax
    1970:	83 ec 0c             	sub    $0xc,%esp
    1973:	8b 4d d0             	mov    -0x30(%ebp),%ecx
    1976:	31 d2                	xor    %edx,%edx
    1978:	6a 00                	push   $0x0
    197a:	8b 79 28             	mov    0x28(%ecx),%edi
    197d:	52                   	push   %edx
    197e:	01 f8                	add    %edi,%eax
    1980:	50                   	push   %eax
    1981:	8b 45 bc             	mov    -0x44(%ebp),%eax
    1984:	8b 40 08             	mov    0x8(%eax),%eax
    1987:	50                   	push   %eax
    1988:	8d 45 e0             	lea    -0x20(%ebp),%eax
    198b:	50                   	push   %eax
    198c:	e8 5f 1c 00 00       	call   35f0 <block_get>
    1991:	83 c4 20             	add    $0x20,%esp
    1994:	85 c0                	test   %eax,%eax
    1996:	0f 85 31 02 00 00    	jne    1bcd <cdfs_readdir+0x2bd>
    199c:	8b 5d e0             	mov    -0x20(%ebp),%ebx
    199f:	c7 45 d4 00 00 00 00 	movl   $0x0,-0x2c(%ebp)
    19a6:	8b 4d d4             	mov    -0x2c(%ebp),%ecx
    19a9:	8b 7b 58             	mov    0x58(%ebx),%edi
    19ac:	01 cf                	add    %ecx,%edi
    19ae:	8a 17                	mov    (%edi),%dl
    19b0:	84 d2                	test   %dl,%dl
    19b2:	0f 84 eb 01 00 00    	je     1ba3 <cdfs_readdir+0x293>
    19b8:	31 c0                	xor    %eax,%eax
    19ba:	88 d0                	mov    %dl,%al
    19bc:	01 c8                	add    %ecx,%eax
    19be:	3d 00 08 00 00       	cmp    $0x800,%eax
    19c3:	0f 87 da 01 00 00    	ja     1ba3 <cdfs_readdir+0x293>
    19c9:	8a 57 19             	mov    0x19(%edi),%dl
    19cc:	83 e2 02             	and    $0x2,%edx
    19cf:	80 fa 01             	cmp    $0x1,%dl
    19d2:	19 c9                	sbb    %ecx,%ecx
    19d4:	83 c1 02             	add    $0x2,%ecx
    19d7:	89 4d cc             	mov    %ecx,-0x34(%ebp)
    19da:	80 7f 20 01          	cmpb   $0x1,0x20(%edi)
    19de:	0f 84 6c 02 00 00    	je     1c50 <cdfs_readdir+0x340>
    19e4:	8b 5d d0             	mov    -0x30(%ebp),%ebx
    19e7:	8b 45 b8             	mov    -0x48(%ebp),%eax
    19ea:	83 ec 0c             	sub    $0xc,%esp
    19ed:	8b 75 d4             	mov    -0x2c(%ebp),%esi
    19f0:	8b 53 28             	mov    0x28(%ebx),%edx
    19f3:	01 d0                	add    %edx,%eax
    19f5:	8b 55 bc             	mov    -0x44(%ebp),%edx
    19f8:	c1 e0 0b             	shl    $0xb,%eax
    19fb:	01 f0                	add    %esi,%eax
    19fd:	50                   	push   %eax
    19fe:	8d 45 e4             	lea    -0x1c(%ebp),%eax
    1a01:	e8 ba fd ff ff       	call   17c0 <create_node>
    1a06:	83 c4 10             	add    $0x10,%esp
    1a09:	85 c0                	test   %eax,%eax
    1a0b:	0f 85 bc 01 00 00    	jne    1bcd <cdfs_readdir+0x2bd>
    1a11:	8b 45 e4             	mov    -0x1c(%ebp),%eax
    1a14:	85 c0                	test   %eax,%eax
    1a16:	0f 84 b1 01 00 00    	je     1bcd <cdfs_readdir+0x2bd>
    1a1c:	8b 40 10             	mov    0x10(%eax),%eax
    1a1f:	31 d2                	xor    %edx,%edx
    1a21:	89 c1                	mov    %eax,%ecx
    1a23:	89 45 ac             	mov    %eax,-0x54(%ebp)
    1a26:	8b 47 02             	mov    0x2(%edi),%eax
    1a29:	8d 77 21             	lea    0x21(%edi),%esi
    1a2c:	89 41 28             	mov    %eax,0x28(%ecx)
    1a2f:	8b 47 0a             	mov    0xa(%edi),%eax
    1a32:	89 41 1c             	mov    %eax,0x1c(%ecx)
    1a35:	8b 43 08             	mov    0x8(%ebx),%eax
    1a38:	8a 57 20             	mov    0x20(%edi),%dl
    1a3b:	8b 40 0c             	mov    0xc(%eax),%eax
    1a3e:	85 c0                	test   %eax,%eax
    1a40:	0f 84 3a 02 00 00    	je     1c80 <cdfs_readdir+0x370>
    1a46:	48                   	dec    %eax
    1a47:	0f 85 1b 02 00 00    	jne    1c68 <cdfs_readdir+0x358>
    1a4d:	8d 42 02             	lea    0x2(%edx),%eax
    1a50:	89 55 c8             	mov    %edx,-0x38(%ebp)
    1a53:	51                   	push   %ecx
    1a54:	51                   	push   %ecx
    1a55:	6a 01                	push   $0x1
    1a57:	50                   	push   %eax
    1a58:	e8 03 46 00 00       	call   6060 <calloc@plt>
    1a5d:	83 c4 10             	add    $0x10,%esp
    1a60:	89 c1                	mov    %eax,%ecx
    1a62:	85 c0                	test   %eax,%eax
    1a64:	0f 84 63 01 00 00    	je     1bcd <cdfs_readdir+0x2bd>
    1a6a:	8b 55 c8             	mov    -0x38(%ebp),%edx
    1a6d:	d1 ea                	shr    %edx
    1a6f:	89 d3                	mov    %edx,%ebx
    1a71:	0f 84 5b 02 00 00    	je     1cd2 <cdfs_readdir+0x3c2>
    1a77:	31 c0                	xor    %eax,%eax
    1a79:	8d b4 26 00 00 00 00 	lea    0x0(%esi,%eiz,1),%esi
    1a80:	66 8b 14 46          	mov    (%esi,%eax,2),%dx
    1a84:	66 c1 c2 08          	rol    $0x8,%dx
    1a88:	66 89 14 41          	mov    %dx,(%ecx,%eax,2)
    1a8c:	40                   	inc    %eax
    1a8d:	39 d8                	cmp    %ebx,%eax
    1a8f:	75 ef                	jne    1a80 <cdfs_readdir+0x170>
    1a91:	8d 34 85 01 00 00 00 	lea    0x1(,%eax,4),%esi
    1a98:	83 ec 0c             	sub    $0xc,%esp
    1a9b:	89 4d c8             	mov    %ecx,-0x38(%ebp)
    1a9e:	56                   	push   %esi
    1a9f:	e8 cc 44 00 00       	call   5f70 <malloc@plt>
    1aa4:	83 c4 10             	add    $0x10,%esp
    1aa7:	89 c3                	mov    %eax,%ebx
    1aa9:	85 c0                	test   %eax,%eax
    1aab:	0f 84 1c 01 00 00    	je     1bcd <cdfs_readdir+0x2bd>
    1ab1:	8b 4d c8             	mov    -0x38(%ebp),%ecx
    1ab4:	52                   	push   %edx
    1ab5:	51                   	push   %ecx
    1ab6:	56                   	push   %esi
    1ab7:	50                   	push   %eax
    1ab8:	e8 43 45 00 00       	call   6000 <utf16_to_str@plt>
    1abd:	8b 4d c8             	mov    -0x38(%ebp),%ecx
    1ac0:	89 c6                	mov    %eax,%esi
    1ac2:	89 0c 24             	mov    %ecx,(%esp)
    1ac5:	e8 96 47 00 00       	call   6260 <free@plt>
    1aca:	83 c4 10             	add    $0x10,%esp
    1acd:	85 f6                	test   %esi,%esi
    1acf:	0f 85 f8 00 00 00    	jne    1bcd <cdfs_readdir+0x2bd>
    1ad5:	83 7d cc 02          	cmpl   $0x2,-0x34(%ebp)
    1ad9:	74 30                	je     1b0b <cdfs_readdir+0x1fb>
    1adb:	50                   	push   %eax
    1adc:	50                   	push   %eax
    1add:	6a 2e                	push   $0x2e
    1adf:	53                   	push   %ebx
    1ae0:	e8 4b 45 00 00       	call   6030 <str_chr@plt>
    1ae5:	83 c4 10             	add    $0x10,%esp
    1ae8:	89 c6                	mov    %eax,%esi
    1aea:	85 c0                	test   %eax,%eax
    1aec:	74 1d                	je     1b0b <cdfs_readdir+0x1fb>
    1aee:	50                   	push   %eax
    1aef:	50                   	push   %eax
    1af0:	6a 3b                	push   $0x3b
    1af2:	56                   	push   %esi
    1af3:	e8 38 45 00 00       	call   6030 <str_chr@plt>
    1af8:	83 c4 10             	add    $0x10,%esp
    1afb:	85 c0                	test   %eax,%eax
    1afd:	74 03                	je     1b02 <cdfs_readdir+0x1f2>
    1aff:	c6 00 00             	movb   $0x0,(%eax)
    1b02:	80 7e 01 00          	cmpb   $0x0,0x1(%esi)
    1b06:	75 03                	jne    1b0b <cdfs_readdir+0x1fb>
    1b08:	c6 06 00             	movb   $0x0,(%esi)
    1b0b:	8b 55 b0             	mov    -0x50(%ebp),%edx
    1b0e:	8b 45 e4             	mov    -0x1c(%ebp),%eax
    1b11:	85 c0                	test   %eax,%eax
    1b13:	8b 52 10             	mov    0x10(%edx),%edx
    1b16:	89 55 c8             	mov    %edx,-0x38(%ebp)
    1b19:	0f 84 a5 01 00 00    	je     1cc4 <cdfs_readdir+0x3b4>
    1b1f:	8b 40 10             	mov    0x10(%eax),%eax
    1b22:	89 45 a4             	mov    %eax,-0x5c(%ebp)
    1b25:	89 d0                	mov    %edx,%eax
    1b27:	83 78 14 02          	cmpl   $0x2,0x14(%eax)
    1b2b:	0f 85 bc 01 00 00    	jne    1ced <cdfs_readdir+0x3dd>
    1b31:	8b 70 24             	mov    0x24(%eax),%esi
    1b34:	83 c0 20             	add    $0x20,%eax
    1b37:	89 45 c4             	mov    %eax,-0x3c(%ebp)
    1b3a:	39 c6                	cmp    %eax,%esi
    1b3c:	0f 84 a9 00 00 00    	je     1beb <cdfs_readdir+0x2db>
    1b42:	89 7d c0             	mov    %edi,-0x40(%ebp)
    1b45:	89 f7                	mov    %esi,%edi
    1b47:	8b 75 c4             	mov    -0x3c(%ebp),%esi
    1b4a:	eb 0f                	jmp    1b5b <cdfs_readdir+0x24b>
    1b4c:	8d 74 26 00          	lea    0x0(%esi,%eiz,1),%esi
    1b50:	8b 7f 04             	mov    0x4(%edi),%edi
    1b53:	39 f7                	cmp    %esi,%edi
    1b55:	0f 84 8d 00 00 00    	je     1be8 <cdfs_readdir+0x2d8>
    1b5b:	50                   	push   %eax
    1b5c:	50                   	push   %eax
    1b5d:	53                   	push   %ebx
    1b5e:	8b 47 0c             	mov    0xc(%edi),%eax
    1b61:	50                   	push   %eax
    1b62:	e8 99 45 00 00       	call   6100 <str_cmp@plt>
    1b67:	83 c4 10             	add    $0x10,%esp
    1b6a:	85 c0                	test   %eax,%eax
    1b6c:	75 e2                	jne    1b50 <cdfs_readdir+0x240>
    1b6e:	8b 7d c0             	mov    -0x40(%ebp),%edi
    1b71:	83 ec 0c             	sub    $0xc,%esp
    1b74:	53                   	push   %ebx
    1b75:	e8 e6 46 00 00       	call   6260 <free@plt>
    1b7a:	83 c4 10             	add    $0x10,%esp
    1b7d:	83 7d cc 01          	cmpl   $0x1,-0x34(%ebp)
    1b81:	0f 84 31 01 00 00    	je     1cb8 <cdfs_readdir+0x3a8>
    1b87:	31 c0                	xor    %eax,%eax
    1b89:	8b 55 d4             	mov    -0x2c(%ebp),%edx
    1b8c:	8a 07                	mov    (%edi),%al
    1b8e:	8b 5d e0             	mov    -0x20(%ebp),%ebx
    1b91:	01 c2                	add    %eax,%edx
    1b93:	89 55 d4             	mov    %edx,-0x2c(%ebp)
    1b96:	81 7d d4 ff 07 00 00 	cmpl   $0x7ff,-0x2c(%ebp)
    1b9d:	0f 86 03 fe ff ff    	jbe    19a6 <cdfs_readdir+0x96>
    1ba3:	83 ec 0c             	sub    $0xc,%esp
    1ba6:	53                   	push   %ebx
    1ba7:	e8 44 17 00 00       	call   32f0 <block_put>
    1bac:	8b 45 b8             	mov    -0x48(%ebp),%eax
    1baf:	83 c4 10             	add    $0x10,%esp
    1bb2:	40                   	inc    %eax
    1bb3:	89 45 b8             	mov    %eax,-0x48(%ebp)
    1bb6:	8b 45 b8             	mov    -0x48(%ebp),%eax
    1bb9:	3b 45 a8             	cmp    -0x58(%ebp),%eax
    1bbc:	0f 85 ae fd ff ff    	jne    1970 <cdfs_readdir+0x60>
    1bc2:	8b 45 d0             	mov    -0x30(%ebp),%eax
    1bc5:	c6 45 b7 01          	movb   $0x1,-0x49(%ebp)
    1bc9:	c6 40 2c 01          	movb   $0x1,0x2c(%eax)
    1bcd:	8a 45 b7             	mov    -0x49(%ebp),%al
    1bd0:	8d 65 f4             	lea    -0xc(%ebp),%esp
    1bd3:	5b                   	pop    %ebx
    1bd4:	5e                   	pop    %esi
    1bd5:	5f                   	pop    %edi
    1bd6:	5d                   	pop    %ebp
    1bd7:	c3                   	ret    
    1bd8:	41                   	inc    %ecx
    1bd9:	89 4d a8             	mov    %ecx,-0x58(%ebp)
    1bdc:	e9 85 fd ff ff       	jmp    1966 <cdfs_readdir+0x56>
    1be1:	8d b4 26 00 00 00 00 	lea    0x0(%esi,%eiz,1),%esi
    1be8:	8b 7d c0             	mov    -0x40(%ebp),%edi
    1beb:	83 ec 0c             	sub    $0xc,%esp
    1bee:	6a 10                	push   $0x10
    1bf0:	e8 7b 43 00 00       	call   5f70 <malloc@plt>
    1bf5:	83 c4 10             	add    $0x10,%esp
    1bf8:	89 c6                	mov    %eax,%esi
    1bfa:	85 c0                	test   %eax,%eax
    1bfc:	0f 84 6f ff ff ff    	je     1b71 <cdfs_readdir+0x261>
    1c02:	83 ec 0c             	sub    $0xc,%esp
    1c05:	53                   	push   %ebx
    1c06:	e8 85 44 00 00       	call   6090 <str_dup@plt>
    1c0b:	83 c4 10             	add    $0x10,%esp
    1c0e:	89 46 0c             	mov    %eax,0xc(%esi)
    1c11:	85 c0                	test   %eax,%eax
    1c13:	0f 84 c3 00 00 00    	je     1cdc <cdfs_readdir+0x3cc>
    1c19:	8b 55 a4             	mov    -0x5c(%ebp),%edx
    1c1c:	c7 06 00 00 00 00    	movl   $0x0,(%esi)
    1c22:	8b 4a 18             	mov    0x18(%edx),%ecx
    1c25:	8b 42 04             	mov    0x4(%edx),%eax
    1c28:	41                   	inc    %ecx
    1c29:	89 46 08             	mov    %eax,0x8(%esi)
    1c2c:	89 4a 18             	mov    %ecx,0x18(%edx)
    1c2f:	8b 4d c8             	mov    -0x38(%ebp),%ecx
    1c32:	8b 45 c4             	mov    -0x3c(%ebp),%eax
    1c35:	89 46 04             	mov    %eax,0x4(%esi)
    1c38:	8b 41 20             	mov    0x20(%ecx),%eax
    1c3b:	89 06                	mov    %eax,(%esi)
    1c3d:	8b 41 20             	mov    0x20(%ecx),%eax
    1c40:	89 70 04             	mov    %esi,0x4(%eax)
    1c43:	89 71 20             	mov    %esi,0x20(%ecx)
    1c46:	e9 26 ff ff ff       	jmp    1b71 <cdfs_readdir+0x261>
    1c4b:	90                   	nop
    1c4c:	8d 74 26 00          	lea    0x0(%esi,%eiz,1),%esi
    1c50:	80 7f 21 01          	cmpb   $0x1,0x21(%edi)
    1c54:	0f 87 8a fd ff ff    	ja     19e4 <cdfs_readdir+0xd4>
    1c5a:	89 45 d4             	mov    %eax,-0x2c(%ebp)
    1c5d:	e9 34 ff ff ff       	jmp    1b96 <cdfs_readdir+0x286>
    1c62:	8d b6 00 00 00 00    	lea    0x0(%esi),%esi
    1c68:	50                   	push   %eax
    1c69:	68 da 01 00 00       	push   $0x1da
    1c6e:	68 cd 59 00 00       	push   $0x59cd
    1c73:	68 ee 59 00 00       	push   $0x59ee
    1c78:	e8 d3 43 00 00       	call   6050 <assert_abort@plt>
    1c7d:	8d 76 00             	lea    0x0(%esi),%esi
    1c80:	83 ec 0c             	sub    $0xc,%esp
    1c83:	8d 42 01             	lea    0x1(%edx),%eax
    1c86:	89 55 c8             	mov    %edx,-0x38(%ebp)
    1c89:	50                   	push   %eax
    1c8a:	e8 e1 42 00 00       	call   5f70 <malloc@plt>
    1c8f:	83 c4 10             	add    $0x10,%esp
    1c92:	89 c3                	mov    %eax,%ebx
    1c94:	85 c0                	test   %eax,%eax
    1c96:	0f 84 31 ff ff ff    	je     1bcd <cdfs_readdir+0x2bd>
    1c9c:	8b 55 c8             	mov    -0x38(%ebp),%edx
    1c9f:	50                   	push   %eax
    1ca0:	52                   	push   %edx
    1ca1:	56                   	push   %esi
    1ca2:	53                   	push   %ebx
    1ca3:	e8 a8 42 00 00       	call   5f50 <memcpy@plt>
    1ca8:	8b 55 c8             	mov    -0x38(%ebp),%edx
    1cab:	83 c4 10             	add    $0x10,%esp
    1cae:	c6 04 13 00          	movb   $0x0,(%ebx,%edx,1)
    1cb2:	e9 1e fe ff ff       	jmp    1ad5 <cdfs_readdir+0x1c5>
    1cb7:	90                   	nop
    1cb8:	8b 45 ac             	mov    -0x54(%ebp),%eax
    1cbb:	c6 40 2c 01          	movb   $0x1,0x2c(%eax)
    1cbf:	e9 c3 fe ff ff       	jmp    1b87 <cdfs_readdir+0x277>
    1cc4:	c7 45 a4 00 00 00 00 	movl   $0x0,-0x5c(%ebp)
    1ccb:	89 d0                	mov    %edx,%eax
    1ccd:	e9 55 fe ff ff       	jmp    1b27 <cdfs_readdir+0x217>
    1cd2:	be 01 00 00 00       	mov    $0x1,%esi
    1cd7:	e9 bc fd ff ff       	jmp    1a98 <cdfs_readdir+0x188>
    1cdc:	83 ec 0c             	sub    $0xc,%esp
    1cdf:	56                   	push   %esi
    1ce0:	e8 7b 45 00 00       	call   6260 <free@plt>
    1ce5:	83 c4 10             	add    $0x10,%esp
    1ce8:	e9 84 fe ff ff       	jmp    1b71 <cdfs_readdir+0x261>
    1ced:	50                   	push   %eax
    1cee:	68 92 01 00 00       	push   $0x192
    1cf3:	68 cd 59 00 00       	push   $0x59cd
    1cf8:	68 30 5a 00 00       	push   $0x5a30
    1cfd:	e8 4e 43 00 00       	call   6050 <assert_abort@plt>
    1d02:	50                   	push   %eax
    1d03:	68 0a 02 00 00       	push   $0x20a
    1d08:	68 cd 59 00 00       	push   $0x59cd
    1d0d:	68 e9 59 00 00       	push   $0x59e9
    1d12:	e8 39 43 00 00       	call   6050 <assert_abort@plt>
    1d17:	89 f6                	mov    %esi,%esi
    1d19:	8d bc 27 00 00 00 00 	lea    0x0(%edi,%eiz,1),%edi

00001d20 <cdfs_has_children>:
    1d20:	55                   	push   %ebp
    1d21:	89 e5                	mov    %esp,%ebp
    1d23:	53                   	push   %ebx
    1d24:	51                   	push   %ecx
    1d25:	8b 55 0c             	mov    0xc(%ebp),%edx
    1d28:	85 d2                	test   %edx,%edx
    1d2a:	74 1c                	je     1d48 <cdfs_has_children+0x28>
    1d2c:	8b 5a 10             	mov    0x10(%edx),%ebx
    1d2f:	83 7b 14 02          	cmpl   $0x2,0x14(%ebx)
    1d33:	74 1b                	je     1d50 <cdfs_has_children+0x30>
    1d35:	8d 43 20             	lea    0x20(%ebx),%eax
    1d38:	39 43 24             	cmp    %eax,0x24(%ebx)
    1d3b:	8b 45 08             	mov    0x8(%ebp),%eax
    1d3e:	0f 95 00             	setne  (%eax)
    1d41:	31 c0                	xor    %eax,%eax
    1d43:	5a                   	pop    %edx
    1d44:	5b                   	pop    %ebx
    1d45:	5d                   	pop    %ebp
    1d46:	c3                   	ret    
    1d47:	90                   	nop
    1d48:	a1 14 00 00 00       	mov    0x14,%eax
    1d4d:	0f 0b                	ud2    
    1d4f:	90                   	nop
    1d50:	80 7b 2c 00          	cmpb   $0x0,0x2c(%ebx)
    1d54:	75 df                	jne    1d35 <cdfs_has_children+0x15>
    1d56:	8b 43 08             	mov    0x8(%ebx),%eax
    1d59:	e8 b2 fb ff ff       	call   1910 <cdfs_readdir>
    1d5e:	eb d5                	jmp    1d35 <cdfs_has_children+0x15>

00001d60 <cdfs_node_open>:
    1d60:	55                   	push   %ebp
    1d61:	89 e5                	mov    %esp,%ebp
    1d63:	53                   	push   %ebx
    1d64:	51                   	push   %ecx
    1d65:	8b 55 08             	mov    0x8(%ebp),%edx
    1d68:	85 d2                	test   %edx,%edx
    1d6a:	74 24                	je     1d90 <cdfs_node_open+0x30>
    1d6c:	8b 5a 10             	mov    0x10(%edx),%ebx
    1d6f:	80 7b 2c 00          	cmpb   $0x0,0x2c(%ebx)
    1d73:	75 08                	jne    1d7d <cdfs_node_open+0x1d>
    1d75:	8b 43 08             	mov    0x8(%ebx),%eax
    1d78:	e8 93 fb ff ff       	call   1910 <cdfs_readdir>
    1d7d:	8b 43 30             	mov    0x30(%ebx),%eax
    1d80:	40                   	inc    %eax
    1d81:	89 43 30             	mov    %eax,0x30(%ebx)
    1d84:	31 c0                	xor    %eax,%eax
    1d86:	5a                   	pop    %edx
    1d87:	5b                   	pop    %ebx
    1d88:	5d                   	pop    %ebp
    1d89:	c3                   	ret    
    1d8a:	8d b6 00 00 00 00    	lea    0x0(%esi),%esi
    1d90:	a0 2c 00 00 00       	mov    0x2c,%al
    1d95:	0f 0b                	ud2    
    1d97:	89 f6                	mov    %esi,%esi
    1d99:	8d bc 27 00 00 00 00 	lea    0x0(%edi,%eiz,1),%edi

00001da0 <cdfs_read>:
    1da0:	55                   	push   %ebp
    1da1:	89 e5                	mov    %esp,%ebp
    1da3:	57                   	push   %edi
    1da4:	56                   	push   %esi
    1da5:	53                   	push   %ebx
    1da6:	83 ec 44             	sub    $0x44,%esp
    1da9:	8b 45 10             	mov    0x10(%ebp),%eax
    1dac:	8b 55 14             	mov    0x14(%ebp),%edx
    1daf:	89 45 c0             	mov    %eax,-0x40(%ebp)
    1db2:	8b 45 08             	mov    0x8(%ebp),%eax
    1db5:	89 45 e0             	mov    %eax,-0x20(%ebp)
    1db8:	8b 45 0c             	mov    0xc(%ebp),%eax
    1dbb:	89 45 e4             	mov    %eax,-0x1c(%ebp)
    1dbe:	8d 45 e0             	lea    -0x20(%ebp),%eax
    1dc1:	50                   	push   %eax
    1dc2:	89 55 c4             	mov    %edx,-0x3c(%ebp)
    1dc5:	68 e0 80 00 00       	push   $0x80e0
    1dca:	e8 11 44 00 00       	call   61e0 <hash_table_find@plt>
    1dcf:	83 c4 10             	add    $0x10,%esp
    1dd2:	85 c0                	test   %eax,%eax
    1dd4:	0f 84 86 00 00 00    	je     1e60 <cdfs_read+0xc0>
    1dda:	8d 58 f4             	lea    -0xc(%eax),%ebx
    1ddd:	80 7b 2c 00          	cmpb   $0x0,0x2c(%ebx)
    1de1:	75 14                	jne    1df7 <cdfs_read+0x57>
    1de3:	8b 50 f4             	mov    -0xc(%eax),%edx
    1de6:	8b 43 08             	mov    0x8(%ebx),%eax
    1de9:	e8 22 fb ff ff       	call   1910 <cdfs_readdir>
    1dee:	ba 01 00 00 00       	mov    $0x1,%edx
    1df3:	84 c0                	test   %al,%al
    1df5:	75 6c                	jne    1e63 <cdfs_read+0xc3>
    1df7:	8d 45 d8             	lea    -0x28(%ebp),%eax
    1dfa:	51                   	push   %ecx
    1dfb:	51                   	push   %ecx
    1dfc:	50                   	push   %eax
    1dfd:	8d 45 d4             	lea    -0x2c(%ebp),%eax
    1e00:	50                   	push   %eax
    1e01:	e8 2a 43 00 00       	call   6130 <async_data_read_receive@plt>
    1e06:	83 c4 10             	add    $0x10,%esp
    1e09:	84 c0                	test   %al,%al
    1e0b:	0f 84 a6 01 00 00    	je     1fb7 <cdfs_read+0x217>
    1e11:	83 7b 14 01          	cmpl   $0x1,0x14(%ebx)
    1e15:	0f 84 8d 00 00 00    	je     1ea8 <cdfs_read+0x108>
    1e1b:	8b 7b 24             	mov    0x24(%ebx),%edi
    1e1e:	83 c3 20             	add    $0x20,%ebx
    1e21:	8b 75 c0             	mov    -0x40(%ebp),%esi
    1e24:	39 fb                	cmp    %edi,%ebx
    1e26:	74 28                	je     1e50 <cdfs_read+0xb0>
    1e28:	85 ff                	test   %edi,%edi
    1e2a:	74 24                	je     1e50 <cdfs_read+0xb0>
    1e2c:	85 f6                	test   %esi,%esi
    1e2e:	74 40                	je     1e70 <cdfs_read+0xd0>
    1e30:	8b 7f 04             	mov    0x4(%edi),%edi
    1e33:	b8 01 00 00 00       	mov    $0x1,%eax
    1e38:	39 fb                	cmp    %edi,%ebx
    1e3a:	74 14                	je     1e50 <cdfs_read+0xb0>
    1e3c:	8d 74 26 00          	lea    0x0(%esi,%eiz,1),%esi
    1e40:	85 ff                	test   %edi,%edi
    1e42:	74 0c                	je     1e50 <cdfs_read+0xb0>
    1e44:	39 c6                	cmp    %eax,%esi
    1e46:	74 28                	je     1e70 <cdfs_read+0xd0>
    1e48:	8b 7f 04             	mov    0x4(%edi),%edi
    1e4b:	40                   	inc    %eax
    1e4c:	39 fb                	cmp    %edi,%ebx
    1e4e:	75 f0                	jne    1e40 <cdfs_read+0xa0>
    1e50:	8b 75 d4             	mov    -0x2c(%ebp),%esi
    1e53:	53                   	push   %ebx
    1e54:	53                   	push   %ebx
    1e55:	6a ff                	push   $0xffffffff
    1e57:	56                   	push   %esi
    1e58:	e8 43 41 00 00       	call   5fa0 <async_answer_0@plt>
    1e5d:	83 c4 10             	add    $0x10,%esp
    1e60:	83 ca ff             	or     $0xffffffff,%edx
    1e63:	8d 65 f4             	lea    -0xc(%ebp),%esp
    1e66:	89 d0                	mov    %edx,%eax
    1e68:	5b                   	pop    %ebx
    1e69:	5e                   	pop    %esi
    1e6a:	5f                   	pop    %edi
    1e6b:	5d                   	pop    %ebp
    1e6c:	c3                   	ret    
    1e6d:	8d 76 00             	lea    0x0(%esi),%esi
    1e70:	8b 45 18             	mov    0x18(%ebp),%eax
    1e73:	83 ec 0c             	sub    $0xc,%esp
    1e76:	c7 00 01 00 00 00    	movl   $0x1,(%eax)
    1e7c:	8b 47 0c             	mov    0xc(%edi),%eax
    1e7f:	50                   	push   %eax
    1e80:	e8 eb 42 00 00       	call   6170 <str_size@plt>
    1e85:	83 c4 0c             	add    $0xc,%esp
    1e88:	8b 57 0c             	mov    0xc(%edi),%edx
    1e8b:	8b 4d d4             	mov    -0x2c(%ebp),%ecx
    1e8e:	40                   	inc    %eax
    1e8f:	50                   	push   %eax
    1e90:	52                   	push   %edx
    1e91:	51                   	push   %ecx
    1e92:	e8 89 40 00 00       	call   5f20 <async_data_read_finalize@plt>
    1e97:	83 c4 10             	add    $0x10,%esp
    1e9a:	8d 65 f4             	lea    -0xc(%ebp),%esp
    1e9d:	31 d2                	xor    %edx,%edx
    1e9f:	5b                   	pop    %ebx
    1ea0:	89 d0                	mov    %edx,%eax
    1ea2:	5e                   	pop    %esi
    1ea3:	5f                   	pop    %edi
    1ea4:	5d                   	pop    %ebp
    1ea5:	c3                   	ret    
    1ea6:	66 90                	xchg   %ax,%ax
    1ea8:	31 d2                	xor    %edx,%edx
    1eaa:	8b 7d c4             	mov    -0x3c(%ebp),%edi
    1ead:	8b 43 1c             	mov    0x1c(%ebx),%eax
    1eb0:	8b 75 c0             	mov    -0x40(%ebp),%esi
    1eb3:	39 fa                	cmp    %edi,%edx
    1eb5:	77 0e                	ja     1ec5 <cdfs_read+0x125>
    1eb7:	0f 82 9b 00 00 00    	jb     1f58 <cdfs_read+0x1b8>
    1ebd:	39 f0                	cmp    %esi,%eax
    1ebf:	0f 86 93 00 00 00    	jbe    1f58 <cdfs_read+0x1b8>
    1ec5:	8b 45 c0             	mov    -0x40(%ebp),%eax
    1ec8:	b9 00 08 00 00       	mov    $0x800,%ecx
    1ecd:	25 ff 07 00 00       	and    $0x7ff,%eax
    1ed2:	89 c2                	mov    %eax,%edx
    1ed4:	89 45 bc             	mov    %eax,-0x44(%ebp)
    1ed7:	29 d1                	sub    %edx,%ecx
    1ed9:	8b 45 d8             	mov    -0x28(%ebp),%eax
    1edc:	39 c1                	cmp    %eax,%ecx
    1ede:	76 02                	jbe    1ee2 <cdfs_read+0x142>
    1ee0:	89 c1                	mov    %eax,%ecx
    1ee2:	8b 45 18             	mov    0x18(%ebp),%eax
    1ee5:	31 d2                	xor    %edx,%edx
    1ee7:	89 ce                	mov    %ecx,%esi
    1ee9:	89 08                	mov    %ecx,(%eax)
    1eeb:	8b 43 1c             	mov    0x1c(%ebx),%eax
    1eee:	2b 45 c0             	sub    -0x40(%ebp),%eax
    1ef1:	1b 55 c4             	sbb    -0x3c(%ebp),%edx
    1ef4:	89 d1                	mov    %edx,%ecx
    1ef6:	83 f9 00             	cmp    $0x0,%ecx
    1ef9:	0f 87 b1 00 00 00    	ja     1fb0 <cdfs_read+0x210>
    1eff:	39 f0                	cmp    %esi,%eax
    1f01:	0f 87 a9 00 00 00    	ja     1fb0 <cdfs_read+0x210>
    1f07:	83 ec 0c             	sub    $0xc,%esp
    1f0a:	8b 4d 18             	mov    0x18(%ebp),%ecx
    1f0d:	8b 7d c4             	mov    -0x3c(%ebp),%edi
    1f10:	8b 75 c0             	mov    -0x40(%ebp),%esi
    1f13:	89 01                	mov    %eax,(%ecx)
    1f15:	6a 00                	push   $0x0
    1f17:	8b 43 28             	mov    0x28(%ebx),%eax
    1f1a:	0f ac fe 0b          	shrd   $0xb,%edi,%esi
    1f1e:	01 c6                	add    %eax,%esi
    1f20:	31 ff                	xor    %edi,%edi
    1f22:	8b 45 08             	mov    0x8(%ebp),%eax
    1f25:	57                   	push   %edi
    1f26:	56                   	push   %esi
    1f27:	50                   	push   %eax
    1f28:	8d 45 dc             	lea    -0x24(%ebp),%eax
    1f2b:	50                   	push   %eax
    1f2c:	e8 bf 16 00 00       	call   35f0 <block_get>
    1f31:	83 c4 20             	add    $0x20,%esp
    1f34:	85 c0                	test   %eax,%eax
    1f36:	74 48                	je     1f80 <cdfs_read+0x1e0>
    1f38:	89 45 c0             	mov    %eax,-0x40(%ebp)
    1f3b:	57                   	push   %edi
    1f3c:	57                   	push   %edi
    1f3d:	50                   	push   %eax
    1f3e:	8b 45 d4             	mov    -0x2c(%ebp),%eax
    1f41:	50                   	push   %eax
    1f42:	e8 59 40 00 00       	call   5fa0 <async_answer_0@plt>
    1f47:	83 c4 10             	add    $0x10,%esp
    1f4a:	8b 55 c0             	mov    -0x40(%ebp),%edx
    1f4d:	e9 11 ff ff ff       	jmp    1e63 <cdfs_read+0xc3>
    1f52:	8d b6 00 00 00 00    	lea    0x0(%esi),%esi
    1f58:	8b 45 18             	mov    0x18(%ebp),%eax
    1f5b:	c7 00 00 00 00 00    	movl   $0x0,(%eax)
    1f61:	50                   	push   %eax
    1f62:	8b 45 d4             	mov    -0x2c(%ebp),%eax
    1f65:	6a 00                	push   $0x0
    1f67:	6a 00                	push   $0x0
    1f69:	50                   	push   %eax
    1f6a:	e8 b1 3f 00 00       	call   5f20 <async_data_read_finalize@plt>
    1f6f:	83 c4 10             	add    $0x10,%esp
    1f72:	31 d2                	xor    %edx,%edx
    1f74:	e9 ea fe ff ff       	jmp    1e63 <cdfs_read+0xc3>
    1f79:	8d b4 26 00 00 00 00 	lea    0x0(%esi,%eiz,1),%esi
    1f80:	8b 45 18             	mov    0x18(%ebp),%eax
    1f83:	57                   	push   %edi
    1f84:	8b 4d bc             	mov    -0x44(%ebp),%ecx
    1f87:	8b 00                	mov    (%eax),%eax
    1f89:	50                   	push   %eax
    1f8a:	8b 45 dc             	mov    -0x24(%ebp),%eax
    1f8d:	8b 50 58             	mov    0x58(%eax),%edx
    1f90:	01 d1                	add    %edx,%ecx
    1f92:	51                   	push   %ecx
    1f93:	8b 4d d4             	mov    -0x2c(%ebp),%ecx
    1f96:	51                   	push   %ecx
    1f97:	e8 84 3f 00 00       	call   5f20 <async_data_read_finalize@plt>
    1f9c:	8b 75 dc             	mov    -0x24(%ebp),%esi
    1f9f:	5b                   	pop    %ebx
    1fa0:	56                   	push   %esi
    1fa1:	e8 4a 13 00 00       	call   32f0 <block_put>
    1fa6:	83 c4 10             	add    $0x10,%esp
    1fa9:	89 c2                	mov    %eax,%edx
    1fab:	e9 b3 fe ff ff       	jmp    1e63 <cdfs_read+0xc3>
    1fb0:	89 f0                	mov    %esi,%eax
    1fb2:	e9 50 ff ff ff       	jmp    1f07 <cdfs_read+0x167>
    1fb7:	8b 55 d4             	mov    -0x2c(%ebp),%edx
    1fba:	50                   	push   %eax
    1fbb:	50                   	push   %eax
    1fbc:	6a f2                	push   $0xfffffff2
    1fbe:	52                   	push   %edx
    1fbf:	e8 dc 3f 00 00       	call   5fa0 <async_answer_0@plt>
    1fc4:	83 c4 10             	add    $0x10,%esp
    1fc7:	ba f2 ff ff ff       	mov    $0xfffffff2,%edx
    1fcc:	e9 92 fe ff ff       	jmp    1e63 <cdfs_read+0xc3>
    1fd1:	eb 0d                	jmp    1fe0 <cdfs_match>
    1fd3:	90                   	nop
    1fd4:	90                   	nop
    1fd5:	90                   	nop
    1fd6:	90                   	nop
    1fd7:	90                   	nop
    1fd8:	90                   	nop
    1fd9:	90                   	nop
    1fda:	90                   	nop
    1fdb:	90                   	nop
    1fdc:	90                   	nop
    1fdd:	90                   	nop
    1fde:	90                   	nop
    1fdf:	90                   	nop

00001fe0 <cdfs_match>:
    1fe0:	55                   	push   %ebp
    1fe1:	89 e5                	mov    %esp,%ebp
    1fe3:	57                   	push   %edi
    1fe4:	56                   	push   %esi
    1fe5:	53                   	push   %ebx
    1fe6:	83 ec 2c             	sub    $0x2c,%esp
    1fe9:	8b 55 0c             	mov    0xc(%ebp),%edx
    1fec:	8b 75 10             	mov    0x10(%ebp),%esi
    1fef:	85 d2                	test   %edx,%edx
    1ff1:	0f 84 81 00 00 00    	je     2078 <cdfs_match+0x98>
    1ff7:	8b 42 10             	mov    0x10(%edx),%eax
    1ffa:	89 45 d4             	mov    %eax,-0x2c(%ebp)
    1ffd:	80 78 2c 00          	cmpb   $0x0,0x2c(%eax)
    2001:	0f 84 91 00 00 00    	je     2098 <cdfs_match+0xb8>
    2007:	8b 45 d4             	mov    -0x2c(%ebp),%eax
    200a:	83 c0 20             	add    $0x20,%eax
    200d:	8b 58 04             	mov    0x4(%eax),%ebx
    2010:	89 c7                	mov    %eax,%edi
    2012:	39 c3                	cmp    %eax,%ebx
    2014:	75 09                	jne    201f <cdfs_match+0x3f>
    2016:	eb 68                	jmp    2080 <cdfs_match+0xa0>
    2018:	8b 5b 04             	mov    0x4(%ebx),%ebx
    201b:	39 fb                	cmp    %edi,%ebx
    201d:	74 61                	je     2080 <cdfs_match+0xa0>
    201f:	50                   	push   %eax
    2020:	50                   	push   %eax
    2021:	56                   	push   %esi
    2022:	8b 43 0c             	mov    0xc(%ebx),%eax
    2025:	50                   	push   %eax
    2026:	e8 d5 40 00 00       	call   6100 <str_cmp@plt>
    202b:	83 c4 10             	add    $0x10,%esp
    202e:	85 c0                	test   %eax,%eax
    2030:	75 e6                	jne    2018 <cdfs_match+0x38>
    2032:	89 c7                	mov    %eax,%edi
    2034:	8b 45 d4             	mov    -0x2c(%ebp),%eax
    2037:	8b 73 08             	mov    0x8(%ebx),%esi
    203a:	8b 58 08             	mov    0x8(%eax),%ebx
    203d:	89 75 e4             	mov    %esi,-0x1c(%ebp)
    2040:	8b 43 08             	mov    0x8(%ebx),%eax
    2043:	89 45 e0             	mov    %eax,-0x20(%ebp)
    2046:	50                   	push   %eax
    2047:	50                   	push   %eax
    2048:	8d 45 e0             	lea    -0x20(%ebp),%eax
    204b:	50                   	push   %eax
    204c:	68 e0 80 00 00       	push   $0x80e0
    2051:	e8 8a 41 00 00       	call   61e0 <hash_table_find@plt>
    2056:	83 c4 10             	add    $0x10,%esp
    2059:	85 c0                	test   %eax,%eax
    205b:	74 5a                	je     20b7 <cdfs_match+0xd7>
    205d:	83 f8 0c             	cmp    $0xc,%eax
    2060:	0f 84 ef 00 00 00    	je     2155 <cdfs_match+0x175>
    2066:	8b 40 f4             	mov    -0xc(%eax),%eax
    2069:	8b 4d 08             	mov    0x8(%ebp),%ecx
    206c:	89 01                	mov    %eax,(%ecx)
    206e:	8d 65 f4             	lea    -0xc(%ebp),%esp
    2071:	89 f8                	mov    %edi,%eax
    2073:	5b                   	pop    %ebx
    2074:	5e                   	pop    %esi
    2075:	5f                   	pop    %edi
    2076:	5d                   	pop    %ebp
    2077:	c3                   	ret    
    2078:	a0 2c 00 00 00       	mov    0x2c,%al
    207d:	0f 0b                	ud2    
    207f:	90                   	nop
    2080:	8b 45 08             	mov    0x8(%ebp),%eax
    2083:	31 ff                	xor    %edi,%edi
    2085:	c7 00 00 00 00 00    	movl   $0x0,(%eax)
    208b:	8d 65 f4             	lea    -0xc(%ebp),%esp
    208e:	89 f8                	mov    %edi,%eax
    2090:	5b                   	pop    %ebx
    2091:	5e                   	pop    %esi
    2092:	5f                   	pop    %edi
    2093:	5d                   	pop    %ebp
    2094:	c3                   	ret    
    2095:	8d 76 00             	lea    0x0(%esi),%esi
    2098:	8b 40 08             	mov    0x8(%eax),%eax
    209b:	bf 01 00 00 00       	mov    $0x1,%edi
    20a0:	e8 6b f8 ff ff       	call   1910 <cdfs_readdir>
    20a5:	84 c0                	test   %al,%al
    20a7:	0f 84 5a ff ff ff    	je     2007 <cdfs_match+0x27>
    20ad:	8d 65 f4             	lea    -0xc(%ebp),%esp
    20b0:	89 f8                	mov    %edi,%eax
    20b2:	5b                   	pop    %ebx
    20b3:	5e                   	pop    %esi
    20b4:	5f                   	pop    %edi
    20b5:	5d                   	pop    %ebp
    20b6:	c3                   	ret    
    20b7:	89 f0                	mov    %esi,%eax
    20b9:	83 ec 0c             	sub    $0xc,%esp
    20bc:	25 ff 07 00 00       	and    $0x7ff,%eax
    20c1:	31 d2                	xor    %edx,%edx
    20c3:	89 45 d4             	mov    %eax,-0x2c(%ebp)
    20c6:	89 f0                	mov    %esi,%eax
    20c8:	c1 e8 0b             	shr    $0xb,%eax
    20cb:	6a 00                	push   $0x0
    20cd:	8b 4b 08             	mov    0x8(%ebx),%ecx
    20d0:	52                   	push   %edx
    20d1:	50                   	push   %eax
    20d2:	8d 45 d8             	lea    -0x28(%ebp),%eax
    20d5:	51                   	push   %ecx
    20d6:	50                   	push   %eax
    20d7:	e8 14 15 00 00       	call   35f0 <block_get>
    20dc:	83 c4 20             	add    $0x20,%esp
    20df:	85 c0                	test   %eax,%eax
    20e1:	75 72                	jne    2155 <cdfs_match+0x175>
    20e3:	8b 45 d8             	mov    -0x28(%ebp),%eax
    20e6:	8b 4d d4             	mov    -0x2c(%ebp),%ecx
    20e9:	8b 50 58             	mov    0x58(%eax),%edx
    20ec:	01 d1                	add    %edx,%ecx
    20ee:	89 da                	mov    %ebx,%edx
    20f0:	89 4d d4             	mov    %ecx,-0x2c(%ebp)
    20f3:	8a 41 19             	mov    0x19(%ecx),%al
    20f6:	83 e0 02             	and    $0x2,%eax
    20f9:	3c 01                	cmp    $0x1,%al
    20fb:	19 c9                	sbb    %ecx,%ecx
    20fd:	83 ec 0c             	sub    $0xc,%esp
    2100:	83 c1 02             	add    $0x2,%ecx
    2103:	56                   	push   %esi
    2104:	8d 75 dc             	lea    -0x24(%ebp),%esi
    2107:	89 f0                	mov    %esi,%eax
    2109:	89 4d d0             	mov    %ecx,-0x30(%ebp)
    210c:	e8 af f6 ff ff       	call   17c0 <create_node>
    2111:	83 c4 10             	add    $0x10,%esp
    2114:	85 c0                	test   %eax,%eax
    2116:	75 3d                	jne    2155 <cdfs_match+0x175>
    2118:	8b 45 dc             	mov    -0x24(%ebp),%eax
    211b:	85 c0                	test   %eax,%eax
    211d:	74 36                	je     2155 <cdfs_match+0x175>
    211f:	8b 4d d4             	mov    -0x2c(%ebp),%ecx
    2122:	8b 40 10             	mov    0x10(%eax),%eax
    2125:	83 7d d0 01          	cmpl   $0x1,-0x30(%ebp)
    2129:	8b 51 02             	mov    0x2(%ecx),%edx
    212c:	89 50 28             	mov    %edx,0x28(%eax)
    212f:	8b 51 0a             	mov    0xa(%ecx),%edx
    2132:	89 50 1c             	mov    %edx,0x1c(%eax)
    2135:	c7 40 18 01 00 00 00 	movl   $0x1,0x18(%eax)
    213c:	74 1e                	je     215c <cdfs_match+0x17c>
    213e:	83 ec 0c             	sub    $0xc,%esp
    2141:	8b 45 d8             	mov    -0x28(%ebp),%eax
    2144:	50                   	push   %eax
    2145:	e8 a6 11 00 00       	call   32f0 <block_put>
    214a:	8b 45 dc             	mov    -0x24(%ebp),%eax
    214d:	83 c4 10             	add    $0x10,%esp
    2150:	e9 14 ff ff ff       	jmp    2069 <cdfs_match+0x89>
    2155:	31 c0                	xor    %eax,%eax
    2157:	e9 0d ff ff ff       	jmp    2069 <cdfs_match+0x89>
    215c:	c6 40 2c 01          	movb   $0x1,0x2c(%eax)
    2160:	eb dc                	jmp    213e <cdfs_match+0x15e>
    2162:	8d b4 26 00 00 00 00 	lea    0x0(%esi,%eiz,1),%esi
    2169:	8d bc 27 00 00 00 00 	lea    0x0(%edi,%eiz,1),%edi

00002170 <cdfs_mounted>:
    2170:	55                   	push   %ebp
    2171:	89 e5                	mov    %esp,%ebp
    2173:	57                   	push   %edi
    2174:	56                   	push   %esi
    2175:	53                   	push   %ebx
    2176:	83 ec 54             	sub    $0x54,%esp
    2179:	8b 75 08             	mov    0x8(%ebp),%esi
    217c:	68 00 08 00 00       	push   $0x800
    2181:	56                   	push   %esi
    2182:	e8 b9 09 00 00       	call   2b40 <block_init>
    2187:	83 c4 10             	add    $0x10,%esp
    218a:	89 c3                	mov    %eax,%ebx
    218c:	85 c0                	test   %eax,%eax
    218e:	74 10                	je     21a0 <cdfs_mounted+0x30>
    2190:	8d 65 f4             	lea    -0xc(%ebp),%esp
    2193:	89 d8                	mov    %ebx,%eax
    2195:	5b                   	pop    %ebx
    2196:	5e                   	pop    %esi
    2197:	5f                   	pop    %edi
    2198:	5d                   	pop    %ebp
    2199:	c3                   	ret    
    219a:	8d b6 00 00 00 00    	lea    0x0(%esi),%esi
    21a0:	8b 7d 0c             	mov    0xc(%ebp),%edi
    21a3:	c7 45 d0 00 00 00 00 	movl   $0x0,-0x30(%ebp)
    21aa:	53                   	push   %ebx
    21ab:	6a 08                	push   $0x8
    21ad:	68 f4 59 00 00       	push   $0x59f4
    21b2:	57                   	push   %edi
    21b3:	e8 c8 3f 00 00       	call   6180 <str_lcmp@plt>
    21b8:	83 c4 10             	add    $0x10,%esp
    21bb:	85 c0                	test   %eax,%eax
    21bd:	0f 84 45 01 00 00    	je     2308 <cdfs_mounted+0x198>
    21c3:	8d 45 dc             	lea    -0x24(%ebp),%eax
    21c6:	6a 0c                	push   $0xc
    21c8:	50                   	push   %eax
    21c9:	6a 01                	push   $0x1
    21cb:	56                   	push   %esi
    21cc:	e8 1f 21 00 00       	call   42f0 <block_read_toc>
    21d1:	83 c4 10             	add    $0x10,%esp
    21d4:	85 c0                	test   %eax,%eax
    21d6:	75 10                	jne    21e8 <cdfs_mounted+0x78>
    21d8:	66 81 7d dc 00 0a    	cmpw   $0xa00,-0x24(%ebp)
    21de:	0f 84 9c 01 00 00    	je     2380 <cdfs_mounted+0x210>
    21e4:	8d 74 26 00          	lea    0x0(%esi,%eiz,1),%esi
    21e8:	6a 00                	push   $0x0
    21ea:	6a 00                	push   $0x0
    21ec:	68 00 08 00 00       	push   $0x800
    21f1:	56                   	push   %esi
    21f2:	e8 e9 0c 00 00       	call   2ee0 <block_cache_init>
    21f7:	83 c4 10             	add    $0x10,%esp
    21fa:	89 c3                	mov    %eax,%ebx
    21fc:	85 c0                	test   %eax,%eax
    21fe:	0f 85 34 01 00 00    	jne    2338 <cdfs_mounted+0x1c8>
    2204:	8d 45 dc             	lea    -0x24(%ebp),%eax
    2207:	89 75 dc             	mov    %esi,-0x24(%ebp)
    220a:	51                   	push   %ecx
    220b:	c7 45 e0 00 00 00 00 	movl   $0x0,-0x20(%ebp)
    2212:	51                   	push   %ecx
    2213:	50                   	push   %eax
    2214:	68 e0 80 00 00       	push   $0x80e0
    2219:	e8 c2 3f 00 00       	call   61e0 <hash_table_find@plt>
    221e:	83 c4 10             	add    $0x10,%esp
    2221:	85 c0                	test   %eax,%eax
    2223:	74 10                	je     2235 <cdfs_mounted+0xc5>
    2225:	83 f8 0c             	cmp    $0xc,%eax
    2228:	74 0b                	je     2235 <cdfs_mounted+0xc5>
    222a:	8b 50 f4             	mov    -0xc(%eax),%edx
    222d:	85 d2                	test   %edx,%edx
    222f:	0f 85 5b 01 00 00    	jne    2390 <cdfs_mounted+0x220>
    2235:	8b 45 d0             	mov    -0x30(%ebp),%eax
    2238:	c7 45 d4 00 00 00 00 	movl   $0x0,-0x2c(%ebp)
    223f:	89 c3                	mov    %eax,%ebx
    2241:	89 45 c4             	mov    %eax,-0x3c(%ebp)
    2244:	50                   	push   %eax
    2245:	50                   	push   %eax
    2246:	6a 10                	push   $0x10
    2248:	6a 01                	push   $0x1
    224a:	e8 11 3e 00 00       	call   6060 <calloc@plt>
    224f:	83 c4 10             	add    $0x10,%esp
    2252:	89 c7                	mov    %eax,%edi
    2254:	85 c0                	test   %eax,%eax
    2256:	0f 84 86 00 00 00    	je     22e2 <cdfs_mounted+0x172>
    225c:	89 70 08             	mov    %esi,0x8(%eax)
    225f:	a1 60 7f 00 00       	mov    0x7f60,%eax
    2264:	83 ec 0c             	sub    $0xc,%esp
    2267:	b9 02 00 00 00       	mov    $0x2,%ecx
    226c:	8d 50 01             	lea    0x1(%eax),%edx
    226f:	50                   	push   %eax
    2270:	89 15 60 7f 00 00    	mov    %edx,0x7f60
    2276:	8d 45 d4             	lea    -0x2c(%ebp),%eax
    2279:	89 fa                	mov    %edi,%edx
    227b:	e8 40 f5 ff ff       	call   17c0 <create_node>
    2280:	83 c4 10             	add    $0x10,%esp
    2283:	85 c0                	test   %eax,%eax
    2285:	75 5b                	jne    22e2 <cdfs_mounted+0x172>
    2287:	8b 45 d4             	mov    -0x2c(%ebp),%eax
    228a:	89 45 c0             	mov    %eax,-0x40(%ebp)
    228d:	85 c0                	test   %eax,%eax
    228f:	74 51                	je     22e2 <cdfs_mounted+0x172>
    2291:	8b 40 10             	mov    0x10(%eax),%eax
    2294:	83 ec 0c             	sub    $0xc,%esp
    2297:	31 d2                	xor    %edx,%edx
    2299:	c7 40 18 00 00 00 00 	movl   $0x0,0x18(%eax)
    22a0:	c7 40 28 00 00 00 00 	movl   $0x0,0x28(%eax)
    22a7:	c6 40 2c 00          	movb   $0x0,0x2c(%eax)
    22ab:	89 d8                	mov    %ebx,%eax
    22ad:	6a 00                	push   $0x0
    22af:	83 c0 10             	add    $0x10,%eax
    22b2:	52                   	push   %edx
    22b3:	50                   	push   %eax
    22b4:	8b 47 08             	mov    0x8(%edi),%eax
    22b7:	50                   	push   %eax
    22b8:	8d 45 d8             	lea    -0x28(%ebp),%eax
    22bb:	50                   	push   %eax
    22bc:	e8 2f 13 00 00       	call   35f0 <block_get>
    22c1:	83 c4 20             	add    $0x20,%esp
    22c4:	85 c0                	test   %eax,%eax
    22c6:	75 1a                	jne    22e2 <cdfs_mounted+0x172>
    22c8:	8b 45 d8             	mov    -0x28(%ebp),%eax
    22cb:	8b 48 58             	mov    0x58(%eax),%ecx
    22ce:	89 4d bc             	mov    %ecx,-0x44(%ebp)
    22d1:	80 39 01             	cmpb   $0x1,(%ecx)
    22d4:	74 7a                	je     2350 <cdfs_mounted+0x1e0>
    22d6:	83 ec 0c             	sub    $0xc,%esp
    22d9:	50                   	push   %eax
    22da:	e8 11 10 00 00       	call   32f0 <block_put>
    22df:	83 c4 10             	add    $0x10,%esp
    22e2:	83 ec 0c             	sub    $0xc,%esp
    22e5:	bb fe ff ff ff       	mov    $0xfffffffe,%ebx
    22ea:	57                   	push   %edi
    22eb:	e8 70 3f 00 00       	call   6260 <free@plt>
    22f0:	89 34 24             	mov    %esi,(%esp)
    22f3:	e8 28 0d 00 00       	call   3020 <block_cache_fini>
    22f8:	89 34 24             	mov    %esi,(%esp)
    22fb:	e8 d0 0e 00 00       	call   31d0 <block_fini>
    2300:	83 c4 10             	add    $0x10,%esp
    2303:	e9 88 fe ff ff       	jmp    2190 <cdfs_mounted+0x20>
    2308:	83 ec 0c             	sub    $0xc,%esp
    230b:	8d 45 d0             	lea    -0x30(%ebp),%eax
    230e:	50                   	push   %eax
    230f:	8b 45 0c             	mov    0xc(%ebp),%eax
    2312:	83 c0 08             	add    $0x8,%eax
    2315:	6a 00                	push   $0x0
    2317:	6a 00                	push   $0x0
    2319:	6a 00                	push   $0x0
    231b:	50                   	push   %eax
    231c:	e8 7f 3b 00 00       	call   5ea0 <str_uint32_t@plt>
    2321:	83 c4 20             	add    $0x20,%esp
    2324:	85 c0                	test   %eax,%eax
    2326:	0f 84 bc fe ff ff    	je     21e8 <cdfs_mounted+0x78>
    232c:	c7 45 d0 00 00 00 00 	movl   $0x0,-0x30(%ebp)
    2333:	e9 b0 fe ff ff       	jmp    21e8 <cdfs_mounted+0x78>
    2338:	83 ec 0c             	sub    $0xc,%esp
    233b:	56                   	push   %esi
    233c:	e8 8f 0e 00 00       	call   31d0 <block_fini>
    2341:	83 c4 10             	add    $0x10,%esp
    2344:	8d 65 f4             	lea    -0xc(%ebp),%esp
    2347:	89 d8                	mov    %ebx,%eax
    2349:	5b                   	pop    %ebx
    234a:	5e                   	pop    %esi
    234b:	5f                   	pop    %edi
    234c:	5d                   	pop    %ebp
    234d:	c3                   	ret    
    234e:	66 90                	xchg   %ax,%ax
    2350:	50                   	push   %eax
    2351:	89 c8                	mov    %ecx,%eax
    2353:	40                   	inc    %eax
    2354:	6a 05                	push   $0x5
    2356:	68 fd 59 00 00       	push   $0x59fd
    235b:	50                   	push   %eax
    235c:	e8 7f 3d 00 00       	call   60e0 <memcmp@plt>
    2361:	83 c4 10             	add    $0x10,%esp
    2364:	89 c3                	mov    %eax,%ebx
    2366:	85 c0                	test   %eax,%eax
    2368:	75 09                	jne    2373 <cdfs_mounted+0x203>
    236a:	8b 45 bc             	mov    -0x44(%ebp),%eax
    236d:	80 78 06 01          	cmpb   $0x1,0x6(%eax)
    2371:	74 3b                	je     23ae <cdfs_mounted+0x23e>
    2373:	8b 45 d8             	mov    -0x28(%ebp),%eax
    2376:	e9 5b ff ff ff       	jmp    22d6 <cdfs_mounted+0x166>
    237b:	90                   	nop
    237c:	8d 74 26 00          	lea    0x0(%esi,%eiz,1),%esi
    2380:	8b 45 e4             	mov    -0x1c(%ebp),%eax
    2383:	0f c8                	bswap  %eax
    2385:	89 45 d0             	mov    %eax,-0x30(%ebp)
    2388:	e9 5b fe ff ff       	jmp    21e8 <cdfs_mounted+0x78>
    238d:	8d 76 00             	lea    0x0(%esi),%esi
    2390:	83 ec 0c             	sub    $0xc,%esp
    2393:	bb f7 ff ff ff       	mov    $0xfffffff7,%ebx
    2398:	56                   	push   %esi
    2399:	e8 82 0c 00 00       	call   3020 <block_cache_fini>
    239e:	89 34 24             	mov    %esi,(%esp)
    23a1:	e8 2a 0e 00 00       	call   31d0 <block_fini>
    23a6:	83 c4 10             	add    $0x10,%esp
    23a9:	e9 e2 fd ff ff       	jmp    2190 <cdfs_mounted+0x20>
    23ae:	66 83 78 7c 01       	cmpw   $0x1,0x7c(%eax)
    23b3:	0f 85 a2 00 00 00    	jne    245b <cdfs_mounted+0x2eb>
    23b9:	66 81 b8 80 00 00 00 	cmpw   $0x800,0x80(%eax)
    23c0:	00 08 
    23c2:	0f 85 93 00 00 00    	jne    245b <cdfs_mounted+0x2eb>
    23c8:	8b 45 c0             	mov    -0x40(%ebp),%eax
    23cb:	89 5d b0             	mov    %ebx,-0x50(%ebp)
    23ce:	89 75 08             	mov    %esi,0x8(%ebp)
    23d1:	89 7d b4             	mov    %edi,-0x4c(%ebp)
    23d4:	8b 40 10             	mov    0x10(%eax),%eax
    23d7:	89 45 b8             	mov    %eax,-0x48(%ebp)
    23da:	8b 47 08             	mov    0x8(%edi),%eax
    23dd:	89 c1                	mov    %eax,%ecx
    23df:	8b 45 c4             	mov    -0x3c(%ebp),%eax
    23e2:	83 c0 11             	add    $0x11,%eax
    23e5:	89 ce                	mov    %ecx,%esi
    23e7:	89 c3                	mov    %eax,%ebx
    23e9:	8d b4 26 00 00 00 00 	lea    0x0(%esi,%eiz,1),%esi
    23f0:	83 ec 0c             	sub    $0xc,%esp
    23f3:	31 d2                	xor    %edx,%edx
    23f5:	8d 45 dc             	lea    -0x24(%ebp),%eax
    23f8:	6a 00                	push   $0x0
    23fa:	52                   	push   %edx
    23fb:	53                   	push   %ebx
    23fc:	56                   	push   %esi
    23fd:	50                   	push   %eax
    23fe:	e8 ed 11 00 00       	call   35f0 <block_get>
    2403:	83 c4 20             	add    $0x20,%esp
    2406:	85 c0                	test   %eax,%eax
    2408:	0f 85 08 03 00 00    	jne    2716 <cdfs_mounted+0x5a6>
    240e:	8b 45 dc             	mov    -0x24(%ebp),%eax
    2411:	8b 78 58             	mov    0x58(%eax),%edi
    2414:	8a 17                	mov    (%edi),%dl
    2416:	80 fa ff             	cmp    $0xff,%dl
    2419:	0f 84 ff 03 00 00    	je     281e <cdfs_mounted+0x6ae>
    241f:	80 fa 02             	cmp    $0x2,%dl
    2422:	74 14                	je     2438 <cdfs_mounted+0x2c8>
    2424:	83 ec 0c             	sub    $0xc,%esp
    2427:	50                   	push   %eax
    2428:	e8 c3 0e 00 00       	call   32f0 <block_put>
    242d:	83 c4 10             	add    $0x10,%esp
    2430:	43                   	inc    %ebx
    2431:	eb bd                	jmp    23f0 <cdfs_mounted+0x280>
    2433:	90                   	nop
    2434:	8d 74 26 00          	lea    0x0(%esi,%eiz,1),%esi
    2438:	50                   	push   %eax
    2439:	8d 47 01             	lea    0x1(%edi),%eax
    243c:	6a 05                	push   $0x5
    243e:	68 fd 59 00 00       	push   $0x59fd
    2443:	50                   	push   %eax
    2444:	e8 97 3c 00 00       	call   60e0 <memcmp@plt>
    2449:	83 c4 10             	add    $0x10,%esp
    244c:	85 c0                	test   %eax,%eax
    244e:	75 06                	jne    2456 <cdfs_mounted+0x2e6>
    2450:	80 7f 06 01          	cmpb   $0x1,0x6(%edi)
    2454:	74 19                	je     246f <cdfs_mounted+0x2ff>
    2456:	8b 45 dc             	mov    -0x24(%ebp),%eax
    2459:	eb c9                	jmp    2424 <cdfs_mounted+0x2b4>
    245b:	83 ec 0c             	sub    $0xc,%esp
    245e:	8b 5d d8             	mov    -0x28(%ebp),%ebx
    2461:	53                   	push   %ebx
    2462:	e8 89 0e 00 00       	call   32f0 <block_put>
    2467:	83 c4 10             	add    $0x10,%esp
    246a:	e9 73 fe ff ff       	jmp    22e2 <cdfs_mounted+0x172>
    246f:	66 83 7f 7c 01       	cmpw   $0x1,0x7c(%edi)
    2474:	0f 85 be 03 00 00    	jne    2838 <cdfs_mounted+0x6c8>
    247a:	66 81 bf 80 00 00 00 	cmpw   $0x800,0x80(%edi)
    2481:	00 08 
    2483:	0f 85 af 03 00 00    	jne    2838 <cdfs_mounted+0x6c8>
    2489:	8d 47 58             	lea    0x58(%edi),%eax
    248c:	89 45 c4             	mov    %eax,-0x3c(%ebp)
    248f:	8a 47 58             	mov    0x58(%edi),%al
    2492:	84 c0                	test   %al,%al
    2494:	0f 84 6e 05 00 00    	je     2a08 <cdfs_mounted+0x898>
    249a:	8a 4f 59             	mov    0x59(%edi),%cl
    249d:	88 ca                	mov    %cl,%dl
    249f:	80 f9 2f             	cmp    $0x2f,%cl
    24a2:	0f 84 94 04 00 00    	je     293c <cdfs_mounted+0x7cc>
    24a8:	8a 4f 5a             	mov    0x5a(%edi),%cl
    24ab:	3c 25                	cmp    $0x25,%al
    24ad:	0f 95 c0             	setne  %al
    24b0:	80 fa 2f             	cmp    $0x2f,%dl
    24b3:	0f 95 45 af          	setne  -0x51(%ebp)
    24b7:	8a 55 af             	mov    -0x51(%ebp),%dl
    24ba:	09 d0                	or     %edx,%eax
    24bc:	80 f9 45             	cmp    $0x45,%cl
    24bf:	0f 85 6b ff ff ff    	jne    2430 <cdfs_mounted+0x2c0>
    24c5:	84 c0                	test   %al,%al
    24c7:	0f 85 63 ff ff ff    	jne    2430 <cdfs_mounted+0x2c0>
    24cd:	8a 47 5b             	mov    0x5b(%edi),%al
    24d0:	84 c0                	test   %al,%al
    24d2:	0f 84 47 05 00 00    	je     2a1f <cdfs_mounted+0x8af>
    24d8:	8a 4f 5c             	mov    0x5c(%edi),%cl
    24db:	88 ca                	mov    %cl,%dl
    24dd:	80 f9 2f             	cmp    $0x2f,%cl
    24e0:	0f 84 a4 04 00 00    	je     298a <cdfs_mounted+0x81a>
    24e6:	8a 4f 5d             	mov    0x5d(%edi),%cl
    24e9:	3c 25                	cmp    $0x25,%al
    24eb:	0f 95 c0             	setne  %al
    24ee:	80 fa 2f             	cmp    $0x2f,%dl
    24f1:	0f 95 45 af          	setne  -0x51(%ebp)
    24f5:	8a 55 af             	mov    -0x51(%ebp),%dl
    24f8:	09 d0                	or     %edx,%eax
    24fa:	80 f9 45             	cmp    $0x45,%cl
    24fd:	0f 85 2d ff ff ff    	jne    2430 <cdfs_mounted+0x2c0>
    2503:	84 c0                	test   %al,%al
    2505:	0f 85 25 ff ff ff    	jne    2430 <cdfs_mounted+0x2c0>
    250b:	8a 47 5e             	mov    0x5e(%edi),%al
    250e:	84 c0                	test   %al,%al
    2510:	0f 84 3d 05 00 00    	je     2a53 <cdfs_mounted+0x8e3>
    2516:	8a 4f 5f             	mov    0x5f(%edi),%cl
    2519:	88 ca                	mov    %cl,%dl
    251b:	80 f9 2f             	cmp    $0x2f,%cl
    251e:	0f 84 ca 03 00 00    	je     28ee <cdfs_mounted+0x77e>
    2524:	8a 4f 60             	mov    0x60(%edi),%cl
    2527:	3c 25                	cmp    $0x25,%al
    2529:	0f 95 c0             	setne  %al
    252c:	80 fa 2f             	cmp    $0x2f,%dl
    252f:	0f 95 45 af          	setne  -0x51(%ebp)
    2533:	8a 55 af             	mov    -0x51(%ebp),%dl
    2536:	09 d0                	or     %edx,%eax
    2538:	80 f9 45             	cmp    $0x45,%cl
    253b:	0f 85 ef fe ff ff    	jne    2430 <cdfs_mounted+0x2c0>
    2541:	84 c0                	test   %al,%al
    2543:	0f 85 e7 fe ff ff    	jne    2430 <cdfs_mounted+0x2c0>
    2549:	8a 47 61             	mov    0x61(%edi),%al
    254c:	84 c0                	test   %al,%al
    254e:	0f 84 e5 04 00 00    	je     2a39 <cdfs_mounted+0x8c9>
    2554:	8a 4f 62             	mov    0x62(%edi),%cl
    2557:	88 ca                	mov    %cl,%dl
    2559:	80 f9 2f             	cmp    $0x2f,%cl
    255c:	0f 84 4f 04 00 00    	je     29b1 <cdfs_mounted+0x841>
    2562:	8a 4f 63             	mov    0x63(%edi),%cl
    2565:	80 fa 2f             	cmp    $0x2f,%dl
    2568:	0f 95 45 af          	setne  -0x51(%ebp)
    256c:	3c 25                	cmp    $0x25,%al
    256e:	8a 55 af             	mov    -0x51(%ebp),%dl
    2571:	0f 95 c0             	setne  %al
    2574:	09 d0                	or     %edx,%eax
    2576:	80 f9 45             	cmp    $0x45,%cl
    2579:	0f 85 b1 fe ff ff    	jne    2430 <cdfs_mounted+0x2c0>
    257f:	84 c0                	test   %al,%al
    2581:	0f 85 a9 fe ff ff    	jne    2430 <cdfs_mounted+0x2c0>
    2587:	8a 47 64             	mov    0x64(%edi),%al
    258a:	84 c0                	test   %al,%al
    258c:	0f 84 29 05 00 00    	je     2abb <cdfs_mounted+0x94b>
    2592:	8a 4f 65             	mov    0x65(%edi),%cl
    2595:	88 ca                	mov    %cl,%dl
    2597:	80 f9 2f             	cmp    $0x2f,%cl
    259a:	0f 84 75 03 00 00    	je     2915 <cdfs_mounted+0x7a5>
    25a0:	8a 4f 66             	mov    0x66(%edi),%cl
    25a3:	80 fa 2f             	cmp    $0x2f,%dl
    25a6:	0f 95 45 af          	setne  -0x51(%ebp)
    25aa:	3c 25                	cmp    $0x25,%al
    25ac:	8a 55 af             	mov    -0x51(%ebp),%dl
    25af:	0f 95 c0             	setne  %al
    25b2:	09 d0                	or     %edx,%eax
    25b4:	80 f9 45             	cmp    $0x45,%cl
    25b7:	0f 85 73 fe ff ff    	jne    2430 <cdfs_mounted+0x2c0>
    25bd:	84 c0                	test   %al,%al
    25bf:	0f 85 6b fe ff ff    	jne    2430 <cdfs_mounted+0x2c0>
    25c5:	8a 47 67             	mov    0x67(%edi),%al
    25c8:	84 c0                	test   %al,%al
    25ca:	0f 84 d1 04 00 00    	je     2aa1 <cdfs_mounted+0x931>
    25d0:	8a 4f 68             	mov    0x68(%edi),%cl
    25d3:	88 ca                	mov    %cl,%dl
    25d5:	80 f9 2f             	cmp    $0x2f,%cl
    25d8:	0f 84 85 03 00 00    	je     2963 <cdfs_mounted+0x7f3>
    25de:	8a 4f 69             	mov    0x69(%edi),%cl
    25e1:	80 fa 2f             	cmp    $0x2f,%dl
    25e4:	0f 95 45 af          	setne  -0x51(%ebp)
    25e8:	3c 25                	cmp    $0x25,%al
    25ea:	8a 55 af             	mov    -0x51(%ebp),%dl
    25ed:	0f 95 c0             	setne  %al
    25f0:	09 d0                	or     %edx,%eax
    25f2:	80 f9 45             	cmp    $0x45,%cl
    25f5:	0f 85 35 fe ff ff    	jne    2430 <cdfs_mounted+0x2c0>
    25fb:	84 c0                	test   %al,%al
    25fd:	0f 85 2d fe ff ff    	jne    2430 <cdfs_mounted+0x2c0>
    2603:	8a 47 6a             	mov    0x6a(%edi),%al
    2606:	84 c0                	test   %al,%al
    2608:	0f 84 79 04 00 00    	je     2a87 <cdfs_mounted+0x917>
    260e:	8a 4f 6b             	mov    0x6b(%edi),%cl
    2611:	88 ca                	mov    %cl,%dl
    2613:	80 f9 2f             	cmp    $0x2f,%cl
    2616:	0f 84 ab 02 00 00    	je     28c7 <cdfs_mounted+0x757>
    261c:	8a 4f 6c             	mov    0x6c(%edi),%cl
    261f:	80 fa 2f             	cmp    $0x2f,%dl
    2622:	0f 95 45 af          	setne  -0x51(%ebp)
    2626:	3c 25                	cmp    $0x25,%al
    2628:	8a 55 af             	mov    -0x51(%ebp),%dl
    262b:	0f 95 c0             	setne  %al
    262e:	09 d0                	or     %edx,%eax
    2630:	80 f9 45             	cmp    $0x45,%cl
    2633:	0f 85 f7 fd ff ff    	jne    2430 <cdfs_mounted+0x2c0>
    2639:	84 c0                	test   %al,%al
    263b:	0f 85 ef fd ff ff    	jne    2430 <cdfs_mounted+0x2c0>
    2641:	8a 47 6d             	mov    0x6d(%edi),%al
    2644:	84 c0                	test   %al,%al
    2646:	0f 84 21 04 00 00    	je     2a6d <cdfs_mounted+0x8fd>
    264c:	8a 4f 6e             	mov    0x6e(%edi),%cl
    264f:	88 ca                	mov    %cl,%dl
    2651:	80 f9 2f             	cmp    $0x2f,%cl
    2654:	0f 84 1a 02 00 00    	je     2874 <cdfs_mounted+0x704>
    265a:	8a 4f 6f             	mov    0x6f(%edi),%cl
    265d:	80 fa 2f             	cmp    $0x2f,%dl
    2660:	0f 95 45 af          	setne  -0x51(%ebp)
    2664:	3c 25                	cmp    $0x25,%al
    2666:	8a 55 af             	mov    -0x51(%ebp),%dl
    2669:	0f 95 c0             	setne  %al
    266c:	09 d0                	or     %edx,%eax
    266e:	80 f9 45             	cmp    $0x45,%cl
    2671:	0f 85 b9 fd ff ff    	jne    2430 <cdfs_mounted+0x2c0>
    2677:	84 c0                	test   %al,%al
    2679:	0f 85 b1 fd ff ff    	jne    2430 <cdfs_mounted+0x2c0>
    267f:	8a 47 70             	mov    0x70(%edi),%al
    2682:	84 c0                	test   %al,%al
    2684:	0f 84 64 03 00 00    	je     29ee <cdfs_mounted+0x87e>
    268a:	8a 4f 71             	mov    0x71(%edi),%cl
    268d:	88 ca                	mov    %cl,%dl
    268f:	80 f9 2f             	cmp    $0x2f,%cl
    2692:	0f 84 b5 01 00 00    	je     284d <cdfs_mounted+0x6dd>
    2698:	8a 4f 72             	mov    0x72(%edi),%cl
    269b:	80 fa 2f             	cmp    $0x2f,%dl
    269e:	0f 95 45 af          	setne  -0x51(%ebp)
    26a2:	3c 25                	cmp    $0x25,%al
    26a4:	8a 55 af             	mov    -0x51(%ebp),%dl
    26a7:	0f 95 c0             	setne  %al
    26aa:	09 d0                	or     %edx,%eax
    26ac:	80 f9 45             	cmp    $0x45,%cl
    26af:	0f 85 7b fd ff ff    	jne    2430 <cdfs_mounted+0x2c0>
    26b5:	84 c0                	test   %al,%al
    26b7:	0f 85 73 fd ff ff    	jne    2430 <cdfs_mounted+0x2c0>
    26bd:	8a 47 73             	mov    0x73(%edi),%al
    26c0:	84 c0                	test   %al,%al
    26c2:	0f 84 0c 03 00 00    	je     29d4 <cdfs_mounted+0x864>
    26c8:	8a 4f 74             	mov    0x74(%edi),%cl
    26cb:	8a 57 75             	mov    0x75(%edi),%dl
    26ce:	80 f9 2f             	cmp    $0x2f,%cl
    26d1:	0f 84 c4 01 00 00    	je     289b <cdfs_mounted+0x72b>
    26d7:	3c 25                	cmp    $0x25,%al
    26d9:	0f 95 c0             	setne  %al
    26dc:	80 f9 2f             	cmp    $0x2f,%cl
    26df:	0f 95 c1             	setne  %cl
    26e2:	09 c1                	or     %eax,%ecx
    26e4:	80 fa 45             	cmp    $0x45,%dl
    26e7:	0f 85 43 fd ff ff    	jne    2430 <cdfs_mounted+0x2c0>
    26ed:	84 c9                	test   %cl,%cl
    26ef:	0f 85 3b fd ff ff    	jne    2430 <cdfs_mounted+0x2c0>
    26f5:	b8 1e 00 00 00       	mov    $0x1e,%eax
    26fa:	8b 55 c4             	mov    -0x3c(%ebp),%edx
    26fd:	eb 0b                	jmp    270a <cdfs_mounted+0x59a>
    26ff:	90                   	nop
    2700:	40                   	inc    %eax
    2701:	83 f8 20             	cmp    $0x20,%eax
    2704:	0f 84 cd 00 00 00    	je     27d7 <cdfs_mounted+0x667>
    270a:	80 3c 02 00          	cmpb   $0x0,(%edx,%eax,1)
    270e:	74 f0                	je     2700 <cdfs_mounted+0x590>
    2710:	43                   	inc    %ebx
    2711:	e9 da fc ff ff       	jmp    23f0 <cdfs_mounted+0x280>
    2716:	8b 7d b4             	mov    -0x4c(%ebp),%edi
    2719:	8b 5d b0             	mov    -0x50(%ebp),%ebx
    271c:	8b 75 08             	mov    0x8(%ebp),%esi
    271f:	8b 4d bc             	mov    -0x44(%ebp),%ecx
    2722:	8b 55 b8             	mov    -0x48(%ebp),%edx
    2725:	8b 81 9e 00 00 00    	mov    0x9e(%ecx),%eax
    272b:	89 42 28             	mov    %eax,0x28(%edx)
    272e:	8b 81 a6 00 00 00    	mov    0xa6(%ecx),%eax
    2734:	89 42 1c             	mov    %eax,0x1c(%edx)
    2737:	c7 47 0c 00 00 00 00 	movl   $0x0,0xc(%edi)
    273e:	8b 55 c0             	mov    -0x40(%ebp),%edx
    2741:	89 f8                	mov    %edi,%eax
    2743:	e8 c8 f1 ff ff       	call   1910 <cdfs_readdir>
    2748:	84 c0                	test   %al,%al
    274a:	0f 84 0b fd ff ff    	je     245b <cdfs_mounted+0x2eb>
    2750:	83 ec 0c             	sub    $0xc,%esp
    2753:	8b 45 d8             	mov    -0x28(%ebp),%eax
    2756:	50                   	push   %eax
    2757:	e8 94 0b 00 00       	call   32f0 <block_put>
    275c:	a1 64 7f 00 00       	mov    0x7f64,%eax
    2761:	c7 47 04 64 7f 00 00 	movl   $0x7f64,0x4(%edi)
    2768:	89 07                	mov    %eax,(%edi)
    276a:	89 3d 64 7f 00 00    	mov    %edi,0x7f64
    2770:	89 78 04             	mov    %edi,0x4(%eax)
    2773:	8d 45 dc             	lea    -0x24(%ebp),%eax
    2776:	5a                   	pop    %edx
    2777:	89 75 dc             	mov    %esi,-0x24(%ebp)
    277a:	59                   	pop    %ecx
    277b:	c7 45 e0 00 00 00 00 	movl   $0x0,-0x20(%ebp)
    2782:	50                   	push   %eax
    2783:	68 e0 80 00 00       	push   $0x80e0
    2788:	e8 53 3a 00 00       	call   61e0 <hash_table_find@plt>
    278d:	83 c4 10             	add    $0x10,%esp
    2790:	85 c0                	test   %eax,%eax
    2792:	74 3c                	je     27d0 <cdfs_mounted+0x660>
    2794:	83 f8 0c             	cmp    $0xc,%eax
    2797:	74 37                	je     27d0 <cdfs_mounted+0x660>
    2799:	8b 40 f4             	mov    -0xc(%eax),%eax
    279c:	85 c0                	test   %eax,%eax
    279e:	74 30                	je     27d0 <cdfs_mounted+0x660>
    27a0:	8b 40 10             	mov    0x10(%eax),%eax
    27a3:	8b 55 10             	mov    0x10(%ebp),%edx
    27a6:	8b 48 04             	mov    0x4(%eax),%ecx
    27a9:	89 0a                	mov    %ecx,(%edx)
    27ab:	8b 55 14             	mov    0x14(%ebp),%edx
    27ae:	8b 48 1c             	mov    0x1c(%eax),%ecx
    27b1:	89 0a                	mov    %ecx,(%edx)
    27b3:	c7 42 04 00 00 00 00 	movl   $0x0,0x4(%edx)
    27ba:	8b 50 18             	mov    0x18(%eax),%edx
    27bd:	8b 45 18             	mov    0x18(%ebp),%eax
    27c0:	89 10                	mov    %edx,(%eax)
    27c2:	8d 65 f4             	lea    -0xc(%ebp),%esp
    27c5:	89 d8                	mov    %ebx,%eax
    27c7:	5b                   	pop    %ebx
    27c8:	5e                   	pop    %esi
    27c9:	5f                   	pop    %edi
    27ca:	5d                   	pop    %ebp
    27cb:	c3                   	ret    
    27cc:	8d 74 26 00          	lea    0x0(%esi,%eiz,1),%esi
    27d0:	a1 04 00 00 00       	mov    0x4,%eax
    27d5:	0f 0b                	ud2    
    27d7:	89 f9                	mov    %edi,%ecx
    27d9:	83 ec 0c             	sub    $0xc,%esp
    27dc:	8b 7d b4             	mov    -0x4c(%ebp),%edi
    27df:	8b 5d b0             	mov    -0x50(%ebp),%ebx
    27e2:	8b 81 9e 00 00 00    	mov    0x9e(%ecx),%eax
    27e8:	8b 91 a6 00 00 00    	mov    0xa6(%ecx),%edx
    27ee:	89 45 c4             	mov    %eax,-0x3c(%ebp)
    27f1:	8b 45 dc             	mov    -0x24(%ebp),%eax
    27f4:	89 55 bc             	mov    %edx,-0x44(%ebp)
    27f7:	50                   	push   %eax
    27f8:	8b 75 08             	mov    0x8(%ebp),%esi
    27fb:	e8 f0 0a 00 00       	call   32f0 <block_put>
    2800:	8b 45 b8             	mov    -0x48(%ebp),%eax
    2803:	8b 4d c4             	mov    -0x3c(%ebp),%ecx
    2806:	8b 55 bc             	mov    -0x44(%ebp),%edx
    2809:	83 c4 10             	add    $0x10,%esp
    280c:	89 48 28             	mov    %ecx,0x28(%eax)
    280f:	89 50 1c             	mov    %edx,0x1c(%eax)
    2812:	c7 47 0c 01 00 00 00 	movl   $0x1,0xc(%edi)
    2819:	e9 20 ff ff ff       	jmp    273e <cdfs_mounted+0x5ce>
    281e:	83 ec 0c             	sub    $0xc,%esp
    2821:	8b 7d b4             	mov    -0x4c(%ebp),%edi
    2824:	8b 5d b0             	mov    -0x50(%ebp),%ebx
    2827:	8b 75 08             	mov    0x8(%ebp),%esi
    282a:	50                   	push   %eax
    282b:	e8 c0 0a 00 00       	call   32f0 <block_put>
    2830:	83 c4 10             	add    $0x10,%esp
    2833:	e9 e7 fe ff ff       	jmp    271f <cdfs_mounted+0x5af>
    2838:	83 ec 0c             	sub    $0xc,%esp
    283b:	8b 45 dc             	mov    -0x24(%ebp),%eax
    283e:	43                   	inc    %ebx
    283f:	50                   	push   %eax
    2840:	e8 ab 0a 00 00       	call   32f0 <block_put>
    2845:	83 c4 10             	add    $0x10,%esp
    2848:	e9 a3 fb ff ff       	jmp    23f0 <cdfs_mounted+0x280>
    284d:	8a 4f 72             	mov    0x72(%edi),%cl
    2850:	80 f9 40             	cmp    $0x40,%cl
    2853:	0f 84 a2 01 00 00    	je     29fb <cdfs_mounted+0x88b>
    2859:	3c 25                	cmp    $0x25,%al
    285b:	0f 95 c0             	setne  %al
    285e:	80 f9 43             	cmp    $0x43,%cl
    2861:	0f 85 45 fe ff ff    	jne    26ac <cdfs_mounted+0x53c>
    2867:	84 c0                	test   %al,%al
    2869:	0f 84 4e fe ff ff    	je     26bd <cdfs_mounted+0x54d>
    286f:	e9 38 fe ff ff       	jmp    26ac <cdfs_mounted+0x53c>
    2874:	8a 4f 6f             	mov    0x6f(%edi),%cl
    2877:	80 f9 40             	cmp    $0x40,%cl
    287a:	0f 84 92 01 00 00    	je     2a12 <cdfs_mounted+0x8a2>
    2880:	3c 25                	cmp    $0x25,%al
    2882:	0f 95 c0             	setne  %al
    2885:	80 f9 43             	cmp    $0x43,%cl
    2888:	0f 85 e0 fd ff ff    	jne    266e <cdfs_mounted+0x4fe>
    288e:	84 c0                	test   %al,%al
    2890:	0f 84 e9 fd ff ff    	je     267f <cdfs_mounted+0x50f>
    2896:	e9 d3 fd ff ff       	jmp    266e <cdfs_mounted+0x4fe>
    289b:	80 fa 40             	cmp    $0x40,%dl
    289e:	0f 84 d6 01 00 00    	je     2a7a <cdfs_mounted+0x90a>
    28a4:	3c 25                	cmp    $0x25,%al
    28a6:	0f 95 c1             	setne  %cl
    28a9:	80 fa 43             	cmp    $0x43,%dl
    28ac:	0f 85 32 fe ff ff    	jne    26e4 <cdfs_mounted+0x574>
    28b2:	b8 1e 00 00 00       	mov    $0x1e,%eax
    28b7:	84 c9                	test   %cl,%cl
    28b9:	0f 85 25 fe ff ff    	jne    26e4 <cdfs_mounted+0x574>
    28bf:	8b 55 c4             	mov    -0x3c(%ebp),%edx
    28c2:	e9 43 fe ff ff       	jmp    270a <cdfs_mounted+0x59a>
    28c7:	8a 4f 6c             	mov    0x6c(%edi),%cl
    28ca:	80 f9 40             	cmp    $0x40,%cl
    28cd:	0f 84 73 01 00 00    	je     2a46 <cdfs_mounted+0x8d6>
    28d3:	3c 25                	cmp    $0x25,%al
    28d5:	0f 95 c0             	setne  %al
    28d8:	80 f9 43             	cmp    $0x43,%cl
    28db:	0f 85 4f fd ff ff    	jne    2630 <cdfs_mounted+0x4c0>
    28e1:	84 c0                	test   %al,%al
    28e3:	0f 84 58 fd ff ff    	je     2641 <cdfs_mounted+0x4d1>
    28e9:	e9 42 fd ff ff       	jmp    2630 <cdfs_mounted+0x4c0>
    28ee:	8a 4f 60             	mov    0x60(%edi),%cl
    28f1:	80 f9 40             	cmp    $0x40,%cl
    28f4:	0f 84 b4 01 00 00    	je     2aae <cdfs_mounted+0x93e>
    28fa:	3c 25                	cmp    $0x25,%al
    28fc:	0f 95 c0             	setne  %al
    28ff:	80 f9 43             	cmp    $0x43,%cl
    2902:	0f 85 30 fc ff ff    	jne    2538 <cdfs_mounted+0x3c8>
    2908:	84 c0                	test   %al,%al
    290a:	0f 84 39 fc ff ff    	je     2549 <cdfs_mounted+0x3d9>
    2910:	e9 23 fc ff ff       	jmp    2538 <cdfs_mounted+0x3c8>
    2915:	8a 4f 66             	mov    0x66(%edi),%cl
    2918:	80 f9 40             	cmp    $0x40,%cl
    291b:	0f 84 0b 01 00 00    	je     2a2c <cdfs_mounted+0x8bc>
    2921:	3c 25                	cmp    $0x25,%al
    2923:	0f 95 c0             	setne  %al
    2926:	80 f9 43             	cmp    $0x43,%cl
    2929:	0f 85 85 fc ff ff    	jne    25b4 <cdfs_mounted+0x444>
    292f:	84 c0                	test   %al,%al
    2931:	0f 84 8e fc ff ff    	je     25c5 <cdfs_mounted+0x455>
    2937:	e9 78 fc ff ff       	jmp    25b4 <cdfs_mounted+0x444>
    293c:	8a 4f 5a             	mov    0x5a(%edi),%cl
    293f:	80 f9 40             	cmp    $0x40,%cl
    2942:	0f 84 4c 01 00 00    	je     2a94 <cdfs_mounted+0x924>
    2948:	3c 25                	cmp    $0x25,%al
    294a:	0f 95 c0             	setne  %al
    294d:	80 f9 43             	cmp    $0x43,%cl
    2950:	0f 85 66 fb ff ff    	jne    24bc <cdfs_mounted+0x34c>
    2956:	84 c0                	test   %al,%al
    2958:	0f 84 6f fb ff ff    	je     24cd <cdfs_mounted+0x35d>
    295e:	e9 59 fb ff ff       	jmp    24bc <cdfs_mounted+0x34c>
    2963:	8a 4f 69             	mov    0x69(%edi),%cl
    2966:	80 f9 40             	cmp    $0x40,%cl
    2969:	0f 84 f1 00 00 00    	je     2a60 <cdfs_mounted+0x8f0>
    296f:	3c 25                	cmp    $0x25,%al
    2971:	0f 95 c0             	setne  %al
    2974:	80 f9 43             	cmp    $0x43,%cl
    2977:	0f 85 75 fc ff ff    	jne    25f2 <cdfs_mounted+0x482>
    297d:	84 c0                	test   %al,%al
    297f:	0f 84 7e fc ff ff    	je     2603 <cdfs_mounted+0x493>
    2985:	e9 68 fc ff ff       	jmp    25f2 <cdfs_mounted+0x482>
    298a:	8a 4f 5d             	mov    0x5d(%edi),%cl
    298d:	80 f9 40             	cmp    $0x40,%cl
    2990:	0f 84 32 01 00 00    	je     2ac8 <cdfs_mounted+0x958>
    2996:	3c 25                	cmp    $0x25,%al
    2998:	0f 95 c0             	setne  %al
    299b:	80 f9 43             	cmp    $0x43,%cl
    299e:	0f 85 56 fb ff ff    	jne    24fa <cdfs_mounted+0x38a>
    29a4:	84 c0                	test   %al,%al
    29a6:	0f 84 5f fb ff ff    	je     250b <cdfs_mounted+0x39b>
    29ac:	e9 49 fb ff ff       	jmp    24fa <cdfs_mounted+0x38a>
    29b1:	8a 4f 63             	mov    0x63(%edi),%cl
    29b4:	80 f9 40             	cmp    $0x40,%cl
    29b7:	74 28                	je     29e1 <cdfs_mounted+0x871>
    29b9:	3c 25                	cmp    $0x25,%al
    29bb:	0f 95 c0             	setne  %al
    29be:	80 f9 43             	cmp    $0x43,%cl
    29c1:	0f 85 af fb ff ff    	jne    2576 <cdfs_mounted+0x406>
    29c7:	84 c0                	test   %al,%al
    29c9:	0f 84 b8 fb ff ff    	je     2587 <cdfs_mounted+0x417>
    29cf:	e9 a2 fb ff ff       	jmp    2576 <cdfs_mounted+0x406>
    29d4:	b8 1b 00 00 00       	mov    $0x1b,%eax
    29d9:	8b 55 c4             	mov    -0x3c(%ebp),%edx
    29dc:	e9 29 fd ff ff       	jmp    270a <cdfs_mounted+0x59a>
    29e1:	3c 25                	cmp    $0x25,%al
    29e3:	0f 85 7c fb ff ff    	jne    2565 <cdfs_mounted+0x3f5>
    29e9:	e9 99 fb ff ff       	jmp    2587 <cdfs_mounted+0x417>
    29ee:	b8 18 00 00 00       	mov    $0x18,%eax
    29f3:	8b 55 c4             	mov    -0x3c(%ebp),%edx
    29f6:	e9 0f fd ff ff       	jmp    270a <cdfs_mounted+0x59a>
    29fb:	3c 25                	cmp    $0x25,%al
    29fd:	0f 85 98 fc ff ff    	jne    269b <cdfs_mounted+0x52b>
    2a03:	e9 b5 fc ff ff       	jmp    26bd <cdfs_mounted+0x54d>
    2a08:	31 c0                	xor    %eax,%eax
    2a0a:	8b 55 c4             	mov    -0x3c(%ebp),%edx
    2a0d:	e9 f8 fc ff ff       	jmp    270a <cdfs_mounted+0x59a>
    2a12:	3c 25                	cmp    $0x25,%al
    2a14:	0f 85 43 fc ff ff    	jne    265d <cdfs_mounted+0x4ed>
    2a1a:	e9 60 fc ff ff       	jmp    267f <cdfs_mounted+0x50f>
    2a1f:	b8 03 00 00 00       	mov    $0x3,%eax
    2a24:	8b 55 c4             	mov    -0x3c(%ebp),%edx
    2a27:	e9 de fc ff ff       	jmp    270a <cdfs_mounted+0x59a>
    2a2c:	3c 25                	cmp    $0x25,%al
    2a2e:	0f 85 6f fb ff ff    	jne    25a3 <cdfs_mounted+0x433>
    2a34:	e9 8c fb ff ff       	jmp    25c5 <cdfs_mounted+0x455>
    2a39:	b8 09 00 00 00       	mov    $0x9,%eax
    2a3e:	8b 55 c4             	mov    -0x3c(%ebp),%edx
    2a41:	e9 c4 fc ff ff       	jmp    270a <cdfs_mounted+0x59a>
    2a46:	3c 25                	cmp    $0x25,%al
    2a48:	0f 85 d1 fb ff ff    	jne    261f <cdfs_mounted+0x4af>
    2a4e:	e9 ee fb ff ff       	jmp    2641 <cdfs_mounted+0x4d1>
    2a53:	b8 06 00 00 00       	mov    $0x6,%eax
    2a58:	8b 55 c4             	mov    -0x3c(%ebp),%edx
    2a5b:	e9 aa fc ff ff       	jmp    270a <cdfs_mounted+0x59a>
    2a60:	3c 25                	cmp    $0x25,%al
    2a62:	0f 85 79 fb ff ff    	jne    25e1 <cdfs_mounted+0x471>
    2a68:	e9 96 fb ff ff       	jmp    2603 <cdfs_mounted+0x493>
    2a6d:	b8 15 00 00 00       	mov    $0x15,%eax
    2a72:	8b 55 c4             	mov    -0x3c(%ebp),%edx
    2a75:	e9 90 fc ff ff       	jmp    270a <cdfs_mounted+0x59a>
    2a7a:	3c 25                	cmp    $0x25,%al
    2a7c:	0f 85 55 fc ff ff    	jne    26d7 <cdfs_mounted+0x567>
    2a82:	e9 6e fc ff ff       	jmp    26f5 <cdfs_mounted+0x585>
    2a87:	b8 12 00 00 00       	mov    $0x12,%eax
    2a8c:	8b 55 c4             	mov    -0x3c(%ebp),%edx
    2a8f:	e9 76 fc ff ff       	jmp    270a <cdfs_mounted+0x59a>
    2a94:	3c 25                	cmp    $0x25,%al
    2a96:	0f 85 0f fa ff ff    	jne    24ab <cdfs_mounted+0x33b>
    2a9c:	e9 2c fa ff ff       	jmp    24cd <cdfs_mounted+0x35d>
    2aa1:	b8 0f 00 00 00       	mov    $0xf,%eax
    2aa6:	8b 55 c4             	mov    -0x3c(%ebp),%edx
    2aa9:	e9 5c fc ff ff       	jmp    270a <cdfs_mounted+0x59a>
    2aae:	3c 25                	cmp    $0x25,%al
    2ab0:	0f 85 71 fa ff ff    	jne    2527 <cdfs_mounted+0x3b7>
    2ab6:	e9 8e fa ff ff       	jmp    2549 <cdfs_mounted+0x3d9>
    2abb:	b8 0c 00 00 00       	mov    $0xc,%eax
    2ac0:	8b 55 c4             	mov    -0x3c(%ebp),%edx
    2ac3:	e9 42 fc ff ff       	jmp    270a <cdfs_mounted+0x59a>
    2ac8:	3c 25                	cmp    $0x25,%al
    2aca:	0f 85 19 fa ff ff    	jne    24e9 <cdfs_mounted+0x379>
    2ad0:	e9 36 fa ff ff       	jmp    250b <cdfs_mounted+0x39b>
    2ad5:	8d 74 26 00          	lea    0x0(%esi,%eiz,1),%esi
    2ad9:	8d bc 27 00 00 00 00 	lea    0x0(%edi,%eiz,1),%edi

00002ae0 <cdfs_init>:
    2ae0:	55                   	push   %ebp
    2ae1:	89 e5                	mov    %esp,%ebp
    2ae3:	83 ec 08             	sub    $0x8,%esp
    2ae6:	68 4c 7f 00 00       	push   $0x7f4c
    2aeb:	6a 00                	push   $0x0
    2aed:	6a 00                	push   $0x0
    2aef:	68 e0 80 00 00       	push   $0x80e0
    2af4:	e8 b7 33 00 00       	call   5eb0 <hash_table_create@plt>
    2af9:	c9                   	leave  
    2afa:	c3                   	ret    
    2afb:	66 90                	xchg   %ax,%ax
    2afd:	66 90                	xchg   %ax,%ax
    2aff:	90                   	nop

00002b00 <cache_key_hash>:
    2b00:	55                   	push   %ebp
    2b01:	89 e5                	mov    %esp,%ebp
    2b03:	8b 45 08             	mov    0x8(%ebp),%eax
    2b06:	5d                   	pop    %ebp
    2b07:	8b 00                	mov    (%eax),%eax
    2b09:	c3                   	ret    
    2b0a:	8d b6 00 00 00 00    	lea    0x0(%esi),%esi

00002b10 <cache_hash>:
    2b10:	55                   	push   %ebp
    2b11:	89 e5                	mov    %esp,%ebp
    2b13:	8b 45 08             	mov    0x8(%ebp),%eax
    2b16:	5d                   	pop    %ebp
    2b17:	8b 40 e0             	mov    -0x20(%eax),%eax
    2b1a:	c3                   	ret    
    2b1b:	90                   	nop
    2b1c:	8d 74 26 00          	lea    0x0(%esi,%eiz,1),%esi

00002b20 <cache_key_equal>:
    2b20:	55                   	push   %ebp
    2b21:	89 e5                	mov    %esp,%ebp
    2b23:	8b 45 0c             	mov    0xc(%ebp),%eax
    2b26:	8b 4d 08             	mov    0x8(%ebp),%ecx
    2b29:	5d                   	pop    %ebp
    2b2a:	8b 50 e0             	mov    -0x20(%eax),%edx
    2b2d:	8b 40 e4             	mov    -0x1c(%eax),%eax
    2b30:	33 41 04             	xor    0x4(%ecx),%eax
    2b33:	33 11                	xor    (%ecx),%edx
    2b35:	09 c2                	or     %eax,%edx
    2b37:	0f 94 c0             	sete   %al
    2b3a:	c3                   	ret    
    2b3b:	90                   	nop
    2b3c:	8d 74 26 00          	lea    0x0(%esi,%eiz,1),%esi

00002b40 <block_init>:
    2b40:	55                   	push   %ebp
    2b41:	89 e5                	mov    %esp,%ebp
    2b43:	57                   	push   %edi
    2b44:	56                   	push   %esi
    2b45:	53                   	push   %ebx
    2b46:	83 ec 30             	sub    $0x30,%esp
    2b49:	8b 5d 08             	mov    0x8(%ebp),%ebx
    2b4c:	6a 01                	push   $0x1
    2b4e:	68 21 66 93 ed       	push   $0xed936621
    2b53:	53                   	push   %ebx
    2b54:	e8 e7 32 00 00       	call   5e40 <loc_service_connect@plt>
    2b59:	83 c4 10             	add    $0x10,%esp
    2b5c:	85 c0                	test   %eax,%eax
    2b5e:	0f 84 95 01 00 00    	je     2cf9 <block_init+0x1b9>
    2b64:	89 c7                	mov    %eax,%edi
    2b66:	50                   	push   %eax
    2b67:	50                   	push   %eax
    2b68:	8d 45 d8             	lea    -0x28(%ebp),%eax
    2b6b:	50                   	push   %eax
    2b6c:	57                   	push   %edi
    2b6d:	e8 0e 34 00 00       	call   5f80 <bd_open@plt>
    2b72:	83 c4 10             	add    $0x10,%esp
    2b75:	89 c6                	mov    %eax,%esi
    2b77:	85 c0                	test   %eax,%eax
    2b79:	0f 85 31 01 00 00    	jne    2cb0 <block_init+0x170>
    2b7f:	8d 45 dc             	lea    -0x24(%ebp),%eax
    2b82:	56                   	push   %esi
    2b83:	56                   	push   %esi
    2b84:	50                   	push   %eax
    2b85:	8b 45 d8             	mov    -0x28(%ebp),%eax
    2b88:	50                   	push   %eax
    2b89:	e8 b2 35 00 00       	call   6140 <bd_get_block_size@plt>
    2b8e:	83 c4 10             	add    $0x10,%esp
    2b91:	89 c6                	mov    %eax,%esi
    2b93:	85 c0                	test   %eax,%eax
    2b95:	0f 85 f0 00 00 00    	jne    2c8b <block_init+0x14b>
    2b9b:	8d 45 e0             	lea    -0x20(%ebp),%eax
    2b9e:	8b 4d d8             	mov    -0x28(%ebp),%ecx
    2ba1:	52                   	push   %edx
    2ba2:	52                   	push   %edx
    2ba3:	50                   	push   %eax
    2ba4:	51                   	push   %ecx
    2ba5:	e8 56 33 00 00       	call   5f00 <bd_get_num_blocks@plt>
    2baa:	83 c4 10             	add    $0x10,%esp
    2bad:	89 c6                	mov    %eax,%esi
    2baf:	85 c0                	test   %eax,%eax
    2bb1:	0f 85 d4 00 00 00    	jne    2c8b <block_init+0x14b>
    2bb7:	83 ec 0c             	sub    $0xc,%esp
    2bba:	8b 55 e4             	mov    -0x1c(%ebp),%edx
    2bbd:	8b 4d d8             	mov    -0x28(%ebp),%ecx
    2bc0:	8b 45 e0             	mov    -0x20(%ebp),%eax
    2bc3:	89 55 d4             	mov    %edx,-0x2c(%ebp)
    2bc6:	8b 55 dc             	mov    -0x24(%ebp),%edx
    2bc9:	6a 30                	push   $0x30
    2bcb:	89 4d c8             	mov    %ecx,-0x38(%ebp)
    2bce:	89 45 d0             	mov    %eax,-0x30(%ebp)
    2bd1:	89 55 cc             	mov    %edx,-0x34(%ebp)
    2bd4:	e8 97 33 00 00       	call   5f70 <malloc@plt>
    2bd9:	83 c4 10             	add    $0x10,%esp
    2bdc:	85 c0                	test   %eax,%eax
    2bde:	0f 84 1a 01 00 00    	je     2cfe <block_init+0x1be>
    2be4:	8b 4d c8             	mov    -0x38(%ebp),%ecx
    2be7:	8b 55 cc             	mov    -0x34(%ebp),%edx
    2bea:	89 48 10             	mov    %ecx,0x10(%eax)
    2bed:	89 50 28             	mov    %edx,0x28(%eax)
    2bf0:	83 ec 0c             	sub    $0xc,%esp
    2bf3:	8b 55 d0             	mov    -0x30(%ebp),%edx
    2bf6:	8b 4d d4             	mov    -0x2c(%ebp),%ecx
    2bf9:	89 50 20             	mov    %edx,0x20(%eax)
    2bfc:	c7 00 00 00 00 00    	movl   $0x0,(%eax)
    2c02:	c7 40 04 00 00 00 00 	movl   $0x0,0x4(%eax)
    2c09:	89 58 08             	mov    %ebx,0x8(%eax)
    2c0c:	89 78 0c             	mov    %edi,0xc(%eax)
    2c0f:	c7 40 14 00 00 00 00 	movl   $0x0,0x14(%eax)
    2c16:	c7 40 18 00 00 00 00 	movl   $0x0,0x18(%eax)
    2c1d:	c7 40 1c 00 00 00 00 	movl   $0x0,0x1c(%eax)
    2c24:	89 48 24             	mov    %ecx,0x24(%eax)
    2c27:	c7 40 2c 00 00 00 00 	movl   $0x0,0x2c(%eax)
    2c2e:	89 45 d0             	mov    %eax,-0x30(%ebp)
    2c31:	68 88 7f 00 00       	push   $0x7f88
    2c36:	e8 35 36 00 00       	call   6270 <fibril_mutex_lock@plt>
    2c3b:	8b 15 84 7f 00 00    	mov    0x7f84,%edx
    2c41:	83 c4 10             	add    $0x10,%esp
    2c44:	8b 45 d0             	mov    -0x30(%ebp),%eax
    2c47:	81 fa 80 7f 00 00    	cmp    $0x7f80,%edx
    2c4d:	75 14                	jne    2c63 <block_init+0x123>
    2c4f:	eb 77                	jmp    2cc8 <block_init+0x188>
    2c51:	8d b4 26 00 00 00 00 	lea    0x0(%esi,%eiz,1),%esi
    2c58:	8b 52 04             	mov    0x4(%edx),%edx
    2c5b:	81 fa 80 7f 00 00    	cmp    $0x7f80,%edx
    2c61:	74 65                	je     2cc8 <block_init+0x188>
    2c63:	3b 5a 08             	cmp    0x8(%edx),%ebx
    2c66:	75 f0                	jne    2c58 <block_init+0x118>
    2c68:	83 ec 0c             	sub    $0xc,%esp
    2c6b:	89 45 d0             	mov    %eax,-0x30(%ebp)
    2c6e:	be f7 ff ff ff       	mov    $0xfffffff7,%esi
    2c73:	68 88 7f 00 00       	push   $0x7f88
    2c78:	e8 03 34 00 00       	call   6080 <fibril_mutex_unlock@plt>
    2c7d:	8b 45 d0             	mov    -0x30(%ebp),%eax
    2c80:	89 04 24             	mov    %eax,(%esp)
    2c83:	e8 d8 35 00 00       	call   6260 <free@plt>
    2c88:	83 c4 10             	add    $0x10,%esp
    2c8b:	83 ec 0c             	sub    $0xc,%esp
    2c8e:	8b 45 d8             	mov    -0x28(%ebp),%eax
    2c91:	50                   	push   %eax
    2c92:	e8 a9 32 00 00       	call   5f40 <bd_close@plt>
    2c97:	89 3c 24             	mov    %edi,(%esp)
    2c9a:	e8 c1 31 00 00       	call   5e60 <async_hangup@plt>
    2c9f:	83 c4 10             	add    $0x10,%esp
    2ca2:	8d 65 f4             	lea    -0xc(%ebp),%esp
    2ca5:	89 f0                	mov    %esi,%eax
    2ca7:	5b                   	pop    %ebx
    2ca8:	5e                   	pop    %esi
    2ca9:	5f                   	pop    %edi
    2caa:	5d                   	pop    %ebp
    2cab:	c3                   	ret    
    2cac:	8d 74 26 00          	lea    0x0(%esi,%eiz,1),%esi
    2cb0:	83 ec 0c             	sub    $0xc,%esp
    2cb3:	57                   	push   %edi
    2cb4:	e8 a7 31 00 00       	call   5e60 <async_hangup@plt>
    2cb9:	83 c4 10             	add    $0x10,%esp
    2cbc:	8d 65 f4             	lea    -0xc(%ebp),%esp
    2cbf:	89 f0                	mov    %esi,%eax
    2cc1:	5b                   	pop    %ebx
    2cc2:	5e                   	pop    %esi
    2cc3:	5f                   	pop    %edi
    2cc4:	5d                   	pop    %ebp
    2cc5:	c3                   	ret    
    2cc6:	66 90                	xchg   %ax,%ax
    2cc8:	8b 15 80 7f 00 00    	mov    0x7f80,%edx
    2cce:	83 ec 0c             	sub    $0xc,%esp
    2cd1:	c7 40 04 80 7f 00 00 	movl   $0x7f80,0x4(%eax)
    2cd8:	89 10                	mov    %edx,(%eax)
    2cda:	89 42 04             	mov    %eax,0x4(%edx)
    2cdd:	68 88 7f 00 00       	push   $0x7f88
    2ce2:	a3 80 7f 00 00       	mov    %eax,0x7f80
    2ce7:	e8 94 33 00 00       	call   6080 <fibril_mutex_unlock@plt>
    2cec:	83 c4 10             	add    $0x10,%esp
    2cef:	8d 65 f4             	lea    -0xc(%ebp),%esp
    2cf2:	89 f0                	mov    %esi,%eax
    2cf4:	5b                   	pop    %ebx
    2cf5:	5e                   	pop    %esi
    2cf6:	5f                   	pop    %edi
    2cf7:	5d                   	pop    %ebp
    2cf8:	c3                   	ret    
    2cf9:	83 ce ff             	or     $0xffffffff,%esi
    2cfc:	eb a4                	jmp    2ca2 <block_init+0x162>
    2cfe:	be fe ff ff ff       	mov    $0xfffffffe,%esi
    2d03:	eb 86                	jmp    2c8b <block_init+0x14b>
    2d05:	8d 74 26 00          	lea    0x0(%esi,%eiz,1),%esi
    2d09:	8d bc 27 00 00 00 00 	lea    0x0(%edi,%eiz,1),%edi

00002d10 <block_bb_read>:
    2d10:	55                   	push   %ebp
    2d11:	89 e5                	mov    %esp,%ebp
    2d13:	57                   	push   %edi
    2d14:	56                   	push   %esi
    2d15:	53                   	push   %ebx
    2d16:	83 ec 28             	sub    $0x28,%esp
    2d19:	8b 45 08             	mov    0x8(%ebp),%eax
    2d1c:	8b 75 0c             	mov    0xc(%ebp),%esi
    2d1f:	68 88 7f 00 00       	push   $0x7f88
    2d24:	89 45 e4             	mov    %eax,-0x1c(%ebp)
    2d27:	8b 7d 10             	mov    0x10(%ebp),%edi
    2d2a:	e8 41 35 00 00       	call   6270 <fibril_mutex_lock@plt>
    2d2f:	8b 1d 84 7f 00 00    	mov    0x7f84,%ebx
    2d35:	83 c4 10             	add    $0x10,%esp
    2d38:	81 fb 80 7f 00 00    	cmp    $0x7f80,%ebx
    2d3e:	74 20                	je     2d60 <block_bb_read+0x50>
    2d40:	8b 45 e4             	mov    -0x1c(%ebp),%eax
    2d43:	3b 43 08             	cmp    0x8(%ebx),%eax
    2d46:	75 0d                	jne    2d55 <block_bb_read+0x45>
    2d48:	eb 36                	jmp    2d80 <block_bb_read+0x70>
    2d4a:	8d b6 00 00 00 00    	lea    0x0(%esi),%esi
    2d50:	3b 43 08             	cmp    0x8(%ebx),%eax
    2d53:	74 2b                	je     2d80 <block_bb_read+0x70>
    2d55:	8b 5b 04             	mov    0x4(%ebx),%ebx
    2d58:	81 fb 80 7f 00 00    	cmp    $0x7f80,%ebx
    2d5e:	75 f0                	jne    2d50 <block_bb_read+0x40>
    2d60:	83 ec 0c             	sub    $0xc,%esp
    2d63:	68 88 7f 00 00       	push   $0x7f88
    2d68:	e8 13 33 00 00       	call   6080 <fibril_mutex_unlock@plt>
    2d6d:	83 c4 10             	add    $0x10,%esp
    2d70:	83 ca ff             	or     $0xffffffff,%edx
    2d73:	8d 65 f4             	lea    -0xc(%ebp),%esp
    2d76:	89 d0                	mov    %edx,%eax
    2d78:	5b                   	pop    %ebx
    2d79:	5e                   	pop    %esi
    2d7a:	5f                   	pop    %edi
    2d7b:	5d                   	pop    %ebp
    2d7c:	c3                   	ret    
    2d7d:	8d 76 00             	lea    0x0(%esi),%esi
    2d80:	83 ec 0c             	sub    $0xc,%esp
    2d83:	68 88 7f 00 00       	push   $0x7f88
    2d88:	e8 f3 32 00 00       	call   6080 <fibril_mutex_unlock@plt>
    2d8d:	8b 43 14             	mov    0x14(%ebx),%eax
    2d90:	83 c4 10             	add    $0x10,%esp
    2d93:	85 c0                	test   %eax,%eax
    2d95:	0f 85 9d 00 00 00    	jne    2e38 <block_bb_read+0x128>
    2d9b:	83 ec 0c             	sub    $0xc,%esp
    2d9e:	8b 43 28             	mov    0x28(%ebx),%eax
    2da1:	50                   	push   %eax
    2da2:	e8 c9 31 00 00       	call   5f70 <malloc@plt>
    2da7:	83 c4 10             	add    $0x10,%esp
    2daa:	89 c1                	mov    %eax,%ecx
    2dac:	85 c0                	test   %eax,%eax
    2dae:	0f 84 93 00 00 00    	je     2e47 <block_bb_read+0x137>
    2db4:	50                   	push   %eax
    2db5:	50                   	push   %eax
    2db6:	8b 43 28             	mov    0x28(%ebx),%eax
    2db9:	89 4d e4             	mov    %ecx,-0x1c(%ebp)
    2dbc:	50                   	push   %eax
    2dbd:	51                   	push   %ecx
    2dbe:	8b 43 10             	mov    0x10(%ebx),%eax
    2dc1:	6a 01                	push   $0x1
    2dc3:	6a 00                	push   $0x0
    2dc5:	6a 00                	push   $0x0
    2dc7:	50                   	push   %eax
    2dc8:	e8 23 32 00 00       	call   5ff0 <bd_read_blocks@plt>
    2dcd:	83 c4 20             	add    $0x20,%esp
    2dd0:	89 c2                	mov    %eax,%edx
    2dd2:	85 c0                	test   %eax,%eax
    2dd4:	8b 4d e4             	mov    -0x1c(%ebp),%ecx
    2dd7:	75 17                	jne    2df0 <block_bb_read+0xe0>
    2dd9:	89 4b 14             	mov    %ecx,0x14(%ebx)
    2ddc:	89 73 18             	mov    %esi,0x18(%ebx)
    2ddf:	89 7b 1c             	mov    %edi,0x1c(%ebx)
    2de2:	8d 65 f4             	lea    -0xc(%ebp),%esp
    2de5:	89 d0                	mov    %edx,%eax
    2de7:	5b                   	pop    %ebx
    2de8:	5e                   	pop    %esi
    2de9:	5f                   	pop    %edi
    2dea:	5d                   	pop    %ebp
    2deb:	c3                   	ret    
    2dec:	8d 74 26 00          	lea    0x0(%esi,%eiz,1),%esi
    2df0:	50                   	push   %eax
    2df1:	50                   	push   %eax
    2df2:	89 4d e0             	mov    %ecx,-0x20(%ebp)
    2df5:	8b 4b 08             	mov    0x8(%ebx),%ecx
    2df8:	51                   	push   %ecx
    2df9:	6a 00                	push   $0x0
    2dfb:	6a 00                	push   $0x0
    2dfd:	6a 01                	push   $0x1
    2dff:	52                   	push   %edx
    2e00:	68 a0 5a 00 00       	push   $0x5aa0
    2e05:	89 55 e4             	mov    %edx,-0x1c(%ebp)
    2e08:	e8 43 30 00 00       	call   5e50 <printf@plt>
    2e0d:	83 c4 20             	add    $0x20,%esp
    2e10:	e8 ab 31 00 00       	call   5fc0 <stacktrace_print@plt>
    2e15:	83 ec 0c             	sub    $0xc,%esp
    2e18:	8b 4d e0             	mov    -0x20(%ebp),%ecx
    2e1b:	51                   	push   %ecx
    2e1c:	e8 3f 34 00 00       	call   6260 <free@plt>
    2e21:	8b 55 e4             	mov    -0x1c(%ebp),%edx
    2e24:	83 c4 10             	add    $0x10,%esp
    2e27:	8d 65 f4             	lea    -0xc(%ebp),%esp
    2e2a:	89 d0                	mov    %edx,%eax
    2e2c:	5b                   	pop    %ebx
    2e2d:	5e                   	pop    %esi
    2e2e:	5f                   	pop    %edi
    2e2f:	5d                   	pop    %ebp
    2e30:	c3                   	ret    
    2e31:	8d b4 26 00 00 00 00 	lea    0x0(%esi,%eiz,1),%esi
    2e38:	8d 65 f4             	lea    -0xc(%ebp),%esp
    2e3b:	ba f7 ff ff ff       	mov    $0xfffffff7,%edx
    2e40:	89 d0                	mov    %edx,%eax
    2e42:	5b                   	pop    %ebx
    2e43:	5e                   	pop    %esi
    2e44:	5f                   	pop    %edi
    2e45:	5d                   	pop    %ebp
    2e46:	c3                   	ret    
    2e47:	ba fe ff ff ff       	mov    $0xfffffffe,%edx
    2e4c:	e9 22 ff ff ff       	jmp    2d73 <block_bb_read+0x63>
    2e51:	eb 0d                	jmp    2e60 <block_bb_get>
    2e53:	90                   	nop
    2e54:	90                   	nop
    2e55:	90                   	nop
    2e56:	90                   	nop
    2e57:	90                   	nop
    2e58:	90                   	nop
    2e59:	90                   	nop
    2e5a:	90                   	nop
    2e5b:	90                   	nop
    2e5c:	90                   	nop
    2e5d:	90                   	nop
    2e5e:	90                   	nop
    2e5f:	90                   	nop

00002e60 <block_bb_get>:
    2e60:	55                   	push   %ebp
    2e61:	89 e5                	mov    %esp,%ebp
    2e63:	56                   	push   %esi
    2e64:	53                   	push   %ebx
    2e65:	83 ec 0c             	sub    $0xc,%esp
    2e68:	8b 75 08             	mov    0x8(%ebp),%esi
    2e6b:	68 88 7f 00 00       	push   $0x7f88
    2e70:	e8 fb 33 00 00       	call   6270 <fibril_mutex_lock@plt>
    2e75:	8b 1d 84 7f 00 00    	mov    0x7f84,%ebx
    2e7b:	83 c4 10             	add    $0x10,%esp
    2e7e:	81 fb 80 7f 00 00    	cmp    $0x7f80,%ebx
    2e84:	75 0d                	jne    2e93 <block_bb_get+0x33>
    2e86:	eb 28                	jmp    2eb0 <block_bb_get+0x50>
    2e88:	8b 5b 04             	mov    0x4(%ebx),%ebx
    2e8b:	81 fb 80 7f 00 00    	cmp    $0x7f80,%ebx
    2e91:	74 1d                	je     2eb0 <block_bb_get+0x50>
    2e93:	3b 73 08             	cmp    0x8(%ebx),%esi
    2e96:	75 f0                	jne    2e88 <block_bb_get+0x28>
    2e98:	83 ec 0c             	sub    $0xc,%esp
    2e9b:	68 88 7f 00 00       	push   $0x7f88
    2ea0:	e8 db 31 00 00       	call   6080 <fibril_mutex_unlock@plt>
    2ea5:	8b 43 14             	mov    0x14(%ebx),%eax
    2ea8:	8d 65 f8             	lea    -0x8(%ebp),%esp
    2eab:	5b                   	pop    %ebx
    2eac:	5e                   	pop    %esi
    2ead:	5d                   	pop    %ebp
    2eae:	c3                   	ret    
    2eaf:	90                   	nop
    2eb0:	83 ec 0c             	sub    $0xc,%esp
    2eb3:	68 88 7f 00 00       	push   $0x7f88
    2eb8:	e8 c3 31 00 00       	call   6080 <fibril_mutex_unlock@plt>
    2ebd:	83 c4 0c             	add    $0xc,%esp
    2ec0:	68 ee 00 00 00       	push   $0xee
    2ec5:	68 4f 5a 00 00       	push   $0x5a4f
    2eca:	68 57 5a 00 00       	push   $0x5a57
    2ecf:	e8 7c 31 00 00       	call   6050 <assert_abort@plt>
    2ed4:	8d b6 00 00 00 00    	lea    0x0(%esi),%esi
    2eda:	8d bf 00 00 00 00    	lea    0x0(%edi),%edi

00002ee0 <block_cache_init>:
    2ee0:	55                   	push   %ebp
    2ee1:	89 e5                	mov    %esp,%ebp
    2ee3:	56                   	push   %esi
    2ee4:	53                   	push   %ebx
    2ee5:	83 ec 0c             	sub    $0xc,%esp
    2ee8:	8b 75 08             	mov    0x8(%ebp),%esi
    2eeb:	68 88 7f 00 00       	push   $0x7f88
    2ef0:	e8 7b 33 00 00       	call   6270 <fibril_mutex_lock@plt>
    2ef5:	8b 1d 84 7f 00 00    	mov    0x7f84,%ebx
    2efb:	83 c4 10             	add    $0x10,%esp
    2efe:	81 fb 80 7f 00 00    	cmp    $0x7f80,%ebx
    2f04:	75 19                	jne    2f1f <block_cache_init+0x3f>
    2f06:	e9 ad 00 00 00       	jmp    2fb8 <block_cache_init+0xd8>
    2f0b:	90                   	nop
    2f0c:	8d 74 26 00          	lea    0x0(%esi,%eiz,1),%esi
    2f10:	8b 5b 04             	mov    0x4(%ebx),%ebx
    2f13:	81 fb 80 7f 00 00    	cmp    $0x7f80,%ebx
    2f19:	0f 84 99 00 00 00    	je     2fb8 <block_cache_init+0xd8>
    2f1f:	3b 73 08             	cmp    0x8(%ebx),%esi
    2f22:	75 ec                	jne    2f10 <block_cache_init+0x30>
    2f24:	83 ec 0c             	sub    $0xc,%esp
    2f27:	68 88 7f 00 00       	push   $0x7f88
    2f2c:	e8 4f 31 00 00       	call   6080 <fibril_mutex_unlock@plt>
    2f31:	8b 43 2c             	mov    0x2c(%ebx),%eax
    2f34:	83 c4 10             	add    $0x10,%esp
    2f37:	85 c0                	test   %eax,%eax
    2f39:	0f 85 99 00 00 00    	jne    2fd8 <block_cache_init+0xf8>
    2f3f:	83 ec 0c             	sub    $0xc,%esp
    2f42:	6a 48                	push   $0x48
    2f44:	e8 27 30 00 00       	call   5f70 <malloc@plt>
    2f49:	83 c4 10             	add    $0x10,%esp
    2f4c:	89 c6                	mov    %eax,%esi
    2f4e:	85 c0                	test   %eax,%eax
    2f50:	0f 84 b4 00 00 00    	je     300a <block_cache_init+0x12a>
    2f56:	83 ec 0c             	sub    $0xc,%esp
    2f59:	50                   	push   %eax
    2f5a:	e8 41 31 00 00       	call   60a0 <fibril_mutex_initialize@plt>
    2f5f:	8d 46 3c             	lea    0x3c(%esi),%eax
    2f62:	31 d2                	xor    %edx,%edx
    2f64:	89 46 3c             	mov    %eax,0x3c(%esi)
    2f67:	89 46 40             	mov    %eax,0x40(%esi)
    2f6a:	8b 45 0c             	mov    0xc(%ebp),%eax
    2f6d:	83 c4 10             	add    $0x10,%esp
    2f70:	89 46 10             	mov    %eax,0x10(%esi)
    2f73:	8b 45 10             	mov    0x10(%ebp),%eax
    2f76:	89 46 18             	mov    %eax,0x18(%esi)
    2f79:	8b 45 14             	mov    0x14(%ebp),%eax
    2f7c:	89 46 44             	mov    %eax,0x44(%esi)
    2f7f:	8b 45 0c             	mov    0xc(%ebp),%eax
    2f82:	f7 73 28             	divl   0x28(%ebx)
    2f85:	c7 46 1c 00 00 00 00 	movl   $0x0,0x1c(%esi)
    2f8c:	85 d2                	test   %edx,%edx
    2f8e:	75 54                	jne    2fe4 <block_cache_init+0x104>
    2f90:	89 46 14             	mov    %eax,0x14(%esi)
    2f93:	8d 46 20             	lea    0x20(%esi),%eax
    2f96:	68 6c 7f 00 00       	push   $0x7f6c
    2f9b:	6a 00                	push   $0x0
    2f9d:	6a 00                	push   $0x0
    2f9f:	50                   	push   %eax
    2fa0:	e8 0b 2f 00 00       	call   5eb0 <hash_table_create@plt>
    2fa5:	83 c4 10             	add    $0x10,%esp
    2fa8:	84 c0                	test   %al,%al
    2faa:	74 4b                	je     2ff7 <block_cache_init+0x117>
    2fac:	89 73 2c             	mov    %esi,0x2c(%ebx)
    2faf:	31 c0                	xor    %eax,%eax
    2fb1:	8d 65 f8             	lea    -0x8(%ebp),%esp
    2fb4:	5b                   	pop    %ebx
    2fb5:	5e                   	pop    %esi
    2fb6:	5d                   	pop    %ebp
    2fb7:	c3                   	ret    
    2fb8:	83 ec 0c             	sub    $0xc,%esp
    2fbb:	68 88 7f 00 00       	push   $0x7f88
    2fc0:	e8 bb 30 00 00       	call   6080 <fibril_mutex_unlock@plt>
    2fc5:	83 c4 10             	add    $0x10,%esp
    2fc8:	8d 65 f8             	lea    -0x8(%ebp),%esp
    2fcb:	83 c8 ff             	or     $0xffffffff,%eax
    2fce:	5b                   	pop    %ebx
    2fcf:	5e                   	pop    %esi
    2fd0:	5d                   	pop    %ebp
    2fd1:	c3                   	ret    
    2fd2:	8d b6 00 00 00 00    	lea    0x0(%esi),%esi
    2fd8:	8d 65 f8             	lea    -0x8(%ebp),%esp
    2fdb:	b8 f7 ff ff ff       	mov    $0xfffffff7,%eax
    2fe0:	5b                   	pop    %ebx
    2fe1:	5e                   	pop    %esi
    2fe2:	5d                   	pop    %ebp
    2fe3:	c3                   	ret    
    2fe4:	83 ec 0c             	sub    $0xc,%esp
    2fe7:	56                   	push   %esi
    2fe8:	e8 73 32 00 00       	call   6260 <free@plt>
    2fed:	83 c4 10             	add    $0x10,%esp
    2ff0:	b8 f5 ff ff ff       	mov    $0xfffffff5,%eax
    2ff5:	eb ba                	jmp    2fb1 <block_cache_init+0xd1>
    2ff7:	83 ec 0c             	sub    $0xc,%esp
    2ffa:	56                   	push   %esi
    2ffb:	e8 60 32 00 00       	call   6260 <free@plt>
    3000:	83 c4 10             	add    $0x10,%esp
    3003:	b8 fe ff ff ff       	mov    $0xfffffffe,%eax
    3008:	eb a7                	jmp    2fb1 <block_cache_init+0xd1>
    300a:	b8 fe ff ff ff       	mov    $0xfffffffe,%eax
    300f:	eb a0                	jmp    2fb1 <block_cache_init+0xd1>
    3011:	eb 0d                	jmp    3020 <block_cache_fini>
    3013:	90                   	nop
    3014:	90                   	nop
    3015:	90                   	nop
    3016:	90                   	nop
    3017:	90                   	nop
    3018:	90                   	nop
    3019:	90                   	nop
    301a:	90                   	nop
    301b:	90                   	nop
    301c:	90                   	nop
    301d:	90                   	nop
    301e:	90                   	nop
    301f:	90                   	nop

00003020 <block_cache_fini>:
    3020:	55                   	push   %ebp
    3021:	89 e5                	mov    %esp,%ebp
    3023:	57                   	push   %edi
    3024:	56                   	push   %esi
    3025:	53                   	push   %ebx
    3026:	83 ec 38             	sub    $0x38,%esp
    3029:	8b 5d 08             	mov    0x8(%ebp),%ebx
    302c:	68 88 7f 00 00       	push   $0x7f88
    3031:	e8 3a 32 00 00       	call   6270 <fibril_mutex_lock@plt>
    3036:	8b 3d 84 7f 00 00    	mov    0x7f84,%edi
    303c:	83 c4 10             	add    $0x10,%esp
    303f:	81 ff 80 7f 00 00    	cmp    $0x7f80,%edi
    3045:	75 18                	jne    305f <block_cache_fini+0x3f>
    3047:	e9 2c 01 00 00       	jmp    3178 <block_cache_fini+0x158>
    304c:	8d 74 26 00          	lea    0x0(%esi,%eiz,1),%esi
    3050:	8b 7f 04             	mov    0x4(%edi),%edi
    3053:	81 ff 80 7f 00 00    	cmp    $0x7f80,%edi
    3059:	0f 84 19 01 00 00    	je     3178 <block_cache_fini+0x158>
    305f:	3b 5f 08             	cmp    0x8(%edi),%ebx
    3062:	75 ec                	jne    3050 <block_cache_fini+0x30>
    3064:	83 ec 0c             	sub    $0xc,%esp
    3067:	68 88 7f 00 00       	push   $0x7f88
    306c:	e8 0f 30 00 00       	call   6080 <fibril_mutex_unlock@plt>
    3071:	8b 47 2c             	mov    0x2c(%edi),%eax
    3074:	83 c4 10             	add    $0x10,%esp
    3077:	89 45 e0             	mov    %eax,-0x20(%ebp)
    307a:	85 c0                	test   %eax,%eax
    307c:	0f 84 42 01 00 00    	je     31c4 <block_cache_fini+0x1a4>
    3082:	8b 58 40             	mov    0x40(%eax),%ebx
    3085:	8d 70 3c             	lea    0x3c(%eax),%esi
    3088:	83 c0 20             	add    $0x20,%eax
    308b:	89 75 dc             	mov    %esi,-0x24(%ebp)
    308e:	89 45 d8             	mov    %eax,-0x28(%ebp)
    3091:	39 de                	cmp    %ebx,%esi
    3093:	0f 84 2f 01 00 00    	je     31c8 <block_cache_fini+0x1a8>
    3099:	89 da                	mov    %ebx,%edx
    309b:	89 7d d0             	mov    %edi,-0x30(%ebp)
    309e:	eb 35                	jmp    30d5 <block_cache_fini+0xb5>
    30a0:	8b 55 d8             	mov    -0x28(%ebp),%edx
    30a3:	8d 43 50             	lea    0x50(%ebx),%eax
    30a6:	89 d6                	mov    %edx,%esi
    30a8:	51                   	push   %ecx
    30a9:	51                   	push   %ecx
    30aa:	50                   	push   %eax
    30ab:	52                   	push   %edx
    30ac:	e8 5f 30 00 00       	call   6110 <hash_table_remove_item@plt>
    30b1:	8b 43 58             	mov    0x58(%ebx),%eax
    30b4:	5f                   	pop    %edi
    30b5:	50                   	push   %eax
    30b6:	e8 a5 31 00 00       	call   6260 <free@plt>
    30bb:	89 1c 24             	mov    %ebx,(%esp)
    30be:	e8 9d 31 00 00       	call   6260 <free@plt>
    30c3:	8b 45 e0             	mov    -0x20(%ebp),%eax
    30c6:	83 c4 10             	add    $0x10,%esp
    30c9:	8b 50 40             	mov    0x40(%eax),%edx
    30cc:	3b 55 dc             	cmp    -0x24(%ebp),%edx
    30cf:	0f 84 c3 00 00 00    	je     3198 <block_cache_fini+0x178>
    30d5:	8d 5a b8             	lea    -0x48(%edx),%ebx
    30d8:	8b 4b 48             	mov    0x48(%ebx),%ecx
    30db:	85 c9                	test   %ecx,%ecx
    30dd:	74 0f                	je     30ee <block_cache_fini+0xce>
    30df:	8b 43 4c             	mov    0x4c(%ebx),%eax
    30e2:	85 c0                	test   %eax,%eax
    30e4:	74 08                	je     30ee <block_cache_fini+0xce>
    30e6:	89 08                	mov    %ecx,(%eax)
    30e8:	8b 4b 48             	mov    0x48(%ebx),%ecx
    30eb:	89 41 04             	mov    %eax,0x4(%ecx)
    30ee:	c7 43 48 00 00 00 00 	movl   $0x0,0x48(%ebx)
    30f5:	c7 43 4c 00 00 00 00 	movl   $0x0,0x4c(%ebx)
    30fc:	80 7b 14 00          	cmpb   $0x0,0x14(%ebx)
    3100:	74 9e                	je     30a0 <block_cache_fini+0x80>
    3102:	8b 45 e0             	mov    -0x20(%ebp),%eax
    3105:	8b 73 38             	mov    0x38(%ebx),%esi
    3108:	8b 7b 3c             	mov    0x3c(%ebx),%edi
    310b:	8b 48 14             	mov    0x14(%eax),%ecx
    310e:	50                   	push   %eax
    310f:	50                   	push   %eax
    3110:	89 4d d4             	mov    %ecx,-0x2c(%ebp)
    3113:	8b 53 40             	mov    0x40(%ebx),%edx
    3116:	8b 43 58             	mov    0x58(%ebx),%eax
    3119:	52                   	push   %edx
    311a:	50                   	push   %eax
    311b:	8b 45 d0             	mov    -0x30(%ebp),%eax
    311e:	51                   	push   %ecx
    311f:	57                   	push   %edi
    3120:	56                   	push   %esi
    3121:	8b 40 10             	mov    0x10(%eax),%eax
    3124:	50                   	push   %eax
    3125:	e8 c6 2d 00 00       	call   5ef0 <bd_write_blocks@plt>
    312a:	83 c4 20             	add    $0x20,%esp
    312d:	8b 4d d4             	mov    -0x2c(%ebp),%ecx
    3130:	85 c0                	test   %eax,%eax
    3132:	0f 84 68 ff ff ff    	je     30a0 <block_cache_fini+0x80>
    3138:	89 7d e4             	mov    %edi,-0x1c(%ebp)
    313b:	8b 7d d0             	mov    -0x30(%ebp),%edi
    313e:	89 75 e0             	mov    %esi,-0x20(%ebp)
    3141:	89 ce                	mov    %ecx,%esi
    3143:	89 c1                	mov    %eax,%ecx
    3145:	50                   	push   %eax
    3146:	50                   	push   %eax
    3147:	8b 47 08             	mov    0x8(%edi),%eax
    314a:	50                   	push   %eax
    314b:	8b 45 e4             	mov    -0x1c(%ebp),%eax
    314e:	50                   	push   %eax
    314f:	8b 45 e0             	mov    -0x20(%ebp),%eax
    3152:	50                   	push   %eax
    3153:	56                   	push   %esi
    3154:	51                   	push   %ecx
    3155:	68 ec 5a 00 00       	push   $0x5aec
    315a:	89 4d e0             	mov    %ecx,-0x20(%ebp)
    315d:	e8 ee 2c 00 00       	call   5e50 <printf@plt>
    3162:	83 c4 20             	add    $0x20,%esp
    3165:	e8 56 2e 00 00       	call   5fc0 <stacktrace_print@plt>
    316a:	8b 4d e0             	mov    -0x20(%ebp),%ecx
    316d:	8d 65 f4             	lea    -0xc(%ebp),%esp
    3170:	89 c8                	mov    %ecx,%eax
    3172:	5b                   	pop    %ebx
    3173:	5e                   	pop    %esi
    3174:	5f                   	pop    %edi
    3175:	5d                   	pop    %ebp
    3176:	c3                   	ret    
    3177:	90                   	nop
    3178:	83 ec 0c             	sub    $0xc,%esp
    317b:	68 88 7f 00 00       	push   $0x7f88
    3180:	e8 fb 2e 00 00       	call   6080 <fibril_mutex_unlock@plt>
    3185:	83 c4 10             	add    $0x10,%esp
    3188:	8d 65 f4             	lea    -0xc(%ebp),%esp
    318b:	83 c9 ff             	or     $0xffffffff,%ecx
    318e:	5b                   	pop    %ebx
    318f:	89 c8                	mov    %ecx,%eax
    3191:	5e                   	pop    %esi
    3192:	5f                   	pop    %edi
    3193:	5d                   	pop    %ebp
    3194:	c3                   	ret    
    3195:	8d 76 00             	lea    0x0(%esi),%esi
    3198:	8b 7d d0             	mov    -0x30(%ebp),%edi
    319b:	83 ec 0c             	sub    $0xc,%esp
    319e:	56                   	push   %esi
    319f:	e8 ac 30 00 00       	call   6250 <hash_table_destroy@plt>
    31a4:	c7 47 2c 00 00 00 00 	movl   $0x0,0x2c(%edi)
    31ab:	8b 55 e0             	mov    -0x20(%ebp),%edx
    31ae:	58                   	pop    %eax
    31af:	52                   	push   %edx
    31b0:	e8 ab 30 00 00       	call   6260 <free@plt>
    31b5:	83 c4 10             	add    $0x10,%esp
    31b8:	8d 65 f4             	lea    -0xc(%ebp),%esp
    31bb:	31 c9                	xor    %ecx,%ecx
    31bd:	89 c8                	mov    %ecx,%eax
    31bf:	5b                   	pop    %ebx
    31c0:	5e                   	pop    %esi
    31c1:	5f                   	pop    %edi
    31c2:	5d                   	pop    %ebp
    31c3:	c3                   	ret    
    31c4:	31 c9                	xor    %ecx,%ecx
    31c6:	eb a5                	jmp    316d <block_cache_fini+0x14d>
    31c8:	8b 45 e0             	mov    -0x20(%ebp),%eax
    31cb:	8d 70 20             	lea    0x20(%eax),%esi
    31ce:	eb cb                	jmp    319b <block_cache_fini+0x17b>

000031d0 <block_fini>:
    31d0:	55                   	push   %ebp
    31d1:	89 e5                	mov    %esp,%ebp
    31d3:	56                   	push   %esi
    31d4:	53                   	push   %ebx
    31d5:	83 ec 0c             	sub    $0xc,%esp
    31d8:	8b 75 08             	mov    0x8(%ebp),%esi
    31db:	68 88 7f 00 00       	push   $0x7f88
    31e0:	e8 8b 30 00 00       	call   6270 <fibril_mutex_lock@plt>
    31e5:	8b 1d 84 7f 00 00    	mov    0x7f84,%ebx
    31eb:	83 c4 10             	add    $0x10,%esp
    31ee:	81 fb 80 7f 00 00    	cmp    $0x7f80,%ebx
    31f4:	75 19                	jne    320f <block_fini+0x3f>
    31f6:	e9 c5 00 00 00       	jmp    32c0 <block_fini+0xf0>
    31fb:	90                   	nop
    31fc:	8d 74 26 00          	lea    0x0(%esi,%eiz,1),%esi
    3200:	8b 5b 04             	mov    0x4(%ebx),%ebx
    3203:	81 fb 80 7f 00 00    	cmp    $0x7f80,%ebx
    3209:	0f 84 b1 00 00 00    	je     32c0 <block_fini+0xf0>
    320f:	3b 73 08             	cmp    0x8(%ebx),%esi
    3212:	75 ec                	jne    3200 <block_fini+0x30>
    3214:	83 ec 0c             	sub    $0xc,%esp
    3217:	68 88 7f 00 00       	push   $0x7f88
    321c:	e8 5f 2e 00 00       	call   6080 <fibril_mutex_unlock@plt>
    3221:	8b 43 2c             	mov    0x2c(%ebx),%eax
    3224:	83 c4 10             	add    $0x10,%esp
    3227:	85 c0                	test   %eax,%eax
    3229:	74 0c                	je     3237 <block_fini+0x67>
    322b:	83 ec 0c             	sub    $0xc,%esp
    322e:	56                   	push   %esi
    322f:	e8 ec fd ff ff       	call   3020 <block_cache_fini>
    3234:	83 c4 10             	add    $0x10,%esp
    3237:	6a 00                	push   $0x0
    3239:	6a 00                	push   $0x0
    323b:	6a 00                	push   $0x0
    323d:	8b 73 10             	mov    0x10(%ebx),%esi
    3240:	56                   	push   %esi
    3241:	e8 4a 2f 00 00       	call   6190 <bd_sync_cache@plt>
    3246:	c7 04 24 88 7f 00 00 	movl   $0x7f88,(%esp)
    324d:	e8 1e 30 00 00       	call   6270 <fibril_mutex_lock@plt>
    3252:	8b 13                	mov    (%ebx),%edx
    3254:	83 c4 10             	add    $0x10,%esp
    3257:	85 d2                	test   %edx,%edx
    3259:	74 0e                	je     3269 <block_fini+0x99>
    325b:	8b 43 04             	mov    0x4(%ebx),%eax
    325e:	85 c0                	test   %eax,%eax
    3260:	74 07                	je     3269 <block_fini+0x99>
    3262:	89 10                	mov    %edx,(%eax)
    3264:	8b 13                	mov    (%ebx),%edx
    3266:	89 42 04             	mov    %eax,0x4(%edx)
    3269:	83 ec 0c             	sub    $0xc,%esp
    326c:	c7 03 00 00 00 00    	movl   $0x0,(%ebx)
    3272:	c7 43 04 00 00 00 00 	movl   $0x0,0x4(%ebx)
    3279:	68 88 7f 00 00       	push   $0x7f88
    327e:	e8 fd 2d 00 00       	call   6080 <fibril_mutex_unlock@plt>
    3283:	8b 43 14             	mov    0x14(%ebx),%eax
    3286:	83 c4 10             	add    $0x10,%esp
    3289:	85 c0                	test   %eax,%eax
    328b:	74 0c                	je     3299 <block_fini+0xc9>
    328d:	83 ec 0c             	sub    $0xc,%esp
    3290:	50                   	push   %eax
    3291:	e8 ca 2f 00 00       	call   6260 <free@plt>
    3296:	83 c4 10             	add    $0x10,%esp
    3299:	83 ec 0c             	sub    $0xc,%esp
    329c:	8b 43 10             	mov    0x10(%ebx),%eax
    329f:	50                   	push   %eax
    32a0:	e8 9b 2c 00 00       	call   5f40 <bd_close@plt>
    32a5:	8b 4b 0c             	mov    0xc(%ebx),%ecx
    32a8:	5a                   	pop    %edx
    32a9:	51                   	push   %ecx
    32aa:	e8 b1 2b 00 00       	call   5e60 <async_hangup@plt>
    32af:	89 5d 08             	mov    %ebx,0x8(%ebp)
    32b2:	83 c4 10             	add    $0x10,%esp
    32b5:	8d 65 f8             	lea    -0x8(%ebp),%esp
    32b8:	5b                   	pop    %ebx
    32b9:	5e                   	pop    %esi
    32ba:	5d                   	pop    %ebp
    32bb:	e9 a0 2f 00 00       	jmp    6260 <free@plt>
    32c0:	83 ec 0c             	sub    $0xc,%esp
    32c3:	68 88 7f 00 00       	push   $0x7f88
    32c8:	e8 b3 2d 00 00       	call   6080 <fibril_mutex_unlock@plt>
    32cd:	83 c4 0c             	add    $0xc,%esp
    32d0:	68 bf 00 00 00       	push   $0xbf
    32d5:	68 4f 5a 00 00       	push   $0x5a4f
    32da:	68 57 5a 00 00       	push   $0x5a57
    32df:	e8 6c 2d 00 00       	call   6050 <assert_abort@plt>
    32e4:	8d b6 00 00 00 00    	lea    0x0(%esi),%esi
    32ea:	8d bf 00 00 00 00    	lea    0x0(%edi),%edi

000032f0 <block_put>:
    32f0:	55                   	push   %ebp
    32f1:	89 e5                	mov    %esp,%ebp
    32f3:	57                   	push   %edi
    32f4:	56                   	push   %esi
    32f5:	53                   	push   %ebx
    32f6:	83 ec 28             	sub    $0x28,%esp
    32f9:	8b 7d 08             	mov    0x8(%ebp),%edi
    32fc:	8b 5f 2c             	mov    0x2c(%edi),%ebx
    32ff:	68 88 7f 00 00       	push   $0x7f88
    3304:	e8 67 2f 00 00       	call   6270 <fibril_mutex_lock@plt>
    3309:	8b 35 84 7f 00 00    	mov    0x7f84,%esi
    330f:	83 c4 10             	add    $0x10,%esp
    3312:	81 fe 80 7f 00 00    	cmp    $0x7f80,%esi
    3318:	75 15                	jne    332f <block_put+0x3f>
    331a:	e9 c1 01 00 00       	jmp    34e0 <block_put+0x1f0>
    331f:	90                   	nop
    3320:	8b 76 04             	mov    0x4(%esi),%esi
    3323:	81 fe 80 7f 00 00    	cmp    $0x7f80,%esi
    3329:	0f 84 b1 01 00 00    	je     34e0 <block_put+0x1f0>
    332f:	3b 5e 08             	cmp    0x8(%esi),%ebx
    3332:	75 ec                	jne    3320 <block_put+0x30>
    3334:	83 ec 0c             	sub    $0xc,%esp
    3337:	68 88 7f 00 00       	push   $0x7f88
    333c:	e8 3f 2d 00 00       	call   6080 <fibril_mutex_unlock@plt>
    3341:	8b 5e 2c             	mov    0x2c(%esi),%ebx
    3344:	83 c4 10             	add    $0x10,%esp
    3347:	85 db                	test   %ebx,%ebx
    3349:	0f 84 6b 02 00 00    	je     35ba <block_put+0x2ca>
    334f:	8b 47 10             	mov    0x10(%edi),%eax
    3352:	85 c0                	test   %eax,%eax
    3354:	0f 84 75 02 00 00    	je     35cf <block_put+0x2df>
    335a:	c7 45 e4 00 00 00 00 	movl   $0x0,-0x1c(%ebp)
    3361:	89 75 e0             	mov    %esi,-0x20(%ebp)
    3364:	8d 74 26 00          	lea    0x0(%esi,%eiz,1),%esi
    3368:	83 ec 0c             	sub    $0xc,%esp
    336b:	53                   	push   %ebx
    336c:	e8 ff 2e 00 00       	call   6270 <fibril_mutex_lock@plt>
    3371:	8b 43 44             	mov    0x44(%ebx),%eax
    3374:	8b 73 1c             	mov    0x1c(%ebx),%esi
    3377:	89 45 d8             	mov    %eax,-0x28(%ebp)
    337a:	89 1c 24             	mov    %ebx,(%esp)
    337d:	e8 fe 2c 00 00       	call   6080 <fibril_mutex_unlock@plt>
    3382:	89 3c 24             	mov    %edi,(%esp)
    3385:	e8 e6 2e 00 00       	call   6270 <fibril_mutex_lock@plt>
    338a:	83 c4 10             	add    $0x10,%esp
    338d:	80 7f 15 00          	cmpb   $0x0,0x15(%edi)
    3391:	0f 85 39 01 00 00    	jne    34d0 <block_put+0x1e0>
    3397:	80 7f 14 00          	cmpb   $0x0,0x14(%edi)
    339b:	74 0a                	je     33a7 <block_put+0xb7>
    339d:	83 7f 10 01          	cmpl   $0x1,0x10(%edi)
    33a1:	0f 84 b9 00 00 00    	je     3460 <block_put+0x170>
    33a7:	83 ec 0c             	sub    $0xc,%esp
    33aa:	57                   	push   %edi
    33ab:	e8 d0 2c 00 00       	call   6080 <fibril_mutex_unlock@plt>
    33b0:	89 1c 24             	mov    %ebx,(%esp)
    33b3:	e8 b8 2e 00 00       	call   6270 <fibril_mutex_lock@plt>
    33b8:	89 3c 24             	mov    %edi,(%esp)
    33bb:	e8 b0 2e 00 00       	call   6270 <fibril_mutex_lock@plt>
    33c0:	8b 47 10             	mov    0x10(%edi),%eax
    33c3:	83 c4 10             	add    $0x10,%esp
    33c6:	48                   	dec    %eax
    33c7:	89 47 10             	mov    %eax,0x10(%edi)
    33ca:	85 c0                	test   %eax,%eax
    33cc:	0f 85 51 01 00 00    	jne    3523 <block_put+0x233>
    33d2:	83 7b 1c 14          	cmpl   $0x14,0x1c(%ebx)
    33d6:	77 48                	ja     3420 <block_put+0x130>
    33d8:	8b 45 e4             	mov    -0x1c(%ebp),%eax
    33db:	85 c0                	test   %eax,%eax
    33dd:	75 41                	jne    3420 <block_put+0x130>
    33df:	83 7b 44 01          	cmpl   $0x1,0x44(%ebx)
    33e3:	0f 84 1b 01 00 00    	je     3504 <block_put+0x214>
    33e9:	80 7f 14 00          	cmpb   $0x0,0x14(%edi)
    33ed:	0f 84 11 01 00 00    	je     3504 <block_put+0x214>
    33f3:	83 ec 0c             	sub    $0xc,%esp
    33f6:	c7 47 10 01 00 00 00 	movl   $0x1,0x10(%edi)
    33fd:	57                   	push   %edi
    33fe:	e8 7d 2c 00 00       	call   6080 <fibril_mutex_unlock@plt>
    3403:	89 1c 24             	mov    %ebx,(%esp)
    3406:	e8 75 2c 00 00       	call   6080 <fibril_mutex_unlock@plt>
    340b:	83 c4 10             	add    $0x10,%esp
    340e:	c7 45 e4 00 00 00 00 	movl   $0x0,-0x1c(%ebp)
    3415:	e9 4e ff ff ff       	jmp    3368 <block_put+0x78>
    341a:	8d b6 00 00 00 00    	lea    0x0(%esi),%esi
    3420:	80 7f 14 00          	cmpb   $0x0,0x14(%edi)
    3424:	0f 84 4a 01 00 00    	je     3574 <block_put+0x284>
    342a:	8b 47 44             	mov    0x44(%edi),%eax
    342d:	c7 47 10 01 00 00 00 	movl   $0x1,0x10(%edi)
    3434:	83 f8 09             	cmp    $0x9,%eax
    3437:	0f 8f 1b 01 00 00    	jg     3558 <block_put+0x268>
    343d:	83 ec 0c             	sub    $0xc,%esp
    3440:	40                   	inc    %eax
    3441:	89 47 44             	mov    %eax,0x44(%edi)
    3444:	57                   	push   %edi
    3445:	e8 36 2c 00 00       	call   6080 <fibril_mutex_unlock@plt>
    344a:	89 1c 24             	mov    %ebx,(%esp)
    344d:	e8 2e 2c 00 00       	call   6080 <fibril_mutex_unlock@plt>
    3452:	83 c4 10             	add    $0x10,%esp
    3455:	e9 0e ff ff ff       	jmp    3368 <block_put+0x78>
    345a:	8d b6 00 00 00 00    	lea    0x0(%esi),%esi
    3460:	83 fe 14             	cmp    $0x14,%esi
    3463:	77 0a                	ja     346f <block_put+0x17f>
    3465:	83 7d d8 01          	cmpl   $0x1,-0x28(%ebp)
    3469:	0f 84 38 ff ff ff    	je     33a7 <block_put+0xb7>
    346f:	8b 47 38             	mov    0x38(%edi),%eax
    3472:	8b 57 3c             	mov    0x3c(%edi),%edx
    3475:	8b 73 14             	mov    0x14(%ebx),%esi
    3478:	51                   	push   %ecx
    3479:	51                   	push   %ecx
    347a:	89 45 d8             	mov    %eax,-0x28(%ebp)
    347d:	8b 4f 40             	mov    0x40(%edi),%ecx
    3480:	89 55 dc             	mov    %edx,-0x24(%ebp)
    3483:	51                   	push   %ecx
    3484:	8b 4f 58             	mov    0x58(%edi),%ecx
    3487:	51                   	push   %ecx
    3488:	56                   	push   %esi
    3489:	52                   	push   %edx
    348a:	50                   	push   %eax
    348b:	8b 45 e0             	mov    -0x20(%ebp),%eax
    348e:	8b 40 10             	mov    0x10(%eax),%eax
    3491:	50                   	push   %eax
    3492:	e8 59 2a 00 00       	call   5ef0 <bd_write_blocks@plt>
    3497:	83 c4 20             	add    $0x20,%esp
    349a:	89 45 e4             	mov    %eax,-0x1c(%ebp)
    349d:	85 c0                	test   %eax,%eax
    349f:	0f 84 a3 00 00 00    	je     3548 <block_put+0x258>
    34a5:	50                   	push   %eax
    34a6:	50                   	push   %eax
    34a7:	8b 45 e0             	mov    -0x20(%ebp),%eax
    34aa:	8b 55 dc             	mov    -0x24(%ebp),%edx
    34ad:	8b 4d d8             	mov    -0x28(%ebp),%ecx
    34b0:	8b 40 08             	mov    0x8(%eax),%eax
    34b3:	50                   	push   %eax
    34b4:	52                   	push   %edx
    34b5:	51                   	push   %ecx
    34b6:	56                   	push   %esi
    34b7:	8b 75 e4             	mov    -0x1c(%ebp),%esi
    34ba:	56                   	push   %esi
    34bb:	68 ec 5a 00 00       	push   $0x5aec
    34c0:	e8 8b 29 00 00       	call   5e50 <printf@plt>
    34c5:	83 c4 20             	add    $0x20,%esp
    34c8:	e8 f3 2a 00 00       	call   5fc0 <stacktrace_print@plt>
    34cd:	8d 76 00             	lea    0x0(%esi),%esi
    34d0:	c6 47 14 00          	movb   $0x0,0x14(%edi)
    34d4:	e9 ce fe ff ff       	jmp    33a7 <block_put+0xb7>
    34d9:	8d b4 26 00 00 00 00 	lea    0x0(%esi,%eiz,1),%esi
    34e0:	83 ec 0c             	sub    $0xc,%esp
    34e3:	68 88 7f 00 00       	push   $0x7f88
    34e8:	e8 93 2b 00 00       	call   6080 <fibril_mutex_unlock@plt>
    34ed:	83 c4 0c             	add    $0xc,%esp
    34f0:	68 4c 02 00 00       	push   $0x24c
    34f5:	68 4f 5a 00 00       	push   $0x5a4f
    34fa:	68 57 5a 00 00       	push   $0x5a57
    34ff:	e8 4c 2b 00 00       	call   6050 <assert_abort@plt>
    3504:	8d 4b 3c             	lea    0x3c(%ebx),%ecx
    3507:	8d 47 48             	lea    0x48(%edi),%eax
    350a:	89 4f 4c             	mov    %ecx,0x4c(%edi)
    350d:	8b 4b 3c             	mov    0x3c(%ebx),%ecx
    3510:	89 4f 48             	mov    %ecx,0x48(%edi)
    3513:	c7 45 e4 00 00 00 00 	movl   $0x0,-0x1c(%ebp)
    351a:	8b 4b 3c             	mov    0x3c(%ebx),%ecx
    351d:	89 41 04             	mov    %eax,0x4(%ecx)
    3520:	89 43 3c             	mov    %eax,0x3c(%ebx)
    3523:	83 ec 0c             	sub    $0xc,%esp
    3526:	57                   	push   %edi
    3527:	e8 54 2b 00 00       	call   6080 <fibril_mutex_unlock@plt>
    352c:	89 1c 24             	mov    %ebx,(%esp)
    352f:	e8 4c 2b 00 00       	call   6080 <fibril_mutex_unlock@plt>
    3534:	8b 45 e4             	mov    -0x1c(%ebp),%eax
    3537:	83 c4 10             	add    $0x10,%esp
    353a:	8d 65 f4             	lea    -0xc(%ebp),%esp
    353d:	5b                   	pop    %ebx
    353e:	5e                   	pop    %esi
    353f:	5f                   	pop    %edi
    3540:	5d                   	pop    %ebp
    3541:	c3                   	ret    
    3542:	8d b6 00 00 00 00    	lea    0x0(%esi),%esi
    3548:	c7 47 44 00 00 00 00 	movl   $0x0,0x44(%edi)
    354f:	c6 47 14 00          	movb   $0x0,0x14(%edi)
    3553:	e9 4f fe ff ff       	jmp    33a7 <block_put+0xb7>
    3558:	8b 75 e0             	mov    -0x20(%ebp),%esi
    355b:	8b 46 08             	mov    0x8(%esi),%eax
    355e:	50                   	push   %eax
    355f:	8b 47 34             	mov    0x34(%edi),%eax
    3562:	50                   	push   %eax
    3563:	8b 47 30             	mov    0x30(%edi),%eax
    3566:	50                   	push   %eax
    3567:	68 34 5b 00 00       	push   $0x5b34
    356c:	e8 df 28 00 00       	call   5e50 <printf@plt>
    3571:	83 c4 10             	add    $0x10,%esp
    3574:	50                   	push   %eax
    3575:	50                   	push   %eax
    3576:	8d 47 50             	lea    0x50(%edi),%eax
    3579:	50                   	push   %eax
    357a:	8d 43 20             	lea    0x20(%ebx),%eax
    357d:	50                   	push   %eax
    357e:	e8 8d 2b 00 00       	call   6110 <hash_table_remove_item@plt>
    3583:	89 3c 24             	mov    %edi,(%esp)
    3586:	e8 f5 2a 00 00       	call   6080 <fibril_mutex_unlock@plt>
    358b:	8b 4f 58             	mov    0x58(%edi),%ecx
    358e:	5a                   	pop    %edx
    358f:	51                   	push   %ecx
    3590:	e8 cb 2c 00 00       	call   6260 <free@plt>
    3595:	89 3c 24             	mov    %edi,(%esp)
    3598:	e8 c3 2c 00 00       	call   6260 <free@plt>
    359d:	8b 73 1c             	mov    0x1c(%ebx),%esi
    35a0:	4e                   	dec    %esi
    35a1:	89 73 1c             	mov    %esi,0x1c(%ebx)
    35a4:	89 1c 24             	mov    %ebx,(%esp)
    35a7:	e8 d4 2a 00 00       	call   6080 <fibril_mutex_unlock@plt>
    35ac:	8b 45 e4             	mov    -0x1c(%ebp),%eax
    35af:	83 c4 10             	add    $0x10,%esp
    35b2:	8d 65 f4             	lea    -0xc(%ebp),%esp
    35b5:	5b                   	pop    %ebx
    35b6:	5e                   	pop    %esi
    35b7:	5f                   	pop    %edi
    35b8:	5d                   	pop    %ebp
    35b9:	c3                   	ret    
    35ba:	50                   	push   %eax
    35bb:	68 4d 02 00 00       	push   $0x24d
    35c0:	68 4f 5a 00 00       	push   $0x5a4f
    35c5:	68 5e 5a 00 00       	push   $0x5a5e
    35ca:	e8 81 2a 00 00       	call   6050 <assert_abort@plt>
    35cf:	50                   	push   %eax
    35d0:	68 4e 02 00 00       	push   $0x24e
    35d5:	68 4f 5a 00 00       	push   $0x5a4f
    35da:	68 6c 5a 00 00       	push   $0x5a6c
    35df:	e8 6c 2a 00 00       	call   6050 <assert_abort@plt>
    35e4:	8d b6 00 00 00 00    	lea    0x0(%esi),%esi
    35ea:	8d bf 00 00 00 00    	lea    0x0(%edi),%edi

000035f0 <block_get>:
    35f0:	55                   	push   %ebp
    35f1:	89 e5                	mov    %esp,%ebp
    35f3:	57                   	push   %edi
    35f4:	56                   	push   %esi
    35f5:	53                   	push   %ebx
    35f6:	83 ec 48             	sub    $0x48,%esp
    35f9:	8b 45 10             	mov    0x10(%ebp),%eax
    35fc:	89 45 e0             	mov    %eax,-0x20(%ebp)
    35ff:	8b 45 14             	mov    0x14(%ebp),%eax
    3602:	68 88 7f 00 00       	push   $0x7f88
    3607:	89 45 e4             	mov    %eax,-0x1c(%ebp)
    360a:	e8 61 2c 00 00       	call   6270 <fibril_mutex_lock@plt>
    360f:	8b 35 84 7f 00 00    	mov    0x7f84,%esi
    3615:	83 c4 10             	add    $0x10,%esp
    3618:	81 fe 80 7f 00 00    	cmp    $0x7f80,%esi
    361e:	74 20                	je     3640 <block_get+0x50>
    3620:	8b 46 08             	mov    0x8(%esi),%eax
    3623:	39 45 0c             	cmp    %eax,0xc(%ebp)
    3626:	74 40                	je     3668 <block_get+0x78>
    3628:	8b 45 0c             	mov    0xc(%ebp),%eax
    362b:	eb 08                	jmp    3635 <block_get+0x45>
    362d:	8d 76 00             	lea    0x0(%esi),%esi
    3630:	3b 46 08             	cmp    0x8(%esi),%eax
    3633:	74 33                	je     3668 <block_get+0x78>
    3635:	8b 76 04             	mov    0x4(%esi),%esi
    3638:	81 fe 80 7f 00 00    	cmp    $0x7f80,%esi
    363e:	75 f0                	jne    3630 <block_get+0x40>
    3640:	83 ec 0c             	sub    $0xc,%esp
    3643:	68 88 7f 00 00       	push   $0x7f88
    3648:	e8 33 2a 00 00       	call   6080 <fibril_mutex_unlock@plt>
    364d:	83 c4 0c             	add    $0xc,%esp
    3650:	68 8a 01 00 00       	push   $0x18a
    3655:	68 4f 5a 00 00       	push   $0x5a4f
    365a:	68 57 5a 00 00       	push   $0x5a57
    365f:	e8 ec 29 00 00       	call   6050 <assert_abort@plt>
    3664:	8d 74 26 00          	lea    0x0(%esi,%eiz,1),%esi
    3668:	83 ec 0c             	sub    $0xc,%esp
    366b:	68 88 7f 00 00       	push   $0x7f88
    3670:	e8 0b 2a 00 00       	call   6080 <fibril_mutex_unlock@plt>
    3675:	8b 5e 2c             	mov    0x2c(%esi),%ebx
    3678:	83 c4 10             	add    $0x10,%esp
    367b:	85 db                	test   %ebx,%ebx
    367d:	0f 84 a5 04 00 00    	je     3b28 <block_get+0x538>
    3683:	8b 43 14             	mov    0x14(%ebx),%eax
    3686:	8b 4d e4             	mov    -0x1c(%ebp),%ecx
    3689:	89 45 d8             	mov    %eax,-0x28(%ebp)
    368c:	31 d2                	xor    %edx,%edx
    368e:	0f af c8             	imul   %eax,%ecx
    3691:	8b 45 d8             	mov    -0x28(%ebp),%eax
    3694:	89 55 dc             	mov    %edx,-0x24(%ebp)
    3697:	f7 65 e0             	mull   -0x20(%ebp)
    369a:	01 ca                	add    %ecx,%edx
    369c:	03 45 d8             	add    -0x28(%ebp),%eax
    369f:	13 55 dc             	adc    -0x24(%ebp),%edx
    36a2:	3b 56 24             	cmp    0x24(%esi),%edx
    36a5:	76 19                	jbe    36c0 <block_get+0xd0>
    36a7:	c7 45 d8 f6 fe ff ff 	movl   $0xfffffef6,-0x28(%ebp)
    36ae:	8b 45 d8             	mov    -0x28(%ebp),%eax
    36b1:	8d 65 f4             	lea    -0xc(%ebp),%esp
    36b4:	5b                   	pop    %ebx
    36b5:	5e                   	pop    %esi
    36b6:	5f                   	pop    %edi
    36b7:	5d                   	pop    %ebp
    36b8:	c3                   	ret    
    36b9:	8d b4 26 00 00 00 00 	lea    0x0(%esi,%eiz,1),%esi
    36c0:	0f 83 f2 01 00 00    	jae    38b8 <block_get+0x2c8>
    36c6:	8d 43 20             	lea    0x20(%ebx),%eax
    36c9:	89 75 c8             	mov    %esi,-0x38(%ebp)
    36cc:	89 45 d0             	mov    %eax,-0x30(%ebp)
    36cf:	8d 43 3c             	lea    0x3c(%ebx),%eax
    36d2:	89 45 d8             	mov    %eax,-0x28(%ebp)
    36d5:	8d 76 00             	lea    0x0(%esi),%esi
    36d8:	83 ec 0c             	sub    $0xc,%esp
    36db:	53                   	push   %ebx
    36dc:	e8 8f 2b 00 00       	call   6270 <fibril_mutex_lock@plt>
    36e1:	58                   	pop    %eax
    36e2:	8b 4d d0             	mov    -0x30(%ebp),%ecx
    36e5:	8d 45 e0             	lea    -0x20(%ebp),%eax
    36e8:	5a                   	pop    %edx
    36e9:	50                   	push   %eax
    36ea:	51                   	push   %ecx
    36eb:	e8 f0 2a 00 00       	call   61e0 <hash_table_find@plt>
    36f0:	83 c4 10             	add    $0x10,%esp
    36f3:	85 c0                	test   %eax,%eax
    36f5:	0f 85 cd 01 00 00    	jne    38c8 <block_get+0x2d8>
    36fb:	83 7b 1c 09          	cmpl   $0x9,0x1c(%ebx)
    36ff:	0f 86 d3 00 00 00    	jbe    37d8 <block_get+0x1e8>
    3705:	8b 73 40             	mov    0x40(%ebx),%esi
    3708:	3b 75 d8             	cmp    -0x28(%ebp),%esi
    370b:	0f 84 c7 00 00 00    	je     37d8 <block_get+0x1e8>
    3711:	83 ec 0c             	sub    $0xc,%esp
    3714:	8d 7e b8             	lea    -0x48(%esi),%edi
    3717:	57                   	push   %edi
    3718:	e8 53 2b 00 00       	call   6270 <fibril_mutex_lock@plt>
    371d:	83 c4 10             	add    $0x10,%esp
    3720:	80 7f 14 00          	cmpb   $0x0,0x14(%edi)
    3724:	0f 84 1e 02 00 00    	je     3948 <block_get+0x358>
    372a:	8b 4f 48             	mov    0x48(%edi),%ecx
    372d:	85 c9                	test   %ecx,%ecx
    372f:	74 0f                	je     3740 <block_get+0x150>
    3731:	8b 47 4c             	mov    0x4c(%edi),%eax
    3734:	85 c0                	test   %eax,%eax
    3736:	74 08                	je     3740 <block_get+0x150>
    3738:	89 08                	mov    %ecx,(%eax)
    373a:	8b 4f 48             	mov    0x48(%edi),%ecx
    373d:	89 41 04             	mov    %eax,0x4(%ecx)
    3740:	c7 47 48 00 00 00 00 	movl   $0x0,0x48(%edi)
    3747:	8b 45 d8             	mov    -0x28(%ebp),%eax
    374a:	89 47 4c             	mov    %eax,0x4c(%edi)
    374d:	8b 43 3c             	mov    0x3c(%ebx),%eax
    3750:	89 47 48             	mov    %eax,0x48(%edi)
    3753:	83 ec 0c             	sub    $0xc,%esp
    3756:	8b 43 3c             	mov    0x3c(%ebx),%eax
    3759:	89 70 04             	mov    %esi,0x4(%eax)
    375c:	89 73 3c             	mov    %esi,0x3c(%ebx)
    375f:	53                   	push   %ebx
    3760:	e8 1b 29 00 00       	call   6080 <fibril_mutex_unlock@plt>
    3765:	83 c4 08             	add    $0x8,%esp
    3768:	8b 77 40             	mov    0x40(%edi),%esi
    376b:	8b 4b 14             	mov    0x14(%ebx),%ecx
    376e:	8b 47 38             	mov    0x38(%edi),%eax
    3771:	8b 57 3c             	mov    0x3c(%edi),%edx
    3774:	56                   	push   %esi
    3775:	8b 77 58             	mov    0x58(%edi),%esi
    3778:	89 45 c0             	mov    %eax,-0x40(%ebp)
    377b:	56                   	push   %esi
    377c:	51                   	push   %ecx
    377d:	52                   	push   %edx
    377e:	50                   	push   %eax
    377f:	8b 45 c8             	mov    -0x38(%ebp),%eax
    3782:	89 4d d4             	mov    %ecx,-0x2c(%ebp)
    3785:	89 55 c4             	mov    %edx,-0x3c(%ebp)
    3788:	8b 40 10             	mov    0x10(%eax),%eax
    378b:	50                   	push   %eax
    378c:	e8 5f 27 00 00       	call   5ef0 <bd_write_blocks@plt>
    3791:	83 c4 20             	add    $0x20,%esp
    3794:	89 c6                	mov    %eax,%esi
    3796:	85 c0                	test   %eax,%eax
    3798:	8b 4d d4             	mov    -0x2c(%ebp),%ecx
    379b:	0f 85 a7 00 00 00    	jne    3848 <block_get+0x258>
    37a1:	c7 47 44 00 00 00 00 	movl   $0x0,0x44(%edi)
    37a8:	83 ec 0c             	sub    $0xc,%esp
    37ab:	c6 47 14 00          	movb   $0x0,0x14(%edi)
    37af:	53                   	push   %ebx
    37b0:	e8 8b 28 00 00       	call   6040 <fibril_mutex_trylock@plt>
    37b5:	83 c4 10             	add    $0x10,%esp
    37b8:	84 c0                	test   %al,%al
    37ba:	0f 85 b7 02 00 00    	jne    3a77 <block_get+0x487>
    37c0:	83 ec 0c             	sub    $0xc,%esp
    37c3:	57                   	push   %edi
    37c4:	e8 b7 28 00 00       	call   6080 <fibril_mutex_unlock@plt>
    37c9:	83 c4 10             	add    $0x10,%esp
    37cc:	e9 07 ff ff ff       	jmp    36d8 <block_get+0xe8>
    37d1:	8d b4 26 00 00 00 00 	lea    0x0(%esi,%eiz,1),%esi
    37d8:	83 ec 0c             	sub    $0xc,%esp
    37db:	6a 5c                	push   $0x5c
    37dd:	e8 8e 27 00 00       	call   5f70 <malloc@plt>
    37e2:	83 c4 10             	add    $0x10,%esp
    37e5:	89 c7                	mov    %eax,%edi
    37e7:	85 c0                	test   %eax,%eax
    37e9:	74 26                	je     3811 <block_get+0x221>
    37eb:	83 ec 0c             	sub    $0xc,%esp
    37ee:	8b 43 10             	mov    0x10(%ebx),%eax
    37f1:	50                   	push   %eax
    37f2:	e8 79 27 00 00       	call   5f70 <malloc@plt>
    37f7:	83 c4 10             	add    $0x10,%esp
    37fa:	89 47 58             	mov    %eax,0x58(%edi)
    37fd:	85 c0                	test   %eax,%eax
    37ff:	0f 85 14 03 00 00    	jne    3b19 <block_get+0x529>
    3805:	83 ec 0c             	sub    $0xc,%esp
    3808:	57                   	push   %edi
    3809:	e8 52 2a 00 00       	call   6260 <free@plt>
    380e:	83 c4 10             	add    $0x10,%esp
    3811:	8b 73 40             	mov    0x40(%ebx),%esi
    3814:	3b 75 d8             	cmp    -0x28(%ebp),%esi
    3817:	0f 85 f4 fe ff ff    	jne    3711 <block_get+0x121>
    381d:	83 ec 0c             	sub    $0xc,%esp
    3820:	31 ff                	xor    %edi,%edi
    3822:	53                   	push   %ebx
    3823:	e8 58 28 00 00       	call   6080 <fibril_mutex_unlock@plt>
    3828:	83 c4 10             	add    $0x10,%esp
    382b:	c7 45 d8 fe ff ff ff 	movl   $0xfffffffe,-0x28(%ebp)
    3832:	8b 45 08             	mov    0x8(%ebp),%eax
    3835:	89 38                	mov    %edi,(%eax)
    3837:	8b 45 d8             	mov    -0x28(%ebp),%eax
    383a:	8d 65 f4             	lea    -0xc(%ebp),%esp
    383d:	5b                   	pop    %ebx
    383e:	5e                   	pop    %esi
    383f:	5f                   	pop    %edi
    3840:	5d                   	pop    %ebp
    3841:	c3                   	ret    
    3842:	8d b6 00 00 00 00    	lea    0x0(%esi),%esi
    3848:	50                   	push   %eax
    3849:	50                   	push   %eax
    384a:	8b 45 c8             	mov    -0x38(%ebp),%eax
    384d:	8b 55 c0             	mov    -0x40(%ebp),%edx
    3850:	8b 40 08             	mov    0x8(%eax),%eax
    3853:	50                   	push   %eax
    3854:	8b 45 c4             	mov    -0x3c(%ebp),%eax
    3857:	50                   	push   %eax
    3858:	52                   	push   %edx
    3859:	51                   	push   %ecx
    385a:	56                   	push   %esi
    385b:	68 ec 5a 00 00       	push   $0x5aec
    3860:	e8 eb 25 00 00       	call   5e50 <printf@plt>
    3865:	83 c4 20             	add    $0x20,%esp
    3868:	e8 53 27 00 00       	call   5fc0 <stacktrace_print@plt>
    386d:	8b 47 44             	mov    0x44(%edi),%eax
    3870:	83 f8 09             	cmp    $0x9,%eax
    3873:	7f 1b                	jg     3890 <block_get+0x2a0>
    3875:	83 ec 0c             	sub    $0xc,%esp
    3878:	40                   	inc    %eax
    3879:	89 47 44             	mov    %eax,0x44(%edi)
    387c:	57                   	push   %edi
    387d:	e8 fe 27 00 00       	call   6080 <fibril_mutex_unlock@plt>
    3882:	83 c4 10             	add    $0x10,%esp
    3885:	e9 4e fe ff ff       	jmp    36d8 <block_get+0xe8>
    388a:	8d b6 00 00 00 00    	lea    0x0(%esi),%esi
    3890:	8b 45 c8             	mov    -0x38(%ebp),%eax
    3893:	8b 40 08             	mov    0x8(%eax),%eax
    3896:	50                   	push   %eax
    3897:	8b 47 34             	mov    0x34(%edi),%eax
    389a:	50                   	push   %eax
    389b:	8b 47 30             	mov    0x30(%edi),%eax
    389e:	50                   	push   %eax
    389f:	68 34 5b 00 00       	push   $0x5b34
    38a4:	e8 a7 25 00 00       	call   5e50 <printf@plt>
    38a9:	83 c4 10             	add    $0x10,%esp
    38ac:	e9 f7 fe ff ff       	jmp    37a8 <block_get+0x1b8>
    38b1:	8d b4 26 00 00 00 00 	lea    0x0(%esi,%eiz,1),%esi
    38b8:	3b 46 20             	cmp    0x20(%esi),%eax
    38bb:	0f 83 e6 fd ff ff    	jae    36a7 <block_get+0xb7>
    38c1:	e9 00 fe ff ff       	jmp    36c6 <block_get+0xd6>
    38c6:	66 90                	xchg   %ax,%ax
    38c8:	c7 45 d8 00 00 00 00 	movl   $0x0,-0x28(%ebp)
    38cf:	8d 78 b0             	lea    -0x50(%eax),%edi
    38d2:	83 ec 0c             	sub    $0xc,%esp
    38d5:	57                   	push   %edi
    38d6:	e8 95 29 00 00       	call   6270 <fibril_mutex_lock@plt>
    38db:	8b 47 10             	mov    0x10(%edi),%eax
    38de:	83 c4 10             	add    $0x10,%esp
    38e1:	85 c0                	test   %eax,%eax
    38e3:	8d 50 01             	lea    0x1(%eax),%edx
    38e6:	89 57 10             	mov    %edx,0x10(%edi)
    38e9:	75 24                	jne    390f <block_get+0x31f>
    38eb:	8b 57 48             	mov    0x48(%edi),%edx
    38ee:	85 d2                	test   %edx,%edx
    38f0:	74 0f                	je     3901 <block_get+0x311>
    38f2:	8b 47 4c             	mov    0x4c(%edi),%eax
    38f5:	85 c0                	test   %eax,%eax
    38f7:	74 08                	je     3901 <block_get+0x311>
    38f9:	89 10                	mov    %edx,(%eax)
    38fb:	8b 57 48             	mov    0x48(%edi),%edx
    38fe:	89 42 04             	mov    %eax,0x4(%edx)
    3901:	c7 47 48 00 00 00 00 	movl   $0x0,0x48(%edi)
    3908:	c7 47 4c 00 00 00 00 	movl   $0x0,0x4c(%edi)
    390f:	8a 47 15             	mov    0x15(%edi),%al
    3912:	84 c0                	test   %al,%al
    3914:	0f 85 51 01 00 00    	jne    3a6b <block_get+0x47b>
    391a:	8b 45 d8             	mov    -0x28(%ebp),%eax
    391d:	85 c0                	test   %eax,%eax
    391f:	0f 95 c0             	setne  %al
    3922:	83 ec 0c             	sub    $0xc,%esp
    3925:	88 45 d4             	mov    %al,-0x2c(%ebp)
    3928:	57                   	push   %edi
    3929:	e8 52 27 00 00       	call   6080 <fibril_mutex_unlock@plt>
    392e:	89 1c 24             	mov    %ebx,(%esp)
    3931:	e8 4a 27 00 00       	call   6080 <fibril_mutex_unlock@plt>
    3936:	83 c4 10             	add    $0x10,%esp
    3939:	8a 45 d4             	mov    -0x2c(%ebp),%al
    393c:	e9 05 01 00 00       	jmp    3a46 <block_get+0x456>
    3941:	8d b4 26 00 00 00 00 	lea    0x0(%esi,%eiz,1),%esi
    3948:	8b 75 c8             	mov    -0x38(%ebp),%esi
    394b:	83 ec 0c             	sub    $0xc,%esp
    394e:	57                   	push   %edi
    394f:	e8 2c 27 00 00       	call   6080 <fibril_mutex_unlock@plt>
    3954:	8b 57 48             	mov    0x48(%edi),%edx
    3957:	83 c4 10             	add    $0x10,%esp
    395a:	85 d2                	test   %edx,%edx
    395c:	74 0f                	je     396d <block_get+0x37d>
    395e:	8b 47 4c             	mov    0x4c(%edi),%eax
    3961:	85 c0                	test   %eax,%eax
    3963:	74 08                	je     396d <block_get+0x37d>
    3965:	89 10                	mov    %edx,(%eax)
    3967:	8b 57 48             	mov    0x48(%edi),%edx
    396a:	89 42 04             	mov    %eax,0x4(%edx)
    396d:	c7 47 48 00 00 00 00 	movl   $0x0,0x48(%edi)
    3974:	c7 47 4c 00 00 00 00 	movl   $0x0,0x4c(%edi)
    397b:	50                   	push   %eax
    397c:	50                   	push   %eax
    397d:	8d 47 50             	lea    0x50(%edi),%eax
    3980:	50                   	push   %eax
    3981:	8b 45 d0             	mov    -0x30(%ebp),%eax
    3984:	50                   	push   %eax
    3985:	e8 86 27 00 00       	call   6110 <hash_table_remove_item@plt>
    398a:	83 c4 10             	add    $0x10,%esp
    398d:	83 ec 0c             	sub    $0xc,%esp
    3990:	57                   	push   %edi
    3991:	e8 0a 27 00 00       	call   60a0 <fibril_mutex_initialize@plt>
    3996:	8d 47 18             	lea    0x18(%edi),%eax
    3999:	c7 47 10 01 00 00 00 	movl   $0x1,0x10(%edi)
    39a0:	c7 47 44 00 00 00 00 	movl   $0x0,0x44(%edi)
    39a7:	c6 47 14 00          	movb   $0x0,0x14(%edi)
    39ab:	c6 47 15 00          	movb   $0x0,0x15(%edi)
    39af:	89 04 24             	mov    %eax,(%esp)
    39b2:	e8 49 28 00 00       	call   6200 <fibril_rwlock_initialize@plt>
    39b7:	8b 45 0c             	mov    0xc(%ebp),%eax
    39ba:	89 47 2c             	mov    %eax,0x2c(%edi)
    39bd:	8b 43 10             	mov    0x10(%ebx),%eax
    39c0:	89 47 40             	mov    %eax,0x40(%edi)
    39c3:	8b 45 e0             	mov    -0x20(%ebp),%eax
    39c6:	89 45 d8             	mov    %eax,-0x28(%ebp)
    39c9:	8b 4d e4             	mov    -0x1c(%ebp),%ecx
    39cc:	89 47 30             	mov    %eax,0x30(%edi)
    39cf:	8b 46 2c             	mov    0x2c(%esi),%eax
    39d2:	83 c4 10             	add    $0x10,%esp
    39d5:	c7 47 48 00 00 00 00 	movl   $0x0,0x48(%edi)
    39dc:	c7 47 4c 00 00 00 00 	movl   $0x0,0x4c(%edi)
    39e3:	89 4f 34             	mov    %ecx,0x34(%edi)
    39e6:	85 c0                	test   %eax,%eax
    39e8:	0f 84 4f 01 00 00    	je     3b3d <block_get+0x54d>
    39ee:	8b 40 14             	mov    0x14(%eax),%eax
    39f1:	0f af c8             	imul   %eax,%ecx
    39f4:	f7 65 d8             	mull   -0x28(%ebp)
    39f7:	01 ca                	add    %ecx,%edx
    39f9:	89 47 38             	mov    %eax,0x38(%edi)
    39fc:	89 57 3c             	mov    %edx,0x3c(%edi)
    39ff:	50                   	push   %eax
    3a00:	50                   	push   %eax
    3a01:	8d 47 50             	lea    0x50(%edi),%eax
    3a04:	50                   	push   %eax
    3a05:	8b 45 d0             	mov    -0x30(%ebp),%eax
    3a08:	50                   	push   %eax
    3a09:	e8 c2 24 00 00       	call   5ed0 <hash_table_insert@plt>
    3a0e:	89 3c 24             	mov    %edi,(%esp)
    3a11:	e8 5a 28 00 00       	call   6270 <fibril_mutex_lock@plt>
    3a16:	89 1c 24             	mov    %ebx,(%esp)
    3a19:	e8 62 26 00 00       	call   6080 <fibril_mutex_unlock@plt>
    3a1e:	83 c4 10             	add    $0x10,%esp
    3a21:	f6 45 18 01          	testb  $0x1,0x18(%ebp)
    3a25:	0f 84 83 00 00 00    	je     3aae <block_get+0x4be>
    3a2b:	31 c0                	xor    %eax,%eax
    3a2d:	c7 45 d8 00 00 00 00 	movl   $0x0,-0x28(%ebp)
    3a34:	83 ec 0c             	sub    $0xc,%esp
    3a37:	88 45 d4             	mov    %al,-0x2c(%ebp)
    3a3a:	57                   	push   %edi
    3a3b:	e8 40 26 00 00       	call   6080 <fibril_mutex_unlock@plt>
    3a40:	83 c4 10             	add    $0x10,%esp
    3a43:	8a 45 d4             	mov    -0x2c(%ebp),%al
    3a46:	84 c0                	test   %al,%al
    3a48:	0f 84 e4 fd ff ff    	je     3832 <block_get+0x242>
    3a4e:	80 7f 15 00          	cmpb   $0x0,0x15(%edi)
    3a52:	0f 84 fa 00 00 00    	je     3b52 <block_get+0x562>
    3a58:	83 ec 0c             	sub    $0xc,%esp
    3a5b:	57                   	push   %edi
    3a5c:	31 ff                	xor    %edi,%edi
    3a5e:	e8 8d f8 ff ff       	call   32f0 <block_put>
    3a63:	83 c4 10             	add    $0x10,%esp
    3a66:	e9 c7 fd ff ff       	jmp    3832 <block_get+0x242>
    3a6b:	c7 45 d8 f6 fe ff ff 	movl   $0xfffffef6,-0x28(%ebp)
    3a72:	e9 ab fe ff ff       	jmp    3922 <block_get+0x332>
    3a77:	8d 45 e0             	lea    -0x20(%ebp),%eax
    3a7a:	8b 4d d0             	mov    -0x30(%ebp),%ecx
    3a7d:	89 75 d8             	mov    %esi,-0x28(%ebp)
    3a80:	8b 75 c8             	mov    -0x38(%ebp),%esi
    3a83:	52                   	push   %edx
    3a84:	52                   	push   %edx
    3a85:	50                   	push   %eax
    3a86:	51                   	push   %ecx
    3a87:	e8 54 27 00 00       	call   61e0 <hash_table_find@plt>
    3a8c:	83 c4 10             	add    $0x10,%esp
    3a8f:	89 45 d4             	mov    %eax,-0x2c(%ebp)
    3a92:	85 c0                	test   %eax,%eax
    3a94:	0f 84 b1 fe ff ff    	je     394b <block_get+0x35b>
    3a9a:	83 ec 0c             	sub    $0xc,%esp
    3a9d:	57                   	push   %edi
    3a9e:	e8 dd 25 00 00       	call   6080 <fibril_mutex_unlock@plt>
    3aa3:	83 c4 10             	add    $0x10,%esp
    3aa6:	8b 45 d4             	mov    -0x2c(%ebp),%eax
    3aa9:	e9 21 fe ff ff       	jmp    38cf <block_get+0x2df>
    3aae:	83 ec 08             	sub    $0x8,%esp
    3ab1:	8b 4b 14             	mov    0x14(%ebx),%ecx
    3ab4:	8b 5b 10             	mov    0x10(%ebx),%ebx
    3ab7:	8b 47 38             	mov    0x38(%edi),%eax
    3aba:	8b 57 3c             	mov    0x3c(%edi),%edx
    3abd:	53                   	push   %ebx
    3abe:	8b 5f 58             	mov    0x58(%edi),%ebx
    3ac1:	89 45 c8             	mov    %eax,-0x38(%ebp)
    3ac4:	53                   	push   %ebx
    3ac5:	51                   	push   %ecx
    3ac6:	52                   	push   %edx
    3ac7:	50                   	push   %eax
    3ac8:	8b 46 10             	mov    0x10(%esi),%eax
    3acb:	89 55 cc             	mov    %edx,-0x34(%ebp)
    3ace:	89 4d d4             	mov    %ecx,-0x2c(%ebp)
    3ad1:	50                   	push   %eax
    3ad2:	e8 19 25 00 00       	call   5ff0 <bd_read_blocks@plt>
    3ad7:	83 c4 20             	add    $0x20,%esp
    3ada:	89 c2                	mov    %eax,%edx
    3adc:	89 45 d8             	mov    %eax,-0x28(%ebp)
    3adf:	8b 4d d4             	mov    -0x2c(%ebp),%ecx
    3ae2:	31 c0                	xor    %eax,%eax
    3ae4:	85 d2                	test   %edx,%edx
    3ae6:	0f 84 48 ff ff ff    	je     3a34 <block_get+0x444>
    3aec:	53                   	push   %ebx
    3aed:	53                   	push   %ebx
    3aee:	8b 76 08             	mov    0x8(%esi),%esi
    3af1:	8b 45 cc             	mov    -0x34(%ebp),%eax
    3af4:	56                   	push   %esi
    3af5:	50                   	push   %eax
    3af6:	8b 45 c8             	mov    -0x38(%ebp),%eax
    3af9:	50                   	push   %eax
    3afa:	51                   	push   %ecx
    3afb:	52                   	push   %edx
    3afc:	68 a0 5a 00 00       	push   $0x5aa0
    3b01:	e8 4a 23 00 00       	call   5e50 <printf@plt>
    3b06:	83 c4 20             	add    $0x20,%esp
    3b09:	e8 b2 24 00 00       	call   5fc0 <stacktrace_print@plt>
    3b0e:	c6 47 15 01          	movb   $0x1,0x15(%edi)
    3b12:	b0 01                	mov    $0x1,%al
    3b14:	e9 1b ff ff ff       	jmp    3a34 <block_get+0x444>
    3b19:	8b 43 1c             	mov    0x1c(%ebx),%eax
    3b1c:	8b 75 c8             	mov    -0x38(%ebp),%esi
    3b1f:	40                   	inc    %eax
    3b20:	89 43 1c             	mov    %eax,0x1c(%ebx)
    3b23:	e9 65 fe ff ff       	jmp    398d <block_get+0x39d>
    3b28:	53                   	push   %ebx
    3b29:	68 8b 01 00 00       	push   $0x18b
    3b2e:	68 4f 5a 00 00       	push   $0x5a4f
    3b33:	68 5e 5a 00 00       	push   $0x5a5e
    3b38:	e8 13 25 00 00       	call   6050 <assert_abort@plt>
    3b3d:	50                   	push   %eax
    3b3e:	68 c6 03 00 00       	push   $0x3c6
    3b43:	68 4f 5a 00 00       	push   $0x5a4f
    3b48:	68 7f 5a 00 00       	push   $0x5a7f
    3b4d:	e8 fe 24 00 00       	call   6050 <assert_abort@plt>
    3b52:	50                   	push   %eax
    3b53:	68 34 02 00 00       	push   $0x234
    3b58:	68 4f 5a 00 00       	push   $0x5a4f
    3b5d:	68 95 5a 00 00       	push   $0x5a95
    3b62:	e8 e9 24 00 00       	call   6050 <assert_abort@plt>
    3b67:	89 f6                	mov    %esi,%esi
    3b69:	8d bc 27 00 00 00 00 	lea    0x0(%edi,%eiz,1),%edi

00003b70 <block_seqread>:
    3b70:	55                   	push   %ebp
    3b71:	89 e5                	mov    %esp,%ebp
    3b73:	57                   	push   %edi
    3b74:	56                   	push   %esi
    3b75:	53                   	push   %ebx
    3b76:	83 ec 38             	sub    $0x38,%esp
    3b79:	8b 4d 20             	mov    0x20(%ebp),%ecx
    3b7c:	8b 75 08             	mov    0x8(%ebp),%esi
    3b7f:	68 88 7f 00 00       	push   $0x7f88
    3b84:	89 4d e4             	mov    %ecx,-0x1c(%ebp)
    3b87:	e8 e4 26 00 00       	call   6270 <fibril_mutex_lock@plt>
    3b8c:	8b 1d 84 7f 00 00    	mov    0x7f84,%ebx
    3b92:	83 c4 10             	add    $0x10,%esp
    3b95:	81 fb 80 7f 00 00    	cmp    $0x7f80,%ebx
    3b9b:	74 1b                	je     3bb8 <block_seqread+0x48>
    3b9d:	3b 73 08             	cmp    0x8(%ebx),%esi
    3ba0:	8b 4d e4             	mov    -0x1c(%ebp),%ecx
    3ba3:	75 08                	jne    3bad <block_seqread+0x3d>
    3ba5:	eb 39                	jmp    3be0 <block_seqread+0x70>
    3ba7:	90                   	nop
    3ba8:	3b 73 08             	cmp    0x8(%ebx),%esi
    3bab:	74 33                	je     3be0 <block_seqread+0x70>
    3bad:	8b 5b 04             	mov    0x4(%ebx),%ebx
    3bb0:	81 fb 80 7f 00 00    	cmp    $0x7f80,%ebx
    3bb6:	75 f0                	jne    3ba8 <block_seqread+0x38>
    3bb8:	83 ec 0c             	sub    $0xc,%esp
    3bbb:	68 88 7f 00 00       	push   $0x7f88
    3bc0:	e8 bb 24 00 00       	call   6080 <fibril_mutex_unlock@plt>
    3bc5:	83 c4 0c             	add    $0xc,%esp
    3bc8:	68 c6 02 00 00       	push   $0x2c6
    3bcd:	68 4f 5a 00 00       	push   $0x5a4f
    3bd2:	68 57 5a 00 00       	push   $0x5a57
    3bd7:	e8 74 24 00 00       	call   6050 <assert_abort@plt>
    3bdc:	8d 74 26 00          	lea    0x0(%esi,%eiz,1),%esi
    3be0:	83 ec 0c             	sub    $0xc,%esp
    3be3:	89 4d e4             	mov    %ecx,-0x1c(%ebp)
    3be6:	68 88 7f 00 00       	push   $0x7f88
    3beb:	e8 90 24 00 00       	call   6080 <fibril_mutex_unlock@plt>
    3bf0:	8b 43 28             	mov    0x28(%ebx),%eax
    3bf3:	8b 4d e4             	mov    -0x1c(%ebp),%ecx
    3bf6:	83 c4 10             	add    $0x10,%esp
    3bf9:	89 45 d8             	mov    %eax,-0x28(%ebp)
    3bfc:	85 c9                	test   %ecx,%ecx
    3bfe:	0f 84 e0 00 00 00    	je     3ce4 <block_seqread+0x174>
    3c04:	89 c6                	mov    %eax,%esi
    3c06:	8b 45 14             	mov    0x14(%ebp),%eax
    3c09:	89 5d dc             	mov    %ebx,-0x24(%ebp)
    3c0c:	c7 45 e4 00 00 00 00 	movl   $0x0,-0x1c(%ebp)
    3c13:	8b 00                	mov    (%eax),%eax
    3c15:	89 75 d0             	mov    %esi,-0x30(%ebp)
    3c18:	c7 45 d4 00 00 00 00 	movl   $0x0,-0x2c(%ebp)
    3c1f:	8b 5d 10             	mov    0x10(%ebp),%ebx
    3c22:	eb 1a                	jmp    3c3e <block_seqread+0xce>
    3c24:	8d 74 26 00          	lea    0x0(%esi,%eiz,1),%esi
    3c28:	89 c2                	mov    %eax,%edx
    3c2a:	29 fa                	sub    %edi,%edx
    3c2c:	0f 85 f0 00 00 00    	jne    3d22 <block_seqread+0x1b2>
    3c32:	39 c7                	cmp    %eax,%edi
    3c34:	74 56                	je     3c8c <block_seqread+0x11c>
    3c36:	85 c9                	test   %ecx,%ecx
    3c38:	0f 84 a6 00 00 00    	je     3ce4 <block_seqread+0x174>
    3c3e:	8b 3b                	mov    (%ebx),%edi
    3c40:	8d 14 0f             	lea    (%edi,%ecx,1),%edx
    3c43:	39 c2                	cmp    %eax,%edx
    3c45:	73 e1                	jae    3c28 <block_seqread+0xb8>
    3c47:	31 f6                	xor    %esi,%esi
    3c49:	50                   	push   %eax
    3c4a:	8b 45 0c             	mov    0xc(%ebp),%eax
    3c4d:	01 c7                	add    %eax,%edi
    3c4f:	51                   	push   %ecx
    3c50:	8b 45 1c             	mov    0x1c(%ebp),%eax
    3c53:	57                   	push   %edi
    3c54:	8b 7d e4             	mov    -0x1c(%ebp),%edi
    3c57:	89 4d e0             	mov    %ecx,-0x20(%ebp)
    3c5a:	01 f8                	add    %edi,%eax
    3c5c:	50                   	push   %eax
    3c5d:	e8 ee 22 00 00       	call   5f50 <memcpy@plt>
    3c62:	8b 4d e0             	mov    -0x20(%ebp),%ecx
    3c65:	89 f8                	mov    %edi,%eax
    3c67:	01 c8                	add    %ecx,%eax
    3c69:	8b 3b                	mov    (%ebx),%edi
    3c6b:	01 cf                	add    %ecx,%edi
    3c6d:	89 45 e4             	mov    %eax,-0x1c(%ebp)
    3c70:	89 c8                	mov    %ecx,%eax
    3c72:	8b 4d 18             	mov    0x18(%ebp),%ecx
    3c75:	89 3b                	mov    %edi,(%ebx)
    3c77:	31 d2                	xor    %edx,%edx
    3c79:	01 01                	add    %eax,(%ecx)
    3c7b:	8b 45 14             	mov    0x14(%ebp),%eax
    3c7e:	11 51 04             	adc    %edx,0x4(%ecx)
    3c81:	8b 00                	mov    (%eax),%eax
    3c83:	83 c4 10             	add    $0x10,%esp
    3c86:	89 f1                	mov    %esi,%ecx
    3c88:	39 c7                	cmp    %eax,%edi
    3c8a:	75 aa                	jne    3c36 <block_seqread+0xc6>
    3c8c:	8b 45 18             	mov    0x18(%ebp),%eax
    3c8f:	8b 75 d4             	mov    -0x2c(%ebp),%esi
    3c92:	8b 7d d0             	mov    -0x30(%ebp),%edi
    3c95:	56                   	push   %esi
    3c96:	57                   	push   %edi
    3c97:	89 4d e0             	mov    %ecx,-0x20(%ebp)
    3c9a:	8b 50 04             	mov    0x4(%eax),%edx
    3c9d:	52                   	push   %edx
    3c9e:	8b 08                	mov    (%eax),%ecx
    3ca0:	51                   	push   %ecx
    3ca1:	e8 3a 23 00 00       	call   5fe0 <__udivdi3@plt>
    3ca6:	5e                   	pop    %esi
    3ca7:	89 c6                	mov    %eax,%esi
    3ca9:	8b 45 dc             	mov    -0x24(%ebp),%eax
    3cac:	5f                   	pop    %edi
    3cad:	8b 4d 0c             	mov    0xc(%ebp),%ecx
    3cb0:	89 d7                	mov    %edx,%edi
    3cb2:	8b 50 28             	mov    0x28(%eax),%edx
    3cb5:	52                   	push   %edx
    3cb6:	51                   	push   %ecx
    3cb7:	8b 40 10             	mov    0x10(%eax),%eax
    3cba:	6a 01                	push   $0x1
    3cbc:	57                   	push   %edi
    3cbd:	56                   	push   %esi
    3cbe:	50                   	push   %eax
    3cbf:	e8 2c 23 00 00       	call   5ff0 <bd_read_blocks@plt>
    3cc4:	83 c4 20             	add    $0x20,%esp
    3cc7:	8b 4d e0             	mov    -0x20(%ebp),%ecx
    3cca:	85 c0                	test   %eax,%eax
    3ccc:	75 22                	jne    3cf0 <block_seqread+0x180>
    3cce:	8b 75 14             	mov    0x14(%ebp),%esi
    3cd1:	8b 45 d8             	mov    -0x28(%ebp),%eax
    3cd4:	c7 03 00 00 00 00    	movl   $0x0,(%ebx)
    3cda:	85 c9                	test   %ecx,%ecx
    3cdc:	89 06                	mov    %eax,(%esi)
    3cde:	0f 85 5a ff ff ff    	jne    3c3e <block_seqread+0xce>
    3ce4:	8d 65 f4             	lea    -0xc(%ebp),%esp
    3ce7:	31 d2                	xor    %edx,%edx
    3ce9:	89 d0                	mov    %edx,%eax
    3ceb:	5b                   	pop    %ebx
    3cec:	5e                   	pop    %esi
    3ced:	5f                   	pop    %edi
    3cee:	5d                   	pop    %ebp
    3cef:	c3                   	ret    
    3cf0:	8b 5d dc             	mov    -0x24(%ebp),%ebx
    3cf3:	89 c2                	mov    %eax,%edx
    3cf5:	50                   	push   %eax
    3cf6:	50                   	push   %eax
    3cf7:	8b 4b 08             	mov    0x8(%ebx),%ecx
    3cfa:	89 55 e4             	mov    %edx,-0x1c(%ebp)
    3cfd:	51                   	push   %ecx
    3cfe:	57                   	push   %edi
    3cff:	56                   	push   %esi
    3d00:	6a 01                	push   $0x1
    3d02:	52                   	push   %edx
    3d03:	68 a0 5a 00 00       	push   $0x5aa0
    3d08:	e8 43 21 00 00       	call   5e50 <printf@plt>
    3d0d:	83 c4 20             	add    $0x20,%esp
    3d10:	e8 ab 22 00 00       	call   5fc0 <stacktrace_print@plt>
    3d15:	8b 55 e4             	mov    -0x1c(%ebp),%edx
    3d18:	8d 65 f4             	lea    -0xc(%ebp),%esp
    3d1b:	89 d0                	mov    %edx,%eax
    3d1d:	5b                   	pop    %ebx
    3d1e:	5e                   	pop    %esi
    3d1f:	5f                   	pop    %edi
    3d20:	5d                   	pop    %ebp
    3d21:	c3                   	ret    
    3d22:	89 ce                	mov    %ecx,%esi
    3d24:	89 d1                	mov    %edx,%ecx
    3d26:	29 d6                	sub    %edx,%esi
    3d28:	e9 1c ff ff ff       	jmp    3c49 <block_seqread+0xd9>
    3d2d:	8d 76 00             	lea    0x0(%esi),%esi

00003d30 <block_read_direct>:
    3d30:	55                   	push   %ebp
    3d31:	89 e5                	mov    %esp,%ebp
    3d33:	57                   	push   %edi
    3d34:	56                   	push   %esi
    3d35:	53                   	push   %ebx
    3d36:	83 ec 28             	sub    $0x28,%esp
    3d39:	8b 45 08             	mov    0x8(%ebp),%eax
    3d3c:	8b 75 0c             	mov    0xc(%ebp),%esi
    3d3f:	68 88 7f 00 00       	push   $0x7f88
    3d44:	89 45 e4             	mov    %eax,-0x1c(%ebp)
    3d47:	8b 7d 10             	mov    0x10(%ebp),%edi
    3d4a:	e8 21 25 00 00       	call   6270 <fibril_mutex_lock@plt>
    3d4f:	8b 1d 84 7f 00 00    	mov    0x7f84,%ebx
    3d55:	83 c4 10             	add    $0x10,%esp
    3d58:	81 fb 80 7f 00 00    	cmp    $0x7f80,%ebx
    3d5e:	74 20                	je     3d80 <block_read_direct+0x50>
    3d60:	8b 45 e4             	mov    -0x1c(%ebp),%eax
    3d63:	3b 43 08             	cmp    0x8(%ebx),%eax
    3d66:	75 0d                	jne    3d75 <block_read_direct+0x45>
    3d68:	eb 3e                	jmp    3da8 <block_read_direct+0x78>
    3d6a:	8d b6 00 00 00 00    	lea    0x0(%esi),%esi
    3d70:	3b 43 08             	cmp    0x8(%ebx),%eax
    3d73:	74 33                	je     3da8 <block_read_direct+0x78>
    3d75:	8b 5b 04             	mov    0x4(%ebx),%ebx
    3d78:	81 fb 80 7f 00 00    	cmp    $0x7f80,%ebx
    3d7e:	75 f0                	jne    3d70 <block_read_direct+0x40>
    3d80:	83 ec 0c             	sub    $0xc,%esp
    3d83:	68 88 7f 00 00       	push   $0x7f88
    3d88:	e8 f3 22 00 00       	call   6080 <fibril_mutex_unlock@plt>
    3d8d:	83 c4 0c             	add    $0xc,%esp
    3d90:	68 fd 02 00 00       	push   $0x2fd
    3d95:	68 4f 5a 00 00       	push   $0x5a4f
    3d9a:	68 57 5a 00 00       	push   $0x5a57
    3d9f:	e8 ac 22 00 00       	call   6050 <assert_abort@plt>
    3da4:	8d 74 26 00          	lea    0x0(%esi,%eiz,1),%esi
    3da8:	83 ec 0c             	sub    $0xc,%esp
    3dab:	68 88 7f 00 00       	push   $0x7f88
    3db0:	e8 cb 22 00 00       	call   6080 <fibril_mutex_unlock@plt>
    3db5:	58                   	pop    %eax
    3db6:	8b 4b 28             	mov    0x28(%ebx),%ecx
    3db9:	8b 45 14             	mov    0x14(%ebp),%eax
    3dbc:	5a                   	pop    %edx
    3dbd:	0f af c1             	imul   %ecx,%eax
    3dc0:	50                   	push   %eax
    3dc1:	8b 45 18             	mov    0x18(%ebp),%eax
    3dc4:	50                   	push   %eax
    3dc5:	8b 45 14             	mov    0x14(%ebp),%eax
    3dc8:	50                   	push   %eax
    3dc9:	8b 43 10             	mov    0x10(%ebx),%eax
    3dcc:	57                   	push   %edi
    3dcd:	56                   	push   %esi
    3dce:	50                   	push   %eax
    3dcf:	e8 1c 22 00 00       	call   5ff0 <bd_read_blocks@plt>
    3dd4:	83 c4 20             	add    $0x20,%esp
    3dd7:	89 c1                	mov    %eax,%ecx
    3dd9:	85 c0                	test   %eax,%eax
    3ddb:	74 25                	je     3e02 <block_read_direct+0xd2>
    3ddd:	50                   	push   %eax
    3dde:	50                   	push   %eax
    3ddf:	8b 53 08             	mov    0x8(%ebx),%edx
    3de2:	8b 5d 14             	mov    0x14(%ebp),%ebx
    3de5:	52                   	push   %edx
    3de6:	57                   	push   %edi
    3de7:	56                   	push   %esi
    3de8:	53                   	push   %ebx
    3de9:	51                   	push   %ecx
    3dea:	68 a0 5a 00 00       	push   $0x5aa0
    3def:	89 4d e4             	mov    %ecx,-0x1c(%ebp)
    3df2:	e8 59 20 00 00       	call   5e50 <printf@plt>
    3df7:	83 c4 20             	add    $0x20,%esp
    3dfa:	e8 c1 21 00 00       	call   5fc0 <stacktrace_print@plt>
    3dff:	8b 4d e4             	mov    -0x1c(%ebp),%ecx
    3e02:	8d 65 f4             	lea    -0xc(%ebp),%esp
    3e05:	89 c8                	mov    %ecx,%eax
    3e07:	5b                   	pop    %ebx
    3e08:	5e                   	pop    %esi
    3e09:	5f                   	pop    %edi
    3e0a:	5d                   	pop    %ebp
    3e0b:	c3                   	ret    
    3e0c:	8d 74 26 00          	lea    0x0(%esi,%eiz,1),%esi

00003e10 <block_write_direct>:
    3e10:	55                   	push   %ebp
    3e11:	89 e5                	mov    %esp,%ebp
    3e13:	57                   	push   %edi
    3e14:	56                   	push   %esi
    3e15:	53                   	push   %ebx
    3e16:	83 ec 28             	sub    $0x28,%esp
    3e19:	8b 45 08             	mov    0x8(%ebp),%eax
    3e1c:	8b 75 0c             	mov    0xc(%ebp),%esi
    3e1f:	68 88 7f 00 00       	push   $0x7f88
    3e24:	89 45 e4             	mov    %eax,-0x1c(%ebp)
    3e27:	8b 7d 10             	mov    0x10(%ebp),%edi
    3e2a:	e8 41 24 00 00       	call   6270 <fibril_mutex_lock@plt>
    3e2f:	8b 1d 84 7f 00 00    	mov    0x7f84,%ebx
    3e35:	83 c4 10             	add    $0x10,%esp
    3e38:	81 fb 80 7f 00 00    	cmp    $0x7f80,%ebx
    3e3e:	74 20                	je     3e60 <block_write_direct+0x50>
    3e40:	8b 45 e4             	mov    -0x1c(%ebp),%eax
    3e43:	3b 43 08             	cmp    0x8(%ebx),%eax
    3e46:	75 0d                	jne    3e55 <block_write_direct+0x45>
    3e48:	eb 3e                	jmp    3e88 <block_write_direct+0x78>
    3e4a:	8d b6 00 00 00 00    	lea    0x0(%esi),%esi
    3e50:	3b 43 08             	cmp    0x8(%ebx),%eax
    3e53:	74 33                	je     3e88 <block_write_direct+0x78>
    3e55:	8b 5b 04             	mov    0x4(%ebx),%ebx
    3e58:	81 fb 80 7f 00 00    	cmp    $0x7f80,%ebx
    3e5e:	75 f0                	jne    3e50 <block_write_direct+0x40>
    3e60:	83 ec 0c             	sub    $0xc,%esp
    3e63:	68 88 7f 00 00       	push   $0x7f88
    3e68:	e8 13 22 00 00       	call   6080 <fibril_mutex_unlock@plt>
    3e6d:	83 c4 0c             	add    $0xc,%esp
    3e70:	68 11 03 00 00       	push   $0x311
    3e75:	68 4f 5a 00 00       	push   $0x5a4f
    3e7a:	68 57 5a 00 00       	push   $0x5a57
    3e7f:	e8 cc 21 00 00       	call   6050 <assert_abort@plt>
    3e84:	8d 74 26 00          	lea    0x0(%esi,%eiz,1),%esi
    3e88:	83 ec 0c             	sub    $0xc,%esp
    3e8b:	68 88 7f 00 00       	push   $0x7f88
    3e90:	e8 eb 21 00 00       	call   6080 <fibril_mutex_unlock@plt>
    3e95:	58                   	pop    %eax
    3e96:	8b 4b 28             	mov    0x28(%ebx),%ecx
    3e99:	8b 45 14             	mov    0x14(%ebp),%eax
    3e9c:	5a                   	pop    %edx
    3e9d:	0f af c1             	imul   %ecx,%eax
    3ea0:	50                   	push   %eax
    3ea1:	8b 45 18             	mov    0x18(%ebp),%eax
    3ea4:	50                   	push   %eax
    3ea5:	8b 45 14             	mov    0x14(%ebp),%eax
    3ea8:	50                   	push   %eax
    3ea9:	8b 43 10             	mov    0x10(%ebx),%eax
    3eac:	57                   	push   %edi
    3ead:	56                   	push   %esi
    3eae:	50                   	push   %eax
    3eaf:	e8 3c 20 00 00       	call   5ef0 <bd_write_blocks@plt>
    3eb4:	83 c4 20             	add    $0x20,%esp
    3eb7:	89 c1                	mov    %eax,%ecx
    3eb9:	85 c0                	test   %eax,%eax
    3ebb:	74 25                	je     3ee2 <block_write_direct+0xd2>
    3ebd:	50                   	push   %eax
    3ebe:	50                   	push   %eax
    3ebf:	8b 53 08             	mov    0x8(%ebx),%edx
    3ec2:	8b 5d 14             	mov    0x14(%ebp),%ebx
    3ec5:	52                   	push   %edx
    3ec6:	57                   	push   %edi
    3ec7:	56                   	push   %esi
    3ec8:	53                   	push   %ebx
    3ec9:	51                   	push   %ecx
    3eca:	68 ec 5a 00 00       	push   $0x5aec
    3ecf:	89 4d e4             	mov    %ecx,-0x1c(%ebp)
    3ed2:	e8 79 1f 00 00       	call   5e50 <printf@plt>
    3ed7:	83 c4 20             	add    $0x20,%esp
    3eda:	e8 e1 20 00 00       	call   5fc0 <stacktrace_print@plt>
    3edf:	8b 4d e4             	mov    -0x1c(%ebp),%ecx
    3ee2:	8d 65 f4             	lea    -0xc(%ebp),%esp
    3ee5:	89 c8                	mov    %ecx,%eax
    3ee7:	5b                   	pop    %ebx
    3ee8:	5e                   	pop    %esi
    3ee9:	5f                   	pop    %edi
    3eea:	5d                   	pop    %ebp
    3eeb:	c3                   	ret    
    3eec:	8d 74 26 00          	lea    0x0(%esi,%eiz,1),%esi

00003ef0 <block_sync_cache>:
    3ef0:	55                   	push   %ebp
    3ef1:	89 e5                	mov    %esp,%ebp
    3ef3:	57                   	push   %edi
    3ef4:	56                   	push   %esi
    3ef5:	53                   	push   %ebx
    3ef6:	83 ec 28             	sub    $0x28,%esp
    3ef9:	8b 55 08             	mov    0x8(%ebp),%edx
    3efc:	8b 75 0c             	mov    0xc(%ebp),%esi
    3eff:	68 88 7f 00 00       	push   $0x7f88
    3f04:	89 55 e4             	mov    %edx,-0x1c(%ebp)
    3f07:	8b 7d 10             	mov    0x10(%ebp),%edi
    3f0a:	8b 5d 14             	mov    0x14(%ebp),%ebx
    3f0d:	e8 5e 23 00 00       	call   6270 <fibril_mutex_lock@plt>
    3f12:	a1 84 7f 00 00       	mov    0x7f84,%eax
    3f17:	83 c4 10             	add    $0x10,%esp
    3f1a:	3d 80 7f 00 00       	cmp    $0x7f80,%eax
    3f1f:	74 1e                	je     3f3f <block_sync_cache+0x4f>
    3f21:	8b 55 e4             	mov    -0x1c(%ebp),%edx
    3f24:	3b 50 08             	cmp    0x8(%eax),%edx
    3f27:	75 0c                	jne    3f35 <block_sync_cache+0x45>
    3f29:	eb 3d                	jmp    3f68 <block_sync_cache+0x78>
    3f2b:	90                   	nop
    3f2c:	8d 74 26 00          	lea    0x0(%esi,%eiz,1),%esi
    3f30:	3b 50 08             	cmp    0x8(%eax),%edx
    3f33:	74 33                	je     3f68 <block_sync_cache+0x78>
    3f35:	8b 40 04             	mov    0x4(%eax),%eax
    3f38:	3d 80 7f 00 00       	cmp    $0x7f80,%eax
    3f3d:	75 f1                	jne    3f30 <block_sync_cache+0x40>
    3f3f:	83 ec 0c             	sub    $0xc,%esp
    3f42:	68 88 7f 00 00       	push   $0x7f88
    3f47:	e8 34 21 00 00       	call   6080 <fibril_mutex_unlock@plt>
    3f4c:	83 c4 0c             	add    $0xc,%esp
    3f4f:	68 23 03 00 00       	push   $0x323
    3f54:	68 4f 5a 00 00       	push   $0x5a4f
    3f59:	68 57 5a 00 00       	push   $0x5a57
    3f5e:	e8 ed 20 00 00       	call   6050 <assert_abort@plt>
    3f63:	90                   	nop
    3f64:	8d 74 26 00          	lea    0x0(%esi,%eiz,1),%esi
    3f68:	83 ec 0c             	sub    $0xc,%esp
    3f6b:	89 45 e4             	mov    %eax,-0x1c(%ebp)
    3f6e:	68 88 7f 00 00       	push   $0x7f88
    3f73:	e8 08 21 00 00       	call   6080 <fibril_mutex_unlock@plt>
    3f78:	8b 45 e4             	mov    -0x1c(%ebp),%eax
    3f7b:	89 5d 14             	mov    %ebx,0x14(%ebp)
    3f7e:	89 75 0c             	mov    %esi,0xc(%ebp)
    3f81:	89 7d 10             	mov    %edi,0x10(%ebp)
    3f84:	8b 40 10             	mov    0x10(%eax),%eax
    3f87:	83 c4 10             	add    $0x10,%esp
    3f8a:	89 45 08             	mov    %eax,0x8(%ebp)
    3f8d:	8d 65 f4             	lea    -0xc(%ebp),%esp
    3f90:	5b                   	pop    %ebx
    3f91:	5e                   	pop    %esi
    3f92:	5f                   	pop    %edi
    3f93:	5d                   	pop    %ebp
    3f94:	e9 f7 21 00 00       	jmp    6190 <bd_sync_cache@plt>
    3f99:	8d b4 26 00 00 00 00 	lea    0x0(%esi,%eiz,1),%esi

00003fa0 <block_get_bsize>:
    3fa0:	55                   	push   %ebp
    3fa1:	89 e5                	mov    %esp,%ebp
    3fa3:	57                   	push   %edi
    3fa4:	56                   	push   %esi
    3fa5:	53                   	push   %ebx
    3fa6:	83 ec 18             	sub    $0x18,%esp
    3fa9:	8b 75 08             	mov    0x8(%ebp),%esi
    3fac:	8b 7d 0c             	mov    0xc(%ebp),%edi
    3faf:	68 88 7f 00 00       	push   $0x7f88
    3fb4:	e8 b7 22 00 00       	call   6270 <fibril_mutex_lock@plt>
    3fb9:	8b 1d 84 7f 00 00    	mov    0x7f84,%ebx
    3fbf:	83 c4 10             	add    $0x10,%esp
    3fc2:	81 fb 80 7f 00 00    	cmp    $0x7f80,%ebx
    3fc8:	75 11                	jne    3fdb <block_get_bsize+0x3b>
    3fca:	eb 3c                	jmp    4008 <block_get_bsize+0x68>
    3fcc:	8d 74 26 00          	lea    0x0(%esi,%eiz,1),%esi
    3fd0:	8b 5b 04             	mov    0x4(%ebx),%ebx
    3fd3:	81 fb 80 7f 00 00    	cmp    $0x7f80,%ebx
    3fd9:	74 2d                	je     4008 <block_get_bsize+0x68>
    3fdb:	3b 73 08             	cmp    0x8(%ebx),%esi
    3fde:	75 f0                	jne    3fd0 <block_get_bsize+0x30>
    3fe0:	83 ec 0c             	sub    $0xc,%esp
    3fe3:	68 88 7f 00 00       	push   $0x7f88
    3fe8:	e8 93 20 00 00       	call   6080 <fibril_mutex_unlock@plt>
    3fed:	89 7d 0c             	mov    %edi,0xc(%ebp)
    3ff0:	83 c4 10             	add    $0x10,%esp
    3ff3:	8b 43 10             	mov    0x10(%ebx),%eax
    3ff6:	89 45 08             	mov    %eax,0x8(%ebp)
    3ff9:	8d 65 f4             	lea    -0xc(%ebp),%esp
    3ffc:	5b                   	pop    %ebx
    3ffd:	5e                   	pop    %esi
    3ffe:	5f                   	pop    %edi
    3fff:	5d                   	pop    %ebp
    4000:	e9 3b 21 00 00       	jmp    6140 <bd_get_block_size@plt>
    4005:	8d 76 00             	lea    0x0(%esi),%esi
    4008:	83 ec 0c             	sub    $0xc,%esp
    400b:	68 88 7f 00 00       	push   $0x7f88
    4010:	e8 6b 20 00 00       	call   6080 <fibril_mutex_unlock@plt>
    4015:	83 c4 0c             	add    $0xc,%esp
    4018:	68 34 03 00 00       	push   $0x334
    401d:	68 4f 5a 00 00       	push   $0x5a4f
    4022:	68 57 5a 00 00       	push   $0x5a57
    4027:	e8 24 20 00 00       	call   6050 <assert_abort@plt>
    402c:	8d 74 26 00          	lea    0x0(%esi,%eiz,1),%esi

00004030 <block_get_nblocks>:
    4030:	55                   	push   %ebp
    4031:	89 e5                	mov    %esp,%ebp
    4033:	57                   	push   %edi
    4034:	56                   	push   %esi
    4035:	53                   	push   %ebx
    4036:	83 ec 18             	sub    $0x18,%esp
    4039:	8b 75 08             	mov    0x8(%ebp),%esi
    403c:	8b 7d 0c             	mov    0xc(%ebp),%edi
    403f:	68 88 7f 00 00       	push   $0x7f88
    4044:	e8 27 22 00 00       	call   6270 <fibril_mutex_lock@plt>
    4049:	8b 1d 84 7f 00 00    	mov    0x7f84,%ebx
    404f:	83 c4 10             	add    $0x10,%esp
    4052:	81 fb 80 7f 00 00    	cmp    $0x7f80,%ebx
    4058:	75 11                	jne    406b <block_get_nblocks+0x3b>
    405a:	eb 3c                	jmp    4098 <block_get_nblocks+0x68>
    405c:	8d 74 26 00          	lea    0x0(%esi,%eiz,1),%esi
    4060:	8b 5b 04             	mov    0x4(%ebx),%ebx
    4063:	81 fb 80 7f 00 00    	cmp    $0x7f80,%ebx
    4069:	74 2d                	je     4098 <block_get_nblocks+0x68>
    406b:	3b 73 08             	cmp    0x8(%ebx),%esi
    406e:	75 f0                	jne    4060 <block_get_nblocks+0x30>
    4070:	83 ec 0c             	sub    $0xc,%esp
    4073:	68 88 7f 00 00       	push   $0x7f88
    4078:	e8 03 20 00 00       	call   6080 <fibril_mutex_unlock@plt>
    407d:	89 7d 0c             	mov    %edi,0xc(%ebp)
    4080:	83 c4 10             	add    $0x10,%esp
    4083:	8b 43 10             	mov    0x10(%ebx),%eax
    4086:	89 45 08             	mov    %eax,0x8(%ebp)
    4089:	8d 65 f4             	lea    -0xc(%ebp),%esp
    408c:	5b                   	pop    %ebx
    408d:	5e                   	pop    %esi
    408e:	5f                   	pop    %edi
    408f:	5d                   	pop    %ebp
    4090:	e9 6b 1e 00 00       	jmp    5f00 <bd_get_num_blocks@plt>
    4095:	8d 76 00             	lea    0x0(%esi),%esi
    4098:	83 ec 0c             	sub    $0xc,%esp
    409b:	68 88 7f 00 00       	push   $0x7f88
    40a0:	e8 db 1f 00 00       	call   6080 <fibril_mutex_unlock@plt>
    40a5:	83 c4 0c             	add    $0xc,%esp
    40a8:	68 43 03 00 00       	push   $0x343
    40ad:	68 4f 5a 00 00       	push   $0x5a4f
    40b2:	68 57 5a 00 00       	push   $0x5a57
    40b7:	e8 94 1f 00 00       	call   6050 <assert_abort@plt>
    40bc:	8d 74 26 00          	lea    0x0(%esi,%eiz,1),%esi

000040c0 <block_read_bytes_direct>:
    40c0:	55                   	push   %ebp
    40c1:	89 e5                	mov    %esp,%ebp
    40c3:	57                   	push   %edi
    40c4:	56                   	push   %esi
    40c5:	53                   	push   %ebx
    40c6:	83 ec 48             	sub    $0x48,%esp
    40c9:	8b 45 0c             	mov    0xc(%ebp),%eax
    40cc:	8b 55 10             	mov    0x10(%ebp),%edx
    40cf:	68 88 7f 00 00       	push   $0x7f88
    40d4:	8b 5d 08             	mov    0x8(%ebp),%ebx
    40d7:	89 45 d0             	mov    %eax,-0x30(%ebp)
    40da:	89 55 d4             	mov    %edx,-0x2c(%ebp)
    40dd:	e8 8e 21 00 00       	call   6270 <fibril_mutex_lock@plt>
    40e2:	8b 35 84 7f 00 00    	mov    0x7f84,%esi
    40e8:	83 c4 10             	add    $0x10,%esp
    40eb:	81 fe 80 7f 00 00    	cmp    $0x7f80,%esi
    40f1:	75 10                	jne    4103 <block_read_bytes_direct+0x43>
    40f3:	eb 43                	jmp    4138 <block_read_bytes_direct+0x78>
    40f5:	8d 76 00             	lea    0x0(%esi),%esi
    40f8:	8b 76 04             	mov    0x4(%esi),%esi
    40fb:	81 fe 80 7f 00 00    	cmp    $0x7f80,%esi
    4101:	74 35                	je     4138 <block_read_bytes_direct+0x78>
    4103:	3b 5e 08             	cmp    0x8(%esi),%ebx
    4106:	75 f0                	jne    40f8 <block_read_bytes_direct+0x38>
    4108:	83 ec 0c             	sub    $0xc,%esp
    410b:	68 88 7f 00 00       	push   $0x7f88
    4110:	e8 6b 1f 00 00       	call   6080 <fibril_mutex_unlock@plt>
    4115:	8d 45 e4             	lea    -0x1c(%ebp),%eax
    4118:	59                   	pop    %ecx
    4119:	5f                   	pop    %edi
    411a:	50                   	push   %eax
    411b:	8b 46 10             	mov    0x10(%esi),%eax
    411e:	50                   	push   %eax
    411f:	e8 1c 20 00 00       	call   6140 <bd_get_block_size@plt>
    4124:	83 c4 10             	add    $0x10,%esp
    4127:	89 c1                	mov    %eax,%ecx
    4129:	85 c0                	test   %eax,%eax
    412b:	74 33                	je     4160 <block_read_bytes_direct+0xa0>
    412d:	8d 65 f4             	lea    -0xc(%ebp),%esp
    4130:	89 c8                	mov    %ecx,%eax
    4132:	5b                   	pop    %ebx
    4133:	5e                   	pop    %esi
    4134:	5f                   	pop    %edi
    4135:	5d                   	pop    %ebp
    4136:	c3                   	ret    
    4137:	90                   	nop
    4138:	83 ec 0c             	sub    $0xc,%esp
    413b:	68 88 7f 00 00       	push   $0x7f88
    4140:	e8 3b 1f 00 00       	call   6080 <fibril_mutex_unlock@plt>
    4145:	83 c4 0c             	add    $0xc,%esp
    4148:	68 34 03 00 00       	push   $0x334
    414d:	68 4f 5a 00 00       	push   $0x5a4f
    4152:	68 57 5a 00 00       	push   $0x5a57
    4157:	e8 f4 1e 00 00       	call   6050 <assert_abort@plt>
    415c:	8d 74 26 00          	lea    0x0(%esi,%eiz,1),%esi
    4160:	8b 75 e4             	mov    -0x1c(%ebp),%esi
    4163:	31 d2                	xor    %edx,%edx
    4165:	8b 45 d4             	mov    -0x2c(%ebp),%eax
    4168:	52                   	push   %edx
    4169:	56                   	push   %esi
    416a:	50                   	push   %eax
    416b:	8b 45 d0             	mov    -0x30(%ebp),%eax
    416e:	89 75 c8             	mov    %esi,-0x38(%ebp)
    4171:	50                   	push   %eax
    4172:	89 55 cc             	mov    %edx,-0x34(%ebp)
    4175:	e8 66 1e 00 00       	call   5fe0 <__udivdi3@plt>
    417a:	83 c4 10             	add    $0x10,%esp
    417d:	89 45 c0             	mov    %eax,-0x40(%ebp)
    4180:	8b 45 14             	mov    0x14(%ebp),%eax
    4183:	89 55 c4             	mov    %edx,-0x3c(%ebp)
    4186:	31 d2                	xor    %edx,%edx
    4188:	03 45 d0             	add    -0x30(%ebp),%eax
    418b:	8b 4d cc             	mov    -0x34(%ebp),%ecx
    418e:	13 55 d4             	adc    -0x2c(%ebp),%edx
    4191:	83 c0 ff             	add    $0xffffffff,%eax
    4194:	83 d2 ff             	adc    $0xffffffff,%edx
    4197:	8b 7d c8             	mov    -0x38(%ebp),%edi
    419a:	51                   	push   %ecx
    419b:	57                   	push   %edi
    419c:	52                   	push   %edx
    419d:	50                   	push   %eax
    419e:	e8 3d 1e 00 00       	call   5fe0 <__udivdi3@plt>
    41a3:	8b 55 c0             	mov    -0x40(%ebp),%edx
    41a6:	29 d0                	sub    %edx,%eax
    41a8:	40                   	inc    %eax
    41a9:	0f af f0             	imul   %eax,%esi
    41ac:	89 45 bc             	mov    %eax,-0x44(%ebp)
    41af:	89 34 24             	mov    %esi,(%esp)
    41b2:	e8 b9 1d 00 00       	call   5f70 <malloc@plt>
    41b7:	83 c4 10             	add    $0x10,%esp
    41ba:	89 c6                	mov    %eax,%esi
    41bc:	85 c0                	test   %eax,%eax
    41be:	0f 84 19 01 00 00    	je     42dd <block_read_bytes_direct+0x21d>
    41c4:	83 ec 0c             	sub    $0xc,%esp
    41c7:	68 88 7f 00 00       	push   $0x7f88
    41cc:	e8 9f 20 00 00       	call   6270 <fibril_mutex_lock@plt>
    41d1:	8b 3d 84 7f 00 00    	mov    0x7f84,%edi
    41d7:	83 c4 10             	add    $0x10,%esp
    41da:	81 ff 80 7f 00 00    	cmp    $0x7f80,%edi
    41e0:	75 15                	jne    41f7 <block_read_bytes_direct+0x137>
    41e2:	e9 91 00 00 00       	jmp    4278 <block_read_bytes_direct+0x1b8>
    41e7:	90                   	nop
    41e8:	8b 7f 04             	mov    0x4(%edi),%edi
    41eb:	81 ff 80 7f 00 00    	cmp    $0x7f80,%edi
    41f1:	0f 84 81 00 00 00    	je     4278 <block_read_bytes_direct+0x1b8>
    41f7:	3b 5f 08             	cmp    0x8(%edi),%ebx
    41fa:	75 ec                	jne    41e8 <block_read_bytes_direct+0x128>
    41fc:	83 ec 0c             	sub    $0xc,%esp
    41ff:	68 88 7f 00 00       	push   $0x7f88
    4204:	e8 77 1e 00 00       	call   6080 <fibril_mutex_unlock@plt>
    4209:	58                   	pop    %eax
    420a:	8b 47 28             	mov    0x28(%edi),%eax
    420d:	5a                   	pop    %edx
    420e:	8b 55 bc             	mov    -0x44(%ebp),%edx
    4211:	0f af c2             	imul   %edx,%eax
    4214:	50                   	push   %eax
    4215:	56                   	push   %esi
    4216:	8b 4d c4             	mov    -0x3c(%ebp),%ecx
    4219:	8b 5d c0             	mov    -0x40(%ebp),%ebx
    421c:	8b 47 10             	mov    0x10(%edi),%eax
    421f:	52                   	push   %edx
    4220:	51                   	push   %ecx
    4221:	53                   	push   %ebx
    4222:	50                   	push   %eax
    4223:	e8 c8 1d 00 00       	call   5ff0 <bd_read_blocks@plt>
    4228:	83 c4 20             	add    $0x20,%esp
    422b:	89 c1                	mov    %eax,%ecx
    422d:	85 c0                	test   %eax,%eax
    422f:	75 6b                	jne    429c <block_read_bytes_direct+0x1dc>
    4231:	89 45 c0             	mov    %eax,-0x40(%ebp)
    4234:	8b 55 14             	mov    0x14(%ebp),%edx
    4237:	8b 5d cc             	mov    -0x34(%ebp),%ebx
    423a:	8b 7d c8             	mov    -0x38(%ebp),%edi
    423d:	50                   	push   %eax
    423e:	8b 45 d4             	mov    -0x2c(%ebp),%eax
    4241:	52                   	push   %edx
    4242:	51                   	push   %ecx
    4243:	51                   	push   %ecx
    4244:	53                   	push   %ebx
    4245:	57                   	push   %edi
    4246:	50                   	push   %eax
    4247:	8b 45 d0             	mov    -0x30(%ebp),%eax
    424a:	50                   	push   %eax
    424b:	e8 80 1d 00 00       	call   5fd0 <__umoddi3@plt>
    4250:	83 c4 18             	add    $0x18,%esp
    4253:	01 f0                	add    %esi,%eax
    4255:	50                   	push   %eax
    4256:	8b 45 18             	mov    0x18(%ebp),%eax
    4259:	50                   	push   %eax
    425a:	e8 f1 1c 00 00       	call   5f50 <memcpy@plt>
    425f:	89 34 24             	mov    %esi,(%esp)
    4262:	e8 f9 1f 00 00       	call   6260 <free@plt>
    4267:	8b 4d c0             	mov    -0x40(%ebp),%ecx
    426a:	83 c4 10             	add    $0x10,%esp
    426d:	8d 65 f4             	lea    -0xc(%ebp),%esp
    4270:	89 c8                	mov    %ecx,%eax
    4272:	5b                   	pop    %ebx
    4273:	5e                   	pop    %esi
    4274:	5f                   	pop    %edi
    4275:	5d                   	pop    %ebp
    4276:	c3                   	ret    
    4277:	90                   	nop
    4278:	83 ec 0c             	sub    $0xc,%esp
    427b:	68 88 7f 00 00       	push   $0x7f88
    4280:	e8 fb 1d 00 00       	call   6080 <fibril_mutex_unlock@plt>
    4285:	83 c4 0c             	add    $0xc,%esp
    4288:	68 fd 02 00 00       	push   $0x2fd
    428d:	68 4f 5a 00 00       	push   $0x5a4f
    4292:	68 57 5a 00 00       	push   $0x5a57
    4297:	e8 b4 1d 00 00       	call   6050 <assert_abort@plt>
    429c:	50                   	push   %eax
    429d:	50                   	push   %eax
    429e:	8b 47 08             	mov    0x8(%edi),%eax
    42a1:	8b 55 c0             	mov    -0x40(%ebp),%edx
    42a4:	50                   	push   %eax
    42a5:	8b 5d bc             	mov    -0x44(%ebp),%ebx
    42a8:	8b 45 c4             	mov    -0x3c(%ebp),%eax
    42ab:	89 4d d0             	mov    %ecx,-0x30(%ebp)
    42ae:	50                   	push   %eax
    42af:	52                   	push   %edx
    42b0:	53                   	push   %ebx
    42b1:	51                   	push   %ecx
    42b2:	68 a0 5a 00 00       	push   $0x5aa0
    42b7:	e8 94 1b 00 00       	call   5e50 <printf@plt>
    42bc:	83 c4 20             	add    $0x20,%esp
    42bf:	e8 fc 1c 00 00       	call   5fc0 <stacktrace_print@plt>
    42c4:	83 ec 0c             	sub    $0xc,%esp
    42c7:	56                   	push   %esi
    42c8:	e8 93 1f 00 00       	call   6260 <free@plt>
    42cd:	8b 4d d0             	mov    -0x30(%ebp),%ecx
    42d0:	83 c4 10             	add    $0x10,%esp
    42d3:	8d 65 f4             	lea    -0xc(%ebp),%esp
    42d6:	89 c8                	mov    %ecx,%eax
    42d8:	5b                   	pop    %ebx
    42d9:	5e                   	pop    %esi
    42da:	5f                   	pop    %edi
    42db:	5d                   	pop    %ebp
    42dc:	c3                   	ret    
    42dd:	b9 fe ff ff ff       	mov    $0xfffffffe,%ecx
    42e2:	e9 46 fe ff ff       	jmp    412d <block_read_bytes_direct+0x6d>
    42e7:	89 f6                	mov    %esi,%esi
    42e9:	8d bc 27 00 00 00 00 	lea    0x0(%edi,%eiz,1),%edi

000042f0 <block_read_toc>:
    42f0:	55                   	push   %ebp
    42f1:	89 e5                	mov    %esp,%ebp
    42f3:	57                   	push   %edi
    42f4:	56                   	push   %esi
    42f5:	53                   	push   %ebx
    42f6:	83 ec 28             	sub    $0x28,%esp
    42f9:	8b 55 08             	mov    0x8(%ebp),%edx
    42fc:	8b 5d 0c             	mov    0xc(%ebp),%ebx
    42ff:	68 88 7f 00 00       	push   $0x7f88
    4304:	89 55 e4             	mov    %edx,-0x1c(%ebp)
    4307:	8b 75 10             	mov    0x10(%ebp),%esi
    430a:	8b 7d 14             	mov    0x14(%ebp),%edi
    430d:	e8 5e 1f 00 00       	call   6270 <fibril_mutex_lock@plt>
    4312:	a1 84 7f 00 00       	mov    0x7f84,%eax
    4317:	83 c4 10             	add    $0x10,%esp
    431a:	3d 80 7f 00 00       	cmp    $0x7f80,%eax
    431f:	74 1e                	je     433f <block_read_toc+0x4f>
    4321:	8b 55 e4             	mov    -0x1c(%ebp),%edx
    4324:	3b 50 08             	cmp    0x8(%eax),%edx
    4327:	75 0c                	jne    4335 <block_read_toc+0x45>
    4329:	eb 3d                	jmp    4368 <block_read_toc+0x78>
    432b:	90                   	nop
    432c:	8d 74 26 00          	lea    0x0(%esi,%eiz,1),%esi
    4330:	3b 50 08             	cmp    0x8(%eax),%edx
    4333:	74 33                	je     4368 <block_read_toc+0x78>
    4335:	8b 40 04             	mov    0x4(%eax),%eax
    4338:	3d 80 7f 00 00       	cmp    $0x7f80,%eax
    433d:	75 f1                	jne    4330 <block_read_toc+0x40>
    433f:	83 ec 0c             	sub    $0xc,%esp
    4342:	68 88 7f 00 00       	push   $0x7f88
    4347:	e8 34 1d 00 00       	call   6080 <fibril_mutex_unlock@plt>
    434c:	83 c4 0c             	add    $0xc,%esp
    434f:	68 8a 03 00 00       	push   $0x38a
    4354:	68 4f 5a 00 00       	push   $0x5a4f
    4359:	68 57 5a 00 00       	push   $0x5a57
    435e:	e8 ed 1c 00 00       	call   6050 <assert_abort@plt>
    4363:	90                   	nop
    4364:	8d 74 26 00          	lea    0x0(%esi,%eiz,1),%esi
    4368:	83 ec 0c             	sub    $0xc,%esp
    436b:	89 45 e4             	mov    %eax,-0x1c(%ebp)
    436e:	81 e3 ff 00 00 00    	and    $0xff,%ebx
    4374:	68 88 7f 00 00       	push   $0x7f88
    4379:	e8 02 1d 00 00       	call   6080 <fibril_mutex_unlock@plt>
    437e:	8b 45 e4             	mov    -0x1c(%ebp),%eax
    4381:	89 7d 14             	mov    %edi,0x14(%ebp)
    4384:	89 75 10             	mov    %esi,0x10(%ebp)
    4387:	89 5d 0c             	mov    %ebx,0xc(%ebp)
    438a:	8b 40 10             	mov    0x10(%eax),%eax
    438d:	83 c4 10             	add    $0x10,%esp
    4390:	89 45 08             	mov    %eax,0x8(%ebp)
    4393:	8d 65 f4             	lea    -0xc(%ebp),%esp
    4396:	5b                   	pop    %ebx
    4397:	5e                   	pop    %esi
    4398:	5f                   	pop    %edi
    4399:	5d                   	pop    %ebp
    439a:	e9 d1 1c 00 00       	jmp    6070 <bd_read_toc@plt>

0000439f <write_blocks.part.3>:
    439f:	55                   	push   %ebp
    43a0:	89 e5                	mov    %esp,%ebp
    43a2:	83 ec 0c             	sub    $0xc,%esp
    43a5:	68 b5 03 00 00       	push   $0x3b5
    43aa:	68 4f 5a 00 00       	push   $0x5a4f
    43af:	68 57 5a 00 00       	push   $0x5a57
    43b4:	e8 97 1c 00 00       	call   6050 <assert_abort@plt>
    43b9:	66 90                	xchg   %ax,%ax
    43bb:	66 90                	xchg   %ax,%ax
    43bd:	66 90                	xchg   %ax,%ax
    43bf:	90                   	nop

000043c0 <vfs_connection>:
    43c0:	55                   	push   %ebp
    43c1:	89 e5                	mov    %esp,%ebp
    43c3:	57                   	push   %edi
    43c4:	56                   	push   %esi
    43c5:	53                   	push   %ebx
    43c6:	81 ec 7c 01 00 00    	sub    $0x17c,%esp
    43cc:	8b 45 08             	mov    0x8(%ebp),%eax
    43cf:	85 c0                	test   %eax,%eax
    43d1:	0f 85 39 0a 00 00    	jne    4e10 <vfs_connection+0xa50>
    43d7:	90                   	nop
    43d8:	50                   	push   %eax
    43d9:	50                   	push   %eax
    43da:	8d 85 bc fe ff ff    	lea    -0x144(%ebp),%eax
    43e0:	6a 00                	push   $0x0
    43e2:	50                   	push   %eax
    43e3:	e8 78 1d 00 00       	call   6160 <async_get_call_timeout@plt>
    43e8:	89 c7                	mov    %eax,%edi
    43ea:	8b 85 bc fe ff ff    	mov    -0x144(%ebp),%eax
    43f0:	83 c4 10             	add    $0x10,%esp
    43f3:	85 c0                	test   %eax,%eax
    43f5:	0f 84 ad 09 00 00    	je     4da8 <vfs_connection+0x9e8>
    43fb:	2d 00 04 00 00       	sub    $0x400,%eax
    4400:	83 f8 0d             	cmp    $0xd,%eax
    4403:	0f 87 a7 09 00 00    	ja     4db0 <vfs_connection+0x9f0>
    4409:	ff 24 85 94 5b 00 00 	jmp    *0x5b94(,%eax,4)
    4410:	a1 04 81 00 00       	mov    0x8104,%eax
    4415:	8b 8d c4 fe ff ff    	mov    -0x13c(%ebp),%ecx
    441b:	8b 9d c0 fe ff ff    	mov    -0x140(%ebp),%ebx
    4421:	52                   	push   %edx
    4422:	52                   	push   %edx
    4423:	51                   	push   %ecx
    4424:	53                   	push   %ebx
    4425:	ff 50 18             	call   *0x18(%eax)
    4428:	5a                   	pop    %edx
    4429:	59                   	pop    %ecx
    442a:	50                   	push   %eax
    442b:	57                   	push   %edi
    442c:	e8 6f 1b 00 00       	call   5fa0 <async_answer_0@plt>
    4431:	83 c4 10             	add    $0x10,%esp
    4434:	eb a2                	jmp    43d8 <vfs_connection+0x18>
    4436:	66 90                	xchg   %ax,%ax
    4438:	a1 08 81 00 00       	mov    0x8108,%eax
    443d:	8b 8d c8 fe ff ff    	mov    -0x138(%ebp),%ecx
    4443:	89 85 90 fe ff ff    	mov    %eax,-0x170(%ebp)
    4449:	89 8d 9c fe ff ff    	mov    %ecx,-0x164(%ebp)
    444f:	a1 00 81 00 00       	mov    0x8100,%eax
    4454:	8b 8d cc fe ff ff    	mov    -0x134(%ebp),%ecx
    445a:	89 85 a4 fe ff ff    	mov    %eax,-0x15c(%ebp)
    4460:	8b 95 c4 fe ff ff    	mov    -0x13c(%ebp),%edx
    4466:	8b 85 c0 fe ff ff    	mov    -0x140(%ebp),%eax
    446c:	89 8d 98 fe ff ff    	mov    %ecx,-0x168(%ebp)
    4472:	8b 8d d0 fe ff ff    	mov    -0x130(%ebp),%ecx
    4478:	89 85 94 fe ff ff    	mov    %eax,-0x16c(%ebp)
    447e:	89 8d 88 fe ff ff    	mov    %ecx,-0x178(%ebp)
    4484:	39 d0                	cmp    %edx,%eax
    4486:	76 06                	jbe    448e <vfs_connection+0xce>
    4488:	81 c2 00 00 02 00    	add    $0x20000,%edx
    448e:	89 95 a0 fe ff ff    	mov    %edx,-0x160(%ebp)
    4494:	50                   	push   %eax
    4495:	8b 95 9c fe ff ff    	mov    -0x164(%ebp),%edx
    449b:	50                   	push   %eax
    449c:	8d 85 b0 fe ff ff    	lea    -0x150(%ebp),%eax
    44a2:	52                   	push   %edx
    44a3:	50                   	push   %eax
    44a4:	8b 85 a4 fe ff ff    	mov    -0x15c(%ebp),%eax
    44aa:	c7 85 b0 fe ff ff 00 	movl   $0x0,-0x150(%ebp)
    44b1:	00 00 00 
    44b4:	c7 85 b4 fe ff ff 00 	movl   $0x0,-0x14c(%ebp)
    44bb:	00 00 00 
    44be:	ff 10                	call   *(%eax)
    44c0:	83 c4 10             	add    $0x10,%esp
    44c3:	85 c0                	test   %eax,%eax
    44c5:	0f 85 ad 08 00 00    	jne    4d78 <vfs_connection+0x9b8>
    44cb:	8b 85 b0 fe ff ff    	mov    -0x150(%ebp),%eax
    44d1:	8b 95 a0 fe ff ff    	mov    -0x160(%ebp),%edx
    44d7:	80 38 00             	cmpb   $0x0,(%eax)
    44da:	0f 85 22 0a 00 00    	jne    4f02 <vfs_connection+0xb42>
    44e0:	8b b5 94 fe ff ff    	mov    -0x16c(%ebp),%esi
    44e6:	8b 1d 0c 81 00 00    	mov    0x810c,%ebx
    44ec:	89 f1                	mov    %esi,%ecx
    44ee:	c7 85 a0 fe ff ff 00 	movl   $0x0,-0x160(%ebp)
    44f5:	00 00 00 
    44f8:	81 e1 ff ff 01 00    	and    $0x1ffff,%ecx
    44fe:	80 3c 0b 2f          	cmpb   $0x2f,(%ebx,%ecx,1)
    4502:	0f 94 c1             	sete   %cl
    4505:	81 e1 ff 00 00 00    	and    $0xff,%ecx
    450b:	8d 34 0e             	lea    (%esi,%ecx,1),%esi
    450e:	39 d6                	cmp    %edx,%esi
    4510:	0f 87 31 01 00 00    	ja     4647 <vfs_connection+0x287>
    4516:	8b 8d 98 fe ff ff    	mov    -0x168(%ebp),%ecx
    451c:	89 bd 80 fe ff ff    	mov    %edi,-0x180(%ebp)
    4522:	c1 e9 03             	shr    $0x3,%ecx
    4525:	89 d7                	mov    %edx,%edi
    4527:	83 f1 01             	xor    $0x1,%ecx
    452a:	89 8d 84 fe ff ff    	mov    %ecx,-0x17c(%ebp)
    4530:	52                   	push   %edx
    4531:	52                   	push   %edx
    4532:	50                   	push   %eax
    4533:	8d 85 af fe ff ff    	lea    -0x151(%ebp),%eax
    4539:	50                   	push   %eax
    453a:	8b 85 a4 fe ff ff    	mov    -0x15c(%ebp),%eax
    4540:	ff 50 24             	call   *0x24(%eax)
    4543:	83 c4 10             	add    $0x10,%esp
    4546:	85 c0                	test   %eax,%eax
    4548:	0f 85 f6 0a 00 00    	jne    5044 <vfs_connection+0xc84>
    454e:	80 bd af fe ff ff 00 	cmpb   $0x0,-0x151(%ebp)
    4555:	0f 84 47 0b 00 00    	je     50a2 <vfs_connection+0xce2>
    455b:	8b 1d 0c 81 00 00    	mov    0x810c,%ebx
    4561:	8d b4 26 00 00 00 00 	lea    0x0(%esi,%eiz,1),%esi
    4568:	89 f2                	mov    %esi,%edx
    456a:	81 e2 ff ff 01 00    	and    $0x1ffff,%edx
    4570:	8a 14 13             	mov    (%ebx,%edx,1),%dl
    4573:	80 fa 2f             	cmp    $0x2f,%dl
    4576:	0f 84 74 08 00 00    	je     4df0 <vfs_connection+0xa30>
    457c:	3d ff 00 00 00       	cmp    $0xff,%eax
    4581:	0f 84 3d 09 00 00    	je     4ec4 <vfs_connection+0xb04>
    4587:	40                   	inc    %eax
    4588:	46                   	inc    %esi
    4589:	39 f7                	cmp    %esi,%edi
    458b:	88 94 05 df fe ff ff 	mov    %dl,-0x121(%ebp,%eax,1)
    4592:	73 d4                	jae    4568 <vfs_connection+0x1a8>
    4594:	c6 84 05 e0 fe ff ff 	movb   $0x0,-0x120(%ebp,%eax,1)
    459b:	00 
    459c:	8b 85 b0 fe ff ff    	mov    -0x150(%ebp),%eax
    45a2:	53                   	push   %ebx
    45a3:	8d 9d e0 fe ff ff    	lea    -0x120(%ebp),%ebx
    45a9:	53                   	push   %ebx
    45aa:	50                   	push   %eax
    45ab:	8d 85 b4 fe ff ff    	lea    -0x14c(%ebp),%eax
    45b1:	89 b5 8c fe ff ff    	mov    %esi,-0x174(%ebp)
    45b7:	50                   	push   %eax
    45b8:	8b 85 a4 fe ff ff    	mov    -0x15c(%ebp),%eax
    45be:	46                   	inc    %esi
    45bf:	ff 50 04             	call   *0x4(%eax)
    45c2:	83 c4 10             	add    $0x10,%esp
    45c5:	85 c0                	test   %eax,%eax
    45c7:	0f 85 77 0a 00 00    	jne    5044 <vfs_connection+0xc84>
    45cd:	8b 85 b4 fe ff ff    	mov    -0x14c(%ebp),%eax
    45d3:	85 c0                	test   %eax,%eax
    45d5:	0f 84 7a 0b 00 00    	je     5155 <vfs_connection+0xd95>
    45db:	80 38 00             	cmpb   $0x0,(%eax)
    45de:	74 15                	je     45f5 <vfs_connection+0x235>
    45e0:	f6 85 84 fe ff ff 01 	testb  $0x1,-0x17c(%ebp)
    45e7:	0f 85 33 0c 00 00    	jne    5220 <vfs_connection+0xe60>
    45ed:	39 f7                	cmp    %esi,%edi
    45ef:	0f 83 2b 0c 00 00    	jae    5220 <vfs_connection+0xe60>
    45f5:	8b 8d a0 fe ff ff    	mov    -0x160(%ebp),%ecx
    45fb:	85 c9                	test   %ecx,%ecx
    45fd:	74 1e                	je     461d <vfs_connection+0x25d>
    45ff:	83 ec 0c             	sub    $0xc,%esp
    4602:	8b 85 a4 fe ff ff    	mov    -0x15c(%ebp),%eax
    4608:	51                   	push   %ecx
    4609:	ff 50 10             	call   *0x10(%eax)
    460c:	83 c4 10             	add    $0x10,%esp
    460f:	85 c0                	test   %eax,%eax
    4611:	0f 85 2d 0a 00 00    	jne    5044 <vfs_connection+0xc84>
    4617:	8b 85 b4 fe ff ff    	mov    -0x14c(%ebp),%eax
    461d:	8b 8d b0 fe ff ff    	mov    -0x150(%ebp),%ecx
    4623:	c7 85 b4 fe ff ff 00 	movl   $0x0,-0x14c(%ebp)
    462a:	00 00 00 
    462d:	89 8d a0 fe ff ff    	mov    %ecx,-0x160(%ebp)
    4633:	89 85 b0 fe ff ff    	mov    %eax,-0x150(%ebp)
    4639:	39 f7                	cmp    %esi,%edi
    463b:	0f 83 ef fe ff ff    	jae    4530 <vfs_connection+0x170>
    4641:	8b bd 80 fe ff ff    	mov    -0x180(%ebp),%edi
    4647:	f6 85 98 fe ff ff 80 	testb  $0x80,-0x168(%ebp)
    464e:	0f 85 90 0c 00 00    	jne    52e4 <vfs_connection+0xf24>
    4654:	8b 8d 98 fe ff ff    	mov    -0x168(%ebp),%ecx
    465a:	89 c8                	mov    %ecx,%eax
    465c:	83 e0 30             	and    $0x30,%eax
    465f:	83 f8 30             	cmp    $0x30,%eax
    4662:	0f 84 6a 0c 00 00    	je     52d2 <vfs_connection+0xf12>
    4668:	89 c8                	mov    %ecx,%eax
    466a:	a8 40                	test   $0x40,%al
    466c:	0f 85 60 0c 00 00    	jne    52d2 <vfs_connection+0xf12>
    4672:	f6 85 98 fe ff ff 01 	testb  $0x1,-0x168(%ebp)
    4679:	0f 85 b7 0d 00 00    	jne    5436 <vfs_connection+0x1076>
    467f:	f6 85 98 fe ff ff 02 	testb  $0x2,-0x168(%ebp)
    4686:	0f 85 77 0d 00 00    	jne    5403 <vfs_connection+0x1043>
    468c:	f6 85 98 fe ff ff 04 	testb  $0x4,-0x168(%ebp)
    4693:	0f 84 ee 0c 00 00    	je     5387 <vfs_connection+0xfc7>
    4699:	8b 8d a0 fe ff ff    	mov    -0x160(%ebp),%ecx
    469f:	85 c9                	test   %ecx,%ecx
    46a1:	0f 84 e0 0c 00 00    	je     5387 <vfs_connection+0xfc7>
    46a7:	52                   	push   %edx
    46a8:	52                   	push   %edx
    46a9:	6a f2                	push   $0xfffffff2
    46ab:	57                   	push   %edi
    46ac:	e8 ef 18 00 00       	call   5fa0 <async_answer_0@plt>
    46b1:	83 c4 10             	add    $0x10,%esp
    46b4:	83 ec 0c             	sub    $0xc,%esp
    46b7:	8b 85 a4 fe ff ff    	mov    -0x15c(%ebp),%eax
    46bd:	8b 95 a0 fe ff ff    	mov    -0x160(%ebp),%edx
    46c3:	52                   	push   %edx
    46c4:	ff 50 10             	call   *0x10(%eax)
    46c7:	8b 85 b0 fe ff ff    	mov    -0x150(%ebp),%eax
    46cd:	83 c4 10             	add    $0x10,%esp
    46d0:	85 c0                	test   %eax,%eax
    46d2:	74 10                	je     46e4 <vfs_connection+0x324>
    46d4:	83 ec 0c             	sub    $0xc,%esp
    46d7:	50                   	push   %eax
    46d8:	8b 85 a4 fe ff ff    	mov    -0x15c(%ebp),%eax
    46de:	ff 50 10             	call   *0x10(%eax)
    46e1:	83 c4 10             	add    $0x10,%esp
    46e4:	8b 85 b4 fe ff ff    	mov    -0x14c(%ebp),%eax
    46ea:	85 c0                	test   %eax,%eax
    46ec:	0f 84 e6 fc ff ff    	je     43d8 <vfs_connection+0x18>
    46f2:	83 ec 0c             	sub    $0xc,%esp
    46f5:	50                   	push   %eax
    46f6:	8b 85 a4 fe ff ff    	mov    -0x15c(%ebp),%eax
    46fc:	ff 50 10             	call   *0x10(%eax)
    46ff:	83 c4 10             	add    $0x10,%esp
    4702:	e9 d1 fc ff ff       	jmp    43d8 <vfs_connection+0x18>
    4707:	90                   	nop
    4708:	a1 08 81 00 00       	mov    0x8108,%eax
    470d:	8b b5 c4 fe ff ff    	mov    -0x13c(%ebp),%esi
    4713:	89 85 a4 fe ff ff    	mov    %eax,-0x15c(%ebp)
    4719:	8b 1d 00 81 00 00    	mov    0x8100,%ebx
    471f:	8b 85 c0 fe ff ff    	mov    -0x140(%ebp),%eax
    4725:	52                   	push   %edx
    4726:	89 85 a0 fe ff ff    	mov    %eax,-0x160(%ebp)
    472c:	56                   	push   %esi
    472d:	50                   	push   %eax
    472e:	8d 85 b0 fe ff ff    	lea    -0x150(%ebp),%eax
    4734:	50                   	push   %eax
    4735:	ff 53 08             	call   *0x8(%ebx)
    4738:	83 c4 10             	add    $0x10,%esp
    473b:	85 c0                	test   %eax,%eax
    473d:	0f 85 6d 04 00 00    	jne    4bb0 <vfs_connection+0x7f0>
    4743:	50                   	push   %eax
    4744:	50                   	push   %eax
    4745:	8d 85 b8 fe ff ff    	lea    -0x148(%ebp),%eax
    474b:	50                   	push   %eax
    474c:	8d 85 b4 fe ff ff    	lea    -0x14c(%ebp),%eax
    4752:	50                   	push   %eax
    4753:	e8 d8 19 00 00       	call   6130 <async_data_read_receive@plt>
    4758:	83 c4 10             	add    $0x10,%esp
    475b:	84 c0                	test   %al,%al
    475d:	0f 84 e0 05 00 00    	je     4d43 <vfs_connection+0x983>
    4763:	83 bd b8 fe ff ff 20 	cmpl   $0x20,-0x148(%ebp)
    476a:	0f 85 d3 05 00 00    	jne    4d43 <vfs_connection+0x983>
    4770:	8d 8d e0 fe ff ff    	lea    -0x120(%ebp),%ecx
    4776:	50                   	push   %eax
    4777:	89 8d 9c fe ff ff    	mov    %ecx,-0x164(%ebp)
    477d:	6a 20                	push   $0x20
    477f:	6a 00                	push   $0x0
    4781:	51                   	push   %ecx
    4782:	e8 99 19 00 00       	call   6120 <memset@plt>
    4787:	8b 85 a4 fe ff ff    	mov    -0x15c(%ebp),%eax
    478d:	66 89 85 e0 fe ff ff 	mov    %ax,-0x120(%ebp)
    4794:	8b 85 a0 fe ff ff    	mov    -0x160(%ebp),%eax
    479a:	8b 95 b0 fe ff ff    	mov    -0x150(%ebp),%edx
    47a0:	89 85 e4 fe ff ff    	mov    %eax,-0x11c(%ebp)
    47a6:	89 b5 e8 fe ff ff    	mov    %esi,-0x118(%ebp)
    47ac:	58                   	pop    %eax
    47ad:	52                   	push   %edx
    47ae:	ff 53 30             	call   *0x30(%ebx)
    47b1:	8b b5 b0 fe ff ff    	mov    -0x150(%ebp),%esi
    47b7:	89 85 ec fe ff ff    	mov    %eax,-0x114(%ebp)
    47bd:	59                   	pop    %ecx
    47be:	56                   	push   %esi
    47bf:	ff 53 38             	call   *0x38(%ebx)
    47c2:	88 85 f0 fe ff ff    	mov    %al,-0x110(%ebp)
    47c8:	58                   	pop    %eax
    47c9:	8b 85 b0 fe ff ff    	mov    -0x150(%ebp),%eax
    47cf:	50                   	push   %eax
    47d0:	ff 53 34             	call   *0x34(%ebx)
    47d3:	88 85 f1 fe ff ff    	mov    %al,-0x10f(%ebp)
    47d9:	58                   	pop    %eax
    47da:	8b 85 b0 fe ff ff    	mov    -0x150(%ebp),%eax
    47e0:	50                   	push   %eax
    47e1:	ff 53 2c             	call   *0x2c(%ebx)
    47e4:	89 85 f4 fe ff ff    	mov    %eax,-0x10c(%ebp)
    47ea:	89 95 f8 fe ff ff    	mov    %edx,-0x108(%ebp)
    47f0:	58                   	pop    %eax
    47f1:	8b 85 b0 fe ff ff    	mov    -0x150(%ebp),%eax
    47f7:	50                   	push   %eax
    47f8:	ff 53 3c             	call   *0x3c(%ebx)
    47fb:	8b 8d b0 fe ff ff    	mov    -0x150(%ebp),%ecx
    4801:	5a                   	pop    %edx
    4802:	89 85 fc fe ff ff    	mov    %eax,-0x104(%ebp)
    4808:	51                   	push   %ecx
    4809:	ff 53 10             	call   *0x10(%ebx)
    480c:	83 c4 0c             	add    $0xc,%esp
    480f:	8b 8d 9c fe ff ff    	mov    -0x164(%ebp),%ecx
    4815:	6a 20                	push   $0x20
    4817:	51                   	push   %ecx
    4818:	e9 01 08 00 00       	jmp    501e <vfs_connection+0xc5e>
    481d:	8d 76 00             	lea    0x0(%esi),%esi
    4820:	50                   	push   %eax
    4821:	50                   	push   %eax
    4822:	8b 85 c4 fe ff ff    	mov    -0x13c(%ebp),%eax
    4828:	50                   	push   %eax
    4829:	8b 85 c0 fe ff ff    	mov    -0x140(%ebp),%eax
    482f:	50                   	push   %eax
    4830:	a1 04 81 00 00       	mov    0x8104,%eax
    4835:	ff 50 1c             	call   *0x1c(%eax)
    4838:	e9 eb fb ff ff       	jmp    4428 <vfs_connection+0x68>
    483d:	8d 76 00             	lea    0x0(%esi),%esi
    4840:	83 ec 0c             	sub    $0xc,%esp
    4843:	a1 04 81 00 00       	mov    0x8104,%eax
    4848:	8b 8d c0 fe ff ff    	mov    -0x140(%ebp),%ecx
    484e:	51                   	push   %ecx
    484f:	ff 50 04             	call   *0x4(%eax)
    4852:	e9 d1 fb ff ff       	jmp    4428 <vfs_connection+0x68>
    4857:	90                   	nop
    4858:	8b 1d 00 81 00 00    	mov    0x8100,%ebx
    485e:	50                   	push   %eax
    485f:	8b 85 c4 fe ff ff    	mov    -0x13c(%ebp),%eax
    4865:	8b 95 c0 fe ff ff    	mov    -0x140(%ebp),%edx
    486b:	50                   	push   %eax
    486c:	8d 85 e0 fe ff ff    	lea    -0x120(%ebp),%eax
    4872:	52                   	push   %edx
    4873:	50                   	push   %eax
    4874:	ff 53 08             	call   *0x8(%ebx)
    4877:	83 c4 10             	add    $0x10,%esp
    487a:	85 c0                	test   %eax,%eax
    487c:	0f 85 2e 03 00 00    	jne    4bb0 <vfs_connection+0x7f0>
    4882:	8b 85 e0 fe ff ff    	mov    -0x120(%ebp),%eax
    4888:	85 c0                	test   %eax,%eax
    488a:	0f 84 ac 07 00 00    	je     503c <vfs_connection+0xc7c>
    4890:	80 38 00             	cmpb   $0x0,(%eax)
    4893:	0f 84 1f 06 00 00    	je     4eb8 <vfs_connection+0xaf8>
    4899:	83 ec 0c             	sub    $0xc,%esp
    489c:	8b 40 04             	mov    0x4(%eax),%eax
    489f:	50                   	push   %eax
    48a0:	e8 0b 19 00 00       	call   61b0 <async_exchange_begin@plt>
    48a5:	83 c4 0c             	add    $0xc,%esp
    48a8:	89 c2                	mov    %eax,%edx
    48aa:	8b 85 e0 fe ff ff    	mov    -0x120(%ebp),%eax
    48b0:	89 95 a4 fe ff ff    	mov    %edx,-0x15c(%ebp)
    48b6:	6a 00                	push   $0x0
    48b8:	6a 00                	push   $0x0
    48ba:	6a 00                	push   $0x0
    48bc:	6a 00                	push   $0x0
    48be:	6a 00                	push   $0x0
    48c0:	6a 00                	push   $0x0
    48c2:	6a 00                	push   $0x0
    48c4:	6a 00                	push   $0x0
    48c6:	8b 40 0c             	mov    0xc(%eax),%eax
    48c9:	50                   	push   %eax
    48ca:	68 08 04 00 00       	push   $0x408
    48cf:	52                   	push   %edx
    48d0:	e8 bb 16 00 00       	call   5f90 <async_req_fast@plt>
    48d5:	83 c4 24             	add    $0x24,%esp
    48d8:	8b 95 a4 fe ff ff    	mov    -0x15c(%ebp),%edx
    48de:	89 c6                	mov    %eax,%esi
    48e0:	52                   	push   %edx
    48e1:	e8 3a 17 00 00       	call   6020 <async_exchange_end@plt>
    48e6:	83 c4 10             	add    $0x10,%esp
    48e9:	85 f6                	test   %esi,%esi
    48eb:	75 38                	jne    4925 <vfs_connection+0x565>
    48ed:	8b 85 e0 fe ff ff    	mov    -0x120(%ebp),%eax
    48f3:	83 ec 0c             	sub    $0xc,%esp
    48f6:	8b 40 04             	mov    0x4(%eax),%eax
    48f9:	50                   	push   %eax
    48fa:	e8 61 15 00 00       	call   5e60 <async_hangup@plt>
    48ff:	8b 85 e0 fe ff ff    	mov    -0x120(%ebp),%eax
    4905:	c6 00 00             	movb   $0x0,(%eax)
    4908:	66 c7 40 08 00 00    	movw   $0x0,0x8(%eax)
    490e:	c7 40 0c 00 00 00 00 	movl   $0x0,0xc(%eax)
    4915:	c7 40 04 00 00 00 00 	movl   $0x0,0x4(%eax)
    491c:	89 04 24             	mov    %eax,(%esp)
    491f:	ff 53 10             	call   *0x10(%ebx)
    4922:	83 c4 10             	add    $0x10,%esp
    4925:	83 ec 0c             	sub    $0xc,%esp
    4928:	8b 8d e0 fe ff ff    	mov    -0x120(%ebp),%ecx
    492e:	51                   	push   %ecx
    492f:	ff 53 10             	call   *0x10(%ebx)
    4932:	5b                   	pop    %ebx
    4933:	58                   	pop    %eax
    4934:	56                   	push   %esi
    4935:	57                   	push   %edi
    4936:	e8 65 16 00 00       	call   5fa0 <async_answer_0@plt>
    493b:	83 c4 10             	add    $0x10,%esp
    493e:	e9 95 fa ff ff       	jmp    43d8 <vfs_connection+0x18>
    4943:	90                   	nop
    4944:	8d 74 26 00          	lea    0x0(%esi,%eiz,1),%esi
    4948:	50                   	push   %eax
    4949:	50                   	push   %eax
    494a:	8d 85 b0 fe ff ff    	lea    -0x150(%ebp),%eax
    4950:	6a 00                	push   $0x0
    4952:	8b 9d c0 fe ff ff    	mov    -0x140(%ebp),%ebx
    4958:	6a 00                	push   $0x0
    495a:	6a 00                	push   $0x0
    495c:	6a 00                	push   $0x0
    495e:	6a 01                	push   $0x1
    4960:	50                   	push   %eax
    4961:	e8 8a 18 00 00       	call   61f0 <async_data_write_accept@plt>
    4966:	83 c4 20             	add    $0x20,%esp
    4969:	85 c0                	test   %eax,%eax
    496b:	0f 85 3f 02 00 00    	jne    4bb0 <vfs_connection+0x7f0>
    4971:	83 ec 0c             	sub    $0xc,%esp
    4974:	8d 85 b8 fe ff ff    	lea    -0x148(%ebp),%eax
    497a:	50                   	push   %eax
    497b:	8d 85 e0 fe ff ff    	lea    -0x120(%ebp),%eax
    4981:	50                   	push   %eax
    4982:	8d 85 b4 fe ff ff    	lea    -0x14c(%ebp),%eax
    4988:	50                   	push   %eax
    4989:	8b 85 b0 fe ff ff    	mov    -0x150(%ebp),%eax
    498f:	50                   	push   %eax
    4990:	a1 04 81 00 00       	mov    0x8104,%eax
    4995:	53                   	push   %ebx
    4996:	ff 10                	call   *(%eax)
    4998:	83 c4 20             	add    $0x20,%esp
    499b:	85 c0                	test   %eax,%eax
    499d:	0f 85 85 04 00 00    	jne    4e28 <vfs_connection+0xa68>
    49a3:	8b 85 e0 fe ff ff    	mov    -0x120(%ebp),%eax
    49a9:	8b 9d b8 fe ff ff    	mov    -0x148(%ebp),%ebx
    49af:	8b b5 e4 fe ff ff    	mov    -0x11c(%ebp),%esi
    49b5:	51                   	push   %ecx
    49b6:	51                   	push   %ecx
    49b7:	53                   	push   %ebx
    49b8:	56                   	push   %esi
    49b9:	50                   	push   %eax
    49ba:	8b 85 b4 fe ff ff    	mov    -0x14c(%ebp),%eax
    49c0:	50                   	push   %eax
    49c1:	6a 00                	push   $0x0
    49c3:	57                   	push   %edi
    49c4:	e8 e7 16 00 00       	call   60b0 <async_answer_4@plt>
    49c9:	83 c4 20             	add    $0x20,%esp
    49cc:	83 ec 0c             	sub    $0xc,%esp
    49cf:	8b 85 b0 fe ff ff    	mov    -0x150(%ebp),%eax
    49d5:	50                   	push   %eax
    49d6:	e8 85 18 00 00       	call   6260 <free@plt>
    49db:	83 c4 10             	add    $0x10,%esp
    49de:	e9 f5 f9 ff ff       	jmp    43d8 <vfs_connection+0x18>
    49e3:	90                   	nop
    49e4:	8d 74 26 00          	lea    0x0(%esi,%eiz,1),%esi
    49e8:	a1 00 81 00 00       	mov    0x8100,%eax
    49ed:	83 ec 0c             	sub    $0xc,%esp
    49f0:	89 85 a4 fe ff ff    	mov    %eax,-0x15c(%ebp)
    49f6:	8b 85 c4 fe ff ff    	mov    -0x13c(%ebp),%eax
    49fc:	89 85 a0 fe ff ff    	mov    %eax,-0x160(%ebp)
    4a02:	8b 85 c8 fe ff ff    	mov    -0x138(%ebp),%eax
    4a08:	89 85 98 fe ff ff    	mov    %eax,-0x168(%ebp)
    4a0e:	8b 85 cc fe ff ff    	mov    -0x134(%ebp),%eax
    4a14:	6a 02                	push   $0x2
    4a16:	8b 9d c0 fe ff ff    	mov    -0x140(%ebp),%ebx
    4a1c:	89 85 9c fe ff ff    	mov    %eax,-0x164(%ebp)
    4a22:	e8 99 16 00 00       	call   60c0 <async_clone_receive@plt>
    4a27:	83 c4 10             	add    $0x10,%esp
    4a2a:	89 c6                	mov    %eax,%esi
    4a2c:	85 c0                	test   %eax,%eax
    4a2e:	0f 84 bc 04 00 00    	je     4ef0 <vfs_connection+0xb30>
    4a34:	8b 85 a0 fe ff ff    	mov    -0x160(%ebp),%eax
    4a3a:	51                   	push   %ecx
    4a3b:	50                   	push   %eax
    4a3c:	8d 85 b8 fe ff ff    	lea    -0x148(%ebp),%eax
    4a42:	53                   	push   %ebx
    4a43:	50                   	push   %eax
    4a44:	8b 85 a4 fe ff ff    	mov    -0x15c(%ebp),%eax
    4a4a:	ff 50 08             	call   *0x8(%eax)
    4a4d:	83 c4 10             	add    $0x10,%esp
    4a50:	89 c3                	mov    %eax,%ebx
    4a52:	85 c0                	test   %eax,%eax
    4a54:	0f 85 36 04 00 00    	jne    4e90 <vfs_connection+0xad0>
    4a5a:	8b 85 b8 fe ff ff    	mov    -0x148(%ebp),%eax
    4a60:	85 c0                	test   %eax,%eax
    4a62:	0f 84 15 05 00 00    	je     4f7d <vfs_connection+0xbbd>
    4a68:	80 38 00             	cmpb   $0x0,(%eax)
    4a6b:	0f 85 e7 03 00 00    	jne    4e58 <vfs_connection+0xa98>
    4a71:	83 ec 0c             	sub    $0xc,%esp
    4a74:	56                   	push   %esi
    4a75:	e8 36 17 00 00       	call   61b0 <async_exchange_begin@plt>
    4a7a:	89 c3                	mov    %eax,%ebx
    4a7c:	58                   	pop    %eax
    4a7d:	5a                   	pop    %edx
    4a7e:	53                   	push   %ebx
    4a7f:	6a 02                	push   $0x2
    4a81:	e8 da 14 00 00       	call   5f60 <async_clone_establish@plt>
    4a86:	83 c4 10             	add    $0x10,%esp
    4a89:	85 c0                	test   %eax,%eax
    4a8b:	0f 84 cc 05 00 00    	je     505d <vfs_connection+0xc9d>
    4a91:	50                   	push   %eax
    4a92:	8d 85 e0 fe ff ff    	lea    -0x120(%ebp),%eax
    4a98:	50                   	push   %eax
    4a99:	8b 85 9c fe ff ff    	mov    -0x164(%ebp),%eax
    4a9f:	6a 00                	push   $0x0
    4aa1:	6a 00                	push   $0x0
    4aa3:	6a 00                	push   $0x0
    4aa5:	50                   	push   %eax
    4aa6:	68 06 04 00 00       	push   $0x406
    4aab:	53                   	push   %ebx
    4aac:	e8 bf 13 00 00       	call   5e70 <async_data_write_forward_fast@plt>
    4ab1:	83 c4 14             	add    $0x14,%esp
    4ab4:	89 85 a4 fe ff ff    	mov    %eax,-0x15c(%ebp)
    4aba:	53                   	push   %ebx
    4abb:	e8 60 15 00 00       	call   6020 <async_exchange_end@plt>
    4ac0:	8b 95 a4 fe ff ff    	mov    -0x15c(%ebp),%edx
    4ac6:	83 c4 10             	add    $0x10,%esp
    4ac9:	85 d2                	test   %edx,%edx
    4acb:	75 1f                	jne    4aec <vfs_connection+0x72c>
    4acd:	8b 85 b8 fe ff ff    	mov    -0x148(%ebp),%eax
    4ad3:	8b 9d 98 fe ff ff    	mov    -0x168(%ebp),%ebx
    4ad9:	8b 8d 9c fe ff ff    	mov    -0x164(%ebp),%ecx
    4adf:	c6 00 01             	movb   $0x1,(%eax)
    4ae2:	66 89 58 08          	mov    %bx,0x8(%eax)
    4ae6:	89 48 0c             	mov    %ecx,0xc(%eax)
    4ae9:	89 70 04             	mov    %esi,0x4(%eax)
    4aec:	8b 85 ec fe ff ff    	mov    -0x114(%ebp),%eax
    4af2:	8b b5 f0 fe ff ff    	mov    -0x110(%ebp),%esi
    4af8:	53                   	push   %ebx
    4af9:	53                   	push   %ebx
    4afa:	56                   	push   %esi
    4afb:	50                   	push   %eax
    4afc:	8b 85 e8 fe ff ff    	mov    -0x118(%ebp),%eax
    4b02:	50                   	push   %eax
    4b03:	8b 85 e4 fe ff ff    	mov    -0x11c(%ebp),%eax
    4b09:	50                   	push   %eax
    4b0a:	52                   	push   %edx
    4b0b:	57                   	push   %edi
    4b0c:	e8 9f 15 00 00       	call   60b0 <async_answer_4@plt>
    4b11:	83 c4 20             	add    $0x20,%esp
    4b14:	e9 bf f8 ff ff       	jmp    43d8 <vfs_connection+0x18>
    4b19:	8d b4 26 00 00 00 00 	lea    0x0(%esi,%eiz,1),%esi
    4b20:	8b 85 c4 fe ff ff    	mov    -0x13c(%ebp),%eax
    4b26:	56                   	push   %esi
    4b27:	56                   	push   %esi
    4b28:	50                   	push   %eax
    4b29:	8b 85 c0 fe ff ff    	mov    -0x140(%ebp),%eax
    4b2f:	50                   	push   %eax
    4b30:	a1 04 81 00 00       	mov    0x8104,%eax
    4b35:	ff 50 14             	call   *0x14(%eax)
    4b38:	e9 eb f8 ff ff       	jmp    4428 <vfs_connection+0x68>
    4b3d:	8d 76 00             	lea    0x0(%esi),%esi
    4b40:	8b 85 c4 fe ff ff    	mov    -0x13c(%ebp),%eax
    4b46:	8b 9d cc fe ff ff    	mov    -0x134(%ebp),%ebx
    4b4c:	8b b5 c8 fe ff ff    	mov    -0x138(%ebp),%esi
    4b52:	53                   	push   %ebx
    4b53:	56                   	push   %esi
    4b54:	50                   	push   %eax
    4b55:	8b 85 c0 fe ff ff    	mov    -0x140(%ebp),%eax
    4b5b:	50                   	push   %eax
    4b5c:	a1 04 81 00 00       	mov    0x8104,%eax
    4b61:	ff 50 10             	call   *0x10(%eax)
    4b64:	e9 bf f8 ff ff       	jmp    4428 <vfs_connection+0x68>
    4b69:	8d b4 26 00 00 00 00 	lea    0x0(%esi,%eiz,1),%esi
    4b70:	50                   	push   %eax
    4b71:	50                   	push   %eax
    4b72:	8d 85 e0 fe ff ff    	lea    -0x120(%ebp),%eax
    4b78:	8b 95 cc fe ff ff    	mov    -0x134(%ebp),%edx
    4b7e:	50                   	push   %eax
    4b7f:	8d 85 b8 fe ff ff    	lea    -0x148(%ebp),%eax
    4b85:	50                   	push   %eax
    4b86:	a1 04 81 00 00       	mov    0x8104,%eax
    4b8b:	8b 8d c8 fe ff ff    	mov    -0x138(%ebp),%ecx
    4b91:	8b 9d c4 fe ff ff    	mov    -0x13c(%ebp),%ebx
    4b97:	8b b5 c0 fe ff ff    	mov    -0x140(%ebp),%esi
    4b9d:	52                   	push   %edx
    4b9e:	51                   	push   %ecx
    4b9f:	53                   	push   %ebx
    4ba0:	56                   	push   %esi
    4ba1:	ff 50 0c             	call   *0xc(%eax)
    4ba4:	83 c4 20             	add    $0x20,%esp
    4ba7:	85 c0                	test   %eax,%eax
    4ba9:	0f 84 19 02 00 00    	je     4dc8 <vfs_connection+0xa08>
    4baf:	90                   	nop
    4bb0:	52                   	push   %edx
    4bb1:	52                   	push   %edx
    4bb2:	50                   	push   %eax
    4bb3:	57                   	push   %edi
    4bb4:	e8 e7 13 00 00       	call   5fa0 <async_answer_0@plt>
    4bb9:	83 c4 10             	add    $0x10,%esp
    4bbc:	e9 17 f8 ff ff       	jmp    43d8 <vfs_connection+0x18>
    4bc1:	8d b4 26 00 00 00 00 	lea    0x0(%esi,%eiz,1),%esi
    4bc8:	83 ec 0c             	sub    $0xc,%esp
    4bcb:	8d 85 e0 fe ff ff    	lea    -0x120(%ebp),%eax
    4bd1:	50                   	push   %eax
    4bd2:	8b 85 cc fe ff ff    	mov    -0x134(%ebp),%eax
    4bd8:	50                   	push   %eax
    4bd9:	8b 85 c8 fe ff ff    	mov    -0x138(%ebp),%eax
    4bdf:	50                   	push   %eax
    4be0:	8b 85 c4 fe ff ff    	mov    -0x13c(%ebp),%eax
    4be6:	50                   	push   %eax
    4be7:	8b 85 c0 fe ff ff    	mov    -0x140(%ebp),%eax
    4bed:	50                   	push   %eax
    4bee:	a1 04 81 00 00       	mov    0x8104,%eax
    4bf3:	ff 50 08             	call   *0x8(%eax)
    4bf6:	83 c4 20             	add    $0x20,%esp
    4bf9:	85 c0                	test   %eax,%eax
    4bfb:	75 b3                	jne    4bb0 <vfs_connection+0x7f0>
    4bfd:	50                   	push   %eax
    4bfe:	8b 85 e0 fe ff ff    	mov    -0x120(%ebp),%eax
    4c04:	50                   	push   %eax
    4c05:	6a 00                	push   $0x0
    4c07:	57                   	push   %edi
    4c08:	e8 93 15 00 00       	call   61a0 <async_answer_1@plt>
    4c0d:	83 c4 10             	add    $0x10,%esp
    4c10:	e9 c3 f7 ff ff       	jmp    43d8 <vfs_connection+0x18>
    4c15:	8d 76 00             	lea    0x0(%esi),%esi
    4c18:	50                   	push   %eax
    4c19:	8b 85 c4 fe ff ff    	mov    -0x13c(%ebp),%eax
    4c1f:	50                   	push   %eax
    4c20:	8b 1d 00 81 00 00    	mov    0x8100,%ebx
    4c26:	8b 85 c0 fe ff ff    	mov    -0x140(%ebp),%eax
    4c2c:	50                   	push   %eax
    4c2d:	8d 85 e0 fe ff ff    	lea    -0x120(%ebp),%eax
    4c33:	50                   	push   %eax
    4c34:	ff 53 08             	call   *0x8(%ebx)
    4c37:	83 c4 10             	add    $0x10,%esp
    4c3a:	89 c6                	mov    %eax,%esi
    4c3c:	85 c0                	test   %eax,%eax
    4c3e:	0f 85 fc 01 00 00    	jne    4e40 <vfs_connection+0xa80>
    4c44:	8b 85 e0 fe ff ff    	mov    -0x120(%ebp),%eax
    4c4a:	85 c0                	test   %eax,%eax
    4c4c:	0f 84 19 03 00 00    	je     4f6b <vfs_connection+0xbab>
    4c52:	83 ec 0c             	sub    $0xc,%esp
    4c55:	50                   	push   %eax
    4c56:	ff 53 0c             	call   *0xc(%ebx)
    4c59:	89 85 a4 fe ff ff    	mov    %eax,-0x15c(%ebp)
    4c5f:	58                   	pop    %eax
    4c60:	8b 85 e0 fe ff ff    	mov    -0x120(%ebp),%eax
    4c66:	50                   	push   %eax
    4c67:	ff 53 2c             	call   *0x2c(%ebx)
    4c6a:	89 95 98 fe ff ff    	mov    %edx,-0x168(%ebp)
    4c70:	8b 95 e0 fe ff ff    	mov    -0x120(%ebp),%edx
    4c76:	89 85 9c fe ff ff    	mov    %eax,-0x164(%ebp)
    4c7c:	58                   	pop    %eax
    4c7d:	52                   	push   %edx
    4c7e:	ff 53 38             	call   *0x38(%ebx)
    4c81:	88 c1                	mov    %al,%cl
    4c83:	8b 85 e0 fe ff ff    	mov    -0x120(%ebp),%eax
    4c89:	81 e1 ff 00 00 00    	and    $0xff,%ecx
    4c8f:	89 8d a0 fe ff ff    	mov    %ecx,-0x160(%ebp)
    4c95:	59                   	pop    %ecx
    4c96:	50                   	push   %eax
    4c97:	ff 53 34             	call   *0x34(%ebx)
    4c9a:	83 c4 10             	add    $0x10,%esp
    4c9d:	84 c0                	test   %al,%al
    4c9f:	74 05                	je     4ca6 <vfs_connection+0x8e6>
    4ca1:	be 02 00 00 00       	mov    $0x2,%esi
    4ca6:	83 ec 0c             	sub    $0xc,%esp
    4ca9:	8b 8d e0 fe ff ff    	mov    -0x120(%ebp),%ecx
    4caf:	51                   	push   %ecx
    4cb0:	ff 53 30             	call   *0x30(%ebx)
    4cb3:	5a                   	pop    %edx
    4cb4:	59                   	pop    %ecx
    4cb5:	8b 8d a0 fe ff ff    	mov    -0x160(%ebp),%ecx
    4cbb:	09 f1                	or     %esi,%ecx
    4cbd:	8b b5 98 fe ff ff    	mov    -0x168(%ebp),%esi
    4cc3:	51                   	push   %ecx
    4cc4:	50                   	push   %eax
    4cc5:	8b 85 9c fe ff ff    	mov    -0x164(%ebp),%eax
    4ccb:	56                   	push   %esi
    4ccc:	50                   	push   %eax
    4ccd:	8b 85 a4 fe ff ff    	mov    -0x15c(%ebp),%eax
    4cd3:	50                   	push   %eax
    4cd4:	57                   	push   %edi
    4cd5:	e8 d6 13 00 00       	call   60b0 <async_answer_4@plt>
    4cda:	83 c4 14             	add    $0x14,%esp
    4cdd:	8b 85 e0 fe ff ff    	mov    -0x120(%ebp),%eax
    4ce3:	50                   	push   %eax
    4ce4:	ff 53 10             	call   *0x10(%ebx)
    4ce7:	83 c4 10             	add    $0x10,%esp
    4cea:	e9 e9 f6 ff ff       	jmp    43d8 <vfs_connection+0x18>
    4cef:	90                   	nop
    4cf0:	8b 85 c4 fe ff ff    	mov    -0x13c(%ebp),%eax
    4cf6:	8b 1d 00 81 00 00    	mov    0x8100,%ebx
    4cfc:	8b b5 c0 fe ff ff    	mov    -0x140(%ebp),%esi
    4d02:	51                   	push   %ecx
    4d03:	50                   	push   %eax
    4d04:	8d 85 b0 fe ff ff    	lea    -0x150(%ebp),%eax
    4d0a:	56                   	push   %esi
    4d0b:	50                   	push   %eax
    4d0c:	ff 53 08             	call   *0x8(%ebx)
    4d0f:	83 c4 10             	add    $0x10,%esp
    4d12:	85 c0                	test   %eax,%eax
    4d14:	0f 85 96 fe ff ff    	jne    4bb0 <vfs_connection+0x7f0>
    4d1a:	50                   	push   %eax
    4d1b:	50                   	push   %eax
    4d1c:	8d 85 b8 fe ff ff    	lea    -0x148(%ebp),%eax
    4d22:	50                   	push   %eax
    4d23:	8d 85 b4 fe ff ff    	lea    -0x14c(%ebp),%eax
    4d29:	50                   	push   %eax
    4d2a:	e8 01 14 00 00       	call   6130 <async_data_read_receive@plt>
    4d2f:	83 c4 10             	add    $0x10,%esp
    4d32:	84 c0                	test   %al,%al
    4d34:	74 0d                	je     4d43 <vfs_connection+0x983>
    4d36:	83 bd b8 fe ff ff 18 	cmpl   $0x18,-0x148(%ebp)
    4d3d:	0f 84 4e 02 00 00    	je     4f91 <vfs_connection+0xbd1>
    4d43:	83 ec 0c             	sub    $0xc,%esp
    4d46:	8b b5 b0 fe ff ff    	mov    -0x150(%ebp),%esi
    4d4c:	56                   	push   %esi
    4d4d:	ff 53 10             	call   *0x10(%ebx)
    4d50:	8b 8d b4 fe ff ff    	mov    -0x14c(%ebp),%ecx
    4d56:	58                   	pop    %eax
    4d57:	5a                   	pop    %edx
    4d58:	6a f2                	push   $0xfffffff2
    4d5a:	51                   	push   %ecx
    4d5b:	e8 40 12 00 00       	call   5fa0 <async_answer_0@plt>
    4d60:	5a                   	pop    %edx
    4d61:	59                   	pop    %ecx
    4d62:	6a f2                	push   $0xfffffff2
    4d64:	57                   	push   %edi
    4d65:	e8 36 12 00 00       	call   5fa0 <async_answer_0@plt>
    4d6a:	83 c4 10             	add    $0x10,%esp
    4d6d:	e9 66 f6 ff ff       	jmp    43d8 <vfs_connection+0x18>
    4d72:	8d b6 00 00 00 00    	lea    0x0(%esi),%esi
    4d78:	53                   	push   %ebx
    4d79:	53                   	push   %ebx
    4d7a:	50                   	push   %eax
    4d7b:	57                   	push   %edi
    4d7c:	e8 1f 12 00 00       	call   5fa0 <async_answer_0@plt>
    4d81:	83 c4 10             	add    $0x10,%esp
    4d84:	8b 85 b0 fe ff ff    	mov    -0x150(%ebp),%eax
    4d8a:	85 c0                	test   %eax,%eax
    4d8c:	0f 84 52 f9 ff ff    	je     46e4 <vfs_connection+0x324>
    4d92:	83 ec 0c             	sub    $0xc,%esp
    4d95:	50                   	push   %eax
    4d96:	8b 85 a4 fe ff ff    	mov    -0x15c(%ebp),%eax
    4d9c:	ff 50 10             	call   *0x10(%eax)
    4d9f:	83 c4 10             	add    $0x10,%esp
    4da2:	e9 3d f9 ff ff       	jmp    46e4 <vfs_connection+0x324>
    4da7:	90                   	nop
    4da8:	8d 65 f4             	lea    -0xc(%ebp),%esp
    4dab:	5b                   	pop    %ebx
    4dac:	5e                   	pop    %esi
    4dad:	5f                   	pop    %edi
    4dae:	5d                   	pop    %ebp
    4daf:	c3                   	ret    
    4db0:	50                   	push   %eax
    4db1:	50                   	push   %eax
    4db2:	6a f5                	push   $0xfffffff5
    4db4:	57                   	push   %edi
    4db5:	e8 e6 11 00 00       	call   5fa0 <async_answer_0@plt>
    4dba:	83 c4 10             	add    $0x10,%esp
    4dbd:	e9 16 f6 ff ff       	jmp    43d8 <vfs_connection+0x18>
    4dc2:	8d b6 00 00 00 00    	lea    0x0(%esi),%esi
    4dc8:	83 ec 0c             	sub    $0xc,%esp
    4dcb:	8b 85 e4 fe ff ff    	mov    -0x11c(%ebp),%eax
    4dd1:	50                   	push   %eax
    4dd2:	8b 85 e0 fe ff ff    	mov    -0x120(%ebp),%eax
    4dd8:	50                   	push   %eax
    4dd9:	8b 85 b8 fe ff ff    	mov    -0x148(%ebp),%eax
    4ddf:	50                   	push   %eax
    4de0:	6a 00                	push   $0x0
    4de2:	57                   	push   %edi
    4de3:	e8 e8 13 00 00       	call   61d0 <async_answer_3@plt>
    4de8:	83 c4 20             	add    $0x20,%esp
    4deb:	e9 e8 f5 ff ff       	jmp    43d8 <vfs_connection+0x18>
    4df0:	85 c0                	test   %eax,%eax
    4df2:	0f 85 9c f7 ff ff    	jne    4594 <vfs_connection+0x1d4>
    4df8:	50                   	push   %eax
    4df9:	68 3b 02 00 00       	push   $0x23b
    4dfe:	68 88 5b 00 00       	push   $0x5b88
    4e03:	68 90 5b 00 00       	push   $0x5b90
    4e08:	e8 43 12 00 00       	call   6050 <assert_abort@plt>
    4e0d:	8d 76 00             	lea    0x0(%esi),%esi
    4e10:	52                   	push   %edx
    4e11:	52                   	push   %edx
    4e12:	6a 00                	push   $0x0
    4e14:	50                   	push   %eax
    4e15:	e8 86 11 00 00       	call   5fa0 <async_answer_0@plt>
    4e1a:	83 c4 10             	add    $0x10,%esp
    4e1d:	e9 b6 f5 ff ff       	jmp    43d8 <vfs_connection+0x18>
    4e22:	8d b6 00 00 00 00    	lea    0x0(%esi),%esi
    4e28:	52                   	push   %edx
    4e29:	52                   	push   %edx
    4e2a:	50                   	push   %eax
    4e2b:	57                   	push   %edi
    4e2c:	e8 6f 11 00 00       	call   5fa0 <async_answer_0@plt>
    4e31:	83 c4 10             	add    $0x10,%esp
    4e34:	e9 93 fb ff ff       	jmp    49cc <vfs_connection+0x60c>
    4e39:	8d b4 26 00 00 00 00 	lea    0x0(%esi,%eiz,1),%esi
    4e40:	50                   	push   %eax
    4e41:	50                   	push   %eax
    4e42:	56                   	push   %esi
    4e43:	57                   	push   %edi
    4e44:	e8 57 11 00 00       	call   5fa0 <async_answer_0@plt>
    4e49:	83 c4 10             	add    $0x10,%esp
    4e4c:	e9 87 f5 ff ff       	jmp    43d8 <vfs_connection+0x18>
    4e51:	8d b4 26 00 00 00 00 	lea    0x0(%esi,%eiz,1),%esi
    4e58:	83 ec 0c             	sub    $0xc,%esp
    4e5b:	56                   	push   %esi
    4e5c:	e8 ff 0f 00 00       	call   5e60 <async_hangup@plt>
    4e61:	8b 9d b8 fe ff ff    	mov    -0x148(%ebp),%ebx
    4e67:	8b 85 a4 fe ff ff    	mov    -0x15c(%ebp),%eax
    4e6d:	59                   	pop    %ecx
    4e6e:	53                   	push   %ebx
    4e6f:	ff 50 10             	call   *0x10(%eax)
    4e72:	c7 04 24 f1 ff ff ff 	movl   $0xfffffff1,(%esp)
    4e79:	e8 d2 12 00 00       	call   6150 <async_data_write_void@plt>
    4e7e:	5e                   	pop    %esi
    4e7f:	58                   	pop    %eax
    4e80:	6a f1                	push   $0xfffffff1
    4e82:	57                   	push   %edi
    4e83:	e8 18 11 00 00       	call   5fa0 <async_answer_0@plt>
    4e88:	83 c4 10             	add    $0x10,%esp
    4e8b:	e9 48 f5 ff ff       	jmp    43d8 <vfs_connection+0x18>
    4e90:	83 ec 0c             	sub    $0xc,%esp
    4e93:	56                   	push   %esi
    4e94:	e8 c7 0f 00 00       	call   5e60 <async_hangup@plt>
    4e99:	83 c4 10             	add    $0x10,%esp
    4e9c:	83 ec 0c             	sub    $0xc,%esp
    4e9f:	53                   	push   %ebx
    4ea0:	e8 ab 12 00 00       	call   6150 <async_data_write_void@plt>
    4ea5:	58                   	pop    %eax
    4ea6:	5a                   	pop    %edx
    4ea7:	53                   	push   %ebx
    4ea8:	57                   	push   %edi
    4ea9:	e8 f2 10 00 00       	call   5fa0 <async_answer_0@plt>
    4eae:	83 c4 10             	add    $0x10,%esp
    4eb1:	e9 22 f5 ff ff       	jmp    43d8 <vfs_connection+0x18>
    4eb6:	66 90                	xchg   %ax,%ax
    4eb8:	83 ec 0c             	sub    $0xc,%esp
    4ebb:	50                   	push   %eax
    4ebc:	ff 53 10             	call   *0x10(%ebx)
    4ebf:	e9 9c fe ff ff       	jmp    4d60 <vfs_connection+0x9a0>
    4ec4:	8b bd 80 fe ff ff    	mov    -0x180(%ebp),%edi
    4eca:	53                   	push   %ebx
    4ecb:	53                   	push   %ebx
    4ecc:	68 00 ff ff ff       	push   $0xffffff00
    4ed1:	57                   	push   %edi
    4ed2:	e8 c9 10 00 00       	call   5fa0 <async_answer_0@plt>
    4ed7:	83 c4 10             	add    $0x10,%esp
    4eda:	8b 8d a0 fe ff ff    	mov    -0x160(%ebp),%ecx
    4ee0:	85 c9                	test   %ecx,%ecx
    4ee2:	0f 85 cc f7 ff ff    	jne    46b4 <vfs_connection+0x2f4>
    4ee8:	e9 97 fe ff ff       	jmp    4d84 <vfs_connection+0x9c4>
    4eed:	8d 76 00             	lea    0x0(%esi),%esi
    4ef0:	50                   	push   %eax
    4ef1:	50                   	push   %eax
    4ef2:	6a f2                	push   $0xfffffff2
    4ef4:	57                   	push   %edi
    4ef5:	e8 a6 10 00 00       	call   5fa0 <async_answer_0@plt>
    4efa:	83 c4 10             	add    $0x10,%esp
    4efd:	e9 d6 f4 ff ff       	jmp    43d8 <vfs_connection+0x18>
    4f02:	83 ec 0c             	sub    $0xc,%esp
    4f05:	8b 48 04             	mov    0x4(%eax),%ecx
    4f08:	51                   	push   %ecx
    4f09:	e8 a2 12 00 00       	call   61b0 <async_exchange_begin@plt>
    4f0e:	8b b5 88 fe ff ff    	mov    -0x178(%ebp),%esi
    4f14:	89 c3                	mov    %eax,%ebx
    4f16:	8b 85 98 fe ff ff    	mov    -0x168(%ebp),%eax
    4f1c:	c7 04 24 01 00 00 00 	movl   $0x1,(%esp)
    4f23:	56                   	push   %esi
    4f24:	50                   	push   %eax
    4f25:	8b 85 b0 fe ff ff    	mov    -0x150(%ebp),%eax
    4f2b:	8b 95 a0 fe ff ff    	mov    -0x160(%ebp),%edx
    4f31:	8b 40 0c             	mov    0xc(%eax),%eax
    4f34:	50                   	push   %eax
    4f35:	8b 85 94 fe ff ff    	mov    -0x16c(%ebp),%eax
    4f3b:	52                   	push   %edx
    4f3c:	50                   	push   %eax
    4f3d:	68 0b 04 00 00       	push   $0x40b
    4f42:	53                   	push   %ebx
    4f43:	57                   	push   %edi
    4f44:	e8 37 0f 00 00       	call   5e80 <async_forward_slow@plt>
    4f49:	83 c4 24             	add    $0x24,%esp
    4f4c:	53                   	push   %ebx
    4f4d:	e8 ce 10 00 00       	call   6020 <async_exchange_end@plt>
    4f52:	58                   	pop    %eax
    4f53:	8b 85 b0 fe ff ff    	mov    -0x150(%ebp),%eax
    4f59:	50                   	push   %eax
    4f5a:	8b 85 a4 fe ff ff    	mov    -0x15c(%ebp),%eax
    4f60:	ff 50 10             	call   *0x10(%eax)
    4f63:	83 c4 10             	add    $0x10,%esp
    4f66:	e9 6d f4 ff ff       	jmp    43d8 <vfs_connection+0x18>
    4f6b:	50                   	push   %eax
    4f6c:	50                   	push   %eax
    4f6d:	6a ff                	push   $0xffffffff
    4f6f:	57                   	push   %edi
    4f70:	e8 2b 10 00 00       	call   5fa0 <async_answer_0@plt>
    4f75:	83 c4 10             	add    $0x10,%esp
    4f78:	e9 5b f4 ff ff       	jmp    43d8 <vfs_connection+0x18>
    4f7d:	83 ec 0c             	sub    $0xc,%esp
    4f80:	83 cb ff             	or     $0xffffffff,%ebx
    4f83:	56                   	push   %esi
    4f84:	e8 d7 0e 00 00       	call   5e60 <async_hangup@plt>
    4f89:	83 c4 10             	add    $0x10,%esp
    4f8c:	e9 0b ff ff ff       	jmp    4e9c <vfs_connection+0xadc>
    4f91:	50                   	push   %eax
    4f92:	8d 85 e0 fe ff ff    	lea    -0x120(%ebp),%eax
    4f98:	6a 18                	push   $0x18
    4f9a:	89 85 94 fe ff ff    	mov    %eax,-0x16c(%ebp)
    4fa0:	6a 00                	push   $0x0
    4fa2:	50                   	push   %eax
    4fa3:	e8 78 11 00 00       	call   6120 <memset@plt>
    4fa8:	8b 43 40             	mov    0x40(%ebx),%eax
    4fab:	83 c4 10             	add    $0x10,%esp
    4fae:	85 c0                	test   %eax,%eax
    4fb0:	74 17                	je     4fc9 <vfs_connection+0xc09>
    4fb2:	8d 95 e4 fe ff ff    	lea    -0x11c(%ebp),%edx
    4fb8:	51                   	push   %ecx
    4fb9:	51                   	push   %ecx
    4fba:	52                   	push   %edx
    4fbb:	56                   	push   %esi
    4fbc:	ff d0                	call   *%eax
    4fbe:	83 c4 10             	add    $0x10,%esp
    4fc1:	85 c0                	test   %eax,%eax
    4fc3:	0f 85 7a fd ff ff    	jne    4d43 <vfs_connection+0x983>
    4fc9:	8b 43 44             	mov    0x44(%ebx),%eax
    4fcc:	85 c0                	test   %eax,%eax
    4fce:	74 17                	je     4fe7 <vfs_connection+0xc27>
    4fd0:	52                   	push   %edx
    4fd1:	52                   	push   %edx
    4fd2:	8d 95 e8 fe ff ff    	lea    -0x118(%ebp),%edx
    4fd8:	52                   	push   %edx
    4fd9:	56                   	push   %esi
    4fda:	ff d0                	call   *%eax
    4fdc:	83 c4 10             	add    $0x10,%esp
    4fdf:	85 c0                	test   %eax,%eax
    4fe1:	0f 85 5c fd ff ff    	jne    4d43 <vfs_connection+0x983>
    4fe7:	8b 43 48             	mov    0x48(%ebx),%eax
    4fea:	85 c0                	test   %eax,%eax
    4fec:	74 17                	je     5005 <vfs_connection+0xc45>
    4fee:	52                   	push   %edx
    4fef:	52                   	push   %edx
    4ff0:	8d 95 f0 fe ff ff    	lea    -0x110(%ebp),%edx
    4ff6:	52                   	push   %edx
    4ff7:	56                   	push   %esi
    4ff8:	ff d0                	call   *%eax
    4ffa:	83 c4 10             	add    $0x10,%esp
    4ffd:	85 c0                	test   %eax,%eax
    4fff:	0f 85 3e fd ff ff    	jne    4d43 <vfs_connection+0x983>
    5005:	83 ec 0c             	sub    $0xc,%esp
    5008:	8b 85 b0 fe ff ff    	mov    -0x150(%ebp),%eax
    500e:	50                   	push   %eax
    500f:	ff 53 10             	call   *0x10(%ebx)
    5012:	83 c4 0c             	add    $0xc,%esp
    5015:	8b 85 94 fe ff ff    	mov    -0x16c(%ebp),%eax
    501b:	6a 18                	push   $0x18
    501d:	50                   	push   %eax
    501e:	8b 8d b4 fe ff ff    	mov    -0x14c(%ebp),%ecx
    5024:	51                   	push   %ecx
    5025:	e8 f6 0e 00 00       	call   5f20 <async_data_read_finalize@plt>
    502a:	5b                   	pop    %ebx
    502b:	5e                   	pop    %esi
    502c:	6a 00                	push   $0x0
    502e:	57                   	push   %edi
    502f:	e8 6c 0f 00 00       	call   5fa0 <async_answer_0@plt>
    5034:	83 c4 10             	add    $0x10,%esp
    5037:	e9 9c f3 ff ff       	jmp    43d8 <vfs_connection+0x18>
    503c:	83 c8 ff             	or     $0xffffffff,%eax
    503f:	e9 6c fb ff ff       	jmp    4bb0 <vfs_connection+0x7f0>
    5044:	8b bd 80 fe ff ff    	mov    -0x180(%ebp),%edi
    504a:	89 c3                	mov    %eax,%ebx
    504c:	50                   	push   %eax
    504d:	50                   	push   %eax
    504e:	53                   	push   %ebx
    504f:	57                   	push   %edi
    5050:	e8 4b 0f 00 00       	call   5fa0 <async_answer_0@plt>
    5055:	83 c4 10             	add    $0x10,%esp
    5058:	e9 7d fe ff ff       	jmp    4eda <vfs_connection+0xb1a>
    505d:	83 ec 0c             	sub    $0xc,%esp
    5060:	53                   	push   %ebx
    5061:	e8 ba 0f 00 00       	call   6020 <async_exchange_end@plt>
    5066:	89 34 24             	mov    %esi,(%esp)
    5069:	e8 f2 0d 00 00       	call   5e60 <async_hangup@plt>
    506e:	58                   	pop    %eax
    506f:	8b 85 a4 fe ff ff    	mov    -0x15c(%ebp),%eax
    5075:	8b 95 b8 fe ff ff    	mov    -0x148(%ebp),%edx
    507b:	52                   	push   %edx
    507c:	ff 50 10             	call   *0x10(%eax)
    507f:	e8 5c 0e 00 00       	call   5ee0 <__errno@plt>
    5084:	59                   	pop    %ecx
    5085:	89 c3                	mov    %eax,%ebx
    5087:	8b 30                	mov    (%eax),%esi
    5089:	56                   	push   %esi
    508a:	e8 c1 10 00 00       	call   6150 <async_data_write_void@plt>
    508f:	8b 0b                	mov    (%ebx),%ecx
    5091:	58                   	pop    %eax
    5092:	5a                   	pop    %edx
    5093:	51                   	push   %ecx
    5094:	57                   	push   %edi
    5095:	e8 06 0f 00 00       	call   5fa0 <async_answer_0@plt>
    509a:	83 c4 10             	add    $0x10,%esp
    509d:	e9 36 f3 ff ff       	jmp    43d8 <vfs_connection+0x18>
    50a2:	50                   	push   %eax
    50a3:	50                   	push   %eax
    50a4:	8b 85 b0 fe ff ff    	mov    -0x150(%ebp),%eax
    50aa:	89 bd 94 fe ff ff    	mov    %edi,-0x16c(%ebp)
    50b0:	50                   	push   %eax
    50b1:	8d 85 af fe ff ff    	lea    -0x151(%ebp),%eax
    50b7:	50                   	push   %eax
    50b8:	8b 85 a4 fe ff ff    	mov    -0x15c(%ebp),%eax
    50be:	8b bd 80 fe ff ff    	mov    -0x180(%ebp),%edi
    50c4:	ff 50 24             	call   *0x24(%eax)
    50c7:	83 c4 10             	add    $0x10,%esp
    50ca:	89 c3                	mov    %eax,%ebx
    50cc:	85 c0                	test   %eax,%eax
    50ce:	0f 85 78 ff ff ff    	jne    504c <vfs_connection+0xc8c>
    50d4:	80 bd af fe ff ff 00 	cmpb   $0x0,-0x151(%ebp)
    50db:	0f 85 66 f5 ff ff    	jne    4647 <vfs_connection+0x287>
    50e1:	f6 85 98 fe ff ff 60 	testb  $0x60,-0x168(%ebp)
    50e8:	74 59                	je     5143 <vfs_connection+0xd83>
    50ea:	83 ec 0c             	sub    $0xc,%esp
    50ed:	8b 85 b0 fe ff ff    	mov    -0x150(%ebp),%eax
    50f3:	50                   	push   %eax
    50f4:	8b 85 a4 fe ff ff    	mov    -0x15c(%ebp),%eax
    50fa:	ff 50 34             	call   *0x34(%eax)
    50fd:	83 c4 10             	add    $0x10,%esp
    5100:	8b 0d 0c 81 00 00    	mov    0x810c,%ecx
    5106:	84 c0                	test   %al,%al
    5108:	8b 95 94 fe ff ff    	mov    -0x16c(%ebp),%edx
    510e:	75 25                	jne    5135 <vfs_connection+0xd75>
    5110:	e9 0c 03 00 00       	jmp    5421 <vfs_connection+0x1061>
    5115:	8d 76 00             	lea    0x0(%esi),%esi
    5118:	81 fb ff 00 00 00    	cmp    $0xff,%ebx
    511e:	0f 84 a6 fd ff ff    	je     4eca <vfs_connection+0xb0a>
    5124:	43                   	inc    %ebx
    5125:	46                   	inc    %esi
    5126:	39 f2                	cmp    %esi,%edx
    5128:	88 84 1d df fe ff ff 	mov    %al,-0x121(%ebp,%ebx,1)
    512f:	0f 82 72 03 00 00    	jb     54a7 <vfs_connection+0x10e7>
    5135:	89 f0                	mov    %esi,%eax
    5137:	25 ff ff 01 00       	and    $0x1ffff,%eax
    513c:	8a 04 01             	mov    (%ecx,%eax,1),%al
    513f:	3c 2f                	cmp    $0x2f,%al
    5141:	75 d5                	jne    5118 <vfs_connection+0xd58>
    5143:	50                   	push   %eax
    5144:	50                   	push   %eax
    5145:	6a ff                	push   $0xffffffff
    5147:	57                   	push   %edi
    5148:	e8 53 0e 00 00       	call   5fa0 <async_answer_0@plt>
    514d:	83 c4 10             	add    $0x10,%esp
    5150:	e9 85 fd ff ff       	jmp    4eda <vfs_connection+0xb1a>
    5155:	89 fa                	mov    %edi,%edx
    5157:	89 9d 94 fe ff ff    	mov    %ebx,-0x16c(%ebp)
    515d:	8b bd 80 fe ff ff    	mov    -0x180(%ebp),%edi
    5163:	39 f2                	cmp    %esi,%edx
    5165:	73 dc                	jae    5143 <vfs_connection+0xd83>
    5167:	f6 85 98 fe ff ff 60 	testb  $0x60,-0x168(%ebp)
    516e:	74 d3                	je     5143 <vfs_connection+0xd83>
    5170:	83 ec 0c             	sub    $0xc,%esp
    5173:	8b 85 a4 fe ff ff    	mov    -0x15c(%ebp),%eax
    5179:	8b 9d b0 fe ff ff    	mov    -0x150(%ebp),%ebx
    517f:	53                   	push   %ebx
    5180:	ff 50 34             	call   *0x34(%eax)
    5183:	83 c4 10             	add    $0x10,%esp
    5186:	84 c0                	test   %al,%al
    5188:	0f 84 93 02 00 00    	je     5421 <vfs_connection+0x1061>
    518e:	8b 85 98 fe ff ff    	mov    -0x168(%ebp),%eax
    5194:	89 c6                	mov    %eax,%esi
    5196:	83 e6 20             	and    $0x20,%esi
    5199:	0f 84 ca 02 00 00    	je     5469 <vfs_connection+0x10a9>
    519f:	8b 8d 9c fe ff ff    	mov    -0x164(%ebp),%ecx
    51a5:	52                   	push   %edx
    51a6:	50                   	push   %eax
    51a7:	8d 85 b8 fe ff ff    	lea    -0x148(%ebp),%eax
    51ad:	51                   	push   %ecx
    51ae:	50                   	push   %eax
    51af:	8b 85 a4 fe ff ff    	mov    -0x15c(%ebp),%eax
    51b5:	ff 50 14             	call   *0x14(%eax)
    51b8:	83 c4 10             	add    $0x10,%esp
    51bb:	89 c3                	mov    %eax,%ebx
    51bd:	85 db                	test   %ebx,%ebx
    51bf:	0f 85 87 fe ff ff    	jne    504c <vfs_connection+0xc8c>
    51c5:	8b 85 b8 fe ff ff    	mov    -0x148(%ebp),%eax
    51cb:	85 c0                	test   %eax,%eax
    51cd:	0f 84 bf 02 00 00    	je     5492 <vfs_connection+0x10d2>
    51d3:	8b 8d 94 fe ff ff    	mov    -0x16c(%ebp),%ecx
    51d9:	52                   	push   %edx
    51da:	51                   	push   %ecx
    51db:	50                   	push   %eax
    51dc:	8b 85 a4 fe ff ff    	mov    -0x15c(%ebp),%eax
    51e2:	8b 95 b0 fe ff ff    	mov    -0x150(%ebp),%edx
    51e8:	52                   	push   %edx
    51e9:	ff 50 1c             	call   *0x1c(%eax)
    51ec:	83 c4 10             	add    $0x10,%esp
    51ef:	89 c3                	mov    %eax,%ebx
    51f1:	85 c0                	test   %eax,%eax
    51f3:	0f 84 1b 03 00 00    	je     5514 <vfs_connection+0x1154>
    51f9:	85 f6                	test   %esi,%esi
    51fb:	0f 84 f8 02 00 00    	je     54f9 <vfs_connection+0x1139>
    5201:	83 ec 0c             	sub    $0xc,%esp
    5204:	8b 85 b8 fe ff ff    	mov    -0x148(%ebp),%eax
    520a:	50                   	push   %eax
    520b:	8b 85 a4 fe ff ff    	mov    -0x15c(%ebp),%eax
    5211:	ff 50 18             	call   *0x18(%eax)
    5214:	83 c4 10             	add    $0x10,%esp
    5217:	e9 30 fe ff ff       	jmp    504c <vfs_connection+0xc8c>
    521c:	8d 74 26 00          	lea    0x0(%esi,%eiz,1),%esi
    5220:	89 fa                	mov    %edi,%edx
    5222:	8b bd 80 fe ff ff    	mov    -0x180(%ebp),%edi
    5228:	39 f2                	cmp    %esi,%edx
    522a:	73 0e                	jae    523a <vfs_connection+0xe7a>
    522c:	8b 8d 94 fe ff ff    	mov    -0x16c(%ebp),%ecx
    5232:	89 8d 8c fe ff ff    	mov    %ecx,-0x174(%ebp)
    5238:	89 ca                	mov    %ecx,%edx
    523a:	83 ec 0c             	sub    $0xc,%esp
    523d:	8b 70 04             	mov    0x4(%eax),%esi
    5240:	89 95 9c fe ff ff    	mov    %edx,-0x164(%ebp)
    5246:	56                   	push   %esi
    5247:	e8 64 0f 00 00       	call   61b0 <async_exchange_begin@plt>
    524c:	89 c3                	mov    %eax,%ebx
    524e:	8b 85 88 fe ff ff    	mov    -0x178(%ebp),%eax
    5254:	c7 04 24 01 00 00 00 	movl   $0x1,(%esp)
    525b:	50                   	push   %eax
    525c:	8b 85 98 fe ff ff    	mov    -0x168(%ebp),%eax
    5262:	8b 95 9c fe ff ff    	mov    -0x164(%ebp),%edx
    5268:	50                   	push   %eax
    5269:	8b 85 b4 fe ff ff    	mov    -0x14c(%ebp),%eax
    526f:	8b 40 0c             	mov    0xc(%eax),%eax
    5272:	50                   	push   %eax
    5273:	8b 85 8c fe ff ff    	mov    -0x174(%ebp),%eax
    5279:	52                   	push   %edx
    527a:	50                   	push   %eax
    527b:	68 0b 04 00 00       	push   $0x40b
    5280:	53                   	push   %ebx
    5281:	57                   	push   %edi
    5282:	e8 f9 0b 00 00       	call   5e80 <async_forward_slow@plt>
    5287:	83 c4 24             	add    $0x24,%esp
    528a:	53                   	push   %ebx
    528b:	e8 90 0d 00 00       	call   6020 <async_exchange_end@plt>
    5290:	58                   	pop    %eax
    5291:	8b 9d a4 fe ff ff    	mov    -0x15c(%ebp),%ebx
    5297:	8b 85 b0 fe ff ff    	mov    -0x150(%ebp),%eax
    529d:	50                   	push   %eax
    529e:	89 d8                	mov    %ebx,%eax
    52a0:	ff 50 10             	call   *0x10(%eax)
    52a3:	89 d8                	mov    %ebx,%eax
    52a5:	8b 8d b4 fe ff ff    	mov    -0x14c(%ebp),%ecx
    52ab:	5a                   	pop    %edx
    52ac:	51                   	push   %ecx
    52ad:	ff 50 10             	call   *0x10(%eax)
    52b0:	8b 85 a0 fe ff ff    	mov    -0x160(%ebp),%eax
    52b6:	83 c4 10             	add    $0x10,%esp
    52b9:	85 c0                	test   %eax,%eax
    52bb:	0f 84 17 f1 ff ff    	je     43d8 <vfs_connection+0x18>
    52c1:	83 ec 0c             	sub    $0xc,%esp
    52c4:	50                   	push   %eax
    52c5:	89 d8                	mov    %ebx,%eax
    52c7:	ff 50 10             	call   *0x10(%eax)
    52ca:	83 c4 10             	add    $0x10,%esp
    52cd:	e9 06 f1 ff ff       	jmp    43d8 <vfs_connection+0x18>
    52d2:	50                   	push   %eax
    52d3:	50                   	push   %eax
    52d4:	6a f7                	push   $0xfffffff7
    52d6:	57                   	push   %edi
    52d7:	e8 c4 0c 00 00       	call   5fa0 <async_answer_0@plt>
    52dc:	83 c4 10             	add    $0x10,%esp
    52df:	e9 f6 fb ff ff       	jmp    4eda <vfs_connection+0xb1a>
    52e4:	83 ec 0c             	sub    $0xc,%esp
    52e7:	8b b5 a4 fe ff ff    	mov    -0x15c(%ebp),%esi
    52ed:	8b 95 b0 fe ff ff    	mov    -0x150(%ebp),%edx
    52f3:	52                   	push   %edx
    52f4:	ff 56 30             	call   *0x30(%esi)
    52f7:	83 c4 0c             	add    $0xc,%esp
    52fa:	89 c3                	mov    %eax,%ebx
    52fc:	8d 85 e0 fe ff ff    	lea    -0x120(%ebp),%eax
    5302:	8b 8d b0 fe ff ff    	mov    -0x150(%ebp),%ecx
    5308:	50                   	push   %eax
    5309:	8b 85 a0 fe ff ff    	mov    -0x160(%ebp),%eax
    530f:	51                   	push   %ecx
    5310:	50                   	push   %eax
    5311:	ff 56 20             	call   *0x20(%esi)
    5314:	83 c4 10             	add    $0x10,%esp
    5317:	85 c0                	test   %eax,%eax
    5319:	75 5b                	jne    5376 <vfs_connection+0xfb6>
    531b:	83 ec 0c             	sub    $0xc,%esp
    531e:	8b 85 b0 fe ff ff    	mov    -0x150(%ebp),%eax
    5324:	89 b5 a4 fe ff ff    	mov    %esi,-0x15c(%ebp)
    532a:	50                   	push   %eax
    532b:	ff 56 2c             	call   *0x2c(%esi)
    532e:	89 c6                	mov    %eax,%esi
    5330:	58                   	pop    %eax
    5331:	8b 85 b0 fe ff ff    	mov    -0x150(%ebp),%eax
    5337:	89 95 98 fe ff ff    	mov    %edx,-0x168(%ebp)
    533d:	50                   	push   %eax
    533e:	8b 85 a4 fe ff ff    	mov    -0x15c(%ebp),%eax
    5344:	ff 50 28             	call   *0x28(%eax)
    5347:	83 c4 0c             	add    $0xc,%esp
    534a:	8b 95 98 fe ff ff    	mov    -0x168(%ebp),%edx
    5350:	53                   	push   %ebx
    5351:	52                   	push   %edx
    5352:	56                   	push   %esi
    5353:	90                   	nop
    5354:	8d 74 26 00          	lea    0x0(%esi,%eiz,1),%esi
    5358:	50                   	push   %eax
    5359:	8b 85 9c fe ff ff    	mov    -0x164(%ebp),%eax
    535f:	50                   	push   %eax
    5360:	0f bf 85 90 fe ff ff 	movswl -0x170(%ebp),%eax
    5367:	50                   	push   %eax
    5368:	57                   	push   %edi
    5369:	e8 62 0d 00 00       	call   60d0 <async_answer_5@plt>
    536e:	83 c4 20             	add    $0x20,%esp
    5371:	e9 64 fb ff ff       	jmp    4eda <vfs_connection+0xb1a>
    5376:	56                   	push   %esi
    5377:	56                   	push   %esi
    5378:	50                   	push   %eax
    5379:	57                   	push   %edi
    537a:	e8 21 0c 00 00       	call   5fa0 <async_answer_0@plt>
    537f:	83 c4 10             	add    $0x10,%esp
    5382:	e9 53 fb ff ff       	jmp    4eda <vfs_connection+0xb1a>
    5387:	8b 85 b0 fe ff ff    	mov    -0x150(%ebp),%eax
    538d:	f7 85 98 fe ff ff 00 	testl  $0x100,-0x168(%ebp)
    5394:	01 00 00 
    5397:	75 4a                	jne    53e3 <vfs_connection+0x1023>
    5399:	83 ec 0c             	sub    $0xc,%esp
    539c:	50                   	push   %eax
    539d:	8b 85 a4 fe ff ff    	mov    -0x15c(%ebp),%eax
    53a3:	ff 50 2c             	call   *0x2c(%eax)
    53a6:	89 c3                	mov    %eax,%ebx
    53a8:	58                   	pop    %eax
    53a9:	8b 85 b0 fe ff ff    	mov    -0x150(%ebp),%eax
    53af:	89 d6                	mov    %edx,%esi
    53b1:	50                   	push   %eax
    53b2:	8b 85 a4 fe ff ff    	mov    -0x15c(%ebp),%eax
    53b8:	ff 50 30             	call   *0x30(%eax)
    53bb:	89 85 98 fe ff ff    	mov    %eax,-0x168(%ebp)
    53c1:	58                   	pop    %eax
    53c2:	8b 85 b0 fe ff ff    	mov    -0x150(%ebp),%eax
    53c8:	50                   	push   %eax
    53c9:	8b 85 a4 fe ff ff    	mov    -0x15c(%ebp),%eax
    53cf:	ff 50 28             	call   *0x28(%eax)
    53d2:	83 c4 0c             	add    $0xc,%esp
    53d5:	8b 95 98 fe ff ff    	mov    -0x168(%ebp),%edx
    53db:	52                   	push   %edx
    53dc:	56                   	push   %esi
    53dd:	53                   	push   %ebx
    53de:	e9 75 ff ff ff       	jmp    5358 <vfs_connection+0xf98>
    53e3:	83 ec 0c             	sub    $0xc,%esp
    53e6:	50                   	push   %eax
    53e7:	8b 85 a4 fe ff ff    	mov    -0x15c(%ebp),%eax
    53ed:	ff 50 0c             	call   *0xc(%eax)
    53f0:	83 c4 10             	add    $0x10,%esp
    53f3:	85 c0                	test   %eax,%eax
    53f5:	0f 85 7b ff ff ff    	jne    5376 <vfs_connection+0xfb6>
    53fb:	8b 85 b0 fe ff ff    	mov    -0x150(%ebp),%eax
    5401:	eb 96                	jmp    5399 <vfs_connection+0xfd9>
    5403:	83 ec 0c             	sub    $0xc,%esp
    5406:	8b 85 a4 fe ff ff    	mov    -0x15c(%ebp),%eax
    540c:	8b b5 b0 fe ff ff    	mov    -0x150(%ebp),%esi
    5412:	56                   	push   %esi
    5413:	ff 50 38             	call   *0x38(%eax)
    5416:	83 c4 10             	add    $0x10,%esp
    5419:	84 c0                	test   %al,%al
    541b:	0f 84 6b f2 ff ff    	je     468c <vfs_connection+0x2cc>
    5421:	53                   	push   %ebx
    5422:	53                   	push   %ebx
    5423:	68 fe fe ff ff       	push   $0xfffffefe
    5428:	57                   	push   %edi
    5429:	e8 72 0b 00 00       	call   5fa0 <async_answer_0@plt>
    542e:	83 c4 10             	add    $0x10,%esp
    5431:	e9 a4 fa ff ff       	jmp    4eda <vfs_connection+0xb1a>
    5436:	83 ec 0c             	sub    $0xc,%esp
    5439:	8b 85 b0 fe ff ff    	mov    -0x150(%ebp),%eax
    543f:	50                   	push   %eax
    5440:	8b 85 a4 fe ff ff    	mov    -0x15c(%ebp),%eax
    5446:	ff 50 34             	call   *0x34(%eax)
    5449:	83 c4 10             	add    $0x10,%esp
    544c:	84 c0                	test   %al,%al
    544e:	0f 84 2b f2 ff ff    	je     467f <vfs_connection+0x2bf>
    5454:	50                   	push   %eax
    5455:	50                   	push   %eax
    5456:	68 ff fe ff ff       	push   $0xfffffeff
    545b:	57                   	push   %edi
    545c:	e8 3f 0b 00 00       	call   5fa0 <async_answer_0@plt>
    5461:	83 c4 10             	add    $0x10,%esp
    5464:	e9 71 fa ff ff       	jmp    4eda <vfs_connection+0xb1a>
    5469:	8b 85 88 fe ff ff    	mov    -0x178(%ebp),%eax
    546f:	53                   	push   %ebx
    5470:	50                   	push   %eax
    5471:	8b 85 9c fe ff ff    	mov    -0x164(%ebp),%eax
    5477:	50                   	push   %eax
    5478:	8d 85 b8 fe ff ff    	lea    -0x148(%ebp),%eax
    547e:	50                   	push   %eax
    547f:	8b 85 a4 fe ff ff    	mov    -0x15c(%ebp),%eax
    5485:	ff 50 08             	call   *0x8(%eax)
    5488:	83 c4 10             	add    $0x10,%esp
    548b:	89 c3                	mov    %eax,%ebx
    548d:	e9 2b fd ff ff       	jmp    51bd <vfs_connection+0xdfd>
    5492:	50                   	push   %eax
    5493:	50                   	push   %eax
    5494:	68 fd fe ff ff       	push   $0xfffffefd
    5499:	57                   	push   %edi
    549a:	e8 01 0b 00 00       	call   5fa0 <async_answer_0@plt>
    549f:	83 c4 10             	add    $0x10,%esp
    54a2:	e9 33 fa ff ff       	jmp    4eda <vfs_connection+0xb1a>
    54a7:	8b 85 98 fe ff ff    	mov    -0x168(%ebp),%eax
    54ad:	c6 84 1d e0 fe ff ff 	movb   $0x0,-0x120(%ebp,%ebx,1)
    54b4:	00 
    54b5:	89 c6                	mov    %eax,%esi
    54b7:	83 e6 20             	and    $0x20,%esi
    54ba:	74 7f                	je     553b <vfs_connection+0x117b>
    54bc:	8b 8d 9c fe ff ff    	mov    -0x164(%ebp),%ecx
    54c2:	52                   	push   %edx
    54c3:	50                   	push   %eax
    54c4:	8d 85 b8 fe ff ff    	lea    -0x148(%ebp),%eax
    54ca:	51                   	push   %ecx
    54cb:	50                   	push   %eax
    54cc:	8b 85 a4 fe ff ff    	mov    -0x15c(%ebp),%eax
    54d2:	ff 50 14             	call   *0x14(%eax)
    54d5:	83 c4 10             	add    $0x10,%esp
    54d8:	89 c3                	mov    %eax,%ebx
    54da:	85 db                	test   %ebx,%ebx
    54dc:	0f 85 6a fb ff ff    	jne    504c <vfs_connection+0xc8c>
    54e2:	8b 85 b8 fe ff ff    	mov    -0x148(%ebp),%eax
    54e8:	85 c0                	test   %eax,%eax
    54ea:	74 a6                	je     5492 <vfs_connection+0x10d2>
    54ec:	8d 95 e0 fe ff ff    	lea    -0x120(%ebp),%edx
    54f2:	51                   	push   %ecx
    54f3:	52                   	push   %edx
    54f4:	e9 e2 fc ff ff       	jmp    51db <vfs_connection+0xe1b>
    54f9:	83 ec 0c             	sub    $0xc,%esp
    54fc:	8b 85 b8 fe ff ff    	mov    -0x148(%ebp),%eax
    5502:	50                   	push   %eax
    5503:	8b 85 a4 fe ff ff    	mov    -0x15c(%ebp),%eax
    5509:	ff 50 10             	call   *0x10(%eax)
    550c:	83 c4 10             	add    $0x10,%esp
    550f:	e9 38 fb ff ff       	jmp    504c <vfs_connection+0xc8c>
    5514:	83 ec 0c             	sub    $0xc,%esp
    5517:	8b 85 b0 fe ff ff    	mov    -0x150(%ebp),%eax
    551d:	50                   	push   %eax
    551e:	8b 85 a4 fe ff ff    	mov    -0x15c(%ebp),%eax
    5524:	ff 50 10             	call   *0x10(%eax)
    5527:	8b 85 b8 fe ff ff    	mov    -0x148(%ebp),%eax
    552d:	89 85 b0 fe ff ff    	mov    %eax,-0x150(%ebp)
    5533:	83 c4 10             	add    $0x10,%esp
    5536:	e9 52 fe ff ff       	jmp    538d <vfs_connection+0xfcd>
    553b:	8b 85 88 fe ff ff    	mov    -0x178(%ebp),%eax
    5541:	53                   	push   %ebx
    5542:	50                   	push   %eax
    5543:	8b 85 9c fe ff ff    	mov    -0x164(%ebp),%eax
    5549:	50                   	push   %eax
    554a:	8d 85 b8 fe ff ff    	lea    -0x148(%ebp),%eax
    5550:	50                   	push   %eax
    5551:	8b 85 a4 fe ff ff    	mov    -0x15c(%ebp),%eax
    5557:	ff 50 08             	call   *0x8(%eax)
    555a:	83 c4 10             	add    $0x10,%esp
    555d:	89 c3                	mov    %eax,%ebx
    555f:	e9 76 ff ff ff       	jmp    54da <vfs_connection+0x111a>
    5564:	8d b6 00 00 00 00    	lea    0x0(%esi),%esi
    556a:	8d bf 00 00 00 00    	lea    0x0(%edi),%edi

00005570 <fs_register>:
    5570:	55                   	push   %ebp
    5571:	89 e5                	mov    %esp,%ebp
    5573:	56                   	push   %esi
    5574:	53                   	push   %ebx
    5575:	83 ec 4c             	sub    $0x4c,%esp
    5578:	8b 45 08             	mov    0x8(%ebp),%eax
    557b:	50                   	push   %eax
    557c:	e8 2f 0c 00 00       	call   61b0 <async_exchange_begin@plt>
    5581:	83 c4 0c             	add    $0xc,%esp
    5584:	89 c3                	mov    %eax,%ebx
    5586:	8d 45 d4             	lea    -0x2c(%ebp),%eax
    5589:	50                   	push   %eax
    558a:	6a 00                	push   $0x0
    558c:	6a 00                	push   $0x0
    558e:	6a 00                	push   $0x0
    5590:	6a 00                	push   $0x0
    5592:	68 0b 04 00 00       	push   $0x40b
    5597:	53                   	push   %ebx
    5598:	e8 13 0a 00 00       	call   5fb0 <async_send_fast@plt>
    559d:	83 c4 1c             	add    $0x1c,%esp
    55a0:	89 c6                	mov    %eax,%esi
    55a2:	8b 45 0c             	mov    0xc(%ebp),%eax
    55a5:	6a 20                	push   $0x20
    55a7:	50                   	push   %eax
    55a8:	53                   	push   %ebx
    55a9:	e8 12 09 00 00       	call   5ec0 <async_data_write_start@plt>
    55ae:	83 c4 10             	add    $0x10,%esp
    55b1:	85 c0                	test   %eax,%eax
    55b3:	0f 85 af 00 00 00    	jne    5668 <fs_register+0xf8>
    55b9:	8b 45 10             	mov    0x10(%ebp),%eax
    55bc:	a3 04 81 00 00       	mov    %eax,0x8104
    55c1:	8b 45 14             	mov    0x14(%ebp),%eax
    55c4:	a3 00 81 00 00       	mov    %eax,0x8100
    55c9:	50                   	push   %eax
    55ca:	8d 45 d0             	lea    -0x30(%ebp),%eax
    55cd:	50                   	push   %eax
    55ce:	6a 00                	push   $0x0
    55d0:	68 c0 43 00 00       	push   $0x43c0
    55d5:	6a 00                	push   $0x0
    55d7:	6a 00                	push   $0x0
    55d9:	68 66 37 cf c9       	push   $0xc9cf3766
    55de:	53                   	push   %ebx
    55df:	e8 0c 0b 00 00       	call   60f0 <async_create_callback_port@plt>
    55e4:	83 c4 14             	add    $0x14,%esp
    55e7:	68 0c 81 00 00       	push   $0x810c
    55ec:	6a 00                	push   $0x0
    55ee:	6a 00                	push   $0x0
    55f0:	68 00 00 02 00       	push   $0x20000
    55f5:	53                   	push   %ebx
    55f6:	e8 35 09 00 00       	call   5f30 <async_share_in_start@plt>
    55fb:	83 c4 20             	add    $0x20,%esp
    55fe:	83 3d 0c 81 00 00 ff 	cmpl   $0xffffffff,0x810c
    5605:	0f 84 7e 00 00 00    	je     5689 <fs_register+0x119>
    560b:	83 ec 0c             	sub    $0xc,%esp
    560e:	89 45 c4             	mov    %eax,-0x3c(%ebp)
    5611:	53                   	push   %ebx
    5612:	e8 09 0a 00 00       	call   6020 <async_exchange_end@plt>
    5617:	8b 45 c4             	mov    -0x3c(%ebp),%eax
    561a:	83 c4 10             	add    $0x10,%esp
    561d:	85 c0                	test   %eax,%eax
    561f:	75 2f                	jne    5650 <fs_register+0xe0>
    5621:	50                   	push   %eax
    5622:	50                   	push   %eax
    5623:	6a 00                	push   $0x0
    5625:	56                   	push   %esi
    5626:	e8 65 08 00 00       	call   5e90 <async_wait_for@plt>
    562b:	5a                   	pop    %edx
    562c:	8b 45 d8             	mov    -0x28(%ebp),%eax
    562f:	59                   	pop    %ecx
    5630:	6a 00                	push   $0x0
    5632:	68 c0 43 00 00       	push   $0x43c0
    5637:	a3 08 81 00 00       	mov    %eax,0x8108
    563c:	e8 ff 0b 00 00       	call   6240 <async_set_fallback_port_handler@plt>
    5641:	8b 45 d4             	mov    -0x2c(%ebp),%eax
    5644:	83 c4 10             	add    $0x10,%esp
    5647:	8d 65 f8             	lea    -0x8(%ebp),%esp
    564a:	5b                   	pop    %ebx
    564b:	5e                   	pop    %esi
    564c:	5d                   	pop    %ebp
    564d:	c3                   	ret    
    564e:	66 90                	xchg   %ax,%ax
    5650:	83 ec 0c             	sub    $0xc,%esp
    5653:	56                   	push   %esi
    5654:	e8 b7 0b 00 00       	call   6210 <async_forget@plt>
    5659:	8b 45 c4             	mov    -0x3c(%ebp),%eax
    565c:	83 c4 10             	add    $0x10,%esp
    565f:	8d 65 f8             	lea    -0x8(%ebp),%esp
    5662:	5b                   	pop    %ebx
    5663:	5e                   	pop    %esi
    5664:	5d                   	pop    %ebp
    5665:	c3                   	ret    
    5666:	66 90                	xchg   %ax,%ax
    5668:	83 ec 0c             	sub    $0xc,%esp
    566b:	89 45 c4             	mov    %eax,-0x3c(%ebp)
    566e:	53                   	push   %ebx
    566f:	e8 ac 09 00 00       	call   6020 <async_exchange_end@plt>
    5674:	89 34 24             	mov    %esi,(%esp)
    5677:	e8 94 0b 00 00       	call   6210 <async_forget@plt>
    567c:	8b 45 c4             	mov    -0x3c(%ebp),%eax
    567f:	83 c4 10             	add    $0x10,%esp
    5682:	8d 65 f8             	lea    -0x8(%ebp),%esp
    5685:	5b                   	pop    %ebx
    5686:	5e                   	pop    %esi
    5687:	5d                   	pop    %ebp
    5688:	c3                   	ret    
    5689:	83 ec 0c             	sub    $0xc,%esp
    568c:	53                   	push   %ebx
    568d:	e8 8e 09 00 00       	call   6020 <async_exchange_end@plt>
    5692:	89 34 24             	mov    %esi,(%esp)
    5695:	e8 76 0b 00 00       	call   6210 <async_forget@plt>
    569a:	83 c4 10             	add    $0x10,%esp
    569d:	b8 fe ff ff ff       	mov    $0xfffffffe,%eax
    56a2:	eb a3                	jmp    5647 <fs_register+0xd7>
    56a4:	8d b6 00 00 00 00    	lea    0x0(%esi),%esi
    56aa:	8d bf 00 00 00 00    	lea    0x0(%edi),%edi

000056b0 <fs_node_initialize>:
    56b0:	55                   	push   %ebp
    56b1:	89 e5                	mov    %esp,%ebp
    56b3:	83 ec 0c             	sub    $0xc,%esp
    56b6:	8b 45 08             	mov    0x8(%ebp),%eax
    56b9:	6a 14                	push   $0x14
    56bb:	6a 00                	push   $0x0
    56bd:	50                   	push   %eax
    56be:	e8 5d 0a 00 00       	call   6120 <memset@plt>
    56c3:	83 c4 10             	add    $0x10,%esp
    56c6:	c9                   	leave  
    56c7:	c3                   	ret    
    56c8:	90                   	nop
    56c9:	8d b4 26 00 00 00 00 	lea    0x0(%esi,%eiz,1),%esi

000056d0 <fs_instance_create>:
    56d0:	55                   	push   %ebp
    56d1:	89 e5                	mov    %esp,%ebp
    56d3:	57                   	push   %edi
    56d4:	56                   	push   %esi
    56d5:	53                   	push   %ebx
    56d6:	83 ec 18             	sub    $0x18,%esp
    56d9:	8b 5d 08             	mov    0x8(%ebp),%ebx
    56dc:	6a 10                	push   $0x10
    56de:	e8 8d 08 00 00       	call   5f70 <malloc@plt>
    56e3:	83 c4 10             	add    $0x10,%esp
    56e6:	85 c0                	test   %eax,%eax
    56e8:	0f 84 d1 00 00 00    	je     57bf <fs_instance_create+0xef>
    56ee:	89 c6                	mov    %eax,%esi
    56f0:	c7 40 04 00 00 00 00 	movl   $0x0,0x4(%eax)
    56f7:	c7 40 08 00 00 00 00 	movl   $0x0,0x8(%eax)
    56fe:	89 18                	mov    %ebx,(%eax)
    5700:	83 ec 0c             	sub    $0xc,%esp
    5703:	8d 78 04             	lea    0x4(%eax),%edi
    5706:	8b 45 0c             	mov    0xc(%ebp),%eax
    5709:	89 46 0c             	mov    %eax,0xc(%esi)
    570c:	68 a0 7f 00 00       	push   $0x7fa0
    5711:	e8 5a 0b 00 00       	call   6270 <fibril_mutex_lock@plt>
    5716:	8b 15 9c 7f 00 00    	mov    0x7f9c,%edx
    571c:	83 c4 10             	add    $0x10,%esp
    571f:	8d 4a fc             	lea    -0x4(%edx),%ecx
    5722:	81 fa 98 7f 00 00    	cmp    $0x7f98,%edx
    5728:	74 23                	je     574d <fs_instance_create+0x7d>
    572a:	39 5a fc             	cmp    %ebx,-0x4(%edx)
    572d:	74 51                	je     5780 <fs_instance_create+0xb0>
    572f:	73 0e                	jae    573f <fs_instance_create+0x6f>
    5731:	eb 75                	jmp    57a8 <fs_instance_create+0xd8>
    5733:	90                   	nop
    5734:	8d 74 26 00          	lea    0x0(%esi,%eiz,1),%esi
    5738:	3b 5a fc             	cmp    -0x4(%edx),%ebx
    573b:	74 43                	je     5780 <fs_instance_create+0xb0>
    573d:	77 69                	ja     57a8 <fs_instance_create+0xd8>
    573f:	8b 52 04             	mov    0x4(%edx),%edx
    5742:	81 fa 98 7f 00 00    	cmp    $0x7f98,%edx
    5748:	8d 4a fc             	lea    -0x4(%edx),%ecx
    574b:	75 eb                	jne    5738 <fs_instance_create+0x68>
    574d:	a1 98 7f 00 00       	mov    0x7f98,%eax
    5752:	c7 46 08 98 7f 00 00 	movl   $0x7f98,0x8(%esi)
    5759:	89 46 04             	mov    %eax,0x4(%esi)
    575c:	89 3d 98 7f 00 00    	mov    %edi,0x7f98
    5762:	89 78 04             	mov    %edi,0x4(%eax)
    5765:	83 ec 0c             	sub    $0xc,%esp
    5768:	68 a0 7f 00 00       	push   $0x7fa0
    576d:	e8 0e 09 00 00       	call   6080 <fibril_mutex_unlock@plt>
    5772:	83 c4 10             	add    $0x10,%esp
    5775:	31 c0                	xor    %eax,%eax
    5777:	8d 65 f4             	lea    -0xc(%ebp),%esp
    577a:	5b                   	pop    %ebx
    577b:	5e                   	pop    %esi
    577c:	5f                   	pop    %edi
    577d:	5d                   	pop    %ebp
    577e:	c3                   	ret    
    577f:	90                   	nop
    5780:	83 ec 0c             	sub    $0xc,%esp
    5783:	68 a0 7f 00 00       	push   $0x7fa0
    5788:	e8 f3 08 00 00       	call   6080 <fibril_mutex_unlock@plt>
    578d:	89 34 24             	mov    %esi,(%esp)
    5790:	e8 cb 0a 00 00       	call   6260 <free@plt>
    5795:	83 c4 10             	add    $0x10,%esp
    5798:	8d 65 f4             	lea    -0xc(%ebp),%esp
    579b:	b8 f7 ff ff ff       	mov    $0xfffffff7,%eax
    57a0:	5b                   	pop    %ebx
    57a1:	5e                   	pop    %esi
    57a2:	5f                   	pop    %edi
    57a3:	5d                   	pop    %ebp
    57a4:	c3                   	ret    
    57a5:	8d 76 00             	lea    0x0(%esi),%esi
    57a8:	8d 41 04             	lea    0x4(%ecx),%eax
    57ab:	89 46 08             	mov    %eax,0x8(%esi)
    57ae:	8b 41 04             	mov    0x4(%ecx),%eax
    57b1:	89 46 04             	mov    %eax,0x4(%esi)
    57b4:	8b 41 04             	mov    0x4(%ecx),%eax
    57b7:	89 78 04             	mov    %edi,0x4(%eax)
    57ba:	89 79 04             	mov    %edi,0x4(%ecx)
    57bd:	eb a6                	jmp    5765 <fs_instance_create+0x95>
    57bf:	b8 fe ff ff ff       	mov    $0xfffffffe,%eax
    57c4:	eb b1                	jmp    5777 <fs_instance_create+0xa7>
    57c6:	8d 76 00             	lea    0x0(%esi),%esi
    57c9:	8d bc 27 00 00 00 00 	lea    0x0(%edi,%eiz,1),%edi

000057d0 <fs_instance_get>:
    57d0:	55                   	push   %ebp
    57d1:	89 e5                	mov    %esp,%ebp
    57d3:	53                   	push   %ebx
    57d4:	83 ec 10             	sub    $0x10,%esp
    57d7:	8b 5d 08             	mov    0x8(%ebp),%ebx
    57da:	68 a0 7f 00 00       	push   $0x7fa0
    57df:	e8 8c 0a 00 00       	call   6270 <fibril_mutex_lock@plt>
    57e4:	a1 9c 7f 00 00       	mov    0x7f9c,%eax
    57e9:	83 c4 10             	add    $0x10,%esp
    57ec:	3d 98 7f 00 00       	cmp    $0x7f98,%eax
    57f1:	74 1f                	je     5812 <fs_instance_get+0x42>
    57f3:	8d 50 fc             	lea    -0x4(%eax),%edx
    57f6:	39 58 fc             	cmp    %ebx,-0x4(%eax)
    57f9:	75 0a                	jne    5805 <fs_instance_get+0x35>
    57fb:	eb 33                	jmp    5830 <fs_instance_get+0x60>
    57fd:	8d 76 00             	lea    0x0(%esi),%esi
    5800:	39 58 fc             	cmp    %ebx,-0x4(%eax)
    5803:	74 2b                	je     5830 <fs_instance_get+0x60>
    5805:	8b 40 04             	mov    0x4(%eax),%eax
    5808:	3d 98 7f 00 00       	cmp    $0x7f98,%eax
    580d:	8d 50 fc             	lea    -0x4(%eax),%edx
    5810:	75 ee                	jne    5800 <fs_instance_get+0x30>
    5812:	83 ec 0c             	sub    $0xc,%esp
    5815:	68 a0 7f 00 00       	push   $0x7fa0
    581a:	e8 61 08 00 00       	call   6080 <fibril_mutex_unlock@plt>
    581f:	83 c4 10             	add    $0x10,%esp
    5822:	83 c8 ff             	or     $0xffffffff,%eax
    5825:	8b 5d fc             	mov    -0x4(%ebp),%ebx
    5828:	c9                   	leave  
    5829:	c3                   	ret    
    582a:	8d b6 00 00 00 00    	lea    0x0(%esi),%esi
    5830:	8b 45 0c             	mov    0xc(%ebp),%eax
    5833:	83 ec 0c             	sub    $0xc,%esp
    5836:	8b 52 0c             	mov    0xc(%edx),%edx
    5839:	89 10                	mov    %edx,(%eax)
    583b:	68 a0 7f 00 00       	push   $0x7fa0
    5840:	e8 3b 08 00 00       	call   6080 <fibril_mutex_unlock@plt>
    5845:	83 c4 10             	add    $0x10,%esp
    5848:	31 c0                	xor    %eax,%eax
    584a:	8b 5d fc             	mov    -0x4(%ebp),%ebx
    584d:	c9                   	leave  
    584e:	c3                   	ret    
    584f:	90                   	nop

00005850 <fs_instance_destroy>:
    5850:	55                   	push   %ebp
    5851:	89 e5                	mov    %esp,%ebp
    5853:	56                   	push   %esi
    5854:	53                   	push   %ebx
    5855:	83 ec 0c             	sub    $0xc,%esp
    5858:	8b 75 08             	mov    0x8(%ebp),%esi
    585b:	68 a0 7f 00 00       	push   $0x7fa0
    5860:	e8 0b 0a 00 00       	call   6270 <fibril_mutex_lock@plt>
    5865:	a1 9c 7f 00 00       	mov    0x7f9c,%eax
    586a:	83 c4 10             	add    $0x10,%esp
    586d:	3d 98 7f 00 00       	cmp    $0x7f98,%eax
    5872:	74 1e                	je     5892 <fs_instance_destroy+0x42>
    5874:	8d 58 fc             	lea    -0x4(%eax),%ebx
    5877:	39 70 fc             	cmp    %esi,-0x4(%eax)
    587a:	75 09                	jne    5885 <fs_instance_destroy+0x35>
    587c:	eb 32                	jmp    58b0 <fs_instance_destroy+0x60>
    587e:	66 90                	xchg   %ax,%ax
    5880:	39 70 fc             	cmp    %esi,-0x4(%eax)
    5883:	74 2b                	je     58b0 <fs_instance_destroy+0x60>
    5885:	8b 40 04             	mov    0x4(%eax),%eax
    5888:	3d 98 7f 00 00       	cmp    $0x7f98,%eax
    588d:	8d 58 fc             	lea    -0x4(%eax),%ebx
    5890:	75 ee                	jne    5880 <fs_instance_destroy+0x30>
    5892:	83 ec 0c             	sub    $0xc,%esp
    5895:	68 a0 7f 00 00       	push   $0x7fa0
    589a:	e8 e1 07 00 00       	call   6080 <fibril_mutex_unlock@plt>
    589f:	83 c4 10             	add    $0x10,%esp
    58a2:	8d 65 f8             	lea    -0x8(%ebp),%esp
    58a5:	83 c8 ff             	or     $0xffffffff,%eax
    58a8:	5b                   	pop    %ebx
    58a9:	5e                   	pop    %esi
    58aa:	5d                   	pop    %ebp
    58ab:	c3                   	ret    
    58ac:	8d 74 26 00          	lea    0x0(%esi,%eiz,1),%esi
    58b0:	8b 53 04             	mov    0x4(%ebx),%edx
    58b3:	85 d2                	test   %edx,%edx
    58b5:	74 0f                	je     58c6 <fs_instance_destroy+0x76>
    58b7:	8b 43 08             	mov    0x8(%ebx),%eax
    58ba:	85 c0                	test   %eax,%eax
    58bc:	74 08                	je     58c6 <fs_instance_destroy+0x76>
    58be:	89 10                	mov    %edx,(%eax)
    58c0:	8b 53 04             	mov    0x4(%ebx),%edx
    58c3:	89 42 04             	mov    %eax,0x4(%edx)
    58c6:	83 ec 0c             	sub    $0xc,%esp
    58c9:	c7 43 04 00 00 00 00 	movl   $0x0,0x4(%ebx)
    58d0:	c7 43 08 00 00 00 00 	movl   $0x0,0x8(%ebx)
    58d7:	68 a0 7f 00 00       	push   $0x7fa0
    58dc:	e8 9f 07 00 00       	call   6080 <fibril_mutex_unlock@plt>
    58e1:	89 1c 24             	mov    %ebx,(%esp)
    58e4:	e8 77 09 00 00       	call   6260 <free@plt>
    58e9:	83 c4 10             	add    $0x10,%esp
    58ec:	8d 65 f8             	lea    -0x8(%ebp),%esp
    58ef:	31 c0                	xor    %eax,%eax
    58f1:	5b                   	pop    %ebx
    58f2:	5e                   	pop    %esi
    58f3:	5d                   	pop    %ebp
    58f4:	c3                   	ret    
    58f5:	63 64 66 73          	arpl   %sp,0x73(%esi,%eiz,2)
    58f9:	00 2d 2d 69 6e 73    	add    %ch,0x736e692d
    58ff:	74 61                	je     5962 <fs_instance_destroy+0x112>
    5901:	6e                   	outsb  %ds:(%esi),(%dx)
    5902:	63 65 00             	arpl   %sp,0x0(%ebp)
    5905:	63 64 66 73          	arpl   %sp,0x73(%esi,%eiz,2)
    5909:	20 55 6e             	and    %dl,0x6e(%ebp)
    590c:	72 65                	jb     5973 <fs_instance_destroy+0x123>
    590e:	63 6f 67             	arpl   %bp,0x67(%edi)
    5911:	6e                   	outsb  %ds:(%esi),(%dx)
    5912:	69 7a 65 64 20 70 61 	imul   $0x61702064,0x65(%edx),%edi
    5919:	72 61                	jb     597c <fs_instance_destroy+0x12c>
    591b:	6d                   	insl   (%dx),%es:(%edi)
    591c:	65 74 65             	gs je  5984 <fs_instance_destroy+0x134>
    591f:	72 73                	jb     5994 <fs_instance_destroy+0x144>
    5921:	00 25 73 3a 20 55    	add    %ah,0x55203a73
    5927:	6e                   	outsb  %ds:(%esi),(%dx)
    5928:	61                   	popa   
    5929:	62 6c 65 20          	bound  %ebp,0x20(%ebp,%eiz,2)
    592d:	74 6f                	je     599e <fs_instance_destroy+0x14e>
    592f:	20 63 6f             	and    %ah,0x6f(%ebx)
    5932:	6e                   	outsb  %ds:(%esi),(%dx)
    5933:	6e                   	outsb  %ds:(%esi),(%dx)
    5934:	65 63 74 20 74       	arpl   %si,%gs:0x74(%eax,%eiz,1)
    5939:	6f                   	outsl  %ds:(%esi),(%dx)
    593a:	20 56 46             	and    %dl,0x46(%esi)
    593d:	53                   	push   %ebx
    593e:	0a 00                	or     (%eax),%al
    5940:	25 73 3a 20 41       	and    $0x41203a73,%eax
    5945:	63 63 65             	arpl   %sp,0x65(%ebx)
    5948:	70 74                	jo     59be <fs_instance_destroy+0x16e>
    594a:	69 6e 67 20 63 6f 6e 	imul   $0x6e6f6320,0x67(%esi),%ebp
    5951:	6e                   	outsb  %ds:(%esi),(%dx)
    5952:	65 63 74 69 6f       	arpl   %si,%gs:0x6f(%ecx,%ebp,2)
    5957:	6e                   	outsb  %ds:(%esi),(%dx)
    5958:	73 0a                	jae    5964 <fs_instance_destroy+0x114>
    595a:	00 90 25 73 3a 20    	add    %dl,0x203a7325(%eax)
    5960:	48                   	dec    %eax
    5961:	65 6c                	gs insb (%dx),%es:(%edi)
    5963:	65 6e                	outsb  %gs:(%esi),(%dx)
    5965:	4f                   	dec    %edi
    5966:	53                   	push   %ebx
    5967:	20 63 64             	and    %ah,0x64(%ebx)
    596a:	66 73 20             	data16 jae 598d <fs_instance_destroy+0x13d>
    596d:	66 69 6c 65 20 73 79 	imul   $0x7973,0x20(%ebp,%eiz,2),%bp
    5974:	73 74                	jae    59ea <fs_instance_destroy+0x19a>
    5976:	65 6d                	gs insl (%dx),%es:(%edi)
    5978:	20 73 65             	and    %dh,0x65(%ebx)
    597b:	72 76                	jb     59f3 <fs_instance_destroy+0x1a3>
    597d:	65 72 0a             	gs jb  598a <fs_instance_destroy+0x13a>
    5980:	00 00                	add    %al,(%eax)
    5982:	00 00                	add    %al,(%eax)
    5984:	25 73 3a 20 66       	and    $0x66203a73,%eax
    5989:	61                   	popa   
    598a:	69 6c 65 64 20 74 6f 	imul   $0x206f7420,0x64(%ebp,%eiz,2),%ebp
    5991:	20 
    5992:	69 6e 69 74 69 61 6c 	imul   $0x6c616974,0x69(%esi),%ebp
    5999:	69 7a 65 20 63 64 66 	imul   $0x66646320,0x65(%edx),%edi
    59a0:	73 0a                	jae    59ac <fs_instance_destroy+0x15c>
    59a2:	00 00                	add    %al,(%eax)
    59a4:	25 73 3a 20 46       	and    $0x46203a73,%eax
    59a9:	61                   	popa   
    59aa:	69 6c 65 64 20 74 6f 	imul   $0x206f7420,0x64(%ebp,%eiz,2),%ebp
    59b1:	20 
    59b2:	72 65                	jb     5a19 <fs_instance_destroy+0x1c9>
    59b4:	67 69 73 74 65 72 20 	imul   $0x66207265,0x74(%bp,%di),%esi
    59bb:	66 
    59bc:	69 6c 65 20 73 79 73 	imul   $0x74737973,0x20(%ebp,%eiz,2),%ebp
    59c3:	74 
    59c4:	65 6d                	gs insl (%dx),%es:(%edi)
    59c6:	20 28                	and    %ch,(%eax)
    59c8:	25 64 29 0a 00       	and    $0xa2964,%eax
    59cd:	63 64 66 73          	arpl   %sp,0x73(%esi,%eiz,2)
    59d1:	5f                   	pop    %edi
    59d2:	6f                   	outsl  %ds:(%esi),(%dx)
    59d3:	70 73                	jo     5a48 <fs_instance_destroy+0x1f8>
    59d5:	2e 63 00             	arpl   %ax,%cs:(%eax)
    59d8:	6e                   	outsb  %ds:(%esi),(%dx)
    59d9:	6f                   	outsl  %ds:(%esi),(%dx)
    59da:	64 65 2d 3e 6f 70 65 	fs gs sub $0x65706f3e,%eax
    59e1:	6e                   	outsb  %ds:(%esi),(%dx)
    59e2:	65 64 20 3e          	gs and %bh,%fs:(%esi)
    59e6:	20 30                	and    %dh,(%eax)
    59e8:	00 6e 6f             	add    %ch,0x6f(%esi)
    59eb:	64 65 00 66 61       	fs add %ah,%gs:0x61(%esi)
    59f0:	6c                   	insb   (%dx),%es:(%edi)
    59f1:	73 65                	jae    5a58 <fs_instance_destroy+0x208>
    59f3:	00 61 6c             	add    %ah,0x6c(%ecx)
    59f6:	74 72                	je     5a6a <fs_instance_destroy+0x21a>
    59f8:	6f                   	outsl  %ds:(%esi),(%dx)
    59f9:	6f                   	outsl  %ds:(%esi),(%dx)
    59fa:	74 3d                	je     5a39 <fs_instance_destroy+0x1e9>
    59fc:	00 43 44             	add    %al,0x44(%ebx)
    59ff:	30 30                	xor    %dh,(%eax)
    5a01:	31 00                	xor    %eax,(%eax)
    5a03:	90                   	nop
    5a04:	28 6c 66 6c          	sub    %ch,0x6c(%esi,%eiz,2)
    5a08:	61                   	popa   
    5a09:	67 20 26 20 4c       	and    %ah,0x4c20
    5a0e:	5f                   	pop    %edi
    5a0f:	46                   	inc    %esi
    5a10:	49                   	dec    %ecx
    5a11:	4c                   	dec    %esp
    5a12:	45                   	inc    %ebp
    5a13:	29 20                	sub    %esp,(%eax)
    5a15:	5e                   	pop    %esi
    5a16:	20 28                	and    %ch,(%eax)
    5a18:	6c                   	insb   (%dx),%es:(%edi)
    5a19:	66 6c                	data16 insb (%dx),%es:(%edi)
    5a1b:	61                   	popa   
    5a1c:	67 20 26 20 4c       	and    %ah,0x4c20
    5a21:	5f                   	pop    %edi
    5a22:	44                   	inc    %esp
    5a23:	49                   	dec    %ecx
    5a24:	52                   	push   %edx
    5a25:	45                   	inc    %ebp
    5a26:	43                   	inc    %ebx
    5a27:	54                   	push   %esp
    5a28:	4f                   	dec    %edi
    5a29:	52                   	push   %edx
    5a2a:	59                   	pop    %ecx
    5a2b:	29 00                	sub    %eax,(%eax)
    5a2d:	00 00                	add    %al,(%eax)
    5a2f:	00 70 61             	add    %dh,0x61(%eax)
    5a32:	72 65                	jb     5a99 <fs_instance_destroy+0x249>
    5a34:	6e                   	outsb  %ds:(%esi),(%dx)
    5a35:	74 2d                	je     5a64 <fs_instance_destroy+0x214>
    5a37:	3e 74 79             	je,pt  5ab3 <fs_instance_destroy+0x263>
    5a3a:	70 65                	jo     5aa1 <fs_instance_destroy+0x251>
    5a3c:	20 3d 3d 20 43 44    	and    %bh,0x4443203d
    5a42:	46                   	inc    %esi
    5a43:	53                   	push   %ebx
    5a44:	5f                   	pop    %edi
    5a45:	44                   	inc    %esp
    5a46:	49                   	dec    %ecx
    5a47:	52                   	push   %edx
    5a48:	45                   	inc    %ebp
    5a49:	43                   	inc    %ebx
    5a4a:	54                   	push   %esp
    5a4b:	4f                   	dec    %edi
    5a4c:	52                   	push   %edx
    5a4d:	59                   	pop    %ecx
    5a4e:	00 62 6c             	add    %ah,0x6c(%edx)
    5a51:	6f                   	outsl  %ds:(%esi),(%dx)
    5a52:	63 6b 2e             	arpl   %bp,0x2e(%ebx)
    5a55:	63 00                	arpl   %ax,(%eax)
    5a57:	64 65 76 63          	fs gs jbe 5abe <fs_instance_destroy+0x26e>
    5a5b:	6f                   	outsl  %ds:(%esi),(%dx)
    5a5c:	6e                   	outsb  %ds:(%esi),(%dx)
    5a5d:	00 64 65 76          	add    %ah,0x76(%ebp,%eiz,2)
    5a61:	63 6f 6e             	arpl   %bp,0x6e(%edi)
    5a64:	2d 3e 63 61 63       	sub    $0x6361633e,%eax
    5a69:	68 65 00 62 6c       	push   $0x6c620065
    5a6e:	6f                   	outsl  %ds:(%esi),(%dx)
    5a6f:	63 6b 2d             	arpl   %bp,0x2d(%ebx)
    5a72:	3e 72 65             	jb,pt  5ada <fs_instance_destroy+0x28a>
    5a75:	66 63 6e 74          	data16 arpl %bp,0x74(%esi)
    5a79:	20 3e                	and    %bh,(%esi)
    5a7b:	3d 20 31 00 64       	cmp    $0x64003120,%eax
    5a80:	65 76 63             	gs jbe 5ae6 <fs_instance_destroy+0x296>
    5a83:	6f                   	outsl  %ds:(%esi),(%dx)
    5a84:	6e                   	outsb  %ds:(%esi),(%dx)
    5a85:	2d 3e 63 61 63       	sub    $0x6361633e,%eax
    5a8a:	68 65 20 21 3d       	push   $0x3d212065
    5a8f:	20 4e 55             	and    %cl,0x55(%esi)
    5a92:	4c                   	dec    %esp
    5a93:	4c                   	dec    %esp
    5a94:	00 62 2d             	add    %ah,0x2d(%edx)
    5a97:	3e 74 6f             	je,pt  5b09 <fs_instance_destroy+0x2b9>
    5a9a:	78 69                	js     5b05 <fs_instance_destroy+0x2b5>
    5a9c:	63 00                	arpl   %ax,(%eax)
    5a9e:	66 90                	xchg   %ax,%ax
    5aa0:	45                   	inc    %ebp
    5aa1:	72 72                	jb     5b15 <fs_instance_destroy+0x2c5>
    5aa3:	6f                   	outsl  %ds:(%esi),(%dx)
    5aa4:	72 20                	jb     5ac6 <fs_instance_destroy+0x276>
    5aa6:	25 64 20 72 65       	and    $0x65722064,%eax
    5aab:	61                   	popa   
    5aac:	64 69 6e 67 20 25 7a 	imul   $0x757a2520,%fs:0x67(%esi),%ebp
    5ab3:	75 
    5ab4:	20 62 6c             	and    %ah,0x6c(%edx)
    5ab7:	6f                   	outsl  %ds:(%esi),(%dx)
    5ab8:	63 6b 73             	arpl   %bp,0x73(%ebx)
    5abb:	20 73 74             	and    %dh,0x74(%ebx)
    5abe:	61                   	popa   
    5abf:	72 74                	jb     5b35 <fs_instance_destroy+0x2e5>
    5ac1:	69 6e 67 20 61 74 20 	imul   $0x20746120,0x67(%esi),%ebp
    5ac8:	62 6c 6f 63          	bound  %ebp,0x63(%edi,%ebp,2)
    5acc:	6b 20 25             	imul   $0x25,(%eax),%esp
    5acf:	6c                   	insb   (%dx),%es:(%edi)
    5ad0:	6c                   	insb   (%dx),%es:(%edi)
    5ad1:	75 20                	jne    5af3 <fs_instance_destroy+0x2a3>
    5ad3:	66 72 6f             	data16 jb 5b45 <fs_instance_destroy+0x2f5>
    5ad6:	6d                   	insl   (%dx),%es:(%edi)
    5ad7:	20 64 65 76          	and    %ah,0x76(%ebp,%eiz,2)
    5adb:	69 63 65 20 68 61 6e 	imul   $0x6e616820,0x65(%ebx),%esp
    5ae2:	64 6c                	fs insb (%dx),%es:(%edi)
    5ae4:	65 20 25 75 0a 00 00 	and    %ah,%gs:0xa75
    5aeb:	00 45 72             	add    %al,0x72(%ebp)
    5aee:	72 6f                	jb     5b5f <fs_instance_destroy+0x30f>
    5af0:	72 20                	jb     5b12 <fs_instance_destroy+0x2c2>
    5af2:	25 64 20 77 72       	and    $0x72772064,%eax
    5af7:	69 74 69 6e 67 20 25 	imul   $0x7a252067,0x6e(%ecx,%ebp,2),%esi
    5afe:	7a 
    5aff:	75 20                	jne    5b21 <fs_instance_destroy+0x2d1>
    5b01:	62 6c 6f 63          	bound  %ebp,0x63(%edi,%ebp,2)
    5b05:	6b 73 20 73          	imul   $0x73,0x20(%ebx),%esi
    5b09:	74 61                	je     5b6c <fs_instance_destroy+0x31c>
    5b0b:	72 74                	jb     5b81 <fs_instance_destroy+0x331>
    5b0d:	69 6e 67 20 61 74 20 	imul   $0x20746120,0x67(%esi),%ebp
    5b14:	62 6c 6f 63          	bound  %ebp,0x63(%edi,%ebp,2)
    5b18:	6b 20 25             	imul   $0x25,(%eax),%esp
    5b1b:	6c                   	insb   (%dx),%es:(%edi)
    5b1c:	6c                   	insb   (%dx),%es:(%edi)
    5b1d:	75 20                	jne    5b3f <fs_instance_destroy+0x2ef>
    5b1f:	74 6f                	je     5b90 <fs_instance_destroy+0x340>
    5b21:	20 64 65 76          	and    %ah,0x76(%ebp,%eiz,2)
    5b25:	69 63 65 20 68 61 6e 	imul   $0x6e616820,0x65(%ebx),%esp
    5b2c:	64 6c                	fs insb (%dx),%es:(%edi)
    5b2e:	65 20 25 75 0a 00 54 	and    %ah,%gs:0x54000a75
    5b35:	6f                   	outsl  %ds:(%esi),(%dx)
    5b36:	6f                   	outsl  %ds:(%esi),(%dx)
    5b37:	20 6d 61             	and    %ch,0x61(%ebp)
    5b3a:	6e                   	outsb  %ds:(%esi),(%dx)
    5b3b:	79 20                	jns    5b5d <fs_instance_destroy+0x30d>
    5b3d:	65 72 72             	gs jb  5bb2 <fs_instance_destroy+0x362>
    5b40:	6f                   	outsl  %ds:(%esi),(%dx)
    5b41:	72 73                	jb     5bb6 <fs_instance_destroy+0x366>
    5b43:	20 77 72             	and    %dh,0x72(%edi)
    5b46:	69 74 69 6e 67 20 62 	imul   $0x6c622067,0x6e(%ecx,%ebp,2),%esi
    5b4d:	6c 
    5b4e:	6f                   	outsl  %ds:(%esi),(%dx)
    5b4f:	63 6b 20             	arpl   %bp,0x20(%ebx)
    5b52:	25 6c 6c 75 66       	and    $0x66756c6c,%eax
    5b57:	72 6f                	jb     5bc8 <fs_instance_destroy+0x378>
    5b59:	6d                   	insl   (%dx),%es:(%edi)
    5b5a:	20 64 65 76          	and    %ah,0x76(%ebp,%eiz,2)
    5b5e:	69 63 65 20 68 61 6e 	imul   $0x6e616820,0x65(%ebx),%esp
    5b65:	64 6c                	fs insb (%dx),%es:(%edi)
    5b67:	65 20 25 75 0a 53 45 	and    %ah,%gs:0x45530a75
    5b6e:	56                   	push   %esi
    5b6f:	45                   	inc    %ebp
    5b70:	52                   	push   %edx
    5b71:	45                   	inc    %ebp
    5b72:	20 44 41 54          	and    %al,0x54(%ecx,%eax,2)
    5b76:	41                   	inc    %ecx
    5b77:	20 4c 4f 53          	and    %cl,0x53(%edi,%ecx,2)
    5b7b:	53                   	push   %ebx
    5b7c:	20 50 4f             	and    %dl,0x4f(%eax)
    5b7f:	53                   	push   %ebx
    5b80:	53                   	push   %ebx
    5b81:	49                   	dec    %ecx
    5b82:	42                   	inc    %edx
    5b83:	4c                   	dec    %esp
    5b84:	45                   	inc    %ebp
    5b85:	0a 00                	or     (%eax),%al
    5b87:	00 6c 69 62          	add    %ch,0x62(%ecx,%ebp,2)
    5b8b:	66 73 2e             	data16 jae 5bbc <fs_instance_destroy+0x36c>
    5b8e:	63 00                	arpl   %ax,(%eax)
    5b90:	6c                   	insb   (%dx),%es:(%edi)
    5b91:	65 6e                	outsb  %gs:(%esi),(%dx)
    5b93:	00 18                	add    %bl,(%eax)
    5b95:	4c                   	dec    %esp
    5b96:	00 00                	add    %al,(%eax)
    5b98:	c8 4b 00 00          	enter  $0x4b,$0x0
    5b9c:	70 4b                	jo     5be9 <fs_instance_destroy+0x399>
    5b9e:	00 00                	add    %al,(%eax)
    5ba0:	40                   	inc    %eax
    5ba1:	4b                   	dec    %ebx
    5ba2:	00 00                	add    %al,(%eax)
    5ba4:	20 4b 00             	and    %cl,0x0(%ebx)
    5ba7:	00 e8                	add    %ch,%al
    5ba9:	49                   	dec    %ecx
    5baa:	00 00                	add    %al,(%eax)
    5bac:	48                   	dec    %eax
    5bad:	49                   	dec    %ecx
    5bae:	00 00                	add    %al,(%eax)
    5bb0:	58                   	pop    %eax
    5bb1:	48                   	dec    %eax
    5bb2:	00 00                	add    %al,(%eax)
    5bb4:	40                   	inc    %eax
    5bb5:	48                   	dec    %eax
    5bb6:	00 00                	add    %al,(%eax)
    5bb8:	20 48 00             	and    %cl,0x0(%eax)
    5bbb:	00 08                	add    %cl,(%eax)
    5bbd:	47                   	inc    %edi
    5bbe:	00 00                	add    %al,(%eax)
    5bc0:	38 44 00 00          	cmp    %al,0x0(%eax,%eax,1)
    5bc4:	10 44 00 00          	adc    %al,0x0(%eax,%eax,1)
    5bc8:	f0 4c                	lock dec %esp
	...

Disassembly of section .plt:

00005e10 <__main@plt-0x10>:
    5e10:	ff 35 b4 7f 00 00    	pushl  0x7fb4
    5e16:	ff 25 b8 7f 00 00    	jmp    *0x7fb8
    5e1c:	00 00                	add    %al,(%eax)
	...

00005e20 <__main@plt>:
    5e20:	ff 25 bc 7f 00 00    	jmp    *0x7fbc
    5e26:	68 00 00 00 00       	push   $0x0
    5e2b:	e9 e0 ff ff ff       	jmp    5e10 <fs_instance_destroy+0x5c0>

00005e30 <task_retval@plt>:
    5e30:	ff 25 c0 7f 00 00    	jmp    *0x7fc0
    5e36:	68 08 00 00 00       	push   $0x8
    5e3b:	e9 d0 ff ff ff       	jmp    5e10 <fs_instance_destroy+0x5c0>

00005e40 <loc_service_connect@plt>:
    5e40:	ff 25 c4 7f 00 00    	jmp    *0x7fc4
    5e46:	68 10 00 00 00       	push   $0x10
    5e4b:	e9 c0 ff ff ff       	jmp    5e10 <fs_instance_destroy+0x5c0>

00005e50 <printf@plt>:
    5e50:	ff 25 c8 7f 00 00    	jmp    *0x7fc8
    5e56:	68 18 00 00 00       	push   $0x18
    5e5b:	e9 b0 ff ff ff       	jmp    5e10 <fs_instance_destroy+0x5c0>

00005e60 <async_hangup@plt>:
    5e60:	ff 25 cc 7f 00 00    	jmp    *0x7fcc
    5e66:	68 20 00 00 00       	push   $0x20
    5e6b:	e9 a0 ff ff ff       	jmp    5e10 <fs_instance_destroy+0x5c0>

00005e70 <async_data_write_forward_fast@plt>:
    5e70:	ff 25 d0 7f 00 00    	jmp    *0x7fd0
    5e76:	68 28 00 00 00       	push   $0x28
    5e7b:	e9 90 ff ff ff       	jmp    5e10 <fs_instance_destroy+0x5c0>

00005e80 <async_forward_slow@plt>:
    5e80:	ff 25 d4 7f 00 00    	jmp    *0x7fd4
    5e86:	68 30 00 00 00       	push   $0x30
    5e8b:	e9 80 ff ff ff       	jmp    5e10 <fs_instance_destroy+0x5c0>

00005e90 <async_wait_for@plt>:
    5e90:	ff 25 d8 7f 00 00    	jmp    *0x7fd8
    5e96:	68 38 00 00 00       	push   $0x38
    5e9b:	e9 70 ff ff ff       	jmp    5e10 <fs_instance_destroy+0x5c0>

00005ea0 <str_uint32_t@plt>:
    5ea0:	ff 25 dc 7f 00 00    	jmp    *0x7fdc
    5ea6:	68 40 00 00 00       	push   $0x40
    5eab:	e9 60 ff ff ff       	jmp    5e10 <fs_instance_destroy+0x5c0>

00005eb0 <hash_table_create@plt>:
    5eb0:	ff 25 e0 7f 00 00    	jmp    *0x7fe0
    5eb6:	68 48 00 00 00       	push   $0x48
    5ebb:	e9 50 ff ff ff       	jmp    5e10 <fs_instance_destroy+0x5c0>

00005ec0 <async_data_write_start@plt>:
    5ec0:	ff 25 e4 7f 00 00    	jmp    *0x7fe4
    5ec6:	68 50 00 00 00       	push   $0x50
    5ecb:	e9 40 ff ff ff       	jmp    5e10 <fs_instance_destroy+0x5c0>

00005ed0 <hash_table_insert@plt>:
    5ed0:	ff 25 e8 7f 00 00    	jmp    *0x7fe8
    5ed6:	68 58 00 00 00       	push   $0x58
    5edb:	e9 30 ff ff ff       	jmp    5e10 <fs_instance_destroy+0x5c0>

00005ee0 <__errno@plt>:
    5ee0:	ff 25 ec 7f 00 00    	jmp    *0x7fec
    5ee6:	68 60 00 00 00       	push   $0x60
    5eeb:	e9 20 ff ff ff       	jmp    5e10 <fs_instance_destroy+0x5c0>

00005ef0 <bd_write_blocks@plt>:
    5ef0:	ff 25 f0 7f 00 00    	jmp    *0x7ff0
    5ef6:	68 68 00 00 00       	push   $0x68
    5efb:	e9 10 ff ff ff       	jmp    5e10 <fs_instance_destroy+0x5c0>

00005f00 <bd_get_num_blocks@plt>:
    5f00:	ff 25 f4 7f 00 00    	jmp    *0x7ff4
    5f06:	68 70 00 00 00       	push   $0x70
    5f0b:	e9 00 ff ff ff       	jmp    5e10 <fs_instance_destroy+0x5c0>

00005f10 <service_connect_blocking@plt>:
    5f10:	ff 25 f8 7f 00 00    	jmp    *0x7ff8
    5f16:	68 78 00 00 00       	push   $0x78
    5f1b:	e9 f0 fe ff ff       	jmp    5e10 <fs_instance_destroy+0x5c0>

00005f20 <async_data_read_finalize@plt>:
    5f20:	ff 25 fc 7f 00 00    	jmp    *0x7ffc
    5f26:	68 80 00 00 00       	push   $0x80
    5f2b:	e9 e0 fe ff ff       	jmp    5e10 <fs_instance_destroy+0x5c0>

00005f30 <async_share_in_start@plt>:
    5f30:	ff 25 00 80 00 00    	jmp    *0x8000
    5f36:	68 88 00 00 00       	push   $0x88
    5f3b:	e9 d0 fe ff ff       	jmp    5e10 <fs_instance_destroy+0x5c0>

00005f40 <bd_close@plt>:
    5f40:	ff 25 04 80 00 00    	jmp    *0x8004
    5f46:	68 90 00 00 00       	push   $0x90
    5f4b:	e9 c0 fe ff ff       	jmp    5e10 <fs_instance_destroy+0x5c0>

00005f50 <memcpy@plt>:
    5f50:	ff 25 08 80 00 00    	jmp    *0x8008
    5f56:	68 98 00 00 00       	push   $0x98
    5f5b:	e9 b0 fe ff ff       	jmp    5e10 <fs_instance_destroy+0x5c0>

00005f60 <async_clone_establish@plt>:
    5f60:	ff 25 0c 80 00 00    	jmp    *0x800c
    5f66:	68 a0 00 00 00       	push   $0xa0
    5f6b:	e9 a0 fe ff ff       	jmp    5e10 <fs_instance_destroy+0x5c0>

00005f70 <malloc@plt>:
    5f70:	ff 25 10 80 00 00    	jmp    *0x8010
    5f76:	68 a8 00 00 00       	push   $0xa8
    5f7b:	e9 90 fe ff ff       	jmp    5e10 <fs_instance_destroy+0x5c0>

00005f80 <bd_open@plt>:
    5f80:	ff 25 14 80 00 00    	jmp    *0x8014
    5f86:	68 b0 00 00 00       	push   $0xb0
    5f8b:	e9 80 fe ff ff       	jmp    5e10 <fs_instance_destroy+0x5c0>

00005f90 <async_req_fast@plt>:
    5f90:	ff 25 18 80 00 00    	jmp    *0x8018
    5f96:	68 b8 00 00 00       	push   $0xb8
    5f9b:	e9 70 fe ff ff       	jmp    5e10 <fs_instance_destroy+0x5c0>

00005fa0 <async_answer_0@plt>:
    5fa0:	ff 25 1c 80 00 00    	jmp    *0x801c
    5fa6:	68 c0 00 00 00       	push   $0xc0
    5fab:	e9 60 fe ff ff       	jmp    5e10 <fs_instance_destroy+0x5c0>

00005fb0 <async_send_fast@plt>:
    5fb0:	ff 25 20 80 00 00    	jmp    *0x8020
    5fb6:	68 c8 00 00 00       	push   $0xc8
    5fbb:	e9 50 fe ff ff       	jmp    5e10 <fs_instance_destroy+0x5c0>

00005fc0 <stacktrace_print@plt>:
    5fc0:	ff 25 24 80 00 00    	jmp    *0x8024
    5fc6:	68 d0 00 00 00       	push   $0xd0
    5fcb:	e9 40 fe ff ff       	jmp    5e10 <fs_instance_destroy+0x5c0>

00005fd0 <__umoddi3@plt>:
    5fd0:	ff 25 28 80 00 00    	jmp    *0x8028
    5fd6:	68 d8 00 00 00       	push   $0xd8
    5fdb:	e9 30 fe ff ff       	jmp    5e10 <fs_instance_destroy+0x5c0>

00005fe0 <__udivdi3@plt>:
    5fe0:	ff 25 2c 80 00 00    	jmp    *0x802c
    5fe6:	68 e0 00 00 00       	push   $0xe0
    5feb:	e9 20 fe ff ff       	jmp    5e10 <fs_instance_destroy+0x5c0>

00005ff0 <bd_read_blocks@plt>:
    5ff0:	ff 25 30 80 00 00    	jmp    *0x8030
    5ff6:	68 e8 00 00 00       	push   $0xe8
    5ffb:	e9 10 fe ff ff       	jmp    5e10 <fs_instance_destroy+0x5c0>

00006000 <utf16_to_str@plt>:
    6000:	ff 25 34 80 00 00    	jmp    *0x8034
    6006:	68 f0 00 00 00       	push   $0xf0
    600b:	e9 00 fe ff ff       	jmp    5e10 <fs_instance_destroy+0x5c0>

00006010 <strtol@plt>:
    6010:	ff 25 38 80 00 00    	jmp    *0x8038
    6016:	68 f8 00 00 00       	push   $0xf8
    601b:	e9 f0 fd ff ff       	jmp    5e10 <fs_instance_destroy+0x5c0>

00006020 <async_exchange_end@plt>:
    6020:	ff 25 3c 80 00 00    	jmp    *0x803c
    6026:	68 00 01 00 00       	push   $0x100
    602b:	e9 e0 fd ff ff       	jmp    5e10 <fs_instance_destroy+0x5c0>

00006030 <str_chr@plt>:
    6030:	ff 25 40 80 00 00    	jmp    *0x8040
    6036:	68 08 01 00 00       	push   $0x108
    603b:	e9 d0 fd ff ff       	jmp    5e10 <fs_instance_destroy+0x5c0>

00006040 <fibril_mutex_trylock@plt>:
    6040:	ff 25 44 80 00 00    	jmp    *0x8044
    6046:	68 10 01 00 00       	push   $0x110
    604b:	e9 c0 fd ff ff       	jmp    5e10 <fs_instance_destroy+0x5c0>

00006050 <assert_abort@plt>:
    6050:	ff 25 48 80 00 00    	jmp    *0x8048
    6056:	68 18 01 00 00       	push   $0x118
    605b:	e9 b0 fd ff ff       	jmp    5e10 <fs_instance_destroy+0x5c0>

00006060 <calloc@plt>:
    6060:	ff 25 4c 80 00 00    	jmp    *0x804c
    6066:	68 20 01 00 00       	push   $0x120
    606b:	e9 a0 fd ff ff       	jmp    5e10 <fs_instance_destroy+0x5c0>

00006070 <bd_read_toc@plt>:
    6070:	ff 25 50 80 00 00    	jmp    *0x8050
    6076:	68 28 01 00 00       	push   $0x128
    607b:	e9 90 fd ff ff       	jmp    5e10 <fs_instance_destroy+0x5c0>

00006080 <fibril_mutex_unlock@plt>:
    6080:	ff 25 54 80 00 00    	jmp    *0x8054
    6086:	68 30 01 00 00       	push   $0x130
    608b:	e9 80 fd ff ff       	jmp    5e10 <fs_instance_destroy+0x5c0>

00006090 <str_dup@plt>:
    6090:	ff 25 58 80 00 00    	jmp    *0x8058
    6096:	68 38 01 00 00       	push   $0x138
    609b:	e9 70 fd ff ff       	jmp    5e10 <fs_instance_destroy+0x5c0>

000060a0 <fibril_mutex_initialize@plt>:
    60a0:	ff 25 5c 80 00 00    	jmp    *0x805c
    60a6:	68 40 01 00 00       	push   $0x140
    60ab:	e9 60 fd ff ff       	jmp    5e10 <fs_instance_destroy+0x5c0>

000060b0 <async_answer_4@plt>:
    60b0:	ff 25 60 80 00 00    	jmp    *0x8060
    60b6:	68 48 01 00 00       	push   $0x148
    60bb:	e9 50 fd ff ff       	jmp    5e10 <fs_instance_destroy+0x5c0>

000060c0 <async_clone_receive@plt>:
    60c0:	ff 25 64 80 00 00    	jmp    *0x8064
    60c6:	68 50 01 00 00       	push   $0x150
    60cb:	e9 40 fd ff ff       	jmp    5e10 <fs_instance_destroy+0x5c0>

000060d0 <async_answer_5@plt>:
    60d0:	ff 25 68 80 00 00    	jmp    *0x8068
    60d6:	68 58 01 00 00       	push   $0x158
    60db:	e9 30 fd ff ff       	jmp    5e10 <fs_instance_destroy+0x5c0>

000060e0 <memcmp@plt>:
    60e0:	ff 25 6c 80 00 00    	jmp    *0x806c
    60e6:	68 60 01 00 00       	push   $0x160
    60eb:	e9 20 fd ff ff       	jmp    5e10 <fs_instance_destroy+0x5c0>

000060f0 <async_create_callback_port@plt>:
    60f0:	ff 25 70 80 00 00    	jmp    *0x8070
    60f6:	68 68 01 00 00       	push   $0x168
    60fb:	e9 10 fd ff ff       	jmp    5e10 <fs_instance_destroy+0x5c0>

00006100 <str_cmp@plt>:
    6100:	ff 25 74 80 00 00    	jmp    *0x8074
    6106:	68 70 01 00 00       	push   $0x170
    610b:	e9 00 fd ff ff       	jmp    5e10 <fs_instance_destroy+0x5c0>

00006110 <hash_table_remove_item@plt>:
    6110:	ff 25 78 80 00 00    	jmp    *0x8078
    6116:	68 78 01 00 00       	push   $0x178
    611b:	e9 f0 fc ff ff       	jmp    5e10 <fs_instance_destroy+0x5c0>

00006120 <memset@plt>:
    6120:	ff 25 7c 80 00 00    	jmp    *0x807c
    6126:	68 80 01 00 00       	push   $0x180
    612b:	e9 e0 fc ff ff       	jmp    5e10 <fs_instance_destroy+0x5c0>

00006130 <async_data_read_receive@plt>:
    6130:	ff 25 80 80 00 00    	jmp    *0x8080
    6136:	68 88 01 00 00       	push   $0x188
    613b:	e9 d0 fc ff ff       	jmp    5e10 <fs_instance_destroy+0x5c0>

00006140 <bd_get_block_size@plt>:
    6140:	ff 25 84 80 00 00    	jmp    *0x8084
    6146:	68 90 01 00 00       	push   $0x190
    614b:	e9 c0 fc ff ff       	jmp    5e10 <fs_instance_destroy+0x5c0>

00006150 <async_data_write_void@plt>:
    6150:	ff 25 88 80 00 00    	jmp    *0x8088
    6156:	68 98 01 00 00       	push   $0x198
    615b:	e9 b0 fc ff ff       	jmp    5e10 <fs_instance_destroy+0x5c0>

00006160 <async_get_call_timeout@plt>:
    6160:	ff 25 8c 80 00 00    	jmp    *0x808c
    6166:	68 a0 01 00 00       	push   $0x1a0
    616b:	e9 a0 fc ff ff       	jmp    5e10 <fs_instance_destroy+0x5c0>

00006170 <str_size@plt>:
    6170:	ff 25 90 80 00 00    	jmp    *0x8090
    6176:	68 a8 01 00 00       	push   $0x1a8
    617b:	e9 90 fc ff ff       	jmp    5e10 <fs_instance_destroy+0x5c0>

00006180 <str_lcmp@plt>:
    6180:	ff 25 94 80 00 00    	jmp    *0x8094
    6186:	68 b0 01 00 00       	push   $0x1b0
    618b:	e9 80 fc ff ff       	jmp    5e10 <fs_instance_destroy+0x5c0>

00006190 <bd_sync_cache@plt>:
    6190:	ff 25 98 80 00 00    	jmp    *0x8098
    6196:	68 b8 01 00 00       	push   $0x1b8
    619b:	e9 70 fc ff ff       	jmp    5e10 <fs_instance_destroy+0x5c0>

000061a0 <async_answer_1@plt>:
    61a0:	ff 25 9c 80 00 00    	jmp    *0x809c
    61a6:	68 c0 01 00 00       	push   $0x1c0
    61ab:	e9 60 fc ff ff       	jmp    5e10 <fs_instance_destroy+0x5c0>

000061b0 <async_exchange_begin@plt>:
    61b0:	ff 25 a0 80 00 00    	jmp    *0x80a0
    61b6:	68 c8 01 00 00       	push   $0x1c8
    61bb:	e9 50 fc ff ff       	jmp    5e10 <fs_instance_destroy+0x5c0>

000061c0 <hash_table_apply@plt>:
    61c0:	ff 25 a4 80 00 00    	jmp    *0x80a4
    61c6:	68 d0 01 00 00       	push   $0x1d0
    61cb:	e9 40 fc ff ff       	jmp    5e10 <fs_instance_destroy+0x5c0>

000061d0 <async_answer_3@plt>:
    61d0:	ff 25 a8 80 00 00    	jmp    *0x80a8
    61d6:	68 d8 01 00 00       	push   $0x1d8
    61db:	e9 30 fc ff ff       	jmp    5e10 <fs_instance_destroy+0x5c0>

000061e0 <hash_table_find@plt>:
    61e0:	ff 25 ac 80 00 00    	jmp    *0x80ac
    61e6:	68 e0 01 00 00       	push   $0x1e0
    61eb:	e9 20 fc ff ff       	jmp    5e10 <fs_instance_destroy+0x5c0>

000061f0 <async_data_write_accept@plt>:
    61f0:	ff 25 b0 80 00 00    	jmp    *0x80b0
    61f6:	68 e8 01 00 00       	push   $0x1e8
    61fb:	e9 10 fc ff ff       	jmp    5e10 <fs_instance_destroy+0x5c0>

00006200 <fibril_rwlock_initialize@plt>:
    6200:	ff 25 b4 80 00 00    	jmp    *0x80b4
    6206:	68 f0 01 00 00       	push   $0x1f0
    620b:	e9 00 fc ff ff       	jmp    5e10 <fs_instance_destroy+0x5c0>

00006210 <async_forget@plt>:
    6210:	ff 25 b8 80 00 00    	jmp    *0x80b8
    6216:	68 f8 01 00 00       	push   $0x1f8
    621b:	e9 f0 fb ff ff       	jmp    5e10 <fs_instance_destroy+0x5c0>

00006220 <fibril_switch@plt>:
    6220:	ff 25 bc 80 00 00    	jmp    *0x80bc
    6226:	68 00 02 00 00       	push   $0x200
    622b:	e9 e0 fb ff ff       	jmp    5e10 <fs_instance_destroy+0x5c0>

00006230 <__syscall_fast@plt>:
    6230:	ff 25 c0 80 00 00    	jmp    *0x80c0
    6236:	68 08 02 00 00       	push   $0x208
    623b:	e9 d0 fb ff ff       	jmp    5e10 <fs_instance_destroy+0x5c0>

00006240 <async_set_fallback_port_handler@plt>:
    6240:	ff 25 c4 80 00 00    	jmp    *0x80c4
    6246:	68 10 02 00 00       	push   $0x210
    624b:	e9 c0 fb ff ff       	jmp    5e10 <fs_instance_destroy+0x5c0>

00006250 <hash_table_destroy@plt>:
    6250:	ff 25 c8 80 00 00    	jmp    *0x80c8
    6256:	68 18 02 00 00       	push   $0x218
    625b:	e9 b0 fb ff ff       	jmp    5e10 <fs_instance_destroy+0x5c0>

00006260 <free@plt>:
    6260:	ff 25 cc 80 00 00    	jmp    *0x80cc
    6266:	68 20 02 00 00       	push   $0x220
    626b:	e9 a0 fb ff ff       	jmp    5e10 <fs_instance_destroy+0x5c0>

00006270 <fibril_mutex_lock@plt>:
    6270:	ff 25 d0 80 00 00    	jmp    *0x80d0
    6276:	68 28 02 00 00       	push   $0x228
    627b:	e9 90 fb ff ff       	jmp    5e10 <fs_instance_destroy+0x5c0>
