
mkexfat:     file format elf32-i386


Disassembly of section .init:

000010f4 <__entry>:
    10f4:	66 8c d0             	mov    %ss,%ax
    10f7:	8e d8                	mov    %eax,%ds
    10f9:	8e c0                	mov    %eax,%es
    10fb:	8e e0                	mov    %eax,%fs
    10fd:	b8 01 00 00 00       	mov    $0x1,%eax
    1102:	0f a2                	cpuid  
    1104:	0f ba e2 0b          	bt     $0xb,%edx
    1108:	73 0c                	jae    1116 <__entry+0x22>
    110a:	8d 05 88 76 00 00    	lea    0x7688,%eax
    1110:	c7 00 90 5e 00 00    	movl   $0x5e90,(%eax)
    1116:	6a 00                	push   $0x0
    1118:	6a 00                	push   $0x0
    111a:	89 e5                	mov    %esp,%ebp
    111c:	57                   	push   %edi
    111d:	e8 6e 4b 00 00       	call   5c90 <__main@plt>

Disassembly of section .text:

00001140 <fat_allocate_clusters.isra.1>:
    1140:	55                   	push   %ebp
    1141:	89 e5                	mov    %esp,%ebp
    1143:	57                   	push   %edi
    1144:	56                   	push   %esi
    1145:	53                   	push   %ebx
    1146:	89 c3                	mov    %eax,%ebx
    1148:	89 d0                	mov    %edx,%eax
    114a:	c1 e8 02             	shr    $0x2,%eax
    114d:	83 ec 38             	sub    $0x38,%esp
    1150:	89 55 d8             	mov    %edx,-0x28(%ebp)
    1153:	89 45 e4             	mov    %eax,-0x1c(%ebp)
    1156:	31 d2                	xor    %edx,%edx
    1158:	89 c8                	mov    %ecx,%eax
    115a:	ff 75 d8             	pushl  -0x28(%ebp)
    115d:	f7 75 e4             	divl   -0x1c(%ebp)
    1160:	83 e8 80             	sub    $0xffffff80,%eax
    1163:	89 4d e0             	mov    %ecx,-0x20(%ebp)
    1166:	89 c6                	mov    %eax,%esi
    1168:	89 55 d4             	mov    %edx,-0x2c(%ebp)
    116b:	e8 e0 4b 00 00       	call   5d50 <malloc@plt>
    1170:	83 c4 10             	add    $0x10,%esp
    1173:	85 c0                	test   %eax,%eax
    1175:	0f 84 f2 00 00 00    	je     126d <fat_allocate_clusters.isra.1+0x12d>
    117b:	31 ff                	xor    %edi,%edi
    117d:	89 c1                	mov    %eax,%ecx
    117f:	8b 55 d4             	mov    -0x2c(%ebp),%edx
    1182:	83 ec 0c             	sub    $0xc,%esp
    1185:	89 4d d8             	mov    %ecx,-0x28(%ebp)
    1188:	89 55 d4             	mov    %edx,-0x2c(%ebp)
    118b:	51                   	push   %ecx
    118c:	6a 01                	push   $0x1
    118e:	57                   	push   %edi
    118f:	56                   	push   %esi
    1190:	53                   	push   %ebx
    1191:	e8 0a 23 00 00       	call   34a0 <block_read_direct>
    1196:	83 c4 20             	add    $0x20,%esp
    1199:	8b 4d d8             	mov    -0x28(%ebp),%ecx
    119c:	85 c0                	test   %eax,%eax
    119e:	0f 85 b5 00 00 00    	jne    1259 <fat_allocate_clusters.isra.1+0x119>
    11a4:	8b 55 d4             	mov    -0x2c(%ebp),%edx
    11a7:	83 3c 91 00          	cmpl   $0x0,(%ecx,%edx,4)
    11ab:	74 15                	je     11c2 <fat_allocate_clusters.isra.1+0x82>
    11ad:	52                   	push   %edx
    11ae:	68 cc 01 00 00       	push   $0x1cc
    11b3:	68 29 3b 00 00       	push   $0x3b29
    11b8:	68 33 3b 00 00       	push   $0x3b33
    11bd:	e8 1e 4c 00 00       	call   5de0 <assert_abort@plt>
    11c2:	83 7d 08 00          	cmpl   $0x0,0x8(%ebp)
    11c6:	75 15                	jne    11dd <fat_allocate_clusters.isra.1+0x9d>
    11c8:	50                   	push   %eax
    11c9:	68 cd 01 00 00       	push   $0x1cd
    11ce:	68 29 3b 00 00       	push   $0x3b29
    11d3:	68 45 3b 00 00       	push   $0x3b45
    11d8:	e8 03 4c 00 00       	call   5de0 <assert_abort@plt>
    11dd:	8b 45 e0             	mov    -0x20(%ebp),%eax
    11e0:	39 55 e4             	cmp    %edx,-0x1c(%ebp)
    11e3:	76 10                	jbe    11f5 <fat_allocate_clusters.isra.1+0xb5>
    11e5:	83 7d 08 01          	cmpl   $0x1,0x8(%ebp)
    11e9:	76 0a                	jbe    11f5 <fat_allocate_clusters.isra.1+0xb5>
    11eb:	40                   	inc    %eax
    11ec:	ff 4d 08             	decl   0x8(%ebp)
    11ef:	89 04 91             	mov    %eax,(%ecx,%edx,4)
    11f2:	42                   	inc    %edx
    11f3:	eb eb                	jmp    11e0 <fat_allocate_clusters.isra.1+0xa0>
    11f5:	89 45 e0             	mov    %eax,-0x20(%ebp)
    11f8:	39 55 e4             	cmp    %edx,-0x1c(%ebp)
    11fb:	75 38                	jne    1235 <fat_allocate_clusters.isra.1+0xf5>
    11fd:	89 f0                	mov    %esi,%eax
    11ff:	89 fa                	mov    %edi,%edx
    1201:	83 c0 01             	add    $0x1,%eax
    1204:	89 4d d4             	mov    %ecx,-0x2c(%ebp)
    1207:	83 d2 00             	adc    $0x0,%edx
    120a:	83 ec 0c             	sub    $0xc,%esp
    120d:	89 55 dc             	mov    %edx,-0x24(%ebp)
    1210:	89 45 d8             	mov    %eax,-0x28(%ebp)
    1213:	51                   	push   %ecx
    1214:	6a 01                	push   $0x1
    1216:	57                   	push   %edi
    1217:	56                   	push   %esi
    1218:	53                   	push   %ebx
    1219:	e8 62 23 00 00       	call   3580 <block_write_direct>
    121e:	31 d2                	xor    %edx,%edx
    1220:	83 c4 20             	add    $0x20,%esp
    1223:	8b 4d d4             	mov    -0x2c(%ebp),%ecx
    1226:	85 c0                	test   %eax,%eax
    1228:	75 2f                	jne    1259 <fat_allocate_clusters.isra.1+0x119>
    122a:	8b 75 d8             	mov    -0x28(%ebp),%esi
    122d:	8b 7d dc             	mov    -0x24(%ebp),%edi
    1230:	e9 4d ff ff ff       	jmp    1182 <fat_allocate_clusters.isra.1+0x42>
    1235:	83 7d 08 01          	cmpl   $0x1,0x8(%ebp)
    1239:	75 07                	jne    1242 <fat_allocate_clusters.isra.1+0x102>
    123b:	c7 04 91 ff ff ff ff 	movl   $0xffffffff,(%ecx,%edx,4)
    1242:	83 ec 0c             	sub    $0xc,%esp
    1245:	89 4d e4             	mov    %ecx,-0x1c(%ebp)
    1248:	51                   	push   %ecx
    1249:	6a 01                	push   $0x1
    124b:	57                   	push   %edi
    124c:	56                   	push   %esi
    124d:	53                   	push   %ebx
    124e:	e8 2d 23 00 00       	call   3580 <block_write_direct>
    1253:	83 c4 20             	add    $0x20,%esp
    1256:	8b 4d e4             	mov    -0x1c(%ebp),%ecx
    1259:	83 ec 0c             	sub    $0xc,%esp
    125c:	89 45 e4             	mov    %eax,-0x1c(%ebp)
    125f:	51                   	push   %ecx
    1260:	e8 4b 4c 00 00       	call   5eb0 <free@plt>
    1265:	83 c4 10             	add    $0x10,%esp
    1268:	8b 45 e4             	mov    -0x1c(%ebp),%eax
    126b:	eb 05                	jmp    1272 <fat_allocate_clusters.isra.1+0x132>
    126d:	b8 fe ff ff ff       	mov    $0xfffffffe,%eax
    1272:	8d 65 f4             	lea    -0xc(%ebp),%esp
    1275:	5b                   	pop    %ebx
    1276:	5e                   	pop    %esi
    1277:	5f                   	pop    %edi
    1278:	5d                   	pop    %ebp
    1279:	c3                   	ret    

0000127a <ebs_write.isra.2>:
    127a:	55                   	push   %ebp
    127b:	89 e5                	mov    %esp,%ebp
    127d:	57                   	push   %edi
    127e:	56                   	push   %esi
    127f:	53                   	push   %ebx
    1280:	83 ec 34             	sub    $0x34,%esp
    1283:	89 d6                	mov    %edx,%esi
    1285:	89 45 e4             	mov    %eax,-0x1c(%ebp)
    1288:	89 4d e0             	mov    %ecx,-0x20(%ebp)
    128b:	6a 01                	push   $0x1
    128d:	8b 7d 08             	mov    0x8(%ebp),%edi
    1290:	ff 32                	pushl  (%edx)
    1292:	e8 59 4b 00 00       	call   5df0 <calloc@plt>
    1297:	83 c4 10             	add    $0x10,%esp
    129a:	85 c0                	test   %eax,%eax
    129c:	0f 84 f3 00 00 00    	je     1395 <ebs_write.isra.2+0x11b>
    12a2:	89 c3                	mov    %eax,%ebx
    12a4:	8b 06                	mov    (%esi),%eax
    12a6:	83 e0 fc             	and    $0xfffffffc,%eax
    12a9:	c7 45 d4 08 00 00 00 	movl   $0x8,-0x2c(%ebp)
    12b0:	c7 44 03 fc 00 00 55 	movl   $0xaa550000,-0x4(%ebx,%eax,1)
    12b7:	aa 
    12b8:	8b 45 e0             	mov    -0x20(%ebp),%eax
    12bb:	99                   	cltd   
    12bc:	89 45 d8             	mov    %eax,-0x28(%ebp)
    12bf:	89 55 dc             	mov    %edx,-0x24(%ebp)
    12c2:	8b 16                	mov    (%esi),%edx
    12c4:	31 c9                	xor    %ecx,%ecx
    12c6:	39 ca                	cmp    %ecx,%edx
    12c8:	74 13                	je     12dd <ebs_write.isra.2+0x63>
    12ca:	8b 07                	mov    (%edi),%eax
    12cc:	d1 c8                	ror    %eax
    12ce:	89 45 d0             	mov    %eax,-0x30(%ebp)
    12d1:	0f b6 04 0b          	movzbl (%ebx,%ecx,1),%eax
    12d5:	03 45 d0             	add    -0x30(%ebp),%eax
    12d8:	41                   	inc    %ecx
    12d9:	89 07                	mov    %eax,(%edi)
    12db:	eb e9                	jmp    12c6 <ebs_write.isra.2+0x4c>
    12dd:	83 ec 0c             	sub    $0xc,%esp
    12e0:	53                   	push   %ebx
    12e1:	6a 01                	push   $0x1
    12e3:	ff 75 dc             	pushl  -0x24(%ebp)
    12e6:	ff 75 d8             	pushl  -0x28(%ebp)
    12e9:	ff 75 e4             	pushl  -0x1c(%ebp)
    12ec:	e8 8f 22 00 00       	call   3580 <block_write_direct>
    12f1:	83 c4 20             	add    $0x20,%esp
    12f4:	85 c0                	test   %eax,%eax
    12f6:	0f 85 85 00 00 00    	jne    1381 <ebs_write.isra.2+0x107>
    12fc:	83 45 d8 01          	addl   $0x1,-0x28(%ebp)
    1300:	83 55 dc 00          	adcl   $0x0,-0x24(%ebp)
    1304:	ff 4d d4             	decl   -0x2c(%ebp)
    1307:	75 b9                	jne    12c2 <ebs_write.isra.2+0x48>
    1309:	50                   	push   %eax
    130a:	ff 36                	pushl  (%esi)
    130c:	6a 00                	push   $0x0
    130e:	53                   	push   %ebx
    130f:	e8 2c 4b 00 00       	call   5e40 <memset@plt>
    1314:	8b 16                	mov    (%esi),%edx
    1316:	83 c4 10             	add    $0x10,%esp
    1319:	31 c9                	xor    %ecx,%ecx
    131b:	39 ca                	cmp    %ecx,%edx
    131d:	74 13                	je     1332 <ebs_write.isra.2+0xb8>
    131f:	8b 07                	mov    (%edi),%eax
    1321:	d1 c8                	ror    %eax
    1323:	89 45 d8             	mov    %eax,-0x28(%ebp)
    1326:	0f b6 04 0b          	movzbl (%ebx,%ecx,1),%eax
    132a:	03 45 d8             	add    -0x28(%ebp),%eax
    132d:	41                   	inc    %ecx
    132e:	89 07                	mov    %eax,(%edi)
    1330:	eb e9                	jmp    131b <ebs_write.isra.2+0xa1>
    1332:	8b 45 e0             	mov    -0x20(%ebp),%eax
    1335:	83 ec 0c             	sub    $0xc,%esp
    1338:	83 c0 08             	add    $0x8,%eax
    133b:	99                   	cltd   
    133c:	53                   	push   %ebx
    133d:	6a 01                	push   $0x1
    133f:	52                   	push   %edx
    1340:	50                   	push   %eax
    1341:	ff 75 e4             	pushl  -0x1c(%ebp)
    1344:	e8 37 22 00 00       	call   3580 <block_write_direct>
    1349:	83 c4 20             	add    $0x20,%esp
    134c:	85 c0                	test   %eax,%eax
    134e:	75 31                	jne    1381 <ebs_write.isra.2+0x107>
    1350:	8b 36                	mov    (%esi),%esi
    1352:	31 c9                	xor    %ecx,%ecx
    1354:	39 ce                	cmp    %ecx,%esi
    1356:	74 0f                	je     1367 <ebs_write.isra.2+0xed>
    1358:	8b 07                	mov    (%edi),%eax
    135a:	0f b6 14 0b          	movzbl (%ebx,%ecx,1),%edx
    135e:	d1 c8                	ror    %eax
    1360:	41                   	inc    %ecx
    1361:	01 d0                	add    %edx,%eax
    1363:	89 07                	mov    %eax,(%edi)
    1365:	eb ed                	jmp    1354 <ebs_write.isra.2+0xda>
    1367:	8b 45 e0             	mov    -0x20(%ebp),%eax
    136a:	83 ec 0c             	sub    $0xc,%esp
    136d:	83 c0 09             	add    $0x9,%eax
    1370:	99                   	cltd   
    1371:	53                   	push   %ebx
    1372:	6a 01                	push   $0x1
    1374:	52                   	push   %edx
    1375:	50                   	push   %eax
    1376:	ff 75 e4             	pushl  -0x1c(%ebp)
    1379:	e8 02 22 00 00       	call   3580 <block_write_direct>
    137e:	83 c4 20             	add    $0x20,%esp
    1381:	83 ec 0c             	sub    $0xc,%esp
    1384:	89 45 e4             	mov    %eax,-0x1c(%ebp)
    1387:	53                   	push   %ebx
    1388:	e8 23 4b 00 00       	call   5eb0 <free@plt>
    138d:	83 c4 10             	add    $0x10,%esp
    1390:	8b 45 e4             	mov    -0x1c(%ebp),%eax
    1393:	eb 05                	jmp    139a <ebs_write.isra.2+0x120>
    1395:	b8 fe ff ff ff       	mov    $0xfffffffe,%eax
    139a:	8d 65 f4             	lea    -0xc(%ebp),%esp
    139d:	5b                   	pop    %ebx
    139e:	5e                   	pop    %esi
    139f:	5f                   	pop    %edi
    13a0:	5d                   	pop    %ebp
    13a1:	c3                   	ret    
    13a2:	66 90                	xchg   %ax,%ax
    13a4:	66 90                	xchg   %ax,%ax
    13a6:	66 90                	xchg   %ax,%ax
    13a8:	66 90                	xchg   %ax,%ax
    13aa:	66 90                	xchg   %ax,%ax
    13ac:	66 90                	xchg   %ax,%ax
    13ae:	66 90                	xchg   %ax,%ax

000013b0 <main>:
    13b0:	8d 4c 24 04          	lea    0x4(%esp),%ecx
    13b4:	83 e4 f0             	and    $0xfffffff0,%esp
    13b7:	ff 71 fc             	pushl  -0x4(%ecx)
    13ba:	55                   	push   %ebp
    13bb:	89 e5                	mov    %esp,%ebp
    13bd:	57                   	push   %edi
    13be:	56                   	push   %esi
    13bf:	53                   	push   %ebx
    13c0:	51                   	push   %ecx
    13c1:	81 ec 88 02 00 00    	sub    $0x288,%esp
    13c7:	8b 19                	mov    (%ecx),%ebx
    13c9:	8b 71 04             	mov    0x4(%ecx),%esi
    13cc:	83 fb 01             	cmp    $0x1,%ebx
    13cf:	0f 8e 57 01 00 00    	jle    152c <main+0x17c>
    13d5:	c7 85 e4 fd ff ff 00 	movl   $0x0,-0x21c(%ebp)
    13dc:	00 00 00 
    13df:	c7 05 84 76 00 00 00 	movl   $0x0,0x7684
    13e6:	00 00 00 
    13e9:	c7 85 a8 fd ff ff 00 	movl   $0x0,-0x258(%ebp)
    13f0:	00 00 00 
    13f3:	c7 85 90 fd ff ff 00 	movl   $0x0,-0x270(%ebp)
    13fa:	00 00 00 
    13fd:	c7 85 94 fd ff ff 00 	movl   $0x0,-0x26c(%ebp)
    1404:	00 00 00 
    1407:	8d bd a8 fd ff ff    	lea    -0x258(%ebp),%edi
    140d:	83 ec 0c             	sub    $0xc,%esp
    1410:	57                   	push   %edi
    1411:	68 00 43 00 00       	push   $0x4300
    1416:	68 4e 3b 00 00       	push   $0x3b4e
    141b:	56                   	push   %esi
    141c:	53                   	push   %ebx
    141d:	e8 ae 48 00 00       	call   5cd0 <getopt_long@plt>
    1422:	83 c4 20             	add    $0x20,%esp
    1425:	83 f8 68             	cmp    $0x68,%eax
    1428:	0f 84 8a 00 00 00    	je     14b8 <main+0x108>
    142e:	83 f8 73             	cmp    $0x73,%eax
    1431:	74 5d                	je     1490 <main+0xe0>
    1433:	83 f8 63             	cmp    $0x63,%eax
    1436:	0f 84 9c 00 00 00    	je     14d8 <main+0x128>
    143c:	40                   	inc    %eax
    143d:	75 ce                	jne    140d <main+0x5d>
    143f:	a1 84 76 00 00       	mov    0x7684,%eax
    1444:	8b 1c 86             	mov    (%esi,%eax,4),%ebx
    1447:	85 db                	test   %ebx,%ebx
    1449:	0f 84 6a 01 00 00    	je     15b9 <main+0x209>
    144f:	52                   	push   %edx
    1450:	52                   	push   %edx
    1451:	53                   	push   %ebx
    1452:	68 54 3b 00 00       	push   $0x3b54
    1457:	e8 54 48 00 00       	call   5cb0 <printf@plt>
    145c:	83 c4 0c             	add    $0xc,%esp
    145f:	8d 85 a4 fd ff ff    	lea    -0x25c(%ebp),%eax
    1465:	6a 00                	push   $0x0
    1467:	50                   	push   %eax
    1468:	53                   	push   %ebx
    1469:	e8 02 49 00 00       	call   5d70 <loc_service_get_id@plt>
    146e:	83 c4 10             	add    $0x10,%esp
    1471:	85 c0                	test   %eax,%eax
    1473:	0f 84 d9 00 00 00    	je     1552 <main+0x1a2>
    1479:	50                   	push   %eax
    147a:	50                   	push   %eax
    147b:	53                   	push   %ebx
    147c:	68 78 3e 00 00       	push   $0x3e78
    1481:	bb 02 00 00 00       	mov    $0x2,%ebx
    1486:	e8 25 48 00 00       	call   5cb0 <printf@plt>
    148b:	83 c4 10             	add    $0x10,%esp
    148e:	eb 3a                	jmp    14ca <main+0x11a>
    1490:	50                   	push   %eax
    1491:	a1 80 76 00 00       	mov    0x7680,%eax
    1496:	6a 0a                	push   $0xa
    1498:	6a 00                	push   $0x0
    149a:	50                   	push   %eax
    149b:	e8 20 49 00 00       	call   5dc0 <strtol@plt>
    14a0:	89 85 90 fd ff ff    	mov    %eax,-0x270(%ebp)
    14a6:	83 c4 10             	add    $0x10,%esp
    14a9:	c1 f8 1f             	sar    $0x1f,%eax
    14ac:	89 85 94 fd ff ff    	mov    %eax,-0x26c(%ebp)
    14b2:	e9 56 ff ff ff       	jmp    140d <main+0x5d>
    14b7:	90                   	nop
    14b8:	83 ec 0c             	sub    $0xc,%esp
    14bb:	31 db                	xor    %ebx,%ebx
    14bd:	68 f0 3c 00 00       	push   $0x3cf0
    14c2:	e8 e9 47 00 00       	call   5cb0 <printf@plt>
    14c7:	83 c4 10             	add    $0x10,%esp
    14ca:	8d 65 f0             	lea    -0x10(%ebp),%esp
    14cd:	89 d8                	mov    %ebx,%eax
    14cf:	59                   	pop    %ecx
    14d0:	5b                   	pop    %ebx
    14d1:	5e                   	pop    %esi
    14d2:	5f                   	pop    %edi
    14d3:	5d                   	pop    %ebp
    14d4:	8d 61 fc             	lea    -0x4(%ecx),%esp
    14d7:	c3                   	ret    
    14d8:	a1 80 76 00 00       	mov    0x7680,%eax
    14dd:	51                   	push   %ecx
    14de:	6a 0a                	push   $0xa
    14e0:	6a 00                	push   $0x0
    14e2:	50                   	push   %eax
    14e3:	e8 d8 48 00 00       	call   5dc0 <strtol@plt>
    14e8:	c1 e0 0a             	shl    $0xa,%eax
    14eb:	83 c4 10             	add    $0x10,%esp
    14ee:	89 85 e4 fd ff ff    	mov    %eax,-0x21c(%ebp)
    14f4:	3d ff 0f 00 00       	cmp    $0xfff,%eax
    14f9:	0f 86 86 00 00 00    	jbe    1585 <main+0x1d5>
    14ff:	3d 00 00 00 02       	cmp    $0x2000000,%eax
    1504:	0f 87 95 00 00 00    	ja     159f <main+0x1ef>
    150a:	8d 50 ff             	lea    -0x1(%eax),%edx
    150d:	85 c2                	test   %eax,%edx
    150f:	0f 84 f8 fe ff ff    	je     140d <main+0x5d>
    1515:	83 ec 0c             	sub    $0xc,%esp
    1518:	bb 01 00 00 00       	mov    $0x1,%ebx
    151d:	68 fc 3d 00 00       	push   $0x3dfc
    1522:	e8 89 47 00 00       	call   5cb0 <printf@plt>
    1527:	83 c4 10             	add    $0x10,%esp
    152a:	eb 9e                	jmp    14ca <main+0x11a>
    152c:	83 ec 0c             	sub    $0xc,%esp
    152f:	68 cc 3c 00 00       	push   $0x3ccc
    1534:	e8 77 47 00 00       	call   5cb0 <printf@plt>
    1539:	bb 01 00 00 00       	mov    $0x1,%ebx
    153e:	c7 04 24 f0 3c 00 00 	movl   $0x3cf0,(%esp)
    1545:	e8 66 47 00 00       	call   5cb0 <printf@plt>
    154a:	83 c4 10             	add    $0x10,%esp
    154d:	e9 78 ff ff ff       	jmp    14ca <main+0x11a>
    1552:	50                   	push   %eax
    1553:	50                   	push   %eax
    1554:	68 00 08 00 00       	push   $0x800
    1559:	ff b5 a4 fd ff ff    	pushl  -0x25c(%ebp)
    155f:	e8 4c 0d 00 00       	call   22b0 <block_init>
    1564:	83 c4 10             	add    $0x10,%esp
    1567:	85 c0                	test   %eax,%eax
    1569:	74 5b                	je     15c6 <main+0x216>
    156b:	83 ec 0c             	sub    $0xc,%esp
    156e:	bb 02 00 00 00       	mov    $0x2,%ebx
    1573:	68 a0 3e 00 00       	push   $0x3ea0
    1578:	e8 33 47 00 00       	call   5cb0 <printf@plt>
    157d:	83 c4 10             	add    $0x10,%esp
    1580:	e9 45 ff ff ff       	jmp    14ca <main+0x11a>
    1585:	83 ec 0c             	sub    $0xc,%esp
    1588:	bb 01 00 00 00       	mov    $0x1,%ebx
    158d:	68 84 3d 00 00       	push   $0x3d84
    1592:	e8 19 47 00 00       	call   5cb0 <printf@plt>
    1597:	83 c4 10             	add    $0x10,%esp
    159a:	e9 2b ff ff ff       	jmp    14ca <main+0x11a>
    159f:	83 ec 0c             	sub    $0xc,%esp
    15a2:	bb 01 00 00 00       	mov    $0x1,%ebx
    15a7:	68 c0 3d 00 00       	push   $0x3dc0
    15ac:	e8 ff 46 00 00       	call   5cb0 <printf@plt>
    15b1:	83 c4 10             	add    $0x10,%esp
    15b4:	e9 11 ff ff ff       	jmp    14ca <main+0x11a>
    15b9:	83 ec 0c             	sub    $0xc,%esp
    15bc:	68 40 3e 00 00       	push   $0x3e40
    15c1:	e9 6e ff ff ff       	jmp    1534 <main+0x184>
    15c6:	50                   	push   %eax
    15c7:	50                   	push   %eax
    15c8:	8d 85 e0 fd ff ff    	lea    -0x220(%ebp),%eax
    15ce:	50                   	push   %eax
    15cf:	ff b5 a4 fd ff ff    	pushl  -0x25c(%ebp)
    15d5:	e8 36 21 00 00       	call   3710 <block_get_bsize>
    15da:	83 c4 10             	add    $0x10,%esp
    15dd:	85 c0                	test   %eax,%eax
    15df:	75 4d                	jne    162e <main+0x27e>
    15e1:	8b 8d e0 fd ff ff    	mov    -0x220(%ebp),%ecx
    15e7:	8b 95 94 fd ff ff    	mov    -0x26c(%ebp),%edx
    15ed:	8b 85 90 fd ff ff    	mov    -0x270(%ebp),%eax
    15f3:	89 d3                	mov    %edx,%ebx
    15f5:	f7 e1                	mul    %ecx
    15f7:	0f af d9             	imul   %ecx,%ebx
    15fa:	89 d7                	mov    %edx,%edi
    15fc:	89 c6                	mov    %eax,%esi
    15fe:	01 df                	add    %ebx,%edi
    1600:	83 c0 ff             	add    $0xffffffff,%eax
    1603:	89 fa                	mov    %edi,%edx
    1605:	83 d2 ff             	adc    $0xffffffff,%edx
    1608:	83 fa 00             	cmp    $0x0,%edx
    160b:	77 3b                	ja     1648 <main+0x298>
    160d:	3d fe ff 0f 00       	cmp    $0xffffe,%eax
    1612:	77 34                	ja     1648 <main+0x298>
    1614:	83 ec 0c             	sub    $0xc,%esp
    1617:	bb 01 00 00 00       	mov    $0x1,%ebx
    161c:	68 f8 3e 00 00       	push   $0x3ef8
    1621:	e8 8a 46 00 00       	call   5cb0 <printf@plt>
    1626:	83 c4 10             	add    $0x10,%esp
    1629:	e9 9c fe ff ff       	jmp    14ca <main+0x11a>
    162e:	83 ec 0c             	sub    $0xc,%esp
    1631:	bb 02 00 00 00       	mov    $0x2,%ebx
    1636:	68 c8 3e 00 00       	push   $0x3ec8
    163b:	e8 70 46 00 00       	call   5cb0 <printf@plt>
    1640:	83 c4 10             	add    $0x10,%esp
    1643:	e9 82 fe ff ff       	jmp    14ca <main+0x11a>
    1648:	81 f9 00 10 00 00    	cmp    $0x1000,%ecx
    164e:	76 1a                	jbe    166a <main+0x2ba>
    1650:	83 ec 0c             	sub    $0xc,%esp
    1653:	bb 02 00 00 00       	mov    $0x2,%ebx
    1658:	68 2c 3f 00 00       	push   $0x3f2c
    165d:	e8 4e 46 00 00       	call   5cb0 <printf@plt>
    1662:	83 c4 10             	add    $0x10,%esp
    1665:	e9 60 fe ff ff       	jmp    14ca <main+0x11a>
    166a:	50                   	push   %eax
    166b:	50                   	push   %eax
    166c:	8d 85 b8 fd ff ff    	lea    -0x248(%ebp),%eax
    1672:	50                   	push   %eax
    1673:	ff b5 a4 fd ff ff    	pushl  -0x25c(%ebp)
    1679:	e8 22 21 00 00       	call   37a0 <block_get_nblocks>
    167e:	83 c4 10             	add    $0x10,%esp
    1681:	85 c0                	test   %eax,%eax
    1683:	74 61                	je     16e6 <main+0x336>
    1685:	83 ec 0c             	sub    $0xc,%esp
    1688:	68 6c 3f 00 00       	push   $0x3f6c
    168d:	e8 1e 46 00 00       	call   5cb0 <printf@plt>
    1692:	89 f8                	mov    %edi,%eax
    1694:	83 c4 10             	add    $0x10,%esp
    1697:	09 f0                	or     %esi,%eax
    1699:	0f 84 fc 03 00 00    	je     1a9b <main+0x6eb>
    169f:	8b 8d e0 fd ff ff    	mov    -0x220(%ebp),%ecx
    16a5:	8b 85 bc fd ff ff    	mov    -0x244(%ebp),%eax
    16ab:	0f af c1             	imul   %ecx,%eax
    16ae:	89 85 90 fd ff ff    	mov    %eax,-0x270(%ebp)
    16b4:	89 c8                	mov    %ecx,%eax
    16b6:	f7 a5 b8 fd ff ff    	mull   -0x248(%ebp)
    16bc:	03 95 90 fd ff ff    	add    -0x270(%ebp),%edx
    16c2:	31 db                	xor    %ebx,%ebx
    16c4:	39 d7                	cmp    %edx,%edi
    16c6:	0f 86 82 03 00 00    	jbe    1a4e <main+0x69e>
    16cc:	83 ec 0c             	sub    $0xc,%esp
    16cf:	bb 01 00 00 00       	mov    $0x1,%ebx
    16d4:	68 f4 3f 00 00       	push   $0x3ff4
    16d9:	e8 d2 45 00 00       	call   5cb0 <printf@plt>
    16de:	83 c4 10             	add    $0x10,%esp
    16e1:	e9 e4 fd ff ff       	jmp    14ca <main+0x11a>
    16e6:	50                   	push   %eax
    16e7:	ff b5 bc fd ff ff    	pushl  -0x244(%ebp)
    16ed:	ff b5 b8 fd ff ff    	pushl  -0x248(%ebp)
    16f3:	68 d4 3f 00 00       	push   $0x3fd4
    16f8:	e8 b3 45 00 00       	call   5cb0 <printf@plt>
    16fd:	89 f8                	mov    %edi,%eax
    16ff:	83 c4 10             	add    $0x10,%esp
    1702:	09 f0                	or     %esi,%eax
    1704:	75 99                	jne    169f <main+0x2ef>
    1706:	8b b5 b8 fd ff ff    	mov    -0x248(%ebp),%esi
    170c:	8b 9d e0 fd ff ff    	mov    -0x220(%ebp),%ebx
    1712:	83 c6 80             	add    $0xffffff80,%esi
    1715:	8b bd bc fd ff ff    	mov    -0x244(%ebp),%edi
    171b:	89 f0                	mov    %esi,%eax
    171d:	89 d9                	mov    %ebx,%ecx
    171f:	83 d7 ff             	adc    $0xffffffff,%edi
    1722:	89 9d 90 fd ff ff    	mov    %ebx,-0x270(%ebp)
    1728:	f7 e3                	mul    %ebx
    172a:	0f af cf             	imul   %edi,%ecx
    172d:	8b 9d e4 fd ff ff    	mov    -0x21c(%ebp),%ebx
    1733:	89 d7                	mov    %edx,%edi
    1735:	01 cf                	add    %ecx,%edi
    1737:	89 c6                	mov    %eax,%esi
    1739:	85 db                	test   %ebx,%ebx
    173b:	0f 84 b1 01 00 00    	je     18f2 <main+0x542>
    1741:	31 d2                	xor    %edx,%edx
    1743:	52                   	push   %edx
    1744:	53                   	push   %ebx
    1745:	57                   	push   %edi
    1746:	56                   	push   %esi
    1747:	e8 54 46 00 00       	call   5da0 <__udivdi3@plt>
    174c:	83 c4 10             	add    $0x10,%esp
    174f:	89 85 d4 fd ff ff    	mov    %eax,-0x22c(%ebp)
    1755:	8b b5 90 fd ff ff    	mov    -0x270(%ebp),%esi
    175b:	8b bd d4 fd ff ff    	mov    -0x22c(%ebp),%edi
    1761:	31 d2                	xor    %edx,%edx
    1763:	8d 44 be 0b          	lea    0xb(%esi,%edi,4),%eax
    1767:	f7 f6                	div    %esi
    1769:	89 85 c0 fd ff ff    	mov    %eax,-0x240(%ebp)
    176f:	31 d2                	xor    %edx,%edx
    1771:	8d 88 80 00 00 00    	lea    0x80(%eax),%ecx
    1777:	89 d8                	mov    %ebx,%eax
    1779:	f7 f6                	div    %esi
    177b:	89 c6                	mov    %eax,%esi
    177d:	31 d2                	xor    %edx,%edx
    177f:	89 c8                	mov    %ecx,%eax
    1781:	8d 4b ff             	lea    -0x1(%ebx),%ecx
    1784:	f7 f6                	div    %esi
    1786:	85 d2                	test   %edx,%edx
    1788:	0f 95 c2             	setne  %dl
    178b:	81 e2 ff 00 00 00    	and    $0xff,%edx
    1791:	01 d0                	add    %edx,%eax
    1793:	31 d2                	xor    %edx,%edx
    1795:	0f af f0             	imul   %eax,%esi
    1798:	89 b5 c4 fd ff ff    	mov    %esi,-0x23c(%ebp)
    179e:	8d 46 80             	lea    -0x80(%esi),%eax
    17a1:	31 f6                	xor    %esi,%esi
    17a3:	0f af 85 90 fd ff ff 	imul   -0x270(%ebp),%eax
    17aa:	01 c8                	add    %ecx,%eax
    17ac:	f7 f3                	div    %ebx
    17ae:	39 c7                	cmp    %eax,%edi
    17b0:	76 5f                	jbe    1811 <main+0x461>
    17b2:	29 c7                	sub    %eax,%edi
    17b4:	31 d2                	xor    %edx,%edx
    17b6:	89 fe                	mov    %edi,%esi
    17b8:	8d 83 cb 16 00 00    	lea    0x16cb(%ebx),%eax
    17be:	8d 7f 07             	lea    0x7(%edi),%edi
    17c1:	c7 85 c8 fd ff ff 00 	movl   $0x0,-0x238(%ebp)
    17c8:	00 00 00 
    17cb:	c1 ef 03             	shr    $0x3,%edi
    17ce:	c7 85 d0 fd ff ff 02 	movl   $0x2,-0x230(%ebp)
    17d5:	00 00 00 
    17d8:	f7 f3                	div    %ebx
    17da:	89 85 88 fd ff ff    	mov    %eax,-0x278(%ebp)
    17e0:	31 d2                	xor    %edx,%edx
    17e2:	8d 04 0f             	lea    (%edi,%ecx,1),%eax
    17e5:	89 bd dc fd ff ff    	mov    %edi,-0x224(%ebp)
    17eb:	f7 f3                	div    %ebx
    17ed:	8b 95 88 fd ff ff    	mov    -0x278(%ebp),%edx
    17f3:	c7 85 b0 fd ff ff 00 	movl   $0x0,-0x250(%ebp)
    17fa:	00 00 00 
    17fd:	c7 85 b4 fd ff ff 00 	movl   $0x0,-0x24c(%ebp)
    1804:	00 00 00 
    1807:	8d 44 02 01          	lea    0x1(%edx,%eax,1),%eax
    180b:	89 85 d8 fd ff ff    	mov    %eax,-0x228(%ebp)
    1811:	53                   	push   %ebx
    1812:	53                   	push   %ebx
    1813:	ff b5 90 fd ff ff    	pushl  -0x270(%ebp)
    1819:	89 b5 d4 fd ff ff    	mov    %esi,-0x22c(%ebp)
    181f:	68 61 3b 00 00       	push   $0x3b61
    1824:	e8 87 44 00 00       	call   5cb0 <printf@plt>
    1829:	5e                   	pop    %esi
    182a:	5f                   	pop    %edi
    182b:	ff b5 e4 fd ff ff    	pushl  -0x21c(%ebp)
    1831:	68 7d 3b 00 00       	push   $0x3b7d
    1836:	e8 75 44 00 00       	call   5cb0 <printf@plt>
    183b:	58                   	pop    %eax
    183c:	5a                   	pop    %edx
    183d:	ff b5 c0 fd ff ff    	pushl  -0x240(%ebp)
    1843:	68 99 3b 00 00       	push   $0x3b99
    1848:	e8 63 44 00 00       	call   5cb0 <printf@plt>
    184d:	59                   	pop    %ecx
    184e:	5b                   	pop    %ebx
    184f:	ff b5 c4 fd ff ff    	pushl  -0x23c(%ebp)
    1855:	68 b5 3b 00 00       	push   $0x3bb5
    185a:	e8 51 44 00 00       	call   5cb0 <printf@plt>
    185f:	5e                   	pop    %esi
    1860:	5f                   	pop    %edi
    1861:	ff b5 d4 fd ff ff    	pushl  -0x22c(%ebp)
    1867:	68 d1 3b 00 00       	push   $0x3bd1
    186c:	e8 3f 44 00 00       	call   5cb0 <printf@plt>
    1871:	58                   	pop    %eax
    1872:	5a                   	pop    %edx
    1873:	ff b5 d8 fd ff ff    	pushl  -0x228(%ebp)
    1879:	68 ed 3b 00 00       	push   $0x3bed
    187e:	e8 2d 44 00 00       	call   5cb0 <printf@plt>
    1883:	8b 8d e4 fd ff ff    	mov    -0x21c(%ebp),%ecx
    1889:	8b 85 dc fd ff ff    	mov    -0x224(%ebp),%eax
    188f:	01 c8                	add    %ecx,%eax
    1891:	31 d2                	xor    %edx,%edx
    1893:	48                   	dec    %eax
    1894:	5b                   	pop    %ebx
    1895:	f7 f1                	div    %ecx
    1897:	5e                   	pop    %esi
    1898:	50                   	push   %eax
    1899:	68 09 3c 00 00       	push   $0x3c09
    189e:	e8 0d 44 00 00       	call   5cb0 <printf@plt>
    18a3:	8b 8d e4 fd ff ff    	mov    -0x21c(%ebp),%ecx
    18a9:	5f                   	pop    %edi
    18aa:	31 d2                	xor    %edx,%edx
    18ac:	58                   	pop    %eax
    18ad:	8d 81 cb 16 00 00    	lea    0x16cb(%ecx),%eax
    18b3:	f7 f1                	div    %ecx
    18b5:	50                   	push   %eax
    18b6:	68 25 3c 00 00       	push   $0x3c25
    18bb:	e8 f0 43 00 00       	call   5cb0 <printf@plt>
    18c0:	8b 85 d8 fd ff ff    	mov    -0x228(%ebp),%eax
    18c6:	83 c0 02             	add    $0x2,%eax
    18c9:	83 c4 10             	add    $0x10,%esp
    18cc:	39 85 d4 fd ff ff    	cmp    %eax,-0x22c(%ebp)
    18d2:	0f 87 83 00 00 00    	ja     195b <main+0x5ab>
    18d8:	83 ec 0c             	sub    $0xc,%esp
    18db:	bb 02 00 00 00       	mov    $0x2,%ebx
    18e0:	68 50 40 00 00       	push   $0x4050
    18e5:	e8 c6 43 00 00       	call   5cb0 <printf@plt>
    18ea:	83 c4 10             	add    $0x10,%esp
    18ed:	e9 d8 fb ff ff       	jmp    14ca <main+0x11a>
    18f2:	89 c1                	mov    %eax,%ecx
    18f4:	89 fb                	mov    %edi,%ebx
    18f6:	0f ac d9 0c          	shrd   $0xc,%ebx,%ecx
    18fa:	89 c8                	mov    %ecx,%eax
    18fc:	89 8d d4 fd ff ff    	mov    %ecx,-0x22c(%ebp)
    1902:	b9 00 10 00 00       	mov    $0x1000,%ecx
    1907:	c7 85 e4 fd ff ff 00 	movl   $0x1000,-0x21c(%ebp)
    190e:	10 00 00 
    1911:	31 d2                	xor    %edx,%edx
    1913:	89 cb                	mov    %ecx,%ebx
    1915:	eb 1a                	jmp    1931 <main+0x581>
    1917:	81 fb ff ff ff 01    	cmp    $0x1ffffff,%ebx
    191d:	77 19                	ja     1938 <main+0x588>
    191f:	31 d2                	xor    %edx,%edx
    1921:	01 db                	add    %ebx,%ebx
    1923:	52                   	push   %edx
    1924:	53                   	push   %ebx
    1925:	57                   	push   %edi
    1926:	56                   	push   %esi
    1927:	e8 74 44 00 00       	call   5da0 <__udivdi3@plt>
    192c:	83 c4 10             	add    $0x10,%esp
    192f:	b2 01                	mov    $0x1,%dl
    1931:	3d 00 24 f4 00       	cmp    $0xf42400,%eax
    1936:	77 df                	ja     1917 <main+0x567>
    1938:	89 d9                	mov    %ebx,%ecx
    193a:	84 d2                	test   %dl,%dl
    193c:	8b 9d e4 fd ff ff    	mov    -0x21c(%ebp),%ebx
    1942:	0f 84 0d fe ff ff    	je     1755 <main+0x3a5>
    1948:	89 8d e4 fd ff ff    	mov    %ecx,-0x21c(%ebp)
    194e:	89 85 d4 fd ff ff    	mov    %eax,-0x22c(%ebp)
    1954:	89 cb                	mov    %ecx,%ebx
    1956:	e9 fa fd ff ff       	jmp    1755 <main+0x3a5>
    195b:	83 ec 0c             	sub    $0xc,%esp
    195e:	68 84 40 00 00       	push   $0x4084
    1963:	e8 48 43 00 00       	call   5cb0 <printf@plt>
    1968:	5a                   	pop    %edx
    1969:	59                   	pop    %ecx
    196a:	6a 01                	push   $0x1
    196c:	8b b5 a4 fd ff ff    	mov    -0x25c(%ebp),%esi
    1972:	ff b5 e0 fd ff ff    	pushl  -0x220(%ebp)
    1978:	e8 73 44 00 00       	call   5df0 <calloc@plt>
    197d:	83 c4 10             	add    $0x10,%esp
    1980:	89 c3                	mov    %eax,%ebx
    1982:	85 c0                	test   %eax,%eax
    1984:	0f 84 f7 00 00 00    	je     1a81 <main+0x6d1>
    198a:	83 ec 0c             	sub    $0xc,%esp
    198d:	c7 00 f8 ff ff ff    	movl   $0xfffffff8,(%eax)
    1993:	c7 40 04 ff ff ff ff 	movl   $0xffffffff,0x4(%eax)
    199a:	50                   	push   %eax
    199b:	6a 01                	push   $0x1
    199d:	6a 00                	push   $0x0
    199f:	68 80 00 00 00       	push   $0x80
    19a4:	56                   	push   %esi
    19a5:	e8 d6 1b 00 00       	call   3580 <block_write_direct>
    19aa:	83 c4 20             	add    $0x20,%esp
    19ad:	85 c0                	test   %eax,%eax
    19af:	0f 85 c0 00 00 00    	jne    1a75 <main+0x6c5>
    19b5:	c7 43 04 00 00 00 00 	movl   $0x0,0x4(%ebx)
    19bc:	c7 03 00 00 00 00    	movl   $0x0,(%ebx)
    19c2:	bf 01 00 00 00       	mov    $0x1,%edi
    19c7:	eb 22                	jmp    19eb <main+0x63b>
    19c9:	83 ec 0c             	sub    $0xc,%esp
    19cc:	31 d2                	xor    %edx,%edx
    19ce:	8d 87 80 00 00 00    	lea    0x80(%edi),%eax
    19d4:	53                   	push   %ebx
    19d5:	6a 01                	push   $0x1
    19d7:	52                   	push   %edx
    19d8:	50                   	push   %eax
    19d9:	56                   	push   %esi
    19da:	e8 a1 1b 00 00       	call   3580 <block_write_direct>
    19df:	83 c4 20             	add    $0x20,%esp
    19e2:	85 c0                	test   %eax,%eax
    19e4:	0f 85 8b 00 00 00    	jne    1a75 <main+0x6c5>
    19ea:	47                   	inc    %edi
    19eb:	3b bd c0 fd ff ff    	cmp    -0x240(%ebp),%edi
    19f1:	72 d6                	jb     19c9 <main+0x619>
    19f3:	83 ec 0c             	sub    $0xc,%esp
    19f6:	53                   	push   %ebx
    19f7:	e8 b4 44 00 00       	call   5eb0 <free@plt>
    19fc:	8b 8d e4 fd ff ff    	mov    -0x21c(%ebp),%ecx
    1a02:	8b 85 dc fd ff ff    	mov    -0x224(%ebp),%eax
    1a08:	01 c8                	add    %ecx,%eax
    1a0a:	31 d2                	xor    %edx,%edx
    1a0c:	48                   	dec    %eax
    1a0d:	f7 f1                	div    %ecx
    1a0f:	89 04 24             	mov    %eax,(%esp)
    1a12:	8b 8d d0 fd ff ff    	mov    -0x230(%ebp),%ecx
    1a18:	8b 95 e0 fd ff ff    	mov    -0x220(%ebp),%edx
    1a1e:	8b 85 a4 fd ff ff    	mov    -0x25c(%ebp),%eax
    1a24:	e8 17 f7 ff ff       	call   1140 <fat_allocate_clusters.isra.1>
    1a29:	83 c4 10             	add    $0x10,%esp
    1a2c:	85 c0                	test   %eax,%eax
    1a2e:	0f 84 81 00 00 00    	je     1ab5 <main+0x705>
    1a34:	83 ec 0c             	sub    $0xc,%esp
    1a37:	bb 02 00 00 00       	mov    $0x2,%ebx
    1a3c:	68 d8 40 00 00       	push   $0x40d8
    1a41:	e8 6a 42 00 00       	call   5cb0 <printf@plt>
    1a46:	83 c4 10             	add    $0x10,%esp
    1a49:	e9 7c fa ff ff       	jmp    14ca <main+0x11a>
    1a4e:	72 08                	jb     1a58 <main+0x6a8>
    1a50:	39 c6                	cmp    %eax,%esi
    1a52:	0f 87 74 fc ff ff    	ja     16cc <main+0x31c>
    1a58:	53                   	push   %ebx
    1a59:	51                   	push   %ecx
    1a5a:	57                   	push   %edi
    1a5b:	56                   	push   %esi
    1a5c:	e8 3f 43 00 00       	call   5da0 <__udivdi3@plt>
    1a61:	83 c4 10             	add    $0x10,%esp
    1a64:	89 85 b8 fd ff ff    	mov    %eax,-0x248(%ebp)
    1a6a:	89 95 bc fd ff ff    	mov    %edx,-0x244(%ebp)
    1a70:	e9 91 fc ff ff       	jmp    1706 <main+0x356>
    1a75:	83 ec 0c             	sub    $0xc,%esp
    1a78:	53                   	push   %ebx
    1a79:	e8 32 44 00 00       	call   5eb0 <free@plt>
    1a7e:	83 c4 10             	add    $0x10,%esp
    1a81:	83 ec 0c             	sub    $0xc,%esp
    1a84:	bb 02 00 00 00       	mov    $0x2,%ebx
    1a89:	68 a4 40 00 00       	push   $0x40a4
    1a8e:	e8 1d 42 00 00       	call   5cb0 <printf@plt>
    1a93:	83 c4 10             	add    $0x10,%esp
    1a96:	e9 2f fa ff ff       	jmp    14ca <main+0x11a>
    1a9b:	83 ec 0c             	sub    $0xc,%esp
    1a9e:	bb 01 00 00 00       	mov    $0x1,%ebx
    1aa3:	68 a4 3f 00 00       	push   $0x3fa4
    1aa8:	e8 03 42 00 00       	call   5cb0 <printf@plt>
    1aad:	83 c4 10             	add    $0x10,%esp
    1ab0:	e9 15 fa ff ff       	jmp    14ca <main+0x11a>
    1ab5:	8b 8d e4 fd ff ff    	mov    -0x21c(%ebp),%ecx
    1abb:	8b 85 dc fd ff ff    	mov    -0x224(%ebp),%eax
    1ac1:	01 c8                	add    %ecx,%eax
    1ac3:	31 d2                	xor    %edx,%edx
    1ac5:	48                   	dec    %eax
    1ac6:	83 ec 0c             	sub    $0xc,%esp
    1ac9:	f7 f1                	div    %ecx
    1acb:	03 85 d0 fd ff ff    	add    -0x230(%ebp),%eax
    1ad1:	31 d2                	xor    %edx,%edx
    1ad3:	89 c3                	mov    %eax,%ebx
    1ad5:	89 85 cc fd ff ff    	mov    %eax,-0x234(%ebp)
    1adb:	8d 81 cb 16 00 00    	lea    0x16cb(%ecx),%eax
    1ae1:	f7 f1                	div    %ecx
    1ae3:	50                   	push   %eax
    1ae4:	89 d9                	mov    %ebx,%ecx
    1ae6:	8b 95 e0 fd ff ff    	mov    -0x220(%ebp),%edx
    1aec:	8b 85 a4 fd ff ff    	mov    -0x25c(%ebp),%eax
    1af2:	e8 49 f6 ff ff       	call   1140 <fat_allocate_clusters.isra.1>
    1af7:	83 c4 10             	add    $0x10,%esp
    1afa:	85 c0                	test   %eax,%eax
    1afc:	74 1a                	je     1b18 <main+0x768>
    1afe:	83 ec 0c             	sub    $0xc,%esp
    1b01:	bb 02 00 00 00       	mov    $0x2,%ebx
    1b06:	68 14 41 00 00       	push   $0x4114
    1b0b:	e8 a0 41 00 00       	call   5cb0 <printf@plt>
    1b10:	83 c4 10             	add    $0x10,%esp
    1b13:	e9 b2 f9 ff ff       	jmp    14ca <main+0x11a>
    1b18:	8b 8d e4 fd ff ff    	mov    -0x21c(%ebp),%ecx
    1b1e:	31 d2                	xor    %edx,%edx
    1b20:	83 ec 0c             	sub    $0xc,%esp
    1b23:	8d 81 cb 16 00 00    	lea    0x16cb(%ecx),%eax
    1b29:	f7 f1                	div    %ecx
    1b2b:	8b 95 e0 fd ff ff    	mov    -0x220(%ebp),%edx
    1b31:	6a 01                	push   $0x1
    1b33:	8d 0c 18             	lea    (%eax,%ebx,1),%ecx
    1b36:	8b 85 a4 fd ff ff    	mov    -0x25c(%ebp),%eax
    1b3c:	89 8d c8 fd ff ff    	mov    %ecx,-0x238(%ebp)
    1b42:	e8 f9 f5 ff ff       	call   1140 <fat_allocate_clusters.isra.1>
    1b47:	83 c4 10             	add    $0x10,%esp
    1b4a:	85 c0                	test   %eax,%eax
    1b4c:	74 1a                	je     1b68 <main+0x7b8>
    1b4e:	83 ec 0c             	sub    $0xc,%esp
    1b51:	bb 02 00 00 00       	mov    $0x2,%ebx
    1b56:	68 58 41 00 00       	push   $0x4158
    1b5b:	e8 50 41 00 00       	call   5cb0 <printf@plt>
    1b60:	83 c4 10             	add    $0x10,%esp
    1b63:	e9 62 f9 ff ff       	jmp    14ca <main+0x11a>
    1b68:	83 ec 0c             	sub    $0xc,%esp
    1b6b:	68 9c 41 00 00       	push   $0x419c
    1b70:	e8 3b 41 00 00       	call   5cb0 <printf@plt>
    1b75:	8b 85 a4 fd ff ff    	mov    -0x25c(%ebp),%eax
    1b7b:	8b 8d e0 fd ff ff    	mov    -0x220(%ebp),%ecx
    1b81:	89 85 88 fd ff ff    	mov    %eax,-0x278(%ebp)
    1b87:	8b 85 dc fd ff ff    	mov    -0x224(%ebp),%eax
    1b8d:	01 c8                	add    %ecx,%eax
    1b8f:	31 d2                	xor    %edx,%edx
    1b91:	48                   	dec    %eax
    1b92:	89 0c 24             	mov    %ecx,(%esp)
    1b95:	f7 f1                	div    %ecx
    1b97:	89 85 84 fd ff ff    	mov    %eax,-0x27c(%ebp)
    1b9d:	e8 ae 41 00 00       	call   5d50 <malloc@plt>
    1ba2:	83 c4 10             	add    $0x10,%esp
    1ba5:	89 c3                	mov    %eax,%ebx
    1ba7:	85 c0                	test   %eax,%eax
    1ba9:	0f 84 2f 02 00 00    	je     1dde <main+0xa2e>
    1baf:	8b bd d8 fd ff ff    	mov    -0x228(%ebp),%edi
    1bb5:	be 01 00 00 00       	mov    $0x1,%esi
    1bba:	c7 85 90 fd ff ff 00 	movl   $0x0,-0x270(%ebp)
    1bc1:	00 00 00 
    1bc4:	8b 95 90 fd ff ff    	mov    -0x270(%ebp),%edx
    1bca:	39 95 84 fd ff ff    	cmp    %edx,-0x27c(%ebp)
    1bd0:	0f 84 8f 00 00 00    	je     1c65 <main+0x8b5>
    1bd6:	89 f0                	mov    %esi,%eax
    1bd8:	84 c0                	test   %al,%al
    1bda:	74 12                	je     1bee <main+0x83e>
    1bdc:	50                   	push   %eax
    1bdd:	ff b5 e0 fd ff ff    	pushl  -0x220(%ebp)
    1be3:	6a 00                	push   $0x0
    1be5:	53                   	push   %ebx
    1be6:	e8 55 42 00 00       	call   5e40 <memset@plt>
    1beb:	83 c4 10             	add    $0x10,%esp
    1bee:	31 f6                	xor    %esi,%esi
    1bf0:	85 ff                	test   %edi,%edi
    1bf2:	74 3a                	je     1c2e <main+0x87e>
    1bf4:	8b b5 e0 fd ff ff    	mov    -0x220(%ebp),%esi
    1bfa:	31 c0                	xor    %eax,%eax
    1bfc:	89 b5 78 fd ff ff    	mov    %esi,-0x288(%ebp)
    1c02:	eb 11                	jmp    1c15 <main+0x865>
    1c04:	be 01 00 00 00       	mov    $0x1,%esi
    1c09:	40                   	inc    %eax
    1c0a:	d3 e6                	shl    %cl,%esi
    1c0c:	89 f1                	mov    %esi,%ecx
    1c0e:	08 0c 13             	or     %cl,(%ebx,%edx,1)
    1c11:	39 c7                	cmp    %eax,%edi
    1c13:	74 12                	je     1c27 <main+0x877>
    1c15:	89 c2                	mov    %eax,%edx
    1c17:	89 c1                	mov    %eax,%ecx
    1c19:	c1 ea 03             	shr    $0x3,%edx
    1c1c:	83 e1 07             	and    $0x7,%ecx
    1c1f:	3b 95 78 fd ff ff    	cmp    -0x288(%ebp),%edx
    1c25:	75 dd                	jne    1c04 <main+0x854>
    1c27:	29 c7                	sub    %eax,%edi
    1c29:	be 01 00 00 00       	mov    $0x1,%esi
    1c2e:	8b 85 90 fd ff ff    	mov    -0x270(%ebp),%eax
    1c34:	83 ec 0c             	sub    $0xc,%esp
    1c37:	03 85 c4 fd ff ff    	add    -0x23c(%ebp),%eax
    1c3d:	31 d2                	xor    %edx,%edx
    1c3f:	53                   	push   %ebx
    1c40:	6a 01                	push   $0x1
    1c42:	52                   	push   %edx
    1c43:	50                   	push   %eax
    1c44:	ff b5 88 fd ff ff    	pushl  -0x278(%ebp)
    1c4a:	e8 31 19 00 00       	call   3580 <block_write_direct>
    1c4f:	83 c4 20             	add    $0x20,%esp
    1c52:	85 c0                	test   %eax,%eax
    1c54:	0f 85 78 01 00 00    	jne    1dd2 <main+0xa22>
    1c5a:	ff 85 90 fd ff ff    	incl   -0x270(%ebp)
    1c60:	e9 5f ff ff ff       	jmp    1bc4 <main+0x814>
    1c65:	83 ec 0c             	sub    $0xc,%esp
    1c68:	53                   	push   %ebx
    1c69:	e8 42 42 00 00       	call   5eb0 <free@plt>
    1c6e:	c7 04 24 5d 3c 00 00 	movl   $0x3c5d,(%esp)
    1c75:	e8 36 40 00 00       	call   5cb0 <printf@plt>
    1c7a:	5e                   	pop    %esi
    1c7b:	8b 85 a4 fd ff ff    	mov    -0x25c(%ebp),%eax
    1c81:	ff b5 e0 fd ff ff    	pushl  -0x220(%ebp)
    1c87:	89 85 84 fd ff ff    	mov    %eax,-0x27c(%ebp)
    1c8d:	e8 be 40 00 00       	call   5d50 <malloc@plt>
    1c92:	83 c4 10             	add    $0x10,%esp
    1c95:	89 c3                	mov    %eax,%ebx
    1c97:	85 c0                	test   %eax,%eax
    1c99:	0f 84 19 01 00 00    	je     1db8 <main+0xa08>
    1c9f:	8b 85 cc fd ff ff    	mov    -0x234(%ebp),%eax
    1ca5:	8b 8d e0 fd ff ff    	mov    -0x220(%ebp),%ecx
    1cab:	83 e8 02             	sub    $0x2,%eax
    1cae:	31 d2                	xor    %edx,%edx
    1cb0:	0f af 85 e4 fd ff ff 	imul   -0x21c(%ebp),%eax
    1cb7:	8b b5 c4 fd ff ff    	mov    -0x23c(%ebp),%esi
    1cbd:	31 ff                	xor    %edi,%edi
    1cbf:	f7 f1                	div    %ecx
    1cc1:	31 d2                	xor    %edx,%edx
    1cc3:	01 f0                	add    %esi,%eax
    1cc5:	11 fa                	adc    %edi,%edx
    1cc7:	89 85 78 fd ff ff    	mov    %eax,-0x288(%ebp)
    1ccd:	89 95 7c fd ff ff    	mov    %edx,-0x284(%ebp)
    1cd3:	8d 81 cb 16 00 00    	lea    0x16cb(%ecx),%eax
    1cd9:	31 d2                	xor    %edx,%edx
    1cdb:	c7 85 74 fd ff ff 00 	movl   $0x0,-0x28c(%ebp)
    1ce2:	00 00 00 
    1ce5:	f7 f1                	div    %ecx
    1ce7:	89 85 70 fd ff ff    	mov    %eax,-0x290(%ebp)
    1ced:	c7 85 90 fd ff ff cc 	movl   $0x16cc,-0x270(%ebp)
    1cf4:	16 00 00 
    1cf7:	c7 85 88 fd ff ff 40 	movl   $0x4340,-0x278(%ebp)
    1cfe:	43 00 00 
    1d01:	31 f6                	xor    %esi,%esi
    1d03:	31 ff                	xor    %edi,%edi
    1d05:	8b 95 74 fd ff ff    	mov    -0x28c(%ebp),%edx
    1d0b:	8b 85 70 fd ff ff    	mov    -0x290(%ebp),%eax
    1d11:	39 fa                	cmp    %edi,%edx
    1d13:	77 0e                	ja     1d23 <main+0x973>
    1d15:	0f 82 dd 00 00 00    	jb     1df8 <main+0xa48>
    1d1b:	39 f0                	cmp    %esi,%eax
    1d1d:	0f 86 d5 00 00 00    	jbe    1df8 <main+0xa48>
    1d23:	3b 8d 90 fd ff ff    	cmp    -0x270(%ebp),%ecx
    1d29:	76 13                	jbe    1d3e <main+0x98e>
    1d2b:	50                   	push   %eax
    1d2c:	51                   	push   %ecx
    1d2d:	6a 00                	push   $0x0
    1d2f:	53                   	push   %ebx
    1d30:	e8 0b 41 00 00       	call   5e40 <memset@plt>
    1d35:	83 c4 10             	add    $0x10,%esp
    1d38:	8b 8d e0 fd ff ff    	mov    -0x220(%ebp),%ecx
    1d3e:	50                   	push   %eax
    1d3f:	8b 85 90 fd ff ff    	mov    -0x270(%ebp),%eax
    1d45:	39 c1                	cmp    %eax,%ecx
    1d47:	76 02                	jbe    1d4b <main+0x99b>
    1d49:	89 c1                	mov    %eax,%ecx
    1d4b:	51                   	push   %ecx
    1d4c:	ff b5 88 fd ff ff    	pushl  -0x278(%ebp)
    1d52:	53                   	push   %ebx
    1d53:	e8 e8 3f 00 00       	call   5d40 <memcpy@plt>
    1d58:	8b 85 78 fd ff ff    	mov    -0x288(%ebp),%eax
    1d5e:	8b 95 7c fd ff ff    	mov    -0x284(%ebp),%edx
    1d64:	01 f0                	add    %esi,%eax
    1d66:	89 1c 24             	mov    %ebx,(%esp)
    1d69:	11 fa                	adc    %edi,%edx
    1d6b:	6a 01                	push   $0x1
    1d6d:	52                   	push   %edx
    1d6e:	50                   	push   %eax
    1d6f:	ff b5 84 fd ff ff    	pushl  -0x27c(%ebp)
    1d75:	e8 06 18 00 00       	call   3580 <block_write_direct>
    1d7a:	83 c4 20             	add    $0x20,%esp
    1d7d:	85 c0                	test   %eax,%eax
    1d7f:	75 2b                	jne    1dac <main+0x9fc>
    1d81:	83 c6 01             	add    $0x1,%esi
    1d84:	8b 95 90 fd ff ff    	mov    -0x270(%ebp),%edx
    1d8a:	8b 8d e0 fd ff ff    	mov    -0x220(%ebp),%ecx
    1d90:	89 d0                	mov    %edx,%eax
    1d92:	83 d7 00             	adc    $0x0,%edi
    1d95:	39 ca                	cmp    %ecx,%edx
    1d97:	76 02                	jbe    1d9b <main+0x9eb>
    1d99:	89 c8                	mov    %ecx,%eax
    1d9b:	01 85 88 fd ff ff    	add    %eax,-0x278(%ebp)
    1da1:	29 8d 90 fd ff ff    	sub    %ecx,-0x270(%ebp)
    1da7:	e9 59 ff ff ff       	jmp    1d05 <main+0x955>
    1dac:	83 ec 0c             	sub    $0xc,%esp
    1daf:	53                   	push   %ebx
    1db0:	e8 fb 40 00 00       	call   5eb0 <free@plt>
    1db5:	83 c4 10             	add    $0x10,%esp
    1db8:	83 ec 0c             	sub    $0xc,%esp
    1dbb:	bb 02 00 00 00       	mov    $0x2,%ebx
    1dc0:	68 fc 41 00 00       	push   $0x41fc
    1dc5:	e8 e6 3e 00 00       	call   5cb0 <printf@plt>
    1dca:	83 c4 10             	add    $0x10,%esp
    1dcd:	e9 f8 f6 ff ff       	jmp    14ca <main+0x11a>
    1dd2:	83 ec 0c             	sub    $0xc,%esp
    1dd5:	53                   	push   %ebx
    1dd6:	e8 d5 40 00 00       	call   5eb0 <free@plt>
    1ddb:	83 c4 10             	add    $0x10,%esp
    1dde:	83 ec 0c             	sub    $0xc,%esp
    1de1:	bb 02 00 00 00       	mov    $0x2,%ebx
    1de6:	68 bc 41 00 00       	push   $0x41bc
    1deb:	e8 c0 3e 00 00       	call   5cb0 <printf@plt>
    1df0:	83 c4 10             	add    $0x10,%esp
    1df3:	e9 d2 f6 ff ff       	jmp    14ca <main+0x11a>
    1df8:	83 ec 0c             	sub    $0xc,%esp
    1dfb:	53                   	push   %ebx
    1dfc:	e8 af 40 00 00       	call   5eb0 <free@plt>
    1e01:	c7 04 24 78 3c 00 00 	movl   $0x3c78,(%esp)
    1e08:	e8 a3 3e 00 00       	call   5cb0 <printf@plt>
    1e0d:	59                   	pop    %ecx
    1e0e:	5b                   	pop    %ebx
    1e0f:	6a 01                	push   $0x1
    1e11:	8b 85 a4 fd ff ff    	mov    -0x25c(%ebp),%eax
    1e17:	ff b5 e0 fd ff ff    	pushl  -0x220(%ebp)
    1e1d:	89 85 90 fd ff ff    	mov    %eax,-0x270(%ebp)
    1e23:	e8 c8 3f 00 00       	call   5df0 <calloc@plt>
    1e28:	83 c4 10             	add    $0x10,%esp
    1e2b:	89 c3                	mov    %eax,%ebx
    1e2d:	85 c0                	test   %eax,%eax
    1e2f:	0f 84 d7 00 00 00    	je     1f0c <main+0xb5c>
    1e35:	c6 03 83             	movb   $0x83,(%ebx)
    1e38:	50                   	push   %eax
    1e39:	8d 43 02             	lea    0x2(%ebx),%eax
    1e3c:	68 41 3c 00 00       	push   $0x3c41
    1e41:	6a 08                	push   $0x8
    1e43:	50                   	push   %eax
    1e44:	e8 b7 3e 00 00       	call   5d00 <str_to_utf16@plt>
    1e49:	8b 85 d0 fd ff ff    	mov    -0x230(%ebp),%eax
    1e4f:	89 43 34             	mov    %eax,0x34(%ebx)
    1e52:	8b 85 dc fd ff ff    	mov    -0x224(%ebp),%eax
    1e58:	89 43 38             	mov    %eax,0x38(%ebx)
    1e5b:	c6 43 01 08          	movb   $0x8,0x1(%ebx)
    1e5f:	c6 43 20 81          	movb   $0x81,0x20(%ebx)
    1e63:	c6 43 21 00          	movb   $0x0,0x21(%ebx)
    1e67:	c7 43 3c 00 00 00 00 	movl   $0x0,0x3c(%ebx)
    1e6e:	c6 43 40 82          	movb   $0x82,0x40(%ebx)
    1e72:	83 c4 10             	add    $0x10,%esp
    1e75:	31 d2                	xor    %edx,%edx
    1e77:	31 c0                	xor    %eax,%eax
    1e79:	31 c9                	xor    %ecx,%ecx
    1e7b:	42                   	inc    %edx
    1e7c:	d1 c8                	ror    %eax
    1e7e:	8a 8a 3f 43 00 00    	mov    0x433f(%edx),%cl
    1e84:	01 c8                	add    %ecx,%eax
    1e86:	81 fa cc 16 00 00    	cmp    $0x16cc,%edx
    1e8c:	75 eb                	jne    1e79 <main+0xac9>
    1e8e:	31 d2                	xor    %edx,%edx
    1e90:	89 43 44             	mov    %eax,0x44(%ebx)
    1e93:	89 95 8c fd ff ff    	mov    %edx,-0x274(%ebp)
    1e99:	8b 95 c8 fd ff ff    	mov    -0x238(%ebp),%edx
    1e9f:	8b 85 cc fd ff ff    	mov    -0x234(%ebp),%eax
    1ea5:	31 ff                	xor    %edi,%edi
    1ea7:	8d 72 fe             	lea    -0x2(%edx),%esi
    1eaa:	89 43 54             	mov    %eax,0x54(%ebx)
    1ead:	0f af b5 e4 fd ff ff 	imul   -0x21c(%ebp),%esi
    1eb4:	8b 85 c4 fd ff ff    	mov    -0x23c(%ebp),%eax
    1eba:	31 d2                	xor    %edx,%edx
    1ebc:	89 85 88 fd ff ff    	mov    %eax,-0x278(%ebp)
    1ec2:	89 f0                	mov    %esi,%eax
    1ec4:	f7 b5 e0 fd ff ff    	divl   -0x220(%ebp)
    1eca:	89 c6                	mov    %eax,%esi
    1ecc:	c7 43 58 cc 16 00 00 	movl   $0x16cc,0x58(%ebx)
    1ed3:	03 b5 88 fd ff ff    	add    -0x278(%ebp),%esi
    1ed9:	c7 43 5c 00 00 00 00 	movl   $0x0,0x5c(%ebx)
    1ee0:	13 bd 8c fd ff ff    	adc    -0x274(%ebp),%edi
    1ee6:	83 ec 0c             	sub    $0xc,%esp
    1ee9:	53                   	push   %ebx
    1eea:	6a 01                	push   $0x1
    1eec:	57                   	push   %edi
    1eed:	56                   	push   %esi
    1eee:	ff b5 90 fd ff ff    	pushl  -0x270(%ebp)
    1ef4:	e8 87 16 00 00       	call   3580 <block_write_direct>
    1ef9:	83 c4 20             	add    $0x20,%esp
    1efc:	85 c0                	test   %eax,%eax
    1efe:	74 26                	je     1f26 <main+0xb76>
    1f00:	83 ec 0c             	sub    $0xc,%esp
    1f03:	53                   	push   %ebx
    1f04:	e8 a7 3f 00 00       	call   5eb0 <free@plt>
    1f09:	83 c4 10             	add    $0x10,%esp
    1f0c:	83 ec 0c             	sub    $0xc,%esp
    1f0f:	bb 02 00 00 00       	mov    $0x2,%ebx
    1f14:	68 38 42 00 00       	push   $0x4238
    1f19:	e8 92 3d 00 00       	call   5cb0 <printf@plt>
    1f1e:	83 c4 10             	add    $0x10,%esp
    1f21:	e9 a4 f5 ff ff       	jmp    14ca <main+0x11a>
    1f26:	50                   	push   %eax
    1f27:	ff b5 e0 fd ff ff    	pushl  -0x220(%ebp)
    1f2d:	6a 00                	push   $0x0
    1f2f:	53                   	push   %ebx
    1f30:	e8 0b 3f 00 00       	call   5e40 <memset@plt>
    1f35:	b9 01 00 00 00       	mov    $0x1,%ecx
    1f3a:	89 bd 8c fd ff ff    	mov    %edi,-0x274(%ebp)
    1f40:	83 c4 10             	add    $0x10,%esp
    1f43:	89 b5 88 fd ff ff    	mov    %esi,-0x278(%ebp)
    1f49:	89 cf                	mov    %ecx,%edi
    1f4b:	31 d2                	xor    %edx,%edx
    1f4d:	8b 85 e4 fd ff ff    	mov    -0x21c(%ebp),%eax
    1f53:	f7 b5 e0 fd ff ff    	divl   -0x220(%ebp)
    1f59:	39 c7                	cmp    %eax,%edi
    1f5b:	73 31                	jae    1f8e <main+0xbde>
    1f5d:	89 f8                	mov    %edi,%eax
    1f5f:	83 ec 0c             	sub    $0xc,%esp
    1f62:	31 d2                	xor    %edx,%edx
    1f64:	03 85 88 fd ff ff    	add    -0x278(%ebp),%eax
    1f6a:	13 95 8c fd ff ff    	adc    -0x274(%ebp),%edx
    1f70:	53                   	push   %ebx
    1f71:	6a 01                	push   $0x1
    1f73:	52                   	push   %edx
    1f74:	50                   	push   %eax
    1f75:	ff b5 90 fd ff ff    	pushl  -0x270(%ebp)
    1f7b:	e8 00 16 00 00       	call   3580 <block_write_direct>
    1f80:	83 c4 20             	add    $0x20,%esp
    1f83:	85 c0                	test   %eax,%eax
    1f85:	0f 85 75 ff ff ff    	jne    1f00 <main+0xb50>
    1f8b:	47                   	inc    %edi
    1f8c:	eb bd                	jmp    1f4b <main+0xb9b>
    1f8e:	83 ec 0c             	sub    $0xc,%esp
    1f91:	53                   	push   %ebx
    1f92:	e8 19 3f 00 00       	call   5eb0 <free@plt>
    1f97:	c7 04 24 95 3c 00 00 	movl   $0x3c95,(%esp)
    1f9e:	e8 0d 3d 00 00       	call   5cb0 <printf@plt>
    1fa3:	58                   	pop    %eax
    1fa4:	5a                   	pop    %edx
    1fa5:	6a 01                	push   $0x1
    1fa7:	8b bd a4 fd ff ff    	mov    -0x25c(%ebp),%edi
    1fad:	ff b5 e0 fd ff ff    	pushl  -0x220(%ebp)
    1fb3:	e8 38 3e 00 00       	call   5df0 <calloc@plt>
    1fb8:	83 c4 10             	add    $0x10,%esp
    1fbb:	89 c6                	mov    %eax,%esi
    1fbd:	85 c0                	test   %eax,%eax
    1fbf:	0f 84 73 01 00 00    	je     2138 <main+0xd88>
    1fc5:	50                   	push   %eax
    1fc6:	8d 85 e8 fd ff ff    	lea    -0x218(%ebp),%eax
    1fcc:	68 00 02 00 00       	push   $0x200
    1fd1:	6a 00                	push   $0x0
    1fd3:	50                   	push   %eax
    1fd4:	e8 67 3e 00 00       	call   5e40 <memset@plt>
    1fd9:	83 c4 0c             	add    $0xc,%esp
    1fdc:	8d 85 eb fd ff ff    	lea    -0x215(%ebp),%eax
    1fe2:	c6 85 e8 fd ff ff eb 	movb   $0xeb,-0x218(%ebp)
    1fe9:	c6 85 e9 fd ff ff 76 	movb   $0x76,-0x217(%ebp)
    1ff0:	6a 08                	push   $0x8
    1ff2:	c6 85 ea fd ff ff 90 	movb   $0x90,-0x216(%ebp)
    1ff9:	68 4a 3c 00 00       	push   $0x3c4a
    1ffe:	50                   	push   %eax
    1fff:	e8 3c 3d 00 00       	call   5d40 <memcpy@plt>
    2004:	8b 85 b0 fd ff ff    	mov    -0x250(%ebp),%eax
    200a:	89 85 28 fe ff ff    	mov    %eax,-0x1d8(%ebp)
    2010:	8b 85 b8 fd ff ff    	mov    -0x248(%ebp),%eax
    2016:	89 85 30 fe ff ff    	mov    %eax,-0x1d0(%ebp)
    201c:	8b 85 c0 fd ff ff    	mov    -0x240(%ebp),%eax
    2022:	89 85 3c fe ff ff    	mov    %eax,-0x1c4(%ebp)
    2028:	8b 85 c4 fd ff ff    	mov    -0x23c(%ebp),%eax
    202e:	89 85 40 fe ff ff    	mov    %eax,-0x1c0(%ebp)
    2034:	8b 85 d4 fd ff ff    	mov    -0x22c(%ebp),%eax
    203a:	8b 95 b4 fd ff ff    	mov    -0x24c(%ebp),%edx
    2040:	89 85 44 fe ff ff    	mov    %eax,-0x1bc(%ebp)
    2046:	8b 85 c8 fd ff ff    	mov    -0x238(%ebp),%eax
    204c:	89 95 2c fe ff ff    	mov    %edx,-0x1d4(%ebp)
    2052:	89 85 48 fe ff ff    	mov    %eax,-0x1b8(%ebp)
    2058:	8b 95 bc fd ff ff    	mov    -0x244(%ebp),%edx
    205e:	8b 85 e0 fd ff ff    	mov    -0x220(%ebp),%eax
    2064:	31 db                	xor    %ebx,%ebx
    2066:	89 95 34 fe ff ff    	mov    %edx,-0x1cc(%ebp)
    206c:	c7 85 38 fe ff ff 80 	movl   $0x80,-0x1c8(%ebp)
    2073:	00 00 00 
    2076:	c7 85 4c fe ff ff 72 	movl   $0xe1028172,-0x1b4(%ebp)
    207d:	81 02 e1 
    2080:	c6 85 51 fe ff ff 01 	movb   $0x1,-0x1af(%ebp)
    2087:	c6 85 50 fe ff ff 00 	movb   $0x0,-0x1b0(%ebp)
    208e:	66 c7 85 52 fe ff ff 	movw   $0x0,-0x1ae(%ebp)
    2095:	00 00 
    2097:	83 c4 10             	add    $0x10,%esp
    209a:	89 c2                	mov    %eax,%edx
    209c:	89 d9                	mov    %ebx,%ecx
    209e:	89 d0                	mov    %edx,%eax
    20a0:	d3 e8                	shr    %cl,%eax
    20a2:	48                   	dec    %eax
    20a3:	0f 84 a9 00 00 00    	je     2152 <main+0xda2>
    20a9:	41                   	inc    %ecx
    20aa:	eb f2                	jmp    209e <main+0xcee>
    20ac:	31 c0                	xor    %eax,%eax
    20ae:	88 8d 55 fe ff ff    	mov    %cl,-0x1ab(%ebp)
    20b4:	88 d8                	mov    %bl,%al
    20b6:	81 e1 ff 00 00 00    	and    $0xff,%ecx
    20bc:	01 c8                	add    %ecx,%eax
    20be:	83 f8 19             	cmp    $0x19,%eax
    20c1:	0f 8f af 00 00 00    	jg     2176 <main+0xdc6>
    20c7:	c6 85 56 fe ff ff 01 	movb   $0x1,-0x1aa(%ebp)
    20ce:	c6 85 57 fe ff ff 80 	movb   $0x80,-0x1a9(%ebp)
    20d5:	c6 85 58 fe ff ff 00 	movb   $0x0,-0x1a8(%ebp)
    20dc:	66 c7 45 e6 55 aa    	movw   $0xaa55,-0x1a(%ebp)
    20e2:	31 c0                	xor    %eax,%eax
    20e4:	31 d2                	xor    %edx,%edx
    20e6:	8d 4a 96             	lea    -0x6a(%edx),%ecx
    20e9:	83 f9 01             	cmp    $0x1,%ecx
    20ec:	76 12                	jbe    2100 <main+0xd50>
    20ee:	83 fa 70             	cmp    $0x70,%edx
    20f1:	74 0d                	je     2100 <main+0xd50>
    20f3:	d1 c8                	ror    %eax
    20f5:	31 c9                	xor    %ecx,%ecx
    20f7:	8a 8c 15 e8 fd ff ff 	mov    -0x218(%ebp,%edx,1),%cl
    20fe:	01 c8                	add    %ecx,%eax
    2100:	42                   	inc    %edx
    2101:	81 fa 00 02 00 00    	cmp    $0x200,%edx
    2107:	75 dd                	jne    20e6 <main+0xd36>
    2109:	83 ec 0c             	sub    $0xc,%esp
    210c:	89 85 ac fd ff ff    	mov    %eax,-0x254(%ebp)
    2112:	8d 85 e8 fd ff ff    	lea    -0x218(%ebp),%eax
    2118:	50                   	push   %eax
    2119:	6a 01                	push   $0x1
    211b:	6a 00                	push   $0x0
    211d:	6a 00                	push   $0x0
    211f:	57                   	push   %edi
    2120:	e8 5b 14 00 00       	call   3580 <block_write_direct>
    2125:	83 c4 20             	add    $0x20,%esp
    2128:	85 c0                	test   %eax,%eax
    212a:	74 5f                	je     218b <main+0xddb>
    212c:	83 ec 0c             	sub    $0xc,%esp
    212f:	56                   	push   %esi
    2130:	e8 7b 3d 00 00       	call   5eb0 <free@plt>
    2135:	83 c4 10             	add    $0x10,%esp
    2138:	83 ec 0c             	sub    $0xc,%esp
    213b:	bb 02 00 00 00       	mov    $0x2,%ebx
    2140:	68 b8 42 00 00       	push   $0x42b8
    2145:	e8 66 3b 00 00       	call   5cb0 <printf@plt>
    214a:	83 c4 10             	add    $0x10,%esp
    214d:	e9 78 f3 ff ff       	jmp    14ca <main+0x11a>
    2152:	89 cb                	mov    %ecx,%ebx
    2154:	88 8d 54 fe ff ff    	mov    %cl,-0x1ac(%ebp)
    215a:	8b 85 e4 fd ff ff    	mov    -0x21c(%ebp),%eax
    2160:	89 d1                	mov    %edx,%ecx
    2162:	31 d2                	xor    %edx,%edx
    2164:	f7 f1                	div    %ecx
    2166:	31 c9                	xor    %ecx,%ecx
    2168:	89 c2                	mov    %eax,%edx
    216a:	d3 ea                	shr    %cl,%edx
    216c:	4a                   	dec    %edx
    216d:	0f 84 39 ff ff ff    	je     20ac <main+0xcfc>
    2173:	41                   	inc    %ecx
    2174:	eb f2                	jmp    2168 <main+0xdb8>
    2176:	57                   	push   %edi
    2177:	68 13 01 00 00       	push   $0x113
    217c:	68 29 3b 00 00       	push   $0x3b29
    2181:	68 80 42 00 00       	push   $0x4280
    2186:	e8 55 3c 00 00       	call   5de0 <assert_abort@plt>
    218b:	83 ec 0c             	sub    $0xc,%esp
    218e:	8d 9d ac fd ff ff    	lea    -0x254(%ebp),%ebx
    2194:	b9 01 00 00 00       	mov    $0x1,%ecx
    2199:	8d 95 e0 fd ff ff    	lea    -0x220(%ebp),%edx
    219f:	89 f8                	mov    %edi,%eax
    21a1:	53                   	push   %ebx
    21a2:	e8 d3 f0 ff ff       	call   127a <ebs_write.isra.2>
    21a7:	83 c4 10             	add    $0x10,%esp
    21aa:	85 c0                	test   %eax,%eax
    21ac:	0f 85 7a ff ff ff    	jne    212c <main+0xd7c>
    21b2:	83 ec 0c             	sub    $0xc,%esp
    21b5:	8d 85 e8 fd ff ff    	lea    -0x218(%ebp),%eax
    21bb:	50                   	push   %eax
    21bc:	6a 01                	push   $0x1
    21be:	6a 00                	push   $0x0
    21c0:	6a 0c                	push   $0xc
    21c2:	57                   	push   %edi
    21c3:	e8 b8 13 00 00       	call   3580 <block_write_direct>
    21c8:	83 c4 20             	add    $0x20,%esp
    21cb:	85 c0                	test   %eax,%eax
    21cd:	0f 85 59 ff ff ff    	jne    212c <main+0xd7c>
    21d3:	8b 95 e0 fd ff ff    	mov    -0x220(%ebp),%edx
    21d9:	8b 8d ac fd ff ff    	mov    -0x254(%ebp),%ecx
    21df:	c1 ea 02             	shr    $0x2,%edx
    21e2:	39 d0                	cmp    %edx,%eax
    21e4:	74 06                	je     21ec <main+0xe3c>
    21e6:	89 0c 86             	mov    %ecx,(%esi,%eax,4)
    21e9:	40                   	inc    %eax
    21ea:	eb f6                	jmp    21e2 <main+0xe32>
    21ec:	83 ec 0c             	sub    $0xc,%esp
    21ef:	56                   	push   %esi
    21f0:	6a 01                	push   $0x1
    21f2:	6a 00                	push   $0x0
    21f4:	6a 0b                	push   $0xb
    21f6:	57                   	push   %edi
    21f7:	e8 84 13 00 00       	call   3580 <block_write_direct>
    21fc:	83 c4 20             	add    $0x20,%esp
    21ff:	85 c0                	test   %eax,%eax
    2201:	0f 85 25 ff ff ff    	jne    212c <main+0xd7c>
    2207:	83 ec 0c             	sub    $0xc,%esp
    220a:	56                   	push   %esi
    220b:	6a 01                	push   $0x1
    220d:	6a 00                	push   $0x0
    220f:	6a 17                	push   $0x17
    2211:	57                   	push   %edi
    2212:	e8 69 13 00 00       	call   3580 <block_write_direct>
    2217:	83 c4 20             	add    $0x20,%esp
    221a:	85 c0                	test   %eax,%eax
    221c:	0f 85 0a ff ff ff    	jne    212c <main+0xd7c>
    2222:	83 ec 0c             	sub    $0xc,%esp
    2225:	b9 0d 00 00 00       	mov    $0xd,%ecx
    222a:	8d 95 e0 fd ff ff    	lea    -0x220(%ebp),%edx
    2230:	89 f8                	mov    %edi,%eax
    2232:	53                   	push   %ebx
    2233:	e8 42 f0 ff ff       	call   127a <ebs_write.isra.2>
    2238:	89 c3                	mov    %eax,%ebx
    223a:	89 34 24             	mov    %esi,(%esp)
    223d:	e8 6e 3c 00 00       	call   5eb0 <free@plt>
    2242:	83 c4 10             	add    $0x10,%esp
    2245:	85 db                	test   %ebx,%ebx
    2247:	0f 85 eb fe ff ff    	jne    2138 <main+0xd88>
    224d:	83 ec 0c             	sub    $0xc,%esp
    2250:	68 53 3c 00 00       	push   $0x3c53
    2255:	e8 56 3a 00 00       	call   5cb0 <printf@plt>
    225a:	83 c4 10             	add    $0x10,%esp
    225d:	e9 68 f2 ff ff       	jmp    14ca <main+0x11a>
    2262:	66 90                	xchg   %ax,%ax
    2264:	66 90                	xchg   %ax,%ax
    2266:	66 90                	xchg   %ax,%ax
    2268:	66 90                	xchg   %ax,%ax
    226a:	66 90                	xchg   %ax,%ax
    226c:	66 90                	xchg   %ax,%ax
    226e:	66 90                	xchg   %ax,%ax

00002270 <cache_key_hash>:
    2270:	55                   	push   %ebp
    2271:	89 e5                	mov    %esp,%ebp
    2273:	8b 45 08             	mov    0x8(%ebp),%eax
    2276:	5d                   	pop    %ebp
    2277:	8b 00                	mov    (%eax),%eax
    2279:	c3                   	ret    
    227a:	8d b6 00 00 00 00    	lea    0x0(%esi),%esi

00002280 <cache_hash>:
    2280:	55                   	push   %ebp
    2281:	89 e5                	mov    %esp,%ebp
    2283:	8b 45 08             	mov    0x8(%ebp),%eax
    2286:	5d                   	pop    %ebp
    2287:	8b 40 e0             	mov    -0x20(%eax),%eax
    228a:	c3                   	ret    
    228b:	90                   	nop
    228c:	8d 74 26 00          	lea    0x0(%esi,%eiz,1),%esi

00002290 <cache_key_equal>:
    2290:	55                   	push   %ebp
    2291:	89 e5                	mov    %esp,%ebp
    2293:	8b 45 0c             	mov    0xc(%ebp),%eax
    2296:	8b 4d 08             	mov    0x8(%ebp),%ecx
    2299:	5d                   	pop    %ebp
    229a:	8b 50 e0             	mov    -0x20(%eax),%edx
    229d:	8b 40 e4             	mov    -0x1c(%eax),%eax
    22a0:	33 41 04             	xor    0x4(%ecx),%eax
    22a3:	33 11                	xor    (%ecx),%edx
    22a5:	09 c2                	or     %eax,%edx
    22a7:	0f 94 c0             	sete   %al
    22aa:	c3                   	ret    
    22ab:	90                   	nop
    22ac:	8d 74 26 00          	lea    0x0(%esi,%eiz,1),%esi

000022b0 <block_init>:
    22b0:	55                   	push   %ebp
    22b1:	89 e5                	mov    %esp,%ebp
    22b3:	57                   	push   %edi
    22b4:	56                   	push   %esi
    22b5:	53                   	push   %ebx
    22b6:	83 ec 30             	sub    $0x30,%esp
    22b9:	8b 5d 08             	mov    0x8(%ebp),%ebx
    22bc:	6a 01                	push   $0x1
    22be:	68 21 66 93 ed       	push   $0xed936621
    22c3:	53                   	push   %ebx
    22c4:	e8 d7 39 00 00       	call   5ca0 <loc_service_connect@plt>
    22c9:	83 c4 10             	add    $0x10,%esp
    22cc:	85 c0                	test   %eax,%eax
    22ce:	0f 84 95 01 00 00    	je     2469 <block_init+0x1b9>
    22d4:	89 c7                	mov    %eax,%edi
    22d6:	50                   	push   %eax
    22d7:	50                   	push   %eax
    22d8:	8d 45 d8             	lea    -0x28(%ebp),%eax
    22db:	50                   	push   %eax
    22dc:	57                   	push   %edi
    22dd:	e8 7e 3a 00 00       	call   5d60 <bd_open@plt>
    22e2:	83 c4 10             	add    $0x10,%esp
    22e5:	89 c6                	mov    %eax,%esi
    22e7:	85 c0                	test   %eax,%eax
    22e9:	0f 85 31 01 00 00    	jne    2420 <block_init+0x170>
    22ef:	8d 45 dc             	lea    -0x24(%ebp),%eax
    22f2:	56                   	push   %esi
    22f3:	56                   	push   %esi
    22f4:	50                   	push   %eax
    22f5:	8b 45 d8             	mov    -0x28(%ebp),%eax
    22f8:	50                   	push   %eax
    22f9:	e8 52 3b 00 00       	call   5e50 <bd_get_block_size@plt>
    22fe:	83 c4 10             	add    $0x10,%esp
    2301:	89 c6                	mov    %eax,%esi
    2303:	85 c0                	test   %eax,%eax
    2305:	0f 85 f0 00 00 00    	jne    23fb <block_init+0x14b>
    230b:	8d 45 e0             	lea    -0x20(%ebp),%eax
    230e:	8b 4d d8             	mov    -0x28(%ebp),%ecx
    2311:	52                   	push   %edx
    2312:	52                   	push   %edx
    2313:	50                   	push   %eax
    2314:	51                   	push   %ecx
    2315:	e8 06 3a 00 00       	call   5d20 <bd_get_num_blocks@plt>
    231a:	83 c4 10             	add    $0x10,%esp
    231d:	89 c6                	mov    %eax,%esi
    231f:	85 c0                	test   %eax,%eax
    2321:	0f 85 d4 00 00 00    	jne    23fb <block_init+0x14b>
    2327:	83 ec 0c             	sub    $0xc,%esp
    232a:	8b 55 e4             	mov    -0x1c(%ebp),%edx
    232d:	8b 4d d8             	mov    -0x28(%ebp),%ecx
    2330:	8b 45 e0             	mov    -0x20(%ebp),%eax
    2333:	89 55 d4             	mov    %edx,-0x2c(%ebp)
    2336:	8b 55 dc             	mov    -0x24(%ebp),%edx
    2339:	6a 30                	push   $0x30
    233b:	89 4d c8             	mov    %ecx,-0x38(%ebp)
    233e:	89 45 d0             	mov    %eax,-0x30(%ebp)
    2341:	89 55 cc             	mov    %edx,-0x34(%ebp)
    2344:	e8 07 3a 00 00       	call   5d50 <malloc@plt>
    2349:	83 c4 10             	add    $0x10,%esp
    234c:	85 c0                	test   %eax,%eax
    234e:	0f 84 1a 01 00 00    	je     246e <block_init+0x1be>
    2354:	8b 4d c8             	mov    -0x38(%ebp),%ecx
    2357:	8b 55 cc             	mov    -0x34(%ebp),%edx
    235a:	89 48 10             	mov    %ecx,0x10(%eax)
    235d:	89 50 28             	mov    %edx,0x28(%eax)
    2360:	83 ec 0c             	sub    $0xc,%esp
    2363:	8b 55 d0             	mov    -0x30(%ebp),%edx
    2366:	8b 4d d4             	mov    -0x2c(%ebp),%ecx
    2369:	89 50 20             	mov    %edx,0x20(%eax)
    236c:	c7 00 00 00 00 00    	movl   $0x0,(%eax)
    2372:	c7 40 04 00 00 00 00 	movl   $0x0,0x4(%eax)
    2379:	89 58 08             	mov    %ebx,0x8(%eax)
    237c:	89 78 0c             	mov    %edi,0xc(%eax)
    237f:	c7 40 14 00 00 00 00 	movl   $0x0,0x14(%eax)
    2386:	c7 40 18 00 00 00 00 	movl   $0x0,0x18(%eax)
    238d:	c7 40 1c 00 00 00 00 	movl   $0x0,0x1c(%eax)
    2394:	89 48 24             	mov    %ecx,0x24(%eax)
    2397:	c7 40 2c 00 00 00 00 	movl   $0x0,0x2c(%eax)
    239e:	89 45 d0             	mov    %eax,-0x30(%ebp)
    23a1:	68 d0 75 00 00       	push   $0x75d0
    23a6:	e8 15 3b 00 00       	call   5ec0 <fibril_mutex_lock@plt>
    23ab:	8b 15 cc 75 00 00    	mov    0x75cc,%edx
    23b1:	83 c4 10             	add    $0x10,%esp
    23b4:	8b 45 d0             	mov    -0x30(%ebp),%eax
    23b7:	81 fa c8 75 00 00    	cmp    $0x75c8,%edx
    23bd:	75 14                	jne    23d3 <block_init+0x123>
    23bf:	eb 77                	jmp    2438 <block_init+0x188>
    23c1:	8d b4 26 00 00 00 00 	lea    0x0(%esi,%eiz,1),%esi
    23c8:	8b 52 04             	mov    0x4(%edx),%edx
    23cb:	81 fa c8 75 00 00    	cmp    $0x75c8,%edx
    23d1:	74 65                	je     2438 <block_init+0x188>
    23d3:	3b 5a 08             	cmp    0x8(%edx),%ebx
    23d6:	75 f0                	jne    23c8 <block_init+0x118>
    23d8:	83 ec 0c             	sub    $0xc,%esp
    23db:	89 45 d0             	mov    %eax,-0x30(%ebp)
    23de:	be f7 ff ff ff       	mov    $0xfffffff7,%esi
    23e3:	68 d0 75 00 00       	push   $0x75d0
    23e8:	e8 23 3a 00 00       	call   5e10 <fibril_mutex_unlock@plt>
    23ed:	8b 45 d0             	mov    -0x30(%ebp),%eax
    23f0:	89 04 24             	mov    %eax,(%esp)
    23f3:	e8 b8 3a 00 00       	call   5eb0 <free@plt>
    23f8:	83 c4 10             	add    $0x10,%esp
    23fb:	83 ec 0c             	sub    $0xc,%esp
    23fe:	8b 45 d8             	mov    -0x28(%ebp),%eax
    2401:	50                   	push   %eax
    2402:	e8 29 39 00 00       	call   5d30 <bd_close@plt>
    2407:	89 3c 24             	mov    %edi,(%esp)
    240a:	e8 b1 38 00 00       	call   5cc0 <async_hangup@plt>
    240f:	83 c4 10             	add    $0x10,%esp
    2412:	8d 65 f4             	lea    -0xc(%ebp),%esp
    2415:	89 f0                	mov    %esi,%eax
    2417:	5b                   	pop    %ebx
    2418:	5e                   	pop    %esi
    2419:	5f                   	pop    %edi
    241a:	5d                   	pop    %ebp
    241b:	c3                   	ret    
    241c:	8d 74 26 00          	lea    0x0(%esi,%eiz,1),%esi
    2420:	83 ec 0c             	sub    $0xc,%esp
    2423:	57                   	push   %edi
    2424:	e8 97 38 00 00       	call   5cc0 <async_hangup@plt>
    2429:	83 c4 10             	add    $0x10,%esp
    242c:	8d 65 f4             	lea    -0xc(%ebp),%esp
    242f:	89 f0                	mov    %esi,%eax
    2431:	5b                   	pop    %ebx
    2432:	5e                   	pop    %esi
    2433:	5f                   	pop    %edi
    2434:	5d                   	pop    %ebp
    2435:	c3                   	ret    
    2436:	66 90                	xchg   %ax,%ax
    2438:	8b 15 c8 75 00 00    	mov    0x75c8,%edx
    243e:	83 ec 0c             	sub    $0xc,%esp
    2441:	c7 40 04 c8 75 00 00 	movl   $0x75c8,0x4(%eax)
    2448:	89 10                	mov    %edx,(%eax)
    244a:	89 42 04             	mov    %eax,0x4(%edx)
    244d:	68 d0 75 00 00       	push   $0x75d0
    2452:	a3 c8 75 00 00       	mov    %eax,0x75c8
    2457:	e8 b4 39 00 00       	call   5e10 <fibril_mutex_unlock@plt>
    245c:	83 c4 10             	add    $0x10,%esp
    245f:	8d 65 f4             	lea    -0xc(%ebp),%esp
    2462:	89 f0                	mov    %esi,%eax
    2464:	5b                   	pop    %ebx
    2465:	5e                   	pop    %esi
    2466:	5f                   	pop    %edi
    2467:	5d                   	pop    %ebp
    2468:	c3                   	ret    
    2469:	83 ce ff             	or     $0xffffffff,%esi
    246c:	eb a4                	jmp    2412 <block_init+0x162>
    246e:	be fe ff ff ff       	mov    $0xfffffffe,%esi
    2473:	eb 86                	jmp    23fb <block_init+0x14b>
    2475:	8d 74 26 00          	lea    0x0(%esi,%eiz,1),%esi
    2479:	8d bc 27 00 00 00 00 	lea    0x0(%edi,%eiz,1),%edi

00002480 <block_bb_read>:
    2480:	55                   	push   %ebp
    2481:	89 e5                	mov    %esp,%ebp
    2483:	57                   	push   %edi
    2484:	56                   	push   %esi
    2485:	53                   	push   %ebx
    2486:	83 ec 28             	sub    $0x28,%esp
    2489:	8b 45 08             	mov    0x8(%ebp),%eax
    248c:	8b 75 0c             	mov    0xc(%ebp),%esi
    248f:	68 d0 75 00 00       	push   $0x75d0
    2494:	89 45 e4             	mov    %eax,-0x1c(%ebp)
    2497:	8b 7d 10             	mov    0x10(%ebp),%edi
    249a:	e8 21 3a 00 00       	call   5ec0 <fibril_mutex_lock@plt>
    249f:	8b 1d cc 75 00 00    	mov    0x75cc,%ebx
    24a5:	83 c4 10             	add    $0x10,%esp
    24a8:	81 fb c8 75 00 00    	cmp    $0x75c8,%ebx
    24ae:	74 20                	je     24d0 <block_bb_read+0x50>
    24b0:	8b 45 e4             	mov    -0x1c(%ebp),%eax
    24b3:	3b 43 08             	cmp    0x8(%ebx),%eax
    24b6:	75 0d                	jne    24c5 <block_bb_read+0x45>
    24b8:	eb 36                	jmp    24f0 <block_bb_read+0x70>
    24ba:	8d b6 00 00 00 00    	lea    0x0(%esi),%esi
    24c0:	3b 43 08             	cmp    0x8(%ebx),%eax
    24c3:	74 2b                	je     24f0 <block_bb_read+0x70>
    24c5:	8b 5b 04             	mov    0x4(%ebx),%ebx
    24c8:	81 fb c8 75 00 00    	cmp    $0x75c8,%ebx
    24ce:	75 f0                	jne    24c0 <block_bb_read+0x40>
    24d0:	83 ec 0c             	sub    $0xc,%esp
    24d3:	68 d0 75 00 00       	push   $0x75d0
    24d8:	e8 33 39 00 00       	call   5e10 <fibril_mutex_unlock@plt>
    24dd:	83 c4 10             	add    $0x10,%esp
    24e0:	83 ca ff             	or     $0xffffffff,%edx
    24e3:	8d 65 f4             	lea    -0xc(%ebp),%esp
    24e6:	89 d0                	mov    %edx,%eax
    24e8:	5b                   	pop    %ebx
    24e9:	5e                   	pop    %esi
    24ea:	5f                   	pop    %edi
    24eb:	5d                   	pop    %ebp
    24ec:	c3                   	ret    
    24ed:	8d 76 00             	lea    0x0(%esi),%esi
    24f0:	83 ec 0c             	sub    $0xc,%esp
    24f3:	68 d0 75 00 00       	push   $0x75d0
    24f8:	e8 13 39 00 00       	call   5e10 <fibril_mutex_unlock@plt>
    24fd:	8b 43 14             	mov    0x14(%ebx),%eax
    2500:	83 c4 10             	add    $0x10,%esp
    2503:	85 c0                	test   %eax,%eax
    2505:	0f 85 9d 00 00 00    	jne    25a8 <block_bb_read+0x128>
    250b:	83 ec 0c             	sub    $0xc,%esp
    250e:	8b 43 28             	mov    0x28(%ebx),%eax
    2511:	50                   	push   %eax
    2512:	e8 39 38 00 00       	call   5d50 <malloc@plt>
    2517:	83 c4 10             	add    $0x10,%esp
    251a:	89 c1                	mov    %eax,%ecx
    251c:	85 c0                	test   %eax,%eax
    251e:	0f 84 93 00 00 00    	je     25b7 <block_bb_read+0x137>
    2524:	50                   	push   %eax
    2525:	50                   	push   %eax
    2526:	8b 43 28             	mov    0x28(%ebx),%eax
    2529:	89 4d e4             	mov    %ecx,-0x1c(%ebp)
    252c:	50                   	push   %eax
    252d:	51                   	push   %ecx
    252e:	8b 43 10             	mov    0x10(%ebx),%eax
    2531:	6a 01                	push   $0x1
    2533:	6a 00                	push   $0x0
    2535:	6a 00                	push   $0x0
    2537:	50                   	push   %eax
    2538:	e8 73 38 00 00       	call   5db0 <bd_read_blocks@plt>
    253d:	83 c4 20             	add    $0x20,%esp
    2540:	89 c2                	mov    %eax,%edx
    2542:	85 c0                	test   %eax,%eax
    2544:	8b 4d e4             	mov    -0x1c(%ebp),%ecx
    2547:	75 17                	jne    2560 <block_bb_read+0xe0>
    2549:	89 4b 14             	mov    %ecx,0x14(%ebx)
    254c:	89 73 18             	mov    %esi,0x18(%ebx)
    254f:	89 7b 1c             	mov    %edi,0x1c(%ebx)
    2552:	8d 65 f4             	lea    -0xc(%ebp),%esp
    2555:	89 d0                	mov    %edx,%eax
    2557:	5b                   	pop    %ebx
    2558:	5e                   	pop    %esi
    2559:	5f                   	pop    %edi
    255a:	5d                   	pop    %ebp
    255b:	c3                   	ret    
    255c:	8d 74 26 00          	lea    0x0(%esi,%eiz,1),%esi
    2560:	50                   	push   %eax
    2561:	50                   	push   %eax
    2562:	89 4d e0             	mov    %ecx,-0x20(%ebp)
    2565:	8b 4b 08             	mov    0x8(%ebx),%ecx
    2568:	51                   	push   %ecx
    2569:	6a 00                	push   $0x0
    256b:	6a 00                	push   $0x0
    256d:	6a 01                	push   $0x1
    256f:	52                   	push   %edx
    2570:	68 5c 5a 00 00       	push   $0x5a5c
    2575:	89 55 e4             	mov    %edx,-0x1c(%ebp)
    2578:	e8 33 37 00 00       	call   5cb0 <printf@plt>
    257d:	83 c4 20             	add    $0x20,%esp
    2580:	e8 fb 37 00 00       	call   5d80 <stacktrace_print@plt>
    2585:	83 ec 0c             	sub    $0xc,%esp
    2588:	8b 4d e0             	mov    -0x20(%ebp),%ecx
    258b:	51                   	push   %ecx
    258c:	e8 1f 39 00 00       	call   5eb0 <free@plt>
    2591:	8b 55 e4             	mov    -0x1c(%ebp),%edx
    2594:	83 c4 10             	add    $0x10,%esp
    2597:	8d 65 f4             	lea    -0xc(%ebp),%esp
    259a:	89 d0                	mov    %edx,%eax
    259c:	5b                   	pop    %ebx
    259d:	5e                   	pop    %esi
    259e:	5f                   	pop    %edi
    259f:	5d                   	pop    %ebp
    25a0:	c3                   	ret    
    25a1:	8d b4 26 00 00 00 00 	lea    0x0(%esi,%eiz,1),%esi
    25a8:	8d 65 f4             	lea    -0xc(%ebp),%esp
    25ab:	ba f7 ff ff ff       	mov    $0xfffffff7,%edx
    25b0:	89 d0                	mov    %edx,%eax
    25b2:	5b                   	pop    %ebx
    25b3:	5e                   	pop    %esi
    25b4:	5f                   	pop    %edi
    25b5:	5d                   	pop    %ebp
    25b6:	c3                   	ret    
    25b7:	ba fe ff ff ff       	mov    $0xfffffffe,%edx
    25bc:	e9 22 ff ff ff       	jmp    24e3 <block_bb_read+0x63>
    25c1:	eb 0d                	jmp    25d0 <block_bb_get>
    25c3:	90                   	nop
    25c4:	90                   	nop
    25c5:	90                   	nop
    25c6:	90                   	nop
    25c7:	90                   	nop
    25c8:	90                   	nop
    25c9:	90                   	nop
    25ca:	90                   	nop
    25cb:	90                   	nop
    25cc:	90                   	nop
    25cd:	90                   	nop
    25ce:	90                   	nop
    25cf:	90                   	nop

000025d0 <block_bb_get>:
    25d0:	55                   	push   %ebp
    25d1:	89 e5                	mov    %esp,%ebp
    25d3:	56                   	push   %esi
    25d4:	53                   	push   %ebx
    25d5:	83 ec 0c             	sub    $0xc,%esp
    25d8:	8b 75 08             	mov    0x8(%ebp),%esi
    25db:	68 d0 75 00 00       	push   $0x75d0
    25e0:	e8 db 38 00 00       	call   5ec0 <fibril_mutex_lock@plt>
    25e5:	8b 1d cc 75 00 00    	mov    0x75cc,%ebx
    25eb:	83 c4 10             	add    $0x10,%esp
    25ee:	81 fb c8 75 00 00    	cmp    $0x75c8,%ebx
    25f4:	75 0d                	jne    2603 <block_bb_get+0x33>
    25f6:	eb 28                	jmp    2620 <block_bb_get+0x50>
    25f8:	8b 5b 04             	mov    0x4(%ebx),%ebx
    25fb:	81 fb c8 75 00 00    	cmp    $0x75c8,%ebx
    2601:	74 1d                	je     2620 <block_bb_get+0x50>
    2603:	3b 73 08             	cmp    0x8(%ebx),%esi
    2606:	75 f0                	jne    25f8 <block_bb_get+0x28>
    2608:	83 ec 0c             	sub    $0xc,%esp
    260b:	68 d0 75 00 00       	push   $0x75d0
    2610:	e8 fb 37 00 00       	call   5e10 <fibril_mutex_unlock@plt>
    2615:	8b 43 14             	mov    0x14(%ebx),%eax
    2618:	8d 65 f8             	lea    -0x8(%ebp),%esp
    261b:	5b                   	pop    %ebx
    261c:	5e                   	pop    %esi
    261d:	5d                   	pop    %ebp
    261e:	c3                   	ret    
    261f:	90                   	nop
    2620:	83 ec 0c             	sub    $0xc,%esp
    2623:	68 d0 75 00 00       	push   $0x75d0
    2628:	e8 e3 37 00 00       	call   5e10 <fibril_mutex_unlock@plt>
    262d:	83 c4 0c             	add    $0xc,%esp
    2630:	68 ee 00 00 00       	push   $0xee
    2635:	68 0c 5a 00 00       	push   $0x5a0c
    263a:	68 14 5a 00 00       	push   $0x5a14
    263f:	e8 9c 37 00 00       	call   5de0 <assert_abort@plt>
    2644:	8d b6 00 00 00 00    	lea    0x0(%esi),%esi
    264a:	8d bf 00 00 00 00    	lea    0x0(%edi),%edi

00002650 <block_cache_init>:
    2650:	55                   	push   %ebp
    2651:	89 e5                	mov    %esp,%ebp
    2653:	56                   	push   %esi
    2654:	53                   	push   %ebx
    2655:	83 ec 0c             	sub    $0xc,%esp
    2658:	8b 75 08             	mov    0x8(%ebp),%esi
    265b:	68 d0 75 00 00       	push   $0x75d0
    2660:	e8 5b 38 00 00       	call   5ec0 <fibril_mutex_lock@plt>
    2665:	8b 1d cc 75 00 00    	mov    0x75cc,%ebx
    266b:	83 c4 10             	add    $0x10,%esp
    266e:	81 fb c8 75 00 00    	cmp    $0x75c8,%ebx
    2674:	75 19                	jne    268f <block_cache_init+0x3f>
    2676:	e9 ad 00 00 00       	jmp    2728 <block_cache_init+0xd8>
    267b:	90                   	nop
    267c:	8d 74 26 00          	lea    0x0(%esi,%eiz,1),%esi
    2680:	8b 5b 04             	mov    0x4(%ebx),%ebx
    2683:	81 fb c8 75 00 00    	cmp    $0x75c8,%ebx
    2689:	0f 84 99 00 00 00    	je     2728 <block_cache_init+0xd8>
    268f:	3b 73 08             	cmp    0x8(%ebx),%esi
    2692:	75 ec                	jne    2680 <block_cache_init+0x30>
    2694:	83 ec 0c             	sub    $0xc,%esp
    2697:	68 d0 75 00 00       	push   $0x75d0
    269c:	e8 6f 37 00 00       	call   5e10 <fibril_mutex_unlock@plt>
    26a1:	8b 43 2c             	mov    0x2c(%ebx),%eax
    26a4:	83 c4 10             	add    $0x10,%esp
    26a7:	85 c0                	test   %eax,%eax
    26a9:	0f 85 99 00 00 00    	jne    2748 <block_cache_init+0xf8>
    26af:	83 ec 0c             	sub    $0xc,%esp
    26b2:	6a 48                	push   $0x48
    26b4:	e8 97 36 00 00       	call   5d50 <malloc@plt>
    26b9:	83 c4 10             	add    $0x10,%esp
    26bc:	89 c6                	mov    %eax,%esi
    26be:	85 c0                	test   %eax,%eax
    26c0:	0f 84 b4 00 00 00    	je     277a <block_cache_init+0x12a>
    26c6:	83 ec 0c             	sub    $0xc,%esp
    26c9:	50                   	push   %eax
    26ca:	e8 51 37 00 00       	call   5e20 <fibril_mutex_initialize@plt>
    26cf:	8d 46 3c             	lea    0x3c(%esi),%eax
    26d2:	31 d2                	xor    %edx,%edx
    26d4:	89 46 3c             	mov    %eax,0x3c(%esi)
    26d7:	89 46 40             	mov    %eax,0x40(%esi)
    26da:	8b 45 0c             	mov    0xc(%ebp),%eax
    26dd:	83 c4 10             	add    $0x10,%esp
    26e0:	89 46 10             	mov    %eax,0x10(%esi)
    26e3:	8b 45 10             	mov    0x10(%ebp),%eax
    26e6:	89 46 18             	mov    %eax,0x18(%esi)
    26e9:	8b 45 14             	mov    0x14(%ebp),%eax
    26ec:	89 46 44             	mov    %eax,0x44(%esi)
    26ef:	8b 45 0c             	mov    0xc(%ebp),%eax
    26f2:	f7 73 28             	divl   0x28(%ebx)
    26f5:	c7 46 1c 00 00 00 00 	movl   $0x0,0x1c(%esi)
    26fc:	85 d2                	test   %edx,%edx
    26fe:	75 54                	jne    2754 <block_cache_init+0x104>
    2700:	89 46 14             	mov    %eax,0x14(%esi)
    2703:	8d 46 20             	lea    0x20(%esi),%eax
    2706:	68 b4 75 00 00       	push   $0x75b4
    270b:	6a 00                	push   $0x0
    270d:	6a 00                	push   $0x0
    270f:	50                   	push   %eax
    2710:	e8 cb 35 00 00       	call   5ce0 <hash_table_create@plt>
    2715:	83 c4 10             	add    $0x10,%esp
    2718:	84 c0                	test   %al,%al
    271a:	74 4b                	je     2767 <block_cache_init+0x117>
    271c:	89 73 2c             	mov    %esi,0x2c(%ebx)
    271f:	31 c0                	xor    %eax,%eax
    2721:	8d 65 f8             	lea    -0x8(%ebp),%esp
    2724:	5b                   	pop    %ebx
    2725:	5e                   	pop    %esi
    2726:	5d                   	pop    %ebp
    2727:	c3                   	ret    
    2728:	83 ec 0c             	sub    $0xc,%esp
    272b:	68 d0 75 00 00       	push   $0x75d0
    2730:	e8 db 36 00 00       	call   5e10 <fibril_mutex_unlock@plt>
    2735:	83 c4 10             	add    $0x10,%esp
    2738:	8d 65 f8             	lea    -0x8(%ebp),%esp
    273b:	83 c8 ff             	or     $0xffffffff,%eax
    273e:	5b                   	pop    %ebx
    273f:	5e                   	pop    %esi
    2740:	5d                   	pop    %ebp
    2741:	c3                   	ret    
    2742:	8d b6 00 00 00 00    	lea    0x0(%esi),%esi
    2748:	8d 65 f8             	lea    -0x8(%ebp),%esp
    274b:	b8 f7 ff ff ff       	mov    $0xfffffff7,%eax
    2750:	5b                   	pop    %ebx
    2751:	5e                   	pop    %esi
    2752:	5d                   	pop    %ebp
    2753:	c3                   	ret    
    2754:	83 ec 0c             	sub    $0xc,%esp
    2757:	56                   	push   %esi
    2758:	e8 53 37 00 00       	call   5eb0 <free@plt>
    275d:	83 c4 10             	add    $0x10,%esp
    2760:	b8 f5 ff ff ff       	mov    $0xfffffff5,%eax
    2765:	eb ba                	jmp    2721 <block_cache_init+0xd1>
    2767:	83 ec 0c             	sub    $0xc,%esp
    276a:	56                   	push   %esi
    276b:	e8 40 37 00 00       	call   5eb0 <free@plt>
    2770:	83 c4 10             	add    $0x10,%esp
    2773:	b8 fe ff ff ff       	mov    $0xfffffffe,%eax
    2778:	eb a7                	jmp    2721 <block_cache_init+0xd1>
    277a:	b8 fe ff ff ff       	mov    $0xfffffffe,%eax
    277f:	eb a0                	jmp    2721 <block_cache_init+0xd1>
    2781:	eb 0d                	jmp    2790 <block_cache_fini>
    2783:	90                   	nop
    2784:	90                   	nop
    2785:	90                   	nop
    2786:	90                   	nop
    2787:	90                   	nop
    2788:	90                   	nop
    2789:	90                   	nop
    278a:	90                   	nop
    278b:	90                   	nop
    278c:	90                   	nop
    278d:	90                   	nop
    278e:	90                   	nop
    278f:	90                   	nop

00002790 <block_cache_fini>:
    2790:	55                   	push   %ebp
    2791:	89 e5                	mov    %esp,%ebp
    2793:	57                   	push   %edi
    2794:	56                   	push   %esi
    2795:	53                   	push   %ebx
    2796:	83 ec 38             	sub    $0x38,%esp
    2799:	8b 5d 08             	mov    0x8(%ebp),%ebx
    279c:	68 d0 75 00 00       	push   $0x75d0
    27a1:	e8 1a 37 00 00       	call   5ec0 <fibril_mutex_lock@plt>
    27a6:	8b 3d cc 75 00 00    	mov    0x75cc,%edi
    27ac:	83 c4 10             	add    $0x10,%esp
    27af:	81 ff c8 75 00 00    	cmp    $0x75c8,%edi
    27b5:	75 18                	jne    27cf <block_cache_fini+0x3f>
    27b7:	e9 2c 01 00 00       	jmp    28e8 <block_cache_fini+0x158>
    27bc:	8d 74 26 00          	lea    0x0(%esi,%eiz,1),%esi
    27c0:	8b 7f 04             	mov    0x4(%edi),%edi
    27c3:	81 ff c8 75 00 00    	cmp    $0x75c8,%edi
    27c9:	0f 84 19 01 00 00    	je     28e8 <block_cache_fini+0x158>
    27cf:	3b 5f 08             	cmp    0x8(%edi),%ebx
    27d2:	75 ec                	jne    27c0 <block_cache_fini+0x30>
    27d4:	83 ec 0c             	sub    $0xc,%esp
    27d7:	68 d0 75 00 00       	push   $0x75d0
    27dc:	e8 2f 36 00 00       	call   5e10 <fibril_mutex_unlock@plt>
    27e1:	8b 47 2c             	mov    0x2c(%edi),%eax
    27e4:	83 c4 10             	add    $0x10,%esp
    27e7:	89 45 e0             	mov    %eax,-0x20(%ebp)
    27ea:	85 c0                	test   %eax,%eax
    27ec:	0f 84 42 01 00 00    	je     2934 <block_cache_fini+0x1a4>
    27f2:	8b 58 40             	mov    0x40(%eax),%ebx
    27f5:	8d 70 3c             	lea    0x3c(%eax),%esi
    27f8:	83 c0 20             	add    $0x20,%eax
    27fb:	89 75 dc             	mov    %esi,-0x24(%ebp)
    27fe:	89 45 d8             	mov    %eax,-0x28(%ebp)
    2801:	39 de                	cmp    %ebx,%esi
    2803:	0f 84 2f 01 00 00    	je     2938 <block_cache_fini+0x1a8>
    2809:	89 da                	mov    %ebx,%edx
    280b:	89 7d d0             	mov    %edi,-0x30(%ebp)
    280e:	eb 35                	jmp    2845 <block_cache_fini+0xb5>
    2810:	8b 55 d8             	mov    -0x28(%ebp),%edx
    2813:	8d 43 50             	lea    0x50(%ebx),%eax
    2816:	89 d6                	mov    %edx,%esi
    2818:	51                   	push   %ecx
    2819:	51                   	push   %ecx
    281a:	50                   	push   %eax
    281b:	52                   	push   %edx
    281c:	e8 0f 36 00 00       	call   5e30 <hash_table_remove_item@plt>
    2821:	8b 43 58             	mov    0x58(%ebx),%eax
    2824:	5f                   	pop    %edi
    2825:	50                   	push   %eax
    2826:	e8 85 36 00 00       	call   5eb0 <free@plt>
    282b:	89 1c 24             	mov    %ebx,(%esp)
    282e:	e8 7d 36 00 00       	call   5eb0 <free@plt>
    2833:	8b 45 e0             	mov    -0x20(%ebp),%eax
    2836:	83 c4 10             	add    $0x10,%esp
    2839:	8b 50 40             	mov    0x40(%eax),%edx
    283c:	3b 55 dc             	cmp    -0x24(%ebp),%edx
    283f:	0f 84 c3 00 00 00    	je     2908 <block_cache_fini+0x178>
    2845:	8d 5a b8             	lea    -0x48(%edx),%ebx
    2848:	8b 4b 48             	mov    0x48(%ebx),%ecx
    284b:	85 c9                	test   %ecx,%ecx
    284d:	74 0f                	je     285e <block_cache_fini+0xce>
    284f:	8b 43 4c             	mov    0x4c(%ebx),%eax
    2852:	85 c0                	test   %eax,%eax
    2854:	74 08                	je     285e <block_cache_fini+0xce>
    2856:	89 08                	mov    %ecx,(%eax)
    2858:	8b 4b 48             	mov    0x48(%ebx),%ecx
    285b:	89 41 04             	mov    %eax,0x4(%ecx)
    285e:	c7 43 48 00 00 00 00 	movl   $0x0,0x48(%ebx)
    2865:	c7 43 4c 00 00 00 00 	movl   $0x0,0x4c(%ebx)
    286c:	80 7b 14 00          	cmpb   $0x0,0x14(%ebx)
    2870:	74 9e                	je     2810 <block_cache_fini+0x80>
    2872:	8b 45 e0             	mov    -0x20(%ebp),%eax
    2875:	8b 73 38             	mov    0x38(%ebx),%esi
    2878:	8b 7b 3c             	mov    0x3c(%ebx),%edi
    287b:	8b 48 14             	mov    0x14(%eax),%ecx
    287e:	50                   	push   %eax
    287f:	50                   	push   %eax
    2880:	89 4d d4             	mov    %ecx,-0x2c(%ebp)
    2883:	8b 53 40             	mov    0x40(%ebx),%edx
    2886:	8b 43 58             	mov    0x58(%ebx),%eax
    2889:	52                   	push   %edx
    288a:	50                   	push   %eax
    288b:	8b 45 d0             	mov    -0x30(%ebp),%eax
    288e:	51                   	push   %ecx
    288f:	57                   	push   %edi
    2890:	56                   	push   %esi
    2891:	8b 40 10             	mov    0x10(%eax),%eax
    2894:	50                   	push   %eax
    2895:	e8 76 34 00 00       	call   5d10 <bd_write_blocks@plt>
    289a:	83 c4 20             	add    $0x20,%esp
    289d:	8b 4d d4             	mov    -0x2c(%ebp),%ecx
    28a0:	85 c0                	test   %eax,%eax
    28a2:	0f 84 68 ff ff ff    	je     2810 <block_cache_fini+0x80>
    28a8:	89 7d e4             	mov    %edi,-0x1c(%ebp)
    28ab:	8b 7d d0             	mov    -0x30(%ebp),%edi
    28ae:	89 75 e0             	mov    %esi,-0x20(%ebp)
    28b1:	89 ce                	mov    %ecx,%esi
    28b3:	89 c1                	mov    %eax,%ecx
    28b5:	50                   	push   %eax
    28b6:	50                   	push   %eax
    28b7:	8b 47 08             	mov    0x8(%edi),%eax
    28ba:	50                   	push   %eax
    28bb:	8b 45 e4             	mov    -0x1c(%ebp),%eax
    28be:	50                   	push   %eax
    28bf:	8b 45 e0             	mov    -0x20(%ebp),%eax
    28c2:	50                   	push   %eax
    28c3:	56                   	push   %esi
    28c4:	51                   	push   %ecx
    28c5:	68 a8 5a 00 00       	push   $0x5aa8
    28ca:	89 4d e0             	mov    %ecx,-0x20(%ebp)
    28cd:	e8 de 33 00 00       	call   5cb0 <printf@plt>
    28d2:	83 c4 20             	add    $0x20,%esp
    28d5:	e8 a6 34 00 00       	call   5d80 <stacktrace_print@plt>
    28da:	8b 4d e0             	mov    -0x20(%ebp),%ecx
    28dd:	8d 65 f4             	lea    -0xc(%ebp),%esp
    28e0:	89 c8                	mov    %ecx,%eax
    28e2:	5b                   	pop    %ebx
    28e3:	5e                   	pop    %esi
    28e4:	5f                   	pop    %edi
    28e5:	5d                   	pop    %ebp
    28e6:	c3                   	ret    
    28e7:	90                   	nop
    28e8:	83 ec 0c             	sub    $0xc,%esp
    28eb:	68 d0 75 00 00       	push   $0x75d0
    28f0:	e8 1b 35 00 00       	call   5e10 <fibril_mutex_unlock@plt>
    28f5:	83 c4 10             	add    $0x10,%esp
    28f8:	8d 65 f4             	lea    -0xc(%ebp),%esp
    28fb:	83 c9 ff             	or     $0xffffffff,%ecx
    28fe:	5b                   	pop    %ebx
    28ff:	89 c8                	mov    %ecx,%eax
    2901:	5e                   	pop    %esi
    2902:	5f                   	pop    %edi
    2903:	5d                   	pop    %ebp
    2904:	c3                   	ret    
    2905:	8d 76 00             	lea    0x0(%esi),%esi
    2908:	8b 7d d0             	mov    -0x30(%ebp),%edi
    290b:	83 ec 0c             	sub    $0xc,%esp
    290e:	56                   	push   %esi
    290f:	e8 8c 35 00 00       	call   5ea0 <hash_table_destroy@plt>
    2914:	c7 47 2c 00 00 00 00 	movl   $0x0,0x2c(%edi)
    291b:	8b 55 e0             	mov    -0x20(%ebp),%edx
    291e:	58                   	pop    %eax
    291f:	52                   	push   %edx
    2920:	e8 8b 35 00 00       	call   5eb0 <free@plt>
    2925:	83 c4 10             	add    $0x10,%esp
    2928:	8d 65 f4             	lea    -0xc(%ebp),%esp
    292b:	31 c9                	xor    %ecx,%ecx
    292d:	89 c8                	mov    %ecx,%eax
    292f:	5b                   	pop    %ebx
    2930:	5e                   	pop    %esi
    2931:	5f                   	pop    %edi
    2932:	5d                   	pop    %ebp
    2933:	c3                   	ret    
    2934:	31 c9                	xor    %ecx,%ecx
    2936:	eb a5                	jmp    28dd <block_cache_fini+0x14d>
    2938:	8b 45 e0             	mov    -0x20(%ebp),%eax
    293b:	8d 70 20             	lea    0x20(%eax),%esi
    293e:	eb cb                	jmp    290b <block_cache_fini+0x17b>

00002940 <block_fini>:
    2940:	55                   	push   %ebp
    2941:	89 e5                	mov    %esp,%ebp
    2943:	56                   	push   %esi
    2944:	53                   	push   %ebx
    2945:	83 ec 0c             	sub    $0xc,%esp
    2948:	8b 75 08             	mov    0x8(%ebp),%esi
    294b:	68 d0 75 00 00       	push   $0x75d0
    2950:	e8 6b 35 00 00       	call   5ec0 <fibril_mutex_lock@plt>
    2955:	8b 1d cc 75 00 00    	mov    0x75cc,%ebx
    295b:	83 c4 10             	add    $0x10,%esp
    295e:	81 fb c8 75 00 00    	cmp    $0x75c8,%ebx
    2964:	75 19                	jne    297f <block_fini+0x3f>
    2966:	e9 c5 00 00 00       	jmp    2a30 <block_fini+0xf0>
    296b:	90                   	nop
    296c:	8d 74 26 00          	lea    0x0(%esi,%eiz,1),%esi
    2970:	8b 5b 04             	mov    0x4(%ebx),%ebx
    2973:	81 fb c8 75 00 00    	cmp    $0x75c8,%ebx
    2979:	0f 84 b1 00 00 00    	je     2a30 <block_fini+0xf0>
    297f:	3b 73 08             	cmp    0x8(%ebx),%esi
    2982:	75 ec                	jne    2970 <block_fini+0x30>
    2984:	83 ec 0c             	sub    $0xc,%esp
    2987:	68 d0 75 00 00       	push   $0x75d0
    298c:	e8 7f 34 00 00       	call   5e10 <fibril_mutex_unlock@plt>
    2991:	8b 43 2c             	mov    0x2c(%ebx),%eax
    2994:	83 c4 10             	add    $0x10,%esp
    2997:	85 c0                	test   %eax,%eax
    2999:	74 0c                	je     29a7 <block_fini+0x67>
    299b:	83 ec 0c             	sub    $0xc,%esp
    299e:	56                   	push   %esi
    299f:	e8 ec fd ff ff       	call   2790 <block_cache_fini>
    29a4:	83 c4 10             	add    $0x10,%esp
    29a7:	6a 00                	push   $0x0
    29a9:	6a 00                	push   $0x0
    29ab:	6a 00                	push   $0x0
    29ad:	8b 73 10             	mov    0x10(%ebx),%esi
    29b0:	56                   	push   %esi
    29b1:	e8 aa 34 00 00       	call   5e60 <bd_sync_cache@plt>
    29b6:	c7 04 24 d0 75 00 00 	movl   $0x75d0,(%esp)
    29bd:	e8 fe 34 00 00       	call   5ec0 <fibril_mutex_lock@plt>
    29c2:	8b 13                	mov    (%ebx),%edx
    29c4:	83 c4 10             	add    $0x10,%esp
    29c7:	85 d2                	test   %edx,%edx
    29c9:	74 0e                	je     29d9 <block_fini+0x99>
    29cb:	8b 43 04             	mov    0x4(%ebx),%eax
    29ce:	85 c0                	test   %eax,%eax
    29d0:	74 07                	je     29d9 <block_fini+0x99>
    29d2:	89 10                	mov    %edx,(%eax)
    29d4:	8b 13                	mov    (%ebx),%edx
    29d6:	89 42 04             	mov    %eax,0x4(%edx)
    29d9:	83 ec 0c             	sub    $0xc,%esp
    29dc:	c7 03 00 00 00 00    	movl   $0x0,(%ebx)
    29e2:	c7 43 04 00 00 00 00 	movl   $0x0,0x4(%ebx)
    29e9:	68 d0 75 00 00       	push   $0x75d0
    29ee:	e8 1d 34 00 00       	call   5e10 <fibril_mutex_unlock@plt>
    29f3:	8b 43 14             	mov    0x14(%ebx),%eax
    29f6:	83 c4 10             	add    $0x10,%esp
    29f9:	85 c0                	test   %eax,%eax
    29fb:	74 0c                	je     2a09 <block_fini+0xc9>
    29fd:	83 ec 0c             	sub    $0xc,%esp
    2a00:	50                   	push   %eax
    2a01:	e8 aa 34 00 00       	call   5eb0 <free@plt>
    2a06:	83 c4 10             	add    $0x10,%esp
    2a09:	83 ec 0c             	sub    $0xc,%esp
    2a0c:	8b 43 10             	mov    0x10(%ebx),%eax
    2a0f:	50                   	push   %eax
    2a10:	e8 1b 33 00 00       	call   5d30 <bd_close@plt>
    2a15:	8b 4b 0c             	mov    0xc(%ebx),%ecx
    2a18:	5a                   	pop    %edx
    2a19:	51                   	push   %ecx
    2a1a:	e8 a1 32 00 00       	call   5cc0 <async_hangup@plt>
    2a1f:	89 5d 08             	mov    %ebx,0x8(%ebp)
    2a22:	83 c4 10             	add    $0x10,%esp
    2a25:	8d 65 f8             	lea    -0x8(%ebp),%esp
    2a28:	5b                   	pop    %ebx
    2a29:	5e                   	pop    %esi
    2a2a:	5d                   	pop    %ebp
    2a2b:	e9 80 34 00 00       	jmp    5eb0 <free@plt>
    2a30:	83 ec 0c             	sub    $0xc,%esp
    2a33:	68 d0 75 00 00       	push   $0x75d0
    2a38:	e8 d3 33 00 00       	call   5e10 <fibril_mutex_unlock@plt>
    2a3d:	83 c4 0c             	add    $0xc,%esp
    2a40:	68 bf 00 00 00       	push   $0xbf
    2a45:	68 0c 5a 00 00       	push   $0x5a0c
    2a4a:	68 14 5a 00 00       	push   $0x5a14
    2a4f:	e8 8c 33 00 00       	call   5de0 <assert_abort@plt>
    2a54:	8d b6 00 00 00 00    	lea    0x0(%esi),%esi
    2a5a:	8d bf 00 00 00 00    	lea    0x0(%edi),%edi

00002a60 <block_put>:
    2a60:	55                   	push   %ebp
    2a61:	89 e5                	mov    %esp,%ebp
    2a63:	57                   	push   %edi
    2a64:	56                   	push   %esi
    2a65:	53                   	push   %ebx
    2a66:	83 ec 28             	sub    $0x28,%esp
    2a69:	8b 7d 08             	mov    0x8(%ebp),%edi
    2a6c:	8b 5f 2c             	mov    0x2c(%edi),%ebx
    2a6f:	68 d0 75 00 00       	push   $0x75d0
    2a74:	e8 47 34 00 00       	call   5ec0 <fibril_mutex_lock@plt>
    2a79:	8b 35 cc 75 00 00    	mov    0x75cc,%esi
    2a7f:	83 c4 10             	add    $0x10,%esp
    2a82:	81 fe c8 75 00 00    	cmp    $0x75c8,%esi
    2a88:	75 15                	jne    2a9f <block_put+0x3f>
    2a8a:	e9 c1 01 00 00       	jmp    2c50 <block_put+0x1f0>
    2a8f:	90                   	nop
    2a90:	8b 76 04             	mov    0x4(%esi),%esi
    2a93:	81 fe c8 75 00 00    	cmp    $0x75c8,%esi
    2a99:	0f 84 b1 01 00 00    	je     2c50 <block_put+0x1f0>
    2a9f:	3b 5e 08             	cmp    0x8(%esi),%ebx
    2aa2:	75 ec                	jne    2a90 <block_put+0x30>
    2aa4:	83 ec 0c             	sub    $0xc,%esp
    2aa7:	68 d0 75 00 00       	push   $0x75d0
    2aac:	e8 5f 33 00 00       	call   5e10 <fibril_mutex_unlock@plt>
    2ab1:	8b 5e 2c             	mov    0x2c(%esi),%ebx
    2ab4:	83 c4 10             	add    $0x10,%esp
    2ab7:	85 db                	test   %ebx,%ebx
    2ab9:	0f 84 6b 02 00 00    	je     2d2a <block_put+0x2ca>
    2abf:	8b 47 10             	mov    0x10(%edi),%eax
    2ac2:	85 c0                	test   %eax,%eax
    2ac4:	0f 84 75 02 00 00    	je     2d3f <block_put+0x2df>
    2aca:	c7 45 e4 00 00 00 00 	movl   $0x0,-0x1c(%ebp)
    2ad1:	89 75 e0             	mov    %esi,-0x20(%ebp)
    2ad4:	8d 74 26 00          	lea    0x0(%esi,%eiz,1),%esi
    2ad8:	83 ec 0c             	sub    $0xc,%esp
    2adb:	53                   	push   %ebx
    2adc:	e8 df 33 00 00       	call   5ec0 <fibril_mutex_lock@plt>
    2ae1:	8b 43 44             	mov    0x44(%ebx),%eax
    2ae4:	8b 73 1c             	mov    0x1c(%ebx),%esi
    2ae7:	89 45 d8             	mov    %eax,-0x28(%ebp)
    2aea:	89 1c 24             	mov    %ebx,(%esp)
    2aed:	e8 1e 33 00 00       	call   5e10 <fibril_mutex_unlock@plt>
    2af2:	89 3c 24             	mov    %edi,(%esp)
    2af5:	e8 c6 33 00 00       	call   5ec0 <fibril_mutex_lock@plt>
    2afa:	83 c4 10             	add    $0x10,%esp
    2afd:	80 7f 15 00          	cmpb   $0x0,0x15(%edi)
    2b01:	0f 85 39 01 00 00    	jne    2c40 <block_put+0x1e0>
    2b07:	80 7f 14 00          	cmpb   $0x0,0x14(%edi)
    2b0b:	74 0a                	je     2b17 <block_put+0xb7>
    2b0d:	83 7f 10 01          	cmpl   $0x1,0x10(%edi)
    2b11:	0f 84 b9 00 00 00    	je     2bd0 <block_put+0x170>
    2b17:	83 ec 0c             	sub    $0xc,%esp
    2b1a:	57                   	push   %edi
    2b1b:	e8 f0 32 00 00       	call   5e10 <fibril_mutex_unlock@plt>
    2b20:	89 1c 24             	mov    %ebx,(%esp)
    2b23:	e8 98 33 00 00       	call   5ec0 <fibril_mutex_lock@plt>
    2b28:	89 3c 24             	mov    %edi,(%esp)
    2b2b:	e8 90 33 00 00       	call   5ec0 <fibril_mutex_lock@plt>
    2b30:	8b 47 10             	mov    0x10(%edi),%eax
    2b33:	83 c4 10             	add    $0x10,%esp
    2b36:	48                   	dec    %eax
    2b37:	89 47 10             	mov    %eax,0x10(%edi)
    2b3a:	85 c0                	test   %eax,%eax
    2b3c:	0f 85 51 01 00 00    	jne    2c93 <block_put+0x233>
    2b42:	83 7b 1c 14          	cmpl   $0x14,0x1c(%ebx)
    2b46:	77 48                	ja     2b90 <block_put+0x130>
    2b48:	8b 45 e4             	mov    -0x1c(%ebp),%eax
    2b4b:	85 c0                	test   %eax,%eax
    2b4d:	75 41                	jne    2b90 <block_put+0x130>
    2b4f:	83 7b 44 01          	cmpl   $0x1,0x44(%ebx)
    2b53:	0f 84 1b 01 00 00    	je     2c74 <block_put+0x214>
    2b59:	80 7f 14 00          	cmpb   $0x0,0x14(%edi)
    2b5d:	0f 84 11 01 00 00    	je     2c74 <block_put+0x214>
    2b63:	83 ec 0c             	sub    $0xc,%esp
    2b66:	c7 47 10 01 00 00 00 	movl   $0x1,0x10(%edi)
    2b6d:	57                   	push   %edi
    2b6e:	e8 9d 32 00 00       	call   5e10 <fibril_mutex_unlock@plt>
    2b73:	89 1c 24             	mov    %ebx,(%esp)
    2b76:	e8 95 32 00 00       	call   5e10 <fibril_mutex_unlock@plt>
    2b7b:	83 c4 10             	add    $0x10,%esp
    2b7e:	c7 45 e4 00 00 00 00 	movl   $0x0,-0x1c(%ebp)
    2b85:	e9 4e ff ff ff       	jmp    2ad8 <block_put+0x78>
    2b8a:	8d b6 00 00 00 00    	lea    0x0(%esi),%esi
    2b90:	80 7f 14 00          	cmpb   $0x0,0x14(%edi)
    2b94:	0f 84 4a 01 00 00    	je     2ce4 <block_put+0x284>
    2b9a:	8b 47 44             	mov    0x44(%edi),%eax
    2b9d:	c7 47 10 01 00 00 00 	movl   $0x1,0x10(%edi)
    2ba4:	83 f8 09             	cmp    $0x9,%eax
    2ba7:	0f 8f 1b 01 00 00    	jg     2cc8 <block_put+0x268>
    2bad:	83 ec 0c             	sub    $0xc,%esp
    2bb0:	40                   	inc    %eax
    2bb1:	89 47 44             	mov    %eax,0x44(%edi)
    2bb4:	57                   	push   %edi
    2bb5:	e8 56 32 00 00       	call   5e10 <fibril_mutex_unlock@plt>
    2bba:	89 1c 24             	mov    %ebx,(%esp)
    2bbd:	e8 4e 32 00 00       	call   5e10 <fibril_mutex_unlock@plt>
    2bc2:	83 c4 10             	add    $0x10,%esp
    2bc5:	e9 0e ff ff ff       	jmp    2ad8 <block_put+0x78>
    2bca:	8d b6 00 00 00 00    	lea    0x0(%esi),%esi
    2bd0:	83 fe 14             	cmp    $0x14,%esi
    2bd3:	77 0a                	ja     2bdf <block_put+0x17f>
    2bd5:	83 7d d8 01          	cmpl   $0x1,-0x28(%ebp)
    2bd9:	0f 84 38 ff ff ff    	je     2b17 <block_put+0xb7>
    2bdf:	8b 47 38             	mov    0x38(%edi),%eax
    2be2:	8b 57 3c             	mov    0x3c(%edi),%edx
    2be5:	8b 73 14             	mov    0x14(%ebx),%esi
    2be8:	51                   	push   %ecx
    2be9:	51                   	push   %ecx
    2bea:	89 45 d8             	mov    %eax,-0x28(%ebp)
    2bed:	8b 4f 40             	mov    0x40(%edi),%ecx
    2bf0:	89 55 dc             	mov    %edx,-0x24(%ebp)
    2bf3:	51                   	push   %ecx
    2bf4:	8b 4f 58             	mov    0x58(%edi),%ecx
    2bf7:	51                   	push   %ecx
    2bf8:	56                   	push   %esi
    2bf9:	52                   	push   %edx
    2bfa:	50                   	push   %eax
    2bfb:	8b 45 e0             	mov    -0x20(%ebp),%eax
    2bfe:	8b 40 10             	mov    0x10(%eax),%eax
    2c01:	50                   	push   %eax
    2c02:	e8 09 31 00 00       	call   5d10 <bd_write_blocks@plt>
    2c07:	83 c4 20             	add    $0x20,%esp
    2c0a:	89 45 e4             	mov    %eax,-0x1c(%ebp)
    2c0d:	85 c0                	test   %eax,%eax
    2c0f:	0f 84 a3 00 00 00    	je     2cb8 <block_put+0x258>
    2c15:	50                   	push   %eax
    2c16:	50                   	push   %eax
    2c17:	8b 45 e0             	mov    -0x20(%ebp),%eax
    2c1a:	8b 55 dc             	mov    -0x24(%ebp),%edx
    2c1d:	8b 4d d8             	mov    -0x28(%ebp),%ecx
    2c20:	8b 40 08             	mov    0x8(%eax),%eax
    2c23:	50                   	push   %eax
    2c24:	52                   	push   %edx
    2c25:	51                   	push   %ecx
    2c26:	56                   	push   %esi
    2c27:	8b 75 e4             	mov    -0x1c(%ebp),%esi
    2c2a:	56                   	push   %esi
    2c2b:	68 a8 5a 00 00       	push   $0x5aa8
    2c30:	e8 7b 30 00 00       	call   5cb0 <printf@plt>
    2c35:	83 c4 20             	add    $0x20,%esp
    2c38:	e8 43 31 00 00       	call   5d80 <stacktrace_print@plt>
    2c3d:	8d 76 00             	lea    0x0(%esi),%esi
    2c40:	c6 47 14 00          	movb   $0x0,0x14(%edi)
    2c44:	e9 ce fe ff ff       	jmp    2b17 <block_put+0xb7>
    2c49:	8d b4 26 00 00 00 00 	lea    0x0(%esi,%eiz,1),%esi
    2c50:	83 ec 0c             	sub    $0xc,%esp
    2c53:	68 d0 75 00 00       	push   $0x75d0
    2c58:	e8 b3 31 00 00       	call   5e10 <fibril_mutex_unlock@plt>
    2c5d:	83 c4 0c             	add    $0xc,%esp
    2c60:	68 4c 02 00 00       	push   $0x24c
    2c65:	68 0c 5a 00 00       	push   $0x5a0c
    2c6a:	68 14 5a 00 00       	push   $0x5a14
    2c6f:	e8 6c 31 00 00       	call   5de0 <assert_abort@plt>
    2c74:	8d 4b 3c             	lea    0x3c(%ebx),%ecx
    2c77:	8d 47 48             	lea    0x48(%edi),%eax
    2c7a:	89 4f 4c             	mov    %ecx,0x4c(%edi)
    2c7d:	8b 4b 3c             	mov    0x3c(%ebx),%ecx
    2c80:	89 4f 48             	mov    %ecx,0x48(%edi)
    2c83:	c7 45 e4 00 00 00 00 	movl   $0x0,-0x1c(%ebp)
    2c8a:	8b 4b 3c             	mov    0x3c(%ebx),%ecx
    2c8d:	89 41 04             	mov    %eax,0x4(%ecx)
    2c90:	89 43 3c             	mov    %eax,0x3c(%ebx)
    2c93:	83 ec 0c             	sub    $0xc,%esp
    2c96:	57                   	push   %edi
    2c97:	e8 74 31 00 00       	call   5e10 <fibril_mutex_unlock@plt>
    2c9c:	89 1c 24             	mov    %ebx,(%esp)
    2c9f:	e8 6c 31 00 00       	call   5e10 <fibril_mutex_unlock@plt>
    2ca4:	8b 45 e4             	mov    -0x1c(%ebp),%eax
    2ca7:	83 c4 10             	add    $0x10,%esp
    2caa:	8d 65 f4             	lea    -0xc(%ebp),%esp
    2cad:	5b                   	pop    %ebx
    2cae:	5e                   	pop    %esi
    2caf:	5f                   	pop    %edi
    2cb0:	5d                   	pop    %ebp
    2cb1:	c3                   	ret    
    2cb2:	8d b6 00 00 00 00    	lea    0x0(%esi),%esi
    2cb8:	c7 47 44 00 00 00 00 	movl   $0x0,0x44(%edi)
    2cbf:	c6 47 14 00          	movb   $0x0,0x14(%edi)
    2cc3:	e9 4f fe ff ff       	jmp    2b17 <block_put+0xb7>
    2cc8:	8b 75 e0             	mov    -0x20(%ebp),%esi
    2ccb:	8b 46 08             	mov    0x8(%esi),%eax
    2cce:	50                   	push   %eax
    2ccf:	8b 47 34             	mov    0x34(%edi),%eax
    2cd2:	50                   	push   %eax
    2cd3:	8b 47 30             	mov    0x30(%edi),%eax
    2cd6:	50                   	push   %eax
    2cd7:	68 f0 5a 00 00       	push   $0x5af0
    2cdc:	e8 cf 2f 00 00       	call   5cb0 <printf@plt>
    2ce1:	83 c4 10             	add    $0x10,%esp
    2ce4:	50                   	push   %eax
    2ce5:	50                   	push   %eax
    2ce6:	8d 47 50             	lea    0x50(%edi),%eax
    2ce9:	50                   	push   %eax
    2cea:	8d 43 20             	lea    0x20(%ebx),%eax
    2ced:	50                   	push   %eax
    2cee:	e8 3d 31 00 00       	call   5e30 <hash_table_remove_item@plt>
    2cf3:	89 3c 24             	mov    %edi,(%esp)
    2cf6:	e8 15 31 00 00       	call   5e10 <fibril_mutex_unlock@plt>
    2cfb:	8b 4f 58             	mov    0x58(%edi),%ecx
    2cfe:	5a                   	pop    %edx
    2cff:	51                   	push   %ecx
    2d00:	e8 ab 31 00 00       	call   5eb0 <free@plt>
    2d05:	89 3c 24             	mov    %edi,(%esp)
    2d08:	e8 a3 31 00 00       	call   5eb0 <free@plt>
    2d0d:	8b 73 1c             	mov    0x1c(%ebx),%esi
    2d10:	4e                   	dec    %esi
    2d11:	89 73 1c             	mov    %esi,0x1c(%ebx)
    2d14:	89 1c 24             	mov    %ebx,(%esp)
    2d17:	e8 f4 30 00 00       	call   5e10 <fibril_mutex_unlock@plt>
    2d1c:	8b 45 e4             	mov    -0x1c(%ebp),%eax
    2d1f:	83 c4 10             	add    $0x10,%esp
    2d22:	8d 65 f4             	lea    -0xc(%ebp),%esp
    2d25:	5b                   	pop    %ebx
    2d26:	5e                   	pop    %esi
    2d27:	5f                   	pop    %edi
    2d28:	5d                   	pop    %ebp
    2d29:	c3                   	ret    
    2d2a:	50                   	push   %eax
    2d2b:	68 4d 02 00 00       	push   $0x24d
    2d30:	68 0c 5a 00 00       	push   $0x5a0c
    2d35:	68 1b 5a 00 00       	push   $0x5a1b
    2d3a:	e8 a1 30 00 00       	call   5de0 <assert_abort@plt>
    2d3f:	50                   	push   %eax
    2d40:	68 4e 02 00 00       	push   $0x24e
    2d45:	68 0c 5a 00 00       	push   $0x5a0c
    2d4a:	68 29 5a 00 00       	push   $0x5a29
    2d4f:	e8 8c 30 00 00       	call   5de0 <assert_abort@plt>
    2d54:	8d b6 00 00 00 00    	lea    0x0(%esi),%esi
    2d5a:	8d bf 00 00 00 00    	lea    0x0(%edi),%edi

00002d60 <block_get>:
    2d60:	55                   	push   %ebp
    2d61:	89 e5                	mov    %esp,%ebp
    2d63:	57                   	push   %edi
    2d64:	56                   	push   %esi
    2d65:	53                   	push   %ebx
    2d66:	83 ec 48             	sub    $0x48,%esp
    2d69:	8b 45 10             	mov    0x10(%ebp),%eax
    2d6c:	89 45 e0             	mov    %eax,-0x20(%ebp)
    2d6f:	8b 45 14             	mov    0x14(%ebp),%eax
    2d72:	68 d0 75 00 00       	push   $0x75d0
    2d77:	89 45 e4             	mov    %eax,-0x1c(%ebp)
    2d7a:	e8 41 31 00 00       	call   5ec0 <fibril_mutex_lock@plt>
    2d7f:	8b 35 cc 75 00 00    	mov    0x75cc,%esi
    2d85:	83 c4 10             	add    $0x10,%esp
    2d88:	81 fe c8 75 00 00    	cmp    $0x75c8,%esi
    2d8e:	74 20                	je     2db0 <block_get+0x50>
    2d90:	8b 46 08             	mov    0x8(%esi),%eax
    2d93:	39 45 0c             	cmp    %eax,0xc(%ebp)
    2d96:	74 40                	je     2dd8 <block_get+0x78>
    2d98:	8b 45 0c             	mov    0xc(%ebp),%eax
    2d9b:	eb 08                	jmp    2da5 <block_get+0x45>
    2d9d:	8d 76 00             	lea    0x0(%esi),%esi
    2da0:	3b 46 08             	cmp    0x8(%esi),%eax
    2da3:	74 33                	je     2dd8 <block_get+0x78>
    2da5:	8b 76 04             	mov    0x4(%esi),%esi
    2da8:	81 fe c8 75 00 00    	cmp    $0x75c8,%esi
    2dae:	75 f0                	jne    2da0 <block_get+0x40>
    2db0:	83 ec 0c             	sub    $0xc,%esp
    2db3:	68 d0 75 00 00       	push   $0x75d0
    2db8:	e8 53 30 00 00       	call   5e10 <fibril_mutex_unlock@plt>
    2dbd:	83 c4 0c             	add    $0xc,%esp
    2dc0:	68 8a 01 00 00       	push   $0x18a
    2dc5:	68 0c 5a 00 00       	push   $0x5a0c
    2dca:	68 14 5a 00 00       	push   $0x5a14
    2dcf:	e8 0c 30 00 00       	call   5de0 <assert_abort@plt>
    2dd4:	8d 74 26 00          	lea    0x0(%esi,%eiz,1),%esi
    2dd8:	83 ec 0c             	sub    $0xc,%esp
    2ddb:	68 d0 75 00 00       	push   $0x75d0
    2de0:	e8 2b 30 00 00       	call   5e10 <fibril_mutex_unlock@plt>
    2de5:	8b 5e 2c             	mov    0x2c(%esi),%ebx
    2de8:	83 c4 10             	add    $0x10,%esp
    2deb:	85 db                	test   %ebx,%ebx
    2ded:	0f 84 a5 04 00 00    	je     3298 <block_get+0x538>
    2df3:	8b 43 14             	mov    0x14(%ebx),%eax
    2df6:	8b 4d e4             	mov    -0x1c(%ebp),%ecx
    2df9:	89 45 d8             	mov    %eax,-0x28(%ebp)
    2dfc:	31 d2                	xor    %edx,%edx
    2dfe:	0f af c8             	imul   %eax,%ecx
    2e01:	8b 45 d8             	mov    -0x28(%ebp),%eax
    2e04:	89 55 dc             	mov    %edx,-0x24(%ebp)
    2e07:	f7 65 e0             	mull   -0x20(%ebp)
    2e0a:	01 ca                	add    %ecx,%edx
    2e0c:	03 45 d8             	add    -0x28(%ebp),%eax
    2e0f:	13 55 dc             	adc    -0x24(%ebp),%edx
    2e12:	3b 56 24             	cmp    0x24(%esi),%edx
    2e15:	76 19                	jbe    2e30 <block_get+0xd0>
    2e17:	c7 45 d8 f6 fe ff ff 	movl   $0xfffffef6,-0x28(%ebp)
    2e1e:	8b 45 d8             	mov    -0x28(%ebp),%eax
    2e21:	8d 65 f4             	lea    -0xc(%ebp),%esp
    2e24:	5b                   	pop    %ebx
    2e25:	5e                   	pop    %esi
    2e26:	5f                   	pop    %edi
    2e27:	5d                   	pop    %ebp
    2e28:	c3                   	ret    
    2e29:	8d b4 26 00 00 00 00 	lea    0x0(%esi,%eiz,1),%esi
    2e30:	0f 83 f2 01 00 00    	jae    3028 <block_get+0x2c8>
    2e36:	8d 43 20             	lea    0x20(%ebx),%eax
    2e39:	89 75 c8             	mov    %esi,-0x38(%ebp)
    2e3c:	89 45 d0             	mov    %eax,-0x30(%ebp)
    2e3f:	8d 43 3c             	lea    0x3c(%ebx),%eax
    2e42:	89 45 d8             	mov    %eax,-0x28(%ebp)
    2e45:	8d 76 00             	lea    0x0(%esi),%esi
    2e48:	83 ec 0c             	sub    $0xc,%esp
    2e4b:	53                   	push   %ebx
    2e4c:	e8 6f 30 00 00       	call   5ec0 <fibril_mutex_lock@plt>
    2e51:	58                   	pop    %eax
    2e52:	8b 4d d0             	mov    -0x30(%ebp),%ecx
    2e55:	8d 45 e0             	lea    -0x20(%ebp),%eax
    2e58:	5a                   	pop    %edx
    2e59:	50                   	push   %eax
    2e5a:	51                   	push   %ecx
    2e5b:	e8 10 30 00 00       	call   5e70 <hash_table_find@plt>
    2e60:	83 c4 10             	add    $0x10,%esp
    2e63:	85 c0                	test   %eax,%eax
    2e65:	0f 85 cd 01 00 00    	jne    3038 <block_get+0x2d8>
    2e6b:	83 7b 1c 09          	cmpl   $0x9,0x1c(%ebx)
    2e6f:	0f 86 d3 00 00 00    	jbe    2f48 <block_get+0x1e8>
    2e75:	8b 73 40             	mov    0x40(%ebx),%esi
    2e78:	3b 75 d8             	cmp    -0x28(%ebp),%esi
    2e7b:	0f 84 c7 00 00 00    	je     2f48 <block_get+0x1e8>
    2e81:	83 ec 0c             	sub    $0xc,%esp
    2e84:	8d 7e b8             	lea    -0x48(%esi),%edi
    2e87:	57                   	push   %edi
    2e88:	e8 33 30 00 00       	call   5ec0 <fibril_mutex_lock@plt>
    2e8d:	83 c4 10             	add    $0x10,%esp
    2e90:	80 7f 14 00          	cmpb   $0x0,0x14(%edi)
    2e94:	0f 84 1e 02 00 00    	je     30b8 <block_get+0x358>
    2e9a:	8b 4f 48             	mov    0x48(%edi),%ecx
    2e9d:	85 c9                	test   %ecx,%ecx
    2e9f:	74 0f                	je     2eb0 <block_get+0x150>
    2ea1:	8b 47 4c             	mov    0x4c(%edi),%eax
    2ea4:	85 c0                	test   %eax,%eax
    2ea6:	74 08                	je     2eb0 <block_get+0x150>
    2ea8:	89 08                	mov    %ecx,(%eax)
    2eaa:	8b 4f 48             	mov    0x48(%edi),%ecx
    2ead:	89 41 04             	mov    %eax,0x4(%ecx)
    2eb0:	c7 47 48 00 00 00 00 	movl   $0x0,0x48(%edi)
    2eb7:	8b 45 d8             	mov    -0x28(%ebp),%eax
    2eba:	89 47 4c             	mov    %eax,0x4c(%edi)
    2ebd:	8b 43 3c             	mov    0x3c(%ebx),%eax
    2ec0:	89 47 48             	mov    %eax,0x48(%edi)
    2ec3:	83 ec 0c             	sub    $0xc,%esp
    2ec6:	8b 43 3c             	mov    0x3c(%ebx),%eax
    2ec9:	89 70 04             	mov    %esi,0x4(%eax)
    2ecc:	89 73 3c             	mov    %esi,0x3c(%ebx)
    2ecf:	53                   	push   %ebx
    2ed0:	e8 3b 2f 00 00       	call   5e10 <fibril_mutex_unlock@plt>
    2ed5:	83 c4 08             	add    $0x8,%esp
    2ed8:	8b 77 40             	mov    0x40(%edi),%esi
    2edb:	8b 4b 14             	mov    0x14(%ebx),%ecx
    2ede:	8b 47 38             	mov    0x38(%edi),%eax
    2ee1:	8b 57 3c             	mov    0x3c(%edi),%edx
    2ee4:	56                   	push   %esi
    2ee5:	8b 77 58             	mov    0x58(%edi),%esi
    2ee8:	89 45 c0             	mov    %eax,-0x40(%ebp)
    2eeb:	56                   	push   %esi
    2eec:	51                   	push   %ecx
    2eed:	52                   	push   %edx
    2eee:	50                   	push   %eax
    2eef:	8b 45 c8             	mov    -0x38(%ebp),%eax
    2ef2:	89 4d d4             	mov    %ecx,-0x2c(%ebp)
    2ef5:	89 55 c4             	mov    %edx,-0x3c(%ebp)
    2ef8:	8b 40 10             	mov    0x10(%eax),%eax
    2efb:	50                   	push   %eax
    2efc:	e8 0f 2e 00 00       	call   5d10 <bd_write_blocks@plt>
    2f01:	83 c4 20             	add    $0x20,%esp
    2f04:	89 c6                	mov    %eax,%esi
    2f06:	85 c0                	test   %eax,%eax
    2f08:	8b 4d d4             	mov    -0x2c(%ebp),%ecx
    2f0b:	0f 85 a7 00 00 00    	jne    2fb8 <block_get+0x258>
    2f11:	c7 47 44 00 00 00 00 	movl   $0x0,0x44(%edi)
    2f18:	83 ec 0c             	sub    $0xc,%esp
    2f1b:	c6 47 14 00          	movb   $0x0,0x14(%edi)
    2f1f:	53                   	push   %ebx
    2f20:	e8 ab 2e 00 00       	call   5dd0 <fibril_mutex_trylock@plt>
    2f25:	83 c4 10             	add    $0x10,%esp
    2f28:	84 c0                	test   %al,%al
    2f2a:	0f 85 b7 02 00 00    	jne    31e7 <block_get+0x487>
    2f30:	83 ec 0c             	sub    $0xc,%esp
    2f33:	57                   	push   %edi
    2f34:	e8 d7 2e 00 00       	call   5e10 <fibril_mutex_unlock@plt>
    2f39:	83 c4 10             	add    $0x10,%esp
    2f3c:	e9 07 ff ff ff       	jmp    2e48 <block_get+0xe8>
    2f41:	8d b4 26 00 00 00 00 	lea    0x0(%esi,%eiz,1),%esi
    2f48:	83 ec 0c             	sub    $0xc,%esp
    2f4b:	6a 5c                	push   $0x5c
    2f4d:	e8 fe 2d 00 00       	call   5d50 <malloc@plt>
    2f52:	83 c4 10             	add    $0x10,%esp
    2f55:	89 c7                	mov    %eax,%edi
    2f57:	85 c0                	test   %eax,%eax
    2f59:	74 26                	je     2f81 <block_get+0x221>
    2f5b:	83 ec 0c             	sub    $0xc,%esp
    2f5e:	8b 43 10             	mov    0x10(%ebx),%eax
    2f61:	50                   	push   %eax
    2f62:	e8 e9 2d 00 00       	call   5d50 <malloc@plt>
    2f67:	83 c4 10             	add    $0x10,%esp
    2f6a:	89 47 58             	mov    %eax,0x58(%edi)
    2f6d:	85 c0                	test   %eax,%eax
    2f6f:	0f 85 14 03 00 00    	jne    3289 <block_get+0x529>
    2f75:	83 ec 0c             	sub    $0xc,%esp
    2f78:	57                   	push   %edi
    2f79:	e8 32 2f 00 00       	call   5eb0 <free@plt>
    2f7e:	83 c4 10             	add    $0x10,%esp
    2f81:	8b 73 40             	mov    0x40(%ebx),%esi
    2f84:	3b 75 d8             	cmp    -0x28(%ebp),%esi
    2f87:	0f 85 f4 fe ff ff    	jne    2e81 <block_get+0x121>
    2f8d:	83 ec 0c             	sub    $0xc,%esp
    2f90:	31 ff                	xor    %edi,%edi
    2f92:	53                   	push   %ebx
    2f93:	e8 78 2e 00 00       	call   5e10 <fibril_mutex_unlock@plt>
    2f98:	83 c4 10             	add    $0x10,%esp
    2f9b:	c7 45 d8 fe ff ff ff 	movl   $0xfffffffe,-0x28(%ebp)
    2fa2:	8b 45 08             	mov    0x8(%ebp),%eax
    2fa5:	89 38                	mov    %edi,(%eax)
    2fa7:	8b 45 d8             	mov    -0x28(%ebp),%eax
    2faa:	8d 65 f4             	lea    -0xc(%ebp),%esp
    2fad:	5b                   	pop    %ebx
    2fae:	5e                   	pop    %esi
    2faf:	5f                   	pop    %edi
    2fb0:	5d                   	pop    %ebp
    2fb1:	c3                   	ret    
    2fb2:	8d b6 00 00 00 00    	lea    0x0(%esi),%esi
    2fb8:	50                   	push   %eax
    2fb9:	50                   	push   %eax
    2fba:	8b 45 c8             	mov    -0x38(%ebp),%eax
    2fbd:	8b 55 c0             	mov    -0x40(%ebp),%edx
    2fc0:	8b 40 08             	mov    0x8(%eax),%eax
    2fc3:	50                   	push   %eax
    2fc4:	8b 45 c4             	mov    -0x3c(%ebp),%eax
    2fc7:	50                   	push   %eax
    2fc8:	52                   	push   %edx
    2fc9:	51                   	push   %ecx
    2fca:	56                   	push   %esi
    2fcb:	68 a8 5a 00 00       	push   $0x5aa8
    2fd0:	e8 db 2c 00 00       	call   5cb0 <printf@plt>
    2fd5:	83 c4 20             	add    $0x20,%esp
    2fd8:	e8 a3 2d 00 00       	call   5d80 <stacktrace_print@plt>
    2fdd:	8b 47 44             	mov    0x44(%edi),%eax
    2fe0:	83 f8 09             	cmp    $0x9,%eax
    2fe3:	7f 1b                	jg     3000 <block_get+0x2a0>
    2fe5:	83 ec 0c             	sub    $0xc,%esp
    2fe8:	40                   	inc    %eax
    2fe9:	89 47 44             	mov    %eax,0x44(%edi)
    2fec:	57                   	push   %edi
    2fed:	e8 1e 2e 00 00       	call   5e10 <fibril_mutex_unlock@plt>
    2ff2:	83 c4 10             	add    $0x10,%esp
    2ff5:	e9 4e fe ff ff       	jmp    2e48 <block_get+0xe8>
    2ffa:	8d b6 00 00 00 00    	lea    0x0(%esi),%esi
    3000:	8b 45 c8             	mov    -0x38(%ebp),%eax
    3003:	8b 40 08             	mov    0x8(%eax),%eax
    3006:	50                   	push   %eax
    3007:	8b 47 34             	mov    0x34(%edi),%eax
    300a:	50                   	push   %eax
    300b:	8b 47 30             	mov    0x30(%edi),%eax
    300e:	50                   	push   %eax
    300f:	68 f0 5a 00 00       	push   $0x5af0
    3014:	e8 97 2c 00 00       	call   5cb0 <printf@plt>
    3019:	83 c4 10             	add    $0x10,%esp
    301c:	e9 f7 fe ff ff       	jmp    2f18 <block_get+0x1b8>
    3021:	8d b4 26 00 00 00 00 	lea    0x0(%esi,%eiz,1),%esi
    3028:	3b 46 20             	cmp    0x20(%esi),%eax
    302b:	0f 83 e6 fd ff ff    	jae    2e17 <block_get+0xb7>
    3031:	e9 00 fe ff ff       	jmp    2e36 <block_get+0xd6>
    3036:	66 90                	xchg   %ax,%ax
    3038:	c7 45 d8 00 00 00 00 	movl   $0x0,-0x28(%ebp)
    303f:	8d 78 b0             	lea    -0x50(%eax),%edi
    3042:	83 ec 0c             	sub    $0xc,%esp
    3045:	57                   	push   %edi
    3046:	e8 75 2e 00 00       	call   5ec0 <fibril_mutex_lock@plt>
    304b:	8b 47 10             	mov    0x10(%edi),%eax
    304e:	83 c4 10             	add    $0x10,%esp
    3051:	85 c0                	test   %eax,%eax
    3053:	8d 50 01             	lea    0x1(%eax),%edx
    3056:	89 57 10             	mov    %edx,0x10(%edi)
    3059:	75 24                	jne    307f <block_get+0x31f>
    305b:	8b 57 48             	mov    0x48(%edi),%edx
    305e:	85 d2                	test   %edx,%edx
    3060:	74 0f                	je     3071 <block_get+0x311>
    3062:	8b 47 4c             	mov    0x4c(%edi),%eax
    3065:	85 c0                	test   %eax,%eax
    3067:	74 08                	je     3071 <block_get+0x311>
    3069:	89 10                	mov    %edx,(%eax)
    306b:	8b 57 48             	mov    0x48(%edi),%edx
    306e:	89 42 04             	mov    %eax,0x4(%edx)
    3071:	c7 47 48 00 00 00 00 	movl   $0x0,0x48(%edi)
    3078:	c7 47 4c 00 00 00 00 	movl   $0x0,0x4c(%edi)
    307f:	8a 47 15             	mov    0x15(%edi),%al
    3082:	84 c0                	test   %al,%al
    3084:	0f 85 51 01 00 00    	jne    31db <block_get+0x47b>
    308a:	8b 45 d8             	mov    -0x28(%ebp),%eax
    308d:	85 c0                	test   %eax,%eax
    308f:	0f 95 c0             	setne  %al
    3092:	83 ec 0c             	sub    $0xc,%esp
    3095:	88 45 d4             	mov    %al,-0x2c(%ebp)
    3098:	57                   	push   %edi
    3099:	e8 72 2d 00 00       	call   5e10 <fibril_mutex_unlock@plt>
    309e:	89 1c 24             	mov    %ebx,(%esp)
    30a1:	e8 6a 2d 00 00       	call   5e10 <fibril_mutex_unlock@plt>
    30a6:	83 c4 10             	add    $0x10,%esp
    30a9:	8a 45 d4             	mov    -0x2c(%ebp),%al
    30ac:	e9 05 01 00 00       	jmp    31b6 <block_get+0x456>
    30b1:	8d b4 26 00 00 00 00 	lea    0x0(%esi,%eiz,1),%esi
    30b8:	8b 75 c8             	mov    -0x38(%ebp),%esi
    30bb:	83 ec 0c             	sub    $0xc,%esp
    30be:	57                   	push   %edi
    30bf:	e8 4c 2d 00 00       	call   5e10 <fibril_mutex_unlock@plt>
    30c4:	8b 57 48             	mov    0x48(%edi),%edx
    30c7:	83 c4 10             	add    $0x10,%esp
    30ca:	85 d2                	test   %edx,%edx
    30cc:	74 0f                	je     30dd <block_get+0x37d>
    30ce:	8b 47 4c             	mov    0x4c(%edi),%eax
    30d1:	85 c0                	test   %eax,%eax
    30d3:	74 08                	je     30dd <block_get+0x37d>
    30d5:	89 10                	mov    %edx,(%eax)
    30d7:	8b 57 48             	mov    0x48(%edi),%edx
    30da:	89 42 04             	mov    %eax,0x4(%edx)
    30dd:	c7 47 48 00 00 00 00 	movl   $0x0,0x48(%edi)
    30e4:	c7 47 4c 00 00 00 00 	movl   $0x0,0x4c(%edi)
    30eb:	50                   	push   %eax
    30ec:	50                   	push   %eax
    30ed:	8d 47 50             	lea    0x50(%edi),%eax
    30f0:	50                   	push   %eax
    30f1:	8b 45 d0             	mov    -0x30(%ebp),%eax
    30f4:	50                   	push   %eax
    30f5:	e8 36 2d 00 00       	call   5e30 <hash_table_remove_item@plt>
    30fa:	83 c4 10             	add    $0x10,%esp
    30fd:	83 ec 0c             	sub    $0xc,%esp
    3100:	57                   	push   %edi
    3101:	e8 1a 2d 00 00       	call   5e20 <fibril_mutex_initialize@plt>
    3106:	8d 47 18             	lea    0x18(%edi),%eax
    3109:	c7 47 10 01 00 00 00 	movl   $0x1,0x10(%edi)
    3110:	c7 47 44 00 00 00 00 	movl   $0x0,0x44(%edi)
    3117:	c6 47 14 00          	movb   $0x0,0x14(%edi)
    311b:	c6 47 15 00          	movb   $0x0,0x15(%edi)
    311f:	89 04 24             	mov    %eax,(%esp)
    3122:	e8 59 2d 00 00       	call   5e80 <fibril_rwlock_initialize@plt>
    3127:	8b 45 0c             	mov    0xc(%ebp),%eax
    312a:	89 47 2c             	mov    %eax,0x2c(%edi)
    312d:	8b 43 10             	mov    0x10(%ebx),%eax
    3130:	89 47 40             	mov    %eax,0x40(%edi)
    3133:	8b 45 e0             	mov    -0x20(%ebp),%eax
    3136:	89 45 d8             	mov    %eax,-0x28(%ebp)
    3139:	8b 4d e4             	mov    -0x1c(%ebp),%ecx
    313c:	89 47 30             	mov    %eax,0x30(%edi)
    313f:	8b 46 2c             	mov    0x2c(%esi),%eax
    3142:	83 c4 10             	add    $0x10,%esp
    3145:	c7 47 48 00 00 00 00 	movl   $0x0,0x48(%edi)
    314c:	c7 47 4c 00 00 00 00 	movl   $0x0,0x4c(%edi)
    3153:	89 4f 34             	mov    %ecx,0x34(%edi)
    3156:	85 c0                	test   %eax,%eax
    3158:	0f 84 4f 01 00 00    	je     32ad <block_get+0x54d>
    315e:	8b 40 14             	mov    0x14(%eax),%eax
    3161:	0f af c8             	imul   %eax,%ecx
    3164:	f7 65 d8             	mull   -0x28(%ebp)
    3167:	01 ca                	add    %ecx,%edx
    3169:	89 47 38             	mov    %eax,0x38(%edi)
    316c:	89 57 3c             	mov    %edx,0x3c(%edi)
    316f:	50                   	push   %eax
    3170:	50                   	push   %eax
    3171:	8d 47 50             	lea    0x50(%edi),%eax
    3174:	50                   	push   %eax
    3175:	8b 45 d0             	mov    -0x30(%ebp),%eax
    3178:	50                   	push   %eax
    3179:	e8 72 2b 00 00       	call   5cf0 <hash_table_insert@plt>
    317e:	89 3c 24             	mov    %edi,(%esp)
    3181:	e8 3a 2d 00 00       	call   5ec0 <fibril_mutex_lock@plt>
    3186:	89 1c 24             	mov    %ebx,(%esp)
    3189:	e8 82 2c 00 00       	call   5e10 <fibril_mutex_unlock@plt>
    318e:	83 c4 10             	add    $0x10,%esp
    3191:	f6 45 18 01          	testb  $0x1,0x18(%ebp)
    3195:	0f 84 83 00 00 00    	je     321e <block_get+0x4be>
    319b:	31 c0                	xor    %eax,%eax
    319d:	c7 45 d8 00 00 00 00 	movl   $0x0,-0x28(%ebp)
    31a4:	83 ec 0c             	sub    $0xc,%esp
    31a7:	88 45 d4             	mov    %al,-0x2c(%ebp)
    31aa:	57                   	push   %edi
    31ab:	e8 60 2c 00 00       	call   5e10 <fibril_mutex_unlock@plt>
    31b0:	83 c4 10             	add    $0x10,%esp
    31b3:	8a 45 d4             	mov    -0x2c(%ebp),%al
    31b6:	84 c0                	test   %al,%al
    31b8:	0f 84 e4 fd ff ff    	je     2fa2 <block_get+0x242>
    31be:	80 7f 15 00          	cmpb   $0x0,0x15(%edi)
    31c2:	0f 84 fa 00 00 00    	je     32c2 <block_get+0x562>
    31c8:	83 ec 0c             	sub    $0xc,%esp
    31cb:	57                   	push   %edi
    31cc:	31 ff                	xor    %edi,%edi
    31ce:	e8 8d f8 ff ff       	call   2a60 <block_put>
    31d3:	83 c4 10             	add    $0x10,%esp
    31d6:	e9 c7 fd ff ff       	jmp    2fa2 <block_get+0x242>
    31db:	c7 45 d8 f6 fe ff ff 	movl   $0xfffffef6,-0x28(%ebp)
    31e2:	e9 ab fe ff ff       	jmp    3092 <block_get+0x332>
    31e7:	8d 45 e0             	lea    -0x20(%ebp),%eax
    31ea:	8b 4d d0             	mov    -0x30(%ebp),%ecx
    31ed:	89 75 d8             	mov    %esi,-0x28(%ebp)
    31f0:	8b 75 c8             	mov    -0x38(%ebp),%esi
    31f3:	52                   	push   %edx
    31f4:	52                   	push   %edx
    31f5:	50                   	push   %eax
    31f6:	51                   	push   %ecx
    31f7:	e8 74 2c 00 00       	call   5e70 <hash_table_find@plt>
    31fc:	83 c4 10             	add    $0x10,%esp
    31ff:	89 45 d4             	mov    %eax,-0x2c(%ebp)
    3202:	85 c0                	test   %eax,%eax
    3204:	0f 84 b1 fe ff ff    	je     30bb <block_get+0x35b>
    320a:	83 ec 0c             	sub    $0xc,%esp
    320d:	57                   	push   %edi
    320e:	e8 fd 2b 00 00       	call   5e10 <fibril_mutex_unlock@plt>
    3213:	83 c4 10             	add    $0x10,%esp
    3216:	8b 45 d4             	mov    -0x2c(%ebp),%eax
    3219:	e9 21 fe ff ff       	jmp    303f <block_get+0x2df>
    321e:	83 ec 08             	sub    $0x8,%esp
    3221:	8b 4b 14             	mov    0x14(%ebx),%ecx
    3224:	8b 5b 10             	mov    0x10(%ebx),%ebx
    3227:	8b 47 38             	mov    0x38(%edi),%eax
    322a:	8b 57 3c             	mov    0x3c(%edi),%edx
    322d:	53                   	push   %ebx
    322e:	8b 5f 58             	mov    0x58(%edi),%ebx
    3231:	89 45 c8             	mov    %eax,-0x38(%ebp)
    3234:	53                   	push   %ebx
    3235:	51                   	push   %ecx
    3236:	52                   	push   %edx
    3237:	50                   	push   %eax
    3238:	8b 46 10             	mov    0x10(%esi),%eax
    323b:	89 55 cc             	mov    %edx,-0x34(%ebp)
    323e:	89 4d d4             	mov    %ecx,-0x2c(%ebp)
    3241:	50                   	push   %eax
    3242:	e8 69 2b 00 00       	call   5db0 <bd_read_blocks@plt>
    3247:	83 c4 20             	add    $0x20,%esp
    324a:	89 c2                	mov    %eax,%edx
    324c:	89 45 d8             	mov    %eax,-0x28(%ebp)
    324f:	8b 4d d4             	mov    -0x2c(%ebp),%ecx
    3252:	31 c0                	xor    %eax,%eax
    3254:	85 d2                	test   %edx,%edx
    3256:	0f 84 48 ff ff ff    	je     31a4 <block_get+0x444>
    325c:	53                   	push   %ebx
    325d:	53                   	push   %ebx
    325e:	8b 76 08             	mov    0x8(%esi),%esi
    3261:	8b 45 cc             	mov    -0x34(%ebp),%eax
    3264:	56                   	push   %esi
    3265:	50                   	push   %eax
    3266:	8b 45 c8             	mov    -0x38(%ebp),%eax
    3269:	50                   	push   %eax
    326a:	51                   	push   %ecx
    326b:	52                   	push   %edx
    326c:	68 5c 5a 00 00       	push   $0x5a5c
    3271:	e8 3a 2a 00 00       	call   5cb0 <printf@plt>
    3276:	83 c4 20             	add    $0x20,%esp
    3279:	e8 02 2b 00 00       	call   5d80 <stacktrace_print@plt>
    327e:	c6 47 15 01          	movb   $0x1,0x15(%edi)
    3282:	b0 01                	mov    $0x1,%al
    3284:	e9 1b ff ff ff       	jmp    31a4 <block_get+0x444>
    3289:	8b 43 1c             	mov    0x1c(%ebx),%eax
    328c:	8b 75 c8             	mov    -0x38(%ebp),%esi
    328f:	40                   	inc    %eax
    3290:	89 43 1c             	mov    %eax,0x1c(%ebx)
    3293:	e9 65 fe ff ff       	jmp    30fd <block_get+0x39d>
    3298:	53                   	push   %ebx
    3299:	68 8b 01 00 00       	push   $0x18b
    329e:	68 0c 5a 00 00       	push   $0x5a0c
    32a3:	68 1b 5a 00 00       	push   $0x5a1b
    32a8:	e8 33 2b 00 00       	call   5de0 <assert_abort@plt>
    32ad:	50                   	push   %eax
    32ae:	68 c6 03 00 00       	push   $0x3c6
    32b3:	68 0c 5a 00 00       	push   $0x5a0c
    32b8:	68 3c 5a 00 00       	push   $0x5a3c
    32bd:	e8 1e 2b 00 00       	call   5de0 <assert_abort@plt>
    32c2:	50                   	push   %eax
    32c3:	68 34 02 00 00       	push   $0x234
    32c8:	68 0c 5a 00 00       	push   $0x5a0c
    32cd:	68 52 5a 00 00       	push   $0x5a52
    32d2:	e8 09 2b 00 00       	call   5de0 <assert_abort@plt>
    32d7:	89 f6                	mov    %esi,%esi
    32d9:	8d bc 27 00 00 00 00 	lea    0x0(%edi,%eiz,1),%edi

000032e0 <block_seqread>:
    32e0:	55                   	push   %ebp
    32e1:	89 e5                	mov    %esp,%ebp
    32e3:	57                   	push   %edi
    32e4:	56                   	push   %esi
    32e5:	53                   	push   %ebx
    32e6:	83 ec 38             	sub    $0x38,%esp
    32e9:	8b 4d 20             	mov    0x20(%ebp),%ecx
    32ec:	8b 75 08             	mov    0x8(%ebp),%esi
    32ef:	68 d0 75 00 00       	push   $0x75d0
    32f4:	89 4d e4             	mov    %ecx,-0x1c(%ebp)
    32f7:	e8 c4 2b 00 00       	call   5ec0 <fibril_mutex_lock@plt>
    32fc:	8b 1d cc 75 00 00    	mov    0x75cc,%ebx
    3302:	83 c4 10             	add    $0x10,%esp
    3305:	81 fb c8 75 00 00    	cmp    $0x75c8,%ebx
    330b:	74 1b                	je     3328 <block_seqread+0x48>
    330d:	3b 73 08             	cmp    0x8(%ebx),%esi
    3310:	8b 4d e4             	mov    -0x1c(%ebp),%ecx
    3313:	75 08                	jne    331d <block_seqread+0x3d>
    3315:	eb 39                	jmp    3350 <block_seqread+0x70>
    3317:	90                   	nop
    3318:	3b 73 08             	cmp    0x8(%ebx),%esi
    331b:	74 33                	je     3350 <block_seqread+0x70>
    331d:	8b 5b 04             	mov    0x4(%ebx),%ebx
    3320:	81 fb c8 75 00 00    	cmp    $0x75c8,%ebx
    3326:	75 f0                	jne    3318 <block_seqread+0x38>
    3328:	83 ec 0c             	sub    $0xc,%esp
    332b:	68 d0 75 00 00       	push   $0x75d0
    3330:	e8 db 2a 00 00       	call   5e10 <fibril_mutex_unlock@plt>
    3335:	83 c4 0c             	add    $0xc,%esp
    3338:	68 c6 02 00 00       	push   $0x2c6
    333d:	68 0c 5a 00 00       	push   $0x5a0c
    3342:	68 14 5a 00 00       	push   $0x5a14
    3347:	e8 94 2a 00 00       	call   5de0 <assert_abort@plt>
    334c:	8d 74 26 00          	lea    0x0(%esi,%eiz,1),%esi
    3350:	83 ec 0c             	sub    $0xc,%esp
    3353:	89 4d e4             	mov    %ecx,-0x1c(%ebp)
    3356:	68 d0 75 00 00       	push   $0x75d0
    335b:	e8 b0 2a 00 00       	call   5e10 <fibril_mutex_unlock@plt>
    3360:	8b 43 28             	mov    0x28(%ebx),%eax
    3363:	8b 4d e4             	mov    -0x1c(%ebp),%ecx
    3366:	83 c4 10             	add    $0x10,%esp
    3369:	89 45 d8             	mov    %eax,-0x28(%ebp)
    336c:	85 c9                	test   %ecx,%ecx
    336e:	0f 84 e0 00 00 00    	je     3454 <block_seqread+0x174>
    3374:	89 c6                	mov    %eax,%esi
    3376:	8b 45 14             	mov    0x14(%ebp),%eax
    3379:	89 5d dc             	mov    %ebx,-0x24(%ebp)
    337c:	c7 45 e4 00 00 00 00 	movl   $0x0,-0x1c(%ebp)
    3383:	8b 00                	mov    (%eax),%eax
    3385:	89 75 d0             	mov    %esi,-0x30(%ebp)
    3388:	c7 45 d4 00 00 00 00 	movl   $0x0,-0x2c(%ebp)
    338f:	8b 5d 10             	mov    0x10(%ebp),%ebx
    3392:	eb 1a                	jmp    33ae <block_seqread+0xce>
    3394:	8d 74 26 00          	lea    0x0(%esi,%eiz,1),%esi
    3398:	89 c2                	mov    %eax,%edx
    339a:	29 fa                	sub    %edi,%edx
    339c:	0f 85 f0 00 00 00    	jne    3492 <block_seqread+0x1b2>
    33a2:	39 c7                	cmp    %eax,%edi
    33a4:	74 56                	je     33fc <block_seqread+0x11c>
    33a6:	85 c9                	test   %ecx,%ecx
    33a8:	0f 84 a6 00 00 00    	je     3454 <block_seqread+0x174>
    33ae:	8b 3b                	mov    (%ebx),%edi
    33b0:	8d 14 0f             	lea    (%edi,%ecx,1),%edx
    33b3:	39 c2                	cmp    %eax,%edx
    33b5:	73 e1                	jae    3398 <block_seqread+0xb8>
    33b7:	31 f6                	xor    %esi,%esi
    33b9:	50                   	push   %eax
    33ba:	8b 45 0c             	mov    0xc(%ebp),%eax
    33bd:	01 c7                	add    %eax,%edi
    33bf:	51                   	push   %ecx
    33c0:	8b 45 1c             	mov    0x1c(%ebp),%eax
    33c3:	57                   	push   %edi
    33c4:	8b 7d e4             	mov    -0x1c(%ebp),%edi
    33c7:	89 4d e0             	mov    %ecx,-0x20(%ebp)
    33ca:	01 f8                	add    %edi,%eax
    33cc:	50                   	push   %eax
    33cd:	e8 6e 29 00 00       	call   5d40 <memcpy@plt>
    33d2:	8b 4d e0             	mov    -0x20(%ebp),%ecx
    33d5:	89 f8                	mov    %edi,%eax
    33d7:	01 c8                	add    %ecx,%eax
    33d9:	8b 3b                	mov    (%ebx),%edi
    33db:	01 cf                	add    %ecx,%edi
    33dd:	89 45 e4             	mov    %eax,-0x1c(%ebp)
    33e0:	89 c8                	mov    %ecx,%eax
    33e2:	8b 4d 18             	mov    0x18(%ebp),%ecx
    33e5:	89 3b                	mov    %edi,(%ebx)
    33e7:	31 d2                	xor    %edx,%edx
    33e9:	01 01                	add    %eax,(%ecx)
    33eb:	8b 45 14             	mov    0x14(%ebp),%eax
    33ee:	11 51 04             	adc    %edx,0x4(%ecx)
    33f1:	8b 00                	mov    (%eax),%eax
    33f3:	83 c4 10             	add    $0x10,%esp
    33f6:	89 f1                	mov    %esi,%ecx
    33f8:	39 c7                	cmp    %eax,%edi
    33fa:	75 aa                	jne    33a6 <block_seqread+0xc6>
    33fc:	8b 45 18             	mov    0x18(%ebp),%eax
    33ff:	8b 75 d4             	mov    -0x2c(%ebp),%esi
    3402:	8b 7d d0             	mov    -0x30(%ebp),%edi
    3405:	56                   	push   %esi
    3406:	57                   	push   %edi
    3407:	89 4d e0             	mov    %ecx,-0x20(%ebp)
    340a:	8b 50 04             	mov    0x4(%eax),%edx
    340d:	52                   	push   %edx
    340e:	8b 08                	mov    (%eax),%ecx
    3410:	51                   	push   %ecx
    3411:	e8 8a 29 00 00       	call   5da0 <__udivdi3@plt>
    3416:	5e                   	pop    %esi
    3417:	89 c6                	mov    %eax,%esi
    3419:	8b 45 dc             	mov    -0x24(%ebp),%eax
    341c:	5f                   	pop    %edi
    341d:	8b 4d 0c             	mov    0xc(%ebp),%ecx
    3420:	89 d7                	mov    %edx,%edi
    3422:	8b 50 28             	mov    0x28(%eax),%edx
    3425:	52                   	push   %edx
    3426:	51                   	push   %ecx
    3427:	8b 40 10             	mov    0x10(%eax),%eax
    342a:	6a 01                	push   $0x1
    342c:	57                   	push   %edi
    342d:	56                   	push   %esi
    342e:	50                   	push   %eax
    342f:	e8 7c 29 00 00       	call   5db0 <bd_read_blocks@plt>
    3434:	83 c4 20             	add    $0x20,%esp
    3437:	8b 4d e0             	mov    -0x20(%ebp),%ecx
    343a:	85 c0                	test   %eax,%eax
    343c:	75 22                	jne    3460 <block_seqread+0x180>
    343e:	8b 75 14             	mov    0x14(%ebp),%esi
    3441:	8b 45 d8             	mov    -0x28(%ebp),%eax
    3444:	c7 03 00 00 00 00    	movl   $0x0,(%ebx)
    344a:	85 c9                	test   %ecx,%ecx
    344c:	89 06                	mov    %eax,(%esi)
    344e:	0f 85 5a ff ff ff    	jne    33ae <block_seqread+0xce>
    3454:	8d 65 f4             	lea    -0xc(%ebp),%esp
    3457:	31 d2                	xor    %edx,%edx
    3459:	89 d0                	mov    %edx,%eax
    345b:	5b                   	pop    %ebx
    345c:	5e                   	pop    %esi
    345d:	5f                   	pop    %edi
    345e:	5d                   	pop    %ebp
    345f:	c3                   	ret    
    3460:	8b 5d dc             	mov    -0x24(%ebp),%ebx
    3463:	89 c2                	mov    %eax,%edx
    3465:	50                   	push   %eax
    3466:	50                   	push   %eax
    3467:	8b 4b 08             	mov    0x8(%ebx),%ecx
    346a:	89 55 e4             	mov    %edx,-0x1c(%ebp)
    346d:	51                   	push   %ecx
    346e:	57                   	push   %edi
    346f:	56                   	push   %esi
    3470:	6a 01                	push   $0x1
    3472:	52                   	push   %edx
    3473:	68 5c 5a 00 00       	push   $0x5a5c
    3478:	e8 33 28 00 00       	call   5cb0 <printf@plt>
    347d:	83 c4 20             	add    $0x20,%esp
    3480:	e8 fb 28 00 00       	call   5d80 <stacktrace_print@plt>
    3485:	8b 55 e4             	mov    -0x1c(%ebp),%edx
    3488:	8d 65 f4             	lea    -0xc(%ebp),%esp
    348b:	89 d0                	mov    %edx,%eax
    348d:	5b                   	pop    %ebx
    348e:	5e                   	pop    %esi
    348f:	5f                   	pop    %edi
    3490:	5d                   	pop    %ebp
    3491:	c3                   	ret    
    3492:	89 ce                	mov    %ecx,%esi
    3494:	89 d1                	mov    %edx,%ecx
    3496:	29 d6                	sub    %edx,%esi
    3498:	e9 1c ff ff ff       	jmp    33b9 <block_seqread+0xd9>
    349d:	8d 76 00             	lea    0x0(%esi),%esi

000034a0 <block_read_direct>:
    34a0:	55                   	push   %ebp
    34a1:	89 e5                	mov    %esp,%ebp
    34a3:	57                   	push   %edi
    34a4:	56                   	push   %esi
    34a5:	53                   	push   %ebx
    34a6:	83 ec 28             	sub    $0x28,%esp
    34a9:	8b 45 08             	mov    0x8(%ebp),%eax
    34ac:	8b 75 0c             	mov    0xc(%ebp),%esi
    34af:	68 d0 75 00 00       	push   $0x75d0
    34b4:	89 45 e4             	mov    %eax,-0x1c(%ebp)
    34b7:	8b 7d 10             	mov    0x10(%ebp),%edi
    34ba:	e8 01 2a 00 00       	call   5ec0 <fibril_mutex_lock@plt>
    34bf:	8b 1d cc 75 00 00    	mov    0x75cc,%ebx
    34c5:	83 c4 10             	add    $0x10,%esp
    34c8:	81 fb c8 75 00 00    	cmp    $0x75c8,%ebx
    34ce:	74 20                	je     34f0 <block_read_direct+0x50>
    34d0:	8b 45 e4             	mov    -0x1c(%ebp),%eax
    34d3:	3b 43 08             	cmp    0x8(%ebx),%eax
    34d6:	75 0d                	jne    34e5 <block_read_direct+0x45>
    34d8:	eb 3e                	jmp    3518 <block_read_direct+0x78>
    34da:	8d b6 00 00 00 00    	lea    0x0(%esi),%esi
    34e0:	3b 43 08             	cmp    0x8(%ebx),%eax
    34e3:	74 33                	je     3518 <block_read_direct+0x78>
    34e5:	8b 5b 04             	mov    0x4(%ebx),%ebx
    34e8:	81 fb c8 75 00 00    	cmp    $0x75c8,%ebx
    34ee:	75 f0                	jne    34e0 <block_read_direct+0x40>
    34f0:	83 ec 0c             	sub    $0xc,%esp
    34f3:	68 d0 75 00 00       	push   $0x75d0
    34f8:	e8 13 29 00 00       	call   5e10 <fibril_mutex_unlock@plt>
    34fd:	83 c4 0c             	add    $0xc,%esp
    3500:	68 fd 02 00 00       	push   $0x2fd
    3505:	68 0c 5a 00 00       	push   $0x5a0c
    350a:	68 14 5a 00 00       	push   $0x5a14
    350f:	e8 cc 28 00 00       	call   5de0 <assert_abort@plt>
    3514:	8d 74 26 00          	lea    0x0(%esi,%eiz,1),%esi
    3518:	83 ec 0c             	sub    $0xc,%esp
    351b:	68 d0 75 00 00       	push   $0x75d0
    3520:	e8 eb 28 00 00       	call   5e10 <fibril_mutex_unlock@plt>
    3525:	58                   	pop    %eax
    3526:	8b 4b 28             	mov    0x28(%ebx),%ecx
    3529:	8b 45 14             	mov    0x14(%ebp),%eax
    352c:	5a                   	pop    %edx
    352d:	0f af c1             	imul   %ecx,%eax
    3530:	50                   	push   %eax
    3531:	8b 45 18             	mov    0x18(%ebp),%eax
    3534:	50                   	push   %eax
    3535:	8b 45 14             	mov    0x14(%ebp),%eax
    3538:	50                   	push   %eax
    3539:	8b 43 10             	mov    0x10(%ebx),%eax
    353c:	57                   	push   %edi
    353d:	56                   	push   %esi
    353e:	50                   	push   %eax
    353f:	e8 6c 28 00 00       	call   5db0 <bd_read_blocks@plt>
    3544:	83 c4 20             	add    $0x20,%esp
    3547:	89 c1                	mov    %eax,%ecx
    3549:	85 c0                	test   %eax,%eax
    354b:	74 25                	je     3572 <block_read_direct+0xd2>
    354d:	50                   	push   %eax
    354e:	50                   	push   %eax
    354f:	8b 53 08             	mov    0x8(%ebx),%edx
    3552:	8b 5d 14             	mov    0x14(%ebp),%ebx
    3555:	52                   	push   %edx
    3556:	57                   	push   %edi
    3557:	56                   	push   %esi
    3558:	53                   	push   %ebx
    3559:	51                   	push   %ecx
    355a:	68 5c 5a 00 00       	push   $0x5a5c
    355f:	89 4d e4             	mov    %ecx,-0x1c(%ebp)
    3562:	e8 49 27 00 00       	call   5cb0 <printf@plt>
    3567:	83 c4 20             	add    $0x20,%esp
    356a:	e8 11 28 00 00       	call   5d80 <stacktrace_print@plt>
    356f:	8b 4d e4             	mov    -0x1c(%ebp),%ecx
    3572:	8d 65 f4             	lea    -0xc(%ebp),%esp
    3575:	89 c8                	mov    %ecx,%eax
    3577:	5b                   	pop    %ebx
    3578:	5e                   	pop    %esi
    3579:	5f                   	pop    %edi
    357a:	5d                   	pop    %ebp
    357b:	c3                   	ret    
    357c:	8d 74 26 00          	lea    0x0(%esi,%eiz,1),%esi

00003580 <block_write_direct>:
    3580:	55                   	push   %ebp
    3581:	89 e5                	mov    %esp,%ebp
    3583:	57                   	push   %edi
    3584:	56                   	push   %esi
    3585:	53                   	push   %ebx
    3586:	83 ec 28             	sub    $0x28,%esp
    3589:	8b 45 08             	mov    0x8(%ebp),%eax
    358c:	8b 75 0c             	mov    0xc(%ebp),%esi
    358f:	68 d0 75 00 00       	push   $0x75d0
    3594:	89 45 e4             	mov    %eax,-0x1c(%ebp)
    3597:	8b 7d 10             	mov    0x10(%ebp),%edi
    359a:	e8 21 29 00 00       	call   5ec0 <fibril_mutex_lock@plt>
    359f:	8b 1d cc 75 00 00    	mov    0x75cc,%ebx
    35a5:	83 c4 10             	add    $0x10,%esp
    35a8:	81 fb c8 75 00 00    	cmp    $0x75c8,%ebx
    35ae:	74 20                	je     35d0 <block_write_direct+0x50>
    35b0:	8b 45 e4             	mov    -0x1c(%ebp),%eax
    35b3:	3b 43 08             	cmp    0x8(%ebx),%eax
    35b6:	75 0d                	jne    35c5 <block_write_direct+0x45>
    35b8:	eb 3e                	jmp    35f8 <block_write_direct+0x78>
    35ba:	8d b6 00 00 00 00    	lea    0x0(%esi),%esi
    35c0:	3b 43 08             	cmp    0x8(%ebx),%eax
    35c3:	74 33                	je     35f8 <block_write_direct+0x78>
    35c5:	8b 5b 04             	mov    0x4(%ebx),%ebx
    35c8:	81 fb c8 75 00 00    	cmp    $0x75c8,%ebx
    35ce:	75 f0                	jne    35c0 <block_write_direct+0x40>
    35d0:	83 ec 0c             	sub    $0xc,%esp
    35d3:	68 d0 75 00 00       	push   $0x75d0
    35d8:	e8 33 28 00 00       	call   5e10 <fibril_mutex_unlock@plt>
    35dd:	83 c4 0c             	add    $0xc,%esp
    35e0:	68 11 03 00 00       	push   $0x311
    35e5:	68 0c 5a 00 00       	push   $0x5a0c
    35ea:	68 14 5a 00 00       	push   $0x5a14
    35ef:	e8 ec 27 00 00       	call   5de0 <assert_abort@plt>
    35f4:	8d 74 26 00          	lea    0x0(%esi,%eiz,1),%esi
    35f8:	83 ec 0c             	sub    $0xc,%esp
    35fb:	68 d0 75 00 00       	push   $0x75d0
    3600:	e8 0b 28 00 00       	call   5e10 <fibril_mutex_unlock@plt>
    3605:	58                   	pop    %eax
    3606:	8b 4b 28             	mov    0x28(%ebx),%ecx
    3609:	8b 45 14             	mov    0x14(%ebp),%eax
    360c:	5a                   	pop    %edx
    360d:	0f af c1             	imul   %ecx,%eax
    3610:	50                   	push   %eax
    3611:	8b 45 18             	mov    0x18(%ebp),%eax
    3614:	50                   	push   %eax
    3615:	8b 45 14             	mov    0x14(%ebp),%eax
    3618:	50                   	push   %eax
    3619:	8b 43 10             	mov    0x10(%ebx),%eax
    361c:	57                   	push   %edi
    361d:	56                   	push   %esi
    361e:	50                   	push   %eax
    361f:	e8 ec 26 00 00       	call   5d10 <bd_write_blocks@plt>
    3624:	83 c4 20             	add    $0x20,%esp
    3627:	89 c1                	mov    %eax,%ecx
    3629:	85 c0                	test   %eax,%eax
    362b:	74 25                	je     3652 <block_write_direct+0xd2>
    362d:	50                   	push   %eax
    362e:	50                   	push   %eax
    362f:	8b 53 08             	mov    0x8(%ebx),%edx
    3632:	8b 5d 14             	mov    0x14(%ebp),%ebx
    3635:	52                   	push   %edx
    3636:	57                   	push   %edi
    3637:	56                   	push   %esi
    3638:	53                   	push   %ebx
    3639:	51                   	push   %ecx
    363a:	68 a8 5a 00 00       	push   $0x5aa8
    363f:	89 4d e4             	mov    %ecx,-0x1c(%ebp)
    3642:	e8 69 26 00 00       	call   5cb0 <printf@plt>
    3647:	83 c4 20             	add    $0x20,%esp
    364a:	e8 31 27 00 00       	call   5d80 <stacktrace_print@plt>
    364f:	8b 4d e4             	mov    -0x1c(%ebp),%ecx
    3652:	8d 65 f4             	lea    -0xc(%ebp),%esp
    3655:	89 c8                	mov    %ecx,%eax
    3657:	5b                   	pop    %ebx
    3658:	5e                   	pop    %esi
    3659:	5f                   	pop    %edi
    365a:	5d                   	pop    %ebp
    365b:	c3                   	ret    
    365c:	8d 74 26 00          	lea    0x0(%esi,%eiz,1),%esi

00003660 <block_sync_cache>:
    3660:	55                   	push   %ebp
    3661:	89 e5                	mov    %esp,%ebp
    3663:	57                   	push   %edi
    3664:	56                   	push   %esi
    3665:	53                   	push   %ebx
    3666:	83 ec 28             	sub    $0x28,%esp
    3669:	8b 55 08             	mov    0x8(%ebp),%edx
    366c:	8b 75 0c             	mov    0xc(%ebp),%esi
    366f:	68 d0 75 00 00       	push   $0x75d0
    3674:	89 55 e4             	mov    %edx,-0x1c(%ebp)
    3677:	8b 7d 10             	mov    0x10(%ebp),%edi
    367a:	8b 5d 14             	mov    0x14(%ebp),%ebx
    367d:	e8 3e 28 00 00       	call   5ec0 <fibril_mutex_lock@plt>
    3682:	a1 cc 75 00 00       	mov    0x75cc,%eax
    3687:	83 c4 10             	add    $0x10,%esp
    368a:	3d c8 75 00 00       	cmp    $0x75c8,%eax
    368f:	74 1e                	je     36af <block_sync_cache+0x4f>
    3691:	8b 55 e4             	mov    -0x1c(%ebp),%edx
    3694:	3b 50 08             	cmp    0x8(%eax),%edx
    3697:	75 0c                	jne    36a5 <block_sync_cache+0x45>
    3699:	eb 3d                	jmp    36d8 <block_sync_cache+0x78>
    369b:	90                   	nop
    369c:	8d 74 26 00          	lea    0x0(%esi,%eiz,1),%esi
    36a0:	3b 50 08             	cmp    0x8(%eax),%edx
    36a3:	74 33                	je     36d8 <block_sync_cache+0x78>
    36a5:	8b 40 04             	mov    0x4(%eax),%eax
    36a8:	3d c8 75 00 00       	cmp    $0x75c8,%eax
    36ad:	75 f1                	jne    36a0 <block_sync_cache+0x40>
    36af:	83 ec 0c             	sub    $0xc,%esp
    36b2:	68 d0 75 00 00       	push   $0x75d0
    36b7:	e8 54 27 00 00       	call   5e10 <fibril_mutex_unlock@plt>
    36bc:	83 c4 0c             	add    $0xc,%esp
    36bf:	68 23 03 00 00       	push   $0x323
    36c4:	68 0c 5a 00 00       	push   $0x5a0c
    36c9:	68 14 5a 00 00       	push   $0x5a14
    36ce:	e8 0d 27 00 00       	call   5de0 <assert_abort@plt>
    36d3:	90                   	nop
    36d4:	8d 74 26 00          	lea    0x0(%esi,%eiz,1),%esi
    36d8:	83 ec 0c             	sub    $0xc,%esp
    36db:	89 45 e4             	mov    %eax,-0x1c(%ebp)
    36de:	68 d0 75 00 00       	push   $0x75d0
    36e3:	e8 28 27 00 00       	call   5e10 <fibril_mutex_unlock@plt>
    36e8:	8b 45 e4             	mov    -0x1c(%ebp),%eax
    36eb:	89 5d 14             	mov    %ebx,0x14(%ebp)
    36ee:	89 75 0c             	mov    %esi,0xc(%ebp)
    36f1:	89 7d 10             	mov    %edi,0x10(%ebp)
    36f4:	8b 40 10             	mov    0x10(%eax),%eax
    36f7:	83 c4 10             	add    $0x10,%esp
    36fa:	89 45 08             	mov    %eax,0x8(%ebp)
    36fd:	8d 65 f4             	lea    -0xc(%ebp),%esp
    3700:	5b                   	pop    %ebx
    3701:	5e                   	pop    %esi
    3702:	5f                   	pop    %edi
    3703:	5d                   	pop    %ebp
    3704:	e9 57 27 00 00       	jmp    5e60 <bd_sync_cache@plt>
    3709:	8d b4 26 00 00 00 00 	lea    0x0(%esi,%eiz,1),%esi

00003710 <block_get_bsize>:
    3710:	55                   	push   %ebp
    3711:	89 e5                	mov    %esp,%ebp
    3713:	57                   	push   %edi
    3714:	56                   	push   %esi
    3715:	53                   	push   %ebx
    3716:	83 ec 18             	sub    $0x18,%esp
    3719:	8b 75 08             	mov    0x8(%ebp),%esi
    371c:	8b 7d 0c             	mov    0xc(%ebp),%edi
    371f:	68 d0 75 00 00       	push   $0x75d0
    3724:	e8 97 27 00 00       	call   5ec0 <fibril_mutex_lock@plt>
    3729:	8b 1d cc 75 00 00    	mov    0x75cc,%ebx
    372f:	83 c4 10             	add    $0x10,%esp
    3732:	81 fb c8 75 00 00    	cmp    $0x75c8,%ebx
    3738:	75 11                	jne    374b <block_get_bsize+0x3b>
    373a:	eb 3c                	jmp    3778 <block_get_bsize+0x68>
    373c:	8d 74 26 00          	lea    0x0(%esi,%eiz,1),%esi
    3740:	8b 5b 04             	mov    0x4(%ebx),%ebx
    3743:	81 fb c8 75 00 00    	cmp    $0x75c8,%ebx
    3749:	74 2d                	je     3778 <block_get_bsize+0x68>
    374b:	3b 73 08             	cmp    0x8(%ebx),%esi
    374e:	75 f0                	jne    3740 <block_get_bsize+0x30>
    3750:	83 ec 0c             	sub    $0xc,%esp
    3753:	68 d0 75 00 00       	push   $0x75d0
    3758:	e8 b3 26 00 00       	call   5e10 <fibril_mutex_unlock@plt>
    375d:	89 7d 0c             	mov    %edi,0xc(%ebp)
    3760:	83 c4 10             	add    $0x10,%esp
    3763:	8b 43 10             	mov    0x10(%ebx),%eax
    3766:	89 45 08             	mov    %eax,0x8(%ebp)
    3769:	8d 65 f4             	lea    -0xc(%ebp),%esp
    376c:	5b                   	pop    %ebx
    376d:	5e                   	pop    %esi
    376e:	5f                   	pop    %edi
    376f:	5d                   	pop    %ebp
    3770:	e9 db 26 00 00       	jmp    5e50 <bd_get_block_size@plt>
    3775:	8d 76 00             	lea    0x0(%esi),%esi
    3778:	83 ec 0c             	sub    $0xc,%esp
    377b:	68 d0 75 00 00       	push   $0x75d0
    3780:	e8 8b 26 00 00       	call   5e10 <fibril_mutex_unlock@plt>
    3785:	83 c4 0c             	add    $0xc,%esp
    3788:	68 34 03 00 00       	push   $0x334
    378d:	68 0c 5a 00 00       	push   $0x5a0c
    3792:	68 14 5a 00 00       	push   $0x5a14
    3797:	e8 44 26 00 00       	call   5de0 <assert_abort@plt>
    379c:	8d 74 26 00          	lea    0x0(%esi,%eiz,1),%esi

000037a0 <block_get_nblocks>:
    37a0:	55                   	push   %ebp
    37a1:	89 e5                	mov    %esp,%ebp
    37a3:	57                   	push   %edi
    37a4:	56                   	push   %esi
    37a5:	53                   	push   %ebx
    37a6:	83 ec 18             	sub    $0x18,%esp
    37a9:	8b 75 08             	mov    0x8(%ebp),%esi
    37ac:	8b 7d 0c             	mov    0xc(%ebp),%edi
    37af:	68 d0 75 00 00       	push   $0x75d0
    37b4:	e8 07 27 00 00       	call   5ec0 <fibril_mutex_lock@plt>
    37b9:	8b 1d cc 75 00 00    	mov    0x75cc,%ebx
    37bf:	83 c4 10             	add    $0x10,%esp
    37c2:	81 fb c8 75 00 00    	cmp    $0x75c8,%ebx
    37c8:	75 11                	jne    37db <block_get_nblocks+0x3b>
    37ca:	eb 3c                	jmp    3808 <block_get_nblocks+0x68>
    37cc:	8d 74 26 00          	lea    0x0(%esi,%eiz,1),%esi
    37d0:	8b 5b 04             	mov    0x4(%ebx),%ebx
    37d3:	81 fb c8 75 00 00    	cmp    $0x75c8,%ebx
    37d9:	74 2d                	je     3808 <block_get_nblocks+0x68>
    37db:	3b 73 08             	cmp    0x8(%ebx),%esi
    37de:	75 f0                	jne    37d0 <block_get_nblocks+0x30>
    37e0:	83 ec 0c             	sub    $0xc,%esp
    37e3:	68 d0 75 00 00       	push   $0x75d0
    37e8:	e8 23 26 00 00       	call   5e10 <fibril_mutex_unlock@plt>
    37ed:	89 7d 0c             	mov    %edi,0xc(%ebp)
    37f0:	83 c4 10             	add    $0x10,%esp
    37f3:	8b 43 10             	mov    0x10(%ebx),%eax
    37f6:	89 45 08             	mov    %eax,0x8(%ebp)
    37f9:	8d 65 f4             	lea    -0xc(%ebp),%esp
    37fc:	5b                   	pop    %ebx
    37fd:	5e                   	pop    %esi
    37fe:	5f                   	pop    %edi
    37ff:	5d                   	pop    %ebp
    3800:	e9 1b 25 00 00       	jmp    5d20 <bd_get_num_blocks@plt>
    3805:	8d 76 00             	lea    0x0(%esi),%esi
    3808:	83 ec 0c             	sub    $0xc,%esp
    380b:	68 d0 75 00 00       	push   $0x75d0
    3810:	e8 fb 25 00 00       	call   5e10 <fibril_mutex_unlock@plt>
    3815:	83 c4 0c             	add    $0xc,%esp
    3818:	68 43 03 00 00       	push   $0x343
    381d:	68 0c 5a 00 00       	push   $0x5a0c
    3822:	68 14 5a 00 00       	push   $0x5a14
    3827:	e8 b4 25 00 00       	call   5de0 <assert_abort@plt>
    382c:	8d 74 26 00          	lea    0x0(%esi,%eiz,1),%esi

00003830 <block_read_bytes_direct>:
    3830:	55                   	push   %ebp
    3831:	89 e5                	mov    %esp,%ebp
    3833:	57                   	push   %edi
    3834:	56                   	push   %esi
    3835:	53                   	push   %ebx
    3836:	83 ec 48             	sub    $0x48,%esp
    3839:	8b 45 0c             	mov    0xc(%ebp),%eax
    383c:	8b 55 10             	mov    0x10(%ebp),%edx
    383f:	68 d0 75 00 00       	push   $0x75d0
    3844:	8b 5d 08             	mov    0x8(%ebp),%ebx
    3847:	89 45 d0             	mov    %eax,-0x30(%ebp)
    384a:	89 55 d4             	mov    %edx,-0x2c(%ebp)
    384d:	e8 6e 26 00 00       	call   5ec0 <fibril_mutex_lock@plt>
    3852:	8b 35 cc 75 00 00    	mov    0x75cc,%esi
    3858:	83 c4 10             	add    $0x10,%esp
    385b:	81 fe c8 75 00 00    	cmp    $0x75c8,%esi
    3861:	75 10                	jne    3873 <block_read_bytes_direct+0x43>
    3863:	eb 43                	jmp    38a8 <block_read_bytes_direct+0x78>
    3865:	8d 76 00             	lea    0x0(%esi),%esi
    3868:	8b 76 04             	mov    0x4(%esi),%esi
    386b:	81 fe c8 75 00 00    	cmp    $0x75c8,%esi
    3871:	74 35                	je     38a8 <block_read_bytes_direct+0x78>
    3873:	3b 5e 08             	cmp    0x8(%esi),%ebx
    3876:	75 f0                	jne    3868 <block_read_bytes_direct+0x38>
    3878:	83 ec 0c             	sub    $0xc,%esp
    387b:	68 d0 75 00 00       	push   $0x75d0
    3880:	e8 8b 25 00 00       	call   5e10 <fibril_mutex_unlock@plt>
    3885:	8d 45 e4             	lea    -0x1c(%ebp),%eax
    3888:	59                   	pop    %ecx
    3889:	5f                   	pop    %edi
    388a:	50                   	push   %eax
    388b:	8b 46 10             	mov    0x10(%esi),%eax
    388e:	50                   	push   %eax
    388f:	e8 bc 25 00 00       	call   5e50 <bd_get_block_size@plt>
    3894:	83 c4 10             	add    $0x10,%esp
    3897:	89 c1                	mov    %eax,%ecx
    3899:	85 c0                	test   %eax,%eax
    389b:	74 33                	je     38d0 <block_read_bytes_direct+0xa0>
    389d:	8d 65 f4             	lea    -0xc(%ebp),%esp
    38a0:	89 c8                	mov    %ecx,%eax
    38a2:	5b                   	pop    %ebx
    38a3:	5e                   	pop    %esi
    38a4:	5f                   	pop    %edi
    38a5:	5d                   	pop    %ebp
    38a6:	c3                   	ret    
    38a7:	90                   	nop
    38a8:	83 ec 0c             	sub    $0xc,%esp
    38ab:	68 d0 75 00 00       	push   $0x75d0
    38b0:	e8 5b 25 00 00       	call   5e10 <fibril_mutex_unlock@plt>
    38b5:	83 c4 0c             	add    $0xc,%esp
    38b8:	68 34 03 00 00       	push   $0x334
    38bd:	68 0c 5a 00 00       	push   $0x5a0c
    38c2:	68 14 5a 00 00       	push   $0x5a14
    38c7:	e8 14 25 00 00       	call   5de0 <assert_abort@plt>
    38cc:	8d 74 26 00          	lea    0x0(%esi,%eiz,1),%esi
    38d0:	8b 75 e4             	mov    -0x1c(%ebp),%esi
    38d3:	31 d2                	xor    %edx,%edx
    38d5:	8b 45 d4             	mov    -0x2c(%ebp),%eax
    38d8:	52                   	push   %edx
    38d9:	56                   	push   %esi
    38da:	50                   	push   %eax
    38db:	8b 45 d0             	mov    -0x30(%ebp),%eax
    38de:	89 75 c8             	mov    %esi,-0x38(%ebp)
    38e1:	50                   	push   %eax
    38e2:	89 55 cc             	mov    %edx,-0x34(%ebp)
    38e5:	e8 b6 24 00 00       	call   5da0 <__udivdi3@plt>
    38ea:	83 c4 10             	add    $0x10,%esp
    38ed:	89 45 c0             	mov    %eax,-0x40(%ebp)
    38f0:	8b 45 14             	mov    0x14(%ebp),%eax
    38f3:	89 55 c4             	mov    %edx,-0x3c(%ebp)
    38f6:	31 d2                	xor    %edx,%edx
    38f8:	03 45 d0             	add    -0x30(%ebp),%eax
    38fb:	8b 4d cc             	mov    -0x34(%ebp),%ecx
    38fe:	13 55 d4             	adc    -0x2c(%ebp),%edx
    3901:	83 c0 ff             	add    $0xffffffff,%eax
    3904:	83 d2 ff             	adc    $0xffffffff,%edx
    3907:	8b 7d c8             	mov    -0x38(%ebp),%edi
    390a:	51                   	push   %ecx
    390b:	57                   	push   %edi
    390c:	52                   	push   %edx
    390d:	50                   	push   %eax
    390e:	e8 8d 24 00 00       	call   5da0 <__udivdi3@plt>
    3913:	8b 55 c0             	mov    -0x40(%ebp),%edx
    3916:	29 d0                	sub    %edx,%eax
    3918:	40                   	inc    %eax
    3919:	0f af f0             	imul   %eax,%esi
    391c:	89 45 bc             	mov    %eax,-0x44(%ebp)
    391f:	89 34 24             	mov    %esi,(%esp)
    3922:	e8 29 24 00 00       	call   5d50 <malloc@plt>
    3927:	83 c4 10             	add    $0x10,%esp
    392a:	89 c6                	mov    %eax,%esi
    392c:	85 c0                	test   %eax,%eax
    392e:	0f 84 19 01 00 00    	je     3a4d <block_read_bytes_direct+0x21d>
    3934:	83 ec 0c             	sub    $0xc,%esp
    3937:	68 d0 75 00 00       	push   $0x75d0
    393c:	e8 7f 25 00 00       	call   5ec0 <fibril_mutex_lock@plt>
    3941:	8b 3d cc 75 00 00    	mov    0x75cc,%edi
    3947:	83 c4 10             	add    $0x10,%esp
    394a:	81 ff c8 75 00 00    	cmp    $0x75c8,%edi
    3950:	75 15                	jne    3967 <block_read_bytes_direct+0x137>
    3952:	e9 91 00 00 00       	jmp    39e8 <block_read_bytes_direct+0x1b8>
    3957:	90                   	nop
    3958:	8b 7f 04             	mov    0x4(%edi),%edi
    395b:	81 ff c8 75 00 00    	cmp    $0x75c8,%edi
    3961:	0f 84 81 00 00 00    	je     39e8 <block_read_bytes_direct+0x1b8>
    3967:	3b 5f 08             	cmp    0x8(%edi),%ebx
    396a:	75 ec                	jne    3958 <block_read_bytes_direct+0x128>
    396c:	83 ec 0c             	sub    $0xc,%esp
    396f:	68 d0 75 00 00       	push   $0x75d0
    3974:	e8 97 24 00 00       	call   5e10 <fibril_mutex_unlock@plt>
    3979:	58                   	pop    %eax
    397a:	8b 47 28             	mov    0x28(%edi),%eax
    397d:	5a                   	pop    %edx
    397e:	8b 55 bc             	mov    -0x44(%ebp),%edx
    3981:	0f af c2             	imul   %edx,%eax
    3984:	50                   	push   %eax
    3985:	56                   	push   %esi
    3986:	8b 4d c4             	mov    -0x3c(%ebp),%ecx
    3989:	8b 5d c0             	mov    -0x40(%ebp),%ebx
    398c:	8b 47 10             	mov    0x10(%edi),%eax
    398f:	52                   	push   %edx
    3990:	51                   	push   %ecx
    3991:	53                   	push   %ebx
    3992:	50                   	push   %eax
    3993:	e8 18 24 00 00       	call   5db0 <bd_read_blocks@plt>
    3998:	83 c4 20             	add    $0x20,%esp
    399b:	89 c1                	mov    %eax,%ecx
    399d:	85 c0                	test   %eax,%eax
    399f:	75 6b                	jne    3a0c <block_read_bytes_direct+0x1dc>
    39a1:	89 45 c0             	mov    %eax,-0x40(%ebp)
    39a4:	8b 55 14             	mov    0x14(%ebp),%edx
    39a7:	8b 5d cc             	mov    -0x34(%ebp),%ebx
    39aa:	8b 7d c8             	mov    -0x38(%ebp),%edi
    39ad:	50                   	push   %eax
    39ae:	8b 45 d4             	mov    -0x2c(%ebp),%eax
    39b1:	52                   	push   %edx
    39b2:	51                   	push   %ecx
    39b3:	51                   	push   %ecx
    39b4:	53                   	push   %ebx
    39b5:	57                   	push   %edi
    39b6:	50                   	push   %eax
    39b7:	8b 45 d0             	mov    -0x30(%ebp),%eax
    39ba:	50                   	push   %eax
    39bb:	e8 d0 23 00 00       	call   5d90 <__umoddi3@plt>
    39c0:	83 c4 18             	add    $0x18,%esp
    39c3:	01 f0                	add    %esi,%eax
    39c5:	50                   	push   %eax
    39c6:	8b 45 18             	mov    0x18(%ebp),%eax
    39c9:	50                   	push   %eax
    39ca:	e8 71 23 00 00       	call   5d40 <memcpy@plt>
    39cf:	89 34 24             	mov    %esi,(%esp)
    39d2:	e8 d9 24 00 00       	call   5eb0 <free@plt>
    39d7:	8b 4d c0             	mov    -0x40(%ebp),%ecx
    39da:	83 c4 10             	add    $0x10,%esp
    39dd:	8d 65 f4             	lea    -0xc(%ebp),%esp
    39e0:	89 c8                	mov    %ecx,%eax
    39e2:	5b                   	pop    %ebx
    39e3:	5e                   	pop    %esi
    39e4:	5f                   	pop    %edi
    39e5:	5d                   	pop    %ebp
    39e6:	c3                   	ret    
    39e7:	90                   	nop
    39e8:	83 ec 0c             	sub    $0xc,%esp
    39eb:	68 d0 75 00 00       	push   $0x75d0
    39f0:	e8 1b 24 00 00       	call   5e10 <fibril_mutex_unlock@plt>
    39f5:	83 c4 0c             	add    $0xc,%esp
    39f8:	68 fd 02 00 00       	push   $0x2fd
    39fd:	68 0c 5a 00 00       	push   $0x5a0c
    3a02:	68 14 5a 00 00       	push   $0x5a14
    3a07:	e8 d4 23 00 00       	call   5de0 <assert_abort@plt>
    3a0c:	50                   	push   %eax
    3a0d:	50                   	push   %eax
    3a0e:	8b 47 08             	mov    0x8(%edi),%eax
    3a11:	8b 55 c0             	mov    -0x40(%ebp),%edx
    3a14:	50                   	push   %eax
    3a15:	8b 5d bc             	mov    -0x44(%ebp),%ebx
    3a18:	8b 45 c4             	mov    -0x3c(%ebp),%eax
    3a1b:	89 4d d0             	mov    %ecx,-0x30(%ebp)
    3a1e:	50                   	push   %eax
    3a1f:	52                   	push   %edx
    3a20:	53                   	push   %ebx
    3a21:	51                   	push   %ecx
    3a22:	68 5c 5a 00 00       	push   $0x5a5c
    3a27:	e8 84 22 00 00       	call   5cb0 <printf@plt>
    3a2c:	83 c4 20             	add    $0x20,%esp
    3a2f:	e8 4c 23 00 00       	call   5d80 <stacktrace_print@plt>
    3a34:	83 ec 0c             	sub    $0xc,%esp
    3a37:	56                   	push   %esi
    3a38:	e8 73 24 00 00       	call   5eb0 <free@plt>
    3a3d:	8b 4d d0             	mov    -0x30(%ebp),%ecx
    3a40:	83 c4 10             	add    $0x10,%esp
    3a43:	8d 65 f4             	lea    -0xc(%ebp),%esp
    3a46:	89 c8                	mov    %ecx,%eax
    3a48:	5b                   	pop    %ebx
    3a49:	5e                   	pop    %esi
    3a4a:	5f                   	pop    %edi
    3a4b:	5d                   	pop    %ebp
    3a4c:	c3                   	ret    
    3a4d:	b9 fe ff ff ff       	mov    $0xfffffffe,%ecx
    3a52:	e9 46 fe ff ff       	jmp    389d <block_read_bytes_direct+0x6d>
    3a57:	89 f6                	mov    %esi,%esi
    3a59:	8d bc 27 00 00 00 00 	lea    0x0(%edi,%eiz,1),%edi

00003a60 <block_read_toc>:
    3a60:	55                   	push   %ebp
    3a61:	89 e5                	mov    %esp,%ebp
    3a63:	57                   	push   %edi
    3a64:	56                   	push   %esi
    3a65:	53                   	push   %ebx
    3a66:	83 ec 28             	sub    $0x28,%esp
    3a69:	8b 55 08             	mov    0x8(%ebp),%edx
    3a6c:	8b 5d 0c             	mov    0xc(%ebp),%ebx
    3a6f:	68 d0 75 00 00       	push   $0x75d0
    3a74:	89 55 e4             	mov    %edx,-0x1c(%ebp)
    3a77:	8b 75 10             	mov    0x10(%ebp),%esi
    3a7a:	8b 7d 14             	mov    0x14(%ebp),%edi
    3a7d:	e8 3e 24 00 00       	call   5ec0 <fibril_mutex_lock@plt>
    3a82:	a1 cc 75 00 00       	mov    0x75cc,%eax
    3a87:	83 c4 10             	add    $0x10,%esp
    3a8a:	3d c8 75 00 00       	cmp    $0x75c8,%eax
    3a8f:	74 1e                	je     3aaf <block_read_toc+0x4f>
    3a91:	8b 55 e4             	mov    -0x1c(%ebp),%edx
    3a94:	3b 50 08             	cmp    0x8(%eax),%edx
    3a97:	75 0c                	jne    3aa5 <block_read_toc+0x45>
    3a99:	eb 3d                	jmp    3ad8 <block_read_toc+0x78>
    3a9b:	90                   	nop
    3a9c:	8d 74 26 00          	lea    0x0(%esi,%eiz,1),%esi
    3aa0:	3b 50 08             	cmp    0x8(%eax),%edx
    3aa3:	74 33                	je     3ad8 <block_read_toc+0x78>
    3aa5:	8b 40 04             	mov    0x4(%eax),%eax
    3aa8:	3d c8 75 00 00       	cmp    $0x75c8,%eax
    3aad:	75 f1                	jne    3aa0 <block_read_toc+0x40>
    3aaf:	83 ec 0c             	sub    $0xc,%esp
    3ab2:	68 d0 75 00 00       	push   $0x75d0
    3ab7:	e8 54 23 00 00       	call   5e10 <fibril_mutex_unlock@plt>
    3abc:	83 c4 0c             	add    $0xc,%esp
    3abf:	68 8a 03 00 00       	push   $0x38a
    3ac4:	68 0c 5a 00 00       	push   $0x5a0c
    3ac9:	68 14 5a 00 00       	push   $0x5a14
    3ace:	e8 0d 23 00 00       	call   5de0 <assert_abort@plt>
    3ad3:	90                   	nop
    3ad4:	8d 74 26 00          	lea    0x0(%esi,%eiz,1),%esi
    3ad8:	83 ec 0c             	sub    $0xc,%esp
    3adb:	89 45 e4             	mov    %eax,-0x1c(%ebp)
    3ade:	81 e3 ff 00 00 00    	and    $0xff,%ebx
    3ae4:	68 d0 75 00 00       	push   $0x75d0
    3ae9:	e8 22 23 00 00       	call   5e10 <fibril_mutex_unlock@plt>
    3aee:	8b 45 e4             	mov    -0x1c(%ebp),%eax
    3af1:	89 7d 14             	mov    %edi,0x14(%ebp)
    3af4:	89 75 10             	mov    %esi,0x10(%ebp)
    3af7:	89 5d 0c             	mov    %ebx,0xc(%ebp)
    3afa:	8b 40 10             	mov    0x10(%eax),%eax
    3afd:	83 c4 10             	add    $0x10,%esp
    3b00:	89 45 08             	mov    %eax,0x8(%ebp)
    3b03:	8d 65 f4             	lea    -0xc(%ebp),%esp
    3b06:	5b                   	pop    %ebx
    3b07:	5e                   	pop    %esi
    3b08:	5f                   	pop    %edi
    3b09:	5d                   	pop    %ebp
    3b0a:	e9 f1 22 00 00       	jmp    5e00 <bd_read_toc@plt>

00003b0f <write_blocks.part.3>:
    3b0f:	55                   	push   %ebp
    3b10:	89 e5                	mov    %esp,%ebp
    3b12:	83 ec 0c             	sub    $0xc,%esp
    3b15:	68 b5 03 00 00       	push   $0x3b5
    3b1a:	68 0c 5a 00 00       	push   $0x5a0c
    3b1f:	68 14 5a 00 00       	push   $0x5a14
    3b24:	e8 b7 22 00 00       	call   5de0 <assert_abort@plt>
    3b29:	6d                   	insl   (%dx),%es:(%edi)
    3b2a:	6b 65 78 66          	imul   $0x66,0x78(%ebp),%esp
    3b2e:	61                   	popa   
    3b2f:	74 2e                	je     3b5f <write_blocks.part.3+0x50>
    3b31:	63 00                	arpl   %ax,(%eax)
    3b33:	66 61                	popaw  
    3b35:	74 5b                	je     3b92 <write_blocks.part.3+0x83>
    3b37:	63 75 72             	arpl   %si,0x72(%ebp)
    3b3a:	5f                   	pop    %edi
    3b3b:	63 6c 73 5d          	arpl   %bp,0x5d(%ebx,%esi,2)
    3b3f:	20 3d 3d 20 30 00    	and    %bh,0x30203d
    3b45:	6e                   	outsb  %ds:(%esi),(%dx)
    3b46:	63 6c 73 20          	arpl   %bp,0x20(%ebx,%esi,2)
    3b4a:	3e 20 30             	and    %dh,%ds:(%eax)
    3b4d:	00 68 73             	add    %ch,0x73(%eax)
    3b50:	3a 63 3a             	cmp    0x3a(%ebx),%ah
    3b53:	00 44 65 76          	add    %al,0x76(%ebp,%eiz,2)
    3b57:	69 63 65 20 3d 20 25 	imul   $0x25203d20,0x65(%ebx),%esp
    3b5e:	73 0a                	jae    3b6a <write_blocks.part.3+0x5b>
    3b60:	00 53 65             	add    %dl,0x65(%ebx)
    3b63:	63 74 6f 72          	arpl   %si,0x72(%edi,%ebp,2)
    3b67:	20 73 69             	and    %dh,0x69(%ebx)
    3b6a:	7a 65                	jp     3bd1 <write_blocks.part.3+0xc2>
    3b6c:	3a 20                	cmp    (%eax),%ah
    3b6e:	20 20                	and    %ah,(%eax)
    3b70:	20 20                	and    %ah,(%eax)
    3b72:	20 20                	and    %ah,(%eax)
    3b74:	20 20                	and    %ah,(%eax)
    3b76:	20 20                	and    %ah,(%eax)
    3b78:	25 6c 75 0a 00       	and    $0xa756c,%eax
    3b7d:	43                   	inc    %ebx
    3b7e:	6c                   	insb   (%dx),%es:(%edi)
    3b7f:	75 73                	jne    3bf4 <write_blocks.part.3+0xe5>
    3b81:	74 65                	je     3be8 <write_blocks.part.3+0xd9>
    3b83:	72 20                	jb     3ba5 <write_blocks.part.3+0x96>
    3b85:	73 69                	jae    3bf0 <write_blocks.part.3+0xe1>
    3b87:	7a 65                	jp     3bee <write_blocks.part.3+0xdf>
    3b89:	3a 20                	cmp    (%eax),%ah
    3b8b:	20 20                	and    %ah,(%eax)
    3b8d:	20 20                	and    %ah,(%eax)
    3b8f:	20 20                	and    %ah,(%eax)
    3b91:	20 20                	and    %ah,(%eax)
    3b93:	20 25 6c 75 0a 00    	and    %ah,0xa756c
    3b99:	46                   	inc    %esi
    3b9a:	41                   	inc    %ecx
    3b9b:	54                   	push   %esp
    3b9c:	20 73 69             	and    %dh,0x69(%ebx)
    3b9f:	7a 65                	jp     3c06 <write_blocks.part.3+0xf7>
    3ba1:	20 69 6e             	and    %ch,0x6e(%ecx)
    3ba4:	20 73 65             	and    %dh,0x65(%ebx)
    3ba7:	63 74 6f 72          	arpl   %si,0x72(%edi,%ebp,2)
    3bab:	73 3a                	jae    3be7 <write_blocks.part.3+0xd8>
    3bad:	20 20                	and    %ah,(%eax)
    3baf:	20 25 6c 75 0a 00    	and    %ah,0xa756c
    3bb5:	44                   	inc    %esp
    3bb6:	61                   	popa   
    3bb7:	74 61                	je     3c1a <write_blocks.part.3+0x10b>
    3bb9:	20 73 74             	and    %dh,0x74(%ebx)
    3bbc:	61                   	popa   
    3bbd:	72 74                	jb     3c33 <write_blocks.part.3+0x124>
    3bbf:	20 73 65             	and    %dh,0x65(%ebx)
    3bc2:	63 74 6f 72          	arpl   %si,0x72(%edi,%ebp,2)
    3bc6:	3a 20                	cmp    (%eax),%ah
    3bc8:	20 20                	and    %ah,(%eax)
    3bca:	20 20                	and    %ah,(%eax)
    3bcc:	25 6c 75 0a 00       	and    $0xa756c,%eax
    3bd1:	54                   	push   %esp
    3bd2:	6f                   	outsl  %ds:(%esi),(%dx)
    3bd3:	74 61                	je     3c36 <write_blocks.part.3+0x127>
    3bd5:	6c                   	insb   (%dx),%es:(%edi)
    3bd6:	20 6e 75             	and    %ch,0x75(%esi)
    3bd9:	6d                   	insl   (%dx),%es:(%edi)
    3bda:	20 6f 66             	and    %ch,0x66(%edi)
    3bdd:	20 63 6c             	and    %ah,0x6c(%ebx)
    3be0:	75 73                	jne    3c55 <write_blocks.part.3+0x146>
    3be2:	74 65                	je     3c49 <write_blocks.part.3+0x13a>
    3be4:	72 73                	jb     3c59 <write_blocks.part.3+0x14a>
    3be6:	3a 20                	cmp    (%eax),%ah
    3be8:	25 6c 75 0a 00       	and    $0xa756c,%eax
    3bed:	54                   	push   %esp
    3bee:	6f                   	outsl  %ds:(%esi),(%dx)
    3bef:	74 61                	je     3c52 <write_blocks.part.3+0x143>
    3bf1:	6c                   	insb   (%dx),%es:(%edi)
    3bf2:	20 75 73             	and    %dh,0x73(%ebp)
    3bf5:	65 64 20 63 6c       	gs and %ah,%fs:0x6c(%ebx)
    3bfa:	75 73                	jne    3c6f <write_blocks.part.3+0x160>
    3bfc:	74 65                	je     3c63 <write_blocks.part.3+0x154>
    3bfe:	72 73                	jb     3c73 <write_blocks.part.3+0x164>
    3c00:	3a 20                	cmp    (%eax),%ah
    3c02:	20 20                	and    %ah,(%eax)
    3c04:	25 6c 75 0a 00       	and    $0xa756c,%eax
    3c09:	42                   	inc    %edx
    3c0a:	69 74 6d 61 70 20 73 	imul   $0x69732070,0x61(%ebp,%ebp,2),%esi
    3c11:	69 
    3c12:	7a 65                	jp     3c79 <write_blocks.part.3+0x16a>
    3c14:	3a 20                	cmp    (%eax),%ah
    3c16:	20 20                	and    %ah,(%eax)
    3c18:	20 20                	and    %ah,(%eax)
    3c1a:	20 20                	and    %ah,(%eax)
    3c1c:	20 20                	and    %ah,(%eax)
    3c1e:	20 20                	and    %ah,(%eax)
    3c20:	25 6c 75 0a 00       	and    $0xa756c,%eax
    3c25:	55                   	push   %ebp
    3c26:	70 63                	jo     3c8b <write_blocks.part.3+0x17c>
    3c28:	61                   	popa   
    3c29:	73 65                	jae    3c90 <write_blocks.part.3+0x181>
    3c2b:	20 74 61 62          	and    %dh,0x62(%ecx,%eiz,2)
    3c2f:	6c                   	insb   (%dx),%es:(%edi)
    3c30:	65 20 73 69          	and    %dh,%gs:0x69(%ebx)
    3c34:	7a 65                	jp     3c9b <write_blocks.part.3+0x18c>
    3c36:	3a 20                	cmp    (%eax),%ah
    3c38:	20 20                	and    %ah,(%eax)
    3c3a:	20 20                	and    %ah,(%eax)
    3c3c:	25 6c 75 0a 00       	and    $0xa756c,%eax
    3c41:	48                   	dec    %eax
    3c42:	45                   	inc    %ebp
    3c43:	4c                   	dec    %esp
    3c44:	45                   	inc    %ebp
    3c45:	4e                   	dec    %esi
    3c46:	4f                   	dec    %edi
    3c47:	53                   	push   %ebx
    3c48:	20 00                	and    %al,(%eax)
    3c4a:	45                   	inc    %ebp
    3c4b:	58                   	pop    %eax
    3c4c:	46                   	inc    %esi
    3c4d:	41                   	inc    %ecx
    3c4e:	54                   	push   %esp
    3c4f:	20 20                	and    %ah,(%eax)
    3c51:	20 00                	and    %al,(%eax)
    3c53:	53                   	push   %ebx
    3c54:	75 63                	jne    3cb9 <write_blocks.part.3+0x1aa>
    3c56:	63 65 73             	arpl   %sp,0x73(%ebp)
    3c59:	73 2e                	jae    3c89 <write_blocks.part.3+0x17a>
    3c5b:	0a 00                	or     (%eax),%al
    3c5d:	57                   	push   %edi
    3c5e:	72 69                	jb     3cc9 <write_blocks.part.3+0x1ba>
    3c60:	74 69                	je     3ccb <write_blocks.part.3+0x1bc>
    3c62:	6e                   	outsb  %ds:(%esi),(%dx)
    3c63:	67 20 74 68          	and    %dh,0x68(%si)
    3c67:	65 20 75 70          	and    %dh,%gs:0x70(%ebp)
    3c6b:	63 61 73             	arpl   %sp,0x73(%ecx)
    3c6e:	65 20 74 61 62       	and    %dh,%gs:0x62(%ecx,%eiz,2)
    3c73:	6c                   	insb   (%dx),%es:(%edi)
    3c74:	65 2e 0a 00          	gs or  %cs:(%eax),%al
    3c78:	57                   	push   %edi
    3c79:	72 69                	jb     3ce4 <write_blocks.part.3+0x1d5>
    3c7b:	74 69                	je     3ce6 <write_blocks.part.3+0x1d7>
    3c7d:	6e                   	outsb  %ds:(%esi),(%dx)
    3c7e:	67 20 74 68          	and    %dh,0x68(%si)
    3c82:	65 20 72 6f          	and    %dh,%gs:0x6f(%edx)
    3c86:	6f                   	outsl  %ds:(%esi),(%dx)
    3c87:	74 20                	je     3ca9 <write_blocks.part.3+0x19a>
    3c89:	64 69 72 65 63 74 6f 	imul   $0x726f7463,%fs:0x65(%edx),%esi
    3c90:	72 
    3c91:	79 2e                	jns    3cc1 <write_blocks.part.3+0x1b2>
    3c93:	0a 00                	or     (%eax),%al
    3c95:	57                   	push   %edi
    3c96:	72 69                	jb     3d01 <write_blocks.part.3+0x1f2>
    3c98:	74 69                	je     3d03 <write_blocks.part.3+0x1f4>
    3c9a:	6e                   	outsb  %ds:(%esi),(%dx)
    3c9b:	67 20 74 68          	and    %dh,0x68(%si)
    3c9f:	65 20 62 6f          	and    %ah,%gs:0x6f(%edx)
    3ca3:	6f                   	outsl  %ds:(%esi),(%dx)
    3ca4:	74 20                	je     3cc6 <write_blocks.part.3+0x1b7>
    3ca6:	73 65                	jae    3d0d <write_blocks.part.3+0x1fe>
    3ca8:	63 74 6f 72          	arpl   %si,0x72(%edi,%ebp,2)
    3cac:	73 2e                	jae    3cdc <write_blocks.part.3+0x1cd>
    3cae:	0a 00                	or     (%eax),%al
    3cb0:	68 65 6c 70 00       	push   $0x706c65
    3cb5:	63 6c 75 73          	arpl   %bp,0x73(%ebp,%esi,2)
    3cb9:	74 65                	je     3d20 <write_blocks.part.3+0x211>
    3cbb:	72 2d                	jb     3cea <write_blocks.part.3+0x1db>
    3cbd:	73 69                	jae    3d28 <write_blocks.part.3+0x219>
    3cbf:	7a 65                	jp     3d26 <write_blocks.part.3+0x217>
    3cc1:	00 66 73             	add    %ah,0x73(%esi)
    3cc4:	2d 73 69 7a 65       	sub    $0x657a6973,%eax
    3cc9:	00 66 90             	add    %ah,-0x70(%esi)
    3ccc:	6d                   	insl   (%dx),%es:(%edi)
    3ccd:	6b 65 78 66          	imul   $0x66,0x78(%ebp),%esp
    3cd1:	61                   	popa   
    3cd2:	74 3a                	je     3d0e <write_blocks.part.3+0x1ff>
    3cd4:	20 45 72             	and    %al,0x72(%ebp)
    3cd7:	72 6f                	jb     3d48 <write_blocks.part.3+0x239>
    3cd9:	72 2c                	jb     3d07 <write_blocks.part.3+0x1f8>
    3cdb:	20 61 72             	and    %ah,0x72(%ecx)
    3cde:	67 75 6d             	addr16 jne 3d4e <write_blocks.part.3+0x23f>
    3ce1:	65 6e                	outsb  %gs:(%esi),(%dx)
    3ce3:	74 20                	je     3d05 <write_blocks.part.3+0x1f6>
    3ce5:	6d                   	insl   (%dx),%es:(%edi)
    3ce6:	69 73 73 69 6e 67 0a 	imul   $0xa676e69,0x73(%ebx),%esi
    3ced:	00 00                	add    %al,(%eax)
    3cef:	00 55 73             	add    %dl,0x73(%ebp)
    3cf2:	61                   	popa   
    3cf3:	67 65 3a 20          	cmp    %gs:(%bx,%si),%ah
    3cf7:	6d                   	insl   (%dx),%es:(%edi)
    3cf8:	6b 65 78 66          	imul   $0x66,0x78(%ebp),%esp
    3cfc:	61                   	popa   
    3cfd:	74 20                	je     3d1f <write_blocks.part.3+0x210>
    3cff:	5b                   	pop    %ebx
    3d00:	6f                   	outsl  %ds:(%esi),(%dx)
    3d01:	70 74                	jo     3d77 <write_blocks.part.3+0x268>
    3d03:	69 6f 6e 73 5d 20 3c 	imul   $0x3c205d73,0x6e(%edi),%ebp
    3d0a:	64 65 76 69          	fs gs jbe 3d77 <write_blocks.part.3+0x268>
    3d0e:	63 65 3e             	arpl   %sp,0x3e(%ebp)
    3d11:	0a 2d 63 2c 20 2d    	or     0x2d202c63,%ch
    3d17:	2d 63 6c 75 73       	sub    $0x73756c63,%eax
    3d1c:	74 65                	je     3d83 <write_blocks.part.3+0x274>
    3d1e:	72 2d                	jb     3d4d <write_blocks.part.3+0x23e>
    3d20:	73 69                	jae    3d8b <write_blocks.part.3+0x27c>
    3d22:	7a 65                	jp     3d89 <write_blocks.part.3+0x27a>
    3d24:	20 23                	and    %ah,(%ebx)
    3d26:	23 20                	and    (%eax),%esp
    3d28:	53                   	push   %ebx
    3d29:	70 65                	jo     3d90 <write_blocks.part.3+0x281>
    3d2b:	63 69 66             	arpl   %bp,0x66(%ecx)
    3d2e:	79 20                	jns    3d50 <write_blocks.part.3+0x241>
    3d30:	74 68                	je     3d9a <write_blocks.part.3+0x28b>
    3d32:	65 20 63 6c          	and    %ah,%gs:0x6c(%ebx)
    3d36:	75 73                	jne    3dab <write_blocks.part.3+0x29c>
    3d38:	74 65                	je     3d9f <write_blocks.part.3+0x290>
    3d3a:	72 20                	jb     3d5c <write_blocks.part.3+0x24d>
    3d3c:	73 69                	jae    3da7 <write_blocks.part.3+0x298>
    3d3e:	7a 65                	jp     3da5 <write_blocks.part.3+0x296>
    3d40:	20 28                	and    %ch,(%eax)
    3d42:	4b                   	dec    %ebx
    3d43:	62 29                	bound  %ebp,(%ecx)
    3d45:	0a 2d 73 2c 20 2d    	or     0x2d202c73,%ch
    3d4b:	2d 66 73 2d 73       	sub    $0x732d7366,%eax
    3d50:	69 7a 65 20 23 23 20 	imul   $0x20232320,0x65(%edx),%edi
    3d57:	20 20                	and    %ah,(%eax)
    3d59:	20 20                	and    %ah,(%eax)
    3d5b:	20 53 70             	and    %dl,0x70(%ebx)
    3d5e:	65 63 69 66          	arpl   %bp,%gs:0x66(%ecx)
    3d62:	79 20                	jns    3d84 <write_blocks.part.3+0x275>
    3d64:	74 68                	je     3dce <write_blocks.part.3+0x2bf>
    3d66:	65 20 66 69          	and    %ah,%gs:0x69(%esi)
    3d6a:	6c                   	insb   (%dx),%es:(%edi)
    3d6b:	65 73 79             	gs jae 3de7 <write_blocks.part.3+0x2d8>
    3d6e:	73 74                	jae    3de4 <write_blocks.part.3+0x2d5>
    3d70:	65 6d                	gs insl (%dx),%es:(%edi)
    3d72:	20 73 69             	and    %dh,0x69(%ebx)
    3d75:	7a 65                	jp     3ddc <write_blocks.part.3+0x2cd>
    3d77:	20 28                	and    %ch,(%eax)
    3d79:	73 65                	jae    3de0 <write_blocks.part.3+0x2d1>
    3d7b:	63 74 6f 72          	arpl   %si,0x72(%edi,%ebp,2)
    3d7f:	73 29                	jae    3daa <write_blocks.part.3+0x29b>
    3d81:	0a 00                	or     (%eax),%al
    3d83:	00 6d 6b             	add    %ch,0x6b(%ebp)
    3d86:	65 78 66             	gs js  3def <write_blocks.part.3+0x2e0>
    3d89:	61                   	popa   
    3d8a:	74 3a                	je     3dc6 <write_blocks.part.3+0x2b7>
    3d8c:	20 45 72             	and    %al,0x72(%ebp)
    3d8f:	72 6f                	jb     3e00 <write_blocks.part.3+0x2f1>
    3d91:	72 2c                	jb     3dbf <write_blocks.part.3+0x2b0>
    3d93:	20 63 6c             	and    %ah,0x6c(%ebx)
    3d96:	75 73                	jne    3e0b <write_blocks.part.3+0x2fc>
    3d98:	74 65                	je     3dff <write_blocks.part.3+0x2f0>
    3d9a:	72 20                	jb     3dbc <write_blocks.part.3+0x2ad>
    3d9c:	73 69                	jae    3e07 <write_blocks.part.3+0x2f8>
    3d9e:	7a 65                	jp     3e05 <write_blocks.part.3+0x2f6>
    3da0:	20 63 61             	and    %ah,0x61(%ebx)
    3da3:	6e                   	outsb  %ds:(%esi),(%dx)
    3da4:	27                   	daa    
    3da5:	74 20                	je     3dc7 <write_blocks.part.3+0x2b8>
    3da7:	62 65 20             	bound  %esp,0x20(%ebp)
    3daa:	6c                   	insb   (%dx),%es:(%edi)
    3dab:	65 73 73             	gs jae 3e21 <write_blocks.part.3+0x312>
    3dae:	20 74 68 61          	and    %dh,0x61(%eax,%ebp,2)
    3db2:	6e                   	outsb  %ds:(%esi),(%dx)
    3db3:	20 34 30             	and    %dh,(%eax,%esi,1)
    3db6:	39 36                	cmp    %esi,(%esi)
    3db8:	20 62 79             	and    %ah,0x79(%edx)
    3dbb:	74 65                	je     3e22 <write_blocks.part.3+0x313>
    3dbd:	2e 0a 00             	or     %cs:(%eax),%al
    3dc0:	6d                   	insl   (%dx),%es:(%edi)
    3dc1:	6b 65 78 66          	imul   $0x66,0x78(%ebp),%esp
    3dc5:	61                   	popa   
    3dc6:	74 3a                	je     3e02 <write_blocks.part.3+0x2f3>
    3dc8:	20 45 72             	and    %al,0x72(%ebp)
    3dcb:	72 6f                	jb     3e3c <write_blocks.part.3+0x32d>
    3dcd:	72 2c                	jb     3dfb <write_blocks.part.3+0x2ec>
    3dcf:	20 63 6c             	and    %ah,0x6c(%ebx)
    3dd2:	75 73                	jne    3e47 <write_blocks.part.3+0x338>
    3dd4:	74 65                	je     3e3b <write_blocks.part.3+0x32c>
    3dd6:	72 20                	jb     3df8 <write_blocks.part.3+0x2e9>
    3dd8:	73 69                	jae    3e43 <write_blocks.part.3+0x334>
    3dda:	7a 65                	jp     3e41 <write_blocks.part.3+0x332>
    3ddc:	20 63 61             	and    %ah,0x61(%ebx)
    3ddf:	6e                   	outsb  %ds:(%esi),(%dx)
    3de0:	27                   	daa    
    3de1:	74 20                	je     3e03 <write_blocks.part.3+0x2f4>
    3de3:	62 65 20             	bound  %esp,0x20(%ebp)
    3de6:	67 72 65             	addr16 jb 3e4e <write_blocks.part.3+0x33f>
    3de9:	61                   	popa   
    3dea:	74 65                	je     3e51 <write_blocks.part.3+0x342>
    3dec:	72 20                	jb     3e0e <write_blocks.part.3+0x2ff>
    3dee:	74 68                	je     3e58 <write_blocks.part.3+0x349>
    3df0:	61                   	popa   
    3df1:	6e                   	outsb  %ds:(%esi),(%dx)
    3df2:	20 33                	and    %dh,(%ebx)
    3df4:	32 20                	xor    (%eax),%ah
    3df6:	4d                   	dec    %ebp
    3df7:	62 00                	bound  %eax,(%eax)
    3df9:	00 00                	add    %al,(%eax)
    3dfb:	00 6d 6b             	add    %ch,0x6b(%ebp)
    3dfe:	65 78 66             	gs js  3e67 <write_blocks.part.3+0x358>
    3e01:	61                   	popa   
    3e02:	74 3a                	je     3e3e <write_blocks.part.3+0x32f>
    3e04:	20 45 72             	and    %al,0x72(%ebp)
    3e07:	72 6f                	jb     3e78 <write_blocks.part.3+0x369>
    3e09:	72 2c                	jb     3e37 <write_blocks.part.3+0x328>
    3e0b:	20 74 68 65          	and    %dh,0x65(%eax,%ebp,2)
    3e0f:	20 73 69             	and    %dh,0x69(%ebx)
    3e12:	7a 65                	jp     3e79 <write_blocks.part.3+0x36a>
    3e14:	20 6f 66             	and    %ch,0x66(%edi)
    3e17:	20 74 68 65          	and    %dh,0x65(%eax,%ebp,2)
    3e1b:	20 63 6c             	and    %ah,0x6c(%ebx)
    3e1e:	75 73                	jne    3e93 <write_blocks.part.3+0x384>
    3e20:	74 65                	je     3e87 <write_blocks.part.3+0x378>
    3e22:	72 20                	jb     3e44 <write_blocks.part.3+0x335>
    3e24:	6d                   	insl   (%dx),%es:(%edi)
    3e25:	75 73                	jne    3e9a <write_blocks.part.3+0x38b>
    3e27:	74 20                	je     3e49 <write_blocks.part.3+0x33a>
    3e29:	62 65 20             	bound  %esp,0x20(%ebp)
    3e2c:	61                   	popa   
    3e2d:	20 70 6f             	and    %dh,0x6f(%eax)
    3e30:	77 65                	ja     3e97 <write_blocks.part.3+0x388>
    3e32:	72 20                	jb     3e54 <write_blocks.part.3+0x345>
    3e34:	6f                   	outsl  %ds:(%esi),(%dx)
    3e35:	66 20 74 77 6f       	data16 and %dh,0x6f(%edi,%esi,2)
    3e3a:	2e 0a 00             	or     %cs:(%eax),%al
    3e3d:	00 00                	add    %al,(%eax)
    3e3f:	00 6d 6b             	add    %ch,0x6b(%ebp)
    3e42:	65 78 66             	gs js  3eab <write_blocks.part.3+0x39c>
    3e45:	61                   	popa   
    3e46:	74 3a                	je     3e82 <write_blocks.part.3+0x373>
    3e48:	20 45 72             	and    %al,0x72(%ebp)
    3e4b:	72 6f                	jb     3ebc <write_blocks.part.3+0x3ad>
    3e4d:	72 2c                	jb     3e7b <write_blocks.part.3+0x36c>
    3e4f:	20 79 6f             	and    %bh,0x6f(%ecx)
    3e52:	75 20                	jne    3e74 <write_blocks.part.3+0x365>
    3e54:	6d                   	insl   (%dx),%es:(%edi)
    3e55:	75 73                	jne    3eca <write_blocks.part.3+0x3bb>
    3e57:	74 20                	je     3e79 <write_blocks.part.3+0x36a>
    3e59:	73 70                	jae    3ecb <write_blocks.part.3+0x3bc>
    3e5b:	65 63 69 66          	arpl   %bp,%gs:0x66(%ecx)
    3e5f:	79 20                	jns    3e81 <write_blocks.part.3+0x372>
    3e61:	61                   	popa   
    3e62:	20 76 61             	and    %dh,0x61(%esi)
    3e65:	6c                   	insb   (%dx),%es:(%edi)
    3e66:	69 64 20 62 6c 6f 63 	imul   $0x6b636f6c,0x62(%eax,%eiz,1),%esp
    3e6d:	6b 
    3e6e:	20 64 65 76          	and    %ah,0x76(%ebp,%eiz,2)
    3e72:	69 63 65 2e 0a 00 6d 	imul   $0x6d000a2e,0x65(%ebx),%esp
    3e79:	6b 65 78 66          	imul   $0x66,0x78(%ebp),%esp
    3e7d:	61                   	popa   
    3e7e:	74 3a                	je     3eba <write_blocks.part.3+0x3ab>
    3e80:	20 45 72             	and    %al,0x72(%ebp)
    3e83:	72 6f                	jb     3ef4 <write_blocks.part.3+0x3e5>
    3e85:	72 20                	jb     3ea7 <write_blocks.part.3+0x398>
    3e87:	72 65                	jb     3eee <write_blocks.part.3+0x3df>
    3e89:	73 6f                	jae    3efa <write_blocks.part.3+0x3eb>
    3e8b:	6c                   	insb   (%dx),%es:(%edi)
    3e8c:	76 69                	jbe    3ef7 <write_blocks.part.3+0x3e8>
    3e8e:	6e                   	outsb  %ds:(%esi),(%dx)
    3e8f:	67 20 64 65          	and    %ah,0x65(%si)
    3e93:	76 69                	jbe    3efe <write_blocks.part.3+0x3ef>
    3e95:	63 65 20             	arpl   %sp,0x20(%ebp)
    3e98:	60                   	pusha  
    3e99:	25 73 27 2e 0a       	and    $0xa2e2773,%eax
    3e9e:	00 00                	add    %al,(%eax)
    3ea0:	6d                   	insl   (%dx),%es:(%edi)
    3ea1:	6b 65 78 66          	imul   $0x66,0x78(%ebp),%esp
    3ea5:	61                   	popa   
    3ea6:	74 3a                	je     3ee2 <write_blocks.part.3+0x3d3>
    3ea8:	20 45 72             	and    %al,0x72(%ebp)
    3eab:	72 6f                	jb     3f1c <write_blocks.part.3+0x40d>
    3ead:	72 20                	jb     3ecf <write_blocks.part.3+0x3c0>
    3eaf:	69 6e 69 74 69 61 6c 	imul   $0x6c616974,0x69(%esi),%ebp
    3eb6:	69 7a 69 6e 67 20 6c 	imul   $0x6c20676e,0x69(%edx),%edi
    3ebd:	69 62 62 6c 6f 63 6b 	imul   $0x6b636f6c,0x62(%edx),%esp
    3ec4:	2e 0a 00             	or     %cs:(%eax),%al
    3ec7:	00 6d 6b             	add    %ch,0x6b(%ebp)
    3eca:	65 78 66             	gs js  3f33 <write_blocks.part.3+0x424>
    3ecd:	61                   	popa   
    3ece:	74 3a                	je     3f0a <write_blocks.part.3+0x3fb>
    3ed0:	20 45 72             	and    %al,0x72(%ebp)
    3ed3:	72 6f                	jb     3f44 <write_blocks.part.3+0x435>
    3ed5:	72 20                	jb     3ef7 <write_blocks.part.3+0x3e8>
    3ed7:	64 65 74 65          	fs gs je 3f40 <write_blocks.part.3+0x431>
    3edb:	72 6d                	jb     3f4a <write_blocks.part.3+0x43b>
    3edd:	69 6e 69 6e 67 20 64 	imul   $0x6420676e,0x69(%esi),%ebp
    3ee4:	65 76 69             	gs jbe 3f50 <write_blocks.part.3+0x441>
    3ee7:	63 65 20             	arpl   %sp,0x20(%ebp)
    3eea:	73 65                	jae    3f51 <write_blocks.part.3+0x442>
    3eec:	63 74 6f 72          	arpl   %si,0x72(%edi,%ebp,2)
    3ef0:	20 73 69             	and    %dh,0x69(%ebx)
    3ef3:	7a 65                	jp     3f5a <write_blocks.part.3+0x44b>
    3ef5:	2e 0a 00             	or     %cs:(%eax),%al
    3ef8:	6d                   	insl   (%dx),%es:(%edi)
    3ef9:	6b 65 78 66          	imul   $0x66,0x78(%ebp),%esp
    3efd:	61                   	popa   
    3efe:	74 3a                	je     3f3a <write_blocks.part.3+0x42b>
    3f00:	20 45 72             	and    %al,0x72(%ebp)
    3f03:	72 6f                	jb     3f74 <write_blocks.part.3+0x465>
    3f05:	72 2c                	jb     3f33 <write_blocks.part.3+0x424>
    3f07:	20 66 73             	and    %ah,0x73(%esi)
    3f0a:	20 73 69             	and    %dh,0x69(%ebx)
    3f0d:	7a 65                	jp     3f74 <write_blocks.part.3+0x465>
    3f0f:	20 63 61             	and    %ah,0x61(%ebx)
    3f12:	6e                   	outsb  %ds:(%esi),(%dx)
    3f13:	27                   	daa    
    3f14:	74 20                	je     3f36 <write_blocks.part.3+0x427>
    3f16:	62 65 20             	bound  %esp,0x20(%ebp)
    3f19:	6c                   	insb   (%dx),%es:(%edi)
    3f1a:	65 73 73             	gs jae 3f90 <write_blocks.part.3+0x481>
    3f1d:	20 74 68 61          	and    %dh,0x61(%eax,%ebp,2)
    3f21:	6e                   	outsb  %ds:(%esi),(%dx)
    3f22:	20 31                	and    %dh,(%ecx)
    3f24:	20 4d 62             	and    %cl,0x62(%ebp)
    3f27:	2e 0a 00             	or     %cs:(%eax),%al
    3f2a:	00 00                	add    %al,(%eax)
    3f2c:	6d                   	insl   (%dx),%es:(%edi)
    3f2d:	6b 65 78 66          	imul   $0x66,0x78(%ebp),%esp
    3f31:	61                   	popa   
    3f32:	74 3a                	je     3f6e <write_blocks.part.3+0x45f>
    3f34:	20 45 72             	and    %al,0x72(%ebp)
    3f37:	72 6f                	jb     3fa8 <write_blocks.part.3+0x499>
    3f39:	72 2c                	jb     3f67 <write_blocks.part.3+0x458>
    3f3b:	20 73 65             	and    %dh,0x65(%ebx)
    3f3e:	63 74 6f 72          	arpl   %si,0x72(%edi,%ebp,2)
    3f42:	20 73 69             	and    %dh,0x69(%ebx)
    3f45:	7a 65                	jp     3fac <write_blocks.part.3+0x49d>
    3f47:	20 63 61             	and    %ah,0x61(%ebx)
    3f4a:	6e                   	outsb  %ds:(%esi),(%dx)
    3f4b:	27                   	daa    
    3f4c:	74 20                	je     3f6e <write_blocks.part.3+0x45f>
    3f4e:	62 65 20             	bound  %esp,0x20(%ebp)
    3f51:	67 72 65             	addr16 jb 3fb9 <write_blocks.part.3+0x4aa>
    3f54:	61                   	popa   
    3f55:	74 65                	je     3fbc <write_blocks.part.3+0x4ad>
    3f57:	72 20                	jb     3f79 <write_blocks.part.3+0x46a>
    3f59:	74 68                	je     3fc3 <write_blocks.part.3+0x4b4>
    3f5b:	61                   	popa   
    3f5c:	6e                   	outsb  %ds:(%esi),(%dx)
    3f5d:	20 34 30             	and    %dh,(%eax,%esi,1)
    3f60:	39 36                	cmp    %esi,(%esi)
    3f62:	20 62 79             	and    %ah,0x79(%edx)
    3f65:	74 65                	je     3fcc <write_blocks.part.3+0x4bd>
    3f67:	73 2e                	jae    3f97 <write_blocks.part.3+0x488>
    3f69:	0a 00                	or     (%eax),%al
    3f6b:	00 6d 6b             	add    %ch,0x6b(%ebp)
    3f6e:	65 78 66             	gs js  3fd7 <write_blocks.part.3+0x4c8>
    3f71:	61                   	popa   
    3f72:	74 3a                	je     3fae <write_blocks.part.3+0x49f>
    3f74:	20 57 61             	and    %dl,0x61(%edi)
    3f77:	72 6e                	jb     3fe7 <write_blocks.part.3+0x4d8>
    3f79:	69 6e 67 2c 20 66 61 	imul   $0x6166202c,0x67(%esi),%ebp
    3f80:	69 6c 65 64 20 74 6f 	imul   $0x206f7420,0x64(%ebp,%eiz,2),%ebp
    3f87:	20 
    3f88:	6f                   	outsl  %ds:(%esi),(%dx)
    3f89:	62 74 61 69          	bound  %esi,0x69(%ecx,%eiz,2)
    3f8d:	6e                   	outsb  %ds:(%esi),(%dx)
    3f8e:	20 62 6c             	and    %ah,0x6c(%edx)
    3f91:	6f                   	outsl  %ds:(%esi),(%dx)
    3f92:	63 6b 20             	arpl   %bp,0x20(%ebx)
    3f95:	64 65 76 69          	fs gs jbe 4002 <write_blocks.part.3+0x4f3>
    3f99:	63 65 20             	arpl   %sp,0x20(%ebp)
    3f9c:	73 69                	jae    4007 <write_blocks.part.3+0x4f8>
    3f9e:	7a 65                	jp     4005 <write_blocks.part.3+0x4f6>
    3fa0:	2e 0a 00             	or     %cs:(%eax),%al
    3fa3:	00 6d 6b             	add    %ch,0x6b(%ebp)
    3fa6:	65 78 66             	gs js  400f <write_blocks.part.3+0x500>
    3fa9:	61                   	popa   
    3faa:	74 3a                	je     3fe6 <write_blocks.part.3+0x4d7>
    3fac:	20 59 6f             	and    %bl,0x6f(%ecx)
    3faf:	75 20                	jne    3fd1 <write_blocks.part.3+0x4c2>
    3fb1:	6d                   	insl   (%dx),%es:(%edi)
    3fb2:	75 73                	jne    4027 <write_blocks.part.3+0x518>
    3fb4:	74 20                	je     3fd6 <write_blocks.part.3+0x4c7>
    3fb6:	73 70                	jae    4028 <write_blocks.part.3+0x519>
    3fb8:	65 63 69 66          	arpl   %bp,%gs:0x66(%ecx)
    3fbc:	79 20                	jns    3fde <write_blocks.part.3+0x4cf>
    3fbe:	74 68                	je     4028 <write_blocks.part.3+0x519>
    3fc0:	65 20 66 69          	and    %ah,%gs:0x69(%esi)
    3fc4:	6c                   	insb   (%dx),%es:(%edi)
    3fc5:	65 73 79             	gs jae 4041 <write_blocks.part.3+0x532>
    3fc8:	73 74                	jae    403e <write_blocks.part.3+0x52f>
    3fca:	65 6d                	gs insl (%dx),%es:(%edi)
    3fcc:	20 73 69             	and    %dh,0x69(%ebx)
    3fcf:	7a 65                	jp     4036 <write_blocks.part.3+0x527>
    3fd1:	2e 0a 00             	or     %cs:(%eax),%al
    3fd4:	42                   	inc    %edx
    3fd5:	6c                   	insb   (%dx),%es:(%edi)
    3fd6:	6f                   	outsl  %ds:(%esi),(%dx)
    3fd7:	63 6b 20             	arpl   %bp,0x20(%ebx)
    3fda:	64 65 76 69          	fs gs jbe 4047 <write_blocks.part.3+0x538>
    3fde:	63 65 20             	arpl   %sp,0x20(%ebp)
    3fe1:	68 61 73 20 25       	push   $0x25207361
    3fe6:	6c                   	insb   (%dx),%es:(%edi)
    3fe7:	6c                   	insb   (%dx),%es:(%edi)
    3fe8:	75 20                	jne    400a <write_blocks.part.3+0x4fb>
    3fea:	62 6c 6f 63          	bound  %ebp,0x63(%edi,%ebp,2)
    3fee:	6b 73 2e 0a          	imul   $0xa,0x2e(%ebx),%esi
    3ff2:	00 00                	add    %al,(%eax)
    3ff4:	6d                   	insl   (%dx),%es:(%edi)
    3ff5:	6b 65 78 66          	imul   $0x66,0x78(%ebp),%esp
    3ff9:	61                   	popa   
    3ffa:	74 3a                	je     4036 <write_blocks.part.3+0x527>
    3ffc:	20 45 72             	and    %al,0x72(%ebp)
    3fff:	72 6f                	jb     4070 <write_blocks.part.3+0x561>
    4001:	72 2c                	jb     402f <write_blocks.part.3+0x520>
    4003:	20 74 68 65          	and    %dh,0x65(%eax,%ebp,2)
    4007:	20 64 65 76          	and    %ah,0x76(%ebp,%eiz,2)
    400b:	69 63 65 20 69 73 20 	imul   $0x20736920,0x65(%ebx),%esp
    4012:	6e                   	outsb  %ds:(%esi),(%dx)
    4013:	6f                   	outsl  %ds:(%esi),(%dx)
    4014:	74 20                	je     4036 <write_blocks.part.3+0x527>
    4016:	62 69 67             	bound  %ebp,0x67(%ecx)
    4019:	20 65 6e             	and    %ah,0x6e(%ebp)
    401c:	6f                   	outsl  %ds:(%esi),(%dx)
    401d:	75 67                	jne    4086 <write_blocks.part.3+0x577>
    401f:	68 20 74 6f 20       	push   $0x206f7420
    4024:	63 72 65             	arpl   %si,0x65(%edx)
    4027:	61                   	popa   
    4028:	74 65                	je     408f <write_blocks.part.3+0x580>
    402a:	20 61 20             	and    %ah,0x20(%ecx)
    402d:	66 69 6c 65 73 79 73 	imul   $0x7379,0x73(%ebp,%eiz,2),%bp
    4034:	74 65                	je     409b <write_blocks.part.3+0x58c>
    4036:	6d                   	insl   (%dx),%es:(%edi)
    4037:	20 6f 66             	and    %ch,0x66(%edi)
    403a:	20 74 68 65          	and    %dh,0x65(%eax,%ebp,2)
    403e:	20 73 70             	and    %dh,0x70(%ebx)
    4041:	65 63 69 66          	arpl   %bp,%gs:0x66(%ecx)
    4045:	69 65 64 20 73 69 7a 	imul   $0x7a697320,0x64(%ebp),%esp
    404c:	65 2e 0a 00          	gs or  %cs:(%eax),%al
    4050:	6d                   	insl   (%dx),%es:(%edi)
    4051:	6b 65 78 66          	imul   $0x66,0x78(%ebp),%esp
    4055:	61                   	popa   
    4056:	74 3a                	je     4092 <write_blocks.part.3+0x583>
    4058:	20 45 72             	and    %al,0x72(%ebp)
    405b:	72 6f                	jb     40cc <write_blocks.part.3+0x5bd>
    405d:	72 2c                	jb     408b <write_blocks.part.3+0x57c>
    405f:	20 69 6e             	and    %ch,0x6e(%ecx)
    4062:	73 75                	jae    40d9 <write_blocks.part.3+0x5ca>
    4064:	66 66 69 63 69 65 6e 	data16 imul $0x6e65,0x69(%ebx),%sp
    406b:	74 20                	je     408d <write_blocks.part.3+0x57e>
    406d:	64 69 73 6b 20 73 70 	imul   $0x61707320,%fs:0x6b(%ebx),%esi
    4074:	61 
    4075:	63 65 20             	arpl   %sp,0x20(%ebp)
    4078:	6f                   	outsl  %ds:(%esi),(%dx)
    4079:	6e                   	outsb  %ds:(%esi),(%dx)
    407a:	20 64 65 76          	and    %ah,0x76(%ebp,%eiz,2)
    407e:	69 63 65 2e 0a 00 57 	imul   $0x57000a2e,0x65(%ebx),%esp
    4085:	72 69                	jb     40f0 <write_blocks.part.3+0x5e1>
    4087:	74 69                	je     40f2 <write_blocks.part.3+0x5e3>
    4089:	6e                   	outsb  %ds:(%esi),(%dx)
    408a:	67 20 74 68          	and    %dh,0x68(%si)
    408e:	65 20 61 6c          	and    %ah,%gs:0x6c(%ecx)
    4092:	6c                   	insb   (%dx),%es:(%edi)
    4093:	6f                   	outsl  %ds:(%esi),(%dx)
    4094:	63 61 74             	arpl   %sp,0x74(%ecx)
    4097:	69 6f 6e 20 74 61 62 	imul   $0x62617420,0x6e(%edi),%ebp
    409e:	6c                   	insb   (%dx),%es:(%edi)
    409f:	65 2e 0a 00          	gs or  %cs:(%eax),%al
    40a3:	00 6d 6b             	add    %ch,0x6b(%ebp)
    40a6:	65 78 66             	gs js  410f <write_blocks.part.3+0x600>
    40a9:	61                   	popa   
    40aa:	74 3a                	je     40e6 <write_blocks.part.3+0x5d7>
    40ac:	20 45 72             	and    %al,0x72(%ebp)
    40af:	72 6f                	jb     4120 <write_blocks.part.3+0x611>
    40b1:	72 2c                	jb     40df <write_blocks.part.3+0x5d0>
    40b3:	20 66 61             	and    %ah,0x61(%esi)
    40b6:	69 6c 65 64 20 74 6f 	imul   $0x206f7420,0x64(%ebp,%eiz,2),%ebp
    40bd:	20 
    40be:	77 72                	ja     4132 <write_blocks.part.3+0x623>
    40c0:	69 74 65 20 74 68 65 	imul   $0x20656874,0x20(%ebp,%eiz,2),%esi
    40c7:	20 
    40c8:	46                   	inc    %esi
    40c9:	41                   	inc    %ecx
    40ca:	54                   	push   %esp
    40cb:	20 74 6f 20          	and    %dh,0x20(%edi,%ebp,2)
    40cf:	64 69 73 6b 0a 00 00 	imul   $0xa,%fs:0x6b(%ebx),%esi
    40d6:	00 
    40d7:	00 6d 6b             	add    %ch,0x6b(%ebp)
    40da:	65 78 66             	gs js  4143 <write_blocks.part.3+0x634>
    40dd:	61                   	popa   
    40de:	74 3a                	je     411a <write_blocks.part.3+0x60b>
    40e0:	20 45 72             	and    %al,0x72(%ebp)
    40e3:	72 6f                	jb     4154 <write_blocks.part.3+0x645>
    40e5:	72 2c                	jb     4113 <write_blocks.part.3+0x604>
    40e7:	20 66 61             	and    %ah,0x61(%esi)
    40ea:	69 6c 65 64 20 74 6f 	imul   $0x206f7420,0x64(%ebp,%eiz,2),%ebp
    40f1:	20 
    40f2:	61                   	popa   
    40f3:	6c                   	insb   (%dx),%es:(%edi)
    40f4:	6c                   	insb   (%dx),%es:(%edi)
    40f5:	6f                   	outsl  %ds:(%esi),(%dx)
    40f6:	63 61 74             	arpl   %sp,0x74(%ecx)
    40f9:	65 20 63 6c          	and    %ah,%gs:0x6c(%ebx)
    40fd:	75 73                	jne    4172 <write_blocks.part.3+0x663>
    40ff:	74 65                	je     4166 <write_blocks.part.3+0x657>
    4101:	72 73                	jb     4176 <write_blocks.part.3+0x667>
    4103:	20 66 6f             	and    %ah,0x6f(%esi)
    4106:	72 20                	jb     4128 <write_blocks.part.3+0x619>
    4108:	62 69 74             	bound  %ebp,0x74(%ecx)
    410b:	6d                   	insl   (%dx),%es:(%edi)
    410c:	61                   	popa   
    410d:	70 2e                	jo     413d <write_blocks.part.3+0x62e>
    410f:	0a 00                	or     (%eax),%al
    4111:	00 00                	add    %al,(%eax)
    4113:	00 6d 6b             	add    %ch,0x6b(%ebp)
    4116:	65 78 66             	gs js  417f <write_blocks.part.3+0x670>
    4119:	61                   	popa   
    411a:	74 3a                	je     4156 <write_blocks.part.3+0x647>
    411c:	45                   	inc    %ebp
    411d:	72 72                	jb     4191 <write_blocks.part.3+0x682>
    411f:	6f                   	outsl  %ds:(%esi),(%dx)
    4120:	72 2c                	jb     414e <write_blocks.part.3+0x63f>
    4122:	20 66 61             	and    %ah,0x61(%esi)
    4125:	69 6c 65 64 20 74 6f 	imul   $0x206f7420,0x64(%ebp,%eiz,2),%ebp
    412c:	20 
    412d:	61                   	popa   
    412e:	6c                   	insb   (%dx),%es:(%edi)
    412f:	6c                   	insb   (%dx),%es:(%edi)
    4130:	6f                   	outsl  %ds:(%esi),(%dx)
    4131:	63 61 74             	arpl   %sp,0x74(%ecx)
    4134:	65 20 63 6c          	and    %ah,%gs:0x6c(%ebx)
    4138:	75 73                	jne    41ad <write_blocks.part.3+0x69e>
    413a:	74 65                	je     41a1 <write_blocks.part.3+0x692>
    413c:	72 73                	jb     41b1 <write_blocks.part.3+0x6a2>
    413e:	20 66 6f             	and    %ah,0x6f(%esi)
    4141:	72 20                	jb     4163 <write_blocks.part.3+0x654>
    4143:	74 68                	je     41ad <write_blocks.part.3+0x69e>
    4145:	65 20 75 70          	and    %dh,%gs:0x70(%ebp)
    4149:	63 61 73             	arpl   %sp,0x73(%ecx)
    414c:	65 20 74 61 62       	and    %dh,%gs:0x62(%ecx,%eiz,2)
    4151:	6c                   	insb   (%dx),%es:(%edi)
    4152:	65 2e 0a 00          	gs or  %cs:(%eax),%al
    4156:	00 00                	add    %al,(%eax)
    4158:	6d                   	insl   (%dx),%es:(%edi)
    4159:	6b 65 78 66          	imul   $0x66,0x78(%ebp),%esp
    415d:	61                   	popa   
    415e:	74 3a                	je     419a <write_blocks.part.3+0x68b>
    4160:	20 45 72             	and    %al,0x72(%ebp)
    4163:	72 6f                	jb     41d4 <write_blocks.part.3+0x6c5>
    4165:	72 2c                	jb     4193 <write_blocks.part.3+0x684>
    4167:	20 66 61             	and    %ah,0x61(%esi)
    416a:	69 6c 65 64 20 74 6f 	imul   $0x206f7420,0x64(%ebp,%eiz,2),%ebp
    4171:	20 
    4172:	61                   	popa   
    4173:	6c                   	insb   (%dx),%es:(%edi)
    4174:	6c                   	insb   (%dx),%es:(%edi)
    4175:	6f                   	outsl  %ds:(%esi),(%dx)
    4176:	63 61 74             	arpl   %sp,0x74(%ecx)
    4179:	65 20 63 6c          	and    %ah,%gs:0x6c(%ebx)
    417d:	75 73                	jne    41f2 <write_blocks.part.3+0x6e3>
    417f:	74 65                	je     41e6 <write_blocks.part.3+0x6d7>
    4181:	72 20                	jb     41a3 <write_blocks.part.3+0x694>
    4183:	66 6f                	outsw  %ds:(%esi),(%dx)
    4185:	72 20                	jb     41a7 <write_blocks.part.3+0x698>
    4187:	74 68                	je     41f1 <write_blocks.part.3+0x6e2>
    4189:	65 20 72 6f          	and    %dh,%gs:0x6f(%edx)
    418d:	6f                   	outsl  %ds:(%esi),(%dx)
    418e:	74 20                	je     41b0 <write_blocks.part.3+0x6a1>
    4190:	64 65 6e             	fs outsb %gs:(%esi),(%dx)
    4193:	74 72                	je     4207 <write_blocks.part.3+0x6f8>
    4195:	79 2e                	jns    41c5 <write_blocks.part.3+0x6b6>
    4197:	0a 00                	or     (%eax),%al
    4199:	00 00                	add    %al,(%eax)
    419b:	00 57 72             	add    %dl,0x72(%edi)
    419e:	69 74 69 6e 67 20 74 	imul   $0x68742067,0x6e(%ecx,%ebp,2),%esi
    41a5:	68 
    41a6:	65 20 61 6c          	and    %ah,%gs:0x6c(%ecx)
    41aa:	6c                   	insb   (%dx),%es:(%edi)
    41ab:	6f                   	outsl  %ds:(%esi),(%dx)
    41ac:	63 61 74             	arpl   %sp,0x74(%ecx)
    41af:	69 6f 6e 20 62 69 74 	imul   $0x74696220,0x6e(%edi),%ebp
    41b6:	6d                   	insl   (%dx),%es:(%edi)
    41b7:	61                   	popa   
    41b8:	70 2e                	jo     41e8 <write_blocks.part.3+0x6d9>
    41ba:	0a 00                	or     (%eax),%al
    41bc:	6d                   	insl   (%dx),%es:(%edi)
    41bd:	6b 65 78 66          	imul   $0x66,0x78(%ebp),%esp
    41c1:	61                   	popa   
    41c2:	74 3a                	je     41fe <write_blocks.part.3+0x6ef>
    41c4:	20 45 72             	and    %al,0x72(%ebp)
    41c7:	72 6f                	jb     4238 <write_blocks.part.3+0x729>
    41c9:	72 2c                	jb     41f7 <write_blocks.part.3+0x6e8>
    41cb:	20 66 61             	and    %ah,0x61(%esi)
    41ce:	69 6c 65 64 20 74 6f 	imul   $0x206f7420,0x64(%ebp,%eiz,2),%ebp
    41d5:	20 
    41d6:	77 72                	ja     424a <write_blocks.part.3+0x73b>
    41d8:	69 74 65 20 74 68 65 	imul   $0x20656874,0x20(%ebp,%eiz,2),%esi
    41df:	20 
    41e0:	61                   	popa   
    41e1:	6c                   	insb   (%dx),%es:(%edi)
    41e2:	6c                   	insb   (%dx),%es:(%edi)
    41e3:	6f                   	outsl  %ds:(%esi),(%dx)
    41e4:	63 61 74             	arpl   %sp,0x74(%ecx)
    41e7:	69 6f 6e 20 62 69 74 	imul   $0x74696220,0x6e(%edi),%ebp
    41ee:	6d                   	insl   (%dx),%es:(%edi)
    41ef:	61                   	popa   
    41f0:	70 20                	jo     4212 <write_blocks.part.3+0x703>
    41f2:	74 6f                	je     4263 <write_blocks.part.3+0x754>
    41f4:	20 64 69 73          	and    %ah,0x73(%ecx,%ebp,2)
    41f8:	6b 2e 0a             	imul   $0xa,(%esi),%ebp
    41fb:	00 6d 6b             	add    %ch,0x6b(%ebp)
    41fe:	65 78 66             	gs js  4267 <write_blocks.part.3+0x758>
    4201:	61                   	popa   
    4202:	74 3a                	je     423e <write_blocks.part.3+0x72f>
    4204:	20 45 72             	and    %al,0x72(%ebp)
    4207:	72 6f                	jb     4278 <write_blocks.part.3+0x769>
    4209:	72 2c                	jb     4237 <write_blocks.part.3+0x728>
    420b:	20 66 61             	and    %ah,0x61(%esi)
    420e:	69 6c 65 64 20 74 6f 	imul   $0x206f7420,0x64(%ebp,%eiz,2),%ebp
    4215:	20 
    4216:	77 72                	ja     428a <write_blocks.part.3+0x77b>
    4218:	69 74 65 20 74 68 65 	imul   $0x20656874,0x20(%ebp,%eiz,2),%esi
    421f:	20 
    4220:	75 70                	jne    4292 <write_blocks.part.3+0x783>
    4222:	63 61 73             	arpl   %sp,0x73(%ecx)
    4225:	65 20 74 61 62       	and    %dh,%gs:0x62(%ecx,%eiz,2)
    422a:	6c                   	insb   (%dx),%es:(%edi)
    422b:	65 20 74 6f 20       	and    %dh,%gs:0x20(%edi,%ebp,2)
    4230:	64 69 73 6b 2e 0a 00 	imul   $0xa2e,%fs:0x6b(%ebx),%esi
    4237:	00 
    4238:	6d                   	insl   (%dx),%es:(%edi)
    4239:	6b 65 78 66          	imul   $0x66,0x78(%ebp),%esp
    423d:	61                   	popa   
    423e:	74 3a                	je     427a <write_blocks.part.3+0x76b>
    4240:	20 45 72             	and    %al,0x72(%ebp)
    4243:	72 6f                	jb     42b4 <write_blocks.part.3+0x7a5>
    4245:	72 2c                	jb     4273 <write_blocks.part.3+0x764>
    4247:	20 66 61             	and    %ah,0x61(%esi)
    424a:	69 6c 65 64 20 74 6f 	imul   $0x206f7420,0x64(%ebp,%eiz,2),%ebp
    4251:	20 
    4252:	77 72                	ja     42c6 <write_blocks.part.3+0x7b7>
    4254:	69 74 65 20 74 68 65 	imul   $0x20656874,0x20(%ebp,%eiz,2),%esi
    425b:	20 
    425c:	72 6f                	jb     42cd <write_blocks.part.3+0x7be>
    425e:	6f                   	outsl  %ds:(%esi),(%dx)
    425f:	74 20                	je     4281 <write_blocks.part.3+0x772>
    4261:	64 69 72 65 63 74 6f 	imul   $0x726f7463,%fs:0x65(%edx),%esi
    4268:	72 
    4269:	79 20                	jns    428b <write_blocks.part.3+0x77c>
    426b:	65 6e                	outsb  %gs:(%esi),(%dx)
    426d:	74 72                	je     42e1 <write_blocks.part.3+0x7d2>
    426f:	69 65 73 20 74 6f 20 	imul   $0x206f7420,0x73(%ebp),%esp
    4276:	64 69 73 6b 2e 0a 00 	imul   $0xa2e,%fs:0x6b(%ebx),%esi
    427d:	00 
    427e:	00 00                	add    %al,(%eax)
    4280:	28 6d 62             	sub    %ch,0x62(%ebp)
    4283:	73 2d                	jae    42b2 <write_blocks.part.3+0x7a3>
    4285:	3e 62 79 74          	bound  %edi,%ds:0x74(%ecx)
    4289:	65 73 5f             	gs jae 42eb <write_blocks.part.3+0x7dc>
    428c:	70 65                	jo     42f3 <write_blocks.part.3+0x7e4>
    428e:	72 5f                	jb     42ef <write_blocks.part.3+0x7e0>
    4290:	73 65                	jae    42f7 <write_blocks.part.3+0x7e8>
    4292:	63 74 6f 72          	arpl   %si,0x72(%edi,%ebp,2)
    4296:	20 2b                	and    %ch,(%ebx)
    4298:	20 6d 62             	and    %ch,0x62(%ebp)
    429b:	73 2d                	jae    42ca <write_blocks.part.3+0x7bb>
    429d:	3e 73 65             	jae,pt 4305 <long_options+0x5>
    42a0:	63 5f 70             	arpl   %bx,0x70(%edi)
    42a3:	65 72 5f             	gs jb  4305 <long_options+0x5>
    42a6:	63 6c 75 73          	arpl   %bp,0x73(%ebp,%esi,2)
    42aa:	74 65                	je     4311 <long_options+0x11>
    42ac:	72 29                	jb     42d7 <write_blocks.part.3+0x7c8>
    42ae:	20 3c 3d 20 32 35 00 	and    %bh,0x353220(,%edi,1)
    42b5:	00 00                	add    %al,(%eax)
    42b7:	00 6d 6b             	add    %ch,0x6b(%ebp)
    42ba:	65 78 66             	gs js  4323 <long_options+0x23>
    42bd:	61                   	popa   
    42be:	74 3a                	je     42fa <write_blocks.part.3+0x7eb>
    42c0:	20 45 72             	and    %al,0x72(%ebp)
    42c3:	72 6f                	jb     4334 <long_options+0x34>
    42c5:	72 2c                	jb     42f3 <write_blocks.part.3+0x7e4>
    42c7:	20 66 61             	and    %ah,0x61(%esi)
    42ca:	69 6c 65 64 20 74 6f 	imul   $0x206f7420,0x64(%ebp,%eiz,2),%ebp
    42d1:	20 
    42d2:	77 72                	ja     4346 <upcase_table+0x6>
    42d4:	69 74 65 20 74 68 65 	imul   $0x20656874,0x20(%ebp,%eiz,2),%esi
    42db:	20 
    42dc:	56                   	push   %esi
    42dd:	42                   	inc    %edx
    42de:	52                   	push   %edx
    42df:	20 74 6f 20          	and    %dh,0x20(%edi,%ebp,2)
    42e3:	64 69 73 6b 0a 00 66 	imul   $0x9066000a,%fs:0x6b(%ebx),%esi
    42ea:	90 
    42eb:	66 90                	xchg   %ax,%ax
    42ed:	66 90                	xchg   %ax,%ax
    42ef:	66 90                	xchg   %ax,%ax
    42f1:	66 90                	xchg   %ax,%ax
    42f3:	66 90                	xchg   %ax,%ax
    42f5:	66 90                	xchg   %ax,%ax
    42f7:	66 90                	xchg   %ax,%ax
    42f9:	66 90                	xchg   %ax,%ax
    42fb:	66 90                	xchg   %ax,%ax
    42fd:	66 90                	xchg   %ax,%ax
    42ff:	90                   	nop

00004300 <long_options>:
    4300:	b0 3c 00 00 00 00 00 00 00 00 00 00 68 00 00 00     .<..........h...
    4310:	b5 3c 00 00 01 00 00 00 00 00 00 00 63 00 00 00     .<..........c...
    4320:	c2 3c 00 00 01 00 00 00 00 00 00 00 73 00 00 00     .<..........s...
	...

00004340 <upcase_table>:
    4340:	00 00 01 00 02 00 03 00 04 00 05 00 06 00 07 00     ................
    4350:	08 00 09 00 0a 00 0b 00 0c 00 0d 00 0e 00 0f 00     ................
    4360:	10 00 11 00 12 00 13 00 14 00 15 00 16 00 17 00     ................
    4370:	18 00 19 00 1a 00 1b 00 1c 00 1d 00 1e 00 1f 00     ................
    4380:	20 00 21 00 22 00 23 00 24 00 25 00 26 00 27 00      .!.".#.$.%.&.'.
    4390:	28 00 29 00 2a 00 2b 00 2c 00 2d 00 2e 00 2f 00     (.).*.+.,.-.../.
    43a0:	30 00 31 00 32 00 33 00 34 00 35 00 36 00 37 00     0.1.2.3.4.5.6.7.
    43b0:	38 00 39 00 3a 00 3b 00 3c 00 3d 00 3e 00 3f 00     8.9.:.;.<.=.>.?.
    43c0:	40 00 41 00 42 00 43 00 44 00 45 00 46 00 47 00     @.A.B.C.D.E.F.G.
    43d0:	48 00 49 00 4a 00 4b 00 4c 00 4d 00 4e 00 4f 00     H.I.J.K.L.M.N.O.
    43e0:	50 00 51 00 52 00 53 00 54 00 55 00 56 00 57 00     P.Q.R.S.T.U.V.W.
    43f0:	58 00 59 00 5a 00 5b 00 5c 00 5d 00 5e 00 5f 00     X.Y.Z.[.\.].^._.
    4400:	60 00 41 00 42 00 43 00 44 00 45 00 46 00 47 00     `.A.B.C.D.E.F.G.
    4410:	48 00 49 00 4a 00 4b 00 4c 00 4d 00 4e 00 4f 00     H.I.J.K.L.M.N.O.
    4420:	50 00 51 00 52 00 53 00 54 00 55 00 56 00 57 00     P.Q.R.S.T.U.V.W.
    4430:	58 00 59 00 5a 00 7b 00 7c 00 7d 00 7e 00 7f 00     X.Y.Z.{.|.}.~...
    4440:	80 00 81 00 82 00 83 00 84 00 85 00 86 00 87 00     ................
    4450:	88 00 89 00 8a 00 8b 00 8c 00 8d 00 8e 00 8f 00     ................
    4460:	90 00 91 00 92 00 93 00 94 00 95 00 96 00 97 00     ................
    4470:	98 00 99 00 9a 00 9b 00 9c 00 9d 00 9e 00 9f 00     ................
    4480:	a0 00 a1 00 a2 00 a3 00 a4 00 a5 00 a6 00 a7 00     ................
    4490:	a8 00 a9 00 aa 00 ab 00 ac 00 ad 00 ae 00 af 00     ................
    44a0:	b0 00 b1 00 b2 00 b3 00 b4 00 b5 00 b6 00 b7 00     ................
    44b0:	b8 00 b9 00 ba 00 bb 00 bc 00 bd 00 be 00 bf 00     ................
    44c0:	c0 00 c1 00 c2 00 c3 00 c4 00 c5 00 c6 00 c7 00     ................
    44d0:	c8 00 c9 00 ca 00 cb 00 cc 00 cd 00 ce 00 cf 00     ................
    44e0:	d0 00 d1 00 d2 00 d3 00 d4 00 d5 00 d6 00 d7 00     ................
    44f0:	d8 00 d9 00 da 00 db 00 dc 00 dd 00 de 00 df 00     ................
    4500:	c0 00 c1 00 c2 00 c3 00 c4 00 c5 00 c6 00 c7 00     ................
    4510:	c8 00 c9 00 ca 00 cb 00 cc 00 cd 00 ce 00 cf 00     ................
    4520:	d0 00 d1 00 d2 00 d3 00 d4 00 d5 00 d6 00 f7 00     ................
    4530:	d8 00 d9 00 da 00 db 00 dc 00 dd 00 de 00 78 01     ..............x.
    4540:	00 01 00 01 02 01 02 01 04 01 04 01 06 01 06 01     ................
    4550:	08 01 08 01 0a 01 0a 01 0c 01 0c 01 0e 01 0e 01     ................
    4560:	10 01 10 01 12 01 12 01 14 01 14 01 16 01 16 01     ................
    4570:	18 01 18 01 1a 01 1a 01 1c 01 1c 01 1e 01 1e 01     ................
    4580:	20 01 20 01 22 01 22 01 24 01 24 01 26 01 26 01      . .".".$.$.&.&.
    4590:	28 01 28 01 2a 01 2a 01 2c 01 2c 01 2e 01 2e 01     (.(.*.*.,.,.....
    45a0:	30 01 31 01 32 01 32 01 34 01 34 01 36 01 36 01     0.1.2.2.4.4.6.6.
    45b0:	38 01 39 01 39 01 3b 01 3b 01 3d 01 3d 01 3f 01     8.9.9.;.;.=.=.?.
    45c0:	3f 01 41 01 41 01 43 01 43 01 45 01 45 01 47 01     ?.A.A.C.C.E.E.G.
    45d0:	47 01 49 01 4a 01 4a 01 4c 01 4c 01 4e 01 4e 01     G.I.J.J.L.L.N.N.
    45e0:	50 01 50 01 52 01 52 01 54 01 54 01 56 01 56 01     P.P.R.R.T.T.V.V.
    45f0:	58 01 58 01 5a 01 5a 01 5c 01 5c 01 5e 01 5e 01     X.X.Z.Z.\.\.^.^.
    4600:	60 01 60 01 62 01 62 01 64 01 64 01 66 01 66 01     `.`.b.b.d.d.f.f.
    4610:	68 01 68 01 6a 01 6a 01 6c 01 6c 01 6e 01 6e 01     h.h.j.j.l.l.n.n.
    4620:	70 01 70 01 72 01 72 01 74 01 74 01 76 01 76 01     p.p.r.r.t.t.v.v.
    4630:	78 01 79 01 79 01 7b 01 7b 01 7d 01 7d 01 7f 01     x.y.y.{.{.}.}...
    4640:	43 02 81 01 82 01 82 01 84 01 84 01 86 01 87 01     C...............
    4650:	87 01 89 01 8a 01 8b 01 8b 01 8d 01 8e 01 8f 01     ................
    4660:	90 01 91 01 91 01 93 01 94 01 f6 01 96 01 97 01     ................
    4670:	98 01 98 01 3d 02 9b 01 9c 01 9d 01 20 02 9f 01     ....=....... ...
    4680:	a0 01 a0 01 a2 01 a2 01 a4 01 a4 01 a6 01 a7 01     ................
    4690:	a7 01 a9 01 aa 01 ab 01 ac 01 ac 01 ae 01 af 01     ................
    46a0:	af 01 b1 01 b2 01 b3 01 b3 01 b5 01 b5 01 b7 01     ................
    46b0:	b8 01 b8 01 ba 01 bb 01 bc 01 bc 01 be 01 f7 01     ................
    46c0:	c0 01 c1 01 c2 01 c3 01 c4 01 c5 01 c4 01 c7 01     ................
    46d0:	c8 01 c7 01 ca 01 cb 01 ca 01 cd 01 cd 01 cf 01     ................
    46e0:	cf 01 d1 01 d1 01 d3 01 d3 01 d5 01 d5 01 d7 01     ................
    46f0:	d7 01 d9 01 d9 01 db 01 db 01 8e 01 de 01 de 01     ................
    4700:	e0 01 e0 01 e2 01 e2 01 e4 01 e4 01 e6 01 e6 01     ................
    4710:	e8 01 e8 01 ea 01 ea 01 ec 01 ec 01 ee 01 ee 01     ................
    4720:	f0 01 f1 01 f2 01 f1 01 f4 01 f4 01 f6 01 f7 01     ................
    4730:	f8 01 f8 01 fa 01 fa 01 fc 01 fc 01 fe 01 fe 01     ................
    4740:	00 02 00 02 02 02 02 02 04 02 04 02 06 02 06 02     ................
    4750:	08 02 08 02 0a 02 0a 02 0c 02 0c 02 0e 02 0e 02     ................
    4760:	10 02 10 02 12 02 12 02 14 02 14 02 16 02 16 02     ................
    4770:	18 02 18 02 1a 02 1a 02 1c 02 1c 02 1e 02 1e 02     ................
    4780:	20 02 21 02 22 02 22 02 24 02 24 02 26 02 26 02      .!.".".$.$.&.&.
    4790:	28 02 28 02 2a 02 2a 02 2c 02 2c 02 2e 02 2e 02     (.(.*.*.,.,.....
    47a0:	30 02 30 02 32 02 32 02 34 02 35 02 36 02 37 02     0.0.2.2.4.5.6.7.
    47b0:	38 02 39 02 65 2c 3b 02 3b 02 3d 02 66 2c 3f 02     8.9.e,;.;.=.f,?.
    47c0:	40 02 41 02 41 02 43 02 44 02 45 02 46 02 46 02     @.A.A.C.D.E.F.F.
    47d0:	48 02 48 02 4a 02 4a 02 4c 02 4c 02 4e 02 4e 02     H.H.J.J.L.L.N.N.
    47e0:	50 02 51 02 52 02 81 01 86 01 55 02 89 01 8a 01     P.Q.R.....U.....
    47f0:	58 02 8f 01 5a 02 90 01 5c 02 5d 02 5e 02 5f 02     X...Z...\.].^._.
    4800:	93 01 61 02 62 02 94 01 64 02 65 02 66 02 67 02     ..a.b...d.e.f.g.
    4810:	97 01 96 01 6a 02 62 2c 6c 02 6d 02 6e 02 9c 01     ....j.b,l.m.n...
    4820:	70 02 71 02 9d 01 73 02 74 02 9f 01 76 02 77 02     p.q...s.t...v.w.
    4830:	78 02 79 02 7a 02 7b 02 7c 02 64 2c 7e 02 7f 02     x.y.z.{.|.d,~...
    4840:	a6 01 81 02 82 02 a9 01 84 02 85 02 86 02 87 02     ................
    4850:	ae 01 44 02 b1 01 b2 01 45 02 8d 02 8e 02 8f 02     ..D.....E.......
    4860:	90 02 91 02 b7 01 93 02 94 02 95 02 96 02 97 02     ................
    4870:	98 02 99 02 9a 02 9b 02 9c 02 9d 02 9e 02 9f 02     ................
    4880:	a0 02 a1 02 a2 02 a3 02 a4 02 a5 02 a6 02 a7 02     ................
    4890:	a8 02 a9 02 aa 02 ab 02 ac 02 ad 02 ae 02 af 02     ................
    48a0:	b0 02 b1 02 b2 02 b3 02 b4 02 b5 02 b6 02 b7 02     ................
    48b0:	b8 02 b9 02 ba 02 bb 02 bc 02 bd 02 be 02 bf 02     ................
    48c0:	c0 02 c1 02 c2 02 c3 02 c4 02 c5 02 c6 02 c7 02     ................
    48d0:	c8 02 c9 02 ca 02 cb 02 cc 02 cd 02 ce 02 cf 02     ................
    48e0:	d0 02 d1 02 d2 02 d3 02 d4 02 d5 02 d6 02 d7 02     ................
    48f0:	d8 02 d9 02 da 02 db 02 dc 02 dd 02 de 02 df 02     ................
    4900:	e0 02 e1 02 e2 02 e3 02 e4 02 e5 02 e6 02 e7 02     ................
    4910:	e8 02 e9 02 ea 02 eb 02 ec 02 ed 02 ee 02 ef 02     ................
    4920:	f0 02 f1 02 f2 02 f3 02 f4 02 f5 02 f6 02 f7 02     ................
    4930:	f8 02 f9 02 fa 02 fb 02 fc 02 fd 02 fe 02 ff 02     ................
    4940:	00 03 01 03 02 03 03 03 04 03 05 03 06 03 07 03     ................
    4950:	08 03 09 03 0a 03 0b 03 0c 03 0d 03 0e 03 0f 03     ................
    4960:	10 03 11 03 12 03 13 03 14 03 15 03 16 03 17 03     ................
    4970:	18 03 19 03 1a 03 1b 03 1c 03 1d 03 1e 03 1f 03     ................
    4980:	20 03 21 03 22 03 23 03 24 03 25 03 26 03 27 03      .!.".#.$.%.&.'.
    4990:	28 03 29 03 2a 03 2b 03 2c 03 2d 03 2e 03 2f 03     (.).*.+.,.-.../.
    49a0:	30 03 31 03 32 03 33 03 34 03 35 03 36 03 37 03     0.1.2.3.4.5.6.7.
    49b0:	38 03 39 03 3a 03 3b 03 3c 03 3d 03 3e 03 3f 03     8.9.:.;.<.=.>.?.
    49c0:	40 03 41 03 42 03 43 03 44 03 45 03 46 03 47 03     @.A.B.C.D.E.F.G.
    49d0:	48 03 49 03 4a 03 4b 03 4c 03 4d 03 4e 03 4f 03     H.I.J.K.L.M.N.O.
    49e0:	50 03 51 03 52 03 53 03 54 03 55 03 56 03 57 03     P.Q.R.S.T.U.V.W.
    49f0:	58 03 59 03 5a 03 5b 03 5c 03 5d 03 5e 03 5f 03     X.Y.Z.[.\.].^._.
    4a00:	60 03 61 03 62 03 63 03 64 03 65 03 66 03 67 03     `.a.b.c.d.e.f.g.
    4a10:	68 03 69 03 6a 03 6b 03 6c 03 6d 03 6e 03 6f 03     h.i.j.k.l.m.n.o.
    4a20:	70 03 71 03 72 03 73 03 74 03 75 03 76 03 77 03     p.q.r.s.t.u.v.w.
    4a30:	78 03 79 03 7a 03 fd 03 fe 03 ff 03 7e 03 7f 03     x.y.z.......~...
    4a40:	80 03 81 03 82 03 83 03 84 03 85 03 86 03 87 03     ................
    4a50:	88 03 89 03 8a 03 8b 03 8c 03 8d 03 8e 03 8f 03     ................
    4a60:	90 03 91 03 92 03 93 03 94 03 95 03 96 03 97 03     ................
    4a70:	98 03 99 03 9a 03 9b 03 9c 03 9d 03 9e 03 9f 03     ................
    4a80:	a0 03 a1 03 a2 03 a3 03 a4 03 a5 03 a6 03 a7 03     ................
    4a90:	a8 03 a9 03 aa 03 ab 03 86 03 88 03 89 03 8a 03     ................
    4aa0:	b0 03 91 03 92 03 93 03 94 03 95 03 96 03 97 03     ................
    4ab0:	98 03 99 03 9a 03 9b 03 9c 03 9d 03 9e 03 9f 03     ................
    4ac0:	a0 03 a1 03 a3 03 a3 03 a4 03 a5 03 a6 03 a7 03     ................
    4ad0:	a8 03 a9 03 aa 03 ab 03 8c 03 8e 03 8f 03 cf 03     ................
    4ae0:	d0 03 d1 03 d2 03 d3 03 d4 03 d5 03 d6 03 d7 03     ................
    4af0:	d8 03 d8 03 da 03 da 03 dc 03 dc 03 de 03 de 03     ................
    4b00:	e0 03 e0 03 e2 03 e2 03 e4 03 e4 03 e6 03 e6 03     ................
    4b10:	e8 03 e8 03 ea 03 ea 03 ec 03 ec 03 ee 03 ee 03     ................
    4b20:	f0 03 f1 03 f9 03 f3 03 f4 03 f5 03 f6 03 f7 03     ................
    4b30:	f7 03 f9 03 fa 03 fa 03 fc 03 fd 03 fe 03 ff 03     ................
    4b40:	00 04 01 04 02 04 03 04 04 04 05 04 06 04 07 04     ................
    4b50:	08 04 09 04 0a 04 0b 04 0c 04 0d 04 0e 04 0f 04     ................
    4b60:	10 04 11 04 12 04 13 04 14 04 15 04 16 04 17 04     ................
    4b70:	18 04 19 04 1a 04 1b 04 1c 04 1d 04 1e 04 1f 04     ................
    4b80:	20 04 21 04 22 04 23 04 24 04 25 04 26 04 27 04      .!.".#.$.%.&.'.
    4b90:	28 04 29 04 2a 04 2b 04 2c 04 2d 04 2e 04 2f 04     (.).*.+.,.-.../.
    4ba0:	10 04 11 04 12 04 13 04 14 04 15 04 16 04 17 04     ................
    4bb0:	18 04 19 04 1a 04 1b 04 1c 04 1d 04 1e 04 1f 04     ................
    4bc0:	20 04 21 04 22 04 23 04 24 04 25 04 26 04 27 04      .!.".#.$.%.&.'.
    4bd0:	28 04 29 04 2a 04 2b 04 2c 04 2d 04 2e 04 2f 04     (.).*.+.,.-.../.
    4be0:	00 04 01 04 02 04 03 04 04 04 05 04 06 04 07 04     ................
    4bf0:	08 04 09 04 0a 04 0b 04 0c 04 0d 04 0e 04 0f 04     ................
    4c00:	60 04 60 04 62 04 62 04 64 04 64 04 66 04 66 04     `.`.b.b.d.d.f.f.
    4c10:	68 04 68 04 6a 04 6a 04 6c 04 6c 04 6e 04 6e 04     h.h.j.j.l.l.n.n.
    4c20:	70 04 70 04 72 04 72 04 74 04 74 04 76 04 76 04     p.p.r.r.t.t.v.v.
    4c30:	78 04 78 04 7a 04 7a 04 7c 04 7c 04 7e 04 7e 04     x.x.z.z.|.|.~.~.
    4c40:	80 04 80 04 82 04 83 04 84 04 85 04 86 04 87 04     ................
    4c50:	88 04 89 04 8a 04 8a 04 8c 04 8c 04 8e 04 8e 04     ................
    4c60:	90 04 90 04 92 04 92 04 94 04 94 04 96 04 96 04     ................
    4c70:	98 04 98 04 9a 04 9a 04 9c 04 9c 04 9e 04 9e 04     ................
    4c80:	a0 04 a0 04 a2 04 a2 04 a4 04 a4 04 a6 04 a6 04     ................
    4c90:	a8 04 a8 04 aa 04 aa 04 ac 04 ac 04 ae 04 ae 04     ................
    4ca0:	b0 04 b0 04 b2 04 b2 04 b4 04 b4 04 b6 04 b6 04     ................
    4cb0:	b8 04 b8 04 ba 04 ba 04 bc 04 bc 04 be 04 be 04     ................
    4cc0:	c0 04 c1 04 c1 04 c3 04 c3 04 c5 04 c5 04 c7 04     ................
    4cd0:	c7 04 c9 04 c9 04 cb 04 cb 04 cd 04 cd 04 c0 04     ................
    4ce0:	d0 04 d0 04 d2 04 d2 04 d4 04 d4 04 d6 04 d6 04     ................
    4cf0:	d8 04 d8 04 da 04 da 04 dc 04 dc 04 de 04 de 04     ................
    4d00:	e0 04 e0 04 e2 04 e2 04 e4 04 e4 04 e6 04 e6 04     ................
    4d10:	e8 04 e8 04 ea 04 ea 04 ec 04 ec 04 ee 04 ee 04     ................
    4d20:	f0 04 f0 04 f2 04 f2 04 f4 04 f4 04 f6 04 f6 04     ................
    4d30:	f8 04 f8 04 fa 04 fa 04 fc 04 fc 04 fe 04 fe 04     ................
    4d40:	00 05 00 05 02 05 02 05 04 05 04 05 06 05 06 05     ................
    4d50:	08 05 08 05 0a 05 0a 05 0c 05 0c 05 0e 05 0e 05     ................
    4d60:	10 05 10 05 12 05 12 05 14 05 15 05 16 05 17 05     ................
    4d70:	18 05 19 05 1a 05 1b 05 1c 05 1d 05 1e 05 1f 05     ................
    4d80:	20 05 21 05 22 05 23 05 24 05 25 05 26 05 27 05      .!.".#.$.%.&.'.
    4d90:	28 05 29 05 2a 05 2b 05 2c 05 2d 05 2e 05 2f 05     (.).*.+.,.-.../.
    4da0:	30 05 31 05 32 05 33 05 34 05 35 05 36 05 37 05     0.1.2.3.4.5.6.7.
    4db0:	38 05 39 05 3a 05 3b 05 3c 05 3d 05 3e 05 3f 05     8.9.:.;.<.=.>.?.
    4dc0:	40 05 41 05 42 05 43 05 44 05 45 05 46 05 47 05     @.A.B.C.D.E.F.G.
    4dd0:	48 05 49 05 4a 05 4b 05 4c 05 4d 05 4e 05 4f 05     H.I.J.K.L.M.N.O.
    4de0:	50 05 51 05 52 05 53 05 54 05 55 05 56 05 57 05     P.Q.R.S.T.U.V.W.
    4df0:	58 05 59 05 5a 05 5b 05 5c 05 5d 05 5e 05 5f 05     X.Y.Z.[.\.].^._.
    4e00:	60 05 31 05 32 05 33 05 34 05 35 05 36 05 37 05     `.1.2.3.4.5.6.7.
    4e10:	38 05 39 05 3a 05 3b 05 3c 05 3d 05 3e 05 3f 05     8.9.:.;.<.=.>.?.
    4e20:	40 05 41 05 42 05 43 05 44 05 45 05 46 05 47 05     @.A.B.C.D.E.F.G.
    4e30:	48 05 49 05 4a 05 4b 05 4c 05 4d 05 4e 05 4f 05     H.I.J.K.L.M.N.O.
    4e40:	50 05 51 05 52 05 53 05 54 05 55 05 56 05 ff ff     P.Q.R.S.T.U.V...
    4e50:	f6 17 63 2c 7e 1d 7f 1d 80 1d 81 1d 82 1d 83 1d     ..c,~...........
    4e60:	84 1d 85 1d 86 1d 87 1d 88 1d 89 1d 8a 1d 8b 1d     ................
    4e70:	8c 1d 8d 1d 8e 1d 8f 1d 90 1d 91 1d 92 1d 93 1d     ................
    4e80:	94 1d 95 1d 96 1d 97 1d 98 1d 99 1d 9a 1d 9b 1d     ................
    4e90:	9c 1d 9d 1d 9e 1d 9f 1d a0 1d a1 1d a2 1d a3 1d     ................
    4ea0:	a4 1d a5 1d a6 1d a7 1d a8 1d a9 1d aa 1d ab 1d     ................
    4eb0:	ac 1d ad 1d ae 1d af 1d b0 1d b1 1d b2 1d b3 1d     ................
    4ec0:	b4 1d b5 1d b6 1d b7 1d b8 1d b9 1d ba 1d bb 1d     ................
    4ed0:	bc 1d bd 1d be 1d bf 1d c0 1d c1 1d c2 1d c3 1d     ................
    4ee0:	c4 1d c5 1d c6 1d c7 1d c8 1d c9 1d ca 1d cb 1d     ................
    4ef0:	cc 1d cd 1d ce 1d cf 1d d0 1d d1 1d d2 1d d3 1d     ................
    4f00:	d4 1d d5 1d d6 1d d7 1d d8 1d d9 1d da 1d db 1d     ................
    4f10:	dc 1d dd 1d de 1d df 1d e0 1d e1 1d e2 1d e3 1d     ................
    4f20:	e4 1d e5 1d e6 1d e7 1d e8 1d e9 1d ea 1d eb 1d     ................
    4f30:	ec 1d ed 1d ee 1d ef 1d f0 1d f1 1d f2 1d f3 1d     ................
    4f40:	f4 1d f5 1d f6 1d f7 1d f8 1d f9 1d fa 1d fb 1d     ................
    4f50:	fc 1d fd 1d fe 1d ff 1d 00 1e 00 1e 02 1e 02 1e     ................
    4f60:	04 1e 04 1e 06 1e 06 1e 08 1e 08 1e 0a 1e 0a 1e     ................
    4f70:	0c 1e 0c 1e 0e 1e 0e 1e 10 1e 10 1e 12 1e 12 1e     ................
    4f80:	14 1e 14 1e 16 1e 16 1e 18 1e 18 1e 1a 1e 1a 1e     ................
    4f90:	1c 1e 1c 1e 1e 1e 1e 1e 20 1e 20 1e 22 1e 22 1e     ........ . .".".
    4fa0:	24 1e 24 1e 26 1e 26 1e 28 1e 28 1e 2a 1e 2a 1e     $.$.&.&.(.(.*.*.
    4fb0:	2c 1e 2c 1e 2e 1e 2e 1e 30 1e 30 1e 32 1e 32 1e     ,.,.....0.0.2.2.
    4fc0:	34 1e 34 1e 36 1e 36 1e 38 1e 38 1e 3a 1e 3a 1e     4.4.6.6.8.8.:.:.
    4fd0:	3c 1e 3c 1e 3e 1e 3e 1e 40 1e 40 1e 42 1e 42 1e     <.<.>.>.@.@.B.B.
    4fe0:	44 1e 44 1e 46 1e 46 1e 48 1e 48 1e 4a 1e 4a 1e     D.D.F.F.H.H.J.J.
    4ff0:	4c 1e 4c 1e 4e 1e 4e 1e 50 1e 50 1e 52 1e 52 1e     L.L.N.N.P.P.R.R.
    5000:	54 1e 54 1e 56 1e 56 1e 58 1e 58 1e 5a 1e 5a 1e     T.T.V.V.X.X.Z.Z.
    5010:	5c 1e 5c 1e 5e 1e 5e 1e 60 1e 60 1e 62 1e 62 1e     \.\.^.^.`.`.b.b.
    5020:	64 1e 64 1e 66 1e 66 1e 68 1e 68 1e 6a 1e 6a 1e     d.d.f.f.h.h.j.j.
    5030:	6c 1e 6c 1e 6e 1e 6e 1e 70 1e 70 1e 72 1e 72 1e     l.l.n.n.p.p.r.r.
    5040:	74 1e 74 1e 76 1e 76 1e 78 1e 78 1e 7a 1e 7a 1e     t.t.v.v.x.x.z.z.
    5050:	7c 1e 7c 1e 7e 1e 7e 1e 80 1e 80 1e 82 1e 82 1e     |.|.~.~.........
    5060:	84 1e 84 1e 86 1e 86 1e 88 1e 88 1e 8a 1e 8a 1e     ................
    5070:	8c 1e 8c 1e 8e 1e 8e 1e 90 1e 90 1e 92 1e 92 1e     ................
    5080:	94 1e 94 1e 96 1e 97 1e 98 1e 99 1e 9a 1e 9b 1e     ................
    5090:	9c 1e 9d 1e 9e 1e 9f 1e a0 1e a0 1e a2 1e a2 1e     ................
    50a0:	a4 1e a4 1e a6 1e a6 1e a8 1e a8 1e aa 1e aa 1e     ................
    50b0:	ac 1e ac 1e ae 1e ae 1e b0 1e b0 1e b2 1e b2 1e     ................
    50c0:	b4 1e b4 1e b6 1e b6 1e b8 1e b8 1e ba 1e ba 1e     ................
    50d0:	bc 1e bc 1e be 1e be 1e c0 1e c0 1e c2 1e c2 1e     ................
    50e0:	c4 1e c4 1e c6 1e c6 1e c8 1e c8 1e ca 1e ca 1e     ................
    50f0:	cc 1e cc 1e ce 1e ce 1e d0 1e d0 1e d2 1e d2 1e     ................
    5100:	d4 1e d4 1e d6 1e d6 1e d8 1e d8 1e da 1e da 1e     ................
    5110:	dc 1e dc 1e de 1e de 1e e0 1e e0 1e e2 1e e2 1e     ................
    5120:	e4 1e e4 1e e6 1e e6 1e e8 1e e8 1e ea 1e ea 1e     ................
    5130:	ec 1e ec 1e ee 1e ee 1e f0 1e f0 1e f2 1e f2 1e     ................
    5140:	f4 1e f4 1e f6 1e f6 1e f8 1e f8 1e fa 1e fb 1e     ................
    5150:	fc 1e fd 1e fe 1e ff 1e 08 1f 09 1f 0a 1f 0b 1f     ................
    5160:	0c 1f 0d 1f 0e 1f 0f 1f 08 1f 09 1f 0a 1f 0b 1f     ................
    5170:	0c 1f 0d 1f 0e 1f 0f 1f 18 1f 19 1f 1a 1f 1b 1f     ................
    5180:	1c 1f 1d 1f 16 1f 17 1f 18 1f 19 1f 1a 1f 1b 1f     ................
    5190:	1c 1f 1d 1f 1e 1f 1f 1f 28 1f 29 1f 2a 1f 2b 1f     ........(.).*.+.
    51a0:	2c 1f 2d 1f 2e 1f 2f 1f 28 1f 29 1f 2a 1f 2b 1f     ,.-.../.(.).*.+.
    51b0:	2c 1f 2d 1f 2e 1f 2f 1f 38 1f 39 1f 3a 1f 3b 1f     ,.-.../.8.9.:.;.
    51c0:	3c 1f 3d 1f 3e 1f 3f 1f 38 1f 39 1f 3a 1f 3b 1f     <.=.>.?.8.9.:.;.
    51d0:	3c 1f 3d 1f 3e 1f 3f 1f 48 1f 49 1f 4a 1f 4b 1f     <.=.>.?.H.I.J.K.
    51e0:	4c 1f 4d 1f 46 1f 47 1f 48 1f 49 1f 4a 1f 4b 1f     L.M.F.G.H.I.J.K.
    51f0:	4c 1f 4d 1f 4e 1f 4f 1f 50 1f 59 1f 52 1f 5b 1f     L.M.N.O.P.Y.R.[.
    5200:	54 1f 5d 1f 56 1f 5f 1f 58 1f 59 1f 5a 1f 5b 1f     T.].V._.X.Y.Z.[.
    5210:	5c 1f 5d 1f 5e 1f 5f 1f 68 1f 69 1f 6a 1f 6b 1f     \.].^._.h.i.j.k.
    5220:	6c 1f 6d 1f 6e 1f 6f 1f 68 1f 69 1f 6a 1f 6b 1f     l.m.n.o.h.i.j.k.
    5230:	6c 1f 6d 1f 6e 1f 6f 1f ba 1f bb 1f c8 1f c9 1f     l.m.n.o.........
    5240:	ca 1f cb 1f da 1f db 1f f8 1f f9 1f ea 1f eb 1f     ................
    5250:	fa 1f fb 1f 7e 1f 7f 1f 88 1f 89 1f 8a 1f 8b 1f     ....~...........
    5260:	8c 1f 8d 1f 8e 1f 8f 1f 88 1f 89 1f 8a 1f 8b 1f     ................
    5270:	8c 1f 8d 1f 8e 1f 8f 1f 98 1f 99 1f 9a 1f 9b 1f     ................
    5280:	9c 1f 9d 1f 9e 1f 9f 1f 98 1f 99 1f 9a 1f 9b 1f     ................
    5290:	9c 1f 9d 1f 9e 1f 9f 1f a8 1f a9 1f aa 1f ab 1f     ................
    52a0:	ac 1f ad 1f ae 1f af 1f a8 1f a9 1f aa 1f ab 1f     ................
    52b0:	ac 1f ad 1f ae 1f af 1f b8 1f b9 1f b2 1f bc 1f     ................
    52c0:	b4 1f b5 1f b6 1f b7 1f b8 1f b9 1f ba 1f bb 1f     ................
    52d0:	bc 1f bd 1f be 1f bf 1f c0 1f c1 1f c2 1f c3 1f     ................
    52e0:	c4 1f c5 1f c6 1f c7 1f c8 1f c9 1f ca 1f cb 1f     ................
    52f0:	c3 1f cd 1f ce 1f cf 1f d8 1f d9 1f d2 1f d3 1f     ................
    5300:	d4 1f d5 1f d6 1f d7 1f d8 1f d9 1f da 1f db 1f     ................
    5310:	dc 1f dd 1f de 1f df 1f e8 1f e9 1f e2 1f e3 1f     ................
    5320:	e4 1f ec 1f e6 1f e7 1f e8 1f e9 1f ea 1f eb 1f     ................
    5330:	ec 1f ed 1f ee 1f ef 1f f0 1f f1 1f f2 1f f3 1f     ................
    5340:	f4 1f f5 1f f6 1f f7 1f f8 1f f9 1f fa 1f fb 1f     ................
    5350:	f3 1f fd 1f fe 1f ff 1f 00 20 01 20 02 20 03 20     ......... . . . 
    5360:	04 20 05 20 06 20 07 20 08 20 09 20 0a 20 0b 20     . . . . . . . . 
    5370:	0c 20 0d 20 0e 20 0f 20 10 20 11 20 12 20 13 20     . . . . . . . . 
    5380:	14 20 15 20 16 20 17 20 18 20 19 20 1a 20 1b 20     . . . . . . . . 
    5390:	1c 20 1d 20 1e 20 1f 20 20 20 21 20 22 20 23 20     . . . .   ! " # 
    53a0:	24 20 25 20 26 20 27 20 28 20 29 20 2a 20 2b 20     $ % & ' ( ) * + 
    53b0:	2c 20 2d 20 2e 20 2f 20 30 20 31 20 32 20 33 20     , - . / 0 1 2 3 
    53c0:	34 20 35 20 36 20 37 20 38 20 39 20 3a 20 3b 20     4 5 6 7 8 9 : ; 
    53d0:	3c 20 3d 20 3e 20 3f 20 40 20 41 20 42 20 43 20     < = > ? @ A B C 
    53e0:	44 20 45 20 46 20 47 20 48 20 49 20 4a 20 4b 20     D E F G H I J K 
    53f0:	4c 20 4d 20 4e 20 4f 20 50 20 51 20 52 20 53 20     L M N O P Q R S 
    5400:	54 20 55 20 56 20 57 20 58 20 59 20 5a 20 5b 20     T U V W X Y Z [ 
    5410:	5c 20 5d 20 5e 20 5f 20 60 20 61 20 62 20 63 20     \ ] ^ _ ` a b c 
    5420:	64 20 65 20 66 20 67 20 68 20 69 20 6a 20 6b 20     d e f g h i j k 
    5430:	6c 20 6d 20 6e 20 6f 20 70 20 71 20 72 20 73 20     l m n o p q r s 
    5440:	74 20 75 20 76 20 77 20 78 20 79 20 7a 20 7b 20     t u v w x y z { 
    5450:	7c 20 7d 20 7e 20 7f 20 80 20 81 20 82 20 83 20     | } ~ . . . . . 
    5460:	84 20 85 20 86 20 87 20 88 20 89 20 8a 20 8b 20     . . . . . . . . 
    5470:	8c 20 8d 20 8e 20 8f 20 90 20 91 20 92 20 93 20     . . . . . . . . 
    5480:	94 20 95 20 96 20 97 20 98 20 99 20 9a 20 9b 20     . . . . . . . . 
    5490:	9c 20 9d 20 9e 20 9f 20 a0 20 a1 20 a2 20 a3 20     . . . . . . . . 
    54a0:	a4 20 a5 20 a6 20 a7 20 a8 20 a9 20 aa 20 ab 20     . . . . . . . . 
    54b0:	ac 20 ad 20 ae 20 af 20 b0 20 b1 20 b2 20 b3 20     . . . . . . . . 
    54c0:	b4 20 b5 20 b6 20 b7 20 b8 20 b9 20 ba 20 bb 20     . . . . . . . . 
    54d0:	bc 20 bd 20 be 20 bf 20 c0 20 c1 20 c2 20 c3 20     . . . . . . . . 
    54e0:	c4 20 c5 20 c6 20 c7 20 c8 20 c9 20 ca 20 cb 20     . . . . . . . . 
    54f0:	cc 20 cd 20 ce 20 cf 20 d0 20 d1 20 d2 20 d3 20     . . . . . . . . 
    5500:	d4 20 d5 20 d6 20 d7 20 d8 20 d9 20 da 20 db 20     . . . . . . . . 
    5510:	dc 20 dd 20 de 20 df 20 e0 20 e1 20 e2 20 e3 20     . . . . . . . . 
    5520:	e4 20 e5 20 e6 20 e7 20 e8 20 e9 20 ea 20 eb 20     . . . . . . . . 
    5530:	ec 20 ed 20 ee 20 ef 20 f0 20 f1 20 f2 20 f3 20     . . . . . . . . 
    5540:	f4 20 f5 20 f6 20 f7 20 f8 20 f9 20 fa 20 fb 20     . . . . . . . . 
    5550:	fc 20 fd 20 fe 20 ff 20 00 21 01 21 02 21 03 21     . . . . .!.!.!.!
    5560:	04 21 05 21 06 21 07 21 08 21 09 21 0a 21 0b 21     .!.!.!.!.!.!.!.!
    5570:	0c 21 0d 21 0e 21 0f 21 10 21 11 21 12 21 13 21     .!.!.!.!.!.!.!.!
    5580:	14 21 15 21 16 21 17 21 18 21 19 21 1a 21 1b 21     .!.!.!.!.!.!.!.!
    5590:	1c 21 1d 21 1e 21 1f 21 20 21 21 21 22 21 23 21     .!.!.!.! !!!"!#!
    55a0:	24 21 25 21 26 21 27 21 28 21 29 21 2a 21 2b 21     $!%!&!'!(!)!*!+!
    55b0:	2c 21 2d 21 2e 21 2f 21 30 21 31 21 32 21 33 21     ,!-!.!/!0!1!2!3!
    55c0:	34 21 35 21 36 21 37 21 38 21 39 21 3a 21 3b 21     4!5!6!7!8!9!:!;!
    55d0:	3c 21 3d 21 3e 21 3f 21 40 21 41 21 42 21 43 21     <!=!>!?!@!A!B!C!
    55e0:	44 21 45 21 46 21 47 21 48 21 49 21 4a 21 4b 21     D!E!F!G!H!I!J!K!
    55f0:	4c 21 4d 21 32 21 4f 21 50 21 51 21 52 21 53 21     L!M!2!O!P!Q!R!S!
    5600:	54 21 55 21 56 21 57 21 58 21 59 21 5a 21 5b 21     T!U!V!W!X!Y!Z![!
    5610:	5c 21 5d 21 5e 21 5f 21 60 21 61 21 62 21 63 21     \!]!^!_!`!a!b!c!
    5620:	64 21 65 21 66 21 67 21 68 21 69 21 6a 21 6b 21     d!e!f!g!h!i!j!k!
    5630:	6c 21 6d 21 6e 21 6f 21 60 21 61 21 62 21 63 21     l!m!n!o!`!a!b!c!
    5640:	64 21 65 21 66 21 67 21 68 21 69 21 6a 21 6b 21     d!e!f!g!h!i!j!k!
    5650:	6c 21 6d 21 6e 21 6f 21 80 21 81 21 82 21 83 21     l!m!n!o!.!.!.!.!
    5660:	83 21 ff ff 4b 03 b6 24 b7 24 b8 24 b9 24 ba 24     .!..K..$.$.$.$.$
    5670:	bb 24 bc 24 bd 24 be 24 bf 24 c0 24 c1 24 c2 24     .$.$.$.$.$.$.$.$
    5680:	c3 24 c4 24 c5 24 c6 24 c7 24 c8 24 c9 24 ca 24     .$.$.$.$.$.$.$.$
    5690:	cb 24 cc 24 cd 24 ce 24 cf 24 ff ff 46 07 00 2c     .$.$.$.$.$..F..,
    56a0:	01 2c 02 2c 03 2c 04 2c 05 2c 06 2c 07 2c 08 2c     .,.,.,.,.,.,.,.,
