
locsrv:     file format elf32-i386


Disassembly of section .init:

000010b4 <__entry>:
    10b4:	66 8c d0             	mov    %ss,%ax
    10b7:	8e d8                	mov    %eax,%ds
    10b9:	8e c0                	mov    %eax,%es
    10bb:	8e e0                	mov    %eax,%fs
    10bd:	b8 01 00 00 00       	mov    $0x1,%eax
    10c2:	0f a2                	cpuid  
    10c4:	0f ba e2 0b          	bt     $0xb,%edx
    10c8:	73 0c                	jae    10d6 <__entry+0x22>
    10ca:	8d 05 98 93 02 00    	lea    0x29398,%eax
    10d0:	c7 00 fd 04 02 00    	movl   $0x204fd,(%eax)
    10d6:	6a 00                	push   $0x0
    10d8:	6a 00                	push   $0x0
    10da:	89 e5                	mov    %esp,%ebp
    10dc:	57                   	push   %edi
    10dd:	e8 9e 28 00 00       	call   3980 <__main>

Disassembly of section .text:

00001100 <categ_dir_init>:
    1100:	55                   	push   %ebp
    1101:	89 e5                	mov    %esp,%ebp
    1103:	53                   	push   %ebx
    1104:	83 ec 10             	sub    $0x10,%esp
    1107:	8b 5d 08             	mov    0x8(%ebp),%ebx
    110a:	53                   	push   %ebx
    110b:	e8 a0 7a 00 00       	call   8bb0 <fibril_mutex_initialize>
    1110:	8d 43 10             	lea    0x10(%ebx),%eax
    1113:	83 c4 10             	add    $0x10,%esp
    1116:	89 43 10             	mov    %eax,0x10(%ebx)
    1119:	89 43 14             	mov    %eax,0x14(%ebx)
    111c:	8b 5d fc             	mov    -0x4(%ebp),%ebx
    111f:	c9                   	leave  
    1120:	c3                   	ret    
    1121:	eb 0d                	jmp    1130 <categ_dir_add_cat>
    1123:	90                   	nop
    1124:	90                   	nop
    1125:	90                   	nop
    1126:	90                   	nop
    1127:	90                   	nop
    1128:	90                   	nop
    1129:	90                   	nop
    112a:	90                   	nop
    112b:	90                   	nop
    112c:	90                   	nop
    112d:	90                   	nop
    112e:	90                   	nop
    112f:	90                   	nop

00001130 <categ_dir_add_cat>:
    1130:	55                   	push   %ebp
    1131:	89 e5                	mov    %esp,%ebp
    1133:	53                   	push   %ebx
    1134:	8b 45 08             	mov    0x8(%ebp),%eax
    1137:	8b 55 0c             	mov    0xc(%ebp),%edx
    113a:	8d 58 10             	lea    0x10(%eax),%ebx
    113d:	8d 4a 18             	lea    0x18(%edx),%ecx
    1140:	89 5a 1c             	mov    %ebx,0x1c(%edx)
    1143:	8b 58 10             	mov    0x10(%eax),%ebx
    1146:	89 5a 18             	mov    %ebx,0x18(%edx)
    1149:	8b 50 10             	mov    0x10(%eax),%edx
    114c:	89 4a 04             	mov    %ecx,0x4(%edx)
    114f:	89 48 10             	mov    %ecx,0x10(%eax)
    1152:	5b                   	pop    %ebx
    1153:	5d                   	pop    %ebp
    1154:	c3                   	ret    
    1155:	8d 74 26 00          	lea    0x0(%esi,%eiz,1),%esi
    1159:	8d bc 27 00 00 00 00 	lea    0x0(%edi,%eiz,1),%edi

00001160 <categ_dir_get_categories>:
    1160:	55                   	push   %ebp
    1161:	89 e5                	mov    %esp,%ebp
    1163:	57                   	push   %edi
    1164:	56                   	push   %esi
    1165:	53                   	push   %ebx
    1166:	83 ec 28             	sub    $0x28,%esp
    1169:	8b 55 08             	mov    0x8(%ebp),%edx
    116c:	8b 7d 0c             	mov    0xc(%ebp),%edi
    116f:	52                   	push   %edx
    1170:	89 55 e4             	mov    %edx,-0x1c(%ebp)
    1173:	e8 88 7d 00 00       	call   8f00 <fibril_mutex_is_locked>
    1178:	83 c4 10             	add    $0x10,%esp
    117b:	8b 55 e4             	mov    -0x1c(%ebp),%edx
    117e:	84 c0                	test   %al,%al
    1180:	74 5c                	je     11de <categ_dir_get_categories+0x7e>
    1182:	83 ec 0c             	sub    $0xc,%esp
    1185:	8d 5a 10             	lea    0x10(%edx),%ebx
    1188:	8b 75 10             	mov    0x10(%ebp),%esi
    118b:	89 55 e4             	mov    %edx,-0x1c(%ebp)
    118e:	c1 ee 02             	shr    $0x2,%esi
    1191:	53                   	push   %ebx
    1192:	e8 59 93 01 00       	call   1a4f0 <list_count>
    1197:	8b 4d 14             	mov    0x14(%ebp),%ecx
    119a:	c1 e0 02             	shl    $0x2,%eax
    119d:	83 c4 10             	add    $0x10,%esp
    11a0:	89 01                	mov    %eax,(%ecx)
    11a2:	8b 4d 10             	mov    0x10(%ebp),%ecx
    11a5:	83 e1 03             	and    $0x3,%ecx
    11a8:	8b 55 e4             	mov    -0x1c(%ebp),%edx
    11ab:	75 2a                	jne    11d7 <categ_dir_get_categories+0x77>
    11ad:	8b 42 14             	mov    0x14(%edx),%eax
    11b0:	39 c3                	cmp    %eax,%ebx
    11b2:	8d 50 e8             	lea    -0x18(%eax),%edx
    11b5:	74 16                	je     11cd <categ_dir_get_categories+0x6d>
    11b7:	90                   	nop
    11b8:	39 ce                	cmp    %ecx,%esi
    11ba:	76 06                	jbe    11c2 <categ_dir_get_categories+0x62>
    11bc:	8b 52 10             	mov    0x10(%edx),%edx
    11bf:	89 14 8f             	mov    %edx,(%edi,%ecx,4)
    11c2:	8b 40 04             	mov    0x4(%eax),%eax
    11c5:	41                   	inc    %ecx
    11c6:	39 c3                	cmp    %eax,%ebx
    11c8:	8d 50 e8             	lea    -0x18(%eax),%edx
    11cb:	75 eb                	jne    11b8 <categ_dir_get_categories+0x58>
    11cd:	31 c0                	xor    %eax,%eax
    11cf:	8d 65 f4             	lea    -0xc(%ebp),%esp
    11d2:	5b                   	pop    %ebx
    11d3:	5e                   	pop    %esi
    11d4:	5f                   	pop    %edi
    11d5:	5d                   	pop    %ebp
    11d6:	c3                   	ret    
    11d7:	b8 f2 ff ff ff       	mov    $0xfffffff2,%eax
    11dc:	eb f1                	jmp    11cf <categ_dir_get_categories+0x6f>
    11de:	50                   	push   %eax
    11df:	6a 40                	push   $0x40
    11e1:	68 06 58 02 00       	push   $0x25806
    11e6:	68 14 58 02 00       	push   $0x25814
    11eb:	e8 80 e4 01 00       	call   1f670 <assert_abort>

000011f0 <category_new>:
    11f0:	55                   	push   %ebp
    11f1:	89 e5                	mov    %esp,%ebp
    11f3:	53                   	push   %ebx
    11f4:	83 ec 10             	sub    $0x10,%esp
    11f7:	6a 28                	push   $0x28
    11f9:	e8 92 22 01 00       	call   13490 <malloc>
    11fe:	83 c4 10             	add    $0x10,%esp
    1201:	89 c3                	mov    %eax,%ebx
    1203:	85 c0                	test   %eax,%eax
    1205:	74 38                	je     123f <category_new+0x4f>
    1207:	83 ec 0c             	sub    $0xc,%esp
    120a:	50                   	push   %eax
    120b:	e8 a0 79 00 00       	call   8bb0 <fibril_mutex_initialize>
    1210:	8b 55 08             	mov    0x8(%ebp),%edx
    1213:	58                   	pop    %eax
    1214:	52                   	push   %edx
    1215:	e8 a6 53 00 00       	call   65c0 <str_dup>
    121a:	89 43 14             	mov    %eax,0x14(%ebx)
    121d:	e8 8e 23 00 00       	call   35b0 <loc_create_id>
    1222:	89 43 10             	mov    %eax,0x10(%ebx)
    1225:	8d 43 20             	lea    0x20(%ebx),%eax
    1228:	c7 43 18 00 00 00 00 	movl   $0x0,0x18(%ebx)
    122f:	c7 43 1c 00 00 00 00 	movl   $0x0,0x1c(%ebx)
    1236:	89 43 20             	mov    %eax,0x20(%ebx)
    1239:	89 43 24             	mov    %eax,0x24(%ebx)
    123c:	83 c4 10             	add    $0x10,%esp
    123f:	89 d8                	mov    %ebx,%eax
    1241:	8b 5d fc             	mov    -0x4(%ebp),%ebx
    1244:	c9                   	leave  
    1245:	c3                   	ret    
    1246:	8d 76 00             	lea    0x0(%esi),%esi
    1249:	8d bc 27 00 00 00 00 	lea    0x0(%edi,%eiz,1),%edi

00001250 <category_add_service>:
    1250:	55                   	push   %ebp
    1251:	89 e5                	mov    %esp,%ebp
    1253:	57                   	push   %edi
    1254:	56                   	push   %esi
    1255:	53                   	push   %ebx
    1256:	83 ec 18             	sub    $0x18,%esp
    1259:	8b 75 08             	mov    0x8(%ebp),%esi
    125c:	8b 7d 0c             	mov    0xc(%ebp),%edi
    125f:	56                   	push   %esi
    1260:	e8 9b 7c 00 00       	call   8f00 <fibril_mutex_is_locked>
    1265:	83 c4 10             	add    $0x10,%esp
    1268:	84 c0                	test   %al,%al
    126a:	0f 84 9e 00 00 00    	je     130e <category_add_service+0xbe>
    1270:	83 ec 0c             	sub    $0xc,%esp
    1273:	68 98 91 02 00       	push   $0x29198
    1278:	e8 83 7c 00 00       	call   8f00 <fibril_mutex_is_locked>
    127d:	83 c4 10             	add    $0x10,%esp
    1280:	84 c0                	test   %al,%al
    1282:	74 78                	je     12fc <category_add_service+0xac>
    1284:	8b 46 24             	mov    0x24(%esi),%eax
    1287:	8d 5e 20             	lea    0x20(%esi),%ebx
    128a:	39 d8                	cmp    %ebx,%eax
    128c:	74 16                	je     12a4 <category_add_service+0x54>
    128e:	3b 78 14             	cmp    0x14(%eax),%edi
    1291:	75 0a                	jne    129d <category_add_service+0x4d>
    1293:	eb 53                	jmp    12e8 <category_add_service+0x98>
    1295:	8d 76 00             	lea    0x0(%esi),%esi
    1298:	39 78 14             	cmp    %edi,0x14(%eax)
    129b:	74 4b                	je     12e8 <category_add_service+0x98>
    129d:	8b 40 04             	mov    0x4(%eax),%eax
    12a0:	39 c3                	cmp    %eax,%ebx
    12a2:	75 f4                	jne    1298 <category_add_service+0x48>
    12a4:	83 ec 0c             	sub    $0xc,%esp
    12a7:	6a 18                	push   $0x18
    12a9:	e8 e2 21 01 00       	call   13490 <malloc>
    12ae:	83 c4 10             	add    $0x10,%esp
    12b1:	85 c0                	test   %eax,%eax
    12b3:	74 40                	je     12f5 <category_add_service+0xa5>
    12b5:	8b 56 20             	mov    0x20(%esi),%edx
    12b8:	89 78 14             	mov    %edi,0x14(%eax)
    12bb:	89 10                	mov    %edx,(%eax)
    12bd:	89 70 10             	mov    %esi,0x10(%eax)
    12c0:	89 58 04             	mov    %ebx,0x4(%eax)
    12c3:	8d 4f 18             	lea    0x18(%edi),%ecx
    12c6:	89 42 04             	mov    %eax,0x4(%edx)
    12c9:	89 46 20             	mov    %eax,0x20(%esi)
    12cc:	89 48 0c             	mov    %ecx,0xc(%eax)
    12cf:	8b 4f 18             	mov    0x18(%edi),%ecx
    12d2:	8d 50 08             	lea    0x8(%eax),%edx
    12d5:	89 48 08             	mov    %ecx,0x8(%eax)
    12d8:	89 51 04             	mov    %edx,0x4(%ecx)
    12db:	31 c0                	xor    %eax,%eax
    12dd:	89 57 18             	mov    %edx,0x18(%edi)
    12e0:	8d 65 f4             	lea    -0xc(%ebp),%esp
    12e3:	5b                   	pop    %ebx
    12e4:	5e                   	pop    %esi
    12e5:	5f                   	pop    %edi
    12e6:	5d                   	pop    %ebp
    12e7:	c3                   	ret    
    12e8:	8d 65 f4             	lea    -0xc(%ebp),%esp
    12eb:	b8 f7 ff ff ff       	mov    $0xfffffff7,%eax
    12f0:	5b                   	pop    %ebx
    12f1:	5e                   	pop    %esi
    12f2:	5f                   	pop    %edi
    12f3:	5d                   	pop    %ebp
    12f4:	c3                   	ret    
    12f5:	b8 fe ff ff ff       	mov    $0xfffffffe,%eax
    12fa:	eb e4                	jmp    12e0 <category_add_service+0x90>
    12fc:	50                   	push   %eax
    12fd:	6a 70                	push   $0x70
    12ff:	68 06 58 02 00       	push   $0x25806
    1304:	68 60 58 02 00       	push   $0x25860
    1309:	e8 62 e3 01 00       	call   1f670 <assert_abort>
    130e:	52                   	push   %edx
    130f:	6a 6f                	push   $0x6f
    1311:	68 06 58 02 00       	push   $0x25806
    1316:	68 3c 58 02 00       	push   $0x2583c
    131b:	e8 50 e3 01 00       	call   1f670 <assert_abort>

00001320 <category_remove_service>:
    1320:	55                   	push   %ebp
    1321:	89 e5                	mov    %esp,%ebp
    1323:	53                   	push   %ebx
    1324:	83 ec 10             	sub    $0x10,%esp
    1327:	8b 5d 08             	mov    0x8(%ebp),%ebx
    132a:	8b 4b 10             	mov    0x10(%ebx),%ecx
    132d:	51                   	push   %ecx
    132e:	e8 cd 7b 00 00       	call   8f00 <fibril_mutex_is_locked>
    1333:	83 c4 10             	add    $0x10,%esp
    1336:	84 c0                	test   %al,%al
    1338:	74 65                	je     139f <category_remove_service+0x7f>
    133a:	83 ec 0c             	sub    $0xc,%esp
    133d:	68 98 91 02 00       	push   $0x29198
    1342:	e8 b9 7b 00 00       	call   8f00 <fibril_mutex_is_locked>
    1347:	83 c4 10             	add    $0x10,%esp
    134a:	84 c0                	test   %al,%al
    134c:	74 66                	je     13b4 <category_remove_service+0x94>
    134e:	8b 13                	mov    (%ebx),%edx
    1350:	85 d2                	test   %edx,%edx
    1352:	74 0e                	je     1362 <category_remove_service+0x42>
    1354:	8b 43 04             	mov    0x4(%ebx),%eax
    1357:	85 c0                	test   %eax,%eax
    1359:	74 07                	je     1362 <category_remove_service+0x42>
    135b:	89 10                	mov    %edx,(%eax)
    135d:	8b 13                	mov    (%ebx),%edx
    135f:	89 42 04             	mov    %eax,0x4(%edx)
    1362:	8b 53 08             	mov    0x8(%ebx),%edx
    1365:	c7 03 00 00 00 00    	movl   $0x0,(%ebx)
    136b:	c7 43 04 00 00 00 00 	movl   $0x0,0x4(%ebx)
    1372:	85 d2                	test   %edx,%edx
    1374:	74 0f                	je     1385 <category_remove_service+0x65>
    1376:	8b 43 0c             	mov    0xc(%ebx),%eax
    1379:	85 c0                	test   %eax,%eax
    137b:	74 08                	je     1385 <category_remove_service+0x65>
    137d:	89 10                	mov    %edx,(%eax)
    137f:	8b 53 08             	mov    0x8(%ebx),%edx
    1382:	89 42 04             	mov    %eax,0x4(%edx)
    1385:	c7 43 08 00 00 00 00 	movl   $0x0,0x8(%ebx)
    138c:	c7 43 0c 00 00 00 00 	movl   $0x0,0xc(%ebx)
    1393:	89 5d 08             	mov    %ebx,0x8(%ebp)
    1396:	8b 5d fc             	mov    -0x4(%ebp),%ebx
    1399:	c9                   	leave  
    139a:	e9 a1 22 01 00       	jmp    13640 <free>
    139f:	52                   	push   %edx
    13a0:	68 89 00 00 00       	push   $0x89
    13a5:	68 06 58 02 00       	push   $0x25806
    13aa:	68 90 58 02 00       	push   $0x25890
    13af:	e8 bc e2 01 00       	call   1f670 <assert_abort>
    13b4:	50                   	push   %eax
    13b5:	68 8a 00 00 00       	push   $0x8a
    13ba:	68 06 58 02 00       	push   $0x25806
    13bf:	68 60 58 02 00       	push   $0x25860
    13c4:	e8 a7 e2 01 00       	call   1f670 <assert_abort>
    13c9:	8d b4 26 00 00 00 00 	lea    0x0(%esi,%eiz,1),%esi

000013d0 <category_get>:
    13d0:	55                   	push   %ebp
    13d1:	89 e5                	mov    %esp,%ebp
    13d3:	56                   	push   %esi
    13d4:	53                   	push   %ebx
    13d5:	83 ec 0c             	sub    $0xc,%esp
    13d8:	8b 5d 08             	mov    0x8(%ebp),%ebx
    13db:	8b 75 0c             	mov    0xc(%ebp),%esi
    13de:	53                   	push   %ebx
    13df:	e8 1c 7b 00 00       	call   8f00 <fibril_mutex_is_locked>
    13e4:	83 c4 10             	add    $0x10,%esp
    13e7:	84 c0                	test   %al,%al
    13e9:	74 2d                	je     1418 <category_get+0x48>
    13eb:	8b 53 14             	mov    0x14(%ebx),%edx
    13ee:	8d 4b 10             	lea    0x10(%ebx),%ecx
    13f1:	39 ca                	cmp    %ecx,%edx
    13f3:	8d 42 e8             	lea    -0x18(%edx),%eax
    13f6:	74 17                	je     140f <category_get+0x3f>
    13f8:	3b 72 f8             	cmp    -0x8(%edx),%esi
    13fb:	75 08                	jne    1405 <category_get+0x35>
    13fd:	eb 12                	jmp    1411 <category_get+0x41>
    13ff:	90                   	nop
    1400:	39 70 10             	cmp    %esi,0x10(%eax)
    1403:	74 0c                	je     1411 <category_get+0x41>
    1405:	8b 52 04             	mov    0x4(%edx),%edx
    1408:	39 ca                	cmp    %ecx,%edx
    140a:	8d 42 e8             	lea    -0x18(%edx),%eax
    140d:	75 f1                	jne    1400 <category_get+0x30>
    140f:	31 c0                	xor    %eax,%eax
    1411:	8d 65 f8             	lea    -0x8(%ebp),%esp
    1414:	5b                   	pop    %ebx
    1415:	5e                   	pop    %esi
    1416:	5d                   	pop    %ebp
    1417:	c3                   	ret    
    1418:	50                   	push   %eax
    1419:	68 95 00 00 00       	push   $0x95
    141e:	68 06 58 02 00       	push   $0x25806
    1423:	68 14 58 02 00       	push   $0x25814
    1428:	e8 43 e2 01 00       	call   1f670 <assert_abort>
    142d:	8d 76 00             	lea    0x0(%esi),%esi

00001430 <category_find_by_name>:
    1430:	55                   	push   %ebp
    1431:	89 e5                	mov    %esp,%ebp
    1433:	57                   	push   %edi
    1434:	56                   	push   %esi
    1435:	53                   	push   %ebx
    1436:	83 ec 28             	sub    $0x28,%esp
    1439:	8b 55 08             	mov    0x8(%ebp),%edx
    143c:	8b 7d 0c             	mov    0xc(%ebp),%edi
    143f:	52                   	push   %edx
    1440:	89 55 e4             	mov    %edx,-0x1c(%ebp)
    1443:	e8 b8 7a 00 00       	call   8f00 <fibril_mutex_is_locked>
    1448:	83 c4 10             	add    $0x10,%esp
    144b:	8b 55 e4             	mov    -0x1c(%ebp),%edx
    144e:	84 c0                	test   %al,%al
    1450:	74 4a                	je     149c <category_find_by_name+0x6c>
    1452:	8b 5a 14             	mov    0x14(%edx),%ebx
    1455:	8d 42 10             	lea    0x10(%edx),%eax
    1458:	89 45 e4             	mov    %eax,-0x1c(%ebp)
    145b:	39 c3                	cmp    %eax,%ebx
    145d:	8d 73 e8             	lea    -0x18(%ebx),%esi
    1460:	75 11                	jne    1473 <category_find_by_name+0x43>
    1462:	eb 2c                	jmp    1490 <category_find_by_name+0x60>
    1464:	8d 74 26 00          	lea    0x0(%esi,%eiz,1),%esi
    1468:	8b 5b 04             	mov    0x4(%ebx),%ebx
    146b:	3b 5d e4             	cmp    -0x1c(%ebp),%ebx
    146e:	8d 73 e8             	lea    -0x18(%ebx),%esi
    1471:	74 1d                	je     1490 <category_find_by_name+0x60>
    1473:	50                   	push   %eax
    1474:	50                   	push   %eax
    1475:	57                   	push   %edi
    1476:	8b 56 14             	mov    0x14(%esi),%edx
    1479:	52                   	push   %edx
    147a:	e8 71 30 00 00       	call   44f0 <str_cmp>
    147f:	83 c4 10             	add    $0x10,%esp
    1482:	85 c0                	test   %eax,%eax
    1484:	75 e2                	jne    1468 <category_find_by_name+0x38>
    1486:	8d 65 f4             	lea    -0xc(%ebp),%esp
    1489:	89 f0                	mov    %esi,%eax
    148b:	5b                   	pop    %ebx
    148c:	5e                   	pop    %esi
    148d:	5f                   	pop    %edi
    148e:	5d                   	pop    %ebp
    148f:	c3                   	ret    
    1490:	8d 65 f4             	lea    -0xc(%ebp),%esp
    1493:	31 f6                	xor    %esi,%esi
    1495:	89 f0                	mov    %esi,%eax
    1497:	5b                   	pop    %ebx
    1498:	5e                   	pop    %esi
    1499:	5f                   	pop    %edi
    149a:	5d                   	pop    %ebp
    149b:	c3                   	ret    
    149c:	51                   	push   %ecx
    149d:	68 a2 00 00 00       	push   $0xa2
    14a2:	68 06 58 02 00       	push   $0x25806
    14a7:	68 14 58 02 00       	push   $0x25814
    14ac:	e8 bf e1 01 00       	call   1f670 <assert_abort>
    14b1:	eb 0d                	jmp    14c0 <category_get_services>
    14b3:	90                   	nop
    14b4:	90                   	nop
    14b5:	90                   	nop
    14b6:	90                   	nop
    14b7:	90                   	nop
    14b8:	90                   	nop
    14b9:	90                   	nop
    14ba:	90                   	nop
    14bb:	90                   	nop
    14bc:	90                   	nop
    14bd:	90                   	nop
    14be:	90                   	nop
    14bf:	90                   	nop

000014c0 <category_get_services>:
    14c0:	55                   	push   %ebp
    14c1:	89 e5                	mov    %esp,%ebp
    14c3:	57                   	push   %edi
    14c4:	56                   	push   %esi
    14c5:	53                   	push   %ebx
    14c6:	83 ec 28             	sub    $0x28,%esp
    14c9:	8b 55 08             	mov    0x8(%ebp),%edx
    14cc:	8b 7d 0c             	mov    0xc(%ebp),%edi
    14cf:	52                   	push   %edx
    14d0:	89 55 e4             	mov    %edx,-0x1c(%ebp)
    14d3:	e8 28 7a 00 00       	call   8f00 <fibril_mutex_is_locked>
    14d8:	83 c4 10             	add    $0x10,%esp
    14db:	8b 55 e4             	mov    -0x1c(%ebp),%edx
    14de:	84 c0                	test   %al,%al
    14e0:	74 5c                	je     153e <category_get_services+0x7e>
    14e2:	83 ec 0c             	sub    $0xc,%esp
    14e5:	8d 5a 20             	lea    0x20(%edx),%ebx
    14e8:	8b 75 10             	mov    0x10(%ebp),%esi
    14eb:	89 55 e4             	mov    %edx,-0x1c(%ebp)
    14ee:	c1 ee 02             	shr    $0x2,%esi
    14f1:	53                   	push   %ebx
    14f2:	e8 f9 8f 01 00       	call   1a4f0 <list_count>
    14f7:	8b 4d 14             	mov    0x14(%ebp),%ecx
    14fa:	c1 e0 02             	shl    $0x2,%eax
    14fd:	83 c4 10             	add    $0x10,%esp
    1500:	89 01                	mov    %eax,(%ecx)
    1502:	8b 4d 10             	mov    0x10(%ebp),%ecx
    1505:	83 e1 03             	and    $0x3,%ecx
    1508:	8b 55 e4             	mov    -0x1c(%ebp),%edx
    150b:	75 2a                	jne    1537 <category_get_services+0x77>
    150d:	8b 42 24             	mov    0x24(%edx),%eax
    1510:	39 c3                	cmp    %eax,%ebx
    1512:	74 19                	je     152d <category_get_services+0x6d>
    1514:	8d 74 26 00          	lea    0x0(%esi,%eiz,1),%esi
    1518:	39 ce                	cmp    %ecx,%esi
    151a:	76 09                	jbe    1525 <category_get_services+0x65>
    151c:	8b 50 14             	mov    0x14(%eax),%edx
    151f:	8b 52 20             	mov    0x20(%edx),%edx
    1522:	89 14 8f             	mov    %edx,(%edi,%ecx,4)
    1525:	8b 40 04             	mov    0x4(%eax),%eax
    1528:	41                   	inc    %ecx
    1529:	39 c3                	cmp    %eax,%ebx
    152b:	75 eb                	jne    1518 <category_get_services+0x58>
    152d:	31 c0                	xor    %eax,%eax
    152f:	8d 65 f4             	lea    -0xc(%ebp),%esp
    1532:	5b                   	pop    %ebx
    1533:	5e                   	pop    %esi
    1534:	5f                   	pop    %edi
    1535:	5d                   	pop    %ebp
    1536:	c3                   	ret    
    1537:	b8 f2 ff ff ff       	mov    $0xfffffff2,%eax
    153c:	eb f1                	jmp    152f <category_get_services+0x6f>
    153e:	50                   	push   %eax
    153f:	68 b3 00 00 00       	push   $0xb3
    1544:	68 06 58 02 00       	push   $0x25806
    1549:	68 3c 58 02 00       	push   $0x2583c
    154e:	e8 1d e1 01 00       	call   1f670 <assert_abort>
    1553:	66 90                	xchg   %ax,%ax
    1555:	66 90                	xchg   %ax,%ax
    1557:	66 90                	xchg   %ax,%ax
    1559:	66 90                	xchg   %ax,%ax
    155b:	66 90                	xchg   %ax,%ax
    155d:	66 90                	xchg   %ax,%ax
    155f:	90                   	nop

00001560 <loc_fqsn_split>:
    1560:	55                   	push   %ebp
    1561:	89 e5                	mov    %esp,%ebp
    1563:	57                   	push   %edi
    1564:	56                   	push   %esi
    1565:	53                   	push   %ebx
    1566:	83 ec 3c             	sub    $0x3c,%esp
    1569:	89 c6                	mov    %eax,%esi
    156b:	89 55 c8             	mov    %edx,-0x38(%ebp)
    156e:	89 4d c4             	mov    %ecx,-0x3c(%ebp)
    1571:	c7 45 e4 00 00 00 00 	movl   $0x0,-0x1c(%ebp)
    1578:	31 db                	xor    %ebx,%ebx
    157a:	c7 45 cc 00 00 00 00 	movl   $0x0,-0x34(%ebp)
    1581:	c7 45 d0 00 00 00 00 	movl   $0x0,-0x30(%ebp)
    1588:	c7 45 d4 00 00 00 00 	movl   $0x0,-0x2c(%ebp)
    158f:	8d 7d e4             	lea    -0x1c(%ebp),%edi
    1592:	8d b6 00 00 00 00    	lea    0x0(%esi),%esi
    1598:	50                   	push   %eax
    1599:	6a ff                	push   $0xffffffff
    159b:	57                   	push   %edi
    159c:	56                   	push   %esi
    159d:	e8 1e 26 00 00       	call   3bc0 <str_decode>
    15a2:	83 c4 10             	add    $0x10,%esp
    15a5:	85 c0                	test   %eax,%eax
    15a7:	74 27                	je     15d0 <loc_fqsn_split+0x70>
    15a9:	83 f8 2f             	cmp    $0x2f,%eax
    15ac:	74 0a                	je     15b8 <loc_fqsn_split+0x58>
    15ae:	8b 5d e4             	mov    -0x1c(%ebp),%ebx
    15b1:	eb e5                	jmp    1598 <loc_fqsn_split+0x38>
    15b3:	90                   	nop
    15b4:	8d 74 26 00          	lea    0x0(%esi,%eiz,1),%esi
    15b8:	8b 45 d4             	mov    -0x2c(%ebp),%eax
    15bb:	89 5d d0             	mov    %ebx,-0x30(%ebp)
    15be:	40                   	inc    %eax
    15bf:	89 45 d4             	mov    %eax,-0x2c(%ebp)
    15c2:	8b 45 e4             	mov    -0x1c(%ebp),%eax
    15c5:	89 45 cc             	mov    %eax,-0x34(%ebp)
    15c8:	89 c3                	mov    %eax,%ebx
    15ca:	eb cc                	jmp    1598 <loc_fqsn_split+0x38>
    15cc:	8d 74 26 00          	lea    0x0(%esi,%eiz,1),%esi
    15d0:	83 7d d4 01          	cmpl   $0x1,-0x2c(%ebp)
    15d4:	76 0a                	jbe    15e0 <loc_fqsn_split+0x80>
    15d6:	8d 65 f4             	lea    -0xc(%ebp),%esp
    15d9:	31 c0                	xor    %eax,%eax
    15db:	5b                   	pop    %ebx
    15dc:	5e                   	pop    %esi
    15dd:	5f                   	pop    %edi
    15de:	5d                   	pop    %ebp
    15df:	c3                   	ret    
    15e0:	8b 4d d4             	mov    -0x2c(%ebp),%ecx
    15e3:	85 c9                	test   %ecx,%ecx
    15e5:	74 51                	je     1638 <loc_fqsn_split+0xd8>
    15e7:	8b 45 d0             	mov    -0x30(%ebp),%eax
    15ea:	57                   	push   %edi
    15eb:	57                   	push   %edi
    15ec:	50                   	push   %eax
    15ed:	56                   	push   %esi
    15ee:	e8 1d 52 00 00       	call   6810 <str_ndup>
    15f3:	8b 4d c8             	mov    -0x38(%ebp),%ecx
    15f6:	83 c4 10             	add    $0x10,%esp
    15f9:	85 c0                	test   %eax,%eax
    15fb:	89 01                	mov    %eax,(%ecx)
    15fd:	74 d7                	je     15d6 <loc_fqsn_split+0x76>
    15ff:	83 ec 0c             	sub    $0xc,%esp
    1602:	8b 5d cc             	mov    -0x34(%ebp),%ebx
    1605:	01 de                	add    %ebx,%esi
    1607:	56                   	push   %esi
    1608:	e8 b3 4f 00 00       	call   65c0 <str_dup>
    160d:	8b 4d c4             	mov    -0x3c(%ebp),%ecx
    1610:	83 c4 10             	add    $0x10,%esp
    1613:	85 c0                	test   %eax,%eax
    1615:	89 01                	mov    %eax,(%ecx)
    1617:	74 4d                	je     1666 <loc_fqsn_split+0x106>
    1619:	52                   	push   %edx
    161a:	52                   	push   %edx
    161b:	68 71 72 02 00       	push   $0x27271
    1620:	50                   	push   %eax
    1621:	e8 ca 2e 00 00       	call   44f0 <str_cmp>
    1626:	83 c4 10             	add    $0x10,%esp
    1629:	85 c0                	test   %eax,%eax
    162b:	74 3e                	je     166b <loc_fqsn_split+0x10b>
    162d:	8d 65 f4             	lea    -0xc(%ebp),%esp
    1630:	b0 01                	mov    $0x1,%al
    1632:	5b                   	pop    %ebx
    1633:	5e                   	pop    %esi
    1634:	5f                   	pop    %edi
    1635:	5d                   	pop    %ebp
    1636:	c3                   	ret    
    1637:	90                   	nop
    1638:	83 ec 0c             	sub    $0xc,%esp
    163b:	68 71 72 02 00       	push   $0x27271
    1640:	e8 7b 4f 00 00       	call   65c0 <str_dup>
    1645:	8b 55 c8             	mov    -0x38(%ebp),%edx
    1648:	83 c4 10             	add    $0x10,%esp
    164b:	85 c0                	test   %eax,%eax
    164d:	89 02                	mov    %eax,(%edx)
    164f:	74 85                	je     15d6 <loc_fqsn_split+0x76>
    1651:	83 ec 0c             	sub    $0xc,%esp
    1654:	56                   	push   %esi
    1655:	e8 66 4f 00 00       	call   65c0 <str_dup>
    165a:	8b 55 c4             	mov    -0x3c(%ebp),%edx
    165d:	83 c4 10             	add    $0x10,%esp
    1660:	85 c0                	test   %eax,%eax
    1662:	89 02                	mov    %eax,(%edx)
    1664:	75 b3                	jne    1619 <loc_fqsn_split+0xb9>
    1666:	83 ec 0c             	sub    $0xc,%esp
    1669:	eb 0f                	jmp    167a <loc_fqsn_split+0x11a>
    166b:	8b 45 c4             	mov    -0x3c(%ebp),%eax
    166e:	83 ec 0c             	sub    $0xc,%esp
    1671:	8b 10                	mov    (%eax),%edx
    1673:	52                   	push   %edx
    1674:	e8 c7 1f 01 00       	call   13640 <free>
    1679:	59                   	pop    %ecx
    167a:	8b 45 c8             	mov    -0x38(%ebp),%eax
    167d:	8b 00                	mov    (%eax),%eax
    167f:	50                   	push   %eax
    1680:	e8 bb 1f 01 00       	call   13640 <free>
    1685:	83 c4 10             	add    $0x10,%esp
    1688:	e9 49 ff ff ff       	jmp    15d6 <loc_fqsn_split+0x76>
    168d:	8d 76 00             	lea    0x0(%esi),%esi

00001690 <loc_namespace_get_id.isra.10>:
    1690:	55                   	push   %ebp
    1691:	89 e5                	mov    %esp,%ebp
    1693:	57                   	push   %edi
    1694:	56                   	push   %esi
    1695:	53                   	push   %ebx
    1696:	83 ec 34             	sub    $0x34,%esp
    1699:	89 45 d4             	mov    %eax,-0x2c(%ebp)
    169c:	8d 45 e4             	lea    -0x1c(%ebp),%eax
    169f:	89 d6                	mov    %edx,%esi
    16a1:	6a 00                	push   $0x0
    16a3:	6a 00                	push   $0x0
    16a5:	68 ff 00 00 00       	push   $0xff
    16aa:	6a 00                	push   $0x0
    16ac:	6a 01                	push   $0x1
    16ae:	50                   	push   %eax
    16af:	e8 9c 7c 01 00       	call   19350 <async_data_write_accept>
    16b4:	83 c4 20             	add    $0x20,%esp
    16b7:	85 c0                	test   %eax,%eax
    16b9:	74 17                	je     16d2 <loc_namespace_get_id.isra.10+0x42>
    16bb:	8b 5d d4             	mov    -0x2c(%ebp),%ebx
    16be:	51                   	push   %ecx
    16bf:	51                   	push   %ecx
    16c0:	50                   	push   %eax
    16c1:	53                   	push   %ebx
    16c2:	e8 19 60 01 00       	call   176e0 <async_answer_0>
    16c7:	83 c4 10             	add    $0x10,%esp
    16ca:	8d 65 f4             	lea    -0xc(%ebp),%esp
    16cd:	5b                   	pop    %ebx
    16ce:	5e                   	pop    %esi
    16cf:	5f                   	pop    %edi
    16d0:	5d                   	pop    %ebp
    16d1:	c3                   	ret    
    16d2:	83 ec 0c             	sub    $0xc,%esp
    16d5:	68 98 91 02 00       	push   $0x29198
    16da:	e8 f1 74 00 00       	call   8bd0 <fibril_mutex_lock>
    16df:	83 c4 10             	add    $0x10,%esp
    16e2:	8d b6 00 00 00 00    	lea    0x0(%esi),%esi
    16e8:	83 ec 0c             	sub    $0xc,%esp
    16eb:	8b 5d e4             	mov    -0x1c(%ebp),%ebx
    16ee:	68 98 91 02 00       	push   $0x29198
    16f3:	e8 08 78 00 00       	call   8f00 <fibril_mutex_is_locked>
    16f8:	83 c4 10             	add    $0x10,%esp
    16fb:	84 c0                	test   %al,%al
    16fd:	0f 84 b1 00 00 00    	je     17b4 <loc_namespace_get_id.isra.10+0x124>
    1703:	8b 3d b4 91 02 00    	mov    0x291b4,%edi
    1709:	81 ff b0 91 02 00    	cmp    $0x291b0,%edi
    170f:	75 12                	jne    1723 <loc_namespace_get_id.isra.10+0x93>
    1711:	eb 55                	jmp    1768 <loc_namespace_get_id.isra.10+0xd8>
    1713:	90                   	nop
    1714:	8d 74 26 00          	lea    0x0(%esi,%eiz,1),%esi
    1718:	8b 7f 04             	mov    0x4(%edi),%edi
    171b:	81 ff b0 91 02 00    	cmp    $0x291b0,%edi
    1721:	74 45                	je     1768 <loc_namespace_get_id.isra.10+0xd8>
    1723:	50                   	push   %eax
    1724:	50                   	push   %eax
    1725:	53                   	push   %ebx
    1726:	8b 47 0c             	mov    0xc(%edi),%eax
    1729:	50                   	push   %eax
    172a:	e8 c1 2d 00 00       	call   44f0 <str_cmp>
    172f:	83 c4 10             	add    $0x10,%esp
    1732:	85 c0                	test   %eax,%eax
    1734:	75 e2                	jne    1718 <loc_namespace_get_id.isra.10+0x88>
    1736:	50                   	push   %eax
    1737:	8b 4d d4             	mov    -0x2c(%ebp),%ecx
    173a:	8b 57 08             	mov    0x8(%edi),%edx
    173d:	52                   	push   %edx
    173e:	6a 00                	push   $0x0
    1740:	51                   	push   %ecx
    1741:	e8 ba 5f 01 00       	call   17700 <async_answer_1>
    1746:	c7 04 24 98 91 02 00 	movl   $0x29198,(%esp)
    174d:	e8 fe 75 00 00       	call   8d50 <fibril_mutex_unlock>
    1752:	8b 75 e4             	mov    -0x1c(%ebp),%esi
    1755:	5b                   	pop    %ebx
    1756:	56                   	push   %esi
    1757:	e8 e4 1e 01 00       	call   13640 <free>
    175c:	83 c4 10             	add    $0x10,%esp
    175f:	8d 65 f4             	lea    -0xc(%ebp),%esp
    1762:	5b                   	pop    %ebx
    1763:	5e                   	pop    %esi
    1764:	5f                   	pop    %edi
    1765:	5d                   	pop    %ebp
    1766:	c3                   	ret    
    1767:	90                   	nop
    1768:	f6 06 01             	testb  $0x1,(%esi)
    176b:	74 19                	je     1786 <loc_namespace_get_id.isra.10+0xf6>
    176d:	50                   	push   %eax
    176e:	50                   	push   %eax
    176f:	68 98 91 02 00       	push   $0x29198
    1774:	68 90 91 02 00       	push   $0x29190
    1779:	e8 e2 84 00 00       	call   9c60 <fibril_condvar_wait>
    177e:	83 c4 10             	add    $0x10,%esp
    1781:	e9 62 ff ff ff       	jmp    16e8 <loc_namespace_get_id.isra.10+0x58>
    1786:	8b 45 d4             	mov    -0x2c(%ebp),%eax
    1789:	57                   	push   %edi
    178a:	57                   	push   %edi
    178b:	6a ff                	push   $0xffffffff
    178d:	50                   	push   %eax
    178e:	e8 4d 5f 01 00       	call   176e0 <async_answer_0>
    1793:	58                   	pop    %eax
    1794:	8b 45 e4             	mov    -0x1c(%ebp),%eax
    1797:	50                   	push   %eax
    1798:	e8 a3 1e 01 00       	call   13640 <free>
    179d:	c7 04 24 98 91 02 00 	movl   $0x29198,(%esp)
    17a4:	e8 a7 75 00 00       	call   8d50 <fibril_mutex_unlock>
    17a9:	83 c4 10             	add    $0x10,%esp
    17ac:	8d 65 f4             	lea    -0xc(%ebp),%esp
    17af:	5b                   	pop    %ebx
    17b0:	5e                   	pop    %esi
    17b1:	5f                   	pop    %edi
    17b2:	5d                   	pop    %ebp
    17b3:	c3                   	ret    
    17b4:	52                   	push   %edx
    17b5:	68 b8 00 00 00       	push   $0xb8
    17ba:	68 ba 58 02 00       	push   $0x258ba
    17bf:	68 60 58 02 00       	push   $0x25860
    17c4:	e8 a7 de 01 00       	call   1f670 <assert_abort>
    17c9:	8d b4 26 00 00 00 00 	lea    0x0(%esi,%eiz,1),%esi

000017d0 <loc_service_get_id.isra.11>:
    17d0:	55                   	push   %ebp
    17d1:	89 e5                	mov    %esp,%ebp
    17d3:	57                   	push   %edi
    17d4:	56                   	push   %esi
    17d5:	53                   	push   %ebx
    17d6:	83 ec 34             	sub    $0x34,%esp
    17d9:	89 c6                	mov    %eax,%esi
    17db:	89 45 d0             	mov    %eax,-0x30(%ebp)
    17de:	8d 45 dc             	lea    -0x24(%ebp),%eax
    17e1:	6a 00                	push   $0x0
    17e3:	89 55 d4             	mov    %edx,-0x2c(%ebp)
    17e6:	6a 00                	push   $0x0
    17e8:	68 ff 00 00 00       	push   $0xff
    17ed:	6a 00                	push   $0x0
    17ef:	6a 01                	push   $0x1
    17f1:	50                   	push   %eax
    17f2:	e8 59 7b 01 00       	call   19350 <async_data_write_accept>
    17f7:	83 c4 20             	add    $0x20,%esp
    17fa:	85 c0                	test   %eax,%eax
    17fc:	74 14                	je     1812 <loc_service_get_id.isra.11+0x42>
    17fe:	57                   	push   %edi
    17ff:	57                   	push   %edi
    1800:	50                   	push   %eax
    1801:	56                   	push   %esi
    1802:	e8 d9 5e 01 00       	call   176e0 <async_answer_0>
    1807:	83 c4 10             	add    $0x10,%esp
    180a:	8d 65 f4             	lea    -0xc(%ebp),%esp
    180d:	5b                   	pop    %ebx
    180e:	5e                   	pop    %esi
    180f:	5f                   	pop    %edi
    1810:	5d                   	pop    %ebp
    1811:	c3                   	ret    
    1812:	8d 4d e4             	lea    -0x1c(%ebp),%ecx
    1815:	8d 55 e0             	lea    -0x20(%ebp),%edx
    1818:	8b 45 dc             	mov    -0x24(%ebp),%eax
    181b:	e8 40 fd ff ff       	call   1560 <loc_fqsn_split>
    1820:	84 c0                	test   %al,%al
    1822:	0f 84 cb 00 00 00    	je     18f3 <loc_service_get_id.isra.11+0x123>
    1828:	83 ec 0c             	sub    $0xc,%esp
    182b:	8b 45 dc             	mov    -0x24(%ebp),%eax
    182e:	50                   	push   %eax
    182f:	e8 0c 1e 01 00       	call   13640 <free>
    1834:	c7 04 24 98 91 02 00 	movl   $0x29198,(%esp)
    183b:	e8 90 73 00 00       	call   8bd0 <fibril_mutex_lock>
    1840:	83 c4 10             	add    $0x10,%esp
    1843:	90                   	nop
    1844:	8d 74 26 00          	lea    0x0(%esi,%eiz,1),%esi
    1848:	83 ec 0c             	sub    $0xc,%esp
    184b:	8b 75 e4             	mov    -0x1c(%ebp),%esi
    184e:	8b 5d e0             	mov    -0x20(%ebp),%ebx
    1851:	68 98 91 02 00       	push   $0x29198
    1856:	e8 a5 76 00 00       	call   8f00 <fibril_mutex_is_locked>
    185b:	83 c4 10             	add    $0x10,%esp
    185e:	84 c0                	test   %al,%al
    1860:	0f 84 0b 01 00 00    	je     1971 <loc_service_get_id.isra.11+0x1a1>
    1866:	8b 3d bc 91 02 00    	mov    0x291bc,%edi
    186c:	81 ff b8 91 02 00    	cmp    $0x291b8,%edi
    1872:	75 1b                	jne    188f <loc_service_get_id.isra.11+0xbf>
    1874:	e9 9f 00 00 00       	jmp    1918 <loc_service_get_id.isra.11+0x148>
    1879:	8d b4 26 00 00 00 00 	lea    0x0(%esi,%eiz,1),%esi
    1880:	8b 7f 04             	mov    0x4(%edi),%edi
    1883:	81 ff b8 91 02 00    	cmp    $0x291b8,%edi
    1889:	0f 84 89 00 00 00    	je     1918 <loc_service_get_id.isra.11+0x148>
    188f:	50                   	push   %eax
    1890:	50                   	push   %eax
    1891:	8b 47 24             	mov    0x24(%edi),%eax
    1894:	53                   	push   %ebx
    1895:	8b 40 0c             	mov    0xc(%eax),%eax
    1898:	50                   	push   %eax
    1899:	e8 52 2c 00 00       	call   44f0 <str_cmp>
    189e:	83 c4 10             	add    $0x10,%esp
    18a1:	85 c0                	test   %eax,%eax
    18a3:	75 db                	jne    1880 <loc_service_get_id.isra.11+0xb0>
    18a5:	50                   	push   %eax
    18a6:	50                   	push   %eax
    18a7:	56                   	push   %esi
    18a8:	8b 47 28             	mov    0x28(%edi),%eax
    18ab:	50                   	push   %eax
    18ac:	e8 3f 2c 00 00       	call   44f0 <str_cmp>
    18b1:	83 c4 10             	add    $0x10,%esp
    18b4:	85 c0                	test   %eax,%eax
    18b6:	75 c8                	jne    1880 <loc_service_get_id.isra.11+0xb0>
    18b8:	50                   	push   %eax
    18b9:	8b 4d d0             	mov    -0x30(%ebp),%ecx
    18bc:	8b 57 20             	mov    0x20(%edi),%edx
    18bf:	52                   	push   %edx
    18c0:	6a 00                	push   $0x0
    18c2:	51                   	push   %ecx
    18c3:	e8 38 5e 01 00       	call   17700 <async_answer_1>
    18c8:	c7 04 24 98 91 02 00 	movl   $0x29198,(%esp)
    18cf:	e8 7c 74 00 00       	call   8d50 <fibril_mutex_unlock>
    18d4:	8b 75 e0             	mov    -0x20(%ebp),%esi
    18d7:	5b                   	pop    %ebx
    18d8:	56                   	push   %esi
    18d9:	e8 62 1d 01 00       	call   13640 <free>
    18de:	8b 45 e4             	mov    -0x1c(%ebp),%eax
    18e1:	5f                   	pop    %edi
    18e2:	50                   	push   %eax
    18e3:	e8 58 1d 01 00       	call   13640 <free>
    18e8:	83 c4 10             	add    $0x10,%esp
    18eb:	8d 65 f4             	lea    -0xc(%ebp),%esp
    18ee:	5b                   	pop    %ebx
    18ef:	5e                   	pop    %esi
    18f0:	5f                   	pop    %edi
    18f1:	5d                   	pop    %ebp
    18f2:	c3                   	ret    
    18f3:	83 ec 0c             	sub    $0xc,%esp
    18f6:	8b 55 dc             	mov    -0x24(%ebp),%edx
    18f9:	52                   	push   %edx
    18fa:	e8 41 1d 01 00       	call   13640 <free>
    18ff:	8b 75 d0             	mov    -0x30(%ebp),%esi
    1902:	59                   	pop    %ecx
    1903:	5b                   	pop    %ebx
    1904:	6a f2                	push   $0xfffffff2
    1906:	56                   	push   %esi
    1907:	e8 d4 5d 01 00       	call   176e0 <async_answer_0>
    190c:	83 c4 10             	add    $0x10,%esp
    190f:	8d 65 f4             	lea    -0xc(%ebp),%esp
    1912:	5b                   	pop    %ebx
    1913:	5e                   	pop    %esi
    1914:	5f                   	pop    %edi
    1915:	5d                   	pop    %ebp
    1916:	c3                   	ret    
    1917:	90                   	nop
    1918:	8b 45 d4             	mov    -0x2c(%ebp),%eax
    191b:	f6 00 01             	testb  $0x1,(%eax)
    191e:	74 19                	je     1939 <loc_service_get_id.isra.11+0x169>
    1920:	51                   	push   %ecx
    1921:	51                   	push   %ecx
    1922:	68 98 91 02 00       	push   $0x29198
    1927:	68 90 91 02 00       	push   $0x29190
    192c:	e8 2f 83 00 00       	call   9c60 <fibril_condvar_wait>
    1931:	83 c4 10             	add    $0x10,%esp
    1934:	e9 0f ff ff ff       	jmp    1848 <loc_service_get_id.isra.11+0x78>
    1939:	50                   	push   %eax
    193a:	50                   	push   %eax
    193b:	8b 45 d0             	mov    -0x30(%ebp),%eax
    193e:	6a ff                	push   $0xffffffff
    1940:	50                   	push   %eax
    1941:	e8 9a 5d 01 00       	call   176e0 <async_answer_0>
    1946:	58                   	pop    %eax
    1947:	8b 45 e0             	mov    -0x20(%ebp),%eax
    194a:	50                   	push   %eax
    194b:	e8 f0 1c 01 00       	call   13640 <free>
    1950:	8b 55 e4             	mov    -0x1c(%ebp),%edx
    1953:	58                   	pop    %eax
    1954:	52                   	push   %edx
    1955:	e8 e6 1c 01 00       	call   13640 <free>
    195a:	c7 04 24 98 91 02 00 	movl   $0x29198,(%esp)
    1961:	e8 ea 73 00 00       	call   8d50 <fibril_mutex_unlock>
    1966:	83 c4 10             	add    $0x10,%esp
    1969:	8d 65 f4             	lea    -0xc(%ebp),%esp
    196c:	5b                   	pop    %ebx
    196d:	5e                   	pop    %esi
    196e:	5f                   	pop    %edi
    196f:	5d                   	pop    %ebp
    1970:	c3                   	ret    
    1971:	50                   	push   %eax
    1972:	68 d7 00 00 00       	push   $0xd7
    1977:	68 ba 58 02 00       	push   $0x258ba
    197c:	68 60 58 02 00       	push   $0x25860
    1981:	e8 ea dc 01 00       	call   1f670 <assert_abort>
    1986:	8d 76 00             	lea    0x0(%esi),%esi
    1989:	8d bc 27 00 00 00 00 	lea    0x0(%edi,%eiz,1),%edi

00001990 <loc_service_unregister_core>:
    1990:	55                   	push   %ebp
    1991:	89 e5                	mov    %esp,%ebp
    1993:	57                   	push   %edi
    1994:	56                   	push   %esi
    1995:	53                   	push   %ebx
    1996:	83 ec 28             	sub    $0x28,%esp
    1999:	89 c3                	mov    %eax,%ebx
    199b:	68 98 91 02 00       	push   $0x29198
    19a0:	e8 5b 75 00 00       	call   8f00 <fibril_mutex_is_locked>
    19a5:	83 c4 10             	add    $0x10,%esp
    19a8:	84 c0                	test   %al,%al
    19aa:	0f 84 6d 01 00 00    	je     1b1d <loc_service_unregister_core+0x18d>
    19b0:	83 ec 0c             	sub    $0xc,%esp
    19b3:	68 60 94 02 00       	push   $0x29460
    19b8:	e8 43 75 00 00       	call   8f00 <fibril_mutex_is_locked>
    19bd:	83 c4 10             	add    $0x10,%esp
    19c0:	84 c0                	test   %al,%al
    19c2:	0f 84 40 01 00 00    	je     1b08 <loc_service_unregister_core+0x178>
    19c8:	83 ec 0c             	sub    $0xc,%esp
    19cb:	8b 73 24             	mov    0x24(%ebx),%esi
    19ce:	68 98 91 02 00       	push   $0x29198
    19d3:	e8 28 75 00 00       	call   8f00 <fibril_mutex_is_locked>
    19d8:	83 c4 10             	add    $0x10,%esp
    19db:	84 c0                	test   %al,%al
    19dd:	0f 84 10 01 00 00    	je     1af3 <loc_service_unregister_core+0x163>
    19e3:	8b 7e 10             	mov    0x10(%esi),%edi
    19e6:	83 ec 0c             	sub    $0xc,%esp
    19e9:	4f                   	dec    %edi
    19ea:	89 7e 10             	mov    %edi,0x10(%esi)
    19ed:	68 98 91 02 00       	push   $0x29198
    19f2:	e8 09 75 00 00       	call   8f00 <fibril_mutex_is_locked>
    19f7:	83 c4 10             	add    $0x10,%esp
    19fa:	84 c0                	test   %al,%al
    19fc:	0f 84 dc 00 00 00    	je     1ade <loc_service_unregister_core+0x14e>
    1a02:	8b 4e 10             	mov    0x10(%esi),%ecx
    1a05:	85 c9                	test   %ecx,%ecx
    1a07:	75 38                	jne    1a41 <loc_service_unregister_core+0xb1>
    1a09:	8b 16                	mov    (%esi),%edx
    1a0b:	85 d2                	test   %edx,%edx
    1a0d:	74 0e                	je     1a1d <loc_service_unregister_core+0x8d>
    1a0f:	8b 46 04             	mov    0x4(%esi),%eax
    1a12:	85 c0                	test   %eax,%eax
    1a14:	74 07                	je     1a1d <loc_service_unregister_core+0x8d>
    1a16:	89 10                	mov    %edx,(%eax)
    1a18:	8b 16                	mov    (%esi),%edx
    1a1a:	89 42 04             	mov    %eax,0x4(%edx)
    1a1d:	83 ec 0c             	sub    $0xc,%esp
    1a20:	8b 56 0c             	mov    0xc(%esi),%edx
    1a23:	c7 06 00 00 00 00    	movl   $0x0,(%esi)
    1a29:	c7 46 04 00 00 00 00 	movl   $0x0,0x4(%esi)
    1a30:	52                   	push   %edx
    1a31:	e8 0a 1c 01 00       	call   13640 <free>
    1a36:	89 34 24             	mov    %esi,(%esp)
    1a39:	e8 02 1c 01 00       	call   13640 <free>
    1a3e:	83 c4 10             	add    $0x10,%esp
    1a41:	8b 13                	mov    (%ebx),%edx
    1a43:	85 d2                	test   %edx,%edx
    1a45:	74 0e                	je     1a55 <loc_service_unregister_core+0xc5>
    1a47:	8b 43 04             	mov    0x4(%ebx),%eax
    1a4a:	85 c0                	test   %eax,%eax
    1a4c:	74 07                	je     1a55 <loc_service_unregister_core+0xc5>
    1a4e:	89 10                	mov    %edx,(%eax)
    1a50:	8b 13                	mov    (%ebx),%edx
    1a52:	89 42 04             	mov    %eax,0x4(%edx)
    1a55:	8b 53 08             	mov    0x8(%ebx),%edx
    1a58:	c7 03 00 00 00 00    	movl   $0x0,(%ebx)
    1a5e:	c7 43 04 00 00 00 00 	movl   $0x0,0x4(%ebx)
    1a65:	85 d2                	test   %edx,%edx
    1a67:	74 0f                	je     1a78 <loc_service_unregister_core+0xe8>
    1a69:	8b 43 0c             	mov    0xc(%ebx),%eax
    1a6c:	85 c0                	test   %eax,%eax
    1a6e:	74 08                	je     1a78 <loc_service_unregister_core+0xe8>
    1a70:	89 10                	mov    %edx,(%eax)
    1a72:	8b 53 08             	mov    0x8(%ebx),%edx
    1a75:	89 42 04             	mov    %eax,0x4(%edx)
    1a78:	8d 53 18             	lea    0x18(%ebx),%edx
    1a7b:	8b 43 1c             	mov    0x1c(%ebx),%eax
    1a7e:	c7 43 08 00 00 00 00 	movl   $0x0,0x8(%ebx)
    1a85:	c7 43 0c 00 00 00 00 	movl   $0x0,0xc(%ebx)
    1a8c:	89 55 e4             	mov    %edx,-0x1c(%ebp)
    1a8f:	39 c2                	cmp    %eax,%edx
    1a91:	74 2f                	je     1ac2 <loc_service_unregister_core+0x132>
    1a93:	90                   	nop
    1a94:	8d 74 26 00          	lea    0x0(%esi,%eiz,1),%esi
    1a98:	83 ec 0c             	sub    $0xc,%esp
    1a9b:	8b 70 08             	mov    0x8(%eax),%esi
    1a9e:	8d 78 f8             	lea    -0x8(%eax),%edi
    1aa1:	56                   	push   %esi
    1aa2:	e8 29 71 00 00       	call   8bd0 <fibril_mutex_lock>
    1aa7:	89 3c 24             	mov    %edi,(%esp)
    1aaa:	e8 71 f8 ff ff       	call   1320 <category_remove_service>
    1aaf:	89 34 24             	mov    %esi,(%esp)
    1ab2:	e8 99 72 00 00       	call   8d50 <fibril_mutex_unlock>
    1ab7:	8b 43 1c             	mov    0x1c(%ebx),%eax
    1aba:	83 c4 10             	add    $0x10,%esp
    1abd:	3b 45 e4             	cmp    -0x1c(%ebp),%eax
    1ac0:	75 d6                	jne    1a98 <loc_service_unregister_core+0x108>
    1ac2:	83 ec 0c             	sub    $0xc,%esp
    1ac5:	8b 43 28             	mov    0x28(%ebx),%eax
    1ac8:	50                   	push   %eax
    1ac9:	e8 72 1b 01 00       	call   13640 <free>
    1ace:	89 1c 24             	mov    %ebx,(%esp)
    1ad1:	e8 6a 1b 01 00       	call   13640 <free>
    1ad6:	8d 65 f4             	lea    -0xc(%ebp),%esp
    1ad9:	5b                   	pop    %ebx
    1ada:	5e                   	pop    %esi
    1adb:	5f                   	pop    %edi
    1adc:	5d                   	pop    %ebp
    1add:	c3                   	ret    
    1ade:	53                   	push   %ebx
    1adf:	68 16 01 00 00       	push   $0x116
    1ae4:	68 ba 58 02 00       	push   $0x258ba
    1ae9:	68 60 58 02 00       	push   $0x25860
    1aee:	e8 7d db 01 00       	call   1f670 <assert_abort>
    1af3:	50                   	push   %eax
    1af4:	68 2d 01 00 00       	push   $0x12d
    1af9:	68 ba 58 02 00       	push   $0x258ba
    1afe:	68 60 58 02 00       	push   $0x25860
    1b03:	e8 68 db 01 00       	call   1f670 <assert_abort>
    1b08:	50                   	push   %eax
    1b09:	68 37 01 00 00       	push   $0x137
    1b0e:	68 ba 58 02 00       	push   $0x258ba
    1b13:	68 8c 59 02 00       	push   $0x2598c
    1b18:	e8 53 db 01 00       	call   1f670 <assert_abort>
    1b1d:	50                   	push   %eax
    1b1e:	68 36 01 00 00       	push   $0x136
    1b23:	68 ba 58 02 00       	push   $0x258ba
    1b28:	68 60 58 02 00       	push   $0x25860
    1b2d:	e8 3e db 01 00       	call   1f670 <assert_abort>
    1b32:	8d b4 26 00 00 00 00 	lea    0x0(%esi,%eiz,1),%esi
    1b39:	8d bc 27 00 00 00 00 	lea    0x0(%edi,%eiz,1),%edi

00001b40 <loc_namespace_create>:
    1b40:	55                   	push   %ebp
    1b41:	89 e5                	mov    %esp,%ebp
    1b43:	56                   	push   %esi
    1b44:	53                   	push   %ebx
    1b45:	89 c6                	mov    %eax,%esi
    1b47:	83 ec 0c             	sub    $0xc,%esp
    1b4a:	68 98 91 02 00       	push   $0x29198
    1b4f:	e8 ac 73 00 00       	call   8f00 <fibril_mutex_is_locked>
    1b54:	83 c4 10             	add    $0x10,%esp
    1b57:	84 c0                	test   %al,%al
    1b59:	0f 84 ee 00 00 00    	je     1c4d <loc_namespace_create+0x10d>
    1b5f:	83 ec 0c             	sub    $0xc,%esp
    1b62:	68 98 91 02 00       	push   $0x29198
    1b67:	e8 94 73 00 00       	call   8f00 <fibril_mutex_is_locked>
    1b6c:	83 c4 10             	add    $0x10,%esp
    1b6f:	84 c0                	test   %al,%al
    1b71:	0f 84 c1 00 00 00    	je     1c38 <loc_namespace_create+0xf8>
    1b77:	8b 1d b4 91 02 00    	mov    0x291b4,%ebx
    1b7d:	81 fb b0 91 02 00    	cmp    $0x291b0,%ebx
    1b83:	75 0e                	jne    1b93 <loc_namespace_create+0x53>
    1b85:	eb 29                	jmp    1bb0 <loc_namespace_create+0x70>
    1b87:	90                   	nop
    1b88:	8b 5b 04             	mov    0x4(%ebx),%ebx
    1b8b:	81 fb b0 91 02 00    	cmp    $0x291b0,%ebx
    1b91:	74 1d                	je     1bb0 <loc_namespace_create+0x70>
    1b93:	52                   	push   %edx
    1b94:	52                   	push   %edx
    1b95:	56                   	push   %esi
    1b96:	8b 4b 0c             	mov    0xc(%ebx),%ecx
    1b99:	51                   	push   %ecx
    1b9a:	e8 51 29 00 00       	call   44f0 <str_cmp>
    1b9f:	83 c4 10             	add    $0x10,%esp
    1ba2:	85 c0                	test   %eax,%eax
    1ba4:	75 e2                	jne    1b88 <loc_namespace_create+0x48>
    1ba6:	8d 65 f8             	lea    -0x8(%ebp),%esp
    1ba9:	89 d8                	mov    %ebx,%eax
    1bab:	5b                   	pop    %ebx
    1bac:	5e                   	pop    %esi
    1bad:	5d                   	pop    %ebp
    1bae:	c3                   	ret    
    1baf:	90                   	nop
    1bb0:	83 ec 0c             	sub    $0xc,%esp
    1bb3:	6a 14                	push   $0x14
    1bb5:	e8 d6 18 01 00       	call   13490 <malloc>
    1bba:	83 c4 10             	add    $0x10,%esp
    1bbd:	89 c3                	mov    %eax,%ebx
    1bbf:	85 c0                	test   %eax,%eax
    1bc1:	74 e3                	je     1ba6 <loc_namespace_create+0x66>
    1bc3:	83 ec 0c             	sub    $0xc,%esp
    1bc6:	56                   	push   %esi
    1bc7:	e8 f4 49 00 00       	call   65c0 <str_dup>
    1bcc:	83 c4 10             	add    $0x10,%esp
    1bcf:	89 43 0c             	mov    %eax,0xc(%ebx)
    1bd2:	85 c0                	test   %eax,%eax
    1bd4:	74 4f                	je     1c25 <loc_namespace_create+0xe5>
    1bd6:	83 ec 0c             	sub    $0xc,%esp
    1bd9:	68 70 91 02 00       	push   $0x29170
    1bde:	e8 ed 6f 00 00       	call   8bd0 <fibril_mutex_lock>
    1be3:	a1 80 98 02 00       	mov    0x29880,%eax
    1be8:	c7 04 24 70 91 02 00 	movl   $0x29170,(%esp)
    1bef:	40                   	inc    %eax
    1bf0:	a3 80 98 02 00       	mov    %eax,0x29880
    1bf5:	e8 56 71 00 00       	call   8d50 <fibril_mutex_unlock>
    1bfa:	a1 80 98 02 00       	mov    0x29880,%eax
    1bff:	c7 43 10 00 00 00 00 	movl   $0x0,0x10(%ebx)
    1c06:	89 43 08             	mov    %eax,0x8(%ebx)
    1c09:	a1 b0 91 02 00       	mov    0x291b0,%eax
    1c0e:	c7 43 04 b0 91 02 00 	movl   $0x291b0,0x4(%ebx)
    1c15:	89 03                	mov    %eax,(%ebx)
    1c17:	89 1d b0 91 02 00    	mov    %ebx,0x291b0
    1c1d:	89 58 04             	mov    %ebx,0x4(%eax)
    1c20:	83 c4 10             	add    $0x10,%esp
    1c23:	eb 81                	jmp    1ba6 <loc_namespace_create+0x66>
    1c25:	83 ec 0c             	sub    $0xc,%esp
    1c28:	53                   	push   %ebx
    1c29:	31 db                	xor    %ebx,%ebx
    1c2b:	e8 10 1a 01 00       	call   13640 <free>
    1c30:	83 c4 10             	add    $0x10,%esp
    1c33:	e9 6e ff ff ff       	jmp    1ba6 <loc_namespace_create+0x66>
    1c38:	53                   	push   %ebx
    1c39:	68 b8 00 00 00       	push   $0xb8
    1c3e:	68 ba 58 02 00       	push   $0x258ba
    1c43:	68 60 58 02 00       	push   $0x25860
    1c48:	e8 23 da 01 00       	call   1f670 <assert_abort>
    1c4d:	56                   	push   %esi
    1c4e:	68 f8 00 00 00       	push   $0xf8
    1c53:	68 ba 58 02 00       	push   $0x258ba
    1c58:	68 60 58 02 00       	push   $0x25860
    1c5d:	e8 0e da 01 00       	call   1f670 <assert_abort>
    1c62:	8d b4 26 00 00 00 00 	lea    0x0(%esi,%eiz,1),%esi
    1c69:	8d bc 27 00 00 00 00 	lea    0x0(%edi,%eiz,1),%edi

00001c70 <loc_forward>:
    1c70:	55                   	push   %ebp
    1c71:	89 e5                	mov    %esp,%ebp
    1c73:	57                   	push   %edi
    1c74:	56                   	push   %esi
    1c75:	53                   	push   %ebx
    1c76:	83 ec 28             	sub    $0x28,%esp
    1c79:	8b 5d 0c             	mov    0xc(%ebp),%ebx
    1c7c:	8b 75 08             	mov    0x8(%ebp),%esi
    1c7f:	68 98 91 02 00       	push   $0x29198
    1c84:	e8 47 6f 00 00       	call   8bd0 <fibril_mutex_lock>
    1c89:	8b 43 04             	mov    0x4(%ebx),%eax
    1c8c:	8b 7b 08             	mov    0x8(%ebx),%edi
    1c8f:	89 45 e4             	mov    %eax,-0x1c(%ebp)
    1c92:	c7 04 24 98 91 02 00 	movl   $0x29198,(%esp)
    1c99:	e8 62 72 00 00       	call   8f00 <fibril_mutex_is_locked>
    1c9e:	83 c4 10             	add    $0x10,%esp
    1ca1:	84 c0                	test   %al,%al
    1ca3:	0f 84 9d 00 00 00    	je     1d46 <loc_forward+0xd6>
    1ca9:	8b 1d bc 91 02 00    	mov    0x291bc,%ebx
    1caf:	81 fb b8 91 02 00    	cmp    $0x291b8,%ebx
    1cb5:	75 14                	jne    1ccb <loc_forward+0x5b>
    1cb7:	eb 67                	jmp    1d20 <loc_forward+0xb0>
    1cb9:	8d b4 26 00 00 00 00 	lea    0x0(%esi,%eiz,1),%esi
    1cc0:	8b 5b 04             	mov    0x4(%ebx),%ebx
    1cc3:	81 fb b8 91 02 00    	cmp    $0x291b8,%ebx
    1cc9:	74 55                	je     1d20 <loc_forward+0xb0>
    1ccb:	3b 7b 20             	cmp    0x20(%ebx),%edi
    1cce:	75 f0                	jne    1cc0 <loc_forward+0x50>
    1cd0:	8b 43 2c             	mov    0x2c(%ebx),%eax
    1cd3:	85 c0                	test   %eax,%eax
    1cd5:	74 49                	je     1d20 <loc_forward+0xb0>
    1cd7:	8b 40 10             	mov    0x10(%eax),%eax
    1cda:	85 c0                	test   %eax,%eax
    1cdc:	74 42                	je     1d20 <loc_forward+0xb0>
    1cde:	83 ec 0c             	sub    $0xc,%esp
    1ce1:	50                   	push   %eax
    1ce2:	e8 49 66 01 00       	call   18330 <async_exchange_begin>
    1ce7:	89 c7                	mov    %eax,%edi
    1ce9:	58                   	pop    %eax
    1cea:	5a                   	pop    %edx
    1ceb:	6a 00                	push   $0x0
    1ced:	6a 00                	push   $0x0
    1cef:	8b 4b 20             	mov    0x20(%ebx),%ecx
    1cf2:	8b 5d e4             	mov    -0x1c(%ebp),%ebx
    1cf5:	51                   	push   %ecx
    1cf6:	53                   	push   %ebx
    1cf7:	57                   	push   %edi
    1cf8:	56                   	push   %esi
    1cf9:	e8 a2 5a 01 00       	call   177a0 <async_forward_fast>
    1cfe:	83 c4 14             	add    $0x14,%esp
    1d01:	57                   	push   %edi
    1d02:	e8 19 69 01 00       	call   18620 <async_exchange_end>
    1d07:	c7 45 08 98 91 02 00 	movl   $0x29198,0x8(%ebp)
    1d0e:	83 c4 10             	add    $0x10,%esp
    1d11:	8d 65 f4             	lea    -0xc(%ebp),%esp
    1d14:	5b                   	pop    %ebx
    1d15:	5e                   	pop    %esi
    1d16:	5f                   	pop    %edi
    1d17:	5d                   	pop    %ebp
    1d18:	e9 33 70 00 00       	jmp    8d50 <fibril_mutex_unlock>
    1d1d:	8d 76 00             	lea    0x0(%esi),%esi
    1d20:	83 ec 0c             	sub    $0xc,%esp
    1d23:	68 98 91 02 00       	push   $0x29198
    1d28:	e8 23 70 00 00       	call   8d50 <fibril_mutex_unlock>
    1d2d:	89 75 08             	mov    %esi,0x8(%ebp)
    1d30:	c7 45 0c ff ff ff ff 	movl   $0xffffffff,0xc(%ebp)
    1d37:	83 c4 10             	add    $0x10,%esp
    1d3a:	8d 65 f4             	lea    -0xc(%ebp),%esp
    1d3d:	5b                   	pop    %ebx
    1d3e:	5e                   	pop    %esi
    1d3f:	5f                   	pop    %edi
    1d40:	5d                   	pop    %ebp
    1d41:	e9 9a 59 01 00       	jmp    176e0 <async_answer_0>
    1d46:	56                   	push   %esi
    1d47:	68 e9 00 00 00       	push   $0xe9
    1d4c:	68 ba 58 02 00       	push   $0x258ba
    1d51:	68 60 58 02 00       	push   $0x25860
    1d56:	e8 15 d9 01 00       	call   1f670 <assert_abort>
    1d5b:	90                   	nop
    1d5c:	8d 74 26 00          	lea    0x0(%esi,%eiz,1),%esi

00001d60 <loc_connection_supplier>:
    1d60:	55                   	push   %ebp
    1d61:	89 e5                	mov    %esp,%ebp
    1d63:	57                   	push   %edi
    1d64:	56                   	push   %esi
    1d65:	53                   	push   %ebx
    1d66:	83 ec 64             	sub    $0x64,%esp
    1d69:	8b 45 08             	mov    0x8(%ebp),%eax
    1d6c:	6a 00                	push   $0x0
    1d6e:	50                   	push   %eax
    1d6f:	e8 6c 59 01 00       	call   176e0 <async_answer_0>
    1d74:	58                   	pop    %eax
    1d75:	8d 45 c4             	lea    -0x3c(%ebp),%eax
    1d78:	5a                   	pop    %edx
    1d79:	6a 00                	push   $0x0
    1d7b:	50                   	push   %eax
    1d7c:	e8 df 40 01 00       	call   15e60 <async_get_call_timeout>
    1d81:	83 c4 10             	add    $0x10,%esp
    1d84:	89 c3                	mov    %eax,%ebx
    1d86:	81 7d c4 00 04 00 00 	cmpl   $0x400,-0x3c(%ebp)
    1d8d:	0f 85 e4 07 00 00    	jne    2577 <loc_connection_supplier+0x817>
    1d93:	83 ec 0c             	sub    $0xc,%esp
    1d96:	6a 28                	push   $0x28
    1d98:	e8 f3 16 01 00       	call   13490 <malloc>
    1d9d:	83 c4 10             	add    $0x10,%esp
    1da0:	89 45 b4             	mov    %eax,-0x4c(%ebp)
    1da3:	85 c0                	test   %eax,%eax
    1da5:	0f 84 81 08 00 00    	je     262c <loc_connection_supplier+0x8cc>
    1dab:	83 c0 14             	add    $0x14,%eax
    1dae:	51                   	push   %ecx
    1daf:	51                   	push   %ecx
    1db0:	6a 00                	push   $0x0
    1db2:	6a 00                	push   $0x0
    1db4:	68 ff 00 00 00       	push   $0xff
    1db9:	6a 00                	push   $0x0
    1dbb:	6a 01                	push   $0x1
    1dbd:	50                   	push   %eax
    1dbe:	e8 8d 75 01 00       	call   19350 <async_data_write_accept>
    1dc3:	83 c4 20             	add    $0x20,%esp
    1dc6:	85 c0                	test   %eax,%eax
    1dc8:	0f 85 df 07 00 00    	jne    25ad <loc_connection_supplier+0x84d>
    1dce:	83 ec 0c             	sub    $0xc,%esp
    1dd1:	6a 01                	push   $0x1
    1dd3:	e8 e8 7a 01 00       	call   198c0 <async_callback_receive>
    1dd8:	8b 4d b4             	mov    -0x4c(%ebp),%ecx
    1ddb:	83 c4 10             	add    $0x10,%esp
    1dde:	85 c0                	test   %eax,%eax
    1de0:	89 41 10             	mov    %eax,0x10(%ecx)
    1de3:	0f 84 1b 08 00 00    	je     2604 <loc_connection_supplier+0x8a4>
    1de9:	83 ec 0c             	sub    $0xc,%esp
    1dec:	89 cf                	mov    %ecx,%edi
    1dee:	89 c8                	mov    %ecx,%eax
    1df0:	83 c0 18             	add    $0x18,%eax
    1df3:	50                   	push   %eax
    1df4:	89 45 ac             	mov    %eax,-0x54(%ebp)
    1df7:	e8 b4 6d 00 00       	call   8bb0 <fibril_mutex_initialize>
    1dfc:	8d 4f 08             	lea    0x8(%edi),%ecx
    1dff:	89 4f 08             	mov    %ecx,0x8(%edi)
    1e02:	89 4f 0c             	mov    %ecx,0xc(%edi)
    1e05:	c7 07 00 00 00 00    	movl   $0x0,(%edi)
    1e0b:	c7 47 04 00 00 00 00 	movl   $0x0,0x4(%edi)
    1e12:	89 4d a8             	mov    %ecx,-0x58(%ebp)
    1e15:	c7 04 24 80 91 02 00 	movl   $0x29180,(%esp)
    1e1c:	e8 af 6d 00 00       	call   8bd0 <fibril_mutex_lock>
    1e21:	a1 a8 91 02 00       	mov    0x291a8,%eax
    1e26:	89 07                	mov    %eax,(%edi)
    1e28:	c7 47 04 a8 91 02 00 	movl   $0x291a8,0x4(%edi)
    1e2f:	89 78 04             	mov    %edi,0x4(%eax)
    1e32:	89 3d a8 91 02 00    	mov    %edi,0x291a8
    1e38:	c7 04 24 80 91 02 00 	movl   $0x29180,(%esp)
    1e3f:	e8 0c 6f 00 00       	call   8d50 <fibril_mutex_unlock>
    1e44:	58                   	pop    %eax
    1e45:	5a                   	pop    %edx
    1e46:	6a 00                	push   $0x0
    1e48:	53                   	push   %ebx
    1e49:	e8 92 58 01 00       	call   176e0 <async_answer_0>
    1e4e:	83 c4 10             	add    $0x10,%esp
    1e51:	8d b4 26 00 00 00 00 	lea    0x0(%esi,%eiz,1),%esi
    1e58:	50                   	push   %eax
    1e59:	50                   	push   %eax
    1e5a:	8d 45 c4             	lea    -0x3c(%ebp),%eax
    1e5d:	6a 00                	push   $0x0
    1e5f:	50                   	push   %eax
    1e60:	e8 fb 3f 01 00       	call   15e60 <async_get_call_timeout>
    1e65:	89 c3                	mov    %eax,%ebx
    1e67:	8b 45 c4             	mov    -0x3c(%ebp),%eax
    1e6a:	83 c4 10             	add    $0x10,%esp
    1e6d:	85 c0                	test   %eax,%eax
    1e6f:	0f 84 fd 02 00 00    	je     2172 <loc_connection_supplier+0x412>
    1e75:	2d 01 04 00 00       	sub    $0x401,%eax
    1e7a:	83 f8 07             	cmp    $0x7,%eax
    1e7d:	0f 87 dd 02 00 00    	ja     2160 <loc_connection_supplier+0x400>
    1e83:	ff 24 85 d8 59 02 00 	jmp    *0x259d8(,%eax,4)
    1e8a:	8d b6 00 00 00 00    	lea    0x0(%esi),%esi
    1e90:	8d 55 c8             	lea    -0x38(%ebp),%edx
    1e93:	89 d8                	mov    %ebx,%eax
    1e95:	e8 f6 f7 ff ff       	call   1690 <loc_namespace_get_id.isra.10>
    1e9a:	eb bc                	jmp    1e58 <loc_connection_supplier+0xf8>
    1e9c:	8d 74 26 00          	lea    0x0(%esi,%eiz,1),%esi
    1ea0:	8d 55 c8             	lea    -0x38(%ebp),%edx
    1ea3:	89 d8                	mov    %ebx,%eax
    1ea5:	e8 26 f9 ff ff       	call   17d0 <loc_service_get_id.isra.11>
    1eaa:	eb ac                	jmp    1e58 <loc_connection_supplier+0xf8>
    1eac:	8d 74 26 00          	lea    0x0(%esi,%eiz,1),%esi
    1eb0:	83 ec 0c             	sub    $0xc,%esp
    1eb3:	68 98 91 02 00       	push   $0x29198
    1eb8:	e8 13 6d 00 00       	call   8bd0 <fibril_mutex_lock>
    1ebd:	c7 04 24 98 91 02 00 	movl   $0x29198,(%esp)
    1ec4:	8b 7d c8             	mov    -0x38(%ebp),%edi
    1ec7:	e8 34 70 00 00       	call   8f00 <fibril_mutex_is_locked>
    1ecc:	83 c4 10             	add    $0x10,%esp
    1ecf:	84 c0                	test   %al,%al
    1ed1:	0f 84 67 07 00 00    	je     263e <loc_connection_supplier+0x8de>
    1ed7:	8b 35 bc 91 02 00    	mov    0x291bc,%esi
    1edd:	81 fe b8 91 02 00    	cmp    $0x291b8,%esi
    1ee3:	75 1a                	jne    1eff <loc_connection_supplier+0x19f>
    1ee5:	e9 b6 06 00 00       	jmp    25a0 <loc_connection_supplier+0x840>
    1eea:	8d b6 00 00 00 00    	lea    0x0(%esi),%esi
    1ef0:	8b 76 04             	mov    0x4(%esi),%esi
    1ef3:	81 fe b8 91 02 00    	cmp    $0x291b8,%esi
    1ef9:	0f 84 a1 06 00 00    	je     25a0 <loc_connection_supplier+0x840>
    1eff:	3b 7e 20             	cmp    0x20(%esi),%edi
    1f02:	75 ec                	jne    1ef0 <loc_connection_supplier+0x190>
    1f04:	83 ec 0c             	sub    $0xc,%esp
    1f07:	68 60 94 02 00       	push   $0x29460
    1f0c:	e8 bf 6c 00 00       	call   8bd0 <fibril_mutex_lock>
    1f11:	89 f0                	mov    %esi,%eax
    1f13:	e8 78 fa ff ff       	call   1990 <loc_service_unregister_core>
    1f18:	c7 04 24 60 94 02 00 	movl   $0x29460,(%esp)
    1f1f:	e8 2c 6e 00 00       	call   8d50 <fibril_mutex_unlock>
    1f24:	c7 04 24 98 91 02 00 	movl   $0x29198,(%esp)
    1f2b:	e8 20 6e 00 00       	call   8d50 <fibril_mutex_unlock>
    1f30:	59                   	pop    %ecx
    1f31:	5e                   	pop    %esi
    1f32:	6a 00                	push   $0x0
    1f34:	53                   	push   %ebx
    1f35:	e8 a6 57 01 00       	call   176e0 <async_answer_0>
    1f3a:	c7 04 24 48 91 02 00 	movl   $0x29148,(%esp)
    1f41:	e8 8a 6c 00 00       	call   8bd0 <fibril_mutex_lock>
    1f46:	8b 1d 44 91 02 00    	mov    0x29144,%ebx
    1f4c:	83 c4 10             	add    $0x10,%esp
    1f4f:	81 fb 40 91 02 00    	cmp    $0x29140,%ebx
    1f55:	74 32                	je     1f89 <loc_connection_supplier+0x229>
    1f57:	90                   	nop
    1f58:	83 ec 0c             	sub    $0xc,%esp
    1f5b:	8b 43 08             	mov    0x8(%ebx),%eax
    1f5e:	50                   	push   %eax
    1f5f:	e8 cc 63 01 00       	call   18330 <async_exchange_begin>
    1f64:	89 c6                	mov    %eax,%esi
    1f66:	58                   	pop    %eax
    1f67:	5a                   	pop    %edx
    1f68:	68 00 04 00 00       	push   $0x400
    1f6d:	56                   	push   %esi
    1f6e:	e8 1d 56 01 00       	call   17590 <async_msg_0>
    1f73:	89 34 24             	mov    %esi,(%esp)
    1f76:	e8 a5 66 01 00       	call   18620 <async_exchange_end>
    1f7b:	8b 5b 04             	mov    0x4(%ebx),%ebx
    1f7e:	83 c4 10             	add    $0x10,%esp
    1f81:	81 fb 40 91 02 00    	cmp    $0x29140,%ebx
    1f87:	75 cf                	jne    1f58 <loc_connection_supplier+0x1f8>
    1f89:	83 ec 0c             	sub    $0xc,%esp
    1f8c:	68 48 91 02 00       	push   $0x29148
    1f91:	e8 ba 6d 00 00       	call   8d50 <fibril_mutex_unlock>
    1f96:	83 c4 10             	add    $0x10,%esp
    1f99:	e9 ba fe ff ff       	jmp    1e58 <loc_connection_supplier+0xf8>
    1f9e:	66 90                	xchg   %ax,%ax
    1fa0:	83 ec 0c             	sub    $0xc,%esp
    1fa3:	8b 55 c8             	mov    -0x38(%ebp),%edx
    1fa6:	8b 75 cc             	mov    -0x34(%ebp),%esi
    1fa9:	89 55 b0             	mov    %edx,-0x50(%ebp)
    1fac:	68 98 91 02 00       	push   $0x29198
    1fb1:	e8 1a 6c 00 00       	call   8bd0 <fibril_mutex_lock>
    1fb6:	c7 04 24 60 94 02 00 	movl   $0x29460,(%esp)
    1fbd:	e8 0e 6c 00 00       	call   8bd0 <fibril_mutex_lock>
    1fc2:	5f                   	pop    %edi
    1fc3:	58                   	pop    %eax
    1fc4:	56                   	push   %esi
    1fc5:	68 60 94 02 00       	push   $0x29460
    1fca:	e8 01 f4 ff ff       	call   13d0 <category_get>
    1fcf:	c7 04 24 98 91 02 00 	movl   $0x29198,(%esp)
    1fd6:	89 c7                	mov    %eax,%edi
    1fd8:	e8 23 6f 00 00       	call   8f00 <fibril_mutex_is_locked>
    1fdd:	83 c4 10             	add    $0x10,%esp
    1fe0:	8b 55 b0             	mov    -0x50(%ebp),%edx
    1fe3:	84 c0                	test   %al,%al
    1fe5:	0f 84 53 06 00 00    	je     263e <loc_connection_supplier+0x8de>
    1feb:	8b 35 bc 91 02 00    	mov    0x291bc,%esi
    1ff1:	81 fe b8 91 02 00    	cmp    $0x291b8,%esi
    1ff7:	75 16                	jne    200f <loc_connection_supplier+0x2af>
    1ff9:	e9 ca 02 00 00       	jmp    22c8 <loc_connection_supplier+0x568>
    1ffe:	66 90                	xchg   %ax,%ax
    2000:	8b 76 04             	mov    0x4(%esi),%esi
    2003:	81 fe b8 91 02 00    	cmp    $0x291b8,%esi
    2009:	0f 84 b9 02 00 00    	je     22c8 <loc_connection_supplier+0x568>
    200f:	3b 56 20             	cmp    0x20(%esi),%edx
    2012:	75 ec                	jne    2000 <loc_connection_supplier+0x2a0>
    2014:	85 ff                	test   %edi,%edi
    2016:	0f 84 ac 02 00 00    	je     22c8 <loc_connection_supplier+0x568>
    201c:	83 ec 0c             	sub    $0xc,%esp
    201f:	57                   	push   %edi
    2020:	e8 ab 6b 00 00       	call   8bd0 <fibril_mutex_lock>
    2025:	59                   	pop    %ecx
    2026:	58                   	pop    %eax
    2027:	56                   	push   %esi
    2028:	57                   	push   %edi
    2029:	e8 22 f2 ff ff       	call   1250 <category_add_service>
    202e:	89 3c 24             	mov    %edi,(%esp)
    2031:	89 c6                	mov    %eax,%esi
    2033:	e8 18 6d 00 00       	call   8d50 <fibril_mutex_unlock>
    2038:	c7 04 24 60 94 02 00 	movl   $0x29460,(%esp)
    203f:	e8 0c 6d 00 00       	call   8d50 <fibril_mutex_unlock>
    2044:	c7 04 24 98 91 02 00 	movl   $0x29198,(%esp)
    204b:	e8 00 6d 00 00       	call   8d50 <fibril_mutex_unlock>
    2050:	58                   	pop    %eax
    2051:	5a                   	pop    %edx
    2052:	56                   	push   %esi
    2053:	53                   	push   %ebx
    2054:	e8 87 56 01 00       	call   176e0 <async_answer_0>
    2059:	c7 04 24 48 91 02 00 	movl   $0x29148,(%esp)
    2060:	e8 6b 6b 00 00       	call   8bd0 <fibril_mutex_lock>
    2065:	8b 1d 44 91 02 00    	mov    0x29144,%ebx
    206b:	83 c4 10             	add    $0x10,%esp
    206e:	81 fb 40 91 02 00    	cmp    $0x29140,%ebx
    2074:	0f 84 0f ff ff ff    	je     1f89 <loc_connection_supplier+0x229>
    207a:	8d b6 00 00 00 00    	lea    0x0(%esi),%esi
    2080:	83 ec 0c             	sub    $0xc,%esp
    2083:	8b 43 08             	mov    0x8(%ebx),%eax
    2086:	50                   	push   %eax
    2087:	e8 a4 62 01 00       	call   18330 <async_exchange_begin>
    208c:	89 c6                	mov    %eax,%esi
    208e:	58                   	pop    %eax
    208f:	5a                   	pop    %edx
    2090:	68 00 04 00 00       	push   $0x400
    2095:	56                   	push   %esi
    2096:	e8 f5 54 01 00       	call   17590 <async_msg_0>
    209b:	89 34 24             	mov    %esi,(%esp)
    209e:	e8 7d 65 01 00       	call   18620 <async_exchange_end>
    20a3:	8b 5b 04             	mov    0x4(%ebx),%ebx
    20a6:	83 c4 10             	add    $0x10,%esp
    20a9:	81 fb 40 91 02 00    	cmp    $0x29140,%ebx
    20af:	75 cf                	jne    2080 <loc_connection_supplier+0x320>
    20b1:	83 ec 0c             	sub    $0xc,%esp
    20b4:	68 48 91 02 00       	push   $0x29148
    20b9:	e8 92 6c 00 00       	call   8d50 <fibril_mutex_unlock>
    20be:	83 c4 10             	add    $0x10,%esp
    20c1:	e9 92 fd ff ff       	jmp    1e58 <loc_connection_supplier+0xf8>
    20c6:	66 90                	xchg   %ax,%ax
    20c8:	50                   	push   %eax
    20c9:	50                   	push   %eax
    20ca:	6a 00                	push   $0x0
    20cc:	53                   	push   %ebx
    20cd:	e8 0e 56 01 00       	call   176e0 <async_answer_0>
    20d2:	83 c4 10             	add    $0x10,%esp
    20d5:	e9 7e fd ff ff       	jmp    1e58 <loc_connection_supplier+0xf8>
    20da:	8d b6 00 00 00 00    	lea    0x0(%esi),%esi
    20e0:	83 ec 0c             	sub    $0xc,%esp
    20e3:	6a 30                	push   $0x30
    20e5:	e8 a6 13 01 00       	call   13490 <malloc>
    20ea:	83 c4 10             	add    $0x10,%esp
    20ed:	89 45 b0             	mov    %eax,-0x50(%ebp)
    20f0:	85 c0                	test   %eax,%eax
    20f2:	0f 84 94 04 00 00    	je     258c <loc_connection_supplier+0x82c>
    20f8:	50                   	push   %eax
    20f9:	50                   	push   %eax
    20fa:	8d 45 bc             	lea    -0x44(%ebp),%eax
    20fd:	6a 00                	push   $0x0
    20ff:	6a 00                	push   $0x0
    2101:	68 ff 00 00 00       	push   $0xff
    2106:	6a 00                	push   $0x0
    2108:	6a 01                	push   $0x1
    210a:	50                   	push   %eax
    210b:	e8 40 72 01 00       	call   19350 <async_data_write_accept>
    2110:	83 c4 20             	add    $0x20,%esp
    2113:	89 45 a4             	mov    %eax,-0x5c(%ebp)
    2116:	85 c0                	test   %eax,%eax
    2118:	0f 85 d5 01 00 00    	jne    22f3 <loc_connection_supplier+0x593>
    211e:	8b 7d b0             	mov    -0x50(%ebp),%edi
    2121:	8d 55 c0             	lea    -0x40(%ebp),%edx
    2124:	8b 45 bc             	mov    -0x44(%ebp),%eax
    2127:	8d 4f 28             	lea    0x28(%edi),%ecx
    212a:	e8 31 f4 ff ff       	call   1560 <loc_fqsn_split>
    212f:	84 c0                	test   %al,%al
    2131:	0f 85 dc 01 00 00    	jne    2313 <loc_connection_supplier+0x5b3>
    2137:	83 ec 0c             	sub    $0xc,%esp
    213a:	8b 45 bc             	mov    -0x44(%ebp),%eax
    213d:	50                   	push   %eax
    213e:	e8 fd 14 01 00       	call   13640 <free>
    2143:	89 3c 24             	mov    %edi,(%esp)
    2146:	e8 f5 14 01 00       	call   13640 <free>
    214b:	58                   	pop    %eax
    214c:	5a                   	pop    %edx
    214d:	6a f2                	push   $0xfffffff2
    214f:	53                   	push   %ebx
    2150:	e8 8b 55 01 00       	call   176e0 <async_answer_0>
    2155:	83 c4 10             	add    $0x10,%esp
    2158:	e9 fb fc ff ff       	jmp    1e58 <loc_connection_supplier+0xf8>
    215d:	8d 76 00             	lea    0x0(%esi),%esi
    2160:	50                   	push   %eax
    2161:	50                   	push   %eax
    2162:	6a ff                	push   $0xffffffff
    2164:	53                   	push   %ebx
    2165:	e8 76 55 01 00       	call   176e0 <async_answer_0>
    216a:	83 c4 10             	add    $0x10,%esp
    216d:	e9 e6 fc ff ff       	jmp    1e58 <loc_connection_supplier+0xf8>
    2172:	83 ec 0c             	sub    $0xc,%esp
    2175:	68 80 91 02 00       	push   $0x29180
    217a:	e8 51 6a 00 00       	call   8bd0 <fibril_mutex_lock>
    217f:	8b 45 b4             	mov    -0x4c(%ebp),%eax
    2182:	83 c4 10             	add    $0x10,%esp
    2185:	8b 40 10             	mov    0x10(%eax),%eax
    2188:	85 c0                	test   %eax,%eax
    218a:	74 0c                	je     2198 <loc_connection_supplier+0x438>
    218c:	83 ec 0c             	sub    $0xc,%esp
    218f:	50                   	push   %eax
    2190:	e8 9b 60 01 00       	call   18230 <async_hangup>
    2195:	83 c4 10             	add    $0x10,%esp
    2198:	8b 4d b4             	mov    -0x4c(%ebp),%ecx
    219b:	8b 11                	mov    (%ecx),%edx
    219d:	85 d2                	test   %edx,%edx
    219f:	74 0e                	je     21af <loc_connection_supplier+0x44f>
    21a1:	8b 41 04             	mov    0x4(%ecx),%eax
    21a4:	85 c0                	test   %eax,%eax
    21a6:	74 07                	je     21af <loc_connection_supplier+0x44f>
    21a8:	89 10                	mov    %edx,(%eax)
    21aa:	8b 11                	mov    (%ecx),%edx
    21ac:	89 42 04             	mov    %eax,0x4(%edx)
    21af:	8b 7d b4             	mov    -0x4c(%ebp),%edi
    21b2:	83 ec 0c             	sub    $0xc,%esp
    21b5:	c7 07 00 00 00 00    	movl   $0x0,(%edi)
    21bb:	c7 47 04 00 00 00 00 	movl   $0x0,0x4(%edi)
    21c2:	68 98 91 02 00       	push   $0x29198
    21c7:	e8 04 6a 00 00       	call   8bd0 <fibril_mutex_lock>
    21cc:	58                   	pop    %eax
    21cd:	8b 45 ac             	mov    -0x54(%ebp),%eax
    21d0:	50                   	push   %eax
    21d1:	e8 fa 69 00 00       	call   8bd0 <fibril_mutex_lock>
    21d6:	c7 04 24 60 94 02 00 	movl   $0x29460,(%esp)
    21dd:	e8 ee 69 00 00       	call   8bd0 <fibril_mutex_lock>
    21e2:	8b 47 0c             	mov    0xc(%edi),%eax
    21e5:	83 c4 10             	add    $0x10,%esp
    21e8:	39 45 a8             	cmp    %eax,-0x58(%ebp)
    21eb:	74 1a                	je     2207 <loc_connection_supplier+0x4a7>
    21ed:	8b 5d b4             	mov    -0x4c(%ebp),%ebx
    21f0:	8b 75 a8             	mov    -0x58(%ebp),%esi
    21f3:	90                   	nop
    21f4:	8d 74 26 00          	lea    0x0(%esi,%eiz,1),%esi
    21f8:	83 e8 08             	sub    $0x8,%eax
    21fb:	e8 90 f7 ff ff       	call   1990 <loc_service_unregister_core>
    2200:	8b 43 0c             	mov    0xc(%ebx),%eax
    2203:	39 c6                	cmp    %eax,%esi
    2205:	75 f1                	jne    21f8 <loc_connection_supplier+0x498>
    2207:	83 ec 0c             	sub    $0xc,%esp
    220a:	68 60 94 02 00       	push   $0x29460
    220f:	e8 3c 6b 00 00       	call   8d50 <fibril_mutex_unlock>
    2214:	8b 7d ac             	mov    -0x54(%ebp),%edi
    2217:	5e                   	pop    %esi
    2218:	57                   	push   %edi
    2219:	e8 32 6b 00 00       	call   8d50 <fibril_mutex_unlock>
    221e:	c7 04 24 98 91 02 00 	movl   $0x29198,(%esp)
    2225:	e8 26 6b 00 00       	call   8d50 <fibril_mutex_unlock>
    222a:	c7 04 24 80 91 02 00 	movl   $0x29180,(%esp)
    2231:	e8 1a 6b 00 00       	call   8d50 <fibril_mutex_unlock>
    2236:	8b 45 b4             	mov    -0x4c(%ebp),%eax
    2239:	83 c4 10             	add    $0x10,%esp
    223c:	8b 40 14             	mov    0x14(%eax),%eax
    223f:	85 c0                	test   %eax,%eax
    2241:	74 0c                	je     224f <loc_connection_supplier+0x4ef>
    2243:	83 ec 0c             	sub    $0xc,%esp
    2246:	50                   	push   %eax
    2247:	e8 f4 13 01 00       	call   13640 <free>
    224c:	83 c4 10             	add    $0x10,%esp
    224f:	83 ec 0c             	sub    $0xc,%esp
    2252:	8b 5d b4             	mov    -0x4c(%ebp),%ebx
    2255:	53                   	push   %ebx
    2256:	e8 e5 13 01 00       	call   13640 <free>
    225b:	c7 04 24 48 91 02 00 	movl   $0x29148,(%esp)
    2262:	e8 69 69 00 00       	call   8bd0 <fibril_mutex_lock>
    2267:	8b 1d 44 91 02 00    	mov    0x29144,%ebx
    226d:	83 c4 10             	add    $0x10,%esp
    2270:	81 fb 40 91 02 00    	cmp    $0x29140,%ebx
    2276:	74 31                	je     22a9 <loc_connection_supplier+0x549>
    2278:	83 ec 0c             	sub    $0xc,%esp
    227b:	8b 43 08             	mov    0x8(%ebx),%eax
    227e:	50                   	push   %eax
    227f:	e8 ac 60 01 00       	call   18330 <async_exchange_begin>
    2284:	5a                   	pop    %edx
    2285:	89 c6                	mov    %eax,%esi
    2287:	59                   	pop    %ecx
    2288:	68 00 04 00 00       	push   $0x400
    228d:	50                   	push   %eax
    228e:	e8 fd 52 01 00       	call   17590 <async_msg_0>
    2293:	89 34 24             	mov    %esi,(%esp)
    2296:	e8 85 63 01 00       	call   18620 <async_exchange_end>
    229b:	8b 5b 04             	mov    0x4(%ebx),%ebx
    229e:	83 c4 10             	add    $0x10,%esp
    22a1:	81 fb 40 91 02 00    	cmp    $0x29140,%ebx
    22a7:	75 cf                	jne    2278 <loc_connection_supplier+0x518>
    22a9:	83 ec 0c             	sub    $0xc,%esp
    22ac:	68 48 91 02 00       	push   $0x29148
    22b1:	e8 9a 6a 00 00       	call   8d50 <fibril_mutex_unlock>
    22b6:	83 c4 10             	add    $0x10,%esp
    22b9:	8d 65 f4             	lea    -0xc(%ebp),%esp
    22bc:	5b                   	pop    %ebx
    22bd:	5e                   	pop    %esi
    22be:	5f                   	pop    %edi
    22bf:	5d                   	pop    %ebp
    22c0:	c3                   	ret    
    22c1:	8d b4 26 00 00 00 00 	lea    0x0(%esi,%eiz,1),%esi
    22c8:	83 ec 0c             	sub    $0xc,%esp
    22cb:	68 60 94 02 00       	push   $0x29460
    22d0:	e8 7b 6a 00 00       	call   8d50 <fibril_mutex_unlock>
    22d5:	c7 04 24 98 91 02 00 	movl   $0x29198,(%esp)
    22dc:	e8 6f 6a 00 00       	call   8d50 <fibril_mutex_unlock>
    22e1:	5f                   	pop    %edi
    22e2:	58                   	pop    %eax
    22e3:	6a ff                	push   $0xffffffff
    22e5:	53                   	push   %ebx
    22e6:	e8 f5 53 01 00       	call   176e0 <async_answer_0>
    22eb:	83 c4 10             	add    $0x10,%esp
    22ee:	e9 65 fb ff ff       	jmp    1e58 <loc_connection_supplier+0xf8>
    22f3:	83 ec 0c             	sub    $0xc,%esp
    22f6:	8b 4d b0             	mov    -0x50(%ebp),%ecx
    22f9:	51                   	push   %ecx
    22fa:	e8 41 13 01 00       	call   13640 <free>
    22ff:	8b 45 a4             	mov    -0x5c(%ebp),%eax
    2302:	5e                   	pop    %esi
    2303:	5f                   	pop    %edi
    2304:	50                   	push   %eax
    2305:	53                   	push   %ebx
    2306:	e8 d5 53 01 00       	call   176e0 <async_answer_0>
    230b:	83 c4 10             	add    $0x10,%esp
    230e:	e9 45 fb ff ff       	jmp    1e58 <loc_connection_supplier+0xf8>
    2313:	83 ec 0c             	sub    $0xc,%esp
    2316:	8b 4d bc             	mov    -0x44(%ebp),%ecx
    2319:	51                   	push   %ecx
    231a:	e8 21 13 01 00       	call   13640 <free>
    231f:	c7 04 24 98 91 02 00 	movl   $0x29198,(%esp)
    2326:	e8 a5 68 00 00       	call   8bd0 <fibril_mutex_lock>
    232b:	8b 45 c0             	mov    -0x40(%ebp),%eax
    232e:	e8 0d f8 ff ff       	call   1b40 <loc_namespace_create>
    2333:	5e                   	pop    %esi
    2334:	89 c7                	mov    %eax,%edi
    2336:	89 45 a0             	mov    %eax,-0x60(%ebp)
    2339:	8b 45 c0             	mov    -0x40(%ebp),%eax
    233c:	50                   	push   %eax
    233d:	e8 fe 12 01 00       	call   13640 <free>
    2342:	83 c4 10             	add    $0x10,%esp
    2345:	85 ff                	test   %edi,%edi
    2347:	0f 84 83 02 00 00    	je     25d0 <loc_connection_supplier+0x870>
    234d:	8b 4d b0             	mov    -0x50(%ebp),%ecx
    2350:	83 ec 0c             	sub    $0xc,%esp
    2353:	89 c8                	mov    %ecx,%eax
    2355:	83 c0 18             	add    $0x18,%eax
    2358:	c7 01 00 00 00 00    	movl   $0x0,(%ecx)
    235e:	89 41 18             	mov    %eax,0x18(%ecx)
    2361:	89 41 1c             	mov    %eax,0x1c(%ecx)
    2364:	8b 41 28             	mov    0x28(%ecx),%eax
    2367:	c7 41 04 00 00 00 00 	movl   $0x0,0x4(%ecx)
    236e:	89 45 9c             	mov    %eax,-0x64(%ebp)
    2371:	8b 45 a0             	mov    -0x60(%ebp),%eax
    2374:	c7 41 08 00 00 00 00 	movl   $0x0,0x8(%ecx)
    237b:	c7 41 0c 00 00 00 00 	movl   $0x0,0xc(%ecx)
    2382:	8b 70 0c             	mov    0xc(%eax),%esi
    2385:	68 98 91 02 00       	push   $0x29198
    238a:	e8 71 6b 00 00       	call   8f00 <fibril_mutex_is_locked>
    238f:	83 c4 10             	add    $0x10,%esp
    2392:	84 c0                	test   %al,%al
    2394:	0f 84 e3 02 00 00    	je     267d <loc_connection_supplier+0x91d>
    239a:	8b 3d bc 91 02 00    	mov    0x291bc,%edi
    23a0:	81 ff b8 91 02 00    	cmp    $0x291b8,%edi
    23a6:	0f 84 f7 00 00 00    	je     24a3 <loc_connection_supplier+0x743>
    23ac:	89 5d a4             	mov    %ebx,-0x5c(%ebp)
    23af:	89 fb                	mov    %edi,%ebx
    23b1:	8b 7d 9c             	mov    -0x64(%ebp),%edi
    23b4:	eb 11                	jmp    23c7 <loc_connection_supplier+0x667>
    23b6:	66 90                	xchg   %ax,%ax
    23b8:	8b 5b 04             	mov    0x4(%ebx),%ebx
    23bb:	81 fb b8 91 02 00    	cmp    $0x291b8,%ebx
    23c1:	0f 84 d9 00 00 00    	je     24a0 <loc_connection_supplier+0x740>
    23c7:	50                   	push   %eax
    23c8:	50                   	push   %eax
    23c9:	8b 43 24             	mov    0x24(%ebx),%eax
    23cc:	56                   	push   %esi
    23cd:	8b 50 0c             	mov    0xc(%eax),%edx
    23d0:	52                   	push   %edx
    23d1:	e8 1a 21 00 00       	call   44f0 <str_cmp>
    23d6:	83 c4 10             	add    $0x10,%esp
    23d9:	85 c0                	test   %eax,%eax
    23db:	75 db                	jne    23b8 <loc_connection_supplier+0x658>
    23dd:	50                   	push   %eax
    23de:	50                   	push   %eax
    23df:	57                   	push   %edi
    23e0:	8b 43 28             	mov    0x28(%ebx),%eax
    23e3:	50                   	push   %eax
    23e4:	e8 07 21 00 00       	call   44f0 <str_cmp>
    23e9:	83 c4 10             	add    $0x10,%esp
    23ec:	85 c0                	test   %eax,%eax
    23ee:	75 c8                	jne    23b8 <loc_connection_supplier+0x658>
    23f0:	8b 45 b0             	mov    -0x50(%ebp),%eax
    23f3:	8b 5d a4             	mov    -0x5c(%ebp),%ebx
    23f6:	8b 40 28             	mov    0x28(%eax),%eax
    23f9:	50                   	push   %eax
    23fa:	8b 45 a0             	mov    -0x60(%ebp),%eax
    23fd:	8b 40 0c             	mov    0xc(%eax),%eax
    2400:	50                   	push   %eax
    2401:	68 c3 58 02 00       	push   $0x258c3
    2406:	68 b0 59 02 00       	push   $0x259b0
    240b:	e8 a0 c0 00 00       	call   e4b0 <printf>
    2410:	c7 04 24 98 91 02 00 	movl   $0x29198,(%esp)
    2417:	e8 e4 6a 00 00       	call   8f00 <fibril_mutex_is_locked>
    241c:	83 c4 10             	add    $0x10,%esp
    241f:	84 c0                	test   %al,%al
    2421:	0f 84 2c 02 00 00    	je     2653 <loc_connection_supplier+0x8f3>
    2427:	8b 4d a0             	mov    -0x60(%ebp),%ecx
    242a:	8b 79 10             	mov    0x10(%ecx),%edi
    242d:	85 ff                	test   %edi,%edi
    242f:	75 3b                	jne    246c <loc_connection_supplier+0x70c>
    2431:	8b 11                	mov    (%ecx),%edx
    2433:	85 d2                	test   %edx,%edx
    2435:	74 0e                	je     2445 <loc_connection_supplier+0x6e5>
    2437:	8b 41 04             	mov    0x4(%ecx),%eax
    243a:	85 c0                	test   %eax,%eax
    243c:	74 07                	je     2445 <loc_connection_supplier+0x6e5>
    243e:	89 10                	mov    %edx,(%eax)
    2440:	8b 11                	mov    (%ecx),%edx
    2442:	89 42 04             	mov    %eax,0x4(%edx)
    2445:	8b 7d a0             	mov    -0x60(%ebp),%edi
    2448:	83 ec 0c             	sub    $0xc,%esp
    244b:	8b 77 0c             	mov    0xc(%edi),%esi
    244e:	c7 07 00 00 00 00    	movl   $0x0,(%edi)
    2454:	c7 47 04 00 00 00 00 	movl   $0x0,0x4(%edi)
    245b:	56                   	push   %esi
    245c:	e8 df 11 01 00       	call   13640 <free>
    2461:	89 3c 24             	mov    %edi,(%esp)
    2464:	e8 d7 11 01 00       	call   13640 <free>
    2469:	83 c4 10             	add    $0x10,%esp
    246c:	83 ec 0c             	sub    $0xc,%esp
    246f:	68 98 91 02 00       	push   $0x29198
    2474:	e8 d7 68 00 00       	call   8d50 <fibril_mutex_unlock>
    2479:	8b 7d b0             	mov    -0x50(%ebp),%edi
    247c:	58                   	pop    %eax
    247d:	8b 47 28             	mov    0x28(%edi),%eax
    2480:	50                   	push   %eax
    2481:	e8 ba 11 01 00       	call   13640 <free>
    2486:	89 3c 24             	mov    %edi,(%esp)
    2489:	e8 b2 11 01 00       	call   13640 <free>
    248e:	5a                   	pop    %edx
    248f:	59                   	pop    %ecx
    2490:	6a f7                	push   $0xfffffff7
    2492:	53                   	push   %ebx
    2493:	e8 48 52 01 00       	call   176e0 <async_answer_0>
    2498:	83 c4 10             	add    $0x10,%esp
    249b:	e9 b8 f9 ff ff       	jmp    1e58 <loc_connection_supplier+0xf8>
    24a0:	8b 5d a4             	mov    -0x5c(%ebp),%ebx
    24a3:	83 ec 0c             	sub    $0xc,%esp
    24a6:	68 70 91 02 00       	push   $0x29170
    24ab:	e8 20 67 00 00       	call   8bd0 <fibril_mutex_lock>
    24b0:	a1 80 98 02 00       	mov    0x29880,%eax
    24b5:	c7 04 24 70 91 02 00 	movl   $0x29170,(%esp)
    24bc:	40                   	inc    %eax
    24bd:	a3 80 98 02 00       	mov    %eax,0x29880
    24c2:	e8 89 68 00 00       	call   8d50 <fibril_mutex_unlock>
    24c7:	8b 4d b0             	mov    -0x50(%ebp),%ecx
    24ca:	a1 80 98 02 00       	mov    0x29880,%eax
    24cf:	89 41 20             	mov    %eax,0x20(%ecx)
    24d2:	c7 04 24 98 91 02 00 	movl   $0x29198,(%esp)
    24d9:	e8 22 6a 00 00       	call   8f00 <fibril_mutex_is_locked>
    24de:	83 c4 10             	add    $0x10,%esp
    24e1:	84 c0                	test   %al,%al
    24e3:	0f 84 7f 01 00 00    	je     2668 <loc_connection_supplier+0x908>
    24e9:	8b 55 a0             	mov    -0x60(%ebp),%edx
    24ec:	8b 7d b0             	mov    -0x50(%ebp),%edi
    24ef:	a1 b8 91 02 00       	mov    0x291b8,%eax
    24f4:	83 ec 0c             	sub    $0xc,%esp
    24f7:	8b 4a 10             	mov    0x10(%edx),%ecx
    24fa:	89 57 24             	mov    %edx,0x24(%edi)
    24fd:	41                   	inc    %ecx
    24fe:	89 3d b8 91 02 00    	mov    %edi,0x291b8
    2504:	89 4a 10             	mov    %ecx,0x10(%edx)
    2507:	8b 55 b4             	mov    -0x4c(%ebp),%edx
    250a:	89 57 2c             	mov    %edx,0x2c(%edi)
    250d:	89 07                	mov    %eax,(%edi)
    250f:	c7 47 04 b8 91 02 00 	movl   $0x291b8,0x4(%edi)
    2516:	89 78 04             	mov    %edi,0x4(%eax)
    2519:	8b 45 ac             	mov    -0x54(%ebp),%eax
    251c:	8d 77 08             	lea    0x8(%edi),%esi
    251f:	50                   	push   %eax
    2520:	e8 ab 66 00 00       	call   8bd0 <fibril_mutex_lock>
    2525:	8b 47 2c             	mov    0x2c(%edi),%eax
    2528:	8d 50 08             	lea    0x8(%eax),%edx
    252b:	83 c0 18             	add    $0x18,%eax
    252e:	89 57 0c             	mov    %edx,0xc(%edi)
    2531:	8b 50 f0             	mov    -0x10(%eax),%edx
    2534:	89 57 08             	mov    %edx,0x8(%edi)
    2537:	8b 50 f0             	mov    -0x10(%eax),%edx
    253a:	89 72 04             	mov    %esi,0x4(%edx)
    253d:	89 70 f0             	mov    %esi,-0x10(%eax)
    2540:	89 04 24             	mov    %eax,(%esp)
    2543:	e8 08 68 00 00       	call   8d50 <fibril_mutex_unlock>
    2548:	c7 04 24 90 91 02 00 	movl   $0x29190,(%esp)
    254f:	e8 bc 79 00 00       	call   9f10 <fibril_condvar_broadcast>
    2554:	c7 04 24 98 91 02 00 	movl   $0x29198,(%esp)
    255b:	e8 f0 67 00 00       	call   8d50 <fibril_mutex_unlock>
    2560:	83 c4 0c             	add    $0xc,%esp
    2563:	8b 47 20             	mov    0x20(%edi),%eax
    2566:	50                   	push   %eax
    2567:	6a 00                	push   $0x0
    2569:	53                   	push   %ebx
    256a:	e8 91 51 01 00       	call   17700 <async_answer_1>
    256f:	83 c4 10             	add    $0x10,%esp
    2572:	e9 e1 f8 ff ff       	jmp    1e58 <loc_connection_supplier+0xf8>
    2577:	57                   	push   %edi
    2578:	57                   	push   %edi
    2579:	6a fc                	push   $0xfffffffc
    257b:	50                   	push   %eax
    257c:	e8 5f 51 01 00       	call   176e0 <async_answer_0>
    2581:	83 c4 10             	add    $0x10,%esp
    2584:	8d 65 f4             	lea    -0xc(%ebp),%esp
    2587:	5b                   	pop    %ebx
    2588:	5e                   	pop    %esi
    2589:	5f                   	pop    %edi
    258a:	5d                   	pop    %ebp
    258b:	c3                   	ret    
    258c:	50                   	push   %eax
    258d:	50                   	push   %eax
    258e:	6a fe                	push   $0xfffffffe
    2590:	53                   	push   %ebx
    2591:	e8 4a 51 01 00       	call   176e0 <async_answer_0>
    2596:	83 c4 10             	add    $0x10,%esp
    2599:	e9 ba f8 ff ff       	jmp    1e58 <loc_connection_supplier+0xf8>
    259e:	66 90                	xchg   %ax,%ax
    25a0:	83 ec 0c             	sub    $0xc,%esp
    25a3:	68 98 91 02 00       	push   $0x29198
    25a8:	e9 2f fd ff ff       	jmp    22dc <loc_connection_supplier+0x57c>
    25ad:	83 ec 0c             	sub    $0xc,%esp
    25b0:	89 45 b0             	mov    %eax,-0x50(%ebp)
    25b3:	8b 45 b4             	mov    -0x4c(%ebp),%eax
    25b6:	50                   	push   %eax
    25b7:	e8 84 10 01 00       	call   13640 <free>
    25bc:	58                   	pop    %eax
    25bd:	8b 45 b0             	mov    -0x50(%ebp),%eax
    25c0:	5a                   	pop    %edx
    25c1:	50                   	push   %eax
    25c2:	53                   	push   %ebx
    25c3:	e8 18 51 01 00       	call   176e0 <async_answer_0>
    25c8:	83 c4 10             	add    $0x10,%esp
    25cb:	e9 e9 fc ff ff       	jmp    22b9 <loc_connection_supplier+0x559>
    25d0:	83 ec 0c             	sub    $0xc,%esp
    25d3:	68 98 91 02 00       	push   $0x29198
    25d8:	e8 73 67 00 00       	call   8d50 <fibril_mutex_unlock>
    25dd:	8b 7d b0             	mov    -0x50(%ebp),%edi
    25e0:	5e                   	pop    %esi
    25e1:	8b 47 28             	mov    0x28(%edi),%eax
    25e4:	50                   	push   %eax
    25e5:	e8 56 10 01 00       	call   13640 <free>
    25ea:	89 3c 24             	mov    %edi,(%esp)
    25ed:	e8 4e 10 01 00       	call   13640 <free>
    25f2:	58                   	pop    %eax
    25f3:	5a                   	pop    %edx
    25f4:	6a fe                	push   $0xfffffffe
    25f6:	53                   	push   %ebx
    25f7:	e8 e4 50 01 00       	call   176e0 <async_answer_0>
    25fc:	83 c4 10             	add    $0x10,%esp
    25ff:	e9 54 f8 ff ff       	jmp    1e58 <loc_connection_supplier+0xf8>
    2604:	83 ec 0c             	sub    $0xc,%esp
    2607:	89 cf                	mov    %ecx,%edi
    2609:	8b 49 14             	mov    0x14(%ecx),%ecx
    260c:	51                   	push   %ecx
    260d:	e8 2e 10 01 00       	call   13640 <free>
    2612:	89 3c 24             	mov    %edi,(%esp)
    2615:	e8 26 10 01 00       	call   13640 <free>
    261a:	5e                   	pop    %esi
    261b:	5f                   	pop    %edi
    261c:	6a f5                	push   $0xfffffff5
    261e:	53                   	push   %ebx
    261f:	e8 bc 50 01 00       	call   176e0 <async_answer_0>
    2624:	83 c4 10             	add    $0x10,%esp
    2627:	e9 8d fc ff ff       	jmp    22b9 <loc_connection_supplier+0x559>
    262c:	56                   	push   %esi
    262d:	56                   	push   %esi
    262e:	6a fe                	push   $0xfffffffe
    2630:	53                   	push   %ebx
    2631:	e8 aa 50 01 00       	call   176e0 <async_answer_0>
    2636:	83 c4 10             	add    $0x10,%esp
    2639:	e9 7b fc ff ff       	jmp    22b9 <loc_connection_supplier+0x559>
    263e:	51                   	push   %ecx
    263f:	68 e9 00 00 00       	push   $0xe9
    2644:	68 ba 58 02 00       	push   $0x258ba
    2649:	68 60 58 02 00       	push   $0x25860
    264e:	e8 1d d0 01 00       	call   1f670 <assert_abort>
    2653:	50                   	push   %eax
    2654:	68 16 01 00 00       	push   $0x116
    2659:	68 ba 58 02 00       	push   $0x258ba
    265e:	68 60 58 02 00       	push   $0x25860
    2663:	e8 08 d0 01 00       	call   1f670 <assert_abort>
    2668:	50                   	push   %eax
    2669:	68 24 01 00 00       	push   $0x124
    266e:	68 ba 58 02 00       	push   $0x258ba
    2673:	68 60 58 02 00       	push   $0x25860
    2678:	e8 f3 cf 01 00       	call   1f670 <assert_abort>
    267d:	51                   	push   %ecx
    267e:	68 d7 00 00 00       	push   $0xd7
    2683:	68 ba 58 02 00       	push   $0x258ba
    2688:	68 60 58 02 00       	push   $0x25860
    268d:	e8 de cf 01 00       	call   1f670 <assert_abort>
    2692:	8d b4 26 00 00 00 00 	lea    0x0(%esi,%eiz,1),%esi
    2699:	8d bc 27 00 00 00 00 	lea    0x0(%edi,%eiz,1),%edi

000026a0 <loc_connection_consumer>:
    26a0:	55                   	push   %ebp
    26a1:	89 e5                	mov    %esp,%ebp
    26a3:	57                   	push   %edi
    26a4:	56                   	push   %esi
    26a5:	53                   	push   %ebx
    26a6:	81 ec 54 01 00 00    	sub    $0x154,%esp
    26ac:	8b 55 08             	mov    0x8(%ebp),%edx
    26af:	6a 00                	push   $0x0
    26b1:	52                   	push   %edx
    26b2:	e8 29 50 01 00       	call   176e0 <async_answer_0>
    26b7:	83 c4 10             	add    $0x10,%esp
    26ba:	8d b6 00 00 00 00    	lea    0x0(%esi),%esi
    26c0:	50                   	push   %eax
    26c1:	50                   	push   %eax
    26c2:	8d 85 c4 fe ff ff    	lea    -0x13c(%ebp),%eax
    26c8:	6a 00                	push   $0x0
    26ca:	50                   	push   %eax
    26cb:	e8 90 37 01 00       	call   15e60 <async_get_call_timeout>
    26d0:	89 c6                	mov    %eax,%esi
    26d2:	8b 85 c4 fe ff ff    	mov    -0x13c(%ebp),%eax
    26d8:	83 c4 10             	add    $0x10,%esp
    26db:	85 c0                	test   %eax,%eax
    26dd:	0f 84 2d 0a 00 00    	je     3110 <loc_connection_consumer+0xa70>
    26e3:	2d 05 04 00 00       	sub    $0x405,%eax
    26e8:	83 f8 0f             	cmp    $0xf,%eax
    26eb:	0f 87 27 0a 00 00    	ja     3118 <loc_connection_consumer+0xa78>
    26f1:	ff 24 85 f8 59 02 00 	jmp    *0x259f8(,%eax,4)
    26f8:	8d 85 e8 fe ff ff    	lea    -0x118(%ebp),%eax
    26fe:	57                   	push   %edi
    26ff:	57                   	push   %edi
    2700:	50                   	push   %eax
    2701:	8d 85 c0 fe ff ff    	lea    -0x140(%ebp),%eax
    2707:	50                   	push   %eax
    2708:	e8 33 67 01 00       	call   18e40 <async_data_read_receive>
    270d:	83 c4 10             	add    $0x10,%esp
    2710:	84 c0                	test   %al,%al
    2712:	0f 84 38 09 00 00    	je     3050 <loc_connection_consumer+0x9b0>
    2718:	31 d2                	xor    %edx,%edx
    271a:	8b 85 e8 fe ff ff    	mov    -0x118(%ebp),%eax
    2720:	b9 04 01 00 00       	mov    $0x104,%ecx
    2725:	f7 f1                	div    %ecx
    2727:	85 d2                	test   %edx,%edx
    2729:	0f 85 d1 0a 00 00    	jne    3200 <loc_connection_consumer+0xb60>
    272f:	83 ec 0c             	sub    $0xc,%esp
    2732:	68 98 91 02 00       	push   $0x29198
    2737:	e8 94 64 00 00       	call   8bd0 <fibril_mutex_lock>
    273c:	ba fd c0 0f fc       	mov    $0xfc0fc0fd,%edx
    2741:	c7 04 24 b0 91 02 00 	movl   $0x291b0,(%esp)
    2748:	89 d0                	mov    %edx,%eax
    274a:	f7 a5 e8 fe ff ff    	mull   -0x118(%ebp)
    2750:	c1 ea 08             	shr    $0x8,%edx
    2753:	89 d3                	mov    %edx,%ebx
    2755:	e8 96 7d 01 00       	call   1a4f0 <list_count>
    275a:	83 c4 10             	add    $0x10,%esp
    275d:	39 c3                	cmp    %eax,%ebx
    275f:	0f 84 fd 0b 00 00    	je     3362 <loc_connection_consumer+0xcc2>
    2765:	83 ec 0c             	sub    $0xc,%esp
    2768:	68 98 91 02 00       	push   $0x29198
    276d:	e8 de 65 00 00       	call   8d50 <fibril_mutex_unlock>
    2772:	8b bd c0 fe ff ff    	mov    -0x140(%ebp),%edi
    2778:	59                   	pop    %ecx
    2779:	5b                   	pop    %ebx
    277a:	6a f0                	push   $0xfffffff0
    277c:	57                   	push   %edi
    277d:	e8 5e 4f 01 00       	call   176e0 <async_answer_0>
    2782:	58                   	pop    %eax
    2783:	5a                   	pop    %edx
    2784:	6a f0                	push   $0xfffffff0
    2786:	56                   	push   %esi
    2787:	e8 54 4f 01 00       	call   176e0 <async_answer_0>
    278c:	83 c4 10             	add    $0x10,%esp
    278f:	e9 2c ff ff ff       	jmp    26c0 <loc_connection_consumer+0x20>
    2794:	8d 74 26 00          	lea    0x0(%esi,%eiz,1),%esi
    2798:	50                   	push   %eax
    2799:	50                   	push   %eax
    279a:	8d 85 c0 fe ff ff    	lea    -0x140(%ebp),%eax
    27a0:	50                   	push   %eax
    27a1:	8d 85 bc fe ff ff    	lea    -0x144(%ebp),%eax
    27a7:	50                   	push   %eax
    27a8:	e8 93 66 01 00       	call   18e40 <async_data_read_receive>
    27ad:	83 c4 10             	add    $0x10,%esp
    27b0:	84 c0                	test   %al,%al
    27b2:	0f 84 48 09 00 00    	je     3100 <loc_connection_consumer+0xa60>
    27b8:	83 ec 0c             	sub    $0xc,%esp
    27bb:	8b 9d c0 fe ff ff    	mov    -0x140(%ebp),%ebx
    27c1:	53                   	push   %ebx
    27c2:	e8 c9 0c 01 00       	call   13490 <malloc>
    27c7:	83 c4 10             	add    $0x10,%esp
    27ca:	89 c3                	mov    %eax,%ebx
    27cc:	85 c0                	test   %eax,%eax
    27ce:	0f 84 58 0c 00 00    	je     342c <loc_connection_consumer+0xd8c>
    27d4:	83 ec 0c             	sub    $0xc,%esp
    27d7:	68 60 94 02 00       	push   $0x29460
    27dc:	e8 ef 63 00 00       	call   8bd0 <fibril_mutex_lock>
    27e1:	8d 85 e8 fe ff ff    	lea    -0x118(%ebp),%eax
    27e7:	50                   	push   %eax
    27e8:	8b 85 c0 fe ff ff    	mov    -0x140(%ebp),%eax
    27ee:	50                   	push   %eax
    27ef:	53                   	push   %ebx
    27f0:	68 60 94 02 00       	push   $0x29460
    27f5:	e8 66 e9 ff ff       	call   1160 <categ_dir_get_categories>
    27fa:	83 c4 20             	add    $0x20,%esp
    27fd:	89 c7                	mov    %eax,%edi
    27ff:	85 c0                	test   %eax,%eax
    2801:	0f 84 83 0a 00 00    	je     328a <loc_connection_consumer+0xbea>
    2807:	83 ec 0c             	sub    $0xc,%esp
    280a:	68 60 94 02 00       	push   $0x29460
    280f:	e8 3c 65 00 00       	call   8d50 <fibril_mutex_unlock>
    2814:	8b 8d bc fe ff ff    	mov    -0x144(%ebp),%ecx
    281a:	58                   	pop    %eax
    281b:	5a                   	pop    %edx
    281c:	57                   	push   %edi
    281d:	51                   	push   %ecx
    281e:	e8 bd 4e 01 00       	call   176e0 <async_answer_0>
    2823:	5b                   	pop    %ebx
    2824:	58                   	pop    %eax
    2825:	57                   	push   %edi
    2826:	56                   	push   %esi
    2827:	e8 b4 4e 01 00       	call   176e0 <async_answer_0>
    282c:	83 c4 10             	add    $0x10,%esp
    282f:	e9 8c fe ff ff       	jmp    26c0 <loc_connection_consumer+0x20>
    2834:	8d 74 26 00          	lea    0x0(%esi,%eiz,1),%esi
    2838:	83 ec 0c             	sub    $0xc,%esp
    283b:	68 98 91 02 00       	push   $0x29198
    2840:	e8 8b 63 00 00       	call   8bd0 <fibril_mutex_lock>
    2845:	c7 04 24 98 91 02 00 	movl   $0x29198,(%esp)
    284c:	8b 9d c8 fe ff ff    	mov    -0x138(%ebp),%ebx
    2852:	e8 a9 66 00 00       	call   8f00 <fibril_mutex_is_locked>
    2857:	83 c4 10             	add    $0x10,%esp
    285a:	84 c0                	test   %al,%al
    285c:	0f 84 1e 0d 00 00    	je     3580 <loc_connection_consumer+0xee0>
    2862:	a1 b4 91 02 00       	mov    0x291b4,%eax
    2867:	3d b0 91 02 00       	cmp    $0x291b0,%eax
    286c:	74 1d                	je     288b <loc_connection_consumer+0x1eb>
    286e:	39 58 08             	cmp    %ebx,0x8(%eax)
    2871:	75 0e                	jne    2881 <loc_connection_consumer+0x1e1>
    2873:	e9 b8 08 00 00       	jmp    3130 <loc_connection_consumer+0xa90>
    2878:	3b 58 08             	cmp    0x8(%eax),%ebx
    287b:	0f 84 af 08 00 00    	je     3130 <loc_connection_consumer+0xa90>
    2881:	8b 40 04             	mov    0x4(%eax),%eax
    2884:	3d b0 91 02 00       	cmp    $0x291b0,%eax
    2889:	75 ed                	jne    2878 <loc_connection_consumer+0x1d8>
    288b:	53                   	push   %ebx
    288c:	53                   	push   %ebx
    288d:	6a f7                	push   $0xfffffff7
    288f:	56                   	push   %esi
    2890:	e8 4b 4e 01 00       	call   176e0 <async_answer_0>
    2895:	83 c4 10             	add    $0x10,%esp
    2898:	e9 a3 08 00 00       	jmp    3140 <loc_connection_consumer+0xaa0>
    289d:	8d 76 00             	lea    0x0(%esi),%esi
    28a0:	57                   	push   %edi
    28a1:	57                   	push   %edi
    28a2:	6a 0c                	push   $0xc
    28a4:	6a 01                	push   $0x1
    28a6:	e8 45 0b 01 00       	call   133f0 <calloc>
    28ab:	83 c4 10             	add    $0x10,%esp
    28ae:	89 c3                	mov    %eax,%ebx
    28b0:	85 c0                	test   %eax,%eax
    28b2:	0f 84 cd 0b 00 00    	je     3485 <loc_connection_consumer+0xde5>
    28b8:	83 ec 0c             	sub    $0xc,%esp
    28bb:	6a 01                	push   $0x1
    28bd:	e8 fe 6f 01 00       	call   198c0 <async_callback_receive>
    28c2:	83 c4 10             	add    $0x10,%esp
    28c5:	85 c0                	test   %eax,%eax
    28c7:	0f 84 08 0b 00 00    	je     33d5 <loc_connection_consumer+0xd35>
    28cd:	83 ec 0c             	sub    $0xc,%esp
    28d0:	89 43 08             	mov    %eax,0x8(%ebx)
    28d3:	c7 03 00 00 00 00    	movl   $0x0,(%ebx)
    28d9:	c7 43 04 00 00 00 00 	movl   $0x0,0x4(%ebx)
    28e0:	68 48 91 02 00       	push   $0x29148
    28e5:	e8 e6 62 00 00       	call   8bd0 <fibril_mutex_lock>
    28ea:	a1 40 91 02 00       	mov    0x29140,%eax
    28ef:	c7 43 04 40 91 02 00 	movl   $0x29140,0x4(%ebx)
    28f6:	89 03                	mov    %eax,(%ebx)
    28f8:	89 1d 40 91 02 00    	mov    %ebx,0x29140
    28fe:	89 58 04             	mov    %ebx,0x4(%eax)
    2901:	c7 04 24 48 91 02 00 	movl   $0x29148,(%esp)
    2908:	e8 43 64 00 00       	call   8d50 <fibril_mutex_unlock>
    290d:	5f                   	pop    %edi
    290e:	58                   	pop    %eax
    290f:	6a 00                	push   $0x0
    2911:	56                   	push   %esi
    2912:	e8 c9 4d 01 00       	call   176e0 <async_answer_0>
    2917:	83 c4 10             	add    $0x10,%esp
    291a:	e9 a1 fd ff ff       	jmp    26c0 <loc_connection_consumer+0x20>
    291f:	90                   	nop
    2920:	83 ec 0c             	sub    $0xc,%esp
    2923:	68 98 91 02 00       	push   $0x29198
    2928:	e8 a3 62 00 00       	call   8bd0 <fibril_mutex_lock>
    292d:	c7 04 24 98 91 02 00 	movl   $0x29198,(%esp)
    2934:	8b 9d c8 fe ff ff    	mov    -0x138(%ebp),%ebx
    293a:	e8 c1 65 00 00       	call   8f00 <fibril_mutex_is_locked>
    293f:	83 c4 10             	add    $0x10,%esp
    2942:	84 c0                	test   %al,%al
    2944:	0f 84 36 0c 00 00    	je     3580 <loc_connection_consumer+0xee0>
    294a:	a1 b4 91 02 00       	mov    0x291b4,%eax
    294f:	3d b0 91 02 00       	cmp    $0x291b0,%eax
    2954:	74 1d                	je     2973 <loc_connection_consumer+0x2d3>
    2956:	39 58 08             	cmp    %ebx,0x8(%eax)
    2959:	75 0e                	jne    2969 <loc_connection_consumer+0x2c9>
    295b:	e9 f8 07 00 00       	jmp    3158 <loc_connection_consumer+0xab8>
    2960:	3b 58 08             	cmp    0x8(%eax),%ebx
    2963:	0f 84 ef 07 00 00    	je     3158 <loc_connection_consumer+0xab8>
    2969:	8b 40 04             	mov    0x4(%eax),%eax
    296c:	3d b0 91 02 00       	cmp    $0x291b0,%eax
    2971:	75 ed                	jne    2960 <loc_connection_consumer+0x2c0>
    2973:	83 ec 0c             	sub    $0xc,%esp
    2976:	8b 9d c8 fe ff ff    	mov    -0x138(%ebp),%ebx
    297c:	68 98 91 02 00       	push   $0x29198
    2981:	e8 7a 65 00 00       	call   8f00 <fibril_mutex_is_locked>
    2986:	83 c4 10             	add    $0x10,%esp
    2989:	84 c0                	test   %al,%al
    298b:	0f 84 04 0c 00 00    	je     3595 <loc_connection_consumer+0xef5>
    2991:	a1 bc 91 02 00       	mov    0x291bc,%eax
    2996:	3d b8 91 02 00       	cmp    $0x291b8,%eax
    299b:	74 1e                	je     29bb <loc_connection_consumer+0x31b>
    299d:	39 58 20             	cmp    %ebx,0x20(%eax)
    29a0:	75 0f                	jne    29b1 <loc_connection_consumer+0x311>
    29a2:	e9 a7 0a 00 00       	jmp    344e <loc_connection_consumer+0xdae>
    29a7:	90                   	nop
    29a8:	3b 58 20             	cmp    0x20(%eax),%ebx
    29ab:	0f 84 9d 0a 00 00    	je     344e <loc_connection_consumer+0xdae>
    29b1:	8b 40 04             	mov    0x4(%eax),%eax
    29b4:	3d b8 91 02 00       	cmp    $0x291b8,%eax
    29b9:	75 ed                	jne    29a8 <loc_connection_consumer+0x308>
    29bb:	57                   	push   %edi
    29bc:	6a 00                	push   $0x0
    29be:	6a 00                	push   $0x0
    29c0:	56                   	push   %esi
    29c1:	e8 3a 4d 01 00       	call   17700 <async_answer_1>
    29c6:	83 c4 10             	add    $0x10,%esp
    29c9:	e9 72 07 00 00       	jmp    3140 <loc_connection_consumer+0xaa0>
    29ce:	66 90                	xchg   %ax,%ax
    29d0:	50                   	push   %eax
    29d1:	50                   	push   %eax
    29d2:	8d 85 c0 fe ff ff    	lea    -0x140(%ebp),%eax
    29d8:	50                   	push   %eax
    29d9:	8d 85 bc fe ff ff    	lea    -0x144(%ebp),%eax
    29df:	50                   	push   %eax
    29e0:	e8 5b 64 01 00       	call   18e40 <async_data_read_receive>
    29e5:	83 c4 10             	add    $0x10,%esp
    29e8:	84 c0                	test   %al,%al
    29ea:	0f 84 10 07 00 00    	je     3100 <loc_connection_consumer+0xa60>
    29f0:	83 ec 0c             	sub    $0xc,%esp
    29f3:	68 60 94 02 00       	push   $0x29460
    29f8:	e8 d3 61 00 00       	call   8bd0 <fibril_mutex_lock>
    29fd:	8b 85 c8 fe ff ff    	mov    -0x138(%ebp),%eax
    2a03:	5b                   	pop    %ebx
    2a04:	5f                   	pop    %edi
    2a05:	50                   	push   %eax
    2a06:	68 60 94 02 00       	push   $0x29460
    2a0b:	e8 c0 e9 ff ff       	call   13d0 <category_get>
    2a10:	83 c4 10             	add    $0x10,%esp
    2a13:	89 c3                	mov    %eax,%ebx
    2a15:	85 c0                	test   %eax,%eax
    2a17:	0f 84 b2 0a 00 00    	je     34cf <loc_connection_consumer+0xe2f>
    2a1d:	83 ec 0c             	sub    $0xc,%esp
    2a20:	8b 85 c0 fe ff ff    	mov    -0x140(%ebp),%eax
    2a26:	50                   	push   %eax
    2a27:	e8 64 0a 01 00       	call   13490 <malloc>
    2a2c:	83 c4 10             	add    $0x10,%esp
    2a2f:	89 c7                	mov    %eax,%edi
    2a31:	85 c0                	test   %eax,%eax
    2a33:	0f 84 f3 09 00 00    	je     342c <loc_connection_consumer+0xd8c>
    2a39:	83 ec 0c             	sub    $0xc,%esp
    2a3c:	53                   	push   %ebx
    2a3d:	e8 8e 61 00 00       	call   8bd0 <fibril_mutex_lock>
    2a42:	8d 85 e8 fe ff ff    	lea    -0x118(%ebp),%eax
    2a48:	50                   	push   %eax
    2a49:	8b 85 c0 fe ff ff    	mov    -0x140(%ebp),%eax
    2a4f:	50                   	push   %eax
    2a50:	57                   	push   %edi
    2a51:	53                   	push   %ebx
    2a52:	e8 69 ea ff ff       	call   14c0 <category_get_services>
    2a57:	83 c4 20             	add    $0x20,%esp
    2a5a:	89 85 b4 fe ff ff    	mov    %eax,-0x14c(%ebp)
    2a60:	85 c0                	test   %eax,%eax
    2a62:	0f 84 89 08 00 00    	je     32f1 <loc_connection_consumer+0xc51>
    2a68:	83 ec 0c             	sub    $0xc,%esp
    2a6b:	53                   	push   %ebx
    2a6c:	e8 df 62 00 00       	call   8d50 <fibril_mutex_unlock>
    2a71:	c7 04 24 60 94 02 00 	movl   $0x29460,(%esp)
    2a78:	e8 d3 62 00 00       	call   8d50 <fibril_mutex_unlock>
    2a7d:	58                   	pop    %eax
    2a7e:	8b 8d bc fe ff ff    	mov    -0x144(%ebp),%ecx
    2a84:	5a                   	pop    %edx
    2a85:	8b 95 b4 fe ff ff    	mov    -0x14c(%ebp),%edx
    2a8b:	52                   	push   %edx
    2a8c:	51                   	push   %ecx
    2a8d:	e8 4e 4c 01 00       	call   176e0 <async_answer_0>
    2a92:	8b 95 b4 fe ff ff    	mov    -0x14c(%ebp),%edx
    2a98:	5b                   	pop    %ebx
    2a99:	5f                   	pop    %edi
    2a9a:	52                   	push   %edx
    2a9b:	56                   	push   %esi
    2a9c:	e8 3f 4c 01 00       	call   176e0 <async_answer_0>
    2aa1:	83 c4 10             	add    $0x10,%esp
    2aa4:	e9 17 fc ff ff       	jmp    26c0 <loc_connection_consumer+0x20>
    2aa9:	8d b4 26 00 00 00 00 	lea    0x0(%esi,%eiz,1),%esi
    2ab0:	8d 95 c8 fe ff ff    	lea    -0x138(%ebp),%edx
    2ab6:	89 f0                	mov    %esi,%eax
    2ab8:	e8 13 ed ff ff       	call   17d0 <loc_service_get_id.isra.11>
    2abd:	e9 fe fb ff ff       	jmp    26c0 <loc_connection_consumer+0x20>
    2ac2:	8d b6 00 00 00 00    	lea    0x0(%esi),%esi
    2ac8:	8d 85 e8 fe ff ff    	lea    -0x118(%ebp),%eax
    2ace:	53                   	push   %ebx
    2acf:	53                   	push   %ebx
    2ad0:	50                   	push   %eax
    2ad1:	8d 85 c0 fe ff ff    	lea    -0x140(%ebp),%eax
    2ad7:	50                   	push   %eax
    2ad8:	e8 63 63 01 00       	call   18e40 <async_data_read_receive>
    2add:	83 c4 10             	add    $0x10,%esp
    2ae0:	84 c0                	test   %al,%al
    2ae2:	0f 84 68 05 00 00    	je     3050 <loc_connection_consumer+0x9b0>
    2ae8:	8b 9d e8 fe ff ff    	mov    -0x118(%ebp),%ebx
    2aee:	ba fd c0 0f fc       	mov    $0xfc0fc0fd,%edx
    2af3:	89 d8                	mov    %ebx,%eax
    2af5:	f7 e2                	mul    %edx
    2af7:	89 d1                	mov    %edx,%ecx
    2af9:	c1 e9 08             	shr    $0x8,%ecx
    2afc:	89 c8                	mov    %ecx,%eax
    2afe:	c1 e0 06             	shl    $0x6,%eax
    2b01:	01 c1                	add    %eax,%ecx
    2b03:	c1 e1 02             	shl    $0x2,%ecx
    2b06:	29 cb                	sub    %ecx,%ebx
    2b08:	0f 85 f2 06 00 00    	jne    3200 <loc_connection_consumer+0xb60>
    2b0e:	83 ec 0c             	sub    $0xc,%esp
    2b11:	89 9d b4 fe ff ff    	mov    %ebx,-0x14c(%ebp)
    2b17:	68 98 91 02 00       	push   $0x29198
    2b1c:	e8 af 60 00 00       	call   8bd0 <fibril_mutex_lock>
    2b21:	c7 04 24 98 91 02 00 	movl   $0x29198,(%esp)
    2b28:	8b bd c8 fe ff ff    	mov    -0x138(%ebp),%edi
    2b2e:	e8 cd 63 00 00       	call   8f00 <fibril_mutex_is_locked>
    2b33:	83 c4 10             	add    $0x10,%esp
    2b36:	8b 8d b4 fe ff ff    	mov    -0x14c(%ebp),%ecx
    2b3c:	84 c0                	test   %al,%al
    2b3e:	0f 84 3c 0a 00 00    	je     3580 <loc_connection_consumer+0xee0>
    2b44:	8b 1d b4 91 02 00    	mov    0x291b4,%ebx
    2b4a:	81 fb b0 91 02 00    	cmp    $0x291b0,%ebx
    2b50:	75 15                	jne    2b67 <loc_connection_consumer+0x4c7>
    2b52:	e9 2d 01 00 00       	jmp    2c84 <loc_connection_consumer+0x5e4>
    2b57:	90                   	nop
    2b58:	8b 5b 04             	mov    0x4(%ebx),%ebx
    2b5b:	81 fb b0 91 02 00    	cmp    $0x291b0,%ebx
    2b61:	0f 84 1d 01 00 00    	je     2c84 <loc_connection_consumer+0x5e4>
    2b67:	3b 7b 08             	cmp    0x8(%ebx),%edi
    2b6a:	75 ec                	jne    2b58 <loc_connection_consumer+0x4b8>
    2b6c:	8b bd e8 fe ff ff    	mov    -0x118(%ebp),%edi
    2b72:	ba fd c0 0f fc       	mov    $0xfc0fc0fd,%edx
    2b77:	89 f8                	mov    %edi,%eax
    2b79:	f7 e2                	mul    %edx
    2b7b:	c1 ea 08             	shr    $0x8,%edx
    2b7e:	3b 53 10             	cmp    0x10(%ebx),%edx
    2b81:	0f 85 de fb ff ff    	jne    2765 <loc_connection_consumer+0xc5>
    2b87:	83 ec 0c             	sub    $0xc,%esp
    2b8a:	89 8d b4 fe ff ff    	mov    %ecx,-0x14c(%ebp)
    2b90:	57                   	push   %edi
    2b91:	e8 fa 08 01 00       	call   13490 <malloc>
    2b96:	83 c4 10             	add    $0x10,%esp
    2b99:	89 c7                	mov    %eax,%edi
    2b9b:	85 c0                	test   %eax,%eax
    2b9d:	8b 8d b4 fe ff ff    	mov    -0x14c(%ebp),%ecx
    2ba3:	0f 84 ac 09 00 00    	je     3555 <loc_connection_consumer+0xeb5>
    2ba9:	a1 bc 91 02 00       	mov    0x291bc,%eax
    2bae:	3d b8 91 02 00       	cmp    $0x291b8,%eax
    2bb3:	74 16                	je     2bcb <loc_connection_consumer+0x52b>
    2bb5:	8d 76 00             	lea    0x0(%esi),%esi
    2bb8:	39 58 24             	cmp    %ebx,0x24(%eax)
    2bbb:	0f 84 27 08 00 00    	je     33e8 <loc_connection_consumer+0xd48>
    2bc1:	8b 40 04             	mov    0x4(%eax),%eax
    2bc4:	3d b8 91 02 00       	cmp    $0x291b8,%eax
    2bc9:	75 ed                	jne    2bb8 <loc_connection_consumer+0x518>
    2bcb:	50                   	push   %eax
    2bcc:	8b 85 e8 fe ff ff    	mov    -0x118(%ebp),%eax
    2bd2:	50                   	push   %eax
    2bd3:	8b 85 c0 fe ff ff    	mov    -0x140(%ebp),%eax
    2bd9:	57                   	push   %edi
    2bda:	50                   	push   %eax
    2bdb:	e8 40 63 01 00       	call   18f20 <async_data_read_finalize>
    2be0:	89 3c 24             	mov    %edi,(%esp)
    2be3:	89 c3                	mov    %eax,%ebx
    2be5:	e8 56 0a 01 00       	call   13640 <free>
    2bea:	c7 04 24 98 91 02 00 	movl   $0x29198,(%esp)
    2bf1:	e8 5a 61 00 00       	call   8d50 <fibril_mutex_unlock>
    2bf6:	5f                   	pop    %edi
    2bf7:	58                   	pop    %eax
    2bf8:	53                   	push   %ebx
    2bf9:	56                   	push   %esi
    2bfa:	e8 e1 4a 01 00       	call   176e0 <async_answer_0>
    2bff:	83 c4 10             	add    $0x10,%esp
    2c02:	e9 b9 fa ff ff       	jmp    26c0 <loc_connection_consumer+0x20>
    2c07:	90                   	nop
    2c08:	8d 85 e8 fe ff ff    	lea    -0x118(%ebp),%eax
    2c0e:	57                   	push   %edi
    2c0f:	57                   	push   %edi
    2c10:	50                   	push   %eax
    2c11:	8d 85 c0 fe ff ff    	lea    -0x140(%ebp),%eax
    2c17:	50                   	push   %eax
    2c18:	e8 23 62 01 00       	call   18e40 <async_data_read_receive>
    2c1d:	83 c4 10             	add    $0x10,%esp
    2c20:	84 c0                	test   %al,%al
    2c22:	0f 84 28 04 00 00    	je     3050 <loc_connection_consumer+0x9b0>
    2c28:	83 ec 0c             	sub    $0xc,%esp
    2c2b:	68 98 91 02 00       	push   $0x29198
    2c30:	e8 9b 5f 00 00       	call   8bd0 <fibril_mutex_lock>
    2c35:	c7 04 24 98 91 02 00 	movl   $0x29198,(%esp)
    2c3c:	8b bd c8 fe ff ff    	mov    -0x138(%ebp),%edi
    2c42:	e8 b9 62 00 00       	call   8f00 <fibril_mutex_is_locked>
    2c47:	83 c4 10             	add    $0x10,%esp
    2c4a:	84 c0                	test   %al,%al
    2c4c:	0f 84 43 09 00 00    	je     3595 <loc_connection_consumer+0xef5>
    2c52:	8b 1d bc 91 02 00    	mov    0x291bc,%ebx
    2c58:	81 fb b8 91 02 00    	cmp    $0x291b8,%ebx
    2c5e:	74 24                	je     2c84 <loc_connection_consumer+0x5e4>
    2c60:	39 7b 20             	cmp    %edi,0x20(%ebx)
    2c63:	75 14                	jne    2c79 <loc_connection_consumer+0x5d9>
    2c65:	e9 de 05 00 00       	jmp    3248 <loc_connection_consumer+0xba8>
    2c6a:	8d b6 00 00 00 00    	lea    0x0(%esi),%esi
    2c70:	3b 7b 20             	cmp    0x20(%ebx),%edi
    2c73:	0f 84 cf 05 00 00    	je     3248 <loc_connection_consumer+0xba8>
    2c79:	8b 5b 04             	mov    0x4(%ebx),%ebx
    2c7c:	81 fb b8 91 02 00    	cmp    $0x291b8,%ebx
    2c82:	75 ec                	jne    2c70 <loc_connection_consumer+0x5d0>
    2c84:	83 ec 0c             	sub    $0xc,%esp
    2c87:	68 98 91 02 00       	push   $0x29198
    2c8c:	e8 bf 60 00 00       	call   8d50 <fibril_mutex_unlock>
    2c91:	5f                   	pop    %edi
    2c92:	58                   	pop    %eax
    2c93:	8b 85 c0 fe ff ff    	mov    -0x140(%ebp),%eax
    2c99:	6a ff                	push   $0xffffffff
    2c9b:	50                   	push   %eax
    2c9c:	e8 3f 4a 01 00       	call   176e0 <async_answer_0>
    2ca1:	59                   	pop    %ecx
    2ca2:	5b                   	pop    %ebx
    2ca3:	6a ff                	push   $0xffffffff
    2ca5:	56                   	push   %esi
    2ca6:	e8 35 4a 01 00       	call   176e0 <async_answer_0>
    2cab:	83 c4 10             	add    $0x10,%esp
    2cae:	e9 0d fa ff ff       	jmp    26c0 <loc_connection_consumer+0x20>
    2cb3:	90                   	nop
    2cb4:	8d 74 26 00          	lea    0x0(%esi,%eiz,1),%esi
    2cb8:	50                   	push   %eax
    2cb9:	50                   	push   %eax
    2cba:	8d 85 bc fe ff ff    	lea    -0x144(%ebp),%eax
    2cc0:	50                   	push   %eax
    2cc1:	8d 85 b8 fe ff ff    	lea    -0x148(%ebp),%eax
    2cc7:	50                   	push   %eax
    2cc8:	e8 73 61 01 00       	call   18e40 <async_data_read_receive>
    2ccd:	83 c4 10             	add    $0x10,%esp
    2cd0:	84 c0                	test   %al,%al
    2cd2:	0f 84 e8 04 00 00    	je     31c0 <loc_connection_consumer+0xb20>
    2cd8:	83 ec 0c             	sub    $0xc,%esp
    2cdb:	68 98 91 02 00       	push   $0x29198
    2ce0:	e8 eb 5e 00 00       	call   8bd0 <fibril_mutex_lock>
    2ce5:	c7 04 24 98 91 02 00 	movl   $0x29198,(%esp)
    2cec:	8b 9d c8 fe ff ff    	mov    -0x138(%ebp),%ebx
    2cf2:	e8 09 62 00 00       	call   8f00 <fibril_mutex_is_locked>
    2cf7:	83 c4 10             	add    $0x10,%esp
    2cfa:	84 c0                	test   %al,%al
    2cfc:	0f 84 93 08 00 00    	je     3595 <loc_connection_consumer+0xef5>
    2d02:	a1 bc 91 02 00       	mov    0x291bc,%eax
    2d07:	3d b8 91 02 00       	cmp    $0x291b8,%eax
    2d0c:	75 18                	jne    2d26 <loc_connection_consumer+0x686>
    2d0e:	e9 dd 07 00 00       	jmp    34f0 <loc_connection_consumer+0xe50>
    2d13:	90                   	nop
    2d14:	8d 74 26 00          	lea    0x0(%esi,%eiz,1),%esi
    2d18:	8b 40 04             	mov    0x4(%eax),%eax
    2d1b:	3d b8 91 02 00       	cmp    $0x291b8,%eax
    2d20:	0f 84 ca 07 00 00    	je     34f0 <loc_connection_consumer+0xe50>
    2d26:	3b 58 20             	cmp    0x20(%eax),%ebx
    2d29:	75 ed                	jne    2d18 <loc_connection_consumer+0x678>
    2d2b:	8b 50 28             	mov    0x28(%eax),%edx
    2d2e:	8b 40 24             	mov    0x24(%eax),%eax
    2d31:	52                   	push   %edx
    2d32:	8b 48 0c             	mov    0xc(%eax),%ecx
    2d35:	8d 85 e8 fe ff ff    	lea    -0x118(%ebp),%eax
    2d3b:	51                   	push   %ecx
    2d3c:	68 c7 58 02 00       	push   $0x258c7
    2d41:	50                   	push   %eax
    2d42:	e8 e9 8a 00 00       	call   b830 <asprintf>
    2d47:	83 c4 10             	add    $0x10,%esp
    2d4a:	85 c0                	test   %eax,%eax
    2d4c:	0f 88 ee 05 00 00    	js     3340 <loc_connection_consumer+0xca0>
    2d52:	83 ec 0c             	sub    $0xc,%esp
    2d55:	8b 9d e8 fe ff ff    	mov    -0x118(%ebp),%ebx
    2d5b:	53                   	push   %ebx
    2d5c:	e8 af 12 00 00       	call   4010 <str_size>
    2d61:	83 c4 10             	add    $0x10,%esp
    2d64:	3b 85 bc fe ff ff    	cmp    -0x144(%ebp),%eax
    2d6a:	0f 86 f1 06 00 00    	jbe    3461 <loc_connection_consumer+0xdc1>
    2d70:	83 ec 0c             	sub    $0xc,%esp
    2d73:	8b 85 e8 fe ff ff    	mov    -0x118(%ebp),%eax
    2d79:	50                   	push   %eax
    2d7a:	e8 c1 08 01 00       	call   13640 <free>
    2d7f:	c7 04 24 98 91 02 00 	movl   $0x29198,(%esp)
    2d86:	e8 c5 5f 00 00       	call   8d50 <fibril_mutex_unlock>
    2d8b:	8b 8d b8 fe ff ff    	mov    -0x148(%ebp),%ecx
    2d91:	58                   	pop    %eax
    2d92:	5a                   	pop    %edx
    2d93:	6a f0                	push   $0xfffffff0
    2d95:	51                   	push   %ecx
    2d96:	e9 e2 f9 ff ff       	jmp    277d <loc_connection_consumer+0xdd>
    2d9b:	90                   	nop
    2d9c:	8d 74 26 00          	lea    0x0(%esi,%eiz,1),%esi
    2da0:	8d 95 c8 fe ff ff    	lea    -0x138(%ebp),%edx
    2da6:	89 f0                	mov    %esi,%eax
    2da8:	e8 e3 e8 ff ff       	call   1690 <loc_namespace_get_id.isra.10>
    2dad:	e9 0e f9 ff ff       	jmp    26c0 <loc_connection_consumer+0x20>
    2db2:	8d b6 00 00 00 00    	lea    0x0(%esi),%esi
    2db8:	8b 9d c8 fe ff ff    	mov    -0x138(%ebp),%ebx
    2dbe:	81 fb ff 00 00 00    	cmp    $0xff,%ebx
    2dc4:	0f 87 1e 04 00 00    	ja     31e8 <loc_connection_consumer+0xb48>
    2dca:	83 ec 0c             	sub    $0xc,%esp
    2dcd:	68 60 91 02 00       	push   $0x29160
    2dd2:	e8 f9 5d 00 00       	call   8bd0 <fibril_mutex_lock>
    2dd7:	8b 04 9d 80 94 02 00 	mov    0x29480(,%ebx,4),%eax
    2dde:	83 c4 10             	add    $0x10,%esp
    2de1:	85 c0                	test   %eax,%eax
    2de3:	0f 84 38 07 00 00    	je     3521 <loc_connection_consumer+0xe81>
    2de9:	83 ec 0c             	sub    $0xc,%esp
    2dec:	68 98 91 02 00       	push   $0x29198
    2df1:	e8 da 5d 00 00       	call   8bd0 <fibril_mutex_lock>
    2df6:	c7 04 24 60 94 02 00 	movl   $0x29460,(%esp)
    2dfd:	e8 ce 5d 00 00       	call   8bd0 <fibril_mutex_lock>
    2e02:	8b 04 9d 80 94 02 00 	mov    0x29480(,%ebx,4),%eax
    2e09:	e8 82 eb ff ff       	call   1990 <loc_service_unregister_core>
    2e0e:	c7 04 24 60 94 02 00 	movl   $0x29460,(%esp)
    2e15:	e8 36 5f 00 00       	call   8d50 <fibril_mutex_unlock>
    2e1a:	c7 04 24 98 91 02 00 	movl   $0x29198,(%esp)
    2e21:	e8 2a 5f 00 00       	call   8d50 <fibril_mutex_unlock>
    2e26:	c7 04 9d 80 94 02 00 	movl   $0x0,0x29480(,%ebx,4)
    2e2d:	00 00 00 00 
    2e31:	c7 04 24 60 91 02 00 	movl   $0x29160,(%esp)
    2e38:	e9 cb fa ff ff       	jmp    2908 <loc_connection_consumer+0x268>
    2e3d:	8d 76 00             	lea    0x0(%esi),%esi
    2e40:	83 ec 0c             	sub    $0xc,%esp
    2e43:	31 db                	xor    %ebx,%ebx
    2e45:	68 60 91 02 00       	push   $0x29160
    2e4a:	e8 81 5d 00 00       	call   8bd0 <fibril_mutex_lock>
    2e4f:	83 c4 10             	add    $0x10,%esp
    2e52:	eb 11                	jmp    2e65 <loc_connection_consumer+0x7c5>
    2e54:	8d 74 26 00          	lea    0x0(%esi,%eiz,1),%esi
    2e58:	43                   	inc    %ebx
    2e59:	81 fb 00 01 00 00    	cmp    $0x100,%ebx
    2e5f:	0f 84 c3 03 00 00    	je     3228 <loc_connection_consumer+0xb88>
    2e65:	8b 14 9d 80 94 02 00 	mov    0x29480(,%ebx,4),%edx
    2e6c:	85 d2                	test   %edx,%edx
    2e6e:	75 e8                	jne    2e58 <loc_connection_consumer+0x7b8>
    2e70:	8d 85 e8 fe ff ff    	lea    -0x118(%ebp),%eax
    2e76:	53                   	push   %ebx
    2e77:	68 cd 58 02 00       	push   $0x258cd
    2e7c:	68 ff 00 00 00       	push   $0xff
    2e81:	50                   	push   %eax
    2e82:	e8 e9 b7 00 00       	call   e670 <snprintf>
    2e87:	8d 85 e8 fe ff ff    	lea    -0x118(%ebp),%eax
    2e8d:	89 04 24             	mov    %eax,(%esp)
    2e90:	e8 2b 37 00 00       	call   65c0 <str_dup>
    2e95:	83 c4 10             	add    $0x10,%esp
    2e98:	89 c7                	mov    %eax,%edi
    2e9a:	85 c0                	test   %eax,%eax
    2e9c:	0f 84 86 03 00 00    	je     3228 <loc_connection_consumer+0xb88>
    2ea2:	83 ec 0c             	sub    $0xc,%esp
    2ea5:	6a 30                	push   $0x30
    2ea7:	e8 e4 05 01 00       	call   13490 <malloc>
    2eac:	83 c4 10             	add    $0x10,%esp
    2eaf:	85 c0                	test   %eax,%eax
    2eb1:	0f 84 71 03 00 00    	je     3228 <loc_connection_consumer+0xb88>
    2eb7:	83 ec 0c             	sub    $0xc,%esp
    2eba:	89 85 b4 fe ff ff    	mov    %eax,-0x14c(%ebp)
    2ec0:	68 98 91 02 00       	push   $0x29198
    2ec5:	e8 06 5d 00 00       	call   8bd0 <fibril_mutex_lock>
    2eca:	b8 35 59 02 00       	mov    $0x25935,%eax
    2ecf:	e8 6c ec ff ff       	call   1b40 <loc_namespace_create>
    2ed4:	83 c4 10             	add    $0x10,%esp
    2ed7:	8b 95 b4 fe ff ff    	mov    -0x14c(%ebp),%edx
    2edd:	85 c0                	test   %eax,%eax
    2edf:	0f 84 c4 05 00 00    	je     34a9 <loc_connection_consumer+0xe09>
    2ee5:	89 85 ac fe ff ff    	mov    %eax,-0x154(%ebp)
    2eeb:	8d 42 08             	lea    0x8(%edx),%eax
    2eee:	83 ec 0c             	sub    $0xc,%esp
    2ef1:	89 85 b4 fe ff ff    	mov    %eax,-0x14c(%ebp)
    2ef7:	8d 42 18             	lea    0x18(%edx),%eax
    2efa:	c7 02 00 00 00 00    	movl   $0x0,(%edx)
    2f00:	89 42 18             	mov    %eax,0x18(%edx)
    2f03:	89 42 1c             	mov    %eax,0x1c(%edx)
    2f06:	c7 42 04 00 00 00 00 	movl   $0x0,0x4(%edx)
    2f0d:	c7 42 08 00 00 00 00 	movl   $0x0,0x8(%edx)
    2f14:	c7 42 0c 00 00 00 00 	movl   $0x0,0xc(%edx)
    2f1b:	89 95 b0 fe ff ff    	mov    %edx,-0x150(%ebp)
    2f21:	68 70 91 02 00       	push   $0x29170
    2f26:	e8 a5 5c 00 00       	call   8bd0 <fibril_mutex_lock>
    2f2b:	a1 80 98 02 00       	mov    0x29880,%eax
    2f30:	c7 04 24 70 91 02 00 	movl   $0x29170,(%esp)
    2f37:	40                   	inc    %eax
    2f38:	a3 80 98 02 00       	mov    %eax,0x29880
    2f3d:	e8 0e 5e 00 00       	call   8d50 <fibril_mutex_unlock>
    2f42:	8b 95 b0 fe ff ff    	mov    -0x150(%ebp),%edx
    2f48:	a1 80 98 02 00       	mov    0x29880,%eax
    2f4d:	89 42 20             	mov    %eax,0x20(%edx)
    2f50:	c7 42 2c 00 00 00 00 	movl   $0x0,0x2c(%edx)
    2f57:	c7 04 24 98 91 02 00 	movl   $0x29198,(%esp)
    2f5e:	e8 9d 5f 00 00       	call   8f00 <fibril_mutex_is_locked>
    2f63:	83 c4 10             	add    $0x10,%esp
    2f66:	8b 95 b0 fe ff ff    	mov    -0x150(%ebp),%edx
    2f6c:	84 c0                	test   %al,%al
    2f6e:	8b 8d ac fe ff ff    	mov    -0x154(%ebp),%ecx
    2f74:	0f 84 f1 05 00 00    	je     356b <loc_connection_consumer+0xecb>
    2f7a:	8b 41 10             	mov    0x10(%ecx),%eax
    2f7d:	89 4a 24             	mov    %ecx,0x24(%edx)
    2f80:	40                   	inc    %eax
    2f81:	83 ec 0c             	sub    $0xc,%esp
    2f84:	89 41 10             	mov    %eax,0x10(%ecx)
    2f87:	a1 b8 91 02 00       	mov    0x291b8,%eax
    2f8c:	89 02                	mov    %eax,(%edx)
    2f8e:	89 7a 28             	mov    %edi,0x28(%edx)
    2f91:	c7 42 04 b8 91 02 00 	movl   $0x291b8,0x4(%edx)
    2f98:	89 50 04             	mov    %edx,0x4(%eax)
    2f9b:	a1 58 91 02 00       	mov    0x29158,%eax
    2fa0:	8b 8d b4 fe ff ff    	mov    -0x14c(%ebp),%ecx
    2fa6:	c7 42 0c 58 91 02 00 	movl   $0x29158,0xc(%edx)
    2fad:	89 42 08             	mov    %eax,0x8(%edx)
    2fb0:	89 48 04             	mov    %ecx,0x4(%eax)
    2fb3:	68 98 91 02 00       	push   $0x29198
    2fb8:	89 15 b8 91 02 00    	mov    %edx,0x291b8
    2fbe:	89 0d 58 91 02 00    	mov    %ecx,0x29158
    2fc4:	89 14 9d 80 94 02 00 	mov    %edx,0x29480(,%ebx,4)
    2fcb:	e8 80 5d 00 00       	call   8d50 <fibril_mutex_unlock>
    2fd0:	c7 04 24 60 91 02 00 	movl   $0x29160,(%esp)
    2fd7:	e8 74 5d 00 00       	call   8d50 <fibril_mutex_unlock>
    2fdc:	83 c4 0c             	add    $0xc,%esp
    2fdf:	53                   	push   %ebx
    2fe0:	6a 00                	push   $0x0
    2fe2:	56                   	push   %esi
    2fe3:	e8 18 47 01 00       	call   17700 <async_answer_1>
    2fe8:	83 c4 10             	add    $0x10,%esp
    2feb:	e9 d0 f6 ff ff       	jmp    26c0 <loc_connection_consumer+0x20>
    2ff0:	83 ec 0c             	sub    $0xc,%esp
    2ff3:	68 98 91 02 00       	push   $0x29198
    2ff8:	e8 d3 5b 00 00       	call   8bd0 <fibril_mutex_lock>
    2ffd:	c7 04 24 b0 91 02 00 	movl   $0x291b0,(%esp)
    3004:	e8 e7 74 01 00       	call   1a4f0 <list_count>
    3009:	83 c4 0c             	add    $0xc,%esp
    300c:	50                   	push   %eax
    300d:	6a 00                	push   $0x0
    300f:	56                   	push   %esi
    3010:	e8 eb 46 01 00       	call   17700 <async_answer_1>
    3015:	c7 04 24 98 91 02 00 	movl   $0x29198,(%esp)
    301c:	e8 2f 5d 00 00       	call   8d50 <fibril_mutex_unlock>
    3021:	83 c4 10             	add    $0x10,%esp
    3024:	e9 97 f6 ff ff       	jmp    26c0 <loc_connection_consumer+0x20>
    3029:	8d b4 26 00 00 00 00 	lea    0x0(%esi,%eiz,1),%esi
    3030:	8d 85 e8 fe ff ff    	lea    -0x118(%ebp),%eax
    3036:	53                   	push   %ebx
    3037:	53                   	push   %ebx
    3038:	50                   	push   %eax
    3039:	8d 85 c0 fe ff ff    	lea    -0x140(%ebp),%eax
    303f:	50                   	push   %eax
    3040:	e8 fb 5d 01 00       	call   18e40 <async_data_read_receive>
    3045:	83 c4 10             	add    $0x10,%esp
    3048:	84 c0                	test   %al,%al
    304a:	0f 85 18 01 00 00    	jne    3168 <loc_connection_consumer+0xac8>
    3050:	53                   	push   %ebx
    3051:	53                   	push   %ebx
    3052:	6a fc                	push   $0xfffffffc
    3054:	8b 8d c0 fe ff ff    	mov    -0x140(%ebp),%ecx
    305a:	51                   	push   %ecx
    305b:	e8 80 46 01 00       	call   176e0 <async_answer_0>
    3060:	58                   	pop    %eax
    3061:	5a                   	pop    %edx
    3062:	6a fc                	push   $0xfffffffc
    3064:	56                   	push   %esi
    3065:	e8 76 46 01 00       	call   176e0 <async_answer_0>
    306a:	83 c4 10             	add    $0x10,%esp
    306d:	e9 4e f6 ff ff       	jmp    26c0 <loc_connection_consumer+0x20>
    3072:	8d b6 00 00 00 00    	lea    0x0(%esi),%esi
    3078:	8d 85 e8 fe ff ff    	lea    -0x118(%ebp),%eax
    307e:	51                   	push   %ecx
    307f:	51                   	push   %ecx
    3080:	6a 00                	push   $0x0
    3082:	6a 00                	push   $0x0
    3084:	68 ff 00 00 00       	push   $0xff
    3089:	6a 00                	push   $0x0
    308b:	6a 01                	push   $0x1
    308d:	50                   	push   %eax
    308e:	e8 bd 62 01 00       	call   19350 <async_data_write_accept>
    3093:	83 c4 20             	add    $0x20,%esp
    3096:	85 c0                	test   %eax,%eax
    3098:	0f 85 32 01 00 00    	jne    31d0 <loc_connection_consumer+0xb30>
    309e:	83 ec 0c             	sub    $0xc,%esp
    30a1:	68 60 94 02 00       	push   $0x29460
    30a6:	e8 25 5b 00 00       	call   8bd0 <fibril_mutex_lock>
    30ab:	5f                   	pop    %edi
    30ac:	58                   	pop    %eax
    30ad:	8b 85 e8 fe ff ff    	mov    -0x118(%ebp),%eax
    30b3:	50                   	push   %eax
    30b4:	68 60 94 02 00       	push   $0x29460
    30b9:	e8 72 e3 ff ff       	call   1430 <category_find_by_name>
    30be:	83 c4 10             	add    $0x10,%esp
    30c1:	85 c0                	test   %eax,%eax
    30c3:	0f 84 ce 03 00 00    	je     3497 <loc_connection_consumer+0xdf7>
    30c9:	52                   	push   %edx
    30ca:	8b 48 10             	mov    0x10(%eax),%ecx
    30cd:	51                   	push   %ecx
    30ce:	6a 00                	push   $0x0
    30d0:	56                   	push   %esi
    30d1:	e8 2a 46 01 00       	call   17700 <async_answer_1>
    30d6:	83 c4 10             	add    $0x10,%esp
    30d9:	83 ec 0c             	sub    $0xc,%esp
    30dc:	68 60 94 02 00       	push   $0x29460
    30e1:	e8 6a 5c 00 00       	call   8d50 <fibril_mutex_unlock>
    30e6:	8b bd e8 fe ff ff    	mov    -0x118(%ebp),%edi
    30ec:	5e                   	pop    %esi
    30ed:	57                   	push   %edi
    30ee:	e8 4d 05 01 00       	call   13640 <free>
    30f3:	83 c4 10             	add    $0x10,%esp
    30f6:	e9 c5 f5 ff ff       	jmp    26c0 <loc_connection_consumer+0x20>
    30fb:	90                   	nop
    30fc:	8d 74 26 00          	lea    0x0(%esi,%eiz,1),%esi
    3100:	8b 85 bc fe ff ff    	mov    -0x144(%ebp),%eax
    3106:	57                   	push   %edi
    3107:	57                   	push   %edi
    3108:	6a fc                	push   $0xfffffffc
    310a:	50                   	push   %eax
    310b:	e9 4b ff ff ff       	jmp    305b <loc_connection_consumer+0x9bb>
    3110:	8d 65 f4             	lea    -0xc(%ebp),%esp
    3113:	5b                   	pop    %ebx
    3114:	5e                   	pop    %esi
    3115:	5f                   	pop    %edi
    3116:	5d                   	pop    %ebp
    3117:	c3                   	ret    
    3118:	51                   	push   %ecx
    3119:	51                   	push   %ecx
    311a:	6a ff                	push   $0xffffffff
    311c:	56                   	push   %esi
    311d:	e8 be 45 01 00       	call   176e0 <async_answer_0>
    3122:	83 c4 10             	add    $0x10,%esp
    3125:	e9 96 f5 ff ff       	jmp    26c0 <loc_connection_consumer+0x20>
    312a:	8d b6 00 00 00 00    	lea    0x0(%esi),%esi
    3130:	52                   	push   %edx
    3131:	8b 48 10             	mov    0x10(%eax),%ecx
    3134:	51                   	push   %ecx
    3135:	6a 00                	push   $0x0
    3137:	56                   	push   %esi
    3138:	e8 c3 45 01 00       	call   17700 <async_answer_1>
    313d:	83 c4 10             	add    $0x10,%esp
    3140:	83 ec 0c             	sub    $0xc,%esp
    3143:	68 98 91 02 00       	push   $0x29198
    3148:	e8 03 5c 00 00       	call   8d50 <fibril_mutex_unlock>
    314d:	83 c4 10             	add    $0x10,%esp
    3150:	e9 6b f5 ff ff       	jmp    26c0 <loc_connection_consumer+0x20>
    3155:	8d 76 00             	lea    0x0(%esi),%esi
    3158:	51                   	push   %ecx
    3159:	6a 01                	push   $0x1
    315b:	6a 00                	push   $0x0
    315d:	56                   	push   %esi
    315e:	e8 9d 45 01 00       	call   17700 <async_answer_1>
    3163:	83 c4 10             	add    $0x10,%esp
    3166:	eb d8                	jmp    3140 <loc_connection_consumer+0xaa0>
    3168:	83 ec 0c             	sub    $0xc,%esp
    316b:	68 60 94 02 00       	push   $0x29460
    3170:	e8 5b 5a 00 00       	call   8bd0 <fibril_mutex_lock>
    3175:	8b 8d c8 fe ff ff    	mov    -0x138(%ebp),%ecx
    317b:	58                   	pop    %eax
    317c:	5a                   	pop    %edx
    317d:	51                   	push   %ecx
    317e:	68 60 94 02 00       	push   $0x29460
    3183:	e8 48 e2 ff ff       	call   13d0 <category_get>
    3188:	83 c4 10             	add    $0x10,%esp
    318b:	89 c3                	mov    %eax,%ebx
    318d:	85 c0                	test   %eax,%eax
    318f:	0f 84 2d 03 00 00    	je     34c2 <loc_connection_consumer+0xe22>
    3195:	83 ec 0c             	sub    $0xc,%esp
    3198:	8b 78 14             	mov    0x14(%eax),%edi
    319b:	57                   	push   %edi
    319c:	e8 6f 0e 00 00       	call   4010 <str_size>
    31a1:	83 c4 10             	add    $0x10,%esp
    31a4:	3b 85 e8 fe ff ff    	cmp    -0x118(%ebp),%eax
    31aa:	0f 86 21 01 00 00    	jbe    32d1 <loc_connection_consumer+0xc31>
    31b0:	83 ec 0c             	sub    $0xc,%esp
    31b3:	68 60 94 02 00       	push   $0x29460
    31b8:	e9 b0 f5 ff ff       	jmp    276d <loc_connection_consumer+0xcd>
    31bd:	8d 76 00             	lea    0x0(%esi),%esi
    31c0:	50                   	push   %eax
    31c1:	50                   	push   %eax
    31c2:	8b 85 b8 fe ff ff    	mov    -0x148(%ebp),%eax
    31c8:	6a fc                	push   $0xfffffffc
    31ca:	50                   	push   %eax
    31cb:	e9 8b fe ff ff       	jmp    305b <loc_connection_consumer+0x9bb>
    31d0:	52                   	push   %edx
    31d1:	52                   	push   %edx
    31d2:	50                   	push   %eax
    31d3:	56                   	push   %esi
    31d4:	e8 07 45 01 00       	call   176e0 <async_answer_0>
    31d9:	83 c4 10             	add    $0x10,%esp
    31dc:	e9 df f4 ff ff       	jmp    26c0 <loc_connection_consumer+0x20>
    31e1:	8d b4 26 00 00 00 00 	lea    0x0(%esi,%eiz,1),%esi
    31e8:	50                   	push   %eax
    31e9:	50                   	push   %eax
    31ea:	6a fd                	push   $0xfffffffd
    31ec:	56                   	push   %esi
    31ed:	e8 ee 44 01 00       	call   176e0 <async_answer_0>
    31f2:	83 c4 10             	add    $0x10,%esp
    31f5:	e9 c6 f4 ff ff       	jmp    26c0 <loc_connection_consumer+0x20>
    31fa:	8d b6 00 00 00 00    	lea    0x0(%esi),%esi
    3200:	51                   	push   %ecx
    3201:	51                   	push   %ecx
    3202:	8b 85 c0 fe ff ff    	mov    -0x140(%ebp),%eax
    3208:	6a f2                	push   $0xfffffff2
    320a:	50                   	push   %eax
    320b:	e8 d0 44 01 00       	call   176e0 <async_answer_0>
    3210:	58                   	pop    %eax
    3211:	5a                   	pop    %edx
    3212:	6a f2                	push   $0xfffffff2
    3214:	56                   	push   %esi
    3215:	e8 c6 44 01 00       	call   176e0 <async_answer_0>
    321a:	83 c4 10             	add    $0x10,%esp
    321d:	e9 9e f4 ff ff       	jmp    26c0 <loc_connection_consumer+0x20>
    3222:	8d b6 00 00 00 00    	lea    0x0(%esi),%esi
    3228:	83 ec 0c             	sub    $0xc,%esp
    322b:	68 60 91 02 00       	push   $0x29160
    3230:	e8 1b 5b 00 00       	call   8d50 <fibril_mutex_unlock>
    3235:	58                   	pop    %eax
    3236:	5a                   	pop    %edx
    3237:	6a fe                	push   $0xfffffffe
    3239:	56                   	push   %esi
    323a:	e8 a1 44 01 00       	call   176e0 <async_answer_0>
    323f:	83 c4 10             	add    $0x10,%esp
    3242:	e9 79 f4 ff ff       	jmp    26c0 <loc_connection_consumer+0x20>
    3247:	90                   	nop
    3248:	8b 43 2c             	mov    0x2c(%ebx),%eax
    324b:	85 c0                	test   %eax,%eax
    324d:	0f 84 ba 02 00 00    	je     350d <loc_connection_consumer+0xe6d>
    3253:	83 ec 0c             	sub    $0xc,%esp
    3256:	8b 78 14             	mov    0x14(%eax),%edi
    3259:	57                   	push   %edi
    325a:	e8 b1 0d 00 00       	call   4010 <str_size>
    325f:	83 c4 10             	add    $0x10,%esp
    3262:	3b 85 e8 fe ff ff    	cmp    -0x118(%ebp),%eax
    3268:	0f 87 f7 f4 ff ff    	ja     2765 <loc_connection_consumer+0xc5>
    326e:	52                   	push   %edx
    326f:	50                   	push   %eax
    3270:	8b 43 2c             	mov    0x2c(%ebx),%eax
    3273:	8b 9d c0 fe ff ff    	mov    -0x140(%ebp),%ebx
    3279:	8b 48 14             	mov    0x14(%eax),%ecx
    327c:	51                   	push   %ecx
    327d:	53                   	push   %ebx
    327e:	e8 9d 5c 01 00       	call   18f20 <async_data_read_finalize>
    3283:	89 c3                	mov    %eax,%ebx
    3285:	e9 60 f9 ff ff       	jmp    2bea <loc_connection_consumer+0x54a>
    328a:	83 ec 0c             	sub    $0xc,%esp
    328d:	68 60 94 02 00       	push   $0x29460
    3292:	e8 b9 5a 00 00       	call   8d50 <fibril_mutex_unlock>
    3297:	83 c4 0c             	add    $0xc,%esp
    329a:	8b 85 c0 fe ff ff    	mov    -0x140(%ebp),%eax
    32a0:	50                   	push   %eax
    32a1:	8b 85 bc fe ff ff    	mov    -0x144(%ebp),%eax
    32a7:	53                   	push   %ebx
    32a8:	50                   	push   %eax
    32a9:	e8 72 5c 01 00       	call   18f20 <async_data_read_finalize>
    32ae:	89 1c 24             	mov    %ebx,(%esp)
    32b1:	89 c7                	mov    %eax,%edi
    32b3:	e8 88 03 01 00       	call   13640 <free>
    32b8:	83 c4 0c             	add    $0xc,%esp
    32bb:	8b 85 e8 fe ff ff    	mov    -0x118(%ebp),%eax
    32c1:	50                   	push   %eax
    32c2:	57                   	push   %edi
    32c3:	56                   	push   %esi
    32c4:	e8 37 44 01 00       	call   17700 <async_answer_1>
    32c9:	83 c4 10             	add    $0x10,%esp
    32cc:	e9 ef f3 ff ff       	jmp    26c0 <loc_connection_consumer+0x20>
    32d1:	52                   	push   %edx
    32d2:	50                   	push   %eax
    32d3:	8b 4b 14             	mov    0x14(%ebx),%ecx
    32d6:	8b 9d c0 fe ff ff    	mov    -0x140(%ebp),%ebx
    32dc:	51                   	push   %ecx
    32dd:	53                   	push   %ebx
    32de:	e8 3d 5c 01 00       	call   18f20 <async_data_read_finalize>
    32e3:	c7 04 24 60 94 02 00 	movl   $0x29460,(%esp)
    32ea:	89 c3                	mov    %eax,%ebx
    32ec:	e9 00 f9 ff ff       	jmp    2bf1 <loc_connection_consumer+0x551>
    32f1:	83 ec 0c             	sub    $0xc,%esp
    32f4:	53                   	push   %ebx
    32f5:	e8 56 5a 00 00       	call   8d50 <fibril_mutex_unlock>
    32fa:	c7 04 24 60 94 02 00 	movl   $0x29460,(%esp)
    3301:	e8 4a 5a 00 00       	call   8d50 <fibril_mutex_unlock>
    3306:	83 c4 0c             	add    $0xc,%esp
    3309:	8b 85 c0 fe ff ff    	mov    -0x140(%ebp),%eax
    330f:	50                   	push   %eax
    3310:	8b 85 bc fe ff ff    	mov    -0x144(%ebp),%eax
    3316:	57                   	push   %edi
    3317:	50                   	push   %eax
    3318:	e8 03 5c 01 00       	call   18f20 <async_data_read_finalize>
    331d:	89 3c 24             	mov    %edi,(%esp)
    3320:	89 c3                	mov    %eax,%ebx
    3322:	e8 19 03 01 00       	call   13640 <free>
    3327:	83 c4 0c             	add    $0xc,%esp
    332a:	8b 85 e8 fe ff ff    	mov    -0x118(%ebp),%eax
    3330:	50                   	push   %eax
    3331:	53                   	push   %ebx
    3332:	56                   	push   %esi
    3333:	e8 c8 43 01 00       	call   17700 <async_answer_1>
    3338:	83 c4 10             	add    $0x10,%esp
    333b:	e9 80 f3 ff ff       	jmp    26c0 <loc_connection_consumer+0x20>
    3340:	83 ec 0c             	sub    $0xc,%esp
    3343:	68 98 91 02 00       	push   $0x29198
    3348:	e8 03 5a 00 00       	call   8d50 <fibril_mutex_unlock>
    334d:	5f                   	pop    %edi
    334e:	58                   	pop    %eax
    334f:	8b 85 b8 fe ff ff    	mov    -0x148(%ebp),%eax
    3355:	6a fe                	push   $0xfffffffe
    3357:	50                   	push   %eax
    3358:	e8 83 43 01 00       	call   176e0 <async_answer_0>
    335d:	e9 d3 fe ff ff       	jmp    3235 <loc_connection_consumer+0xb95>
    3362:	83 ec 0c             	sub    $0xc,%esp
    3365:	8b 9d e8 fe ff ff    	mov    -0x118(%ebp),%ebx
    336b:	53                   	push   %ebx
    336c:	e8 1f 01 01 00       	call   13490 <malloc>
    3371:	83 c4 10             	add    $0x10,%esp
    3374:	89 85 b4 fe ff ff    	mov    %eax,-0x14c(%ebp)
    337a:	85 c0                	test   %eax,%eax
    337c:	0f 84 b1 01 00 00    	je     3533 <loc_connection_consumer+0xe93>
    3382:	8b 1d b4 91 02 00    	mov    0x291b4,%ebx
    3388:	81 fb b0 91 02 00    	cmp    $0x291b0,%ebx
    338e:	74 32                	je     33c2 <loc_connection_consumer+0xd22>
    3390:	8d 78 04             	lea    0x4(%eax),%edi
    3393:	90                   	nop
    3394:	8d 74 26 00          	lea    0x0(%esi,%eiz,1),%esi
    3398:	8b 43 08             	mov    0x8(%ebx),%eax
    339b:	89 47 fc             	mov    %eax,-0x4(%edi)
    339e:	50                   	push   %eax
    339f:	8b 43 0c             	mov    0xc(%ebx),%eax
    33a2:	50                   	push   %eax
    33a3:	68 ff 00 00 00       	push   $0xff
    33a8:	57                   	push   %edi
    33a9:	e8 22 1c 00 00       	call   4fd0 <str_cpy>
    33ae:	8b 5b 04             	mov    0x4(%ebx),%ebx
    33b1:	81 c7 04 01 00 00    	add    $0x104,%edi
    33b7:	83 c4 10             	add    $0x10,%esp
    33ba:	81 fb b0 91 02 00    	cmp    $0x291b0,%ebx
    33c0:	75 d6                	jne    3398 <loc_connection_consumer+0xcf8>
    33c2:	8b 85 e8 fe ff ff    	mov    -0x118(%ebp),%eax
    33c8:	57                   	push   %edi
    33c9:	8b bd b4 fe ff ff    	mov    -0x14c(%ebp),%edi
    33cf:	50                   	push   %eax
    33d0:	e9 fe f7 ff ff       	jmp    2bd3 <loc_connection_consumer+0x533>
    33d5:	83 ec 0c             	sub    $0xc,%esp
    33d8:	53                   	push   %ebx
    33d9:	e8 62 02 01 00       	call   13640 <free>
    33de:	e9 52 fe ff ff       	jmp    3235 <loc_connection_consumer+0xb95>
    33e3:	90                   	nop
    33e4:	8d 74 26 00          	lea    0x0(%esi,%eiz,1),%esi
    33e8:	89 ca                	mov    %ecx,%edx
    33ea:	89 8d b0 fe ff ff    	mov    %ecx,-0x150(%ebp)
    33f0:	c1 e2 06             	shl    $0x6,%edx
    33f3:	89 85 b4 fe ff ff    	mov    %eax,-0x14c(%ebp)
    33f9:	01 ca                	add    %ecx,%edx
    33fb:	8b 48 20             	mov    0x20(%eax),%ecx
    33fe:	8d 14 97             	lea    (%edi,%edx,4),%edx
    3401:	83 c2 04             	add    $0x4,%edx
    3404:	89 4a fc             	mov    %ecx,-0x4(%edx)
    3407:	51                   	push   %ecx
    3408:	8b 48 28             	mov    0x28(%eax),%ecx
    340b:	51                   	push   %ecx
    340c:	68 ff 00 00 00       	push   $0xff
    3411:	52                   	push   %edx
    3412:	e8 b9 1b 00 00       	call   4fd0 <str_cpy>
    3417:	8b 8d b0 fe ff ff    	mov    -0x150(%ebp),%ecx
    341d:	83 c4 10             	add    $0x10,%esp
    3420:	41                   	inc    %ecx
    3421:	8b 85 b4 fe ff ff    	mov    -0x14c(%ebp),%eax
    3427:	e9 95 f7 ff ff       	jmp    2bc1 <loc_connection_consumer+0x521>
    342c:	83 ec 0c             	sub    $0xc,%esp
    342f:	68 60 94 02 00       	push   $0x29460
    3434:	e8 17 59 00 00       	call   8d50 <fibril_mutex_unlock>
    3439:	8b 8d bc fe ff ff    	mov    -0x144(%ebp),%ecx
    343f:	58                   	pop    %eax
    3440:	5a                   	pop    %edx
    3441:	6a fe                	push   $0xfffffffe
    3443:	51                   	push   %ecx
    3444:	e8 97 42 01 00       	call   176e0 <async_answer_0>
    3449:	e9 e7 fd ff ff       	jmp    3235 <loc_connection_consumer+0xb95>
    344e:	53                   	push   %ebx
    344f:	6a 02                	push   $0x2
    3451:	6a 00                	push   $0x0
    3453:	56                   	push   %esi
    3454:	e8 a7 42 01 00       	call   17700 <async_answer_1>
    3459:	83 c4 10             	add    $0x10,%esp
    345c:	e9 df fc ff ff       	jmp    3140 <loc_connection_consumer+0xaa0>
    3461:	8b 9d b8 fe ff ff    	mov    -0x148(%ebp),%ebx
    3467:	8b 8d e8 fe ff ff    	mov    -0x118(%ebp),%ecx
    346d:	52                   	push   %edx
    346e:	50                   	push   %eax
    346f:	51                   	push   %ecx
    3470:	53                   	push   %ebx
    3471:	e8 aa 5a 01 00       	call   18f20 <async_data_read_finalize>
    3476:	5f                   	pop    %edi
    3477:	89 c3                	mov    %eax,%ebx
    3479:	8b 85 e8 fe ff ff    	mov    -0x118(%ebp),%eax
    347f:	50                   	push   %eax
    3480:	e9 60 f7 ff ff       	jmp    2be5 <loc_connection_consumer+0x545>
    3485:	53                   	push   %ebx
    3486:	53                   	push   %ebx
    3487:	6a fe                	push   $0xfffffffe
    3489:	56                   	push   %esi
    348a:	e8 51 42 01 00       	call   176e0 <async_answer_0>
    348f:	83 c4 10             	add    $0x10,%esp
    3492:	e9 29 f2 ff ff       	jmp    26c0 <loc_connection_consumer+0x20>
    3497:	53                   	push   %ebx
    3498:	53                   	push   %ebx
    3499:	6a ff                	push   $0xffffffff
    349b:	56                   	push   %esi
    349c:	e8 3f 42 01 00       	call   176e0 <async_answer_0>
    34a1:	83 c4 10             	add    $0x10,%esp
    34a4:	e9 30 fc ff ff       	jmp    30d9 <loc_connection_consumer+0xa39>
    34a9:	83 ec 0c             	sub    $0xc,%esp
    34ac:	68 98 91 02 00       	push   $0x29198
    34b1:	e8 1a 57 00 00       	call   8bd0 <fibril_mutex_lock>
    34b6:	c7 04 24 60 91 02 00 	movl   $0x29160,(%esp)
    34bd:	e9 6e fd ff ff       	jmp    3230 <loc_connection_consumer+0xb90>
    34c2:	83 ec 0c             	sub    $0xc,%esp
    34c5:	68 60 94 02 00       	push   $0x29460
    34ca:	e9 bd f7 ff ff       	jmp    2c8c <loc_connection_consumer+0x5ec>
    34cf:	83 ec 0c             	sub    $0xc,%esp
    34d2:	68 60 94 02 00       	push   $0x29460
    34d7:	e8 74 58 00 00       	call   8d50 <fibril_mutex_unlock>
    34dc:	8b 8d bc fe ff ff    	mov    -0x144(%ebp),%ecx
    34e2:	58                   	pop    %eax
    34e3:	5a                   	pop    %edx
    34e4:	6a ff                	push   $0xffffffff
    34e6:	51                   	push   %ecx
    34e7:	e9 b0 f7 ff ff       	jmp    2c9c <loc_connection_consumer+0x5fc>
    34ec:	8d 74 26 00          	lea    0x0(%esi,%eiz,1),%esi
    34f0:	83 ec 0c             	sub    $0xc,%esp
    34f3:	68 98 91 02 00       	push   $0x29198
    34f8:	e8 53 58 00 00       	call   8d50 <fibril_mutex_unlock>
    34fd:	8b 85 b8 fe ff ff    	mov    -0x148(%ebp),%eax
    3503:	5b                   	pop    %ebx
    3504:	5f                   	pop    %edi
    3505:	6a ff                	push   $0xffffffff
    3507:	50                   	push   %eax
    3508:	e9 8f f7 ff ff       	jmp    2c9c <loc_connection_consumer+0x5fc>
    350d:	83 ec 0c             	sub    $0xc,%esp
    3510:	68 98 91 02 00       	push   $0x29198
    3515:	e8 36 58 00 00       	call   8d50 <fibril_mutex_unlock>
    351a:	58                   	pop    %eax
    351b:	5a                   	pop    %edx
    351c:	e9 e1 fc ff ff       	jmp    3202 <loc_connection_consumer+0xb62>
    3521:	83 ec 0c             	sub    $0xc,%esp
    3524:	68 60 91 02 00       	push   $0x29160
    3529:	e8 22 58 00 00       	call   8d50 <fibril_mutex_unlock>
    352e:	e9 6e f7 ff ff       	jmp    2ca1 <loc_connection_consumer+0x601>
    3533:	83 ec 0c             	sub    $0xc,%esp
    3536:	68 98 91 02 00       	push   $0x29198
    353b:	e8 10 58 00 00       	call   8d50 <fibril_mutex_unlock>
    3540:	8b 8d c0 fe ff ff    	mov    -0x140(%ebp),%ecx
    3546:	58                   	pop    %eax
    3547:	5a                   	pop    %edx
    3548:	6a fe                	push   $0xfffffffe
    354a:	51                   	push   %ecx
    354b:	e8 90 41 01 00       	call   176e0 <async_answer_0>
    3550:	e9 e0 fc ff ff       	jmp    3235 <loc_connection_consumer+0xb95>
    3555:	83 ec 0c             	sub    $0xc,%esp
    3558:	68 98 91 02 00       	push   $0x29198
    355d:	e8 ee 57 00 00       	call   8d50 <fibril_mutex_unlock>
    3562:	5b                   	pop    %ebx
    3563:	5f                   	pop    %edi
    3564:	6a fe                	push   $0xfffffffe
    3566:	e9 e9 fa ff ff       	jmp    3054 <loc_connection_consumer+0x9b4>
    356b:	50                   	push   %eax
    356c:	68 24 01 00 00       	push   $0x124
    3571:	68 ba 58 02 00       	push   $0x258ba
    3576:	68 60 58 02 00       	push   $0x25860
    357b:	e8 f0 c0 01 00       	call   1f670 <assert_abort>
    3580:	50                   	push   %eax
    3581:	68 c9 00 00 00       	push   $0xc9
    3586:	68 ba 58 02 00       	push   $0x258ba
    358b:	68 60 58 02 00       	push   $0x25860
    3590:	e8 db c0 01 00       	call   1f670 <assert_abort>
    3595:	50                   	push   %eax
    3596:	68 e9 00 00 00       	push   $0xe9
    359b:	68 ba 58 02 00       	push   $0x258ba
    35a0:	68 60 58 02 00       	push   $0x25860
    35a5:	e8 c6 c0 01 00       	call   1f670 <assert_abort>
    35aa:	8d b6 00 00 00 00    	lea    0x0(%esi),%esi

000035b0 <loc_create_id>:
    35b0:	55                   	push   %ebp
    35b1:	89 e5                	mov    %esp,%ebp
    35b3:	83 ec 14             	sub    $0x14,%esp
    35b6:	68 70 91 02 00       	push   $0x29170
    35bb:	e8 10 56 00 00       	call   8bd0 <fibril_mutex_lock>
    35c0:	a1 80 98 02 00       	mov    0x29880,%eax
    35c5:	c7 04 24 70 91 02 00 	movl   $0x29170,(%esp)
    35cc:	40                   	inc    %eax
    35cd:	a3 80 98 02 00       	mov    %eax,0x29880
    35d2:	e8 79 57 00 00       	call   8d50 <fibril_mutex_unlock>
    35d7:	a1 80 98 02 00       	mov    0x29880,%eax
    35dc:	c9                   	leave  
    35dd:	c3                   	ret    
    35de:	66 90                	xchg   %ax,%ax

000035e0 <loc_category_change_event>:
    35e0:	55                   	push   %ebp
    35e1:	89 e5                	mov    %esp,%ebp
    35e3:	56                   	push   %esi
    35e4:	53                   	push   %ebx
    35e5:	83 ec 0c             	sub    $0xc,%esp
    35e8:	68 48 91 02 00       	push   $0x29148
    35ed:	e8 de 55 00 00       	call   8bd0 <fibril_mutex_lock>
    35f2:	8b 1d 44 91 02 00    	mov    0x29144,%ebx
    35f8:	83 c4 10             	add    $0x10,%esp
    35fb:	81 fb 40 91 02 00    	cmp    $0x29140,%ebx
    3601:	74 36                	je     3639 <loc_category_change_event+0x59>
    3603:	90                   	nop
    3604:	8d 74 26 00          	lea    0x0(%esi,%eiz,1),%esi
    3608:	83 ec 0c             	sub    $0xc,%esp
    360b:	8b 43 08             	mov    0x8(%ebx),%eax
    360e:	50                   	push   %eax
    360f:	e8 1c 4d 01 00       	call   18330 <async_exchange_begin>
    3614:	5a                   	pop    %edx
    3615:	89 c6                	mov    %eax,%esi
    3617:	59                   	pop    %ecx
    3618:	68 00 04 00 00       	push   $0x400
    361d:	50                   	push   %eax
    361e:	e8 6d 3f 01 00       	call   17590 <async_msg_0>
    3623:	89 34 24             	mov    %esi,(%esp)
    3626:	e8 f5 4f 01 00       	call   18620 <async_exchange_end>
    362b:	8b 5b 04             	mov    0x4(%ebx),%ebx
    362e:	83 c4 10             	add    $0x10,%esp
    3631:	81 fb 40 91 02 00    	cmp    $0x29140,%ebx
    3637:	75 cf                	jne    3608 <loc_category_change_event+0x28>
    3639:	83 ec 0c             	sub    $0xc,%esp
    363c:	68 48 91 02 00       	push   $0x29148
    3641:	e8 0a 57 00 00       	call   8d50 <fibril_mutex_unlock>
    3646:	8d 65 f8             	lea    -0x8(%ebp),%esp
    3649:	5b                   	pop    %ebx
    364a:	5e                   	pop    %esi
    364b:	5d                   	pop    %ebp
    364c:	c3                   	ret    
    364d:	66 90                	xchg   %ax,%ax
    364f:	90                   	nop

00003650 <main>:
    3650:	8d 4c 24 04          	lea    0x4(%esp),%ecx
    3654:	83 e4 f0             	and    $0xfffffff0,%esp
    3657:	ff 71 fc             	pushl  -0x4(%ecx)
    365a:	55                   	push   %ebp
    365b:	89 e5                	mov    %esp,%ebp
    365d:	56                   	push   %esi
    365e:	53                   	push   %ebx
    365f:	51                   	push   %ecx
    3660:	83 ec 24             	sub    $0x24,%esp
    3663:	68 c3 58 02 00       	push   $0x258c3
    3668:	68 d0 58 02 00       	push   $0x258d0
    366d:	e8 3e ae 00 00       	call   e4b0 <printf>
    3672:	b8 80 94 02 00       	mov    $0x29480,%eax
    3677:	83 c4 10             	add    $0x10,%esp
    367a:	8d b6 00 00 00 00    	lea    0x0(%esi),%esi
    3680:	c7 00 00 00 00 00    	movl   $0x0,(%eax)
    3686:	83 c0 04             	add    $0x4,%eax
    3689:	3d 80 98 02 00       	cmp    $0x29880,%eax
    368e:	75 f0                	jne    3680 <main+0x30>
    3690:	83 ec 0c             	sub    $0xc,%esp
    3693:	68 60 94 02 00       	push   $0x29460
    3698:	e8 63 da ff ff       	call   1100 <categ_dir_init>
    369d:	c7 04 24 ee 58 02 00 	movl   $0x258ee,(%esp)
    36a4:	e8 47 db ff ff       	call   11f0 <category_new>
    36a9:	5b                   	pop    %ebx
    36aa:	5e                   	pop    %esi
    36ab:	50                   	push   %eax
    36ac:	68 60 94 02 00       	push   $0x29460
    36b1:	e8 7a da ff ff       	call   1130 <categ_dir_add_cat>
    36b6:	c7 04 24 f3 58 02 00 	movl   $0x258f3,(%esp)
    36bd:	e8 2e db ff ff       	call   11f0 <category_new>
    36c2:	5a                   	pop    %edx
    36c3:	59                   	pop    %ecx
    36c4:	50                   	push   %eax
    36c5:	68 60 94 02 00       	push   $0x29460
    36ca:	e8 61 da ff ff       	call   1130 <categ_dir_add_cat>
    36cf:	c7 04 24 fd 58 02 00 	movl   $0x258fd,(%esp)
    36d6:	e8 15 db ff ff       	call   11f0 <category_new>
    36db:	5b                   	pop    %ebx
    36dc:	5e                   	pop    %esi
    36dd:	50                   	push   %eax
    36de:	68 60 94 02 00       	push   $0x29460
    36e3:	e8 48 da ff ff       	call   1130 <categ_dir_add_cat>
    36e8:	c7 04 24 04 59 02 00 	movl   $0x25904,(%esp)
    36ef:	e8 fc da ff ff       	call   11f0 <category_new>
    36f4:	5a                   	pop    %edx
    36f5:	59                   	pop    %ecx
    36f6:	50                   	push   %eax
    36f7:	68 60 94 02 00       	push   $0x29460
    36fc:	e8 2f da ff ff       	call   1130 <categ_dir_add_cat>
    3701:	c7 04 24 0d 59 02 00 	movl   $0x2590d,(%esp)
    3708:	e8 e3 da ff ff       	call   11f0 <category_new>
    370d:	5b                   	pop    %ebx
    370e:	5e                   	pop    %esi
    370f:	50                   	push   %eax
    3710:	68 60 94 02 00       	push   $0x29460
    3715:	e8 16 da ff ff       	call   1130 <categ_dir_add_cat>
    371a:	c7 04 24 13 59 02 00 	movl   $0x25913,(%esp)
    3721:	e8 ca da ff ff       	call   11f0 <category_new>
    3726:	5a                   	pop    %edx
    3727:	59                   	pop    %ecx
    3728:	50                   	push   %eax
    3729:	68 60 94 02 00       	push   $0x29460
    372e:	e8 fd d9 ff ff       	call   1130 <categ_dir_add_cat>
    3733:	c7 04 24 17 59 02 00 	movl   $0x25917,(%esp)
    373a:	e8 b1 da ff ff       	call   11f0 <category_new>
    373f:	5b                   	pop    %ebx
    3740:	5e                   	pop    %esi
    3741:	50                   	push   %eax
    3742:	68 60 94 02 00       	push   $0x29460
    3747:	e8 e4 d9 ff ff       	call   1130 <categ_dir_add_cat>
    374c:	c7 04 24 1e 59 02 00 	movl   $0x2591e,(%esp)
    3753:	e8 98 da ff ff       	call   11f0 <category_new>
    3758:	5a                   	pop    %edx
    3759:	59                   	pop    %ecx
    375a:	50                   	push   %eax
    375b:	68 60 94 02 00       	push   $0x29460
    3760:	e8 cb d9 ff ff       	call   1130 <categ_dir_add_cat>
    3765:	c7 04 24 24 59 02 00 	movl   $0x25924,(%esp)
    376c:	e8 7f da ff ff       	call   11f0 <category_new>
    3771:	5b                   	pop    %ebx
    3772:	5e                   	pop    %esi
    3773:	50                   	push   %eax
    3774:	68 60 94 02 00       	push   $0x29460
    3779:	e8 b2 d9 ff ff       	call   1130 <categ_dir_add_cat>
    377e:	c7 04 24 2a 59 02 00 	movl   $0x2592a,(%esp)
    3785:	e8 66 da ff ff       	call   11f0 <category_new>
    378a:	5a                   	pop    %edx
    378b:	59                   	pop    %ecx
    378c:	50                   	push   %eax
    378d:	68 60 94 02 00       	push   $0x29460
    3792:	e8 99 d9 ff ff       	call   1130 <categ_dir_add_cat>
    3797:	c7 04 24 30 59 02 00 	movl   $0x25930,(%esp)
    379e:	e8 4d da ff ff       	call   11f0 <category_new>
    37a3:	5b                   	pop    %ebx
    37a4:	5e                   	pop    %esi
    37a5:	50                   	push   %eax
    37a6:	68 60 94 02 00       	push   $0x29460
    37ab:	e8 80 d9 ff ff       	call   1130 <categ_dir_add_cat>
    37b0:	c7 04 24 3a 59 02 00 	movl   $0x2593a,(%esp)
    37b7:	e8 34 da ff ff       	call   11f0 <category_new>
    37bc:	5a                   	pop    %edx
    37bd:	59                   	pop    %ecx
    37be:	50                   	push   %eax
    37bf:	68 60 94 02 00       	push   $0x29460
    37c4:	e8 67 d9 ff ff       	call   1130 <categ_dir_add_cat>
    37c9:	c7 04 24 42 59 02 00 	movl   $0x25942,(%esp)
    37d0:	e8 1b da ff ff       	call   11f0 <category_new>
    37d5:	5b                   	pop    %ebx
    37d6:	5e                   	pop    %esi
    37d7:	50                   	push   %eax
    37d8:	68 60 94 02 00       	push   $0x29460
    37dd:	e8 4e d9 ff ff       	call   1130 <categ_dir_add_cat>
    37e2:	c7 04 24 46 59 02 00 	movl   $0x25946,(%esp)
    37e9:	e8 02 da ff ff       	call   11f0 <category_new>
    37ee:	5a                   	pop    %edx
    37ef:	59                   	pop    %ecx
    37f0:	50                   	push   %eax
    37f1:	68 60 94 02 00       	push   $0x29460
    37f6:	e8 35 d9 ff ff       	call   1130 <categ_dir_add_cat>
    37fb:	c7 04 24 50 59 02 00 	movl   $0x25950,(%esp)
    3802:	e8 e9 d9 ff ff       	call   11f0 <category_new>
    3807:	5b                   	pop    %ebx
    3808:	5e                   	pop    %esi
    3809:	50                   	push   %eax
    380a:	68 60 94 02 00       	push   $0x29460
    380f:	e8 1c d9 ff ff       	call   1130 <categ_dir_add_cat>
    3814:	c7 04 24 5b 59 02 00 	movl   $0x2595b,(%esp)
    381b:	e8 d0 d9 ff ff       	call   11f0 <category_new>
    3820:	5a                   	pop    %edx
    3821:	59                   	pop    %ecx
    3822:	50                   	push   %eax
    3823:	68 60 94 02 00       	push   $0x29460
    3828:	e8 03 d9 ff ff       	call   1130 <categ_dir_add_cat>
    382d:	c7 04 24 64 59 02 00 	movl   $0x25964,(%esp)
    3834:	e8 b7 d9 ff ff       	call   11f0 <category_new>
    3839:	5b                   	pop    %ebx
    383a:	5e                   	pop    %esi
    383b:	8d 75 e4             	lea    -0x1c(%ebp),%esi
    383e:	50                   	push   %eax
    383f:	68 60 94 02 00       	push   $0x29460
    3844:	e8 e7 d8 ff ff       	call   1130 <categ_dir_add_cat>
    3849:	56                   	push   %esi
    384a:	6a 00                	push   $0x0
    384c:	68 60 1d 00 00       	push   $0x1d60
    3851:	68 c1 7e 8f e7       	push   $0xe78f7ec1
    3856:	e8 25 20 01 00       	call   15880 <async_create_port>
    385b:	83 c4 20             	add    $0x20,%esp
    385e:	89 c3                	mov    %eax,%ebx
    3860:	85 c0                	test   %eax,%eax
    3862:	74 0d                	je     3871 <main+0x221>
    3864:	8d 65 f4             	lea    -0xc(%ebp),%esp
    3867:	89 d8                	mov    %ebx,%eax
    3869:	59                   	pop    %ecx
    386a:	5b                   	pop    %ebx
    386b:	5e                   	pop    %esi
    386c:	5d                   	pop    %ebp
    386d:	8d 61 fc             	lea    -0x4(%ecx),%esp
    3870:	c3                   	ret    
    3871:	56                   	push   %esi
    3872:	6a 00                	push   $0x0
    3874:	68 a0 26 00 00       	push   $0x26a0
    3879:	68 c1 7e 8f c7       	push   $0xc78f7ec1
    387e:	e8 fd 1f 01 00       	call   15880 <async_create_port>
    3883:	83 c4 10             	add    $0x10,%esp
    3886:	89 c3                	mov    %eax,%ebx
    3888:	85 c0                	test   %eax,%eax
    388a:	75 d8                	jne    3864 <main+0x214>
    388c:	51                   	push   %ecx
    388d:	51                   	push   %ecx
    388e:	6a 00                	push   $0x0
    3890:	68 70 1c 00 00       	push   $0x1c70
    3895:	e8 06 22 01 00       	call   15aa0 <async_set_fallback_port_handler>
    389a:	c7 04 24 6c 6f 63 20 	movl   $0x20636f6c,(%esp)
    38a1:	e8 8a 0d 01 00       	call   14630 <service_register>
    38a6:	83 c4 10             	add    $0x10,%esp
    38a9:	89 c3                	mov    %eax,%ebx
    38ab:	85 c0                	test   %eax,%eax
    38ad:	75 b5                	jne    3864 <main+0x214>
    38af:	52                   	push   %edx
    38b0:	52                   	push   %edx
    38b1:	68 c3 58 02 00       	push   $0x258c3
    38b6:	68 6e 59 02 00       	push   $0x2596e
    38bb:	e8 f0 ab 00 00       	call   e4b0 <printf>
    38c0:	83 c8 ff             	or     $0xffffffff,%eax
    38c3:	f0 0f c1 05 6c 93 02 	lock xadd %eax,0x2936c
    38ca:	00 
    38cb:	83 c4 10             	add    $0x10,%esp
    38ce:	48                   	dec    %eax
    38cf:	78 0f                	js     38e0 <main+0x290>
    38d1:	83 ec 0c             	sub    $0xc,%esp
    38d4:	6a 03                	push   $0x3
    38d6:	e8 05 48 00 00       	call   80e0 <fibril_switch>
    38db:	83 c4 10             	add    $0x10,%esp
    38de:	eb 84                	jmp    3864 <main+0x214>
    38e0:	50                   	push   %eax
    38e1:	6a 0b                	push   $0xb
    38e3:	6a 00                	push   $0x0
    38e5:	6a 00                	push   $0x0
    38e7:	6a 00                	push   $0x0
    38e9:	6a 00                	push   $0x0
    38eb:	6a 00                	push   $0x0
    38ed:	68 6c 93 02 00       	push   $0x2936c
    38f2:	ff 15 98 93 02 00    	call   *0x29398
    38f8:	83 c4 20             	add    $0x20,%esp
    38fb:	eb d4                	jmp    38d1 <main+0x281>
    38fd:	66 90                	xchg   %ax,%ax
    38ff:	90                   	nop

00003900 <exit>:
    3900:	55                   	push   %ebp
    3901:	89 e5                	mov    %esp,%ebp
    3903:	83 ec 08             	sub    $0x8,%esp
    3906:	80 3d 84 98 02 00 00 	cmpb   $0x0,0x29884
    390d:	75 1a                	jne    3929 <exit+0x29>
    390f:	50                   	push   %eax
    3910:	6a 09                	push   $0x9
    3912:	6a 00                	push   $0x0
    3914:	6a 00                	push   $0x0
    3916:	6a 00                	push   $0x0
    3918:	6a 00                	push   $0x0
    391a:	6a 00                	push   $0x0
    391c:	6a 00                	push   $0x0
    391e:	ff 15 98 93 02 00    	call   *0x29398
    3924:	83 c4 20             	add    $0x20,%esp
    3927:	eb fe                	jmp    3927 <exit+0x27>
    3929:	e8 02 83 00 00       	call   bc30 <__stdio_done>
    392e:	83 ec 0c             	sub    $0xc,%esp
    3931:	8b 55 08             	mov    0x8(%ebp),%edx
    3934:	52                   	push   %edx
    3935:	e8 a6 7d 00 00       	call   b6e0 <task_retval>
    393a:	65 a1 00 00 00 00    	mov    %gs:0x0,%eax
    3940:	59                   	pop    %ecx
    3941:	8b 48 04             	mov    0x4(%eax),%ecx
    3944:	5a                   	pop    %edx
    3945:	6a 00                	push   $0x0
    3947:	51                   	push   %ecx
    3948:	e8 93 46 00 00       	call   7fe0 <fibril_teardown>
    394d:	83 c4 10             	add    $0x10,%esp
    3950:	eb bd                	jmp    390f <exit+0xf>
    3952:	8d b4 26 00 00 00 00 	lea    0x0(%esi,%eiz,1),%esi
    3959:	8d bc 27 00 00 00 00 	lea    0x0(%edi,%eiz,1),%edi

00003960 <abort>:
    3960:	55                   	push   %ebp
    3961:	89 e5                	mov    %esp,%ebp
    3963:	83 ec 0c             	sub    $0xc,%esp
    3966:	6a 09                	push   $0x9
    3968:	6a 00                	push   $0x0
    396a:	6a 00                	push   $0x0
    396c:	6a 00                	push   $0x0
    396e:	6a 00                	push   $0x0
    3970:	6a 00                	push   $0x0
    3972:	6a 01                	push   $0x1
    3974:	ff 15 98 93 02 00    	call   *0x29398
    397a:	83 c4 20             	add    $0x20,%esp
    397d:	eb fe                	jmp    397d <abort+0x1d>
    397f:	90                   	nop

00003980 <__main>:
    3980:	55                   	push   %ebp
    3981:	89 e5                	mov    %esp,%ebp
    3983:	56                   	push   %esi
    3984:	53                   	push   %ebx
    3985:	8b 5d 08             	mov    0x8(%ebp),%ebx
    3988:	e8 c3 f9 00 00       	call   13350 <__malloc_init>
    398d:	89 1d 40 94 02 00    	mov    %ebx,0x29440
    3993:	85 db                	test   %ebx,%ebx
    3995:	74 68                	je     39ff <__main+0x7f>
    3997:	8b 43 18             	mov    0x18(%ebx),%eax
    399a:	85 c0                	test   %eax,%eax
    399c:	74 61                	je     39ff <__main+0x7f>
    399e:	a3 48 94 02 00       	mov    %eax,0x29448
    39a3:	e8 28 45 00 00       	call   7ed0 <fibril_setup>
    39a8:	85 c0                	test   %eax,%eax
    39aa:	74 5c                	je     3a08 <__main+0x88>
    39ac:	8b 40 38             	mov    0x38(%eax),%eax
    39af:	65 a3 00 00 00 00    	mov    %eax,%gs:0x0
    39b5:	e8 b6 2b 01 00       	call   16570 <__async_init>
    39ba:	a1 40 94 02 00       	mov    0x29440,%eax
    39bf:	c6 05 84 98 02 00 01 	movb   $0x1,0x29884
    39c6:	85 c0                	test   %eax,%eax
    39c8:	74 43                	je     3a0d <__main+0x8d>
    39ca:	83 ec 0c             	sub    $0xc,%esp
    39cd:	8b 50 10             	mov    0x10(%eax),%edx
    39d0:	8b 58 08             	mov    0x8(%eax),%ebx
    39d3:	8b 70 0c             	mov    0xc(%eax),%esi
    39d6:	52                   	push   %edx
    39d7:	e8 b4 7f 00 00       	call   b990 <__stdio_init>
    39dc:	a1 40 94 02 00       	mov    0x29440,%eax
    39e1:	59                   	pop    %ecx
    39e2:	8b 40 04             	mov    0x4(%eax),%eax
    39e5:	50                   	push   %eax
    39e6:	e8 d5 af 01 00       	call   1e9c0 <chdir>
    39eb:	83 c4 10             	add    $0x10,%esp
    39ee:	50                   	push   %eax
    39ef:	50                   	push   %eax
    39f0:	56                   	push   %esi
    39f1:	53                   	push   %ebx
    39f2:	e8 59 fc ff ff       	call   3650 <main>
    39f7:	89 04 24             	mov    %eax,(%esp)
    39fa:	e8 01 ff ff ff       	call   3900 <exit>
    39ff:	e8 bc bc 01 00       	call   1f6c0 <rtld_init_static>
    3a04:	85 c0                	test   %eax,%eax
    3a06:	74 9b                	je     39a3 <__main+0x23>
    3a08:	e8 53 ff ff ff       	call   3960 <abort>
    3a0d:	83 ec 0c             	sub    $0xc,%esp
    3a10:	31 f6                	xor    %esi,%esi
    3a12:	31 db                	xor    %ebx,%ebx
    3a14:	6a 00                	push   $0x0
    3a16:	e8 75 7f 00 00       	call   b990 <__stdio_init>
    3a1b:	83 c4 10             	add    $0x10,%esp
    3a1e:	eb ce                	jmp    39ee <__main+0x6e>

00003a20 <_strtoul.constprop.4>:
    3a20:	55                   	push   %ebp
    3a21:	89 e5                	mov    %esp,%ebp
    3a23:	57                   	push   %edi
    3a24:	56                   	push   %esi
    3a25:	53                   	push   %ebx
    3a26:	83 ec 0c             	sub    $0xc,%esp
    3a29:	89 c6                	mov    %eax,%esi
    3a2b:	89 45 e8             	mov    %eax,-0x18(%ebp)
    3a2e:	89 55 ec             	mov    %edx,-0x14(%ebp)
    3a31:	8a 06                	mov    (%esi),%al
    3a33:	3c 09                	cmp    $0x9,%al
    3a35:	7c 10                	jl     3a47 <_strtoul.constprop.4+0x27>
    3a37:	3c 0d                	cmp    $0xd,%al
    3a39:	0f 8e a9 00 00 00    	jle    3ae8 <_strtoul.constprop.4+0xc8>
    3a3f:	3c 20                	cmp    $0x20,%al
    3a41:	0f 84 a1 00 00 00    	je     3ae8 <_strtoul.constprop.4+0xc8>
    3a47:	3c 2d                	cmp    $0x2d,%al
    3a49:	0f 84 11 01 00 00    	je     3b60 <_strtoul.constprop.4+0x140>
    3a4f:	3c 2b                	cmp    $0x2b,%al
    3a51:	0f 94 c0             	sete   %al
    3a54:	25 ff 00 00 00       	and    $0xff,%eax
    3a59:	01 c6                	add    %eax,%esi
    3a5b:	85 c9                	test   %ecx,%ecx
    3a5d:	0f 84 8d 00 00 00    	je     3af0 <_strtoul.constprop.4+0xd0>
    3a63:	83 f9 01             	cmp    $0x1,%ecx
    3a66:	0f 84 e4 00 00 00    	je     3b50 <_strtoul.constprop.4+0x130>
    3a6c:	83 f9 24             	cmp    $0x24,%ecx
    3a6f:	0f 8f db 00 00 00    	jg     3b50 <_strtoul.constprop.4+0x130>
    3a75:	8a 16                	mov    (%esi),%dl
    3a77:	83 f9 10             	cmp    $0x10,%ecx
    3a7a:	0f 84 fb 00 00 00    	je     3b7b <_strtoul.constprop.4+0x15b>
    3a80:	84 d2                	test   %dl,%dl
    3a82:	0f 84 11 01 00 00    	je     3b99 <_strtoul.constprop.4+0x179>
    3a88:	89 f3                	mov    %esi,%ebx
    3a8a:	31 c0                	xor    %eax,%eax
    3a8c:	eb 48                	jmp    3ad6 <_strtoul.constprop.4+0xb6>
    3a8e:	66 90                	xchg   %ax,%ax
    3a90:	83 ea 57             	sub    $0x57,%edx
    3a93:	89 d7                	mov    %edx,%edi
    3a95:	81 e7 ff 00 00 00    	and    $0xff,%edi
    3a9b:	39 cf                	cmp    %ecx,%edi
    3a9d:	0f 8d 82 00 00 00    	jge    3b25 <_strtoul.constprop.4+0x105>
    3aa3:	31 d2                	xor    %edx,%edx
    3aa5:	88 c2                	mov    %al,%dl
    3aa7:	0f af d1             	imul   %ecx,%edx
    3aaa:	c1 e8 08             	shr    $0x8,%eax
    3aad:	01 d7                	add    %edx,%edi
    3aaf:	0f af c1             	imul   %ecx,%eax
    3ab2:	89 7d f0             	mov    %edi,-0x10(%ebp)
    3ab5:	c1 ef 08             	shr    $0x8,%edi
    3ab8:	01 f8                	add    %edi,%eax
    3aba:	3d ff ff ff 00       	cmp    $0xffffff,%eax
    3abf:	0f 87 ab 00 00 00    	ja     3b70 <_strtoul.constprop.4+0x150>
    3ac5:	31 d2                	xor    %edx,%edx
    3ac7:	43                   	inc    %ebx
    3ac8:	c1 e0 08             	shl    $0x8,%eax
    3acb:	8a 55 f0             	mov    -0x10(%ebp),%dl
    3ace:	01 d0                	add    %edx,%eax
    3ad0:	8a 13                	mov    (%ebx),%dl
    3ad2:	84 d2                	test   %dl,%dl
    3ad4:	74 4f                	je     3b25 <_strtoul.constprop.4+0x105>
    3ad6:	80 fa 60             	cmp    $0x60,%dl
    3ad9:	77 b5                	ja     3a90 <_strtoul.constprop.4+0x70>
    3adb:	80 fa 40             	cmp    $0x40,%dl
    3ade:	76 40                	jbe    3b20 <_strtoul.constprop.4+0x100>
    3ae0:	83 ea 37             	sub    $0x37,%edx
    3ae3:	eb ae                	jmp    3a93 <_strtoul.constprop.4+0x73>
    3ae5:	8d 76 00             	lea    0x0(%esi),%esi
    3ae8:	46                   	inc    %esi
    3ae9:	e9 43 ff ff ff       	jmp    3a31 <_strtoul.constprop.4+0x11>
    3aee:	66 90                	xchg   %ax,%ax
    3af0:	8a 16                	mov    (%esi),%dl
    3af2:	b9 0a 00 00 00       	mov    $0xa,%ecx
    3af7:	80 fa 30             	cmp    $0x30,%dl
    3afa:	75 84                	jne    3a80 <_strtoul.constprop.4+0x60>
    3afc:	8a 46 01             	mov    0x1(%esi),%al
    3aff:	83 e0 df             	and    $0xffffffdf,%eax
    3b02:	3c 58                	cmp    $0x58,%al
    3b04:	0f 85 9d 00 00 00    	jne    3ba7 <_strtoul.constprop.4+0x187>
    3b0a:	8a 56 02             	mov    0x2(%esi),%dl
    3b0d:	b9 10 00 00 00       	mov    $0x10,%ecx
    3b12:	83 c6 02             	add    $0x2,%esi
    3b15:	e9 66 ff ff ff       	jmp    3a80 <_strtoul.constprop.4+0x60>
    3b1a:	8d b6 00 00 00 00    	lea    0x0(%esi),%esi
    3b20:	80 fa 39             	cmp    $0x39,%dl
    3b23:	76 23                	jbe    3b48 <_strtoul.constprop.4+0x128>
    3b25:	39 de                	cmp    %ebx,%esi
    3b27:	74 70                	je     3b99 <_strtoul.constprop.4+0x179>
    3b29:	8b 55 ec             	mov    -0x14(%ebp),%edx
    3b2c:	85 d2                	test   %edx,%edx
    3b2e:	74 05                	je     3b35 <_strtoul.constprop.4+0x115>
    3b30:	8b 75 ec             	mov    -0x14(%ebp),%esi
    3b33:	89 1e                	mov    %ebx,(%esi)
    3b35:	39 5d e8             	cmp    %ebx,-0x18(%ebp)
    3b38:	74 16                	je     3b50 <_strtoul.constprop.4+0x130>
    3b3a:	83 c4 0c             	add    $0xc,%esp
    3b3d:	5b                   	pop    %ebx
    3b3e:	5e                   	pop    %esi
    3b3f:	5f                   	pop    %edi
    3b40:	5d                   	pop    %ebp
    3b41:	c3                   	ret    
    3b42:	8d b6 00 00 00 00    	lea    0x0(%esi),%esi
    3b48:	83 ea 30             	sub    $0x30,%edx
    3b4b:	e9 43 ff ff ff       	jmp    3a93 <_strtoul.constprop.4+0x73>
    3b50:	83 c4 0c             	add    $0xc,%esp
    3b53:	31 c0                	xor    %eax,%eax
    3b55:	5b                   	pop    %ebx
    3b56:	5e                   	pop    %esi
    3b57:	5f                   	pop    %edi
    3b58:	5d                   	pop    %ebp
    3b59:	c3                   	ret    
    3b5a:	8d b6 00 00 00 00    	lea    0x0(%esi),%esi
    3b60:	8b 45 08             	mov    0x8(%ebp),%eax
    3b63:	46                   	inc    %esi
    3b64:	c6 00 01             	movb   $0x1,(%eax)
    3b67:	e9 ef fe ff ff       	jmp    3a5b <_strtoul.constprop.4+0x3b>
    3b6c:	8d 74 26 00          	lea    0x0(%esi,%eiz,1),%esi
    3b70:	83 c4 0c             	add    $0xc,%esp
    3b73:	83 c8 ff             	or     $0xffffffff,%eax
    3b76:	5b                   	pop    %ebx
    3b77:	5e                   	pop    %esi
    3b78:	5f                   	pop    %edi
    3b79:	5d                   	pop    %ebp
    3b7a:	c3                   	ret    
    3b7b:	80 fa 30             	cmp    $0x30,%dl
    3b7e:	0f 85 fc fe ff ff    	jne    3a80 <_strtoul.constprop.4+0x60>
    3b84:	8a 46 01             	mov    0x1(%esi),%al
    3b87:	83 e0 df             	and    $0xffffffdf,%eax
    3b8a:	3c 58                	cmp    $0x58,%al
    3b8c:	75 1e                	jne    3bac <_strtoul.constprop.4+0x18c>
    3b8e:	8a 56 02             	mov    0x2(%esi),%dl
    3b91:	83 c6 02             	add    $0x2,%esi
    3b94:	e9 e7 fe ff ff       	jmp    3a80 <_strtoul.constprop.4+0x60>
    3b99:	8b 45 ec             	mov    -0x14(%ebp),%eax
    3b9c:	85 c0                	test   %eax,%eax
    3b9e:	74 b0                	je     3b50 <_strtoul.constprop.4+0x130>
    3ba0:	8b 5d e8             	mov    -0x18(%ebp),%ebx
    3ba3:	31 c0                	xor    %eax,%eax
    3ba5:	eb 89                	jmp    3b30 <_strtoul.constprop.4+0x110>
    3ba7:	b9 08 00 00 00       	mov    $0x8,%ecx
    3bac:	b2 30                	mov    $0x30,%dl
    3bae:	e9 d5 fe ff ff       	jmp    3a88 <_strtoul.constprop.4+0x68>
    3bb3:	8d b6 00 00 00 00    	lea    0x0(%esi),%esi
    3bb9:	8d bc 27 00 00 00 00 	lea    0x0(%edi,%eiz,1),%edi

00003bc0 <str_decode>:
    3bc0:	55                   	push   %ebp
    3bc1:	31 c0                	xor    %eax,%eax
    3bc3:	89 e5                	mov    %esp,%ebp
    3bc5:	57                   	push   %edi
    3bc6:	56                   	push   %esi
    3bc7:	53                   	push   %ebx
    3bc8:	83 ec 08             	sub    $0x8,%esp
    3bcb:	8b 5d 0c             	mov    0xc(%ebp),%ebx
    3bce:	8b 7d 08             	mov    0x8(%ebp),%edi
    3bd1:	8b 13                	mov    (%ebx),%edx
    3bd3:	8d 72 01             	lea    0x1(%edx),%esi
    3bd6:	3b 75 10             	cmp    0x10(%ebp),%esi
    3bd9:	77 13                	ja     3bee <str_decode+0x2e>
    3bdb:	89 33                	mov    %esi,(%ebx)
    3bdd:	8a 04 17             	mov    (%edi,%edx,1),%al
    3be0:	88 c1                	mov    %al,%cl
    3be2:	88 45 ec             	mov    %al,-0x14(%ebp)
    3be5:	89 c8                	mov    %ecx,%eax
    3be7:	83 e0 7f             	and    $0x7f,%eax
    3bea:	84 c9                	test   %cl,%cl
    3bec:	78 0a                	js     3bf8 <str_decode+0x38>
    3bee:	5a                   	pop    %edx
    3bef:	59                   	pop    %ecx
    3bf0:	5b                   	pop    %ebx
    3bf1:	5e                   	pop    %esi
    3bf2:	5f                   	pop    %edi
    3bf3:	5d                   	pop    %ebp
    3bf4:	c3                   	ret    
    3bf5:	8d 76 00             	lea    0x0(%esi),%esi
    3bf8:	88 c8                	mov    %cl,%al
    3bfa:	83 e0 e0             	and    $0xffffffe0,%eax
    3bfd:	3c c0                	cmp    $0xc0,%al
    3bff:	74 27                	je     3c28 <str_decode+0x68>
    3c01:	88 c8                	mov    %cl,%al
    3c03:	83 e0 f0             	and    $0xfffffff0,%eax
    3c06:	3c e0                	cmp    $0xe0,%al
    3c08:	0f 84 8a 00 00 00    	je     3c98 <str_decode+0xd8>
    3c0e:	88 c8                	mov    %cl,%al
    3c10:	83 e0 f8             	and    $0xfffffff8,%eax
    3c13:	3c f0                	cmp    $0xf0,%al
    3c15:	0f 84 89 00 00 00    	je     3ca4 <str_decode+0xe4>
    3c1b:	5a                   	pop    %edx
    3c1c:	b8 3f 00 00 00       	mov    $0x3f,%eax
    3c21:	59                   	pop    %ecx
    3c22:	5b                   	pop    %ebx
    3c23:	5e                   	pop    %esi
    3c24:	5f                   	pop    %edi
    3c25:	5d                   	pop    %ebp
    3c26:	c3                   	ret    
    3c27:	90                   	nop
    3c28:	b8 01 00 00 00       	mov    $0x1,%eax
    3c2d:	b9 05 00 00 00       	mov    $0x5,%ecx
    3c32:	01 f0                	add    %esi,%eax
    3c34:	89 45 f0             	mov    %eax,-0x10(%ebp)
    3c37:	39 45 10             	cmp    %eax,0x10(%ebp)
    3c3a:	72 df                	jb     3c1b <str_decode+0x5b>
    3c3c:	b8 01 00 00 00       	mov    $0x1,%eax
    3c41:	83 c2 02             	add    $0x2,%edx
    3c44:	d3 e0                	shl    %cl,%eax
    3c46:	48                   	dec    %eax
    3c47:	8b 4d ec             	mov    -0x14(%ebp),%ecx
    3c4a:	89 13                	mov    %edx,(%ebx)
    3c4c:	21 c8                	and    %ecx,%eax
    3c4e:	8a 0c 37             	mov    (%edi,%esi,1),%cl
    3c51:	89 55 ec             	mov    %edx,-0x14(%ebp)
    3c54:	89 ce                	mov    %ecx,%esi
    3c56:	25 ff 00 00 00       	and    $0xff,%eax
    3c5b:	83 e6 c0             	and    $0xffffffc0,%esi
    3c5e:	89 f2                	mov    %esi,%edx
    3c60:	80 fa 80             	cmp    $0x80,%dl
    3c63:	75 b6                	jne    3c1b <str_decode+0x5b>
    3c65:	8b 55 ec             	mov    -0x14(%ebp),%edx
    3c68:	89 de                	mov    %ebx,%esi
    3c6a:	eb 15                	jmp    3c81 <str_decode+0xc1>
    3c6c:	8d 74 26 00          	lea    0x0(%esi,%eiz,1),%esi
    3c70:	42                   	inc    %edx
    3c71:	89 16                	mov    %edx,(%esi)
    3c73:	8a 4c 17 ff          	mov    -0x1(%edi,%edx,1),%cl
    3c77:	88 cb                	mov    %cl,%bl
    3c79:	83 e3 c0             	and    $0xffffffc0,%ebx
    3c7c:	80 fb 80             	cmp    $0x80,%bl
    3c7f:	75 9a                	jne    3c1b <str_decode+0x5b>
    3c81:	c1 e0 06             	shl    $0x6,%eax
    3c84:	83 e1 3f             	and    $0x3f,%ecx
    3c87:	09 c8                	or     %ecx,%eax
    3c89:	3b 55 f0             	cmp    -0x10(%ebp),%edx
    3c8c:	75 e2                	jne    3c70 <str_decode+0xb0>
    3c8e:	e9 5b ff ff ff       	jmp    3bee <str_decode+0x2e>
    3c93:	90                   	nop
    3c94:	8d 74 26 00          	lea    0x0(%esi,%eiz,1),%esi
    3c98:	b8 02 00 00 00       	mov    $0x2,%eax
    3c9d:	b9 04 00 00 00       	mov    $0x4,%ecx
    3ca2:	eb 8e                	jmp    3c32 <str_decode+0x72>
    3ca4:	b8 03 00 00 00       	mov    $0x3,%eax
    3ca9:	b9 03 00 00 00       	mov    $0x3,%ecx
    3cae:	eb 82                	jmp    3c32 <str_decode+0x72>

00003cb0 <str_decode_reverse>:
    3cb0:	55                   	push   %ebp
    3cb1:	89 e5                	mov    %esp,%ebp
    3cb3:	57                   	push   %edi
    3cb4:	56                   	push   %esi
    3cb5:	53                   	push   %ebx
    3cb6:	83 ec 08             	sub    $0x8,%esp
    3cb9:	8b 7d 0c             	mov    0xc(%ebp),%edi
    3cbc:	8b 07                	mov    (%edi),%eax
    3cbe:	89 45 f0             	mov    %eax,-0x10(%ebp)
    3cc1:	85 c0                	test   %eax,%eax
    3cc3:	0f 84 25 01 00 00    	je     3dee <str_decode_reverse+0x13e>
    3cc9:	8d 58 ff             	lea    -0x1(%eax),%ebx
    3ccc:	8b 45 08             	mov    0x8(%ebp),%eax
    3ccf:	89 1f                	mov    %ebx,(%edi)
    3cd1:	8a 04 18             	mov    (%eax,%ebx,1),%al
    3cd4:	84 c0                	test   %al,%al
    3cd6:	0f 89 ec 01 00 00    	jns    3ec8 <str_decode_reverse+0x218>
    3cdc:	88 c1                	mov    %al,%cl
    3cde:	83 e1 e0             	and    $0xffffffe0,%ecx
    3ce1:	88 4d ef             	mov    %cl,-0x11(%ebp)
    3ce4:	80 f9 c0             	cmp    $0xc0,%cl
    3ce7:	0f 84 bd 01 00 00    	je     3eaa <str_decode_reverse+0x1fa>
    3ced:	88 c1                	mov    %al,%cl
    3cef:	83 e1 f0             	and    $0xfffffff0,%ecx
    3cf2:	80 f9 e0             	cmp    $0xe0,%cl
    3cf5:	0f 84 dc 01 00 00    	je     3ed7 <str_decode_reverse+0x227>
    3cfb:	89 c6                	mov    %eax,%esi
    3cfd:	83 e6 f8             	and    $0xfffffff8,%esi
    3d00:	89 f2                	mov    %esi,%edx
    3d02:	80 fa f0             	cmp    $0xf0,%dl
    3d05:	0f 84 d6 01 00 00    	je     3ee1 <str_decode_reverse+0x231>
    3d0b:	83 e0 c0             	and    $0xffffffc0,%eax
    3d0e:	3c 80                	cmp    $0x80,%al
    3d10:	0f 85 c3 00 00 00    	jne    3dd9 <str_decode_reverse+0x129>
    3d16:	85 db                	test   %ebx,%ebx
    3d18:	0f 84 bb 00 00 00    	je     3dd9 <str_decode_reverse+0x129>
    3d1e:	8b 55 f0             	mov    -0x10(%ebp),%edx
    3d21:	8b 45 08             	mov    0x8(%ebp),%eax
    3d24:	8d 72 fe             	lea    -0x2(%edx),%esi
    3d27:	89 37                	mov    %esi,(%edi)
    3d29:	8a 04 30             	mov    (%eax,%esi,1),%al
    3d2c:	88 c1                	mov    %al,%cl
    3d2e:	83 e1 e0             	and    $0xffffffe0,%ecx
    3d31:	88 4d ef             	mov    %cl,-0x11(%ebp)
    3d34:	80 f9 c0             	cmp    $0xc0,%cl
    3d37:	0f 84 93 01 00 00    	je     3ed0 <str_decode_reverse+0x220>
    3d3d:	88 c1                	mov    %al,%cl
    3d3f:	83 e1 f0             	and    $0xfffffff0,%ecx
    3d42:	80 f9 e0             	cmp    $0xe0,%cl
    3d45:	0f 84 9c 00 00 00    	je     3de7 <str_decode_reverse+0x137>
    3d4b:	88 c2                	mov    %al,%dl
    3d4d:	83 e2 f8             	and    $0xfffffff8,%edx
    3d50:	80 fa f0             	cmp    $0xf0,%dl
    3d53:	0f 84 90 00 00 00    	je     3de9 <str_decode_reverse+0x139>
    3d59:	83 e0 c0             	and    $0xffffffc0,%eax
    3d5c:	3c 80                	cmp    $0x80,%al
    3d5e:	75 79                	jne    3dd9 <str_decode_reverse+0x129>
    3d60:	85 f6                	test   %esi,%esi
    3d62:	74 75                	je     3dd9 <str_decode_reverse+0x129>
    3d64:	8b 55 f0             	mov    -0x10(%ebp),%edx
    3d67:	8b 45 08             	mov    0x8(%ebp),%eax
    3d6a:	8d 5a fd             	lea    -0x3(%edx),%ebx
    3d6d:	89 1f                	mov    %ebx,(%edi)
    3d6f:	8a 04 18             	mov    (%eax,%ebx,1),%al
    3d72:	88 c1                	mov    %al,%cl
    3d74:	83 e1 e0             	and    $0xffffffe0,%ecx
    3d77:	88 4d ef             	mov    %cl,-0x11(%ebp)
    3d7a:	80 f9 c0             	cmp    $0xc0,%cl
    3d7d:	0f 84 6d 01 00 00    	je     3ef0 <str_decode_reverse+0x240>
    3d83:	88 c1                	mov    %al,%cl
    3d85:	83 e1 f0             	and    $0xfffffff0,%ecx
    3d88:	80 f9 e0             	cmp    $0xe0,%cl
    3d8b:	74 58                	je     3de5 <str_decode_reverse+0x135>
    3d8d:	88 c2                	mov    %al,%dl
    3d8f:	83 e2 f8             	and    $0xfffffff8,%edx
    3d92:	80 fa f0             	cmp    $0xf0,%dl
    3d95:	0f 84 4e 01 00 00    	je     3ee9 <str_decode_reverse+0x239>
    3d9b:	83 e0 c0             	and    $0xffffffc0,%eax
    3d9e:	3c 80                	cmp    $0x80,%al
    3da0:	75 37                	jne    3dd9 <str_decode_reverse+0x129>
    3da2:	85 db                	test   %ebx,%ebx
    3da4:	74 33                	je     3dd9 <str_decode_reverse+0x129>
    3da6:	8b 55 f0             	mov    -0x10(%ebp),%edx
    3da9:	8b 45 08             	mov    0x8(%ebp),%eax
    3dac:	83 ea 04             	sub    $0x4,%edx
    3daf:	89 17                	mov    %edx,(%edi)
    3db1:	8a 04 10             	mov    (%eax,%edx,1),%al
    3db4:	88 c2                	mov    %al,%dl
    3db6:	83 e2 e0             	and    $0xffffffe0,%edx
    3db9:	88 55 ef             	mov    %dl,-0x11(%ebp)
    3dbc:	80 fa c0             	cmp    $0xc0,%dl
    3dbf:	0f 84 0b 01 00 00    	je     3ed0 <str_decode_reverse+0x220>
    3dc5:	88 c1                	mov    %al,%cl
    3dc7:	83 e1 f0             	and    $0xfffffff0,%ecx
    3dca:	80 f9 e0             	cmp    $0xe0,%cl
    3dcd:	74 18                	je     3de7 <str_decode_reverse+0x137>
    3dcf:	88 c2                	mov    %al,%dl
    3dd1:	83 e2 f8             	and    $0xfffffff8,%edx
    3dd4:	80 fa f0             	cmp    $0xf0,%dl
    3dd7:	74 10                	je     3de9 <str_decode_reverse+0x139>
    3dd9:	b8 3f 00 00 00       	mov    $0x3f,%eax
    3dde:	5a                   	pop    %edx
    3ddf:	59                   	pop    %ecx
    3de0:	5b                   	pop    %ebx
    3de1:	5e                   	pop    %esi
    3de2:	5f                   	pop    %edi
    3de3:	5d                   	pop    %ebp
    3de4:	c3                   	ret    
    3de5:	89 f3                	mov    %esi,%ebx
    3de7:	b1 e0                	mov    $0xe0,%cl
    3de9:	39 5d 10             	cmp    %ebx,0x10(%ebp)
    3dec:	73 0a                	jae    3df8 <str_decode_reverse+0x148>
    3dee:	5a                   	pop    %edx
    3def:	31 c0                	xor    %eax,%eax
    3df1:	59                   	pop    %ecx
    3df2:	5b                   	pop    %ebx
    3df3:	5e                   	pop    %esi
    3df4:	5f                   	pop    %edi
    3df5:	5d                   	pop    %ebp
    3df6:	c3                   	ret    
    3df7:	90                   	nop
    3df8:	80 7d ef c0          	cmpb   $0xc0,-0x11(%ebp)
    3dfc:	0f 84 b6 00 00 00    	je     3eb8 <str_decode_reverse+0x208>
    3e02:	80 f9 e0             	cmp    $0xe0,%cl
    3e05:	0f 84 ea 00 00 00    	je     3ef5 <str_decode_reverse+0x245>
    3e0b:	88 c2                	mov    %al,%dl
    3e0d:	83 e2 f8             	and    $0xfffffff8,%edx
    3e10:	80 fa f0             	cmp    $0xf0,%dl
    3e13:	75 c4                	jne    3dd9 <str_decode_reverse+0x129>
    3e15:	be 03 00 00 00       	mov    $0x3,%esi
    3e1a:	b9 03 00 00 00       	mov    $0x3,%ecx
    3e1f:	8d 14 1e             	lea    (%esi,%ebx,1),%edx
    3e22:	39 55 10             	cmp    %edx,0x10(%ebp)
    3e25:	72 b2                	jb     3dd9 <str_decode_reverse+0x129>
    3e27:	ba 01 00 00 00       	mov    $0x1,%edx
    3e2c:	d3 e2                	shl    %cl,%edx
    3e2e:	4a                   	dec    %edx
    3e2f:	8d 4b 01             	lea    0x1(%ebx),%ecx
    3e32:	21 d0                	and    %edx,%eax
    3e34:	89 c7                	mov    %eax,%edi
    3e36:	8b 45 08             	mov    0x8(%ebp),%eax
    3e39:	81 e7 ff 00 00 00    	and    $0xff,%edi
    3e3f:	8a 14 18             	mov    (%eax,%ebx,1),%dl
    3e42:	89 7d f0             	mov    %edi,-0x10(%ebp)
    3e45:	89 d7                	mov    %edx,%edi
    3e47:	83 e7 c0             	and    $0xffffffc0,%edi
    3e4a:	89 f8                	mov    %edi,%eax
    3e4c:	3c 80                	cmp    $0x80,%al
    3e4e:	75 89                	jne    3dd9 <str_decode_reverse+0x129>
    3e50:	8b 45 f0             	mov    -0x10(%ebp),%eax
    3e53:	83 e2 3f             	and    $0x3f,%edx
    3e56:	c1 e0 06             	shl    $0x6,%eax
    3e59:	09 d0                	or     %edx,%eax
    3e5b:	83 fe 01             	cmp    $0x1,%esi
    3e5e:	0f 84 7a ff ff ff    	je     3dde <str_decode_reverse+0x12e>
    3e64:	8b 7d 08             	mov    0x8(%ebp),%edi
    3e67:	83 c3 02             	add    $0x2,%ebx
    3e6a:	8a 0c 0f             	mov    (%edi,%ecx,1),%cl
    3e6d:	88 ca                	mov    %cl,%dl
    3e6f:	83 e2 c0             	and    $0xffffffc0,%edx
    3e72:	80 fa 80             	cmp    $0x80,%dl
    3e75:	0f 85 5e ff ff ff    	jne    3dd9 <str_decode_reverse+0x129>
    3e7b:	c1 e0 06             	shl    $0x6,%eax
    3e7e:	83 e1 3f             	and    $0x3f,%ecx
    3e81:	09 c8                	or     %ecx,%eax
    3e83:	83 fe 02             	cmp    $0x2,%esi
    3e86:	0f 84 52 ff ff ff    	je     3dde <str_decode_reverse+0x12e>
    3e8c:	8a 0c 1f             	mov    (%edi,%ebx,1),%cl
    3e8f:	88 ca                	mov    %cl,%dl
    3e91:	83 e2 c0             	and    $0xffffffc0,%edx
    3e94:	80 fa 80             	cmp    $0x80,%dl
    3e97:	0f 85 3c ff ff ff    	jne    3dd9 <str_decode_reverse+0x129>
    3e9d:	c1 e0 06             	shl    $0x6,%eax
    3ea0:	83 e1 3f             	and    $0x3f,%ecx
    3ea3:	09 c8                	or     %ecx,%eax
    3ea5:	e9 34 ff ff ff       	jmp    3dde <str_decode_reverse+0x12e>
    3eaa:	8b 75 f0             	mov    -0x10(%ebp),%esi
    3ead:	39 75 10             	cmp    %esi,0x10(%ebp)
    3eb0:	0f 82 38 ff ff ff    	jb     3dee <str_decode_reverse+0x13e>
    3eb6:	89 f3                	mov    %esi,%ebx
    3eb8:	be 01 00 00 00       	mov    $0x1,%esi
    3ebd:	b9 05 00 00 00       	mov    $0x5,%ecx
    3ec2:	e9 58 ff ff ff       	jmp    3e1f <str_decode_reverse+0x16f>
    3ec7:	90                   	nop
    3ec8:	83 e0 7f             	and    $0x7f,%eax
    3ecb:	e9 0e ff ff ff       	jmp    3dde <str_decode_reverse+0x12e>
    3ed0:	89 5d f0             	mov    %ebx,-0x10(%ebp)
    3ed3:	89 de                	mov    %ebx,%esi
    3ed5:	eb d6                	jmp    3ead <str_decode_reverse+0x1fd>
    3ed7:	8b 5d f0             	mov    -0x10(%ebp),%ebx
    3eda:	b1 e0                	mov    $0xe0,%cl
    3edc:	e9 08 ff ff ff       	jmp    3de9 <str_decode_reverse+0x139>
    3ee1:	8b 5d f0             	mov    -0x10(%ebp),%ebx
    3ee4:	e9 00 ff ff ff       	jmp    3de9 <str_decode_reverse+0x139>
    3ee9:	89 f3                	mov    %esi,%ebx
    3eeb:	e9 f9 fe ff ff       	jmp    3de9 <str_decode_reverse+0x139>
    3ef0:	89 75 f0             	mov    %esi,-0x10(%ebp)
    3ef3:	eb b8                	jmp    3ead <str_decode_reverse+0x1fd>
    3ef5:	be 02 00 00 00       	mov    $0x2,%esi
    3efa:	b9 04 00 00 00       	mov    $0x4,%ecx
    3eff:	e9 1b ff ff ff       	jmp    3e1f <str_decode_reverse+0x16f>
    3f04:	8d b6 00 00 00 00    	lea    0x0(%esi),%esi
    3f0a:	8d bf 00 00 00 00    	lea    0x0(%edi),%edi

00003f10 <chr_encode>:
    3f10:	55                   	push   %ebp
    3f11:	89 e5                	mov    %esp,%ebp
    3f13:	57                   	push   %edi
    3f14:	56                   	push   %esi
    3f15:	53                   	push   %ebx
    3f16:	83 ec 08             	sub    $0x8,%esp
    3f19:	8b 75 10             	mov    0x10(%ebp),%esi
    3f1c:	8b 5d 08             	mov    0x8(%ebp),%ebx
    3f1f:	8b 7d 0c             	mov    0xc(%ebp),%edi
    3f22:	8b 06                	mov    (%esi),%eax
    3f24:	3b 45 14             	cmp    0x14(%ebp),%eax
    3f27:	0f 83 d7 00 00 00    	jae    4004 <chr_encode+0xf4>
    3f2d:	81 fb ff ff 10 00    	cmp    $0x10ffff,%ebx
    3f33:	76 13                	jbe    3f48 <chr_encode+0x38>
    3f35:	b8 f2 ff ff ff       	mov    $0xfffffff2,%eax
    3f3a:	5a                   	pop    %edx
    3f3b:	59                   	pop    %ecx
    3f3c:	5b                   	pop    %ebx
    3f3d:	5e                   	pop    %esi
    3f3e:	5f                   	pop    %edi
    3f3f:	5d                   	pop    %ebp
    3f40:	c3                   	ret    
    3f41:	8d b4 26 00 00 00 00 	lea    0x0(%esi,%eiz,1),%esi
    3f48:	f7 c3 80 ff ff ff    	test   $0xffffff80,%ebx
    3f4e:	0f 84 84 00 00 00    	je     3fd8 <chr_encode+0xc8>
    3f54:	f7 c3 00 f8 ff ff    	test   $0xfffff800,%ebx
    3f5a:	0f 84 90 00 00 00    	je     3ff0 <chr_encode+0xe0>
    3f60:	89 da                	mov    %ebx,%edx
    3f62:	81 e2 00 00 ff ff    	and    $0xffff0000,%edx
    3f68:	83 fa 01             	cmp    $0x1,%edx
    3f6b:	19 c9                	sbb    %ecx,%ecx
    3f6d:	83 e1 f0             	and    $0xfffffff0,%ecx
    3f70:	83 e9 10             	sub    $0x10,%ecx
    3f73:	83 fa 01             	cmp    $0x1,%edx
    3f76:	88 4d ee             	mov    %cl,-0x12(%ebp)
    3f79:	19 c9                	sbb    %ecx,%ecx
    3f7b:	83 e1 08             	and    $0x8,%ecx
    3f7e:	83 c1 07             	add    $0x7,%ecx
    3f81:	83 fa 01             	cmp    $0x1,%edx
    3f84:	19 d2                	sbb    %edx,%edx
    3f86:	88 4d ef             	mov    %cl,-0x11(%ebp)
    3f89:	83 c2 03             	add    $0x3,%edx
    3f8c:	89 55 f0             	mov    %edx,-0x10(%ebp)
    3f8f:	89 d1                	mov    %edx,%ecx
    3f91:	89 ca                	mov    %ecx,%edx
    3f93:	01 c2                	add    %eax,%edx
    3f95:	39 55 14             	cmp    %edx,0x14(%ebp)
    3f98:	76 6a                	jbe    4004 <chr_encode+0xf4>
    3f9a:	89 ca                	mov    %ecx,%edx
    3f9c:	8d 74 26 00          	lea    0x0(%esi,%eiz,1),%esi
    3fa0:	88 d9                	mov    %bl,%cl
    3fa2:	01 f8                	add    %edi,%eax
    3fa4:	c1 eb 06             	shr    $0x6,%ebx
    3fa7:	83 e1 3f             	and    $0x3f,%ecx
    3faa:	83 c9 80             	or     $0xffffff80,%ecx
    3fad:	88 0c 10             	mov    %cl,(%eax,%edx,1)
    3fb0:	4a                   	dec    %edx
    3fb1:	8b 06                	mov    (%esi),%eax
    3fb3:	75 eb                	jne    3fa0 <chr_encode+0x90>
    3fb5:	22 5d ef             	and    -0x11(%ebp),%bl
    3fb8:	0a 5d ee             	or     -0x12(%ebp),%bl
    3fbb:	88 1c 07             	mov    %bl,(%edi,%eax,1)
    3fbe:	8b 7d f0             	mov    -0x10(%ebp),%edi
    3fc1:	8b 06                	mov    (%esi),%eax
    3fc3:	8d 44 07 01          	lea    0x1(%edi,%eax,1),%eax
    3fc7:	89 06                	mov    %eax,(%esi)
    3fc9:	31 c0                	xor    %eax,%eax
    3fcb:	5a                   	pop    %edx
    3fcc:	59                   	pop    %ecx
    3fcd:	5b                   	pop    %ebx
    3fce:	5e                   	pop    %esi
    3fcf:	5f                   	pop    %edi
    3fd0:	5d                   	pop    %ebp
    3fd1:	c3                   	ret    
    3fd2:	8d b6 00 00 00 00    	lea    0x0(%esi),%esi
    3fd8:	c6 45 ee 00          	movb   $0x0,-0x12(%ebp)
    3fdc:	c6 45 ef 7f          	movb   $0x7f,-0x11(%ebp)
    3fe0:	c7 45 f0 00 00 00 00 	movl   $0x0,-0x10(%ebp)
    3fe7:	eb cc                	jmp    3fb5 <chr_encode+0xa5>
    3fe9:	8d b4 26 00 00 00 00 	lea    0x0(%esi,%eiz,1),%esi
    3ff0:	c7 45 f0 01 00 00 00 	movl   $0x1,-0x10(%ebp)
    3ff7:	c6 45 ee c0          	movb   $0xc0,-0x12(%ebp)
    3ffb:	c6 45 ef 1f          	movb   $0x1f,-0x11(%ebp)
    3fff:	8b 4d f0             	mov    -0x10(%ebp),%ecx
    4002:	eb 8d                	jmp    3f91 <chr_encode+0x81>
    4004:	b8 f0 ff ff ff       	mov    $0xfffffff0,%eax
    4009:	e9 2c ff ff ff       	jmp    3f3a <chr_encode+0x2a>
    400e:	66 90                	xchg   %ax,%ax

00004010 <str_size>:
    4010:	55                   	push   %ebp
    4011:	31 c0                	xor    %eax,%eax
    4013:	89 e5                	mov    %esp,%ebp
    4015:	8b 55 08             	mov    0x8(%ebp),%edx
    4018:	80 3a 00             	cmpb   $0x0,(%edx)
    401b:	74 0a                	je     4027 <str_size+0x17>
    401d:	8d 76 00             	lea    0x0(%esi),%esi
    4020:	40                   	inc    %eax
    4021:	80 3c 02 00          	cmpb   $0x0,(%edx,%eax,1)
    4025:	75 f9                	jne    4020 <str_size+0x10>
    4027:	5d                   	pop    %ebp
    4028:	c3                   	ret    
    4029:	8d b4 26 00 00 00 00 	lea    0x0(%esi,%eiz,1),%esi

00004030 <wstr_size>:
    4030:	55                   	push   %ebp
    4031:	31 c0                	xor    %eax,%eax
    4033:	89 e5                	mov    %esp,%ebp
    4035:	8b 55 08             	mov    0x8(%ebp),%edx
    4038:	8b 0a                	mov    (%edx),%ecx
    403a:	85 c9                	test   %ecx,%ecx
    403c:	74 0d                	je     404b <wstr_size+0x1b>
    403e:	66 90                	xchg   %ax,%ax
    4040:	40                   	inc    %eax
    4041:	8b 0c 82             	mov    (%edx,%eax,4),%ecx
    4044:	85 c9                	test   %ecx,%ecx
    4046:	75 f8                	jne    4040 <wstr_size+0x10>
    4048:	c1 e0 02             	shl    $0x2,%eax
    404b:	5d                   	pop    %ebp
    404c:	c3                   	ret    
    404d:	8d 76 00             	lea    0x0(%esi),%esi

00004050 <str_lsize>:
    4050:	55                   	push   %ebp
    4051:	31 c0                	xor    %eax,%eax
    4053:	89 e5                	mov    %esp,%ebp
    4055:	57                   	push   %edi
    4056:	56                   	push   %esi
    4057:	53                   	push   %ebx
    4058:	83 ec 08             	sub    $0x8,%esp
    405b:	8b 55 0c             	mov    0xc(%ebp),%edx
    405e:	8b 7d 08             	mov    0x8(%ebp),%edi
    4061:	85 d2                	test   %edx,%edx
    4063:	74 5c                	je     40c1 <str_lsize+0x71>
    4065:	c7 45 f0 00 00 00 00 	movl   $0x0,-0x10(%ebp)
    406c:	eb 1a                	jmp    4088 <str_lsize+0x38>
    406e:	66 90                	xchg   %ax,%ax
    4070:	83 e2 7f             	and    $0x7f,%edx
    4073:	89 f0                	mov    %esi,%eax
    4075:	85 d2                	test   %edx,%edx
    4077:	74 48                	je     40c1 <str_lsize+0x71>
    4079:	8b 5d f0             	mov    -0x10(%ebp),%ebx
    407c:	43                   	inc    %ebx
    407d:	89 5d f0             	mov    %ebx,-0x10(%ebp)
    4080:	8b 75 f0             	mov    -0x10(%ebp),%esi
    4083:	39 75 0c             	cmp    %esi,0xc(%ebp)
    4086:	74 39                	je     40c1 <str_lsize+0x71>
    4088:	8a 14 07             	mov    (%edi,%eax,1),%dl
    408b:	8d 70 01             	lea    0x1(%eax),%esi
    408e:	84 d2                	test   %dl,%dl
    4090:	79 de                	jns    4070 <str_lsize+0x20>
    4092:	88 d1                	mov    %dl,%cl
    4094:	83 e1 e0             	and    $0xffffffe0,%ecx
    4097:	80 f9 c0             	cmp    $0xc0,%cl
    409a:	74 2c                	je     40c8 <str_lsize+0x78>
    409c:	88 d1                	mov    %dl,%cl
    409e:	83 e1 f0             	and    $0xfffffff0,%ecx
    40a1:	80 f9 e0             	cmp    $0xe0,%cl
    40a4:	74 6e                	je     4114 <str_lsize+0xc4>
    40a6:	88 d1                	mov    %dl,%cl
    40a8:	83 e1 f8             	and    $0xfffffff8,%ecx
    40ab:	80 f9 f0             	cmp    $0xf0,%cl
    40ae:	74 70                	je     4120 <str_lsize+0xd0>
    40b0:	8b 5d f0             	mov    -0x10(%ebp),%ebx
    40b3:	89 f0                	mov    %esi,%eax
    40b5:	43                   	inc    %ebx
    40b6:	89 5d f0             	mov    %ebx,-0x10(%ebp)
    40b9:	8b 75 f0             	mov    -0x10(%ebp),%esi
    40bc:	39 75 0c             	cmp    %esi,0xc(%ebp)
    40bf:	75 c7                	jne    4088 <str_lsize+0x38>
    40c1:	5a                   	pop    %edx
    40c2:	59                   	pop    %ecx
    40c3:	5b                   	pop    %ebx
    40c4:	5e                   	pop    %esi
    40c5:	5f                   	pop    %edi
    40c6:	5d                   	pop    %ebp
    40c7:	c3                   	ret    
    40c8:	83 e2 1f             	and    $0x1f,%edx
    40cb:	c7 45 ec 01 00 00 00 	movl   $0x1,-0x14(%ebp)
    40d2:	8a 0c 37             	mov    (%edi,%esi,1),%cl
    40d5:	83 c0 02             	add    $0x2,%eax
    40d8:	88 cb                	mov    %cl,%bl
    40da:	83 e3 c0             	and    $0xffffffc0,%ebx
    40dd:	80 fb 80             	cmp    $0x80,%bl
    40e0:	75 97                	jne    4079 <str_lsize+0x29>
    40e2:	8b 5d ec             	mov    -0x14(%ebp),%ebx
    40e5:	01 de                	add    %ebx,%esi
    40e7:	eb 1a                	jmp    4103 <str_lsize+0xb3>
    40e9:	8d b4 26 00 00 00 00 	lea    0x0(%esi,%eiz,1),%esi
    40f0:	40                   	inc    %eax
    40f1:	8a 4c 07 ff          	mov    -0x1(%edi,%eax,1),%cl
    40f5:	88 cb                	mov    %cl,%bl
    40f7:	83 e3 c0             	and    $0xffffffc0,%ebx
    40fa:	80 fb 80             	cmp    $0x80,%bl
    40fd:	0f 85 76 ff ff ff    	jne    4079 <str_lsize+0x29>
    4103:	c1 e2 06             	shl    $0x6,%edx
    4106:	83 e1 3f             	and    $0x3f,%ecx
    4109:	09 ca                	or     %ecx,%edx
    410b:	39 f0                	cmp    %esi,%eax
    410d:	75 e1                	jne    40f0 <str_lsize+0xa0>
    410f:	e9 61 ff ff ff       	jmp    4075 <str_lsize+0x25>
    4114:	83 e2 0f             	and    $0xf,%edx
    4117:	c7 45 ec 02 00 00 00 	movl   $0x2,-0x14(%ebp)
    411e:	eb b2                	jmp    40d2 <str_lsize+0x82>
    4120:	83 e2 07             	and    $0x7,%edx
    4123:	c7 45 ec 03 00 00 00 	movl   $0x3,-0x14(%ebp)
    412a:	eb a6                	jmp    40d2 <str_lsize+0x82>
    412c:	8d 74 26 00          	lea    0x0(%esi,%eiz,1),%esi

00004130 <str_nsize>:
    4130:	55                   	push   %ebp
    4131:	31 c0                	xor    %eax,%eax
    4133:	89 e5                	mov    %esp,%ebp
    4135:	8b 55 08             	mov    0x8(%ebp),%edx
    4138:	8b 4d 0c             	mov    0xc(%ebp),%ecx
    413b:	80 3a 00             	cmpb   $0x0,(%edx)
    413e:	74 13                	je     4153 <str_nsize+0x23>
    4140:	85 c9                	test   %ecx,%ecx
    4142:	75 08                	jne    414c <str_nsize+0x1c>
    4144:	eb 0d                	jmp    4153 <str_nsize+0x23>
    4146:	66 90                	xchg   %ax,%ax
    4148:	39 c1                	cmp    %eax,%ecx
    414a:	76 07                	jbe    4153 <str_nsize+0x23>
    414c:	40                   	inc    %eax
    414d:	80 3c 02 00          	cmpb   $0x0,(%edx,%eax,1)
    4151:	75 f5                	jne    4148 <str_nsize+0x18>
    4153:	5d                   	pop    %ebp
    4154:	c3                   	ret    
    4155:	8d 74 26 00          	lea    0x0(%esi,%eiz,1),%esi
    4159:	8d bc 27 00 00 00 00 	lea    0x0(%edi,%eiz,1),%edi

00004160 <wstr_nsize>:
    4160:	55                   	push   %ebp
    4161:	89 e5                	mov    %esp,%ebp
    4163:	53                   	push   %ebx
    4164:	8b 4d 0c             	mov    0xc(%ebp),%ecx
    4167:	8b 5d 08             	mov    0x8(%ebp),%ebx
    416a:	83 e1 fc             	and    $0xfffffffc,%ecx
    416d:	74 26                	je     4195 <wstr_nsize+0x35>
    416f:	8b 03                	mov    (%ebx),%eax
    4171:	85 c0                	test   %eax,%eax
    4173:	74 20                	je     4195 <wstr_nsize+0x35>
    4175:	31 d2                	xor    %edx,%edx
    4177:	eb 0d                	jmp    4186 <wstr_nsize+0x26>
    4179:	8d b4 26 00 00 00 00 	lea    0x0(%esi,%eiz,1),%esi
    4180:	83 3c 93 00          	cmpl   $0x0,(%ebx,%edx,4)
    4184:	74 0c                	je     4192 <wstr_nsize+0x32>
    4186:	42                   	inc    %edx
    4187:	8d 04 95 00 00 00 00 	lea    0x0(,%edx,4),%eax
    418e:	39 c1                	cmp    %eax,%ecx
    4190:	77 ee                	ja     4180 <wstr_nsize+0x20>
    4192:	5b                   	pop    %ebx
    4193:	5d                   	pop    %ebp
    4194:	c3                   	ret    
    4195:	31 c0                	xor    %eax,%eax
    4197:	eb f9                	jmp    4192 <wstr_nsize+0x32>
    4199:	8d b4 26 00 00 00 00 	lea    0x0(%esi,%eiz,1),%esi

000041a0 <wstr_lsize>:
    41a0:	55                   	push   %ebp
    41a1:	89 e5                	mov    %esp,%ebp
    41a3:	53                   	push   %ebx
    41a4:	8b 4d 0c             	mov    0xc(%ebp),%ecx
    41a7:	8b 5d 08             	mov    0x8(%ebp),%ebx
    41aa:	c1 e1 02             	shl    $0x2,%ecx
    41ad:	74 26                	je     41d5 <wstr_lsize+0x35>
    41af:	8b 03                	mov    (%ebx),%eax
    41b1:	85 c0                	test   %eax,%eax
    41b3:	74 20                	je     41d5 <wstr_lsize+0x35>
    41b5:	31 d2                	xor    %edx,%edx
    41b7:	eb 0d                	jmp    41c6 <wstr_lsize+0x26>
    41b9:	8d b4 26 00 00 00 00 	lea    0x0(%esi,%eiz,1),%esi
    41c0:	83 3c 93 00          	cmpl   $0x0,(%ebx,%edx,4)
    41c4:	74 0c                	je     41d2 <wstr_lsize+0x32>
    41c6:	42                   	inc    %edx
    41c7:	8d 04 95 00 00 00 00 	lea    0x0(,%edx,4),%eax
    41ce:	39 c1                	cmp    %eax,%ecx
    41d0:	77 ee                	ja     41c0 <wstr_lsize+0x20>
    41d2:	5b                   	pop    %ebx
    41d3:	5d                   	pop    %ebp
    41d4:	c3                   	ret    
    41d5:	31 c0                	xor    %eax,%eax
    41d7:	eb f9                	jmp    41d2 <wstr_lsize+0x32>
    41d9:	8d b4 26 00 00 00 00 	lea    0x0(%esi,%eiz,1),%esi

000041e0 <str_length>:
    41e0:	55                   	push   %ebp
    41e1:	31 c9                	xor    %ecx,%ecx
    41e3:	89 e5                	mov    %esp,%ebp
    41e5:	57                   	push   %edi
    41e6:	56                   	push   %esi
    41e7:	53                   	push   %ebx
    41e8:	83 ec 08             	sub    $0x8,%esp
    41eb:	c7 45 ec 00 00 00 00 	movl   $0x0,-0x14(%ebp)
    41f2:	8b 75 08             	mov    0x8(%ebp),%esi
    41f5:	eb 17                	jmp    420e <str_length+0x2e>
    41f7:	90                   	nop
    41f8:	83 e0 7f             	and    $0x7f,%eax
    41fb:	89 d9                	mov    %ebx,%ecx
    41fd:	89 45 f0             	mov    %eax,-0x10(%ebp)
    4200:	8b 5d f0             	mov    -0x10(%ebp),%ebx
    4203:	85 db                	test   %ebx,%ebx
    4205:	74 33                	je     423a <str_length+0x5a>
    4207:	8b 7d ec             	mov    -0x14(%ebp),%edi
    420a:	47                   	inc    %edi
    420b:	89 7d ec             	mov    %edi,-0x14(%ebp)
    420e:	8a 04 0e             	mov    (%esi,%ecx,1),%al
    4211:	8d 59 01             	lea    0x1(%ecx),%ebx
    4214:	84 c0                	test   %al,%al
    4216:	79 e0                	jns    41f8 <str_length+0x18>
    4218:	88 c2                	mov    %al,%dl
    421a:	83 e2 e0             	and    $0xffffffe0,%edx
    421d:	80 fa c0             	cmp    $0xc0,%dl
    4220:	74 22                	je     4244 <str_length+0x64>
    4222:	88 c2                	mov    %al,%dl
    4224:	83 e2 f0             	and    $0xfffffff0,%edx
    4227:	80 fa e0             	cmp    $0xe0,%dl
    422a:	74 5f                	je     428b <str_length+0xab>
    422c:	88 c2                	mov    %al,%dl
    422e:	83 e2 f8             	and    $0xfffffff8,%edx
    4231:	80 fa f0             	cmp    $0xf0,%dl
    4234:	74 62                	je     4298 <str_length+0xb8>
    4236:	89 d9                	mov    %ebx,%ecx
    4238:	eb cd                	jmp    4207 <str_length+0x27>
    423a:	8b 45 ec             	mov    -0x14(%ebp),%eax
    423d:	5a                   	pop    %edx
    423e:	59                   	pop    %ecx
    423f:	5b                   	pop    %ebx
    4240:	5e                   	pop    %esi
    4241:	5f                   	pop    %edi
    4242:	5d                   	pop    %ebp
    4243:	c3                   	ret    
    4244:	83 e0 1f             	and    $0x1f,%eax
    4247:	bf 01 00 00 00       	mov    $0x1,%edi
    424c:	89 45 f0             	mov    %eax,-0x10(%ebp)
    424f:	8a 14 1e             	mov    (%esi,%ebx,1),%dl
    4252:	83 c1 02             	add    $0x2,%ecx
    4255:	88 d0                	mov    %dl,%al
    4257:	83 e0 c0             	and    $0xffffffc0,%eax
    425a:	3c 80                	cmp    $0x80,%al
    425c:	75 a9                	jne    4207 <str_length+0x27>
    425e:	01 df                	add    %ebx,%edi
    4260:	8b 45 f0             	mov    -0x10(%ebp),%eax
    4263:	eb 12                	jmp    4277 <str_length+0x97>
    4265:	8d 76 00             	lea    0x0(%esi),%esi
    4268:	41                   	inc    %ecx
    4269:	8a 54 0e ff          	mov    -0x1(%esi,%ecx,1),%dl
    426d:	88 d3                	mov    %dl,%bl
    426f:	83 e3 c0             	and    $0xffffffc0,%ebx
    4272:	80 fb 80             	cmp    $0x80,%bl
    4275:	75 90                	jne    4207 <str_length+0x27>
    4277:	c1 e0 06             	shl    $0x6,%eax
    427a:	83 e2 3f             	and    $0x3f,%edx
    427d:	09 d0                	or     %edx,%eax
    427f:	39 f9                	cmp    %edi,%ecx
    4281:	75 e5                	jne    4268 <str_length+0x88>
    4283:	89 45 f0             	mov    %eax,-0x10(%ebp)
    4286:	e9 75 ff ff ff       	jmp    4200 <str_length+0x20>
    428b:	83 e0 0f             	and    $0xf,%eax
    428e:	bf 02 00 00 00       	mov    $0x2,%edi
    4293:	89 45 f0             	mov    %eax,-0x10(%ebp)
    4296:	eb b7                	jmp    424f <str_length+0x6f>
    4298:	83 e0 07             	and    $0x7,%eax
    429b:	bf 03 00 00 00       	mov    $0x3,%edi
    42a0:	89 45 f0             	mov    %eax,-0x10(%ebp)
    42a3:	eb aa                	jmp    424f <str_length+0x6f>
    42a5:	8d 74 26 00          	lea    0x0(%esi,%eiz,1),%esi
    42a9:	8d bc 27 00 00 00 00 	lea    0x0(%edi,%eiz,1),%edi

000042b0 <wstr_length>:
    42b0:	55                   	push   %ebp
    42b1:	31 c0                	xor    %eax,%eax
    42b3:	89 e5                	mov    %esp,%ebp
    42b5:	8b 55 08             	mov    0x8(%ebp),%edx
    42b8:	8b 0a                	mov    (%edx),%ecx
    42ba:	85 c9                	test   %ecx,%ecx
    42bc:	74 0a                	je     42c8 <wstr_length+0x18>
    42be:	66 90                	xchg   %ax,%ax
    42c0:	40                   	inc    %eax
    42c1:	8b 0c 82             	mov    (%edx,%eax,4),%ecx
    42c4:	85 c9                	test   %ecx,%ecx
    42c6:	75 f8                	jne    42c0 <wstr_length+0x10>
    42c8:	5d                   	pop    %ebp
    42c9:	c3                   	ret    
    42ca:	8d b6 00 00 00 00    	lea    0x0(%esi),%esi

000042d0 <str_nlength>:
    42d0:	55                   	push   %ebp
    42d1:	89 e5                	mov    %esp,%ebp
    42d3:	57                   	push   %edi
    42d4:	56                   	push   %esi
    42d5:	53                   	push   %ebx
    42d6:	56                   	push   %esi
    42d7:	c7 45 f0 00 00 00 00 	movl   $0x0,-0x10(%ebp)
    42de:	8b 7d 0c             	mov    0xc(%ebp),%edi
    42e1:	8b 75 08             	mov    0x8(%ebp),%esi
    42e4:	85 ff                	test   %edi,%edi
    42e6:	74 29                	je     4311 <str_nlength+0x41>
    42e8:	31 c9                	xor    %ecx,%ecx
    42ea:	bb 01 00 00 00       	mov    $0x1,%ebx
    42ef:	90                   	nop
    42f0:	8a 04 0e             	mov    (%esi,%ecx,1),%al
    42f3:	84 c0                	test   %al,%al
    42f5:	78 29                	js     4320 <str_nlength+0x50>
    42f7:	39 5d 0c             	cmp    %ebx,0xc(%ebp)
    42fa:	0f 83 a1 00 00 00    	jae    43a1 <str_nlength+0xd1>
    4300:	89 d9                	mov    %ebx,%ecx
    4302:	8b 5d f0             	mov    -0x10(%ebp),%ebx
    4305:	43                   	inc    %ebx
    4306:	89 5d f0             	mov    %ebx,-0x10(%ebp)
    4309:	8d 59 01             	lea    0x1(%ecx),%ebx
    430c:	39 5d 0c             	cmp    %ebx,0xc(%ebp)
    430f:	73 df                	jae    42f0 <str_nlength+0x20>
    4311:	8b 45 f0             	mov    -0x10(%ebp),%eax
    4314:	5a                   	pop    %edx
    4315:	5b                   	pop    %ebx
    4316:	5e                   	pop    %esi
    4317:	5f                   	pop    %edi
    4318:	5d                   	pop    %ebp
    4319:	c3                   	ret    
    431a:	8d b6 00 00 00 00    	lea    0x0(%esi),%esi
    4320:	88 c2                	mov    %al,%dl
    4322:	83 e2 e0             	and    $0xffffffe0,%edx
    4325:	80 fa c0             	cmp    $0xc0,%dl
    4328:	74 1e                	je     4348 <str_nlength+0x78>
    432a:	88 c2                	mov    %al,%dl
    432c:	83 e2 f0             	and    $0xfffffff0,%edx
    432f:	80 fa e0             	cmp    $0xe0,%dl
    4332:	74 64                	je     4398 <str_nlength+0xc8>
    4334:	88 c2                	mov    %al,%dl
    4336:	83 e2 f8             	and    $0xfffffff8,%edx
    4339:	80 fa f0             	cmp    $0xf0,%dl
    433c:	75 c2                	jne    4300 <str_nlength+0x30>
    433e:	b2 07                	mov    $0x7,%dl
    4340:	bf 03 00 00 00       	mov    $0x3,%edi
    4345:	eb 08                	jmp    434f <str_nlength+0x7f>
    4347:	90                   	nop
    4348:	b2 1f                	mov    $0x1f,%dl
    434a:	bf 01 00 00 00       	mov    $0x1,%edi
    434f:	01 df                	add    %ebx,%edi
    4351:	39 7d 0c             	cmp    %edi,0xc(%ebp)
    4354:	72 aa                	jb     4300 <str_nlength+0x30>
    4356:	21 d0                	and    %edx,%eax
    4358:	8a 14 1e             	mov    (%esi,%ebx,1),%dl
    435b:	8d 4b 01             	lea    0x1(%ebx),%ecx
    435e:	88 d3                	mov    %dl,%bl
    4360:	83 e3 c0             	and    $0xffffffc0,%ebx
    4363:	25 ff 00 00 00       	and    $0xff,%eax
    4368:	80 fb 80             	cmp    $0x80,%bl
    436b:	74 12                	je     437f <str_nlength+0xaf>
    436d:	eb 93                	jmp    4302 <str_nlength+0x32>
    436f:	90                   	nop
    4370:	41                   	inc    %ecx
    4371:	8a 54 0e ff          	mov    -0x1(%esi,%ecx,1),%dl
    4375:	88 d3                	mov    %dl,%bl
    4377:	83 e3 c0             	and    $0xffffffc0,%ebx
    437a:	80 fb 80             	cmp    $0x80,%bl
    437d:	75 83                	jne    4302 <str_nlength+0x32>
    437f:	c1 e0 06             	shl    $0x6,%eax
    4382:	83 e2 3f             	and    $0x3f,%edx
    4385:	09 d0                	or     %edx,%eax
    4387:	39 f9                	cmp    %edi,%ecx
    4389:	75 e5                	jne    4370 <str_nlength+0xa0>
    438b:	85 c0                	test   %eax,%eax
    438d:	0f 85 6f ff ff ff    	jne    4302 <str_nlength+0x32>
    4393:	e9 79 ff ff ff       	jmp    4311 <str_nlength+0x41>
    4398:	b2 0f                	mov    $0xf,%dl
    439a:	bf 02 00 00 00       	mov    $0x2,%edi
    439f:	eb ae                	jmp    434f <str_nlength+0x7f>
    43a1:	83 e0 7f             	and    $0x7f,%eax
    43a4:	89 d9                	mov    %ebx,%ecx
    43a6:	eb e3                	jmp    438b <str_nlength+0xbb>
    43a8:	90                   	nop
    43a9:	8d b4 26 00 00 00 00 	lea    0x0(%esi,%eiz,1),%esi

000043b0 <wstr_nlength>:
    43b0:	55                   	push   %ebp
    43b1:	31 c0                	xor    %eax,%eax
    43b3:	89 e5                	mov    %esp,%ebp
    43b5:	53                   	push   %ebx
    43b6:	8b 4d 0c             	mov    0xc(%ebp),%ecx
    43b9:	8b 5d 08             	mov    0x8(%ebp),%ebx
    43bc:	83 e1 fc             	and    $0xfffffffc,%ecx
    43bf:	74 22                	je     43e3 <wstr_nlength+0x33>
    43c1:	8b 13                	mov    (%ebx),%edx
    43c3:	85 d2                	test   %edx,%edx
    43c5:	75 10                	jne    43d7 <wstr_nlength+0x27>
    43c7:	eb 1a                	jmp    43e3 <wstr_nlength+0x33>
    43c9:	8d b4 26 00 00 00 00 	lea    0x0(%esi,%eiz,1),%esi
    43d0:	8b 14 83             	mov    (%ebx,%eax,4),%edx
    43d3:	85 d2                	test   %edx,%edx
    43d5:	74 0c                	je     43e3 <wstr_nlength+0x33>
    43d7:	40                   	inc    %eax
    43d8:	8d 14 85 00 00 00 00 	lea    0x0(,%eax,4),%edx
    43df:	39 ca                	cmp    %ecx,%edx
    43e1:	72 ed                	jb     43d0 <wstr_nlength+0x20>
    43e3:	5b                   	pop    %ebx
    43e4:	5d                   	pop    %ebp
    43e5:	c3                   	ret    
    43e6:	8d 76 00             	lea    0x0(%esi),%esi
    43e9:	8d bc 27 00 00 00 00 	lea    0x0(%edi,%eiz,1),%edi

000043f0 <chr_width>:
    43f0:	55                   	push   %ebp
    43f1:	b8 01 00 00 00       	mov    $0x1,%eax
    43f6:	89 e5                	mov    %esp,%ebp
    43f8:	5d                   	pop    %ebp
    43f9:	c3                   	ret    
    43fa:	8d b6 00 00 00 00    	lea    0x0(%esi),%esi

00004400 <str_width>:
    4400:	55                   	push   %ebp
    4401:	31 c9                	xor    %ecx,%ecx
    4403:	89 e5                	mov    %esp,%ebp
    4405:	57                   	push   %edi
    4406:	56                   	push   %esi
    4407:	53                   	push   %ebx
    4408:	83 ec 08             	sub    $0x8,%esp
    440b:	c7 45 ec 00 00 00 00 	movl   $0x0,-0x14(%ebp)
    4412:	8b 75 08             	mov    0x8(%ebp),%esi
    4415:	eb 17                	jmp    442e <str_width+0x2e>
    4417:	90                   	nop
    4418:	83 e0 7f             	and    $0x7f,%eax
    441b:	89 d9                	mov    %ebx,%ecx
    441d:	89 45 f0             	mov    %eax,-0x10(%ebp)
    4420:	8b 5d f0             	mov    -0x10(%ebp),%ebx
    4423:	85 db                	test   %ebx,%ebx
    4425:	74 33                	je     445a <str_width+0x5a>
    4427:	8b 7d ec             	mov    -0x14(%ebp),%edi
    442a:	47                   	inc    %edi
    442b:	89 7d ec             	mov    %edi,-0x14(%ebp)
    442e:	8a 04 0e             	mov    (%esi,%ecx,1),%al
    4431:	8d 59 01             	lea    0x1(%ecx),%ebx
    4434:	84 c0                	test   %al,%al
    4436:	79 e0                	jns    4418 <str_width+0x18>
    4438:	88 c2                	mov    %al,%dl
    443a:	83 e2 e0             	and    $0xffffffe0,%edx
    443d:	80 fa c0             	cmp    $0xc0,%dl
    4440:	74 22                	je     4464 <str_width+0x64>
    4442:	88 c2                	mov    %al,%dl
    4444:	83 e2 f0             	and    $0xfffffff0,%edx
    4447:	80 fa e0             	cmp    $0xe0,%dl
    444a:	74 5f                	je     44ab <str_width+0xab>
    444c:	88 c2                	mov    %al,%dl
    444e:	83 e2 f8             	and    $0xfffffff8,%edx
    4451:	80 fa f0             	cmp    $0xf0,%dl
    4454:	74 62                	je     44b8 <str_width+0xb8>
    4456:	89 d9                	mov    %ebx,%ecx
    4458:	eb cd                	jmp    4427 <str_width+0x27>
    445a:	8b 45 ec             	mov    -0x14(%ebp),%eax
    445d:	5a                   	pop    %edx
    445e:	59                   	pop    %ecx
    445f:	5b                   	pop    %ebx
    4460:	5e                   	pop    %esi
    4461:	5f                   	pop    %edi
    4462:	5d                   	pop    %ebp
    4463:	c3                   	ret    
    4464:	83 e0 1f             	and    $0x1f,%eax
    4467:	bf 01 00 00 00       	mov    $0x1,%edi
    446c:	89 45 f0             	mov    %eax,-0x10(%ebp)
    446f:	8a 14 1e             	mov    (%esi,%ebx,1),%dl
    4472:	83 c1 02             	add    $0x2,%ecx
    4475:	88 d0                	mov    %dl,%al
    4477:	83 e0 c0             	and    $0xffffffc0,%eax
    447a:	3c 80                	cmp    $0x80,%al
    447c:	75 a9                	jne    4427 <str_width+0x27>
    447e:	01 df                	add    %ebx,%edi
    4480:	8b 45 f0             	mov    -0x10(%ebp),%eax
    4483:	eb 12                	jmp    4497 <str_width+0x97>
    4485:	8d 76 00             	lea    0x0(%esi),%esi
    4488:	41                   	inc    %ecx
    4489:	8a 54 0e ff          	mov    -0x1(%esi,%ecx,1),%dl
    448d:	88 d3                	mov    %dl,%bl
    448f:	83 e3 c0             	and    $0xffffffc0,%ebx
    4492:	80 fb 80             	cmp    $0x80,%bl
    4495:	75 90                	jne    4427 <str_width+0x27>
    4497:	c1 e0 06             	shl    $0x6,%eax
    449a:	83 e2 3f             	and    $0x3f,%edx
    449d:	09 d0                	or     %edx,%eax
    449f:	39 f9                	cmp    %edi,%ecx
    44a1:	75 e5                	jne    4488 <str_width+0x88>
    44a3:	89 45 f0             	mov    %eax,-0x10(%ebp)
    44a6:	e9 75 ff ff ff       	jmp    4420 <str_width+0x20>
    44ab:	83 e0 0f             	and    $0xf,%eax
    44ae:	bf 02 00 00 00       	mov    $0x2,%edi
    44b3:	89 45 f0             	mov    %eax,-0x10(%ebp)
    44b6:	eb b7                	jmp    446f <str_width+0x6f>
    44b8:	83 e0 07             	and    $0x7,%eax
    44bb:	bf 03 00 00 00       	mov    $0x3,%edi
    44c0:	89 45 f0             	mov    %eax,-0x10(%ebp)
    44c3:	eb aa                	jmp    446f <str_width+0x6f>
    44c5:	8d 74 26 00          	lea    0x0(%esi,%eiz,1),%esi
    44c9:	8d bc 27 00 00 00 00 	lea    0x0(%edi,%eiz,1),%edi

000044d0 <ascii_check>:
    44d0:	55                   	push   %ebp
    44d1:	89 e5                	mov    %esp,%ebp
    44d3:	83 7d 08 7f          	cmpl   $0x7f,0x8(%ebp)
    44d7:	5d                   	pop    %ebp
    44d8:	0f 96 c0             	setbe  %al
    44db:	c3                   	ret    
    44dc:	8d 74 26 00          	lea    0x0(%esi,%eiz,1),%esi

000044e0 <chr_check>:
    44e0:	55                   	push   %ebp
    44e1:	89 e5                	mov    %esp,%ebp
    44e3:	81 7d 08 ff ff 10 00 	cmpl   $0x10ffff,0x8(%ebp)
    44ea:	5d                   	pop    %ebp
    44eb:	0f 96 c0             	setbe  %al
    44ee:	c3                   	ret    
    44ef:	90                   	nop

000044f0 <str_cmp>:
    44f0:	55                   	push   %ebp
    44f1:	89 e5                	mov    %esp,%ebp
    44f3:	57                   	push   %edi
    44f4:	56                   	push   %esi
    44f5:	53                   	push   %ebx
    44f6:	83 ec 08             	sub    $0x8,%esp
    44f9:	31 f6                	xor    %esi,%esi
    44fb:	31 ff                	xor    %edi,%edi
    44fd:	eb 3c                	jmp    453b <str_cmp+0x4b>
    44ff:	90                   	nop
    4500:	83 e3 7f             	and    $0x7f,%ebx
    4503:	89 cf                	mov    %ecx,%edi
    4505:	8d 46 01             	lea    0x1(%esi),%eax
    4508:	89 45 f0             	mov    %eax,-0x10(%ebp)
    450b:	8b 45 0c             	mov    0xc(%ebp),%eax
    450e:	8a 14 30             	mov    (%eax,%esi,1),%dl
    4511:	84 d2                	test   %dl,%dl
    4513:	78 73                	js     4588 <str_cmp+0x98>
    4515:	89 d0                	mov    %edx,%eax
    4517:	8b 75 f0             	mov    -0x10(%ebp),%esi
    451a:	83 e0 7f             	and    $0x7f,%eax
    451d:	39 d8                	cmp    %ebx,%eax
    451f:	0f 8f 9a 00 00 00    	jg     45bf <str_cmp+0xcf>
    4525:	0f 8c 94 01 00 00    	jl     46bf <str_cmp+0x1cf>
    452b:	85 db                	test   %ebx,%ebx
    452d:	0f 84 98 01 00 00    	je     46cb <str_cmp+0x1db>
    4533:	85 c0                	test   %eax,%eax
    4535:	0f 84 90 01 00 00    	je     46cb <str_cmp+0x1db>
    453b:	8b 45 08             	mov    0x8(%ebp),%eax
    453e:	8d 4f 01             	lea    0x1(%edi),%ecx
    4541:	8a 1c 38             	mov    (%eax,%edi,1),%bl
    4544:	84 db                	test   %bl,%bl
    4546:	79 b8                	jns    4500 <str_cmp+0x10>
    4548:	88 da                	mov    %bl,%dl
    454a:	83 e2 e0             	and    $0xffffffe0,%edx
    454d:	80 fa c0             	cmp    $0xc0,%dl
    4550:	74 77                	je     45c9 <str_cmp+0xd9>
    4552:	88 da                	mov    %bl,%dl
    4554:	83 e2 f0             	and    $0xfffffff0,%edx
    4557:	80 fa e0             	cmp    $0xe0,%dl
    455a:	0f 84 38 01 00 00    	je     4698 <str_cmp+0x1a8>
    4560:	88 da                	mov    %bl,%dl
    4562:	83 e2 f8             	and    $0xfffffff8,%edx
    4565:	80 fa f0             	cmp    $0xf0,%dl
    4568:	0f 84 74 01 00 00    	je     46e2 <str_cmp+0x1f2>
    456e:	8d 46 01             	lea    0x1(%esi),%eax
    4571:	89 cf                	mov    %ecx,%edi
    4573:	89 45 f0             	mov    %eax,-0x10(%ebp)
    4576:	8b 45 0c             	mov    0xc(%ebp),%eax
    4579:	bb 3f 00 00 00       	mov    $0x3f,%ebx
    457e:	8a 14 30             	mov    (%eax,%esi,1),%dl
    4581:	84 d2                	test   %dl,%dl
    4583:	79 90                	jns    4515 <str_cmp+0x25>
    4585:	8d 76 00             	lea    0x0(%esi),%esi
    4588:	88 d0                	mov    %dl,%al
    458a:	83 e0 e0             	and    $0xffffffe0,%eax
    458d:	3c c0                	cmp    $0xc0,%al
    458f:	0f 84 90 00 00 00    	je     4625 <str_cmp+0x135>
    4595:	88 d0                	mov    %dl,%al
    4597:	83 e0 f0             	and    $0xfffffff0,%eax
    459a:	3c e0                	cmp    $0xe0,%al
    459c:	0f 84 05 01 00 00    	je     46a7 <str_cmp+0x1b7>
    45a2:	88 d0                	mov    %dl,%al
    45a4:	83 e0 f8             	and    $0xfffffff8,%eax
    45a7:	3c f0                	cmp    $0xf0,%al
    45a9:	0f 84 25 01 00 00    	je     46d4 <str_cmp+0x1e4>
    45af:	b8 3f 00 00 00       	mov    $0x3f,%eax
    45b4:	8b 75 f0             	mov    -0x10(%ebp),%esi
    45b7:	39 d8                	cmp    %ebx,%eax
    45b9:	0f 8e 66 ff ff ff    	jle    4525 <str_cmp+0x35>
    45bf:	5a                   	pop    %edx
    45c0:	83 c8 ff             	or     $0xffffffff,%eax
    45c3:	59                   	pop    %ecx
    45c4:	5b                   	pop    %ebx
    45c5:	5e                   	pop    %esi
    45c6:	5f                   	pop    %edi
    45c7:	5d                   	pop    %ebp
    45c8:	c3                   	ret    
    45c9:	83 e3 1f             	and    $0x1f,%ebx
    45cc:	c7 45 f0 01 00 00 00 	movl   $0x1,-0x10(%ebp)
    45d3:	8a 04 08             	mov    (%eax,%ecx,1),%al
    45d6:	83 c7 02             	add    $0x2,%edi
    45d9:	88 c2                	mov    %al,%dl
    45db:	83 e2 c0             	and    $0xffffffc0,%edx
    45de:	80 fa 80             	cmp    $0x80,%dl
    45e1:	75 38                	jne    461b <str_cmp+0x12b>
    45e3:	8b 55 f0             	mov    -0x10(%ebp),%edx
    45e6:	89 75 f0             	mov    %esi,-0x10(%ebp)
    45e9:	01 d1                	add    %edx,%ecx
    45eb:	8b 75 08             	mov    0x8(%ebp),%esi
    45ee:	eb 0f                	jmp    45ff <str_cmp+0x10f>
    45f0:	47                   	inc    %edi
    45f1:	8a 44 3e ff          	mov    -0x1(%esi,%edi,1),%al
    45f5:	88 c2                	mov    %al,%dl
    45f7:	83 e2 c0             	and    $0xffffffc0,%edx
    45fa:	80 fa 80             	cmp    $0x80,%dl
    45fd:	75 19                	jne    4618 <str_cmp+0x128>
    45ff:	c1 e3 06             	shl    $0x6,%ebx
    4602:	83 e0 3f             	and    $0x3f,%eax
    4605:	09 c3                	or     %eax,%ebx
    4607:	39 cf                	cmp    %ecx,%edi
    4609:	75 e5                	jne    45f0 <str_cmp+0x100>
    460b:	8b 75 f0             	mov    -0x10(%ebp),%esi
    460e:	e9 f2 fe ff ff       	jmp    4505 <str_cmp+0x15>
    4613:	90                   	nop
    4614:	8d 74 26 00          	lea    0x0(%esi,%eiz,1),%esi
    4618:	8b 75 f0             	mov    -0x10(%ebp),%esi
    461b:	bb 3f 00 00 00       	mov    $0x3f,%ebx
    4620:	e9 e0 fe ff ff       	jmp    4505 <str_cmp+0x15>
    4625:	b0 1f                	mov    $0x1f,%al
    4627:	c7 45 ec 01 00 00 00 	movl   $0x1,-0x14(%ebp)
    462e:	21 d0                	and    %edx,%eax
    4630:	8b 4d 0c             	mov    0xc(%ebp),%ecx
    4633:	8b 55 f0             	mov    -0x10(%ebp),%edx
    4636:	25 ff 00 00 00       	and    $0xff,%eax
    463b:	83 c6 02             	add    $0x2,%esi
    463e:	8a 14 11             	mov    (%ecx,%edx,1),%dl
    4641:	88 d1                	mov    %dl,%cl
    4643:	83 e1 c0             	and    $0xffffffc0,%ecx
    4646:	80 f9 80             	cmp    $0x80,%cl
    4649:	75 6a                	jne    46b5 <str_cmp+0x1c5>
    464b:	8b 4d f0             	mov    -0x10(%ebp),%ecx
    464e:	89 7d f0             	mov    %edi,-0x10(%ebp)
    4651:	03 4d ec             	add    -0x14(%ebp),%ecx
    4654:	8b 7d 0c             	mov    0xc(%ebp),%edi
    4657:	89 5d ec             	mov    %ebx,-0x14(%ebp)
    465a:	89 cb                	mov    %ecx,%ebx
    465c:	eb 11                	jmp    466f <str_cmp+0x17f>
    465e:	66 90                	xchg   %ax,%ax
    4660:	46                   	inc    %esi
    4661:	8a 54 37 ff          	mov    -0x1(%edi,%esi,1),%dl
    4665:	88 d1                	mov    %dl,%cl
    4667:	83 e1 c0             	and    $0xffffffc0,%ecx
    466a:	80 f9 80             	cmp    $0x80,%cl
    466d:	75 19                	jne    4688 <str_cmp+0x198>
    466f:	c1 e0 06             	shl    $0x6,%eax
    4672:	83 e2 3f             	and    $0x3f,%edx
    4675:	09 d0                	or     %edx,%eax
    4677:	39 de                	cmp    %ebx,%esi
    4679:	75 e5                	jne    4660 <str_cmp+0x170>
    467b:	8b 7d f0             	mov    -0x10(%ebp),%edi
    467e:	8b 5d ec             	mov    -0x14(%ebp),%ebx
    4681:	e9 97 fe ff ff       	jmp    451d <str_cmp+0x2d>
    4686:	66 90                	xchg   %ax,%ax
    4688:	8b 7d f0             	mov    -0x10(%ebp),%edi
    468b:	8b 5d ec             	mov    -0x14(%ebp),%ebx
    468e:	b8 3f 00 00 00       	mov    $0x3f,%eax
    4693:	e9 85 fe ff ff       	jmp    451d <str_cmp+0x2d>
    4698:	83 e3 0f             	and    $0xf,%ebx
    469b:	c7 45 f0 02 00 00 00 	movl   $0x2,-0x10(%ebp)
    46a2:	e9 2c ff ff ff       	jmp    45d3 <str_cmp+0xe3>
    46a7:	b0 0f                	mov    $0xf,%al
    46a9:	c7 45 ec 02 00 00 00 	movl   $0x2,-0x14(%ebp)
    46b0:	e9 79 ff ff ff       	jmp    462e <str_cmp+0x13e>
    46b5:	b8 3f 00 00 00       	mov    $0x3f,%eax
    46ba:	e9 5e fe ff ff       	jmp    451d <str_cmp+0x2d>
    46bf:	5a                   	pop    %edx
    46c0:	b8 01 00 00 00       	mov    $0x1,%eax
    46c5:	59                   	pop    %ecx
    46c6:	5b                   	pop    %ebx
    46c7:	5e                   	pop    %esi
    46c8:	5f                   	pop    %edi
    46c9:	5d                   	pop    %ebp
    46ca:	c3                   	ret    
    46cb:	5a                   	pop    %edx
    46cc:	31 c0                	xor    %eax,%eax
    46ce:	59                   	pop    %ecx
    46cf:	5b                   	pop    %ebx
    46d0:	5e                   	pop    %esi
    46d1:	5f                   	pop    %edi
    46d2:	5d                   	pop    %ebp
    46d3:	c3                   	ret    
    46d4:	b0 07                	mov    $0x7,%al
    46d6:	c7 45 ec 03 00 00 00 	movl   $0x3,-0x14(%ebp)
    46dd:	e9 4c ff ff ff       	jmp    462e <str_cmp+0x13e>
    46e2:	83 e3 07             	and    $0x7,%ebx
    46e5:	c7 45 f0 03 00 00 00 	movl   $0x3,-0x10(%ebp)
    46ec:	e9 e2 fe ff ff       	jmp    45d3 <str_cmp+0xe3>
    46f1:	eb 0d                	jmp    4700 <str_lcmp>
    46f3:	90                   	nop
    46f4:	90                   	nop
    46f5:	90                   	nop
    46f6:	90                   	nop
    46f7:	90                   	nop
    46f8:	90                   	nop
    46f9:	90                   	nop
    46fa:	90                   	nop
    46fb:	90                   	nop
    46fc:	90                   	nop
    46fd:	90                   	nop
    46fe:	90                   	nop
    46ff:	90                   	nop

00004700 <str_lcmp>:
    4700:	55                   	push   %ebp
    4701:	89 e5                	mov    %esp,%ebp
    4703:	57                   	push   %edi
    4704:	56                   	push   %esi
    4705:	53                   	push   %ebx
    4706:	83 ec 0c             	sub    $0xc,%esp
    4709:	8b 4d 10             	mov    0x10(%ebp),%ecx
    470c:	85 c9                	test   %ecx,%ecx
    470e:	0f 84 e6 01 00 00    	je     48fa <str_lcmp+0x1fa>
    4714:	31 ff                	xor    %edi,%edi
    4716:	31 f6                	xor    %esi,%esi
    4718:	c7 45 ec 00 00 00 00 	movl   $0x0,-0x14(%ebp)
    471f:	eb 57                	jmp    4778 <str_lcmp+0x78>
    4721:	8d b4 26 00 00 00 00 	lea    0x0(%esi,%eiz,1),%esi
    4728:	83 e3 7f             	and    $0x7f,%ebx
    472b:	89 ce                	mov    %ecx,%esi
    472d:	8d 47 01             	lea    0x1(%edi),%eax
    4730:	89 45 f0             	mov    %eax,-0x10(%ebp)
    4733:	8b 45 0c             	mov    0xc(%ebp),%eax
    4736:	8a 04 38             	mov    (%eax,%edi,1),%al
    4739:	84 c0                	test   %al,%al
    473b:	0f 88 87 00 00 00    	js     47c8 <str_lcmp+0xc8>
    4741:	83 e0 7f             	and    $0x7f,%eax
    4744:	8b 7d f0             	mov    -0x10(%ebp),%edi
    4747:	39 d8                	cmp    %ebx,%eax
    4749:	0f 8f b3 00 00 00    	jg     4802 <str_lcmp+0x102>
    474f:	0f 8c d6 01 00 00    	jl     492b <str_lcmp+0x22b>
    4755:	85 db                	test   %ebx,%ebx
    4757:	0f 84 9d 01 00 00    	je     48fa <str_lcmp+0x1fa>
    475d:	85 c0                	test   %eax,%eax
    475f:	0f 84 95 01 00 00    	je     48fa <str_lcmp+0x1fa>
    4765:	8b 45 ec             	mov    -0x14(%ebp),%eax
    4768:	40                   	inc    %eax
    4769:	89 45 ec             	mov    %eax,-0x14(%ebp)
    476c:	8b 45 ec             	mov    -0x14(%ebp),%eax
    476f:	39 45 10             	cmp    %eax,0x10(%ebp)
    4772:	0f 84 82 01 00 00    	je     48fa <str_lcmp+0x1fa>
    4778:	8b 45 08             	mov    0x8(%ebp),%eax
    477b:	8d 4e 01             	lea    0x1(%esi),%ecx
    477e:	8a 1c 30             	mov    (%eax,%esi,1),%bl
    4781:	84 db                	test   %bl,%bl
    4783:	79 a3                	jns    4728 <str_lcmp+0x28>
    4785:	88 da                	mov    %bl,%dl
    4787:	83 e2 e0             	and    $0xffffffe0,%edx
    478a:	80 fa c0             	cmp    $0xc0,%dl
    478d:	74 7e                	je     480d <str_lcmp+0x10d>
    478f:	88 da                	mov    %bl,%dl
    4791:	83 e2 f0             	and    $0xfffffff0,%edx
    4794:	80 fa e0             	cmp    $0xe0,%dl
    4797:	0f 84 4e 01 00 00    	je     48eb <str_lcmp+0x1eb>
    479d:	88 da                	mov    %bl,%dl
    479f:	83 e2 f8             	and    $0xfffffff8,%edx
    47a2:	80 fa f0             	cmp    $0xf0,%dl
    47a5:	0f 84 71 01 00 00    	je     491c <str_lcmp+0x21c>
    47ab:	8d 47 01             	lea    0x1(%edi),%eax
    47ae:	89 ce                	mov    %ecx,%esi
    47b0:	89 45 f0             	mov    %eax,-0x10(%ebp)
    47b3:	8b 45 0c             	mov    0xc(%ebp),%eax
    47b6:	bb 3f 00 00 00       	mov    $0x3f,%ebx
    47bb:	8a 04 38             	mov    (%eax,%edi,1),%al
    47be:	84 c0                	test   %al,%al
    47c0:	0f 89 7b ff ff ff    	jns    4741 <str_lcmp+0x41>
    47c6:	66 90                	xchg   %ax,%ax
    47c8:	88 c2                	mov    %al,%dl
    47ca:	83 e2 e0             	and    $0xffffffe0,%edx
    47cd:	80 fa c0             	cmp    $0xc0,%dl
    47d0:	0f 84 97 00 00 00    	je     486d <str_lcmp+0x16d>
    47d6:	88 c2                	mov    %al,%dl
    47d8:	83 e2 f0             	and    $0xfffffff0,%edx
    47db:	80 fa e0             	cmp    $0xe0,%dl
    47de:	0f 84 fc 00 00 00    	je     48e0 <str_lcmp+0x1e0>
    47e4:	88 c2                	mov    %al,%dl
    47e6:	83 e2 f8             	and    $0xfffffff8,%edx
    47e9:	80 fa f0             	cmp    $0xf0,%dl
    47ec:	0f 84 1c 01 00 00    	je     490e <str_lcmp+0x20e>
    47f2:	b8 3f 00 00 00       	mov    $0x3f,%eax
    47f7:	8b 7d f0             	mov    -0x10(%ebp),%edi
    47fa:	39 d8                	cmp    %ebx,%eax
    47fc:	0f 8e 4d ff ff ff    	jle    474f <str_lcmp+0x4f>
    4802:	83 c4 0c             	add    $0xc,%esp
    4805:	83 c8 ff             	or     $0xffffffff,%eax
    4808:	5b                   	pop    %ebx
    4809:	5e                   	pop    %esi
    480a:	5f                   	pop    %edi
    480b:	5d                   	pop    %ebp
    480c:	c3                   	ret    
    480d:	83 e3 1f             	and    $0x1f,%ebx
    4810:	c7 45 f0 01 00 00 00 	movl   $0x1,-0x10(%ebp)
    4817:	8a 04 08             	mov    (%eax,%ecx,1),%al
    481a:	83 c6 02             	add    $0x2,%esi
    481d:	88 c2                	mov    %al,%dl
    481f:	83 e2 c0             	and    $0xffffffc0,%edx
    4822:	80 fa 80             	cmp    $0x80,%dl
    4825:	75 3c                	jne    4863 <str_lcmp+0x163>
    4827:	8b 55 f0             	mov    -0x10(%ebp),%edx
    482a:	89 7d f0             	mov    %edi,-0x10(%ebp)
    482d:	01 d1                	add    %edx,%ecx
    482f:	8b 7d 08             	mov    0x8(%ebp),%edi
    4832:	eb 13                	jmp    4847 <str_lcmp+0x147>
    4834:	8d 74 26 00          	lea    0x0(%esi,%eiz,1),%esi
    4838:	46                   	inc    %esi
    4839:	8a 44 37 ff          	mov    -0x1(%edi,%esi,1),%al
    483d:	88 c2                	mov    %al,%dl
    483f:	83 e2 c0             	and    $0xffffffc0,%edx
    4842:	80 fa 80             	cmp    $0x80,%dl
    4845:	75 19                	jne    4860 <str_lcmp+0x160>
    4847:	c1 e3 06             	shl    $0x6,%ebx
    484a:	83 e0 3f             	and    $0x3f,%eax
    484d:	09 c3                	or     %eax,%ebx
    484f:	39 ce                	cmp    %ecx,%esi
    4851:	75 e5                	jne    4838 <str_lcmp+0x138>
    4853:	8b 7d f0             	mov    -0x10(%ebp),%edi
    4856:	e9 d2 fe ff ff       	jmp    472d <str_lcmp+0x2d>
    485b:	90                   	nop
    485c:	8d 74 26 00          	lea    0x0(%esi,%eiz,1),%esi
    4860:	8b 7d f0             	mov    -0x10(%ebp),%edi
    4863:	bb 3f 00 00 00       	mov    $0x3f,%ebx
    4868:	e9 c0 fe ff ff       	jmp    472d <str_lcmp+0x2d>
    486d:	b2 1f                	mov    $0x1f,%dl
    486f:	c7 45 e8 01 00 00 00 	movl   $0x1,-0x18(%ebp)
    4876:	21 d0                	and    %edx,%eax
    4878:	8b 4d 0c             	mov    0xc(%ebp),%ecx
    487b:	8b 55 f0             	mov    -0x10(%ebp),%edx
    487e:	25 ff 00 00 00       	and    $0xff,%eax
    4883:	83 c7 02             	add    $0x2,%edi
    4886:	8a 14 11             	mov    (%ecx,%edx,1),%dl
    4889:	88 d1                	mov    %dl,%cl
    488b:	83 e1 c0             	and    $0xffffffc0,%ecx
    488e:	80 f9 80             	cmp    $0x80,%cl
    4891:	75 71                	jne    4904 <str_lcmp+0x204>
    4893:	8b 4d f0             	mov    -0x10(%ebp),%ecx
    4896:	89 5d f0             	mov    %ebx,-0x10(%ebp)
    4899:	03 4d e8             	add    -0x18(%ebp),%ecx
    489c:	8b 5d 0c             	mov    0xc(%ebp),%ebx
    489f:	89 75 e8             	mov    %esi,-0x18(%ebp)
    48a2:	89 ce                	mov    %ecx,%esi
    48a4:	eb 11                	jmp    48b7 <str_lcmp+0x1b7>
    48a6:	66 90                	xchg   %ax,%ax
    48a8:	47                   	inc    %edi
    48a9:	8a 54 3b ff          	mov    -0x1(%ebx,%edi,1),%dl
    48ad:	88 d1                	mov    %dl,%cl
    48af:	83 e1 c0             	and    $0xffffffc0,%ecx
    48b2:	80 f9 80             	cmp    $0x80,%cl
    48b5:	75 19                	jne    48d0 <str_lcmp+0x1d0>
    48b7:	c1 e0 06             	shl    $0x6,%eax
    48ba:	83 e2 3f             	and    $0x3f,%edx
    48bd:	09 d0                	or     %edx,%eax
    48bf:	39 f7                	cmp    %esi,%edi
    48c1:	75 e5                	jne    48a8 <str_lcmp+0x1a8>
    48c3:	8b 5d f0             	mov    -0x10(%ebp),%ebx
    48c6:	8b 75 e8             	mov    -0x18(%ebp),%esi
    48c9:	e9 79 fe ff ff       	jmp    4747 <str_lcmp+0x47>
    48ce:	66 90                	xchg   %ax,%ax
    48d0:	8b 5d f0             	mov    -0x10(%ebp),%ebx
    48d3:	8b 75 e8             	mov    -0x18(%ebp),%esi
    48d6:	b8 3f 00 00 00       	mov    $0x3f,%eax
    48db:	e9 67 fe ff ff       	jmp    4747 <str_lcmp+0x47>
    48e0:	b2 0f                	mov    $0xf,%dl
    48e2:	c7 45 e8 02 00 00 00 	movl   $0x2,-0x18(%ebp)
    48e9:	eb 8b                	jmp    4876 <str_lcmp+0x176>
    48eb:	83 e3 0f             	and    $0xf,%ebx
    48ee:	c7 45 f0 02 00 00 00 	movl   $0x2,-0x10(%ebp)
    48f5:	e9 1d ff ff ff       	jmp    4817 <str_lcmp+0x117>
    48fa:	83 c4 0c             	add    $0xc,%esp
    48fd:	31 c0                	xor    %eax,%eax
    48ff:	5b                   	pop    %ebx
    4900:	5e                   	pop    %esi
    4901:	5f                   	pop    %edi
    4902:	5d                   	pop    %ebp
    4903:	c3                   	ret    
    4904:	b8 3f 00 00 00       	mov    $0x3f,%eax
    4909:	e9 39 fe ff ff       	jmp    4747 <str_lcmp+0x47>
    490e:	b2 07                	mov    $0x7,%dl
    4910:	c7 45 e8 03 00 00 00 	movl   $0x3,-0x18(%ebp)
    4917:	e9 5a ff ff ff       	jmp    4876 <str_lcmp+0x176>
    491c:	83 e3 07             	and    $0x7,%ebx
    491f:	c7 45 f0 03 00 00 00 	movl   $0x3,-0x10(%ebp)
    4926:	e9 ec fe ff ff       	jmp    4817 <str_lcmp+0x117>
    492b:	83 c4 0c             	add    $0xc,%esp
    492e:	b8 01 00 00 00       	mov    $0x1,%eax
    4933:	5b                   	pop    %ebx
    4934:	5e                   	pop    %esi
    4935:	5f                   	pop    %edi
    4936:	5d                   	pop    %ebp
    4937:	c3                   	ret    
