
pl050:     file format elf32-i386


Disassembly of section .init:

000010f4 <__entry>:
    10f4:	66 8c d0             	mov    %ss,%ax
    10f7:	8e d8                	mov    %eax,%ds
    10f9:	8e c0                	mov    %eax,%es
    10fb:	8e e0                	mov    %eax,%fs
    10fd:	b8 01 00 00 00       	mov    $0x1,%eax
    1102:	0f a2                	cpuid  
    1104:	0f ba e2 0b          	bt     $0xb,%edx
    1108:	73 0c                	jae    1116 <__entry+0x22>
    110a:	8d 05 38 f0 00 00    	lea    0xf038,%eax
    1110:	c7 00 a0 cd 00 00    	movl   $0xcda0,(%eax)
    1116:	6a 00                	push   $0x0
    1118:	6a 00                	push   $0x0
    111a:	89 e5                	mov    %esp,%ebp
    111c:	57                   	push   %edi
    111d:	e8 6e b7 00 00       	call   c890 <__main@plt>

Disassembly of section .text:

00001140 <pl050_fun_offline>:
    1140:	55                   	push   %ebp
    1141:	89 e5                	mov    %esp,%ebp
    1143:	53                   	push   %ebx
    1144:	83 ec 0c             	sub    $0xc,%esp
    1147:	8b 5d 08             	mov    0x8(%ebp),%ebx
    114a:	68 bf a8 00 00       	push   $0xa8bf
    114f:	6a 04                	push   $0x4
    1151:	e8 5a 18 00 00       	call   29b0 <ddf_msg>
    1156:	89 5d 08             	mov    %ebx,0x8(%ebp)
    1159:	83 c4 10             	add    $0x10,%esp
    115c:	8b 5d fc             	mov    -0x4(%ebp),%ebx
    115f:	c9                   	leave  
    1160:	e9 fb 14 00 00       	jmp    2660 <ddf_fun_offline>
    1165:	8d 74 26 00          	lea    0x0(%esi,%eiz,1),%esi
    1169:	8d bc 27 00 00 00 00 	lea    0x0(%edi,%eiz,1),%edi

00001170 <pl050_fun_online>:
    1170:	55                   	push   %ebp
    1171:	89 e5                	mov    %esp,%ebp
    1173:	53                   	push   %ebx
    1174:	83 ec 0c             	sub    $0xc,%esp
    1177:	8b 5d 08             	mov    0x8(%ebp),%ebx
    117a:	68 d3 a8 00 00       	push   $0xa8d3
    117f:	6a 04                	push   $0x4
    1181:	e8 2a 18 00 00       	call   29b0 <ddf_msg>
    1186:	89 5d 08             	mov    %ebx,0x8(%ebp)
    1189:	83 c4 10             	add    $0x10,%esp
    118c:	8b 5d fc             	mov    -0x4(%ebp),%ebx
    118f:	c9                   	leave  
    1190:	e9 9b 14 00 00       	jmp    2630 <ddf_fun_online>
    1195:	8d 74 26 00          	lea    0x0(%esi,%eiz,1),%esi
    1199:	8d bc 27 00 00 00 00 	lea    0x0(%edi,%eiz,1),%edi

000011a0 <pl050_char_conn>:
    11a0:	55                   	push   %ebp
    11a1:	89 e5                	mov    %esp,%ebp
    11a3:	56                   	push   %esi
    11a4:	53                   	push   %ebx
    11a5:	83 ec 0c             	sub    $0xc,%esp
    11a8:	8b 45 10             	mov    0x10(%ebp),%eax
    11ab:	8b 5d 08             	mov    0x8(%ebp),%ebx
    11ae:	8b 75 0c             	mov    0xc(%ebp),%esi
    11b1:	50                   	push   %eax
    11b2:	e8 c9 0f 00 00       	call   2180 <ddf_fun_get_dev>
    11b7:	89 04 24             	mov    %eax,(%esp)
    11ba:	e8 f1 0e 00 00       	call   20b0 <ddf_dev_data_get>
    11bf:	83 c0 10             	add    $0x10,%eax
    11c2:	89 75 0c             	mov    %esi,0xc(%ebp)
    11c5:	89 5d 08             	mov    %ebx,0x8(%ebp)
    11c8:	89 45 10             	mov    %eax,0x10(%ebp)
    11cb:	83 c4 10             	add    $0x10,%esp
    11ce:	8d 65 f8             	lea    -0x8(%ebp),%esp
    11d1:	5b                   	pop    %ebx
    11d2:	5e                   	pop    %esi
    11d3:	5d                   	pop    %ebp
    11d4:	e9 27 bc 00 00       	jmp    ce00 <chardev_conn@plt>
    11d9:	8d b4 26 00 00 00 00 	lea    0x0(%esi,%eiz,1),%esi

000011e0 <pl050_write>:
    11e0:	55                   	push   %ebp
    11e1:	89 e5                	mov    %esp,%ebp
    11e3:	57                   	push   %edi
    11e4:	56                   	push   %esi
    11e5:	53                   	push   %ebx
    11e6:	83 ec 0c             	sub    $0xc,%esp
    11e9:	8b 45 08             	mov    0x8(%ebp),%eax
    11ec:	8b 5d 10             	mov    0x10(%ebp),%ebx
    11ef:	8b 00                	mov    (%eax),%eax
    11f1:	8b 78 04             	mov    0x4(%eax),%edi
    11f4:	53                   	push   %ebx
    11f5:	8b 77 08             	mov    0x8(%edi),%esi
    11f8:	56                   	push   %esi
    11f9:	68 e6 a8 00 00       	push   $0xa8e6
    11fe:	6a 03                	push   $0x3
    1200:	e8 ab 17 00 00       	call   29b0 <ddf_msg>
    1205:	8b 45 10             	mov    0x10(%ebp),%eax
    1208:	83 c4 10             	add    $0x10,%esp
    120b:	85 c0                	test   %eax,%eax
    120d:	74 3b                	je     124a <pl050_write+0x6a>
    120f:	8b 5d 0c             	mov    0xc(%ebp),%ebx
    1212:	8b 75 10             	mov    0x10(%ebp),%esi
    1215:	01 de                	add    %ebx,%esi
    1217:	90                   	nop
    1218:	83 ec 0c             	sub    $0xc,%esp
    121b:	8b 47 20             	mov    0x20(%edi),%eax
    121e:	83 c0 04             	add    $0x4,%eax
    1221:	50                   	push   %eax
    1222:	e8 59 b8 00 00       	call   ca80 <pio_read_8@plt>
    1227:	83 c4 10             	add    $0x10,%esp
    122a:	a8 40                	test   $0x40,%al
    122c:	74 ea                	je     1218 <pl050_write+0x38>
    122e:	31 c0                	xor    %eax,%eax
    1230:	51                   	push   %ecx
    1231:	51                   	push   %ecx
    1232:	43                   	inc    %ebx
    1233:	8a 43 ff             	mov    -0x1(%ebx),%al
    1236:	50                   	push   %eax
    1237:	8b 47 20             	mov    0x20(%edi),%eax
    123a:	83 c0 08             	add    $0x8,%eax
    123d:	50                   	push   %eax
    123e:	e8 bd b8 00 00       	call   cb00 <pio_write_8@plt>
    1243:	83 c4 10             	add    $0x10,%esp
    1246:	39 f3                	cmp    %esi,%ebx
    1248:	75 ce                	jne    1218 <pl050_write+0x38>
    124a:	50                   	push   %eax
    124b:	8b 57 08             	mov    0x8(%edi),%edx
    124e:	52                   	push   %edx
    124f:	68 00 a9 00 00       	push   $0xa900
    1254:	6a 03                	push   $0x3
    1256:	e8 55 17 00 00       	call   29b0 <ddf_msg>
    125b:	8b 45 10             	mov    0x10(%ebp),%eax
    125e:	8d 65 f4             	lea    -0xc(%ebp),%esp
    1261:	5b                   	pop    %ebx
    1262:	5e                   	pop    %esi
    1263:	5f                   	pop    %edi
    1264:	5d                   	pop    %ebp
    1265:	c3                   	ret    
    1266:	8d 76 00             	lea    0x0(%esi),%esi
    1269:	8d bc 27 00 00 00 00 	lea    0x0(%edi,%eiz,1),%edi

00001270 <pl050_read>:
    1270:	55                   	push   %ebp
    1271:	89 e5                	mov    %esp,%ebp
    1273:	57                   	push   %edi
    1274:	56                   	push   %esi
    1275:	53                   	push   %ebx
    1276:	83 ec 28             	sub    $0x28,%esp
    1279:	8b 45 08             	mov    0x8(%ebp),%eax
    127c:	8b 75 0c             	mov    0xc(%ebp),%esi
    127f:	8b 00                	mov    (%eax),%eax
    1281:	8b 78 04             	mov    0x4(%eax),%edi
    1284:	8d 5f 74             	lea    0x74(%edi),%ebx
    1287:	53                   	push   %ebx
    1288:	e8 63 bb 00 00       	call   cdf0 <fibril_mutex_lock@plt>
    128d:	8b 45 10             	mov    0x10(%ebp),%eax
    1290:	83 c4 10             	add    $0x10,%esp
    1293:	85 c0                	test   %eax,%eax
    1295:	74 50                	je     12e7 <pl050_read+0x77>
    1297:	8b 4d 10             	mov    0x10(%ebp),%ecx
    129a:	89 75 e4             	mov    %esi,-0x1c(%ebp)
    129d:	01 f1                	add    %esi,%ecx
    129f:	8b 47 64             	mov    0x64(%edi),%eax
    12a2:	89 4d dc             	mov    %ecx,-0x24(%ebp)
    12a5:	8d 77 6c             	lea    0x6c(%edi),%esi
    12a8:	eb 15                	jmp    12bf <pl050_read+0x4f>
    12aa:	8d b6 00 00 00 00    	lea    0x0(%esi),%esi
    12b0:	51                   	push   %ecx
    12b1:	51                   	push   %ecx
    12b2:	53                   	push   %ebx
    12b3:	56                   	push   %esi
    12b4:	e8 77 b7 00 00       	call   ca30 <fibril_condvar_wait@plt>
    12b9:	8b 47 64             	mov    0x64(%edi),%eax
    12bc:	83 c4 10             	add    $0x10,%esp
    12bf:	3b 47 68             	cmp    0x68(%edi),%eax
    12c2:	74 ec                	je     12b0 <pl050_read+0x40>
    12c4:	8b 55 e4             	mov    -0x1c(%ebp),%edx
    12c7:	8a 44 07 24          	mov    0x24(%edi,%eax,1),%al
    12cb:	42                   	inc    %edx
    12cc:	88 45 e3             	mov    %al,-0x1d(%ebp)
    12cf:	89 55 e4             	mov    %edx,-0x1c(%ebp)
    12d2:	8b 55 e4             	mov    -0x1c(%ebp),%edx
    12d5:	88 42 ff             	mov    %al,-0x1(%edx)
    12d8:	8b 47 64             	mov    0x64(%edi),%eax
    12db:	40                   	inc    %eax
    12dc:	83 e0 3f             	and    $0x3f,%eax
    12df:	3b 55 dc             	cmp    -0x24(%ebp),%edx
    12e2:	89 47 64             	mov    %eax,0x64(%edi)
    12e5:	75 d8                	jne    12bf <pl050_read+0x4f>
    12e7:	83 ec 0c             	sub    $0xc,%esp
    12ea:	53                   	push   %ebx
    12eb:	e8 60 b8 00 00       	call   cb50 <fibril_mutex_unlock@plt>
    12f0:	8b 45 10             	mov    0x10(%ebp),%eax
    12f3:	8d 65 f4             	lea    -0xc(%ebp),%esp
    12f6:	5b                   	pop    %ebx
    12f7:	5e                   	pop    %esi
    12f8:	5f                   	pop    %edi
    12f9:	5d                   	pop    %ebp
    12fa:	c3                   	ret    
    12fb:	90                   	nop
    12fc:	8d 74 26 00          	lea    0x0(%esi,%eiz,1),%esi

00001300 <pl050_interrupt>:
    1300:	55                   	push   %ebp
    1301:	89 e5                	mov    %esp,%ebp
    1303:	57                   	push   %edi
    1304:	56                   	push   %esi
    1305:	53                   	push   %ebx
    1306:	83 ec 18             	sub    $0x18,%esp
    1309:	8b 55 10             	mov    0x10(%ebp),%edx
    130c:	8b 7d 0c             	mov    0xc(%ebp),%edi
    130f:	52                   	push   %edx
    1310:	e8 9b 0d 00 00       	call   20b0 <ddf_dev_data_get>
    1315:	89 c3                	mov    %eax,%ebx
    1317:	8d 70 74             	lea    0x74(%eax),%esi
    131a:	89 34 24             	mov    %esi,(%esp)
    131d:	e8 ce ba 00 00       	call   cdf0 <fibril_mutex_lock@plt>
    1322:	8b 53 68             	mov    0x68(%ebx),%edx
    1325:	83 c4 10             	add    $0x10,%esp
    1328:	8d 42 01             	lea    0x1(%edx),%eax
    132b:	83 e0 3f             	and    $0x3f,%eax
    132e:	3b 43 64             	cmp    0x64(%ebx),%eax
    1331:	74 2d                	je     1360 <pl050_interrupt+0x60>
    1333:	8b 4f 08             	mov    0x8(%edi),%ecx
    1336:	83 ec 0c             	sub    $0xc,%esp
    1339:	88 4c 13 24          	mov    %cl,0x24(%ebx,%edx,1)
    133d:	89 43 68             	mov    %eax,0x68(%ebx)
    1340:	83 c3 6c             	add    $0x6c,%ebx
    1343:	53                   	push   %ebx
    1344:	e8 e7 b7 00 00       	call   cb30 <fibril_condvar_broadcast@plt>
    1349:	89 75 08             	mov    %esi,0x8(%ebp)
    134c:	83 c4 10             	add    $0x10,%esp
    134f:	8d 65 f4             	lea    -0xc(%ebp),%esp
    1352:	5b                   	pop    %ebx
    1353:	5e                   	pop    %esi
    1354:	5f                   	pop    %edi
    1355:	5d                   	pop    %ebp
    1356:	e9 f5 b7 00 00       	jmp    cb50 <fibril_mutex_unlock@plt>
    135b:	90                   	nop
    135c:	8d 74 26 00          	lea    0x0(%esi,%eiz,1),%esi
    1360:	50                   	push   %eax
    1361:	50                   	push   %eax
    1362:	68 19 a9 00 00       	push   $0xa919
    1367:	6a 02                	push   $0x2
    1369:	e8 42 16 00 00       	call   29b0 <ddf_msg>
    136e:	eb d9                	jmp    1349 <pl050_interrupt+0x49>

00001370 <pl050_dev_add>:
    1370:	55                   	push   %ebp
    1371:	89 e5                	mov    %esp,%ebp
    1373:	57                   	push   %edi
    1374:	56                   	push   %esi
    1375:	53                   	push   %ebx
    1376:	83 ec 54             	sub    $0x54,%esp
    1379:	8b 7d 08             	mov    0x8(%ebp),%edi
    137c:	68 42 a9 00 00       	push   $0xa942
    1381:	6a 04                	push   $0x4
    1383:	e8 28 16 00 00       	call   29b0 <ddf_msg>
    1388:	5e                   	pop    %esi
    1389:	58                   	pop    %eax
    138a:	68 84 00 00 00       	push   $0x84
    138f:	57                   	push   %edi
    1390:	e8 db 0c 00 00       	call   2070 <ddf_dev_data_alloc>
    1395:	83 c4 10             	add    $0x10,%esp
    1398:	85 c0                	test   %eax,%eax
    139a:	0f 84 18 02 00 00    	je     15b8 <pl050_dev_add+0x248>
    13a0:	83 ec 0c             	sub    $0xc,%esp
    13a3:	89 c3                	mov    %eax,%ebx
    13a5:	57                   	push   %edi
    13a6:	e8 25 0d 00 00       	call   20d0 <ddf_dev_get_name>
    13ab:	83 c4 10             	add    $0x10,%esp
    13ae:	89 43 08             	mov    %eax,0x8(%ebx)
    13b1:	85 c0                	test   %eax,%eax
    13b3:	0f 84 97 01 00 00    	je     1550 <pl050_dev_add+0x1e0>
    13b9:	51                   	push   %ecx
    13ba:	68 52 a9 00 00       	push   $0xa952
    13bf:	6a 01                	push   $0x1
    13c1:	57                   	push   %edi
    13c2:	e8 d9 0d 00 00       	call   21a0 <ddf_fun_create>
    13c7:	83 c4 10             	add    $0x10,%esp
    13ca:	89 c6                	mov    %eax,%esi
    13cc:	85 c0                	test   %eax,%eax
    13ce:	0f 84 24 02 00 00    	je     15f8 <pl050_dev_add+0x288>
    13d4:	83 ec 0c             	sub    $0xc,%esp
    13d7:	89 43 0c             	mov    %eax,0xc(%ebx)
    13da:	89 7b 04             	mov    %edi,0x4(%ebx)
    13dd:	8d 43 74             	lea    0x74(%ebx),%eax
    13e0:	50                   	push   %eax
    13e1:	e8 9a b7 00 00       	call   cb80 <fibril_mutex_initialize@plt>
    13e6:	8d 43 6c             	lea    0x6c(%ebx),%eax
    13e9:	89 04 24             	mov    %eax,(%esp)
    13ec:	e8 ff b6 00 00       	call   caf0 <fibril_condvar_initialize@plt>
    13f1:	c7 43 68 00 00 00 00 	movl   $0x0,0x68(%ebx)
    13f8:	c7 43 64 00 00 00 00 	movl   $0x0,0x64(%ebx)
    13ff:	58                   	pop    %eax
    1400:	8b 43 04             	mov    0x4(%ebx),%eax
    1403:	50                   	push   %eax
    1404:	e8 d7 0c 00 00       	call   20e0 <ddf_dev_parent_sess_create>
    1409:	83 c4 10             	add    $0x10,%esp
    140c:	89 03                	mov    %eax,(%ebx)
    140e:	85 c0                	test   %eax,%eax
    1410:	0f 84 dd 02 00 00    	je     16f3 <pl050_dev_add+0x383>
    1416:	8d 7d c8             	lea    -0x38(%ebp),%edi
    1419:	50                   	push   %eax
    141a:	6a 20                	push   $0x20
    141c:	6a 00                	push   $0x0
    141e:	57                   	push   %edi
    141f:	e8 0c b8 00 00       	call   cc30 <memset@plt>
    1424:	83 c4 0c             	add    $0xc,%esp
    1427:	8b 03                	mov    (%ebx),%eax
    1429:	6a 00                	push   $0x0
    142b:	57                   	push   %edi
    142c:	50                   	push   %eax
    142d:	e8 3e b9 00 00       	call   cd70 <hw_res_get_list_parsed@plt>
    1432:	83 c4 10             	add    $0x10,%esp
    1435:	85 c0                	test   %eax,%eax
    1437:	0f 85 3b 01 00 00    	jne    1578 <pl050_dev_add+0x208>
    143d:	83 7d d8 01          	cmpl   $0x1,-0x28(%ebp)
    1441:	0f 85 91 02 00 00    	jne    16d8 <pl050_dev_add+0x368>
    1447:	8b 55 dc             	mov    -0x24(%ebp),%edx
    144a:	83 7d c8 01          	cmpl   $0x1,-0x38(%ebp)
    144e:	8b 02                	mov    (%edx),%eax
    1450:	8b 52 10             	mov    0x10(%edx),%edx
    1453:	89 53 1c             	mov    %edx,0x1c(%ebx)
    1456:	8b 15 e4 ed 00 00    	mov    0xede4,%edx
    145c:	89 43 18             	mov    %eax,0x18(%ebx)
    145f:	8d 48 04             	lea    0x4(%eax),%ecx
    1462:	89 02                	mov    %eax,(%edx)
    1464:	8b 15 ec ed 00 00    	mov    0xedec,%edx
    146a:	89 4a 04             	mov    %ecx,0x4(%edx)
    146d:	8d 48 08             	lea    0x8(%eax),%ecx
    1470:	89 4a 40             	mov    %ecx,0x40(%edx)
    1473:	0f 85 3f 02 00 00    	jne    16b8 <pl050_dev_add+0x348>
    1479:	8b 55 cc             	mov    -0x34(%ebp),%edx
    147c:	8b 12                	mov    (%edx),%edx
    147e:	52                   	push   %edx
    147f:	50                   	push   %eax
    1480:	68 aa a9 00 00       	push   $0xa9aa
    1485:	6a 04                	push   $0x4
    1487:	e8 24 15 00 00       	call   29b0 <ddf_msg>
    148c:	83 c4 0c             	add    $0xc,%esp
    148f:	8d 45 c4             	lea    -0x3c(%ebp),%eax
    1492:	50                   	push   %eax
    1493:	6a 14                	push   $0x14
    1495:	8b 4b 18             	mov    0x18(%ebx),%ecx
    1498:	51                   	push   %ecx
    1499:	e8 e2 b3 00 00       	call   c880 <pio_enable@plt>
    149e:	83 c4 10             	add    $0x10,%esp
    14a1:	85 c0                	test   %eax,%eax
    14a3:	0f 85 2f 01 00 00    	jne    15d8 <pl050_dev_add+0x268>
    14a9:	8b 45 c4             	mov    -0x3c(%ebp),%eax
    14ac:	8b 7b 04             	mov    0x4(%ebx),%edi
    14af:	89 43 20             	mov    %eax,0x20(%ebx)
    14b2:	8b 45 cc             	mov    -0x34(%ebp),%eax
    14b5:	68 e0 ed 00 00       	push   $0xede0
    14ba:	68 00 13 00 00       	push   $0x1300
    14bf:	8b 08                	mov    (%eax),%ecx
    14c1:	51                   	push   %ecx
    14c2:	57                   	push   %edi
    14c3:	e8 98 14 00 00       	call   2960 <register_interrupt_handler>
    14c8:	83 c4 10             	add    $0x10,%esp
    14cb:	85 c0                	test   %eax,%eax
    14cd:	0f 85 c5 00 00 00    	jne    1598 <pl050_dev_add+0x228>
    14d3:	8b 45 cc             	mov    -0x34(%ebp),%eax
    14d6:	83 ec 0c             	sub    $0xc,%esp
    14d9:	8b 38                	mov    (%eax),%edi
    14db:	57                   	push   %edi
    14dc:	e8 8f b4 00 00       	call   c970 <irc_enable_interrupt@plt>
    14e1:	83 c4 10             	add    $0x10,%esp
    14e4:	85 c0                	test   %eax,%eax
    14e6:	0f 85 ac 01 00 00    	jne    1698 <pl050_dev_add+0x328>
    14ec:	50                   	push   %eax
    14ed:	50                   	push   %eax
    14ee:	8b 43 20             	mov    0x20(%ebx),%eax
    14f1:	6a 14                	push   $0x14
    14f3:	50                   	push   %eax
    14f4:	e8 07 b6 00 00       	call   cb00 <pio_write_8@plt>
    14f9:	58                   	pop    %eax
    14fa:	5a                   	pop    %edx
    14fb:	68 30 a9 00 00       	push   $0xa930
    1500:	8b 4b 08             	mov    0x8(%ebx),%ecx
    1503:	51                   	push   %ecx
    1504:	e8 f7 b6 00 00       	call   cc00 <str_cmp@plt>
    1509:	83 c4 10             	add    $0x10,%esp
    150c:	ba 34 a9 00 00       	mov    $0xa934,%edx
    1511:	85 c0                	test   %eax,%eax
    1513:	75 05                	jne    151a <pl050_dev_add+0x1aa>
    1515:	ba 29 a9 00 00       	mov    $0xa929,%edx
    151a:	50                   	push   %eax
    151b:	6a 0a                	push   $0xa
    151d:	52                   	push   %edx
    151e:	56                   	push   %esi
    151f:	e8 6c 11 00 00       	call   2690 <ddf_fun_add_match_id>
    1524:	83 c4 10             	add    $0x10,%esp
    1527:	89 45 b4             	mov    %eax,-0x4c(%ebp)
    152a:	85 c0                	test   %eax,%eax
    152c:	0f 84 e6 00 00 00    	je     1618 <pl050_dev_add+0x2a8>
    1532:	50                   	push   %eax
    1533:	68 ce a9 00 00       	push   $0xa9ce
    1538:	68 a4 aa 00 00       	push   $0xaaa4
    153d:	6a 01                	push   $0x1
    153f:	e8 6c 14 00 00       	call   29b0 <ddf_msg>
    1544:	8b 53 08             	mov    0x8(%ebx),%edx
    1547:	83 c4 10             	add    $0x10,%esp
    154a:	8b 45 b4             	mov    -0x4c(%ebp),%eax
    154d:	eb 08                	jmp    1557 <pl050_dev_add+0x1e7>
    154f:	90                   	nop
    1550:	31 d2                	xor    %edx,%edx
    1552:	b8 fe ff ff ff       	mov    $0xfffffffe,%eax
    1557:	83 ec 0c             	sub    $0xc,%esp
    155a:	89 45 b4             	mov    %eax,-0x4c(%ebp)
    155d:	52                   	push   %edx
    155e:	e8 6d b8 00 00       	call   cdd0 <free@plt>
    1563:	83 c4 10             	add    $0x10,%esp
    1566:	8b 45 b4             	mov    -0x4c(%ebp),%eax
    1569:	8d 65 f4             	lea    -0xc(%ebp),%esp
    156c:	5b                   	pop    %ebx
    156d:	5e                   	pop    %esi
    156e:	5f                   	pop    %edi
    156f:	5d                   	pop    %ebp
    1570:	c3                   	ret    
    1571:	8d b4 26 00 00 00 00 	lea    0x0(%esi,%eiz,1),%esi
    1578:	89 45 b4             	mov    %eax,-0x4c(%ebp)
    157b:	50                   	push   %eax
    157c:	50                   	push   %eax
    157d:	68 72 a9 00 00       	push   $0xa972
    1582:	6a 01                	push   $0x1
    1584:	e8 27 14 00 00       	call   29b0 <ddf_msg>
    1589:	83 c4 10             	add    $0x10,%esp
    158c:	8b 45 b4             	mov    -0x4c(%ebp),%eax
    158f:	8b 53 08             	mov    0x8(%ebx),%edx
    1592:	eb c3                	jmp    1557 <pl050_dev_add+0x1e7>
    1594:	8d 74 26 00          	lea    0x0(%esi,%eiz,1),%esi
    1598:	52                   	push   %edx
    1599:	50                   	push   %eax
    159a:	68 58 aa 00 00       	push   $0xaa58
    159f:	6a 01                	push   $0x1
    15a1:	89 45 b4             	mov    %eax,-0x4c(%ebp)
    15a4:	e8 07 14 00 00       	call   29b0 <ddf_msg>
    15a9:	83 c4 10             	add    $0x10,%esp
    15ac:	8b 45 b4             	mov    -0x4c(%ebp),%eax
    15af:	eb de                	jmp    158f <pl050_dev_add+0x21f>
    15b1:	8d b4 26 00 00 00 00 	lea    0x0(%esi,%eiz,1),%esi
    15b8:	53                   	push   %ebx
    15b9:	53                   	push   %ebx
    15ba:	68 f0 a9 00 00       	push   $0xa9f0
    15bf:	6a 01                	push   $0x1
    15c1:	e8 ea 13 00 00       	call   29b0 <ddf_msg>
    15c6:	83 c4 10             	add    $0x10,%esp
    15c9:	8d 65 f4             	lea    -0xc(%ebp),%esp
    15cc:	b8 fe ff ff ff       	mov    $0xfffffffe,%eax
    15d1:	5b                   	pop    %ebx
    15d2:	5e                   	pop    %esi
    15d3:	5f                   	pop    %edi
    15d4:	5d                   	pop    %ebp
    15d5:	c3                   	ret    
    15d6:	66 90                	xchg   %ax,%ax
    15d8:	89 45 b4             	mov    %eax,-0x4c(%ebp)
    15db:	50                   	push   %eax
    15dc:	50                   	push   %eax
    15dd:	68 bb a9 00 00       	push   $0xa9bb
    15e2:	6a 01                	push   $0x1
    15e4:	e8 c7 13 00 00       	call   29b0 <ddf_msg>
    15e9:	83 c4 10             	add    $0x10,%esp
    15ec:	8b 45 b4             	mov    -0x4c(%ebp),%eax
    15ef:	eb 9e                	jmp    158f <pl050_dev_add+0x21f>
    15f1:	8d b4 26 00 00 00 00 	lea    0x0(%esi,%eiz,1),%esi
    15f8:	52                   	push   %edx
    15f9:	52                   	push   %edx
    15fa:	68 54 a9 00 00       	push   $0xa954
    15ff:	6a 01                	push   $0x1
    1601:	e8 aa 13 00 00       	call   29b0 <ddf_msg>
    1606:	8b 53 08             	mov    0x8(%ebx),%edx
    1609:	83 c4 10             	add    $0x10,%esp
    160c:	b8 fe ff ff ff       	mov    $0xfffffffe,%eax
    1611:	e9 41 ff ff ff       	jmp    1557 <pl050_dev_add+0x1e7>
    1616:	66 90                	xchg   %ax,%ax
    1618:	83 ec 0c             	sub    $0xc,%esp
    161b:	8d 43 10             	lea    0x10(%ebx),%eax
    161e:	50                   	push   %eax
    161f:	e8 7c b5 00 00       	call   cba0 <chardev_srvs_init@plt>
    1624:	c7 43 10 6c ee 00 00 	movl   $0xee6c,0x10(%ebx)
    162b:	89 5b 14             	mov    %ebx,0x14(%ebx)
    162e:	59                   	pop    %ecx
    162f:	5f                   	pop    %edi
    1630:	68 a0 11 00 00       	push   $0x11a0
    1635:	56                   	push   %esi
    1636:	e8 45 11 00 00       	call   2780 <ddf_fun_set_conn_handler>
    163b:	89 34 24             	mov    %esi,(%esp)
    163e:	e8 1d 0e 00 00       	call   2460 <ddf_fun_bind>
    1643:	83 c4 10             	add    $0x10,%esp
    1646:	85 c0                	test   %eax,%eax
    1648:	74 2e                	je     1678 <pl050_dev_add+0x308>
    164a:	52                   	push   %edx
    164b:	50                   	push   %eax
    164c:	68 cc aa 00 00       	push   $0xaacc
    1651:	6a 01                	push   $0x1
    1653:	89 45 b4             	mov    %eax,-0x4c(%ebp)
    1656:	e8 55 13 00 00       	call   29b0 <ddf_msg>
    165b:	89 34 24             	mov    %esi,(%esp)
    165e:	e8 cd 0c 00 00       	call   2330 <ddf_fun_destroy>
    1663:	8b 53 08             	mov    0x8(%ebx),%edx
    1666:	83 c4 10             	add    $0x10,%esp
    1669:	8b 45 b4             	mov    -0x4c(%ebp),%eax
    166c:	e9 e6 fe ff ff       	jmp    1557 <pl050_dev_add+0x1e7>
    1671:	8d b4 26 00 00 00 00 	lea    0x0(%esi,%eiz,1),%esi
    1678:	89 45 b4             	mov    %eax,-0x4c(%ebp)
    167b:	50                   	push   %eax
    167c:	50                   	push   %eax
    167d:	68 d9 a9 00 00       	push   $0xa9d9
    1682:	6a 04                	push   $0x4
    1684:	e8 27 13 00 00       	call   29b0 <ddf_msg>
    1689:	83 c4 10             	add    $0x10,%esp
    168c:	8b 45 b4             	mov    -0x4c(%ebp),%eax
    168f:	e9 d5 fe ff ff       	jmp    1569 <pl050_dev_add+0x1f9>
    1694:	8d 74 26 00          	lea    0x0(%esi,%eiz,1),%esi
    1698:	56                   	push   %esi
    1699:	50                   	push   %eax
    169a:	68 84 aa 00 00       	push   $0xaa84
    169f:	6a 01                	push   $0x1
    16a1:	89 45 b4             	mov    %eax,-0x4c(%ebp)
    16a4:	e8 07 13 00 00       	call   29b0 <ddf_msg>
    16a9:	83 c4 10             	add    $0x10,%esp
    16ac:	8b 45 b4             	mov    -0x4c(%ebp),%eax
    16af:	e9 db fe ff ff       	jmp    158f <pl050_dev_add+0x21f>
    16b4:	8d 74 26 00          	lea    0x0(%esi,%eiz,1),%esi
    16b8:	56                   	push   %esi
    16b9:	56                   	push   %esi
    16ba:	68 90 a9 00 00       	push   $0xa990
    16bf:	6a 01                	push   $0x1
    16c1:	e8 ea 12 00 00       	call   29b0 <ddf_msg>
    16c6:	83 c4 10             	add    $0x10,%esp
    16c9:	b8 f2 ff ff ff       	mov    $0xfffffff2,%eax
    16ce:	e9 bc fe ff ff       	jmp    158f <pl050_dev_add+0x21f>
    16d3:	90                   	nop
    16d4:	8d 74 26 00          	lea    0x0(%esi,%eiz,1),%esi
    16d8:	57                   	push   %edi
    16d9:	57                   	push   %edi
    16da:	68 34 aa 00 00       	push   $0xaa34
    16df:	6a 01                	push   $0x1
    16e1:	e8 ca 12 00 00       	call   29b0 <ddf_msg>
    16e6:	83 c4 10             	add    $0x10,%esp
    16e9:	b8 f2 ff ff ff       	mov    $0xfffffff2,%eax
    16ee:	e9 9c fe ff ff       	jmp    158f <pl050_dev_add+0x21f>
    16f3:	50                   	push   %eax
    16f4:	50                   	push   %eax
    16f5:	68 10 aa 00 00       	push   $0xaa10
    16fa:	6a 01                	push   $0x1
    16fc:	e8 af 12 00 00       	call   29b0 <ddf_msg>
    1701:	83 c4 10             	add    $0x10,%esp
    1704:	b8 fe ff ff ff       	mov    $0xfffffffe,%eax
    1709:	e9 81 fe ff ff       	jmp    158f <pl050_dev_add+0x21f>
    170e:	66 90                	xchg   %ax,%ax

00001710 <main>:
    1710:	8d 4c 24 04          	lea    0x4(%esp),%ecx
    1714:	83 e4 f0             	and    $0xfffffff0,%esp
    1717:	ff 71 fc             	pushl  -0x4(%ecx)
    171a:	55                   	push   %ebp
    171b:	89 e5                	mov    %esp,%ebp
    171d:	51                   	push   %ecx
    171e:	83 ec 10             	sub    $0x10,%esp
    1721:	68 f0 aa 00 00       	push   $0xaaf0
    1726:	e8 c5 b1 00 00       	call   c8f0 <printf@plt>
    172b:	c7 04 24 e7 a9 00 00 	movl   $0xa9e7,(%esp)
    1732:	e8 69 12 00 00       	call   29a0 <ddf_log_init>
    1737:	83 c4 10             	add    $0x10,%esp
    173a:	85 c0                	test   %eax,%eax
    173c:	75 18                	jne    1756 <main+0x46>
    173e:	83 ec 0c             	sub    $0xc,%esp
    1741:	68 7c ee 00 00       	push   $0xee7c
    1746:	e8 b5 10 00 00       	call   2800 <ddf_driver_main>
    174b:	83 c4 10             	add    $0x10,%esp
    174e:	8b 4d fc             	mov    -0x4(%ebp),%ecx
    1751:	c9                   	leave  
    1752:	8d 61 fc             	lea    -0x4(%ecx),%esp
    1755:	c3                   	ret    
    1756:	83 ec 0c             	sub    $0xc,%esp
    1759:	68 1c ab 00 00       	push   $0xab1c
    175e:	e8 8d b1 00 00       	call   c8f0 <printf@plt>
    1763:	83 c4 10             	add    $0x10,%esp
    1766:	b8 01 00 00 00       	mov    $0x1,%eax
    176b:	eb e1                	jmp    174e <main+0x3e>
    176d:	66 90                	xchg   %ax,%ax
    176f:	90                   	nop

00001770 <fun_del_ref>:
    1770:	55                   	push   %ebp
    1771:	83 ca ff             	or     $0xffffffff,%edx
    1774:	89 e5                	mov    %esp,%ebp
    1776:	57                   	push   %edi
    1777:	56                   	push   %esi
    1778:	53                   	push   %ebx
    1779:	83 ec 1c             	sub    $0x1c,%esp
    177c:	8b 70 0c             	mov    0xc(%eax),%esi
    177f:	f0 0f c1 50 08       	lock xadd %edx,0x8(%eax)
    1784:	4a                   	dec    %edx
    1785:	74 69                	je     17f0 <fun_del_ref+0x80>
    1787:	83 c8 ff             	or     $0xffffffff,%eax
    178a:	f0 0f c1 46 04       	lock xadd %eax,0x4(%esi)
    178f:	48                   	dec    %eax
    1790:	74 0e                	je     17a0 <fun_del_ref+0x30>
    1792:	8d 65 f4             	lea    -0xc(%ebp),%esp
    1795:	5b                   	pop    %ebx
    1796:	5e                   	pop    %esi
    1797:	5f                   	pop    %edi
    1798:	5d                   	pop    %ebp
    1799:	c3                   	ret    
    179a:	8d b6 00 00 00 00    	lea    0x0(%esi),%esi
    17a0:	8b 46 08             	mov    0x8(%esi),%eax
    17a3:	85 c0                	test   %eax,%eax
    17a5:	74 0c                	je     17b3 <fun_del_ref+0x43>
    17a7:	83 ec 0c             	sub    $0xc,%esp
    17aa:	50                   	push   %eax
    17ab:	e8 50 b1 00 00       	call   c900 <async_hangup@plt>
    17b0:	83 c4 10             	add    $0x10,%esp
    17b3:	8b 46 10             	mov    0x10(%esi),%eax
    17b6:	85 c0                	test   %eax,%eax
    17b8:	74 0c                	je     17c6 <fun_del_ref+0x56>
    17ba:	83 ec 0c             	sub    $0xc,%esp
    17bd:	50                   	push   %eax
    17be:	e8 0d b6 00 00       	call   cdd0 <free@plt>
    17c3:	83 c4 10             	add    $0x10,%esp
    17c6:	8b 46 0c             	mov    0xc(%esi),%eax
    17c9:	85 c0                	test   %eax,%eax
    17cb:	74 0c                	je     17d9 <fun_del_ref+0x69>
    17cd:	83 ec 0c             	sub    $0xc,%esp
    17d0:	50                   	push   %eax
    17d1:	e8 fa b5 00 00       	call   cdd0 <free@plt>
    17d6:	83 c4 10             	add    $0x10,%esp
    17d9:	83 ec 0c             	sub    $0xc,%esp
    17dc:	56                   	push   %esi
    17dd:	e8 ee b5 00 00       	call   cdd0 <free@plt>
    17e2:	83 c4 10             	add    $0x10,%esp
    17e5:	8d 65 f4             	lea    -0xc(%ebp),%esp
    17e8:	5b                   	pop    %ebx
    17e9:	5e                   	pop    %esi
    17ea:	5f                   	pop    %edi
    17eb:	5d                   	pop    %ebp
    17ec:	c3                   	ret    
    17ed:	8d 76 00             	lea    0x0(%esi),%esi
    17f0:	8b 58 1c             	mov    0x1c(%eax),%ebx
    17f3:	89 c7                	mov    %eax,%edi
    17f5:	8d 40 18             	lea    0x18(%eax),%eax
    17f8:	89 45 e4             	mov    %eax,-0x1c(%ebp)
    17fb:	39 d8                	cmp    %ebx,%eax
    17fd:	74 49                	je     1848 <fun_del_ref+0xd8>
    17ff:	90                   	nop
    1800:	8b 0b                	mov    (%ebx),%ecx
    1802:	85 c9                	test   %ecx,%ecx
    1804:	74 0e                	je     1814 <fun_del_ref+0xa4>
    1806:	8b 53 04             	mov    0x4(%ebx),%edx
    1809:	85 d2                	test   %edx,%edx
    180b:	74 07                	je     1814 <fun_del_ref+0xa4>
    180d:	89 0a                	mov    %ecx,(%edx)
    180f:	8b 0b                	mov    (%ebx),%ecx
    1811:	89 51 04             	mov    %edx,0x4(%ecx)
    1814:	8b 53 08             	mov    0x8(%ebx),%edx
    1817:	c7 03 00 00 00 00    	movl   $0x0,(%ebx)
    181d:	c7 43 04 00 00 00 00 	movl   $0x0,0x4(%ebx)
    1824:	85 d2                	test   %edx,%edx
    1826:	74 0c                	je     1834 <fun_del_ref+0xc4>
    1828:	83 ec 0c             	sub    $0xc,%esp
    182b:	52                   	push   %edx
    182c:	e8 9f b5 00 00       	call   cdd0 <free@plt>
    1831:	83 c4 10             	add    $0x10,%esp
    1834:	83 ec 0c             	sub    $0xc,%esp
    1837:	53                   	push   %ebx
    1838:	e8 93 b5 00 00       	call   cdd0 <free@plt>
    183d:	8b 5f 1c             	mov    0x1c(%edi),%ebx
    1840:	83 c4 10             	add    $0x10,%esp
    1843:	3b 5d e4             	cmp    -0x1c(%ebp),%ebx
    1846:	75 b8                	jne    1800 <fun_del_ref+0x90>
    1848:	8b 57 20             	mov    0x20(%edi),%edx
    184b:	85 d2                	test   %edx,%edx
    184d:	74 0c                	je     185b <fun_del_ref+0xeb>
    184f:	83 ec 0c             	sub    $0xc,%esp
    1852:	52                   	push   %edx
    1853:	e8 78 b5 00 00       	call   cdd0 <free@plt>
    1858:	83 c4 10             	add    $0x10,%esp
    185b:	8b 57 14             	mov    0x14(%edi),%edx
    185e:	85 d2                	test   %edx,%edx
    1860:	74 0c                	je     186e <fun_del_ref+0xfe>
    1862:	83 ec 0c             	sub    $0xc,%esp
    1865:	52                   	push   %edx
    1866:	e8 65 b5 00 00       	call   cdd0 <free@plt>
    186b:	83 c4 10             	add    $0x10,%esp
    186e:	83 ec 0c             	sub    $0xc,%esp
    1871:	57                   	push   %edi
    1872:	e8 59 b5 00 00       	call   cdd0 <free@plt>
    1877:	83 c4 10             	add    $0x10,%esp
    187a:	e9 08 ff ff ff       	jmp    1787 <fun_del_ref+0x17>
    187f:	90                   	nop

00001880 <driver_connection_gen.constprop.7>:
    1880:	55                   	push   %ebp
    1881:	89 e5                	mov    %esp,%ebp
    1883:	57                   	push   %edi
    1884:	56                   	push   %esi
    1885:	53                   	push   %ebx
    1886:	83 ec 58             	sub    $0x58,%esp
    1889:	89 d3                	mov    %edx,%ebx
    188b:	8b 72 08             	mov    0x8(%edx),%esi
    188e:	89 45 b4             	mov    %eax,-0x4c(%ebp)
    1891:	68 98 ee 00 00       	push   $0xee98
    1896:	e8 55 b5 00 00       	call   cdf0 <fibril_mutex_lock@plt>
    189b:	c7 04 24 98 ee 00 00 	movl   $0xee98,(%esp)
    18a2:	e8 b9 b0 00 00       	call   c960 <fibril_mutex_is_locked@plt>
    18a7:	83 c4 10             	add    $0x10,%esp
    18aa:	84 c0                	test   %al,%al
    18ac:	0f 84 71 02 00 00    	je     1b23 <driver_connection_gen.constprop.7+0x2a3>
    18b2:	a1 ac ee 00 00       	mov    0xeeac,%eax
    18b7:	3d a8 ee 00 00       	cmp    $0xeea8,%eax
    18bc:	8d 78 d4             	lea    -0x2c(%eax),%edi
    18bf:	75 18                	jne    18d9 <driver_connection_gen.constprop.7+0x59>
    18c1:	e9 22 02 00 00       	jmp    1ae8 <driver_connection_gen.constprop.7+0x268>
    18c6:	66 90                	xchg   %ax,%ax
    18c8:	8b 40 04             	mov    0x4(%eax),%eax
    18cb:	3d a8 ee 00 00       	cmp    $0xeea8,%eax
    18d0:	8d 78 d4             	lea    -0x2c(%eax),%edi
    18d3:	0f 84 0f 02 00 00    	je     1ae8 <driver_connection_gen.constprop.7+0x268>
    18d9:	3b 77 04             	cmp    0x4(%edi),%esi
    18dc:	75 ea                	jne    18c8 <driver_connection_gen.constprop.7+0x48>
    18de:	8b 47 0c             	mov    0xc(%edi),%eax
    18e1:	f0 ff 40 04          	lock incl 0x4(%eax)
    18e5:	f0 ff 47 08          	lock incl 0x8(%edi)
    18e9:	83 ec 0c             	sub    $0xc,%esp
    18ec:	68 98 ee 00 00       	push   $0xee98
    18f1:	e8 5a b2 00 00       	call   cb50 <fibril_mutex_unlock@plt>
    18f6:	8b 47 28             	mov    0x28(%edi),%eax
    18f9:	83 c4 10             	add    $0x10,%esp
    18fc:	85 c0                	test   %eax,%eax
    18fe:	74 20                	je     1920 <driver_connection_gen.constprop.7+0xa0>
    1900:	8b 55 b4             	mov    -0x4c(%ebp),%edx
    1903:	56                   	push   %esi
    1904:	57                   	push   %edi
    1905:	53                   	push   %ebx
    1906:	52                   	push   %edx
    1907:	ff d0                	call   *%eax
    1909:	89 f8                	mov    %edi,%eax
    190b:	e8 60 fe ff ff       	call   1770 <fun_del_ref>
    1910:	83 c4 10             	add    $0x10,%esp
    1913:	8d 65 f4             	lea    -0xc(%ebp),%esp
    1916:	5b                   	pop    %ebx
    1917:	5e                   	pop    %esi
    1918:	5f                   	pop    %edi
    1919:	5d                   	pop    %ebp
    191a:	c3                   	ret    
    191b:	90                   	nop
    191c:	8d 74 26 00          	lea    0x0(%esi,%eiz,1),%esi
    1920:	8b 47 24             	mov    0x24(%edi),%eax
    1923:	85 c0                	test   %eax,%eax
    1925:	0f 84 a5 01 00 00    	je     1ad0 <driver_connection_gen.constprop.7+0x250>
    192b:	8b 00                	mov    (%eax),%eax
    192d:	85 c0                	test   %eax,%eax
    192f:	0f 84 9b 01 00 00    	je     1ad0 <driver_connection_gen.constprop.7+0x250>
    1935:	83 ec 0c             	sub    $0xc,%esp
    1938:	57                   	push   %edi
    1939:	ff d0                	call   *%eax
    193b:	8b 4d b4             	mov    -0x4c(%ebp),%ecx
    193e:	89 c3                	mov    %eax,%ebx
    1940:	58                   	pop    %eax
    1941:	5a                   	pop    %edx
    1942:	53                   	push   %ebx
    1943:	51                   	push   %ecx
    1944:	e8 d7 b0 00 00       	call   ca20 <async_answer_0@plt>
    1949:	83 c4 10             	add    $0x10,%esp
    194c:	85 db                	test   %ebx,%ebx
    194e:	0f 85 70 01 00 00    	jne    1ac4 <driver_connection_gen.constprop.7+0x244>
    1954:	8d 74 26 00          	lea    0x0(%esi,%eiz,1),%esi
    1958:	50                   	push   %eax
    1959:	50                   	push   %eax
    195a:	8d 45 c4             	lea    -0x3c(%ebp),%eax
    195d:	6a 00                	push   $0x0
    195f:	50                   	push   %eax
    1960:	e8 2b b3 00 00       	call   cc90 <async_get_call_timeout@plt>
    1965:	8b 5d c4             	mov    -0x3c(%ebp),%ebx
    1968:	83 c4 10             	add    $0x10,%esp
    196b:	89 45 b4             	mov    %eax,-0x4c(%ebp)
    196e:	85 db                	test   %ebx,%ebx
    1970:	0f 84 e2 00 00 00    	je     1a58 <driver_connection_gen.constprop.7+0x1d8>
    1976:	83 ec 0c             	sub    $0xc,%esp
    1979:	81 eb 00 04 00 00    	sub    $0x400,%ebx
    197f:	53                   	push   %ebx
    1980:	e8 cb 0f 00 00       	call   2950 <is_valid_iface_idx>
    1985:	83 c4 10             	add    $0x10,%esp
    1988:	84 c0                	test   %al,%al
    198a:	75 2c                	jne    19b8 <driver_connection_gen.constprop.7+0x138>
    198c:	8b 47 24             	mov    0x24(%edi),%eax
    198f:	85 c0                	test   %eax,%eax
    1991:	0f 84 91 00 00 00    	je     1a28 <driver_connection_gen.constprop.7+0x1a8>
    1997:	8b 40 44             	mov    0x44(%eax),%eax
    199a:	85 c0                	test   %eax,%eax
    199c:	0f 84 86 00 00 00    	je     1a28 <driver_connection_gen.constprop.7+0x1a8>
    19a2:	8d 4d c4             	lea    -0x3c(%ebp),%ecx
    19a5:	52                   	push   %edx
    19a6:	51                   	push   %ecx
    19a7:	8b 4d b4             	mov    -0x4c(%ebp),%ecx
    19aa:	51                   	push   %ecx
    19ab:	57                   	push   %edi
    19ac:	ff d0                	call   *%eax
    19ae:	83 c4 10             	add    $0x10,%esp
    19b1:	eb a5                	jmp    1958 <driver_connection_gen.constprop.7+0xd8>
    19b3:	90                   	nop
    19b4:	8d 74 26 00          	lea    0x0(%esi,%eiz,1),%esi
    19b8:	83 ec 0c             	sub    $0xc,%esp
    19bb:	53                   	push   %ebx
    19bc:	e8 8f 0f 00 00       	call   2950 <is_valid_iface_idx>
    19c1:	83 c4 10             	add    $0x10,%esp
    19c4:	84 c0                	test   %al,%al
    19c6:	0f 84 69 01 00 00    	je     1b35 <driver_connection_gen.constprop.7+0x2b5>
    19cc:	8b 47 24             	mov    0x24(%edi),%eax
    19cf:	85 c0                	test   %eax,%eax
    19d1:	0f 84 b9 00 00 00    	je     1a90 <driver_connection_gen.constprop.7+0x210>
    19d7:	8b 44 98 08          	mov    0x8(%eax,%ebx,4),%eax
    19db:	89 45 b0             	mov    %eax,-0x50(%ebp)
    19de:	85 c0                	test   %eax,%eax
    19e0:	0f 84 aa 00 00 00    	je     1a90 <driver_connection_gen.constprop.7+0x210>
    19e6:	83 ec 0c             	sub    $0xc,%esp
    19e9:	53                   	push   %ebx
    19ea:	e8 11 0f 00 00       	call   2900 <get_remote_iface>
    19ef:	83 c4 10             	add    $0x10,%esp
    19f2:	85 c0                	test   %eax,%eax
    19f4:	0f 84 50 01 00 00    	je     1b4a <driver_connection_gen.constprop.7+0x2ca>
    19fa:	8b 4d c8             	mov    -0x38(%ebp),%ecx
    19fd:	52                   	push   %edx
    19fe:	52                   	push   %edx
    19ff:	51                   	push   %ecx
    1a00:	50                   	push   %eax
    1a01:	e8 2a 0f 00 00       	call   2930 <get_remote_method>
    1a06:	83 c4 10             	add    $0x10,%esp
    1a09:	85 c0                	test   %eax,%eax
    1a0b:	0f 84 9f 00 00 00    	je     1ab0 <driver_connection_gen.constprop.7+0x230>
    1a11:	8d 55 c4             	lea    -0x3c(%ebp),%edx
    1a14:	8b 4d b0             	mov    -0x50(%ebp),%ecx
    1a17:	52                   	push   %edx
    1a18:	8b 55 b4             	mov    -0x4c(%ebp),%edx
    1a1b:	52                   	push   %edx
    1a1c:	51                   	push   %ecx
    1a1d:	57                   	push   %edi
    1a1e:	ff d0                	call   *%eax
    1a20:	83 c4 10             	add    $0x10,%esp
    1a23:	e9 30 ff ff ff       	jmp    1958 <driver_connection_gen.constprop.7+0xd8>
    1a28:	50                   	push   %eax
    1a29:	a1 44 f0 00 00       	mov    0xf044,%eax
    1a2e:	53                   	push   %ebx
    1a2f:	8b 00                	mov    (%eax),%eax
    1a31:	50                   	push   %eax
    1a32:	68 c8 ac 00 00       	push   $0xacc8
    1a37:	e8 b4 ae 00 00       	call   c8f0 <printf@plt>
    1a3c:	5b                   	pop    %ebx
    1a3d:	58                   	pop    %eax
    1a3e:	8b 45 b4             	mov    -0x4c(%ebp),%eax
    1a41:	6a f5                	push   $0xfffffff5
    1a43:	50                   	push   %eax
    1a44:	e8 d7 af 00 00       	call   ca20 <async_answer_0@plt>
    1a49:	83 c4 10             	add    $0x10,%esp
    1a4c:	e9 07 ff ff ff       	jmp    1958 <driver_connection_gen.constprop.7+0xd8>
    1a51:	8d b4 26 00 00 00 00 	lea    0x0(%esi,%eiz,1),%esi
    1a58:	8b 47 24             	mov    0x24(%edi),%eax
    1a5b:	85 c0                	test   %eax,%eax
    1a5d:	74 10                	je     1a6f <driver_connection_gen.constprop.7+0x1ef>
    1a5f:	8b 40 04             	mov    0x4(%eax),%eax
    1a62:	85 c0                	test   %eax,%eax
    1a64:	74 09                	je     1a6f <driver_connection_gen.constprop.7+0x1ef>
    1a66:	83 ec 0c             	sub    $0xc,%esp
    1a69:	57                   	push   %edi
    1a6a:	ff d0                	call   *%eax
    1a6c:	83 c4 10             	add    $0x10,%esp
    1a6f:	8b 75 b4             	mov    -0x4c(%ebp),%esi
    1a72:	53                   	push   %ebx
    1a73:	53                   	push   %ebx
    1a74:	6a 00                	push   $0x0
    1a76:	56                   	push   %esi
    1a77:	e8 a4 af 00 00       	call   ca20 <async_answer_0@plt>
    1a7c:	89 f8                	mov    %edi,%eax
    1a7e:	e8 ed fc ff ff       	call   1770 <fun_del_ref>
    1a83:	83 c4 10             	add    $0x10,%esp
    1a86:	8d 65 f4             	lea    -0xc(%ebp),%esp
    1a89:	5b                   	pop    %ebx
    1a8a:	5e                   	pop    %esi
    1a8b:	5f                   	pop    %edi
    1a8c:	5d                   	pop    %ebp
    1a8d:	c3                   	ret    
    1a8e:	66 90                	xchg   %ax,%ax
    1a90:	50                   	push   %eax
    1a91:	50                   	push   %eax
    1a92:	a1 44 f0 00 00       	mov    0xf044,%eax
    1a97:	8b 00                	mov    (%eax),%eax
    1a99:	50                   	push   %eax
    1a9a:	68 04 ad 00 00       	push   $0xad04
    1a9f:	e8 4c ae 00 00       	call   c8f0 <printf@plt>
    1aa4:	83 c4 0c             	add    $0xc,%esp
    1aa7:	53                   	push   %ebx
    1aa8:	56                   	push   %esi
    1aa9:	68 28 ad 00 00       	push   $0xad28
    1aae:	eb 87                	jmp    1a37 <driver_connection_gen.constprop.7+0x1b7>
    1ab0:	50                   	push   %eax
    1ab1:	50                   	push   %eax
    1ab2:	a1 44 f0 00 00       	mov    0xf044,%eax
    1ab7:	8b 00                	mov    (%eax),%eax
    1ab9:	50                   	push   %eax
    1aba:	68 60 ad 00 00       	push   $0xad60
    1abf:	e9 73 ff ff ff       	jmp    1a37 <driver_connection_gen.constprop.7+0x1b7>
    1ac4:	89 f8                	mov    %edi,%eax
    1ac6:	e8 a5 fc ff ff       	call   1770 <fun_del_ref>
    1acb:	e9 43 fe ff ff       	jmp    1913 <driver_connection_gen.constprop.7+0x93>
    1ad0:	8b 55 b4             	mov    -0x4c(%ebp),%edx
    1ad3:	50                   	push   %eax
    1ad4:	50                   	push   %eax
    1ad5:	6a 00                	push   $0x0
    1ad7:	52                   	push   %edx
    1ad8:	e8 43 af 00 00       	call   ca20 <async_answer_0@plt>
    1add:	83 c4 10             	add    $0x10,%esp
    1ae0:	e9 73 fe ff ff       	jmp    1958 <driver_connection_gen.constprop.7+0xd8>
    1ae5:	8d 76 00             	lea    0x0(%esi),%esi
    1ae8:	83 ec 0c             	sub    $0xc,%esp
    1aeb:	68 98 ee 00 00       	push   $0xee98
    1af0:	e8 5b b0 00 00       	call   cb50 <fibril_mutex_unlock@plt>
    1af5:	a1 44 f0 00 00       	mov    0xf044,%eax
    1afa:	83 c4 0c             	add    $0xc,%esp
    1afd:	8b 08                	mov    (%eax),%ecx
    1aff:	56                   	push   %esi
    1b00:	51                   	push   %ecx
    1b01:	68 9c ad 00 00       	push   $0xad9c
    1b06:	e8 e5 ad 00 00       	call   c8f0 <printf@plt>
    1b0b:	8b 7d b4             	mov    -0x4c(%ebp),%edi
    1b0e:	5b                   	pop    %ebx
    1b0f:	5e                   	pop    %esi
    1b10:	6a ff                	push   $0xffffffff
    1b12:	57                   	push   %edi
    1b13:	e8 08 af 00 00       	call   ca20 <async_answer_0@plt>
    1b18:	83 c4 10             	add    $0x10,%esp
    1b1b:	8d 65 f4             	lea    -0xc(%ebp),%esp
    1b1e:	5b                   	pop    %ebx
    1b1f:	5e                   	pop    %esi
    1b20:	5f                   	pop    %edi
    1b21:	5d                   	pop    %ebp
    1b22:	c3                   	ret    
    1b23:	51                   	push   %ecx
    1b24:	6a 6b                	push   $0x6b
    1b26:	68 45 ab 00 00       	push   $0xab45
    1b2b:	68 9c ac 00 00       	push   $0xac9c
    1b30:	e8 6b af 00 00       	call   caa0 <assert_abort@plt>
    1b35:	50                   	push   %eax
    1b36:	68 fb 02 00 00       	push   $0x2fb
    1b3b:	68 45 ab 00 00       	push   $0xab45
    1b40:	68 56 ab 00 00       	push   $0xab56
    1b45:	e8 56 af 00 00       	call   caa0 <assert_abort@plt>
    1b4a:	53                   	push   %ebx
    1b4b:	68 aa 01 00 00       	push   $0x1aa
    1b50:	68 45 ab 00 00       	push   $0xab45
    1b55:	68 6e ab 00 00       	push   $0xab6e
    1b5a:	e8 41 af 00 00       	call   caa0 <assert_abort@plt>
    1b5f:	90                   	nop

00001b60 <driver_connection_driver>:
    1b60:	55                   	push   %ebp
    1b61:	89 e5                	mov    %esp,%ebp
    1b63:	8b 55 0c             	mov    0xc(%ebp),%edx
    1b66:	8b 45 08             	mov    0x8(%ebp),%eax
    1b69:	5d                   	pop    %ebp
    1b6a:	e9 11 fd ff ff       	jmp    1880 <driver_connection_gen.constprop.7>
    1b6f:	90                   	nop

00001b70 <driver_connection_client>:
    1b70:	55                   	push   %ebp
    1b71:	89 e5                	mov    %esp,%ebp
    1b73:	8b 55 0c             	mov    0xc(%ebp),%edx
    1b76:	8b 45 08             	mov    0x8(%ebp),%eax
    1b79:	5d                   	pop    %ebp
    1b7a:	e9 01 fd ff ff       	jmp    1880 <driver_connection_gen.constprop.7>
    1b7f:	90                   	nop

00001b80 <driver_connection_devman>:
    1b80:	55                   	push   %ebp
    1b81:	89 e5                	mov    %esp,%ebp
    1b83:	57                   	push   %edi
    1b84:	56                   	push   %esi
    1b85:	53                   	push   %ebx
    1b86:	83 ec 54             	sub    $0x54,%esp
    1b89:	8d 75 c4             	lea    -0x3c(%ebp),%esi
    1b8c:	8b 45 08             	mov    0x8(%ebp),%eax
    1b8f:	6a 00                	push   $0x0
    1b91:	50                   	push   %eax
    1b92:	e8 89 ae 00 00       	call   ca20 <async_answer_0@plt>
    1b97:	83 c4 10             	add    $0x10,%esp
    1b9a:	8d b6 00 00 00 00    	lea    0x0(%esi),%esi
    1ba0:	50                   	push   %eax
    1ba1:	50                   	push   %eax
    1ba2:	6a 00                	push   $0x0
    1ba4:	56                   	push   %esi
    1ba5:	e8 e6 b0 00 00       	call   cc90 <async_get_call_timeout@plt>
    1baa:	83 c4 10             	add    $0x10,%esp
    1bad:	89 c3                	mov    %eax,%ebx
    1baf:	8b 45 c4             	mov    -0x3c(%ebp),%eax
    1bb2:	85 c0                	test   %eax,%eax
    1bb4:	0f 84 de 03 00 00    	je     1f98 <driver_connection_devman+0x418>
    1bba:	2d 00 04 00 00       	sub    $0x400,%eax
    1bbf:	83 f8 04             	cmp    $0x4,%eax
    1bc2:	0f 87 b8 03 00 00    	ja     1f80 <driver_connection_devman+0x400>
    1bc8:	8b 7d c8             	mov    -0x38(%ebp),%edi
    1bcb:	ff 24 85 4c ae 00 00 	jmp    *0xae4c(,%eax,4)
    1bd2:	8d b6 00 00 00 00    	lea    0x0(%esi),%esi
    1bd8:	83 ec 0c             	sub    $0xc,%esp
    1bdb:	68 98 ee 00 00       	push   $0xee98
    1be0:	e8 0b b2 00 00       	call   cdf0 <fibril_mutex_lock@plt>
    1be5:	c7 04 24 98 ee 00 00 	movl   $0xee98,(%esp)
    1bec:	e8 6f ad 00 00       	call   c960 <fibril_mutex_is_locked@plt>
    1bf1:	83 c4 10             	add    $0x10,%esp
    1bf4:	84 c0                	test   %al,%al
    1bf6:	0f 84 5a 04 00 00    	je     2056 <driver_connection_devman+0x4d6>
    1bfc:	a1 ac ee 00 00       	mov    0xeeac,%eax
    1c01:	3d a8 ee 00 00       	cmp    $0xeea8,%eax
    1c06:	8d 50 d4             	lea    -0x2c(%eax),%edx
    1c09:	75 16                	jne    1c21 <driver_connection_devman+0xa1>
    1c0b:	e9 90 03 00 00       	jmp    1fa0 <driver_connection_devman+0x420>
    1c10:	8b 40 04             	mov    0x4(%eax),%eax
    1c13:	3d a8 ee 00 00       	cmp    $0xeea8,%eax
    1c18:	8d 50 d4             	lea    -0x2c(%eax),%edx
    1c1b:	0f 84 7f 03 00 00    	je     1fa0 <driver_connection_devman+0x420>
    1c21:	3b 7a 04             	cmp    0x4(%edx),%edi
    1c24:	75 ea                	jne    1c10 <driver_connection_devman+0x90>
    1c26:	8b 42 0c             	mov    0xc(%edx),%eax
    1c29:	f0 ff 40 04          	lock incl 0x4(%eax)
    1c2d:	f0 ff 42 08          	lock incl 0x8(%edx)
    1c31:	83 ec 0c             	sub    $0xc,%esp
    1c34:	89 55 b4             	mov    %edx,-0x4c(%ebp)
    1c37:	68 98 ee 00 00       	push   $0xee98
    1c3c:	e8 0f af 00 00       	call   cb50 <fibril_mutex_unlock@plt>
    1c41:	a1 44 f0 00 00       	mov    0xf044,%eax
    1c46:	83 c4 10             	add    $0x10,%esp
    1c49:	8b 55 b4             	mov    -0x4c(%ebp),%edx
    1c4c:	8b 40 04             	mov    0x4(%eax),%eax
    1c4f:	8b 40 0c             	mov    0xc(%eax),%eax
    1c52:	85 c0                	test   %eax,%eax
    1c54:	0f 84 76 03 00 00    	je     1fd0 <driver_connection_devman+0x450>
    1c5a:	83 ec 0c             	sub    $0xc,%esp
    1c5d:	52                   	push   %edx
    1c5e:	ff d0                	call   *%eax
    1c60:	83 c4 10             	add    $0x10,%esp
    1c63:	89 c7                	mov    %eax,%edi
    1c65:	8b 55 b4             	mov    -0x4c(%ebp),%edx
    1c68:	89 d0                	mov    %edx,%eax
    1c6a:	e8 01 fb ff ff       	call   1770 <fun_del_ref>
    1c6f:	51                   	push   %ecx
    1c70:	51                   	push   %ecx
    1c71:	57                   	push   %edi
    1c72:	53                   	push   %ebx
    1c73:	e8 a8 ad 00 00       	call   ca20 <async_answer_0@plt>
    1c78:	83 c4 10             	add    $0x10,%esp
    1c7b:	e9 20 ff ff ff       	jmp    1ba0 <driver_connection_devman+0x20>
    1c80:	83 ec 0c             	sub    $0xc,%esp
    1c83:	68 b0 ee 00 00       	push   $0xeeb0
    1c88:	e8 63 b1 00 00       	call   cdf0 <fibril_mutex_lock@plt>
    1c8d:	c7 04 24 b0 ee 00 00 	movl   $0xeeb0,(%esp)
    1c94:	e8 c7 ac 00 00       	call   c960 <fibril_mutex_is_locked@plt>
    1c99:	83 c4 10             	add    $0x10,%esp
    1c9c:	84 c0                	test   %al,%al
    1c9e:	0f 84 a0 03 00 00    	je     2044 <driver_connection_devman+0x4c4>
    1ca4:	a1 c4 ee 00 00       	mov    0xeec4,%eax
    1ca9:	3d c0 ee 00 00       	cmp    $0xeec0,%eax
    1cae:	8d 50 ec             	lea    -0x14(%eax),%edx
    1cb1:	75 16                	jne    1cc9 <driver_connection_devman+0x149>
    1cb3:	e9 08 03 00 00       	jmp    1fc0 <driver_connection_devman+0x440>
    1cb8:	8b 40 04             	mov    0x4(%eax),%eax
    1cbb:	3d c0 ee 00 00       	cmp    $0xeec0,%eax
    1cc0:	8d 50 ec             	lea    -0x14(%eax),%edx
    1cc3:	0f 84 f7 02 00 00    	je     1fc0 <driver_connection_devman+0x440>
    1cc9:	3b 78 ec             	cmp    -0x14(%eax),%edi
    1ccc:	75 ea                	jne    1cb8 <driver_connection_devman+0x138>
    1cce:	8d 7a 04             	lea    0x4(%edx),%edi
    1cd1:	f0 ff 42 04          	lock incl 0x4(%edx)
    1cd5:	83 ec 0c             	sub    $0xc,%esp
    1cd8:	89 55 b4             	mov    %edx,-0x4c(%ebp)
    1cdb:	68 b0 ee 00 00       	push   $0xeeb0
    1ce0:	e8 6b ae 00 00       	call   cb50 <fibril_mutex_unlock@plt>
    1ce5:	a1 44 f0 00 00       	mov    0xf044,%eax
    1cea:	83 c4 10             	add    $0x10,%esp
    1ced:	8b 40 04             	mov    0x4(%eax),%eax
    1cf0:	8b 40 08             	mov    0x8(%eax),%eax
    1cf3:	85 c0                	test   %eax,%eax
    1cf5:	0f 85 88 00 00 00    	jne    1d83 <driver_connection_devman+0x203>
    1cfb:	b8 f5 ff ff ff       	mov    $0xfffffff5,%eax
    1d00:	e9 63 02 00 00       	jmp    1f68 <driver_connection_devman+0x3e8>
    1d05:	8d 76 00             	lea    0x0(%esi),%esi
    1d08:	83 ec 0c             	sub    $0xc,%esp
    1d0b:	68 b0 ee 00 00       	push   $0xeeb0
    1d10:	e8 db b0 00 00       	call   cdf0 <fibril_mutex_lock@plt>
    1d15:	c7 04 24 b0 ee 00 00 	movl   $0xeeb0,(%esp)
    1d1c:	e8 3f ac 00 00       	call   c960 <fibril_mutex_is_locked@plt>
    1d21:	83 c4 10             	add    $0x10,%esp
    1d24:	84 c0                	test   %al,%al
    1d26:	0f 84 18 03 00 00    	je     2044 <driver_connection_devman+0x4c4>
    1d2c:	a1 c4 ee 00 00       	mov    0xeec4,%eax
    1d31:	3d c0 ee 00 00       	cmp    $0xeec0,%eax
    1d36:	8d 50 ec             	lea    -0x14(%eax),%edx
    1d39:	75 16                	jne    1d51 <driver_connection_devman+0x1d1>
    1d3b:	e9 80 02 00 00       	jmp    1fc0 <driver_connection_devman+0x440>
    1d40:	8b 40 04             	mov    0x4(%eax),%eax
    1d43:	3d c0 ee 00 00       	cmp    $0xeec0,%eax
    1d48:	8d 50 ec             	lea    -0x14(%eax),%edx
    1d4b:	0f 84 6f 02 00 00    	je     1fc0 <driver_connection_devman+0x440>
    1d51:	3b 78 ec             	cmp    -0x14(%eax),%edi
    1d54:	75 ea                	jne    1d40 <driver_connection_devman+0x1c0>
    1d56:	8d 7a 04             	lea    0x4(%edx),%edi
    1d59:	f0 ff 42 04          	lock incl 0x4(%edx)
    1d5d:	83 ec 0c             	sub    $0xc,%esp
    1d60:	89 55 b4             	mov    %edx,-0x4c(%ebp)
    1d63:	68 b0 ee 00 00       	push   $0xeeb0
    1d68:	e8 e3 ad 00 00       	call   cb50 <fibril_mutex_unlock@plt>
    1d6d:	a1 44 f0 00 00       	mov    0xf044,%eax
    1d72:	83 c4 10             	add    $0x10,%esp
    1d75:	8b 40 04             	mov    0x4(%eax),%eax
    1d78:	8b 40 04             	mov    0x4(%eax),%eax
    1d7b:	85 c0                	test   %eax,%eax
    1d7d:	0f 84 78 ff ff ff    	je     1cfb <driver_connection_devman+0x17b>
    1d83:	83 ec 0c             	sub    $0xc,%esp
    1d86:	8b 55 b4             	mov    -0x4c(%ebp),%edx
    1d89:	52                   	push   %edx
    1d8a:	ff d0                	call   *%eax
    1d8c:	83 c4 10             	add    $0x10,%esp
    1d8f:	8b 55 b4             	mov    -0x4c(%ebp),%edx
    1d92:	85 c0                	test   %eax,%eax
    1d94:	0f 85 ce 01 00 00    	jne    1f68 <driver_connection_devman+0x3e8>
    1d9a:	83 c9 ff             	or     $0xffffffff,%ecx
    1d9d:	f0 0f c1 0f          	lock xadd %ecx,(%edi)
    1da1:	49                   	dec    %ecx
    1da2:	0f 85 c0 01 00 00    	jne    1f68 <driver_connection_devman+0x3e8>
    1da8:	8b 42 08             	mov    0x8(%edx),%eax
    1dab:	85 c0                	test   %eax,%eax
    1dad:	74 0f                	je     1dbe <driver_connection_devman+0x23e>
    1daf:	83 ec 0c             	sub    $0xc,%esp
    1db2:	50                   	push   %eax
    1db3:	e8 48 ab 00 00       	call   c900 <async_hangup@plt>
    1db8:	83 c4 10             	add    $0x10,%esp
    1dbb:	8b 55 b4             	mov    -0x4c(%ebp),%edx
    1dbe:	8b 42 10             	mov    0x10(%edx),%eax
    1dc1:	85 c0                	test   %eax,%eax
    1dc3:	74 12                	je     1dd7 <driver_connection_devman+0x257>
    1dc5:	83 ec 0c             	sub    $0xc,%esp
    1dc8:	89 55 b4             	mov    %edx,-0x4c(%ebp)
    1dcb:	50                   	push   %eax
    1dcc:	e8 ff af 00 00       	call   cdd0 <free@plt>
    1dd1:	83 c4 10             	add    $0x10,%esp
    1dd4:	8b 55 b4             	mov    -0x4c(%ebp),%edx
    1dd7:	8b 42 0c             	mov    0xc(%edx),%eax
    1dda:	85 c0                	test   %eax,%eax
    1ddc:	74 12                	je     1df0 <driver_connection_devman+0x270>
    1dde:	83 ec 0c             	sub    $0xc,%esp
    1de1:	89 55 b4             	mov    %edx,-0x4c(%ebp)
    1de4:	50                   	push   %eax
    1de5:	e8 e6 af 00 00       	call   cdd0 <free@plt>
    1dea:	83 c4 10             	add    $0x10,%esp
    1ded:	8b 55 b4             	mov    -0x4c(%ebp),%edx
    1df0:	83 ec 0c             	sub    $0xc,%esp
    1df3:	52                   	push   %edx
    1df4:	e8 d7 af 00 00       	call   cdd0 <free@plt>
    1df9:	83 c4 10             	add    $0x10,%esp
    1dfc:	31 c0                	xor    %eax,%eax
    1dfe:	e9 65 01 00 00       	jmp    1f68 <driver_connection_devman+0x3e8>
    1e03:	90                   	nop
    1e04:	8d 74 26 00          	lea    0x0(%esi,%eiz,1),%esi
    1e08:	50                   	push   %eax
    1e09:	50                   	push   %eax
    1e0a:	8d 45 c0             	lea    -0x40(%ebp),%eax
    1e0d:	6a 00                	push   $0x0
    1e0f:	c7 45 c0 00 00 00 00 	movl   $0x0,-0x40(%ebp)
    1e16:	6a 00                	push   $0x0
    1e18:	6a 00                	push   $0x0
    1e1a:	6a 00                	push   $0x0
    1e1c:	6a 01                	push   $0x1
    1e1e:	50                   	push   %eax
    1e1f:	e8 2c af 00 00       	call   cd50 <async_data_write_accept@plt>
    1e24:	83 c4 20             	add    $0x20,%esp
    1e27:	85 c0                	test   %eax,%eax
    1e29:	0f 85 39 01 00 00    	jne    1f68 <driver_connection_devman+0x3e8>
    1e2f:	50                   	push   %eax
    1e30:	50                   	push   %eax
    1e31:	6a 1c                	push   $0x1c
    1e33:	6a 01                	push   $0x1
    1e35:	e8 86 ac 00 00       	call   cac0 <calloc@plt>
    1e3a:	83 c4 10             	add    $0x10,%esp
    1e3d:	89 c2                	mov    %eax,%edx
    1e3f:	85 c0                	test   %eax,%eax
    1e41:	0f 84 df 01 00 00    	je     2026 <driver_connection_devman+0x4a6>
    1e47:	f0 ff 40 04          	lock incl 0x4(%eax)
    1e4b:	89 38                	mov    %edi,(%eax)
    1e4d:	8b 45 c0             	mov    -0x40(%ebp),%eax
    1e50:	89 42 0c             	mov    %eax,0xc(%edx)
    1e53:	a1 44 f0 00 00       	mov    0xf044,%eax
    1e58:	83 ec 0c             	sub    $0xc,%esp
    1e5b:	89 55 b4             	mov    %edx,-0x4c(%ebp)
    1e5e:	8b 40 04             	mov    0x4(%eax),%eax
    1e61:	52                   	push   %edx
    1e62:	ff 10                	call   *(%eax)
    1e64:	83 c4 10             	add    $0x10,%esp
    1e67:	89 c7                	mov    %eax,%edi
    1e69:	85 c0                	test   %eax,%eax
    1e6b:	8b 55 b4             	mov    -0x4c(%ebp),%edx
    1e6e:	0f 84 66 01 00 00    	je     1fda <driver_connection_devman+0x45a>
    1e74:	83 c8 ff             	or     $0xffffffff,%eax
    1e77:	f0 0f c1 42 04       	lock xadd %eax,0x4(%edx)
    1e7c:	48                   	dec    %eax
    1e7d:	0f 85 ec fd ff ff    	jne    1c6f <driver_connection_devman+0xef>
    1e83:	8b 42 08             	mov    0x8(%edx),%eax
    1e86:	85 c0                	test   %eax,%eax
    1e88:	74 12                	je     1e9c <driver_connection_devman+0x31c>
    1e8a:	83 ec 0c             	sub    $0xc,%esp
    1e8d:	89 55 b4             	mov    %edx,-0x4c(%ebp)
    1e90:	50                   	push   %eax
    1e91:	e8 6a aa 00 00       	call   c900 <async_hangup@plt>
    1e96:	83 c4 10             	add    $0x10,%esp
    1e99:	8b 55 b4             	mov    -0x4c(%ebp),%edx
    1e9c:	8b 42 10             	mov    0x10(%edx),%eax
    1e9f:	85 c0                	test   %eax,%eax
    1ea1:	74 12                	je     1eb5 <driver_connection_devman+0x335>
    1ea3:	83 ec 0c             	sub    $0xc,%esp
    1ea6:	89 55 b4             	mov    %edx,-0x4c(%ebp)
    1ea9:	50                   	push   %eax
    1eaa:	e8 21 af 00 00       	call   cdd0 <free@plt>
    1eaf:	83 c4 10             	add    $0x10,%esp
    1eb2:	8b 55 b4             	mov    -0x4c(%ebp),%edx
    1eb5:	8b 42 0c             	mov    0xc(%edx),%eax
    1eb8:	85 c0                	test   %eax,%eax
    1eba:	74 12                	je     1ece <driver_connection_devman+0x34e>
    1ebc:	83 ec 0c             	sub    $0xc,%esp
    1ebf:	89 55 b4             	mov    %edx,-0x4c(%ebp)
    1ec2:	50                   	push   %eax
    1ec3:	e8 08 af 00 00       	call   cdd0 <free@plt>
    1ec8:	83 c4 10             	add    $0x10,%esp
    1ecb:	8b 55 b4             	mov    -0x4c(%ebp),%edx
    1ece:	83 ec 0c             	sub    $0xc,%esp
    1ed1:	52                   	push   %edx
    1ed2:	e8 f9 ae 00 00       	call   cdd0 <free@plt>
    1ed7:	83 c4 10             	add    $0x10,%esp
    1eda:	e9 90 fd ff ff       	jmp    1c6f <driver_connection_devman+0xef>
    1edf:	90                   	nop
    1ee0:	83 ec 0c             	sub    $0xc,%esp
    1ee3:	68 98 ee 00 00       	push   $0xee98
    1ee8:	e8 03 af 00 00       	call   cdf0 <fibril_mutex_lock@plt>
    1eed:	c7 04 24 98 ee 00 00 	movl   $0xee98,(%esp)
    1ef4:	e8 67 aa 00 00       	call   c960 <fibril_mutex_is_locked@plt>
    1ef9:	83 c4 10             	add    $0x10,%esp
    1efc:	84 c0                	test   %al,%al
    1efe:	0f 84 52 01 00 00    	je     2056 <driver_connection_devman+0x4d6>
    1f04:	a1 ac ee 00 00       	mov    0xeeac,%eax
    1f09:	3d a8 ee 00 00       	cmp    $0xeea8,%eax
    1f0e:	8d 50 d4             	lea    -0x2c(%eax),%edx
    1f11:	75 12                	jne    1f25 <driver_connection_devman+0x3a5>
    1f13:	e9 88 00 00 00       	jmp    1fa0 <driver_connection_devman+0x420>
    1f18:	8b 40 04             	mov    0x4(%eax),%eax
    1f1b:	3d a8 ee 00 00       	cmp    $0xeea8,%eax
    1f20:	8d 50 d4             	lea    -0x2c(%eax),%edx
    1f23:	74 7b                	je     1fa0 <driver_connection_devman+0x420>
    1f25:	3b 7a 04             	cmp    0x4(%edx),%edi
    1f28:	75 ee                	jne    1f18 <driver_connection_devman+0x398>
    1f2a:	8b 42 0c             	mov    0xc(%edx),%eax
    1f2d:	f0 ff 40 04          	lock incl 0x4(%eax)
    1f31:	f0 ff 42 08          	lock incl 0x8(%edx)
    1f35:	83 ec 0c             	sub    $0xc,%esp
    1f38:	89 55 b4             	mov    %edx,-0x4c(%ebp)
    1f3b:	68 98 ee 00 00       	push   $0xee98
    1f40:	e8 0b ac 00 00       	call   cb50 <fibril_mutex_unlock@plt>
    1f45:	a1 44 f0 00 00       	mov    0xf044,%eax
    1f4a:	83 c4 10             	add    $0x10,%esp
    1f4d:	8b 40 04             	mov    0x4(%eax),%eax
    1f50:	8b 40 10             	mov    0x10(%eax),%eax
    1f53:	85 c0                	test   %eax,%eax
    1f55:	0f 84 a0 fd ff ff    	je     1cfb <driver_connection_devman+0x17b>
    1f5b:	83 ec 0c             	sub    $0xc,%esp
    1f5e:	8b 55 b4             	mov    -0x4c(%ebp),%edx
    1f61:	52                   	push   %edx
    1f62:	ff d0                	call   *%eax
    1f64:	83 c4 10             	add    $0x10,%esp
    1f67:	90                   	nop
    1f68:	52                   	push   %edx
    1f69:	52                   	push   %edx
    1f6a:	50                   	push   %eax
    1f6b:	53                   	push   %ebx
    1f6c:	e8 af aa 00 00       	call   ca20 <async_answer_0@plt>
    1f71:	83 c4 10             	add    $0x10,%esp
    1f74:	e9 27 fc ff ff       	jmp    1ba0 <driver_connection_devman+0x20>
    1f79:	8d b4 26 00 00 00 00 	lea    0x0(%esi,%eiz,1),%esi
    1f80:	50                   	push   %eax
    1f81:	50                   	push   %eax
    1f82:	6a f5                	push   $0xfffffff5
    1f84:	53                   	push   %ebx
    1f85:	e8 96 aa 00 00       	call   ca20 <async_answer_0@plt>
    1f8a:	83 c4 10             	add    $0x10,%esp
    1f8d:	e9 0e fc ff ff       	jmp    1ba0 <driver_connection_devman+0x20>
    1f92:	8d b6 00 00 00 00    	lea    0x0(%esi),%esi
    1f98:	8d 65 f4             	lea    -0xc(%ebp),%esp
    1f9b:	5b                   	pop    %ebx
    1f9c:	5e                   	pop    %esi
    1f9d:	5f                   	pop    %edi
    1f9e:	5d                   	pop    %ebp
    1f9f:	c3                   	ret    
    1fa0:	83 ec 0c             	sub    $0xc,%esp
    1fa3:	68 98 ee 00 00       	push   $0xee98
    1fa8:	e8 a3 ab 00 00       	call   cb50 <fibril_mutex_unlock@plt>
    1fad:	58                   	pop    %eax
    1fae:	5a                   	pop    %edx
    1faf:	6a ff                	push   $0xffffffff
    1fb1:	53                   	push   %ebx
    1fb2:	e8 69 aa 00 00       	call   ca20 <async_answer_0@plt>
    1fb7:	83 c4 10             	add    $0x10,%esp
    1fba:	e9 e1 fb ff ff       	jmp    1ba0 <driver_connection_devman+0x20>
    1fbf:	90                   	nop
    1fc0:	83 ec 0c             	sub    $0xc,%esp
    1fc3:	68 b0 ee 00 00       	push   $0xeeb0
    1fc8:	eb de                	jmp    1fa8 <driver_connection_devman+0x428>
    1fca:	8d b6 00 00 00 00    	lea    0x0(%esi),%esi
    1fd0:	bf f5 ff ff ff       	mov    $0xfffffff5,%edi
    1fd5:	e9 8e fc ff ff       	jmp    1c68 <driver_connection_devman+0xe8>
    1fda:	83 ec 0c             	sub    $0xc,%esp
    1fdd:	89 55 b4             	mov    %edx,-0x4c(%ebp)
    1fe0:	68 b0 ee 00 00       	push   $0xeeb0
    1fe5:	e8 06 ae 00 00       	call   cdf0 <fibril_mutex_lock@plt>
    1fea:	8b 55 b4             	mov    -0x4c(%ebp),%edx
    1fed:	8b 0d c0 ee 00 00    	mov    0xeec0,%ecx
    1ff3:	8d 42 14             	lea    0x14(%edx),%eax
    1ff6:	c7 42 18 c0 ee 00 00 	movl   $0xeec0,0x18(%edx)
    1ffd:	89 4a 14             	mov    %ecx,0x14(%edx)
    2000:	89 41 04             	mov    %eax,0x4(%ecx)
    2003:	a3 c0 ee 00 00       	mov    %eax,0xeec0
    2008:	c7 04 24 b0 ee 00 00 	movl   $0xeeb0,(%esp)
    200f:	e8 3c ab 00 00       	call   cb50 <fibril_mutex_unlock@plt>
    2014:	5f                   	pop    %edi
    2015:	58                   	pop    %eax
    2016:	6a 00                	push   $0x0
    2018:	53                   	push   %ebx
    2019:	e8 02 aa 00 00       	call   ca20 <async_answer_0@plt>
    201e:	83 c4 10             	add    $0x10,%esp
    2021:	e9 7a fb ff ff       	jmp    1ba0 <driver_connection_devman+0x20>
    2026:	83 ec 0c             	sub    $0xc,%esp
    2029:	8b 4d c0             	mov    -0x40(%ebp),%ecx
    202c:	51                   	push   %ecx
    202d:	e8 9e ad 00 00       	call   cdd0 <free@plt>
    2032:	5f                   	pop    %edi
    2033:	58                   	pop    %eax
    2034:	6a fe                	push   $0xfffffffe
    2036:	53                   	push   %ebx
    2037:	e8 e4 a9 00 00       	call   ca20 <async_answer_0@plt>
    203c:	83 c4 10             	add    $0x10,%esp
    203f:	e9 5c fb ff ff       	jmp    1ba0 <driver_connection_devman+0x20>
    2044:	56                   	push   %esi
    2045:	6a 5f                	push   $0x5f
    2047:	68 45 ab 00 00       	push   $0xab45
    204c:	68 e8 ad 00 00       	push   $0xade8
    2051:	e8 4a aa 00 00       	call   caa0 <assert_abort@plt>
    2056:	53                   	push   %ebx
    2057:	6a 6b                	push   $0x6b
    2059:	68 45 ab 00 00       	push   $0xab45
    205e:	68 9c ac 00 00       	push   $0xac9c
    2063:	e8 38 aa 00 00       	call   caa0 <assert_abort@plt>
    2068:	90                   	nop
    2069:	8d b4 26 00 00 00 00 	lea    0x0(%esi,%eiz,1),%esi

00002070 <ddf_dev_data_alloc>:
    2070:	55                   	push   %ebp
    2071:	89 e5                	mov    %esp,%ebp
    2073:	53                   	push   %ebx
    2074:	53                   	push   %ebx
    2075:	8b 5d 08             	mov    0x8(%ebp),%ebx
    2078:	8b 43 10             	mov    0x10(%ebx),%eax
    207b:	85 c0                	test   %eax,%eax
    207d:	75 1c                	jne    209b <ddf_dev_data_alloc+0x2b>
    207f:	8b 55 0c             	mov    0xc(%ebp),%edx
    2082:	50                   	push   %eax
    2083:	50                   	push   %eax
    2084:	52                   	push   %edx
    2085:	6a 01                	push   $0x1
    2087:	e8 34 aa 00 00       	call   cac0 <calloc@plt>
    208c:	83 c4 10             	add    $0x10,%esp
    208f:	85 c0                	test   %eax,%eax
    2091:	74 03                	je     2096 <ddf_dev_data_alloc+0x26>
    2093:	89 43 10             	mov    %eax,0x10(%ebx)
    2096:	8b 5d fc             	mov    -0x4(%ebp),%ebx
    2099:	c9                   	leave  
    209a:	c3                   	ret    
    209b:	51                   	push   %ecx
    209c:	68 39 02 00 00       	push   $0x239
    20a1:	68 45 ab 00 00       	push   $0xab45
    20a6:	68 80 ab 00 00       	push   $0xab80
    20ab:	e8 f0 a9 00 00       	call   caa0 <assert_abort@plt>

000020b0 <ddf_dev_data_get>:
    20b0:	55                   	push   %ebp
    20b1:	89 e5                	mov    %esp,%ebp
    20b3:	8b 45 08             	mov    0x8(%ebp),%eax
    20b6:	5d                   	pop    %ebp
    20b7:	8b 40 10             	mov    0x10(%eax),%eax
    20ba:	c3                   	ret    
    20bb:	90                   	nop
    20bc:	8d 74 26 00          	lea    0x0(%esi,%eiz,1),%esi

000020c0 <ddf_dev_get_handle>:
    20c0:	55                   	push   %ebp
    20c1:	89 e5                	mov    %esp,%ebp
    20c3:	8b 45 08             	mov    0x8(%ebp),%eax
    20c6:	5d                   	pop    %ebp
    20c7:	8b 00                	mov    (%eax),%eax
    20c9:	c3                   	ret    
    20ca:	8d b6 00 00 00 00    	lea    0x0(%esi),%esi

000020d0 <ddf_dev_get_name>:
    20d0:	55                   	push   %ebp
    20d1:	89 e5                	mov    %esp,%ebp
    20d3:	8b 45 08             	mov    0x8(%ebp),%eax
    20d6:	5d                   	pop    %ebp
    20d7:	8b 40 0c             	mov    0xc(%eax),%eax
    20da:	c3                   	ret    
    20db:	90                   	nop
    20dc:	8d 74 26 00          	lea    0x0(%esi,%eiz,1),%esi

000020e0 <ddf_dev_parent_sess_create>:
    20e0:	55                   	push   %ebp
    20e1:	89 e5                	mov    %esp,%ebp
    20e3:	53                   	push   %ebx
    20e4:	53                   	push   %ebx
    20e5:	8b 5d 08             	mov    0x8(%ebp),%ebx
    20e8:	8b 43 08             	mov    0x8(%ebx),%eax
    20eb:	85 c0                	test   %eax,%eax
    20ed:	75 14                	jne    2103 <ddf_dev_parent_sess_create+0x23>
    20ef:	50                   	push   %eax
    20f0:	50                   	push   %eax
    20f1:	6a 01                	push   $0x1
    20f3:	8b 13                	mov    (%ebx),%edx
    20f5:	52                   	push   %edx
    20f6:	e8 35 a8 00 00       	call   c930 <devman_parent_device_connect@plt>
    20fb:	89 43 08             	mov    %eax,0x8(%ebx)
    20fe:	8b 5d fc             	mov    -0x4(%ebp),%ebx
    2101:	c9                   	leave  
    2102:	c3                   	ret    
    2103:	51                   	push   %ecx
    2104:	68 64 02 00 00       	push   $0x264
    2109:	68 45 ab 00 00       	push   $0xab45
    210e:	68 99 ab 00 00       	push   $0xab99
    2113:	e8 88 a9 00 00       	call   caa0 <assert_abort@plt>
    2118:	90                   	nop
    2119:	8d b4 26 00 00 00 00 	lea    0x0(%esi,%eiz,1),%esi

00002120 <ddf_dev_parent_sess_get>:
    2120:	55                   	push   %ebp
    2121:	89 e5                	mov    %esp,%ebp
    2123:	8b 45 08             	mov    0x8(%ebp),%eax
    2126:	5d                   	pop    %ebp
    2127:	8b 40 08             	mov    0x8(%eax),%eax
    212a:	c3                   	ret    
    212b:	90                   	nop
    212c:	8d 74 26 00          	lea    0x0(%esi,%eiz,1),%esi

00002130 <ddf_fun_set_name>:
    2130:	55                   	push   %ebp
    2131:	89 e5                	mov    %esp,%ebp
    2133:	53                   	push   %ebx
    2134:	51                   	push   %ecx
    2135:	8b 5d 08             	mov    0x8(%ebp),%ebx
    2138:	8b 43 14             	mov    0x14(%ebx),%eax
    213b:	85 c0                	test   %eax,%eax
    213d:	75 23                	jne    2162 <ddf_fun_set_name+0x32>
    213f:	83 ec 0c             	sub    $0xc,%esp
    2142:	8b 45 0c             	mov    0xc(%ebp),%eax
    2145:	50                   	push   %eax
    2146:	e8 25 aa 00 00       	call   cb70 <str_dup@plt>
    214b:	83 c4 10             	add    $0x10,%esp
    214e:	89 43 14             	mov    %eax,0x14(%ebx)
    2151:	85 c0                	test   %eax,%eax
    2153:	8b 5d fc             	mov    -0x4(%ebp),%ebx
    2156:	0f 94 c0             	sete   %al
    2159:	25 ff 00 00 00       	and    $0xff,%eax
    215e:	c9                   	leave  
    215f:	f7 d8                	neg    %eax
    2161:	c3                   	ret    
    2162:	52                   	push   %edx
    2163:	68 7d 02 00 00       	push   $0x27d
    2168:	68 45 ab 00 00       	push   $0xab45
    216d:	68 b2 ab 00 00       	push   $0xabb2
    2172:	e8 29 a9 00 00       	call   caa0 <assert_abort@plt>
    2177:	89 f6                	mov    %esi,%esi
    2179:	8d bc 27 00 00 00 00 	lea    0x0(%edi,%eiz,1),%edi

00002180 <ddf_fun_get_dev>:
    2180:	55                   	push   %ebp
    2181:	89 e5                	mov    %esp,%ebp
    2183:	8b 45 08             	mov    0x8(%ebp),%eax
    2186:	5d                   	pop    %ebp
    2187:	8b 40 0c             	mov    0xc(%eax),%eax
    218a:	c3                   	ret    
    218b:	90                   	nop
    218c:	8d 74 26 00          	lea    0x0(%esi,%eiz,1),%esi

00002190 <ddf_fun_get_handle>:
    2190:	55                   	push   %ebp
    2191:	89 e5                	mov    %esp,%ebp
    2193:	8b 45 08             	mov    0x8(%ebp),%eax
    2196:	5d                   	pop    %ebp
    2197:	8b 40 04             	mov    0x4(%eax),%eax
    219a:	c3                   	ret    
    219b:	90                   	nop
    219c:	8d 74 26 00          	lea    0x0(%esi,%eiz,1),%esi

000021a0 <ddf_fun_create>:
    21a0:	55                   	push   %ebp
    21a1:	89 e5                	mov    %esp,%ebp
    21a3:	57                   	push   %edi
    21a4:	56                   	push   %esi
    21a5:	53                   	push   %ebx
    21a6:	83 ec 14             	sub    $0x14,%esp
    21a9:	8b 75 08             	mov    0x8(%ebp),%esi
    21ac:	6a 34                	push   $0x34
    21ae:	6a 01                	push   $0x1
    21b0:	e8 0b a9 00 00       	call   cac0 <calloc@plt>
    21b5:	83 c4 10             	add    $0x10,%esp
    21b8:	89 c3                	mov    %eax,%ebx
    21ba:	85 c0                	test   %eax,%eax
    21bc:	74 48                	je     2206 <ddf_fun_create+0x66>
    21be:	8d 78 18             	lea    0x18(%eax),%edi
    21c1:	c7 40 2c 00 00 00 00 	movl   $0x0,0x2c(%eax)
    21c8:	89 78 18             	mov    %edi,0x18(%eax)
    21cb:	89 78 1c             	mov    %edi,0x1c(%eax)
    21ce:	c7 40 30 00 00 00 00 	movl   $0x0,0x30(%eax)
    21d5:	89 70 0c             	mov    %esi,0xc(%eax)
    21d8:	f0 ff 46 04          	lock incl 0x4(%esi)
    21dc:	f0 ff 40 08          	lock incl 0x8(%eax)
    21e0:	c6 00 00             	movb   $0x0,(%eax)
    21e3:	8b 55 10             	mov    0x10(%ebp),%edx
    21e6:	8b 45 0c             	mov    0xc(%ebp),%eax
    21e9:	85 d2                	test   %edx,%edx
    21eb:	89 43 10             	mov    %eax,0x10(%ebx)
    21ee:	74 16                	je     2206 <ddf_fun_create+0x66>
    21f0:	83 ec 0c             	sub    $0xc,%esp
    21f3:	8b 45 10             	mov    0x10(%ebp),%eax
    21f6:	50                   	push   %eax
    21f7:	e8 74 a9 00 00       	call   cb70 <str_dup@plt>
    21fc:	83 c4 10             	add    $0x10,%esp
    21ff:	89 43 14             	mov    %eax,0x14(%ebx)
    2202:	85 c0                	test   %eax,%eax
    2204:	74 0a                	je     2210 <ddf_fun_create+0x70>
    2206:	8d 65 f4             	lea    -0xc(%ebp),%esp
    2209:	89 d8                	mov    %ebx,%eax
    220b:	5b                   	pop    %ebx
    220c:	5e                   	pop    %esi
    220d:	5f                   	pop    %edi
    220e:	5d                   	pop    %ebp
    220f:	c3                   	ret    
    2210:	8b 73 1c             	mov    0x1c(%ebx),%esi
    2213:	39 f7                	cmp    %esi,%edi
    2215:	0f 84 85 00 00 00    	je     22a0 <ddf_fun_create+0x100>
    221b:	90                   	nop
    221c:	8d 74 26 00          	lea    0x0(%esi,%eiz,1),%esi
    2220:	8b 0e                	mov    (%esi),%ecx
    2222:	85 c9                	test   %ecx,%ecx
    2224:	74 0e                	je     2234 <ddf_fun_create+0x94>
    2226:	8b 46 04             	mov    0x4(%esi),%eax
    2229:	85 c0                	test   %eax,%eax
    222b:	74 07                	je     2234 <ddf_fun_create+0x94>
    222d:	89 08                	mov    %ecx,(%eax)
    222f:	8b 0e                	mov    (%esi),%ecx
    2231:	89 41 04             	mov    %eax,0x4(%ecx)
    2234:	8b 46 08             	mov    0x8(%esi),%eax
    2237:	c7 06 00 00 00 00    	movl   $0x0,(%esi)
    223d:	c7 46 04 00 00 00 00 	movl   $0x0,0x4(%esi)
    2244:	85 c0                	test   %eax,%eax
    2246:	74 0c                	je     2254 <ddf_fun_create+0xb4>
    2248:	83 ec 0c             	sub    $0xc,%esp
    224b:	50                   	push   %eax
    224c:	e8 7f ab 00 00       	call   cdd0 <free@plt>
    2251:	83 c4 10             	add    $0x10,%esp
    2254:	83 ec 0c             	sub    $0xc,%esp
    2257:	56                   	push   %esi
    2258:	e8 73 ab 00 00       	call   cdd0 <free@plt>
    225d:	8b 73 1c             	mov    0x1c(%ebx),%esi
    2260:	83 c4 10             	add    $0x10,%esp
    2263:	39 f7                	cmp    %esi,%edi
    2265:	75 b9                	jne    2220 <ddf_fun_create+0x80>
    2267:	8b 43 20             	mov    0x20(%ebx),%eax
    226a:	85 c0                	test   %eax,%eax
    226c:	74 0c                	je     227a <ddf_fun_create+0xda>
    226e:	83 ec 0c             	sub    $0xc,%esp
    2271:	50                   	push   %eax
    2272:	e8 59 ab 00 00       	call   cdd0 <free@plt>
    2277:	83 c4 10             	add    $0x10,%esp
    227a:	8b 43 14             	mov    0x14(%ebx),%eax
    227d:	85 c0                	test   %eax,%eax
    227f:	74 0c                	je     228d <ddf_fun_create+0xed>
    2281:	83 ec 0c             	sub    $0xc,%esp
    2284:	50                   	push   %eax
    2285:	e8 46 ab 00 00       	call   cdd0 <free@plt>
    228a:	83 c4 10             	add    $0x10,%esp
    228d:	83 ec 0c             	sub    $0xc,%esp
    2290:	53                   	push   %ebx
    2291:	31 db                	xor    %ebx,%ebx
    2293:	e8 38 ab 00 00       	call   cdd0 <free@plt>
    2298:	83 c4 10             	add    $0x10,%esp
    229b:	e9 66 ff ff ff       	jmp    2206 <ddf_fun_create+0x66>
    22a0:	8b 43 20             	mov    0x20(%ebx),%eax
    22a3:	85 c0                	test   %eax,%eax
    22a5:	75 c7                	jne    226e <ddf_fun_create+0xce>
    22a7:	eb e4                	jmp    228d <ddf_fun_create+0xed>
    22a9:	8d b4 26 00 00 00 00 	lea    0x0(%esi,%eiz,1),%esi

000022b0 <ddf_fun_data_alloc>:
    22b0:	55                   	push   %ebp
    22b1:	89 e5                	mov    %esp,%ebp
    22b3:	53                   	push   %ebx
    22b4:	50                   	push   %eax
    22b5:	8b 5d 08             	mov    0x8(%ebp),%ebx
    22b8:	80 3b 00             	cmpb   $0x0,(%ebx)
    22bb:	75 23                	jne    22e0 <ddf_fun_data_alloc+0x30>
    22bd:	8b 43 20             	mov    0x20(%ebx),%eax
    22c0:	85 c0                	test   %eax,%eax
    22c2:	75 31                	jne    22f5 <ddf_fun_data_alloc+0x45>
    22c4:	8b 55 0c             	mov    0xc(%ebp),%edx
    22c7:	50                   	push   %eax
    22c8:	50                   	push   %eax
    22c9:	52                   	push   %edx
    22ca:	6a 01                	push   $0x1
    22cc:	e8 ef a7 00 00       	call   cac0 <calloc@plt>
    22d1:	83 c4 10             	add    $0x10,%esp
    22d4:	85 c0                	test   %eax,%eax
    22d6:	74 03                	je     22db <ddf_fun_data_alloc+0x2b>
    22d8:	89 43 20             	mov    %eax,0x20(%ebx)
    22db:	8b 5d fc             	mov    -0x4(%ebp),%ebx
    22de:	c9                   	leave  
    22df:	c3                   	ret    
    22e0:	50                   	push   %eax
    22e1:	68 c9 02 00 00       	push   $0x2c9
    22e6:	68 45 ab 00 00       	push   $0xab45
    22eb:	68 c4 ab 00 00       	push   $0xabc4
    22f0:	e8 ab a7 00 00       	call   caa0 <assert_abort@plt>
    22f5:	51                   	push   %ecx
    22f6:	68 ca 02 00 00       	push   $0x2ca
    22fb:	68 45 ab 00 00       	push   $0xab45
    2300:	68 d8 ab 00 00       	push   $0xabd8
    2305:	e8 96 a7 00 00       	call   caa0 <assert_abort@plt>
    230a:	8d b6 00 00 00 00    	lea    0x0(%esi),%esi

00002310 <ddf_fun_data_get>:
    2310:	55                   	push   %ebp
    2311:	89 e5                	mov    %esp,%ebp
    2313:	8b 45 08             	mov    0x8(%ebp),%eax
    2316:	5d                   	pop    %ebp
    2317:	8b 40 20             	mov    0x20(%eax),%eax
    231a:	c3                   	ret    
    231b:	90                   	nop
    231c:	8d 74 26 00          	lea    0x0(%esi,%eiz,1),%esi

00002320 <ddf_fun_get_name>:
    2320:	55                   	push   %ebp
    2321:	89 e5                	mov    %esp,%ebp
    2323:	8b 45 08             	mov    0x8(%ebp),%eax
    2326:	5d                   	pop    %ebp
    2327:	8b 40 14             	mov    0x14(%eax),%eax
    232a:	c3                   	ret    
    232b:	90                   	nop
    232c:	8d 74 26 00          	lea    0x0(%esi,%eiz,1),%esi

00002330 <ddf_fun_destroy>:
    2330:	55                   	push   %ebp
    2331:	89 e5                	mov    %esp,%ebp
    2333:	57                   	push   %edi
    2334:	56                   	push   %esi
    2335:	53                   	push   %ebx
    2336:	83 ec 1c             	sub    $0x1c,%esp
    2339:	8b 7d 08             	mov    0x8(%ebp),%edi
    233c:	80 3f 00             	cmpb   $0x0,(%edi)
    233f:	0f 85 fa 00 00 00    	jne    243f <ddf_fun_destroy+0x10f>
    2345:	8b 77 0c             	mov    0xc(%edi),%esi
    2348:	83 ca ff             	or     $0xffffffff,%edx
    234b:	f0 0f c1 57 08       	lock xadd %edx,0x8(%edi)
    2350:	4a                   	dec    %edx
    2351:	74 5d                	je     23b0 <ddf_fun_destroy+0x80>
    2353:	83 c8 ff             	or     $0xffffffff,%eax
    2356:	f0 0f c1 46 04       	lock xadd %eax,0x4(%esi)
    235b:	48                   	dec    %eax
    235c:	74 0a                	je     2368 <ddf_fun_destroy+0x38>
    235e:	8d 65 f4             	lea    -0xc(%ebp),%esp
    2361:	5b                   	pop    %ebx
    2362:	5e                   	pop    %esi
    2363:	5f                   	pop    %edi
    2364:	5d                   	pop    %ebp
    2365:	c3                   	ret    
    2366:	66 90                	xchg   %ax,%ax
    2368:	8b 46 08             	mov    0x8(%esi),%eax
    236b:	85 c0                	test   %eax,%eax
    236d:	74 0c                	je     237b <ddf_fun_destroy+0x4b>
    236f:	83 ec 0c             	sub    $0xc,%esp
    2372:	50                   	push   %eax
    2373:	e8 88 a5 00 00       	call   c900 <async_hangup@plt>
    2378:	83 c4 10             	add    $0x10,%esp
    237b:	8b 46 10             	mov    0x10(%esi),%eax
    237e:	85 c0                	test   %eax,%eax
    2380:	74 0c                	je     238e <ddf_fun_destroy+0x5e>
    2382:	83 ec 0c             	sub    $0xc,%esp
    2385:	50                   	push   %eax
    2386:	e8 45 aa 00 00       	call   cdd0 <free@plt>
    238b:	83 c4 10             	add    $0x10,%esp
    238e:	8b 46 0c             	mov    0xc(%esi),%eax
    2391:	85 c0                	test   %eax,%eax
    2393:	74 0c                	je     23a1 <ddf_fun_destroy+0x71>
    2395:	83 ec 0c             	sub    $0xc,%esp
    2398:	50                   	push   %eax
    2399:	e8 32 aa 00 00       	call   cdd0 <free@plt>
    239e:	83 c4 10             	add    $0x10,%esp
    23a1:	89 75 08             	mov    %esi,0x8(%ebp)
    23a4:	8d 65 f4             	lea    -0xc(%ebp),%esp
    23a7:	5b                   	pop    %ebx
    23a8:	5e                   	pop    %esi
    23a9:	5f                   	pop    %edi
    23aa:	5d                   	pop    %ebp
    23ab:	e9 20 aa 00 00       	jmp    cdd0 <free@plt>
    23b0:	8d 47 18             	lea    0x18(%edi),%eax
    23b3:	8b 5f 1c             	mov    0x1c(%edi),%ebx
    23b6:	89 45 e4             	mov    %eax,-0x1c(%ebp)
    23b9:	39 d8                	cmp    %ebx,%eax
    23bb:	74 4b                	je     2408 <ddf_fun_destroy+0xd8>
    23bd:	8d 76 00             	lea    0x0(%esi),%esi
    23c0:	8b 0b                	mov    (%ebx),%ecx
    23c2:	85 c9                	test   %ecx,%ecx
    23c4:	74 0e                	je     23d4 <ddf_fun_destroy+0xa4>
    23c6:	8b 53 04             	mov    0x4(%ebx),%edx
    23c9:	85 d2                	test   %edx,%edx
    23cb:	74 07                	je     23d4 <ddf_fun_destroy+0xa4>
    23cd:	89 0a                	mov    %ecx,(%edx)
    23cf:	8b 0b                	mov    (%ebx),%ecx
    23d1:	89 51 04             	mov    %edx,0x4(%ecx)
    23d4:	8b 53 08             	mov    0x8(%ebx),%edx
    23d7:	c7 03 00 00 00 00    	movl   $0x0,(%ebx)
    23dd:	c7 43 04 00 00 00 00 	movl   $0x0,0x4(%ebx)
    23e4:	85 d2                	test   %edx,%edx
    23e6:	74 0c                	je     23f4 <ddf_fun_destroy+0xc4>
    23e8:	83 ec 0c             	sub    $0xc,%esp
    23eb:	52                   	push   %edx
    23ec:	e8 df a9 00 00       	call   cdd0 <free@plt>
    23f1:	83 c4 10             	add    $0x10,%esp
    23f4:	83 ec 0c             	sub    $0xc,%esp
    23f7:	53                   	push   %ebx
    23f8:	e8 d3 a9 00 00       	call   cdd0 <free@plt>
    23fd:	8b 5f 1c             	mov    0x1c(%edi),%ebx
    2400:	83 c4 10             	add    $0x10,%esp
    2403:	3b 5d e4             	cmp    -0x1c(%ebp),%ebx
    2406:	75 b8                	jne    23c0 <ddf_fun_destroy+0x90>
    2408:	8b 57 20             	mov    0x20(%edi),%edx
    240b:	85 d2                	test   %edx,%edx
    240d:	74 0c                	je     241b <ddf_fun_destroy+0xeb>
    240f:	83 ec 0c             	sub    $0xc,%esp
    2412:	52                   	push   %edx
    2413:	e8 b8 a9 00 00       	call   cdd0 <free@plt>
    2418:	83 c4 10             	add    $0x10,%esp
    241b:	8b 57 14             	mov    0x14(%edi),%edx
    241e:	85 d2                	test   %edx,%edx
    2420:	74 0c                	je     242e <ddf_fun_destroy+0xfe>
    2422:	83 ec 0c             	sub    $0xc,%esp
    2425:	52                   	push   %edx
    2426:	e8 a5 a9 00 00       	call   cdd0 <free@plt>
    242b:	83 c4 10             	add    $0x10,%esp
    242e:	83 ec 0c             	sub    $0xc,%esp
    2431:	57                   	push   %edi
    2432:	e8 99 a9 00 00       	call   cdd0 <free@plt>
    2437:	83 c4 10             	add    $0x10,%esp
    243a:	e9 14 ff ff ff       	jmp    2353 <ddf_fun_destroy+0x23>
    243f:	50                   	push   %eax
    2440:	68 ee 02 00 00       	push   $0x2ee
    2445:	68 45 ab 00 00       	push   $0xab45
    244a:	68 c4 ab 00 00       	push   $0xabc4
    244f:	e8 4c a6 00 00       	call   caa0 <assert_abort@plt>
    2454:	8d b6 00 00 00 00    	lea    0x0(%esi),%esi
    245a:	8d bf 00 00 00 00    	lea    0x0(%edi),%edi

00002460 <ddf_fun_bind>:
    2460:	55                   	push   %ebp
    2461:	89 e5                	mov    %esp,%ebp
    2463:	53                   	push   %ebx
    2464:	83 ec 14             	sub    $0x14,%esp
    2467:	8b 5d 08             	mov    0x8(%ebp),%ebx
    246a:	80 3b 00             	cmpb   $0x0,(%ebx)
    246d:	0f 85 d2 00 00 00    	jne    2545 <ddf_fun_bind+0xe5>
    2473:	8b 43 14             	mov    0x14(%ebx),%eax
    2476:	85 c0                	test   %eax,%eax
    2478:	0f 84 f1 00 00 00    	je     256f <ddf_fun_bind+0x10f>
    247e:	8b 43 0c             	mov    0xc(%ebx),%eax
    2481:	85 c0                	test   %eax,%eax
    2483:	0f 84 d1 00 00 00    	je     255a <ddf_fun_bind+0xfa>
    2489:	83 ec 0c             	sub    $0xc,%esp
    248c:	68 98 ee 00 00       	push   $0xee98
    2491:	e8 5a a9 00 00       	call   cdf0 <fibril_mutex_lock@plt>
    2496:	8b 15 a8 ee 00 00    	mov    0xeea8,%edx
    249c:	8d 43 2c             	lea    0x2c(%ebx),%eax
    249f:	89 53 2c             	mov    %edx,0x2c(%ebx)
    24a2:	c7 43 30 a8 ee 00 00 	movl   $0xeea8,0x30(%ebx)
    24a9:	89 42 04             	mov    %eax,0x4(%edx)
    24ac:	a3 a8 ee 00 00       	mov    %eax,0xeea8
    24b1:	c7 04 24 98 ee 00 00 	movl   $0xee98,(%esp)
    24b8:	e8 93 a6 00 00       	call   cb50 <fibril_mutex_unlock@plt>
    24bd:	8d 43 04             	lea    0x4(%ebx),%eax
    24c0:	8b 53 10             	mov    0x10(%ebx),%edx
    24c3:	89 04 24             	mov    %eax,(%esp)
    24c6:	8b 43 0c             	mov    0xc(%ebx),%eax
    24c9:	8b 4b 14             	mov    0x14(%ebx),%ecx
    24cc:	8b 00                	mov    (%eax),%eax
    24ce:	50                   	push   %eax
    24cf:	8d 43 18             	lea    0x18(%ebx),%eax
    24d2:	50                   	push   %eax
    24d3:	52                   	push   %edx
    24d4:	51                   	push   %ecx
    24d5:	e8 96 a5 00 00       	call   ca70 <devman_add_function@plt>
    24da:	83 c4 20             	add    $0x20,%esp
    24dd:	85 c0                	test   %eax,%eax
    24df:	75 0f                	jne    24f0 <ddf_fun_bind+0x90>
    24e1:	c6 03 01             	movb   $0x1,(%ebx)
    24e4:	8b 5d fc             	mov    -0x4(%ebp),%ebx
    24e7:	c9                   	leave  
    24e8:	c3                   	ret    
    24e9:	8d b4 26 00 00 00 00 	lea    0x0(%esi,%eiz,1),%esi
    24f0:	83 ec 0c             	sub    $0xc,%esp
    24f3:	89 45 f4             	mov    %eax,-0xc(%ebp)
    24f6:	68 98 ee 00 00       	push   $0xee98
    24fb:	e8 f0 a8 00 00       	call   cdf0 <fibril_mutex_lock@plt>
    2500:	8b 4b 2c             	mov    0x2c(%ebx),%ecx
    2503:	83 c4 10             	add    $0x10,%esp
    2506:	8b 45 f4             	mov    -0xc(%ebp),%eax
    2509:	85 c9                	test   %ecx,%ecx
    250b:	74 0f                	je     251c <ddf_fun_bind+0xbc>
    250d:	8b 53 30             	mov    0x30(%ebx),%edx
    2510:	85 d2                	test   %edx,%edx
    2512:	74 08                	je     251c <ddf_fun_bind+0xbc>
    2514:	89 0a                	mov    %ecx,(%edx)
    2516:	8b 4b 2c             	mov    0x2c(%ebx),%ecx
    2519:	89 51 04             	mov    %edx,0x4(%ecx)
    251c:	83 ec 0c             	sub    $0xc,%esp
    251f:	c7 43 2c 00 00 00 00 	movl   $0x0,0x2c(%ebx)
    2526:	c7 43 30 00 00 00 00 	movl   $0x0,0x30(%ebx)
    252d:	89 45 f4             	mov    %eax,-0xc(%ebp)
    2530:	68 98 ee 00 00       	push   $0xee98
    2535:	e8 16 a6 00 00       	call   cb50 <fibril_mutex_unlock@plt>
    253a:	8b 45 f4             	mov    -0xc(%ebp),%eax
    253d:	83 c4 10             	add    $0x10,%esp
    2540:	8b 5d fc             	mov    -0x4(%ebp),%ebx
    2543:	c9                   	leave  
    2544:	c3                   	ret    
    2545:	50                   	push   %eax
    2546:	68 12 03 00 00       	push   $0x312
    254b:	68 45 ab 00 00       	push   $0xab45
    2550:	68 c4 ab 00 00       	push   $0xabc4
    2555:	e8 46 a5 00 00       	call   caa0 <assert_abort@plt>
    255a:	53                   	push   %ebx
    255b:	68 14 03 00 00       	push   $0x314
    2560:	68 45 ab 00 00       	push   $0xab45
    2565:	68 03 ac 00 00       	push   $0xac03
    256a:	e8 31 a5 00 00       	call   caa0 <assert_abort@plt>
    256f:	50                   	push   %eax
    2570:	68 13 03 00 00       	push   $0x313
    2575:	68 45 ab 00 00       	push   $0xab45
    257a:	68 f1 ab 00 00       	push   $0xabf1
    257f:	e8 1c a5 00 00       	call   caa0 <assert_abort@plt>
    2584:	8d b6 00 00 00 00    	lea    0x0(%esi),%esi
    258a:	8d bf 00 00 00 00    	lea    0x0(%edi),%edi

00002590 <ddf_fun_unbind>:
    2590:	55                   	push   %ebp
    2591:	89 e5                	mov    %esp,%ebp
    2593:	53                   	push   %ebx
    2594:	83 ec 14             	sub    $0x14,%esp
    2597:	8b 5d 08             	mov    0x8(%ebp),%ebx
    259a:	80 3b 00             	cmpb   $0x0,(%ebx)
    259d:	74 71                	je     2610 <ddf_fun_unbind+0x80>
    259f:	83 ec 0c             	sub    $0xc,%esp
    25a2:	8b 43 04             	mov    0x4(%ebx),%eax
    25a5:	50                   	push   %eax
    25a6:	e8 35 a5 00 00       	call   cae0 <devman_remove_function@plt>
    25ab:	83 c4 10             	add    $0x10,%esp
    25ae:	85 c0                	test   %eax,%eax
    25b0:	74 06                	je     25b8 <ddf_fun_unbind+0x28>
    25b2:	8b 5d fc             	mov    -0x4(%ebp),%ebx
    25b5:	c9                   	leave  
    25b6:	c3                   	ret    
    25b7:	90                   	nop
    25b8:	83 ec 0c             	sub    $0xc,%esp
    25bb:	89 45 f4             	mov    %eax,-0xc(%ebp)
    25be:	68 98 ee 00 00       	push   $0xee98
    25c3:	e8 28 a8 00 00       	call   cdf0 <fibril_mutex_lock@plt>
    25c8:	8b 4b 2c             	mov    0x2c(%ebx),%ecx
    25cb:	83 c4 10             	add    $0x10,%esp
    25ce:	8b 45 f4             	mov    -0xc(%ebp),%eax
    25d1:	85 c9                	test   %ecx,%ecx
    25d3:	74 0f                	je     25e4 <ddf_fun_unbind+0x54>
    25d5:	8b 53 30             	mov    0x30(%ebx),%edx
    25d8:	85 d2                	test   %edx,%edx
    25da:	74 08                	je     25e4 <ddf_fun_unbind+0x54>
    25dc:	89 0a                	mov    %ecx,(%edx)
    25de:	8b 4b 2c             	mov    0x2c(%ebx),%ecx
    25e1:	89 51 04             	mov    %edx,0x4(%ecx)
    25e4:	83 ec 0c             	sub    $0xc,%esp
    25e7:	c7 43 2c 00 00 00 00 	movl   $0x0,0x2c(%ebx)
    25ee:	c7 43 30 00 00 00 00 	movl   $0x0,0x30(%ebx)
    25f5:	89 45 f4             	mov    %eax,-0xc(%ebp)
    25f8:	68 98 ee 00 00       	push   $0xee98
    25fd:	e8 4e a5 00 00       	call   cb50 <fibril_mutex_unlock@plt>
    2602:	c6 03 00             	movb   $0x0,(%ebx)
    2605:	8b 45 f4             	mov    -0xc(%ebp),%eax
    2608:	83 c4 10             	add    $0x10,%esp
    260b:	8b 5d fc             	mov    -0x4(%ebp),%ebx
    260e:	c9                   	leave  
    260f:	c3                   	ret    
    2610:	52                   	push   %edx
    2611:	68 2e 03 00 00       	push   $0x32e
    2616:	68 45 ab 00 00       	push   $0xab45
    261b:	68 14 ac 00 00       	push   $0xac14
    2620:	e8 7b a4 00 00       	call   caa0 <assert_abort@plt>
    2625:	8d 74 26 00          	lea    0x0(%esi,%eiz,1),%esi
    2629:	8d bc 27 00 00 00 00 	lea    0x0(%edi,%eiz,1),%edi

00002630 <ddf_fun_online>:
    2630:	55                   	push   %ebp
    2631:	89 e5                	mov    %esp,%ebp
    2633:	83 ec 08             	sub    $0x8,%esp
    2636:	8b 45 08             	mov    0x8(%ebp),%eax
    2639:	80 38 00             	cmpb   $0x0,(%eax)
    263c:	74 0c                	je     264a <ddf_fun_online+0x1a>
    263e:	8b 40 04             	mov    0x4(%eax),%eax
    2641:	89 45 08             	mov    %eax,0x8(%ebp)
    2644:	c9                   	leave  
    2645:	e9 36 a3 00 00       	jmp    c980 <devman_drv_fun_online@plt>
    264a:	50                   	push   %eax
    264b:	68 43 03 00 00       	push   $0x343
    2650:	68 45 ab 00 00       	push   $0xab45
    2655:	68 14 ac 00 00       	push   $0xac14
    265a:	e8 41 a4 00 00       	call   caa0 <assert_abort@plt>
    265f:	90                   	nop

00002660 <ddf_fun_offline>:
    2660:	55                   	push   %ebp
    2661:	89 e5                	mov    %esp,%ebp
    2663:	83 ec 08             	sub    $0x8,%esp
    2666:	8b 45 08             	mov    0x8(%ebp),%eax
    2669:	80 38 00             	cmpb   $0x0,(%eax)
    266c:	74 0c                	je     267a <ddf_fun_offline+0x1a>
    266e:	8b 40 04             	mov    0x4(%eax),%eax
    2671:	89 45 08             	mov    %eax,0x8(%ebp)
    2674:	c9                   	leave  
    2675:	e9 66 a5 00 00       	jmp    cbe0 <devman_drv_fun_offline@plt>
    267a:	50                   	push   %eax
    267b:	68 55 03 00 00       	push   $0x355
    2680:	68 45 ab 00 00       	push   $0xab45
    2685:	68 14 ac 00 00       	push   $0xac14
    268a:	e8 11 a4 00 00       	call   caa0 <assert_abort@plt>
    268f:	90                   	nop

00002690 <ddf_fun_add_match_id>:
    2690:	55                   	push   %ebp
    2691:	89 e5                	mov    %esp,%ebp
    2693:	57                   	push   %edi
    2694:	56                   	push   %esi
    2695:	53                   	push   %ebx
    2696:	83 ec 0c             	sub    $0xc,%esp
    2699:	8b 5d 08             	mov    0x8(%ebp),%ebx
    269c:	8b 75 10             	mov    0x10(%ebp),%esi
    269f:	80 3b 00             	cmpb   $0x0,(%ebx)
    26a2:	0f 85 89 00 00 00    	jne    2731 <ddf_fun_add_match_id+0xa1>
    26a8:	83 7b 10 01          	cmpl   $0x1,0x10(%ebx)
    26ac:	75 6e                	jne    271c <ddf_fun_add_match_id+0x8c>
    26ae:	83 ec 0c             	sub    $0xc,%esp
    26b1:	6a 10                	push   $0x10
    26b3:	e8 18 a3 00 00       	call   c9d0 <malloc@plt>
    26b8:	83 c4 0c             	add    $0xc,%esp
    26bb:	89 c7                	mov    %eax,%edi
    26bd:	6a 10                	push   $0x10
    26bf:	6a 00                	push   $0x0
    26c1:	50                   	push   %eax
    26c2:	e8 69 a5 00 00       	call   cc30 <memset@plt>
    26c7:	8b 55 0c             	mov    0xc(%ebp),%edx
    26ca:	58                   	pop    %eax
    26cb:	52                   	push   %edx
    26cc:	e8 9f a4 00 00       	call   cb70 <str_dup@plt>
    26d1:	8d 53 18             	lea    0x18(%ebx),%edx
    26d4:	89 47 08             	mov    %eax,0x8(%edi)
    26d7:	8b 43 1c             	mov    0x1c(%ebx),%eax
    26da:	83 c4 10             	add    $0x10,%esp
    26dd:	89 77 0c             	mov    %esi,0xc(%edi)
    26e0:	39 c2                	cmp    %eax,%edx
    26e2:	74 18                	je     26fc <ddf_fun_add_match_id+0x6c>
    26e4:	39 70 0c             	cmp    %esi,0xc(%eax)
    26e7:	73 0c                	jae    26f5 <ddf_fun_add_match_id+0x65>
    26e9:	eb 2d                	jmp    2718 <ddf_fun_add_match_id+0x88>
    26eb:	90                   	nop
    26ec:	8d 74 26 00          	lea    0x0(%esi,%eiz,1),%esi
    26f0:	3b 70 0c             	cmp    0xc(%eax),%esi
    26f3:	77 23                	ja     2718 <ddf_fun_add_match_id+0x88>
    26f5:	8b 40 04             	mov    0x4(%eax),%eax
    26f8:	39 c2                	cmp    %eax,%edx
    26fa:	75 f4                	jne    26f0 <ddf_fun_add_match_id+0x60>
    26fc:	8b 02                	mov    (%edx),%eax
    26fe:	89 57 04             	mov    %edx,0x4(%edi)
    2701:	89 07                	mov    %eax,(%edi)
    2703:	8b 02                	mov    (%edx),%eax
    2705:	89 78 04             	mov    %edi,0x4(%eax)
    2708:	89 3a                	mov    %edi,(%edx)
    270a:	8d 65 f4             	lea    -0xc(%ebp),%esp
    270d:	31 c0                	xor    %eax,%eax
    270f:	5b                   	pop    %ebx
    2710:	5e                   	pop    %esi
    2711:	5f                   	pop    %edi
    2712:	5d                   	pop    %ebp
    2713:	c3                   	ret    
    2714:	8d 74 26 00          	lea    0x0(%esi,%eiz,1),%esi
    2718:	89 c2                	mov    %eax,%edx
    271a:	eb e0                	jmp    26fc <ddf_fun_add_match_id+0x6c>
    271c:	51                   	push   %ecx
    271d:	68 6f 03 00 00       	push   $0x36f
    2722:	68 45 ab 00 00       	push   $0xab45
    2727:	68 27 ac 00 00       	push   $0xac27
    272c:	e8 6f a3 00 00       	call   caa0 <assert_abort@plt>
    2731:	53                   	push   %ebx
    2732:	68 6e 03 00 00       	push   $0x36e
    2737:	68 45 ab 00 00       	push   $0xab45
    273c:	68 c4 ab 00 00       	push   $0xabc4
    2741:	e8 5a a3 00 00       	call   caa0 <assert_abort@plt>
    2746:	8d 76 00             	lea    0x0(%esi),%esi
    2749:	8d bc 27 00 00 00 00 	lea    0x0(%edi,%eiz,1),%edi

00002750 <ddf_fun_set_ops>:
    2750:	55                   	push   %ebp
    2751:	89 e5                	mov    %esp,%ebp
    2753:	83 ec 08             	sub    $0x8,%esp
    2756:	8b 45 08             	mov    0x8(%ebp),%eax
    2759:	8b 48 28             	mov    0x28(%eax),%ecx
    275c:	85 c9                	test   %ecx,%ecx
    275e:	75 08                	jne    2768 <ddf_fun_set_ops+0x18>
    2760:	8b 55 0c             	mov    0xc(%ebp),%edx
    2763:	89 50 24             	mov    %edx,0x24(%eax)
    2766:	c9                   	leave  
    2767:	c3                   	ret    
    2768:	50                   	push   %eax
    2769:	68 7f 03 00 00       	push   $0x37f
    276e:	68 45 ab 00 00       	push   $0xab45
    2773:	68 3f ac 00 00       	push   $0xac3f
    2778:	e8 23 a3 00 00       	call   caa0 <assert_abort@plt>
    277d:	8d 76 00             	lea    0x0(%esi),%esi

00002780 <ddf_fun_set_conn_handler>:
    2780:	55                   	push   %ebp
    2781:	89 e5                	mov    %esp,%ebp
    2783:	83 ec 08             	sub    $0x8,%esp
    2786:	8b 45 08             	mov    0x8(%ebp),%eax
    2789:	8b 48 24             	mov    0x24(%eax),%ecx
    278c:	85 c9                	test   %ecx,%ecx
    278e:	75 08                	jne    2798 <ddf_fun_set_conn_handler+0x18>
    2790:	8b 55 0c             	mov    0xc(%ebp),%edx
    2793:	89 50 28             	mov    %edx,0x28(%eax)
    2796:	c9                   	leave  
    2797:	c3                   	ret    
    2798:	50                   	push   %eax
    2799:	68 89 03 00 00       	push   $0x389
    279e:	68 45 ab 00 00       	push   $0xab45
    27a3:	68 59 ac 00 00       	push   $0xac59
    27a8:	e8 f3 a2 00 00       	call   caa0 <assert_abort@plt>
    27ad:	8d 76 00             	lea    0x0(%esi),%esi

000027b0 <ddf_fun_add_to_category>:
    27b0:	55                   	push   %ebp
    27b1:	89 e5                	mov    %esp,%ebp
    27b3:	83 ec 08             	sub    $0x8,%esp
    27b6:	8b 45 08             	mov    0x8(%ebp),%eax
    27b9:	8b 55 0c             	mov    0xc(%ebp),%edx
    27bc:	80 38 00             	cmpb   $0x0,(%eax)
    27bf:	74 15                	je     27d6 <ddf_fun_add_to_category+0x26>
    27c1:	83 78 10 02          	cmpl   $0x2,0x10(%eax)
    27c5:	75 24                	jne    27eb <ddf_fun_add_to_category+0x3b>
    27c7:	89 55 0c             	mov    %edx,0xc(%ebp)
    27ca:	8b 40 04             	mov    0x4(%eax),%eax
    27cd:	89 45 08             	mov    %eax,0x8(%ebp)
    27d0:	c9                   	leave  
    27d1:	e9 0a a2 00 00       	jmp    c9e0 <devman_add_device_to_category@plt>
    27d6:	52                   	push   %edx
    27d7:	68 9c 03 00 00       	push   $0x39c
    27dc:	68 45 ab 00 00       	push   $0xab45
    27e1:	68 14 ac 00 00       	push   $0xac14
    27e6:	e8 b5 a2 00 00       	call   caa0 <assert_abort@plt>
    27eb:	50                   	push   %eax
    27ec:	68 9d 03 00 00       	push   $0x39d
    27f1:	68 45 ab 00 00       	push   $0xab45
    27f6:	68 6a ac 00 00       	push   $0xac6a
    27fb:	e8 a0 a2 00 00       	call   caa0 <assert_abort@plt>

00002800 <ddf_driver_main>:
    2800:	55                   	push   %ebp
    2801:	89 e5                	mov    %esp,%ebp
    2803:	56                   	push   %esi
    2804:	53                   	push   %ebx
    2805:	83 ec 10             	sub    $0x10,%esp
    2808:	8d 75 f4             	lea    -0xc(%ebp),%esi
    280b:	8b 45 08             	mov    0x8(%ebp),%eax
    280e:	56                   	push   %esi
    280f:	a3 44 f0 00 00       	mov    %eax,0xf044
    2814:	6a 00                	push   $0x0
    2816:	68 60 1b 00 00       	push   $0x1b60
    281b:	68 41 26 9b c9       	push   $0xc99b2641
    2820:	e8 0b a5 00 00       	call   cd30 <async_create_port@plt>
    2825:	83 c4 10             	add    $0x10,%esp
    2828:	89 c3                	mov    %eax,%ebx
    282a:	85 c0                	test   %eax,%eax
    282c:	74 0a                	je     2838 <ddf_driver_main+0x38>
    282e:	8d 65 f8             	lea    -0x8(%ebp),%esp
    2831:	89 d8                	mov    %ebx,%eax
    2833:	5b                   	pop    %ebx
    2834:	5e                   	pop    %esi
    2835:	5d                   	pop    %ebp
    2836:	c3                   	ret    
    2837:	90                   	nop
    2838:	56                   	push   %esi
    2839:	6a 00                	push   $0x0
    283b:	68 80 1b 00 00       	push   $0x1b80
    2840:	68 41 26 9b db       	push   $0xdb9b2641
    2845:	e8 e6 a4 00 00       	call   cd30 <async_create_port@plt>
    284a:	83 c4 10             	add    $0x10,%esp
    284d:	89 c3                	mov    %eax,%ebx
    284f:	85 c0                	test   %eax,%eax
    2851:	75 db                	jne    282e <ddf_driver_main+0x2e>
    2853:	51                   	push   %ecx
    2854:	51                   	push   %ecx
    2855:	6a 00                	push   $0x0
    2857:	68 70 1b 00 00       	push   $0x1b70
    285c:	e8 4f a5 00 00       	call   cdb0 <async_set_fallback_port_handler@plt>
    2861:	a1 44 f0 00 00       	mov    0xf044,%eax
    2866:	8b 30                	mov    (%eax),%esi
    2868:	5b                   	pop    %ebx
    2869:	56                   	push   %esi
    286a:	e8 b1 a3 00 00       	call   cc20 <devman_driver_register@plt>
    286f:	83 c4 10             	add    $0x10,%esp
    2872:	89 c3                	mov    %eax,%ebx
    2874:	85 c0                	test   %eax,%eax
    2876:	74 30                	je     28a8 <ddf_driver_main+0xa8>
    2878:	b8 84 ac 00 00       	mov    $0xac84,%eax
    287d:	83 fb f7             	cmp    $0xfffffff7,%ebx
    2880:	74 0c                	je     288e <ddf_driver_main+0x8e>
    2882:	83 ec 0c             	sub    $0xc,%esp
    2885:	53                   	push   %ebx
    2886:	e8 55 a4 00 00       	call   cce0 <str_error@plt>
    288b:	83 c4 10             	add    $0x10,%esp
    288e:	52                   	push   %edx
    288f:	52                   	push   %edx
    2890:	50                   	push   %eax
    2891:	68 10 ae 00 00       	push   $0xae10
    2896:	e8 55 a0 00 00       	call   c8f0 <printf@plt>
    289b:	83 c4 10             	add    $0x10,%esp
    289e:	8d 65 f8             	lea    -0x8(%ebp),%esp
    28a1:	89 d8                	mov    %ebx,%eax
    28a3:	5b                   	pop    %ebx
    28a4:	5e                   	pop    %esi
    28a5:	5d                   	pop    %ebp
    28a6:	c3                   	ret    
    28a7:	90                   	nop
    28a8:	83 ec 0c             	sub    $0xc,%esp
    28ab:	6a 00                	push   $0x0
    28ad:	e8 0e a0 00 00       	call   c8c0 <task_retval@plt>
    28b2:	83 c4 10             	add    $0x10,%esp
    28b5:	89 c3                	mov    %eax,%ebx
    28b7:	85 c0                	test   %eax,%eax
    28b9:	0f 85 6f ff ff ff    	jne    282e <ddf_driver_main+0x2e>
    28bf:	83 c8 ff             	or     $0xffffffff,%eax
    28c2:	f0 0f c1 05 3c f0 00 	lock xadd %eax,0xf03c
    28c9:	00 
    28ca:	48                   	dec    %eax
    28cb:	78 12                	js     28df <ddf_driver_main+0xdf>
    28cd:	83 ec 0c             	sub    $0xc,%esp
    28d0:	6a 03                	push   $0x3
    28d2:	e8 a9 a4 00 00       	call   cd80 <fibril_switch@plt>
    28d7:	83 c4 10             	add    $0x10,%esp
    28da:	e9 4f ff ff ff       	jmp    282e <ddf_driver_main+0x2e>
    28df:	50                   	push   %eax
    28e0:	6a 0b                	push   $0xb
    28e2:	6a 00                	push   $0x0
    28e4:	6a 00                	push   $0x0
    28e6:	6a 00                	push   $0x0
    28e8:	6a 00                	push   $0x0
    28ea:	6a 00                	push   $0x0
    28ec:	68 3c f0 00 00       	push   $0xf03c
    28f1:	ff 15 38 f0 00 00    	call   *0xf038
    28f7:	83 c4 20             	add    $0x20,%esp
    28fa:	eb d1                	jmp    28cd <ddf_driver_main+0xcd>
    28fc:	66 90                	xchg   %ax,%ax
    28fe:	66 90                	xchg   %ax,%ax

00002900 <get_remote_iface>:
    2900:	55                   	push   %ebp
    2901:	89 e5                	mov    %esp,%ebp
    2903:	83 ec 08             	sub    $0x8,%esp
    2906:	8b 45 08             	mov    0x8(%ebp),%eax
    2909:	83 f8 0e             	cmp    $0xe,%eax
    290c:	77 09                	ja     2917 <get_remote_iface+0x17>
    290e:	8b 04 85 80 ae 00 00 	mov    0xae80(,%eax,4),%eax
    2915:	c9                   	leave  
    2916:	c3                   	ret    
    2917:	50                   	push   %eax
    2918:	6a 4f                	push   $0x4f
    291a:	68 60 ae 00 00       	push   $0xae60
    291f:	68 56 ab 00 00       	push   $0xab56
    2924:	e8 77 a1 00 00       	call   caa0 <assert_abort@plt>
    2929:	8d b4 26 00 00 00 00 	lea    0x0(%esi,%eiz,1),%esi

00002930 <get_remote_method>:
    2930:	55                   	push   %ebp
    2931:	89 e5                	mov    %esp,%ebp
    2933:	8b 55 08             	mov    0x8(%ebp),%edx
    2936:	8b 45 0c             	mov    0xc(%ebp),%eax
    2939:	39 02                	cmp    %eax,(%edx)
    293b:	76 0b                	jbe    2948 <get_remote_method+0x18>
    293d:	8b 52 04             	mov    0x4(%edx),%edx
    2940:	5d                   	pop    %ebp
    2941:	8b 04 82             	mov    (%edx,%eax,4),%eax
    2944:	c3                   	ret    
    2945:	8d 76 00             	lea    0x0(%esi),%esi
    2948:	31 c0                	xor    %eax,%eax
    294a:	5d                   	pop    %ebp
    294b:	c3                   	ret    
    294c:	8d 74 26 00          	lea    0x0(%esi,%eiz,1),%esi

00002950 <is_valid_iface_idx>:
    2950:	55                   	push   %ebp
    2951:	89 e5                	mov    %esp,%ebp
    2953:	83 7d 08 0e          	cmpl   $0xe,0x8(%ebp)
    2957:	5d                   	pop    %ebp
    2958:	0f 96 c0             	setbe  %al
    295b:	c3                   	ret    
    295c:	66 90                	xchg   %ax,%ax
    295e:	66 90                	xchg   %ax,%ax

00002960 <register_interrupt_handler>:
    2960:	55                   	push   %ebp
    2961:	89 e5                	mov    %esp,%ebp
    2963:	83 ec 14             	sub    $0x14,%esp
    2966:	8b 45 08             	mov    0x8(%ebp),%eax
    2969:	8b 55 14             	mov    0x14(%ebp),%edx
    296c:	8b 4d 10             	mov    0x10(%ebp),%ecx
    296f:	52                   	push   %edx
    2970:	50                   	push   %eax
    2971:	51                   	push   %ecx
    2972:	8b 00                	mov    (%eax),%eax
    2974:	50                   	push   %eax
    2975:	8b 45 0c             	mov    0xc(%ebp),%eax
    2978:	50                   	push   %eax
    2979:	e8 82 a0 00 00       	call   ca00 <async_irq_subscribe@plt>
    297e:	c9                   	leave  
    297f:	c3                   	ret    

00002980 <unregister_interrupt_handler>:
    2980:	55                   	push   %ebp
    2981:	89 e5                	mov    %esp,%ebp
    2983:	8b 55 08             	mov    0x8(%ebp),%edx
    2986:	8b 45 0c             	mov    0xc(%ebp),%eax
    2989:	8b 12                	mov    (%edx),%edx
    298b:	89 45 08             	mov    %eax,0x8(%ebp)
    298e:	89 55 0c             	mov    %edx,0xc(%ebp)
    2991:	5d                   	pop    %ebp
    2992:	e9 19 a0 00 00       	jmp    c9b0 <async_irq_unsubscribe@plt>
    2997:	66 90                	xchg   %ax,%ax
    2999:	66 90                	xchg   %ax,%ax
    299b:	66 90                	xchg   %ax,%ax
    299d:	66 90                	xchg   %ax,%ax
    299f:	90                   	nop

000029a0 <ddf_log_init>:
    29a0:	55                   	push   %ebp
    29a1:	89 e5                	mov    %esp,%ebp
    29a3:	5d                   	pop    %ebp
    29a4:	e9 97 9f 00 00       	jmp    c940 <log_init@plt>
    29a9:	8d b4 26 00 00 00 00 	lea    0x0(%esi,%eiz,1),%esi

000029b0 <ddf_msg>:
    29b0:	55                   	push   %ebp
    29b1:	89 e5                	mov    %esp,%ebp
    29b3:	83 ec 08             	sub    $0x8,%esp
    29b6:	8d 45 10             	lea    0x10(%ebp),%eax
    29b9:	8b 55 0c             	mov    0xc(%ebp),%edx
    29bc:	8b 4d 08             	mov    0x8(%ebp),%ecx
    29bf:	50                   	push   %eax
    29c0:	52                   	push   %edx
    29c1:	51                   	push   %ecx
    29c2:	6a ff                	push   $0xffffffff
    29c4:	e8 97 a0 00 00       	call   ca60 <log_msgv@plt>
    29c9:	83 c4 10             	add    $0x10,%esp
    29cc:	c9                   	leave  
    29cd:	c3                   	ret    
    29ce:	66 90                	xchg   %ax,%ax

000029d0 <remote_audio_mixer_set_item_level>:
    29d0:	55                   	push   %ebp
    29d1:	89 e5                	mov    %esp,%ebp
    29d3:	53                   	push   %ebx
    29d4:	51                   	push   %ecx
    29d5:	8b 45 0c             	mov    0xc(%ebp),%eax
    29d8:	8b 4d 08             	mov    0x8(%ebp),%ecx
    29db:	8b 5d 10             	mov    0x10(%ebp),%ebx
    29de:	8b 55 14             	mov    0x14(%ebp),%edx
    29e1:	8b 40 0c             	mov    0xc(%eax),%eax
    29e4:	85 c0                	test   %eax,%eax
    29e6:	74 20                	je     2a08 <remote_audio_mixer_set_item_level+0x38>
    29e8:	83 ec 04             	sub    $0x4,%esp
    29eb:	ff 72 0c             	pushl  0xc(%edx)
    29ee:	8b 52 08             	mov    0x8(%edx),%edx
    29f1:	52                   	push   %edx
    29f2:	51                   	push   %ecx
    29f3:	ff d0                	call   *%eax
    29f5:	89 5d 08             	mov    %ebx,0x8(%ebp)
    29f8:	83 c4 10             	add    $0x10,%esp
    29fb:	8b 5d fc             	mov    -0x4(%ebp),%ebx
    29fe:	89 45 0c             	mov    %eax,0xc(%ebp)
    2a01:	c9                   	leave  
    2a02:	e9 19 a0 00 00       	jmp    ca20 <async_answer_0@plt>
    2a07:	90                   	nop
    2a08:	89 5d 08             	mov    %ebx,0x8(%ebp)
    2a0b:	8b 5d fc             	mov    -0x4(%ebp),%ebx
    2a0e:	c7 45 0c f5 ff ff ff 	movl   $0xfffffff5,0xc(%ebp)
    2a15:	c9                   	leave  
    2a16:	e9 05 a0 00 00       	jmp    ca20 <async_answer_0@plt>
    2a1b:	90                   	nop
    2a1c:	8d 74 26 00          	lea    0x0(%esi,%eiz,1),%esi

00002a20 <remote_audio_mixer_get_item_level>:
    2a20:	55                   	push   %ebp
    2a21:	89 e5                	mov    %esp,%ebp
    2a23:	83 ec 18             	sub    $0x18,%esp
    2a26:	8b 45 0c             	mov    0xc(%ebp),%eax
    2a29:	8b 40 08             	mov    0x8(%eax),%eax
    2a2c:	85 c0                	test   %eax,%eax
    2a2e:	74 30                	je     2a60 <remote_audio_mixer_get_item_level+0x40>
    2a30:	8b 55 14             	mov    0x14(%ebp),%edx
    2a33:	c7 45 f4 00 00 00 00 	movl   $0x0,-0xc(%ebp)
    2a3a:	8b 52 08             	mov    0x8(%edx),%edx
    2a3d:	51                   	push   %ecx
    2a3e:	8d 4d f4             	lea    -0xc(%ebp),%ecx
    2a41:	51                   	push   %ecx
    2a42:	52                   	push   %edx
    2a43:	8b 55 08             	mov    0x8(%ebp),%edx
    2a46:	52                   	push   %edx
    2a47:	ff d0                	call   *%eax
    2a49:	83 c4 0c             	add    $0xc,%esp
    2a4c:	8b 4d f4             	mov    -0xc(%ebp),%ecx
    2a4f:	51                   	push   %ecx
    2a50:	50                   	push   %eax
    2a51:	8b 45 10             	mov    0x10(%ebp),%eax
    2a54:	50                   	push   %eax
    2a55:	e8 66 a2 00 00       	call   ccc0 <async_answer_1@plt>
    2a5a:	83 c4 10             	add    $0x10,%esp
    2a5d:	c9                   	leave  
    2a5e:	c3                   	ret    
    2a5f:	90                   	nop
    2a60:	50                   	push   %eax
    2a61:	50                   	push   %eax
    2a62:	8b 45 10             	mov    0x10(%ebp),%eax
    2a65:	6a f5                	push   $0xfffffff5
    2a67:	50                   	push   %eax
    2a68:	e8 b3 9f 00 00       	call   ca20 <async_answer_0@plt>
    2a6d:	83 c4 10             	add    $0x10,%esp
    2a70:	c9                   	leave  
    2a71:	c3                   	ret    
    2a72:	8d b4 26 00 00 00 00 	lea    0x0(%esi,%eiz,1),%esi
    2a79:	8d bc 27 00 00 00 00 	lea    0x0(%edi,%eiz,1),%edi

00002a80 <remote_audio_mixer_get_item_info>:
    2a80:	55                   	push   %ebp
    2a81:	89 e5                	mov    %esp,%ebp
    2a83:	56                   	push   %esi
    2a84:	53                   	push   %ebx
    2a85:	83 ec 10             	sub    $0x10,%esp
    2a88:	8b 45 0c             	mov    0xc(%ebp),%eax
    2a8b:	8b 40 04             	mov    0x4(%eax),%eax
    2a8e:	85 c0                	test   %eax,%eax
    2a90:	0f 84 c2 00 00 00    	je     2b58 <remote_audio_mixer_get_item_info+0xd8>
    2a96:	8b 55 14             	mov    0x14(%ebp),%edx
    2a99:	8d 4d ec             	lea    -0x14(%ebp),%ecx
    2a9c:	c7 45 e8 00 00 00 00 	movl   $0x0,-0x18(%ebp)
    2aa3:	c7 45 ec 00 00 00 00 	movl   $0x0,-0x14(%ebp)
    2aaa:	8b 52 08             	mov    0x8(%edx),%edx
    2aad:	51                   	push   %ecx
    2aae:	8d 4d e8             	lea    -0x18(%ebp),%ecx
    2ab1:	51                   	push   %ecx
    2ab2:	8b 4d 08             	mov    0x8(%ebp),%ecx
    2ab5:	52                   	push   %edx
    2ab6:	51                   	push   %ecx
    2ab7:	ff d0                	call   *%eax
    2ab9:	83 c4 10             	add    $0x10,%esp
    2abc:	89 c6                	mov    %eax,%esi
    2abe:	8b 45 e8             	mov    -0x18(%ebp),%eax
    2ac1:	85 c0                	test   %eax,%eax
    2ac3:	74 5b                	je     2b20 <remote_audio_mixer_get_item_info+0xa0>
    2ac5:	83 ec 0c             	sub    $0xc,%esp
    2ac8:	50                   	push   %eax
    2ac9:	e8 d2 a1 00 00       	call   cca0 <str_size@plt>
    2ace:	8b 55 10             	mov    0x10(%ebp),%edx
    2ad1:	8d 58 01             	lea    0x1(%eax),%ebx
    2ad4:	8b 45 ec             	mov    -0x14(%ebp),%eax
    2ad7:	50                   	push   %eax
    2ad8:	53                   	push   %ebx
    2ad9:	56                   	push   %esi
    2ada:	52                   	push   %edx
    2adb:	e8 60 a0 00 00       	call   cb40 <async_answer_2@plt>
    2ae0:	83 c4 20             	add    $0x20,%esp
    2ae3:	85 f6                	test   %esi,%esi
    2ae5:	75 2f                	jne    2b16 <remote_audio_mixer_get_item_info+0x96>
    2ae7:	85 db                	test   %ebx,%ebx
    2ae9:	74 2b                	je     2b16 <remote_audio_mixer_get_item_info+0x96>
    2aeb:	50                   	push   %eax
    2aec:	50                   	push   %eax
    2aed:	8d 45 f0             	lea    -0x10(%ebp),%eax
    2af0:	50                   	push   %eax
    2af1:	8d 45 f4             	lea    -0xc(%ebp),%eax
    2af4:	50                   	push   %eax
    2af5:	e8 46 a1 00 00       	call   cc40 <async_data_read_receive@plt>
    2afa:	83 c4 10             	add    $0x10,%esp
    2afd:	84 c0                	test   %al,%al
    2aff:	74 6f                	je     2b70 <remote_audio_mixer_get_item_info+0xf0>
    2b01:	3b 5d f0             	cmp    -0x10(%ebp),%ebx
    2b04:	74 3a                	je     2b40 <remote_audio_mixer_get_item_info+0xc0>
    2b06:	50                   	push   %eax
    2b07:	50                   	push   %eax
    2b08:	8b 45 f4             	mov    -0xc(%ebp),%eax
    2b0b:	6a fd                	push   $0xfffffffd
    2b0d:	50                   	push   %eax
    2b0e:	e8 0d 9f 00 00       	call   ca20 <async_answer_0@plt>
    2b13:	83 c4 10             	add    $0x10,%esp
    2b16:	8d 65 f8             	lea    -0x8(%ebp),%esp
    2b19:	5b                   	pop    %ebx
    2b1a:	5e                   	pop    %esi
    2b1b:	5d                   	pop    %ebp
    2b1c:	c3                   	ret    
    2b1d:	8d 76 00             	lea    0x0(%esi),%esi
    2b20:	8b 45 ec             	mov    -0x14(%ebp),%eax
    2b23:	8b 55 10             	mov    0x10(%ebp),%edx
    2b26:	50                   	push   %eax
    2b27:	6a 00                	push   $0x0
    2b29:	56                   	push   %esi
    2b2a:	52                   	push   %edx
    2b2b:	e8 10 a0 00 00       	call   cb40 <async_answer_2@plt>
    2b30:	83 c4 10             	add    $0x10,%esp
    2b33:	8d 65 f8             	lea    -0x8(%ebp),%esp
    2b36:	5b                   	pop    %ebx
    2b37:	5e                   	pop    %esi
    2b38:	5d                   	pop    %ebp
    2b39:	c3                   	ret    
    2b3a:	8d b6 00 00 00 00    	lea    0x0(%esi),%esi
    2b40:	8b 75 f4             	mov    -0xc(%ebp),%esi
    2b43:	51                   	push   %ecx
    2b44:	53                   	push   %ebx
    2b45:	8b 5d e8             	mov    -0x18(%ebp),%ebx
    2b48:	53                   	push   %ebx
    2b49:	56                   	push   %esi
    2b4a:	e8 41 9e 00 00       	call   c990 <async_data_read_finalize@plt>
    2b4f:	83 c4 10             	add    $0x10,%esp
    2b52:	eb c2                	jmp    2b16 <remote_audio_mixer_get_item_info+0x96>
    2b54:	8d 74 26 00          	lea    0x0(%esi,%eiz,1),%esi
    2b58:	8b 75 10             	mov    0x10(%ebp),%esi
    2b5b:	53                   	push   %ebx
    2b5c:	53                   	push   %ebx
    2b5d:	6a f5                	push   $0xfffffff5
    2b5f:	56                   	push   %esi
    2b60:	e8 bb 9e 00 00       	call   ca20 <async_answer_0@plt>
    2b65:	83 c4 10             	add    $0x10,%esp
    2b68:	8d 65 f8             	lea    -0x8(%ebp),%esp
    2b6b:	5b                   	pop    %ebx
    2b6c:	5e                   	pop    %esi
    2b6d:	5d                   	pop    %ebp
    2b6e:	c3                   	ret    
    2b6f:	90                   	nop
    2b70:	50                   	push   %eax
    2b71:	50                   	push   %eax
    2b72:	8b 45 f4             	mov    -0xc(%ebp),%eax
    2b75:	6a f8                	push   $0xfffffff8
    2b77:	50                   	push   %eax
    2b78:	e8 a3 9e 00 00       	call   ca20 <async_answer_0@plt>
    2b7d:	83 c4 10             	add    $0x10,%esp
    2b80:	eb 94                	jmp    2b16 <remote_audio_mixer_get_item_info+0x96>
    2b82:	8d b4 26 00 00 00 00 	lea    0x0(%esi,%eiz,1),%esi
    2b89:	8d bc 27 00 00 00 00 	lea    0x0(%edi,%eiz,1),%edi

00002b90 <remote_audio_mixer_get_info>:
    2b90:	55                   	push   %ebp
    2b91:	89 e5                	mov    %esp,%ebp
    2b93:	56                   	push   %esi
    2b94:	53                   	push   %ebx
    2b95:	83 ec 10             	sub    $0x10,%esp
    2b98:	8b 45 0c             	mov    0xc(%ebp),%eax
    2b9b:	8b 00                	mov    (%eax),%eax
    2b9d:	85 c0                	test   %eax,%eax
    2b9f:	0f 84 bb 00 00 00    	je     2c60 <remote_audio_mixer_get_info+0xd0>
    2ba5:	8d 55 ec             	lea    -0x14(%ebp),%edx
    2ba8:	8b 5d 08             	mov    0x8(%ebp),%ebx
    2bab:	c7 45 e8 00 00 00 00 	movl   $0x0,-0x18(%ebp)
    2bb2:	c7 45 ec 00 00 00 00 	movl   $0x0,-0x14(%ebp)
    2bb9:	51                   	push   %ecx
    2bba:	52                   	push   %edx
    2bbb:	8d 55 e8             	lea    -0x18(%ebp),%edx
    2bbe:	52                   	push   %edx
    2bbf:	53                   	push   %ebx
    2bc0:	ff d0                	call   *%eax
    2bc2:	83 c4 10             	add    $0x10,%esp
    2bc5:	89 c6                	mov    %eax,%esi
    2bc7:	8b 45 e8             	mov    -0x18(%ebp),%eax
    2bca:	85 c0                	test   %eax,%eax
    2bcc:	74 5a                	je     2c28 <remote_audio_mixer_get_info+0x98>
    2bce:	83 ec 0c             	sub    $0xc,%esp
    2bd1:	50                   	push   %eax
    2bd2:	e8 c9 a0 00 00       	call   cca0 <str_size@plt>
    2bd7:	8b 55 10             	mov    0x10(%ebp),%edx
    2bda:	8d 58 01             	lea    0x1(%eax),%ebx
    2bdd:	8b 45 ec             	mov    -0x14(%ebp),%eax
    2be0:	50                   	push   %eax
    2be1:	53                   	push   %ebx
    2be2:	56                   	push   %esi
    2be3:	52                   	push   %edx
    2be4:	e8 57 9f 00 00       	call   cb40 <async_answer_2@plt>
    2be9:	83 c4 20             	add    $0x20,%esp
    2bec:	85 f6                	test   %esi,%esi
    2bee:	75 2f                	jne    2c1f <remote_audio_mixer_get_info+0x8f>
    2bf0:	85 db                	test   %ebx,%ebx
    2bf2:	74 2b                	je     2c1f <remote_audio_mixer_get_info+0x8f>
    2bf4:	50                   	push   %eax
    2bf5:	50                   	push   %eax
    2bf6:	8d 45 f0             	lea    -0x10(%ebp),%eax
    2bf9:	50                   	push   %eax
    2bfa:	8d 45 f4             	lea    -0xc(%ebp),%eax
    2bfd:	50                   	push   %eax
    2bfe:	e8 3d a0 00 00       	call   cc40 <async_data_read_receive@plt>
    2c03:	83 c4 10             	add    $0x10,%esp
    2c06:	84 c0                	test   %al,%al
    2c08:	74 6e                	je     2c78 <remote_audio_mixer_get_info+0xe8>
    2c0a:	3b 5d f0             	cmp    -0x10(%ebp),%ebx
    2c0d:	74 39                	je     2c48 <remote_audio_mixer_get_info+0xb8>
    2c0f:	50                   	push   %eax
    2c10:	50                   	push   %eax
    2c11:	8b 45 f4             	mov    -0xc(%ebp),%eax
    2c14:	6a fd                	push   $0xfffffffd
    2c16:	50                   	push   %eax
    2c17:	e8 04 9e 00 00       	call   ca20 <async_answer_0@plt>
    2c1c:	83 c4 10             	add    $0x10,%esp
    2c1f:	8d 65 f8             	lea    -0x8(%ebp),%esp
    2c22:	5b                   	pop    %ebx
    2c23:	5e                   	pop    %esi
    2c24:	5d                   	pop    %ebp
    2c25:	c3                   	ret    
    2c26:	66 90                	xchg   %ax,%ax
    2c28:	8b 45 ec             	mov    -0x14(%ebp),%eax
    2c2b:	8b 55 10             	mov    0x10(%ebp),%edx
    2c2e:	50                   	push   %eax
    2c2f:	6a 00                	push   $0x0
    2c31:	56                   	push   %esi
    2c32:	52                   	push   %edx
    2c33:	e8 08 9f 00 00       	call   cb40 <async_answer_2@plt>
    2c38:	83 c4 10             	add    $0x10,%esp
    2c3b:	8d 65 f8             	lea    -0x8(%ebp),%esp
    2c3e:	5b                   	pop    %ebx
    2c3f:	5e                   	pop    %esi
    2c40:	5d                   	pop    %ebp
    2c41:	c3                   	ret    
    2c42:	8d b6 00 00 00 00    	lea    0x0(%esi),%esi
    2c48:	8b 75 f4             	mov    -0xc(%ebp),%esi
    2c4b:	51                   	push   %ecx
    2c4c:	53                   	push   %ebx
    2c4d:	8b 5d e8             	mov    -0x18(%ebp),%ebx
    2c50:	53                   	push   %ebx
    2c51:	56                   	push   %esi
    2c52:	e8 39 9d 00 00       	call   c990 <async_data_read_finalize@plt>
    2c57:	83 c4 10             	add    $0x10,%esp
    2c5a:	eb c3                	jmp    2c1f <remote_audio_mixer_get_info+0x8f>
    2c5c:	8d 74 26 00          	lea    0x0(%esi,%eiz,1),%esi
    2c60:	8b 45 10             	mov    0x10(%ebp),%eax
    2c63:	56                   	push   %esi
    2c64:	56                   	push   %esi
    2c65:	6a f5                	push   $0xfffffff5
    2c67:	50                   	push   %eax
    2c68:	e8 b3 9d 00 00       	call   ca20 <async_answer_0@plt>
    2c6d:	83 c4 10             	add    $0x10,%esp
    2c70:	8d 65 f8             	lea    -0x8(%ebp),%esp
    2c73:	5b                   	pop    %ebx
    2c74:	5e                   	pop    %esi
    2c75:	5d                   	pop    %ebp
    2c76:	c3                   	ret    
    2c77:	90                   	nop
    2c78:	50                   	push   %eax
    2c79:	50                   	push   %eax
    2c7a:	8b 45 f4             	mov    -0xc(%ebp),%eax
    2c7d:	6a f8                	push   $0xfffffff8
    2c7f:	50                   	push   %eax
    2c80:	e8 9b 9d 00 00       	call   ca20 <async_answer_0@plt>
    2c85:	83 c4 10             	add    $0x10,%esp
    2c88:	eb 95                	jmp    2c1f <remote_audio_mixer_get_info+0x8f>
    2c8a:	8d b6 00 00 00 00    	lea    0x0(%esi),%esi

00002c90 <audio_mixer_get_info>:
    2c90:	55                   	push   %ebp
    2c91:	89 e5                	mov    %esp,%ebp
    2c93:	57                   	push   %edi
    2c94:	56                   	push   %esi
    2c95:	53                   	push   %ebx
    2c96:	83 ec 2c             	sub    $0x2c,%esp
    2c99:	8b 75 08             	mov    0x8(%ebp),%esi
    2c9c:	85 f6                	test   %esi,%esi
    2c9e:	0f 84 bc 00 00 00    	je     2d60 <audio_mixer_get_info+0xd0>
    2ca4:	50                   	push   %eax
    2ca5:	8d 45 e4             	lea    -0x1c(%ebp),%eax
    2ca8:	6a 00                	push   $0x0
    2caa:	6a 00                	push   $0x0
    2cac:	6a 00                	push   $0x0
    2cae:	50                   	push   %eax
    2caf:	8d 45 e0             	lea    -0x20(%ebp),%eax
    2cb2:	50                   	push   %eax
    2cb3:	6a 00                	push   $0x0
    2cb5:	6a 00                	push   $0x0
    2cb7:	6a 00                	push   $0x0
    2cb9:	6a 00                	push   $0x0
    2cbb:	68 03 04 00 00       	push   $0x403
    2cc0:	56                   	push   %esi
    2cc1:	e8 4a 9d 00 00       	call   ca10 <async_req_fast@plt>
    2cc6:	83 c4 30             	add    $0x30,%esp
    2cc9:	89 c3                	mov    %eax,%ebx
    2ccb:	85 c0                	test   %eax,%eax
    2ccd:	8b 45 0c             	mov    0xc(%ebp),%eax
    2cd0:	0f 94 c2             	sete   %dl
    2cd3:	85 c0                	test   %eax,%eax
    2cd5:	74 04                	je     2cdb <audio_mixer_get_info+0x4b>
    2cd7:	84 d2                	test   %dl,%dl
    2cd9:	75 1d                	jne    2cf8 <audio_mixer_get_info+0x68>
    2cdb:	8b 45 10             	mov    0x10(%ebp),%eax
    2cde:	85 c0                	test   %eax,%eax
    2ce0:	74 57                	je     2d39 <audio_mixer_get_info+0xa9>
    2ce2:	84 d2                	test   %dl,%dl
    2ce4:	74 53                	je     2d39 <audio_mixer_get_info+0xa9>
    2ce6:	8b 4d 10             	mov    0x10(%ebp),%ecx
    2ce9:	8b 45 e4             	mov    -0x1c(%ebp),%eax
    2cec:	89 01                	mov    %eax,(%ecx)
    2cee:	89 d8                	mov    %ebx,%eax
    2cf0:	8d 65 f4             	lea    -0xc(%ebp),%esp
    2cf3:	5b                   	pop    %ebx
    2cf4:	5e                   	pop    %esi
    2cf5:	5f                   	pop    %edi
    2cf6:	5d                   	pop    %ebp
    2cf7:	c3                   	ret    
    2cf8:	8b 45 e0             	mov    -0x20(%ebp),%eax
    2cfb:	88 55 d4             	mov    %dl,-0x2c(%ebp)
    2cfe:	57                   	push   %edi
    2cff:	57                   	push   %edi
    2d00:	50                   	push   %eax
    2d01:	6a 01                	push   $0x1
    2d03:	e8 b8 9d 00 00       	call   cac0 <calloc@plt>
    2d08:	83 c4 10             	add    $0x10,%esp
    2d0b:	89 c7                	mov    %eax,%edi
    2d0d:	85 c0                	test   %eax,%eax
    2d0f:	8a 55 d4             	mov    -0x2c(%ebp),%dl
    2d12:	74 53                	je     2d67 <audio_mixer_get_info+0xd7>
    2d14:	8b 4d e0             	mov    -0x20(%ebp),%ecx
    2d17:	88 55 d4             	mov    %dl,-0x2c(%ebp)
    2d1a:	52                   	push   %edx
    2d1b:	51                   	push   %ecx
    2d1c:	50                   	push   %eax
    2d1d:	56                   	push   %esi
    2d1e:	e8 2d 9f 00 00       	call   cc50 <async_data_read_start@plt>
    2d23:	83 c4 10             	add    $0x10,%esp
    2d26:	8a 55 d4             	mov    -0x2c(%ebp),%dl
    2d29:	85 c0                	test   %eax,%eax
    2d2b:	75 1b                	jne    2d48 <audio_mixer_get_info+0xb8>
    2d2d:	8b 45 0c             	mov    0xc(%ebp),%eax
    2d30:	89 38                	mov    %edi,(%eax)
    2d32:	8b 45 10             	mov    0x10(%ebp),%eax
    2d35:	85 c0                	test   %eax,%eax
    2d37:	75 a9                	jne    2ce2 <audio_mixer_get_info+0x52>
    2d39:	8d 65 f4             	lea    -0xc(%ebp),%esp
    2d3c:	89 d8                	mov    %ebx,%eax
    2d3e:	5b                   	pop    %ebx
    2d3f:	5e                   	pop    %esi
    2d40:	5f                   	pop    %edi
    2d41:	5d                   	pop    %ebp
    2d42:	c3                   	ret    
    2d43:	90                   	nop
    2d44:	8d 74 26 00          	lea    0x0(%esi,%eiz,1),%esi
    2d48:	83 ec 0c             	sub    $0xc,%esp
    2d4b:	89 45 d4             	mov    %eax,-0x2c(%ebp)
    2d4e:	57                   	push   %edi
    2d4f:	e8 7c a0 00 00       	call   cdd0 <free@plt>
    2d54:	83 c4 10             	add    $0x10,%esp
    2d57:	8b 45 d4             	mov    -0x2c(%ebp),%eax
    2d5a:	eb 94                	jmp    2cf0 <audio_mixer_get_info+0x60>
    2d5c:	8d 74 26 00          	lea    0x0(%esi,%eiz,1),%esi
    2d60:	b8 f2 ff ff ff       	mov    $0xfffffff2,%eax
    2d65:	eb 89                	jmp    2cf0 <audio_mixer_get_info+0x60>
    2d67:	53                   	push   %ebx
    2d68:	6a 00                	push   $0x0
    2d6a:	6a ff                	push   $0xffffffff
    2d6c:	56                   	push   %esi
    2d6d:	e8 de 9e 00 00       	call   cc50 <async_data_read_start@plt>
    2d72:	83 c4 10             	add    $0x10,%esp
    2d75:	b8 fe ff ff ff       	mov    $0xfffffffe,%eax
    2d7a:	e9 71 ff ff ff       	jmp    2cf0 <audio_mixer_get_info+0x60>
    2d7f:	90                   	nop

00002d80 <audio_mixer_get_item_info>:
    2d80:	55                   	push   %ebp
    2d81:	89 e5                	mov    %esp,%ebp
    2d83:	57                   	push   %edi
    2d84:	56                   	push   %esi
    2d85:	53                   	push   %ebx
    2d86:	83 ec 2c             	sub    $0x2c,%esp
    2d89:	8b 75 08             	mov    0x8(%ebp),%esi
    2d8c:	85 f6                	test   %esi,%esi
    2d8e:	0f 84 c4 00 00 00    	je     2e58 <audio_mixer_get_item_info+0xd8>
    2d94:	50                   	push   %eax
    2d95:	8d 45 e4             	lea    -0x1c(%ebp),%eax
    2d98:	6a 00                	push   $0x0
    2d9a:	6a 00                	push   $0x0
    2d9c:	6a 00                	push   $0x0
    2d9e:	50                   	push   %eax
    2d9f:	8d 45 e0             	lea    -0x20(%ebp),%eax
    2da2:	50                   	push   %eax
    2da3:	8b 45 0c             	mov    0xc(%ebp),%eax
    2da6:	6a 00                	push   $0x0
    2da8:	6a 00                	push   $0x0
    2daa:	50                   	push   %eax
    2dab:	6a 01                	push   $0x1
    2dad:	68 03 04 00 00       	push   $0x403
    2db2:	56                   	push   %esi
    2db3:	e8 58 9c 00 00       	call   ca10 <async_req_fast@plt>
    2db8:	83 c4 30             	add    $0x30,%esp
    2dbb:	89 c3                	mov    %eax,%ebx
    2dbd:	85 c0                	test   %eax,%eax
    2dbf:	8b 45 10             	mov    0x10(%ebp),%eax
    2dc2:	0f 94 c2             	sete   %dl
    2dc5:	85 c0                	test   %eax,%eax
    2dc7:	74 04                	je     2dcd <audio_mixer_get_item_info+0x4d>
    2dc9:	84 d2                	test   %dl,%dl
    2dcb:	75 23                	jne    2df0 <audio_mixer_get_item_info+0x70>
    2dcd:	8b 45 14             	mov    0x14(%ebp),%eax
    2dd0:	85 c0                	test   %eax,%eax
    2dd2:	74 5d                	je     2e31 <audio_mixer_get_item_info+0xb1>
    2dd4:	84 d2                	test   %dl,%dl
    2dd6:	74 59                	je     2e31 <audio_mixer_get_item_info+0xb1>
    2dd8:	8b 4d 14             	mov    0x14(%ebp),%ecx
    2ddb:	8b 45 e4             	mov    -0x1c(%ebp),%eax
    2dde:	89 01                	mov    %eax,(%ecx)
    2de0:	89 d8                	mov    %ebx,%eax
    2de2:	8d 65 f4             	lea    -0xc(%ebp),%esp
    2de5:	5b                   	pop    %ebx
    2de6:	5e                   	pop    %esi
    2de7:	5f                   	pop    %edi
    2de8:	5d                   	pop    %ebp
    2de9:	c3                   	ret    
    2dea:	8d b6 00 00 00 00    	lea    0x0(%esi),%esi
    2df0:	8b 45 e0             	mov    -0x20(%ebp),%eax
    2df3:	88 55 d4             	mov    %dl,-0x2c(%ebp)
    2df6:	57                   	push   %edi
    2df7:	57                   	push   %edi
    2df8:	50                   	push   %eax
    2df9:	6a 01                	push   $0x1
    2dfb:	e8 c0 9c 00 00       	call   cac0 <calloc@plt>
    2e00:	83 c4 10             	add    $0x10,%esp
    2e03:	89 c7                	mov    %eax,%edi
    2e05:	85 c0                	test   %eax,%eax
    2e07:	8a 55 d4             	mov    -0x2c(%ebp),%dl
    2e0a:	74 53                	je     2e5f <audio_mixer_get_item_info+0xdf>
    2e0c:	8b 4d e0             	mov    -0x20(%ebp),%ecx
    2e0f:	88 55 d4             	mov    %dl,-0x2c(%ebp)
    2e12:	52                   	push   %edx
    2e13:	51                   	push   %ecx
    2e14:	50                   	push   %eax
    2e15:	56                   	push   %esi
    2e16:	e8 35 9e 00 00       	call   cc50 <async_data_read_start@plt>
    2e1b:	83 c4 10             	add    $0x10,%esp
    2e1e:	8a 55 d4             	mov    -0x2c(%ebp),%dl
    2e21:	85 c0                	test   %eax,%eax
    2e23:	75 1b                	jne    2e40 <audio_mixer_get_item_info+0xc0>
    2e25:	8b 45 10             	mov    0x10(%ebp),%eax
    2e28:	89 38                	mov    %edi,(%eax)
    2e2a:	8b 45 14             	mov    0x14(%ebp),%eax
    2e2d:	85 c0                	test   %eax,%eax
    2e2f:	75 a3                	jne    2dd4 <audio_mixer_get_item_info+0x54>
    2e31:	8d 65 f4             	lea    -0xc(%ebp),%esp
    2e34:	89 d8                	mov    %ebx,%eax
    2e36:	5b                   	pop    %ebx
    2e37:	5e                   	pop    %esi
    2e38:	5f                   	pop    %edi
    2e39:	5d                   	pop    %ebp
    2e3a:	c3                   	ret    
    2e3b:	90                   	nop
    2e3c:	8d 74 26 00          	lea    0x0(%esi,%eiz,1),%esi
    2e40:	83 ec 0c             	sub    $0xc,%esp
    2e43:	89 45 d4             	mov    %eax,-0x2c(%ebp)
    2e46:	57                   	push   %edi
    2e47:	e8 84 9f 00 00       	call   cdd0 <free@plt>
    2e4c:	83 c4 10             	add    $0x10,%esp
    2e4f:	8b 45 d4             	mov    -0x2c(%ebp),%eax
    2e52:	eb 8e                	jmp    2de2 <audio_mixer_get_item_info+0x62>
    2e54:	8d 74 26 00          	lea    0x0(%esi,%eiz,1),%esi
    2e58:	b8 f2 ff ff ff       	mov    $0xfffffff2,%eax
    2e5d:	eb 83                	jmp    2de2 <audio_mixer_get_item_info+0x62>
    2e5f:	53                   	push   %ebx
    2e60:	6a 00                	push   $0x0
    2e62:	6a ff                	push   $0xffffffff
    2e64:	56                   	push   %esi
    2e65:	e8 e6 9d 00 00       	call   cc50 <async_data_read_start@plt>
    2e6a:	83 c4 10             	add    $0x10,%esp
    2e6d:	b8 fe ff ff ff       	mov    $0xfffffffe,%eax
    2e72:	e9 6b ff ff ff       	jmp    2de2 <audio_mixer_get_item_info+0x62>
    2e77:	89 f6                	mov    %esi,%esi
    2e79:	8d bc 27 00 00 00 00 	lea    0x0(%edi,%eiz,1),%edi

00002e80 <audio_mixer_set_item_level>:
    2e80:	55                   	push   %ebp
    2e81:	89 e5                	mov    %esp,%ebp
    2e83:	83 ec 08             	sub    $0x8,%esp
    2e86:	8b 45 08             	mov    0x8(%ebp),%eax
    2e89:	85 c0                	test   %eax,%eax
    2e8b:	74 2b                	je     2eb8 <audio_mixer_set_item_level+0x38>
    2e8d:	8b 4d 10             	mov    0x10(%ebp),%ecx
    2e90:	52                   	push   %edx
    2e91:	8b 55 0c             	mov    0xc(%ebp),%edx
    2e94:	6a 00                	push   $0x0
    2e96:	6a 00                	push   $0x0
    2e98:	6a 00                	push   $0x0
    2e9a:	6a 00                	push   $0x0
    2e9c:	6a 00                	push   $0x0
    2e9e:	6a 00                	push   $0x0
    2ea0:	51                   	push   %ecx
    2ea1:	52                   	push   %edx
    2ea2:	6a 02                	push   $0x2
    2ea4:	68 03 04 00 00       	push   $0x403
    2ea9:	50                   	push   %eax
    2eaa:	e8 61 9b 00 00       	call   ca10 <async_req_fast@plt>
    2eaf:	83 c4 30             	add    $0x30,%esp
    2eb2:	c9                   	leave  
    2eb3:	c3                   	ret    
    2eb4:	8d 74 26 00          	lea    0x0(%esi,%eiz,1),%esi
    2eb8:	b8 f2 ff ff ff       	mov    $0xfffffff2,%eax
    2ebd:	c9                   	leave  
    2ebe:	c3                   	ret    
    2ebf:	90                   	nop

00002ec0 <audio_mixer_get_item_level>:
    2ec0:	55                   	push   %ebp
    2ec1:	89 e5                	mov    %esp,%ebp
    2ec3:	53                   	push   %ebx
    2ec4:	83 ec 14             	sub    $0x14,%esp
    2ec7:	8b 45 08             	mov    0x8(%ebp),%eax
    2eca:	8b 5d 10             	mov    0x10(%ebp),%ebx
    2ecd:	85 c0                	test   %eax,%eax
    2ecf:	74 37                	je     2f08 <audio_mixer_get_item_level+0x48>
    2ed1:	8b 4d 0c             	mov    0xc(%ebp),%ecx
    2ed4:	52                   	push   %edx
    2ed5:	8d 55 f4             	lea    -0xc(%ebp),%edx
    2ed8:	6a 00                	push   $0x0
    2eda:	6a 00                	push   $0x0
    2edc:	6a 00                	push   $0x0
    2ede:	6a 00                	push   $0x0
    2ee0:	52                   	push   %edx
    2ee1:	6a 00                	push   $0x0
    2ee3:	6a 00                	push   $0x0
    2ee5:	51                   	push   %ecx
    2ee6:	6a 03                	push   $0x3
    2ee8:	68 03 04 00 00       	push   $0x403
    2eed:	50                   	push   %eax
    2eee:	e8 1d 9b 00 00       	call   ca10 <async_req_fast@plt>
    2ef3:	83 c4 30             	add    $0x30,%esp
    2ef6:	85 c0                	test   %eax,%eax
    2ef8:	75 09                	jne    2f03 <audio_mixer_get_item_level+0x43>
    2efa:	85 db                	test   %ebx,%ebx
    2efc:	74 05                	je     2f03 <audio_mixer_get_item_level+0x43>
    2efe:	8b 55 f4             	mov    -0xc(%ebp),%edx
    2f01:	89 13                	mov    %edx,(%ebx)
    2f03:	8b 5d fc             	mov    -0x4(%ebp),%ebx
    2f06:	c9                   	leave  
    2f07:	c3                   	ret    
    2f08:	b8 f2 ff ff ff       	mov    $0xfffffff2,%eax
    2f0d:	eb f4                	jmp    2f03 <audio_mixer_get_item_level+0x43>
    2f0f:	90                   	nop

00002f10 <remote_audio_pcm_stop_capture>:
    2f10:	55                   	push   %ebp
    2f11:	89 e5                	mov    %esp,%ebp
    2f13:	53                   	push   %ebx
    2f14:	50                   	push   %eax
    2f15:	8b 45 14             	mov    0x14(%ebp),%eax
    2f18:	8b 4d 08             	mov    0x8(%ebp),%ecx
    2f1b:	8b 5d 10             	mov    0x10(%ebp),%ebx
    2f1e:	8b 50 08             	mov    0x8(%eax),%edx
    2f21:	85 d2                	test   %edx,%edx
    2f23:	8b 55 0c             	mov    0xc(%ebp),%edx
    2f26:	0f 95 c0             	setne  %al
    2f29:	8b 52 2c             	mov    0x2c(%edx),%edx
    2f2c:	85 d2                	test   %edx,%edx
    2f2e:	74 20                	je     2f50 <remote_audio_pcm_stop_capture+0x40>
    2f30:	83 ec 08             	sub    $0x8,%esp
    2f33:	25 ff 00 00 00       	and    $0xff,%eax
    2f38:	50                   	push   %eax
    2f39:	51                   	push   %ecx
    2f3a:	ff d2                	call   *%edx
    2f3c:	89 5d 08             	mov    %ebx,0x8(%ebp)
    2f3f:	83 c4 10             	add    $0x10,%esp
    2f42:	8b 5d fc             	mov    -0x4(%ebp),%ebx
    2f45:	89 45 0c             	mov    %eax,0xc(%ebp)
    2f48:	c9                   	leave  
    2f49:	e9 d2 9a 00 00       	jmp    ca20 <async_answer_0@plt>
    2f4e:	66 90                	xchg   %ax,%ax
    2f50:	89 5d 08             	mov    %ebx,0x8(%ebp)
    2f53:	b8 f5 ff ff ff       	mov    $0xfffffff5,%eax
    2f58:	8b 5d fc             	mov    -0x4(%ebp),%ebx
    2f5b:	89 45 0c             	mov    %eax,0xc(%ebp)
    2f5e:	c9                   	leave  
    2f5f:	e9 bc 9a 00 00       	jmp    ca20 <async_answer_0@plt>
    2f64:	8d b6 00 00 00 00    	lea    0x0(%esi),%esi
    2f6a:	8d bf 00 00 00 00    	lea    0x0(%edi),%edi

00002f70 <remote_audio_pcm_start_capture>:
    2f70:	55                   	push   %ebp
    2f71:	89 e5                	mov    %esp,%ebp
    2f73:	57                   	push   %edi
    2f74:	56                   	push   %esi
    2f75:	53                   	push   %ebx
    2f76:	83 ec 0c             	sub    $0xc,%esp
    2f79:	8b 55 14             	mov    0x14(%ebp),%edx
    2f7c:	8b 7d 0c             	mov    0xc(%ebp),%edi
    2f7f:	8b 4d 08             	mov    0x8(%ebp),%ecx
    2f82:	8b 5d 10             	mov    0x10(%ebp),%ebx
    2f85:	8b 42 10             	mov    0x10(%edx),%eax
    2f88:	8b 7f 28             	mov    0x28(%edi),%edi
    2f8b:	89 c6                	mov    %eax,%esi
    2f8d:	25 ff ff 00 00       	and    $0xffff,%eax
    2f92:	c1 ee 10             	shr    $0x10,%esi
    2f95:	85 ff                	test   %edi,%edi
    2f97:	74 27                	je     2fc0 <remote_audio_pcm_start_capture+0x50>
    2f99:	83 ec 0c             	sub    $0xc,%esp
    2f9c:	50                   	push   %eax
    2f9d:	8b 42 0c             	mov    0xc(%edx),%eax
    2fa0:	50                   	push   %eax
    2fa1:	56                   	push   %esi
    2fa2:	8b 52 08             	mov    0x8(%edx),%edx
    2fa5:	52                   	push   %edx
    2fa6:	51                   	push   %ecx
    2fa7:	ff d7                	call   *%edi
    2fa9:	83 c4 20             	add    $0x20,%esp
    2fac:	89 5d 08             	mov    %ebx,0x8(%ebp)
    2faf:	89 45 0c             	mov    %eax,0xc(%ebp)
    2fb2:	8d 65 f4             	lea    -0xc(%ebp),%esp
    2fb5:	5b                   	pop    %ebx
    2fb6:	5e                   	pop    %esi
    2fb7:	5f                   	pop    %edi
    2fb8:	5d                   	pop    %ebp
    2fb9:	e9 62 9a 00 00       	jmp    ca20 <async_answer_0@plt>
    2fbe:	66 90                	xchg   %ax,%ax
    2fc0:	b8 f5 ff ff ff       	mov    $0xfffffff5,%eax
    2fc5:	eb e5                	jmp    2fac <remote_audio_pcm_start_capture+0x3c>
    2fc7:	89 f6                	mov    %esi,%esi
    2fc9:	8d bc 27 00 00 00 00 	lea    0x0(%edi,%eiz,1),%edi

00002fd0 <remote_audio_pcm_stop_playback>:
    2fd0:	55                   	push   %ebp
    2fd1:	89 e5                	mov    %esp,%ebp
    2fd3:	53                   	push   %ebx
    2fd4:	50                   	push   %eax
    2fd5:	8b 45 14             	mov    0x14(%ebp),%eax
    2fd8:	8b 4d 08             	mov    0x8(%ebp),%ecx
    2fdb:	8b 5d 10             	mov    0x10(%ebp),%ebx
    2fde:	8b 50 08             	mov    0x8(%eax),%edx
    2fe1:	85 d2                	test   %edx,%edx
    2fe3:	8b 55 0c             	mov    0xc(%ebp),%edx
    2fe6:	0f 95 c0             	setne  %al
    2fe9:	8b 52 24             	mov    0x24(%edx),%edx
    2fec:	85 d2                	test   %edx,%edx
    2fee:	74 20                	je     3010 <remote_audio_pcm_stop_playback+0x40>
    2ff0:	83 ec 08             	sub    $0x8,%esp
    2ff3:	25 ff 00 00 00       	and    $0xff,%eax
    2ff8:	50                   	push   %eax
    2ff9:	51                   	push   %ecx
    2ffa:	ff d2                	call   *%edx
    2ffc:	89 5d 08             	mov    %ebx,0x8(%ebp)
    2fff:	83 c4 10             	add    $0x10,%esp
    3002:	8b 5d fc             	mov    -0x4(%ebp),%ebx
    3005:	89 45 0c             	mov    %eax,0xc(%ebp)
    3008:	c9                   	leave  
    3009:	e9 12 9a 00 00       	jmp    ca20 <async_answer_0@plt>
    300e:	66 90                	xchg   %ax,%ax
    3010:	89 5d 08             	mov    %ebx,0x8(%ebp)
    3013:	b8 f5 ff ff ff       	mov    $0xfffffff5,%eax
    3018:	8b 5d fc             	mov    -0x4(%ebp),%ebx
    301b:	89 45 0c             	mov    %eax,0xc(%ebp)
    301e:	c9                   	leave  
    301f:	e9 fc 99 00 00       	jmp    ca20 <async_answer_0@plt>
    3024:	8d b6 00 00 00 00    	lea    0x0(%esi),%esi
    302a:	8d bf 00 00 00 00    	lea    0x0(%edi),%edi

00003030 <remote_audio_pcm_start_playback>:
    3030:	55                   	push   %ebp
    3031:	89 e5                	mov    %esp,%ebp
    3033:	57                   	push   %edi
    3034:	56                   	push   %esi
    3035:	53                   	push   %ebx
    3036:	83 ec 0c             	sub    $0xc,%esp
    3039:	8b 4d 14             	mov    0x14(%ebp),%ecx
    303c:	8b 7d 0c             	mov    0xc(%ebp),%edi
    303f:	8b 75 08             	mov    0x8(%ebp),%esi
    3042:	8b 5d 10             	mov    0x10(%ebp),%ebx
    3045:	8b 41 10             	mov    0x10(%ecx),%eax
    3048:	8b 7f 20             	mov    0x20(%edi),%edi
    304b:	89 c2                	mov    %eax,%edx
    304d:	25 ff ff 00 00       	and    $0xffff,%eax
    3052:	c1 ea 10             	shr    $0x10,%edx
    3055:	81 e2 ff 00 00 00    	and    $0xff,%edx
    305b:	85 ff                	test   %edi,%edi
    305d:	74 29                	je     3088 <remote_audio_pcm_start_playback+0x58>
    305f:	83 ec 0c             	sub    $0xc,%esp
    3062:	50                   	push   %eax
    3063:	8b 41 0c             	mov    0xc(%ecx),%eax
    3066:	50                   	push   %eax
    3067:	52                   	push   %edx
    3068:	8b 51 08             	mov    0x8(%ecx),%edx
    306b:	52                   	push   %edx
    306c:	56                   	push   %esi
    306d:	ff d7                	call   *%edi
    306f:	83 c4 20             	add    $0x20,%esp
    3072:	89 5d 08             	mov    %ebx,0x8(%ebp)
    3075:	89 45 0c             	mov    %eax,0xc(%ebp)
    3078:	8d 65 f4             	lea    -0xc(%ebp),%esp
    307b:	5b                   	pop    %ebx
    307c:	5e                   	pop    %esi
    307d:	5f                   	pop    %edi
    307e:	5d                   	pop    %ebp
    307f:	e9 9c 99 00 00       	jmp    ca20 <async_answer_0@plt>
    3084:	8d 74 26 00          	lea    0x0(%esi,%eiz,1),%esi
    3088:	b8 f5 ff ff ff       	mov    $0xfffffff5,%eax
    308d:	eb e3                	jmp    3072 <remote_audio_pcm_start_playback+0x42>
    308f:	90                   	nop

00003090 <remote_audio_pcm_release_buffer>:
    3090:	55                   	push   %ebp
    3091:	89 e5                	mov    %esp,%ebp
    3093:	53                   	push   %ebx
    3094:	50                   	push   %eax
    3095:	8b 45 0c             	mov    0xc(%ebp),%eax
    3098:	8b 55 08             	mov    0x8(%ebp),%edx
    309b:	8b 5d 10             	mov    0x10(%ebp),%ebx
    309e:	8b 40 14             	mov    0x14(%eax),%eax
    30a1:	85 c0                	test   %eax,%eax
    30a3:	74 1b                	je     30c0 <remote_audio_pcm_release_buffer+0x30>
    30a5:	83 ec 0c             	sub    $0xc,%esp
    30a8:	52                   	push   %edx
    30a9:	ff d0                	call   *%eax
    30ab:	89 5d 08             	mov    %ebx,0x8(%ebp)
    30ae:	83 c4 10             	add    $0x10,%esp
    30b1:	8b 5d fc             	mov    -0x4(%ebp),%ebx
    30b4:	89 45 0c             	mov    %eax,0xc(%ebp)
    30b7:	c9                   	leave  
    30b8:	e9 63 99 00 00       	jmp    ca20 <async_answer_0@plt>
    30bd:	8d 76 00             	lea    0x0(%esi),%esi
    30c0:	89 5d 08             	mov    %ebx,0x8(%ebp)
    30c3:	b8 f5 ff ff ff       	mov    $0xfffffff5,%eax
    30c8:	8b 5d fc             	mov    -0x4(%ebp),%ebx
    30cb:	89 45 0c             	mov    %eax,0xc(%ebp)
    30ce:	c9                   	leave  
    30cf:	e9 4c 99 00 00       	jmp    ca20 <async_answer_0@plt>
    30d4:	8d b6 00 00 00 00    	lea    0x0(%esi),%esi
    30da:	8d bf 00 00 00 00    	lea    0x0(%edi),%edi

000030e0 <remote_audio_pcm_events_unregister>:
    30e0:	55                   	push   %ebp
    30e1:	89 e5                	mov    %esp,%ebp
    30e3:	57                   	push   %edi
    30e4:	56                   	push   %esi
    30e5:	53                   	push   %ebx
    30e6:	83 ec 0c             	sub    $0xc,%esp
    30e9:	8b 5d 0c             	mov    0xc(%ebp),%ebx
    30ec:	8b 75 08             	mov    0x8(%ebp),%esi
    30ef:	8b 7d 10             	mov    0x10(%ebp),%edi
    30f2:	8b 43 1c             	mov    0x1c(%ebx),%eax
    30f5:	85 c0                	test   %eax,%eax
    30f7:	74 3f                	je     3138 <remote_audio_pcm_events_unregister+0x58>
    30f9:	8b 4b 18             	mov    0x18(%ebx),%ecx
    30fc:	85 c9                	test   %ecx,%ecx
    30fe:	74 38                	je     3138 <remote_audio_pcm_events_unregister+0x58>
    3100:	83 ec 0c             	sub    $0xc,%esp
    3103:	56                   	push   %esi
    3104:	ff d0                	call   *%eax
    3106:	83 c4 10             	add    $0x10,%esp
    3109:	85 c0                	test   %eax,%eax
    310b:	74 14                	je     3121 <remote_audio_pcm_events_unregister+0x41>
    310d:	83 ec 0c             	sub    $0xc,%esp
    3110:	50                   	push   %eax
    3111:	e8 ea 97 00 00       	call   c900 <async_hangup@plt>
    3116:	58                   	pop    %eax
    3117:	5a                   	pop    %edx
    3118:	6a 00                	push   $0x0
    311a:	56                   	push   %esi
    311b:	ff 53 18             	call   *0x18(%ebx)
    311e:	83 c4 10             	add    $0x10,%esp
    3121:	89 7d 08             	mov    %edi,0x8(%ebp)
    3124:	c7 45 0c 00 00 00 00 	movl   $0x0,0xc(%ebp)
    312b:	8d 65 f4             	lea    -0xc(%ebp),%esp
    312e:	5b                   	pop    %ebx
    312f:	5e                   	pop    %esi
    3130:	5f                   	pop    %edi
    3131:	5d                   	pop    %ebp
    3132:	e9 e9 98 00 00       	jmp    ca20 <async_answer_0@plt>
    3137:	90                   	nop
    3138:	89 7d 08             	mov    %edi,0x8(%ebp)
    313b:	c7 45 0c f5 ff ff ff 	movl   $0xfffffff5,0xc(%ebp)
    3142:	8d 65 f4             	lea    -0xc(%ebp),%esp
    3145:	5b                   	pop    %ebx
    3146:	5e                   	pop    %esi
    3147:	5f                   	pop    %edi
    3148:	5d                   	pop    %ebp
    3149:	e9 d2 98 00 00       	jmp    ca20 <async_answer_0@plt>
    314e:	66 90                	xchg   %ax,%ax

00003150 <remote_audio_pcm_get_buffer_pos>:
    3150:	55                   	push   %ebp
    3151:	89 e5                	mov    %esp,%ebp
    3153:	83 ec 18             	sub    $0x18,%esp
    3156:	8b 45 0c             	mov    0xc(%ebp),%eax
    3159:	c7 45 f4 00 00 00 00 	movl   $0x0,-0xc(%ebp)
    3160:	8b 40 0c             	mov    0xc(%eax),%eax
    3163:	85 c0                	test   %eax,%eax
    3165:	74 29                	je     3190 <remote_audio_pcm_get_buffer_pos+0x40>
    3167:	8b 4d 08             	mov    0x8(%ebp),%ecx
    316a:	52                   	push   %edx
    316b:	52                   	push   %edx
    316c:	8d 55 f4             	lea    -0xc(%ebp),%edx
    316f:	52                   	push   %edx
    3170:	51                   	push   %ecx
    3171:	ff d0                	call   *%eax
    3173:	8b 55 f4             	mov    -0xc(%ebp),%edx
    3176:	83 c4 10             	add    $0x10,%esp
    3179:	51                   	push   %ecx
    317a:	52                   	push   %edx
    317b:	50                   	push   %eax
    317c:	8b 45 10             	mov    0x10(%ebp),%eax
    317f:	50                   	push   %eax
    3180:	e8 3b 9b 00 00       	call   ccc0 <async_answer_1@plt>
    3185:	83 c4 10             	add    $0x10,%esp
    3188:	c9                   	leave  
    3189:	c3                   	ret    
    318a:	8d b6 00 00 00 00    	lea    0x0(%esi),%esi
    3190:	b8 f5 ff ff ff       	mov    $0xfffffff5,%eax
    3195:	31 d2                	xor    %edx,%edx
    3197:	eb e0                	jmp    3179 <remote_audio_pcm_get_buffer_pos+0x29>
    3199:	8d b4 26 00 00 00 00 	lea    0x0(%esi,%eiz,1),%esi

000031a0 <remote_audio_pcm_query_caps>:
    31a0:	55                   	push   %ebp
    31a1:	89 e5                	mov    %esp,%ebp
    31a3:	53                   	push   %ebx
    31a4:	53                   	push   %ebx
    31a5:	8b 45 0c             	mov    0xc(%ebp),%eax
    31a8:	8b 55 08             	mov    0x8(%ebp),%edx
    31ab:	8b 5d 10             	mov    0x10(%ebp),%ebx
    31ae:	8b 4d 14             	mov    0x14(%ebp),%ecx
    31b1:	8b 40 08             	mov    0x8(%eax),%eax
    31b4:	85 c0                	test   %eax,%eax
    31b6:	74 28                	je     31e0 <remote_audio_pcm_query_caps+0x40>
    31b8:	83 ec 08             	sub    $0x8,%esp
    31bb:	8b 49 08             	mov    0x8(%ecx),%ecx
    31be:	51                   	push   %ecx
    31bf:	52                   	push   %edx
    31c0:	ff d0                	call   *%eax
    31c2:	89 5d 08             	mov    %ebx,0x8(%ebp)
    31c5:	83 c4 10             	add    $0x10,%esp
    31c8:	8b 5d fc             	mov    -0x4(%ebp),%ebx
    31cb:	89 45 10             	mov    %eax,0x10(%ebp)
    31ce:	c7 45 0c 00 00 00 00 	movl   $0x0,0xc(%ebp)
    31d5:	c9                   	leave  
    31d6:	e9 e5 9a 00 00       	jmp    ccc0 <async_answer_1@plt>
    31db:	90                   	nop
    31dc:	8d 74 26 00          	lea    0x0(%esi,%eiz,1),%esi
    31e0:	89 5d 08             	mov    %ebx,0x8(%ebp)
    31e3:	8b 5d fc             	mov    -0x4(%ebp),%ebx
    31e6:	c7 45 0c f5 ff ff ff 	movl   $0xfffffff5,0xc(%ebp)
    31ed:	c9                   	leave  
    31ee:	e9 2d 98 00 00       	jmp    ca20 <async_answer_0@plt>
    31f3:	8d b6 00 00 00 00    	lea    0x0(%esi),%esi
    31f9:	8d bc 27 00 00 00 00 	lea    0x0(%edi,%eiz,1),%edi

00003200 <remote_audio_pcm_get_buffer>:
    3200:	55                   	push   %ebp
    3201:	89 e5                	mov    %esp,%ebp
    3203:	56                   	push   %esi
    3204:	53                   	push   %ebx
    3205:	83 ec 10             	sub    $0x10,%esp
    3208:	8b 5d 0c             	mov    0xc(%ebp),%ebx
    320b:	8b 43 10             	mov    0x10(%ebx),%eax
    320e:	85 c0                	test   %eax,%eax
    3210:	0f 84 d2 00 00 00    	je     32e8 <remote_audio_pcm_get_buffer+0xe8>
    3216:	8b 53 14             	mov    0x14(%ebx),%edx
    3219:	85 d2                	test   %edx,%edx
    321b:	0f 84 c7 00 00 00    	je     32e8 <remote_audio_pcm_get_buffer+0xe8>
    3221:	8b 55 14             	mov    0x14(%ebp),%edx
    3224:	c7 45 e8 00 00 00 00 	movl   $0x0,-0x18(%ebp)
    322b:	8b 52 08             	mov    0x8(%edx),%edx
    322e:	56                   	push   %esi
    322f:	89 55 ec             	mov    %edx,-0x14(%ebp)
    3232:	8d 55 ec             	lea    -0x14(%ebp),%edx
    3235:	52                   	push   %edx
    3236:	8d 55 e8             	lea    -0x18(%ebp),%edx
    3239:	52                   	push   %edx
    323a:	8b 55 08             	mov    0x8(%ebp),%edx
    323d:	52                   	push   %edx
    323e:	ff d0                	call   *%eax
    3240:	83 c4 0c             	add    $0xc,%esp
    3243:	8b 4d ec             	mov    -0x14(%ebp),%ecx
    3246:	89 c6                	mov    %eax,%esi
    3248:	51                   	push   %ecx
    3249:	50                   	push   %eax
    324a:	8b 45 10             	mov    0x10(%ebp),%eax
    324d:	50                   	push   %eax
    324e:	e8 6d 9a 00 00       	call   ccc0 <async_answer_1@plt>
    3253:	83 c4 10             	add    $0x10,%esp
    3256:	85 f6                	test   %esi,%esi
    3258:	74 0e                	je     3268 <remote_audio_pcm_get_buffer+0x68>
    325a:	8d 65 f8             	lea    -0x8(%ebp),%esp
    325d:	5b                   	pop    %ebx
    325e:	5e                   	pop    %esi
    325f:	5d                   	pop    %ebp
    3260:	c3                   	ret    
    3261:	8d b4 26 00 00 00 00 	lea    0x0(%esi,%eiz,1),%esi
    3268:	8b 4d ec             	mov    -0x14(%ebp),%ecx
    326b:	85 c9                	test   %ecx,%ecx
    326d:	74 eb                	je     325a <remote_audio_pcm_get_buffer+0x5a>
    326f:	c7 45 f0 00 00 00 00 	movl   $0x0,-0x10(%ebp)
    3276:	56                   	push   %esi
    3277:	c7 45 f4 00 00 00 00 	movl   $0x0,-0xc(%ebp)
    327e:	56                   	push   %esi
    327f:	68 d4 ae 00 00       	push   $0xaed4
    3284:	6a 05                	push   $0x5
    3286:	e8 25 f7 ff ff       	call   29b0 <ddf_msg>
    328b:	58                   	pop    %eax
    328c:	8d 45 f0             	lea    -0x10(%ebp),%eax
    328f:	5a                   	pop    %edx
    3290:	50                   	push   %eax
    3291:	8d 45 f4             	lea    -0xc(%ebp),%eax
    3294:	50                   	push   %eax
    3295:	e8 c6 99 00 00       	call   cc60 <async_share_in_receive@plt>
    329a:	83 c4 10             	add    $0x10,%esp
    329d:	84 c0                	test   %al,%al
    329f:	74 5f                	je     3300 <remote_audio_pcm_get_buffer+0x100>
    32a1:	50                   	push   %eax
    32a2:	50                   	push   %eax
    32a3:	68 98 b0 00 00       	push   $0xb098
    32a8:	6a 05                	push   $0x5
    32aa:	e8 01 f7 ff ff       	call   29b0 <ddf_msg>
    32af:	8b 45 ec             	mov    -0x14(%ebp),%eax
    32b2:	83 c4 10             	add    $0x10,%esp
    32b5:	39 45 f0             	cmp    %eax,-0x10(%ebp)
    32b8:	74 76                	je     3330 <remote_audio_pcm_get_buffer+0x130>
    32ba:	50                   	push   %eax
    32bb:	50                   	push   %eax
    32bc:	68 b8 b0 00 00       	push   $0xb0b8
    32c1:	6a 04                	push   $0x4
    32c3:	e8 e8 f6 ff ff       	call   29b0 <ddf_msg>
    32c8:	8b 55 08             	mov    0x8(%ebp),%edx
    32cb:	58                   	pop    %eax
    32cc:	52                   	push   %edx
    32cd:	ff 53 14             	call   *0x14(%ebx)
    32d0:	8b 75 f4             	mov    -0xc(%ebp),%esi
    32d3:	59                   	pop    %ecx
    32d4:	5b                   	pop    %ebx
    32d5:	6a fd                	push   $0xfffffffd
    32d7:	56                   	push   %esi
    32d8:	e8 43 97 00 00       	call   ca20 <async_answer_0@plt>
    32dd:	83 c4 10             	add    $0x10,%esp
    32e0:	e9 75 ff ff ff       	jmp    325a <remote_audio_pcm_get_buffer+0x5a>
    32e5:	8d 76 00             	lea    0x0(%esi),%esi
    32e8:	50                   	push   %eax
    32e9:	50                   	push   %eax
    32ea:	8b 45 10             	mov    0x10(%ebp),%eax
    32ed:	6a f5                	push   $0xfffffff5
    32ef:	50                   	push   %eax
    32f0:	e8 2b 97 00 00       	call   ca20 <async_answer_0@plt>
    32f5:	83 c4 10             	add    $0x10,%esp
    32f8:	8d 65 f8             	lea    -0x8(%ebp),%esp
    32fb:	5b                   	pop    %ebx
    32fc:	5e                   	pop    %esi
    32fd:	5d                   	pop    %ebp
    32fe:	c3                   	ret    
    32ff:	90                   	nop
    3300:	50                   	push   %eax
    3301:	50                   	push   %eax
    3302:	68 ed ae 00 00       	push   $0xaeed
    3307:	6a 04                	push   $0x4
    3309:	e8 a2 f6 ff ff       	call   29b0 <ddf_msg>
    330e:	58                   	pop    %eax
    330f:	8b 45 08             	mov    0x8(%ebp),%eax
    3312:	50                   	push   %eax
    3313:	ff 53 14             	call   *0x14(%ebx)
    3316:	8b 4d f4             	mov    -0xc(%ebp),%ecx
    3319:	58                   	pop    %eax
    331a:	5a                   	pop    %edx
    331b:	6a f8                	push   $0xfffffff8
    331d:	51                   	push   %ecx
    331e:	e8 fd 96 00 00       	call   ca20 <async_answer_0@plt>
    3323:	83 c4 10             	add    $0x10,%esp
    3326:	e9 2f ff ff ff       	jmp    325a <remote_audio_pcm_get_buffer+0x5a>
    332b:	90                   	nop
    332c:	8d 74 26 00          	lea    0x0(%esi,%eiz,1),%esi
    3330:	50                   	push   %eax
    3331:	50                   	push   %eax
    3332:	68 09 af 00 00       	push   $0xaf09
    3337:	6a 05                	push   $0x5
    3339:	e8 72 f6 ff ff       	call   29b0 <ddf_msg>
    333e:	83 c4 0c             	add    $0xc,%esp
    3341:	8b 45 e8             	mov    -0x18(%ebp),%eax
    3344:	6a 03                	push   $0x3
    3346:	50                   	push   %eax
    3347:	8b 45 f4             	mov    -0xc(%ebp),%eax
    334a:	50                   	push   %eax
    334b:	e8 b0 99 00 00       	call   cd00 <async_share_in_finalize@plt>
    3350:	83 c4 10             	add    $0x10,%esp
    3353:	85 c0                	test   %eax,%eax
    3355:	74 1e                	je     3375 <remote_audio_pcm_get_buffer+0x175>
    3357:	51                   	push   %ecx
    3358:	51                   	push   %ecx
    3359:	68 21 af 00 00       	push   $0xaf21
    335e:	6a 04                	push   $0x4
    3360:	e8 4b f6 ff ff       	call   29b0 <ddf_msg>
    3365:	8b 45 08             	mov    0x8(%ebp),%eax
    3368:	5e                   	pop    %esi
    3369:	50                   	push   %eax
    336a:	ff 53 14             	call   *0x14(%ebx)
    336d:	83 c4 10             	add    $0x10,%esp
    3370:	e9 e5 fe ff ff       	jmp    325a <remote_audio_pcm_get_buffer+0x5a>
    3375:	8b 55 f0             	mov    -0x10(%ebp),%edx
    3378:	50                   	push   %eax
    3379:	52                   	push   %edx
    337a:	68 39 af 00 00       	push   $0xaf39
    337f:	6a 05                	push   $0x5
    3381:	e8 2a f6 ff ff       	call   29b0 <ddf_msg>
    3386:	83 c4 10             	add    $0x10,%esp
    3389:	e9 cc fe ff ff       	jmp    325a <remote_audio_pcm_get_buffer+0x5a>
    338e:	66 90                	xchg   %ax,%ax

00003390 <remote_audio_pcm_test_format>:
    3390:	55                   	push   %ebp
    3391:	89 e5                	mov    %esp,%ebp
    3393:	53                   	push   %ebx
    3394:	83 ec 14             	sub    $0x14,%esp
    3397:	8b 45 14             	mov    0x14(%ebp),%eax
    339a:	8b 55 0c             	mov    0xc(%ebp),%edx
    339d:	8b 48 08             	mov    0x8(%eax),%ecx
    33a0:	8b 58 0c             	mov    0xc(%eax),%ebx
    33a3:	8b 52 04             	mov    0x4(%edx),%edx
    33a6:	8b 40 10             	mov    0x10(%eax),%eax
    33a9:	89 4d ec             	mov    %ecx,-0x14(%ebp)
    33ac:	89 5d f0             	mov    %ebx,-0x10(%ebp)
    33af:	89 45 f4             	mov    %eax,-0xc(%ebp)
    33b2:	85 d2                	test   %edx,%edx
    33b4:	74 3a                	je     33f0 <remote_audio_pcm_test_format+0x60>
    33b6:	8d 45 f4             	lea    -0xc(%ebp),%eax
    33b9:	8b 4d 08             	mov    0x8(%ebp),%ecx
    33bc:	50                   	push   %eax
    33bd:	8d 45 f0             	lea    -0x10(%ebp),%eax
    33c0:	50                   	push   %eax
    33c1:	8d 45 ec             	lea    -0x14(%ebp),%eax
    33c4:	50                   	push   %eax
    33c5:	51                   	push   %ecx
    33c6:	ff d2                	call   *%edx
    33c8:	8b 55 f4             	mov    -0xc(%ebp),%edx
    33cb:	8b 5d f0             	mov    -0x10(%ebp),%ebx
    33ce:	8b 4d ec             	mov    -0x14(%ebp),%ecx
    33d1:	83 c4 10             	add    $0x10,%esp
    33d4:	83 ec 0c             	sub    $0xc,%esp
    33d7:	52                   	push   %edx
    33d8:	53                   	push   %ebx
    33d9:	51                   	push   %ecx
    33da:	50                   	push   %eax
    33db:	8b 45 10             	mov    0x10(%ebp),%eax
    33de:	50                   	push   %eax
    33df:	e8 2c 99 00 00       	call   cd10 <async_answer_3@plt>
    33e4:	83 c4 20             	add    $0x20,%esp
    33e7:	8b 5d fc             	mov    -0x4(%ebp),%ebx
    33ea:	c9                   	leave  
    33eb:	c3                   	ret    
    33ec:	8d 74 26 00          	lea    0x0(%esi,%eiz,1),%esi
    33f0:	89 c2                	mov    %eax,%edx
    33f2:	b8 f5 ff ff ff       	mov    $0xfffffff5,%eax
    33f7:	eb db                	jmp    33d4 <remote_audio_pcm_test_format+0x44>
    33f9:	8d b4 26 00 00 00 00 	lea    0x0(%esi,%eiz,1),%esi

00003400 <remote_audio_pcm_events_register>:
    3400:	55                   	push   %ebp
    3401:	89 e5                	mov    %esp,%ebp
    3403:	57                   	push   %edi
    3404:	56                   	push   %esi
    3405:	53                   	push   %ebx
    3406:	83 ec 3c             	sub    $0x3c,%esp
    3409:	8b 5d 0c             	mov    0xc(%ebp),%ebx
    340c:	8b 7b 1c             	mov    0x1c(%ebx),%edi
    340f:	85 ff                	test   %edi,%edi
    3411:	0f 84 91 00 00 00    	je     34a8 <remote_audio_pcm_events_register+0xa8>
    3417:	8b 73 18             	mov    0x18(%ebx),%esi
    341a:	85 f6                	test   %esi,%esi
    341c:	0f 84 86 00 00 00    	je     34a8 <remote_audio_pcm_events_register+0xa8>
    3422:	8b 75 10             	mov    0x10(%ebp),%esi
    3425:	51                   	push   %ecx
    3426:	51                   	push   %ecx
    3427:	6a 00                	push   $0x0
    3429:	56                   	push   %esi
    342a:	8d 75 c4             	lea    -0x3c(%ebp),%esi
    342d:	e8 ee 95 00 00       	call   ca20 <async_answer_0@plt>
    3432:	5f                   	pop    %edi
    3433:	58                   	pop    %eax
    3434:	6a 00                	push   $0x0
    3436:	56                   	push   %esi
    3437:	e8 54 98 00 00       	call   cc90 <async_get_call_timeout@plt>
    343c:	89 c7                	mov    %eax,%edi
    343e:	58                   	pop    %eax
    343f:	5a                   	pop    %edx
    3440:	56                   	push   %esi
    3441:	6a 00                	push   $0x0
    3443:	e8 18 97 00 00       	call   cb60 <async_callback_receive_start@plt>
    3448:	83 c4 10             	add    $0x10,%esp
    344b:	89 c6                	mov    %eax,%esi
    344d:	85 c0                	test   %eax,%eax
    344f:	74 6f                	je     34c0 <remote_audio_pcm_events_register+0xc0>
    3451:	50                   	push   %eax
    3452:	50                   	push   %eax
    3453:	8b 45 08             	mov    0x8(%ebp),%eax
    3456:	56                   	push   %esi
    3457:	50                   	push   %eax
    3458:	ff 53 18             	call   *0x18(%ebx)
    345b:	83 c4 10             	add    $0x10,%esp
    345e:	89 c3                	mov    %eax,%ebx
    3460:	85 c0                	test   %eax,%eax
    3462:	74 2c                	je     3490 <remote_audio_pcm_events_register+0x90>
    3464:	52                   	push   %edx
    3465:	52                   	push   %edx
    3466:	68 56 af 00 00       	push   $0xaf56
    346b:	6a 04                	push   $0x4
    346d:	e8 3e f5 ff ff       	call   29b0 <ddf_msg>
    3472:	89 34 24             	mov    %esi,(%esp)
    3475:	e8 86 94 00 00       	call   c900 <async_hangup@plt>
    347a:	59                   	pop    %ecx
    347b:	5e                   	pop    %esi
    347c:	53                   	push   %ebx
    347d:	57                   	push   %edi
    347e:	e8 9d 95 00 00       	call   ca20 <async_answer_0@plt>
    3483:	83 c4 10             	add    $0x10,%esp
    3486:	8d 65 f4             	lea    -0xc(%ebp),%esp
    3489:	5b                   	pop    %ebx
    348a:	5e                   	pop    %esi
    348b:	5f                   	pop    %edi
    348c:	5d                   	pop    %ebp
    348d:	c3                   	ret    
    348e:	66 90                	xchg   %ax,%ax
    3490:	50                   	push   %eax
    3491:	50                   	push   %eax
    3492:	6a 00                	push   $0x0
    3494:	57                   	push   %edi
    3495:	e8 86 95 00 00       	call   ca20 <async_answer_0@plt>
    349a:	83 c4 10             	add    $0x10,%esp
    349d:	8d 65 f4             	lea    -0xc(%ebp),%esp
    34a0:	5b                   	pop    %ebx
    34a1:	5e                   	pop    %esi
    34a2:	5f                   	pop    %edi
    34a3:	5d                   	pop    %ebp
    34a4:	c3                   	ret    
    34a5:	8d 76 00             	lea    0x0(%esi),%esi
    34a8:	8b 5d 10             	mov    0x10(%ebp),%ebx
    34ab:	51                   	push   %ecx
    34ac:	51                   	push   %ecx
    34ad:	6a f5                	push   $0xfffffff5
    34af:	53                   	push   %ebx
    34b0:	e8 6b 95 00 00       	call   ca20 <async_answer_0@plt>
    34b5:	83 c4 10             	add    $0x10,%esp
    34b8:	8d 65 f4             	lea    -0xc(%ebp),%esp
    34bb:	5b                   	pop    %ebx
    34bc:	5e                   	pop    %esi
    34bd:	5f                   	pop    %edi
    34be:	5d                   	pop    %ebp
    34bf:	c3                   	ret    
    34c0:	50                   	push   %eax
    34c1:	50                   	push   %eax
    34c2:	68 e0 b0 00 00       	push   $0xb0e0
    34c7:	6a 04                	push   $0x4
    34c9:	e8 e2 f4 ff ff       	call   29b0 <ddf_msg>
    34ce:	58                   	pop    %eax
    34cf:	5a                   	pop    %edx
    34d0:	68 06 d5 ff ff       	push   $0xffffd506
    34d5:	57                   	push   %edi
    34d6:	e8 45 95 00 00       	call   ca20 <async_answer_0@plt>
    34db:	83 c4 10             	add    $0x10,%esp
    34de:	eb a6                	jmp    3486 <remote_audio_pcm_events_register+0x86>

000034e0 <remote_audio_pcm_get_info_str>:
    34e0:	55                   	push   %ebp
    34e1:	89 e5                	mov    %esp,%ebp
    34e3:	56                   	push   %esi
    34e4:	53                   	push   %ebx
    34e5:	83 ec 10             	sub    $0x10,%esp
    34e8:	8b 45 0c             	mov    0xc(%ebp),%eax
    34eb:	8b 00                	mov    (%eax),%eax
    34ed:	85 c0                	test   %eax,%eax
    34ef:	0f 84 ab 00 00 00    	je     35a0 <remote_audio_pcm_get_info_str+0xc0>
    34f5:	8b 4d 08             	mov    0x8(%ebp),%ecx
    34f8:	52                   	push   %edx
    34f9:	c7 45 ec 00 00 00 00 	movl   $0x0,-0x14(%ebp)
    3500:	52                   	push   %edx
    3501:	8d 55 ec             	lea    -0x14(%ebp),%edx
    3504:	52                   	push   %edx
    3505:	51                   	push   %ecx
    3506:	ff d0                	call   *%eax
    3508:	83 c4 10             	add    $0x10,%esp
    350b:	89 c6                	mov    %eax,%esi
    350d:	8b 45 ec             	mov    -0x14(%ebp),%eax
    3510:	85 c0                	test   %eax,%eax
    3512:	74 5c                	je     3570 <remote_audio_pcm_get_info_str+0x90>
    3514:	83 ec 0c             	sub    $0xc,%esp
    3517:	50                   	push   %eax
    3518:	e8 83 97 00 00       	call   cca0 <str_size@plt>
    351d:	83 c4 0c             	add    $0xc,%esp
    3520:	8d 58 01             	lea    0x1(%eax),%ebx
    3523:	8b 45 10             	mov    0x10(%ebp),%eax
    3526:	53                   	push   %ebx
    3527:	56                   	push   %esi
    3528:	50                   	push   %eax
    3529:	e8 92 97 00 00       	call   ccc0 <async_answer_1@plt>
    352e:	83 c4 10             	add    $0x10,%esp
    3531:	85 f6                	test   %esi,%esi
    3533:	75 2f                	jne    3564 <remote_audio_pcm_get_info_str+0x84>
    3535:	85 db                	test   %ebx,%ebx
    3537:	74 2b                	je     3564 <remote_audio_pcm_get_info_str+0x84>
    3539:	50                   	push   %eax
    353a:	50                   	push   %eax
    353b:	8d 45 f0             	lea    -0x10(%ebp),%eax
    353e:	50                   	push   %eax
    353f:	8d 45 f4             	lea    -0xc(%ebp),%eax
    3542:	50                   	push   %eax
    3543:	e8 f8 96 00 00       	call   cc40 <async_data_read_receive@plt>
    3548:	83 c4 10             	add    $0x10,%esp
    354b:	84 c0                	test   %al,%al
    354d:	74 69                	je     35b8 <remote_audio_pcm_get_info_str+0xd8>
    354f:	3b 5d f0             	cmp    -0x10(%ebp),%ebx
    3552:	74 34                	je     3588 <remote_audio_pcm_get_info_str+0xa8>
    3554:	50                   	push   %eax
    3555:	50                   	push   %eax
    3556:	8b 45 f4             	mov    -0xc(%ebp),%eax
    3559:	6a fd                	push   $0xfffffffd
    355b:	50                   	push   %eax
    355c:	e8 bf 94 00 00       	call   ca20 <async_answer_0@plt>
    3561:	83 c4 10             	add    $0x10,%esp
    3564:	8d 65 f8             	lea    -0x8(%ebp),%esp
    3567:	5b                   	pop    %ebx
    3568:	5e                   	pop    %esi
    3569:	5d                   	pop    %ebp
    356a:	c3                   	ret    
    356b:	90                   	nop
    356c:	8d 74 26 00          	lea    0x0(%esi,%eiz,1),%esi
    3570:	8b 55 10             	mov    0x10(%ebp),%edx
    3573:	50                   	push   %eax
    3574:	6a 00                	push   $0x0
    3576:	56                   	push   %esi
    3577:	52                   	push   %edx
    3578:	e8 43 97 00 00       	call   ccc0 <async_answer_1@plt>
    357d:	83 c4 10             	add    $0x10,%esp
    3580:	8d 65 f8             	lea    -0x8(%ebp),%esp
    3583:	5b                   	pop    %ebx
    3584:	5e                   	pop    %esi
    3585:	5d                   	pop    %ebp
    3586:	c3                   	ret    
    3587:	90                   	nop
    3588:	8b 75 f4             	mov    -0xc(%ebp),%esi
    358b:	51                   	push   %ecx
    358c:	53                   	push   %ebx
    358d:	8b 5d ec             	mov    -0x14(%ebp),%ebx
    3590:	53                   	push   %ebx
    3591:	56                   	push   %esi
    3592:	e8 f9 93 00 00       	call   c990 <async_data_read_finalize@plt>
    3597:	83 c4 10             	add    $0x10,%esp
    359a:	eb c8                	jmp    3564 <remote_audio_pcm_get_info_str+0x84>
    359c:	8d 74 26 00          	lea    0x0(%esi,%eiz,1),%esi
    35a0:	8b 75 10             	mov    0x10(%ebp),%esi
    35a3:	53                   	push   %ebx
    35a4:	53                   	push   %ebx
    35a5:	6a f5                	push   $0xfffffff5
    35a7:	56                   	push   %esi
    35a8:	e8 73 94 00 00       	call   ca20 <async_answer_0@plt>
    35ad:	83 c4 10             	add    $0x10,%esp
    35b0:	8d 65 f8             	lea    -0x8(%ebp),%esp
    35b3:	5b                   	pop    %ebx
    35b4:	5e                   	pop    %esi
    35b5:	5d                   	pop    %ebp
    35b6:	c3                   	ret    
    35b7:	90                   	nop
    35b8:	50                   	push   %eax
    35b9:	50                   	push   %eax
    35ba:	8b 45 f4             	mov    -0xc(%ebp),%eax
    35bd:	6a f8                	push   $0xfffffff8
    35bf:	50                   	push   %eax
    35c0:	e8 5b 94 00 00       	call   ca20 <async_answer_0@plt>
    35c5:	83 c4 10             	add    $0x10,%esp
    35c8:	eb 9a                	jmp    3564 <remote_audio_pcm_get_info_str+0x84>
    35ca:	8d b6 00 00 00 00    	lea    0x0(%esi),%esi

000035d0 <audio_pcm_cap_str>:
    35d0:	55                   	push   %ebp
    35d1:	b8 74 af 00 00       	mov    $0xaf74,%eax
    35d6:	89 e5                	mov    %esp,%ebp
    35d8:	8b 55 08             	mov    0x8(%ebp),%edx
    35db:	83 fa 06             	cmp    $0x6,%edx
    35de:	77 07                	ja     35e7 <audio_pcm_cap_str+0x17>
    35e0:	8b 04 95 38 c1 00 00 	mov    0xc138(,%edx,4),%eax
    35e7:	5d                   	pop    %ebp
    35e8:	c3                   	ret    
    35e9:	8d b4 26 00 00 00 00 	lea    0x0(%esi,%eiz,1),%esi

000035f0 <audio_pcm_event_str>:
    35f0:	55                   	push   %ebp
    35f1:	b8 80 af 00 00       	mov    $0xaf80,%eax
    35f6:	89 e5                	mov    %esp,%ebp
    35f8:	8b 55 08             	mov    0x8(%ebp),%edx
    35fb:	81 fa 05 04 00 00    	cmp    $0x405,%edx
    3601:	77 07                	ja     360a <audio_pcm_event_str+0x1a>
    3603:	8b 04 95 20 b1 00 00 	mov    0xb120(,%edx,4),%eax
    360a:	5d                   	pop    %ebp
    360b:	c3                   	ret    
    360c:	8d 74 26 00          	lea    0x0(%esi,%eiz,1),%esi

00003610 <audio_pcm_open_default>:
    3610:	55                   	push   %ebp
    3611:	89 e5                	mov    %esp,%ebp
    3613:	83 ec 28             	sub    $0x28,%esp
    3616:	80 3d 4c f0 00 00 00 	cmpb   $0x0,0xf04c
    361d:	75 20                	jne    363f <audio_pcm_open_default+0x2f>
    361f:	50                   	push   %eax
    3620:	6a 01                	push   $0x1
    3622:	68 48 f0 00 00       	push   $0xf048
    3627:	68 8e af 00 00       	push   $0xaf8e
    362c:	e8 6f 92 00 00       	call   c8a0 <loc_category_get_id@plt>
    3631:	83 c4 10             	add    $0x10,%esp
    3634:	85 c0                	test   %eax,%eax
    3636:	75 68                	jne    36a0 <audio_pcm_open_default+0x90>
    3638:	c6 05 4c f0 00 00 01 	movb   $0x1,0xf04c
    363f:	8d 45 f4             	lea    -0xc(%ebp),%eax
    3642:	51                   	push   %ecx
    3643:	50                   	push   %eax
    3644:	8d 45 f0             	lea    -0x10(%ebp),%eax
    3647:	50                   	push   %eax
    3648:	a1 48 f0 00 00       	mov    0xf048,%eax
    364d:	50                   	push   %eax
    364e:	c7 45 f0 00 00 00 00 	movl   $0x0,-0x10(%ebp)
    3655:	c7 45 f4 00 00 00 00 	movl   $0x0,-0xc(%ebp)
    365c:	e8 1f 96 00 00       	call   cc80 <loc_category_get_svcs@plt>
    3661:	83 c4 10             	add    $0x10,%esp
    3664:	85 c0                	test   %eax,%eax
    3666:	75 38                	jne    36a0 <audio_pcm_open_default+0x90>
    3668:	8b 55 f4             	mov    -0xc(%ebp),%edx
    366b:	85 d2                	test   %edx,%edx
    366d:	75 19                	jne    3688 <audio_pcm_open_default+0x78>
    366f:	83 ec 0c             	sub    $0xc,%esp
    3672:	89 45 e4             	mov    %eax,-0x1c(%ebp)
    3675:	8b 45 f0             	mov    -0x10(%ebp),%eax
    3678:	50                   	push   %eax
    3679:	e8 52 97 00 00       	call   cdd0 <free@plt>
    367e:	8b 45 e4             	mov    -0x1c(%ebp),%eax
    3681:	83 c4 10             	add    $0x10,%esp
    3684:	c9                   	leave  
    3685:	c3                   	ret    
    3686:	66 90                	xchg   %ax,%ax
    3688:	8b 45 f0             	mov    -0x10(%ebp),%eax
    368b:	52                   	push   %edx
    368c:	6a 01                	push   $0x1
    368e:	68 41 26 9b 41       	push   $0x419b2641
    3693:	8b 08                	mov    (%eax),%ecx
    3695:	51                   	push   %ecx
    3696:	e8 35 92 00 00       	call   c8d0 <loc_service_connect@plt>
    369b:	83 c4 10             	add    $0x10,%esp
    369e:	eb cf                	jmp    366f <audio_pcm_open_default+0x5f>
    36a0:	31 c0                	xor    %eax,%eax
    36a2:	c9                   	leave  
    36a3:	c3                   	ret    
    36a4:	8d b6 00 00 00 00    	lea    0x0(%esi),%esi
    36aa:	8d bf 00 00 00 00    	lea    0x0(%edi),%edi

000036b0 <audio_pcm_open>:
    36b0:	55                   	push   %ebp
    36b1:	89 e5                	mov    %esp,%ebp
    36b3:	83 ec 1c             	sub    $0x1c,%esp
    36b6:	8d 45 f4             	lea    -0xc(%ebp),%eax
    36b9:	8b 4d 08             	mov    0x8(%ebp),%ecx
    36bc:	6a 00                	push   $0x0
    36be:	c7 45 f4 00 00 00 00 	movl   $0x0,-0xc(%ebp)
    36c5:	50                   	push   %eax
    36c6:	51                   	push   %ecx
    36c7:	e8 24 96 00 00       	call   ccf0 <devman_fun_get_handle@plt>
    36cc:	83 c4 10             	add    $0x10,%esp
    36cf:	85 c0                	test   %eax,%eax
    36d1:	75 15                	jne    36e8 <audio_pcm_open+0x38>
    36d3:	8b 55 f4             	mov    -0xc(%ebp),%edx
    36d6:	50                   	push   %eax
    36d7:	50                   	push   %eax
    36d8:	6a 01                	push   $0x1
    36da:	52                   	push   %edx
    36db:	e8 d0 91 00 00       	call   c8b0 <devman_device_connect@plt>
    36e0:	83 c4 10             	add    $0x10,%esp
    36e3:	c9                   	leave  
    36e4:	c3                   	ret    
    36e5:	8d 76 00             	lea    0x0(%esi),%esi
    36e8:	31 c0                	xor    %eax,%eax
    36ea:	c9                   	leave  
    36eb:	c3                   	ret    
    36ec:	8d 74 26 00          	lea    0x0(%esi,%eiz,1),%esi

000036f0 <audio_pcm_open_service>:
    36f0:	55                   	push   %ebp
    36f1:	89 e5                	mov    %esp,%ebp
    36f3:	83 ec 0c             	sub    $0xc,%esp
    36f6:	8b 45 08             	mov    0x8(%ebp),%eax
    36f9:	6a 01                	push   $0x1
    36fb:	68 41 26 9b 41       	push   $0x419b2641
    3700:	50                   	push   %eax
    3701:	e8 ca 91 00 00       	call   c8d0 <loc_service_connect@plt>
    3706:	c9                   	leave  
    3707:	c3                   	ret    
    3708:	90                   	nop
    3709:	8d b4 26 00 00 00 00 	lea    0x0(%esi,%eiz,1),%esi

00003710 <audio_pcm_close>:
    3710:	55                   	push   %ebp
    3711:	89 e5                	mov    %esp,%ebp
    3713:	8b 45 08             	mov    0x8(%ebp),%eax
    3716:	85 c0                	test   %eax,%eax
    3718:	74 06                	je     3720 <audio_pcm_close+0x10>
    371a:	5d                   	pop    %ebp
    371b:	e9 e0 91 00 00       	jmp    c900 <async_hangup@plt>
    3720:	5d                   	pop    %ebp
    3721:	c3                   	ret    
    3722:	8d b4 26 00 00 00 00 	lea    0x0(%esi,%eiz,1),%esi
    3729:	8d bc 27 00 00 00 00 	lea    0x0(%edi,%eiz,1),%edi

00003730 <audio_pcm_get_info_str>:
    3730:	55                   	push   %ebp
    3731:	89 e5                	mov    %esp,%ebp
    3733:	57                   	push   %edi
    3734:	56                   	push   %esi
    3735:	53                   	push   %ebx
    3736:	83 ec 2c             	sub    $0x2c,%esp
    3739:	8b 45 0c             	mov    0xc(%ebp),%eax
    373c:	85 c0                	test   %eax,%eax
    373e:	0f 84 ac 00 00 00    	je     37f0 <audio_pcm_get_info_str+0xc0>
    3744:	83 ec 0c             	sub    $0xc,%esp
    3747:	8b 45 08             	mov    0x8(%ebp),%eax
    374a:	50                   	push   %eax
    374b:	e8 80 95 00 00       	call   ccd0 <async_exchange_begin@plt>
    3750:	83 c4 0c             	add    $0xc,%esp
    3753:	89 c6                	mov    %eax,%esi
    3755:	8d 45 e4             	lea    -0x1c(%ebp),%eax
    3758:	6a 00                	push   $0x0
    375a:	6a 00                	push   $0x0
    375c:	6a 00                	push   $0x0
    375e:	6a 00                	push   $0x0
    3760:	50                   	push   %eax
    3761:	6a 00                	push   $0x0
    3763:	6a 00                	push   $0x0
    3765:	6a 00                	push   $0x0
    3767:	6a 00                	push   $0x0
    3769:	68 04 04 00 00       	push   $0x404
    376e:	56                   	push   %esi
    376f:	e8 9c 92 00 00       	call   ca10 <async_req_fast@plt>
    3774:	83 c4 30             	add    $0x30,%esp
    3777:	89 c3                	mov    %eax,%ebx
    3779:	85 c0                	test   %eax,%eax
    377b:	75 2e                	jne    37ab <audio_pcm_get_info_str+0x7b>
    377d:	8b 45 e4             	mov    -0x1c(%ebp),%eax
    3780:	57                   	push   %edi
    3781:	57                   	push   %edi
    3782:	50                   	push   %eax
    3783:	6a 01                	push   $0x1
    3785:	e8 36 93 00 00       	call   cac0 <calloc@plt>
    378a:	83 c4 10             	add    $0x10,%esp
    378d:	89 c7                	mov    %eax,%edi
    378f:	85 c0                	test   %eax,%eax
    3791:	74 64                	je     37f7 <audio_pcm_get_info_str+0xc7>
    3793:	8b 55 e4             	mov    -0x1c(%ebp),%edx
    3796:	50                   	push   %eax
    3797:	52                   	push   %edx
    3798:	57                   	push   %edi
    3799:	56                   	push   %esi
    379a:	e8 b1 94 00 00       	call   cc50 <async_data_read_start@plt>
    379f:	83 c4 10             	add    $0x10,%esp
    37a2:	85 c0                	test   %eax,%eax
    37a4:	75 22                	jne    37c8 <audio_pcm_get_info_str+0x98>
    37a6:	8b 45 0c             	mov    0xc(%ebp),%eax
    37a9:	89 38                	mov    %edi,(%eax)
    37ab:	83 ec 0c             	sub    $0xc,%esp
    37ae:	56                   	push   %esi
    37af:	e8 dc 92 00 00       	call   ca90 <async_exchange_end@plt>
    37b4:	83 c4 10             	add    $0x10,%esp
    37b7:	89 d8                	mov    %ebx,%eax
    37b9:	8d 65 f4             	lea    -0xc(%ebp),%esp
    37bc:	5b                   	pop    %ebx
    37bd:	5e                   	pop    %esi
    37be:	5f                   	pop    %edi
    37bf:	5d                   	pop    %ebp
    37c0:	c3                   	ret    
    37c1:	8d b4 26 00 00 00 00 	lea    0x0(%esi,%eiz,1),%esi
    37c8:	83 ec 0c             	sub    $0xc,%esp
    37cb:	89 45 d4             	mov    %eax,-0x2c(%ebp)
    37ce:	57                   	push   %edi
    37cf:	e8 fc 95 00 00       	call   cdd0 <free@plt>
    37d4:	89 34 24             	mov    %esi,(%esp)
    37d7:	e8 b4 92 00 00       	call   ca90 <async_exchange_end@plt>
    37dc:	8b 45 d4             	mov    -0x2c(%ebp),%eax
    37df:	83 c4 10             	add    $0x10,%esp
    37e2:	8d 65 f4             	lea    -0xc(%ebp),%esp
    37e5:	5b                   	pop    %ebx
    37e6:	5e                   	pop    %esi
    37e7:	5f                   	pop    %edi
    37e8:	5d                   	pop    %ebp
    37e9:	c3                   	ret    
    37ea:	8d b6 00 00 00 00    	lea    0x0(%esi),%esi
    37f0:	b8 f2 ff ff ff       	mov    $0xfffffff2,%eax
    37f5:	eb c2                	jmp    37b9 <audio_pcm_get_info_str+0x89>
    37f7:	51                   	push   %ecx
    37f8:	6a 00                	push   $0x0
    37fa:	6a ff                	push   $0xffffffff
    37fc:	56                   	push   %esi
    37fd:	e8 4e 94 00 00       	call   cc50 <async_data_read_start@plt>
    3802:	89 34 24             	mov    %esi,(%esp)
    3805:	e8 86 92 00 00       	call   ca90 <async_exchange_end@plt>
    380a:	83 c4 10             	add    $0x10,%esp
    380d:	b8 fe ff ff ff       	mov    $0xfffffffe,%eax
    3812:	eb a5                	jmp    37b9 <audio_pcm_get_info_str+0x89>
    3814:	8d b6 00 00 00 00    	lea    0x0(%esi),%esi
    381a:	8d bf 00 00 00 00    	lea    0x0(%edi),%edi

00003820 <audio_pcm_query_cap>:
    3820:	55                   	push   %ebp
    3821:	89 e5                	mov    %esp,%ebp
    3823:	53                   	push   %ebx
    3824:	83 ec 30             	sub    $0x30,%esp
    3827:	8b 45 08             	mov    0x8(%ebp),%eax
    382a:	50                   	push   %eax
    382b:	e8 a0 94 00 00       	call   ccd0 <async_exchange_begin@plt>
    3830:	83 c4 0c             	add    $0xc,%esp
    3833:	89 c3                	mov    %eax,%ebx
    3835:	8b 55 0c             	mov    0xc(%ebp),%edx
    3838:	8d 45 f4             	lea    -0xc(%ebp),%eax
    383b:	6a 00                	push   $0x0
    383d:	c7 45 f4 00 00 00 00 	movl   $0x0,-0xc(%ebp)
    3844:	6a 00                	push   $0x0
    3846:	6a 00                	push   $0x0
    3848:	6a 00                	push   $0x0
    384a:	50                   	push   %eax
    384b:	6a 00                	push   $0x0
    384d:	6a 00                	push   $0x0
    384f:	52                   	push   %edx
    3850:	6a 01                	push   $0x1
    3852:	68 04 04 00 00       	push   $0x404
    3857:	53                   	push   %ebx
    3858:	e8 b3 91 00 00       	call   ca10 <async_req_fast@plt>
    385d:	83 c4 24             	add    $0x24,%esp
    3860:	89 45 e4             	mov    %eax,-0x1c(%ebp)
    3863:	53                   	push   %ebx
    3864:	e8 27 92 00 00       	call   ca90 <async_exchange_end@plt>
    3869:	8b 45 e4             	mov    -0x1c(%ebp),%eax
    386c:	83 c4 10             	add    $0x10,%esp
    386f:	85 c0                	test   %eax,%eax
    3871:	75 03                	jne    3876 <audio_pcm_query_cap+0x56>
    3873:	8b 45 f4             	mov    -0xc(%ebp),%eax
    3876:	8b 5d fc             	mov    -0x4(%ebp),%ebx
    3879:	c9                   	leave  
    387a:	c3                   	ret    
    387b:	90                   	nop
    387c:	8d 74 26 00          	lea    0x0(%esi,%eiz,1),%esi

00003880 <audio_pcm_get_buffer_pos>:
    3880:	55                   	push   %ebp
    3881:	89 e5                	mov    %esp,%ebp
    3883:	56                   	push   %esi
    3884:	53                   	push   %ebx
    3885:	83 ec 20             	sub    $0x20,%esp
    3888:	8b 75 0c             	mov    0xc(%ebp),%esi
    388b:	85 f6                	test   %esi,%esi
    388d:	74 61                	je     38f0 <audio_pcm_get_buffer_pos+0x70>
    388f:	83 ec 0c             	sub    $0xc,%esp
    3892:	8b 45 08             	mov    0x8(%ebp),%eax
    3895:	50                   	push   %eax
    3896:	e8 35 94 00 00       	call   ccd0 <async_exchange_begin@plt>
    389b:	83 c4 0c             	add    $0xc,%esp
    389e:	89 c3                	mov    %eax,%ebx
    38a0:	8d 45 f4             	lea    -0xc(%ebp),%eax
    38a3:	c7 45 f4 00 00 00 00 	movl   $0x0,-0xc(%ebp)
    38aa:	6a 00                	push   $0x0
    38ac:	6a 00                	push   $0x0
    38ae:	6a 00                	push   $0x0
    38b0:	6a 00                	push   $0x0
    38b2:	50                   	push   %eax
    38b3:	6a 00                	push   $0x0
    38b5:	6a 00                	push   $0x0
    38b7:	6a 00                	push   $0x0
    38b9:	6a 07                	push   $0x7
    38bb:	68 04 04 00 00       	push   $0x404
    38c0:	53                   	push   %ebx
    38c1:	e8 4a 91 00 00       	call   ca10 <async_req_fast@plt>
    38c6:	83 c4 30             	add    $0x30,%esp
    38c9:	85 c0                	test   %eax,%eax
    38cb:	74 1b                	je     38e8 <audio_pcm_get_buffer_pos+0x68>
    38cd:	83 ec 0c             	sub    $0xc,%esp
    38d0:	89 45 e4             	mov    %eax,-0x1c(%ebp)
    38d3:	53                   	push   %ebx
    38d4:	e8 b7 91 00 00       	call   ca90 <async_exchange_end@plt>
    38d9:	83 c4 10             	add    $0x10,%esp
    38dc:	8b 45 e4             	mov    -0x1c(%ebp),%eax
    38df:	8d 65 f8             	lea    -0x8(%ebp),%esp
    38e2:	5b                   	pop    %ebx
    38e3:	5e                   	pop    %esi
    38e4:	5d                   	pop    %ebp
    38e5:	c3                   	ret    
    38e6:	66 90                	xchg   %ax,%ax
    38e8:	8b 55 f4             	mov    -0xc(%ebp),%edx
    38eb:	89 16                	mov    %edx,(%esi)
    38ed:	eb de                	jmp    38cd <audio_pcm_get_buffer_pos+0x4d>
    38ef:	90                   	nop
    38f0:	b8 f2 ff ff ff       	mov    $0xfffffff2,%eax
    38f5:	eb e8                	jmp    38df <audio_pcm_get_buffer_pos+0x5f>
    38f7:	89 f6                	mov    %esi,%esi
    38f9:	8d bc 27 00 00 00 00 	lea    0x0(%edi,%eiz,1),%edi

00003900 <audio_pcm_test_format>:
    3900:	55                   	push   %ebp
    3901:	89 e5                	mov    %esp,%ebp
    3903:	57                   	push   %edi
    3904:	56                   	push   %esi
    3905:	53                   	push   %ebx
    3906:	83 ec 38             	sub    $0x38,%esp
    3909:	8b 45 08             	mov    0x8(%ebp),%eax
    390c:	8b 5d 0c             	mov    0xc(%ebp),%ebx
    390f:	50                   	push   %eax
    3910:	e8 bb 93 00 00       	call   ccd0 <async_exchange_begin@plt>
    3915:	83 c4 10             	add    $0x10,%esp
    3918:	89 c6                	mov    %eax,%esi
    391a:	85 db                	test   %ebx,%ebx
    391c:	0f 84 be 00 00 00    	je     39e0 <audio_pcm_test_format+0xe0>
    3922:	8b 03                	mov    (%ebx),%eax
    3924:	8b 7d 10             	mov    0x10(%ebp),%edi
    3927:	89 45 dc             	mov    %eax,-0x24(%ebp)
    392a:	85 ff                	test   %edi,%edi
    392c:	0f 84 be 00 00 00    	je     39f0 <audio_pcm_test_format+0xf0>
    3932:	8b 4d 10             	mov    0x10(%ebp),%ecx
    3935:	8b 11                	mov    (%ecx),%edx
    3937:	8b 4d 14             	mov    0x14(%ebp),%ecx
    393a:	89 55 e0             	mov    %edx,-0x20(%ebp)
    393d:	85 c9                	test   %ecx,%ecx
    393f:	0f 84 bb 00 00 00    	je     3a00 <audio_pcm_test_format+0x100>
    3945:	8b 7d 14             	mov    0x14(%ebp),%edi
    3948:	8b 0f                	mov    (%edi),%ecx
    394a:	57                   	push   %edi
    394b:	8d 7d e4             	lea    -0x1c(%ebp),%edi
    394e:	6a 00                	push   $0x0
    3950:	6a 00                	push   $0x0
    3952:	57                   	push   %edi
    3953:	8d 7d e0             	lea    -0x20(%ebp),%edi
    3956:	57                   	push   %edi
    3957:	8d 7d dc             	lea    -0x24(%ebp),%edi
    395a:	57                   	push   %edi
    395b:	89 4d e4             	mov    %ecx,-0x1c(%ebp)
    395e:	51                   	push   %ecx
    395f:	52                   	push   %edx
    3960:	50                   	push   %eax
    3961:	6a 04                	push   $0x4
    3963:	68 04 04 00 00       	push   $0x404
    3968:	56                   	push   %esi
    3969:	e8 a2 90 00 00       	call   ca10 <async_req_fast@plt>
    396e:	83 c4 24             	add    $0x24,%esp
    3971:	89 45 d4             	mov    %eax,-0x2c(%ebp)
    3974:	56                   	push   %esi
    3975:	e8 16 91 00 00       	call   ca90 <async_exchange_end@plt>
    397a:	8b 45 d4             	mov    -0x2c(%ebp),%eax
    397d:	83 c4 10             	add    $0x10,%esp
    3980:	85 c0                	test   %eax,%eax
    3982:	74 34                	je     39b8 <audio_pcm_test_format+0xb8>
    3984:	83 f8 fd             	cmp    $0xfffffffd,%eax
    3987:	74 2f                	je     39b8 <audio_pcm_test_format+0xb8>
    3989:	85 db                	test   %ebx,%ebx
    398b:	74 05                	je     3992 <audio_pcm_test_format+0x92>
    398d:	8b 55 dc             	mov    -0x24(%ebp),%edx
    3990:	89 13                	mov    %edx,(%ebx)
    3992:	8b 4d 10             	mov    0x10(%ebp),%ecx
    3995:	85 c9                	test   %ecx,%ecx
    3997:	74 08                	je     39a1 <audio_pcm_test_format+0xa1>
    3999:	8b 55 e0             	mov    -0x20(%ebp),%edx
    399c:	8b 75 10             	mov    0x10(%ebp),%esi
    399f:	89 16                	mov    %edx,(%esi)
    39a1:	8b 55 14             	mov    0x14(%ebp),%edx
    39a4:	85 d2                	test   %edx,%edx
    39a6:	74 08                	je     39b0 <audio_pcm_test_format+0xb0>
    39a8:	8b 4d 14             	mov    0x14(%ebp),%ecx
    39ab:	8b 55 e4             	mov    -0x1c(%ebp),%edx
    39ae:	89 11                	mov    %edx,(%ecx)
    39b0:	8d 65 f4             	lea    -0xc(%ebp),%esp
    39b3:	5b                   	pop    %ebx
    39b4:	5e                   	pop    %esi
    39b5:	5f                   	pop    %edi
    39b6:	5d                   	pop    %ebp
    39b7:	c3                   	ret    
    39b8:	85 db                	test   %ebx,%ebx
    39ba:	74 07                	je     39c3 <audio_pcm_test_format+0xc3>
    39bc:	8b 55 dc             	mov    -0x24(%ebp),%edx
    39bf:	39 13                	cmp    %edx,(%ebx)
    39c1:	75 cd                	jne    3990 <audio_pcm_test_format+0x90>
    39c3:	8b 7d 10             	mov    0x10(%ebp),%edi
    39c6:	85 ff                	test   %edi,%edi
    39c8:	74 3e                	je     3a08 <audio_pcm_test_format+0x108>
    39ca:	8b 75 10             	mov    0x10(%ebp),%esi
    39cd:	8b 55 e0             	mov    -0x20(%ebp),%edx
    39d0:	39 16                	cmp    %edx,(%esi)
    39d2:	74 34                	je     3a08 <audio_pcm_test_format+0x108>
    39d4:	85 db                	test   %ebx,%ebx
    39d6:	75 b5                	jne    398d <audio_pcm_test_format+0x8d>
    39d8:	eb c5                	jmp    399f <audio_pcm_test_format+0x9f>
    39da:	8d b6 00 00 00 00    	lea    0x0(%esi),%esi
    39e0:	31 c0                	xor    %eax,%eax
    39e2:	8b 7d 10             	mov    0x10(%ebp),%edi
    39e5:	89 45 dc             	mov    %eax,-0x24(%ebp)
    39e8:	85 ff                	test   %edi,%edi
    39ea:	0f 85 42 ff ff ff    	jne    3932 <audio_pcm_test_format+0x32>
    39f0:	31 d2                	xor    %edx,%edx
    39f2:	8b 4d 14             	mov    0x14(%ebp),%ecx
    39f5:	89 55 e0             	mov    %edx,-0x20(%ebp)
    39f8:	85 c9                	test   %ecx,%ecx
    39fa:	0f 85 45 ff ff ff    	jne    3945 <audio_pcm_test_format+0x45>
    3a00:	31 c9                	xor    %ecx,%ecx
    3a02:	e9 43 ff ff ff       	jmp    394a <audio_pcm_test_format+0x4a>
    3a07:	90                   	nop
    3a08:	8b 75 14             	mov    0x14(%ebp),%esi
    3a0b:	85 f6                	test   %esi,%esi
    3a0d:	74 0e                	je     3a1d <audio_pcm_test_format+0x11d>
    3a0f:	8b 75 14             	mov    0x14(%ebp),%esi
    3a12:	8b 4d e4             	mov    -0x1c(%ebp),%ecx
    3a15:	39 0e                	cmp    %ecx,(%esi)
    3a17:	0f 85 6c ff ff ff    	jne    3989 <audio_pcm_test_format+0x89>
    3a1d:	31 c0                	xor    %eax,%eax
    3a1f:	eb 8f                	jmp    39b0 <audio_pcm_test_format+0xb0>
    3a21:	eb 0d                	jmp    3a30 <audio_pcm_register_event_callback>
    3a23:	90                   	nop
    3a24:	90                   	nop
    3a25:	90                   	nop
    3a26:	90                   	nop
    3a27:	90                   	nop
    3a28:	90                   	nop
    3a29:	90                   	nop
    3a2a:	90                   	nop
    3a2b:	90                   	nop
    3a2c:	90                   	nop
    3a2d:	90                   	nop
    3a2e:	90                   	nop
    3a2f:	90                   	nop

00003a30 <audio_pcm_register_event_callback>:
    3a30:	55                   	push   %ebp
    3a31:	89 e5                	mov    %esp,%ebp
    3a33:	56                   	push   %esi
    3a34:	53                   	push   %ebx
    3a35:	83 ec 20             	sub    $0x20,%esp
    3a38:	8b 75 0c             	mov    0xc(%ebp),%esi
    3a3b:	85 f6                	test   %esi,%esi
    3a3d:	74 71                	je     3ab0 <audio_pcm_register_event_callback+0x80>
    3a3f:	83 ec 0c             	sub    $0xc,%esp
    3a42:	8b 4d 08             	mov    0x8(%ebp),%ecx
    3a45:	51                   	push   %ecx
    3a46:	e8 85 92 00 00       	call   ccd0 <async_exchange_begin@plt>
    3a4b:	83 c4 0c             	add    $0xc,%esp
    3a4e:	89 c3                	mov    %eax,%ebx
    3a50:	6a 00                	push   $0x0
    3a52:	6a 00                	push   $0x0
    3a54:	6a 00                	push   $0x0
    3a56:	6a 00                	push   $0x0
    3a58:	6a 00                	push   $0x0
    3a5a:	6a 00                	push   $0x0
    3a5c:	6a 00                	push   $0x0
    3a5e:	6a 00                	push   $0x0
    3a60:	6a 02                	push   $0x2
    3a62:	68 04 04 00 00       	push   $0x404
    3a67:	50                   	push   %eax
    3a68:	e8 a3 8f 00 00       	call   ca10 <async_req_fast@plt>
    3a6d:	83 c4 30             	add    $0x30,%esp
    3a70:	85 c0                	test   %eax,%eax
    3a72:	74 1c                	je     3a90 <audio_pcm_register_event_callback+0x60>
    3a74:	83 ec 0c             	sub    $0xc,%esp
    3a77:	89 45 e4             	mov    %eax,-0x1c(%ebp)
    3a7a:	53                   	push   %ebx
    3a7b:	e8 10 90 00 00       	call   ca90 <async_exchange_end@plt>
    3a80:	83 c4 10             	add    $0x10,%esp
    3a83:	8b 45 e4             	mov    -0x1c(%ebp),%eax
    3a86:	8d 65 f8             	lea    -0x8(%ebp),%esp
    3a89:	5b                   	pop    %ebx
    3a8a:	5e                   	pop    %esi
    3a8b:	5d                   	pop    %ebp
    3a8c:	c3                   	ret    
    3a8d:	8d 76 00             	lea    0x0(%esi),%esi
    3a90:	8b 55 10             	mov    0x10(%ebp),%edx
    3a93:	50                   	push   %eax
    3a94:	8d 45 f4             	lea    -0xc(%ebp),%eax
    3a97:	50                   	push   %eax
    3a98:	52                   	push   %edx
    3a99:	56                   	push   %esi
    3a9a:	6a 00                	push   $0x0
    3a9c:	6a 00                	push   $0x0
    3a9e:	68 16 86 8f db       	push   $0xdb8f8616
    3aa3:	53                   	push   %ebx
    3aa4:	e8 47 91 00 00       	call   cbf0 <async_create_callback_port@plt>
    3aa9:	83 c4 20             	add    $0x20,%esp
    3aac:	eb c6                	jmp    3a74 <audio_pcm_register_event_callback+0x44>
    3aae:	66 90                	xchg   %ax,%ax
    3ab0:	b8 f2 ff ff ff       	mov    $0xfffffff2,%eax
    3ab5:	eb cf                	jmp    3a86 <audio_pcm_register_event_callback+0x56>
    3ab7:	89 f6                	mov    %esi,%esi
    3ab9:	8d bc 27 00 00 00 00 	lea    0x0(%edi,%eiz,1),%edi

00003ac0 <audio_pcm_unregister_event_callback>:
    3ac0:	55                   	push   %ebp
    3ac1:	89 e5                	mov    %esp,%ebp
    3ac3:	53                   	push   %ebx
    3ac4:	83 ec 20             	sub    $0x20,%esp
    3ac7:	8b 45 08             	mov    0x8(%ebp),%eax
    3aca:	50                   	push   %eax
    3acb:	e8 00 92 00 00       	call   ccd0 <async_exchange_begin@plt>
    3ad0:	83 c4 0c             	add    $0xc,%esp
    3ad3:	89 c3                	mov    %eax,%ebx
    3ad5:	6a 00                	push   $0x0
    3ad7:	6a 00                	push   $0x0
    3ad9:	6a 00                	push   $0x0
    3adb:	6a 00                	push   $0x0
    3add:	6a 00                	push   $0x0
    3adf:	6a 00                	push   $0x0
    3ae1:	6a 00                	push   $0x0
    3ae3:	6a 00                	push   $0x0
    3ae5:	6a 03                	push   $0x3
    3ae7:	68 04 04 00 00       	push   $0x404
    3aec:	50                   	push   %eax
    3aed:	e8 1e 8f 00 00       	call   ca10 <async_req_fast@plt>
    3af2:	83 c4 24             	add    $0x24,%esp
    3af5:	89 45 f4             	mov    %eax,-0xc(%ebp)
    3af8:	53                   	push   %ebx
    3af9:	e8 92 8f 00 00       	call   ca90 <async_exchange_end@plt>
    3afe:	8b 45 f4             	mov    -0xc(%ebp),%eax
    3b01:	8b 5d fc             	mov    -0x4(%ebp),%ebx
    3b04:	c9                   	leave  
    3b05:	c3                   	ret    
    3b06:	8d 76 00             	lea    0x0(%esi),%esi
    3b09:	8d bc 27 00 00 00 00 	lea    0x0(%edi,%eiz,1),%edi

00003b10 <audio_pcm_get_buffer>:
    3b10:	55                   	push   %ebp
    3b11:	89 e5                	mov    %esp,%ebp
    3b13:	57                   	push   %edi
    3b14:	56                   	push   %esi
    3b15:	53                   	push   %ebx
    3b16:	83 ec 2c             	sub    $0x2c,%esp
    3b19:	8b 75 0c             	mov    0xc(%ebp),%esi
    3b1c:	8b 5d 10             	mov    0x10(%ebp),%ebx
    3b1f:	85 f6                	test   %esi,%esi
    3b21:	0f 84 91 00 00 00    	je     3bb8 <audio_pcm_get_buffer+0xa8>
    3b27:	85 db                	test   %ebx,%ebx
    3b29:	0f 84 89 00 00 00    	je     3bb8 <audio_pcm_get_buffer+0xa8>
    3b2f:	83 ec 0c             	sub    $0xc,%esp
    3b32:	8b 55 08             	mov    0x8(%ebp),%edx
    3b35:	52                   	push   %edx
    3b36:	e8 95 91 00 00       	call   ccd0 <async_exchange_begin@plt>
    3b3b:	83 c4 0c             	add    $0xc,%esp
    3b3e:	89 c7                	mov    %eax,%edi
    3b40:	8d 55 e0             	lea    -0x20(%ebp),%edx
    3b43:	8b 03                	mov    (%ebx),%eax
    3b45:	89 45 e0             	mov    %eax,-0x20(%ebp)
    3b48:	6a 00                	push   $0x0
    3b4a:	6a 00                	push   $0x0
    3b4c:	6a 00                	push   $0x0
    3b4e:	6a 00                	push   $0x0
    3b50:	52                   	push   %edx
    3b51:	6a 00                	push   $0x0
    3b53:	6a 00                	push   $0x0
    3b55:	50                   	push   %eax
    3b56:	6a 05                	push   $0x5
    3b58:	68 04 04 00 00       	push   $0x404
    3b5d:	57                   	push   %edi
    3b5e:	e8 ad 8e 00 00       	call   ca10 <async_req_fast@plt>
    3b63:	83 c4 30             	add    $0x30,%esp
    3b66:	85 c0                	test   %eax,%eax
    3b68:	75 2d                	jne    3b97 <audio_pcm_get_buffer+0x87>
    3b6a:	83 ec 0c             	sub    $0xc,%esp
    3b6d:	8d 45 e4             	lea    -0x1c(%ebp),%eax
    3b70:	c7 45 e4 00 00 00 00 	movl   $0x0,-0x1c(%ebp)
    3b77:	50                   	push   %eax
    3b78:	8b 45 e0             	mov    -0x20(%ebp),%eax
    3b7b:	6a 00                	push   $0x0
    3b7d:	6a 00                	push   $0x0
    3b7f:	50                   	push   %eax
    3b80:	57                   	push   %edi
    3b81:	e8 1a 8e 00 00       	call   c9a0 <async_share_in_start@plt>
    3b86:	83 c4 20             	add    $0x20,%esp
    3b89:	85 c0                	test   %eax,%eax
    3b8b:	75 0a                	jne    3b97 <audio_pcm_get_buffer+0x87>
    3b8d:	8b 55 e4             	mov    -0x1c(%ebp),%edx
    3b90:	89 16                	mov    %edx,(%esi)
    3b92:	8b 55 e0             	mov    -0x20(%ebp),%edx
    3b95:	89 13                	mov    %edx,(%ebx)
    3b97:	83 ec 0c             	sub    $0xc,%esp
    3b9a:	89 45 d4             	mov    %eax,-0x2c(%ebp)
    3b9d:	57                   	push   %edi
    3b9e:	e8 ed 8e 00 00       	call   ca90 <async_exchange_end@plt>
    3ba3:	83 c4 10             	add    $0x10,%esp
    3ba6:	8b 45 d4             	mov    -0x2c(%ebp),%eax
    3ba9:	8d 65 f4             	lea    -0xc(%ebp),%esp
    3bac:	5b                   	pop    %ebx
    3bad:	5e                   	pop    %esi
    3bae:	5f                   	pop    %edi
    3baf:	5d                   	pop    %ebp
    3bb0:	c3                   	ret    
    3bb1:	8d b4 26 00 00 00 00 	lea    0x0(%esi,%eiz,1),%esi
    3bb8:	b8 f2 ff ff ff       	mov    $0xfffffff2,%eax
    3bbd:	eb ea                	jmp    3ba9 <audio_pcm_get_buffer+0x99>
    3bbf:	90                   	nop

00003bc0 <audio_pcm_release_buffer>:
    3bc0:	55                   	push   %ebp
    3bc1:	89 e5                	mov    %esp,%ebp
    3bc3:	53                   	push   %ebx
    3bc4:	83 ec 20             	sub    $0x20,%esp
    3bc7:	8b 45 08             	mov    0x8(%ebp),%eax
    3bca:	50                   	push   %eax
    3bcb:	e8 00 91 00 00       	call   ccd0 <async_exchange_begin@plt>
    3bd0:	83 c4 0c             	add    $0xc,%esp
    3bd3:	89 c3                	mov    %eax,%ebx
    3bd5:	6a 00                	push   $0x0
    3bd7:	6a 00                	push   $0x0
    3bd9:	6a 00                	push   $0x0
    3bdb:	6a 00                	push   $0x0
    3bdd:	6a 00                	push   $0x0
    3bdf:	6a 00                	push   $0x0
    3be1:	6a 00                	push   $0x0
    3be3:	6a 00                	push   $0x0
    3be5:	6a 06                	push   $0x6
    3be7:	68 04 04 00 00       	push   $0x404
    3bec:	50                   	push   %eax
    3bed:	e8 1e 8e 00 00       	call   ca10 <async_req_fast@plt>
    3bf2:	83 c4 24             	add    $0x24,%esp
    3bf5:	89 45 f4             	mov    %eax,-0xc(%ebp)
    3bf8:	53                   	push   %ebx
    3bf9:	e8 92 8e 00 00       	call   ca90 <async_exchange_end@plt>
    3bfe:	8b 45 f4             	mov    -0xc(%ebp),%eax
    3c01:	8b 5d fc             	mov    -0x4(%ebp),%ebx
    3c04:	c9                   	leave  
    3c05:	c3                   	ret    
    3c06:	8d 76 00             	lea    0x0(%esi),%esi
    3c09:	8d bc 27 00 00 00 00 	lea    0x0(%edi,%eiz,1),%edi

00003c10 <audio_pcm_start_playback_fragment>:
    3c10:	55                   	push   %ebp
    3c11:	89 e5                	mov    %esp,%ebp
    3c13:	56                   	push   %esi
    3c14:	53                   	push   %ebx
    3c15:	83 ec 10             	sub    $0x10,%esp
    3c18:	81 7d 10 ff ff 00 00 	cmpl   $0xffff,0x10(%ebp)
    3c1f:	77 5f                	ja     3c80 <audio_pcm_start_playback_fragment+0x70>
    3c21:	f7 45 18 00 00 ff ff 	testl  $0xffff0000,0x18(%ebp)
    3c28:	75 5d                	jne    3c87 <audio_pcm_start_playback_fragment+0x77>
    3c2a:	83 ec 0c             	sub    $0xc,%esp
    3c2d:	8b 5d 10             	mov    0x10(%ebp),%ebx
    3c30:	8b 55 08             	mov    0x8(%ebp),%edx
    3c33:	8b 45 18             	mov    0x18(%ebp),%eax
    3c36:	c1 e3 10             	shl    $0x10,%ebx
    3c39:	52                   	push   %edx
    3c3a:	09 c3                	or     %eax,%ebx
    3c3c:	e8 8f 90 00 00       	call   ccd0 <async_exchange_begin@plt>
    3c41:	83 c4 0c             	add    $0xc,%esp
    3c44:	8b 4d 14             	mov    0x14(%ebp),%ecx
    3c47:	89 c6                	mov    %eax,%esi
    3c49:	6a 00                	push   $0x0
    3c4b:	6a 00                	push   $0x0
    3c4d:	6a 00                	push   $0x0
    3c4f:	6a 00                	push   $0x0
    3c51:	6a 00                	push   $0x0
    3c53:	53                   	push   %ebx
    3c54:	8b 5d 0c             	mov    0xc(%ebp),%ebx
    3c57:	51                   	push   %ecx
    3c58:	53                   	push   %ebx
    3c59:	6a 08                	push   $0x8
    3c5b:	68 04 04 00 00       	push   $0x404
    3c60:	50                   	push   %eax
    3c61:	e8 aa 8d 00 00       	call   ca10 <async_req_fast@plt>
    3c66:	83 c4 24             	add    $0x24,%esp
    3c69:	56                   	push   %esi
    3c6a:	89 45 f4             	mov    %eax,-0xc(%ebp)
    3c6d:	e8 1e 8e 00 00       	call   ca90 <async_exchange_end@plt>
    3c72:	83 c4 10             	add    $0x10,%esp
    3c75:	8b 45 f4             	mov    -0xc(%ebp),%eax
    3c78:	8d 65 f8             	lea    -0x8(%ebp),%esp
    3c7b:	5b                   	pop    %ebx
    3c7c:	5e                   	pop    %esi
    3c7d:	5d                   	pop    %ebp
    3c7e:	c3                   	ret    
    3c7f:	90                   	nop
    3c80:	b8 f2 ff ff ff       	mov    $0xfffffff2,%eax
    3c85:	eb f1                	jmp    3c78 <audio_pcm_start_playback_fragment+0x68>
    3c87:	56                   	push   %esi
    3c88:	68 a6 01 00 00       	push   $0x1a6
    3c8d:	68 98 af 00 00       	push   $0xaf98
    3c92:	68 00 b1 00 00       	push   $0xb100
    3c97:	e8 04 8e 00 00       	call   caa0 <assert_abort@plt>
    3c9c:	8d 74 26 00          	lea    0x0(%esi,%eiz,1),%esi

00003ca0 <audio_pcm_last_playback_fragment>:
    3ca0:	55                   	push   %ebp
    3ca1:	89 e5                	mov    %esp,%ebp
    3ca3:	53                   	push   %ebx
    3ca4:	83 ec 20             	sub    $0x20,%esp
    3ca7:	8b 45 08             	mov    0x8(%ebp),%eax
    3caa:	50                   	push   %eax
    3cab:	e8 20 90 00 00       	call   ccd0 <async_exchange_begin@plt>
    3cb0:	83 c4 0c             	add    $0xc,%esp
    3cb3:	89 c3                	mov    %eax,%ebx
    3cb5:	6a 00                	push   $0x0
    3cb7:	6a 00                	push   $0x0
    3cb9:	6a 00                	push   $0x0
    3cbb:	6a 00                	push   $0x0
    3cbd:	6a 00                	push   $0x0
    3cbf:	6a 00                	push   $0x0
    3cc1:	6a 00                	push   $0x0
    3cc3:	6a 00                	push   $0x0
    3cc5:	6a 09                	push   $0x9
    3cc7:	68 04 04 00 00       	push   $0x404
    3ccc:	50                   	push   %eax
    3ccd:	e8 3e 8d 00 00       	call   ca10 <async_req_fast@plt>
    3cd2:	83 c4 24             	add    $0x24,%esp
    3cd5:	89 45 f4             	mov    %eax,-0xc(%ebp)
    3cd8:	53                   	push   %ebx
    3cd9:	e8 b2 8d 00 00       	call   ca90 <async_exchange_end@plt>
    3cde:	8b 45 f4             	mov    -0xc(%ebp),%eax
    3ce1:	8b 5d fc             	mov    -0x4(%ebp),%ebx
    3ce4:	c9                   	leave  
    3ce5:	c3                   	ret    
    3ce6:	8d 76 00             	lea    0x0(%esi),%esi
    3ce9:	8d bc 27 00 00 00 00 	lea    0x0(%edi,%eiz,1),%edi

00003cf0 <audio_pcm_start_playback>:
    3cf0:	55                   	push   %ebp
    3cf1:	89 e5                	mov    %esp,%ebp
    3cf3:	56                   	push   %esi
    3cf4:	53                   	push   %ebx
    3cf5:	83 ec 10             	sub    $0x10,%esp
    3cf8:	81 7d 0c ff ff 00 00 	cmpl   $0xffff,0xc(%ebp)
    3cff:	77 5f                	ja     3d60 <audio_pcm_start_playback+0x70>
    3d01:	f7 45 14 00 00 ff ff 	testl  $0xffff0000,0x14(%ebp)
    3d08:	75 5d                	jne    3d67 <audio_pcm_start_playback+0x77>
    3d0a:	83 ec 0c             	sub    $0xc,%esp
    3d0d:	8b 5d 0c             	mov    0xc(%ebp),%ebx
    3d10:	8b 55 08             	mov    0x8(%ebp),%edx
    3d13:	8b 45 14             	mov    0x14(%ebp),%eax
    3d16:	c1 e3 10             	shl    $0x10,%ebx
    3d19:	52                   	push   %edx
    3d1a:	09 c3                	or     %eax,%ebx
    3d1c:	e8 af 8f 00 00       	call   ccd0 <async_exchange_begin@plt>
    3d21:	83 c4 0c             	add    $0xc,%esp
    3d24:	8b 4d 10             	mov    0x10(%ebp),%ecx
    3d27:	89 c6                	mov    %eax,%esi
    3d29:	6a 00                	push   $0x0
    3d2b:	6a 00                	push   $0x0
    3d2d:	6a 00                	push   $0x0
    3d2f:	6a 00                	push   $0x0
    3d31:	6a 00                	push   $0x0
    3d33:	53                   	push   %ebx
    3d34:	51                   	push   %ecx
    3d35:	6a 00                	push   $0x0
    3d37:	6a 08                	push   $0x8
    3d39:	68 04 04 00 00       	push   $0x404
    3d3e:	50                   	push   %eax
    3d3f:	e8 cc 8c 00 00       	call   ca10 <async_req_fast@plt>
    3d44:	83 c4 24             	add    $0x24,%esp
    3d47:	89 45 f4             	mov    %eax,-0xc(%ebp)
    3d4a:	56                   	push   %esi
    3d4b:	e8 40 8d 00 00       	call   ca90 <async_exchange_end@plt>
    3d50:	83 c4 10             	add    $0x10,%esp
    3d53:	8b 45 f4             	mov    -0xc(%ebp),%eax
    3d56:	8d 65 f8             	lea    -0x8(%ebp),%esp
    3d59:	5b                   	pop    %ebx
    3d5a:	5e                   	pop    %esi
    3d5b:	5d                   	pop    %ebp
    3d5c:	c3                   	ret    
    3d5d:	8d 76 00             	lea    0x0(%esi),%esi
    3d60:	b8 f2 ff ff ff       	mov    $0xfffffff2,%eax
    3d65:	eb ef                	jmp    3d56 <audio_pcm_start_playback+0x66>
    3d67:	53                   	push   %ebx
    3d68:	68 a6 01 00 00       	push   $0x1a6
    3d6d:	68 98 af 00 00       	push   $0xaf98
    3d72:	68 00 b1 00 00       	push   $0xb100
    3d77:	e8 24 8d 00 00       	call   caa0 <assert_abort@plt>
    3d7c:	8d 74 26 00          	lea    0x0(%esi,%eiz,1),%esi

00003d80 <audio_pcm_stop_playback_immediate>:
    3d80:	55                   	push   %ebp
    3d81:	89 e5                	mov    %esp,%ebp
    3d83:	53                   	push   %ebx
    3d84:	83 ec 20             	sub    $0x20,%esp
    3d87:	8b 45 08             	mov    0x8(%ebp),%eax
    3d8a:	50                   	push   %eax
    3d8b:	e8 40 8f 00 00       	call   ccd0 <async_exchange_begin@plt>
    3d90:	83 c4 0c             	add    $0xc,%esp
    3d93:	89 c3                	mov    %eax,%ebx
    3d95:	6a 00                	push   $0x0
    3d97:	6a 00                	push   $0x0
    3d99:	6a 00                	push   $0x0
    3d9b:	6a 00                	push   $0x0
    3d9d:	6a 00                	push   $0x0
    3d9f:	6a 00                	push   $0x0
    3da1:	6a 00                	push   $0x0
    3da3:	6a 01                	push   $0x1
    3da5:	6a 09                	push   $0x9
    3da7:	68 04 04 00 00       	push   $0x404
    3dac:	50                   	push   %eax
    3dad:	e8 5e 8c 00 00       	call   ca10 <async_req_fast@plt>
    3db2:	83 c4 24             	add    $0x24,%esp
    3db5:	89 45 f4             	mov    %eax,-0xc(%ebp)
    3db8:	53                   	push   %ebx
    3db9:	e8 d2 8c 00 00       	call   ca90 <async_exchange_end@plt>
    3dbe:	8b 45 f4             	mov    -0xc(%ebp),%eax
    3dc1:	8b 5d fc             	mov    -0x4(%ebp),%ebx
    3dc4:	c9                   	leave  
    3dc5:	c3                   	ret    
    3dc6:	8d 76 00             	lea    0x0(%esi),%esi
    3dc9:	8d bc 27 00 00 00 00 	lea    0x0(%edi,%eiz,1),%edi

00003dd0 <audio_pcm_stop_playback>:
    3dd0:	55                   	push   %ebp
    3dd1:	89 e5                	mov    %esp,%ebp
    3dd3:	53                   	push   %ebx
    3dd4:	83 ec 20             	sub    $0x20,%esp
    3dd7:	8b 45 08             	mov    0x8(%ebp),%eax
    3dda:	50                   	push   %eax
    3ddb:	e8 f0 8e 00 00       	call   ccd0 <async_exchange_begin@plt>
    3de0:	83 c4 0c             	add    $0xc,%esp
    3de3:	89 c3                	mov    %eax,%ebx
    3de5:	6a 00                	push   $0x0
    3de7:	6a 00                	push   $0x0
    3de9:	6a 00                	push   $0x0
    3deb:	6a 00                	push   $0x0
    3ded:	6a 00                	push   $0x0
    3def:	6a 00                	push   $0x0
    3df1:	6a 00                	push   $0x0
    3df3:	6a 00                	push   $0x0
    3df5:	6a 09                	push   $0x9
    3df7:	68 04 04 00 00       	push   $0x404
    3dfc:	50                   	push   %eax
    3dfd:	e8 0e 8c 00 00       	call   ca10 <async_req_fast@plt>
    3e02:	83 c4 24             	add    $0x24,%esp
    3e05:	89 45 f4             	mov    %eax,-0xc(%ebp)
    3e08:	53                   	push   %ebx
    3e09:	e8 82 8c 00 00       	call   ca90 <async_exchange_end@plt>
    3e0e:	8b 45 f4             	mov    -0xc(%ebp),%eax
    3e11:	8b 5d fc             	mov    -0x4(%ebp),%ebx
    3e14:	c9                   	leave  
    3e15:	c3                   	ret    
    3e16:	8d 76 00             	lea    0x0(%esi),%esi
    3e19:	8d bc 27 00 00 00 00 	lea    0x0(%edi,%eiz,1),%edi

00003e20 <audio_pcm_start_capture_fragment>:
    3e20:	55                   	push   %ebp
    3e21:	89 e5                	mov    %esp,%ebp
    3e23:	56                   	push   %esi
    3e24:	53                   	push   %ebx
    3e25:	83 ec 10             	sub    $0x10,%esp
    3e28:	81 7d 10 ff ff 00 00 	cmpl   $0xffff,0x10(%ebp)
    3e2f:	77 5f                	ja     3e90 <audio_pcm_start_capture_fragment+0x70>
    3e31:	f7 45 18 00 00 ff ff 	testl  $0xffff0000,0x18(%ebp)
    3e38:	75 5d                	jne    3e97 <audio_pcm_start_capture_fragment+0x77>
    3e3a:	83 ec 0c             	sub    $0xc,%esp
    3e3d:	8b 5d 10             	mov    0x10(%ebp),%ebx
    3e40:	8b 55 08             	mov    0x8(%ebp),%edx
    3e43:	8b 45 18             	mov    0x18(%ebp),%eax
    3e46:	c1 e3 10             	shl    $0x10,%ebx
    3e49:	52                   	push   %edx
    3e4a:	09 c3                	or     %eax,%ebx
    3e4c:	e8 7f 8e 00 00       	call   ccd0 <async_exchange_begin@plt>
    3e51:	83 c4 0c             	add    $0xc,%esp
    3e54:	8b 4d 14             	mov    0x14(%ebp),%ecx
    3e57:	89 c6                	mov    %eax,%esi
    3e59:	6a 00                	push   $0x0
    3e5b:	6a 00                	push   $0x0
    3e5d:	6a 00                	push   $0x0
    3e5f:	6a 00                	push   $0x0
    3e61:	6a 00                	push   $0x0
    3e63:	53                   	push   %ebx
    3e64:	8b 5d 0c             	mov    0xc(%ebp),%ebx
    3e67:	51                   	push   %ecx
    3e68:	53                   	push   %ebx
    3e69:	6a 0a                	push   $0xa
    3e6b:	68 04 04 00 00       	push   $0x404
    3e70:	50                   	push   %eax
    3e71:	e8 9a 8b 00 00       	call   ca10 <async_req_fast@plt>
    3e76:	83 c4 24             	add    $0x24,%esp
    3e79:	56                   	push   %esi
    3e7a:	89 45 f4             	mov    %eax,-0xc(%ebp)
    3e7d:	e8 0e 8c 00 00       	call   ca90 <async_exchange_end@plt>
    3e82:	83 c4 10             	add    $0x10,%esp
    3e85:	8b 45 f4             	mov    -0xc(%ebp),%eax
    3e88:	8d 65 f8             	lea    -0x8(%ebp),%esp
    3e8b:	5b                   	pop    %ebx
    3e8c:	5e                   	pop    %esi
    3e8d:	5d                   	pop    %ebp
    3e8e:	c3                   	ret    
    3e8f:	90                   	nop
    3e90:	b8 f2 ff ff ff       	mov    $0xfffffff2,%eax
    3e95:	eb f1                	jmp    3e88 <audio_pcm_start_capture_fragment+0x68>
    3e97:	56                   	push   %esi
    3e98:	68 07 02 00 00       	push   $0x207
    3e9d:	68 98 af 00 00       	push   $0xaf98
    3ea2:	68 00 b1 00 00       	push   $0xb100
    3ea7:	e8 f4 8b 00 00       	call   caa0 <assert_abort@plt>
    3eac:	8d 74 26 00          	lea    0x0(%esi,%eiz,1),%esi

00003eb0 <audio_pcm_start_capture>:
    3eb0:	55                   	push   %ebp
    3eb1:	89 e5                	mov    %esp,%ebp
    3eb3:	56                   	push   %esi
    3eb4:	53                   	push   %ebx
    3eb5:	83 ec 10             	sub    $0x10,%esp
    3eb8:	81 7d 0c ff ff 00 00 	cmpl   $0xffff,0xc(%ebp)
    3ebf:	77 5f                	ja     3f20 <audio_pcm_start_capture+0x70>
    3ec1:	f7 45 14 00 00 ff ff 	testl  $0xffff0000,0x14(%ebp)
    3ec8:	75 5d                	jne    3f27 <audio_pcm_start_capture+0x77>
    3eca:	83 ec 0c             	sub    $0xc,%esp
    3ecd:	8b 5d 0c             	mov    0xc(%ebp),%ebx
    3ed0:	8b 55 08             	mov    0x8(%ebp),%edx
    3ed3:	8b 45 14             	mov    0x14(%ebp),%eax
    3ed6:	c1 e3 10             	shl    $0x10,%ebx
    3ed9:	52                   	push   %edx
    3eda:	09 c3                	or     %eax,%ebx
    3edc:	e8 ef 8d 00 00       	call   ccd0 <async_exchange_begin@plt>
    3ee1:	83 c4 0c             	add    $0xc,%esp
    3ee4:	8b 4d 10             	mov    0x10(%ebp),%ecx
    3ee7:	89 c6                	mov    %eax,%esi
    3ee9:	6a 00                	push   $0x0
    3eeb:	6a 00                	push   $0x0
    3eed:	6a 00                	push   $0x0
    3eef:	6a 00                	push   $0x0
    3ef1:	6a 00                	push   $0x0
    3ef3:	53                   	push   %ebx
    3ef4:	51                   	push   %ecx
    3ef5:	6a 00                	push   $0x0
    3ef7:	6a 0a                	push   $0xa
    3ef9:	68 04 04 00 00       	push   $0x404
    3efe:	50                   	push   %eax
    3eff:	e8 0c 8b 00 00       	call   ca10 <async_req_fast@plt>
    3f04:	83 c4 24             	add    $0x24,%esp
    3f07:	89 45 f4             	mov    %eax,-0xc(%ebp)
    3f0a:	56                   	push   %esi
    3f0b:	e8 80 8b 00 00       	call   ca90 <async_exchange_end@plt>
    3f10:	83 c4 10             	add    $0x10,%esp
    3f13:	8b 45 f4             	mov    -0xc(%ebp),%eax
    3f16:	8d 65 f8             	lea    -0x8(%ebp),%esp
    3f19:	5b                   	pop    %ebx
    3f1a:	5e                   	pop    %esi
    3f1b:	5d                   	pop    %ebp
    3f1c:	c3                   	ret    
    3f1d:	8d 76 00             	lea    0x0(%esi),%esi
    3f20:	b8 f2 ff ff ff       	mov    $0xfffffff2,%eax
    3f25:	eb ef                	jmp    3f16 <audio_pcm_start_capture+0x66>
    3f27:	53                   	push   %ebx
    3f28:	68 07 02 00 00       	push   $0x207
    3f2d:	68 98 af 00 00       	push   $0xaf98
    3f32:	68 00 b1 00 00       	push   $0xb100
    3f37:	e8 64 8b 00 00       	call   caa0 <assert_abort@plt>
    3f3c:	8d 74 26 00          	lea    0x0(%esi,%eiz,1),%esi

00003f40 <audio_pcm_last_capture_fragment>:
    3f40:	55                   	push   %ebp
    3f41:	89 e5                	mov    %esp,%ebp
    3f43:	53                   	push   %ebx
    3f44:	83 ec 20             	sub    $0x20,%esp
    3f47:	8b 45 08             	mov    0x8(%ebp),%eax
    3f4a:	50                   	push   %eax
    3f4b:	e8 80 8d 00 00       	call   ccd0 <async_exchange_begin@plt>
    3f50:	83 c4 0c             	add    $0xc,%esp
    3f53:	89 c3                	mov    %eax,%ebx
    3f55:	6a 00                	push   $0x0
    3f57:	6a 00                	push   $0x0
    3f59:	6a 00                	push   $0x0
    3f5b:	6a 00                	push   $0x0
    3f5d:	6a 00                	push   $0x0
    3f5f:	6a 00                	push   $0x0
    3f61:	6a 00                	push   $0x0
    3f63:	6a 00                	push   $0x0
    3f65:	6a 0b                	push   $0xb
    3f67:	68 04 04 00 00       	push   $0x404
    3f6c:	50                   	push   %eax
    3f6d:	e8 9e 8a 00 00       	call   ca10 <async_req_fast@plt>
    3f72:	83 c4 24             	add    $0x24,%esp
    3f75:	89 45 f4             	mov    %eax,-0xc(%ebp)
    3f78:	53                   	push   %ebx
    3f79:	e8 12 8b 00 00       	call   ca90 <async_exchange_end@plt>
    3f7e:	8b 45 f4             	mov    -0xc(%ebp),%eax
    3f81:	8b 5d fc             	mov    -0x4(%ebp),%ebx
    3f84:	c9                   	leave  
    3f85:	c3                   	ret    
    3f86:	8d 76 00             	lea    0x0(%esi),%esi
    3f89:	8d bc 27 00 00 00 00 	lea    0x0(%edi,%eiz,1),%edi

00003f90 <audio_pcm_stop_capture_immediate>:
    3f90:	55                   	push   %ebp
    3f91:	89 e5                	mov    %esp,%ebp
    3f93:	53                   	push   %ebx
    3f94:	83 ec 20             	sub    $0x20,%esp
    3f97:	8b 45 08             	mov    0x8(%ebp),%eax
    3f9a:	50                   	push   %eax
    3f9b:	e8 30 8d 00 00       	call   ccd0 <async_exchange_begin@plt>
    3fa0:	83 c4 0c             	add    $0xc,%esp
    3fa3:	89 c3                	mov    %eax,%ebx
    3fa5:	6a 00                	push   $0x0
    3fa7:	6a 00                	push   $0x0
    3fa9:	6a 00                	push   $0x0
    3fab:	6a 00                	push   $0x0
    3fad:	6a 00                	push   $0x0
    3faf:	6a 00                	push   $0x0
    3fb1:	6a 00                	push   $0x0
    3fb3:	6a 01                	push   $0x1
    3fb5:	6a 0b                	push   $0xb
    3fb7:	68 04 04 00 00       	push   $0x404
    3fbc:	50                   	push   %eax
    3fbd:	e8 4e 8a 00 00       	call   ca10 <async_req_fast@plt>
    3fc2:	83 c4 24             	add    $0x24,%esp
    3fc5:	89 45 f4             	mov    %eax,-0xc(%ebp)
    3fc8:	53                   	push   %ebx
    3fc9:	e8 c2 8a 00 00       	call   ca90 <async_exchange_end@plt>
    3fce:	8b 45 f4             	mov    -0xc(%ebp),%eax
    3fd1:	8b 5d fc             	mov    -0x4(%ebp),%ebx
    3fd4:	c9                   	leave  
    3fd5:	c3                   	ret    
    3fd6:	8d 76 00             	lea    0x0(%esi),%esi
    3fd9:	8d bc 27 00 00 00 00 	lea    0x0(%edi,%eiz,1),%edi

00003fe0 <audio_pcm_stop_capture>:
    3fe0:	55                   	push   %ebp
    3fe1:	89 e5                	mov    %esp,%ebp
    3fe3:	53                   	push   %ebx
    3fe4:	83 ec 20             	sub    $0x20,%esp
    3fe7:	8b 45 08             	mov    0x8(%ebp),%eax
    3fea:	50                   	push   %eax
    3feb:	e8 e0 8c 00 00       	call   ccd0 <async_exchange_begin@plt>
    3ff0:	83 c4 0c             	add    $0xc,%esp
    3ff3:	89 c3                	mov    %eax,%ebx
    3ff5:	6a 00                	push   $0x0
    3ff7:	6a 00                	push   $0x0
    3ff9:	6a 00                	push   $0x0
    3ffb:	6a 00                	push   $0x0
    3ffd:	6a 00                	push   $0x0
    3fff:	6a 00                	push   $0x0
    4001:	6a 00                	push   $0x0
    4003:	6a 00                	push   $0x0
    4005:	6a 0b                	push   $0xb
    4007:	68 04 04 00 00       	push   $0x404
    400c:	50                   	push   %eax
    400d:	e8 fe 89 00 00       	call   ca10 <async_req_fast@plt>
    4012:	83 c4 24             	add    $0x24,%esp
    4015:	89 45 f4             	mov    %eax,-0xc(%ebp)
    4018:	53                   	push   %ebx
    4019:	e8 72 8a 00 00       	call   ca90 <async_exchange_end@plt>
    401e:	8b 45 f4             	mov    -0xc(%ebp),%eax
    4021:	8b 5d fc             	mov    -0x4(%ebp),%ebx
    4024:	c9                   	leave  
    4025:	c3                   	ret    
    4026:	66 90                	xchg   %ax,%ax
    4028:	66 90                	xchg   %ax,%ax
    402a:	66 90                	xchg   %ax,%ax
    402c:	66 90                	xchg   %ax,%ax
    402e:	66 90                	xchg   %ax,%ax

00004030 <remote_hw_res_dma_channel_setup>:
    4030:	55                   	push   %ebp
    4031:	89 e5                	mov    %esp,%ebp
    4033:	57                   	push   %edi
    4034:	56                   	push   %esi
    4035:	53                   	push   %ebx
    4036:	83 ec 0c             	sub    $0xc,%esp
    4039:	8b 45 0c             	mov    0xc(%ebp),%eax
    403c:	8b 75 08             	mov    0x8(%ebp),%esi
    403f:	8b 5d 10             	mov    0x10(%ebp),%ebx
    4042:	8b 55 14             	mov    0x14(%ebp),%edx
    4045:	8b 48 08             	mov    0x8(%eax),%ecx
    4048:	85 c9                	test   %ecx,%ecx
    404a:	74 3c                	je     4088 <remote_hw_res_dma_channel_setup+0x58>
    404c:	8b 42 08             	mov    0x8(%edx),%eax
    404f:	83 ec 0c             	sub    $0xc,%esp
    4052:	89 c7                	mov    %eax,%edi
    4054:	25 ff ff 00 00       	and    $0xffff,%eax
    4059:	c1 ef 10             	shr    $0x10,%edi
    405c:	81 e7 ff 00 00 00    	and    $0xff,%edi
    4062:	57                   	push   %edi
    4063:	8b 7a 10             	mov    0x10(%edx),%edi
    4066:	57                   	push   %edi
    4067:	8b 52 0c             	mov    0xc(%edx),%edx
    406a:	52                   	push   %edx
    406b:	50                   	push   %eax
    406c:	56                   	push   %esi
    406d:	ff d1                	call   *%ecx
    406f:	89 5d 08             	mov    %ebx,0x8(%ebp)
    4072:	89 45 0c             	mov    %eax,0xc(%ebp)
    4075:	83 c4 20             	add    $0x20,%esp
    4078:	8d 65 f4             	lea    -0xc(%ebp),%esp
    407b:	5b                   	pop    %ebx
    407c:	5e                   	pop    %esi
    407d:	5f                   	pop    %edi
    407e:	5d                   	pop    %ebp
    407f:	e9 9c 89 00 00       	jmp    ca20 <async_answer_0@plt>
    4084:	8d 74 26 00          	lea    0x0(%esi,%eiz,1),%esi
    4088:	89 5d 08             	mov    %ebx,0x8(%ebp)
    408b:	c7 45 0c f5 ff ff ff 	movl   $0xfffffff5,0xc(%ebp)
    4092:	8d 65 f4             	lea    -0xc(%ebp),%esp
    4095:	5b                   	pop    %ebx
    4096:	5e                   	pop    %esi
    4097:	5f                   	pop    %edi
    4098:	5d                   	pop    %ebp
    4099:	e9 82 89 00 00       	jmp    ca20 <async_answer_0@plt>
    409e:	66 90                	xchg   %ax,%ax

000040a0 <remote_hw_res_enable_interrupt>:
    40a0:	55                   	push   %ebp
    40a1:	89 e5                	mov    %esp,%ebp
    40a3:	53                   	push   %ebx
    40a4:	50                   	push   %eax
    40a5:	8b 45 0c             	mov    0xc(%ebp),%eax
    40a8:	8b 55 08             	mov    0x8(%ebp),%edx
    40ab:	8b 5d 10             	mov    0x10(%ebp),%ebx
    40ae:	8b 40 04             	mov    0x4(%eax),%eax
    40b1:	85 c0                	test   %eax,%eax
    40b3:	74 3b                	je     40f0 <remote_hw_res_enable_interrupt+0x50>
    40b5:	83 ec 0c             	sub    $0xc,%esp
    40b8:	52                   	push   %edx
    40b9:	ff d0                	call   *%eax
    40bb:	83 c4 10             	add    $0x10,%esp
    40be:	84 c0                	test   %al,%al
    40c0:	75 16                	jne    40d8 <remote_hw_res_enable_interrupt+0x38>
    40c2:	89 5d 08             	mov    %ebx,0x8(%ebp)
    40c5:	8b 5d fc             	mov    -0x4(%ebp),%ebx
    40c8:	c7 45 0c fc ff ff ff 	movl   $0xfffffffc,0xc(%ebp)
    40cf:	c9                   	leave  
    40d0:	e9 4b 89 00 00       	jmp    ca20 <async_answer_0@plt>
    40d5:	8d 76 00             	lea    0x0(%esi),%esi
    40d8:	89 5d 08             	mov    %ebx,0x8(%ebp)
    40db:	8b 5d fc             	mov    -0x4(%ebp),%ebx
    40de:	c7 45 0c 00 00 00 00 	movl   $0x0,0xc(%ebp)
    40e5:	c9                   	leave  
    40e6:	e9 35 89 00 00       	jmp    ca20 <async_answer_0@plt>
    40eb:	90                   	nop
    40ec:	8d 74 26 00          	lea    0x0(%esi,%eiz,1),%esi
    40f0:	89 5d 08             	mov    %ebx,0x8(%ebp)
    40f3:	8b 5d fc             	mov    -0x4(%ebp),%ebx
    40f6:	c7 45 0c f5 ff ff ff 	movl   $0xfffffff5,0xc(%ebp)
    40fd:	c9                   	leave  
    40fe:	e9 1d 89 00 00       	jmp    ca20 <async_answer_0@plt>
    4103:	8d b6 00 00 00 00    	lea    0x0(%esi),%esi
    4109:	8d bc 27 00 00 00 00 	lea    0x0(%edi,%eiz,1),%edi

00004110 <remote_hw_res_dma_channel_remain>:
    4110:	55                   	push   %ebp
    4111:	89 e5                	mov    %esp,%ebp
    4113:	83 ec 18             	sub    $0x18,%esp
    4116:	8b 45 0c             	mov    0xc(%ebp),%eax
    4119:	8b 50 08             	mov    0x8(%eax),%edx
    411c:	85 d2                	test   %edx,%edx
    411e:	74 30                	je     4150 <remote_hw_res_dma_channel_remain+0x40>
    4120:	8b 55 14             	mov    0x14(%ebp),%edx
    4123:	c7 45 f4 00 00 00 00 	movl   $0x0,-0xc(%ebp)
    412a:	8b 52 08             	mov    0x8(%edx),%edx
    412d:	51                   	push   %ecx
    412e:	8d 4d f4             	lea    -0xc(%ebp),%ecx
    4131:	51                   	push   %ecx
    4132:	52                   	push   %edx
    4133:	8b 55 08             	mov    0x8(%ebp),%edx
    4136:	52                   	push   %edx
    4137:	ff 50 0c             	call   *0xc(%eax)
    413a:	83 c4 0c             	add    $0xc,%esp
    413d:	8b 4d f4             	mov    -0xc(%ebp),%ecx
    4140:	51                   	push   %ecx
    4141:	50                   	push   %eax
    4142:	8b 45 10             	mov    0x10(%ebp),%eax
    4145:	50                   	push   %eax
    4146:	e8 75 8b 00 00       	call   ccc0 <async_answer_1@plt>
    414b:	83 c4 10             	add    $0x10,%esp
    414e:	c9                   	leave  
    414f:	c3                   	ret    
    4150:	50                   	push   %eax
    4151:	50                   	push   %eax
    4152:	8b 45 10             	mov    0x10(%ebp),%eax
    4155:	6a f5                	push   $0xfffffff5
    4157:	50                   	push   %eax
    4158:	e8 c3 88 00 00       	call   ca20 <async_answer_0@plt>
    415d:	83 c4 10             	add    $0x10,%esp
    4160:	c9                   	leave  
    4161:	c3                   	ret    
    4162:	8d b4 26 00 00 00 00 	lea    0x0(%esi,%eiz,1),%esi
    4169:	8d bc 27 00 00 00 00 	lea    0x0(%edi,%eiz,1),%edi

00004170 <remote_hw_res_get_resource_list>:
    4170:	55                   	push   %ebp
    4171:	89 e5                	mov    %esp,%ebp
    4173:	53                   	push   %ebx
    4174:	83 ec 14             	sub    $0x14,%esp
    4177:	8b 45 0c             	mov    0xc(%ebp),%eax
    417a:	8b 00                	mov    (%eax),%eax
    417c:	85 c0                	test   %eax,%eax
    417e:	74 40                	je     41c0 <remote_hw_res_get_resource_list+0x50>
    4180:	83 ec 0c             	sub    $0xc,%esp
    4183:	8b 55 08             	mov    0x8(%ebp),%edx
    4186:	52                   	push   %edx
    4187:	ff d0                	call   *%eax
    4189:	83 c4 10             	add    $0x10,%esp
    418c:	89 c3                	mov    %eax,%ebx
    418e:	85 c0                	test   %eax,%eax
    4190:	74 66                	je     41f8 <remote_hw_res_get_resource_list+0x88>
    4192:	50                   	push   %eax
    4193:	8b 03                	mov    (%ebx),%eax
    4195:	50                   	push   %eax
    4196:	8b 45 10             	mov    0x10(%ebp),%eax
    4199:	6a 00                	push   $0x0
    419b:	50                   	push   %eax
    419c:	e8 1f 8b 00 00       	call   ccc0 <async_answer_1@plt>
    41a1:	58                   	pop    %eax
    41a2:	8d 45 f4             	lea    -0xc(%ebp),%eax
    41a5:	5a                   	pop    %edx
    41a6:	50                   	push   %eax
    41a7:	8d 45 10             	lea    0x10(%ebp),%eax
    41aa:	50                   	push   %eax
    41ab:	e8 90 8a 00 00       	call   cc40 <async_data_read_receive@plt>
    41b0:	83 c4 10             	add    $0x10,%esp
    41b3:	84 c0                	test   %al,%al
    41b5:	75 21                	jne    41d8 <remote_hw_res_get_resource_list+0x68>
    41b7:	8b 5d fc             	mov    -0x4(%ebp),%ebx
    41ba:	c9                   	leave  
    41bb:	c3                   	ret    
    41bc:	8d 74 26 00          	lea    0x0(%esi,%eiz,1),%esi
    41c0:	8b 5d 10             	mov    0x10(%ebp),%ebx
    41c3:	51                   	push   %ecx
    41c4:	51                   	push   %ecx
    41c5:	6a f5                	push   $0xfffffff5
    41c7:	53                   	push   %ebx
    41c8:	e8 53 88 00 00       	call   ca20 <async_answer_0@plt>
    41cd:	83 c4 10             	add    $0x10,%esp
    41d0:	8b 5d fc             	mov    -0x4(%ebp),%ebx
    41d3:	c9                   	leave  
    41d4:	c3                   	ret    
    41d5:	8d 76 00             	lea    0x0(%esi),%esi
    41d8:	50                   	push   %eax
    41d9:	8b 55 f4             	mov    -0xc(%ebp),%edx
    41dc:	8b 4b 04             	mov    0x4(%ebx),%ecx
    41df:	8b 5d 10             	mov    0x10(%ebp),%ebx
    41e2:	52                   	push   %edx
    41e3:	51                   	push   %ecx
    41e4:	53                   	push   %ebx
    41e5:	e8 a6 87 00 00       	call   c990 <async_data_read_finalize@plt>
    41ea:	83 c4 10             	add    $0x10,%esp
    41ed:	8b 5d fc             	mov    -0x4(%ebp),%ebx
    41f0:	c9                   	leave  
    41f1:	c3                   	ret    
    41f2:	8d b6 00 00 00 00    	lea    0x0(%esi),%esi
    41f8:	8b 5d 10             	mov    0x10(%ebp),%ebx
    41fb:	51                   	push   %ecx
    41fc:	51                   	push   %ecx
    41fd:	6a ff                	push   $0xffffffff
    41ff:	53                   	push   %ebx
    4200:	e8 1b 88 00 00       	call   ca20 <async_answer_0@plt>
    4205:	83 c4 10             	add    $0x10,%esp
    4208:	8b 5d fc             	mov    -0x4(%ebp),%ebx
    420b:	c9                   	leave  
    420c:	c3                   	ret    
    420d:	66 90                	xchg   %ax,%ax
    420f:	90                   	nop

00004210 <remote_pio_window_get>:
    4210:	55                   	push   %ebp
    4211:	89 e5                	mov    %esp,%ebp
    4213:	53                   	push   %ebx
    4214:	83 ec 14             	sub    $0x14,%esp
    4217:	8b 45 0c             	mov    0xc(%ebp),%eax
    421a:	8b 00                	mov    (%eax),%eax
    421c:	85 c0                	test   %eax,%eax
    421e:	74 40                	je     4260 <remote_pio_window_get+0x50>
    4220:	83 ec 0c             	sub    $0xc,%esp
    4223:	8b 55 08             	mov    0x8(%ebp),%edx
    4226:	52                   	push   %edx
    4227:	ff d0                	call   *%eax
    4229:	83 c4 10             	add    $0x10,%esp
    422c:	89 c3                	mov    %eax,%ebx
    422e:	85 c0                	test   %eax,%eax
    4230:	74 5e                	je     4290 <remote_pio_window_get+0x80>
    4232:	50                   	push   %eax
    4233:	50                   	push   %eax
    4234:	8b 45 10             	mov    0x10(%ebp),%eax
    4237:	6a 00                	push   $0x0
    4239:	50                   	push   %eax
    423a:	e8 e1 87 00 00       	call   ca20 <async_answer_0@plt>
    423f:	58                   	pop    %eax
    4240:	8d 45 f4             	lea    -0xc(%ebp),%eax
    4243:	5a                   	pop    %edx
    4244:	50                   	push   %eax
    4245:	8d 45 10             	lea    0x10(%ebp),%eax
    4248:	50                   	push   %eax
    4249:	e8 f2 89 00 00       	call   cc40 <async_data_read_receive@plt>
    424e:	83 c4 10             	add    $0x10,%esp
    4251:	84 c0                	test   %al,%al
    4253:	75 23                	jne    4278 <remote_pio_window_get+0x68>
    4255:	8b 5d fc             	mov    -0x4(%ebp),%ebx
    4258:	c9                   	leave  
    4259:	c3                   	ret    
    425a:	8d b6 00 00 00 00    	lea    0x0(%esi),%esi
    4260:	8b 5d 10             	mov    0x10(%ebp),%ebx
    4263:	51                   	push   %ecx
    4264:	51                   	push   %ecx
    4265:	6a f5                	push   $0xfffffff5
    4267:	53                   	push   %ebx
    4268:	e8 b3 87 00 00       	call   ca20 <async_answer_0@plt>
    426d:	83 c4 10             	add    $0x10,%esp
    4270:	8b 5d fc             	mov    -0x4(%ebp),%ebx
    4273:	c9                   	leave  
    4274:	c3                   	ret    
    4275:	8d 76 00             	lea    0x0(%esi),%esi
    4278:	8b 55 f4             	mov    -0xc(%ebp),%edx
    427b:	8b 4d 10             	mov    0x10(%ebp),%ecx
    427e:	50                   	push   %eax
    427f:	52                   	push   %edx
    4280:	53                   	push   %ebx
    4281:	51                   	push   %ecx
    4282:	e8 09 87 00 00       	call   c990 <async_data_read_finalize@plt>
    4287:	83 c4 10             	add    $0x10,%esp
    428a:	8b 5d fc             	mov    -0x4(%ebp),%ebx
    428d:	c9                   	leave  
    428e:	c3                   	ret    
    428f:	90                   	nop
    4290:	8b 5d 10             	mov    0x10(%ebp),%ebx
    4293:	51                   	push   %ecx
    4294:	51                   	push   %ecx
    4295:	6a ff                	push   $0xffffffff
    4297:	53                   	push   %ebx
    4298:	e8 83 87 00 00       	call   ca20 <async_answer_0@plt>
    429d:	83 c4 10             	add    $0x10,%esp
    42a0:	8b 5d fc             	mov    -0x4(%ebp),%ebx
    42a3:	c9                   	leave  
    42a4:	c3                   	ret    
    42a5:	66 90                	xchg   %ax,%ax
    42a7:	66 90                	xchg   %ax,%ax
    42a9:	66 90                	xchg   %ax,%ax
    42ab:	66 90                	xchg   %ax,%ax
    42ad:	66 90                	xchg   %ax,%ax
    42af:	90                   	nop

000042b0 <remote_char_write>:
    42b0:	55                   	push   %ebp
    42b1:	89 e5                	mov    %esp,%ebp
    42b3:	56                   	push   %esi
    42b4:	53                   	push   %ebx
    42b5:	81 ec 18 01 00 00    	sub    $0x118,%esp
    42bb:	8d 85 f4 fe ff ff    	lea    -0x10c(%ebp),%eax
    42c1:	8b 5d 0c             	mov    0xc(%ebp),%ebx
    42c4:	50                   	push   %eax
    42c5:	8d 85 f0 fe ff ff    	lea    -0x110(%ebp),%eax
    42cb:	50                   	push   %eax
    42cc:	e8 ef 8a 00 00       	call   cdc0 <async_data_write_receive@plt>
    42d1:	83 c4 10             	add    $0x10,%esp
    42d4:	84 c0                	test   %al,%al
    42d6:	74 70                	je     4348 <remote_char_write+0x98>
    42d8:	8b 73 04             	mov    0x4(%ebx),%esi
