Archive member included to satisfy reference by file (symbol)

../../../lib/drv/libdrv.a(remote_char_dev.o)
                              port/chardev.o (char_dev_write)

Discarded input sections

 .debug_line    0x0000000000000000       0x53 /home/ayyuce/Desktop/HlnOS/HelenOS/uspace/lib/c/arch/ia32/src/entry.o
 .debug_info    0x0000000000000000       0x6c /home/ayyuce/Desktop/HlnOS/HelenOS/uspace/lib/c/arch/ia32/src/entry.o
 .debug_abbrev  0x0000000000000000       0x14 /home/ayyuce/Desktop/HlnOS/HelenOS/uspace/lib/c/arch/ia32/src/entry.o
 .debug_aranges
                0x0000000000000000       0x20 /home/ayyuce/Desktop/HlnOS/HelenOS/uspace/lib/c/arch/ia32/src/entry.o
 .debug_info    0x0000000000000000      0xc60 ctl/serial.o
 .debug_abbrev  0x0000000000000000      0x29a ctl/serial.o
 .debug_loc     0x0000000000000000      0x20c ctl/serial.o
 .debug_aranges
                0x0000000000000000       0x20 ctl/serial.o
 .debug_ranges  0x0000000000000000       0x58 ctl/serial.o
 .debug_line    0x0000000000000000      0x290 ctl/serial.o
 .debug_str     0x0000000000000000      0xbee ctl/serial.o
 .comment       0x0000000000000000       0x12 ctl/serial.o
 .note.GNU-stack
                0x0000000000000000        0x0 ctl/serial.o
 .eh_frame      0x0000000000000000      0x114 ctl/serial.o
 .debug_info    0x0000000000000000      0xcbe port/ega.o
 .debug_abbrev  0x0000000000000000      0x2cb port/ega.o
 .debug_loc     0x0000000000000000      0x396 port/ega.o
 .debug_aranges
                0x0000000000000000       0x20 port/ega.o
 .debug_ranges  0x0000000000000000       0x48 port/ega.o
 .debug_line    0x0000000000000000      0x2fe port/ega.o
 .debug_str     0x0000000000000000      0xb94 port/ega.o
 .comment       0x0000000000000000       0x12 port/ega.o
 .note.GNU-stack
                0x0000000000000000        0x0 port/ega.o
 .eh_frame      0x0000000000000000      0x11c port/ega.o
 .debug_info    0x0000000000000000      0x44c port/kchar.o
 .debug_abbrev  0x0000000000000000      0x160 port/kchar.o
 .debug_loc     0x0000000000000000       0x69 port/kchar.o
 .debug_aranges
                0x0000000000000000       0x20 port/kchar.o
 .debug_line    0x0000000000000000      0x1b4 port/kchar.o
 .debug_str     0x0000000000000000      0x745 port/kchar.o
 .comment       0x0000000000000000       0x12 port/kchar.o
 .note.GNU-stack
                0x0000000000000000        0x0 port/kchar.o
 .eh_frame      0x0000000000000000       0x8c port/kchar.o
 .debug_info    0x0000000000000000      0x4fc port/niagara.o
 .debug_abbrev  0x0000000000000000      0x1cd port/niagara.o
 .debug_loc     0x0000000000000000       0x95 port/niagara.o
 .debug_aranges
                0x0000000000000000       0x20 port/niagara.o
 .debug_ranges  0x0000000000000000       0x18 port/niagara.o
 .debug_line    0x0000000000000000      0x1e2 port/niagara.o
 .debug_str     0x0000000000000000      0x785 port/niagara.o
 .comment       0x0000000000000000       0x12 port/niagara.o
 .note.GNU-stack
                0x0000000000000000        0x0 port/niagara.o
 .eh_frame      0x0000000000000000       0xa8 port/niagara.o
 .debug_info    0x0000000000000000       0x8f port/ski.o
 .debug_abbrev  0x0000000000000000       0x44 port/ski.o
 .debug_aranges
                0x0000000000000000       0x20 port/ski.o
 .debug_line    0x0000000000000000       0x3e port/ski.o
 .debug_str     0x0000000000000000      0x19a port/ski.o
 .comment       0x0000000000000000       0x12 port/ski.o
 .note.GNU-stack
                0x0000000000000000        0x0 port/ski.o
 .eh_frame      0x0000000000000000       0x38 port/ski.o
 .debug_info    0x0000000000000000      0xab7 port/chardev.o
 .debug_abbrev  0x0000000000000000      0x198 port/chardev.o
 .debug_loc     0x0000000000000000      0x136 port/chardev.o
 .debug_aranges
                0x0000000000000000       0x20 port/chardev.o
 .debug_ranges  0x0000000000000000       0x48 port/chardev.o
 .debug_line    0x0000000000000000      0x2de port/chardev.o
 .debug_str     0x0000000000000000      0xd47 port/chardev.o
 .comment       0x0000000000000000       0x12 port/chardev.o
 .note.GNU-stack
                0x0000000000000000        0x0 port/chardev.o
 .eh_frame      0x0000000000000000       0xec port/chardev.o
 .debug_info    0x0000000000000000      0xc66 proto/vt100.o
 .debug_abbrev  0x0000000000000000      0x2ec proto/vt100.o
 .debug_loc     0x0000000000000000      0x75c proto/vt100.o
 .debug_aranges
                0x0000000000000000       0x20 proto/vt100.o
 .debug_ranges  0x0000000000000000       0x80 proto/vt100.o
 .debug_line    0x0000000000000000      0x225 proto/vt100.o
 .debug_str     0x0000000000000000      0x59b proto/vt100.o
 .comment       0x0000000000000000       0x12 proto/vt100.o
 .note.GNU-stack
                0x0000000000000000        0x0 proto/vt100.o
 .eh_frame      0x0000000000000000      0x1cc proto/vt100.o
 .debug_info    0x0000000000000000     0x1dc9 output.o
 .debug_abbrev  0x0000000000000000      0x3ec output.o
 .debug_loc     0x0000000000000000     0x105a output.o
 .debug_aranges
                0x0000000000000000       0x28 output.o
 .debug_ranges  0x0000000000000000      0x3f8 output.o
 .debug_line    0x0000000000000000      0x5d7 output.o
 .debug_str     0x0000000000000000      0xfad output.o
 .comment       0x0000000000000000       0x12 output.o
 .note.GNU-stack
                0x0000000000000000        0x0 output.o
 .eh_frame      0x0000000000000000       0xf8 output.o
 .debug_info    0x0000000000000000      0x9f8 ../../../lib/drv/libdrv.a(remote_char_dev.o)
 .debug_abbrev  0x0000000000000000      0x243 ../../../lib/drv/libdrv.a(remote_char_dev.o)
 .debug_loc     0x0000000000000000      0x304 ../../../lib/drv/libdrv.a(remote_char_dev.o)
 .debug_aranges
                0x0000000000000000       0x20 ../../../lib/drv/libdrv.a(remote_char_dev.o)
 .debug_ranges  0x0000000000000000       0x40 ../../../lib/drv/libdrv.a(remote_char_dev.o)
 .debug_line    0x0000000000000000      0x29f ../../../lib/drv/libdrv.a(remote_char_dev.o)
 .debug_str     0x0000000000000000      0xa95 ../../../lib/drv/libdrv.a(remote_char_dev.o)
 .comment       0x0000000000000000       0x12 ../../../lib/drv/libdrv.a(remote_char_dev.o)
 .note.GNU-stack
                0x0000000000000000        0x0 ../../../lib/drv/libdrv.a(remote_char_dev.o)
 .eh_frame      0x0000000000000000      0x120 ../../../lib/drv/libdrv.a(remote_char_dev.o)

Memory Configuration

Name             Origin             Length             Attributes
*default*        0x0000000000000000 0xffffffffffffffff

Linker script and memory map

LOAD /home/ayyuce/Desktop/HlnOS/HelenOS/uspace/lib/c/arch/ia32/src/entry.o
                0x00000000000010f4                . = (0x1000 + SIZEOF_HEADERS)

.init           0x00000000000010f4       0x2e
 *(.init)
 .init          0x00000000000010f4       0x2e /home/ayyuce/Desktop/HlnOS/HelenOS/uspace/lib/c/arch/ia32/src/entry.o
                0x00000000000010f4                __entry

.text           0x0000000000001140     0x23f0
 *(.text .text.*)
 .text          0x0000000000001140        0x0 /home/ayyuce/Desktop/HlnOS/HelenOS/uspace/lib/c/arch/ia32/src/entry.o
 .text          0x0000000000001140      0x17a ctl/serial.o
                0x0000000000001260                serial_init
 *fill*         0x00000000000012ba        0x6 
 .text          0x00000000000012c0      0x3b7 port/ega.o
                0x00000000000014f0                ega_init
 *fill*         0x0000000000001677        0x9 
 .text          0x0000000000001680      0x10a port/kchar.o
                0x00000000000016e0                kchar_init
 *fill*         0x000000000000178a        0x6 
 .text          0x0000000000001790      0x23a port/niagara.o
                0x0000000000001920                niagara_init
 *fill*         0x00000000000019ca        0x6 
 .text          0x00000000000019d0        0x8 port/ski.o
                0x00000000000019d0                ski_init
 *fill*         0x00000000000019d8        0x8 
 .text          0x00000000000019e0      0x303 port/chardev.o
                0x0000000000001bf0                chardev_init
 *fill*         0x0000000000001ce3        0xd 
 .text          0x0000000000001cf0      0x4b1 proto/vt100.o
                0x0000000000001f00                vt100_state_create
                0x0000000000001fc0                vt100_state_destroy
                0x0000000000001fd0                vt100_get_dimensions
                0x0000000000001ff0                vt100_yield
                0x0000000000002000                vt100_claim
                0x0000000000002010                vt100_goto
                0x0000000000002080                vt100_set_attr
                0x0000000000002130                vt100_cursor_visibility
                0x0000000000002160                vt100_putchar
 *fill*         0x00000000000021a1        0xf 
 .text          0x00000000000021b0      0xc39 output.o
                0x0000000000002d30                outdev_register
 *fill*         0x0000000000002de9        0x7 
 .text.startup  0x0000000000002df0      0x14b output.o
                0x0000000000002df0                main
 *fill*         0x0000000000002f3b        0x5 
 .text          0x0000000000002f40      0x341 ../../../lib/drv/libdrv.a(remote_char_dev.o)
                0x0000000000003130                char_dev_read
                0x00000000000031e0                char_dev_write
 *(.rodata .rodata.*)
 .rodata.str1.1
                0x0000000000003281       0x3e port/ega.o
 .rodata.str1.1
                0x00000000000032bf       0x1f port/kchar.o
 .rodata.str1.1
                0x00000000000032bf       0x17 port/niagara.o
                                         0x22 (size before relaxing)
 .rodata.str1.1
                0x00000000000032d6       0x32 port/chardev.o
 .rodata.str1.4
                0x0000000000003308       0x87 port/chardev.o
 .rodata.str1.1
                0x000000000000338f       0x22 proto/vt100.o
 *fill*         0x00000000000033b1        0xf 
 .rodata        0x00000000000033c0       0x20 proto/vt100.o
 .rodata.str1.1
                0x00000000000033e0       0xca output.o
                                         0xd9 (size before relaxing)
 *fill*         0x00000000000034aa        0x2 
 .rodata        0x00000000000034ac       0x30 output.o
 .rodata.str1.4
                0x00000000000034dc       0x44 output.o
                                         0x43 (size before relaxing)
 .rodata        0x0000000000003520       0x10 ../../../lib/drv/libdrv.a(remote_char_dev.o)
                0x0000000000003520                remote_char_dev_iface

.rel.plt        0x0000000000003530      0x1b8
 *(.rel.plt)
 .rel.plt       0x0000000000003530      0x1b8 /home/ayyuce/Desktop/HlnOS/HelenOS/uspace/lib/c/arch/ia32/src/entry.o

.rel.dyn        0x00000000000036e8       0x10
 *(.rel.*)
 .rel.got       0x00000000000036e8        0x0 /home/ayyuce/Desktop/HlnOS/HelenOS/uspace/lib/c/arch/ia32/src/entry.o
 .rel.bss       0x00000000000036e8       0x10 /home/ayyuce/Desktop/HlnOS/HelenOS/uspace/lib/c/arch/ia32/src/entry.o
 .rel.init      0x00000000000036f8        0x0 /home/ayyuce/Desktop/HlnOS/HelenOS/uspace/lib/c/arch/ia32/src/entry.o
 .rel.text      0x00000000000036f8        0x0 /home/ayyuce/Desktop/HlnOS/HelenOS/uspace/lib/c/arch/ia32/src/entry.o
 .rel.text.startup
                0x00000000000036f8        0x0 /home/ayyuce/Desktop/HlnOS/HelenOS/uspace/lib/c/arch/ia32/src/entry.o

.plt            0x0000000000003700      0x380
 *(.plt)
 .plt           0x0000000000003700      0x380 /home/ayyuce/Desktop/HlnOS/HelenOS/uspace/lib/c/arch/ia32/src/entry.o
                0x0000000000003710                pio_enable
                0x0000000000003720                __main
                0x0000000000003730                loc_category_get_id
                0x0000000000003740                sysinfo_get_value
                0x0000000000003750                task_retval
                0x0000000000003760                loc_service_connect
                0x0000000000003770                physmem_map
                0x0000000000003780                printf
                0x0000000000003790                async_wait_for
                0x00000000000037a0                chargrid_create
                0x00000000000037b0                chargrid_set_cursor
                0x00000000000037c0                snprintf
                0x00000000000037d0                async_data_write_start
                0x00000000000037e0                loc_service_register
                0x00000000000037f0                async_data_read_finalize
                0x0000000000003800                malloc
                0x0000000000003810                ascii_check
                0x0000000000003820                async_share_out_receive
                0x0000000000003830                fibril_condvar_signal
                0x0000000000003840                as_area_destroy
                0x0000000000003850                async_answer_0
                0x0000000000003860                fibril_condvar_wait
                0x0000000000003870                async_send_fast
                0x0000000000003880                __umoddi3
                0x0000000000003890                pio_read_8
                0x00000000000038a0                async_exchange_end
                0x00000000000038b0                loc_service_get_name
                0x00000000000038c0                assert_abort
                0x00000000000038d0                pio_write_8
                0x00000000000038e0                async_share_out_finalize
                0x00000000000038f0                loc_register_cat_change_cb
                0x0000000000003900                config_key_exists
                0x0000000000003910                chargrid_set_cursor_visibility
                0x0000000000003920                async_answer_2
                0x0000000000003930                chargrid_get_cursor
                0x0000000000003940                fibril_mutex_unlock
                0x0000000000003950                str_cmp
                0x0000000000003960                chargrid_get_cursor_visibility
                0x0000000000003970                async_data_read_receive
                0x0000000000003980                async_data_read_start
                0x0000000000003990                config_get_value
                0x00000000000039a0                loc_server_register
                0x00000000000039b0                loc_category_get_svcs
                0x00000000000039c0                async_get_call_timeout
                0x00000000000039d0                str_size
                0x00000000000039e0                async_answer_1
                0x00000000000039f0                async_exchange_begin
                0x0000000000003a00                async_data_write_finalize
                0x0000000000003a10                chargrid_get_top_row
                0x0000000000003a20                fibril_switch
                0x0000000000003a30                __syscall_fast
                0x0000000000003a40                async_set_fallback_port_handler
                0x0000000000003a50                async_data_write_receive
                0x0000000000003a60                free
                0x0000000000003a70                fibril_mutex_lock

.dynsym         0x0000000000003a80      0x3c0
 *(.dynsym)
 .dynsym        0x0000000000003a80      0x3c0 /home/ayyuce/Desktop/HlnOS/HelenOS/uspace/lib/c/arch/ia32/src/entry.o

.dynstr         0x0000000000003e40      0x40e
 *(.dynstr)
 .dynstr        0x0000000000003e40      0x40e /home/ayyuce/Desktop/HlnOS/HelenOS/uspace/lib/c/arch/ia32/src/entry.o

.hash           0x0000000000004250      0x18c
 *(.hash)
 .hash          0x0000000000004250      0x18c /home/ayyuce/Desktop/HlnOS/HelenOS/uspace/lib/c/arch/ia32/src/entry.o

.interp         0x00000000000043dc       0x13
 *(.interp)
 .interp        0x00000000000043dc       0x13 /home/ayyuce/Desktop/HlnOS/HelenOS/uspace/lib/c/arch/ia32/src/entry.o
                0x00000000000053ef                . = (. + 0x1000)

.dynamic        0x00000000000053f0       0xa8
 *(.dynamic)
 .dynamic       0x00000000000053f0       0xa8 /home/ayyuce/Desktop/HlnOS/HelenOS/uspace/lib/c/arch/ia32/src/entry.o
                0x00000000000053f0                _DYNAMIC

.data           0x0000000000005498       0x58
 *(.data)
 .data          0x0000000000005498        0x0 /home/ayyuce/Desktop/HlnOS/HelenOS/uspace/lib/c/arch/ia32/src/entry.o
 .data          0x0000000000005498       0x18 ctl/serial.o
 .data          0x00000000000054b0       0x18 port/ega.o
 .data          0x00000000000054c8        0x0 port/kchar.o
 .data          0x00000000000054c8        0x0 port/niagara.o
 .data          0x00000000000054c8        0x0 port/ski.o
 .data          0x00000000000054c8       0x18 port/chardev.o
 .data          0x00000000000054e0        0x0 proto/vt100.o
 .data          0x00000000000054e0       0x10 output.o
 .data          0x00000000000054f0        0x0 ../../../lib/drv/libdrv.a(remote_char_dev.o)

.data.rel
 *(.data.rel .data.rel.*)

.got            0x00000000000054f0        0x0
 *(.got)
 .got           0x00000000000054f0        0x0 /home/ayyuce/Desktop/HlnOS/HelenOS/uspace/lib/c/arch/ia32/src/entry.o

.got.plt        0x00000000000054f0       0xe8
 *(.got.plt)
 .got.plt       0x00000000000054f0       0xe8 /home/ayyuce/Desktop/HlnOS/HelenOS/uspace/lib/c/arch/ia32/src/entry.o
                0x00000000000054f0                _GLOBAL_OFFSET_TABLE_

.tdata
 *(.tdata)
 *(.gnu.linkonce.tb.*)

.tbss
 *(.tbss)

.bss            0x00000000000055d8       0x34
 *(.dynbss)
 *fill*         0x00000000000055d8        0x0 
 .dynbss        0x00000000000055d8        0x8 /home/ayyuce/Desktop/HlnOS/HelenOS/uspace/lib/c/arch/ia32/src/entry.o
                0x00000000000055d8                __syscall_fast_func
                0x00000000000055dc                async_futex
 *(COMMON)
 *(.bss)
 .bss           0x00000000000055e0        0x0 /home/ayyuce/Desktop/HlnOS/HelenOS/uspace/lib/c/arch/ia32/src/entry.o
 .bss           0x00000000000055e0        0x0 ctl/serial.o
 .bss           0x00000000000055e0       0x14 port/ega.o
 .bss           0x00000000000055f4        0x4 port/kchar.o
 .bss           0x00000000000055f8        0x4 port/niagara.o
 .bss           0x00000000000055fc        0x0 port/ski.o
 .bss           0x00000000000055fc       0x10 port/chardev.o
 .bss           0x000000000000560c        0x0 proto/vt100.o
 .bss           0x000000000000560c        0x0 output.o
 .bss           0x000000000000560c        0x0 ../../../lib/drv/libdrv.a(remote_char_dev.o)

/DISCARD/
 *(*)
LOAD ctl/serial.o
LOAD port/ega.o
LOAD port/kchar.o
LOAD port/niagara.o
LOAD port/ski.o
LOAD port/chardev.o
LOAD proto/vt100.o
LOAD output.o
LOAD ../../../lib/drv/libdrv.a
LOAD ../../../lib/c/libc.so.0
LOAD ../../../lib/softint/libsoftint.so.0
OUTPUT(output elf32-i386)
