
wifi_supplicant:     file format elf32-i386


Disassembly of section .init:

000010f4 <__entry>:
    10f4:	66 8c d0             	mov    %ss,%ax
    10f7:	8e d8                	mov    %eax,%ds
    10f9:	8e c0                	mov    %eax,%es
    10fb:	8e e0                	mov    %eax,%fs
    10fd:	b8 01 00 00 00       	mov    $0x1,%eax
    1102:	0f a2                	cpuid  
    1104:	0f ba e2 0b          	bt     $0xb,%edx
    1108:	73 0c                	jae    1116 <__entry+0x22>
    110a:	8d 05 28 7a 00 00    	lea    0x7a28,%eax
    1110:	c7 00 c0 60 00 00    	movl   $0x60c0,(%eax)
    1116:	6a 00                	push   $0x0
    1118:	6a 00                	push   $0x0
    111a:	89 e5                	mov    %esp,%ebp
    111c:	57                   	push   %edi
    111d:	e8 ee 4c 00 00       	call   5e10 <__main@plt>

Disassembly of section .text:

00001140 <print_syntax>:
    1140:	55                   	push   %ebp
    1141:	89 e5                	mov    %esp,%ebp
    1143:	83 ec 14             	sub    $0x14,%esp
    1146:	68 e6 54 00 00       	push   $0x54e6
    114b:	e8 10 4d 00 00       	call   5e60 <printf@plt>
    1150:	c7 04 24 b4 56 00 00 	movl   $0x56b4,(%esp)
    1157:	e8 04 4d 00 00       	call   5e60 <printf@plt>
    115c:	c7 04 24 ef 54 00 00 	movl   $0x54ef,(%esp)
    1163:	e8 f8 4c 00 00       	call   5e60 <printf@plt>
    1168:	c7 04 24 dc 56 00 00 	movl   $0x56dc,(%esp)
    116f:	e8 ec 4c 00 00       	call   5e60 <printf@plt>
    1174:	c7 04 24 14 57 00 00 	movl   $0x5714,(%esp)
    117b:	e8 e0 4c 00 00       	call   5e60 <printf@plt>
    1180:	c7 04 24 58 57 00 00 	movl   $0x5758,(%esp)
    1187:	e8 d4 4c 00 00       	call   5e60 <printf@plt>
    118c:	c7 04 24 9c 57 00 00 	movl   $0x579c,(%esp)
    1193:	e8 c8 4c 00 00       	call   5e60 <printf@plt>
    1198:	83 c4 10             	add    $0x10,%esp
    119b:	c9                   	leave  
    119c:	c3                   	ret    
    119d:	8d 76 00             	lea    0x0(%esi),%esi

000011a0 <get_wifi_list.constprop.0>:
    11a0:	55                   	push   %ebp
    11a1:	89 e5                	mov    %esp,%ebp
    11a3:	57                   	push   %edi
    11a4:	56                   	push   %esi
    11a5:	53                   	push   %ebx
    11a6:	83 ec 20             	sub    $0x20,%esp
    11a9:	89 c6                	mov    %eax,%esi
    11ab:	8d 45 e4             	lea    -0x1c(%ebp),%eax
    11ae:	89 d7                	mov    %edx,%edi
    11b0:	6a 00                	push   $0x0
    11b2:	50                   	push   %eax
    11b3:	68 fb 54 00 00       	push   $0x54fb
    11b8:	e8 73 4c 00 00       	call   5e30 <loc_category_get_id@plt>
    11bd:	83 c4 10             	add    $0x10,%esp
    11c0:	85 c0                	test   %eax,%eax
    11c2:	75 30                	jne    11f4 <get_wifi_list.constprop.0+0x54>
    11c4:	50                   	push   %eax
    11c5:	57                   	push   %edi
    11c6:	56                   	push   %esi
    11c7:	ff 75 e4             	pushl  -0x1c(%ebp)
    11ca:	e8 61 4e 00 00       	call   6030 <loc_category_get_svcs@plt>
    11cf:	83 c4 10             	add    $0x10,%esp
    11d2:	89 c3                	mov    %eax,%ebx
    11d4:	85 c0                	test   %eax,%eax
    11d6:	75 0a                	jne    11e2 <get_wifi_list.constprop.0+0x42>
    11d8:	8d 65 f4             	lea    -0xc(%ebp),%esp
    11db:	89 d8                	mov    %ebx,%eax
    11dd:	5b                   	pop    %ebx
    11de:	5e                   	pop    %esi
    11df:	5f                   	pop    %edi
    11e0:	5d                   	pop    %ebp
    11e1:	c3                   	ret    
    11e2:	83 ec 0c             	sub    $0xc,%esp
    11e5:	68 05 55 00 00       	push   $0x5505
    11ea:	e8 71 4c 00 00       	call   5e60 <printf@plt>
    11ef:	83 c4 10             	add    $0x10,%esp
    11f2:	eb e4                	jmp    11d8 <get_wifi_list.constprop.0+0x38>
    11f4:	83 ec 0c             	sub    $0xc,%esp
    11f7:	89 c3                	mov    %eax,%ebx
    11f9:	68 cc 57 00 00       	push   $0x57cc
    11fe:	e8 5d 4c 00 00       	call   5e60 <printf@plt>
    1203:	83 c4 10             	add    $0x10,%esp
    1206:	eb d0                	jmp    11d8 <get_wifi_list.constprop.0+0x38>
    1208:	90                   	nop
    1209:	8d b4 26 00 00 00 00 	lea    0x0(%esi,%eiz,1),%esi

00001210 <get_wifi_by_index>:
    1210:	55                   	push   %ebp
    1211:	89 e5                	mov    %esp,%ebp
    1213:	53                   	push   %ebx
    1214:	83 ec 14             	sub    $0x14,%esp
    1217:	89 c3                	mov    %eax,%ebx
    1219:	8d 55 f4             	lea    -0xc(%ebp),%edx
    121c:	8d 45 f0             	lea    -0x10(%ebp),%eax
    121f:	c7 45 f0 00 00 00 00 	movl   $0x0,-0x10(%ebp)
    1226:	e8 75 ff ff ff       	call   11a0 <get_wifi_list.constprop.0>
    122b:	85 c0                	test   %eax,%eax
    122d:	75 46                	jne    1275 <get_wifi_by_index+0x65>
    122f:	39 5d f4             	cmp    %ebx,-0xc(%ebp)
    1232:	76 24                	jbe    1258 <get_wifi_by_index+0x48>
    1234:	8b 45 f0             	mov    -0x10(%ebp),%eax
    1237:	52                   	push   %edx
    1238:	6a 00                	push   $0x0
    123a:	68 41 26 9b 41       	push   $0x419b2641
    123f:	8b 0c 98             	mov    (%eax,%ebx,4),%ecx
    1242:	51                   	push   %ecx
    1243:	e8 f8 4b 00 00       	call   5e40 <loc_service_connect@plt>
    1248:	83 c4 10             	add    $0x10,%esp
    124b:	89 c3                	mov    %eax,%ebx
    124d:	85 c0                	test   %eax,%eax
    124f:	74 38                	je     1289 <get_wifi_by_index+0x79>
    1251:	89 d8                	mov    %ebx,%eax
    1253:	8b 5d fc             	mov    -0x4(%ebp),%ebx
    1256:	c9                   	leave  
    1257:	c3                   	ret    
    1258:	83 ec 0c             	sub    $0xc,%esp
    125b:	68 3e 55 00 00       	push   $0x553e
    1260:	e8 fb 4b 00 00       	call   5e60 <printf@plt>
    1265:	5b                   	pop    %ebx
    1266:	31 db                	xor    %ebx,%ebx
    1268:	ff 75 f0             	pushl  -0x10(%ebp)
    126b:	e8 70 4e 00 00       	call   60e0 <free@plt>
    1270:	83 c4 10             	add    $0x10,%esp
    1273:	eb dc                	jmp    1251 <get_wifi_by_index+0x41>
    1275:	83 ec 0c             	sub    $0xc,%esp
    1278:	31 db                	xor    %ebx,%ebx
    127a:	68 23 55 00 00       	push   $0x5523
    127f:	e8 dc 4b 00 00       	call   5e60 <printf@plt>
    1284:	83 c4 10             	add    $0x10,%esp
    1287:	eb c8                	jmp    1251 <get_wifi_by_index+0x41>
    1289:	83 ec 0c             	sub    $0xc,%esp
    128c:	68 53 55 00 00       	push   $0x5553
    1291:	e8 ca 4b 00 00       	call   5e60 <printf@plt>
    1296:	58                   	pop    %eax
    1297:	ff 75 f0             	pushl  -0x10(%ebp)
    129a:	e8 41 4e 00 00       	call   60e0 <free@plt>
    129f:	83 c4 10             	add    $0x10,%esp
    12a2:	eb ad                	jmp    1251 <get_wifi_by_index+0x41>
    12a4:	8d b6 00 00 00 00    	lea    0x0(%esi),%esi
    12aa:	8d bf 00 00 00 00    	lea    0x0(%edi),%edi

000012b0 <wifi_scan>:
    12b0:	55                   	push   %ebp
    12b1:	89 e5                	mov    %esp,%ebp
    12b3:	57                   	push   %edi
    12b4:	56                   	push   %esi
    12b5:	53                   	push   %ebx
    12b6:	81 ec ec 07 00 00    	sub    $0x7ec,%esp
    12bc:	89 d3                	mov    %edx,%ebx
    12be:	e8 4d ff ff ff       	call   1210 <get_wifi_by_index>
    12c3:	85 c0                	test   %eax,%eax
    12c5:	0f 84 13 02 00 00    	je     14de <wifi_scan+0x22e>
    12cb:	81 e3 ff 00 00 00    	and    $0xff,%ebx
    12d1:	52                   	push   %edx
    12d2:	8d 95 64 f8 ff ff    	lea    -0x79c(%ebp),%edx
    12d8:	53                   	push   %ebx
    12d9:	52                   	push   %edx
    12da:	50                   	push   %eax
    12db:	e8 20 08 00 00       	call   1b00 <ieee80211_get_scan_results>
    12e0:	83 c4 10             	add    $0x10,%esp
    12e3:	89 85 08 f8 ff ff    	mov    %eax,-0x7f8(%ebp)
    12e9:	85 c0                	test   %eax,%eax
    12eb:	74 20                	je     130d <wifi_scan+0x5d>
    12ed:	83 f8 fc             	cmp    $0xfffffffc,%eax
    12f0:	0f 84 cc 01 00 00    	je     14c2 <wifi_scan+0x212>
    12f6:	50                   	push   %eax
    12f7:	50                   	push   %eax
    12f8:	ff b5 08 f8 ff ff    	pushl  -0x7f8(%ebp)
    12fe:	68 2c 58 00 00       	push   $0x582c
    1303:	e8 58 4b 00 00       	call   5e60 <printf@plt>
    1308:	83 c4 10             	add    $0x10,%esp
    130b:	eb 09                	jmp    1316 <wifi_scan+0x66>
    130d:	80 bd 64 f8 ff ff 00 	cmpb   $0x0,-0x79c(%ebp)
    1314:	75 0e                	jne    1324 <wifi_scan+0x74>
    1316:	8b 85 08 f8 ff ff    	mov    -0x7f8(%ebp),%eax
    131c:	8d 65 f4             	lea    -0xc(%ebp),%esp
    131f:	5b                   	pop    %ebx
    1320:	5e                   	pop    %esi
    1321:	5f                   	pop    %edi
    1322:	5d                   	pop    %ebp
    1323:	c3                   	ret    
    1324:	68 8e 55 00 00       	push   $0x558e
    1329:	68 96 55 00 00       	push   $0x5596
    132e:	68 9e 55 00 00       	push   $0x559e
    1333:	68 a3 55 00 00       	push   $0x55a3
    1338:	68 a8 55 00 00       	push   $0x55a8
    133d:	68 ad 55 00 00       	push   $0x55ad
    1342:	68 b1 55 00 00       	push   $0x55b1
    1347:	68 58 58 00 00       	push   $0x5858
    134c:	e8 0f 4b 00 00       	call   5e60 <printf@plt>
    1351:	83 c4 20             	add    $0x20,%esp
    1354:	80 bd 64 f8 ff ff 00 	cmpb   $0x0,-0x79c(%ebp)
    135b:	74 b9                	je     1316 <wifi_scan+0x66>
    135d:	31 db                	xor    %ebx,%ebx
    135f:	e9 fa 00 00 00       	jmp    145e <wifi_scan+0x1ae>
    1364:	8d 74 26 00          	lea    0x0(%esi,%eiz,1),%esi
    1368:	8b 04 85 30 5a 00 00 	mov    0x5a30(,%eax,4),%eax
    136f:	89 85 14 f8 ff ff    	mov    %eax,-0x7ec(%ebp)
    1375:	8b 85 5c f8 ff ff    	mov    -0x7a4(%ebp),%eax
    137b:	85 c0                	test   %eax,%eax
    137d:	0f 88 30 01 00 00    	js     14b3 <wifi_scan+0x203>
    1383:	8b 04 85 30 5a 00 00 	mov    0x5a30(,%eax,4),%eax
    138a:	89 85 10 f8 ff ff    	mov    %eax,-0x7f0(%ebp)
    1390:	8b 85 60 f8 ff ff    	mov    -0x7a0(%ebp),%eax
    1396:	85 c0                	test   %eax,%eax
    1398:	0f 88 0b 01 00 00    	js     14a9 <wifi_scan+0x1f9>
    139e:	8b 3c 85 28 5a 00 00 	mov    0x5a28(,%eax,4),%edi
    13a5:	8b 85 54 f8 ff ff    	mov    -0x7ac(%ebp),%eax
    13ab:	85 c0                	test   %eax,%eax
    13ad:	0f 88 e7 00 00 00    	js     149a <wifi_scan+0x1ea>
    13b3:	8b 04 85 40 5a 00 00 	mov    0x5a40(,%eax,4),%eax
    13ba:	89 85 0c f8 ff ff    	mov    %eax,-0x7f4(%ebp)
    13c0:	31 c0                	xor    %eax,%eax
    13c2:	8a 85 2d f8 ff ff    	mov    -0x7d3(%ebp),%al
    13c8:	50                   	push   %eax
    13c9:	31 c0                	xor    %eax,%eax
    13cb:	8a 85 2c f8 ff ff    	mov    -0x7d4(%ebp),%al
    13d1:	50                   	push   %eax
    13d2:	31 c0                	xor    %eax,%eax
    13d4:	8a 85 2b f8 ff ff    	mov    -0x7d5(%ebp),%al
    13da:	50                   	push   %eax
    13db:	31 c0                	xor    %eax,%eax
    13dd:	8a 85 2a f8 ff ff    	mov    -0x7d6(%ebp),%al
    13e3:	50                   	push   %eax
    13e4:	31 c0                	xor    %eax,%eax
    13e6:	8a 85 29 f8 ff ff    	mov    -0x7d7(%ebp),%al
    13ec:	50                   	push   %eax
    13ed:	31 c0                	xor    %eax,%eax
    13ef:	8a 85 28 f8 ff ff    	mov    -0x7d8(%ebp),%al
    13f5:	50                   	push   %eax
    13f6:	8d 85 24 f8 ff ff    	lea    -0x7dc(%ebp),%eax
    13fc:	68 b6 55 00 00       	push   $0x55b6
    1401:	50                   	push   %eax
    1402:	0f b6 b5 51 f8 ff ff 	movzbl -0x7af(%ebp),%esi
    1409:	e8 02 4c 00 00       	call   6010 <asprintf@plt>
    140e:	81 e6 ff 00 00 00    	and    $0xff,%esi
    1414:	83 c4 20             	add    $0x20,%esp
    1417:	85 c0                	test   %eax,%eax
    1419:	0f 88 b8 00 00 00    	js     14d7 <wifi_scan+0x227>
    141f:	8b 85 24 f8 ff ff    	mov    -0x7dc(%ebp),%eax
    1425:	8b 95 14 f8 ff ff    	mov    -0x7ec(%ebp),%edx
    142b:	8b 8d 10 f8 ff ff    	mov    -0x7f0(%ebp),%ecx
    1431:	52                   	push   %edx
    1432:	51                   	push   %ecx
    1433:	57                   	push   %edi
    1434:	8b bd 0c f8 ff ff    	mov    -0x7f4(%ebp),%edi
    143a:	57                   	push   %edi
    143b:	56                   	push   %esi
    143c:	50                   	push   %eax
    143d:	8d 85 2e f8 ff ff    	lea    -0x7d2(%ebp),%eax
    1443:	50                   	push   %eax
    1444:	43                   	inc    %ebx
    1445:	68 7c 58 00 00       	push   $0x587c
    144a:	e8 11 4a 00 00       	call   5e60 <printf@plt>
    144f:	83 c4 20             	add    $0x20,%esp
    1452:	38 9d 64 f8 ff ff    	cmp    %bl,-0x79c(%ebp)
    1458:	0f 86 b8 fe ff ff    	jbe    1316 <wifi_scan+0x66>
    145e:	31 d2                	xor    %edx,%edx
    1460:	b9 0f 00 00 00       	mov    $0xf,%ecx
    1465:	88 da                	mov    %bl,%dl
    1467:	8d bd 28 f8 ff ff    	lea    -0x7d8(%ebp),%edi
    146d:	89 d0                	mov    %edx,%eax
    146f:	c1 e0 04             	shl    $0x4,%eax
    1472:	29 d0                	sub    %edx,%eax
    1474:	8d b4 85 68 f8 ff ff 	lea    -0x798(%ebp,%eax,4),%esi
    147b:	f3 a5                	rep movsl %ds:(%esi),%es:(%edi)
    147d:	8b 85 58 f8 ff ff    	mov    -0x7a8(%ebp),%eax
    1483:	85 c0                	test   %eax,%eax
    1485:	0f 89 dd fe ff ff    	jns    1368 <wifi_scan+0xb8>
    148b:	c7 85 14 f8 ff ff 71 	movl   $0x5571,-0x7ec(%ebp)
    1492:	55 00 00 
    1495:	e9 db fe ff ff       	jmp    1375 <wifi_scan+0xc5>
    149a:	c7 85 0c f8 ff ff 71 	movl   $0x5571,-0x7f4(%ebp)
    14a1:	55 00 00 
    14a4:	e9 17 ff ff ff       	jmp    13c0 <wifi_scan+0x110>
    14a9:	bf 71 55 00 00       	mov    $0x5571,%edi
    14ae:	e9 f2 fe ff ff       	jmp    13a5 <wifi_scan+0xf5>
    14b3:	c7 85 10 f8 ff ff 71 	movl   $0x5571,-0x7f0(%ebp)
    14ba:	55 00 00 
    14bd:	e9 ce fe ff ff       	jmp    1390 <wifi_scan+0xe0>
    14c2:	83 ec 0c             	sub    $0xc,%esp
    14c5:	68 74 55 00 00       	push   $0x5574
    14ca:	e8 91 49 00 00       	call   5e60 <printf@plt>
    14cf:	83 c4 10             	add    $0x10,%esp
    14d2:	e9 3f fe ff ff       	jmp    1316 <wifi_scan+0x66>
    14d7:	31 c0                	xor    %eax,%eax
    14d9:	e9 47 ff ff ff       	jmp    1425 <wifi_scan+0x175>
    14de:	83 ec 0c             	sub    $0xc,%esp
    14e1:	68 f4 57 00 00       	push   $0x57f4
    14e6:	e8 75 49 00 00       	call   5e60 <printf@plt>
    14eb:	83 c4 10             	add    $0x10,%esp
    14ee:	c7 85 08 f8 ff ff f2 	movl   $0xfffffff2,-0x7f8(%ebp)
    14f5:	ff ff ff 
    14f8:	e9 19 fe ff ff       	jmp    1316 <wifi_scan+0x66>
    14fd:	66 90                	xchg   %ax,%ax
    14ff:	90                   	nop

00001500 <main>:
    1500:	8d 4c 24 04          	lea    0x4(%esp),%ecx
    1504:	83 e4 f0             	and    $0xfffffff0,%esp
    1507:	ff 71 fc             	pushl  -0x4(%ecx)
    150a:	55                   	push   %ebp
    150b:	89 e5                	mov    %esp,%ebp
    150d:	57                   	push   %edi
    150e:	56                   	push   %esi
    150f:	53                   	push   %ebx
    1510:	51                   	push   %ecx
    1511:	83 ec 28             	sub    $0x28,%esp
    1514:	8b 19                	mov    (%ecx),%ebx
    1516:	8b 71 04             	mov    0x4(%ecx),%esi
    1519:	e8 02 49 00 00       	call   5e20 <inetcfg_init@plt>
    151e:	85 c0                	test   %eax,%eax
    1520:	75 29                	jne    154b <main+0x4b>
    1522:	e8 99 49 00 00       	call   5ec0 <dhcp_init@plt>
    1527:	89 c7                	mov    %eax,%edi
    1529:	85 c0                	test   %eax,%eax
    152b:	75 39                	jne    1566 <main+0x66>
    152d:	83 fb 02             	cmp    $0x2,%ebx
    1530:	0f 84 8e 00 00 00    	je     15c4 <main+0xc4>
    1536:	7f 49                	jg     1581 <main+0x81>
    1538:	e8 03 fc ff ff       	call   1140 <print_syntax>
    153d:	8d 65 f0             	lea    -0x10(%ebp),%esp
    1540:	89 f8                	mov    %edi,%eax
    1542:	59                   	pop    %ecx
    1543:	5b                   	pop    %ebx
    1544:	5e                   	pop    %esi
    1545:	5f                   	pop    %edi
    1546:	5d                   	pop    %ebp
    1547:	8d 61 fc             	lea    -0x4(%ecx),%esp
    154a:	c3                   	ret    
    154b:	52                   	push   %edx
    154c:	50                   	push   %eax
    154d:	68 d4 55 00 00       	push   $0x55d4
    1552:	68 a0 58 00 00       	push   $0x58a0
    1557:	bf 01 00 00 00       	mov    $0x1,%edi
    155c:	e8 ff 48 00 00       	call   5e60 <printf@plt>
    1561:	83 c4 10             	add    $0x10,%esp
    1564:	eb d7                	jmp    153d <main+0x3d>
    1566:	50                   	push   %eax
    1567:	57                   	push   %edi
    1568:	68 d4 55 00 00       	push   $0x55d4
    156d:	68 d0 58 00 00       	push   $0x58d0
    1572:	bf 01 00 00 00       	mov    $0x1,%edi
    1577:	e8 e4 48 00 00       	call   5e60 <printf@plt>
    157c:	83 c4 10             	add    $0x10,%esp
    157f:	eb bc                	jmp    153d <main+0x3d>
    1581:	83 ec 0c             	sub    $0xc,%esp
    1584:	8d 45 e4             	lea    -0x1c(%ebp),%eax
    1587:	50                   	push   %eax
    1588:	6a 00                	push   $0x0
    158a:	6a 0a                	push   $0xa
    158c:	6a 00                	push   $0x0
    158e:	ff 76 08             	pushl  0x8(%esi)
    1591:	e8 ea 48 00 00       	call   5e80 <str_uint32_t@plt>
    1596:	83 c4 20             	add    $0x20,%esp
    1599:	85 c0                	test   %eax,%eax
    159b:	0f 84 d0 00 00 00    	je     1671 <main+0x171>
    15a1:	50                   	push   %eax
    15a2:	50                   	push   %eax
    15a3:	68 d4 55 00 00       	push   $0x55d4
    15a8:	68 28 56 00 00       	push   $0x5628
    15ad:	bf f2 ff ff ff       	mov    $0xfffffff2,%edi
    15b2:	e8 a9 48 00 00       	call   5e60 <printf@plt>
    15b7:	e8 84 fb ff ff       	call   1140 <print_syntax>
    15bc:	83 c4 10             	add    $0x10,%esp
    15bf:	e9 79 ff ff ff       	jmp    153d <main+0x3d>
    15c4:	50                   	push   %eax
    15c5:	50                   	push   %eax
    15c6:	68 e4 55 00 00       	push   $0x55e4
    15cb:	ff 76 04             	pushl  0x4(%esi)
    15ce:	e8 ed 49 00 00       	call   5fc0 <str_cmp@plt>
    15d3:	83 c4 10             	add    $0x10,%esp
    15d6:	85 c0                	test   %eax,%eax
    15d8:	0f 85 5a ff ff ff    	jne    1538 <main+0x38>
    15de:	8d 55 e0             	lea    -0x20(%ebp),%edx
    15e1:	8d 45 dc             	lea    -0x24(%ebp),%eax
    15e4:	c7 45 dc 00 00 00 00 	movl   $0x0,-0x24(%ebp)
    15eb:	e8 b0 fb ff ff       	call   11a0 <get_wifi_list.constprop.0>
    15f0:	89 c7                	mov    %eax,%edi
    15f2:	85 c0                	test   %eax,%eax
    15f4:	0f 85 0c 02 00 00    	jne    1806 <main+0x306>
    15fa:	83 ec 0c             	sub    $0xc,%esp
    15fd:	31 db                	xor    %ebx,%ebx
    15ff:	8d 75 e4             	lea    -0x1c(%ebp),%esi
    1602:	68 e9 55 00 00       	push   $0x55e9
    1607:	e8 54 48 00 00       	call   5e60 <printf@plt>
    160c:	83 c4 10             	add    $0x10,%esp
    160f:	eb 1c                	jmp    162d <main+0x12d>
    1611:	52                   	push   %edx
    1612:	ff 75 e4             	pushl  -0x1c(%ebp)
    1615:	53                   	push   %ebx
    1616:	68 1f 56 00 00       	push   $0x561f
    161b:	e8 40 48 00 00       	call   5e60 <printf@plt>
    1620:	59                   	pop    %ecx
    1621:	ff 75 e4             	pushl  -0x1c(%ebp)
    1624:	43                   	inc    %ebx
    1625:	e8 b6 4a 00 00       	call   60e0 <free@plt>
    162a:	83 c4 10             	add    $0x10,%esp
    162d:	3b 5d e0             	cmp    -0x20(%ebp),%ebx
    1630:	0f 83 07 ff ff ff    	jae    153d <main+0x3d>
    1636:	50                   	push   %eax
    1637:	50                   	push   %eax
    1638:	8b 45 dc             	mov    -0x24(%ebp),%eax
    163b:	56                   	push   %esi
    163c:	ff 34 98             	pushl  (%eax,%ebx,4)
    163f:	e8 dc 48 00 00       	call   5f20 <loc_service_get_name@plt>
    1644:	83 c4 10             	add    $0x10,%esp
    1647:	85 c0                	test   %eax,%eax
    1649:	74 c6                	je     1611 <main+0x111>
    164b:	83 ec 0c             	sub    $0xc,%esp
    164e:	89 45 d4             	mov    %eax,-0x2c(%ebp)
    1651:	68 02 56 00 00       	push   $0x5602
    1656:	e8 05 48 00 00       	call   5e60 <printf@plt>
    165b:	5b                   	pop    %ebx
    165c:	ff 75 dc             	pushl  -0x24(%ebp)
    165f:	e8 7c 4a 00 00       	call   60e0 <free@plt>
    1664:	8b 55 d4             	mov    -0x2c(%ebp),%edx
    1667:	83 c4 10             	add    $0x10,%esp
    166a:	89 d7                	mov    %edx,%edi
    166c:	e9 cc fe ff ff       	jmp    153d <main+0x3d>
    1671:	50                   	push   %eax
    1672:	50                   	push   %eax
    1673:	68 3f 56 00 00       	push   $0x563f
    1678:	ff 76 04             	pushl  0x4(%esi)
    167b:	e8 40 49 00 00       	call   5fc0 <str_cmp@plt>
    1680:	83 c4 10             	add    $0x10,%esp
    1683:	85 c0                	test   %eax,%eax
    1685:	75 20                	jne    16a7 <main+0x1a7>
    1687:	31 d2                	xor    %edx,%edx
    1689:	83 fb 03             	cmp    $0x3,%ebx
    168c:	0f 85 9b 00 00 00    	jne    172d <main+0x22d>
    1692:	81 e2 ff 00 00 00    	and    $0xff,%edx
    1698:	8b 45 e4             	mov    -0x1c(%ebp),%eax
    169b:	e8 10 fc ff ff       	call   12b0 <wifi_scan>
    16a0:	89 c7                	mov    %eax,%edi
    16a2:	e9 96 fe ff ff       	jmp    153d <main+0x3d>
    16a7:	50                   	push   %eax
    16a8:	50                   	push   %eax
    16a9:	68 7c 5a 00 00       	push   $0x5a7c
    16ae:	ff 76 04             	pushl  0x4(%esi)
    16b1:	e8 0a 49 00 00       	call   5fc0 <str_cmp@plt>
    16b6:	83 c4 10             	add    $0x10,%esp
    16b9:	85 c0                	test   %eax,%eax
    16bb:	0f 85 88 00 00 00    	jne    1749 <main+0x249>
    16c1:	83 fb 03             	cmp    $0x3,%ebx
    16c4:	0f 84 6e fe ff ff    	je     1538 <main+0x38>
    16ca:	c7 45 d4 00 00 00 00 	movl   $0x0,-0x2c(%ebp)
    16d1:	83 fb 04             	cmp    $0x4,%ebx
    16d4:	74 06                	je     16dc <main+0x1dc>
    16d6:	8b 46 10             	mov    0x10(%esi),%eax
    16d9:	89 45 d4             	mov    %eax,-0x2c(%ebp)
    16dc:	8b 5e 0c             	mov    0xc(%esi),%ebx
    16df:	8b 45 e4             	mov    -0x1c(%ebp),%eax
    16e2:	85 db                	test   %ebx,%ebx
    16e4:	0f 84 b9 01 00 00    	je     18a3 <main+0x3a3>
    16ea:	e8 21 fb ff ff       	call   1210 <get_wifi_by_index>
    16ef:	89 c6                	mov    %eax,%esi
    16f1:	85 c0                	test   %eax,%eax
    16f3:	0f 84 90 01 00 00    	je     1889 <main+0x389>
    16f9:	83 ec 0c             	sub    $0xc,%esp
    16fc:	50                   	push   %eax
    16fd:	e8 4e 06 00 00       	call   1d50 <ieee80211_disconnect>
    1702:	83 c4 10             	add    $0x10,%esp
    1705:	89 c7                	mov    %eax,%edi
    1707:	85 c0                	test   %eax,%eax
    1709:	0f 84 9d 00 00 00    	je     17ac <main+0x2ac>
    170f:	83 f8 fc             	cmp    $0xfffffffc,%eax
    1712:	0f 84 d4 00 00 00    	je     17ec <main+0x2ec>
    1718:	50                   	push   %eax
    1719:	50                   	push   %eax
    171a:	57                   	push   %edi
    171b:	68 00 59 00 00       	push   $0x5900
    1720:	e8 3b 47 00 00       	call   5e60 <printf@plt>
    1725:	83 c4 10             	add    $0x10,%esp
    1728:	e9 10 fe ff ff       	jmp    153d <main+0x3d>
    172d:	50                   	push   %eax
    172e:	50                   	push   %eax
    172f:	68 44 56 00 00       	push   $0x5644
    1734:	ff 76 0c             	pushl  0xc(%esi)
    1737:	e8 84 48 00 00       	call   5fc0 <str_cmp@plt>
    173c:	83 c4 10             	add    $0x10,%esp
    173f:	85 c0                	test   %eax,%eax
    1741:	0f 94 c2             	sete   %dl
    1744:	e9 49 ff ff ff       	jmp    1692 <main+0x192>
    1749:	52                   	push   %edx
    174a:	52                   	push   %edx
    174b:	68 95 5a 00 00       	push   $0x5a95
    1750:	ff 76 04             	pushl  0x4(%esi)
    1753:	e8 68 48 00 00       	call   5fc0 <str_cmp@plt>
    1758:	83 c4 10             	add    $0x10,%esp
    175b:	85 c0                	test   %eax,%eax
    175d:	0f 85 d5 fd ff ff    	jne    1538 <main+0x38>
    1763:	8b 45 e4             	mov    -0x1c(%ebp),%eax
    1766:	e8 a5 fa ff ff       	call   1210 <get_wifi_by_index>
    176b:	85 c0                	test   %eax,%eax
    176d:	0f 84 16 01 00 00    	je     1889 <main+0x389>
    1773:	83 ec 0c             	sub    $0xc,%esp
    1776:	50                   	push   %eax
    1777:	e8 d4 05 00 00       	call   1d50 <ieee80211_disconnect>
    177c:	83 c4 10             	add    $0x10,%esp
    177f:	89 c7                	mov    %eax,%edi
    1781:	85 c0                	test   %eax,%eax
    1783:	0f 84 ac 00 00 00    	je     1835 <main+0x335>
    1789:	83 f8 fc             	cmp    $0xfffffffc,%eax
    178c:	74 5e                	je     17ec <main+0x2ec>
    178e:	83 f8 f2             	cmp    $0xfffffff2,%eax
    1791:	0f 84 b3 00 00 00    	je     184a <main+0x34a>
    1797:	50                   	push   %eax
    1798:	50                   	push   %eax
    1799:	57                   	push   %edi
    179a:	68 f4 59 00 00       	push   $0x59f4
    179f:	e8 bc 46 00 00       	call   5e60 <printf@plt>
    17a4:	83 c4 10             	add    $0x10,%esp
    17a7:	e9 91 fd ff ff       	jmp    153d <main+0x3d>
    17ac:	57                   	push   %edi
    17ad:	ff 75 d4             	pushl  -0x2c(%ebp)
    17b0:	53                   	push   %ebx
    17b1:	56                   	push   %esi
    17b2:	e8 d9 03 00 00       	call   1b90 <ieee80211_connect>
    17b7:	83 c4 10             	add    $0x10,%esp
    17ba:	89 c7                	mov    %eax,%edi
    17bc:	85 c0                	test   %eax,%eax
    17be:	74 60                	je     1820 <main+0x320>
    17c0:	83 f8 fc             	cmp    $0xfffffffc,%eax
    17c3:	74 27                	je     17ec <main+0x2ec>
    17c5:	83 f8 f3             	cmp    $0xfffffff3,%eax
    17c8:	0f 84 a6 00 00 00    	je     1874 <main+0x374>
    17ce:	83 f8 ff             	cmp    $0xffffffff,%eax
    17d1:	0f 84 88 00 00 00    	je     185f <main+0x35f>
    17d7:	51                   	push   %ecx
    17d8:	51                   	push   %ecx
    17d9:	50                   	push   %eax
    17da:	68 7c 59 00 00       	push   $0x597c
    17df:	e8 7c 46 00 00       	call   5e60 <printf@plt>
    17e4:	83 c4 10             	add    $0x10,%esp
    17e7:	e9 51 fd ff ff       	jmp    153d <main+0x3d>
    17ec:	83 ec 0c             	sub    $0xc,%esp
    17ef:	bf fc ff ff ff       	mov    $0xfffffffc,%edi
    17f4:	68 74 55 00 00       	push   $0x5574
    17f9:	e8 62 46 00 00       	call   5e60 <printf@plt>
    17fe:	83 c4 10             	add    $0x10,%esp
    1801:	e9 37 fd ff ff       	jmp    153d <main+0x3d>
    1806:	83 ec 0c             	sub    $0xc,%esp
    1809:	bf f2 ff ff ff       	mov    $0xfffffff2,%edi
    180e:	68 23 55 00 00       	push   $0x5523
    1813:	e8 48 46 00 00       	call   5e60 <printf@plt>
    1818:	83 c4 10             	add    $0x10,%esp
    181b:	e9 1d fd ff ff       	jmp    153d <main+0x3d>
    1820:	83 ec 0c             	sub    $0xc,%esp
    1823:	68 ac 59 00 00       	push   $0x59ac
    1828:	e8 33 46 00 00       	call   5e60 <printf@plt>
    182d:	83 c4 10             	add    $0x10,%esp
    1830:	e9 08 fd ff ff       	jmp    153d <main+0x3d>
    1835:	83 ec 0c             	sub    $0xc,%esp
    1838:	68 64 56 00 00       	push   $0x5664
    183d:	e8 1e 46 00 00       	call   5e60 <printf@plt>
    1842:	83 c4 10             	add    $0x10,%esp
    1845:	e9 f3 fc ff ff       	jmp    153d <main+0x3d>
    184a:	83 ec 0c             	sub    $0xc,%esp
    184d:	68 d0 59 00 00       	push   $0x59d0
    1852:	e8 09 46 00 00       	call   5e60 <printf@plt>
    1857:	83 c4 10             	add    $0x10,%esp
    185a:	e9 de fc ff ff       	jmp    153d <main+0x3d>
    185f:	83 ec 0c             	sub    $0xc,%esp
    1862:	68 58 59 00 00       	push   $0x5958
    1867:	e8 f4 45 00 00       	call   5e60 <printf@plt>
    186c:	83 c4 10             	add    $0x10,%esp
    186f:	e9 c9 fc ff ff       	jmp    153d <main+0x3d>
    1874:	83 ec 0c             	sub    $0xc,%esp
    1877:	68 2c 59 00 00       	push   $0x592c
    187c:	e8 df 45 00 00       	call   5e60 <printf@plt>
    1881:	83 c4 10             	add    $0x10,%esp
    1884:	e9 b4 fc ff ff       	jmp    153d <main+0x3d>
    1889:	83 ec 0c             	sub    $0xc,%esp
    188c:	bf f2 ff ff ff       	mov    $0xfffffff2,%edi
    1891:	68 f4 57 00 00       	push   $0x57f4
    1896:	e8 c5 45 00 00       	call   5e60 <printf@plt>
    189b:	83 c4 10             	add    $0x10,%esp
    189e:	e9 9a fc ff ff       	jmp    153d <main+0x3d>
    18a3:	50                   	push   %eax
    18a4:	68 a4 00 00 00       	push   $0xa4
    18a9:	68 47 56 00 00       	push   $0x5647
    18ae:	68 59 56 00 00       	push   $0x5659
    18b3:	e8 78 46 00 00       	call   5f30 <assert_abort@plt>
    18b8:	66 90                	xchg   %ax,%ax
    18ba:	66 90                	xchg   %ax,%ax
    18bc:	66 90                	xchg   %ax,%ax
    18be:	66 90                	xchg   %ax,%ax

000018c0 <remote_ieee80211_connect>:
    18c0:	55                   	push   %ebp
    18c1:	89 e5                	mov    %esp,%ebp
    18c3:	57                   	push   %edi
    18c4:	56                   	push   %esi
    18c5:	53                   	push   %ebx
    18c6:	83 ec 5c             	sub    $0x5c,%esp
    18c9:	8b 45 0c             	mov    0xc(%ebp),%eax
    18cc:	8b 78 04             	mov    0x4(%eax),%edi
    18cf:	85 ff                	test   %edi,%edi
    18d1:	0f 84 ab 00 00 00    	je     1982 <remote_ieee80211_connect+0xc2>
    18d7:	8d 75 a4             	lea    -0x5c(%ebp),%esi
    18da:	53                   	push   %ebx
    18db:	53                   	push   %ebx
    18dc:	8d 5d a0             	lea    -0x60(%ebp),%ebx
    18df:	56                   	push   %esi
    18e0:	53                   	push   %ebx
    18e1:	e8 ea 47 00 00       	call   60d0 <async_data_write_receive@plt>
    18e6:	83 c4 10             	add    $0x10,%esp
    18e9:	84 c0                	test   %al,%al
    18eb:	74 08                	je     18f5 <remote_ieee80211_connect+0x35>
    18ed:	8b 45 a4             	mov    -0x5c(%ebp),%eax
    18f0:	83 f8 20             	cmp    $0x20,%eax
    18f3:	76 2b                	jbe    1920 <remote_ieee80211_connect+0x60>
    18f5:	8b 45 a0             	mov    -0x60(%ebp),%eax
    18f8:	57                   	push   %edi
    18f9:	57                   	push   %edi
    18fa:	6a f2                	push   $0xfffffff2
    18fc:	50                   	push   %eax
    18fd:	e8 ee 45 00 00       	call   5ef0 <async_answer_0@plt>
    1902:	8b 4d 10             	mov    0x10(%ebp),%ecx
    1905:	58                   	pop    %eax
    1906:	5a                   	pop    %edx
    1907:	6a f2                	push   $0xfffffff2
    1909:	51                   	push   %ecx
    190a:	e8 e1 45 00 00       	call   5ef0 <async_answer_0@plt>
    190f:	83 c4 10             	add    $0x10,%esp
    1912:	8d 65 f4             	lea    -0xc(%ebp),%esp
    1915:	5b                   	pop    %ebx
    1916:	5e                   	pop    %esi
    1917:	5f                   	pop    %edi
    1918:	5d                   	pop    %ebp
    1919:	c3                   	ret    
    191a:	8d b6 00 00 00 00    	lea    0x0(%esi),%esi
    1920:	8b 4d a0             	mov    -0x60(%ebp),%ecx
    1923:	8d 7d a8             	lea    -0x58(%ebp),%edi
    1926:	52                   	push   %edx
    1927:	50                   	push   %eax
    1928:	57                   	push   %edi
    1929:	51                   	push   %ecx
    192a:	e8 51 47 00 00       	call   6080 <async_data_write_finalize@plt>
    192f:	83 c4 10             	add    $0x10,%esp
    1932:	85 c0                	test   %eax,%eax
    1934:	75 bf                	jne    18f5 <remote_ieee80211_connect+0x35>
    1936:	50                   	push   %eax
    1937:	50                   	push   %eax
    1938:	56                   	push   %esi
    1939:	53                   	push   %ebx
    193a:	e8 91 47 00 00       	call   60d0 <async_data_write_receive@plt>
    193f:	83 c4 10             	add    $0x10,%esp
    1942:	84 c0                	test   %al,%al
    1944:	74 af                	je     18f5 <remote_ieee80211_connect+0x35>
    1946:	8b 45 a4             	mov    -0x5c(%ebp),%eax
    1949:	83 f8 20             	cmp    $0x20,%eax
    194c:	77 a7                	ja     18f5 <remote_ieee80211_connect+0x35>
    194e:	8b 75 a0             	mov    -0x60(%ebp),%esi
    1951:	53                   	push   %ebx
    1952:	8d 5d c8             	lea    -0x38(%ebp),%ebx
    1955:	50                   	push   %eax
    1956:	53                   	push   %ebx
    1957:	56                   	push   %esi
    1958:	e8 23 47 00 00       	call   6080 <async_data_write_finalize@plt>
    195d:	83 c4 10             	add    $0x10,%esp
    1960:	85 c0                	test   %eax,%eax
    1962:	75 91                	jne    18f5 <remote_ieee80211_connect+0x35>
    1964:	50                   	push   %eax
    1965:	8b 45 0c             	mov    0xc(%ebp),%eax
    1968:	8b 55 08             	mov    0x8(%ebp),%edx
    196b:	53                   	push   %ebx
    196c:	57                   	push   %edi
    196d:	52                   	push   %edx
    196e:	ff 50 04             	call   *0x4(%eax)
    1971:	8b 75 10             	mov    0x10(%ebp),%esi
    1974:	59                   	pop    %ecx
    1975:	5b                   	pop    %ebx
    1976:	50                   	push   %eax
    1977:	56                   	push   %esi
    1978:	e8 73 45 00 00       	call   5ef0 <async_answer_0@plt>
    197d:	83 c4 10             	add    $0x10,%esp
    1980:	eb 90                	jmp    1912 <remote_ieee80211_connect+0x52>
    1982:	56                   	push   %esi
    1983:	68 33 01 00 00       	push   $0x133
    1988:	68 50 5a 00 00       	push   $0x5a50
    198d:	68 6b 5a 00 00       	push   $0x5a6b
    1992:	e8 99 45 00 00       	call   5f30 <assert_abort@plt>
    1997:	89 f6                	mov    %esi,%esi
    1999:	8d bc 27 00 00 00 00 	lea    0x0(%edi,%eiz,1),%edi

000019a0 <remote_ieee80211_get_scan_results>:
    19a0:	55                   	push   %ebp
    19a1:	89 e5                	mov    %esp,%ebp
    19a3:	56                   	push   %esi
    19a4:	53                   	push   %ebx
    19a5:	81 ec 90 07 00 00    	sub    $0x790,%esp
    19ab:	8b 75 0c             	mov    0xc(%ebp),%esi
    19ae:	8b 06                	mov    (%esi),%eax
    19b0:	85 c0                	test   %eax,%eax
    19b2:	0f 84 df 00 00 00    	je     1a97 <remote_ieee80211_get_scan_results+0xf7>
    19b8:	8d 9d 74 f8 ff ff    	lea    -0x78c(%ebp),%ebx
    19be:	50                   	push   %eax
    19bf:	68 84 07 00 00       	push   $0x784
    19c4:	6a 00                	push   $0x0
    19c6:	53                   	push   %ebx
    19c7:	e8 14 46 00 00       	call   5fe0 <memset@plt>
    19cc:	8b 45 14             	mov    0x14(%ebp),%eax
    19cf:	83 c4 0c             	add    $0xc,%esp
    19d2:	8b 40 08             	mov    0x8(%eax),%eax
    19d5:	85 c0                	test   %eax,%eax
    19d7:	0f 95 c0             	setne  %al
    19da:	25 ff 00 00 00       	and    $0xff,%eax
    19df:	50                   	push   %eax
    19e0:	8b 45 08             	mov    0x8(%ebp),%eax
    19e3:	53                   	push   %ebx
    19e4:	50                   	push   %eax
    19e5:	ff 16                	call   *(%esi)
    19e7:	83 c4 10             	add    $0x10,%esp
    19ea:	89 c6                	mov    %eax,%esi
    19ec:	85 c0                	test   %eax,%eax
    19ee:	75 66                	jne    1a56 <remote_ieee80211_get_scan_results+0xb6>
    19f0:	50                   	push   %eax
    19f1:	50                   	push   %eax
    19f2:	8d 85 70 f8 ff ff    	lea    -0x790(%ebp),%eax
    19f8:	50                   	push   %eax
    19f9:	8d 85 6c f8 ff ff    	lea    -0x794(%ebp),%eax
    19ff:	50                   	push   %eax
    1a00:	e8 eb 45 00 00       	call   5ff0 <async_data_read_receive@plt>
    1a05:	83 c4 10             	add    $0x10,%esp
    1a08:	84 c0                	test   %al,%al
    1a0a:	74 64                	je     1a70 <remote_ieee80211_get_scan_results+0xd0>
    1a0c:	81 bd 70 f8 ff ff 83 	cmpl   $0x783,-0x790(%ebp)
    1a13:	07 00 00 
    1a16:	77 28                	ja     1a40 <remote_ieee80211_get_scan_results+0xa0>
    1a18:	8b 85 6c f8 ff ff    	mov    -0x794(%ebp),%eax
    1a1e:	56                   	push   %esi
    1a1f:	56                   	push   %esi
    1a20:	6a fd                	push   $0xfffffffd
    1a22:	50                   	push   %eax
    1a23:	e8 c8 44 00 00       	call   5ef0 <async_answer_0@plt>
    1a28:	8b 4d 10             	mov    0x10(%ebp),%ecx
    1a2b:	58                   	pop    %eax
    1a2c:	5a                   	pop    %edx
    1a2d:	6a fd                	push   $0xfffffffd
    1a2f:	51                   	push   %ecx
    1a30:	e8 bb 44 00 00       	call   5ef0 <async_answer_0@plt>
    1a35:	83 c4 10             	add    $0x10,%esp
    1a38:	8d 65 f8             	lea    -0x8(%ebp),%esp
    1a3b:	5b                   	pop    %ebx
    1a3c:	5e                   	pop    %esi
    1a3d:	5d                   	pop    %ebp
    1a3e:	c3                   	ret    
    1a3f:	90                   	nop
    1a40:	51                   	push   %ecx
    1a41:	68 84 07 00 00       	push   $0x784
    1a46:	53                   	push   %ebx
    1a47:	8b 9d 6c f8 ff ff    	mov    -0x794(%ebp),%ebx
    1a4d:	53                   	push   %ebx
    1a4e:	e8 5d 44 00 00       	call   5eb0 <async_data_read_finalize@plt>
    1a53:	83 c4 10             	add    $0x10,%esp
    1a56:	8b 55 10             	mov    0x10(%ebp),%edx
    1a59:	50                   	push   %eax
    1a5a:	50                   	push   %eax
    1a5b:	56                   	push   %esi
    1a5c:	52                   	push   %edx
    1a5d:	e8 8e 44 00 00       	call   5ef0 <async_answer_0@plt>
    1a62:	83 c4 10             	add    $0x10,%esp
    1a65:	8d 65 f8             	lea    -0x8(%ebp),%esp
    1a68:	5b                   	pop    %ebx
    1a69:	5e                   	pop    %esi
    1a6a:	5d                   	pop    %ebp
    1a6b:	c3                   	ret    
    1a6c:	8d 74 26 00          	lea    0x0(%esi,%eiz,1),%esi
    1a70:	8b b5 6c f8 ff ff    	mov    -0x794(%ebp),%esi
    1a76:	53                   	push   %ebx
    1a77:	53                   	push   %ebx
    1a78:	6a f2                	push   $0xfffffff2
    1a7a:	56                   	push   %esi
    1a7b:	e8 70 44 00 00       	call   5ef0 <async_answer_0@plt>
    1a80:	8b 4d 10             	mov    0x10(%ebp),%ecx
    1a83:	58                   	pop    %eax
    1a84:	5a                   	pop    %edx
    1a85:	6a f2                	push   $0xfffffff2
    1a87:	51                   	push   %ecx
    1a88:	e8 63 44 00 00       	call   5ef0 <async_answer_0@plt>
    1a8d:	83 c4 10             	add    $0x10,%esp
    1a90:	8d 65 f8             	lea    -0x8(%ebp),%esp
    1a93:	5b                   	pop    %ebx
    1a94:	5e                   	pop    %esi
    1a95:	5d                   	pop    %ebp
    1a96:	c3                   	ret    
    1a97:	50                   	push   %eax
    1a98:	68 11 01 00 00       	push   $0x111
    1a9d:	68 50 5a 00 00       	push   $0x5a50
    1aa2:	68 b0 5a 00 00       	push   $0x5ab0
    1aa7:	e8 84 44 00 00       	call   5f30 <assert_abort@plt>
    1aac:	8d 74 26 00          	lea    0x0(%esi,%eiz,1),%esi

00001ab0 <remote_ieee80211_disconnect>:
    1ab0:	55                   	push   %ebp
    1ab1:	89 e5                	mov    %esp,%ebp
    1ab3:	53                   	push   %ebx
    1ab4:	52                   	push   %edx
    1ab5:	8b 45 0c             	mov    0xc(%ebp),%eax
    1ab8:	8b 55 08             	mov    0x8(%ebp),%edx
    1abb:	8b 5d 10             	mov    0x10(%ebp),%ebx
    1abe:	8b 40 08             	mov    0x8(%eax),%eax
    1ac1:	85 c0                	test   %eax,%eax
    1ac3:	74 18                	je     1add <remote_ieee80211_disconnect+0x2d>
    1ac5:	83 ec 0c             	sub    $0xc,%esp
    1ac8:	52                   	push   %edx
    1ac9:	ff d0                	call   *%eax
    1acb:	89 5d 08             	mov    %ebx,0x8(%ebp)
    1ace:	83 c4 10             	add    $0x10,%esp
    1ad1:	8b 5d fc             	mov    -0x4(%ebp),%ebx
    1ad4:	89 45 0c             	mov    %eax,0xc(%ebp)
    1ad7:	c9                   	leave  
    1ad8:	e9 13 44 00 00       	jmp    5ef0 <async_answer_0@plt>
    1add:	50                   	push   %eax
    1ade:	68 69 01 00 00       	push   $0x169
    1ae3:	68 50 5a 00 00       	push   $0x5a50
    1ae8:	68 84 5a 00 00       	push   $0x5a84
    1aed:	e8 3e 44 00 00       	call   5f30 <assert_abort@plt>
    1af2:	8d b4 26 00 00 00 00 	lea    0x0(%esi,%eiz,1),%esi
    1af9:	8d bc 27 00 00 00 00 	lea    0x0(%edi,%eiz,1),%edi

00001b00 <ieee80211_get_scan_results>:
    1b00:	55                   	push   %ebp
    1b01:	89 e5                	mov    %esp,%ebp
    1b03:	57                   	push   %edi
    1b04:	56                   	push   %esi
    1b05:	53                   	push   %ebx
    1b06:	83 ec 2c             	sub    $0x2c,%esp
    1b09:	8b 75 0c             	mov    0xc(%ebp),%esi
    1b0c:	8b 5d 10             	mov    0x10(%ebp),%ebx
    1b0f:	85 f6                	test   %esi,%esi
    1b11:	74 6a                	je     1b7d <ieee80211_get_scan_results+0x7d>
    1b13:	83 ec 0c             	sub    $0xc,%esp
    1b16:	8b 45 08             	mov    0x8(%ebp),%eax
    1b19:	81 e3 ff 00 00 00    	and    $0xff,%ebx
    1b1f:	50                   	push   %eax
    1b20:	e8 3b 45 00 00       	call   6060 <async_exchange_begin@plt>
    1b25:	83 c4 0c             	add    $0xc,%esp
    1b28:	89 c7                	mov    %eax,%edi
    1b2a:	6a 00                	push   $0x0
    1b2c:	6a 00                	push   $0x0
    1b2e:	6a 00                	push   $0x0
    1b30:	53                   	push   %ebx
    1b31:	6a 00                	push   $0x0
    1b33:	68 06 04 00 00       	push   $0x406
    1b38:	50                   	push   %eax
    1b39:	e8 c2 43 00 00       	call   5f00 <async_send_fast@plt>
    1b3e:	83 c4 1c             	add    $0x1c,%esp
    1b41:	89 c3                	mov    %eax,%ebx
    1b43:	68 84 07 00 00       	push   $0x784
    1b48:	56                   	push   %esi
    1b49:	57                   	push   %edi
    1b4a:	e8 b1 44 00 00       	call   6000 <async_data_read_start@plt>
    1b4f:	89 3c 24             	mov    %edi,(%esp)
    1b52:	89 45 d4             	mov    %eax,-0x2c(%ebp)
    1b55:	e8 b6 43 00 00       	call   5f10 <async_exchange_end@plt>
    1b5a:	5a                   	pop    %edx
    1b5b:	8d 55 e4             	lea    -0x1c(%ebp),%edx
    1b5e:	59                   	pop    %ecx
    1b5f:	52                   	push   %edx
    1b60:	53                   	push   %ebx
    1b61:	e8 0a 43 00 00       	call   5e70 <async_wait_for@plt>
    1b66:	8b 55 e4             	mov    -0x1c(%ebp),%edx
    1b69:	83 c4 10             	add    $0x10,%esp
    1b6c:	8b 45 d4             	mov    -0x2c(%ebp),%eax
    1b6f:	85 d2                	test   %edx,%edx
    1b71:	74 02                	je     1b75 <ieee80211_get_scan_results+0x75>
    1b73:	89 d0                	mov    %edx,%eax
    1b75:	8d 65 f4             	lea    -0xc(%ebp),%esp
    1b78:	5b                   	pop    %ebx
    1b79:	5e                   	pop    %esi
    1b7a:	5f                   	pop    %edi
    1b7b:	5d                   	pop    %ebp
    1b7c:	c3                   	ret    
    1b7d:	53                   	push   %ebx
    1b7e:	6a 43                	push   $0x43
    1b80:	68 50 5a 00 00       	push   $0x5a50
    1b85:	68 a0 5a 00 00       	push   $0x5aa0
    1b8a:	e8 a1 43 00 00       	call   5f30 <assert_abort@plt>
    1b8f:	90                   	nop

00001b90 <ieee80211_connect>:
    1b90:	55                   	push   %ebp
    1b91:	89 e5                	mov    %esp,%ebp
    1b93:	57                   	push   %edi
    1b94:	56                   	push   %esi
    1b95:	53                   	push   %ebx
    1b96:	83 ec 3c             	sub    $0x3c,%esp
    1b99:	8b 75 0c             	mov    0xc(%ebp),%esi
    1b9c:	85 f6                	test   %esi,%esi
    1b9e:	0f 84 97 01 00 00    	je     1d3b <ieee80211_connect+0x1ab>
    1ba4:	83 ec 0c             	sub    $0xc,%esp
    1ba7:	8b 45 08             	mov    0x8(%ebp),%eax
    1baa:	50                   	push   %eax
    1bab:	e8 b0 44 00 00       	call   6060 <async_exchange_begin@plt>
    1bb0:	83 c4 0c             	add    $0xc,%esp
    1bb3:	89 c3                	mov    %eax,%ebx
    1bb5:	6a 00                	push   $0x0
    1bb7:	6a 00                	push   $0x0
    1bb9:	6a 00                	push   $0x0
    1bbb:	6a 00                	push   $0x0
    1bbd:	6a 01                	push   $0x1
    1bbf:	68 06 04 00 00       	push   $0x406
    1bc4:	50                   	push   %eax
    1bc5:	e8 36 43 00 00       	call   5f00 <async_send_fast@plt>
    1bca:	83 c4 14             	add    $0x14,%esp
    1bcd:	89 c7                	mov    %eax,%edi
    1bcf:	56                   	push   %esi
    1bd0:	e8 6b 44 00 00       	call   6040 <str_size@plt>
    1bd5:	83 c4 0c             	add    $0xc,%esp
    1bd8:	40                   	inc    %eax
    1bd9:	50                   	push   %eax
    1bda:	56                   	push   %esi
    1bdb:	53                   	push   %ebx
    1bdc:	e8 bf 42 00 00       	call   5ea0 <async_data_write_start@plt>
    1be1:	83 c4 10             	add    $0x10,%esp
    1be4:	89 45 c4             	mov    %eax,-0x3c(%ebp)
    1be7:	85 c0                	test   %eax,%eax
    1be9:	75 30                	jne    1c1b <ieee80211_connect+0x8b>
    1beb:	8b 45 10             	mov    0x10(%ebp),%eax
    1bee:	85 c0                	test   %eax,%eax
    1bf0:	0f 84 aa 00 00 00    	je     1ca0 <ieee80211_connect+0x110>
    1bf6:	83 ec 0c             	sub    $0xc,%esp
    1bf9:	8b 75 10             	mov    0x10(%ebp),%esi
    1bfc:	56                   	push   %esi
    1bfd:	e8 3e 44 00 00       	call   6040 <str_size@plt>
    1c02:	83 c4 0c             	add    $0xc,%esp
    1c05:	40                   	inc    %eax
    1c06:	50                   	push   %eax
    1c07:	8b 45 10             	mov    0x10(%ebp),%eax
    1c0a:	50                   	push   %eax
    1c0b:	53                   	push   %ebx
    1c0c:	e8 8f 42 00 00       	call   5ea0 <async_data_write_start@plt>
    1c11:	83 c4 10             	add    $0x10,%esp
    1c14:	89 45 c4             	mov    %eax,-0x3c(%ebp)
    1c17:	85 c0                	test   %eax,%eax
    1c19:	74 2d                	je     1c48 <ieee80211_connect+0xb8>
    1c1b:	83 ec 0c             	sub    $0xc,%esp
    1c1e:	53                   	push   %ebx
    1c1f:	e8 ec 42 00 00       	call   5f10 <async_exchange_end@plt>
    1c24:	8d 45 d8             	lea    -0x28(%ebp),%eax
    1c27:	59                   	pop    %ecx
    1c28:	5b                   	pop    %ebx
    1c29:	50                   	push   %eax
    1c2a:	57                   	push   %edi
    1c2b:	e8 40 42 00 00       	call   5e70 <async_wait_for@plt>
    1c30:	8b 45 d8             	mov    -0x28(%ebp),%eax
    1c33:	83 c4 10             	add    $0x10,%esp
    1c36:	85 c0                	test   %eax,%eax
    1c38:	75 03                	jne    1c3d <ieee80211_connect+0xad>
    1c3a:	8b 45 c4             	mov    -0x3c(%ebp),%eax
    1c3d:	8d 65 f4             	lea    -0xc(%ebp),%esp
    1c40:	5b                   	pop    %ebx
    1c41:	5e                   	pop    %esi
    1c42:	5f                   	pop    %edi
    1c43:	5d                   	pop    %ebp
    1c44:	c3                   	ret    
    1c45:	8d 76 00             	lea    0x0(%esi),%esi
    1c48:	83 ec 0c             	sub    $0xc,%esp
    1c4b:	53                   	push   %ebx
    1c4c:	e8 bf 42 00 00       	call   5f10 <async_exchange_end@plt>
    1c51:	58                   	pop    %eax
    1c52:	8d 45 c4             	lea    -0x3c(%ebp),%eax
    1c55:	5a                   	pop    %edx
    1c56:	50                   	push   %eax
    1c57:	57                   	push   %edi
    1c58:	e8 13 42 00 00       	call   5e70 <async_wait_for@plt>
    1c5d:	8b 45 c4             	mov    -0x3c(%ebp),%eax
    1c60:	83 c4 10             	add    $0x10,%esp
    1c63:	85 c0                	test   %eax,%eax
    1c65:	75 d6                	jne    1c3d <ieee80211_connect+0xad>
    1c67:	8d 45 d2             	lea    -0x2e(%ebp),%eax
    1c6a:	8b 7d 08             	mov    0x8(%ebp),%edi
    1c6d:	56                   	push   %esi
    1c6e:	56                   	push   %esi
    1c6f:	50                   	push   %eax
    1c70:	57                   	push   %edi
    1c71:	e8 9a 23 00 00       	call   4010 <nic_get_address>
    1c76:	83 c4 10             	add    $0x10,%esp
    1c79:	89 45 c4             	mov    %eax,-0x3c(%ebp)
    1c7c:	85 c0                	test   %eax,%eax
    1c7e:	75 bd                	jne    1c3d <ieee80211_connect+0xad>
    1c80:	8d 45 cc             	lea    -0x34(%ebp),%eax
    1c83:	53                   	push   %ebx
    1c84:	53                   	push   %ebx
    1c85:	50                   	push   %eax
    1c86:	8d 45 c8             	lea    -0x38(%ebp),%eax
    1c89:	50                   	push   %eax
    1c8a:	e8 21 44 00 00       	call   60b0 <inetcfg_get_link_list@plt>
    1c8f:	83 c4 10             	add    $0x10,%esp
    1c92:	85 c0                	test   %eax,%eax
    1c94:	74 1a                	je     1cb0 <ieee80211_connect+0x120>
    1c96:	b8 f2 ff ff ff       	mov    $0xfffffff2,%eax
    1c9b:	eb a0                	jmp    1c3d <ieee80211_connect+0xad>
    1c9d:	8d 76 00             	lea    0x0(%esi),%esi
    1ca0:	c7 45 10 7f 56 00 00 	movl   $0x567f,0x10(%ebp)
    1ca7:	e9 4a ff ff ff       	jmp    1bf6 <ieee80211_connect+0x66>
    1cac:	8d 74 26 00          	lea    0x0(%esi,%eiz,1),%esi
    1cb0:	8b 4d cc             	mov    -0x34(%ebp),%ecx
    1cb3:	85 c9                	test   %ecx,%ecx
    1cb5:	74 df                	je     1c96 <ieee80211_connect+0x106>
    1cb7:	31 db                	xor    %ebx,%ebx
    1cb9:	8d 7d d8             	lea    -0x28(%ebp),%edi
    1cbc:	8d 74 26 00          	lea    0x0(%esi,%eiz,1),%esi
    1cc0:	8d 34 9d 00 00 00 00 	lea    0x0(,%ebx,4),%esi
    1cc7:	50                   	push   %eax
    1cc8:	50                   	push   %eax
    1cc9:	8b 45 c8             	mov    -0x38(%ebp),%eax
    1ccc:	57                   	push   %edi
    1ccd:	8b 14 30             	mov    (%eax,%esi,1),%edx
    1cd0:	52                   	push   %edx
    1cd1:	e8 ca 42 00 00       	call   5fa0 <inetcfg_link_get@plt>
    1cd6:	83 c4 10             	add    $0x10,%esp
    1cd9:	85 c0                	test   %eax,%eax
    1cdb:	75 b9                	jne    1c96 <ieee80211_connect+0x106>
    1cdd:	8a 45 e0             	mov    -0x20(%ebp),%al
    1ce0:	38 45 d2             	cmp    %al,-0x2e(%ebp)
    1ce3:	75 4b                	jne    1d30 <ieee80211_connect+0x1a0>
    1ce5:	8a 45 e1             	mov    -0x1f(%ebp),%al
    1ce8:	38 45 d3             	cmp    %al,-0x2d(%ebp)
    1ceb:	75 43                	jne    1d30 <ieee80211_connect+0x1a0>
    1ced:	8a 45 e2             	mov    -0x1e(%ebp),%al
    1cf0:	38 45 d4             	cmp    %al,-0x2c(%ebp)
    1cf3:	75 3b                	jne    1d30 <ieee80211_connect+0x1a0>
    1cf5:	8a 45 e3             	mov    -0x1d(%ebp),%al
    1cf8:	38 45 d5             	cmp    %al,-0x2b(%ebp)
    1cfb:	75 33                	jne    1d30 <ieee80211_connect+0x1a0>
    1cfd:	8a 45 e4             	mov    -0x1c(%ebp),%al
    1d00:	38 45 d6             	cmp    %al,-0x2a(%ebp)
    1d03:	75 2b                	jne    1d30 <ieee80211_connect+0x1a0>
    1d05:	8a 45 e5             	mov    -0x1b(%ebp),%al
    1d08:	38 45 d7             	cmp    %al,-0x29(%ebp)
    1d0b:	75 23                	jne    1d30 <ieee80211_connect+0x1a0>
    1d0d:	8b 45 c8             	mov    -0x38(%ebp),%eax
    1d10:	8b 04 30             	mov    (%eax,%esi,1),%eax
    1d13:	83 f8 ff             	cmp    $0xffffffff,%eax
    1d16:	0f 84 7a ff ff ff    	je     1c96 <ieee80211_connect+0x106>
    1d1c:	83 ec 0c             	sub    $0xc,%esp
    1d1f:	50                   	push   %eax
    1d20:	e8 ab 42 00 00       	call   5fd0 <dhcp_discover@plt>
    1d25:	83 c4 10             	add    $0x10,%esp
    1d28:	e9 10 ff ff ff       	jmp    1c3d <ieee80211_connect+0xad>
    1d2d:	8d 76 00             	lea    0x0(%esi),%esi
    1d30:	43                   	inc    %ebx
    1d31:	3b 5d cc             	cmp    -0x34(%ebp),%ebx
    1d34:	72 8a                	jb     1cc0 <ieee80211_connect+0x130>
    1d36:	e9 5b ff ff ff       	jmp    1c96 <ieee80211_connect+0x106>
    1d3b:	50                   	push   %eax
    1d3c:	68 82 00 00 00       	push   $0x82
    1d41:	68 50 5a 00 00       	push   $0x5a50
    1d46:	68 59 56 00 00       	push   $0x5659
    1d4b:	e8 e0 41 00 00       	call   5f30 <assert_abort@plt>

00001d50 <ieee80211_disconnect>:
    1d50:	55                   	push   %ebp
    1d51:	89 e5                	mov    %esp,%ebp
    1d53:	57                   	push   %edi
    1d54:	56                   	push   %esi
    1d55:	53                   	push   %ebx
    1d56:	81 ec 98 00 00 00    	sub    $0x98,%esp
    1d5c:	8b 75 08             	mov    0x8(%ebp),%esi
    1d5f:	56                   	push   %esi
    1d60:	e8 fb 42 00 00       	call   6060 <async_exchange_begin@plt>
    1d65:	83 c4 0c             	add    $0xc,%esp
    1d68:	89 c3                	mov    %eax,%ebx
    1d6a:	6a 00                	push   $0x0
    1d6c:	6a 00                	push   $0x0
    1d6e:	6a 00                	push   $0x0
    1d70:	6a 00                	push   $0x0
    1d72:	6a 00                	push   $0x0
    1d74:	6a 00                	push   $0x0
    1d76:	6a 00                	push   $0x0
    1d78:	6a 00                	push   $0x0
    1d7a:	6a 02                	push   $0x2
    1d7c:	68 06 04 00 00       	push   $0x406
    1d81:	50                   	push   %eax
    1d82:	e8 59 41 00 00       	call   5ee0 <async_req_fast@plt>
    1d87:	83 c4 24             	add    $0x24,%esp
    1d8a:	89 c7                	mov    %eax,%edi
    1d8c:	53                   	push   %ebx
    1d8d:	e8 7e 41 00 00       	call   5f10 <async_exchange_end@plt>
    1d92:	83 c4 10             	add    $0x10,%esp
    1d95:	85 ff                	test   %edi,%edi
    1d97:	74 0f                	je     1da8 <ieee80211_disconnect+0x58>
    1d99:	8d 65 f4             	lea    -0xc(%ebp),%esp
    1d9c:	89 f8                	mov    %edi,%eax
    1d9e:	5b                   	pop    %ebx
    1d9f:	5e                   	pop    %esi
    1da0:	5f                   	pop    %edi
    1da1:	5d                   	pop    %ebp
    1da2:	c3                   	ret    
    1da3:	90                   	nop
    1da4:	8d 74 26 00          	lea    0x0(%esi,%eiz,1),%esi
    1da8:	50                   	push   %eax
    1da9:	50                   	push   %eax
    1daa:	8d 45 82             	lea    -0x7e(%ebp),%eax
    1dad:	50                   	push   %eax
    1dae:	56                   	push   %esi
    1daf:	e8 5c 22 00 00       	call   4010 <nic_get_address>
    1db4:	83 c4 10             	add    $0x10,%esp
    1db7:	89 c7                	mov    %eax,%edi
    1db9:	85 c0                	test   %eax,%eax
    1dbb:	75 dc                	jne    1d99 <ieee80211_disconnect+0x49>
    1dbd:	50                   	push   %eax
    1dbe:	50                   	push   %eax
    1dbf:	8d 85 7c ff ff ff    	lea    -0x84(%ebp),%eax
    1dc5:	50                   	push   %eax
    1dc6:	8d 85 74 ff ff ff    	lea    -0x8c(%ebp),%eax
    1dcc:	50                   	push   %eax
    1dcd:	e8 be 41 00 00       	call   5f90 <inetcfg_get_addr_list@plt>
    1dd2:	83 c4 10             	add    $0x10,%esp
    1dd5:	89 c7                	mov    %eax,%edi
    1dd7:	85 c0                	test   %eax,%eax
    1dd9:	75 be                	jne    1d99 <ieee80211_disconnect+0x49>
    1ddb:	8b 85 7c ff ff ff    	mov    -0x84(%ebp),%eax
    1de1:	31 db                	xor    %ebx,%ebx
    1de3:	85 c0                	test   %eax,%eax
    1de5:	0f 84 9e 00 00 00    	je     1e89 <ieee80211_disconnect+0x139>
    1deb:	90                   	nop
    1dec:	8d 74 26 00          	lea    0x0(%esi,%eiz,1),%esi
    1df0:	8d 45 98             	lea    -0x68(%ebp),%eax
    1df3:	8d 34 9d 00 00 00 00 	lea    0x0(,%ebx,4),%esi
    1dfa:	57                   	push   %edi
    1dfb:	57                   	push   %edi
    1dfc:	50                   	push   %eax
    1dfd:	8b 85 74 ff ff ff    	mov    -0x8c(%ebp),%eax
    1e03:	8b 04 30             	mov    (%eax,%esi,1),%eax
    1e06:	50                   	push   %eax
    1e07:	e8 84 40 00 00       	call   5e90 <inetcfg_addr_get@plt>
    1e0c:	83 c4 10             	add    $0x10,%esp
    1e0f:	89 c7                	mov    %eax,%edi
    1e11:	85 c0                	test   %eax,%eax
    1e13:	75 84                	jne    1d99 <ieee80211_disconnect+0x49>
    1e15:	8d 45 88             	lea    -0x78(%ebp),%eax
    1e18:	8b 4d b0             	mov    -0x50(%ebp),%ecx
    1e1b:	52                   	push   %edx
    1e1c:	52                   	push   %edx
    1e1d:	50                   	push   %eax
    1e1e:	51                   	push   %ecx
    1e1f:	e8 7c 41 00 00       	call   5fa0 <inetcfg_link_get@plt>
    1e24:	83 c4 10             	add    $0x10,%esp
    1e27:	89 c7                	mov    %eax,%edi
    1e29:	85 c0                	test   %eax,%eax
    1e2b:	0f 85 68 ff ff ff    	jne    1d99 <ieee80211_disconnect+0x49>
    1e31:	8a 45 90             	mov    -0x70(%ebp),%al
    1e34:	38 45 82             	cmp    %al,-0x7e(%ebp)
    1e37:	75 43                	jne    1e7c <ieee80211_disconnect+0x12c>
    1e39:	8a 45 91             	mov    -0x6f(%ebp),%al
    1e3c:	38 45 83             	cmp    %al,-0x7d(%ebp)
    1e3f:	75 3b                	jne    1e7c <ieee80211_disconnect+0x12c>
    1e41:	8a 45 92             	mov    -0x6e(%ebp),%al
    1e44:	38 45 84             	cmp    %al,-0x7c(%ebp)
    1e47:	75 33                	jne    1e7c <ieee80211_disconnect+0x12c>
    1e49:	8a 45 93             	mov    -0x6d(%ebp),%al
    1e4c:	38 45 85             	cmp    %al,-0x7b(%ebp)
    1e4f:	75 2b                	jne    1e7c <ieee80211_disconnect+0x12c>
    1e51:	8a 45 94             	mov    -0x6c(%ebp),%al
    1e54:	38 45 86             	cmp    %al,-0x7a(%ebp)
    1e57:	75 23                	jne    1e7c <ieee80211_disconnect+0x12c>
    1e59:	8a 45 95             	mov    -0x6b(%ebp),%al
    1e5c:	38 45 87             	cmp    %al,-0x79(%ebp)
    1e5f:	75 1b                	jne    1e7c <ieee80211_disconnect+0x12c>
    1e61:	8b 55 b4             	mov    -0x4c(%ebp),%edx
    1e64:	50                   	push   %eax
    1e65:	50                   	push   %eax
    1e66:	68 a8 5a 00 00       	push   $0x5aa8
    1e6b:	52                   	push   %edx
    1e6c:	e8 ef 40 00 00       	call   5f60 <str_test_prefix@plt>
    1e71:	83 c4 10             	add    $0x10,%esp
    1e74:	84 c0                	test   %al,%al
    1e76:	0f 85 94 00 00 00    	jne    1f10 <ieee80211_disconnect+0x1c0>
    1e7c:	43                   	inc    %ebx
    1e7d:	39 9d 7c ff ff ff    	cmp    %ebx,-0x84(%ebp)
    1e83:	0f 87 67 ff ff ff    	ja     1df0 <ieee80211_disconnect+0xa0>
    1e89:	50                   	push   %eax
    1e8a:	50                   	push   %eax
    1e8b:	8d 85 7c ff ff ff    	lea    -0x84(%ebp),%eax
    1e91:	50                   	push   %eax
    1e92:	8d 85 78 ff ff ff    	lea    -0x88(%ebp),%eax
    1e98:	50                   	push   %eax
    1e99:	e8 a2 40 00 00       	call   5f40 <inetcfg_get_sroute_list@plt>
    1e9e:	83 c4 10             	add    $0x10,%esp
    1ea1:	89 c7                	mov    %eax,%edi
    1ea3:	85 c0                	test   %eax,%eax
    1ea5:	0f 85 ee fe ff ff    	jne    1d99 <ieee80211_disconnect+0x49>
    1eab:	8b 85 7c ff ff ff    	mov    -0x84(%ebp),%eax
    1eb1:	31 db                	xor    %ebx,%ebx
    1eb3:	85 c0                	test   %eax,%eax
    1eb5:	75 2d                	jne    1ee4 <ieee80211_disconnect+0x194>
    1eb7:	e9 dd fe ff ff       	jmp    1d99 <ieee80211_disconnect+0x49>
    1ebc:	8d 74 26 00          	lea    0x0(%esi,%eiz,1),%esi
    1ec0:	50                   	push   %eax
    1ec1:	50                   	push   %eax
    1ec2:	8b 45 e4             	mov    -0x1c(%ebp),%eax
    1ec5:	68 a8 5a 00 00       	push   $0x5aa8
    1eca:	50                   	push   %eax
    1ecb:	e8 90 40 00 00       	call   5f60 <str_test_prefix@plt>
    1ed0:	83 c4 10             	add    $0x10,%esp
    1ed3:	84 c0                	test   %al,%al
    1ed5:	75 5d                	jne    1f34 <ieee80211_disconnect+0x1e4>
    1ed7:	43                   	inc    %ebx
    1ed8:	39 9d 7c ff ff ff    	cmp    %ebx,-0x84(%ebp)
    1ede:	0f 86 b5 fe ff ff    	jbe    1d99 <ieee80211_disconnect+0x49>
    1ee4:	50                   	push   %eax
    1ee5:	50                   	push   %eax
    1ee6:	8d 45 b8             	lea    -0x48(%ebp),%eax
    1ee9:	8d 34 9d 00 00 00 00 	lea    0x0(,%ebx,4),%esi
    1ef0:	50                   	push   %eax
    1ef1:	8b 85 78 ff ff ff    	mov    -0x88(%ebp),%eax
    1ef7:	8b 04 30             	mov    (%eax,%esi,1),%eax
    1efa:	50                   	push   %eax
    1efb:	e8 50 3f 00 00       	call   5e50 <inetcfg_sroute_get@plt>
    1f00:	83 c4 10             	add    $0x10,%esp
    1f03:	85 c0                	test   %eax,%eax
    1f05:	74 b9                	je     1ec0 <ieee80211_disconnect+0x170>
    1f07:	89 c7                	mov    %eax,%edi
    1f09:	e9 8b fe ff ff       	jmp    1d99 <ieee80211_disconnect+0x49>
    1f0e:	66 90                	xchg   %ax,%ax
    1f10:	8b 85 74 ff ff ff    	mov    -0x8c(%ebp),%eax
    1f16:	83 ec 0c             	sub    $0xc,%esp
    1f19:	8b 04 30             	mov    (%eax,%esi,1),%eax
    1f1c:	50                   	push   %eax
    1f1d:	e8 2e 40 00 00       	call   5f50 <inetcfg_addr_delete@plt>
    1f22:	83 c4 10             	add    $0x10,%esp
    1f25:	89 c7                	mov    %eax,%edi
    1f27:	85 c0                	test   %eax,%eax
    1f29:	0f 84 5a ff ff ff    	je     1e89 <ieee80211_disconnect+0x139>
    1f2f:	e9 65 fe ff ff       	jmp    1d99 <ieee80211_disconnect+0x49>
    1f34:	8b 85 78 ff ff ff    	mov    -0x88(%ebp),%eax
    1f3a:	83 ec 0c             	sub    $0xc,%esp
    1f3d:	8b 0c 30             	mov    (%eax,%esi,1),%ecx
    1f40:	51                   	push   %ecx
    1f41:	e8 da 40 00 00       	call   6020 <inetcfg_sroute_delete@plt>
    1f46:	83 c4 10             	add    $0x10,%esp
    1f49:	89 c7                	mov    %eax,%edi
    1f4b:	e9 49 fe ff ff       	jmp    1d99 <ieee80211_disconnect+0x49>

00001f50 <remote_nic_poll_now>:
    1f50:	55                   	push   %ebp
    1f51:	89 e5                	mov    %esp,%ebp
    1f53:	53                   	push   %ebx
    1f54:	50                   	push   %eax
    1f55:	8b 45 0c             	mov    0xc(%ebp),%eax
    1f58:	8b 55 08             	mov    0x8(%ebp),%edx
    1f5b:	8b 5d 10             	mov    0x10(%ebp),%ebx
    1f5e:	8b 80 a0 00 00 00    	mov    0xa0(%eax),%eax
    1f64:	85 c0                	test   %eax,%eax
    1f66:	74 18                	je     1f80 <remote_nic_poll_now+0x30>
    1f68:	83 ec 0c             	sub    $0xc,%esp
    1f6b:	52                   	push   %edx
    1f6c:	ff d0                	call   *%eax
    1f6e:	89 5d 08             	mov    %ebx,0x8(%ebp)
    1f71:	83 c4 10             	add    $0x10,%esp
    1f74:	8b 5d fc             	mov    -0x4(%ebp),%ebx
    1f77:	89 45 0c             	mov    %eax,0xc(%ebp)
    1f7a:	c9                   	leave  
    1f7b:	e9 70 3f 00 00       	jmp    5ef0 <async_answer_0@plt>
    1f80:	89 5d 08             	mov    %ebx,0x8(%ebp)
    1f83:	8b 5d fc             	mov    -0x4(%ebp),%ebx
    1f86:	c7 45 0c f5 ff ff ff 	movl   $0xfffffff5,0xc(%ebp)
    1f8d:	c9                   	leave  
    1f8e:	e9 5d 3f 00 00       	jmp    5ef0 <async_answer_0@plt>
    1f93:	8d b6 00 00 00 00    	lea    0x0(%esi),%esi
    1f99:	8d bc 27 00 00 00 00 	lea    0x0(%edi,%eiz,1),%edi

00001fa0 <remote_nic_offload_set>:
    1fa0:	55                   	push   %ebp
    1fa1:	89 e5                	mov    %esp,%ebp
    1fa3:	53                   	push   %ebx
    1fa4:	51                   	push   %ecx
    1fa5:	8b 45 0c             	mov    0xc(%ebp),%eax
    1fa8:	8b 4d 08             	mov    0x8(%ebp),%ecx
    1fab:	8b 5d 10             	mov    0x10(%ebp),%ebx
    1fae:	8b 55 14             	mov    0x14(%ebp),%edx
    1fb1:	8b 80 94 00 00 00    	mov    0x94(%eax),%eax
    1fb7:	85 c0                	test   %eax,%eax
    1fb9:	74 25                	je     1fe0 <remote_nic_offload_set+0x40>
    1fbb:	83 ec 04             	sub    $0x4,%esp
    1fbe:	ff 72 0c             	pushl  0xc(%edx)
    1fc1:	8b 52 08             	mov    0x8(%edx),%edx
    1fc4:	52                   	push   %edx
    1fc5:	51                   	push   %ecx
    1fc6:	ff d0                	call   *%eax
    1fc8:	89 5d 08             	mov    %ebx,0x8(%ebp)
    1fcb:	83 c4 10             	add    $0x10,%esp
    1fce:	8b 5d fc             	mov    -0x4(%ebp),%ebx
    1fd1:	89 45 0c             	mov    %eax,0xc(%ebp)
    1fd4:	c9                   	leave  
    1fd5:	e9 16 3f 00 00       	jmp    5ef0 <async_answer_0@plt>
    1fda:	8d b6 00 00 00 00    	lea    0x0(%esi),%esi
    1fe0:	89 5d 08             	mov    %ebx,0x8(%ebp)
    1fe3:	8b 5d fc             	mov    -0x4(%ebp),%ebx
    1fe6:	c7 45 0c f5 ff ff ff 	movl   $0xfffffff5,0xc(%ebp)
    1fed:	c9                   	leave  
    1fee:	e9 fd 3e 00 00       	jmp    5ef0 <async_answer_0@plt>
    1ff3:	8d b6 00 00 00 00    	lea    0x0(%esi),%esi
    1ff9:	8d bc 27 00 00 00 00 	lea    0x0(%edi,%eiz,1),%edi

00002000 <remote_nic_wol_virtue_remove>:
    2000:	55                   	push   %ebp
    2001:	89 e5                	mov    %esp,%ebp
    2003:	53                   	push   %ebx
    2004:	53                   	push   %ebx
    2005:	8b 45 0c             	mov    0xc(%ebp),%eax
    2008:	8b 55 08             	mov    0x8(%ebp),%edx
    200b:	8b 5d 10             	mov    0x10(%ebp),%ebx
    200e:	8b 4d 14             	mov    0x14(%ebp),%ecx
    2011:	8b 40 7c             	mov    0x7c(%eax),%eax
    2014:	85 c0                	test   %eax,%eax
    2016:	74 20                	je     2038 <remote_nic_wol_virtue_remove+0x38>
    2018:	83 ec 08             	sub    $0x8,%esp
    201b:	8b 49 08             	mov    0x8(%ecx),%ecx
    201e:	51                   	push   %ecx
    201f:	52                   	push   %edx
    2020:	ff d0                	call   *%eax
    2022:	89 5d 08             	mov    %ebx,0x8(%ebp)
    2025:	83 c4 10             	add    $0x10,%esp
    2028:	8b 5d fc             	mov    -0x4(%ebp),%ebx
    202b:	89 45 0c             	mov    %eax,0xc(%ebp)
    202e:	c9                   	leave  
    202f:	e9 bc 3e 00 00       	jmp    5ef0 <async_answer_0@plt>
    2034:	8d 74 26 00          	lea    0x0(%esi,%eiz,1),%esi
    2038:	89 5d 08             	mov    %ebx,0x8(%ebp)
    203b:	8b 5d fc             	mov    -0x4(%ebp),%ebx
    203e:	c7 45 0c f5 ff ff ff 	movl   $0xfffffff5,0xc(%ebp)
    2045:	c9                   	leave  
    2046:	e9 a5 3e 00 00       	jmp    5ef0 <async_answer_0@plt>
    204b:	90                   	nop
    204c:	8d 74 26 00          	lea    0x0(%esi,%eiz,1),%esi

00002050 <remote_nic_vlan_set_tag>:
    2050:	55                   	push   %ebp
    2051:	89 e5                	mov    %esp,%ebp
    2053:	57                   	push   %edi
    2054:	56                   	push   %esi
    2055:	53                   	push   %ebx
    2056:	83 ec 0c             	sub    $0xc,%esp
    2059:	8b 55 0c             	mov    0xc(%ebp),%edx
    205c:	8b 7d 08             	mov    0x8(%ebp),%edi
    205f:	8b 5d 10             	mov    0x10(%ebp),%ebx
    2062:	8b 45 14             	mov    0x14(%ebp),%eax
    2065:	8b 52 74             	mov    0x74(%edx),%edx
    2068:	85 d2                	test   %edx,%edx
    206a:	74 3c                	je     20a8 <remote_nic_vlan_set_tag+0x58>
    206c:	8b 70 10             	mov    0x10(%eax),%esi
    206f:	31 c9                	xor    %ecx,%ecx
    2071:	85 f6                	test   %esi,%esi
    2073:	0f 95 c1             	setne  %cl
    2076:	89 ce                	mov    %ecx,%esi
    2078:	31 c9                	xor    %ecx,%ecx
    207a:	56                   	push   %esi
    207b:	8b 70 0c             	mov    0xc(%eax),%esi
    207e:	85 f6                	test   %esi,%esi
    2080:	0f 95 c1             	setne  %cl
    2083:	89 ce                	mov    %ecx,%esi
    2085:	56                   	push   %esi
    2086:	8b 48 08             	mov    0x8(%eax),%ecx
    2089:	81 e1 ff ff 00 00    	and    $0xffff,%ecx
    208f:	51                   	push   %ecx
    2090:	57                   	push   %edi
    2091:	ff d2                	call   *%edx
    2093:	89 5d 08             	mov    %ebx,0x8(%ebp)
    2096:	89 45 0c             	mov    %eax,0xc(%ebp)
    2099:	83 c4 10             	add    $0x10,%esp
    209c:	8d 65 f4             	lea    -0xc(%ebp),%esp
    209f:	5b                   	pop    %ebx
    20a0:	5e                   	pop    %esi
    20a1:	5f                   	pop    %edi
    20a2:	5d                   	pop    %ebp
    20a3:	e9 48 3e 00 00       	jmp    5ef0 <async_answer_0@plt>
    20a8:	89 5d 08             	mov    %ebx,0x8(%ebp)
    20ab:	c7 45 0c f5 ff ff ff 	movl   $0xfffffff5,0xc(%ebp)
    20b2:	8d 65 f4             	lea    -0xc(%ebp),%esp
    20b5:	5b                   	pop    %ebx
    20b6:	5e                   	pop    %esi
    20b7:	5f                   	pop    %edi
    20b8:	5d                   	pop    %ebp
    20b9:	e9 32 3e 00 00       	jmp    5ef0 <async_answer_0@plt>
    20be:	66 90                	xchg   %ax,%ax

000020c0 <remote_nic_defective_set_mode>:
    20c0:	55                   	push   %ebp
    20c1:	89 e5                	mov    %esp,%ebp
    20c3:	53                   	push   %ebx
    20c4:	53                   	push   %ebx
    20c5:	8b 45 0c             	mov    0xc(%ebp),%eax
    20c8:	8b 55 08             	mov    0x8(%ebp),%edx
    20cb:	8b 5d 10             	mov    0x10(%ebp),%ebx
    20ce:	8b 4d 14             	mov    0x14(%ebp),%ecx
    20d1:	8b 40 60             	mov    0x60(%eax),%eax
    20d4:	85 c0                	test   %eax,%eax
    20d6:	74 20                	je     20f8 <remote_nic_defective_set_mode+0x38>
    20d8:	83 ec 08             	sub    $0x8,%esp
    20db:	8b 49 08             	mov    0x8(%ecx),%ecx
    20de:	51                   	push   %ecx
    20df:	52                   	push   %edx
    20e0:	ff d0                	call   *%eax
    20e2:	89 5d 08             	mov    %ebx,0x8(%ebp)
    20e5:	83 c4 10             	add    $0x10,%esp
    20e8:	8b 5d fc             	mov    -0x4(%ebp),%ebx
    20eb:	89 45 0c             	mov    %eax,0xc(%ebp)
    20ee:	c9                   	leave  
    20ef:	e9 fc 3d 00 00       	jmp    5ef0 <async_answer_0@plt>
    20f4:	8d 74 26 00          	lea    0x0(%esi,%eiz,1),%esi
    20f8:	89 5d 08             	mov    %ebx,0x8(%ebp)
    20fb:	8b 5d fc             	mov    -0x4(%ebp),%ebx
    20fe:	c7 45 0c f5 ff ff ff 	movl   $0xfffffff5,0xc(%ebp)
    2105:	c9                   	leave  
    2106:	e9 e5 3d 00 00       	jmp    5ef0 <async_answer_0@plt>
    210b:	90                   	nop
    210c:	8d 74 26 00          	lea    0x0(%esi,%eiz,1),%esi

00002110 <remote_nic_broadcast_set_mode>:
    2110:	55                   	push   %ebp
    2111:	89 e5                	mov    %esp,%ebp
    2113:	53                   	push   %ebx
    2114:	53                   	push   %ebx
    2115:	8b 45 0c             	mov    0xc(%ebp),%eax
    2118:	8b 55 08             	mov    0x8(%ebp),%edx
    211b:	8b 5d 10             	mov    0x10(%ebp),%ebx
    211e:	8b 4d 14             	mov    0x14(%ebp),%ecx
    2121:	8b 40 58             	mov    0x58(%eax),%eax
    2124:	85 c0                	test   %eax,%eax
    2126:	74 20                	je     2148 <remote_nic_broadcast_set_mode+0x38>
    2128:	83 ec 08             	sub    $0x8,%esp
    212b:	8b 49 08             	mov    0x8(%ecx),%ecx
    212e:	51                   	push   %ecx
    212f:	52                   	push   %edx
    2130:	ff d0                	call   *%eax
    2132:	89 5d 08             	mov    %ebx,0x8(%ebp)
    2135:	83 c4 10             	add    $0x10,%esp
    2138:	8b 5d fc             	mov    -0x4(%ebp),%ebx
    213b:	89 45 0c             	mov    %eax,0xc(%ebp)
    213e:	c9                   	leave  
    213f:	e9 ac 3d 00 00       	jmp    5ef0 <async_answer_0@plt>
    2144:	8d 74 26 00          	lea    0x0(%esi,%eiz,1),%esi
    2148:	89 5d 08             	mov    %ebx,0x8(%ebp)
    214b:	8b 5d fc             	mov    -0x4(%ebp),%ebx
    214e:	c7 45 0c f5 ff ff ff 	movl   $0xfffffff5,0xc(%ebp)
    2155:	c9                   	leave  
    2156:	e9 95 3d 00 00       	jmp    5ef0 <async_answer_0@plt>
    215b:	90                   	nop
    215c:	8d 74 26 00          	lea    0x0(%esi,%eiz,1),%esi

00002160 <remote_nic_set_pause>:
    2160:	55                   	push   %ebp
    2161:	89 e5                	mov    %esp,%ebp
    2163:	56                   	push   %esi
    2164:	53                   	push   %ebx
    2165:	8b 55 0c             	mov    0xc(%ebp),%edx
    2168:	8b 4d 08             	mov    0x8(%ebp),%ecx
    216b:	8b 5d 10             	mov    0x10(%ebp),%ebx
    216e:	8b 45 14             	mov    0x14(%ebp),%eax
    2171:	8b 52 40             	mov    0x40(%edx),%edx
    2174:	85 d2                	test   %edx,%edx
    2176:	74 28                	je     21a0 <remote_nic_set_pause+0x40>
    2178:	31 f6                	xor    %esi,%esi
    217a:	66 8b 70 10          	mov    0x10(%eax),%si
    217e:	56                   	push   %esi
    217f:	8b 70 0c             	mov    0xc(%eax),%esi
    2182:	56                   	push   %esi
    2183:	8b 40 08             	mov    0x8(%eax),%eax
    2186:	50                   	push   %eax
    2187:	51                   	push   %ecx
    2188:	ff d2                	call   *%edx
    218a:	89 5d 08             	mov    %ebx,0x8(%ebp)
    218d:	89 45 0c             	mov    %eax,0xc(%ebp)
    2190:	83 c4 10             	add    $0x10,%esp
    2193:	8d 65 f8             	lea    -0x8(%ebp),%esp
    2196:	5b                   	pop    %ebx
    2197:	5e                   	pop    %esi
    2198:	5d                   	pop    %ebp
    2199:	e9 52 3d 00 00       	jmp    5ef0 <async_answer_0@plt>
    219e:	66 90                	xchg   %ax,%ax
    21a0:	89 5d 08             	mov    %ebx,0x8(%ebp)
    21a3:	c7 45 0c f5 ff ff ff 	movl   $0xfffffff5,0xc(%ebp)
    21aa:	8d 65 f8             	lea    -0x8(%ebp),%esp
    21ad:	5b                   	pop    %ebx
    21ae:	5e                   	pop    %esi
    21af:	5d                   	pop    %ebp
    21b0:	e9 3b 3d 00 00       	jmp    5ef0 <async_answer_0@plt>
    21b5:	8d 74 26 00          	lea    0x0(%esi,%eiz,1),%esi
    21b9:	8d bc 27 00 00 00 00 	lea    0x0(%edi,%eiz,1),%edi

000021c0 <remote_nic_autoneg_restart>:
    21c0:	55                   	push   %ebp
    21c1:	89 e5                	mov    %esp,%ebp
    21c3:	53                   	push   %ebx
    21c4:	50                   	push   %eax
    21c5:	8b 45 0c             	mov    0xc(%ebp),%eax
    21c8:	8b 55 08             	mov    0x8(%ebp),%edx
    21cb:	8b 5d 10             	mov    0x10(%ebp),%ebx
    21ce:	8b 40 38             	mov    0x38(%eax),%eax
    21d1:	85 c0                	test   %eax,%eax
    21d3:	74 1b                	je     21f0 <remote_nic_autoneg_restart+0x30>
    21d5:	83 ec 0c             	sub    $0xc,%esp
    21d8:	52                   	push   %edx
    21d9:	ff d0                	call   *%eax
    21db:	89 5d 08             	mov    %ebx,0x8(%ebp)
    21de:	83 c4 10             	add    $0x10,%esp
    21e1:	8b 5d fc             	mov    -0x4(%ebp),%ebx
    21e4:	89 45 0c             	mov    %eax,0xc(%ebp)
    21e7:	c9                   	leave  
    21e8:	e9 03 3d 00 00       	jmp    5ef0 <async_answer_0@plt>
    21ed:	8d 76 00             	lea    0x0(%esi),%esi
    21f0:	89 5d 08             	mov    %ebx,0x8(%ebp)
    21f3:	8b 5d fc             	mov    -0x4(%ebp),%ebx
    21f6:	c7 45 0c f5 ff ff ff 	movl   $0xfffffff5,0xc(%ebp)
    21fd:	c9                   	leave  
    21fe:	e9 ed 3c 00 00       	jmp    5ef0 <async_answer_0@plt>
    2203:	8d b6 00 00 00 00    	lea    0x0(%esi),%esi
    2209:	8d bc 27 00 00 00 00 	lea    0x0(%edi,%eiz,1),%edi

00002210 <remote_nic_autoneg_disable>:
    2210:	55                   	push   %ebp
    2211:	89 e5                	mov    %esp,%ebp
    2213:	53                   	push   %ebx
    2214:	50                   	push   %eax
    2215:	8b 45 0c             	mov    0xc(%ebp),%eax
    2218:	8b 55 08             	mov    0x8(%ebp),%edx
    221b:	8b 5d 10             	mov    0x10(%ebp),%ebx
    221e:	8b 40 30             	mov    0x30(%eax),%eax
    2221:	85 c0                	test   %eax,%eax
    2223:	74 1b                	je     2240 <remote_nic_autoneg_disable+0x30>
    2225:	83 ec 0c             	sub    $0xc,%esp
    2228:	52                   	push   %edx
    2229:	ff d0                	call   *%eax
    222b:	89 5d 08             	mov    %ebx,0x8(%ebp)
    222e:	83 c4 10             	add    $0x10,%esp
    2231:	8b 5d fc             	mov    -0x4(%ebp),%ebx
    2234:	89 45 0c             	mov    %eax,0xc(%ebp)
    2237:	c9                   	leave  
    2238:	e9 b3 3c 00 00       	jmp    5ef0 <async_answer_0@plt>
    223d:	8d 76 00             	lea    0x0(%esi),%esi
    2240:	89 5d 08             	mov    %ebx,0x8(%ebp)
    2243:	8b 5d fc             	mov    -0x4(%ebp),%ebx
    2246:	c7 45 0c f5 ff ff ff 	movl   $0xfffffff5,0xc(%ebp)
    224d:	c9                   	leave  
    224e:	e9 9d 3c 00 00       	jmp    5ef0 <async_answer_0@plt>
    2253:	8d b6 00 00 00 00    	lea    0x0(%esi),%esi
    2259:	8d bc 27 00 00 00 00 	lea    0x0(%edi,%eiz,1),%edi

00002260 <remote_nic_autoneg_enable>:
    2260:	55                   	push   %ebp
    2261:	89 e5                	mov    %esp,%ebp
    2263:	53                   	push   %ebx
    2264:	53                   	push   %ebx
    2265:	8b 45 0c             	mov    0xc(%ebp),%eax
    2268:	8b 55 08             	mov    0x8(%ebp),%edx
    226b:	8b 5d 10             	mov    0x10(%ebp),%ebx
    226e:	8b 4d 14             	mov    0x14(%ebp),%ecx
    2271:	8b 40 2c             	mov    0x2c(%eax),%eax
    2274:	85 c0                	test   %eax,%eax
    2276:	74 20                	je     2298 <remote_nic_autoneg_enable+0x38>
    2278:	83 ec 08             	sub    $0x8,%esp
    227b:	8b 49 08             	mov    0x8(%ecx),%ecx
    227e:	51                   	push   %ecx
    227f:	52                   	push   %edx
    2280:	ff d0                	call   *%eax
    2282:	89 5d 08             	mov    %ebx,0x8(%ebp)
    2285:	83 c4 10             	add    $0x10,%esp
    2288:	8b 5d fc             	mov    -0x4(%ebp),%ebx
    228b:	89 45 0c             	mov    %eax,0xc(%ebp)
    228e:	c9                   	leave  
    228f:	e9 5c 3c 00 00       	jmp    5ef0 <async_answer_0@plt>
    2294:	8d 74 26 00          	lea    0x0(%esi,%eiz,1),%esi
    2298:	89 5d 08             	mov    %ebx,0x8(%ebp)
    229b:	8b 5d fc             	mov    -0x4(%ebp),%ebx
    229e:	c7 45 0c f5 ff ff ff 	movl   $0xfffffff5,0xc(%ebp)
    22a5:	c9                   	leave  
    22a6:	e9 45 3c 00 00       	jmp    5ef0 <async_answer_0@plt>
    22ab:	90                   	nop
    22ac:	8d 74 26 00          	lea    0x0(%esi,%eiz,1),%esi

000022b0 <remote_nic_set_operation_mode>:
    22b0:	55                   	push   %ebp
    22b1:	89 e5                	mov    %esp,%ebp
    22b3:	53                   	push   %ebx
    22b4:	52                   	push   %edx
    22b5:	8b 55 0c             	mov    0xc(%ebp),%edx
    22b8:	8b 4d 08             	mov    0x8(%ebp),%ecx
    22bb:	8b 5d 10             	mov    0x10(%ebp),%ebx
    22be:	8b 45 14             	mov    0x14(%ebp),%eax
    22c1:	8b 52 28             	mov    0x28(%edx),%edx
    22c4:	85 d2                	test   %edx,%edx
    22c6:	74 20                	je     22e8 <remote_nic_set_operation_mode+0x38>
    22c8:	ff 70 10             	pushl  0x10(%eax)
    22cb:	ff 70 0c             	pushl  0xc(%eax)
    22ce:	8b 40 08             	mov    0x8(%eax),%eax
    22d1:	50                   	push   %eax
    22d2:	51                   	push   %ecx
    22d3:	ff d2                	call   *%edx
    22d5:	89 5d 08             	mov    %ebx,0x8(%ebp)
    22d8:	83 c4 10             	add    $0x10,%esp
    22db:	8b 5d fc             	mov    -0x4(%ebp),%ebx
    22de:	89 45 0c             	mov    %eax,0xc(%ebp)
    22e1:	c9                   	leave  
    22e2:	e9 09 3c 00 00       	jmp    5ef0 <async_answer_0@plt>
    22e7:	90                   	nop
    22e8:	89 5d 08             	mov    %ebx,0x8(%ebp)
    22eb:	8b 5d fc             	mov    -0x4(%ebp),%ebx
    22ee:	c7 45 0c f5 ff ff ff 	movl   $0xfffffff5,0xc(%ebp)
    22f5:	c9                   	leave  
    22f6:	e9 f5 3b 00 00       	jmp    5ef0 <async_answer_0@plt>
    22fb:	90                   	nop
    22fc:	8d 74 26 00          	lea    0x0(%esi,%eiz,1),%esi

00002300 <remote_nic_poll_set_mode>:
    2300:	55                   	push   %ebp
    2301:	31 d2                	xor    %edx,%edx
    2303:	89 e5                	mov    %esp,%ebp
    2305:	56                   	push   %esi
    2306:	53                   	push   %ebx
    2307:	83 ec 10             	sub    $0x10,%esp
    230a:	8b 45 14             	mov    0x14(%ebp),%eax
    230d:	8b 70 08             	mov    0x8(%eax),%esi
    2310:	8b 40 0c             	mov    0xc(%eax),%eax
    2313:	85 c0                	test   %eax,%eax
    2315:	75 31                	jne    2348 <remote_nic_poll_set_mode+0x48>
    2317:	8b 45 0c             	mov    0xc(%ebp),%eax
    231a:	8b 80 9c 00 00 00    	mov    0x9c(%eax),%eax
    2320:	85 c0                	test   %eax,%eax
    2322:	0f 84 90 00 00 00    	je     23b8 <remote_nic_poll_set_mode+0xb8>
    2328:	8b 5d 08             	mov    0x8(%ebp),%ebx
    232b:	51                   	push   %ecx
    232c:	52                   	push   %edx
    232d:	56                   	push   %esi
    232e:	53                   	push   %ebx
    232f:	ff d0                	call   *%eax
    2331:	8b 4d 10             	mov    0x10(%ebp),%ecx
    2334:	5e                   	pop    %esi
    2335:	5a                   	pop    %edx
    2336:	50                   	push   %eax
    2337:	51                   	push   %ecx
    2338:	e8 b3 3b 00 00       	call   5ef0 <async_answer_0@plt>
    233d:	83 c4 10             	add    $0x10,%esp
    2340:	8d 65 f8             	lea    -0x8(%ebp),%esp
    2343:	5b                   	pop    %ebx
    2344:	5e                   	pop    %esi
    2345:	5d                   	pop    %ebp
    2346:	c3                   	ret    
    2347:	90                   	nop
    2348:	8d 45 e8             	lea    -0x18(%ebp),%eax
    234b:	53                   	push   %ebx
    234c:	53                   	push   %ebx
    234d:	50                   	push   %eax
    234e:	8d 45 ec             	lea    -0x14(%ebp),%eax
    2351:	50                   	push   %eax
    2352:	e8 79 3d 00 00       	call   60d0 <async_data_write_receive@plt>
    2357:	83 c4 10             	add    $0x10,%esp
    235a:	84 c0                	test   %al,%al
    235c:	74 72                	je     23d0 <remote_nic_poll_set_mode+0xd0>
    235e:	83 7d e8 08          	cmpl   $0x8,-0x18(%ebp)
    2362:	74 24                	je     2388 <remote_nic_poll_set_mode+0x88>
    2364:	50                   	push   %eax
    2365:	50                   	push   %eax
    2366:	8b 45 ec             	mov    -0x14(%ebp),%eax
    2369:	6a fd                	push   $0xfffffffd
    236b:	50                   	push   %eax
    236c:	e8 7f 3b 00 00       	call   5ef0 <async_answer_0@plt>
    2371:	8b 4d 10             	mov    0x10(%ebp),%ecx
    2374:	58                   	pop    %eax
    2375:	5a                   	pop    %edx
    2376:	6a fd                	push   $0xfffffffd
    2378:	51                   	push   %ecx
    2379:	e8 72 3b 00 00       	call   5ef0 <async_answer_0@plt>
    237e:	83 c4 10             	add    $0x10,%esp
    2381:	8d 65 f8             	lea    -0x8(%ebp),%esp
    2384:	5b                   	pop    %ebx
    2385:	5e                   	pop    %esi
    2386:	5d                   	pop    %ebp
    2387:	c3                   	ret    
    2388:	8d 5d f0             	lea    -0x10(%ebp),%ebx
    238b:	50                   	push   %eax
    238c:	8b 45 ec             	mov    -0x14(%ebp),%eax
    238f:	6a 08                	push   $0x8
    2391:	53                   	push   %ebx
    2392:	50                   	push   %eax
    2393:	e8 e8 3c 00 00       	call   6080 <async_data_write_finalize@plt>
    2398:	83 c4 10             	add    $0x10,%esp
    239b:	89 da                	mov    %ebx,%edx
    239d:	85 c0                	test   %eax,%eax
    239f:	0f 84 72 ff ff ff    	je     2317 <remote_nic_poll_set_mode+0x17>
    23a5:	8b 75 10             	mov    0x10(%ebp),%esi
    23a8:	53                   	push   %ebx
    23a9:	53                   	push   %ebx
    23aa:	6a f2                	push   $0xfffffff2
    23ac:	56                   	push   %esi
    23ad:	e8 3e 3b 00 00       	call   5ef0 <async_answer_0@plt>
    23b2:	83 c4 10             	add    $0x10,%esp
    23b5:	eb 89                	jmp    2340 <remote_nic_poll_set_mode+0x40>
    23b7:	90                   	nop
    23b8:	8b 55 10             	mov    0x10(%ebp),%edx
    23bb:	50                   	push   %eax
    23bc:	50                   	push   %eax
    23bd:	6a f5                	push   $0xfffffff5
    23bf:	52                   	push   %edx
    23c0:	e8 2b 3b 00 00       	call   5ef0 <async_answer_0@plt>
    23c5:	83 c4 10             	add    $0x10,%esp
    23c8:	8d 65 f8             	lea    -0x8(%ebp),%esp
    23cb:	5b                   	pop    %ebx
    23cc:	5e                   	pop    %esi
    23cd:	5d                   	pop    %ebp
    23ce:	c3                   	ret    
    23cf:	90                   	nop
    23d0:	8b 75 ec             	mov    -0x14(%ebp),%esi
    23d3:	53                   	push   %ebx
    23d4:	53                   	push   %ebx
    23d5:	6a f2                	push   $0xfffffff2
    23d7:	56                   	push   %esi
    23d8:	e8 13 3b 00 00       	call   5ef0 <async_answer_0@plt>
    23dd:	8b 4d 10             	mov    0x10(%ebp),%ecx
    23e0:	58                   	pop    %eax
    23e1:	5a                   	pop    %edx
    23e2:	6a f2                	push   $0xfffffff2
    23e4:	51                   	push   %ecx
    23e5:	e8 06 3b 00 00       	call   5ef0 <async_answer_0@plt>
    23ea:	83 c4 10             	add    $0x10,%esp
    23ed:	e9 4e ff ff ff       	jmp    2340 <remote_nic_poll_set_mode+0x40>
    23f2:	8d b4 26 00 00 00 00 	lea    0x0(%esi,%eiz,1),%esi
    23f9:	8d bc 27 00 00 00 00 	lea    0x0(%edi,%eiz,1),%edi

00002400 <remote_nic_vlan_set_mask>:
    2400:	55                   	push   %ebp
    2401:	31 d2                	xor    %edx,%edx
    2403:	89 e5                	mov    %esp,%ebp
    2405:	53                   	push   %ebx
    2406:	81 ec 14 02 00 00    	sub    $0x214,%esp
    240c:	8b 45 14             	mov    0x14(%ebp),%eax
    240f:	8b 40 08             	mov    0x8(%eax),%eax
    2412:	85 c0                	test   %eax,%eax
    2414:	75 32                	jne    2448 <remote_nic_vlan_set_mask+0x48>
    2416:	8b 45 0c             	mov    0xc(%ebp),%eax
    2419:	8b 40 70             	mov    0x70(%eax),%eax
    241c:	85 c0                	test   %eax,%eax
    241e:	0f 84 bc 00 00 00    	je     24e0 <remote_nic_vlan_set_mask+0xe0>
    2424:	8b 5d 08             	mov    0x8(%ebp),%ebx
    2427:	51                   	push   %ecx
    2428:	51                   	push   %ecx
    2429:	52                   	push   %edx
    242a:	53                   	push   %ebx
    242b:	ff d0                	call   *%eax
    242d:	8b 5d 10             	mov    0x10(%ebp),%ebx
    2430:	5a                   	pop    %edx
    2431:	59                   	pop    %ecx
    2432:	50                   	push   %eax
    2433:	53                   	push   %ebx
    2434:	e8 b7 3a 00 00       	call   5ef0 <async_answer_0@plt>
    2439:	83 c4 10             	add    $0x10,%esp
    243c:	8b 5d fc             	mov    -0x4(%ebp),%ebx
    243f:	c9                   	leave  
    2440:	c3                   	ret    
    2441:	8d b4 26 00 00 00 00 	lea    0x0(%esi,%eiz,1),%esi
    2448:	8d 85 f4 fd ff ff    	lea    -0x20c(%ebp),%eax
    244e:	53                   	push   %ebx
    244f:	53                   	push   %ebx
    2450:	50                   	push   %eax
    2451:	8d 85 f0 fd ff ff    	lea    -0x210(%ebp),%eax
    2457:	50                   	push   %eax
    2458:	e8 73 3c 00 00       	call   60d0 <async_data_write_receive@plt>
    245d:	83 c4 10             	add    $0x10,%esp
    2460:	84 c0                	test   %al,%al
    2462:	0f 84 90 00 00 00    	je     24f8 <remote_nic_vlan_set_mask+0xf8>
    2468:	81 bd f4 fd ff ff 00 	cmpl   $0x200,-0x20c(%ebp)
    246f:	02 00 00 
    2472:	74 2c                	je     24a0 <remote_nic_vlan_set_mask+0xa0>
    2474:	50                   	push   %eax
    2475:	50                   	push   %eax
    2476:	8b 85 f0 fd ff ff    	mov    -0x210(%ebp),%eax
    247c:	6a fd                	push   $0xfffffffd
    247e:	50                   	push   %eax
    247f:	e8 6c 3a 00 00       	call   5ef0 <async_answer_0@plt>
    2484:	8b 5d 10             	mov    0x10(%ebp),%ebx
    2487:	5a                   	pop    %edx
    2488:	59                   	pop    %ecx
    2489:	6a fd                	push   $0xfffffffd
    248b:	53                   	push   %ebx
    248c:	e8 5f 3a 00 00       	call   5ef0 <async_answer_0@plt>
    2491:	83 c4 10             	add    $0x10,%esp
    2494:	8b 5d fc             	mov    -0x4(%ebp),%ebx
    2497:	c9                   	leave  
    2498:	c3                   	ret    
    2499:	8d b4 26 00 00 00 00 	lea    0x0(%esi,%eiz,1),%esi
    24a0:	8d 9d f8 fd ff ff    	lea    -0x208(%ebp),%ebx
    24a6:	50                   	push   %eax
    24a7:	8b 85 f0 fd ff ff    	mov    -0x210(%ebp),%eax
    24ad:	68 00 02 00 00       	push   $0x200
    24b2:	53                   	push   %ebx
    24b3:	50                   	push   %eax
    24b4:	e8 c7 3b 00 00       	call   6080 <async_data_write_finalize@plt>
    24b9:	83 c4 10             	add    $0x10,%esp
    24bc:	89 da                	mov    %ebx,%edx
    24be:	85 c0                	test   %eax,%eax
    24c0:	0f 84 50 ff ff ff    	je     2416 <remote_nic_vlan_set_mask+0x16>
    24c6:	50                   	push   %eax
    24c7:	50                   	push   %eax
    24c8:	8b 45 10             	mov    0x10(%ebp),%eax
    24cb:	6a f2                	push   $0xfffffff2
    24cd:	50                   	push   %eax
    24ce:	e8 1d 3a 00 00       	call   5ef0 <async_answer_0@plt>
    24d3:	83 c4 10             	add    $0x10,%esp
    24d6:	e9 61 ff ff ff       	jmp    243c <remote_nic_vlan_set_mask+0x3c>
    24db:	90                   	nop
    24dc:	8d 74 26 00          	lea    0x0(%esi,%eiz,1),%esi
    24e0:	8b 55 10             	mov    0x10(%ebp),%edx
    24e3:	50                   	push   %eax
    24e4:	50                   	push   %eax
    24e5:	6a f5                	push   $0xfffffff5
    24e7:	52                   	push   %edx
    24e8:	e8 03 3a 00 00       	call   5ef0 <async_answer_0@plt>
    24ed:	83 c4 10             	add    $0x10,%esp
    24f0:	8b 5d fc             	mov    -0x4(%ebp),%ebx
    24f3:	c9                   	leave  
    24f4:	c3                   	ret    
    24f5:	8d 76 00             	lea    0x0(%esi),%esi
    24f8:	50                   	push   %eax
    24f9:	50                   	push   %eax
    24fa:	8b 85 f0 fd ff ff    	mov    -0x210(%ebp),%eax
    2500:	6a f2                	push   $0xfffffff2
    2502:	50                   	push   %eax
    2503:	e8 e8 39 00 00       	call   5ef0 <async_answer_0@plt>
    2508:	8b 4d 10             	mov    0x10(%ebp),%ecx
    250b:	58                   	pop    %eax
    250c:	5a                   	pop    %edx
    250d:	6a f2                	push   $0xfffffff2
    250f:	51                   	push   %ecx
    2510:	e8 db 39 00 00       	call   5ef0 <async_answer_0@plt>
    2515:	83 c4 10             	add    $0x10,%esp
    2518:	e9 1f ff ff ff       	jmp    243c <remote_nic_vlan_set_mask+0x3c>
    251d:	8d 76 00             	lea    0x0(%esi),%esi

00002520 <remote_nic_set_address>:
    2520:	55                   	push   %ebp
    2521:	89 e5                	mov    %esp,%ebp
    2523:	53                   	push   %ebx
    2524:	83 ec 1c             	sub    $0x1c,%esp
    2527:	8d 45 e8             	lea    -0x18(%ebp),%eax
    252a:	50                   	push   %eax
    252b:	8d 45 ec             	lea    -0x14(%ebp),%eax
    252e:	50                   	push   %eax
    252f:	e8 9c 3b 00 00       	call   60d0 <async_data_write_receive@plt>
    2534:	83 c4 10             	add    $0x10,%esp
    2537:	84 c0                	test   %al,%al
    2539:	74 75                	je     25b0 <remote_nic_set_address+0x90>
    253b:	8b 45 e8             	mov    -0x18(%ebp),%eax
    253e:	83 f8 06             	cmp    $0x6,%eax
    2541:	77 45                	ja     2588 <remote_nic_set_address+0x68>
    2543:	8b 4d ec             	mov    -0x14(%ebp),%ecx
    2546:	8d 5d f2             	lea    -0xe(%ebp),%ebx
    2549:	52                   	push   %edx
    254a:	50                   	push   %eax
    254b:	53                   	push   %ebx
    254c:	51                   	push   %ecx
    254d:	e8 2e 3b 00 00       	call   6080 <async_data_write_finalize@plt>
    2552:	83 c4 10             	add    $0x10,%esp
    2555:	85 c0                	test   %eax,%eax
    2557:	75 7f                	jne    25d8 <remote_nic_set_address+0xb8>
    2559:	8b 45 0c             	mov    0xc(%ebp),%eax
    255c:	8b 40 14             	mov    0x14(%eax),%eax
    255f:	85 c0                	test   %eax,%eax
    2561:	0f 84 89 00 00 00    	je     25f0 <remote_nic_set_address+0xd0>
    2567:	51                   	push   %ecx
    2568:	51                   	push   %ecx
    2569:	53                   	push   %ebx
    256a:	8b 5d 08             	mov    0x8(%ebp),%ebx
    256d:	53                   	push   %ebx
    256e:	ff d0                	call   *%eax
    2570:	8b 5d 10             	mov    0x10(%ebp),%ebx
    2573:	5a                   	pop    %edx
    2574:	59                   	pop    %ecx
    2575:	50                   	push   %eax
    2576:	53                   	push   %ebx
    2577:	e8 74 39 00 00       	call   5ef0 <async_answer_0@plt>
    257c:	83 c4 10             	add    $0x10,%esp
    257f:	8b 5d fc             	mov    -0x4(%ebp),%ebx
    2582:	c9                   	leave  
    2583:	c3                   	ret    
    2584:	8d 74 26 00          	lea    0x0(%esi,%eiz,1),%esi
    2588:	8b 45 ec             	mov    -0x14(%ebp),%eax
    258b:	53                   	push   %ebx
    258c:	53                   	push   %ebx
    258d:	6a fd                	push   $0xfffffffd
    258f:	50                   	push   %eax
    2590:	e8 5b 39 00 00       	call   5ef0 <async_answer_0@plt>
    2595:	8b 4d 10             	mov    0x10(%ebp),%ecx
    2598:	58                   	pop    %eax
    2599:	5a                   	pop    %edx
    259a:	6a fd                	push   $0xfffffffd
    259c:	51                   	push   %ecx
    259d:	e8 4e 39 00 00       	call   5ef0 <async_answer_0@plt>
    25a2:	83 c4 10             	add    $0x10,%esp
    25a5:	8b 5d fc             	mov    -0x4(%ebp),%ebx
    25a8:	c9                   	leave  
    25a9:	c3                   	ret    
    25aa:	8d b6 00 00 00 00    	lea    0x0(%esi),%esi
    25b0:	8b 45 ec             	mov    -0x14(%ebp),%eax
    25b3:	53                   	push   %ebx
    25b4:	53                   	push   %ebx
    25b5:	6a f2                	push   $0xfffffff2
    25b7:	50                   	push   %eax
    25b8:	e8 33 39 00 00       	call   5ef0 <async_answer_0@plt>
    25bd:	8b 4d 10             	mov    0x10(%ebp),%ecx
    25c0:	58                   	pop    %eax
    25c1:	5a                   	pop    %edx
    25c2:	6a f2                	push   $0xfffffff2
    25c4:	51                   	push   %ecx
    25c5:	e8 26 39 00 00       	call   5ef0 <async_answer_0@plt>
    25ca:	83 c4 10             	add    $0x10,%esp
    25cd:	8b 5d fc             	mov    -0x4(%ebp),%ebx
    25d0:	c9                   	leave  
    25d1:	c3                   	ret    
    25d2:	8d b6 00 00 00 00    	lea    0x0(%esi),%esi
    25d8:	50                   	push   %eax
    25d9:	50                   	push   %eax
    25da:	8b 45 10             	mov    0x10(%ebp),%eax
    25dd:	6a f2                	push   $0xfffffff2
    25df:	50                   	push   %eax
    25e0:	e8 0b 39 00 00       	call   5ef0 <async_answer_0@plt>
    25e5:	83 c4 10             	add    $0x10,%esp
    25e8:	8b 5d fc             	mov    -0x4(%ebp),%ebx
    25eb:	c9                   	leave  
    25ec:	c3                   	ret    
    25ed:	8d 76 00             	lea    0x0(%esi),%esi
    25f0:	8b 55 10             	mov    0x10(%ebp),%edx
    25f3:	50                   	push   %eax
    25f4:	50                   	push   %eax
    25f5:	6a f5                	push   $0xfffffff5
    25f7:	52                   	push   %edx
    25f8:	e8 f3 38 00 00       	call   5ef0 <async_answer_0@plt>
    25fd:	83 c4 10             	add    $0x10,%esp
    2600:	e9 7a ff ff ff       	jmp    257f <remote_nic_set_address+0x5f>
    2605:	8d 74 26 00          	lea    0x0(%esi,%eiz,1),%esi
    2609:	8d bc 27 00 00 00 00 	lea    0x0(%edi,%eiz,1),%edi

00002610 <remote_nic_poll_get_mode>:
    2610:	55                   	push   %ebp
    2611:	89 e5                	mov    %esp,%ebp
    2613:	57                   	push   %edi
    2614:	56                   	push   %esi
    2615:	53                   	push   %ebx
    2616:	83 ec 2c             	sub    $0x2c,%esp
    2619:	8b 45 0c             	mov    0xc(%ebp),%eax
    261c:	8b 80 98 00 00 00    	mov    0x98(%eax),%eax
    2622:	85 c0                	test   %eax,%eax
    2624:	0f 84 d6 00 00 00    	je     2700 <remote_nic_poll_get_mode+0xf0>
    262a:	8b 55 14             	mov    0x14(%ebp),%edx
    262d:	8b 4d 08             	mov    0x8(%ebp),%ecx
    2630:	c7 45 d4 00 00 00 00 	movl   $0x0,-0x2c(%ebp)
    2637:	c7 45 e0 00 00 00 00 	movl   $0x0,-0x20(%ebp)
    263e:	8b 72 08             	mov    0x8(%edx),%esi
    2641:	c7 45 e4 00 00 00 00 	movl   $0x0,-0x1c(%ebp)
    2648:	8d 5d e0             	lea    -0x20(%ebp),%ebx
    264b:	52                   	push   %edx
    264c:	8d 55 d4             	lea    -0x2c(%ebp),%edx
    264f:	53                   	push   %ebx
    2650:	52                   	push   %edx
    2651:	51                   	push   %ecx
    2652:	ff d0                	call   *%eax
    2654:	83 c4 10             	add    $0x10,%esp
    2657:	89 c7                	mov    %eax,%edi
    2659:	85 c0                	test   %eax,%eax
    265b:	75 5b                	jne    26b8 <remote_nic_poll_get_mode+0xa8>
    265d:	85 f6                	test   %esi,%esi
    265f:	74 57                	je     26b8 <remote_nic_poll_get_mode+0xa8>
    2661:	50                   	push   %eax
    2662:	50                   	push   %eax
    2663:	8d 45 d8             	lea    -0x28(%ebp),%eax
    2666:	50                   	push   %eax
    2667:	8d 45 dc             	lea    -0x24(%ebp),%eax
    266a:	50                   	push   %eax
    266b:	e8 80 39 00 00       	call   5ff0 <async_data_read_receive@plt>
    2670:	83 c4 10             	add    $0x10,%esp
    2673:	84 c0                	test   %al,%al
    2675:	74 61                	je     26d8 <remote_nic_poll_get_mode+0xc8>
    2677:	83 7d d8 08          	cmpl   $0x8,-0x28(%ebp)
    267b:	74 2b                	je     26a8 <remote_nic_poll_get_mode+0x98>
    267d:	50                   	push   %eax
    267e:	50                   	push   %eax
    267f:	8b 45 dc             	mov    -0x24(%ebp),%eax
    2682:	6a fd                	push   $0xfffffffd
    2684:	50                   	push   %eax
    2685:	e8 66 38 00 00       	call   5ef0 <async_answer_0@plt>
    268a:	8b 4d 10             	mov    0x10(%ebp),%ecx
    268d:	58                   	pop    %eax
    268e:	5a                   	pop    %edx
    268f:	6a fd                	push   $0xfffffffd
    2691:	51                   	push   %ecx
    2692:	e8 59 38 00 00       	call   5ef0 <async_answer_0@plt>
    2697:	83 c4 10             	add    $0x10,%esp
    269a:	8d 65 f4             	lea    -0xc(%ebp),%esp
    269d:	5b                   	pop    %ebx
    269e:	5e                   	pop    %esi
    269f:	5f                   	pop    %edi
    26a0:	5d                   	pop    %ebp
    26a1:	c3                   	ret    
    26a2:	8d b6 00 00 00 00    	lea    0x0(%esi),%esi
    26a8:	8b 45 dc             	mov    -0x24(%ebp),%eax
    26ab:	56                   	push   %esi
    26ac:	6a 08                	push   $0x8
    26ae:	53                   	push   %ebx
    26af:	50                   	push   %eax
    26b0:	e8 fb 37 00 00       	call   5eb0 <async_data_read_finalize@plt>
    26b5:	83 c4 10             	add    $0x10,%esp
    26b8:	8b 55 d4             	mov    -0x2c(%ebp),%edx
    26bb:	8b 4d 10             	mov    0x10(%ebp),%ecx
    26be:	50                   	push   %eax
    26bf:	52                   	push   %edx
    26c0:	57                   	push   %edi
    26c1:	51                   	push   %ecx
    26c2:	e8 89 39 00 00       	call   6050 <async_answer_1@plt>
    26c7:	83 c4 10             	add    $0x10,%esp
    26ca:	8d 65 f4             	lea    -0xc(%ebp),%esp
    26cd:	5b                   	pop    %ebx
    26ce:	5e                   	pop    %esi
    26cf:	5f                   	pop    %edi
    26d0:	5d                   	pop    %ebp
    26d1:	c3                   	ret    
    26d2:	8d b6 00 00 00 00    	lea    0x0(%esi),%esi
    26d8:	8b 75 dc             	mov    -0x24(%ebp),%esi
    26db:	53                   	push   %ebx
    26dc:	53                   	push   %ebx
    26dd:	6a f2                	push   $0xfffffff2
    26df:	56                   	push   %esi
    26e0:	e8 0b 38 00 00       	call   5ef0 <async_answer_0@plt>
    26e5:	5f                   	pop    %edi
    26e6:	58                   	pop    %eax
    26e7:	8b 45 10             	mov    0x10(%ebp),%eax
    26ea:	6a f2                	push   $0xfffffff2
    26ec:	50                   	push   %eax
    26ed:	e8 fe 37 00 00       	call   5ef0 <async_answer_0@plt>
    26f2:	83 c4 10             	add    $0x10,%esp
    26f5:	8d 65 f4             	lea    -0xc(%ebp),%esp
    26f8:	5b                   	pop    %ebx
    26f9:	5e                   	pop    %esi
    26fa:	5f                   	pop    %edi
    26fb:	5d                   	pop    %ebp
    26fc:	c3                   	ret    
    26fd:	8d 76 00             	lea    0x0(%esi),%esi
    2700:	8b 75 10             	mov    0x10(%ebp),%esi
    2703:	53                   	push   %ebx
    2704:	53                   	push   %ebx
    2705:	6a f5                	push   $0xfffffff5
    2707:	56                   	push   %esi
    2708:	e8 e3 37 00 00       	call   5ef0 <async_answer_0@plt>
    270d:	83 c4 10             	add    $0x10,%esp
    2710:	8d 65 f4             	lea    -0xc(%ebp),%esp
    2713:	5b                   	pop    %ebx
    2714:	5e                   	pop    %esi
    2715:	5f                   	pop    %edi
    2716:	5d                   	pop    %ebp
    2717:	c3                   	ret    
    2718:	90                   	nop
    2719:	8d b4 26 00 00 00 00 	lea    0x0(%esi,%eiz,1),%esi

00002720 <remote_nic_wol_virtue_get_caps>:
    2720:	55                   	push   %ebp
    2721:	89 e5                	mov    %esp,%ebp
    2723:	83 ec 18             	sub    $0x18,%esp
    2726:	8b 45 0c             	mov    0xc(%ebp),%eax
    2729:	8b 80 88 00 00 00    	mov    0x88(%eax),%eax
    272f:	85 c0                	test   %eax,%eax
    2731:	74 35                	je     2768 <remote_nic_wol_virtue_get_caps+0x48>
    2733:	52                   	push   %edx
    2734:	8d 55 f4             	lea    -0xc(%ebp),%edx
    2737:	52                   	push   %edx
    2738:	8b 55 14             	mov    0x14(%ebp),%edx
    273b:	c7 45 f4 ff ff ff ff 	movl   $0xffffffff,-0xc(%ebp)
    2742:	8b 4a 08             	mov    0x8(%edx),%ecx
    2745:	8b 55 08             	mov    0x8(%ebp),%edx
    2748:	51                   	push   %ecx
    2749:	52                   	push   %edx
    274a:	ff d0                	call   *%eax
    274c:	83 c4 0c             	add    $0xc,%esp
    274f:	8b 4d f4             	mov    -0xc(%ebp),%ecx
    2752:	51                   	push   %ecx
    2753:	50                   	push   %eax
    2754:	8b 45 10             	mov    0x10(%ebp),%eax
    2757:	50                   	push   %eax
    2758:	e8 f3 38 00 00       	call   6050 <async_answer_1@plt>
    275d:	83 c4 10             	add    $0x10,%esp
    2760:	c9                   	leave  
    2761:	c3                   	ret    
    2762:	8d b6 00 00 00 00    	lea    0x0(%esi),%esi
    2768:	50                   	push   %eax
    2769:	50                   	push   %eax
    276a:	8b 45 10             	mov    0x10(%ebp),%eax
    276d:	6a f5                	push   $0xfffffff5
    276f:	50                   	push   %eax
    2770:	e8 7b 37 00 00       	call   5ef0 <async_answer_0@plt>
    2775:	83 c4 10             	add    $0x10,%esp
    2778:	c9                   	leave  
    2779:	c3                   	ret    
    277a:	8d b6 00 00 00 00    	lea    0x0(%esi),%esi

00002780 <remote_nic_defective_get_mode>:
    2780:	55                   	push   %ebp
    2781:	89 e5                	mov    %esp,%ebp
    2783:	83 ec 18             	sub    $0x18,%esp
    2786:	8b 45 0c             	mov    0xc(%ebp),%eax
    2789:	8b 40 5c             	mov    0x5c(%eax),%eax
    278c:	85 c0                	test   %eax,%eax
    278e:	74 30                	je     27c0 <remote_nic_defective_get_mode+0x40>
    2790:	8b 4d 08             	mov    0x8(%ebp),%ecx
    2793:	c7 45 f4 00 00 00 00 	movl   $0x0,-0xc(%ebp)
    279a:	52                   	push   %edx
    279b:	52                   	push   %edx
    279c:	8d 55 f4             	lea    -0xc(%ebp),%edx
    279f:	52                   	push   %edx
    27a0:	51                   	push   %ecx
    27a1:	ff d0                	call   *%eax
    27a3:	83 c4 0c             	add    $0xc,%esp
    27a6:	8b 55 f4             	mov    -0xc(%ebp),%edx
    27a9:	8b 4d 10             	mov    0x10(%ebp),%ecx
    27ac:	52                   	push   %edx
    27ad:	50                   	push   %eax
    27ae:	51                   	push   %ecx
    27af:	e8 9c 38 00 00       	call   6050 <async_answer_1@plt>
    27b4:	83 c4 10             	add    $0x10,%esp
    27b7:	c9                   	leave  
    27b8:	c3                   	ret    
    27b9:	8d b4 26 00 00 00 00 	lea    0x0(%esi,%eiz,1),%esi
    27c0:	50                   	push   %eax
    27c1:	50                   	push   %eax
    27c2:	8b 45 10             	mov    0x10(%ebp),%eax
    27c5:	6a f5                	push   $0xfffffff5
    27c7:	50                   	push   %eax
    27c8:	e8 23 37 00 00       	call   5ef0 <async_answer_0@plt>
    27cd:	83 c4 10             	add    $0x10,%esp
    27d0:	c9                   	leave  
    27d1:	c3                   	ret    
    27d2:	8d b4 26 00 00 00 00 	lea    0x0(%esi,%eiz,1),%esi
    27d9:	8d bc 27 00 00 00 00 	lea    0x0(%edi,%eiz,1),%edi

000027e0 <remote_nic_broadcast_get_mode>:
    27e0:	55                   	push   %ebp
    27e1:	89 e5                	mov    %esp,%ebp
    27e3:	83 ec 18             	sub    $0x18,%esp
    27e6:	8b 45 0c             	mov    0xc(%ebp),%eax
    27e9:	8b 40 54             	mov    0x54(%eax),%eax
    27ec:	85 c0                	test   %eax,%eax
    27ee:	74 30                	je     2820 <remote_nic_broadcast_get_mode+0x40>
    27f0:	8b 4d 08             	mov    0x8(%ebp),%ecx
    27f3:	c7 45 f4 02 00 00 00 	movl   $0x2,-0xc(%ebp)
    27fa:	52                   	push   %edx
    27fb:	52                   	push   %edx
    27fc:	8d 55 f4             	lea    -0xc(%ebp),%edx
    27ff:	52                   	push   %edx
    2800:	51                   	push   %ecx
    2801:	ff d0                	call   *%eax
    2803:	83 c4 0c             	add    $0xc,%esp
    2806:	8b 55 f4             	mov    -0xc(%ebp),%edx
    2809:	8b 4d 10             	mov    0x10(%ebp),%ecx
    280c:	52                   	push   %edx
    280d:	50                   	push   %eax
    280e:	51                   	push   %ecx
    280f:	e8 3c 38 00 00       	call   6050 <async_answer_1@plt>
    2814:	83 c4 10             	add    $0x10,%esp
    2817:	c9                   	leave  
    2818:	c3                   	ret    
    2819:	8d b4 26 00 00 00 00 	lea    0x0(%esi,%eiz,1),%esi
    2820:	50                   	push   %eax
    2821:	50                   	push   %eax
    2822:	8b 45 10             	mov    0x10(%ebp),%eax
    2825:	6a f5                	push   $0xfffffff5
    2827:	50                   	push   %eax
    2828:	e8 c3 36 00 00       	call   5ef0 <async_answer_0@plt>
    282d:	83 c4 10             	add    $0x10,%esp
    2830:	c9                   	leave  
    2831:	c3                   	ret    
    2832:	8d b4 26 00 00 00 00 	lea    0x0(%esi,%eiz,1),%esi
    2839:	8d bc 27 00 00 00 00 	lea    0x0(%edi,%eiz,1),%edi

00002840 <remote_nic_get_cable_state>:
    2840:	55                   	push   %ebp
    2841:	89 e5                	mov    %esp,%ebp
    2843:	83 ec 18             	sub    $0x18,%esp
    2846:	8b 45 0c             	mov    0xc(%ebp),%eax
    2849:	8b 40 20             	mov    0x20(%eax),%eax
    284c:	85 c0                	test   %eax,%eax
    284e:	74 30                	je     2880 <remote_nic_get_cable_state+0x40>
    2850:	8b 4d 08             	mov    0x8(%ebp),%ecx
    2853:	c7 45 f4 00 00 00 00 	movl   $0x0,-0xc(%ebp)
    285a:	52                   	push   %edx
    285b:	52                   	push   %edx
    285c:	8d 55 f4             	lea    -0xc(%ebp),%edx
    285f:	52                   	push   %edx
    2860:	51                   	push   %ecx
    2861:	ff d0                	call   *%eax
    2863:	83 c4 0c             	add    $0xc,%esp
    2866:	8b 55 f4             	mov    -0xc(%ebp),%edx
    2869:	8b 4d 10             	mov    0x10(%ebp),%ecx
    286c:	52                   	push   %edx
    286d:	50                   	push   %eax
    286e:	51                   	push   %ecx
    286f:	e8 dc 37 00 00       	call   6050 <async_answer_1@plt>
    2874:	83 c4 10             	add    $0x10,%esp
    2877:	c9                   	leave  
    2878:	c3                   	ret    
    2879:	8d b4 26 00 00 00 00 	lea    0x0(%esi,%eiz,1),%esi
    2880:	50                   	push   %eax
    2881:	50                   	push   %eax
    2882:	8b 45 10             	mov    0x10(%ebp),%eax
    2885:	6a f5                	push   $0xfffffff5
    2887:	50                   	push   %eax
    2888:	e8 63 36 00 00       	call   5ef0 <async_answer_0@plt>
    288d:	83 c4 10             	add    $0x10,%esp
    2890:	c9                   	leave  
    2891:	c3                   	ret    
    2892:	8d b4 26 00 00 00 00 	lea    0x0(%esi,%eiz,1),%esi
    2899:	8d bc 27 00 00 00 00 	lea    0x0(%edi,%eiz,1),%edi

000028a0 <remote_nic_offload_probe>:
    28a0:	55                   	push   %ebp
    28a1:	89 e5                	mov    %esp,%ebp
    28a3:	83 ec 18             	sub    $0x18,%esp
    28a6:	8b 45 0c             	mov    0xc(%ebp),%eax
    28a9:	8b 80 90 00 00 00    	mov    0x90(%eax),%eax
    28af:	85 c0                	test   %eax,%eax
    28b1:	74 35                	je     28e8 <remote_nic_offload_probe+0x48>
    28b3:	52                   	push   %edx
    28b4:	8d 55 f4             	lea    -0xc(%ebp),%edx
    28b7:	52                   	push   %edx
    28b8:	8b 4d 08             	mov    0x8(%ebp),%ecx
    28bb:	8d 55 f0             	lea    -0x10(%ebp),%edx
    28be:	c7 45 f0 00 00 00 00 	movl   $0x0,-0x10(%ebp)
    28c5:	c7 45 f4 00 00 00 00 	movl   $0x0,-0xc(%ebp)
    28cc:	52                   	push   %edx
    28cd:	51                   	push   %ecx
    28ce:	ff d0                	call   *%eax
    28d0:	8b 55 f4             	mov    -0xc(%ebp),%edx
    28d3:	8b 4d f0             	mov    -0x10(%ebp),%ecx
    28d6:	52                   	push   %edx
    28d7:	51                   	push   %ecx
    28d8:	50                   	push   %eax
    28d9:	8b 45 10             	mov    0x10(%ebp),%eax
    28dc:	50                   	push   %eax
    28dd:	e8 8e 36 00 00       	call   5f70 <async_answer_2@plt>
    28e2:	83 c4 20             	add    $0x20,%esp
    28e5:	c9                   	leave  
    28e6:	c3                   	ret    
    28e7:	90                   	nop
    28e8:	50                   	push   %eax
    28e9:	50                   	push   %eax
    28ea:	8b 45 10             	mov    0x10(%ebp),%eax
    28ed:	6a f5                	push   $0xfffffff5
    28ef:	50                   	push   %eax
    28f0:	e8 fb 35 00 00       	call   5ef0 <async_answer_0@plt>
    28f5:	83 c4 10             	add    $0x10,%esp
    28f8:	c9                   	leave  
    28f9:	c3                   	ret    
    28fa:	8d b6 00 00 00 00    	lea    0x0(%esi),%esi

00002900 <remote_nic_vlan_get_mask>:
    2900:	55                   	push   %ebp
    2901:	89 e5                	mov    %esp,%ebp
    2903:	56                   	push   %esi
    2904:	53                   	push   %ebx
    2905:	81 ec 10 02 00 00    	sub    $0x210,%esp
    290b:	8b 5d 0c             	mov    0xc(%ebp),%ebx
    290e:	8b 43 6c             	mov    0x6c(%ebx),%eax
    2911:	85 c0                	test   %eax,%eax
    2913:	0f 84 a7 00 00 00    	je     29c0 <remote_nic_vlan_get_mask+0xc0>
    2919:	8d b5 f8 fd ff ff    	lea    -0x208(%ebp),%esi
    291f:	50                   	push   %eax
    2920:	68 00 02 00 00       	push   $0x200
    2925:	6a 00                	push   $0x0
    2927:	56                   	push   %esi
    2928:	e8 b3 36 00 00       	call   5fe0 <memset@plt>
    292d:	8b 4d 08             	mov    0x8(%ebp),%ecx
    2930:	58                   	pop    %eax
    2931:	5a                   	pop    %edx
    2932:	56                   	push   %esi
    2933:	51                   	push   %ecx
    2934:	ff 53 6c             	call   *0x6c(%ebx)
    2937:	83 c4 10             	add    $0x10,%esp
    293a:	89 c3                	mov    %eax,%ebx
    293c:	85 c0                	test   %eax,%eax
    293e:	75 66                	jne    29a6 <remote_nic_vlan_get_mask+0xa6>
    2940:	50                   	push   %eax
    2941:	50                   	push   %eax
    2942:	8d 85 f4 fd ff ff    	lea    -0x20c(%ebp),%eax
    2948:	50                   	push   %eax
    2949:	8d 85 f0 fd ff ff    	lea    -0x210(%ebp),%eax
    294f:	50                   	push   %eax
    2950:	e8 9b 36 00 00       	call   5ff0 <async_data_read_receive@plt>
    2955:	83 c4 10             	add    $0x10,%esp
    2958:	84 c0                	test   %al,%al
    295a:	74 0c                	je     2968 <remote_nic_vlan_get_mask+0x68>
    295c:	81 bd f4 fd ff ff 00 	cmpl   $0x200,-0x20c(%ebp)
    2963:	02 00 00 
    2966:	74 28                	je     2990 <remote_nic_vlan_get_mask+0x90>
    2968:	50                   	push   %eax
    2969:	50                   	push   %eax
    296a:	8b 85 f0 fd ff ff    	mov    -0x210(%ebp),%eax
    2970:	6a f2                	push   $0xfffffff2
    2972:	50                   	push   %eax
    2973:	e8 78 35 00 00       	call   5ef0 <async_answer_0@plt>
    2978:	8b 4d 10             	mov    0x10(%ebp),%ecx
    297b:	58                   	pop    %eax
    297c:	5a                   	pop    %edx
    297d:	6a f2                	push   $0xfffffff2
    297f:	51                   	push   %ecx
    2980:	e8 6b 35 00 00       	call   5ef0 <async_answer_0@plt>
    2985:	83 c4 10             	add    $0x10,%esp
    2988:	8d 65 f8             	lea    -0x8(%ebp),%esp
    298b:	5b                   	pop    %ebx
    298c:	5e                   	pop    %esi
    298d:	5d                   	pop    %ebp
    298e:	c3                   	ret    
    298f:	90                   	nop
    2990:	51                   	push   %ecx
    2991:	68 00 02 00 00       	push   $0x200
    2996:	56                   	push   %esi
    2997:	8b b5 f0 fd ff ff    	mov    -0x210(%ebp),%esi
    299d:	56                   	push   %esi
    299e:	e8 0d 35 00 00       	call   5eb0 <async_data_read_finalize@plt>
    29a3:	83 c4 10             	add    $0x10,%esp
    29a6:	8b 55 10             	mov    0x10(%ebp),%edx
    29a9:	50                   	push   %eax
    29aa:	50                   	push   %eax
    29ab:	53                   	push   %ebx
    29ac:	52                   	push   %edx
    29ad:	e8 3e 35 00 00       	call   5ef0 <async_answer_0@plt>
    29b2:	83 c4 10             	add    $0x10,%esp
    29b5:	8d 65 f8             	lea    -0x8(%ebp),%esp
    29b8:	5b                   	pop    %ebx
    29b9:	5e                   	pop    %esi
    29ba:	5d                   	pop    %ebp
    29bb:	c3                   	ret    
    29bc:	8d 74 26 00          	lea    0x0(%esi,%eiz,1),%esi
    29c0:	8b 75 10             	mov    0x10(%ebp),%esi
    29c3:	53                   	push   %ebx
    29c4:	53                   	push   %ebx
    29c5:	6a f5                	push   $0xfffffff5
    29c7:	56                   	push   %esi
    29c8:	e8 23 35 00 00       	call   5ef0 <async_answer_0@plt>
    29cd:	83 c4 10             	add    $0x10,%esp
    29d0:	8d 65 f8             	lea    -0x8(%ebp),%esp
    29d3:	5b                   	pop    %ebx
    29d4:	5e                   	pop    %esi
    29d5:	5d                   	pop    %ebp
    29d6:	c3                   	ret    
    29d7:	89 f6                	mov    %esi,%esi
    29d9:	8d bc 27 00 00 00 00 	lea    0x0(%edi,%eiz,1),%edi

000029e0 <remote_nic_get_device_info>:
    29e0:	55                   	push   %ebp
    29e1:	89 e5                	mov    %esp,%ebp
    29e3:	56                   	push   %esi
    29e4:	53                   	push   %ebx
    29e5:	81 ec 30 01 00 00    	sub    $0x130,%esp
    29eb:	8b 5d 0c             	mov    0xc(%ebp),%ebx
    29ee:	8b 43 1c             	mov    0x1c(%ebx),%eax
    29f1:	85 c0                	test   %eax,%eax
    29f3:	0f 84 cf 00 00 00    	je     2ac8 <remote_nic_get_device_info+0xe8>
    29f9:	8d b5 dc fe ff ff    	lea    -0x124(%ebp),%esi
    29ff:	50                   	push   %eax
    2a00:	68 1c 01 00 00       	push   $0x11c
    2a05:	6a 00                	push   $0x0
    2a07:	56                   	push   %esi
    2a08:	e8 d3 35 00 00       	call   5fe0 <memset@plt>
    2a0d:	8b 4d 08             	mov    0x8(%ebp),%ecx
    2a10:	58                   	pop    %eax
    2a11:	5a                   	pop    %edx
    2a12:	56                   	push   %esi
    2a13:	51                   	push   %ecx
    2a14:	ff 53 1c             	call   *0x1c(%ebx)
    2a17:	83 c4 10             	add    $0x10,%esp
    2a1a:	89 c3                	mov    %eax,%ebx
    2a1c:	85 c0                	test   %eax,%eax
    2a1e:	75 66                	jne    2a86 <remote_nic_get_device_info+0xa6>
    2a20:	50                   	push   %eax
    2a21:	50                   	push   %eax
    2a22:	8d 85 d8 fe ff ff    	lea    -0x128(%ebp),%eax
    2a28:	50                   	push   %eax
    2a29:	8d 85 d4 fe ff ff    	lea    -0x12c(%ebp),%eax
    2a2f:	50                   	push   %eax
    2a30:	e8 bb 35 00 00       	call   5ff0 <async_data_read_receive@plt>
    2a35:	83 c4 10             	add    $0x10,%esp
    2a38:	84 c0                	test   %al,%al
    2a3a:	74 64                	je     2aa0 <remote_nic_get_device_info+0xc0>
    2a3c:	81 bd d8 fe ff ff 1b 	cmpl   $0x11b,-0x128(%ebp)
    2a43:	01 00 00 
    2a46:	77 28                	ja     2a70 <remote_nic_get_device_info+0x90>
    2a48:	50                   	push   %eax
    2a49:	50                   	push   %eax
    2a4a:	8b 85 d4 fe ff ff    	mov    -0x12c(%ebp),%eax
    2a50:	6a fd                	push   $0xfffffffd
    2a52:	50                   	push   %eax
    2a53:	e8 98 34 00 00       	call   5ef0 <async_answer_0@plt>
    2a58:	8b 4d 10             	mov    0x10(%ebp),%ecx
    2a5b:	58                   	pop    %eax
    2a5c:	5a                   	pop    %edx
    2a5d:	6a fd                	push   $0xfffffffd
    2a5f:	51                   	push   %ecx
    2a60:	e8 8b 34 00 00       	call   5ef0 <async_answer_0@plt>
    2a65:	83 c4 10             	add    $0x10,%esp
    2a68:	8d 65 f8             	lea    -0x8(%ebp),%esp
    2a6b:	5b                   	pop    %ebx
    2a6c:	5e                   	pop    %esi
    2a6d:	5d                   	pop    %ebp
    2a6e:	c3                   	ret    
    2a6f:	90                   	nop
    2a70:	51                   	push   %ecx
    2a71:	68 1c 01 00 00       	push   $0x11c
    2a76:	56                   	push   %esi
    2a77:	8b b5 d4 fe ff ff    	mov    -0x12c(%ebp),%esi
    2a7d:	56                   	push   %esi
    2a7e:	e8 2d 34 00 00       	call   5eb0 <async_data_read_finalize@plt>
    2a83:	83 c4 10             	add    $0x10,%esp
    2a86:	8b 55 10             	mov    0x10(%ebp),%edx
    2a89:	50                   	push   %eax
    2a8a:	50                   	push   %eax
    2a8b:	53                   	push   %ebx
    2a8c:	52                   	push   %edx
    2a8d:	e8 5e 34 00 00       	call   5ef0 <async_answer_0@plt>
    2a92:	83 c4 10             	add    $0x10,%esp
    2a95:	8d 65 f8             	lea    -0x8(%ebp),%esp
    2a98:	5b                   	pop    %ebx
    2a99:	5e                   	pop    %esi
    2a9a:	5d                   	pop    %ebp
    2a9b:	c3                   	ret    
    2a9c:	8d 74 26 00          	lea    0x0(%esi,%eiz,1),%esi
    2aa0:	8b b5 d4 fe ff ff    	mov    -0x12c(%ebp),%esi
    2aa6:	53                   	push   %ebx
    2aa7:	53                   	push   %ebx
    2aa8:	6a f2                	push   $0xfffffff2
    2aaa:	56                   	push   %esi
    2aab:	e8 40 34 00 00       	call   5ef0 <async_answer_0@plt>
    2ab0:	8b 4d 10             	mov    0x10(%ebp),%ecx
    2ab3:	58                   	pop    %eax
    2ab4:	5a                   	pop    %edx
    2ab5:	6a f2                	push   $0xfffffff2
    2ab7:	51                   	push   %ecx
    2ab8:	e8 33 34 00 00       	call   5ef0 <async_answer_0@plt>
    2abd:	83 c4 10             	add    $0x10,%esp
    2ac0:	8d 65 f8             	lea    -0x8(%ebp),%esp
    2ac3:	5b                   	pop    %ebx
    2ac4:	5e                   	pop    %esi
    2ac5:	5d                   	pop    %ebp
    2ac6:	c3                   	ret    
    2ac7:	90                   	nop
    2ac8:	8b 75 10             	mov    0x10(%ebp),%esi
    2acb:	53                   	push   %ebx
    2acc:	53                   	push   %ebx
    2acd:	6a f5                	push   $0xfffffff5
    2acf:	56                   	push   %esi
    2ad0:	e8 1b 34 00 00       	call   5ef0 <async_answer_0@plt>
    2ad5:	83 c4 10             	add    $0x10,%esp
    2ad8:	8d 65 f8             	lea    -0x8(%ebp),%esp
    2adb:	5b                   	pop    %ebx
    2adc:	5e                   	pop    %esi
    2add:	5d                   	pop    %ebp
    2ade:	c3                   	ret    
    2adf:	90                   	nop

00002ae0 <remote_nic_get_stats>:
    2ae0:	55                   	push   %ebp
    2ae1:	89 e5                	mov    %esp,%ebp
    2ae3:	56                   	push   %esi
    2ae4:	53                   	push   %ebx
    2ae5:	83 c4 80             	add    $0xffffff80,%esp
    2ae8:	8b 5d 0c             	mov    0xc(%ebp),%ebx
    2aeb:	8b 43 18             	mov    0x18(%ebx),%eax
    2aee:	85 c0                	test   %eax,%eax
    2af0:	0f 84 b2 00 00 00    	je     2ba8 <remote_nic_get_stats+0xc8>
    2af6:	8d 75 8c             	lea    -0x74(%ebp),%esi
    2af9:	50                   	push   %eax
    2afa:	6a 6c                	push   $0x6c
    2afc:	6a 00                	push   $0x0
    2afe:	56                   	push   %esi
    2aff:	e8 dc 34 00 00       	call   5fe0 <memset@plt>
    2b04:	8b 4d 08             	mov    0x8(%ebp),%ecx
    2b07:	58                   	pop    %eax
    2b08:	5a                   	pop    %edx
    2b09:	56                   	push   %esi
    2b0a:	51                   	push   %ecx
    2b0b:	ff 53 18             	call   *0x18(%ebx)
    2b0e:	83 c4 10             	add    $0x10,%esp
    2b11:	89 c3                	mov    %eax,%ebx
    2b13:	85 c0                	test   %eax,%eax
    2b15:	75 51                	jne    2b68 <remote_nic_get_stats+0x88>
    2b17:	50                   	push   %eax
    2b18:	50                   	push   %eax
    2b19:	8d 45 88             	lea    -0x78(%ebp),%eax
    2b1c:	50                   	push   %eax
    2b1d:	8d 45 84             	lea    -0x7c(%ebp),%eax
    2b20:	50                   	push   %eax
    2b21:	e8 ca 34 00 00       	call   5ff0 <async_data_read_receive@plt>
    2b26:	83 c4 10             	add    $0x10,%esp
    2b29:	84 c0                	test   %al,%al
    2b2b:	74 53                	je     2b80 <remote_nic_get_stats+0xa0>
    2b2d:	83 7d 88 6b          	cmpl   $0x6b,-0x78(%ebp)
    2b31:	77 25                	ja     2b58 <remote_nic_get_stats+0x78>
    2b33:	50                   	push   %eax
    2b34:	50                   	push   %eax
    2b35:	8b 45 84             	mov    -0x7c(%ebp),%eax
    2b38:	6a fd                	push   $0xfffffffd
    2b3a:	50                   	push   %eax
    2b3b:	e8 b0 33 00 00       	call   5ef0 <async_answer_0@plt>
    2b40:	8b 4d 10             	mov    0x10(%ebp),%ecx
    2b43:	58                   	pop    %eax
    2b44:	5a                   	pop    %edx
    2b45:	6a fd                	push   $0xfffffffd
    2b47:	51                   	push   %ecx
    2b48:	e8 a3 33 00 00       	call   5ef0 <async_answer_0@plt>
    2b4d:	83 c4 10             	add    $0x10,%esp
    2b50:	8d 65 f8             	lea    -0x8(%ebp),%esp
    2b53:	5b                   	pop    %ebx
    2b54:	5e                   	pop    %esi
    2b55:	5d                   	pop    %ebp
    2b56:	c3                   	ret    
    2b57:	90                   	nop
    2b58:	51                   	push   %ecx
    2b59:	6a 6c                	push   $0x6c
    2b5b:	56                   	push   %esi
    2b5c:	8b 75 84             	mov    -0x7c(%ebp),%esi
    2b5f:	56                   	push   %esi
    2b60:	e8 4b 33 00 00       	call   5eb0 <async_data_read_finalize@plt>
    2b65:	83 c4 10             	add    $0x10,%esp
    2b68:	8b 55 10             	mov    0x10(%ebp),%edx
    2b6b:	50                   	push   %eax
    2b6c:	50                   	push   %eax
    2b6d:	53                   	push   %ebx
    2b6e:	52                   	push   %edx
    2b6f:	e8 7c 33 00 00       	call   5ef0 <async_answer_0@plt>
    2b74:	83 c4 10             	add    $0x10,%esp
    2b77:	8d 65 f8             	lea    -0x8(%ebp),%esp
    2b7a:	5b                   	pop    %ebx
    2b7b:	5e                   	pop    %esi
    2b7c:	5d                   	pop    %ebp
    2b7d:	c3                   	ret    
    2b7e:	66 90                	xchg   %ax,%ax
    2b80:	8b 75 84             	mov    -0x7c(%ebp),%esi
    2b83:	53                   	push   %ebx
    2b84:	53                   	push   %ebx
    2b85:	6a f2                	push   $0xfffffff2
    2b87:	56                   	push   %esi
    2b88:	e8 63 33 00 00       	call   5ef0 <async_answer_0@plt>
    2b8d:	8b 4d 10             	mov    0x10(%ebp),%ecx
    2b90:	58                   	pop    %eax
    2b91:	5a                   	pop    %edx
    2b92:	6a f2                	push   $0xfffffff2
    2b94:	51                   	push   %ecx
    2b95:	e8 56 33 00 00       	call   5ef0 <async_answer_0@plt>
    2b9a:	83 c4 10             	add    $0x10,%esp
    2b9d:	8d 65 f8             	lea    -0x8(%ebp),%esp
    2ba0:	5b                   	pop    %ebx
    2ba1:	5e                   	pop    %esi
    2ba2:	5d                   	pop    %ebp
    2ba3:	c3                   	ret    
    2ba4:	8d 74 26 00          	lea    0x0(%esi,%eiz,1),%esi
    2ba8:	8b 75 10             	mov    0x10(%ebp),%esi
    2bab:	53                   	push   %ebx
    2bac:	53                   	push   %ebx
    2bad:	6a f5                	push   $0xfffffff5
    2baf:	56                   	push   %esi
    2bb0:	e8 3b 33 00 00       	call   5ef0 <async_answer_0@plt>
    2bb5:	83 c4 10             	add    $0x10,%esp
    2bb8:	8d 65 f8             	lea    -0x8(%ebp),%esp
    2bbb:	5b                   	pop    %ebx
    2bbc:	5e                   	pop    %esi
    2bbd:	5d                   	pop    %ebp
    2bbe:	c3                   	ret    
    2bbf:	90                   	nop

00002bc0 <remote_nic_get_address>:
    2bc0:	55                   	push   %ebp
    2bc1:	89 e5                	mov    %esp,%ebp
    2bc3:	56                   	push   %esi
    2bc4:	53                   	push   %ebx
    2bc5:	83 ec 10             	sub    $0x10,%esp
    2bc8:	8b 75 0c             	mov    0xc(%ebp),%esi
    2bcb:	8b 46 10             	mov    0x10(%esi),%eax
    2bce:	85 c0                	test   %eax,%eax
    2bd0:	0f 84 ae 00 00 00    	je     2c84 <remote_nic_get_address+0xc4>
    2bd6:	8d 5d f2             	lea    -0xe(%ebp),%ebx
    2bd9:	50                   	push   %eax
    2bda:	6a 06                	push   $0x6
    2bdc:	6a 00                	push   $0x0
    2bde:	53                   	push   %ebx
    2bdf:	e8 fc 33 00 00       	call   5fe0 <memset@plt>
    2be4:	8b 4d 08             	mov    0x8(%ebp),%ecx
    2be7:	58                   	pop    %eax
    2be8:	5a                   	pop    %edx
    2be9:	53                   	push   %ebx
    2bea:	51                   	push   %ecx
    2beb:	ff 56 10             	call   *0x10(%esi)
    2bee:	83 c4 10             	add    $0x10,%esp
    2bf1:	89 c6                	mov    %eax,%esi
    2bf3:	85 c0                	test   %eax,%eax
    2bf5:	75 51                	jne    2c48 <remote_nic_get_address+0x88>
    2bf7:	50                   	push   %eax
    2bf8:	50                   	push   %eax
    2bf9:	8d 45 e8             	lea    -0x18(%ebp),%eax
    2bfc:	50                   	push   %eax
    2bfd:	8d 45 ec             	lea    -0x14(%ebp),%eax
    2c00:	50                   	push   %eax
    2c01:	e8 ea 33 00 00       	call   5ff0 <async_data_read_receive@plt>
    2c06:	83 c4 10             	add    $0x10,%esp
    2c09:	84 c0                	test   %al,%al
    2c0b:	74 53                	je     2c60 <remote_nic_get_address+0xa0>
    2c0d:	83 7d e8 06          	cmpl   $0x6,-0x18(%ebp)
    2c11:	74 25                	je     2c38 <remote_nic_get_address+0x78>
    2c13:	8b 45 ec             	mov    -0x14(%ebp),%eax
    2c16:	56                   	push   %esi
    2c17:	56                   	push   %esi
    2c18:	6a fd                	push   $0xfffffffd
    2c1a:	50                   	push   %eax
    2c1b:	e8 d0 32 00 00       	call   5ef0 <async_answer_0@plt>
    2c20:	8b 4d 10             	mov    0x10(%ebp),%ecx
    2c23:	58                   	pop    %eax
    2c24:	5a                   	pop    %edx
    2c25:	6a fd                	push   $0xfffffffd
    2c27:	51                   	push   %ecx
    2c28:	e8 c3 32 00 00       	call   5ef0 <async_answer_0@plt>
    2c2d:	83 c4 10             	add    $0x10,%esp
    2c30:	8d 65 f8             	lea    -0x8(%ebp),%esp
    2c33:	5b                   	pop    %ebx
    2c34:	5e                   	pop    %esi
    2c35:	5d                   	pop    %ebp
    2c36:	c3                   	ret    
    2c37:	90                   	nop
    2c38:	51                   	push   %ecx
    2c39:	6a 06                	push   $0x6
    2c3b:	53                   	push   %ebx
    2c3c:	8b 5d ec             	mov    -0x14(%ebp),%ebx
    2c3f:	53                   	push   %ebx
    2c40:	e8 6b 32 00 00       	call   5eb0 <async_data_read_finalize@plt>
    2c45:	83 c4 10             	add    $0x10,%esp
    2c48:	8b 55 10             	mov    0x10(%ebp),%edx
    2c4b:	50                   	push   %eax
    2c4c:	50                   	push   %eax
    2c4d:	56                   	push   %esi
    2c4e:	52                   	push   %edx
    2c4f:	e8 9c 32 00 00       	call   5ef0 <async_answer_0@plt>
    2c54:	83 c4 10             	add    $0x10,%esp
    2c57:	8d 65 f8             	lea    -0x8(%ebp),%esp
    2c5a:	5b                   	pop    %ebx
    2c5b:	5e                   	pop    %esi
    2c5c:	5d                   	pop    %ebp
    2c5d:	c3                   	ret    
    2c5e:	66 90                	xchg   %ax,%ax
    2c60:	8b 75 ec             	mov    -0x14(%ebp),%esi
    2c63:	53                   	push   %ebx
    2c64:	53                   	push   %ebx
    2c65:	6a f2                	push   $0xfffffff2
    2c67:	56                   	push   %esi
    2c68:	e8 83 32 00 00       	call   5ef0 <async_answer_0@plt>
    2c6d:	8b 4d 10             	mov    0x10(%ebp),%ecx
    2c70:	58                   	pop    %eax
    2c71:	5a                   	pop    %edx
    2c72:	6a f2                	push   $0xfffffff2
    2c74:	51                   	push   %ecx
    2c75:	e8 76 32 00 00       	call   5ef0 <async_answer_0@plt>
    2c7a:	83 c4 10             	add    $0x10,%esp
    2c7d:	8d 65 f8             	lea    -0x8(%ebp),%esp
    2c80:	5b                   	pop    %ebx
    2c81:	5e                   	pop    %esi
    2c82:	5d                   	pop    %ebp
    2c83:	c3                   	ret    
    2c84:	53                   	push   %ebx
    2c85:	68 75 05 00 00       	push   $0x575
    2c8a:	68 e8 5a 00 00       	push   $0x5ae8
    2c8f:	68 fd 5a 00 00       	push   $0x5afd
    2c94:	e8 97 32 00 00       	call   5f30 <assert_abort@plt>
    2c99:	8d b4 26 00 00 00 00 	lea    0x0(%esi,%eiz,1),%esi

00002ca0 <remote_nic_wol_load_info>:
    2ca0:	55                   	push   %ebp
    2ca1:	89 e5                	mov    %esp,%ebp
    2ca3:	57                   	push   %edi
    2ca4:	56                   	push   %esi
    2ca5:	53                   	push   %ebx
    2ca6:	83 ec 1c             	sub    $0x1c,%esp
    2ca9:	8b 7d 0c             	mov    0xc(%ebp),%edi
    2cac:	8b 8f 8c 00 00 00    	mov    0x8c(%edi),%ecx
    2cb2:	85 c9                	test   %ecx,%ecx
    2cb4:	0f 84 06 01 00 00    	je     2dc0 <remote_nic_wol_load_info+0x120>
    2cba:	8b 45 14             	mov    0x14(%ebp),%eax
    2cbd:	c7 45 d8 00 00 00 00 	movl   $0x0,-0x28(%ebp)
    2cc4:	c7 45 dc 00 00 00 00 	movl   $0x0,-0x24(%ebp)
    2ccb:	8b 70 08             	mov    0x8(%eax),%esi
    2cce:	85 f6                	test   %esi,%esi
    2cd0:	75 76                	jne    2d48 <remote_nic_wol_load_info+0xa8>
    2cd2:	31 db                	xor    %ebx,%ebx
    2cd4:	50                   	push   %eax
    2cd5:	56                   	push   %esi
    2cd6:	6a 00                	push   $0x0
    2cd8:	53                   	push   %ebx
    2cd9:	e8 02 33 00 00       	call   5fe0 <memset@plt>
    2cde:	8d 45 d8             	lea    -0x28(%ebp),%eax
    2ce1:	89 04 24             	mov    %eax,(%esp)
    2ce4:	8d 45 dc             	lea    -0x24(%ebp),%eax
    2ce7:	53                   	push   %ebx
    2ce8:	56                   	push   %esi
    2ce9:	50                   	push   %eax
    2cea:	8b 45 08             	mov    0x8(%ebp),%eax
    2ced:	50                   	push   %eax
    2cee:	ff 97 8c 00 00 00    	call   *0x8c(%edi)
    2cf4:	83 c4 20             	add    $0x20,%esp
    2cf7:	89 c7                	mov    %eax,%edi
    2cf9:	85 c0                	test   %eax,%eax
    2cfb:	0f 85 93 00 00 00    	jne    2d94 <remote_nic_wol_load_info+0xf4>
    2d01:	50                   	push   %eax
    2d02:	50                   	push   %eax
    2d03:	8d 45 e4             	lea    -0x1c(%ebp),%eax
    2d06:	50                   	push   %eax
    2d07:	8d 45 e0             	lea    -0x20(%ebp),%eax
    2d0a:	50                   	push   %eax
    2d0b:	e8 e0 32 00 00       	call   5ff0 <async_data_read_receive@plt>
    2d10:	83 c4 10             	add    $0x10,%esp
    2d13:	84 c0                	test   %al,%al
    2d15:	75 59                	jne    2d70 <remote_nic_wol_load_info+0xd0>
    2d17:	50                   	push   %eax
    2d18:	50                   	push   %eax
    2d19:	8b 45 e0             	mov    -0x20(%ebp),%eax
    2d1c:	6a f2                	push   $0xfffffff2
    2d1e:	50                   	push   %eax
    2d1f:	e8 cc 31 00 00       	call   5ef0 <async_answer_0@plt>
    2d24:	8b 4d 10             	mov    0x10(%ebp),%ecx
    2d27:	58                   	pop    %eax
    2d28:	5a                   	pop    %edx
    2d29:	6a f2                	push   $0xfffffff2
    2d2b:	51                   	push   %ecx
    2d2c:	e8 bf 31 00 00       	call   5ef0 <async_answer_0@plt>
    2d31:	89 1c 24             	mov    %ebx,(%esp)
    2d34:	e8 a7 33 00 00       	call   60e0 <free@plt>
    2d39:	83 c4 10             	add    $0x10,%esp
    2d3c:	8d 65 f4             	lea    -0xc(%ebp),%esp
    2d3f:	5b                   	pop    %ebx
    2d40:	5e                   	pop    %esi
    2d41:	5f                   	pop    %edi
    2d42:	5d                   	pop    %ebp
    2d43:	c3                   	ret    
    2d44:	8d 74 26 00          	lea    0x0(%esi,%eiz,1),%esi
    2d48:	83 ec 0c             	sub    $0xc,%esp
    2d4b:	56                   	push   %esi
    2d4c:	e8 7f 31 00 00       	call   5ed0 <malloc@plt>
    2d51:	83 c4 10             	add    $0x10,%esp
    2d54:	89 c3                	mov    %eax,%ebx
    2d56:	85 c0                	test   %eax,%eax
    2d58:	0f 85 76 ff ff ff    	jne    2cd4 <remote_nic_wol_load_info+0x34>
    2d5e:	50                   	push   %eax
    2d5f:	50                   	push   %eax
    2d60:	8b 45 10             	mov    0x10(%ebp),%eax
    2d63:	6a fe                	push   $0xfffffffe
    2d65:	50                   	push   %eax
    2d66:	e8 85 31 00 00       	call   5ef0 <async_answer_0@plt>
    2d6b:	83 c4 10             	add    $0x10,%esp
    2d6e:	eb cc                	jmp    2d3c <remote_nic_wol_load_info+0x9c>
    2d70:	8b 55 d8             	mov    -0x28(%ebp),%edx
    2d73:	8b 45 e4             	mov    -0x1c(%ebp),%eax
    2d76:	39 d0                	cmp    %edx,%eax
    2d78:	76 02                	jbe    2d7c <remote_nic_wol_load_info+0xdc>
    2d7a:	89 d0                	mov    %edx,%eax
    2d7c:	39 f0                	cmp    %esi,%eax
    2d7e:	76 02                	jbe    2d82 <remote_nic_wol_load_info+0xe2>
    2d80:	89 f0                	mov    %esi,%eax
    2d82:	89 45 e4             	mov    %eax,-0x1c(%ebp)
    2d85:	56                   	push   %esi
    2d86:	50                   	push   %eax
    2d87:	8b 45 e0             	mov    -0x20(%ebp),%eax
    2d8a:	53                   	push   %ebx
    2d8b:	50                   	push   %eax
    2d8c:	e8 1f 31 00 00       	call   5eb0 <async_data_read_finalize@plt>
    2d91:	83 c4 10             	add    $0x10,%esp
    2d94:	8b 55 dc             	mov    -0x24(%ebp),%edx
    2d97:	8b 4d 10             	mov    0x10(%ebp),%ecx
    2d9a:	8b 45 d8             	mov    -0x28(%ebp),%eax
    2d9d:	50                   	push   %eax
    2d9e:	52                   	push   %edx
    2d9f:	57                   	push   %edi
    2da0:	51                   	push   %ecx
    2da1:	e8 ca 31 00 00       	call   5f70 <async_answer_2@plt>
    2da6:	89 1c 24             	mov    %ebx,(%esp)
    2da9:	e8 32 33 00 00       	call   60e0 <free@plt>
    2dae:	83 c4 10             	add    $0x10,%esp
    2db1:	8d 65 f4             	lea    -0xc(%ebp),%esp
    2db4:	5b                   	pop    %ebx
    2db5:	5e                   	pop    %esi
    2db6:	5f                   	pop    %edi
    2db7:	5d                   	pop    %ebp
    2db8:	c3                   	ret    
    2db9:	8d b4 26 00 00 00 00 	lea    0x0(%esi,%eiz,1),%esi
    2dc0:	8b 55 10             	mov    0x10(%ebp),%edx
    2dc3:	50                   	push   %eax
    2dc4:	50                   	push   %eax
    2dc5:	6a f5                	push   $0xfffffff5
    2dc7:	52                   	push   %edx
    2dc8:	e8 23 31 00 00       	call   5ef0 <async_answer_0@plt>
    2dcd:	83 c4 10             	add    $0x10,%esp
    2dd0:	e9 67 ff ff ff       	jmp    2d3c <remote_nic_wol_load_info+0x9c>
    2dd5:	8d 74 26 00          	lea    0x0(%esi,%eiz,1),%esi
    2dd9:	8d bc 27 00 00 00 00 	lea    0x0(%edi,%eiz,1),%edi

00002de0 <remote_nic_wol_virtue_list>:
    2de0:	55                   	push   %ebp
    2de1:	89 e5                	mov    %esp,%ebp
    2de3:	57                   	push   %edi
    2de4:	56                   	push   %esi
    2de5:	53                   	push   %ebx
    2de6:	83 ec 2c             	sub    $0x2c,%esp
    2de9:	8b 4d 0c             	mov    0xc(%ebp),%ecx
    2dec:	8b 45 14             	mov    0x14(%ebp),%eax
    2def:	8b 91 84 00 00 00    	mov    0x84(%ecx),%edx
    2df5:	85 d2                	test   %edx,%edx
    2df7:	0f 84 2b 01 00 00    	je     2f28 <remote_nic_wol_virtue_list+0x148>
    2dfd:	8b 78 0c             	mov    0xc(%eax),%edi
    2e00:	8b 70 08             	mov    0x8(%eax),%esi
    2e03:	c7 45 dc 00 00 00 00 	movl   $0x0,-0x24(%ebp)
    2e0a:	85 ff                	test   %edi,%edi
    2e0c:	0f 84 9e 00 00 00    	je     2eb0 <remote_nic_wol_virtue_list+0xd0>
    2e12:	83 ec 0c             	sub    $0xc,%esp
    2e15:	8d 04 bd 00 00 00 00 	lea    0x0(,%edi,4),%eax
    2e1c:	89 45 d4             	mov    %eax,-0x2c(%ebp)
    2e1f:	50                   	push   %eax
    2e20:	e8 ab 30 00 00       	call   5ed0 <malloc@plt>
    2e25:	83 c4 10             	add    $0x10,%esp
    2e28:	89 c3                	mov    %eax,%ebx
    2e2a:	85 c0                	test   %eax,%eax
    2e2c:	0f 84 0e 01 00 00    	je     2f40 <remote_nic_wol_virtue_list+0x160>
    2e32:	8b 45 d4             	mov    -0x2c(%ebp),%eax
    2e35:	51                   	push   %ecx
    2e36:	50                   	push   %eax
    2e37:	6a 00                	push   $0x0
    2e39:	53                   	push   %ebx
    2e3a:	e8 a1 31 00 00       	call   5fe0 <memset@plt>
    2e3f:	8d 45 dc             	lea    -0x24(%ebp),%eax
    2e42:	89 04 24             	mov    %eax,(%esp)
    2e45:	8b 45 08             	mov    0x8(%ebp),%eax
    2e48:	53                   	push   %ebx
    2e49:	57                   	push   %edi
    2e4a:	56                   	push   %esi
    2e4b:	50                   	push   %eax
    2e4c:	8b 45 0c             	mov    0xc(%ebp),%eax
    2e4f:	ff 90 84 00 00 00    	call   *0x84(%eax)
    2e55:	8b 55 dc             	mov    -0x24(%ebp),%edx
    2e58:	83 c4 20             	add    $0x20,%esp
    2e5b:	85 d2                	test   %edx,%edx
    2e5d:	74 7d                	je     2edc <remote_nic_wol_virtue_list+0xfc>
    2e5f:	8d 45 e4             	lea    -0x1c(%ebp),%eax
    2e62:	56                   	push   %esi
    2e63:	56                   	push   %esi
    2e64:	50                   	push   %eax
    2e65:	8d 45 e0             	lea    -0x20(%ebp),%eax
    2e68:	50                   	push   %eax
    2e69:	e8 82 31 00 00       	call   5ff0 <async_data_read_receive@plt>
    2e6e:	83 c4 10             	add    $0x10,%esp
    2e71:	84 c0                	test   %al,%al
    2e73:	0f 84 87 00 00 00    	je     2f00 <remote_nic_wol_virtue_list+0x120>
    2e79:	8b 45 dc             	mov    -0x24(%ebp),%eax
    2e7c:	8d 14 85 00 00 00 00 	lea    0x0(,%eax,4),%edx
    2e83:	8b 45 e4             	mov    -0x1c(%ebp),%eax
    2e86:	39 c2                	cmp    %eax,%edx
    2e88:	73 05                	jae    2e8f <remote_nic_wol_virtue_list+0xaf>
    2e8a:	89 55 e4             	mov    %edx,-0x1c(%ebp)
    2e8d:	89 d0                	mov    %edx,%eax
    2e8f:	8b 4d d4             	mov    -0x2c(%ebp),%ecx
    2e92:	39 c1                	cmp    %eax,%ecx
    2e94:	73 05                	jae    2e9b <remote_nic_wol_virtue_list+0xbb>
    2e96:	89 4d e4             	mov    %ecx,-0x1c(%ebp)
    2e99:	89 c8                	mov    %ecx,%eax
    2e9b:	57                   	push   %edi
    2e9c:	50                   	push   %eax
    2e9d:	8b 45 e0             	mov    -0x20(%ebp),%eax
    2ea0:	53                   	push   %ebx
    2ea1:	50                   	push   %eax
    2ea2:	e8 09 30 00 00       	call   5eb0 <async_data_read_finalize@plt>
    2ea7:	8b 55 dc             	mov    -0x24(%ebp),%edx
    2eaa:	83 c4 10             	add    $0x10,%esp
    2ead:	eb 2d                	jmp    2edc <remote_nic_wol_virtue_list+0xfc>
    2eaf:	90                   	nop
    2eb0:	50                   	push   %eax
    2eb1:	6a 00                	push   $0x0
    2eb3:	6a 00                	push   $0x0
    2eb5:	6a 00                	push   $0x0
    2eb7:	e8 24 31 00 00       	call   5fe0 <memset@plt>
    2ebc:	8d 45 dc             	lea    -0x24(%ebp),%eax
    2ebf:	89 04 24             	mov    %eax,(%esp)
    2ec2:	8b 55 08             	mov    0x8(%ebp),%edx
    2ec5:	8b 45 0c             	mov    0xc(%ebp),%eax
    2ec8:	6a 00                	push   $0x0
    2eca:	6a 00                	push   $0x0
    2ecc:	56                   	push   %esi
    2ecd:	52                   	push   %edx
    2ece:	31 db                	xor    %ebx,%ebx
    2ed0:	ff 90 84 00 00 00    	call   *0x84(%eax)
    2ed6:	8b 55 dc             	mov    -0x24(%ebp),%edx
    2ed9:	83 c4 20             	add    $0x20,%esp
    2edc:	8b 75 10             	mov    0x10(%ebp),%esi
    2edf:	51                   	push   %ecx
    2ee0:	52                   	push   %edx
    2ee1:	50                   	push   %eax
    2ee2:	56                   	push   %esi
    2ee3:	e8 68 31 00 00       	call   6050 <async_answer_1@plt>
    2ee8:	89 1c 24             	mov    %ebx,(%esp)
    2eeb:	e8 f0 31 00 00       	call   60e0 <free@plt>
    2ef0:	83 c4 10             	add    $0x10,%esp
    2ef3:	8d 65 f4             	lea    -0xc(%ebp),%esp
    2ef6:	5b                   	pop    %ebx
    2ef7:	5e                   	pop    %esi
    2ef8:	5f                   	pop    %edi
    2ef9:	5d                   	pop    %ebp
    2efa:	c3                   	ret    
    2efb:	90                   	nop
    2efc:	8d 74 26 00          	lea    0x0(%esi,%eiz,1),%esi
    2f00:	50                   	push   %eax
    2f01:	50                   	push   %eax
    2f02:	8b 45 e0             	mov    -0x20(%ebp),%eax
    2f05:	6a f2                	push   $0xfffffff2
    2f07:	50                   	push   %eax
    2f08:	e8 e3 2f 00 00       	call   5ef0 <async_answer_0@plt>
    2f0d:	8b 4d 10             	mov    0x10(%ebp),%ecx
    2f10:	58                   	pop    %eax
    2f11:	5a                   	pop    %edx
    2f12:	6a f2                	push   $0xfffffff2
    2f14:	51                   	push   %ecx
    2f15:	e8 d6 2f 00 00       	call   5ef0 <async_answer_0@plt>
    2f1a:	89 1c 24             	mov    %ebx,(%esp)
    2f1d:	e8 be 31 00 00       	call   60e0 <free@plt>
    2f22:	83 c4 10             	add    $0x10,%esp
    2f25:	eb cc                	jmp    2ef3 <remote_nic_wol_virtue_list+0x113>
    2f27:	90                   	nop
    2f28:	50                   	push   %eax
    2f29:	50                   	push   %eax
    2f2a:	8b 45 10             	mov    0x10(%ebp),%eax
    2f2d:	6a f5                	push   $0xfffffff5
    2f2f:	50                   	push   %eax
    2f30:	e8 bb 2f 00 00       	call   5ef0 <async_answer_0@plt>
    2f35:	83 c4 10             	add    $0x10,%esp
    2f38:	eb b9                	jmp    2ef3 <remote_nic_wol_virtue_list+0x113>
    2f3a:	8d b6 00 00 00 00    	lea    0x0(%esi),%esi
    2f40:	8b 45 10             	mov    0x10(%ebp),%eax
    2f43:	57                   	push   %edi
    2f44:	57                   	push   %edi
    2f45:	6a fe                	push   $0xfffffffe
    2f47:	50                   	push   %eax
    2f48:	e8 a3 2f 00 00       	call   5ef0 <async_answer_0@plt>
    2f4d:	83 c4 10             	add    $0x10,%esp
    2f50:	eb a1                	jmp    2ef3 <remote_nic_wol_virtue_list+0x113>
    2f52:	8d b4 26 00 00 00 00 	lea    0x0(%esi,%eiz,1),%esi
    2f59:	8d bc 27 00 00 00 00 	lea    0x0(%edi,%eiz,1),%edi

00002f60 <remote_nic_wol_virtue_probe>:
    2f60:	55                   	push   %ebp
    2f61:	89 e5                	mov    %esp,%ebp
    2f63:	57                   	push   %edi
    2f64:	56                   	push   %esi
    2f65:	53                   	push   %ebx
    2f66:	83 ec 1c             	sub    $0x1c,%esp
    2f69:	8b 4d 0c             	mov    0xc(%ebp),%ecx
    2f6c:	8b 45 14             	mov    0x14(%ebp),%eax
    2f6f:	8b 91 80 00 00 00    	mov    0x80(%ecx),%edx
    2f75:	85 d2                	test   %edx,%edx
    2f77:	0f 84 2b 01 00 00    	je     30a8 <remote_nic_wol_virtue_probe+0x148>
    2f7d:	8b 58 0c             	mov    0xc(%eax),%ebx
    2f80:	8b 78 08             	mov    0x8(%eax),%edi
    2f83:	c7 45 d8 00 00 00 00 	movl   $0x0,-0x28(%ebp)
    2f8a:	c7 45 dc 00 00 00 00 	movl   $0x0,-0x24(%ebp)
    2f91:	85 db                	test   %ebx,%ebx
    2f93:	0f 84 8f 00 00 00    	je     3028 <remote_nic_wol_virtue_probe+0xc8>
    2f99:	83 ec 0c             	sub    $0xc,%esp
    2f9c:	53                   	push   %ebx
    2f9d:	e8 2e 2f 00 00       	call   5ed0 <malloc@plt>
    2fa2:	83 c4 10             	add    $0x10,%esp
    2fa5:	89 c6                	mov    %eax,%esi
    2fa7:	85 c0                	test   %eax,%eax
    2fa9:	0f 84 11 01 00 00    	je     30c0 <remote_nic_wol_virtue_probe+0x160>
    2faf:	50                   	push   %eax
    2fb0:	53                   	push   %ebx
    2fb1:	6a 00                	push   $0x0
    2fb3:	56                   	push   %esi
    2fb4:	e8 27 30 00 00       	call   5fe0 <memset@plt>
    2fb9:	58                   	pop    %eax
    2fba:	8d 45 dc             	lea    -0x24(%ebp),%eax
    2fbd:	5a                   	pop    %edx
    2fbe:	50                   	push   %eax
    2fbf:	8d 45 d8             	lea    -0x28(%ebp),%eax
    2fc2:	56                   	push   %esi
    2fc3:	53                   	push   %ebx
    2fc4:	50                   	push   %eax
    2fc5:	8b 45 0c             	mov    0xc(%ebp),%eax
    2fc8:	8b 4d 08             	mov    0x8(%ebp),%ecx
    2fcb:	57                   	push   %edi
    2fcc:	51                   	push   %ecx
    2fcd:	ff 90 80 00 00 00    	call   *0x80(%eax)
    2fd3:	89 c7                	mov    %eax,%edi
    2fd5:	8b 45 dc             	mov    -0x24(%ebp),%eax
    2fd8:	83 c4 20             	add    $0x20,%esp
    2fdb:	85 c0                	test   %eax,%eax
    2fdd:	74 7b                	je     305a <remote_nic_wol_virtue_probe+0xfa>
    2fdf:	50                   	push   %eax
    2fe0:	50                   	push   %eax
    2fe1:	8d 45 e4             	lea    -0x1c(%ebp),%eax
    2fe4:	50                   	push   %eax
    2fe5:	8d 45 e0             	lea    -0x20(%ebp),%eax
    2fe8:	50                   	push   %eax
    2fe9:	e8 02 30 00 00       	call   5ff0 <async_data_read_receive@plt>
    2fee:	83 c4 10             	add    $0x10,%esp
    2ff1:	84 c0                	test   %al,%al
    2ff3:	0f 84 87 00 00 00    	je     3080 <remote_nic_wol_virtue_probe+0x120>
    2ff9:	8b 45 e4             	mov    -0x1c(%ebp),%eax
    2ffc:	8b 55 dc             	mov    -0x24(%ebp),%edx
    2fff:	39 d0                	cmp    %edx,%eax
    3001:	76 05                	jbe    3008 <remote_nic_wol_virtue_probe+0xa8>
    3003:	89 55 e4             	mov    %edx,-0x1c(%ebp)
    3006:	89 d0                	mov    %edx,%eax
    3008:	39 c3                	cmp    %eax,%ebx
    300a:	73 05                	jae    3011 <remote_nic_wol_virtue_probe+0xb1>
    300c:	89 5d e4             	mov    %ebx,-0x1c(%ebp)
    300f:	89 d8                	mov    %ebx,%eax
    3011:	8b 4d e0             	mov    -0x20(%ebp),%ecx
    3014:	52                   	push   %edx
    3015:	50                   	push   %eax
    3016:	56                   	push   %esi
    3017:	51                   	push   %ecx
    3018:	e8 93 2e 00 00       	call   5eb0 <async_data_read_finalize@plt>
    301d:	8b 45 dc             	mov    -0x24(%ebp),%eax
    3020:	83 c4 10             	add    $0x10,%esp
    3023:	eb 35                	jmp    305a <remote_nic_wol_virtue_probe+0xfa>
    3025:	8d 76 00             	lea    0x0(%esi),%esi
    3028:	50                   	push   %eax
    3029:	6a 00                	push   $0x0
    302b:	6a 00                	push   $0x0
    302d:	6a 00                	push   $0x0
    302f:	e8 ac 2f 00 00       	call   5fe0 <memset@plt>
    3034:	8d 45 dc             	lea    -0x24(%ebp),%eax
    3037:	5a                   	pop    %edx
    3038:	59                   	pop    %ecx
    3039:	50                   	push   %eax
    303a:	8d 45 d8             	lea    -0x28(%ebp),%eax
    303d:	6a 00                	push   $0x0
    303f:	6a 00                	push   $0x0
    3041:	50                   	push   %eax
    3042:	8b 45 0c             	mov    0xc(%ebp),%eax
    3045:	8b 5d 08             	mov    0x8(%ebp),%ebx
    3048:	57                   	push   %edi
    3049:	53                   	push   %ebx
    304a:	ff 90 80 00 00 00    	call   *0x80(%eax)
    3050:	31 f6                	xor    %esi,%esi
    3052:	89 c7                	mov    %eax,%edi
    3054:	83 c4 20             	add    $0x20,%esp
    3057:	8b 45 dc             	mov    -0x24(%ebp),%eax
    305a:	8b 5d d8             	mov    -0x28(%ebp),%ebx
    305d:	50                   	push   %eax
    305e:	53                   	push   %ebx
    305f:	57                   	push   %edi
    3060:	8b 7d 10             	mov    0x10(%ebp),%edi
    3063:	57                   	push   %edi
    3064:	e8 07 2f 00 00       	call   5f70 <async_answer_2@plt>
    3069:	89 34 24             	mov    %esi,(%esp)
    306c:	e8 6f 30 00 00       	call   60e0 <free@plt>
    3071:	83 c4 10             	add    $0x10,%esp
    3074:	8d 65 f4             	lea    -0xc(%ebp),%esp
    3077:	5b                   	pop    %ebx
    3078:	5e                   	pop    %esi
    3079:	5f                   	pop    %edi
    307a:	5d                   	pop    %ebp
    307b:	c3                   	ret    
    307c:	8d 74 26 00          	lea    0x0(%esi,%eiz,1),%esi
    3080:	8b 7d e0             	mov    -0x20(%ebp),%edi
    3083:	53                   	push   %ebx
    3084:	53                   	push   %ebx
    3085:	6a f2                	push   $0xfffffff2
    3087:	57                   	push   %edi
    3088:	e8 63 2e 00 00       	call   5ef0 <async_answer_0@plt>
    308d:	8b 4d 10             	mov    0x10(%ebp),%ecx
    3090:	58                   	pop    %eax
    3091:	5a                   	pop    %edx
    3092:	6a f2                	push   $0xfffffff2
    3094:	51                   	push   %ecx
    3095:	e8 56 2e 00 00       	call   5ef0 <async_answer_0@plt>
    309a:	89 34 24             	mov    %esi,(%esp)
    309d:	e8 3e 30 00 00       	call   60e0 <free@plt>
    30a2:	83 c4 10             	add    $0x10,%esp
    30a5:	eb cd                	jmp    3074 <remote_nic_wol_virtue_probe+0x114>
    30a7:	90                   	nop
    30a8:	50                   	push   %eax
    30a9:	50                   	push   %eax
    30aa:	8b 45 10             	mov    0x10(%ebp),%eax
    30ad:	6a f5                	push   $0xfffffff5
    30af:	50                   	push   %eax
    30b0:	e8 3b 2e 00 00       	call   5ef0 <async_answer_0@plt>
    30b5:	83 c4 10             	add    $0x10,%esp
    30b8:	eb ba                	jmp    3074 <remote_nic_wol_virtue_probe+0x114>
    30ba:	8d b6 00 00 00 00    	lea    0x0(%esi),%esi
    30c0:	50                   	push   %eax
    30c1:	50                   	push   %eax
    30c2:	8b 45 10             	mov    0x10(%ebp),%eax
    30c5:	6a fe                	push   $0xfffffffe
    30c7:	50                   	push   %eax
    30c8:	e8 23 2e 00 00       	call   5ef0 <async_answer_0@plt>
    30cd:	83 c4 10             	add    $0x10,%esp
    30d0:	eb a2                	jmp    3074 <remote_nic_wol_virtue_probe+0x114>
    30d2:	8d b4 26 00 00 00 00 	lea    0x0(%esi,%eiz,1),%esi
    30d9:	8d bc 27 00 00 00 00 	lea    0x0(%edi,%eiz,1),%edi

000030e0 <remote_nic_wol_virtue_add>:
    30e0:	55                   	push   %ebp
    30e1:	89 e5                	mov    %esp,%ebp
    30e3:	57                   	push   %edi
    30e4:	56                   	push   %esi
    30e5:	53                   	push   %ebx
    30e6:	83 ec 1c             	sub    $0x1c,%esp
    30e9:	8b 5d 0c             	mov    0xc(%ebp),%ebx
    30ec:	8b 75 14             	mov    0x14(%ebp),%esi
    30ef:	8b 43 78             	mov    0x78(%ebx),%eax
    30f2:	8b 7e 0c             	mov    0xc(%esi),%edi
    30f5:	85 c0                	test   %eax,%eax
    30f7:	0f 84 eb 00 00 00    	je     31e8 <remote_nic_wol_virtue_add+0x108>
    30fd:	c7 45 e0 00 00 00 00 	movl   $0x0,-0x20(%ebp)
    3104:	85 ff                	test   %edi,%edi
    3106:	74 78                	je     3180 <remote_nic_wol_virtue_add+0xa0>
    3108:	8d 45 e0             	lea    -0x20(%ebp),%eax
    310b:	57                   	push   %edi
    310c:	57                   	push   %edi
    310d:	50                   	push   %eax
    310e:	8d 45 dc             	lea    -0x24(%ebp),%eax
    3111:	50                   	push   %eax
    3112:	e8 b9 2f 00 00       	call   60d0 <async_data_write_receive@plt>
    3117:	83 c4 10             	add    $0x10,%esp
    311a:	84 c0                	test   %al,%al
    311c:	75 2a                	jne    3148 <remote_nic_wol_virtue_add+0x68>
    311e:	50                   	push   %eax
    311f:	50                   	push   %eax
    3120:	8b 45 dc             	mov    -0x24(%ebp),%eax
    3123:	6a f2                	push   $0xfffffff2
    3125:	50                   	push   %eax
    3126:	e8 c5 2d 00 00       	call   5ef0 <async_answer_0@plt>
    312b:	8b 4d 10             	mov    0x10(%ebp),%ecx
    312e:	58                   	pop    %eax
    312f:	5a                   	pop    %edx
    3130:	6a f2                	push   $0xfffffff2
    3132:	51                   	push   %ecx
    3133:	e8 b8 2d 00 00       	call   5ef0 <async_answer_0@plt>
    3138:	83 c4 10             	add    $0x10,%esp
    313b:	8d 65 f4             	lea    -0xc(%ebp),%esp
    313e:	5b                   	pop    %ebx
    313f:	5e                   	pop    %esi
    3140:	5f                   	pop    %edi
    3141:	5d                   	pop    %ebp
    3142:	c3                   	ret    
    3143:	90                   	nop
    3144:	8d 74 26 00          	lea    0x0(%esi,%eiz,1),%esi
    3148:	83 ec 0c             	sub    $0xc,%esp
    314b:	8b 7d e0             	mov    -0x20(%ebp),%edi
    314e:	57                   	push   %edi
    314f:	e8 7c 2d 00 00       	call   5ed0 <malloc@plt>
    3154:	83 c4 10             	add    $0x10,%esp
    3157:	89 c7                	mov    %eax,%edi
    3159:	85 c0                	test   %eax,%eax
    315b:	0f 84 a7 00 00 00    	je     3208 <remote_nic_wol_virtue_add+0x128>
    3161:	50                   	push   %eax
    3162:	8b 45 e0             	mov    -0x20(%ebp),%eax
    3165:	50                   	push   %eax
    3166:	8b 45 dc             	mov    -0x24(%ebp),%eax
    3169:	57                   	push   %edi
    316a:	50                   	push   %eax
    316b:	e8 10 2f 00 00       	call   6080 <async_data_write_finalize@plt>
    3170:	83 c4 10             	add    $0x10,%esp
    3173:	85 c0                	test   %eax,%eax
    3175:	75 51                	jne    31c8 <remote_nic_wol_virtue_add+0xe8>
    3177:	8b 45 e0             	mov    -0x20(%ebp),%eax
    317a:	eb 08                	jmp    3184 <remote_nic_wol_virtue_add+0xa4>
    317c:	8d 74 26 00          	lea    0x0(%esi,%eiz,1),%esi
    3180:	31 c0                	xor    %eax,%eax
    3182:	31 ff                	xor    %edi,%edi
    3184:	83 ec 0c             	sub    $0xc,%esp
    3187:	8d 4d e4             	lea    -0x1c(%ebp),%ecx
    318a:	8b 55 08             	mov    0x8(%ebp),%edx
    318d:	c7 45 e4 00 00 00 00 	movl   $0x0,-0x1c(%ebp)
    3194:	51                   	push   %ecx
    3195:	50                   	push   %eax
    3196:	8b 46 08             	mov    0x8(%esi),%eax
    3199:	57                   	push   %edi
    319a:	50                   	push   %eax
    319b:	52                   	push   %edx
    319c:	ff 53 78             	call   *0x78(%ebx)
    319f:	83 c4 1c             	add    $0x1c,%esp
    31a2:	8b 4d e4             	mov    -0x1c(%ebp),%ecx
    31a5:	8b 5d 10             	mov    0x10(%ebp),%ebx
    31a8:	51                   	push   %ecx
    31a9:	50                   	push   %eax
    31aa:	53                   	push   %ebx
    31ab:	e8 a0 2e 00 00       	call   6050 <async_answer_1@plt>
    31b0:	89 3c 24             	mov    %edi,(%esp)
    31b3:	e8 28 2f 00 00       	call   60e0 <free@plt>
    31b8:	83 c4 10             	add    $0x10,%esp
    31bb:	8d 65 f4             	lea    -0xc(%ebp),%esp
    31be:	5b                   	pop    %ebx
    31bf:	5e                   	pop    %esi
    31c0:	5f                   	pop    %edi
    31c1:	5d                   	pop    %ebp
    31c2:	c3                   	ret    
    31c3:	90                   	nop
    31c4:	8d 74 26 00          	lea    0x0(%esi,%eiz,1),%esi
    31c8:	8b 45 10             	mov    0x10(%ebp),%eax
    31cb:	56                   	push   %esi
    31cc:	56                   	push   %esi
    31cd:	6a f2                	push   $0xfffffff2
    31cf:	50                   	push   %eax
    31d0:	e8 1b 2d 00 00       	call   5ef0 <async_answer_0@plt>
    31d5:	89 3c 24             	mov    %edi,(%esp)
    31d8:	e8 03 2f 00 00       	call   60e0 <free@plt>
    31dd:	83 c4 10             	add    $0x10,%esp
    31e0:	8d 65 f4             	lea    -0xc(%ebp),%esp
    31e3:	5b                   	pop    %ebx
    31e4:	5e                   	pop    %esi
    31e5:	5f                   	pop    %edi
    31e6:	5d                   	pop    %ebp
    31e7:	c3                   	ret    
    31e8:	85 ff                	test   %edi,%edi
    31ea:	75 44                	jne    3230 <remote_nic_wol_virtue_add+0x150>
    31ec:	50                   	push   %eax
    31ed:	50                   	push   %eax
    31ee:	8b 45 10             	mov    0x10(%ebp),%eax
    31f1:	6a f5                	push   $0xfffffff5
    31f3:	50                   	push   %eax
    31f4:	e8 f7 2c 00 00       	call   5ef0 <async_answer_0@plt>
    31f9:	83 c4 10             	add    $0x10,%esp
    31fc:	e9 fc fe ff ff       	jmp    30fd <remote_nic_wol_virtue_add+0x1d>
    3201:	8d b4 26 00 00 00 00 	lea    0x0(%esi,%eiz,1),%esi
    3208:	50                   	push   %eax
    3209:	50                   	push   %eax
    320a:	8b 45 dc             	mov    -0x24(%ebp),%eax
    320d:	6a fe                	push   $0xfffffffe
    320f:	50                   	push   %eax
    3210:	e8 db 2c 00 00       	call   5ef0 <async_answer_0@plt>
    3215:	8b 5d 10             	mov    0x10(%ebp),%ebx
    3218:	5a                   	pop    %edx
    3219:	59                   	pop    %ecx
    321a:	6a fe                	push   $0xfffffffe
    321c:	53                   	push   %ebx
    321d:	e8 ce 2c 00 00       	call   5ef0 <async_answer_0@plt>
    3222:	83 c4 10             	add    $0x10,%esp
    3225:	e9 11 ff ff ff       	jmp    313b <remote_nic_wol_virtue_add+0x5b>
    322a:	8d b6 00 00 00 00    	lea    0x0(%esi),%esi
    3230:	50                   	push   %eax
    3231:	50                   	push   %eax
    3232:	8d 45 dc             	lea    -0x24(%ebp),%eax
    3235:	6a 00                	push   $0x0
    3237:	50                   	push   %eax
    3238:	e8 93 2e 00 00       	call   60d0 <async_data_write_receive@plt>
    323d:	8b 4d dc             	mov    -0x24(%ebp),%ecx
    3240:	58                   	pop    %eax
    3241:	5a                   	pop    %edx
    3242:	6a f5                	push   $0xfffffff5
    3244:	51                   	push   %ecx
    3245:	e8 a6 2c 00 00       	call   5ef0 <async_answer_0@plt>
    324a:	83 c4 10             	add    $0x10,%esp
    324d:	eb 9d                	jmp    31ec <remote_nic_wol_virtue_add+0x10c>
    324f:	90                   	nop

00003250 <remote_nic_blocked_sources_set>:
    3250:	55                   	push   %ebp
    3251:	89 e5                	mov    %esp,%ebp
    3253:	57                   	push   %edi
    3254:	56                   	push   %esi
    3255:	53                   	push   %ebx
    3256:	83 ec 1c             	sub    $0x1c,%esp
    3259:	31 f6                	xor    %esi,%esi
    325b:	8b 45 14             	mov    0x14(%ebp),%eax
    325e:	8b 58 08             	mov    0x8(%eax),%ebx
    3261:	85 db                	test   %ebx,%ebx
    3263:	75 3b                	jne    32a0 <remote_nic_blocked_sources_set+0x50>
    3265:	8b 45 0c             	mov    0xc(%ebp),%eax
    3268:	8b 40 68             	mov    0x68(%eax),%eax
    326b:	85 c0                	test   %eax,%eax
    326d:	0f 84 cd 00 00 00    	je     3340 <remote_nic_blocked_sources_set+0xf0>
    3273:	51                   	push   %ecx
    3274:	53                   	push   %ebx
    3275:	8b 5d 08             	mov    0x8(%ebp),%ebx
    3278:	56                   	push   %esi
    3279:	53                   	push   %ebx
    327a:	ff d0                	call   *%eax
    327c:	8b 4d 10             	mov    0x10(%ebp),%ecx
    327f:	5f                   	pop    %edi
    3280:	5a                   	pop    %edx
    3281:	50                   	push   %eax
    3282:	51                   	push   %ecx
    3283:	e8 68 2c 00 00       	call   5ef0 <async_answer_0@plt>
    3288:	83 c4 10             	add    $0x10,%esp
    328b:	83 ec 0c             	sub    $0xc,%esp
    328e:	56                   	push   %esi
    328f:	e8 4c 2e 00 00       	call   60e0 <free@plt>
    3294:	83 c4 10             	add    $0x10,%esp
    3297:	8d 65 f4             	lea    -0xc(%ebp),%esp
    329a:	5b                   	pop    %ebx
    329b:	5e                   	pop    %esi
    329c:	5f                   	pop    %edi
    329d:	5d                   	pop    %ebp
    329e:	c3                   	ret    
    329f:	90                   	nop
    32a0:	8d 45 e0             	lea    -0x20(%ebp),%eax
    32a3:	56                   	push   %esi
    32a4:	56                   	push   %esi
    32a5:	50                   	push   %eax
    32a6:	8d 45 e4             	lea    -0x1c(%ebp),%eax
    32a9:	50                   	push   %eax
    32aa:	e8 21 2e 00 00       	call   60d0 <async_data_write_receive@plt>
    32af:	83 c4 10             	add    $0x10,%esp
    32b2:	84 c0                	test   %al,%al
    32b4:	0f 84 9e 00 00 00    	je     3358 <remote_nic_blocked_sources_set+0x108>
    32ba:	8d 04 5b             	lea    (%ebx,%ebx,2),%eax
    32bd:	01 c0                	add    %eax,%eax
    32bf:	3b 45 e0             	cmp    -0x20(%ebp),%eax
    32c2:	74 2c                	je     32f0 <remote_nic_blocked_sources_set+0xa0>
    32c4:	8b 75 e4             	mov    -0x1c(%ebp),%esi
    32c7:	53                   	push   %ebx
    32c8:	53                   	push   %ebx
    32c9:	6a fd                	push   $0xfffffffd
    32cb:	56                   	push   %esi
    32cc:	e8 1f 2c 00 00       	call   5ef0 <async_answer_0@plt>
    32d1:	5f                   	pop    %edi
    32d2:	58                   	pop    %eax
    32d3:	8b 45 10             	mov    0x10(%ebp),%eax
    32d6:	6a fd                	push   $0xfffffffd
    32d8:	50                   	push   %eax
    32d9:	e8 12 2c 00 00       	call   5ef0 <async_answer_0@plt>
    32de:	83 c4 10             	add    $0x10,%esp
    32e1:	8d 65 f4             	lea    -0xc(%ebp),%esp
    32e4:	5b                   	pop    %ebx
    32e5:	5e                   	pop    %esi
    32e6:	5f                   	pop    %edi
    32e7:	5d                   	pop    %ebp
    32e8:	c3                   	ret    
    32e9:	8d b4 26 00 00 00 00 	lea    0x0(%esi,%eiz,1),%esi
    32f0:	83 ec 0c             	sub    $0xc,%esp
    32f3:	50                   	push   %eax
    32f4:	e8 d7 2b 00 00       	call   5ed0 <malloc@plt>
    32f9:	83 c4 10             	add    $0x10,%esp
    32fc:	89 c7                	mov    %eax,%edi
    32fe:	89 c6                	mov    %eax,%esi
    3300:	85 c0                	test   %eax,%eax
    3302:	74 76                	je     337a <remote_nic_blocked_sources_set+0x12a>
    3304:	50                   	push   %eax
    3305:	8b 45 e0             	mov    -0x20(%ebp),%eax
    3308:	50                   	push   %eax
    3309:	8b 45 e4             	mov    -0x1c(%ebp),%eax
    330c:	57                   	push   %edi
    330d:	50                   	push   %eax
    330e:	e8 6d 2d 00 00       	call   6080 <async_data_write_finalize@plt>
    3313:	83 c4 10             	add    $0x10,%esp
    3316:	85 c0                	test   %eax,%eax
    3318:	0f 84 47 ff ff ff    	je     3265 <remote_nic_blocked_sources_set+0x15>
    331e:	8b 75 10             	mov    0x10(%ebp),%esi
    3321:	53                   	push   %ebx
    3322:	53                   	push   %ebx
    3323:	6a f2                	push   $0xfffffff2
    3325:	56                   	push   %esi
    3326:	e8 c5 2b 00 00       	call   5ef0 <async_answer_0@plt>
    332b:	89 3c 24             	mov    %edi,(%esp)
    332e:	e8 ad 2d 00 00       	call   60e0 <free@plt>
    3333:	83 c4 10             	add    $0x10,%esp
    3336:	e9 5c ff ff ff       	jmp    3297 <remote_nic_blocked_sources_set+0x47>
    333b:	90                   	nop
    333c:	8d 74 26 00          	lea    0x0(%esi,%eiz,1),%esi
    3340:	8b 55 10             	mov    0x10(%ebp),%edx
    3343:	50                   	push   %eax
    3344:	50                   	push   %eax
    3345:	6a f5                	push   $0xfffffff5
    3347:	52                   	push   %edx
    3348:	e8 a3 2b 00 00       	call   5ef0 <async_answer_0@plt>
    334d:	83 c4 10             	add    $0x10,%esp
    3350:	e9 36 ff ff ff       	jmp    328b <remote_nic_blocked_sources_set+0x3b>
    3355:	8d 76 00             	lea    0x0(%esi),%esi
    3358:	50                   	push   %eax
    3359:	50                   	push   %eax
    335a:	8b 45 e4             	mov    -0x1c(%ebp),%eax
    335d:	6a f2                	push   $0xfffffff2
    335f:	50                   	push   %eax
    3360:	e8 8b 2b 00 00       	call   5ef0 <async_answer_0@plt>
    3365:	8b 4d 10             	mov    0x10(%ebp),%ecx
    3368:	58                   	pop    %eax
    3369:	5a                   	pop    %edx
    336a:	6a f2                	push   $0xfffffff2
    336c:	51                   	push   %ecx
    336d:	e8 7e 2b 00 00       	call   5ef0 <async_answer_0@plt>
    3372:	83 c4 10             	add    $0x10,%esp
    3375:	e9 1d ff ff ff       	jmp    3297 <remote_nic_blocked_sources_set+0x47>
    337a:	50                   	push   %eax
    337b:	50                   	push   %eax
    337c:	8b 45 e4             	mov    -0x1c(%ebp),%eax
    337f:	6a fe                	push   $0xfffffffe
    3381:	50                   	push   %eax
    3382:	e8 69 2b 00 00       	call   5ef0 <async_answer_0@plt>
    3387:	8b 4d 10             	mov    0x10(%ebp),%ecx
    338a:	58                   	pop    %eax
    338b:	5a                   	pop    %edx
    338c:	6a fe                	push   $0xfffffffe
    338e:	51                   	push   %ecx
    338f:	e8 5c 2b 00 00       	call   5ef0 <async_answer_0@plt>
    3394:	83 c4 10             	add    $0x10,%esp
    3397:	e9 fb fe ff ff       	jmp    3297 <remote_nic_blocked_sources_set+0x47>
    339c:	8d 74 26 00          	lea    0x0(%esi,%eiz,1),%esi

000033a0 <remote_nic_blocked_sources_get>:
    33a0:	55                   	push   %ebp
    33a1:	89 e5                	mov    %esp,%ebp
    33a3:	57                   	push   %edi
    33a4:	56                   	push   %esi
    33a5:	53                   	push   %ebx
    33a6:	83 ec 1c             	sub    $0x1c,%esp
    33a9:	8b 45 0c             	mov    0xc(%ebp),%eax
    33ac:	8b 50 64             	mov    0x64(%eax),%edx
    33af:	85 d2                	test   %edx,%edx
    33b1:	0f 84 19 01 00 00    	je     34d0 <remote_nic_blocked_sources_get+0x130>
    33b7:	8b 45 14             	mov    0x14(%ebp),%eax
    33ba:	8b 70 08             	mov    0x8(%eax),%esi
    33bd:	85 f6                	test   %esi,%esi
    33bf:	75 4f                	jne    3410 <remote_nic_blocked_sources_get+0x70>
    33c1:	50                   	push   %eax
    33c2:	6a 00                	push   $0x0
    33c4:	6a 00                	push   $0x0
    33c6:	6a 00                	push   $0x0
    33c8:	e8 13 2c 00 00       	call   5fe0 <memset@plt>
    33cd:	8d 45 dc             	lea    -0x24(%ebp),%eax
    33d0:	50                   	push   %eax
    33d1:	8b 55 08             	mov    0x8(%ebp),%edx
    33d4:	8b 45 0c             	mov    0xc(%ebp),%eax
    33d7:	6a 00                	push   $0x0
    33d9:	c7 45 dc 00 00 00 00 	movl   $0x0,-0x24(%ebp)
    33e0:	6a 00                	push   $0x0
    33e2:	52                   	push   %edx
    33e3:	31 db                	xor    %ebx,%ebx
    33e5:	ff 50 64             	call   *0x64(%eax)
    33e8:	8b 55 dc             	mov    -0x24(%ebp),%edx
    33eb:	83 c4 20             	add    $0x20,%esp
    33ee:	57                   	push   %edi
    33ef:	52                   	push   %edx
    33f0:	50                   	push   %eax
    33f1:	8b 45 10             	mov    0x10(%ebp),%eax
    33f4:	50                   	push   %eax
    33f5:	e8 56 2c 00 00       	call   6050 <async_answer_1@plt>
    33fa:	89 1c 24             	mov    %ebx,(%esp)
    33fd:	e8 de 2c 00 00       	call   60e0 <free@plt>
    3402:	83 c4 10             	add    $0x10,%esp
    3405:	8d 65 f4             	lea    -0xc(%ebp),%esp
    3408:	5b                   	pop    %ebx
    3409:	5e                   	pop    %esi
    340a:	5f                   	pop    %edi
    340b:	5d                   	pop    %ebp
    340c:	c3                   	ret    
    340d:	8d 76 00             	lea    0x0(%esi),%esi
    3410:	83 ec 0c             	sub    $0xc,%esp
    3413:	8d 3c 76             	lea    (%esi,%esi,2),%edi
    3416:	01 ff                	add    %edi,%edi
    3418:	57                   	push   %edi
    3419:	e8 b2 2a 00 00       	call   5ed0 <malloc@plt>
    341e:	83 c4 10             	add    $0x10,%esp
    3421:	89 c3                	mov    %eax,%ebx
    3423:	85 c0                	test   %eax,%eax
    3425:	0f 84 dd 00 00 00    	je     3508 <remote_nic_blocked_sources_get+0x168>
    342b:	50                   	push   %eax
    342c:	57                   	push   %edi
    342d:	6a 00                	push   $0x0
    342f:	53                   	push   %ebx
    3430:	e8 ab 2b 00 00       	call   5fe0 <memset@plt>
    3435:	8d 45 dc             	lea    -0x24(%ebp),%eax
    3438:	50                   	push   %eax
    3439:	8b 45 08             	mov    0x8(%ebp),%eax
    343c:	53                   	push   %ebx
    343d:	56                   	push   %esi
    343e:	50                   	push   %eax
    343f:	8b 45 0c             	mov    0xc(%ebp),%eax
    3442:	c7 45 dc 00 00 00 00 	movl   $0x0,-0x24(%ebp)
    3449:	ff 50 64             	call   *0x64(%eax)
    344c:	83 c4 20             	add    $0x20,%esp
    344f:	8b 55 dc             	mov    -0x24(%ebp),%edx
    3452:	85 c0                	test   %eax,%eax
    3454:	75 98                	jne    33ee <remote_nic_blocked_sources_get+0x4e>
    3456:	85 d2                	test   %edx,%edx
    3458:	74 94                	je     33ee <remote_nic_blocked_sources_get+0x4e>
    345a:	8d 45 e4             	lea    -0x1c(%ebp),%eax
    345d:	56                   	push   %esi
    345e:	56                   	push   %esi
    345f:	50                   	push   %eax
    3460:	8d 45 e0             	lea    -0x20(%ebp),%eax
    3463:	50                   	push   %eax
    3464:	e8 87 2b 00 00       	call   5ff0 <async_data_read_receive@plt>
    3469:	83 c4 10             	add    $0x10,%esp
    346c:	84 c0                	test   %al,%al
    346e:	74 78                	je     34e8 <remote_nic_blocked_sources_get+0x148>
    3470:	8b 45 dc             	mov    -0x24(%ebp),%eax
    3473:	8d 14 40             	lea    (%eax,%eax,2),%edx
    3476:	8b 45 e4             	mov    -0x1c(%ebp),%eax
    3479:	01 d2                	add    %edx,%edx
    347b:	39 c2                	cmp    %eax,%edx
    347d:	73 05                	jae    3484 <remote_nic_blocked_sources_get+0xe4>
    347f:	89 55 e4             	mov    %edx,-0x1c(%ebp)
    3482:	89 d0                	mov    %edx,%eax
    3484:	39 f8                	cmp    %edi,%eax
    3486:	76 05                	jbe    348d <remote_nic_blocked_sources_get+0xed>
    3488:	89 7d e4             	mov    %edi,-0x1c(%ebp)
    348b:	89 f8                	mov    %edi,%eax
    348d:	8b 75 e0             	mov    -0x20(%ebp),%esi
    3490:	51                   	push   %ecx
    3491:	50                   	push   %eax
    3492:	53                   	push   %ebx
    3493:	56                   	push   %esi
    3494:	e8 17 2a 00 00       	call   5eb0 <async_data_read_finalize@plt>
    3499:	5f                   	pop    %edi
    349a:	58                   	pop    %eax
    349b:	8b 45 e0             	mov    -0x20(%ebp),%eax
    349e:	6a f2                	push   $0xfffffff2
    34a0:	50                   	push   %eax
    34a1:	e8 4a 2a 00 00       	call   5ef0 <async_answer_0@plt>
    34a6:	89 1c 24             	mov    %ebx,(%esp)
    34a9:	e8 32 2c 00 00       	call   60e0 <free@plt>
    34ae:	83 c4 0c             	add    $0xc,%esp
    34b1:	8b 45 dc             	mov    -0x24(%ebp),%eax
    34b4:	50                   	push   %eax
    34b5:	8b 45 10             	mov    0x10(%ebp),%eax
    34b8:	6a 00                	push   $0x0
    34ba:	50                   	push   %eax
    34bb:	e8 90 2b 00 00       	call   6050 <async_answer_1@plt>
    34c0:	83 c4 10             	add    $0x10,%esp
    34c3:	8d 65 f4             	lea    -0xc(%ebp),%esp
    34c6:	5b                   	pop    %ebx
    34c7:	5e                   	pop    %esi
    34c8:	5f                   	pop    %edi
    34c9:	5d                   	pop    %ebp
    34ca:	c3                   	ret    
    34cb:	90                   	nop
    34cc:	8d 74 26 00          	lea    0x0(%esi,%eiz,1),%esi
    34d0:	50                   	push   %eax
    34d1:	50                   	push   %eax
    34d2:	8b 45 10             	mov    0x10(%ebp),%eax
    34d5:	6a f5                	push   $0xfffffff5
    34d7:	50                   	push   %eax
    34d8:	e8 13 2a 00 00       	call   5ef0 <async_answer_0@plt>
    34dd:	83 c4 10             	add    $0x10,%esp
    34e0:	e9 20 ff ff ff       	jmp    3405 <remote_nic_blocked_sources_get+0x65>
    34e5:	8d 76 00             	lea    0x0(%esi),%esi
    34e8:	8b 55 e0             	mov    -0x20(%ebp),%edx
    34eb:	50                   	push   %eax
    34ec:	50                   	push   %eax
    34ed:	6a f2                	push   $0xfffffff2
    34ef:	52                   	push   %edx
    34f0:	e8 fb 29 00 00       	call   5ef0 <async_answer_0@plt>
    34f5:	83 c4 0c             	add    $0xc,%esp
    34f8:	8b 4d dc             	mov    -0x24(%ebp),%ecx
    34fb:	51                   	push   %ecx
    34fc:	6a 00                	push   $0x0
    34fe:	e9 ee fe ff ff       	jmp    33f1 <remote_nic_blocked_sources_get+0x51>
    3503:	90                   	nop
    3504:	8d 74 26 00          	lea    0x0(%esi,%eiz,1),%esi
    3508:	50                   	push   %eax
    3509:	50                   	push   %eax
    350a:	8b 45 10             	mov    0x10(%ebp),%eax
    350d:	6a fe                	push   $0xfffffffe
    350f:	50                   	push   %eax
    3510:	e8 db 29 00 00       	call   5ef0 <async_answer_0@plt>
    3515:	83 c4 10             	add    $0x10,%esp
    3518:	e9 e8 fe ff ff       	jmp    3405 <remote_nic_blocked_sources_get+0x65>
    351d:	8d 76 00             	lea    0x0(%esi),%esi

00003520 <remote_nic_multicast_set_mode>:
    3520:	55                   	push   %ebp
    3521:	89 e5                	mov    %esp,%ebp
    3523:	57                   	push   %edi
    3524:	56                   	push   %esi
    3525:	53                   	push   %ebx
    3526:	83 ec 2c             	sub    $0x2c,%esp
    3529:	31 f6                	xor    %esi,%esi
    352b:	8b 45 14             	mov    0x14(%ebp),%eax
    352e:	8b 58 0c             	mov    0xc(%eax),%ebx
    3531:	8b 78 08             	mov    0x8(%eax),%edi
    3534:	85 db                	test   %ebx,%ebx
    3536:	75 40                	jne    3578 <remote_nic_multicast_set_mode+0x58>
    3538:	8b 45 0c             	mov    0xc(%ebp),%eax
    353b:	8b 40 50             	mov    0x50(%eax),%eax
    353e:	85 c0                	test   %eax,%eax
    3540:	0f 84 da 00 00 00    	je     3620 <remote_nic_multicast_set_mode+0x100>
    3546:	8b 4d 08             	mov    0x8(%ebp),%ecx
    3549:	53                   	push   %ebx
    354a:	56                   	push   %esi
    354b:	57                   	push   %edi
    354c:	51                   	push   %ecx
    354d:	ff d0                	call   *%eax
    354f:	5b                   	pop    %ebx
    3550:	5f                   	pop    %edi
    3551:	50                   	push   %eax
    3552:	8b 45 10             	mov    0x10(%ebp),%eax
    3555:	50                   	push   %eax
    3556:	e8 95 29 00 00       	call   5ef0 <async_answer_0@plt>
    355b:	83 c4 10             	add    $0x10,%esp
    355e:	83 ec 0c             	sub    $0xc,%esp
    3561:	56                   	push   %esi
    3562:	e8 79 2b 00 00       	call   60e0 <free@plt>
    3567:	83 c4 10             	add    $0x10,%esp
    356a:	8d 65 f4             	lea    -0xc(%ebp),%esp
    356d:	5b                   	pop    %ebx
    356e:	5e                   	pop    %esi
    356f:	5f                   	pop    %edi
    3570:	5d                   	pop    %ebp
    3571:	c3                   	ret    
    3572:	8d b6 00 00 00 00    	lea    0x0(%esi),%esi
    3578:	50                   	push   %eax
    3579:	50                   	push   %eax
    357a:	8d 45 e4             	lea    -0x1c(%ebp),%eax
    357d:	50                   	push   %eax
    357e:	8d 45 e0             	lea    -0x20(%ebp),%eax
    3581:	50                   	push   %eax
    3582:	e8 49 2b 00 00       	call   60d0 <async_data_write_receive@plt>
    3587:	83 c4 10             	add    $0x10,%esp
    358a:	84 c0                	test   %al,%al
    358c:	0f 84 a6 00 00 00    	je     3638 <remote_nic_multicast_set_mode+0x118>
    3592:	8d 04 5b             	lea    (%ebx,%ebx,2),%eax
    3595:	01 c0                	add    %eax,%eax
    3597:	3b 45 e4             	cmp    -0x1c(%ebp),%eax
    359a:	74 2c                	je     35c8 <remote_nic_multicast_set_mode+0xa8>
    359c:	50                   	push   %eax
    359d:	50                   	push   %eax
    359e:	8b 45 e0             	mov    -0x20(%ebp),%eax
    35a1:	6a fd                	push   $0xfffffffd
    35a3:	50                   	push   %eax
    35a4:	e8 47 29 00 00       	call   5ef0 <async_answer_0@plt>
    35a9:	8b 4d 10             	mov    0x10(%ebp),%ecx
    35ac:	58                   	pop    %eax
    35ad:	5a                   	pop    %edx
    35ae:	6a fd                	push   $0xfffffffd
    35b0:	51                   	push   %ecx
    35b1:	e8 3a 29 00 00       	call   5ef0 <async_answer_0@plt>
    35b6:	83 c4 10             	add    $0x10,%esp
    35b9:	8d 65 f4             	lea    -0xc(%ebp),%esp
    35bc:	5b                   	pop    %ebx
    35bd:	5e                   	pop    %esi
    35be:	5f                   	pop    %edi
    35bf:	5d                   	pop    %ebp
    35c0:	c3                   	ret    
    35c1:	8d b4 26 00 00 00 00 	lea    0x0(%esi,%eiz,1),%esi
    35c8:	83 ec 0c             	sub    $0xc,%esp
    35cb:	50                   	push   %eax
    35cc:	e8 ff 28 00 00       	call   5ed0 <malloc@plt>
    35d1:	83 c4 10             	add    $0x10,%esp
    35d4:	89 c2                	mov    %eax,%edx
    35d6:	89 c6                	mov    %eax,%esi
    35d8:	85 c0                	test   %eax,%eax
    35da:	74 7e                	je     365a <remote_nic_multicast_set_mode+0x13a>
    35dc:	50                   	push   %eax
    35dd:	8b 45 e4             	mov    -0x1c(%ebp),%eax
    35e0:	50                   	push   %eax
    35e1:	8b 45 e0             	mov    -0x20(%ebp),%eax
    35e4:	52                   	push   %edx
    35e5:	89 55 d4             	mov    %edx,-0x2c(%ebp)
    35e8:	50                   	push   %eax
    35e9:	e8 92 2a 00 00       	call   6080 <async_data_write_finalize@plt>
    35ee:	83 c4 10             	add    $0x10,%esp
    35f1:	85 c0                	test   %eax,%eax
    35f3:	0f 84 3f ff ff ff    	je     3538 <remote_nic_multicast_set_mode+0x18>
    35f9:	50                   	push   %eax
    35fa:	50                   	push   %eax
    35fb:	8b 45 10             	mov    0x10(%ebp),%eax
    35fe:	6a f2                	push   $0xfffffff2
    3600:	50                   	push   %eax
    3601:	e8 ea 28 00 00       	call   5ef0 <async_answer_0@plt>
    3606:	8b 55 d4             	mov    -0x2c(%ebp),%edx
    3609:	89 14 24             	mov    %edx,(%esp)
    360c:	e8 cf 2a 00 00       	call   60e0 <free@plt>
    3611:	83 c4 10             	add    $0x10,%esp
    3614:	e9 51 ff ff ff       	jmp    356a <remote_nic_multicast_set_mode+0x4a>
    3619:	8d b4 26 00 00 00 00 	lea    0x0(%esi,%eiz,1),%esi
    3620:	8b 55 10             	mov    0x10(%ebp),%edx
    3623:	50                   	push   %eax
    3624:	50                   	push   %eax
    3625:	6a f5                	push   $0xfffffff5
    3627:	52                   	push   %edx
    3628:	e8 c3 28 00 00       	call   5ef0 <async_answer_0@plt>
    362d:	83 c4 10             	add    $0x10,%esp
    3630:	e9 29 ff ff ff       	jmp    355e <remote_nic_multicast_set_mode+0x3e>
    3635:	8d 76 00             	lea    0x0(%esi),%esi
    3638:	8b 75 e0             	mov    -0x20(%ebp),%esi
    363b:	53                   	push   %ebx
    363c:	53                   	push   %ebx
    363d:	6a f2                	push   $0xfffffff2
    363f:	56                   	push   %esi
    3640:	e8 ab 28 00 00       	call   5ef0 <async_answer_0@plt>
    3645:	5f                   	pop    %edi
    3646:	58                   	pop    %eax
    3647:	8b 45 10             	mov    0x10(%ebp),%eax
    364a:	6a f2                	push   $0xfffffff2
    364c:	50                   	push   %eax
    364d:	e8 9e 28 00 00       	call   5ef0 <async_answer_0@plt>
    3652:	83 c4 10             	add    $0x10,%esp
    3655:	e9 10 ff ff ff       	jmp    356a <remote_nic_multicast_set_mode+0x4a>
    365a:	8b 4d e0             	mov    -0x20(%ebp),%ecx
    365d:	52                   	push   %edx
    365e:	52                   	push   %edx
    365f:	6a fe                	push   $0xfffffffe
    3661:	51                   	push   %ecx
    3662:	e8 89 28 00 00       	call   5ef0 <async_answer_0@plt>
    3667:	8b 7d 10             	mov    0x10(%ebp),%edi
    366a:	5b                   	pop    %ebx
    366b:	5e                   	pop    %esi
    366c:	6a fe                	push   $0xfffffffe
    366e:	57                   	push   %edi
    366f:	e8 7c 28 00 00       	call   5ef0 <async_answer_0@plt>
    3674:	83 c4 10             	add    $0x10,%esp
    3677:	e9 ee fe ff ff       	jmp    356a <remote_nic_multicast_set_mode+0x4a>
    367c:	8d 74 26 00          	lea    0x0(%esi,%eiz,1),%esi

00003680 <remote_nic_multicast_get_mode>:
    3680:	55                   	push   %ebp
    3681:	89 e5                	mov    %esp,%ebp
    3683:	57                   	push   %edi
    3684:	56                   	push   %esi
    3685:	53                   	push   %ebx
    3686:	83 ec 1c             	sub    $0x1c,%esp
    3689:	8b 45 0c             	mov    0xc(%ebp),%eax
    368c:	8b 58 4c             	mov    0x4c(%eax),%ebx
    368f:	85 db                	test   %ebx,%ebx
    3691:	0f 84 39 01 00 00    	je     37d0 <remote_nic_multicast_get_mode+0x150>
    3697:	8b 45 14             	mov    0x14(%ebp),%eax
    369a:	8b 70 08             	mov    0x8(%eax),%esi
    369d:	85 f6                	test   %esi,%esi
    369f:	0f 84 cb 00 00 00    	je     3770 <remote_nic_multicast_get_mode+0xf0>
    36a5:	83 ec 0c             	sub    $0xc,%esp
    36a8:	8d 3c 76             	lea    (%esi,%esi,2),%edi
    36ab:	01 ff                	add    %edi,%edi
    36ad:	57                   	push   %edi
    36ae:	e8 1d 28 00 00       	call   5ed0 <malloc@plt>
    36b3:	83 c4 10             	add    $0x10,%esp
    36b6:	89 c3                	mov    %eax,%ebx
    36b8:	85 c0                	test   %eax,%eax
    36ba:	0f 84 58 01 00 00    	je     3818 <remote_nic_multicast_get_mode+0x198>
    36c0:	50                   	push   %eax
    36c1:	57                   	push   %edi
    36c2:	6a 00                	push   $0x0
    36c4:	53                   	push   %ebx
    36c5:	e8 16 29 00 00       	call   5fe0 <memset@plt>
    36ca:	8d 45 dc             	lea    -0x24(%ebp),%eax
    36cd:	89 04 24             	mov    %eax,(%esp)
    36d0:	8d 45 d8             	lea    -0x28(%ebp),%eax
    36d3:	53                   	push   %ebx
    36d4:	56                   	push   %esi
    36d5:	50                   	push   %eax
    36d6:	8b 45 08             	mov    0x8(%ebp),%eax
    36d9:	50                   	push   %eax
    36da:	8b 45 0c             	mov    0xc(%ebp),%eax
    36dd:	c7 45 d8 01 00 00 00 	movl   $0x1,-0x28(%ebp)
    36e4:	c7 45 dc 00 00 00 00 	movl   $0x0,-0x24(%ebp)
    36eb:	ff 50 4c             	call   *0x4c(%eax)
    36ee:	83 c4 20             	add    $0x20,%esp
    36f1:	89 c6                	mov    %eax,%esi
    36f3:	85 c0                	test   %eax,%eax
    36f5:	0f 85 ae 00 00 00    	jne    37a9 <remote_nic_multicast_get_mode+0x129>
    36fb:	8b 45 dc             	mov    -0x24(%ebp),%eax
    36fe:	85 c0                	test   %eax,%eax
    3700:	0f 84 a3 00 00 00    	je     37a9 <remote_nic_multicast_get_mode+0x129>
    3706:	8d 45 e4             	lea    -0x1c(%ebp),%eax
    3709:	51                   	push   %ecx
    370a:	51                   	push   %ecx
    370b:	50                   	push   %eax
    370c:	8d 45 e0             	lea    -0x20(%ebp),%eax
    370f:	50                   	push   %eax
    3710:	e8 db 28 00 00       	call   5ff0 <async_data_read_receive@plt>
    3715:	83 c4 10             	add    $0x10,%esp
    3718:	84 c0                	test   %al,%al
    371a:	0f 84 c8 00 00 00    	je     37e8 <remote_nic_multicast_get_mode+0x168>
    3720:	8b 45 dc             	mov    -0x24(%ebp),%eax
    3723:	8d 14 40             	lea    (%eax,%eax,2),%edx
    3726:	8b 45 e4             	mov    -0x1c(%ebp),%eax
    3729:	01 d2                	add    %edx,%edx
    372b:	39 c2                	cmp    %eax,%edx
    372d:	73 05                	jae    3734 <remote_nic_multicast_get_mode+0xb4>
    372f:	89 55 e4             	mov    %edx,-0x1c(%ebp)
    3732:	89 d0                	mov    %edx,%eax
    3734:	39 c7                	cmp    %eax,%edi
    3736:	73 05                	jae    373d <remote_nic_multicast_get_mode+0xbd>
    3738:	89 7d e4             	mov    %edi,-0x1c(%ebp)
    373b:	89 f8                	mov    %edi,%eax
    373d:	8b 75 e0             	mov    -0x20(%ebp),%esi
    3740:	51                   	push   %ecx
    3741:	50                   	push   %eax
    3742:	53                   	push   %ebx
    3743:	56                   	push   %esi
    3744:	e8 67 27 00 00       	call   5eb0 <async_data_read_finalize@plt>
    3749:	89 1c 24             	mov    %ebx,(%esp)
    374c:	e8 8f 29 00 00       	call   60e0 <free@plt>
    3751:	8b 7d dc             	mov    -0x24(%ebp),%edi
    3754:	8b 45 d8             	mov    -0x28(%ebp),%eax
    3757:	57                   	push   %edi
    3758:	50                   	push   %eax
    3759:	8b 45 10             	mov    0x10(%ebp),%eax
    375c:	6a 00                	push   $0x0
    375e:	50                   	push   %eax
    375f:	e8 0c 28 00 00       	call   5f70 <async_answer_2@plt>
    3764:	83 c4 20             	add    $0x20,%esp
    3767:	8d 65 f4             	lea    -0xc(%ebp),%esp
    376a:	5b                   	pop    %ebx
    376b:	5e                   	pop    %esi
    376c:	5f                   	pop    %edi
    376d:	5d                   	pop    %ebp
    376e:	c3                   	ret    
    376f:	90                   	nop
    3770:	50                   	push   %eax
    3771:	6a 00                	push   $0x0
    3773:	6a 00                	push   $0x0
    3775:	6a 00                	push   $0x0
    3777:	e8 64 28 00 00       	call   5fe0 <memset@plt>
    377c:	8d 45 dc             	lea    -0x24(%ebp),%eax
    377f:	89 04 24             	mov    %eax,(%esp)
    3782:	8d 45 d8             	lea    -0x28(%ebp),%eax
    3785:	6a 00                	push   $0x0
    3787:	6a 00                	push   $0x0
    3789:	50                   	push   %eax
    378a:	8b 45 0c             	mov    0xc(%ebp),%eax
    378d:	8b 55 08             	mov    0x8(%ebp),%edx
    3790:	c7 45 d8 01 00 00 00 	movl   $0x1,-0x28(%ebp)
    3797:	c7 45 dc 00 00 00 00 	movl   $0x0,-0x24(%ebp)
    379e:	52                   	push   %edx
    379f:	ff 50 4c             	call   *0x4c(%eax)
    37a2:	31 db                	xor    %ebx,%ebx
    37a4:	89 c6                	mov    %eax,%esi
    37a6:	83 c4 20             	add    $0x20,%esp
    37a9:	83 ec 0c             	sub    $0xc,%esp
    37ac:	53                   	push   %ebx
    37ad:	e8 2e 29 00 00       	call   60e0 <free@plt>
    37b2:	8b 5d dc             	mov    -0x24(%ebp),%ebx
    37b5:	8b 7d d8             	mov    -0x28(%ebp),%edi
    37b8:	8b 45 10             	mov    0x10(%ebp),%eax
    37bb:	53                   	push   %ebx
    37bc:	57                   	push   %edi
    37bd:	56                   	push   %esi
    37be:	50                   	push   %eax
    37bf:	e8 ac 27 00 00       	call   5f70 <async_answer_2@plt>
    37c4:	83 c4 20             	add    $0x20,%esp
    37c7:	8d 65 f4             	lea    -0xc(%ebp),%esp
    37ca:	5b                   	pop    %ebx
    37cb:	5e                   	pop    %esi
    37cc:	5f                   	pop    %edi
    37cd:	5d                   	pop    %ebp
    37ce:	c3                   	ret    
    37cf:	90                   	nop
    37d0:	8b 4d 10             	mov    0x10(%ebp),%ecx
    37d3:	52                   	push   %edx
    37d4:	52                   	push   %edx
    37d5:	6a f5                	push   $0xfffffff5
    37d7:	51                   	push   %ecx
    37d8:	e8 13 27 00 00       	call   5ef0 <async_answer_0@plt>
    37dd:	83 c4 10             	add    $0x10,%esp
    37e0:	eb e5                	jmp    37c7 <remote_nic_multicast_get_mode+0x147>
    37e2:	8d b6 00 00 00 00    	lea    0x0(%esi),%esi
    37e8:	50                   	push   %eax
    37e9:	50                   	push   %eax
    37ea:	8b 45 e0             	mov    -0x20(%ebp),%eax
    37ed:	6a f2                	push   $0xfffffff2
    37ef:	50                   	push   %eax
    37f0:	e8 fb 26 00 00       	call   5ef0 <async_answer_0@plt>
    37f5:	8b 45 dc             	mov    -0x24(%ebp),%eax
    37f8:	8b 55 10             	mov    0x10(%ebp),%edx
    37fb:	50                   	push   %eax
    37fc:	8b 45 d8             	mov    -0x28(%ebp),%eax
    37ff:	50                   	push   %eax
    3800:	6a 00                	push   $0x0
    3802:	52                   	push   %edx
    3803:	e8 68 27 00 00       	call   5f70 <async_answer_2@plt>
    3808:	83 c4 14             	add    $0x14,%esp
    380b:	53                   	push   %ebx
    380c:	e8 cf 28 00 00       	call   60e0 <free@plt>
    3811:	83 c4 10             	add    $0x10,%esp
    3814:	eb b1                	jmp    37c7 <remote_nic_multicast_get_mode+0x147>
    3816:	66 90                	xchg   %ax,%ax
    3818:	50                   	push   %eax
    3819:	50                   	push   %eax
    381a:	8b 45 10             	mov    0x10(%ebp),%eax
    381d:	6a fe                	push   $0xfffffffe
    381f:	50                   	push   %eax
    3820:	e8 cb 26 00 00       	call   5ef0 <async_answer_0@plt>
    3825:	83 c4 10             	add    $0x10,%esp
    3828:	eb 9d                	jmp    37c7 <remote_nic_multicast_get_mode+0x147>
    382a:	8d b6 00 00 00 00    	lea    0x0(%esi),%esi

00003830 <remote_nic_unicast_set_mode>:
    3830:	55                   	push   %ebp
    3831:	89 e5                	mov    %esp,%ebp
    3833:	57                   	push   %edi
    3834:	56                   	push   %esi
    3835:	53                   	push   %ebx
    3836:	83 ec 2c             	sub    $0x2c,%esp
    3839:	31 f6                	xor    %esi,%esi
    383b:	8b 45 14             	mov    0x14(%ebp),%eax
    383e:	8b 58 0c             	mov    0xc(%eax),%ebx
    3841:	8b 78 08             	mov    0x8(%eax),%edi
    3844:	85 db                	test   %ebx,%ebx
    3846:	75 40                	jne    3888 <remote_nic_unicast_set_mode+0x58>
    3848:	8b 45 0c             	mov    0xc(%ebp),%eax
    384b:	8b 40 48             	mov    0x48(%eax),%eax
    384e:	85 c0                	test   %eax,%eax
    3850:	0f 84 da 00 00 00    	je     3930 <remote_nic_unicast_set_mode+0x100>
    3856:	8b 4d 08             	mov    0x8(%ebp),%ecx
    3859:	53                   	push   %ebx
    385a:	56                   	push   %esi
    385b:	57                   	push   %edi
    385c:	51                   	push   %ecx
    385d:	ff d0                	call   *%eax
    385f:	5b                   	pop    %ebx
    3860:	5f                   	pop    %edi
    3861:	50                   	push   %eax
    3862:	8b 45 10             	mov    0x10(%ebp),%eax
    3865:	50                   	push   %eax
    3866:	e8 85 26 00 00       	call   5ef0 <async_answer_0@plt>
    386b:	83 c4 10             	add    $0x10,%esp
    386e:	83 ec 0c             	sub    $0xc,%esp
    3871:	56                   	push   %esi
    3872:	e8 69 28 00 00       	call   60e0 <free@plt>
    3877:	83 c4 10             	add    $0x10,%esp
    387a:	8d 65 f4             	lea    -0xc(%ebp),%esp
    387d:	5b                   	pop    %ebx
    387e:	5e                   	pop    %esi
    387f:	5f                   	pop    %edi
    3880:	5d                   	pop    %ebp
    3881:	c3                   	ret    
    3882:	8d b6 00 00 00 00    	lea    0x0(%esi),%esi
    3888:	50                   	push   %eax
    3889:	50                   	push   %eax
    388a:	8d 45 e0             	lea    -0x20(%ebp),%eax
    388d:	50                   	push   %eax
    388e:	8d 45 e4             	lea    -0x1c(%ebp),%eax
    3891:	50                   	push   %eax
    3892:	e8 39 28 00 00       	call   60d0 <async_data_write_receive@plt>
    3897:	83 c4 10             	add    $0x10,%esp
    389a:	84 c0                	test   %al,%al
    389c:	0f 84 a6 00 00 00    	je     3948 <remote_nic_unicast_set_mode+0x118>
    38a2:	8d 04 5b             	lea    (%ebx,%ebx,2),%eax
    38a5:	01 c0                	add    %eax,%eax
    38a7:	3b 45 e0             	cmp    -0x20(%ebp),%eax
    38aa:	74 2c                	je     38d8 <remote_nic_unicast_set_mode+0xa8>
    38ac:	50                   	push   %eax
    38ad:	50                   	push   %eax
    38ae:	8b 45 e4             	mov    -0x1c(%ebp),%eax
    38b1:	6a fd                	push   $0xfffffffd
    38b3:	50                   	push   %eax
    38b4:	e8 37 26 00 00       	call   5ef0 <async_answer_0@plt>
    38b9:	8b 4d 10             	mov    0x10(%ebp),%ecx
    38bc:	58                   	pop    %eax
    38bd:	5a                   	pop    %edx
    38be:	6a fd                	push   $0xfffffffd
    38c0:	51                   	push   %ecx
    38c1:	e8 2a 26 00 00       	call   5ef0 <async_answer_0@plt>
    38c6:	83 c4 10             	add    $0x10,%esp
    38c9:	8d 65 f4             	lea    -0xc(%ebp),%esp
    38cc:	5b                   	pop    %ebx
    38cd:	5e                   	pop    %esi
    38ce:	5f                   	pop    %edi
    38cf:	5d                   	pop    %ebp
    38d0:	c3                   	ret    
    38d1:	8d b4 26 00 00 00 00 	lea    0x0(%esi,%eiz,1),%esi
    38d8:	83 ec 0c             	sub    $0xc,%esp
    38db:	50                   	push   %eax
    38dc:	e8 ef 25 00 00       	call   5ed0 <malloc@plt>
    38e1:	83 c4 10             	add    $0x10,%esp
    38e4:	89 c2                	mov    %eax,%edx
    38e6:	89 c6                	mov    %eax,%esi
    38e8:	85 c0                	test   %eax,%eax
    38ea:	74 7e                	je     396a <remote_nic_unicast_set_mode+0x13a>
    38ec:	50                   	push   %eax
    38ed:	8b 45 e0             	mov    -0x20(%ebp),%eax
    38f0:	50                   	push   %eax
    38f1:	8b 45 e4             	mov    -0x1c(%ebp),%eax
    38f4:	52                   	push   %edx
    38f5:	89 55 d4             	mov    %edx,-0x2c(%ebp)
    38f8:	50                   	push   %eax
    38f9:	e8 82 27 00 00       	call   6080 <async_data_write_finalize@plt>
    38fe:	83 c4 10             	add    $0x10,%esp
    3901:	85 c0                	test   %eax,%eax
    3903:	0f 84 3f ff ff ff    	je     3848 <remote_nic_unicast_set_mode+0x18>
    3909:	50                   	push   %eax
    390a:	50                   	push   %eax
    390b:	8b 45 10             	mov    0x10(%ebp),%eax
    390e:	6a f2                	push   $0xfffffff2
    3910:	50                   	push   %eax
    3911:	e8 da 25 00 00       	call   5ef0 <async_answer_0@plt>
    3916:	8b 55 d4             	mov    -0x2c(%ebp),%edx
    3919:	89 14 24             	mov    %edx,(%esp)
    391c:	e8 bf 27 00 00       	call   60e0 <free@plt>
    3921:	83 c4 10             	add    $0x10,%esp
    3924:	e9 51 ff ff ff       	jmp    387a <remote_nic_unicast_set_mode+0x4a>
    3929:	8d b4 26 00 00 00 00 	lea    0x0(%esi,%eiz,1),%esi
    3930:	8b 55 10             	mov    0x10(%ebp),%edx
    3933:	50                   	push   %eax
    3934:	50                   	push   %eax
    3935:	6a f5                	push   $0xfffffff5
    3937:	52                   	push   %edx
    3938:	e8 b3 25 00 00       	call   5ef0 <async_answer_0@plt>
    393d:	83 c4 10             	add    $0x10,%esp
    3940:	e9 29 ff ff ff       	jmp    386e <remote_nic_unicast_set_mode+0x3e>
    3945:	8d 76 00             	lea    0x0(%esi),%esi
    3948:	8b 75 e4             	mov    -0x1c(%ebp),%esi
    394b:	53                   	push   %ebx
    394c:	53                   	push   %ebx
    394d:	6a f2                	push   $0xfffffff2
    394f:	56                   	push   %esi
    3950:	e8 9b 25 00 00       	call   5ef0 <async_answer_0@plt>
    3955:	5f                   	pop    %edi
    3956:	58                   	pop    %eax
    3957:	8b 45 10             	mov    0x10(%ebp),%eax
    395a:	6a f2                	push   $0xfffffff2
    395c:	50                   	push   %eax
    395d:	e8 8e 25 00 00       	call   5ef0 <async_answer_0@plt>
    3962:	83 c4 10             	add    $0x10,%esp
    3965:	e9 10 ff ff ff       	jmp    387a <remote_nic_unicast_set_mode+0x4a>
    396a:	8b 4d e4             	mov    -0x1c(%ebp),%ecx
    396d:	52                   	push   %edx
    396e:	52                   	push   %edx
    396f:	6a fe                	push   $0xfffffffe
    3971:	51                   	push   %ecx
    3972:	e8 79 25 00 00       	call   5ef0 <async_answer_0@plt>
    3977:	8b 7d 10             	mov    0x10(%ebp),%edi
    397a:	5b                   	pop    %ebx
    397b:	5e                   	pop    %esi
    397c:	6a fe                	push   $0xfffffffe
    397e:	57                   	push   %edi
    397f:	e8 6c 25 00 00       	call   5ef0 <async_answer_0@plt>
    3984:	83 c4 10             	add    $0x10,%esp
    3987:	e9 ee fe ff ff       	jmp    387a <remote_nic_unicast_set_mode+0x4a>
    398c:	8d 74 26 00          	lea    0x0(%esi,%eiz,1),%esi

00003990 <remote_nic_unicast_get_mode>:
    3990:	55                   	push   %ebp
    3991:	89 e5                	mov    %esp,%ebp
    3993:	57                   	push   %edi
    3994:	56                   	push   %esi
    3995:	53                   	push   %ebx
    3996:	83 ec 1c             	sub    $0x1c,%esp
    3999:	8b 45 0c             	mov    0xc(%ebp),%eax
    399c:	8b 40 44             	mov    0x44(%eax),%eax
    399f:	85 c0                	test   %eax,%eax
    39a1:	0f 84 49 01 00 00    	je     3af0 <remote_nic_unicast_get_mode+0x160>
    39a7:	8b 45 14             	mov    0x14(%ebp),%eax
    39aa:	8b 70 08             	mov    0x8(%eax),%esi
    39ad:	85 f6                	test   %esi,%esi
    39af:	0f 84 db 00 00 00    	je     3a90 <remote_nic_unicast_get_mode+0x100>
    39b5:	83 ec 0c             	sub    $0xc,%esp
    39b8:	8d 3c 76             	lea    (%esi,%esi,2),%edi
    39bb:	01 ff                	add    %edi,%edi
    39bd:	57                   	push   %edi
    39be:	e8 0d 25 00 00       	call   5ed0 <malloc@plt>
    39c3:	83 c4 10             	add    $0x10,%esp
    39c6:	89 c3                	mov    %eax,%ebx
    39c8:	85 c0                	test   %eax,%eax
    39ca:	0f 84 68 01 00 00    	je     3b38 <remote_nic_unicast_get_mode+0x1a8>
    39d0:	50                   	push   %eax
    39d1:	57                   	push   %edi
    39d2:	6a 00                	push   $0x0
    39d4:	53                   	push   %ebx
    39d5:	e8 06 26 00 00       	call   5fe0 <memset@plt>
    39da:	8d 45 dc             	lea    -0x24(%ebp),%eax
    39dd:	89 04 24             	mov    %eax,(%esp)
    39e0:	8d 45 d8             	lea    -0x28(%ebp),%eax
    39e3:	53                   	push   %ebx
    39e4:	56                   	push   %esi
    39e5:	50                   	push   %eax
    39e6:	8b 45 0c             	mov    0xc(%ebp),%eax
    39e9:	8b 55 08             	mov    0x8(%ebp),%edx
    39ec:	c7 45 d8 02 00 00 00 	movl   $0x2,-0x28(%ebp)
    39f3:	c7 45 dc 00 00 00 00 	movl   $0x0,-0x24(%ebp)
    39fa:	52                   	push   %edx
    39fb:	ff 50 44             	call   *0x44(%eax)
    39fe:	83 c4 20             	add    $0x20,%esp
    3a01:	89 c6                	mov    %eax,%esi
    3a03:	85 c0                	test   %eax,%eax
    3a05:	0f 85 be 00 00 00    	jne    3ac9 <remote_nic_unicast_get_mode+0x139>
    3a0b:	8b 45 dc             	mov    -0x24(%ebp),%eax
    3a0e:	85 c0                	test   %eax,%eax
    3a10:	0f 84 b3 00 00 00    	je     3ac9 <remote_nic_unicast_get_mode+0x139>
    3a16:	50                   	push   %eax
    3a17:	50                   	push   %eax
    3a18:	8d 45 e4             	lea    -0x1c(%ebp),%eax
    3a1b:	50                   	push   %eax
    3a1c:	8d 45 e0             	lea    -0x20(%ebp),%eax
    3a1f:	50                   	push   %eax
    3a20:	e8 cb 25 00 00       	call   5ff0 <async_data_read_receive@plt>
    3a25:	83 c4 10             	add    $0x10,%esp
    3a28:	84 c0                	test   %al,%al
    3a2a:	0f 84 d8 00 00 00    	je     3b08 <remote_nic_unicast_get_mode+0x178>
    3a30:	8b 45 dc             	mov    -0x24(%ebp),%eax
    3a33:	8d 14 40             	lea    (%eax,%eax,2),%edx
    3a36:	8b 45 e4             	mov    -0x1c(%ebp),%eax
    3a39:	01 d2                	add    %edx,%edx
    3a3b:	39 c2                	cmp    %eax,%edx
    3a3d:	73 05                	jae    3a44 <remote_nic_unicast_get_mode+0xb4>
    3a3f:	89 55 e4             	mov    %edx,-0x1c(%ebp)
    3a42:	89 d0                	mov    %edx,%eax
    3a44:	39 c7                	cmp    %eax,%edi
    3a46:	73 05                	jae    3a4d <remote_nic_unicast_get_mode+0xbd>
    3a48:	89 7d e4             	mov    %edi,-0x1c(%ebp)
    3a4b:	89 f8                	mov    %edi,%eax
    3a4d:	8b 75 e0             	mov    -0x20(%ebp),%esi
    3a50:	51                   	push   %ecx
    3a51:	50                   	push   %eax
    3a52:	53                   	push   %ebx
    3a53:	56                   	push   %esi
    3a54:	e8 57 24 00 00       	call   5eb0 <async_data_read_finalize@plt>
    3a59:	5f                   	pop    %edi
    3a5a:	58                   	pop    %eax
    3a5b:	8b 45 e0             	mov    -0x20(%ebp),%eax
    3a5e:	6a f2                	push   $0xfffffff2
    3a60:	50                   	push   %eax
    3a61:	e8 8a 24 00 00       	call   5ef0 <async_answer_0@plt>
    3a66:	89 1c 24             	mov    %ebx,(%esp)
    3a69:	e8 72 26 00 00       	call   60e0 <free@plt>
    3a6e:	8b 45 dc             	mov    -0x24(%ebp),%eax
    3a71:	50                   	push   %eax
    3a72:	8b 45 d8             	mov    -0x28(%ebp),%eax
    3a75:	50                   	push   %eax
    3a76:	8b 45 10             	mov    0x10(%ebp),%eax
    3a79:	6a 00                	push   $0x0
    3a7b:	50                   	push   %eax
    3a7c:	e8 ef 24 00 00       	call   5f70 <async_answer_2@plt>
    3a81:	83 c4 20             	add    $0x20,%esp
    3a84:	8d 65 f4             	lea    -0xc(%ebp),%esp
    3a87:	5b                   	pop    %ebx
    3a88:	5e                   	pop    %esi
    3a89:	5f                   	pop    %edi
    3a8a:	5d                   	pop    %ebp
    3a8b:	c3                   	ret    
    3a8c:	8d 74 26 00          	lea    0x0(%esi,%eiz,1),%esi
    3a90:	50                   	push   %eax
    3a91:	6a 00                	push   $0x0
    3a93:	6a 00                	push   $0x0
    3a95:	6a 00                	push   $0x0
    3a97:	e8 44 25 00 00       	call   5fe0 <memset@plt>
    3a9c:	8d 45 dc             	lea    -0x24(%ebp),%eax
    3a9f:	89 04 24             	mov    %eax,(%esp)
    3aa2:	8d 45 d8             	lea    -0x28(%ebp),%eax
    3aa5:	6a 00                	push   $0x0
    3aa7:	6a 00                	push   $0x0
    3aa9:	50                   	push   %eax
    3aaa:	8b 45 0c             	mov    0xc(%ebp),%eax
    3aad:	8b 55 08             	mov    0x8(%ebp),%edx
    3ab0:	c7 45 d8 02 00 00 00 	movl   $0x2,-0x28(%ebp)
    3ab7:	c7 45 dc 00 00 00 00 	movl   $0x0,-0x24(%ebp)
    3abe:	52                   	push   %edx
    3abf:	ff 50 44             	call   *0x44(%eax)
    3ac2:	31 db                	xor    %ebx,%ebx
    3ac4:	89 c6                	mov    %eax,%esi
    3ac6:	83 c4 20             	add    $0x20,%esp
    3ac9:	83 ec 0c             	sub    $0xc,%esp
    3acc:	53                   	push   %ebx
    3acd:	e8 0e 26 00 00       	call   60e0 <free@plt>
    3ad2:	8b 45 dc             	mov    -0x24(%ebp),%eax
    3ad5:	50                   	push   %eax
    3ad6:	8b 45 d8             	mov    -0x28(%ebp),%eax
    3ad9:	50                   	push   %eax
    3ada:	8b 45 10             	mov    0x10(%ebp),%eax
    3add:	56                   	push   %esi
    3ade:	50                   	push   %eax
    3adf:	e8 8c 24 00 00       	call   5f70 <async_answer_2@plt>
    3ae4:	83 c4 20             	add    $0x20,%esp
    3ae7:	8d 65 f4             	lea    -0xc(%ebp),%esp
    3aea:	5b                   	pop    %ebx
    3aeb:	5e                   	pop    %esi
    3aec:	5f                   	pop    %edi
    3aed:	5d                   	pop    %ebp
    3aee:	c3                   	ret    
    3aef:	90                   	nop
    3af0:	8b 7d 10             	mov    0x10(%ebp),%edi
    3af3:	56                   	push   %esi
    3af4:	56                   	push   %esi
    3af5:	6a f5                	push   $0xfffffff5
    3af7:	57                   	push   %edi
    3af8:	e8 f3 23 00 00       	call   5ef0 <async_answer_0@plt>
    3afd:	83 c4 10             	add    $0x10,%esp
    3b00:	eb e5                	jmp    3ae7 <remote_nic_unicast_get_mode+0x157>
    3b02:	8d b6 00 00 00 00    	lea    0x0(%esi),%esi
    3b08:	8b 55 e0             	mov    -0x20(%ebp),%edx
    3b0b:	50                   	push   %eax
    3b0c:	50                   	push   %eax
    3b0d:	6a f2                	push   $0xfffffff2
    3b0f:	52                   	push   %edx
    3b10:	e8 db 23 00 00       	call   5ef0 <async_answer_0@plt>
    3b15:	8b 4d dc             	mov    -0x24(%ebp),%ecx
    3b18:	8b 75 d8             	mov    -0x28(%ebp),%esi
    3b1b:	8b 7d 10             	mov    0x10(%ebp),%edi
    3b1e:	51                   	push   %ecx
    3b1f:	56                   	push   %esi
    3b20:	6a 00                	push   $0x0
    3b22:	57                   	push   %edi
    3b23:	e8 48 24 00 00       	call   5f70 <async_answer_2@plt>
    3b28:	83 c4 14             	add    $0x14,%esp
    3b2b:	53                   	push   %ebx
    3b2c:	e8 af 25 00 00       	call   60e0 <free@plt>
    3b31:	83 c4 10             	add    $0x10,%esp
    3b34:	eb b1                	jmp    3ae7 <remote_nic_unicast_get_mode+0x157>
    3b36:	66 90                	xchg   %ax,%ax
    3b38:	8b 5d 10             	mov    0x10(%ebp),%ebx
    3b3b:	51                   	push   %ecx
    3b3c:	51                   	push   %ecx
    3b3d:	6a fe                	push   $0xfffffffe
    3b3f:	53                   	push   %ebx
    3b40:	e8 ab 23 00 00       	call   5ef0 <async_answer_0@plt>
    3b45:	83 c4 10             	add    $0x10,%esp
    3b48:	eb 9d                	jmp    3ae7 <remote_nic_unicast_get_mode+0x157>
    3b4a:	8d b6 00 00 00 00    	lea    0x0(%esi),%esi

00003b50 <remote_nic_get_pause>:
    3b50:	55                   	push   %ebp
    3b51:	89 e5                	mov    %esp,%ebp
    3b53:	83 ec 18             	sub    $0x18,%esp
    3b56:	8b 45 0c             	mov    0xc(%ebp),%eax
    3b59:	8b 40 3c             	mov    0x3c(%eax),%eax
    3b5c:	85 c0                	test   %eax,%eax
    3b5e:	74 38                	je     3b98 <remote_nic_get_pause+0x48>
    3b60:	8d 55 ee             	lea    -0x12(%ebp),%edx
    3b63:	52                   	push   %edx
    3b64:	8d 55 f4             	lea    -0xc(%ebp),%edx
    3b67:	52                   	push   %edx
    3b68:	8d 55 f0             	lea    -0x10(%ebp),%edx
    3b6b:	52                   	push   %edx
    3b6c:	8b 55 08             	mov    0x8(%ebp),%edx
    3b6f:	52                   	push   %edx
    3b70:	ff d0                	call   *%eax
    3b72:	31 d2                	xor    %edx,%edx
    3b74:	8b 4d f4             	mov    -0xc(%ebp),%ecx
    3b77:	66 8b 55 ee          	mov    -0x12(%ebp),%dx
    3b7b:	89 14 24             	mov    %edx,(%esp)
    3b7e:	51                   	push   %ecx
    3b7f:	8b 55 f0             	mov    -0x10(%ebp),%edx
    3b82:	8b 4d 10             	mov    0x10(%ebp),%ecx
    3b85:	52                   	push   %edx
    3b86:	50                   	push   %eax
    3b87:	51                   	push   %ecx
    3b88:	e8 e3 24 00 00       	call   6070 <async_answer_3@plt>
    3b8d:	83 c4 20             	add    $0x20,%esp
    3b90:	c9                   	leave  
    3b91:	c3                   	ret    
    3b92:	8d b6 00 00 00 00    	lea    0x0(%esi),%esi
    3b98:	50                   	push   %eax
    3b99:	50                   	push   %eax
    3b9a:	8b 45 10             	mov    0x10(%ebp),%eax
    3b9d:	6a f5                	push   $0xfffffff5
    3b9f:	50                   	push   %eax
    3ba0:	e8 4b 23 00 00       	call   5ef0 <async_answer_0@plt>
    3ba5:	83 c4 10             	add    $0x10,%esp
    3ba8:	c9                   	leave  
    3ba9:	c3                   	ret    
    3baa:	8d b6 00 00 00 00    	lea    0x0(%esi),%esi

00003bb0 <remote_nic_get_operation_mode>:
    3bb0:	55                   	push   %ebp
    3bb1:	89 e5                	mov    %esp,%ebp
    3bb3:	83 ec 18             	sub    $0x18,%esp
    3bb6:	8b 45 0c             	mov    0xc(%ebp),%eax
    3bb9:	8b 40 24             	mov    0x24(%eax),%eax
    3bbc:	85 c0                	test   %eax,%eax
    3bbe:	74 48                	je     3c08 <remote_nic_get_operation_mode+0x58>
    3bc0:	8d 55 f4             	lea    -0xc(%ebp),%edx
    3bc3:	c7 45 ec 00 00 00 00 	movl   $0x0,-0x14(%ebp)
    3bca:	52                   	push   %edx
    3bcb:	8d 55 f0             	lea    -0x10(%ebp),%edx
    3bce:	52                   	push   %edx
    3bcf:	8d 55 ec             	lea    -0x14(%ebp),%edx
    3bd2:	52                   	push   %edx
    3bd3:	c7 45 f0 00 00 00 00 	movl   $0x0,-0x10(%ebp)
    3bda:	8b 55 08             	mov    0x8(%ebp),%edx
    3bdd:	c7 45 f4 00 00 00 00 	movl   $0x0,-0xc(%ebp)
    3be4:	52                   	push   %edx
    3be5:	ff d0                	call   *%eax
    3be7:	59                   	pop    %ecx
    3be8:	8b 55 f4             	mov    -0xc(%ebp),%edx
    3beb:	8b 4d f0             	mov    -0x10(%ebp),%ecx
    3bee:	52                   	push   %edx
    3bef:	8b 55 ec             	mov    -0x14(%ebp),%edx
    3bf2:	51                   	push   %ecx
    3bf3:	8b 4d 10             	mov    0x10(%ebp),%ecx
    3bf6:	52                   	push   %edx
    3bf7:	50                   	push   %eax
    3bf8:	51                   	push   %ecx
    3bf9:	e8 72 24 00 00       	call   6070 <async_answer_3@plt>
    3bfe:	83 c4 20             	add    $0x20,%esp
    3c01:	c9                   	leave  
    3c02:	c3                   	ret    
    3c03:	90                   	nop
    3c04:	8d 74 26 00          	lea    0x0(%esi,%eiz,1),%esi
    3c08:	50                   	push   %eax
    3c09:	50                   	push   %eax
    3c0a:	8b 45 10             	mov    0x10(%ebp),%eax
    3c0d:	6a f5                	push   $0xfffffff5
    3c0f:	50                   	push   %eax
    3c10:	e8 db 22 00 00       	call   5ef0 <async_answer_0@plt>
    3c15:	83 c4 10             	add    $0x10,%esp
    3c18:	c9                   	leave  
    3c19:	c3                   	ret    
    3c1a:	8d b6 00 00 00 00    	lea    0x0(%esi),%esi

00003c20 <remote_nic_autoneg_probe>:
    3c20:	55                   	push   %ebp
    3c21:	89 e5                	mov    %esp,%ebp
    3c23:	83 ec 18             	sub    $0x18,%esp
    3c26:	8b 45 0c             	mov    0xc(%ebp),%eax
    3c29:	8b 40 34             	mov    0x34(%eax),%eax
    3c2c:	85 c0                	test   %eax,%eax
    3c2e:	74 58                	je     3c88 <remote_nic_autoneg_probe+0x68>
    3c30:	83 ec 0c             	sub    $0xc,%esp
    3c33:	8d 55 f4             	lea    -0xc(%ebp),%edx
    3c36:	c7 45 e8 00 00 00 00 	movl   $0x0,-0x18(%ebp)
    3c3d:	c7 45 ec 00 00 00 00 	movl   $0x0,-0x14(%ebp)
    3c44:	52                   	push   %edx
    3c45:	8d 55 f0             	lea    -0x10(%ebp),%edx
    3c48:	52                   	push   %edx
    3c49:	8d 55 ec             	lea    -0x14(%ebp),%edx
    3c4c:	52                   	push   %edx
    3c4d:	8d 55 e8             	lea    -0x18(%ebp),%edx
    3c50:	52                   	push   %edx
    3c51:	c7 45 f0 03 00 00 00 	movl   $0x3,-0x10(%ebp)
    3c58:	8b 55 08             	mov    0x8(%ebp),%edx
    3c5b:	c7 45 f4 03 00 00 00 	movl   $0x3,-0xc(%ebp)
    3c62:	52                   	push   %edx
    3c63:	ff d0                	call   *%eax
    3c65:	83 c4 18             	add    $0x18,%esp
    3c68:	8b 4d f4             	mov    -0xc(%ebp),%ecx
    3c6b:	8b 55 f0             	mov    -0x10(%ebp),%edx
    3c6e:	51                   	push   %ecx
    3c6f:	8b 4d ec             	mov    -0x14(%ebp),%ecx
    3c72:	52                   	push   %edx
    3c73:	8b 55 e8             	mov    -0x18(%ebp),%edx
    3c76:	51                   	push   %ecx
    3c77:	8b 4d 10             	mov    0x10(%ebp),%ecx
    3c7a:	52                   	push   %edx
    3c7b:	50                   	push   %eax
    3c7c:	51                   	push   %ecx
    3c7d:	e8 fe 22 00 00       	call   5f80 <async_answer_4@plt>
    3c82:	83 c4 20             	add    $0x20,%esp
    3c85:	c9                   	leave  
    3c86:	c3                   	ret    
    3c87:	90                   	nop
    3c88:	50                   	push   %eax
    3c89:	50                   	push   %eax
    3c8a:	8b 45 10             	mov    0x10(%ebp),%eax
    3c8d:	6a f5                	push   $0xfffffff5
    3c8f:	50                   	push   %eax
    3c90:	e8 5b 22 00 00       	call   5ef0 <async_answer_0@plt>
    3c95:	83 c4 10             	add    $0x10,%esp
    3c98:	c9                   	leave  
    3c99:	c3                   	ret    
    3c9a:	8d b6 00 00 00 00    	lea    0x0(%esi),%esi

00003ca0 <remote_nic_set_state>:
    3ca0:	55                   	push   %ebp
    3ca1:	89 e5                	mov    %esp,%ebp
    3ca3:	53                   	push   %ebx
    3ca4:	50                   	push   %eax
    3ca5:	8b 45 0c             	mov    0xc(%ebp),%eax
    3ca8:	8b 55 08             	mov    0x8(%ebp),%edx
    3cab:	8b 5d 10             	mov    0x10(%ebp),%ebx
    3cae:	8b 4d 14             	mov    0x14(%ebp),%ecx
    3cb1:	8b 40 0c             	mov    0xc(%eax),%eax
    3cb4:	85 c0                	test   %eax,%eax
    3cb6:	74 1c                	je     3cd4 <remote_nic_set_state+0x34>
    3cb8:	83 ec 08             	sub    $0x8,%esp
    3cbb:	8b 49 08             	mov    0x8(%ecx),%ecx
    3cbe:	51                   	push   %ecx
    3cbf:	52                   	push   %edx
    3cc0:	ff d0                	call   *%eax
    3cc2:	89 5d 08             	mov    %ebx,0x8(%ebp)
    3cc5:	83 c4 10             	add    $0x10,%esp
    3cc8:	8b 5d fc             	mov    -0x4(%ebp),%ebx
    3ccb:	89 45 0c             	mov    %eax,0xc(%ebp)
    3cce:	c9                   	leave  
    3ccf:	e9 1c 22 00 00       	jmp    5ef0 <async_answer_0@plt>
    3cd4:	53                   	push   %ebx
    3cd5:	68 69 05 00 00       	push   $0x569
    3cda:	68 e8 5a 00 00       	push   $0x5ae8
    3cdf:	68 14 5b 00 00       	push   $0x5b14
    3ce4:	e8 47 22 00 00       	call   5f30 <assert_abort@plt>
    3ce9:	8d b4 26 00 00 00 00 	lea    0x0(%esi,%eiz,1),%esi

00003cf0 <remote_nic_callback_create>:
    3cf0:	55                   	push   %ebp
    3cf1:	89 e5                	mov    %esp,%ebp
    3cf3:	53                   	push   %ebx
    3cf4:	52                   	push   %edx
    3cf5:	8b 45 0c             	mov    0xc(%ebp),%eax
    3cf8:	8b 55 08             	mov    0x8(%ebp),%edx
    3cfb:	8b 5d 10             	mov    0x10(%ebp),%ebx
    3cfe:	8b 40 04             	mov    0x4(%eax),%eax
    3d01:	85 c0                	test   %eax,%eax
    3d03:	74 18                	je     3d1d <remote_nic_callback_create+0x2d>
    3d05:	83 ec 0c             	sub    $0xc,%esp
    3d08:	52                   	push   %edx
    3d09:	ff d0                	call   *%eax
    3d0b:	89 5d 08             	mov    %ebx,0x8(%ebp)
    3d0e:	83 c4 10             	add    $0x10,%esp
    3d11:	8b 5d fc             	mov    -0x4(%ebp),%ebx
    3d14:	89 45 0c             	mov    %eax,0xc(%ebp)
    3d17:	c9                   	leave  
    3d18:	e9 d3 21 00 00       	jmp    5ef0 <async_answer_0@plt>
    3d1d:	50                   	push   %eax
    3d1e:	68 53 05 00 00       	push   $0x553
    3d23:	68 e8 5a 00 00       	push   $0x5ae8
    3d28:	68 29 5b 00 00       	push   $0x5b29
    3d2d:	e8 fe 21 00 00       	call   5f30 <assert_abort@plt>
    3d32:	8d b4 26 00 00 00 00 	lea    0x0(%esi,%eiz,1),%esi
    3d39:	8d bc 27 00 00 00 00 	lea    0x0(%edi,%eiz,1),%edi

00003d40 <remote_nic_get_state>:
    3d40:	55                   	push   %ebp
    3d41:	89 e5                	mov    %esp,%ebp
    3d43:	83 ec 18             	sub    $0x18,%esp
    3d46:	8b 45 0c             	mov    0xc(%ebp),%eax
    3d49:	8b 40 08             	mov    0x8(%eax),%eax
    3d4c:	85 c0                	test   %eax,%eax
    3d4e:	74 29                	je     3d79 <remote_nic_get_state+0x39>
    3d50:	8b 4d 08             	mov    0x8(%ebp),%ecx
    3d53:	c7 45 f4 03 00 00 00 	movl   $0x3,-0xc(%ebp)
    3d5a:	52                   	push   %edx
    3d5b:	52                   	push   %edx
    3d5c:	8d 55 f4             	lea    -0xc(%ebp),%edx
    3d5f:	52                   	push   %edx
    3d60:	51                   	push   %ecx
    3d61:	ff d0                	call   *%eax
    3d63:	83 c4 0c             	add    $0xc,%esp
    3d66:	8b 55 f4             	mov    -0xc(%ebp),%edx
    3d69:	8b 4d 10             	mov    0x10(%ebp),%ecx
    3d6c:	52                   	push   %edx
    3d6d:	50                   	push   %eax
    3d6e:	51                   	push   %ecx
    3d6f:	e8 dc 22 00 00       	call   6050 <async_answer_1@plt>
    3d74:	83 c4 10             	add    $0x10,%esp
    3d77:	c9                   	leave  
    3d78:	c3                   	ret    
    3d79:	50                   	push   %eax
    3d7a:	68 5d 05 00 00       	push   $0x55d
    3d7f:	68 e8 5a 00 00       	push   $0x5ae8
    3d84:	68 44 5b 00 00       	push   $0x5b44
    3d89:	e8 a2 21 00 00       	call   5f30 <assert_abort@plt>
    3d8e:	66 90                	xchg   %ax,%ax

00003d90 <remote_nic_send_frame>:
    3d90:	55                   	push   %ebp
    3d91:	89 e5                	mov    %esp,%ebp
    3d93:	53                   	push   %ebx
    3d94:	83 ec 14             	sub    $0x14,%esp
    3d97:	8b 5d 0c             	mov    0xc(%ebp),%ebx
    3d9a:	8b 13                	mov    (%ebx),%edx
    3d9c:	85 d2                	test   %edx,%edx
    3d9e:	74 65                	je     3e05 <remote_nic_send_frame+0x75>
    3da0:	50                   	push   %eax
    3da1:	50                   	push   %eax
    3da2:	8d 45 f4             	lea    -0xc(%ebp),%eax
    3da5:	50                   	push   %eax
    3da6:	8d 45 f0             	lea    -0x10(%ebp),%eax
    3da9:	6a 00                	push   $0x0
    3dab:	6a 00                	push   $0x0
    3dad:	6a 00                	push   $0x0
    3daf:	6a 00                	push   $0x0
    3db1:	50                   	push   %eax
    3db2:	e8 d9 22 00 00       	call   6090 <async_data_write_accept@plt>
    3db7:	83 c4 20             	add    $0x20,%esp
    3dba:	85 c0                	test   %eax,%eax
    3dbc:	75 32                	jne    3df0 <remote_nic_send_frame+0x60>
    3dbe:	8b 55 f4             	mov    -0xc(%ebp),%edx
    3dc1:	8b 4d f0             	mov    -0x10(%ebp),%ecx
    3dc4:	50                   	push   %eax
    3dc5:	8b 45 08             	mov    0x8(%ebp),%eax
    3dc8:	52                   	push   %edx
    3dc9:	51                   	push   %ecx
    3dca:	50                   	push   %eax
    3dcb:	ff 13                	call   *(%ebx)
    3dcd:	8b 5d 10             	mov    0x10(%ebp),%ebx
    3dd0:	5a                   	pop    %edx
    3dd1:	59                   	pop    %ecx
    3dd2:	50                   	push   %eax
    3dd3:	53                   	push   %ebx
    3dd4:	e8 17 21 00 00       	call   5ef0 <async_answer_0@plt>
    3dd9:	58                   	pop    %eax
    3dda:	8b 45 f0             	mov    -0x10(%ebp),%eax
    3ddd:	50                   	push   %eax
    3dde:	e8 fd 22 00 00       	call   60e0 <free@plt>
    3de3:	83 c4 10             	add    $0x10,%esp
    3de6:	8b 5d fc             	mov    -0x4(%ebp),%ebx
    3de9:	c9                   	leave  
    3dea:	c3                   	ret    
    3deb:	90                   	nop
    3dec:	8d 74 26 00          	lea    0x0(%esi,%eiz,1),%esi
    3df0:	50                   	push   %eax
    3df1:	50                   	push   %eax
    3df2:	8b 45 10             	mov    0x10(%ebp),%eax
    3df5:	6a f2                	push   $0xfffffff2
    3df7:	50                   	push   %eax
    3df8:	e8 f3 20 00 00       	call   5ef0 <async_answer_0@plt>
    3dfd:	83 c4 10             	add    $0x10,%esp
    3e00:	8b 5d fc             	mov    -0x4(%ebp),%ebx
    3e03:	c9                   	leave  
    3e04:	c3                   	ret    
    3e05:	50                   	push   %eax
    3e06:	68 3e 05 00 00       	push   $0x53e
    3e0b:	68 e8 5a 00 00       	push   $0x5ae8
    3e10:	68 59 5b 00 00       	push   $0x5b59
    3e15:	e8 16 21 00 00       	call   5f30 <assert_abort@plt>
    3e1a:	8d b6 00 00 00 00    	lea    0x0(%esi),%esi

00003e20 <nic_send_frame>:
    3e20:	55                   	push   %ebp
    3e21:	89 e5                	mov    %esp,%ebp
    3e23:	56                   	push   %esi
    3e24:	53                   	push   %ebx
    3e25:	83 ec 3c             	sub    $0x3c,%esp
    3e28:	8b 55 08             	mov    0x8(%ebp),%edx
    3e2b:	52                   	push   %edx
    3e2c:	e8 2f 22 00 00       	call   6060 <async_exchange_begin@plt>
    3e31:	83 c4 0c             	add    $0xc,%esp
    3e34:	89 c3                	mov    %eax,%ebx
    3e36:	8d 45 d4             	lea    -0x2c(%ebp),%eax
    3e39:	50                   	push   %eax
    3e3a:	6a 00                	push   $0x0
    3e3c:	6a 00                	push   $0x0
    3e3e:	6a 00                	push   $0x0
    3e40:	6a 00                	push   $0x0
    3e42:	68 05 04 00 00       	push   $0x405
    3e47:	53                   	push   %ebx
    3e48:	e8 b3 20 00 00       	call   5f00 <async_send_fast@plt>
    3e4d:	83 c4 1c             	add    $0x1c,%esp
    3e50:	8b 4d 10             	mov    0x10(%ebp),%ecx
    3e53:	89 c6                	mov    %eax,%esi
    3e55:	8b 45 0c             	mov    0xc(%ebp),%eax
    3e58:	51                   	push   %ecx
    3e59:	50                   	push   %eax
    3e5a:	53                   	push   %ebx
    3e5b:	e8 40 20 00 00       	call   5ea0 <async_data_write_start@plt>
    3e60:	89 1c 24             	mov    %ebx,(%esp)
    3e63:	89 45 d0             	mov    %eax,-0x30(%ebp)
    3e66:	e8 a5 20 00 00       	call   5f10 <async_exchange_end@plt>
    3e6b:	8b 45 d0             	mov    -0x30(%ebp),%eax
    3e6e:	83 c4 10             	add    $0x10,%esp
    3e71:	85 c0                	test   %eax,%eax
    3e73:	75 1b                	jne    3e90 <nic_send_frame+0x70>
    3e75:	50                   	push   %eax
    3e76:	50                   	push   %eax
    3e77:	8d 45 d0             	lea    -0x30(%ebp),%eax
    3e7a:	50                   	push   %eax
    3e7b:	56                   	push   %esi
    3e7c:	e8 ef 1f 00 00       	call   5e70 <async_wait_for@plt>
    3e81:	8b 45 d0             	mov    -0x30(%ebp),%eax
    3e84:	83 c4 10             	add    $0x10,%esp
    3e87:	8d 65 f8             	lea    -0x8(%ebp),%esp
    3e8a:	5b                   	pop    %ebx
    3e8b:	5e                   	pop    %esi
    3e8c:	5d                   	pop    %ebp
    3e8d:	c3                   	ret    
    3e8e:	66 90                	xchg   %ax,%ax
    3e90:	83 ec 0c             	sub    $0xc,%esp
    3e93:	56                   	push   %esi
    3e94:	e8 07 22 00 00       	call   60a0 <async_forget@plt>
    3e99:	8b 45 d0             	mov    -0x30(%ebp),%eax
    3e9c:	83 c4 10             	add    $0x10,%esp
    3e9f:	8d 65 f8             	lea    -0x8(%ebp),%esp
    3ea2:	5b                   	pop    %ebx
    3ea3:	5e                   	pop    %esi
    3ea4:	5d                   	pop    %ebp
    3ea5:	c3                   	ret    
    3ea6:	8d 76 00             	lea    0x0(%esi),%esi
    3ea9:	8d bc 27 00 00 00 00 	lea    0x0(%edi,%eiz,1),%edi

00003eb0 <nic_callback_create>:
    3eb0:	55                   	push   %ebp
    3eb1:	89 e5                	mov    %esp,%ebp
    3eb3:	56                   	push   %esi
    3eb4:	53                   	push   %ebx
    3eb5:	83 ec 4c             	sub    $0x4c,%esp
    3eb8:	8b 4d 08             	mov    0x8(%ebp),%ecx
    3ebb:	51                   	push   %ecx
    3ebc:	e8 9f 21 00 00       	call   6060 <async_exchange_begin@plt>
    3ec1:	83 c4 0c             	add    $0xc,%esp
    3ec4:	89 c3                	mov    %eax,%ebx
    3ec6:	8d 45 d4             	lea    -0x2c(%ebp),%eax
    3ec9:	50                   	push   %eax
    3eca:	6a 00                	push   $0x0
    3ecc:	6a 00                	push   $0x0
    3ece:	6a 00                	push   $0x0
    3ed0:	6a 01                	push   $0x1
    3ed2:	68 05 04 00 00       	push   $0x405
    3ed7:	53                   	push   %ebx
    3ed8:	e8 23 20 00 00       	call   5f00 <async_send_fast@plt>
    3edd:	83 c4 1c             	add    $0x1c,%esp
    3ee0:	89 c6                	mov    %eax,%esi
    3ee2:	8d 45 d0             	lea    -0x30(%ebp),%eax
    3ee5:	50                   	push   %eax
    3ee6:	8b 45 10             	mov    0x10(%ebp),%eax
    3ee9:	50                   	push   %eax
    3eea:	8b 45 0c             	mov    0xc(%ebp),%eax
    3eed:	50                   	push   %eax
    3eee:	6a 00                	push   $0x0
    3ef0:	6a 00                	push   $0x0
    3ef2:	68 e5 4e 8f 41       	push   $0x418f4ee5
    3ef7:	53                   	push   %ebx
    3ef8:	e8 b3 20 00 00       	call   5fb0 <async_create_callback_port@plt>
    3efd:	83 c4 20             	add    $0x20,%esp
    3f00:	85 c0                	test   %eax,%eax
    3f02:	75 24                	jne    3f28 <nic_callback_create+0x78>
    3f04:	83 ec 0c             	sub    $0xc,%esp
    3f07:	53                   	push   %ebx
    3f08:	e8 03 20 00 00       	call   5f10 <async_exchange_end@plt>
    3f0d:	58                   	pop    %eax
    3f0e:	8d 45 cc             	lea    -0x34(%ebp),%eax
    3f11:	5a                   	pop    %edx
    3f12:	50                   	push   %eax
    3f13:	56                   	push   %esi
    3f14:	e8 57 1f 00 00       	call   5e70 <async_wait_for@plt>
    3f19:	8b 45 cc             	mov    -0x34(%ebp),%eax
    3f1c:	83 c4 10             	add    $0x10,%esp
    3f1f:	8d 65 f8             	lea    -0x8(%ebp),%esp
    3f22:	5b                   	pop    %ebx
    3f23:	5e                   	pop    %esi
    3f24:	5d                   	pop    %ebp
    3f25:	c3                   	ret    
    3f26:	66 90                	xchg   %ax,%ax
    3f28:	83 ec 0c             	sub    $0xc,%esp
    3f2b:	89 45 c4             	mov    %eax,-0x3c(%ebp)
    3f2e:	56                   	push   %esi
    3f2f:	e8 6c 21 00 00       	call   60a0 <async_forget@plt>
    3f34:	8b 45 c4             	mov    -0x3c(%ebp),%eax
    3f37:	83 c4 10             	add    $0x10,%esp
    3f3a:	8d 65 f8             	lea    -0x8(%ebp),%esp
    3f3d:	5b                   	pop    %ebx
    3f3e:	5e                   	pop    %esi
    3f3f:	5d                   	pop    %ebp
    3f40:	c3                   	ret    
    3f41:	eb 0d                	jmp    3f50 <nic_get_state>
    3f43:	90                   	nop
    3f44:	90                   	nop
    3f45:	90                   	nop
    3f46:	90                   	nop
    3f47:	90                   	nop
    3f48:	90                   	nop
    3f49:	90                   	nop
    3f4a:	90                   	nop
    3f4b:	90                   	nop
    3f4c:	90                   	nop
    3f4d:	90                   	nop
    3f4e:	90                   	nop
    3f4f:	90                   	nop

00003f50 <nic_get_state>:
    3f50:	55                   	push   %ebp
    3f51:	89 e5                	mov    %esp,%ebp
    3f53:	56                   	push   %esi
    3f54:	53                   	push   %ebx
    3f55:	83 ec 20             	sub    $0x20,%esp
    3f58:	8b 5d 0c             	mov    0xc(%ebp),%ebx
    3f5b:	85 db                	test   %ebx,%ebx
    3f5d:	74 4b                	je     3faa <nic_get_state+0x5a>
    3f5f:	83 ec 0c             	sub    $0xc,%esp
    3f62:	8b 45 08             	mov    0x8(%ebp),%eax
    3f65:	50                   	push   %eax
    3f66:	e8 f5 20 00 00       	call   6060 <async_exchange_begin@plt>
    3f6b:	83 c4 0c             	add    $0xc,%esp
    3f6e:	89 c6                	mov    %eax,%esi
    3f70:	8d 45 f4             	lea    -0xc(%ebp),%eax
    3f73:	6a 00                	push   $0x0
    3f75:	6a 00                	push   $0x0
    3f77:	6a 00                	push   $0x0
    3f79:	6a 00                	push   $0x0
    3f7b:	50                   	push   %eax
    3f7c:	6a 00                	push   $0x0
    3f7e:	6a 00                	push   $0x0
    3f80:	6a 00                	push   $0x0
    3f82:	6a 02                	push   $0x2
    3f84:	68 05 04 00 00       	push   $0x405
    3f89:	56                   	push   %esi
    3f8a:	e8 51 1f 00 00       	call   5ee0 <async_req_fast@plt>
    3f8f:	83 c4 24             	add    $0x24,%esp
    3f92:	89 45 e4             	mov    %eax,-0x1c(%ebp)
    3f95:	56                   	push   %esi
    3f96:	e8 75 1f 00 00       	call   5f10 <async_exchange_end@plt>
    3f9b:	8b 55 f4             	mov    -0xc(%ebp),%edx
    3f9e:	8b 45 e4             	mov    -0x1c(%ebp),%eax
    3fa1:	89 13                	mov    %edx,(%ebx)
    3fa3:	8d 65 f8             	lea    -0x8(%ebp),%esp
    3fa6:	5b                   	pop    %ebx
    3fa7:	5e                   	pop    %esi
    3fa8:	5d                   	pop    %ebp
    3fa9:	c3                   	ret    
    3faa:	52                   	push   %edx
    3fab:	68 a2 00 00 00       	push   $0xa2
    3fb0:	68 e8 5a 00 00       	push   $0x5ae8
    3fb5:	68 87 5b 00 00       	push   $0x5b87
    3fba:	e8 71 1f 00 00       	call   5f30 <assert_abort@plt>
    3fbf:	90                   	nop

00003fc0 <nic_set_state>:
    3fc0:	55                   	push   %ebp
    3fc1:	89 e5                	mov    %esp,%ebp
    3fc3:	53                   	push   %ebx
    3fc4:	83 ec 20             	sub    $0x20,%esp
    3fc7:	8b 45 08             	mov    0x8(%ebp),%eax
    3fca:	50                   	push   %eax
    3fcb:	e8 90 20 00 00       	call   6060 <async_exchange_begin@plt>
    3fd0:	83 c4 0c             	add    $0xc,%esp
    3fd3:	8b 55 0c             	mov    0xc(%ebp),%edx
    3fd6:	89 c3                	mov    %eax,%ebx
    3fd8:	6a 00                	push   $0x0
    3fda:	6a 00                	push   $0x0
    3fdc:	6a 00                	push   $0x0
    3fde:	6a 00                	push   $0x0
    3fe0:	6a 00                	push   $0x0
    3fe2:	6a 00                	push   $0x0
    3fe4:	6a 00                	push   $0x0
    3fe6:	52                   	push   %edx
    3fe7:	6a 03                	push   $0x3
    3fe9:	68 05 04 00 00       	push   $0x405
    3fee:	50                   	push   %eax
    3fef:	e8 ec 1e 00 00       	call   5ee0 <async_req_fast@plt>
    3ff4:	83 c4 24             	add    $0x24,%esp
    3ff7:	89 45 f4             	mov    %eax,-0xc(%ebp)
    3ffa:	53                   	push   %ebx
    3ffb:	e8 10 1f 00 00       	call   5f10 <async_exchange_end@plt>
    4000:	8b 45 f4             	mov    -0xc(%ebp),%eax
    4003:	8b 5d fc             	mov    -0x4(%ebp),%ebx
    4006:	c9                   	leave  
    4007:	c3                   	ret    
    4008:	90                   	nop
    4009:	8d b4 26 00 00 00 00 	lea    0x0(%esi,%eiz,1),%esi

00004010 <nic_get_address>:
    4010:	55                   	push   %ebp
    4011:	89 e5                	mov    %esp,%ebp
    4013:	57                   	push   %edi
    4014:	56                   	push   %esi
    4015:	53                   	push   %ebx
    4016:	83 ec 2c             	sub    $0x2c,%esp
    4019:	8b 75 0c             	mov    0xc(%ebp),%esi
    401c:	85 f6                	test   %esi,%esi
    401e:	74 60                	je     4080 <nic_get_address+0x70>
    4020:	83 ec 0c             	sub    $0xc,%esp
    4023:	8b 45 08             	mov    0x8(%ebp),%eax
    4026:	50                   	push   %eax
    4027:	e8 34 20 00 00       	call   6060 <async_exchange_begin@plt>
    402c:	83 c4 0c             	add    $0xc,%esp
    402f:	89 c3                	mov    %eax,%ebx
    4031:	6a 00                	push   $0x0
    4033:	6a 00                	push   $0x0
    4035:	6a 00                	push   $0x0
    4037:	6a 00                	push   $0x0
    4039:	6a 04                	push   $0x4
    403b:	68 05 04 00 00       	push   $0x405
    4040:	50                   	push   %eax
    4041:	e8 ba 1e 00 00       	call   5f00 <async_send_fast@plt>
    4046:	83 c4 1c             	add    $0x1c,%esp
    4049:	89 c7                	mov    %eax,%edi
    404b:	6a 06                	push   $0x6
    404d:	56                   	push   %esi
    404e:	53                   	push   %ebx
    404f:	e8 ac 1f 00 00       	call   6000 <async_data_read_start@plt>
    4054:	89 1c 24             	mov    %ebx,(%esp)
    4057:	89 45 d4             	mov    %eax,-0x2c(%ebp)
    405a:	e8 b1 1e 00 00       	call   5f10 <async_exchange_end@plt>
    405f:	5a                   	pop    %edx
    4060:	8d 55 e4             	lea    -0x1c(%ebp),%edx
    4063:	59                   	pop    %ecx
    4064:	52                   	push   %edx
    4065:	57                   	push   %edi
    4066:	e8 05 1e 00 00       	call   5e70 <async_wait_for@plt>
    406b:	8b 45 d4             	mov    -0x2c(%ebp),%eax
    406e:	83 c4 10             	add    $0x10,%esp
    4071:	85 c0                	test   %eax,%eax
    4073:	75 03                	jne    4078 <nic_get_address+0x68>
    4075:	8b 45 e4             	mov    -0x1c(%ebp),%eax
    4078:	8d 65 f4             	lea    -0xc(%ebp),%esp
    407b:	5b                   	pop    %ebx
    407c:	5e                   	pop    %esi
    407d:	5f                   	pop    %edi
    407e:	5d                   	pop    %ebp
    407f:	c3                   	ret    
    4080:	53                   	push   %ebx
    4081:	68 cc 00 00 00       	push   $0xcc
    4086:	68 e8 5a 00 00       	push   $0x5ae8
    408b:	68 0c 5b 00 00       	push   $0x5b0c
    4090:	e8 9b 1e 00 00       	call   5f30 <assert_abort@plt>
    4095:	8d 74 26 00          	lea    0x0(%esi,%eiz,1),%esi
    4099:	8d bc 27 00 00 00 00 	lea    0x0(%edi,%eiz,1),%edi

000040a0 <nic_set_address>:
    40a0:	55                   	push   %ebp
    40a1:	89 e5                	mov    %esp,%ebp
    40a3:	57                   	push   %edi
    40a4:	56                   	push   %esi
    40a5:	53                   	push   %ebx
    40a6:	83 ec 2c             	sub    $0x2c,%esp
    40a9:	8b 75 0c             	mov    0xc(%ebp),%esi
    40ac:	85 f6                	test   %esi,%esi
    40ae:	74 60                	je     4110 <nic_set_address+0x70>
    40b0:	83 ec 0c             	sub    $0xc,%esp
    40b3:	8b 45 08             	mov    0x8(%ebp),%eax
    40b6:	50                   	push   %eax
    40b7:	e8 a4 1f 00 00       	call   6060 <async_exchange_begin@plt>
    40bc:	83 c4 0c             	add    $0xc,%esp
    40bf:	89 c3                	mov    %eax,%ebx
    40c1:	6a 00                	push   $0x0
    40c3:	6a 00                	push   $0x0
    40c5:	6a 00                	push   $0x0
    40c7:	6a 00                	push   $0x0
    40c9:	6a 05                	push   $0x5
    40cb:	68 05 04 00 00       	push   $0x405
    40d0:	50                   	push   %eax
    40d1:	e8 2a 1e 00 00       	call   5f00 <async_send_fast@plt>
    40d6:	83 c4 1c             	add    $0x1c,%esp
    40d9:	89 c7                	mov    %eax,%edi
    40db:	6a 06                	push   $0x6
    40dd:	56                   	push   %esi
    40de:	53                   	push   %ebx
    40df:	e8 bc 1d 00 00       	call   5ea0 <async_data_write_start@plt>
    40e4:	89 1c 24             	mov    %ebx,(%esp)
    40e7:	89 45 d4             	mov    %eax,-0x2c(%ebp)
    40ea:	e8 21 1e 00 00       	call   5f10 <async_exchange_end@plt>
    40ef:	5a                   	pop    %edx
    40f0:	8d 55 e4             	lea    -0x1c(%ebp),%edx
    40f3:	59                   	pop    %ecx
    40f4:	52                   	push   %edx
    40f5:	57                   	push   %edi
    40f6:	e8 75 1d 00 00       	call   5e70 <async_wait_for@plt>
    40fb:	8b 45 d4             	mov    -0x2c(%ebp),%eax
    40fe:	83 c4 10             	add    $0x10,%esp
    4101:	85 c0                	test   %eax,%eax
    4103:	75 03                	jne    4108 <nic_set_address+0x68>
    4105:	8b 45 e4             	mov    -0x1c(%ebp),%eax
    4108:	8d 65 f4             	lea    -0xc(%ebp),%esp
    410b:	5b                   	pop    %ebx
    410c:	5e                   	pop    %esi
    410d:	5f                   	pop    %edi
    410e:	5d                   	pop    %ebp
    410f:	c3                   	ret    
    4110:	53                   	push   %ebx
    4111:	68 e7 00 00 00       	push   $0xe7
    4116:	68 e8 5a 00 00       	push   $0x5ae8
    411b:	68 0c 5b 00 00       	push   $0x5b0c
    4120:	e8 0b 1e 00 00       	call   5f30 <assert_abort@plt>
    4125:	8d 74 26 00          	lea    0x0(%esi,%eiz,1),%esi
    4129:	8d bc 27 00 00 00 00 	lea    0x0(%edi,%eiz,1),%edi

00004130 <nic_get_stats>:
    4130:	55                   	push   %ebp
    4131:	89 e5                	mov    %esp,%ebp
    4133:	56                   	push   %esi
    4134:	53                   	push   %ebx
    4135:	83 ec 10             	sub    $0x10,%esp
    4138:	8b 75 0c             	mov    0xc(%ebp),%esi
    413b:	85 f6                	test   %esi,%esi
    413d:	74 72                	je     41b1 <nic_get_stats+0x81>
    413f:	83 ec 0c             	sub    $0xc,%esp
    4142:	8b 55 08             	mov    0x8(%ebp),%edx
    4145:	52                   	push   %edx
    4146:	e8 15 1f 00 00       	call   6060 <async_exchange_begin@plt>
    414b:	83 c4 0c             	add    $0xc,%esp
    414e:	89 c3                	mov    %eax,%ebx
    4150:	6a 00                	push   $0x0
    4152:	6a 00                	push   $0x0
    4154:	6a 00                	push   $0x0
    4156:	6a 00                	push   $0x0
    4158:	6a 00                	push   $0x0
    415a:	6a 00                	push   $0x0
    415c:	6a 00                	push   $0x0
    415e:	6a 00                	push   $0x0
    4160:	6a 06                	push   $0x6
    4162:	68 05 04 00 00       	push   $0x405
    4167:	50                   	push   %eax
    4168:	e8 73 1d 00 00       	call   5ee0 <async_req_fast@plt>
    416d:	83 c4 30             	add    $0x30,%esp
    4170:	85 c0                	test   %eax,%eax
    4172:	75 24                	jne    4198 <nic_get_stats+0x68>
    4174:	50                   	push   %eax
    4175:	6a 6c                	push   $0x6c
    4177:	56                   	push   %esi
    4178:	53                   	push   %ebx
    4179:	e8 82 1e 00 00       	call   6000 <async_data_read_start@plt>
    417e:	89 1c 24             	mov    %ebx,(%esp)
    4181:	89 45 f4             	mov    %eax,-0xc(%ebp)
    4184:	e8 87 1d 00 00       	call   5f10 <async_exchange_end@plt>
    4189:	8b 45 f4             	mov    -0xc(%ebp),%eax
    418c:	83 c4 10             	add    $0x10,%esp
    418f:	8d 65 f8             	lea    -0x8(%ebp),%esp
    4192:	5b                   	pop    %ebx
    4193:	5e                   	pop    %esi
    4194:	5d                   	pop    %ebp
    4195:	c3                   	ret    
    4196:	66 90                	xchg   %ax,%ax
    4198:	83 ec 0c             	sub    $0xc,%esp
    419b:	89 45 f4             	mov    %eax,-0xc(%ebp)
    419e:	53                   	push   %ebx
    419f:	e8 6c 1d 00 00       	call   5f10 <async_exchange_end@plt>
    41a4:	8b 45 f4             	mov    -0xc(%ebp),%eax
    41a7:	83 c4 10             	add    $0x10,%esp
    41aa:	8d 65 f8             	lea    -0x8(%ebp),%esp
    41ad:	5b                   	pop    %ebx
    41ae:	5e                   	pop    %esi
    41af:	5d                   	pop    %ebp
    41b0:	c3                   	ret    
    41b1:	51                   	push   %ecx
    41b2:	68 02 01 00 00       	push   $0x102
    41b7:	68 e8 5a 00 00       	push   $0x5ae8
    41bc:	68 6f 5b 00 00       	push   $0x5b6f
    41c1:	e8 6a 1d 00 00       	call   5f30 <assert_abort@plt>
    41c6:	8d 76 00             	lea    0x0(%esi),%esi
    41c9:	8d bc 27 00 00 00 00 	lea    0x0(%edi,%eiz,1),%edi

000041d0 <nic_get_device_info>:
    41d0:	55                   	push   %ebp
    41d1:	89 e5                	mov    %esp,%ebp
    41d3:	57                   	push   %edi
    41d4:	56                   	push   %esi
    41d5:	53                   	push   %ebx
    41d6:	83 ec 2c             	sub    $0x2c,%esp
    41d9:	8b 75 0c             	mov    0xc(%ebp),%esi
    41dc:	85 f6                	test   %esi,%esi
    41de:	74 63                	je     4243 <nic_get_device_info+0x73>
    41e0:	83 ec 0c             	sub    $0xc,%esp
    41e3:	8b 45 08             	mov    0x8(%ebp),%eax
    41e6:	50                   	push   %eax
    41e7:	e8 74 1e 00 00       	call   6060 <async_exchange_begin@plt>
    41ec:	83 c4 0c             	add    $0xc,%esp
    41ef:	89 c3                	mov    %eax,%ebx
    41f1:	6a 00                	push   $0x0
    41f3:	6a 00                	push   $0x0
    41f5:	6a 00                	push   $0x0
    41f7:	6a 00                	push   $0x0
    41f9:	6a 07                	push   $0x7
    41fb:	68 05 04 00 00       	push   $0x405
    4200:	50                   	push   %eax
    4201:	e8 fa 1c 00 00       	call   5f00 <async_send_fast@plt>
    4206:	83 c4 1c             	add    $0x1c,%esp
    4209:	89 c7                	mov    %eax,%edi
    420b:	68 1c 01 00 00       	push   $0x11c
    4210:	56                   	push   %esi
    4211:	53                   	push   %ebx
    4212:	e8 e9 1d 00 00       	call   6000 <async_data_read_start@plt>
    4217:	89 1c 24             	mov    %ebx,(%esp)
    421a:	89 45 d4             	mov    %eax,-0x2c(%ebp)
    421d:	e8 ee 1c 00 00       	call   5f10 <async_exchange_end@plt>
    4222:	5a                   	pop    %edx
    4223:	8d 55 e4             	lea    -0x1c(%ebp),%edx
    4226:	59                   	pop    %ecx
    4227:	52                   	push   %edx
    4228:	57                   	push   %edi
    4229:	e8 42 1c 00 00       	call   5e70 <async_wait_for@plt>
    422e:	8b 45 d4             	mov    -0x2c(%ebp),%eax
    4231:	83 c4 10             	add    $0x10,%esp
