Archive member included to satisfy reference by file (symbol)

../../lib/drv/libdrv.a(remote_ieee80211.o)
                              wifi_supplicant.o (ieee80211_get_scan_results)
../../lib/drv/libdrv.a(remote_nic.o)
                              ../../lib/drv/libdrv.a(remote_ieee80211.o) (nic_get_address)

Discarded input sections

 .debug_line    0x0000000000000000       0x53 /home/ayyuce/Desktop/HlnOS/HelenOS/uspace/lib/c/arch/ia32/src/entry.o
 .debug_info    0x0000000000000000       0x6c /home/ayyuce/Desktop/HlnOS/HelenOS/uspace/lib/c/arch/ia32/src/entry.o
 .debug_abbrev  0x0000000000000000       0x14 /home/ayyuce/Desktop/HlnOS/HelenOS/uspace/lib/c/arch/ia32/src/entry.o
 .debug_aranges
                0x0000000000000000       0x20 /home/ayyuce/Desktop/HlnOS/HelenOS/uspace/lib/c/arch/ia32/src/entry.o
 .debug_info    0x0000000000000000      0xe98 wifi_supplicant.o
 .debug_abbrev  0x0000000000000000      0x2ab wifi_supplicant.o
 .debug_loc     0x0000000000000000      0x665 wifi_supplicant.o
 .debug_aranges
                0x0000000000000000       0x28 wifi_supplicant.o
 .debug_ranges  0x0000000000000000      0x178 wifi_supplicant.o
 .debug_line    0x0000000000000000      0x3dc wifi_supplicant.o
 .debug_str     0x0000000000000000      0xe15 wifi_supplicant.o
 .comment       0x0000000000000000       0x12 wifi_supplicant.o
 .note.GNU-stack
                0x0000000000000000        0x0 wifi_supplicant.o
 .eh_frame      0x0000000000000000      0x104 wifi_supplicant.o
 .debug_info    0x0000000000000000     0x1192 ../../lib/drv/libdrv.a(remote_ieee80211.o)
 .debug_abbrev  0x0000000000000000      0x38d ../../lib/drv/libdrv.a(remote_ieee80211.o)
 .debug_loc     0x0000000000000000      0x489 ../../lib/drv/libdrv.a(remote_ieee80211.o)
 .debug_aranges
                0x0000000000000000       0x20 ../../lib/drv/libdrv.a(remote_ieee80211.o)
 .debug_ranges  0x0000000000000000       0x70 ../../lib/drv/libdrv.a(remote_ieee80211.o)
 .debug_line    0x0000000000000000      0x408 ../../lib/drv/libdrv.a(remote_ieee80211.o)
 .debug_str     0x0000000000000000      0xeb5 ../../lib/drv/libdrv.a(remote_ieee80211.o)
 .comment       0x0000000000000000       0x12 ../../lib/drv/libdrv.a(remote_ieee80211.o)
 .note.GNU-stack
                0x0000000000000000        0x0 ../../lib/drv/libdrv.a(remote_ieee80211.o)
 .eh_frame      0x0000000000000000      0x144 ../../lib/drv/libdrv.a(remote_ieee80211.o)
 .debug_info    0x0000000000000000     0x55bd ../../lib/drv/libdrv.a(remote_nic.o)
 .debug_abbrev  0x0000000000000000      0x35f ../../lib/drv/libdrv.a(remote_nic.o)
 .debug_loc     0x0000000000000000     0x25cf ../../lib/drv/libdrv.a(remote_nic.o)
 .debug_aranges
                0x0000000000000000       0x20 ../../lib/drv/libdrv.a(remote_nic.o)
 .debug_ranges  0x0000000000000000      0x180 ../../lib/drv/libdrv.a(remote_nic.o)
 .debug_line    0x0000000000000000      0xc19 ../../lib/drv/libdrv.a(remote_nic.o)
 .debug_str     0x0000000000000000     0x261b ../../lib/drv/libdrv.a(remote_nic.o)
 .comment       0x0000000000000000       0x12 ../../lib/drv/libdrv.a(remote_nic.o)
 .note.GNU-stack
                0x0000000000000000        0x0 ../../lib/drv/libdrv.a(remote_nic.o)
 .eh_frame      0x0000000000000000     0x1028 ../../lib/drv/libdrv.a(remote_nic.o)

Memory Configuration

Name             Origin             Length             Attributes
*default*        0x0000000000000000 0xffffffffffffffff

Linker script and memory map

LOAD /home/ayyuce/Desktop/HlnOS/HelenOS/uspace/lib/c/arch/ia32/src/entry.o
                0x00000000000010f4                . = (0x1000 + SIZEOF_HEADERS)

.init           0x00000000000010f4       0x2e
 *(.init)
 .init          0x00000000000010f4       0x2e /home/ayyuce/Desktop/HlnOS/HelenOS/uspace/lib/c/arch/ia32/src/entry.o
                0x00000000000010f4                __entry

.text           0x0000000000001140     0x4b44
 *(.text .text.*)
 .text          0x0000000000001140        0x0 /home/ayyuce/Desktop/HlnOS/HelenOS/uspace/lib/c/arch/ia32/src/entry.o
 .text          0x0000000000001140      0x3bd wifi_supplicant.o
 *fill*         0x00000000000014fd        0x3 
 .text.startup  0x0000000000001500      0x3b8 wifi_supplicant.o
                0x0000000000001500                main
 *fill*         0x00000000000018b8        0x8 
 .text          0x00000000000018c0      0x690 ../../lib/drv/libdrv.a(remote_ieee80211.o)
                0x0000000000001b00                ieee80211_get_scan_results
                0x0000000000001b90                ieee80211_connect
                0x0000000000001d50                ieee80211_disconnect
 .text          0x0000000000001f50     0x3596 ../../lib/drv/libdrv.a(remote_nic.o)
                0x0000000000003e20                nic_send_frame
                0x0000000000003eb0                nic_callback_create
                0x0000000000003f50                nic_get_state
                0x0000000000003fc0                nic_set_state
                0x0000000000004010                nic_get_address
                0x00000000000040a0                nic_set_address
                0x0000000000004130                nic_get_stats
                0x00000000000041d0                nic_get_device_info
                0x0000000000004260                nic_get_cable_state
                0x00000000000042d0                nic_get_operation_mode
                0x0000000000004350                nic_set_operation_mode
                0x00000000000043a0                nic_autoneg_enable
                0x00000000000043f0                nic_autoneg_disable
                0x0000000000004440                nic_autoneg_probe
                0x00000000000044d0                nic_autoneg_restart
                0x0000000000004520                nic_get_pause
                0x00000000000045a0                nic_set_pause
                0x0000000000004600                nic_unicast_get_mode
                0x00000000000046d0                nic_unicast_set_mode
                0x00000000000047b0                nic_multicast_get_mode
                0x0000000000004880                nic_multicast_set_mode
                0x0000000000004960                nic_broadcast_get_mode
                0x00000000000049d0                nic_broadcast_set_mode
                0x0000000000004a20                nic_defective_get_mode
                0x0000000000004a90                nic_defective_set_mode
                0x0000000000004ae0                nic_blocked_sources_get
                0x0000000000004b80                nic_blocked_sources_set
                0x0000000000004c70                nic_vlan_get_mask
                0x0000000000004d10                nic_vlan_set_mask
                0x0000000000004db0                nic_vlan_set_tag
                0x0000000000004e20                nic_wol_virtue_add
                0x0000000000004f00                nic_wol_virtue_remove
                0x0000000000004f50                nic_wol_virtue_probe
                0x0000000000005010                nic_wol_virtue_list
                0x0000000000005120                nic_wol_virtue_get_caps
                0x00000000000051a0                nic_wol_load_info
                0x0000000000005270                nic_offload_probe
                0x0000000000005310                nic_offload_set
                0x0000000000005360                nic_poll_get_mode
                0x0000000000005400                nic_poll_set_mode
                0x00000000000054a0                nic_poll_now
 *(.rodata .rodata.*)
 .rodata.str1.1
                0x00000000000054e6      0x1cd wifi_supplicant.o
                                        0x1e0 (size before relaxing)
 *fill*         0x00000000000056b3        0x1 
 .rodata.str1.4
                0x00000000000056b4      0x372 wifi_supplicant.o
 *fill*         0x0000000000005a26        0x2 
 .rodata        0x0000000000005a28       0x28 wifi_supplicant.o
 .rodata.str1.1
                0x0000000000005a50       0x5d ../../lib/drv/libdrv.a(remote_ieee80211.o)
                                         0x69 (size before relaxing)
 *fill*         0x0000000000005aad        0x3 
 .rodata.str1.4
                0x0000000000005ab0       0x24 ../../lib/drv/libdrv.a(remote_ieee80211.o)
                                         0x22 (size before relaxing)
 .rodata        0x0000000000005ad4       0x14 ../../lib/drv/libdrv.a(remote_ieee80211.o)
                0x0000000000005ad4                remote_ieee80211_iface
 .rodata.str1.1
                0x0000000000005ae8       0xd6 ../../lib/drv/libdrv.a(remote_nic.o)
                                         0xe4 (size before relaxing)
 *fill*         0x0000000000005bbe        0x2 
 .rodata        0x0000000000005bc0       0xc4 ../../lib/drv/libdrv.a(remote_nic.o)
                0x0000000000005bc0                remote_nic_iface

.rel.plt        0x0000000000005c84      0x170
 *(.rel.plt)
 .rel.plt       0x0000000000005c84      0x170 /home/ayyuce/Desktop/HlnOS/HelenOS/uspace/lib/c/arch/ia32/src/entry.o

.rel.dyn        0x0000000000005df4        0x8
 *(.rel.*)
 .rel.got       0x0000000000005df4        0x0 /home/ayyuce/Desktop/HlnOS/HelenOS/uspace/lib/c/arch/ia32/src/entry.o
 .rel.bss       0x0000000000005df4        0x8 /home/ayyuce/Desktop/HlnOS/HelenOS/uspace/lib/c/arch/ia32/src/entry.o
 .rel.init      0x0000000000005dfc        0x0 /home/ayyuce/Desktop/HlnOS/HelenOS/uspace/lib/c/arch/ia32/src/entry.o
 .rel.text      0x0000000000005dfc        0x0 /home/ayyuce/Desktop/HlnOS/HelenOS/uspace/lib/c/arch/ia32/src/entry.o
 .rel.text.startup
                0x0000000000005dfc        0x0 /home/ayyuce/Desktop/HlnOS/HelenOS/uspace/lib/c/arch/ia32/src/entry.o

.plt            0x0000000000005e00      0x2f0
 *(.plt)
 .plt           0x0000000000005e00      0x2f0 /home/ayyuce/Desktop/HlnOS/HelenOS/uspace/lib/c/arch/ia32/src/entry.o
                0x0000000000005e10                __main
                0x0000000000005e20                inetcfg_init
                0x0000000000005e30                loc_category_get_id
                0x0000000000005e40                loc_service_connect
                0x0000000000005e50                inetcfg_sroute_get
                0x0000000000005e60                printf
                0x0000000000005e70                async_wait_for
                0x0000000000005e80                str_uint32_t
                0x0000000000005e90                inetcfg_addr_get
                0x0000000000005ea0                async_data_write_start
                0x0000000000005eb0                async_data_read_finalize
                0x0000000000005ec0                dhcp_init
                0x0000000000005ed0                malloc
                0x0000000000005ee0                async_req_fast
                0x0000000000005ef0                async_answer_0
                0x0000000000005f00                async_send_fast
                0x0000000000005f10                async_exchange_end
                0x0000000000005f20                loc_service_get_name
                0x0000000000005f30                assert_abort
                0x0000000000005f40                inetcfg_get_sroute_list
                0x0000000000005f50                inetcfg_addr_delete
                0x0000000000005f60                str_test_prefix
                0x0000000000005f70                async_answer_2
                0x0000000000005f80                async_answer_4
                0x0000000000005f90                inetcfg_get_addr_list
                0x0000000000005fa0                inetcfg_link_get
                0x0000000000005fb0                async_create_callback_port
                0x0000000000005fc0                str_cmp
                0x0000000000005fd0                dhcp_discover
                0x0000000000005fe0                memset
                0x0000000000005ff0                async_data_read_receive
                0x0000000000006000                async_data_read_start
                0x0000000000006010                asprintf
                0x0000000000006020                inetcfg_sroute_delete
                0x0000000000006030                loc_category_get_svcs
                0x0000000000006040                str_size
                0x0000000000006050                async_answer_1
                0x0000000000006060                async_exchange_begin
                0x0000000000006070                async_answer_3
                0x0000000000006080                async_data_write_finalize
                0x0000000000006090                async_data_write_accept
                0x00000000000060a0                async_forget
                0x00000000000060b0                inetcfg_get_link_list
                0x00000000000060c0                __syscall_fast
                0x00000000000060d0                async_data_write_receive
                0x00000000000060e0                free

.dynsym         0x00000000000060f0      0x320
 *(.dynsym)
 .dynsym        0x00000000000060f0      0x320 /home/ayyuce/Desktop/HlnOS/HelenOS/uspace/lib/c/arch/ia32/src/entry.o

.dynstr         0x0000000000006410      0x331
 *(.dynstr)
 .dynstr        0x0000000000006410      0x331 /home/ayyuce/Desktop/HlnOS/HelenOS/uspace/lib/c/arch/ia32/src/entry.o

.hash           0x0000000000006744      0x164
 *(.hash)
 .hash          0x0000000000006744      0x164 /home/ayyuce/Desktop/HlnOS/HelenOS/uspace/lib/c/arch/ia32/src/entry.o

.interp         0x00000000000068a8       0x13
 *(.interp)
 .interp        0x00000000000068a8       0x13 /home/ayyuce/Desktop/HlnOS/HelenOS/uspace/lib/c/arch/ia32/src/entry.o
                0x00000000000078bb                . = (. + 0x1000)

.dynamic        0x00000000000078bc       0xa8
 *(.dynamic)
 .dynamic       0x00000000000078bc       0xa8 /home/ayyuce/Desktop/HlnOS/HelenOS/uspace/lib/c/arch/ia32/src/entry.o
                0x00000000000078bc                _DYNAMIC

.data           0x0000000000007964        0x0
 *(.data)
 .data          0x0000000000007964        0x0 /home/ayyuce/Desktop/HlnOS/HelenOS/uspace/lib/c/arch/ia32/src/entry.o
 .data          0x0000000000007964        0x0 wifi_supplicant.o
 .data          0x0000000000007964        0x0 ../../lib/drv/libdrv.a(remote_ieee80211.o)
 .data          0x0000000000007964        0x0 ../../lib/drv/libdrv.a(remote_nic.o)

.data.rel
 *(.data.rel .data.rel.*)

.got            0x0000000000007964        0x0
 *(.got)
 .got           0x0000000000007964        0x0 /home/ayyuce/Desktop/HlnOS/HelenOS/uspace/lib/c/arch/ia32/src/entry.o

.got.plt        0x0000000000007964       0xc4
 *(.got.plt)
 .got.plt       0x0000000000007964       0xc4 /home/ayyuce/Desktop/HlnOS/HelenOS/uspace/lib/c/arch/ia32/src/entry.o
                0x0000000000007964                _GLOBAL_OFFSET_TABLE_

.tdata
 *(.tdata)
 *(.gnu.linkonce.tb.*)

.tbss
 *(.tbss)

.bss            0x0000000000007a28        0x4
 *(.dynbss)
 .dynbss        0x0000000000007a28        0x4 /home/ayyuce/Desktop/HlnOS/HelenOS/uspace/lib/c/arch/ia32/src/entry.o
                0x0000000000007a28                __syscall_fast_func
 *(COMMON)
 *(.bss)
 .bss           0x0000000000007a2c        0x0 /home/ayyuce/Desktop/HlnOS/HelenOS/uspace/lib/c/arch/ia32/src/entry.o
 .bss           0x0000000000007a2c        0x0 wifi_supplicant.o
 .bss           0x0000000000007a2c        0x0 ../../lib/drv/libdrv.a(remote_ieee80211.o)
 .bss           0x0000000000007a2c        0x0 ../../lib/drv/libdrv.a(remote_nic.o)

/DISCARD/
 *(*)
LOAD wifi_supplicant.o
LOAD ../../lib/drv/libdrv.a
LOAD ../../lib/c/libc.so.0
LOAD ../../lib/softint/libsoftint.so.0
OUTPUT(wifi_supplicant elf32-i386)
