
sbi:     file format elf32-i386


Disassembly of section .init:

000010f4 <__entry>:
    10f4:	66 8c d0             	mov    %ss,%ax
    10f7:	8e d8                	mov    %eax,%ds
    10f9:	8e c0                	mov    %eax,%es
    10fb:	8e e0                	mov    %eax,%fs
    10fd:	b8 01 00 00 00       	mov    $0x1,%eax
    1102:	0f a2                	cpuid  
    1104:	0f ba e2 0b          	bt     $0xb,%edx
    1108:	73 0c                	jae    1116 <__entry+0x22>
    110a:	8d 05 b8 3d 02 00    	lea    0x23db8,%eax
    1110:	c7 00 f0 22 02 00    	movl   $0x222f0,(%eax)
    1116:	6a 00                	push   $0x0
    1118:	6a 00                	push   $0x0
    111a:	89 e5                	mov    %esp,%ebp
    111c:	57                   	push   %edi
    111d:	e8 4e 0f 02 00       	call   22070 <__main@plt>

Disassembly of section .text:

00001130 <bi_boxed_bind>:
    1130:	55                   	push   %ebp
    1131:	89 e5                	mov    %esp,%ebp
    1133:	53                   	push   %ebx
    1134:	83 ec 0c             	sub    $0xc,%esp
    1137:	8b 5d 08             	mov    0x8(%ebp),%ebx
    113a:	68 7a cf 01 00       	push   $0x1cf7a
    113f:	53                   	push   %ebx
    1140:	e8 fb 2b 00 00       	call   3d40 <builtin_find_lvl0>
    1145:	89 43 08             	mov    %eax,0x8(%ebx)
    1148:	58                   	pop    %eax
    1149:	5a                   	pop    %edx
    114a:	68 7f cf 01 00       	push   $0x1cf7f
    114f:	53                   	push   %ebx
    1150:	e8 eb 2b 00 00       	call   3d40 <builtin_find_lvl0>
    1155:	89 43 0c             	mov    %eax,0xc(%ebx)
    1158:	59                   	pop    %ecx
    1159:	58                   	pop    %eax
    115a:	68 84 cf 01 00       	push   $0x1cf84
    115f:	53                   	push   %ebx
    1160:	e8 db 2b 00 00       	call   3d40 <builtin_find_lvl0>
    1165:	89 43 10             	mov    %eax,0x10(%ebx)
    1168:	58                   	pop    %eax
    1169:	5a                   	pop    %edx
    116a:	68 88 cf 01 00       	push   $0x1cf88
    116f:	53                   	push   %ebx
    1170:	e8 cb 2b 00 00       	call   3d40 <builtin_find_lvl0>
    1175:	83 c4 10             	add    $0x10,%esp
    1178:	89 43 14             	mov    %eax,0x14(%ebx)
    117b:	8b 5d fc             	mov    -0x4(%ebp),%ebx
    117e:	c9                   	leave  
    117f:	c3                   	ret    

00001180 <bi_error_declare>:
    1180:	55                   	push   %ebp
    1181:	89 e5                	mov    %esp,%ebp
    1183:	83 ec 10             	sub    $0x10,%esp
    1186:	8b 45 08             	mov    0x8(%ebp),%eax
    1189:	68 90 cf 01 00       	push   $0x1cf90
    118e:	50                   	push   %eax
    118f:	e8 5c 2b 00 00       	call   3cf0 <builtin_code_snippet>
    1194:	83 c4 10             	add    $0x10,%esp
    1197:	c9                   	leave  
    1198:	c3                   	ret    
    1199:	8d b4 26 00 00 00 00 	lea    0x0(%esi,%eiz,1),%esi

000011a0 <bi_error_bind>:
    11a0:	55                   	push   %ebp
    11a1:	89 e5                	mov    %esp,%ebp
    11a3:	53                   	push   %ebx
    11a4:	83 ec 08             	sub    $0x8,%esp
    11a7:	8b 5d 08             	mov    0x8(%ebp),%ebx
    11aa:	68 17 d0 01 00       	push   $0x1d017
    11af:	68 23 d0 01 00       	push   $0x1d023
    11b4:	53                   	push   %ebx
    11b5:	e8 d6 2b 00 00       	call   3d90 <builtin_find_lvl1>
    11ba:	89 04 24             	mov    %eax,(%esp)
    11bd:	e8 4e 82 01 00       	call   19410 <symbol_to_csi>
    11c2:	83 c4 10             	add    $0x10,%esp
    11c5:	89 43 1c             	mov    %eax,0x1c(%ebx)
    11c8:	85 c0                	test   %eax,%eax
    11ca:	74 28                	je     11f4 <bi_error_bind+0x54>
    11cc:	52                   	push   %edx
    11cd:	68 5e d0 01 00       	push   $0x1d05e
    11d2:	68 23 d0 01 00       	push   $0x1d023
    11d7:	53                   	push   %ebx
    11d8:	e8 b3 2b 00 00       	call   3d90 <builtin_find_lvl1>
    11dd:	89 04 24             	mov    %eax,(%esp)
    11e0:	e8 2b 82 01 00       	call   19410 <symbol_to_csi>
    11e5:	83 c4 10             	add    $0x10,%esp
    11e8:	89 43 18             	mov    %eax,0x18(%ebx)
    11eb:	85 c0                	test   %eax,%eax
    11ed:	74 17                	je     1206 <bi_error_bind+0x66>
    11ef:	8b 5d fc             	mov    -0x4(%ebp),%ebx
    11f2:	c9                   	leave  
    11f3:	c3                   	ret    
    11f4:	51                   	push   %ecx
    11f5:	6a 4a                	push   $0x4a
    11f7:	68 29 d0 01 00       	push   $0x1d029
    11fc:	68 40 d0 01 00       	push   $0x1d040
    1201:	e8 9a 0f 02 00       	call   221a0 <assert_abort@plt>
    1206:	50                   	push   %eax
    1207:	6a 4e                	push   $0x4e
    1209:	68 29 d0 01 00       	push   $0x1d029
    120e:	68 f8 cf 01 00       	push   $0x1cff8
    1213:	e8 88 0f 02 00       	call   221a0 <assert_abort@plt>
    1218:	66 90                	xchg   %ax,%ax
    121a:	66 90                	xchg   %ax,%ax
    121c:	66 90                	xchg   %ax,%ax
    121e:	66 90                	xchg   %ax,%ax

00001220 <bi_char_get_as_string>:
    1220:	55                   	push   %ebp
    1221:	89 e5                	mov    %esp,%ebp
    1223:	53                   	push   %ebx
    1224:	83 ec 1c             	sub    $0x1c,%esp
    1227:	8b 5d 08             	mov    0x8(%ebp),%ebx
    122a:	68 6b d0 01 00       	push   $0x1d06b
    122f:	53                   	push   %ebx
    1230:	e8 5b 2d 00 00       	call   3f90 <builtin_get_self_mbr_var>
    1235:	83 c4 10             	add    $0x10,%esp
    1238:	83 38 01             	cmpl   $0x1,(%eax)
    123b:	75 42                	jne    127f <bi_char_get_as_string+0x5f>
    123d:	52                   	push   %edx
    123e:	52                   	push   %edx
    123f:	8d 55 f4             	lea    -0xc(%ebp),%edx
    1242:	52                   	push   %edx
    1243:	8b 48 04             	mov    0x4(%eax),%ecx
    1246:	51                   	push   %ecx
    1247:	e8 b4 1f 00 00       	call   3200 <bigint_get_value_int>
    124c:	83 c4 10             	add    $0x10,%esp
    124f:	85 c0                	test   %eax,%eax
    1251:	75 1d                	jne    1270 <bi_char_get_as_string+0x50>
    1253:	83 ec 0c             	sub    $0xc,%esp
    1256:	8b 45 f4             	mov    -0xc(%ebp),%eax
    1259:	50                   	push   %eax
    125a:	e8 d1 10 00 00       	call   2330 <os_chr_to_astr>
    125f:	5a                   	pop    %edx
    1260:	59                   	pop    %ecx
    1261:	50                   	push   %eax
    1262:	53                   	push   %ebx
    1263:	e8 98 2d 00 00       	call   4000 <builtin_return_string>
    1268:	83 c4 10             	add    $0x10,%esp
    126b:	8b 5d fc             	mov    -0x4(%ebp),%ebx
    126e:	c9                   	leave  
    126f:	c3                   	ret    
    1270:	83 ec 0c             	sub    $0xc,%esp
    1273:	68 d6 d0 01 00       	push   $0x1d0d6
    1278:	e8 33 10 00 00       	call   22b0 <os_str_dup>
    127d:	eb e0                	jmp    125f <bi_char_get_as_string+0x3f>
    127f:	53                   	push   %ebx
    1280:	6a 52                	push   $0x52
    1282:	68 71 d0 01 00       	push   $0x1d071
    1287:	68 87 d0 01 00       	push   $0x1d087
    128c:	e8 0f 0f 02 00       	call   221a0 <assert_abort@plt>
    1291:	eb 0d                	jmp    12a0 <bi_char_declare>
    1293:	90                   	nop
    1294:	90                   	nop
    1295:	90                   	nop
    1296:	90                   	nop
    1297:	90                   	nop
    1298:	90                   	nop
    1299:	90                   	nop
    129a:	90                   	nop
    129b:	90                   	nop
    129c:	90                   	nop
    129d:	90                   	nop
    129e:	90                   	nop
    129f:	90                   	nop

000012a0 <bi_char_declare>:
    12a0:	55                   	push   %ebp
    12a1:	89 e5                	mov    %esp,%ebp
    12a3:	5d                   	pop    %ebp
    12a4:	c3                   	ret    
    12a5:	8d 74 26 00          	lea    0x0(%esi,%eiz,1),%esi
    12a9:	8d bc 27 00 00 00 00 	lea    0x0(%edi,%eiz,1),%edi

000012b0 <bi_char_bind>:
    12b0:	55                   	push   %ebp
    12b1:	89 e5                	mov    %esp,%ebp
    12b3:	83 ec 08             	sub    $0x8,%esp
    12b6:	8b 55 08             	mov    0x8(%ebp),%edx
    12b9:	68 20 12 00 00       	push   $0x1220
    12be:	68 a5 d0 01 00       	push   $0x1d0a5
    12c3:	68 7f cf 01 00       	push   $0x1cf7f
    12c8:	52                   	push   %edx
    12c9:	e8 82 2b 00 00       	call   3e50 <builtin_fun_bind>
    12ce:	83 c4 10             	add    $0x10,%esp
    12d1:	c9                   	leave  
    12d2:	c3                   	ret    
    12d3:	66 90                	xchg   %ax,%ax
    12d5:	66 90                	xchg   %ax,%ax
    12d7:	66 90                	xchg   %ax,%ax
    12d9:	66 90                	xchg   %ax,%ax
    12db:	66 90                	xchg   %ax,%ax
    12dd:	66 90                	xchg   %ax,%ax
    12df:	90                   	nop

000012e0 <bi_console_write>:
    12e0:	55                   	push   %ebp
    12e1:	89 e5                	mov    %esp,%ebp
    12e3:	83 ec 24             	sub    $0x24,%esp
    12e6:	68 b3 d0 01 00       	push   $0x1d0b3
    12eb:	e8 40 3c 01 00       	call   14f30 <strtab_get_sid>
    12f0:	5a                   	pop    %edx
    12f1:	59                   	pop    %ecx
    12f2:	50                   	push   %eax
    12f3:	8b 45 08             	mov    0x8(%ebp),%eax
    12f6:	50                   	push   %eax
    12f7:	e8 14 ca 00 00       	call   dd10 <run_local_vars_lookup>
    12fc:	83 c4 10             	add    $0x10,%esp
    12ff:	85 c0                	test   %eax,%eax
    1301:	0f 84 d3 00 00 00    	je     13da <bi_console_write+0xfa>
    1307:	8b 10                	mov    (%eax),%edx
    1309:	83 fa 01             	cmp    $0x1,%edx
    130c:	74 42                	je     1350 <bi_console_write+0x70>
    130e:	72 70                	jb     1380 <bi_console_write+0xa0>
    1310:	83 fa 02             	cmp    $0x2,%edx
    1313:	74 23                	je     1338 <bi_console_write+0x58>
    1315:	83 fa 03             	cmp    $0x3,%edx
    1318:	0f 85 8a 00 00 00    	jne    13a8 <bi_console_write+0xc8>
    131e:	52                   	push   %edx
    131f:	52                   	push   %edx
    1320:	8b 40 04             	mov    0x4(%eax),%eax
    1323:	8b 08                	mov    (%eax),%ecx
    1325:	51                   	push   %ecx
    1326:	68 cc ef 01 00       	push   $0x1efcc
    132b:	e8 60 0d 02 00       	call   22090 <printf@plt>
    1330:	83 c4 10             	add    $0x10,%esp
    1333:	c9                   	leave  
    1334:	c3                   	ret    
    1335:	8d 76 00             	lea    0x0(%esi),%esi
    1338:	83 ec 0c             	sub    $0xc,%esp
    133b:	8b 40 04             	mov    0x4(%eax),%eax
    133e:	50                   	push   %eax
    133f:	e8 ec 27 00 00       	call   3b30 <bigint_print>
    1344:	83 c4 10             	add    $0x10,%esp
    1347:	c9                   	leave  
    1348:	c3                   	ret    
    1349:	8d b4 26 00 00 00 00 	lea    0x0(%esi,%eiz,1),%esi
    1350:	52                   	push   %edx
    1351:	52                   	push   %edx
    1352:	8d 55 f4             	lea    -0xc(%ebp),%edx
    1355:	52                   	push   %edx
    1356:	8b 48 04             	mov    0x4(%eax),%ecx
    1359:	51                   	push   %ecx
    135a:	e8 a1 1e 00 00       	call   3200 <bigint_get_value_int>
    135f:	83 c4 10             	add    $0x10,%esp
    1362:	85 c0                	test   %eax,%eax
    1364:	75 62                	jne    13c8 <bi_console_write+0xe8>
    1366:	50                   	push   %eax
    1367:	50                   	push   %eax
    1368:	8b 45 f4             	mov    -0xc(%ebp),%eax
    136b:	50                   	push   %eax
    136c:	68 d0 d0 01 00       	push   $0x1d0d0
    1371:	e8 1a 0d 02 00       	call   22090 <printf@plt>
    1376:	83 c4 10             	add    $0x10,%esp
    1379:	c9                   	leave  
    137a:	c3                   	ret    
    137b:	90                   	nop
    137c:	8d 74 26 00          	lea    0x0(%esi,%eiz,1),%esi
    1380:	8b 50 04             	mov    0x4(%eax),%edx
    1383:	b8 4c e4 01 00       	mov    $0x1e44c,%eax
    1388:	8b 0a                	mov    (%edx),%ecx
    138a:	85 c9                	test   %ecx,%ecx
    138c:	75 05                	jne    1393 <bi_console_write+0xb3>
    138e:	b8 d6 d8 01 00       	mov    $0x1d8d6,%eax
    1393:	52                   	push   %edx
    1394:	52                   	push   %edx
    1395:	50                   	push   %eax
    1396:	68 cc ef 01 00       	push   $0x1efcc
    139b:	e8 f0 0c 02 00       	call   22090 <printf@plt>
    13a0:	83 c4 10             	add    $0x10,%esp
    13a3:	c9                   	leave  
    13a4:	c3                   	ret    
    13a5:	8d 76 00             	lea    0x0(%esi),%esi
    13a8:	83 ec 0c             	sub    $0xc,%esp
    13ab:	68 ec d0 01 00       	push   $0x1d0ec
    13b0:	e8 db 0c 02 00       	call   22090 <printf@plt>
    13b5:	c7 04 24 01 00 00 00 	movl   $0x1,(%esp)
    13bc:	e8 0f 0f 02 00       	call   222d0 <exit@plt>
    13c1:	8d b4 26 00 00 00 00 	lea    0x0(%esi,%eiz,1),%esi
    13c8:	83 ec 0c             	sub    $0xc,%esp
    13cb:	68 d4 d0 01 00       	push   $0x1d0d4
    13d0:	e8 bb 0c 02 00       	call   22090 <printf@plt>
    13d5:	83 c4 10             	add    $0x10,%esp
    13d8:	c9                   	leave  
    13d9:	c3                   	ret    
    13da:	50                   	push   %eax
    13db:	6a 73                	push   $0x73
    13dd:	68 b7 d0 01 00       	push   $0x1d0b7
    13e2:	68 9f 02 02 00       	push   $0x2029f
    13e7:	e8 b4 0d 02 00       	call   221a0 <assert_abort@plt>
    13ec:	8d 74 26 00          	lea    0x0(%esi,%eiz,1),%esi

000013f0 <bi_console_writeline>:
    13f0:	55                   	push   %ebp
    13f1:	89 e5                	mov    %esp,%ebp
    13f3:	83 ec 24             	sub    $0x24,%esp
    13f6:	68 b3 d0 01 00       	push   $0x1d0b3
    13fb:	e8 30 3b 01 00       	call   14f30 <strtab_get_sid>
    1400:	5a                   	pop    %edx
    1401:	59                   	pop    %ecx
    1402:	50                   	push   %eax
    1403:	8b 45 08             	mov    0x8(%ebp),%eax
    1406:	50                   	push   %eax
    1407:	e8 04 c9 00 00       	call   dd10 <run_local_vars_lookup>
    140c:	83 c4 10             	add    $0x10,%esp
    140f:	85 c0                	test   %eax,%eax
    1411:	0f 84 10 01 00 00    	je     1527 <bi_console_writeline+0x137>
    1417:	8b 10                	mov    (%eax),%edx
    1419:	83 fa 01             	cmp    $0x1,%edx
    141c:	74 5a                	je     1478 <bi_console_writeline+0x88>
    141e:	0f 82 8c 00 00 00    	jb     14b0 <bi_console_writeline+0xc0>
    1424:	83 fa 02             	cmp    $0x2,%edx
    1427:	74 2f                	je     1458 <bi_console_writeline+0x68>
    1429:	83 fa 03             	cmp    $0x3,%edx
    142c:	0f 85 b6 00 00 00    	jne    14e8 <bi_console_writeline+0xf8>
    1432:	52                   	push   %edx
    1433:	52                   	push   %edx
    1434:	8b 40 04             	mov    0x4(%eax),%eax
    1437:	8b 08                	mov    (%eax),%ecx
    1439:	51                   	push   %ecx
    143a:	68 cc ef 01 00       	push   $0x1efcc
    143f:	e8 4c 0c 02 00       	call   22090 <printf@plt>
    1444:	83 c4 10             	add    $0x10,%esp
    1447:	83 ec 0c             	sub    $0xc,%esp
    144a:	6a 0a                	push   $0xa
    144c:	e8 0f 0c 02 00       	call   22060 <putchar@plt>
    1451:	83 c4 10             	add    $0x10,%esp
    1454:	c9                   	leave  
    1455:	c3                   	ret    
    1456:	66 90                	xchg   %ax,%ax
    1458:	83 ec 0c             	sub    $0xc,%esp
    145b:	8b 40 04             	mov    0x4(%eax),%eax
    145e:	50                   	push   %eax
    145f:	e8 cc 26 00 00       	call   3b30 <bigint_print>
    1464:	83 c4 10             	add    $0x10,%esp
    1467:	83 ec 0c             	sub    $0xc,%esp
    146a:	6a 0a                	push   $0xa
    146c:	e8 ef 0b 02 00       	call   22060 <putchar@plt>
    1471:	83 c4 10             	add    $0x10,%esp
    1474:	c9                   	leave  
    1475:	c3                   	ret    
    1476:	66 90                	xchg   %ax,%ax
    1478:	52                   	push   %edx
    1479:	52                   	push   %edx
    147a:	8d 55 f4             	lea    -0xc(%ebp),%edx
    147d:	52                   	push   %edx
    147e:	8b 48 04             	mov    0x4(%eax),%ecx
    1481:	51                   	push   %ecx
    1482:	e8 79 1d 00 00       	call   3200 <bigint_get_value_int>
    1487:	83 c4 10             	add    $0x10,%esp
    148a:	85 c0                	test   %eax,%eax
    148c:	75 7a                	jne    1508 <bi_console_writeline+0x118>
    148e:	50                   	push   %eax
    148f:	50                   	push   %eax
    1490:	8b 45 f4             	mov    -0xc(%ebp),%eax
    1493:	50                   	push   %eax
    1494:	68 d0 d0 01 00       	push   $0x1d0d0
    1499:	e8 f2 0b 02 00       	call   22090 <printf@plt>
    149e:	83 c4 10             	add    $0x10,%esp
    14a1:	83 ec 0c             	sub    $0xc,%esp
    14a4:	6a 0a                	push   $0xa
    14a6:	e8 b5 0b 02 00       	call   22060 <putchar@plt>
    14ab:	83 c4 10             	add    $0x10,%esp
    14ae:	c9                   	leave  
    14af:	c3                   	ret    
    14b0:	8b 50 04             	mov    0x4(%eax),%edx
    14b3:	b8 4c e4 01 00       	mov    $0x1e44c,%eax
    14b8:	8b 0a                	mov    (%edx),%ecx
    14ba:	85 c9                	test   %ecx,%ecx
    14bc:	75 05                	jne    14c3 <bi_console_writeline+0xd3>
    14be:	b8 d6 d8 01 00       	mov    $0x1d8d6,%eax
    14c3:	52                   	push   %edx
    14c4:	52                   	push   %edx
    14c5:	50                   	push   %eax
    14c6:	68 cc ef 01 00       	push   $0x1efcc
    14cb:	e8 c0 0b 02 00       	call   22090 <printf@plt>
    14d0:	83 c4 10             	add    $0x10,%esp
    14d3:	83 ec 0c             	sub    $0xc,%esp
    14d6:	6a 0a                	push   $0xa
    14d8:	e8 83 0b 02 00       	call   22060 <putchar@plt>
    14dd:	83 c4 10             	add    $0x10,%esp
    14e0:	c9                   	leave  
    14e1:	c3                   	ret    
    14e2:	8d b6 00 00 00 00    	lea    0x0(%esi),%esi
    14e8:	83 ec 0c             	sub    $0xc,%esp
    14eb:	68 ec d0 01 00       	push   $0x1d0ec
    14f0:	e8 9b 0b 02 00       	call   22090 <printf@plt>
    14f5:	c7 04 24 01 00 00 00 	movl   $0x1,(%esp)
    14fc:	e8 cf 0d 02 00       	call   222d0 <exit@plt>
    1501:	8d b4 26 00 00 00 00 	lea    0x0(%esi,%eiz,1),%esi
    1508:	83 ec 0c             	sub    $0xc,%esp
    150b:	68 d4 d0 01 00       	push   $0x1d0d4
    1510:	e8 7b 0b 02 00       	call   22090 <printf@plt>
    1515:	83 c4 10             	add    $0x10,%esp
    1518:	83 ec 0c             	sub    $0xc,%esp
    151b:	6a 0a                	push   $0xa
    151d:	e8 3e 0b 02 00       	call   22060 <putchar@plt>
    1522:	83 c4 10             	add    $0x10,%esp
    1525:	c9                   	leave  
    1526:	c3                   	ret    
    1527:	50                   	push   %eax
    1528:	6a 73                	push   $0x73
    152a:	68 b7 d0 01 00       	push   $0x1d0b7
    152f:	68 9f 02 02 00       	push   $0x2029f
    1534:	e8 67 0c 02 00       	call   221a0 <assert_abort@plt>
    1539:	8d b4 26 00 00 00 00 	lea    0x0(%esi,%eiz,1),%esi

00001540 <bi_console_declare>:
    1540:	55                   	push   %ebp
    1541:	89 e5                	mov    %esp,%ebp
    1543:	56                   	push   %esi
    1544:	53                   	push   %ebx
    1545:	e8 96 34 01 00       	call   149e0 <stree_ident_new>
    154a:	83 ec 0c             	sub    $0xc,%esp
    154d:	89 c6                	mov    %eax,%esi
    154f:	68 d8 d0 01 00       	push   $0x1d0d8
    1554:	e8 d7 39 01 00       	call   14f30 <strtab_get_sid>
    1559:	89 06                	mov    %eax,(%esi)
    155b:	c7 04 24 00 00 00 00 	movl   $0x0,(%esp)
    1562:	e8 f9 29 01 00       	call   13f60 <stree_csi_new>
    1567:	89 c3                	mov    %eax,%ebx
    1569:	89 70 04             	mov    %esi,0x4(%eax)
    156c:	8d 40 08             	lea    0x8(%eax),%eax
    156f:	89 04 24             	mov    %eax,(%esp)
    1572:	e8 29 3f 00 00       	call   54a0 <list_init>
    1577:	8d 43 38             	lea    0x38(%ebx),%eax
    157a:	89 04 24             	mov    %eax,(%esp)
    157d:	e8 1e 3f 00 00       	call   54a0 <list_init>
    1582:	c7 04 24 00 00 00 00 	movl   $0x0,(%esp)
    1589:	e8 92 29 01 00       	call   13f20 <stree_modm_new>
    158e:	89 c6                	mov    %eax,%esi
    1590:	89 58 04             	mov    %ebx,0x4(%eax)
    1593:	c7 04 24 00 00 00 00 	movl   $0x0,(%esp)
    159a:	e8 81 36 01 00       	call   14c20 <stree_symbol_new>
    159f:	89 58 04             	mov    %ebx,0x4(%eax)
    15a2:	c7 40 08 00 00 00 00 	movl   $0x0,0x8(%eax)
    15a9:	89 43 14             	mov    %eax,0x14(%ebx)
    15ac:	58                   	pop    %eax
    15ad:	8b 45 08             	mov    0x8(%ebp),%eax
    15b0:	5a                   	pop    %edx
    15b1:	56                   	push   %esi
    15b2:	8b 00                	mov    (%eax),%eax
    15b4:	8b 08                	mov    (%eax),%ecx
    15b6:	51                   	push   %ecx
    15b7:	e8 34 3f 00 00       	call   54f0 <sbi_list_append>
    15bc:	5e                   	pop    %esi
    15bd:	58                   	pop    %eax
    15be:	68 43 d3 01 00       	push   $0x1d343
    15c3:	53                   	push   %ebx
    15c4:	e8 97 2a 00 00       	call   4060 <builtin_declare_fun>
    15c9:	5a                   	pop    %edx
    15ca:	59                   	pop    %ecx
    15cb:	68 b3 d0 01 00       	push   $0x1d0b3
    15d0:	50                   	push   %eax
    15d1:	e8 3a 2b 00 00       	call   4110 <builtin_fun_add_arg>
    15d6:	5e                   	pop    %esi
    15d7:	58                   	pop    %eax
    15d8:	68 e0 d0 01 00       	push   $0x1d0e0
    15dd:	53                   	push   %ebx
    15de:	e8 7d 2a 00 00       	call   4060 <builtin_declare_fun>
    15e3:	5a                   	pop    %edx
    15e4:	59                   	pop    %ecx
    15e5:	68 b3 d0 01 00       	push   $0x1d0b3
    15ea:	50                   	push   %eax
    15eb:	e8 20 2b 00 00       	call   4110 <builtin_fun_add_arg>
    15f0:	83 c4 10             	add    $0x10,%esp
    15f3:	8d 65 f8             	lea    -0x8(%ebp),%esp
    15f6:	5b                   	pop    %ebx
    15f7:	5e                   	pop    %esi
    15f8:	5d                   	pop    %ebp
    15f9:	c3                   	ret    
    15fa:	8d b6 00 00 00 00    	lea    0x0(%esi),%esi

00001600 <bi_console_bind>:
    1600:	55                   	push   %ebp
    1601:	89 e5                	mov    %esp,%ebp
    1603:	53                   	push   %ebx
    1604:	50                   	push   %eax
    1605:	68 e0 12 00 00       	push   $0x12e0
    160a:	8b 5d 08             	mov    0x8(%ebp),%ebx
    160d:	68 43 d3 01 00       	push   $0x1d343
    1612:	68 d8 d0 01 00       	push   $0x1d0d8
    1617:	53                   	push   %ebx
    1618:	e8 33 28 00 00       	call   3e50 <builtin_fun_bind>
    161d:	68 f0 13 00 00       	push   $0x13f0
    1622:	68 e0 d0 01 00       	push   $0x1d0e0
    1627:	68 d8 d0 01 00       	push   $0x1d0d8
    162c:	53                   	push   %ebx
    162d:	e8 1e 28 00 00       	call   3e50 <builtin_fun_bind>
    1632:	83 c4 20             	add    $0x20,%esp
    1635:	8b 5d fc             	mov    -0x4(%ebp),%ebx
    1638:	c9                   	leave  
    1639:	c3                   	ret    
    163a:	66 90                	xchg   %ax,%ax
    163c:	66 90                	xchg   %ax,%ax
    163e:	66 90                	xchg   %ax,%ax

00001640 <bi_int_get_as_string>:
    1640:	55                   	push   %ebp
    1641:	89 e5                	mov    %esp,%ebp
    1643:	53                   	push   %ebx
    1644:	83 ec 1c             	sub    $0x1c,%esp
    1647:	8b 5d 08             	mov    0x8(%ebp),%ebx
    164a:	68 6b d0 01 00       	push   $0x1d06b
    164f:	53                   	push   %ebx
    1650:	e8 3b 29 00 00       	call   3f90 <builtin_get_self_mbr_var>
    1655:	83 c4 10             	add    $0x10,%esp
    1658:	83 38 02             	cmpl   $0x2,(%eax)
    165b:	75 23                	jne    1680 <bi_int_get_as_string+0x40>
    165d:	52                   	push   %edx
    165e:	52                   	push   %edx
    165f:	8d 55 f4             	lea    -0xc(%ebp),%edx
    1662:	52                   	push   %edx
    1663:	8b 48 04             	mov    0x4(%eax),%ecx
    1666:	51                   	push   %ecx
    1667:	e8 54 20 00 00       	call   36c0 <bigint_get_as_string>
    166c:	8b 4d f4             	mov    -0xc(%ebp),%ecx
    166f:	58                   	pop    %eax
    1670:	5a                   	pop    %edx
    1671:	51                   	push   %ecx
    1672:	53                   	push   %ebx
    1673:	e8 88 29 00 00       	call   4000 <builtin_return_string>
    1678:	83 c4 10             	add    $0x10,%esp
    167b:	8b 5d fc             	mov    -0x4(%ebp),%ebx
    167e:	c9                   	leave  
    167f:	c3                   	ret    
    1680:	53                   	push   %ebx
    1681:	6a 4d                	push   $0x4d
    1683:	68 1b d1 01 00       	push   $0x1d11b
    1688:	68 30 d1 01 00       	push   $0x1d130
    168d:	e8 0e 0b 02 00       	call   221a0 <assert_abort@plt>
    1692:	8d b4 26 00 00 00 00 	lea    0x0(%esi,%eiz,1),%esi
    1699:	8d bc 27 00 00 00 00 	lea    0x0(%edi,%eiz,1),%edi

000016a0 <bi_int_declare>:
    16a0:	55                   	push   %ebp
    16a1:	89 e5                	mov    %esp,%ebp
    16a3:	5d                   	pop    %ebp
    16a4:	c3                   	ret    
    16a5:	8d 74 26 00          	lea    0x0(%esi,%eiz,1),%esi
    16a9:	8d bc 27 00 00 00 00 	lea    0x0(%edi,%eiz,1),%edi

000016b0 <bi_int_bind>:
    16b0:	55                   	push   %ebp
    16b1:	89 e5                	mov    %esp,%ebp
    16b3:	83 ec 08             	sub    $0x8,%esp
    16b6:	8b 55 08             	mov    0x8(%ebp),%edx
    16b9:	68 40 16 00 00       	push   $0x1640
    16be:	68 a5 d0 01 00       	push   $0x1d0a5
    16c3:	68 84 cf 01 00       	push   $0x1cf84
    16c8:	52                   	push   %edx
    16c9:	e8 82 27 00 00       	call   3e50 <builtin_fun_bind>
    16ce:	83 c4 10             	add    $0x10,%esp
    16d1:	c9                   	leave  
    16d2:	c3                   	ret    
    16d3:	66 90                	xchg   %ax,%ax
    16d5:	66 90                	xchg   %ax,%ax
    16d7:	66 90                	xchg   %ax,%ax
    16d9:	66 90                	xchg   %ax,%ax
    16db:	66 90                	xchg   %ax,%ax
    16dd:	66 90                	xchg   %ax,%ax
    16df:	90                   	nop

000016e0 <bi_task_exec>:
    16e0:	55                   	push   %ebp
    16e1:	89 e5                	mov    %esp,%ebp
    16e3:	57                   	push   %edi
    16e4:	56                   	push   %esi
    16e5:	53                   	push   %ebx
    16e6:	83 ec 18             	sub    $0x18,%esp
    16e9:	68 4d d1 01 00       	push   $0x1d14d
    16ee:	e8 3d 38 01 00       	call   14f30 <strtab_get_sid>
    16f3:	8b 5d 08             	mov    0x8(%ebp),%ebx
    16f6:	5a                   	pop    %edx
    16f7:	59                   	pop    %ecx
    16f8:	50                   	push   %eax
    16f9:	53                   	push   %ebx
    16fa:	e8 11 c6 00 00       	call   dd10 <run_local_vars_lookup>
    16ff:	83 c4 10             	add    $0x10,%esp
    1702:	85 c0                	test   %eax,%eax
    1704:	0f 84 19 01 00 00    	je     1823 <bi_task_exec+0x143>
    170a:	83 38 04             	cmpl   $0x4,(%eax)
    170d:	0f 85 fe 00 00 00    	jne    1811 <bi_task_exec+0x131>
    1713:	8b 40 04             	mov    0x4(%eax),%eax
    1716:	8b 00                	mov    (%eax),%eax
    1718:	83 38 07             	cmpl   $0x7,(%eax)
    171b:	0f 85 de 00 00 00    	jne    17ff <bi_task_exec+0x11f>
    1721:	8b 58 04             	mov    0x4(%eax),%ebx
    1724:	83 3b 01             	cmpl   $0x1,(%ebx)
    1727:	0f 85 c0 00 00 00    	jne    17ed <bi_task_exec+0x10d>
    172d:	8b 43 04             	mov    0x4(%ebx),%eax
    1730:	8b 30                	mov    (%eax),%esi
    1732:	85 f6                	test   %esi,%esi
    1734:	0f 84 9a 00 00 00    	je     17d4 <bi_task_exec+0xf4>
    173a:	8d 46 01             	lea    0x1(%esi),%eax
    173d:	52                   	push   %edx
    173e:	52                   	push   %edx
    173f:	6a 04                	push   $0x4
    1741:	50                   	push   %eax
    1742:	e8 69 0a 02 00       	call   221b0 <calloc@plt>
    1747:	83 c4 10             	add    $0x10,%esp
    174a:	85 c0                	test   %eax,%eax
    174c:	74 6d                	je     17bb <bi_task_exec+0xdb>
    174e:	85 f6                	test   %esi,%esi
    1750:	7e 2d                	jle    177f <bi_task_exec+0x9f>
    1752:	8b 7b 08             	mov    0x8(%ebx),%edi
    1755:	8b 0f                	mov    (%edi),%ecx
    1757:	8b 19                	mov    (%ecx),%ebx
    1759:	83 fb 03             	cmp    $0x3,%ebx
    175c:	75 44                	jne    17a2 <bi_task_exec+0xc2>
    175e:	31 d2                	xor    %edx,%edx
    1760:	eb 10                	jmp    1772 <bi_task_exec+0x92>
    1762:	8d b6 00 00 00 00    	lea    0x0(%esi),%esi
    1768:	8b 0c 97             	mov    (%edi,%edx,4),%ecx
    176b:	8b 19                	mov    (%ecx),%ebx
    176d:	83 fb 03             	cmp    $0x3,%ebx
    1770:	75 30                	jne    17a2 <bi_task_exec+0xc2>
    1772:	8b 49 04             	mov    0x4(%ecx),%ecx
    1775:	8b 09                	mov    (%ecx),%ecx
    1777:	89 0c 90             	mov    %ecx,(%eax,%edx,4)
    177a:	42                   	inc    %edx
    177b:	39 d6                	cmp    %edx,%esi
    177d:	75 e9                	jne    1768 <bi_task_exec+0x88>
    177f:	83 ec 0c             	sub    $0xc,%esp
    1782:	c7 04 b0 00 00 00 00 	movl   $0x0,(%eax,%esi,4)
    1789:	50                   	push   %eax
    178a:	e8 61 0d 00 00       	call   24f0 <os_exec>
    178f:	83 c4 10             	add    $0x10,%esp
    1792:	85 c0                	test   %eax,%eax
    1794:	0f 85 9b 00 00 00    	jne    1835 <bi_task_exec+0x155>
    179a:	8d 65 f4             	lea    -0xc(%ebp),%esp
    179d:	5b                   	pop    %ebx
    179e:	5e                   	pop    %esi
    179f:	5f                   	pop    %edi
    17a0:	5d                   	pop    %ebp
    17a1:	c3                   	ret    
    17a2:	50                   	push   %eax
    17a3:	50                   	push   %eax
    17a4:	53                   	push   %ebx
    17a5:	68 14 d2 01 00       	push   $0x1d214
    17aa:	e8 e1 08 02 00       	call   22090 <printf@plt>
    17af:	c7 04 24 01 00 00 00 	movl   $0x1,(%esp)
    17b6:	e8 15 0b 02 00       	call   222d0 <exit@plt>
    17bb:	83 ec 0c             	sub    $0xc,%esp
    17be:	68 a0 d1 01 00       	push   $0x1d1a0
    17c3:	e8 c8 08 02 00       	call   22090 <printf@plt>
    17c8:	c7 04 24 01 00 00 00 	movl   $0x1,(%esp)
    17cf:	e8 fc 0a 02 00       	call   222d0 <exit@plt>
    17d4:	83 ec 0c             	sub    $0xc,%esp
    17d7:	68 dc d1 01 00       	push   $0x1d1dc
    17dc:	e8 af 08 02 00       	call   22090 <printf@plt>
    17e1:	c7 04 24 01 00 00 00 	movl   $0x1,(%esp)
    17e8:	e8 e3 0a 02 00       	call   222d0 <exit@plt>
    17ed:	51                   	push   %ecx
    17ee:	6a 5b                	push   $0x5b
    17f0:	68 52 d1 01 00       	push   $0x1d152
    17f5:	68 8f d1 01 00       	push   $0x1d18f
    17fa:	e8 a1 09 02 00       	call   221a0 <assert_abort@plt>
    17ff:	53                   	push   %ebx
    1800:	6a 58                	push   $0x58
    1802:	68 52 d1 01 00       	push   $0x1d152
    1807:	68 7b d1 01 00       	push   $0x1d17b
    180c:	e8 8f 09 02 00       	call   221a0 <assert_abort@plt>
    1811:	56                   	push   %esi
    1812:	6a 55                	push   $0x55
    1814:	68 52 d1 01 00       	push   $0x1d152
    1819:	68 68 d1 01 00       	push   $0x1d168
    181e:	e8 7d 09 02 00       	call   221a0 <assert_abort@plt>
    1823:	57                   	push   %edi
    1824:	6a 54                	push   $0x54
    1826:	68 52 d1 01 00       	push   $0x1d152
    182b:	68 4d d1 01 00       	push   $0x1d14d
    1830:	e8 6b 09 02 00       	call   221a0 <assert_abort@plt>
    1835:	83 ec 0c             	sub    $0xc,%esp
    1838:	68 bb d1 01 00       	push   $0x1d1bb
    183d:	e8 4e 08 02 00       	call   22090 <printf@plt>
    1842:	c7 04 24 01 00 00 00 	movl   $0x1,(%esp)
    1849:	e8 82 0a 02 00       	call   222d0 <exit@plt>
    184e:	66 90                	xchg   %ax,%ax

00001850 <bi_task_declare>:
    1850:	55                   	push   %ebp
    1851:	89 e5                	mov    %esp,%ebp
    1853:	83 ec 10             	sub    $0x10,%esp
    1856:	8b 45 08             	mov    0x8(%ebp),%eax
    1859:	68 54 d2 01 00       	push   $0x1d254
    185e:	50                   	push   %eax
    185f:	e8 8c 24 00 00       	call   3cf0 <builtin_code_snippet>
    1864:	83 c4 10             	add    $0x10,%esp
    1867:	c9                   	leave  
    1868:	c3                   	ret    
    1869:	8d b4 26 00 00 00 00 	lea    0x0(%esi,%eiz,1),%esi

00001870 <bi_task_bind>:
    1870:	55                   	push   %ebp
    1871:	89 e5                	mov    %esp,%ebp
    1873:	83 ec 08             	sub    $0x8,%esp
    1876:	8b 55 08             	mov    0x8(%ebp),%edx
    1879:	68 e0 16 00 00       	push   $0x16e0
    187e:	68 d0 d1 01 00       	push   $0x1d1d0
    1883:	68 d5 d1 01 00       	push   $0x1d1d5
    1888:	52                   	push   %edx
    1889:	e8 c2 25 00 00       	call   3e50 <builtin_fun_bind>
    188e:	83 c4 10             	add    $0x10,%esp
    1891:	c9                   	leave  
    1892:	c3                   	ret    
    1893:	66 90                	xchg   %ax,%ax
    1895:	66 90                	xchg   %ax,%ax
    1897:	66 90                	xchg   %ax,%ax
    1899:	66 90                	xchg   %ax,%ax
    189b:	66 90                	xchg   %ax,%ax
    189d:	66 90                	xchg   %ax,%ax
    189f:	90                   	nop

000018a0 <bi_textfile_is_eof>:
    18a0:	55                   	push   %ebp
    18a1:	89 e5                	mov    %esp,%ebp
    18a3:	57                   	push   %edi
    18a4:	56                   	push   %esi
    18a5:	53                   	push   %ebx
    18a6:	83 ec 14             	sub    $0x14,%esp
    18a9:	8b 5d 08             	mov    0x8(%ebp),%ebx
    18ac:	68 79 d1 01 00       	push   $0x1d179
    18b1:	53                   	push   %ebx
    18b2:	e8 d9 26 00 00       	call   3f90 <builtin_get_self_mbr_var>
    18b7:	83 c4 10             	add    $0x10,%esp
    18ba:	83 38 09             	cmpl   $0x9,(%eax)
    18bd:	75 65                	jne    1924 <bi_textfile_is_eof+0x84>
    18bf:	8b 40 04             	mov    0x4(%eax),%eax
    18c2:	8b 00                	mov    (%eax),%eax
    18c4:	85 c0                	test   %eax,%eax
    18c6:	74 71                	je     1939 <bi_textfile_is_eof+0x99>
    18c8:	83 ec 0c             	sub    $0xc,%esp
    18cb:	50                   	push   %eax
    18cc:	e8 5f 08 02 00       	call   22130 <feof@plt>
    18d1:	89 c6                	mov    %eax,%esi
    18d3:	e8 58 a6 00 00       	call   bf30 <rdata_bool_new>
    18d8:	89 c7                	mov    %eax,%edi
    18da:	31 c0                	xor    %eax,%eax
    18dc:	85 f6                	test   %esi,%esi
    18de:	0f 95 c0             	setne  %al
    18e1:	89 07                	mov    %eax,(%edi)
    18e3:	c7 04 24 00 00 00 00 	movl   $0x0,(%esp)
    18ea:	e8 21 a5 00 00       	call   be10 <rdata_var_new>
    18ef:	89 c6                	mov    %eax,%esi
    18f1:	89 78 04             	mov    %edi,0x4(%eax)
    18f4:	e8 f7 a4 00 00       	call   bdf0 <rdata_value_new>
    18f9:	89 c7                	mov    %eax,%edi
    18fb:	89 30                	mov    %esi,(%eax)
    18fd:	c7 04 24 01 00 00 00 	movl   $0x1,(%esp)
    1904:	e8 77 a3 00 00       	call   bc80 <rdata_item_new>
    1909:	89 c6                	mov    %eax,%esi
    190b:	89 78 04             	mov    %edi,0x4(%eax)
    190e:	89 1c 24             	mov    %ebx,(%esp)
    1911:	e8 7a c4 00 00       	call   dd90 <run_get_current_proc_ar>
    1916:	83 c4 10             	add    $0x10,%esp
    1919:	89 70 14             	mov    %esi,0x14(%eax)
    191c:	8d 65 f4             	lea    -0xc(%ebp),%esp
    191f:	5b                   	pop    %ebx
    1920:	5e                   	pop    %esi
    1921:	5f                   	pop    %edi
    1922:	5d                   	pop    %ebp
    1923:	c3                   	ret    
    1924:	50                   	push   %eax
    1925:	68 62 01 00 00       	push   $0x162
    192a:	68 9b d2 01 00       	push   $0x1d29b
    192f:	68 b5 d2 01 00       	push   $0x1d2b5
    1934:	e8 67 08 02 00       	call   221a0 <assert_abort@plt>
    1939:	83 ec 0c             	sub    $0xc,%esp
    193c:	68 60 d3 01 00       	push   $0x1d360
    1941:	e8 4a 07 02 00       	call   22090 <printf@plt>
    1946:	c7 04 24 01 00 00 00 	movl   $0x1,(%esp)
    194d:	e8 7e 09 02 00       	call   222d0 <exit@plt>
    1952:	8d b4 26 00 00 00 00 	lea    0x0(%esi,%eiz,1),%esi
    1959:	8d bc 27 00 00 00 00 	lea    0x0(%edi,%eiz,1),%edi

00001960 <bi_textfile_writeline>:
    1960:	55                   	push   %ebp
    1961:	89 e5                	mov    %esp,%ebp
    1963:	56                   	push   %esi
    1964:	53                   	push   %ebx
    1965:	83 ec 0c             	sub    $0xc,%esp
    1968:	8b 5d 08             	mov    0x8(%ebp),%ebx
    196b:	68 d3 d2 01 00       	push   $0x1d2d3
    1970:	e8 bb 35 01 00       	call   14f30 <strtab_get_sid>
    1975:	5a                   	pop    %edx
    1976:	59                   	pop    %ecx
    1977:	50                   	push   %eax
    1978:	53                   	push   %ebx
    1979:	e8 92 c3 00 00       	call   dd10 <run_local_vars_lookup>
    197e:	83 c4 10             	add    $0x10,%esp
    1981:	85 c0                	test   %eax,%eax
    1983:	74 5a                	je     19df <bi_textfile_writeline+0x7f>
    1985:	83 38 03             	cmpl   $0x3,(%eax)
    1988:	0f 85 ad 00 00 00    	jne    1a3b <bi_textfile_writeline+0xdb>
    198e:	8b 40 04             	mov    0x4(%eax),%eax
    1991:	8b 30                	mov    (%eax),%esi
    1993:	50                   	push   %eax
    1994:	50                   	push   %eax
    1995:	68 79 d1 01 00       	push   $0x1d179
    199a:	53                   	push   %ebx
    199b:	e8 f0 25 00 00       	call   3f90 <builtin_get_self_mbr_var>
    19a0:	83 c4 10             	add    $0x10,%esp
    19a3:	83 38 09             	cmpl   $0x9,(%eax)
    19a6:	75 7e                	jne    1a26 <bi_textfile_writeline+0xc6>
    19a8:	8b 40 04             	mov    0x4(%eax),%eax
    19ab:	8b 00                	mov    (%eax),%eax
    19ad:	85 c0                	test   %eax,%eax
    19af:	74 5c                	je     1a0d <bi_textfile_writeline+0xad>
    19b1:	52                   	push   %edx
    19b2:	56                   	push   %esi
    19b3:	68 fb d2 01 00       	push   $0x1d2fb
    19b8:	50                   	push   %eax
    19b9:	e8 02 08 02 00       	call   221c0 <fprintf@plt>
    19be:	83 c4 10             	add    $0x10,%esp
    19c1:	85 c0                	test   %eax,%eax
    19c3:	78 2f                	js     19f4 <bi_textfile_writeline+0x94>
    19c5:	83 ec 0c             	sub    $0xc,%esp
    19c8:	53                   	push   %ebx
    19c9:	e8 c2 c3 00 00       	call   dd90 <run_get_current_proc_ar>
    19ce:	83 c4 10             	add    $0x10,%esp
    19d1:	c7 40 14 00 00 00 00 	movl   $0x0,0x14(%eax)
    19d8:	8d 65 f8             	lea    -0x8(%ebp),%esp
    19db:	5b                   	pop    %ebx
    19dc:	5e                   	pop    %esi
    19dd:	5d                   	pop    %ebp
    19de:	c3                   	ret    
    19df:	50                   	push   %eax
    19e0:	68 33 01 00 00       	push   $0x133
    19e5:	68 9b d2 01 00       	push   $0x1d29b
    19ea:	68 d8 d2 01 00       	push   $0x1d2d8
    19ef:	e8 ac 07 02 00       	call   221a0 <assert_abort@plt>
    19f4:	83 ec 0c             	sub    $0xc,%esp
    19f7:	68 b8 d3 01 00       	push   $0x1d3b8
    19fc:	e8 8f 06 02 00       	call   22090 <printf@plt>
    1a01:	c7 04 24 01 00 00 00 	movl   $0x1,(%esp)
    1a08:	e8 c3 08 02 00       	call   222d0 <exit@plt>
    1a0d:	83 ec 0c             	sub    $0xc,%esp
    1a10:	68 8c d3 01 00       	push   $0x1d38c
    1a15:	e8 76 06 02 00       	call   22090 <printf@plt>
    1a1a:	c7 04 24 01 00 00 00 	movl   $0x1,(%esp)
    1a21:	e8 aa 08 02 00       	call   222d0 <exit@plt>
    1a26:	51                   	push   %ecx
    1a27:	68 39 01 00 00       	push   $0x139
    1a2c:	68 9b d2 01 00       	push   $0x1d29b
    1a31:	68 b5 d2 01 00       	push   $0x1d2b5
    1a36:	e8 65 07 02 00       	call   221a0 <assert_abort@plt>
    1a3b:	50                   	push   %eax
    1a3c:	68 34 01 00 00       	push   $0x134
    1a41:	68 9b d2 01 00       	push   $0x1d29b
    1a46:	68 e1 d2 01 00       	push   $0x1d2e1
    1a4b:	e8 50 07 02 00       	call   221a0 <assert_abort@plt>

00001a50 <bi_textfile_readline>:
    1a50:	55                   	push   %ebp
    1a51:	89 e5                	mov    %esp,%ebp
    1a53:	57                   	push   %edi
    1a54:	56                   	push   %esi
    1a55:	53                   	push   %ebx
    1a56:	83 ec 14             	sub    $0x14,%esp
    1a59:	8b 75 08             	mov    0x8(%ebp),%esi
    1a5c:	68 79 d1 01 00       	push   $0x1d179
    1a61:	56                   	push   %esi
    1a62:	e8 29 25 00 00       	call   3f90 <builtin_get_self_mbr_var>
    1a67:	83 c4 10             	add    $0x10,%esp
    1a6a:	83 38 09             	cmpl   $0x9,(%eax)
    1a6d:	0f 85 e1 00 00 00    	jne    1b54 <bi_textfile_readline+0x104>
    1a73:	8b 40 04             	mov    0x4(%eax),%eax
    1a76:	8b 18                	mov    (%eax),%ebx
    1a78:	85 db                	test   %ebx,%ebx
    1a7a:	0f 84 1b 01 00 00    	je     1b9b <bi_textfile_readline+0x14b>
    1a80:	83 ec 0c             	sub    $0xc,%esp
    1a83:	53                   	push   %ebx
    1a84:	e8 a7 06 02 00       	call   22130 <feof@plt>
    1a89:	83 c4 10             	add    $0x10,%esp
    1a8c:	85 c0                	test   %eax,%eax
    1a8e:	0f 85 ee 00 00 00    	jne    1b82 <bi_textfile_readline+0x132>
    1a94:	50                   	push   %eax
    1a95:	53                   	push   %ebx
    1a96:	68 00 01 00 00       	push   $0x100
    1a9b:	68 c0 3d 02 00       	push   $0x23dc0
    1aa0:	e8 6b 06 02 00       	call   22110 <fgets@plt>
    1aa5:	83 c4 10             	add    $0x10,%esp
    1aa8:	85 c0                	test   %eax,%eax
    1aaa:	0f 84 98 00 00 00    	je     1b48 <bi_textfile_readline+0xf8>
    1ab0:	83 ec 0c             	sub    $0xc,%esp
    1ab3:	53                   	push   %ebx
    1ab4:	e8 37 07 02 00       	call   221f0 <ferror@plt>
    1ab9:	83 c4 10             	add    $0x10,%esp
    1abc:	85 c0                	test   %eax,%eax
    1abe:	0f 85 a5 00 00 00    	jne    1b69 <bi_textfile_readline+0x119>
    1ac4:	b8 c0 3d 02 00       	mov    $0x23dc0,%eax
    1ac9:	80 3d c0 3d 02 00 00 	cmpb   $0x0,0x23dc0
    1ad0:	74 1d                	je     1aef <bi_textfile_readline+0x9f>
    1ad2:	8d b6 00 00 00 00    	lea    0x0(%esi),%esi
    1ad8:	40                   	inc    %eax
    1ad9:	80 38 00             	cmpb   $0x0,(%eax)
    1adc:	75 fa                	jne    1ad8 <bi_textfile_readline+0x88>
    1ade:	3d c0 3d 02 00       	cmp    $0x23dc0,%eax
    1ae3:	74 0a                	je     1aef <bi_textfile_readline+0x9f>
    1ae5:	80 78 ff 0a          	cmpb   $0xa,-0x1(%eax)
    1ae9:	75 04                	jne    1aef <bi_textfile_readline+0x9f>
    1aeb:	c6 40 ff 00          	movb   $0x0,-0x1(%eax)
    1aef:	e8 9c a4 00 00       	call   bf90 <rdata_string_new>
    1af4:	83 ec 0c             	sub    $0xc,%esp
    1af7:	89 c7                	mov    %eax,%edi
    1af9:	68 c0 3d 02 00       	push   $0x23dc0
    1afe:	e8 ad 07 00 00       	call   22b0 <os_str_dup>
    1b03:	89 07                	mov    %eax,(%edi)
    1b05:	c7 04 24 03 00 00 00 	movl   $0x3,(%esp)
    1b0c:	e8 ff a2 00 00       	call   be10 <rdata_var_new>
    1b11:	89 c3                	mov    %eax,%ebx
    1b13:	89 78 04             	mov    %edi,0x4(%eax)
    1b16:	e8 d5 a2 00 00       	call   bdf0 <rdata_value_new>
    1b1b:	89 c7                	mov    %eax,%edi
    1b1d:	89 18                	mov    %ebx,(%eax)
    1b1f:	c7 04 24 01 00 00 00 	movl   $0x1,(%esp)
    1b26:	e8 55 a1 00 00       	call   bc80 <rdata_item_new>
    1b2b:	89 c3                	mov    %eax,%ebx
    1b2d:	89 78 04             	mov    %edi,0x4(%eax)
    1b30:	89 34 24             	mov    %esi,(%esp)
    1b33:	e8 58 c2 00 00       	call   dd90 <run_get_current_proc_ar>
    1b38:	83 c4 10             	add    $0x10,%esp
    1b3b:	89 58 14             	mov    %ebx,0x14(%eax)
    1b3e:	8d 65 f4             	lea    -0xc(%ebp),%esp
    1b41:	5b                   	pop    %ebx
    1b42:	5e                   	pop    %esi
    1b43:	5f                   	pop    %edi
    1b44:	5d                   	pop    %ebp
    1b45:	c3                   	ret    
    1b46:	66 90                	xchg   %ax,%ax
    1b48:	c6 05 c0 3d 02 00 00 	movb   $0x0,0x23dc0
    1b4f:	e9 5c ff ff ff       	jmp    1ab0 <bi_textfile_readline+0x60>
    1b54:	52                   	push   %edx
    1b55:	68 f1 00 00 00       	push   $0xf1
    1b5a:	68 9b d2 01 00       	push   $0x1d29b
    1b5f:	68 b5 d2 01 00       	push   $0x1d2b5
    1b64:	e8 37 06 02 00       	call   221a0 <assert_abort@plt>
    1b69:	83 ec 0c             	sub    $0xc,%esp
    1b6c:	68 30 d4 01 00       	push   $0x1d430
    1b71:	e8 1a 05 02 00       	call   22090 <printf@plt>
    1b76:	c7 04 24 01 00 00 00 	movl   $0x1,(%esp)
    1b7d:	e8 4e 07 02 00       	call   222d0 <exit@plt>
    1b82:	83 ec 0c             	sub    $0xc,%esp
    1b85:	68 0c d4 01 00       	push   $0x1d40c
    1b8a:	e8 01 05 02 00       	call   22090 <printf@plt>
    1b8f:	c7 04 24 01 00 00 00 	movl   $0x1,(%esp)
    1b96:	e8 35 07 02 00       	call   222d0 <exit@plt>
    1b9b:	83 ec 0c             	sub    $0xc,%esp
    1b9e:	68 e0 d3 01 00       	push   $0x1d3e0
    1ba3:	e8 e8 04 02 00       	call   22090 <printf@plt>
    1ba8:	c7 04 24 01 00 00 00 	movl   $0x1,(%esp)
    1baf:	e8 1c 07 02 00       	call   222d0 <exit@plt>
    1bb4:	8d b6 00 00 00 00    	lea    0x0(%esi),%esi
    1bba:	8d bf 00 00 00 00    	lea    0x0(%edi),%edi

00001bc0 <bi_textfile_openwrite>:
    1bc0:	55                   	push   %ebp
    1bc1:	89 e5                	mov    %esp,%ebp
    1bc3:	57                   	push   %edi
    1bc4:	56                   	push   %esi
    1bc5:	53                   	push   %ebx
    1bc6:	83 ec 18             	sub    $0x18,%esp
    1bc9:	68 ff d2 01 00       	push   $0x1d2ff
    1bce:	e8 5d 33 01 00       	call   14f30 <strtab_get_sid>
    1bd3:	8b 5d 08             	mov    0x8(%ebp),%ebx
    1bd6:	5a                   	pop    %edx
    1bd7:	59                   	pop    %ecx
    1bd8:	50                   	push   %eax
    1bd9:	53                   	push   %ebx
    1bda:	e8 31 c1 00 00       	call   dd10 <run_local_vars_lookup>
    1bdf:	83 c4 10             	add    $0x10,%esp
    1be2:	85 c0                	test   %eax,%eax
    1be4:	74 69                	je     1c4f <bi_textfile_openwrite+0x8f>
    1be6:	83 38 03             	cmpl   $0x3,(%eax)
    1be9:	0f 85 8e 00 00 00    	jne    1c7d <bi_textfile_openwrite+0xbd>
    1bef:	8b 40 04             	mov    0x4(%eax),%eax
    1bf2:	8b 38                	mov    (%eax),%edi
    1bf4:	50                   	push   %eax
    1bf5:	50                   	push   %eax
    1bf6:	68 2a d3 01 00       	push   $0x1d32a
    1bfb:	57                   	push   %edi
    1bfc:	e8 2f 06 02 00       	call   22230 <fopen@plt>
    1c01:	83 c4 10             	add    $0x10,%esp
    1c04:	89 c6                	mov    %eax,%esi
    1c06:	85 c0                	test   %eax,%eax
    1c08:	74 5a                	je     1c64 <bi_textfile_openwrite+0xa4>
    1c0a:	e8 a1 a3 00 00       	call   bfb0 <rdata_resource_new>
    1c0f:	83 ec 0c             	sub    $0xc,%esp
    1c12:	89 c3                	mov    %eax,%ebx
    1c14:	89 30                	mov    %esi,(%eax)
    1c16:	6a 09                	push   $0x9
    1c18:	e8 f3 a1 00 00       	call   be10 <rdata_var_new>
    1c1d:	89 c7                	mov    %eax,%edi
    1c1f:	89 58 04             	mov    %ebx,0x4(%eax)
    1c22:	e8 c9 a1 00 00       	call   bdf0 <rdata_value_new>
    1c27:	8b 4d 08             	mov    0x8(%ebp),%ecx
    1c2a:	89 c6                	mov    %eax,%esi
    1c2c:	89 38                	mov    %edi,(%eax)
    1c2e:	58                   	pop    %eax
    1c2f:	5a                   	pop    %edx
    1c30:	68 79 d1 01 00       	push   $0x1d179
    1c35:	51                   	push   %ecx
    1c36:	e8 55 23 00 00       	call   3f90 <builtin_get_self_mbr_var>
    1c3b:	5b                   	pop    %ebx
    1c3c:	5f                   	pop    %edi
    1c3d:	56                   	push   %esi
    1c3e:	50                   	push   %eax
    1c3f:	e8 ac b5 00 00       	call   d1f0 <rdata_var_write>
    1c44:	83 c4 10             	add    $0x10,%esp
    1c47:	8d 65 f4             	lea    -0xc(%ebp),%esp
    1c4a:	5b                   	pop    %ebx
    1c4b:	5e                   	pop    %esi
    1c4c:	5f                   	pop    %edi
    1c4d:	5d                   	pop    %ebp
    1c4e:	c3                   	ret    
    1c4f:	50                   	push   %eax
    1c50:	68 a0 00 00 00       	push   $0xa0
    1c55:	68 9b d2 01 00       	push   $0x1d29b
    1c5a:	68 05 d3 01 00       	push   $0x1d305
    1c5f:	e8 3c 05 02 00       	call   221a0 <assert_abort@plt>
    1c64:	50                   	push   %eax
    1c65:	50                   	push   %eax
    1c66:	57                   	push   %edi
    1c67:	68 58 d4 01 00       	push   $0x1d458
    1c6c:	e8 1f 04 02 00       	call   22090 <printf@plt>
    1c71:	c7 04 24 01 00 00 00 	movl   $0x1,(%esp)
    1c78:	e8 53 06 02 00       	call   222d0 <exit@plt>
    1c7d:	50                   	push   %eax
    1c7e:	68 a1 00 00 00       	push   $0xa1
    1c83:	68 9b d2 01 00       	push   $0x1d29b
    1c88:	68 0f d3 01 00       	push   $0x1d30f
    1c8d:	e8 0e 05 02 00       	call   221a0 <assert_abort@plt>
    1c92:	8d b4 26 00 00 00 00 	lea    0x0(%esi,%eiz,1),%esi
    1c99:	8d bc 27 00 00 00 00 	lea    0x0(%edi,%eiz,1),%edi

00001ca0 <bi_textfile_openread>:
    1ca0:	55                   	push   %ebp
    1ca1:	89 e5                	mov    %esp,%ebp
    1ca3:	57                   	push   %edi
    1ca4:	56                   	push   %esi
    1ca5:	53                   	push   %ebx
    1ca6:	83 ec 18             	sub    $0x18,%esp
    1ca9:	68 ff d2 01 00       	push   $0x1d2ff
    1cae:	e8 7d 32 01 00       	call   14f30 <strtab_get_sid>
    1cb3:	8b 5d 08             	mov    0x8(%ebp),%ebx
    1cb6:	5a                   	pop    %edx
    1cb7:	59                   	pop    %ecx
    1cb8:	50                   	push   %eax
    1cb9:	53                   	push   %ebx
    1cba:	e8 51 c0 00 00       	call   dd10 <run_local_vars_lookup>
    1cbf:	83 c4 10             	add    $0x10,%esp
    1cc2:	85 c0                	test   %eax,%eax
    1cc4:	74 69                	je     1d2f <bi_textfile_openread+0x8f>
    1cc6:	83 38 03             	cmpl   $0x3,(%eax)
    1cc9:	0f 85 8b 00 00 00    	jne    1d5a <bi_textfile_openread+0xba>
    1ccf:	8b 40 04             	mov    0x4(%eax),%eax
    1cd2:	8b 38                	mov    (%eax),%edi
    1cd4:	50                   	push   %eax
    1cd5:	50                   	push   %eax
    1cd6:	68 4e d6 01 00       	push   $0x1d64e
    1cdb:	57                   	push   %edi
    1cdc:	e8 4f 05 02 00       	call   22230 <fopen@plt>
    1ce1:	83 c4 10             	add    $0x10,%esp
    1ce4:	89 c6                	mov    %eax,%esi
    1ce6:	85 c0                	test   %eax,%eax
    1ce8:	74 57                	je     1d41 <bi_textfile_openread+0xa1>
    1cea:	e8 c1 a2 00 00       	call   bfb0 <rdata_resource_new>
    1cef:	83 ec 0c             	sub    $0xc,%esp
    1cf2:	89 c3                	mov    %eax,%ebx
    1cf4:	89 30                	mov    %esi,(%eax)
    1cf6:	6a 09                	push   $0x9
    1cf8:	e8 13 a1 00 00       	call   be10 <rdata_var_new>
    1cfd:	89 c7                	mov    %eax,%edi
    1cff:	89 58 04             	mov    %ebx,0x4(%eax)
    1d02:	e8 e9 a0 00 00       	call   bdf0 <rdata_value_new>
    1d07:	8b 4d 08             	mov    0x8(%ebp),%ecx
    1d0a:	89 c6                	mov    %eax,%esi
    1d0c:	89 38                	mov    %edi,(%eax)
    1d0e:	58                   	pop    %eax
    1d0f:	5a                   	pop    %edx
    1d10:	68 79 d1 01 00       	push   $0x1d179
    1d15:	51                   	push   %ecx
    1d16:	e8 75 22 00 00       	call   3f90 <builtin_get_self_mbr_var>
    1d1b:	5b                   	pop    %ebx
    1d1c:	5f                   	pop    %edi
    1d1d:	56                   	push   %esi
    1d1e:	50                   	push   %eax
    1d1f:	e8 cc b4 00 00       	call   d1f0 <rdata_var_write>
    1d24:	83 c4 10             	add    $0x10,%esp
    1d27:	8d 65 f4             	lea    -0xc(%ebp),%esp
    1d2a:	5b                   	pop    %ebx
    1d2b:	5e                   	pop    %esi
    1d2c:	5f                   	pop    %edi
    1d2d:	5d                   	pop    %ebp
    1d2e:	c3                   	ret    
    1d2f:	50                   	push   %eax
    1d30:	6a 75                	push   $0x75
    1d32:	68 9b d2 01 00       	push   $0x1d29b
    1d37:	68 05 d3 01 00       	push   $0x1d305
    1d3c:	e8 5f 04 02 00       	call   221a0 <assert_abort@plt>
    1d41:	50                   	push   %eax
    1d42:	50                   	push   %eax
    1d43:	57                   	push   %edi
    1d44:	68 88 d4 01 00       	push   $0x1d488
    1d49:	e8 42 03 02 00       	call   22090 <printf@plt>
    1d4e:	c7 04 24 01 00 00 00 	movl   $0x1,(%esp)
    1d55:	e8 76 05 02 00       	call   222d0 <exit@plt>
    1d5a:	50                   	push   %eax
    1d5b:	6a 76                	push   $0x76
    1d5d:	68 9b d2 01 00       	push   $0x1d29b
    1d62:	68 0f d3 01 00       	push   $0x1d30f
    1d67:	e8 34 04 02 00       	call   221a0 <assert_abort@plt>
    1d6c:	8d 74 26 00          	lea    0x0(%esi,%eiz,1),%esi

00001d70 <bi_textfile_close>:
    1d70:	55                   	push   %ebp
    1d71:	89 e5                	mov    %esp,%ebp
    1d73:	56                   	push   %esi
    1d74:	53                   	push   %ebx
    1d75:	52                   	push   %edx
    1d76:	8b 75 08             	mov    0x8(%ebp),%esi
    1d79:	52                   	push   %edx
    1d7a:	68 79 d1 01 00       	push   $0x1d179
    1d7f:	56                   	push   %esi
    1d80:	e8 0b 22 00 00       	call   3f90 <builtin_get_self_mbr_var>
    1d85:	83 c4 10             	add    $0x10,%esp
    1d88:	83 38 09             	cmpl   $0x9,(%eax)
    1d8b:	75 3e                	jne    1dcb <bi_textfile_close+0x5b>
    1d8d:	89 c3                	mov    %eax,%ebx
    1d8f:	8b 40 04             	mov    0x4(%eax),%eax
    1d92:	8b 00                	mov    (%eax),%eax
    1d94:	85 c0                	test   %eax,%eax
    1d96:	74 61                	je     1df9 <bi_textfile_close+0x89>
    1d98:	83 ec 0c             	sub    $0xc,%esp
    1d9b:	50                   	push   %eax
    1d9c:	e8 af 04 02 00       	call   22250 <fclose@plt>
    1da1:	83 c4 10             	add    $0x10,%esp
    1da4:	85 c0                	test   %eax,%eax
    1da6:	75 38                	jne    1de0 <bi_textfile_close+0x70>
    1da8:	8b 43 04             	mov    0x4(%ebx),%eax
    1dab:	83 ec 0c             	sub    $0xc,%esp
    1dae:	c7 00 00 00 00 00    	movl   $0x0,(%eax)
    1db4:	56                   	push   %esi
    1db5:	e8 d6 bf 00 00       	call   dd90 <run_get_current_proc_ar>
    1dba:	83 c4 10             	add    $0x10,%esp
    1dbd:	c7 40 14 00 00 00 00 	movl   $0x0,0x14(%eax)
    1dc4:	8d 65 f8             	lea    -0x8(%ebp),%esp
    1dc7:	5b                   	pop    %ebx
    1dc8:	5e                   	pop    %esi
    1dc9:	5d                   	pop    %ebp
    1dca:	c3                   	ret    
    1dcb:	50                   	push   %eax
    1dcc:	68 c4 00 00 00       	push   $0xc4
    1dd1:	68 9b d2 01 00       	push   $0x1d29b
    1dd6:	68 b5 d2 01 00       	push   $0x1d2b5
    1ddb:	e8 c0 03 02 00       	call   221a0 <assert_abort@plt>
    1de0:	83 ec 0c             	sub    $0xc,%esp
    1de3:	68 e0 d4 01 00       	push   $0x1d4e0
    1de8:	e8 a3 02 02 00       	call   22090 <printf@plt>
    1ded:	c7 04 24 01 00 00 00 	movl   $0x1,(%esp)
    1df4:	e8 d7 04 02 00       	call   222d0 <exit@plt>
    1df9:	83 ec 0c             	sub    $0xc,%esp
    1dfc:	68 b8 d4 01 00       	push   $0x1d4b8
    1e01:	e8 8a 02 02 00       	call   22090 <printf@plt>
    1e06:	c7 04 24 01 00 00 00 	movl   $0x1,(%esp)
    1e0d:	e8 be 04 02 00       	call   222d0 <exit@plt>
    1e12:	8d b4 26 00 00 00 00 	lea    0x0(%esi,%eiz,1),%esi
    1e19:	8d bc 27 00 00 00 00 	lea    0x0(%edi,%eiz,1),%edi

00001e20 <bi_textfile_declare>:
    1e20:	55                   	push   %ebp
    1e21:	89 e5                	mov    %esp,%ebp
    1e23:	83 ec 10             	sub    $0x10,%esp
    1e26:	8b 45 08             	mov    0x8(%ebp),%eax
    1e29:	68 08 d5 01 00       	push   $0x1d508
    1e2e:	50                   	push   %eax
    1e2f:	e8 bc 1e 00 00       	call   3cf0 <builtin_code_snippet>
    1e34:	83 c4 10             	add    $0x10,%esp
    1e37:	c9                   	leave  
    1e38:	c3                   	ret    
    1e39:	8d b4 26 00 00 00 00 	lea    0x0(%esi,%eiz,1),%esi

00001e40 <bi_textfile_bind>:
    1e40:	55                   	push   %ebp
    1e41:	89 e5                	mov    %esp,%ebp
    1e43:	53                   	push   %ebx
    1e44:	50                   	push   %eax
    1e45:	68 a0 1c 00 00       	push   $0x1ca0
    1e4a:	8b 5d 08             	mov    0x8(%ebp),%ebx
    1e4d:	68 2d d3 01 00       	push   $0x1d32d
    1e52:	68 36 d3 01 00       	push   $0x1d336
    1e57:	53                   	push   %ebx
    1e58:	e8 f3 1f 00 00       	call   3e50 <builtin_fun_bind>
    1e5d:	68 c0 1b 00 00       	push   $0x1bc0
    1e62:	68 3f d3 01 00       	push   $0x1d33f
    1e67:	68 36 d3 01 00       	push   $0x1d336
    1e6c:	53                   	push   %ebx
    1e6d:	e8 de 1f 00 00       	call   3e50 <builtin_fun_bind>
    1e72:	83 c4 20             	add    $0x20,%esp
    1e75:	68 70 1d 00 00       	push   $0x1d70
    1e7a:	68 49 d3 01 00       	push   $0x1d349
    1e7f:	68 36 d3 01 00       	push   $0x1d336
    1e84:	53                   	push   %ebx
    1e85:	e8 c6 1f 00 00       	call   3e50 <builtin_fun_bind>
    1e8a:	68 50 1a 00 00       	push   $0x1a50
    1e8f:	68 4f d3 01 00       	push   $0x1d34f
    1e94:	68 36 d3 01 00       	push   $0x1d336
    1e99:	53                   	push   %ebx
    1e9a:	e8 b1 1f 00 00       	call   3e50 <builtin_fun_bind>
    1e9f:	83 c4 20             	add    $0x20,%esp
    1ea2:	68 60 19 00 00       	push   $0x1960
    1ea7:	68 e0 d0 01 00       	push   $0x1d0e0
    1eac:	68 36 d3 01 00       	push   $0x1d336
    1eb1:	53                   	push   %ebx
    1eb2:	e8 99 1f 00 00       	call   3e50 <builtin_fun_bind>
    1eb7:	68 a0 18 00 00       	push   $0x18a0
    1ebc:	68 58 d3 01 00       	push   $0x1d358
    1ec1:	68 36 d3 01 00       	push   $0x1d336
    1ec6:	53                   	push   %ebx
    1ec7:	e8 84 1f 00 00       	call   3e50 <builtin_fun_bind>
    1ecc:	83 c4 20             	add    $0x20,%esp
    1ecf:	8b 5d fc             	mov    -0x4(%ebp),%ebx
    1ed2:	c9                   	leave  
    1ed3:	c3                   	ret    
    1ed4:	66 90                	xchg   %ax,%ax
    1ed6:	66 90                	xchg   %ax,%ax
    1ed8:	66 90                	xchg   %ax,%ax
    1eda:	66 90                	xchg   %ax,%ax
    1edc:	66 90                	xchg   %ax,%ax
    1ede:	66 90                	xchg   %ax,%ax

00001ee0 <bi_string_slice>:
    1ee0:	55                   	push   %ebp
    1ee1:	89 e5                	mov    %esp,%ebp
    1ee3:	57                   	push   %edi
    1ee4:	56                   	push   %esi
    1ee5:	53                   	push   %ebx
    1ee6:	83 ec 24             	sub    $0x24,%esp
    1ee9:	8b 5d 08             	mov    0x8(%ebp),%ebx
    1eec:	68 6b d0 01 00       	push   $0x1d06b
    1ef1:	53                   	push   %ebx
    1ef2:	e8 99 20 00 00       	call   3f90 <builtin_get_self_mbr_var>
    1ef7:	83 c4 10             	add    $0x10,%esp
    1efa:	83 38 03             	cmpl   $0x3,(%eax)
    1efd:	0f 85 fa 00 00 00    	jne    1ffd <bi_string_slice+0x11d>
    1f03:	8b 40 04             	mov    0x4(%eax),%eax
    1f06:	83 ec 0c             	sub    $0xc,%esp
    1f09:	8b 30                	mov    (%eax),%esi
    1f0b:	56                   	push   %esi
    1f0c:	e8 8f 03 00 00       	call   22a0 <os_str_length>
    1f11:	c7 04 24 4b d6 01 00 	movl   $0x1d64b,(%esp)
    1f18:	89 c7                	mov    %eax,%edi
    1f1a:	e8 11 30 01 00       	call   14f30 <strtab_get_sid>
    1f1f:	5a                   	pop    %edx
    1f20:	59                   	pop    %ecx
    1f21:	50                   	push   %eax
    1f22:	53                   	push   %ebx
    1f23:	e8 e8 bd 00 00       	call   dd10 <run_local_vars_lookup>
    1f28:	83 c4 10             	add    $0x10,%esp
    1f2b:	85 c0                	test   %eax,%eax
    1f2d:	0f 84 f4 00 00 00    	je     2027 <bi_string_slice+0x147>
    1f33:	83 38 02             	cmpl   $0x2,(%eax)
    1f36:	0f 85 d6 00 00 00    	jne    2012 <bi_string_slice+0x132>
    1f3c:	52                   	push   %edx
    1f3d:	52                   	push   %edx
    1f3e:	8d 55 e0             	lea    -0x20(%ebp),%edx
    1f41:	52                   	push   %edx
    1f42:	8b 48 04             	mov    0x4(%eax),%ecx
    1f45:	51                   	push   %ecx
    1f46:	e8 b5 12 00 00       	call   3200 <bigint_get_value_int>
    1f4b:	83 c4 10             	add    $0x10,%esp
    1f4e:	85 c0                	test   %eax,%eax
    1f50:	75 79                	jne    1fcb <bi_string_slice+0xeb>
    1f52:	8b 45 e0             	mov    -0x20(%ebp),%eax
    1f55:	85 c0                	test   %eax,%eax
    1f57:	78 72                	js     1fcb <bi_string_slice+0xeb>
    1f59:	39 c7                	cmp    %eax,%edi
    1f5b:	72 6e                	jb     1fcb <bi_string_slice+0xeb>
    1f5d:	83 ec 0c             	sub    $0xc,%esp
    1f60:	68 9b d6 01 00       	push   $0x1d69b
    1f65:	e8 c6 2f 01 00       	call   14f30 <strtab_get_sid>
    1f6a:	5a                   	pop    %edx
    1f6b:	59                   	pop    %ecx
    1f6c:	50                   	push   %eax
    1f6d:	53                   	push   %ebx
    1f6e:	e8 9d bd 00 00       	call   dd10 <run_local_vars_lookup>
    1f73:	83 c4 10             	add    $0x10,%esp
    1f76:	85 c0                	test   %eax,%eax
    1f78:	0f 84 d3 00 00 00    	je     2051 <bi_string_slice+0x171>
    1f7e:	83 38 02             	cmpl   $0x2,(%eax)
    1f81:	0f 85 b5 00 00 00    	jne    203c <bi_string_slice+0x15c>
    1f87:	52                   	push   %edx
    1f88:	52                   	push   %edx
    1f89:	8d 55 e4             	lea    -0x1c(%ebp),%edx
    1f8c:	52                   	push   %edx
    1f8d:	8b 48 04             	mov    0x4(%eax),%ecx
    1f90:	51                   	push   %ecx
    1f91:	e8 6a 12 00 00       	call   3200 <bigint_get_value_int>
    1f96:	83 c4 10             	add    $0x10,%esp
    1f99:	85 c0                	test   %eax,%eax
    1f9b:	75 47                	jne    1fe4 <bi_string_slice+0x104>
    1f9d:	8b 45 e4             	mov    -0x1c(%ebp),%eax
    1fa0:	85 c0                	test   %eax,%eax
    1fa2:	78 40                	js     1fe4 <bi_string_slice+0x104>
    1fa4:	8b 55 e0             	mov    -0x20(%ebp),%edx
    1fa7:	8d 0c 10             	lea    (%eax,%edx,1),%ecx
    1faa:	39 cf                	cmp    %ecx,%edi
    1fac:	72 36                	jb     1fe4 <bi_string_slice+0x104>
    1fae:	51                   	push   %ecx
    1faf:	50                   	push   %eax
    1fb0:	52                   	push   %edx
    1fb1:	56                   	push   %esi
    1fb2:	e8 29 02 00 00       	call   21e0 <os_str_aslice>
    1fb7:	5e                   	pop    %esi
    1fb8:	5f                   	pop    %edi
    1fb9:	50                   	push   %eax
    1fba:	53                   	push   %ebx
    1fbb:	e8 40 20 00 00       	call   4000 <builtin_return_string>
    1fc0:	83 c4 10             	add    $0x10,%esp
    1fc3:	8d 65 f4             	lea    -0xc(%ebp),%esp
    1fc6:	5b                   	pop    %ebx
    1fc7:	5e                   	pop    %esi
    1fc8:	5f                   	pop    %edi
    1fc9:	5d                   	pop    %ebp
    1fca:	c3                   	ret    
    1fcb:	83 ec 0c             	sub    $0xc,%esp
    1fce:	68 c8 d6 01 00       	push   $0x1d6c8
    1fd3:	e8 b8 00 02 00       	call   22090 <printf@plt>
    1fd8:	c7 04 24 01 00 00 00 	movl   $0x1,(%esp)
    1fdf:	e8 ec 02 02 00       	call   222d0 <exit@plt>
    1fe4:	83 ec 0c             	sub    $0xc,%esp
    1fe7:	68 fc d6 01 00       	push   $0x1d6fc
    1fec:	e8 9f 00 02 00       	call   22090 <printf@plt>
    1ff1:	c7 04 24 01 00 00 00 	movl   $0x1,(%esp)
    1ff8:	e8 d3 02 02 00       	call   222d0 <exit@plt>
    1ffd:	53                   	push   %ebx
    1ffe:	68 83 00 00 00       	push   $0x83
    2003:	68 33 d6 01 00       	push   $0x1d633
    2008:	68 a8 d6 01 00       	push   $0x1d6a8
    200d:	e8 8e 01 02 00       	call   221a0 <assert_abort@plt>
    2012:	53                   	push   %ebx
    2013:	68 8a 00 00 00       	push   $0x8a
    2018:	68 33 d6 01 00       	push   $0x1d633
    201d:	68 5b d6 01 00       	push   $0x1d65b
    2022:	e8 79 01 02 00       	call   221a0 <assert_abort@plt>
    2027:	56                   	push   %esi
    2028:	68 89 00 00 00       	push   $0x89
    202d:	68 33 d6 01 00       	push   $0x1d633
    2032:	68 51 d6 01 00       	push   $0x1d651
    2037:	e8 64 01 02 00       	call   221a0 <assert_abort@plt>
    203c:	53                   	push   %ebx
    203d:	68 95 00 00 00       	push   $0x95
    2042:	68 33 d6 01 00       	push   $0x1d633
    2047:	68 7e d6 01 00       	push   $0x1d67e
    204c:	e8 4f 01 02 00       	call   221a0 <assert_abort@plt>
    2051:	56                   	push   %esi
    2052:	68 94 00 00 00       	push   $0x94
    2057:	68 33 d6 01 00       	push   $0x1d633
    205c:	68 73 d6 01 00       	push   $0x1d673
    2061:	e8 3a 01 02 00       	call   221a0 <assert_abort@plt>
    2066:	8d 76 00             	lea    0x0(%esi),%esi
    2069:	8d bc 27 00 00 00 00 	lea    0x0(%edi,%eiz,1),%edi

00002070 <bi_string_length>:
    2070:	55                   	push   %ebp
    2071:	89 e5                	mov    %esp,%ebp
    2073:	57                   	push   %edi
    2074:	56                   	push   %esi
    2075:	53                   	push   %ebx
    2076:	83 ec 14             	sub    $0x14,%esp
    2079:	8b 5d 08             	mov    0x8(%ebp),%ebx
    207c:	68 6b d0 01 00       	push   $0x1d06b
    2081:	53                   	push   %ebx
    2082:	e8 09 1f 00 00       	call   3f90 <builtin_get_self_mbr_var>
    2087:	83 c4 10             	add    $0x10,%esp
    208a:	83 38 03             	cmpl   $0x3,(%eax)
    208d:	75 61                	jne    20f0 <bi_string_length+0x80>
    208f:	8b 40 04             	mov    0x4(%eax),%eax
    2092:	83 ec 0c             	sub    $0xc,%esp
    2095:	8b 00                	mov    (%eax),%eax
    2097:	50                   	push   %eax
    2098:	e8 03 02 00 00       	call   22a0 <os_str_length>
    209d:	89 c6                	mov    %eax,%esi
    209f:	e8 cc 9e 00 00       	call   bf70 <rdata_int_new>
    20a4:	5a                   	pop    %edx
    20a5:	59                   	pop    %ecx
    20a6:	56                   	push   %esi
    20a7:	50                   	push   %eax
    20a8:	89 c7                	mov    %eax,%edi
    20aa:	e8 01 0f 00 00       	call   2fb0 <bigint_init>
    20af:	c7 04 24 02 00 00 00 	movl   $0x2,(%esp)
    20b6:	e8 55 9d 00 00       	call   be10 <rdata_var_new>
    20bb:	89 c6                	mov    %eax,%esi
    20bd:	89 78 04             	mov    %edi,0x4(%eax)
    20c0:	e8 2b 9d 00 00       	call   bdf0 <rdata_value_new>
    20c5:	89 c7                	mov    %eax,%edi
    20c7:	89 30                	mov    %esi,(%eax)
    20c9:	c7 04 24 01 00 00 00 	movl   $0x1,(%esp)
    20d0:	e8 ab 9b 00 00       	call   bc80 <rdata_item_new>
    20d5:	89 c6                	mov    %eax,%esi
    20d7:	89 78 04             	mov    %edi,0x4(%eax)
    20da:	89 1c 24             	mov    %ebx,(%esp)
    20dd:	e8 ae bc 00 00       	call   dd90 <run_get_current_proc_ar>
    20e2:	83 c4 10             	add    $0x10,%esp
    20e5:	89 70 14             	mov    %esi,0x14(%eax)
    20e8:	8d 65 f4             	lea    -0xc(%ebp),%esp
    20eb:	5b                   	pop    %ebx
    20ec:	5e                   	pop    %esi
    20ed:	5f                   	pop    %edi
    20ee:	5d                   	pop    %ebp
    20ef:	c3                   	ret    
    20f0:	53                   	push   %ebx
    20f1:	6a 56                	push   $0x56
    20f3:	68 33 d6 01 00       	push   $0x1d633
    20f8:	68 a8 d6 01 00       	push   $0x1d6a8
    20fd:	e8 9e 00 02 00       	call   221a0 <assert_abort@plt>
    2102:	8d b4 26 00 00 00 00 	lea    0x0(%esi,%eiz,1),%esi
    2109:	8d bc 27 00 00 00 00 	lea    0x0(%edi,%eiz,1),%edi

00002110 <bi_string_declare>:
    2110:	55                   	push   %ebp
    2111:	89 e5                	mov    %esp,%ebp
    2113:	5d                   	pop    %ebp
    2114:	c3                   	ret    
    2115:	8d 74 26 00          	lea    0x0(%esi,%eiz,1),%esi
    2119:	8d bc 27 00 00 00 00 	lea    0x0(%edi,%eiz,1),%edi

00002120 <bi_string_bind>:
    2120:	55                   	push   %ebp
    2121:	89 e5                	mov    %esp,%ebp
    2123:	53                   	push   %ebx
    2124:	50                   	push   %eax
    2125:	68 70 20 00 00       	push   $0x2070
    212a:	8b 5d 08             	mov    0x8(%ebp),%ebx
    212d:	68 97 d6 01 00       	push   $0x1d697
    2132:	68 88 cf 01 00       	push   $0x1cf88
    2137:	53                   	push   %ebx
    2138:	e8 13 1d 00 00       	call   3e50 <builtin_fun_bind>
    213d:	68 e0 1e 00 00       	push   $0x1ee0
    2142:	68 a2 d6 01 00       	push   $0x1d6a2
    2147:	68 88 cf 01 00       	push   $0x1cf88
    214c:	53                   	push   %ebx
    214d:	e8 fe 1c 00 00       	call   3e50 <builtin_fun_bind>
    2152:	83 c4 20             	add    $0x20,%esp
    2155:	8b 5d fc             	mov    -0x4(%ebp),%ebx
    2158:	c9                   	leave  
    2159:	c3                   	ret    
    215a:	66 90                	xchg   %ax,%ax
    215c:	66 90                	xchg   %ax,%ax
    215e:	66 90                	xchg   %ax,%ax

00002160 <os_str_acat>:
    2160:	55                   	push   %ebp
    2161:	89 e5                	mov    %esp,%ebp
    2163:	57                   	push   %edi
    2164:	56                   	push   %esi
    2165:	53                   	push   %ebx
    2166:	83 ec 28             	sub    $0x28,%esp
    2169:	8b 5d 08             	mov    0x8(%ebp),%ebx
    216c:	53                   	push   %ebx
    216d:	e8 0e 01 02 00       	call   22280 <str_size@plt>
    2172:	8b 7d 0c             	mov    0xc(%ebp),%edi
    2175:	5e                   	pop    %esi
    2176:	89 c3                	mov    %eax,%ebx
    2178:	57                   	push   %edi
    2179:	e8 02 01 02 00       	call   22280 <str_size@plt>
    217e:	89 c7                	mov    %eax,%edi
    2180:	01 d8                	add    %ebx,%eax
    2182:	89 45 e4             	mov    %eax,-0x1c(%ebp)
    2185:	40                   	inc    %eax
    2186:	89 04 24             	mov    %eax,(%esp)
    2189:	e8 b2 ff 01 00       	call   22140 <malloc@plt>
    218e:	83 c4 10             	add    $0x10,%esp
    2191:	85 c0                	test   %eax,%eax
    2193:	74 2f                	je     21c4 <os_str_acat+0x64>
    2195:	89 c6                	mov    %eax,%esi
    2197:	8b 55 08             	mov    0x8(%ebp),%edx
    219a:	50                   	push   %eax
    219b:	53                   	push   %ebx
    219c:	52                   	push   %edx
    219d:	56                   	push   %esi
    219e:	e8 7d ff 01 00       	call   22120 <memcpy@plt>
    21a3:	83 c4 0c             	add    $0xc,%esp
    21a6:	8b 4d 0c             	mov    0xc(%ebp),%ecx
    21a9:	01 f3                	add    %esi,%ebx
    21ab:	57                   	push   %edi
    21ac:	51                   	push   %ecx
    21ad:	53                   	push   %ebx
    21ae:	e8 6d ff 01 00       	call   22120 <memcpy@plt>
    21b3:	8b 45 e4             	mov    -0x1c(%ebp),%eax
    21b6:	c6 04 06 00          	movb   $0x0,(%esi,%eax,1)
    21ba:	8d 65 f4             	lea    -0xc(%ebp),%esp
    21bd:	89 f0                	mov    %esi,%eax
    21bf:	5b                   	pop    %ebx
    21c0:	5e                   	pop    %esi
    21c1:	5f                   	pop    %edi
    21c2:	5d                   	pop    %ebp
    21c3:	c3                   	ret    
    21c4:	83 ec 0c             	sub    $0xc,%esp
    21c7:	68 30 d7 01 00       	push   $0x1d730
    21cc:	e8 bf fe 01 00       	call   22090 <printf@plt>
    21d1:	c7 04 24 01 00 00 00 	movl   $0x1,(%esp)
    21d8:	e8 f3 00 02 00       	call   222d0 <exit@plt>
    21dd:	8d 76 00             	lea    0x0(%esi),%esi

000021e0 <os_str_aslice>:
    21e0:	55                   	push   %ebp
    21e1:	89 e5                	mov    %esp,%ebp
    21e3:	57                   	push   %edi
    21e4:	56                   	push   %esi
    21e5:	53                   	push   %ebx
    21e6:	83 ec 28             	sub    $0x28,%esp
    21e9:	8b 75 08             	mov    0x8(%ebp),%esi
    21ec:	8b 5d 0c             	mov    0xc(%ebp),%ebx
    21ef:	8b 45 10             	mov    0x10(%ebp),%eax
    21f2:	56                   	push   %esi
    21f3:	01 c3                	add    %eax,%ebx
    21f5:	e8 96 00 02 00       	call   22290 <str_length@plt>
    21fa:	83 c4 10             	add    $0x10,%esp
    21fd:	39 c3                	cmp    %eax,%ebx
    21ff:	77 79                	ja     227a <os_str_aslice+0x9a>
    2201:	8b 45 0c             	mov    0xc(%ebp),%eax
    2204:	31 db                	xor    %ebx,%ebx
    2206:	c7 45 e4 00 00 00 00 	movl   $0x0,-0x1c(%ebp)
    220d:	8d 7d e4             	lea    -0x1c(%ebp),%edi
    2210:	85 c0                	test   %eax,%eax
    2212:	74 20                	je     2234 <os_str_aslice+0x54>
    2214:	8d 74 26 00          	lea    0x0(%esi,%eiz,1),%esi
    2218:	50                   	push   %eax
    2219:	6a ff                	push   $0xffffffff
    221b:	57                   	push   %edi
    221c:	56                   	push   %esi
    221d:	e8 be fe 01 00       	call   220e0 <str_decode@plt>
    2222:	83 c4 10             	add    $0x10,%esp
    2225:	85 c0                	test   %eax,%eax
    2227:	74 2d                	je     2256 <os_str_aslice+0x76>
    2229:	83 f8 3f             	cmp    $0x3f,%eax
    222c:	74 3a                	je     2268 <os_str_aslice+0x88>
    222e:	43                   	inc    %ebx
    222f:	39 5d 0c             	cmp    %ebx,0xc(%ebp)
    2232:	75 e4                	jne    2218 <os_str_aslice+0x38>
    2234:	8b 55 10             	mov    0x10(%ebp),%edx
    2237:	50                   	push   %eax
    2238:	50                   	push   %eax
    2239:	52                   	push   %edx
    223a:	56                   	push   %esi
    223b:	e8 c0 00 02 00       	call   22300 <str_lsize@plt>
    2240:	8b 7d e4             	mov    -0x1c(%ebp),%edi
    2243:	59                   	pop    %ecx
    2244:	01 fe                	add    %edi,%esi
    2246:	5b                   	pop    %ebx
    2247:	50                   	push   %eax
    2248:	56                   	push   %esi
    2249:	e8 a2 fe 01 00       	call   220f0 <str_ndup@plt>
    224e:	8d 65 f4             	lea    -0xc(%ebp),%esp
    2251:	5b                   	pop    %ebx
    2252:	5e                   	pop    %esi
    2253:	5f                   	pop    %edi
    2254:	5d                   	pop    %ebp
    2255:	c3                   	ret    
    2256:	50                   	push   %eax
    2257:	6a 67                	push   $0x67
    2259:	68 4a d7 01 00       	push   $0x1d74a
    225e:	68 5b d7 01 00       	push   $0x1d75b
    2263:	e8 38 ff 01 00       	call   221a0 <assert_abort@plt>
    2268:	50                   	push   %eax
    2269:	6a 68                	push   $0x68
    226b:	68 4a d7 01 00       	push   $0x1d74a
    2270:	68 65 d7 01 00       	push   $0x1d765
    2275:	e8 26 ff 01 00       	call   221a0 <assert_abort@plt>
    227a:	50                   	push   %eax
    227b:	6a 62                	push   $0x62
    227d:	68 4a d7 01 00       	push   $0x1d74a
    2282:	68 b4 d7 01 00       	push   $0x1d7b4
    2287:	e8 14 ff 01 00       	call   221a0 <assert_abort@plt>
    228c:	8d 74 26 00          	lea    0x0(%esi,%eiz,1),%esi

00002290 <os_str_cmp>:
    2290:	55                   	push   %ebp
    2291:	89 e5                	mov    %esp,%ebp
    2293:	5d                   	pop    %ebp
    2294:	e9 77 ff 01 00       	jmp    22210 <str_cmp@plt>
    2299:	8d b4 26 00 00 00 00 	lea    0x0(%esi,%eiz,1),%esi

000022a0 <os_str_length>:
    22a0:	55                   	push   %ebp
    22a1:	89 e5                	mov    %esp,%ebp
    22a3:	5d                   	pop    %ebp
    22a4:	e9 e7 ff 01 00       	jmp    22290 <str_length@plt>
    22a9:	8d b4 26 00 00 00 00 	lea    0x0(%esi,%eiz,1),%esi

000022b0 <os_str_dup>:
    22b0:	55                   	push   %ebp
    22b1:	89 e5                	mov    %esp,%ebp
    22b3:	5d                   	pop    %ebp
    22b4:	e9 17 ff 01 00       	jmp    221d0 <str_dup@plt>
    22b9:	8d b4 26 00 00 00 00 	lea    0x0(%esi,%eiz,1),%esi

000022c0 <os_str_get_char>:
    22c0:	55                   	push   %ebp
    22c1:	89 e5                	mov    %esp,%ebp
    22c3:	57                   	push   %edi
    22c4:	56                   	push   %esi
    22c5:	53                   	push   %ebx
    22c6:	83 ec 1c             	sub    $0x1c,%esp
    22c9:	8b 55 0c             	mov    0xc(%ebp),%edx
    22cc:	8b 75 08             	mov    0x8(%ebp),%esi
    22cf:	85 d2                	test   %edx,%edx
    22d1:	78 3d                	js     2310 <os_str_get_char+0x50>
    22d3:	c7 45 e4 00 00 00 00 	movl   $0x0,-0x1c(%ebp)
    22da:	31 db                	xor    %ebx,%ebx
    22dc:	8d 7d e4             	lea    -0x1c(%ebp),%edi
    22df:	90                   	nop
    22e0:	50                   	push   %eax
    22e1:	6a ff                	push   $0xffffffff
    22e3:	57                   	push   %edi
    22e4:	56                   	push   %esi
    22e5:	e8 f6 fd 01 00       	call   220e0 <str_decode@plt>
    22ea:	83 c4 10             	add    $0x10,%esp
    22ed:	85 c0                	test   %eax,%eax
    22ef:	74 1f                	je     2310 <os_str_get_char+0x50>
    22f1:	83 f8 3f             	cmp    $0x3f,%eax
    22f4:	74 2a                	je     2320 <os_str_get_char+0x60>
    22f6:	43                   	inc    %ebx
    22f7:	39 5d 0c             	cmp    %ebx,0xc(%ebp)
    22fa:	7d e4                	jge    22e0 <os_str_get_char+0x20>
    22fc:	8b 55 10             	mov    0x10(%ebp),%edx
    22ff:	89 02                	mov    %eax,(%edx)
    2301:	8d 65 f4             	lea    -0xc(%ebp),%esp
    2304:	31 c0                	xor    %eax,%eax
    2306:	5b                   	pop    %ebx
    2307:	5e                   	pop    %esi
    2308:	5f                   	pop    %edi
    2309:	5d                   	pop    %ebp
    230a:	c3                   	ret    
    230b:	90                   	nop
    230c:	8d 74 26 00          	lea    0x0(%esi,%eiz,1),%esi
    2310:	8d 65 f4             	lea    -0xc(%ebp),%esp
    2313:	b8 f2 ff ff ff       	mov    $0xfffffff2,%eax
    2318:	5b                   	pop    %ebx
    2319:	5e                   	pop    %esi
    231a:	5f                   	pop    %edi
    231b:	5d                   	pop    %ebp
    231c:	c3                   	ret    
    231d:	8d 76 00             	lea    0x0(%esi),%esi
    2320:	8d 65 f4             	lea    -0xc(%ebp),%esp
    2323:	b8 f6 fe ff ff       	mov    $0xfffffef6,%eax
    2328:	5b                   	pop    %ebx
    2329:	5e                   	pop    %esi
    232a:	5f                   	pop    %edi
    232b:	5d                   	pop    %ebp
    232c:	c3                   	ret    
    232d:	8d 76 00             	lea    0x0(%esi),%esi

00002330 <os_chr_to_astr>:
    2330:	55                   	push   %ebp
    2331:	89 e5                	mov    %esp,%ebp
    2333:	53                   	push   %ebx
    2334:	83 ec 20             	sub    $0x20,%esp
    2337:	6a 05                	push   $0x5
    2339:	e8 02 fe 01 00       	call   22140 <malloc@plt>
    233e:	83 c4 10             	add    $0x10,%esp
    2341:	85 c0                	test   %eax,%eax
    2343:	74 2e                	je     2373 <os_chr_to_astr+0x43>
    2345:	89 c3                	mov    %eax,%ebx
    2347:	8d 45 f4             	lea    -0xc(%ebp),%eax
    234a:	6a 04                	push   $0x4
    234c:	50                   	push   %eax
    234d:	8b 45 08             	mov    0x8(%ebp),%eax
    2350:	53                   	push   %ebx
    2351:	c7 45 f4 00 00 00 00 	movl   $0x0,-0xc(%ebp)
    2358:	50                   	push   %eax
    2359:	e8 82 ff 01 00       	call   222e0 <chr_encode@plt>
    235e:	83 c4 10             	add    $0x10,%esp
    2361:	85 c0                	test   %eax,%eax
    2363:	75 27                	jne    238c <os_chr_to_astr+0x5c>
    2365:	8b 45 f4             	mov    -0xc(%ebp),%eax
    2368:	c6 04 03 00          	movb   $0x0,(%ebx,%eax,1)
    236c:	89 d8                	mov    %ebx,%eax
    236e:	8b 5d fc             	mov    -0x4(%ebp),%ebx
    2371:	c9                   	leave  
    2372:	c3                   	ret    
    2373:	83 ec 0c             	sub    $0xc,%esp
    2376:	68 30 d7 01 00       	push   $0x1d730
    237b:	e8 10 fd 01 00       	call   22090 <printf@plt>
    2380:	c7 04 24 01 00 00 00 	movl   $0x1,(%esp)
    2387:	e8 44 ff 01 00       	call   222d0 <exit@plt>
    238c:	83 ec 0c             	sub    $0xc,%esp
    238f:	68 74 d7 01 00       	push   $0x1d774
    2394:	e8 f7 fc 01 00       	call   22090 <printf@plt>
    2399:	c7 04 24 01 00 00 00 	movl   $0x1,(%esp)
    23a0:	e8 2b ff 01 00       	call   222d0 <exit@plt>
    23a5:	8d 74 26 00          	lea    0x0(%esi,%eiz,1),%esi
    23a9:	8d bc 27 00 00 00 00 	lea    0x0(%edi,%eiz,1),%edi

000023b0 <os_input_disp_help>:
    23b0:	55                   	push   %ebp
    23b1:	89 e5                	mov    %esp,%ebp
    23b3:	83 ec 14             	sub    $0x14,%esp
    23b6:	68 8e d7 01 00       	push   $0x1d78e
    23bb:	e8 d0 fc 01 00       	call   22090 <printf@plt>
    23c0:	83 c4 10             	add    $0x10,%esp
    23c3:	c9                   	leave  
    23c4:	c3                   	ret    
    23c5:	8d 74 26 00          	lea    0x0(%esi,%eiz,1),%esi
    23c9:	8d bc 27 00 00 00 00 	lea    0x0(%edi,%eiz,1),%edi

000023d0 <os_input_line>:
    23d0:	55                   	push   %ebp
    23d1:	89 e5                	mov    %esp,%ebp
    23d3:	57                   	push   %edi
    23d4:	56                   	push   %esi
    23d5:	53                   	push   %ebx
    23d6:	83 ec 2c             	sub    $0x2c,%esp
    23d9:	a1 c0 3e 02 00       	mov    0x23ec0,%eax
    23de:	85 c0                	test   %eax,%eax
    23e0:	0f 84 a2 00 00 00    	je     2488 <os_input_line+0xb8>
    23e6:	8d 55 e4             	lea    -0x1c(%ebp),%edx
    23e9:	56                   	push   %esi
    23ea:	56                   	push   %esi
    23eb:	52                   	push   %edx
    23ec:	50                   	push   %eax
    23ed:	e8 6e ab 01 00       	call   1cf60 <tinput_read>
    23f2:	83 c4 10             	add    $0x10,%esp
    23f5:	89 c6                	mov    %eax,%esi
    23f7:	83 f8 ff             	cmp    $0xffffffff,%eax
    23fa:	0f 84 b0 00 00 00    	je     24b0 <os_input_line+0xe0>
    2400:	85 c0                	test   %eax,%eax
    2402:	0f 85 c8 00 00 00    	jne    24d0 <os_input_line+0x100>
    2408:	83 ec 0c             	sub    $0xc,%esp
    240b:	8b 4d e4             	mov    -0x1c(%ebp),%ecx
    240e:	89 4d cc             	mov    %ecx,-0x34(%ebp)
    2411:	51                   	push   %ecx
    2412:	e8 69 fe 01 00       	call   22280 <str_size@plt>
    2417:	c7 04 24 82 da 01 00 	movl   $0x1da82,(%esp)
    241e:	89 c3                	mov    %eax,%ebx
    2420:	e8 5b fe 01 00       	call   22280 <str_size@plt>
    2425:	89 45 d4             	mov    %eax,-0x2c(%ebp)
    2428:	01 d8                	add    %ebx,%eax
    242a:	89 45 d0             	mov    %eax,-0x30(%ebp)
    242d:	40                   	inc    %eax
    242e:	89 04 24             	mov    %eax,(%esp)
    2431:	e8 0a fd 01 00       	call   22140 <malloc@plt>
    2436:	83 c4 10             	add    $0x10,%esp
    2439:	89 c7                	mov    %eax,%edi
    243b:	85 c0                	test   %eax,%eax
    243d:	8b 4d cc             	mov    -0x34(%ebp),%ecx
    2440:	0f 84 91 00 00 00    	je     24d7 <os_input_line+0x107>
    2446:	50                   	push   %eax
    2447:	53                   	push   %ebx
    2448:	51                   	push   %ecx
    2449:	57                   	push   %edi
    244a:	e8 d1 fc 01 00       	call   22120 <memcpy@plt>
    244f:	83 c4 0c             	add    $0xc,%esp
    2452:	8b 55 d4             	mov    -0x2c(%ebp),%edx
    2455:	01 fb                	add    %edi,%ebx
    2457:	52                   	push   %edx
    2458:	68 82 da 01 00       	push   $0x1da82
    245d:	53                   	push   %ebx
    245e:	e8 bd fc 01 00       	call   22120 <memcpy@plt>
    2463:	8b 45 d0             	mov    -0x30(%ebp),%eax
    2466:	8b 5d e4             	mov    -0x1c(%ebp),%ebx
    2469:	c6 04 07 00          	movb   $0x0,(%edi,%eax,1)
    246d:	8b 45 0c             	mov    0xc(%ebp),%eax
    2470:	89 38                	mov    %edi,(%eax)
    2472:	59                   	pop    %ecx
    2473:	53                   	push   %ebx
    2474:	e8 97 fe 01 00       	call   22310 <free@plt>
    2479:	83 c4 10             	add    $0x10,%esp
    247c:	8d 65 f4             	lea    -0xc(%ebp),%esp
    247f:	89 f0                	mov    %esi,%eax
    2481:	5b                   	pop    %ebx
    2482:	5e                   	pop    %esi
    2483:	5f                   	pop    %edi
    2484:	5d                   	pop    %ebp
    2485:	c3                   	ret    
    2486:	66 90                	xchg   %ax,%ax
    2488:	e8 53 90 01 00       	call   1b4e0 <tinput_new>
    248d:	a3 c0 3e 02 00       	mov    %eax,0x23ec0
    2492:	85 c0                	test   %eax,%eax
    2494:	74 3a                	je     24d0 <os_input_line+0x100>
    2496:	8b 55 08             	mov    0x8(%ebp),%edx
    2499:	57                   	push   %edi
    249a:	57                   	push   %edi
    249b:	52                   	push   %edx
    249c:	50                   	push   %eax
    249d:	e8 ce 90 01 00       	call   1b570 <tinput_set_prompt>
    24a2:	a1 c0 3e 02 00       	mov    0x23ec0,%eax
    24a7:	83 c4 10             	add    $0x10,%esp
    24aa:	e9 37 ff ff ff       	jmp    23e6 <os_input_line+0x16>
    24af:	90                   	nop
    24b0:	83 ec 0c             	sub    $0xc,%esp
    24b3:	31 f6                	xor    %esi,%esi
    24b5:	68 83 da 01 00       	push   $0x1da83
    24ba:	e8 11 fd 01 00       	call   221d0 <str_dup@plt>
    24bf:	8b 55 0c             	mov    0xc(%ebp),%edx
    24c2:	83 c4 10             	add    $0x10,%esp
    24c5:	89 02                	mov    %eax,(%edx)
    24c7:	eb b3                	jmp    247c <os_input_line+0xac>
    24c9:	8d b4 26 00 00 00 00 	lea    0x0(%esi,%eiz,1),%esi
    24d0:	be f6 fe ff ff       	mov    $0xfffffef6,%esi
    24d5:	eb a5                	jmp    247c <os_input_line+0xac>
    24d7:	83 ec 0c             	sub    $0xc,%esp
    24da:	68 30 d7 01 00       	push   $0x1d730
    24df:	e8 ac fb 01 00       	call   22090 <printf@plt>
    24e4:	c7 04 24 01 00 00 00 	movl   $0x1,(%esp)
    24eb:	e8 e0 fd 01 00       	call   222d0 <exit@plt>

000024f0 <os_exec>:
    24f0:	55                   	push   %ebp
    24f1:	89 e5                	mov    %esp,%ebp
    24f3:	56                   	push   %esi
    24f4:	53                   	push   %ebx
    24f5:	83 ec 40             	sub    $0x40,%esp
    24f8:	8d 45 c8             	lea    -0x38(%ebp),%eax
    24fb:	8b 5d 08             	mov    0x8(%ebp),%ebx
    24fe:	8d 75 d0             	lea    -0x30(%ebp),%esi
    2501:	53                   	push   %ebx
    2502:	8b 13                	mov    (%ebx),%edx
    2504:	52                   	push   %edx
    2505:	56                   	push   %esi
    2506:	50                   	push   %eax
    2507:	e8 54 fd 01 00       	call   22260 <task_spawnv@plt>
    250c:	83 c4 10             	add    $0x10,%esp
    250f:	85 c0                	test   %eax,%eax
    2511:	75 18                	jne    252b <os_exec+0x3b>
    2513:	50                   	push   %eax
    2514:	8d 45 c4             	lea    -0x3c(%ebp),%eax
    2517:	50                   	push   %eax
    2518:	8d 45 c0             	lea    -0x40(%ebp),%eax
    251b:	50                   	push   %eax
    251c:	56                   	push   %esi
    251d:	e8 8e fb 01 00       	call   220b0 <task_wait@plt>
    2522:	8d 65 f8             	lea    -0x8(%ebp),%esp
    2525:	31 c0                	xor    %eax,%eax
    2527:	5b                   	pop    %ebx
    2528:	5e                   	pop    %esi
    2529:	5d                   	pop    %ebp
    252a:	c3                   	ret    
    252b:	83 ec 0c             	sub    $0xc,%esp
    252e:	50                   	push   %eax
    252f:	e8 7c fd 01 00       	call   222b0 <str_error@plt>
    2534:	83 c4 0c             	add    $0xc,%esp
    2537:	50                   	push   %eax
    2538:	ff 33                	pushl  (%ebx)
    253a:	68 d8 d7 01 00       	push   $0x1d7d8
    253f:	e8 4c fb 01 00       	call   22090 <printf@plt>
    2544:	c7 04 24 01 00 00 00 	movl   $0x1,(%esp)
    254b:	e8 80 fd 01 00       	call   222d0 <exit@plt>

00002550 <os_store_ef_path>:
    2550:	55                   	push   %ebp
    2551:	89 e5                	mov    %esp,%ebp
    2553:	5d                   	pop    %ebp
    2554:	c3                   	ret    
    2555:	8d 74 26 00          	lea    0x0(%esi,%eiz,1),%esi
    2559:	8d bc 27 00 00 00 00 	lea    0x0(%edi,%eiz,1),%edi

00002560 <os_get_lib_path>:
    2560:	55                   	push   %ebp
    2561:	89 e5                	mov    %esp,%ebp
    2563:	83 ec 14             	sub    $0x14,%esp
    2566:	68 a5 d7 01 00       	push   $0x1d7a5
    256b:	e8 60 fc 01 00       	call   221d0 <str_dup@plt>
    2570:	c9                   	leave  
    2571:	c3                   	ret    
    2572:	66 90                	xchg   %ax,%ax
    2574:	66 90                	xchg   %ax,%ax
    2576:	66 90                	xchg   %ax,%ax
    2578:	66 90                	xchg   %ax,%ax
    257a:	66 90                	xchg   %ax,%ax
    257c:	66 90                	xchg   %ax,%ax
    257e:	66 90                	xchg   %ax,%ax

00002580 <ancr_csi_process>:
    2580:	8b 4a 34             	mov    0x34(%edx),%ecx
    2583:	83 f9 02             	cmp    $0x2,%ecx
    2586:	0f 84 00 01 00 00    	je     268c <ancr_csi_process+0x10c>
    258c:	55                   	push   %ebp
    258d:	89 e5                	mov    %esp,%ebp
    258f:	57                   	push   %edi
    2590:	56                   	push   %esi
    2591:	53                   	push   %ebx
    2592:	83 ec 1c             	sub    $0x1c,%esp
    2595:	89 d3                	mov    %edx,%ebx
    2597:	89 c6                	mov    %eax,%esi
    2599:	49                   	dec    %ecx
    259a:	0f 84 82 02 00 00    	je     2822 <ancr_csi_process+0x2a2>
    25a0:	83 ec 0c             	sub    $0xc,%esp
    25a3:	c7 42 34 01 00 00 00 	movl   $0x1,0x34(%edx)
    25aa:	52                   	push   %edx
    25ab:	e8 80 6e 01 00       	call   19430 <csi_to_symbol>
    25b0:	8b 78 08             	mov    0x8(%eax),%edi
    25b3:	58                   	pop    %eax
    25b4:	8b 46 04             	mov    0x4(%esi),%eax
    25b7:	50                   	push   %eax
    25b8:	e8 13 17 00 00       	call   3cd0 <builtin_get_gf_class>
    25bd:	83 c4 10             	add    $0x10,%esp
    25c0:	89 45 dc             	mov    %eax,-0x24(%ebp)
    25c3:	39 c3                	cmp    %eax,%ebx
    25c5:	0f 84 1d 02 00 00    	je     27e8 <ancr_csi_process+0x268>
    25cb:	85 ff                	test   %edi,%edi
    25cd:	74 09                	je     25d8 <ancr_csi_process+0x58>
    25cf:	89 fa                	mov    %edi,%edx
    25d1:	89 f0                	mov    %esi,%eax
    25d3:	e8 a8 ff ff ff       	call   2580 <ancr_csi_process>
    25d8:	83 ec 0c             	sub    $0xc,%esp
    25db:	8d 43 18             	lea    0x18(%ebx),%eax
    25de:	89 45 e0             	mov    %eax,-0x20(%ebp)
    25e1:	50                   	push   %eax
    25e2:	e8 b9 30 00 00       	call   56a0 <sbi_list_first>
    25e7:	89 c7                	mov    %eax,%edi
    25e9:	8b 03                	mov    (%ebx),%eax
    25eb:	83 c4 10             	add    $0x10,%esp
    25ee:	85 c0                	test   %eax,%eax
    25f0:	0f 84 9a 00 00 00    	je     2690 <ancr_csi_process+0x110>
    25f6:	85 ff                	test   %edi,%edi
    25f8:	74 7e                	je     2678 <ancr_csi_process+0xf8>
    25fa:	89 5d e4             	mov    %ebx,-0x1c(%ebp)
    25fd:	83 ec 0c             	sub    $0xc,%esp
    2600:	8b 45 e4             	mov    -0x1c(%ebp),%eax
    2603:	8b 5f 08             	mov    0x8(%edi),%ebx
    2606:	50                   	push   %eax
    2607:	e8 24 6e 01 00       	call   19430 <csi_to_symbol>
    260c:	83 c4 0c             	add    $0xc,%esp
    260f:	8b 40 08             	mov    0x8(%eax),%eax
    2612:	53                   	push   %ebx
    2613:	50                   	push   %eax
    2614:	56                   	push   %esi
    2615:	e8 86 72 01 00       	call   198a0 <symbol_xlookup_in_csi>
    261a:	89 04 24             	mov    %eax,(%esp)
    261d:	e8 ee 6d 01 00       	call   19410 <symbol_to_csi>
    2622:	83 c4 10             	add    $0x10,%esp
    2625:	89 c3                	mov    %eax,%ebx
    2627:	85 c0                	test   %eax,%eax
    2629:	0f 84 de 01 00 00    	je     280d <ancr_csi_process+0x28d>
    262f:	89 c2                	mov    %eax,%edx
    2631:	89 f0                	mov    %esi,%eax
    2633:	e8 48 ff ff ff       	call   2580 <ancr_csi_process>
    2638:	8b 03                	mov    (%ebx),%eax
    263a:	85 c0                	test   %eax,%eax
    263c:	0f 84 be 00 00 00    	je     2700 <ancr_csi_process+0x180>
    2642:	48                   	dec    %eax
    2643:	75 1b                	jne    2660 <ancr_csi_process+0xe0>
    2645:	53                   	push   %ebx
    2646:	68 e6 00 00 00       	push   $0xe6
    264b:	68 a1 d8 01 00       	push   $0x1d8a1
    2650:	68 d4 d8 01 00       	push   $0x1d8d4
    2655:	e8 46 fb 01 00       	call   221a0 <assert_abort@plt>
    265a:	8d b6 00 00 00 00    	lea    0x0(%esi),%esi
    2660:	8b 4d e0             	mov    -0x20(%ebp),%ecx
    2663:	52                   	push   %edx
    2664:	52                   	push   %edx
    2665:	57                   	push   %edi
    2666:	51                   	push   %ecx
    2667:	e8 a4 30 00 00       	call   5710 <list_next>
    266c:	83 c4 10             	add    $0x10,%esp
    266f:	89 c7                	mov    %eax,%edi
    2671:	85 c0                	test   %eax,%eax
    2673:	75 88                	jne    25fd <ancr_csi_process+0x7d>
    2675:	8b 5d e4             	mov    -0x1c(%ebp),%ebx
    2678:	8b 45 dc             	mov    -0x24(%ebp),%eax
    267b:	c7 43 34 02 00 00 00 	movl   $0x2,0x34(%ebx)
    2682:	89 43 24             	mov    %eax,0x24(%ebx)
    2685:	8d 65 f4             	lea    -0xc(%ebp),%esp
    2688:	5b                   	pop    %ebx
    2689:	5e                   	pop    %esi
    268a:	5f                   	pop    %edi
    268b:	5d                   	pop    %ebp
    268c:	c3                   	ret    
    268d:	8d 76 00             	lea    0x0(%esi),%esi
    2690:	85 ff                	test   %edi,%edi
    2692:	74 e4                	je     2678 <ancr_csi_process+0xf8>
    2694:	83 ec 0c             	sub    $0xc,%esp
    2697:	8b 57 08             	mov    0x8(%edi),%edx
    269a:	89 55 e4             	mov    %edx,-0x1c(%ebp)
    269d:	53                   	push   %ebx
    269e:	e8 8d 6d 01 00       	call   19430 <csi_to_symbol>
    26a3:	83 c4 0c             	add    $0xc,%esp
    26a6:	8b 55 e4             	mov    -0x1c(%ebp),%edx
    26a9:	8b 48 08             	mov    0x8(%eax),%ecx
    26ac:	52                   	push   %edx
    26ad:	51                   	push   %ecx
    26ae:	56                   	push   %esi
    26af:	e8 ec 71 01 00       	call   198a0 <symbol_xlookup_in_csi>
    26b4:	89 04 24             	mov    %eax,(%esp)
    26b7:	e8 54 6d 01 00       	call   19410 <symbol_to_csi>
    26bc:	83 c4 10             	add    $0x10,%esp
    26bf:	89 c1                	mov    %eax,%ecx
    26c1:	85 c0                	test   %eax,%eax
    26c3:	0f 84 44 01 00 00    	je     280d <ancr_csi_process+0x28d>
    26c9:	8b 00                	mov    (%eax),%eax
    26cb:	85 c0                	test   %eax,%eax
    26cd:	0f 85 27 ff ff ff    	jne    25fa <ancr_csi_process+0x7a>
    26d3:	89 f0                	mov    %esi,%eax
    26d5:	89 ca                	mov    %ecx,%edx
    26d7:	89 4d e4             	mov    %ecx,-0x1c(%ebp)
    26da:	e8 a1 fe ff ff       	call   2580 <ancr_csi_process>
    26df:	50                   	push   %eax
    26e0:	50                   	push   %eax
    26e1:	8b 45 e0             	mov    -0x20(%ebp),%eax
    26e4:	57                   	push   %edi
    26e5:	50                   	push   %eax
    26e6:	e8 25 30 00 00       	call   5710 <list_next>
    26eb:	8b 4d e4             	mov    -0x1c(%ebp),%ecx
    26ee:	89 c7                	mov    %eax,%edi
    26f0:	83 c4 10             	add    $0x10,%esp
    26f3:	89 4d dc             	mov    %ecx,-0x24(%ebp)
    26f6:	e9 fb fe ff ff       	jmp    25f6 <ancr_csi_process+0x76>
    26fb:	90                   	nop
    26fc:	8d 74 26 00          	lea    0x0(%esi,%eiz,1),%esi
    2700:	89 d9                	mov    %ebx,%ecx
    2702:	8b 5d e4             	mov    -0x1c(%ebp),%ebx
    2705:	8b 03                	mov    (%ebx),%eax
    2707:	83 f8 01             	cmp    $0x1,%eax
    270a:	0f 84 e8 00 00 00    	je     27f8 <ancr_csi_process+0x278>
    2710:	72 6e                	jb     2780 <ancr_csi_process+0x200>
    2712:	83 f8 02             	cmp    $0x2,%eax
    2715:	0f 85 2a ff ff ff    	jne    2645 <ancr_csi_process+0xc5>
    271b:	8b 43 04             	mov    0x4(%ebx),%eax
    271e:	83 ec 0c             	sub    $0xc,%esp
    2721:	89 4d e4             	mov    %ecx,-0x1c(%ebp)
    2724:	8b 70 04             	mov    0x4(%eax),%esi
    2727:	56                   	push   %esi
    2728:	e8 63 1b 00 00       	call   4290 <cspan_print>
    272d:	c7 04 24 68 d8 01 00 	movl   $0x1d868,(%esp)
    2734:	e8 57 f9 01 00       	call   22090 <printf@plt>
    2739:	89 1c 24             	mov    %ebx,(%esp)
    273c:	e8 ef 6c 01 00       	call   19430 <csi_to_symbol>
    2741:	89 04 24             	mov    %eax,(%esp)
    2744:	e8 f7 76 01 00       	call   19e40 <symbol_print_fqn>
    2749:	c7 04 24 bd d8 01 00 	movl   $0x1d8bd,(%esp)
    2750:	e8 3b f9 01 00       	call   22090 <printf@plt>
    2755:	8b 4d e4             	mov    -0x1c(%ebp),%ecx
    2758:	89 0c 24             	mov    %ecx,(%esp)
    275b:	e8 d0 6c 01 00       	call   19430 <csi_to_symbol>
    2760:	89 04 24             	mov    %eax,(%esp)
    2763:	e8 d8 76 01 00       	call   19e40 <symbol_print_fqn>
    2768:	c7 04 24 cf d8 01 00 	movl   $0x1d8cf,(%esp)
    276f:	e8 1c f9 01 00       	call   22090 <printf@plt>
    2774:	c7 04 24 01 00 00 00 	movl   $0x1,(%esp)
    277b:	e8 50 fb 01 00       	call   222d0 <exit@plt>
    2780:	8b 43 04             	mov    0x4(%ebx),%eax
    2783:	83 ec 0c             	sub    $0xc,%esp
    2786:	89 4d e4             	mov    %ecx,-0x1c(%ebp)
    2789:	8b 40 04             	mov    0x4(%eax),%eax
    278c:	50                   	push   %eax
    278d:	e8 fe 1a 00 00       	call   4290 <cspan_print>
    2792:	c7 04 24 30 d8 01 00 	movl   $0x1d830,(%esp)
    2799:	e8 f2 f8 01 00       	call   22090 <printf@plt>
    279e:	89 1c 24             	mov    %ebx,(%esp)
    27a1:	e8 8a 6c 01 00       	call   19430 <csi_to_symbol>
    27a6:	89 04 24             	mov    %eax,(%esp)
    27a9:	e8 92 76 01 00       	call   19e40 <symbol_print_fqn>
    27ae:	c7 04 24 bd d8 01 00 	movl   $0x1d8bd,(%esp)
    27b5:	e8 d6 f8 01 00       	call   22090 <printf@plt>
    27ba:	8b 4d e4             	mov    -0x1c(%ebp),%ecx
    27bd:	89 0c 24             	mov    %ecx,(%esp)
    27c0:	e8 6b 6c 01 00       	call   19430 <csi_to_symbol>
    27c5:	89 04 24             	mov    %eax,(%esp)
    27c8:	e8 73 76 01 00       	call   19e40 <symbol_print_fqn>
    27cd:	c7 04 24 cf d8 01 00 	movl   $0x1d8cf,(%esp)
    27d4:	e8 b7 f8 01 00       	call   22090 <printf@plt>
    27d9:	c7 04 24 01 00 00 00 	movl   $0x1,(%esp)
    27e0:	e8 eb fa 01 00       	call   222d0 <exit@plt>
    27e5:	8d 76 00             	lea    0x0(%esi),%esi
    27e8:	c7 45 dc 00 00 00 00 	movl   $0x0,-0x24(%ebp)
    27ef:	e9 d7 fd ff ff       	jmp    25cb <ancr_csi_process+0x4b>
    27f4:	8d 74 26 00          	lea    0x0(%esi,%eiz,1),%esi
    27f8:	57                   	push   %edi
    27f9:	68 d9 00 00 00       	push   $0xd9
    27fe:	68 a1 d8 01 00       	push   $0x1d8a1
    2803:	68 d4 d8 01 00       	push   $0x1d8d4
    2808:	e8 93 f9 01 00       	call   221a0 <assert_abort@plt>
    280d:	52                   	push   %edx
    280e:	68 07 01 00 00       	push   $0x107
    2813:	68 a1 d8 01 00       	push   $0x1d8a1
    2818:	68 ac d8 01 00       	push   $0x1d8ac
    281d:	e8 7e f9 01 00       	call   221a0 <assert_abort@plt>
    2822:	83 ec 0c             	sub    $0xc,%esp
    2825:	68 fc d7 01 00       	push   $0x1d7fc
    282a:	e8 61 f8 01 00       	call   22090 <printf@plt>
    282f:	83 c4 10             	add    $0x10,%esp
    2832:	89 d8                	mov    %ebx,%eax
    2834:	89 5d e4             	mov    %ebx,-0x1c(%ebp)
    2837:	83 ec 0c             	sub    $0xc,%esp
    283a:	50                   	push   %eax
    283b:	e8 f0 6b 01 00       	call   19430 <csi_to_symbol>
    2840:	89 c3                	mov    %eax,%ebx
    2842:	89 04 24             	mov    %eax,(%esp)
    2845:	e8 f6 75 01 00       	call   19e40 <symbol_print_fqn>
    284a:	c7 04 24 9e d8 01 00 	movl   $0x1d89e,(%esp)
    2851:	e8 3a f8 01 00       	call   22090 <printf@plt>
    2856:	8b 5b 08             	mov    0x8(%ebx),%ebx
    2859:	83 c4 10             	add    $0x10,%esp
    285c:	85 db                	test   %ebx,%ebx
    285e:	74 0a                	je     286a <ancr_csi_process+0x2ea>
    2860:	83 7b 34 01          	cmpl   $0x1,0x34(%ebx)
    2864:	0f 84 83 00 00 00    	je     28ed <ancr_csi_process+0x36d>
    286a:	83 ec 0c             	sub    $0xc,%esp
    286d:	6a 18                	push   $0x18
    286f:	e8 2c 2e 00 00       	call   56a0 <sbi_list_first>
    2874:	83 c4 10             	add    $0x10,%esp
    2877:	89 c7                	mov    %eax,%edi
    2879:	85 c0                	test   %eax,%eax
    287b:	74 5b                	je     28d8 <ancr_csi_process+0x358>
    287d:	8d 76 00             	lea    0x0(%esi),%esi
    2880:	50                   	push   %eax
    2881:	8b 47 08             	mov    0x8(%edi),%eax
    2884:	50                   	push   %eax
    2885:	53                   	push   %ebx
    2886:	56                   	push   %esi
    2887:	e8 14 70 01 00       	call   198a0 <symbol_xlookup_in_csi>
    288c:	89 04 24             	mov    %eax,(%esp)
    288f:	e8 7c 6b 01 00       	call   19410 <symbol_to_csi>
    2894:	83 c4 10             	add    $0x10,%esp
    2897:	85 c0                	test   %eax,%eax
    2899:	74 56                	je     28f1 <ancr_csi_process+0x371>
    289b:	83 78 34 01          	cmpl   $0x1,0x34(%eax)
    289f:	75 df                	jne    2880 <ancr_csi_process+0x300>
    28a1:	39 45 e4             	cmp    %eax,-0x1c(%ebp)
    28a4:	75 91                	jne    2837 <ancr_csi_process+0x2b7>
    28a6:	83 ec 0c             	sub    $0xc,%esp
    28a9:	8b 5d e4             	mov    -0x1c(%ebp),%ebx
    28ac:	53                   	push   %ebx
    28ad:	e8 7e 6b 01 00       	call   19430 <csi_to_symbol>
    28b2:	89 04 24             	mov    %eax,(%esp)
    28b5:	e8 86 75 01 00       	call   19e40 <symbol_print_fqn>
    28ba:	c7 04 24 1f 01 02 00 	movl   $0x2011f,(%esp)
    28c1:	e8 ca f7 01 00       	call   22090 <printf@plt>
    28c6:	c7 04 24 01 00 00 00 	movl   $0x1,(%esp)
    28cd:	e8 fe f9 01 00       	call   222d0 <exit@plt>
    28d2:	8d b6 00 00 00 00    	lea    0x0(%esi),%esi
    28d8:	50                   	push   %eax
    28d9:	68 37 01 00 00       	push   $0x137
    28de:	68 a1 d8 01 00       	push   $0x1d8a1
    28e3:	68 dc d8 01 00       	push   $0x1d8dc
    28e8:	e8 b3 f8 01 00       	call   221a0 <assert_abort@plt>
    28ed:	89 d8                	mov    %ebx,%eax
    28ef:	eb b0                	jmp    28a1 <ancr_csi_process+0x321>
    28f1:	50                   	push   %eax
    28f2:	68 2f 01 00 00       	push   $0x12f
    28f7:	68 a1 d8 01 00       	push   $0x1d8a1
    28fc:	68 ac d8 01 00       	push   $0x1d8ac
    2901:	e8 9a f8 01 00       	call   221a0 <assert_abort@plt>
    2906:	8d 76 00             	lea    0x0(%esi),%esi
    2909:	8d bc 27 00 00 00 00 	lea    0x0(%edi,%eiz,1),%edi

00002910 <ancr_csi_dfs>:
    2910:	55                   	push   %ebp
    2911:	89 e5                	mov    %esp,%ebp
    2913:	57                   	push   %edi
    2914:	56                   	push   %esi
    2915:	53                   	push   %ebx
    2916:	83 ec 4c             	sub    $0x4c,%esp
    2919:	89 d3                	mov    %edx,%ebx
    291b:	89 45 e4             	mov    %eax,-0x1c(%ebp)
    291e:	e8 5d fc ff ff       	call   2580 <ancr_csi_process>
    2923:	83 ec 0c             	sub    $0xc,%esp
    2926:	8d 43 38             	lea    0x38(%ebx),%eax
    2929:	89 45 b0             	mov    %eax,-0x50(%ebp)
    292c:	50                   	push   %eax
    292d:	e8 6e 2d 00 00       	call   56a0 <sbi_list_first>
    2932:	83 c4 10             	add    $0x10,%esp
    2935:	89 45 bc             	mov    %eax,-0x44(%ebp)
    2938:	85 c0                	test   %eax,%eax
    293a:	75 29                	jne    2965 <ancr_csi_dfs+0x55>
    293c:	e9 a7 02 00 00       	jmp    2be8 <ancr_csi_dfs+0x2d8>
    2941:	8d b4 26 00 00 00 00 	lea    0x0(%esi,%eiz,1),%esi
    2948:	50                   	push   %eax
    2949:	50                   	push   %eax
    294a:	8b 45 bc             	mov    -0x44(%ebp),%eax
    294d:	50                   	push   %eax
    294e:	8b 45 b0             	mov    -0x50(%ebp),%eax
    2951:	50                   	push   %eax
    2952:	e8 b9 2d 00 00       	call   5710 <list_next>
    2957:	83 c4 10             	add    $0x10,%esp
    295a:	89 45 bc             	mov    %eax,-0x44(%ebp)
    295d:	85 c0                	test   %eax,%eax
    295f:	0f 84 83 02 00 00    	je     2be8 <ancr_csi_dfs+0x2d8>
    2965:	8b 40 08             	mov    0x8(%eax),%eax
    2968:	8b 10                	mov    (%eax),%edx
    296a:	85 d2                	test   %edx,%edx
    296c:	75 da                	jne    2948 <ancr_csi_dfs+0x38>
    296e:	8b 58 04             	mov    0x4(%eax),%ebx
    2971:	8b 45 e4             	mov    -0x1c(%ebp),%eax
    2974:	89 da                	mov    %ebx,%edx
    2976:	e8 05 fc ff ff       	call   2580 <ancr_csi_process>
    297b:	83 ec 0c             	sub    $0xc,%esp
    297e:	8d 43 38             	lea    0x38(%ebx),%eax
    2981:	50                   	push   %eax
    2982:	89 45 ac             	mov    %eax,-0x54(%ebp)
    2985:	e8 16 2d 00 00       	call   56a0 <sbi_list_first>
    298a:	83 c4 10             	add    $0x10,%esp
    298d:	89 45 b8             	mov    %eax,-0x48(%ebp)
    2990:	85 c0                	test   %eax,%eax
    2992:	75 1d                	jne    29b1 <ancr_csi_dfs+0xa1>
    2994:	eb b2                	jmp    2948 <ancr_csi_dfs+0x38>
    2996:	66 90                	xchg   %ax,%ax
    2998:	8b 5d b8             	mov    -0x48(%ebp),%ebx
    299b:	8b 75 ac             	mov    -0x54(%ebp),%esi
    299e:	51                   	push   %ecx
    299f:	51                   	push   %ecx
    29a0:	53                   	push   %ebx
    29a1:	56                   	push   %esi
    29a2:	e8 69 2d 00 00       	call   5710 <list_next>
    29a7:	83 c4 10             	add    $0x10,%esp
    29aa:	89 45 b8             	mov    %eax,-0x48(%ebp)
    29ad:	85 c0                	test   %eax,%eax
    29af:	74 97                	je     2948 <ancr_csi_dfs+0x38>
    29b1:	8b 40 08             	mov    0x8(%eax),%eax
    29b4:	8b 38                	mov    (%eax),%edi
    29b6:	85 ff                	test   %edi,%edi
    29b8:	75 de                	jne    2998 <ancr_csi_dfs+0x88>
    29ba:	8b 58 04             	mov    0x4(%eax),%ebx
    29bd:	8b 45 e4             	mov    -0x1c(%ebp),%eax
    29c0:	89 da                	mov    %ebx,%edx
    29c2:	e8 b9 fb ff ff       	call   2580 <ancr_csi_process>
    29c7:	83 ec 0c             	sub    $0xc,%esp
    29ca:	8d 43 38             	lea    0x38(%ebx),%eax
    29cd:	50                   	push   %eax
    29ce:	89 45 a8             	mov    %eax,-0x58(%ebp)
    29d1:	e8 ca 2c 00 00       	call   56a0 <sbi_list_first>
    29d6:	83 c4 10             	add    $0x10,%esp
    29d9:	89 45 b4             	mov    %eax,-0x4c(%ebp)
    29dc:	85 c0                	test   %eax,%eax
    29de:	75 21                	jne    2a01 <ancr_csi_dfs+0xf1>
    29e0:	eb b6                	jmp    2998 <ancr_csi_dfs+0x88>
    29e2:	8d b6 00 00 00 00    	lea    0x0(%esi),%esi
    29e8:	50                   	push   %eax
    29e9:	50                   	push   %eax
    29ea:	8b 45 b4             	mov    -0x4c(%ebp),%eax
    29ed:	50                   	push   %eax
    29ee:	8b 45 a8             	mov    -0x58(%ebp),%eax
    29f1:	50                   	push   %eax
    29f2:	e8 19 2d 00 00       	call   5710 <list_next>
    29f7:	83 c4 10             	add    $0x10,%esp
    29fa:	89 45 b4             	mov    %eax,-0x4c(%ebp)
    29fd:	85 c0                	test   %eax,%eax
    29ff:	74 97                	je     2998 <ancr_csi_dfs+0x88>
    2a01:	8b 40 08             	mov    0x8(%eax),%eax
    2a04:	8b 10                	mov    (%eax),%edx
    2a06:	85 d2                	test   %edx,%edx
    2a08:	75 de                	jne    29e8 <ancr_csi_dfs+0xd8>
    2a0a:	8b 58 04             	mov    0x4(%eax),%ebx
    2a0d:	8b 45 e4             	mov    -0x1c(%ebp),%eax
    2a10:	89 da                	mov    %ebx,%edx
    2a12:	e8 69 fb ff ff       	call   2580 <ancr_csi_process>
    2a17:	83 ec 0c             	sub    $0xc,%esp
    2a1a:	8d 43 38             	lea    0x38(%ebx),%eax
    2a1d:	50                   	push   %eax
    2a1e:	89 45 c0             	mov    %eax,-0x40(%ebp)
    2a21:	e8 7a 2c 00 00       	call   56a0 <sbi_list_first>
    2a26:	83 c4 10             	add    $0x10,%esp
    2a29:	89 45 c8             	mov    %eax,-0x38(%ebp)
    2a2c:	85 c0                	test   %eax,%eax
    2a2e:	75 21                	jne    2a51 <ancr_csi_dfs+0x141>
    2a30:	eb b6                	jmp    29e8 <ancr_csi_dfs+0xd8>
    2a32:	8d b6 00 00 00 00    	lea    0x0(%esi),%esi
    2a38:	8b 5d c8             	mov    -0x38(%ebp),%ebx
    2a3b:	8b 75 c0             	mov    -0x40(%ebp),%esi
    2a3e:	51                   	push   %ecx
    2a3f:	51                   	push   %ecx
    2a40:	53                   	push   %ebx
    2a41:	56                   	push   %esi
    2a42:	e8 c9 2c 00 00       	call   5710 <list_next>
    2a47:	83 c4 10             	add    $0x10,%esp
    2a4a:	89 45 c8             	mov    %eax,-0x38(%ebp)
    2a4d:	85 c0                	test   %eax,%eax
    2a4f:	74 97                	je     29e8 <ancr_csi_dfs+0xd8>
    2a51:	8b 40 08             	mov    0x8(%eax),%eax
    2a54:	8b 38                	mov    (%eax),%edi
    2a56:	85 ff                	test   %edi,%edi
    2a58:	75 de                	jne    2a38 <ancr_csi_dfs+0x128>
    2a5a:	8b 58 04             	mov    0x4(%eax),%ebx
    2a5d:	8b 45 e4             	mov    -0x1c(%ebp),%eax
    2a60:	89 da                	mov    %ebx,%edx
    2a62:	e8 19 fb ff ff       	call   2580 <ancr_csi_process>
    2a67:	83 ec 0c             	sub    $0xc,%esp
    2a6a:	8d 43 38             	lea    0x38(%ebx),%eax
    2a6d:	50                   	push   %eax
    2a6e:	89 45 c4             	mov    %eax,-0x3c(%ebp)
    2a71:	e8 2a 2c 00 00       	call   56a0 <sbi_list_first>
    2a76:	83 c4 10             	add    $0x10,%esp
    2a79:	89 45 cc             	mov    %eax,-0x34(%ebp)
    2a7c:	85 c0                	test   %eax,%eax
    2a7e:	75 21                	jne    2aa1 <ancr_csi_dfs+0x191>
    2a80:	eb b6                	jmp    2a38 <ancr_csi_dfs+0x128>
    2a82:	8d b6 00 00 00 00    	lea    0x0(%esi),%esi
    2a88:	50                   	push   %eax
    2a89:	50                   	push   %eax
    2a8a:	8b 45 cc             	mov    -0x34(%ebp),%eax
    2a8d:	50                   	push   %eax
    2a8e:	8b 45 c4             	mov    -0x3c(%ebp),%eax
    2a91:	50                   	push   %eax
    2a92:	e8 79 2c 00 00       	call   5710 <list_next>
    2a97:	83 c4 10             	add    $0x10,%esp
    2a9a:	89 45 cc             	mov    %eax,-0x34(%ebp)
    2a9d:	85 c0                	test   %eax,%eax
    2a9f:	74 97                	je     2a38 <ancr_csi_dfs+0x128>
    2aa1:	8b 40 08             	mov    0x8(%eax),%eax
    2aa4:	8b 10                	mov    (%eax),%edx
    2aa6:	85 d2                	test   %edx,%edx
    2aa8:	75 de                	jne    2a88 <ancr_csi_dfs+0x178>
    2aaa:	8b 58 04             	mov    0x4(%eax),%ebx
    2aad:	8b 45 e4             	mov    -0x1c(%ebp),%eax
    2ab0:	89 da                	mov    %ebx,%edx
    2ab2:	e8 c9 fa ff ff       	call   2580 <ancr_csi_process>
    2ab7:	83 ec 0c             	sub    $0xc,%esp
    2aba:	8d 43 38             	lea    0x38(%ebx),%eax
    2abd:	50                   	push   %eax
    2abe:	89 45 d0             	mov    %eax,-0x30(%ebp)
    2ac1:	e8 da 2b 00 00       	call   56a0 <sbi_list_first>
    2ac6:	83 c4 10             	add    $0x10,%esp
    2ac9:	89 45 d4             	mov    %eax,-0x2c(%ebp)
    2acc:	85 c0                	test   %eax,%eax
    2ace:	75 21                	jne    2af1 <ancr_csi_dfs+0x1e1>
    2ad0:	eb b6                	jmp    2a88 <ancr_csi_dfs+0x178>
    2ad2:	8d b6 00 00 00 00    	lea    0x0(%esi),%esi
    2ad8:	8b 5d d4             	mov    -0x2c(%ebp),%ebx
    2adb:	8b 75 d0             	mov    -0x30(%ebp),%esi
    2ade:	51                   	push   %ecx
    2adf:	51                   	push   %ecx
    2ae0:	53                   	push   %ebx
    2ae1:	56                   	push   %esi
    2ae2:	e8 29 2c 00 00       	call   5710 <list_next>
    2ae7:	83 c4 10             	add    $0x10,%esp
    2aea:	89 45 d4             	mov    %eax,-0x2c(%ebp)
    2aed:	85 c0                	test   %eax,%eax
    2aef:	74 97                	je     2a88 <ancr_csi_dfs+0x178>
    2af1:	8b 40 08             	mov    0x8(%eax),%eax
    2af4:	8b 38                	mov    (%eax),%edi
    2af6:	85 ff                	test   %edi,%edi
    2af8:	75 de                	jne    2ad8 <ancr_csi_dfs+0x1c8>
    2afa:	8b 58 04             	mov    0x4(%eax),%ebx
    2afd:	8b 45 e4             	mov    -0x1c(%ebp),%eax
    2b00:	89 da                	mov    %ebx,%edx
    2b02:	e8 79 fa ff ff       	call   2580 <ancr_csi_process>
    2b07:	83 ec 0c             	sub    $0xc,%esp
    2b0a:	8d 43 38             	lea    0x38(%ebx),%eax
    2b0d:	50                   	push   %eax
    2b0e:	89 45 d8             	mov    %eax,-0x28(%ebp)
    2b11:	e8 8a 2b 00 00       	call   56a0 <sbi_list_first>
    2b16:	83 c4 10             	add    $0x10,%esp
    2b19:	89 45 dc             	mov    %eax,-0x24(%ebp)
    2b1c:	85 c0                	test   %eax,%eax
    2b1e:	75 21                	jne    2b41 <ancr_csi_dfs+0x231>
    2b20:	eb b6                	jmp    2ad8 <ancr_csi_dfs+0x1c8>
    2b22:	8d b6 00 00 00 00    	lea    0x0(%esi),%esi
    2b28:	50                   	push   %eax
    2b29:	50                   	push   %eax
    2b2a:	8b 45 dc             	mov    -0x24(%ebp),%eax
    2b2d:	50                   	push   %eax
    2b2e:	8b 45 d8             	mov    -0x28(%ebp),%eax
    2b31:	50                   	push   %eax
    2b32:	e8 d9 2b 00 00       	call   5710 <list_next>
    2b37:	83 c4 10             	add    $0x10,%esp
    2b3a:	89 45 dc             	mov    %eax,-0x24(%ebp)
    2b3d:	85 c0                	test   %eax,%eax
    2b3f:	74 97                	je     2ad8 <ancr_csi_dfs+0x1c8>
    2b41:	8b 40 08             	mov    0x8(%eax),%eax
    2b44:	8b 10                	mov    (%eax),%edx
    2b46:	85 d2                	test   %edx,%edx
    2b48:	75 de                	jne    2b28 <ancr_csi_dfs+0x218>
    2b4a:	8b 78 04             	mov    0x4(%eax),%edi
    2b4d:	8b 45 e4             	mov    -0x1c(%ebp),%eax
    2b50:	89 fa                	mov    %edi,%edx
    2b52:	e8 29 fa ff ff       	call   2580 <ancr_csi_process>
    2b57:	83 ec 0c             	sub    $0xc,%esp
    2b5a:	8d 47 38             	lea    0x38(%edi),%eax
    2b5d:	50                   	push   %eax
    2b5e:	89 45 e0             	mov    %eax,-0x20(%ebp)
    2b61:	e8 3a 2b 00 00       	call   56a0 <sbi_list_first>
    2b66:	83 c4 10             	add    $0x10,%esp
    2b69:	89 c6                	mov    %eax,%esi
    2b6b:	85 c0                	test   %eax,%eax
    2b6d:	75 1e                	jne    2b8d <ancr_csi_dfs+0x27d>
    2b6f:	eb b7                	jmp    2b28 <ancr_csi_dfs+0x218>
    2b71:	8d b4 26 00 00 00 00 	lea    0x0(%esi,%eiz,1),%esi
    2b78:	8b 5d e0             	mov    -0x20(%ebp),%ebx
    2b7b:	51                   	push   %ecx
    2b7c:	51                   	push   %ecx
    2b7d:	56                   	push   %esi
    2b7e:	53                   	push   %ebx
    2b7f:	e8 8c 2b 00 00       	call   5710 <list_next>
    2b84:	83 c4 10             	add    $0x10,%esp
    2b87:	89 c6                	mov    %eax,%esi
    2b89:	85 c0                	test   %eax,%eax
    2b8b:	74 9b                	je     2b28 <ancr_csi_dfs+0x218>
    2b8d:	8b 46 08             	mov    0x8(%esi),%eax
    2b90:	8b 38                	mov    (%eax),%edi
    2b92:	85 ff                	test   %edi,%edi
    2b94:	75 e2                	jne    2b78 <ancr_csi_dfs+0x268>
    2b96:	8b 58 04             	mov    0x4(%eax),%ebx
    2b99:	8b 45 e4             	mov    -0x1c(%ebp),%eax
    2b9c:	89 da                	mov    %ebx,%edx
    2b9e:	83 c3 38             	add    $0x38,%ebx
    2ba1:	e8 da f9 ff ff       	call   2580 <ancr_csi_process>
    2ba6:	83 ec 0c             	sub    $0xc,%esp
    2ba9:	53                   	push   %ebx
    2baa:	e8 f1 2a 00 00       	call   56a0 <sbi_list_first>
    2baf:	83 c4 10             	add    $0x10,%esp
    2bb2:	89 c7                	mov    %eax,%edi
    2bb4:	85 c0                	test   %eax,%eax
    2bb6:	75 1a                	jne    2bd2 <ancr_csi_dfs+0x2c2>
    2bb8:	eb be                	jmp    2b78 <ancr_csi_dfs+0x268>
    2bba:	8d b6 00 00 00 00    	lea    0x0(%esi),%esi
    2bc0:	50                   	push   %eax
    2bc1:	50                   	push   %eax
    2bc2:	57                   	push   %edi
    2bc3:	53                   	push   %ebx
    2bc4:	e8 47 2b 00 00       	call   5710 <list_next>
    2bc9:	83 c4 10             	add    $0x10,%esp
    2bcc:	89 c7                	mov    %eax,%edi
    2bce:	85 c0                	test   %eax,%eax
    2bd0:	74 a6                	je     2b78 <ancr_csi_dfs+0x268>
    2bd2:	8b 47 08             	mov    0x8(%edi),%eax
    2bd5:	8b 10                	mov    (%eax),%edx
    2bd7:	85 d2                	test   %edx,%edx
    2bd9:	75 e5                	jne    2bc0 <ancr_csi_dfs+0x2b0>
    2bdb:	8b 50 04             	mov    0x4(%eax),%edx
    2bde:	8b 45 e4             	mov    -0x1c(%ebp),%eax
    2be1:	e8 2a fd ff ff       	call   2910 <ancr_csi_dfs>
    2be6:	eb d8                	jmp    2bc0 <ancr_csi_dfs+0x2b0>
    2be8:	8d 65 f4             	lea    -0xc(%ebp),%esp
    2beb:	5b                   	pop    %ebx
    2bec:	5e                   	pop    %esi
    2bed:	5f                   	pop    %edi
    2bee:	5d                   	pop    %ebp
    2bef:	c3                   	ret    

00002bf0 <ancr_module_process>:
    2bf0:	55                   	push   %ebp
    2bf1:	89 e5                	mov    %esp,%ebp
    2bf3:	57                   	push   %edi
    2bf4:	56                   	push   %esi
    2bf5:	53                   	push   %ebx
    2bf6:	83 ec 18             	sub    $0x18,%esp
    2bf9:	8b 45 08             	mov    0x8(%ebp),%eax
    2bfc:	8b 18                	mov    (%eax),%ebx
    2bfe:	53                   	push   %ebx
    2bff:	e8 9c 2a 00 00       	call   56a0 <sbi_list_first>
    2c04:	83 c4 10             	add    $0x10,%esp
    2c07:	85 c0                	test   %eax,%eax
    2c09:	74 75                	je     2c80 <ancr_module_process+0x90>
    2c0b:	89 c6                	mov    %eax,%esi
    2c0d:	eb 18                	jmp    2c27 <ancr_module_process+0x37>
    2c0f:	90                   	nop
    2c10:	50                   	push   %eax
    2c11:	50                   	push   %eax
    2c12:	8b 45 08             	mov    0x8(%ebp),%eax
    2c15:	56                   	push   %esi
    2c16:	8b 10                	mov    (%eax),%edx
    2c18:	52                   	push   %edx
    2c19:	e8 f2 2a 00 00       	call   5710 <list_next>
    2c1e:	83 c4 10             	add    $0x10,%esp
    2c21:	89 c6                	mov    %eax,%esi
    2c23:	85 c0                	test   %eax,%eax
    2c25:	74 59                	je     2c80 <ancr_module_process+0x90>
    2c27:	8b 46 08             	mov    0x8(%esi),%eax
    2c2a:	8b 08                	mov    (%eax),%ecx
    2c2c:	85 c9                	test   %ecx,%ecx
    2c2e:	75 e0                	jne    2c10 <ancr_module_process+0x20>
    2c30:	8b 58 04             	mov    0x4(%eax),%ebx
    2c33:	8b 45 08             	mov    0x8(%ebp),%eax
    2c36:	89 da                	mov    %ebx,%edx
    2c38:	83 c3 38             	add    $0x38,%ebx
    2c3b:	e8 40 f9 ff ff       	call   2580 <ancr_csi_process>
    2c40:	83 ec 0c             	sub    $0xc,%esp
    2c43:	53                   	push   %ebx
    2c44:	e8 57 2a 00 00       	call   56a0 <sbi_list_first>
    2c49:	83 c4 10             	add    $0x10,%esp
    2c4c:	89 c7                	mov    %eax,%edi
    2c4e:	85 c0                	test   %eax,%eax
    2c50:	75 18                	jne    2c6a <ancr_module_process+0x7a>
    2c52:	eb bc                	jmp    2c10 <ancr_module_process+0x20>
    2c54:	8d 74 26 00          	lea    0x0(%esi,%eiz,1),%esi
    2c58:	51                   	push   %ecx
    2c59:	51                   	push   %ecx
    2c5a:	57                   	push   %edi
    2c5b:	53                   	push   %ebx
    2c5c:	e8 af 2a 00 00       	call   5710 <list_next>
    2c61:	83 c4 10             	add    $0x10,%esp
    2c64:	89 c7                	mov    %eax,%edi
    2c66:	85 c0                	test   %eax,%eax
    2c68:	74 a6                	je     2c10 <ancr_module_process+0x20>
    2c6a:	8b 47 08             	mov    0x8(%edi),%eax
    2c6d:	8b 10                	mov    (%eax),%edx
    2c6f:	85 d2                	test   %edx,%edx
    2c71:	75 e5                	jne    2c58 <ancr_module_process+0x68>
    2c73:	8b 50 04             	mov    0x4(%eax),%edx
    2c76:	8b 45 08             	mov    0x8(%ebp),%eax
    2c79:	e8 92 fc ff ff       	call   2910 <ancr_csi_dfs>
    2c7e:	eb d8                	jmp    2c58 <ancr_module_process+0x68>
    2c80:	8d 65 f4             	lea    -0xc(%ebp),%esp
    2c83:	5b                   	pop    %ebx
    2c84:	5e                   	pop    %esi
    2c85:	5f                   	pop    %edi
    2c86:	5d                   	pop    %ebp
    2c87:	c3                   	ret    
    2c88:	66 90                	xchg   %ax,%ax
    2c8a:	66 90                	xchg   %ax,%ax
    2c8c:	66 90                	xchg   %ax,%ax
    2c8e:	66 90                	xchg   %ax,%ax

00002c90 <bigint_sign_comb.constprop.5>:
    2c90:	55                   	push   %ebp
    2c91:	89 e5                	mov    %esp,%ebp
    2c93:	57                   	push   %edi
    2c94:	56                   	push   %esi
    2c95:	53                   	push   %ebx
    2c96:	83 ec 2c             	sub    $0x2c,%esp
    2c99:	89 45 d8             	mov    %eax,-0x28(%ebp)
    2c9c:	8b 70 04             	mov    0x4(%eax),%esi
    2c9f:	31 c0                	xor    %eax,%eax
    2ca1:	85 f6                	test   %esi,%esi
    2ca3:	89 4d e4             	mov    %ecx,-0x1c(%ebp)
    2ca6:	0f 95 c0             	setne  %al
    2ca9:	89 c3                	mov    %eax,%ebx
    2cab:	89 45 d4             	mov    %eax,-0x2c(%ebp)
    2cae:	31 c0                	xor    %eax,%eax
    2cb0:	39 51 04             	cmp    %edx,0x4(%ecx)
    2cb3:	0f 95 c0             	setne  %al
    2cb6:	8b 7d 08             	mov    0x8(%ebp),%edi
    2cb9:	39 c3                	cmp    %eax,%ebx
    2cbb:	0f 84 e7 01 00 00    	je     2ea8 <bigint_sign_comb.constprop.5+0x218>
    2cc1:	8b 45 d8             	mov    -0x28(%ebp),%eax
    2cc4:	8b 31                	mov    (%ecx),%esi
    2cc6:	89 75 e0             	mov    %esi,-0x20(%ebp)
    2cc9:	8b 00                	mov    (%eax),%eax
    2ccb:	39 c6                	cmp    %eax,%esi
    2ccd:	0f 82 c5 00 00 00    	jb     2d98 <bigint_sign_comb.constprop.5+0x108>
    2cd3:	8b 4d e0             	mov    -0x20(%ebp),%ecx
    2cd6:	85 c9                	test   %ecx,%ecx
    2cd8:	0f 84 c8 00 00 00    	je     2da6 <bigint_sign_comb.constprop.5+0x116>
    2cde:	83 ec 0c             	sub    $0xc,%esp
    2ce1:	8b 45 e0             	mov    -0x20(%ebp),%eax
    2ce4:	50                   	push   %eax
    2ce5:	e8 56 f4 01 00       	call   22140 <malloc@plt>
    2cea:	83 c4 10             	add    $0x10,%esp
    2ced:	89 47 08             	mov    %eax,0x8(%edi)
    2cf0:	85 c0                	test   %eax,%eax
    2cf2:	0f 84 b0 02 00 00    	je     2fa8 <bigint_sign_comb.constprop.5+0x318>
    2cf8:	8b 45 e0             	mov    -0x20(%ebp),%eax
    2cfb:	31 f6                	xor    %esi,%esi
    2cfd:	89 07                	mov    %eax,(%edi)
    2cff:	89 7d 08             	mov    %edi,0x8(%ebp)
    2d02:	31 c0                	xor    %eax,%eax
    2d04:	eb 58                	jmp    2d5e <bigint_sign_comb.constprop.5+0xce>
    2d06:	66 90                	xchg   %ax,%ax
    2d08:	8b 57 08             	mov    0x8(%edi),%edx
    2d0b:	8b 7d e4             	mov    -0x1c(%ebp),%edi
    2d0e:	8a 0c 02             	mov    (%edx,%eax,1),%cl
    2d11:	31 d2                	xor    %edx,%edx
    2d13:	88 ca                	mov    %cl,%dl
    2d15:	39 07                	cmp    %eax,(%edi)
    2d17:	0f 87 23 01 00 00    	ja     2e40 <bigint_sign_comb.constprop.5+0x1b0>
    2d1d:	88 cb                	mov    %cl,%bl
    2d1f:	31 ff                	xor    %edi,%edi
    2d21:	81 e3 ff 00 00 00    	and    $0xff,%ebx
    2d27:	89 5d dc             	mov    %ebx,-0x24(%ebp)
    2d2a:	31 db                	xor    %ebx,%ebx
    2d2c:	89 f1                	mov    %esi,%ecx
    2d2e:	29 fa                	sub    %edi,%edx
    2d30:	81 e1 ff 00 00 00    	and    $0xff,%ecx
    2d36:	01 d9                	add    %ebx,%ecx
    2d38:	3b 4d dc             	cmp    -0x24(%ebp),%ecx
    2d3b:	0f 8d c7 00 00 00    	jge    2e08 <bigint_sign_comb.constprop.5+0x178>
    2d41:	8b 5d 08             	mov    0x8(%ebp),%ebx
    2d44:	81 e6 ff 00 00 00    	and    $0xff,%esi
    2d4a:	29 f2                	sub    %esi,%edx
    2d4c:	31 f6                	xor    %esi,%esi
    2d4e:	8b 4b 08             	mov    0x8(%ebx),%ecx
    2d51:	88 14 01             	mov    %dl,(%ecx,%eax,1)
    2d54:	40                   	inc    %eax
    2d55:	39 45 e0             	cmp    %eax,-0x20(%ebp)
    2d58:	0f 84 d0 00 00 00    	je     2e2e <bigint_sign_comb.constprop.5+0x19e>
    2d5e:	8b 7d d8             	mov    -0x28(%ebp),%edi
    2d61:	39 07                	cmp    %eax,(%edi)
    2d63:	77 a3                	ja     2d08 <bigint_sign_comb.constprop.5+0x78>
    2d65:	8b 7d e4             	mov    -0x1c(%ebp),%edi
    2d68:	31 d2                	xor    %edx,%edx
    2d6a:	3b 07                	cmp    (%edi),%eax
    2d6c:	0f 83 96 00 00 00    	jae    2e08 <bigint_sign_comb.constprop.5+0x178>
    2d72:	c7 45 dc 00 00 00 00 	movl   $0x0,-0x24(%ebp)
    2d79:	31 d2                	xor    %edx,%edx
    2d7b:	89 fb                	mov    %edi,%ebx
    2d7d:	8b 4b 08             	mov    0x8(%ebx),%ecx
    2d80:	8a 1c 01             	mov    (%ecx,%eax,1),%bl
    2d83:	89 df                	mov    %ebx,%edi
    2d85:	81 e3 ff 00 00 00    	and    $0xff,%ebx
    2d8b:	81 e7 ff 00 00 00    	and    $0xff,%edi
    2d91:	eb 99                	jmp    2d2c <bigint_sign_comb.constprop.5+0x9c>
    2d93:	90                   	nop
    2d94:	8d 74 26 00          	lea    0x0(%esi,%eiz,1),%esi
    2d98:	89 45 e0             	mov    %eax,-0x20(%ebp)
    2d9b:	8b 4d e0             	mov    -0x20(%ebp),%ecx
    2d9e:	85 c9                	test   %ecx,%ecx
    2da0:	0f 85 38 ff ff ff    	jne    2cde <bigint_sign_comb.constprop.5+0x4e>
    2da6:	83 ec 0c             	sub    $0xc,%esp
    2da9:	6a 01                	push   $0x1
    2dab:	e8 90 f3 01 00       	call   22140 <malloc@plt>
    2db0:	83 c4 10             	add    $0x10,%esp
    2db3:	89 47 08             	mov    %eax,0x8(%edi)
    2db6:	85 c0                	test   %eax,%eax
    2db8:	0f 84 ea 01 00 00    	je     2fa8 <bigint_sign_comb.constprop.5+0x318>
    2dbe:	c7 07 00 00 00 00    	movl   $0x0,(%edi)
    2dc4:	c7 47 04 00 00 00 00 	movl   $0x0,0x4(%edi)
    2dcb:	8b 45 e0             	mov    -0x20(%ebp),%eax
    2dce:	85 c0                	test   %eax,%eax
    2dd0:	74 1b                	je     2ded <bigint_sign_comb.constprop.5+0x15d>
    2dd2:	8b 57 08             	mov    0x8(%edi),%edx
    2dd5:	48                   	dec    %eax
    2dd6:	80 3c 02 00          	cmpb   $0x0,(%edx,%eax,1)
    2dda:	74 0b                	je     2de7 <bigint_sign_comb.constprop.5+0x157>
    2ddc:	eb 7a                	jmp    2e58 <bigint_sign_comb.constprop.5+0x1c8>
    2dde:	66 90                	xchg   %ax,%ax
    2de0:	48                   	dec    %eax
    2de1:	80 3c 02 00          	cmpb   $0x0,(%edx,%eax,1)
    2de5:	75 71                	jne    2e58 <bigint_sign_comb.constprop.5+0x1c8>
    2de7:	89 07                	mov    %eax,(%edi)
    2de9:	85 c0                	test   %eax,%eax
    2deb:	75 f3                	jne    2de0 <bigint_sign_comb.constprop.5+0x150>
    2ded:	31 c0                	xor    %eax,%eax
    2def:	39 45 d4             	cmp    %eax,-0x2c(%ebp)
    2df2:	0f 95 c0             	setne  %al
    2df5:	25 ff 00 00 00       	and    $0xff,%eax
    2dfa:	89 47 04             	mov    %eax,0x4(%edi)
    2dfd:	8d 65 f4             	lea    -0xc(%ebp),%esp
    2e00:	5b                   	pop    %ebx
    2e01:	5e                   	pop    %esi
    2e02:	5f                   	pop    %edi
    2e03:	5d                   	pop    %ebp
    2e04:	c3                   	ret    
    2e05:	8d 76 00             	lea    0x0(%esi),%esi
    2e08:	8b 5d 08             	mov    0x8(%ebp),%ebx
    2e0b:	81 e6 ff 00 00 00    	and    $0xff,%esi
    2e11:	29 f2                	sub    %esi,%edx
    2e13:	be 01 00 00 00       	mov    $0x1,%esi
    2e18:	8b 4b 08             	mov    0x8(%ebx),%ecx
    2e1b:	81 c2 00 01 00 00    	add    $0x100,%edx
    2e21:	88 14 01             	mov    %dl,(%ecx,%eax,1)
    2e24:	40                   	inc    %eax
    2e25:	39 45 e0             	cmp    %eax,-0x20(%ebp)
    2e28:	0f 85 30 ff ff ff    	jne    2d5e <bigint_sign_comb.constprop.5+0xce>
    2e2e:	89 df                	mov    %ebx,%edi
    2e30:	89 f3                	mov    %esi,%ebx
    2e32:	84 db                	test   %bl,%bl
    2e34:	75 2a                	jne    2e60 <bigint_sign_comb.constprop.5+0x1d0>
    2e36:	8b 07                	mov    (%edi),%eax
    2e38:	89 45 e0             	mov    %eax,-0x20(%ebp)
    2e3b:	eb 87                	jmp    2dc4 <bigint_sign_comb.constprop.5+0x134>
    2e3d:	8d 76 00             	lea    0x0(%esi),%esi
    2e40:	89 cf                	mov    %ecx,%edi
    2e42:	8b 5d e4             	mov    -0x1c(%ebp),%ebx
    2e45:	81 e7 ff 00 00 00    	and    $0xff,%edi
    2e4b:	89 7d dc             	mov    %edi,-0x24(%ebp)
    2e4e:	e9 2a ff ff ff       	jmp    2d7d <bigint_sign_comb.constprop.5+0xed>
    2e53:	90                   	nop
    2e54:	8d 74 26 00          	lea    0x0(%esi,%eiz,1),%esi
    2e58:	8b 47 04             	mov    0x4(%edi),%eax
    2e5b:	eb 92                	jmp    2def <bigint_sign_comb.constprop.5+0x15f>
    2e5d:	8d 76 00             	lea    0x0(%esi),%esi
    2e60:	31 db                	xor    %ebx,%ebx
    2e62:	89 45 e4             	mov    %eax,-0x1c(%ebp)
    2e65:	c7 47 04 01 00 00 00 	movl   $0x1,0x4(%edi)
    2e6c:	31 c9                	xor    %ecx,%ecx
    2e6e:	89 d8                	mov    %ebx,%eax
    2e70:	eb 08                	jmp    2e7a <bigint_sign_comb.constprop.5+0x1ea>
    2e72:	8d b6 00 00 00 00    	lea    0x0(%esi),%esi
    2e78:	89 f1                	mov    %esi,%ecx
    2e7a:	8b 5f 08             	mov    0x8(%edi),%ebx
    2e7d:	81 e1 ff 00 00 00    	and    $0xff,%ecx
    2e83:	01 c3                	add    %eax,%ebx
    2e85:	ba 00 01 00 00       	mov    $0x100,%edx
    2e8a:	29 ca                	sub    %ecx,%edx
    2e8c:	31 c9                	xor    %ecx,%ecx
    2e8e:	8a 0b                	mov    (%ebx),%cl
    2e90:	40                   	inc    %eax
    2e91:	29 ca                	sub    %ecx,%edx
    2e93:	39 45 e4             	cmp    %eax,-0x1c(%ebp)
    2e96:	88 13                	mov    %dl,(%ebx)
    2e98:	75 de                	jne    2e78 <bigint_sign_comb.constprop.5+0x1e8>
    2e9a:	8b 07                	mov    (%edi),%eax
    2e9c:	89 45 e0             	mov    %eax,-0x20(%ebp)
    2e9f:	e9 2a ff ff ff       	jmp    2dce <bigint_sign_comb.constprop.5+0x13e>
    2ea4:	8d 74 26 00          	lea    0x0(%esi,%eiz,1),%esi
    2ea8:	8b 45 d8             	mov    -0x28(%ebp),%eax
    2eab:	8b 11                	mov    (%ecx),%edx
    2ead:	8b 00                	mov    (%eax),%eax
    2eaf:	39 c2                	cmp    %eax,%edx
    2eb1:	0f 82 a1 00 00 00    	jb     2f58 <bigint_sign_comb.constprop.5+0x2c8>
    2eb7:	42                   	inc    %edx
    2eb8:	c7 47 04 00 00 00 00 	movl   $0x0,0x4(%edi)
    2ebf:	89 55 e0             	mov    %edx,-0x20(%ebp)
    2ec2:	0f 84 a3 00 00 00    	je     2f6b <bigint_sign_comb.constprop.5+0x2db>
    2ec8:	83 ec 0c             	sub    $0xc,%esp
    2ecb:	8b 55 e0             	mov    -0x20(%ebp),%edx
    2ece:	52                   	push   %edx
    2ecf:	e8 6c f2 01 00       	call   22140 <malloc@plt>
    2ed4:	83 c4 10             	add    $0x10,%esp
    2ed7:	89 47 08             	mov    %eax,0x8(%edi)
    2eda:	85 c0                	test   %eax,%eax
    2edc:	0f 84 c6 00 00 00    	je     2fa8 <bigint_sign_comb.constprop.5+0x318>
    2ee2:	8b 45 e0             	mov    -0x20(%ebp),%eax
    2ee5:	31 c9                	xor    %ecx,%ecx
    2ee7:	89 07                	mov    %eax,(%edi)
    2ee9:	31 db                	xor    %ebx,%ebx
    2eeb:	8b 75 e4             	mov    -0x1c(%ebp),%esi
    2eee:	66 90                	xchg   %ax,%ax
    2ef0:	8b 55 d8             	mov    -0x28(%ebp),%edx
    2ef3:	31 c0                	xor    %eax,%eax
    2ef5:	39 1a                	cmp    %ebx,(%edx)
    2ef7:	76 06                	jbe    2eff <bigint_sign_comb.constprop.5+0x26f>
    2ef9:	8b 42 08             	mov    0x8(%edx),%eax
    2efc:	8a 04 18             	mov    (%eax,%ebx,1),%al
    2eff:	25 ff 00 00 00       	and    $0xff,%eax
    2f04:	31 d2                	xor    %edx,%edx
    2f06:	39 1e                	cmp    %ebx,(%esi)
    2f08:	76 06                	jbe    2f10 <bigint_sign_comb.constprop.5+0x280>
    2f0a:	8b 56 08             	mov    0x8(%esi),%edx
    2f0d:	8a 14 1a             	mov    (%edx,%ebx,1),%dl
    2f10:	81 e1 ff 00 00 00    	and    $0xff,%ecx
    2f16:	01 c1                	add    %eax,%ecx
    2f18:	31 c0                	xor    %eax,%eax
    2f1a:	88 d0                	mov    %dl,%al
    2f1c:	8b 57 08             	mov    0x8(%edi),%edx
    2f1f:	01 c8                	add    %ecx,%eax
    2f21:	89 c1                	mov    %eax,%ecx
    2f23:	88 04 1a             	mov    %al,(%edx,%ebx,1)
    2f26:	66 c1 e9 08          	shr    $0x8,%cx
    2f2a:	43                   	inc    %ebx
    2f2b:	39 5d e0             	cmp    %ebx,-0x20(%ebp)
    2f2e:	75 c0                	jne    2ef0 <bigint_sign_comb.constprop.5+0x260>
    2f30:	84 c9                	test   %cl,%cl
    2f32:	75 5f                	jne    2f93 <bigint_sign_comb.constprop.5+0x303>
    2f34:	8b 07                	mov    (%edi),%eax
    2f36:	85 c0                	test   %eax,%eax
    2f38:	74 4b                	je     2f85 <bigint_sign_comb.constprop.5+0x2f5>
    2f3a:	8b 57 08             	mov    0x8(%edi),%edx
    2f3d:	48                   	dec    %eax
    2f3e:	80 3c 02 00          	cmpb   $0x0,(%edx,%eax,1)
    2f42:	74 0b                	je     2f4f <bigint_sign_comb.constprop.5+0x2bf>
    2f44:	eb 3f                	jmp    2f85 <bigint_sign_comb.constprop.5+0x2f5>
    2f46:	66 90                	xchg   %ax,%ax
    2f48:	48                   	dec    %eax
    2f49:	80 3c 02 00          	cmpb   $0x0,(%edx,%eax,1)
    2f4d:	75 36                	jne    2f85 <bigint_sign_comb.constprop.5+0x2f5>
    2f4f:	89 07                	mov    %eax,(%edi)
    2f51:	85 c0                	test   %eax,%eax
    2f53:	75 f3                	jne    2f48 <bigint_sign_comb.constprop.5+0x2b8>
    2f55:	eb 2e                	jmp    2f85 <bigint_sign_comb.constprop.5+0x2f5>
    2f57:	90                   	nop
    2f58:	89 c2                	mov    %eax,%edx
    2f5a:	c7 47 04 00 00 00 00 	movl   $0x0,0x4(%edi)
    2f61:	42                   	inc    %edx
    2f62:	89 55 e0             	mov    %edx,-0x20(%ebp)
    2f65:	0f 85 5d ff ff ff    	jne    2ec8 <bigint_sign_comb.constprop.5+0x238>
    2f6b:	83 ec 0c             	sub    $0xc,%esp
    2f6e:	6a 01                	push   $0x1
    2f70:	e8 cb f1 01 00       	call   22140 <malloc@plt>
    2f75:	83 c4 10             	add    $0x10,%esp
    2f78:	89 47 08             	mov    %eax,0x8(%edi)
    2f7b:	85 c0                	test   %eax,%eax
    2f7d:	74 29                	je     2fa8 <bigint_sign_comb.constprop.5+0x318>
    2f7f:	c7 07 00 00 00 00    	movl   $0x0,(%edi)
    2f85:	8b 45 d4             	mov    -0x2c(%ebp),%eax
    2f88:	89 47 04             	mov    %eax,0x4(%edi)
    2f8b:	8d 65 f4             	lea    -0xc(%ebp),%esp
    2f8e:	5b                   	pop    %ebx
    2f8f:	5e                   	pop    %esi
    2f90:	5f                   	pop    %edi
    2f91:	5d                   	pop    %ebp
    2f92:	c3                   	ret    
    2f93:	53                   	push   %ebx
    2f94:	68 05 02 00 00       	push   $0x205
    2f99:	68 e9 d8 01 00       	push   $0x1d8e9
    2f9e:	68 f6 d8 01 00       	push   $0x1d8f6
    2fa3:	e8 f8 f1 01 00       	call   221a0 <assert_abort@plt>
    2fa8:	e8 b5 0b 00 00       	call   3b62 <bigint_alloc.isra.0.part.1>
    2fad:	8d 76 00             	lea    0x0(%esi),%esi

00002fb0 <bigint_init>:
    2fb0:	55                   	push   %ebp
    2fb1:	89 e5                	mov    %esp,%ebp
    2fb3:	57                   	push   %edi
    2fb4:	56                   	push   %esi
    2fb5:	53                   	push   %ebx
    2fb6:	83 ec 1c             	sub    $0x1c,%esp
    2fb9:	8b 5d 0c             	mov    0xc(%ebp),%ebx
    2fbc:	85 db                	test   %ebx,%ebx
    2fbe:	0f 88 c4 00 00 00    	js     3088 <bigint_init+0xd8>
    2fc4:	8b 45 08             	mov    0x8(%ebp),%eax
    2fc7:	c7 40 04 00 00 00 00 	movl   $0x0,0x4(%eax)
    2fce:	0f 84 88 00 00 00    	je     305c <bigint_init+0xac>
    2fd4:	89 d8                	mov    %ebx,%eax
    2fd6:	31 d2                	xor    %edx,%edx
    2fd8:	42                   	inc    %edx
    2fd9:	c1 f8 08             	sar    $0x8,%eax
    2fdc:	75 fa                	jne    2fd8 <bigint_init+0x28>
    2fde:	89 55 e4             	mov    %edx,-0x1c(%ebp)
    2fe1:	85 d2                	test   %edx,%edx
    2fe3:	74 5b                	je     3040 <bigint_init+0x90>
    2fe5:	83 ec 0c             	sub    $0xc,%esp
    2fe8:	8b 45 e4             	mov    -0x1c(%ebp),%eax
    2feb:	50                   	push   %eax
    2fec:	e8 4f f1 01 00       	call   22140 <malloc@plt>
    2ff1:	8b 75 08             	mov    0x8(%ebp),%esi
    2ff4:	83 c4 10             	add    $0x10,%esp
    2ff7:	85 c0                	test   %eax,%eax
    2ff9:	89 46 08             	mov    %eax,0x8(%esi)
    2ffc:	74 59                	je     3057 <bigint_init+0xa7>
    2ffe:	8b 4d e4             	mov    -0x1c(%ebp),%ecx
    3001:	89 0e                	mov    %ecx,(%esi)
    3003:	31 f6                	xor    %esi,%esi
    3005:	eb 07                	jmp    300e <bigint_init+0x5e>
    3007:	90                   	nop
    3008:	8b 45 08             	mov    0x8(%ebp),%eax
    300b:	8b 40 08             	mov    0x8(%eax),%eax
    300e:	89 da                	mov    %ebx,%edx
    3010:	c1 fa 1f             	sar    $0x1f,%edx
    3013:	89 d7                	mov    %edx,%edi
    3015:	81 e2 ff 00 00 00    	and    $0xff,%edx
    301b:	c1 ef 18             	shr    $0x18,%edi
    301e:	8d 0c 3b             	lea    (%ebx,%edi,1),%ecx
    3021:	01 d3                	add    %edx,%ebx
    3023:	c1 fb 08             	sar    $0x8,%ebx
    3026:	81 e1 ff 00 00 00    	and    $0xff,%ecx
    302c:	29 f9                	sub    %edi,%ecx
    302e:	88 0c 30             	mov    %cl,(%eax,%esi,1)
    3031:	46                   	inc    %esi
    3032:	39 75 e4             	cmp    %esi,-0x1c(%ebp)
    3035:	75 d1                	jne    3008 <bigint_init+0x58>
    3037:	8d 65 f4             	lea    -0xc(%ebp),%esp
    303a:	5b                   	pop    %ebx
    303b:	5e                   	pop    %esi
    303c:	5f                   	pop    %edi
    303d:	5d                   	pop    %ebp
    303e:	c3                   	ret    
    303f:	90                   	nop
    3040:	83 ec 0c             	sub    $0xc,%esp
    3043:	6a 01                	push   $0x1
    3045:	e8 f6 f0 01 00       	call   22140 <malloc@plt>
    304a:	8b 75 08             	mov    0x8(%ebp),%esi
    304d:	83 c4 10             	add    $0x10,%esp
    3050:	85 c0                	test   %eax,%eax
    3052:	89 46 08             	mov    %eax,0x8(%esi)
    3055:	75 1c                	jne    3073 <bigint_init+0xc3>
    3057:	e8 06 0b 00 00       	call   3b62 <bigint_alloc.isra.0.part.1>
    305c:	83 ec 0c             	sub    $0xc,%esp
    305f:	6a 01                	push   $0x1
    3061:	e8 da f0 01 00       	call   22140 <malloc@plt>
    3066:	8b 75 08             	mov    0x8(%ebp),%esi
    3069:	83 c4 10             	add    $0x10,%esp
    306c:	85 c0                	test   %eax,%eax
    306e:	89 46 08             	mov    %eax,0x8(%esi)
    3071:	74 e4                	je     3057 <bigint_init+0xa7>
    3073:	c7 06 00 00 00 00    	movl   $0x0,(%esi)
    3079:	8d 65 f4             	lea    -0xc(%ebp),%esp
    307c:	5b                   	pop    %ebx
    307d:	5e                   	pop    %esi
    307e:	5f                   	pop    %edi
    307f:	5d                   	pop    %ebp
    3080:	c3                   	ret    
    3081:	8d b4 26 00 00 00 00 	lea    0x0(%esi,%eiz,1),%esi
    3088:	8b 45 08             	mov    0x8(%ebp),%eax
    308b:	f7 db                	neg    %ebx
    308d:	c7 40 04 01 00 00 00 	movl   $0x1,0x4(%eax)
    3094:	e9 3b ff ff ff       	jmp    2fd4 <bigint_init+0x24>
    3099:	8d b4 26 00 00 00 00 	lea    0x0(%esi,%eiz,1),%esi

000030a0 <bigint_shallow_copy>:
    30a0:	55                   	push   %ebp
    30a1:	89 e5                	mov    %esp,%ebp
    30a3:	8b 55 08             	mov    0x8(%ebp),%edx
    30a6:	8b 45 0c             	mov    0xc(%ebp),%eax
    30a9:	8b 4a 04             	mov    0x4(%edx),%ecx
    30ac:	89 48 04             	mov    %ecx,0x4(%eax)
    30af:	8b 4a 08             	mov    0x8(%edx),%ecx
    30b2:	8b 12                	mov    (%edx),%edx
    30b4:	89 48 08             	mov    %ecx,0x8(%eax)
    30b7:	89 10                	mov    %edx,(%eax)
    30b9:	5d                   	pop    %ebp
    30ba:	c3                   	ret    
    30bb:	90                   	nop
    30bc:	8d 74 26 00          	lea    0x0(%esi,%eiz,1),%esi

000030c0 <bigint_clone>:
    30c0:	55                   	push   %ebp
    30c1:	89 e5                	mov    %esp,%ebp
    30c3:	57                   	push   %edi
    30c4:	56                   	push   %esi
    30c5:	53                   	push   %ebx
    30c6:	83 ec 0c             	sub    $0xc,%esp
    30c9:	8b 75 08             	mov    0x8(%ebp),%esi
    30cc:	8b 5d 0c             	mov    0xc(%ebp),%ebx
    30cf:	8b 46 04             	mov    0x4(%esi),%eax
    30d2:	8b 3e                	mov    (%esi),%edi
    30d4:	89 43 04             	mov    %eax,0x4(%ebx)
    30d7:	85 ff                	test   %edi,%edi
    30d9:	75 1d                	jne    30f8 <bigint_clone+0x38>
    30db:	83 ec 0c             	sub    $0xc,%esp
    30de:	6a 01                	push   $0x1
    30e0:	e8 5b f0 01 00       	call   22140 <malloc@plt>
    30e5:	83 c4 10             	add    $0x10,%esp
    30e8:	89 43 08             	mov    %eax,0x8(%ebx)
    30eb:	85 c0                	test   %eax,%eax
    30ed:	75 42                	jne    3131 <bigint_clone+0x71>
    30ef:	e8 6e 0a 00 00       	call   3b62 <bigint_alloc.isra.0.part.1>
    30f4:	8d 74 26 00          	lea    0x0(%esi,%eiz,1),%esi
    30f8:	83 ec 0c             	sub    $0xc,%esp
    30fb:	57                   	push   %edi
    30fc:	e8 3f f0 01 00       	call   22140 <malloc@plt>
    3101:	83 c4 10             	add    $0x10,%esp
    3104:	89 43 08             	mov    %eax,0x8(%ebx)
    3107:	85 c0                	test   %eax,%eax
    3109:	74 e4                	je     30ef <bigint_clone+0x2f>
    310b:	89 3b                	mov    %edi,(%ebx)
    310d:	31 d2                	xor    %edx,%edx
    310f:	eb 0a                	jmp    311b <bigint_clone+0x5b>
    3111:	8d b4 26 00 00 00 00 	lea    0x0(%esi,%eiz,1),%esi
    3118:	8b 43 08             	mov    0x8(%ebx),%eax
    311b:	8b 4e 08             	mov    0x8(%esi),%ecx
    311e:	8a 0c 11             	mov    (%ecx,%edx,1),%cl
    3121:	88 0c 10             	mov    %cl,(%eax,%edx,1)
    3124:	42                   	inc    %edx
    3125:	39 13                	cmp    %edx,(%ebx)
    3127:	77 ef                	ja     3118 <bigint_clone+0x58>
    3129:	8d 65 f4             	lea    -0xc(%ebp),%esp
    312c:	5b                   	pop    %ebx
    312d:	5e                   	pop    %esi
    312e:	5f                   	pop    %edi
    312f:	5d                   	pop    %ebp
    3130:	c3                   	ret    
    3131:	c7 03 00 00 00 00    	movl   $0x0,(%ebx)
    3137:	eb f0                	jmp    3129 <bigint_clone+0x69>
    3139:	8d b4 26 00 00 00 00 	lea    0x0(%esi,%eiz,1),%esi

00003140 <bigint_reverse_sign>:
    3140:	55                   	push   %ebp
    3141:	31 c0                	xor    %eax,%eax
    3143:	89 e5                	mov    %esp,%ebp
    3145:	57                   	push   %edi
    3146:	56                   	push   %esi
    3147:	53                   	push   %ebx
    3148:	83 ec 0c             	sub    $0xc,%esp
    314b:	8b 75 08             	mov    0x8(%ebp),%esi
    314e:	8b 5d 0c             	mov    0xc(%ebp),%ebx
    3151:	8b 56 04             	mov    0x4(%esi),%edx
    3154:	8b 3e                	mov    (%esi),%edi
    3156:	85 d2                	test   %edx,%edx
    3158:	0f 94 c0             	sete   %al
    315b:	89 43 04             	mov    %eax,0x4(%ebx)
    315e:	85 ff                	test   %edi,%edi
    3160:	75 1e                	jne    3180 <bigint_reverse_sign+0x40>
    3162:	83 ec 0c             	sub    $0xc,%esp
    3165:	6a 01                	push   $0x1
    3167:	e8 d4 ef 01 00       	call   22140 <malloc@plt>
    316c:	83 c4 10             	add    $0x10,%esp
    316f:	89 43 08             	mov    %eax,0x8(%ebx)
    3172:	85 c0                	test   %eax,%eax
    3174:	75 43                	jne    31b9 <bigint_reverse_sign+0x79>
    3176:	e8 e7 09 00 00       	call   3b62 <bigint_alloc.isra.0.part.1>
    317b:	90                   	nop
    317c:	8d 74 26 00          	lea    0x0(%esi,%eiz,1),%esi
    3180:	83 ec 0c             	sub    $0xc,%esp
    3183:	57                   	push   %edi
    3184:	e8 b7 ef 01 00       	call   22140 <malloc@plt>
    3189:	83 c4 10             	add    $0x10,%esp
    318c:	89 43 08             	mov    %eax,0x8(%ebx)
    318f:	85 c0                	test   %eax,%eax
    3191:	74 e3                	je     3176 <bigint_reverse_sign+0x36>
    3193:	89 3b                	mov    %edi,(%ebx)
    3195:	31 d2                	xor    %edx,%edx
    3197:	eb 0a                	jmp    31a3 <bigint_reverse_sign+0x63>
    3199:	8d b4 26 00 00 00 00 	lea    0x0(%esi,%eiz,1),%esi
    31a0:	8b 43 08             	mov    0x8(%ebx),%eax
    31a3:	8b 4e 08             	mov    0x8(%esi),%ecx
    31a6:	8a 0c 11             	mov    (%ecx,%edx,1),%cl
    31a9:	88 0c 10             	mov    %cl,(%eax,%edx,1)
    31ac:	42                   	inc    %edx
    31ad:	39 13                	cmp    %edx,(%ebx)
    31af:	77 ef                	ja     31a0 <bigint_reverse_sign+0x60>
    31b1:	8d 65 f4             	lea    -0xc(%ebp),%esp
    31b4:	5b                   	pop    %ebx
    31b5:	5e                   	pop    %esi
    31b6:	5f                   	pop    %edi
    31b7:	5d                   	pop    %ebp
    31b8:	c3                   	ret    
    31b9:	c7 03 00 00 00 00    	movl   $0x0,(%ebx)
    31bf:	eb f0                	jmp    31b1 <bigint_reverse_sign+0x71>
    31c1:	eb 0d                	jmp    31d0 <bigint_destroy>
    31c3:	90                   	nop
    31c4:	90                   	nop
    31c5:	90                   	nop
    31c6:	90                   	nop
    31c7:	90                   	nop
    31c8:	90                   	nop
    31c9:	90                   	nop
    31ca:	90                   	nop
    31cb:	90                   	nop
    31cc:	90                   	nop
    31cd:	90                   	nop
    31ce:	90                   	nop
    31cf:	90                   	nop

000031d0 <bigint_destroy>:
    31d0:	55                   	push   %ebp
    31d1:	89 e5                	mov    %esp,%ebp
    31d3:	53                   	push   %ebx
    31d4:	83 ec 10             	sub    $0x10,%esp
    31d7:	8b 5d 08             	mov    0x8(%ebp),%ebx
    31da:	c7 43 04 00 00 00 00 	movl   $0x0,0x4(%ebx)
    31e1:	c7 03 00 00 00 00    	movl   $0x0,(%ebx)
    31e7:	8b 43 08             	mov    0x8(%ebx),%eax
    31ea:	50                   	push   %eax
    31eb:	e8 20 f1 01 00       	call   22310 <free@plt>
    31f0:	c7 43 08 00 00 00 00 	movl   $0x0,0x8(%ebx)
    31f7:	83 c4 10             	add    $0x10,%esp
    31fa:	8b 5d fc             	mov    -0x4(%ebp),%ebx
    31fd:	c9                   	leave  
    31fe:	c3                   	ret    
    31ff:	90                   	nop

00003200 <bigint_get_value_int>:
    3200:	55                   	push   %ebp
    3201:	89 e5                	mov    %esp,%ebp
    3203:	57                   	push   %edi
    3204:	56                   	push   %esi
    3205:	53                   	push   %ebx
    3206:	83 ec 3c             	sub    $0x3c,%esp
    3209:	8b 75 08             	mov    0x8(%ebp),%esi
    320c:	8b 0e                	mov    (%esi),%ecx
    320e:	85 c9                	test   %ecx,%ecx
    3210:	0f 84 49 01 00 00    	je     335f <bigint_get_value_int+0x15f>
    3216:	8b 46 08             	mov    0x8(%esi),%eax
    3219:	31 db                	xor    %ebx,%ebx
    321b:	01 c1                	add    %eax,%ecx
    321d:	8d 76 00             	lea    0x0(%esi),%esi
    3220:	31 d2                	xor    %edx,%edx
    3222:	40                   	inc    %eax
    3223:	c1 e3 08             	shl    $0x8,%ebx
    3226:	8a 50 ff             	mov    -0x1(%eax),%dl
    3229:	01 d3                	add    %edx,%ebx
    322b:	39 c1                	cmp    %eax,%ecx
    322d:	75 f1                	jne    3220 <bigint_get_value_int+0x20>
    322f:	8b 46 04             	mov    0x4(%esi),%eax
    3232:	89 df                	mov    %ebx,%edi
    3234:	85 c0                	test   %eax,%eax
    3236:	0f 85 c4 00 00 00    	jne    3300 <bigint_get_value_int+0x100>
    323c:	c7 45 d4 00 00 00 00 	movl   $0x0,-0x2c(%ebp)
    3243:	85 db                	test   %ebx,%ebx
    3245:	0f 84 e6 00 00 00    	je     3331 <bigint_get_value_int+0x131>
    324b:	89 d8                	mov    %ebx,%eax
    324d:	31 c9                	xor    %ecx,%ecx
    324f:	90                   	nop
    3250:	41                   	inc    %ecx
    3251:	c1 f8 08             	sar    $0x8,%eax
    3254:	75 fa                	jne    3250 <bigint_get_value_int+0x50>
    3256:	85 c9                	test   %ecx,%ecx
    3258:	0f 84 ba 00 00 00    	je     3318 <bigint_get_value_int+0x118>
    325e:	83 ec 0c             	sub    $0xc,%esp
    3261:	89 4d c4             	mov    %ecx,-0x3c(%ebp)
    3264:	51                   	push   %ecx
    3265:	e8 d6 ee 01 00       	call   22140 <malloc@plt>
    326a:	83 c4 10             	add    $0x10,%esp
    326d:	89 45 d8             	mov    %eax,-0x28(%ebp)
    3270:	85 c0                	test   %eax,%eax
    3272:	8b 4d c4             	mov    -0x3c(%ebp),%ecx
    3275:	0f 84 b1 00 00 00    	je     332c <bigint_get_value_int+0x12c>
    327b:	89 4d d0             	mov    %ecx,-0x30(%ebp)
    327e:	31 d2                	xor    %edx,%edx
    3280:	eb 09                	jmp    328b <bigint_get_value_int+0x8b>
    3282:	8d b6 00 00 00 00    	lea    0x0(%esi),%esi
    3288:	8b 45 d8             	mov    -0x28(%ebp),%eax
    328b:	88 1c 10             	mov    %bl,(%eax,%edx,1)
    328e:	42                   	inc    %edx
    328f:	c1 fb 08             	sar    $0x8,%ebx
    3292:	39 d1                	cmp    %edx,%ecx
    3294:	75 f2                	jne    3288 <bigint_get_value_int+0x88>
    3296:	83 ec 0c             	sub    $0xc,%esp
    3299:	8d 45 dc             	lea    -0x24(%ebp),%eax
    329c:	8d 4d d0             	lea    -0x30(%ebp),%ecx
    329f:	ba 01 00 00 00       	mov    $0x1,%edx
    32a4:	50                   	push   %eax
    32a5:	89 f0                	mov    %esi,%eax
    32a7:	e8 e4 f9 ff ff       	call   2c90 <bigint_sign_comb.constprop.5>
    32ac:	8b 55 d8             	mov    -0x28(%ebp),%edx
    32af:	58                   	pop    %eax
    32b0:	8b 5d dc             	mov    -0x24(%ebp),%ebx
    32b3:	52                   	push   %edx
    32b4:	c7 45 d4 00 00 00 00 	movl   $0x0,-0x2c(%ebp)
    32bb:	c7 45 d0 00 00 00 00 	movl   $0x0,-0x30(%ebp)
    32c2:	e8 49 f0 01 00       	call   22310 <free@plt>
    32c7:	8b 75 e4             	mov    -0x1c(%ebp),%esi
    32ca:	59                   	pop    %ecx
    32cb:	56                   	push   %esi
    32cc:	c7 45 d8 00 00 00 00 	movl   $0x0,-0x28(%ebp)
    32d3:	c7 45 e0 00 00 00 00 	movl   $0x0,-0x20(%ebp)
    32da:	c7 45 dc 00 00 00 00 	movl   $0x0,-0x24(%ebp)
    32e1:	e8 2a f0 01 00       	call   22310 <free@plt>
    32e6:	83 c4 10             	add    $0x10,%esp
    32e9:	85 db                	test   %ebx,%ebx
    32eb:	75 7b                	jne    3368 <bigint_get_value_int+0x168>
    32ed:	8b 45 0c             	mov    0xc(%ebp),%eax
    32f0:	89 38                	mov    %edi,(%eax)
    32f2:	31 c0                	xor    %eax,%eax
    32f4:	8d 65 f4             	lea    -0xc(%ebp),%esp
    32f7:	5b                   	pop    %ebx
    32f8:	5e                   	pop    %esi
    32f9:	5f                   	pop    %edi
    32fa:	5d                   	pop    %ebp
    32fb:	c3                   	ret    
    32fc:	8d 74 26 00          	lea    0x0(%esi,%eiz,1),%esi
    3300:	f7 df                	neg    %edi
    3302:	85 db                	test   %ebx,%ebx
    3304:	74 52                	je     3358 <bigint_get_value_int+0x158>
    3306:	c7 45 d4 01 00 00 00 	movl   $0x1,-0x2c(%ebp)
    330d:	e9 39 ff ff ff       	jmp    324b <bigint_get_value_int+0x4b>
    3312:	8d b6 00 00 00 00    	lea    0x0(%esi),%esi
    3318:	83 ec 0c             	sub    $0xc,%esp
    331b:	6a 01                	push   $0x1
    331d:	e8 1e ee 01 00       	call   22140 <malloc@plt>
    3322:	83 c4 10             	add    $0x10,%esp
    3325:	89 45 d8             	mov    %eax,-0x28(%ebp)
    3328:	85 c0                	test   %eax,%eax
    332a:	75 19                	jne    3345 <bigint_get_value_int+0x145>
    332c:	e8 31 08 00 00       	call   3b62 <bigint_alloc.isra.0.part.1>
    3331:	83 ec 0c             	sub    $0xc,%esp
    3334:	6a 01                	push   $0x1
    3336:	e8 05 ee 01 00       	call   22140 <malloc@plt>
    333b:	83 c4 10             	add    $0x10,%esp
    333e:	89 45 d8             	mov    %eax,-0x28(%ebp)
    3341:	85 c0                	test   %eax,%eax
    3343:	74 e7                	je     332c <bigint_get_value_int+0x12c>
    3345:	c7 45 d0 00 00 00 00 	movl   $0x0,-0x30(%ebp)
    334c:	e9 45 ff ff ff       	jmp    3296 <bigint_get_value_int+0x96>
    3351:	8d b4 26 00 00 00 00 	lea    0x0(%esi,%eiz,1),%esi
    3358:	89 fb                	mov    %edi,%ebx
    335a:	e9 dd fe ff ff       	jmp    323c <bigint_get_value_int+0x3c>
    335f:	31 ff                	xor    %edi,%edi
    3361:	31 db                	xor    %ebx,%ebx
    3363:	e9 d4 fe ff ff       	jmp    323c <bigint_get_value_int+0x3c>
    3368:	b8 f2 ff ff ff       	mov    $0xfffffff2,%eax
    336d:	eb 85                	jmp    32f4 <bigint_get_value_int+0xf4>
    336f:	90                   	nop

00003370 <bigint_is_zero>:
    3370:	55                   	push   %ebp
    3371:	89 e5                	mov    %esp,%ebp
    3373:	8b 45 08             	mov    0x8(%ebp),%eax
    3376:	5d                   	pop    %ebp
    3377:	8b 00                	mov    (%eax),%eax
    3379:	85 c0                	test   %eax,%eax
    337b:	0f 94 c0             	sete   %al
    337e:	25 ff 00 00 00       	and    $0xff,%eax
    3383:	c3                   	ret    
    3384:	8d b6 00 00 00 00    	lea    0x0(%esi),%esi
    338a:	8d bf 00 00 00 00    	lea    0x0(%edi),%edi

00003390 <bigint_is_negative>:
    3390:	55                   	push   %ebp
    3391:	89 e5                	mov    %esp,%ebp
    3393:	83 ec 08             	sub    $0x8,%esp
    3396:	8b 55 08             	mov    0x8(%ebp),%edx
    3399:	8b 42 04             	mov    0x4(%edx),%eax
    339c:	85 c0                	test   %eax,%eax
    339e:	74 06                	je     33a6 <bigint_is_negative+0x16>
    33a0:	8b 12                	mov    (%edx),%edx
    33a2:	85 d2                	test   %edx,%edx
    33a4:	74 02                	je     33a8 <bigint_is_negative+0x18>
    33a6:	c9                   	leave  
    33a7:	c3                   	ret    
    33a8:	50                   	push   %eax
    33a9:	68 f7 00 00 00       	push   $0xf7
    33ae:	68 e9 d8 01 00       	push   $0x1d8e9
    33b3:	68 04 d9 01 00       	push   $0x1d904
    33b8:	e8 e3 ed 01 00       	call   221a0 <assert_abort@plt>
    33bd:	8d 76 00             	lea    0x0(%esi),%esi

000033c0 <bigint_div_digit>:
    33c0:	55                   	push   %ebp
    33c1:	89 e5                	mov    %esp,%ebp
    33c3:	57                   	push   %edi
    33c4:	56                   	push   %esi
    33c5:	53                   	push   %ebx
    33c6:	83 ec 1c             	sub    $0x1c,%esp
    33c9:	8b 7d 08             	mov    0x8(%ebp),%edi
    33cc:	8b 55 0c             	mov    0xc(%ebp),%edx
    33cf:	8b 75 10             	mov    0x10(%ebp),%esi
    33d2:	8b 1f                	mov    (%edi),%ebx
    33d4:	85 db                	test   %ebx,%ebx
    33d6:	75 20                	jne    33f8 <bigint_div_digit+0x38>
    33d8:	83 ec 0c             	sub    $0xc,%esp
    33db:	6a 01                	push   $0x1
    33dd:	e8 5e ed 01 00       	call   22140 <malloc@plt>
    33e2:	83 c4 10             	add    $0x10,%esp
    33e5:	89 46 08             	mov    %eax,0x8(%esi)
    33e8:	85 c0                	test   %eax,%eax
    33ea:	0f 85 92 00 00 00    	jne    3482 <bigint_div_digit+0xc2>
    33f0:	e8 6d 07 00 00       	call   3b62 <bigint_alloc.isra.0.part.1>
    33f5:	8d 76 00             	lea    0x0(%esi),%esi
    33f8:	83 ec 0c             	sub    $0xc,%esp
    33fb:	89 55 e4             	mov    %edx,-0x1c(%ebp)
    33fe:	53                   	push   %ebx
    33ff:	e8 3c ed 01 00       	call   22140 <malloc@plt>
    3404:	83 c4 10             	add    $0x10,%esp
    3407:	89 c1                	mov    %eax,%ecx
    3409:	89 46 08             	mov    %eax,0x8(%esi)
    340c:	85 c0                	test   %eax,%eax
    340e:	8b 55 e4             	mov    -0x1c(%ebp),%edx
    3411:	74 dd                	je     33f0 <bigint_div_digit+0x30>
    3413:	8b 47 04             	mov    0x4(%edi),%eax
    3416:	89 1e                	mov    %ebx,(%esi)
    3418:	89 46 04             	mov    %eax,0x4(%esi)
    341b:	88 d0                	mov    %dl,%al
    341d:	25 ff 00 00 00       	and    $0xff,%eax
    3422:	31 d2                	xor    %edx,%edx
    3424:	89 75 10             	mov    %esi,0x10(%ebp)
    3427:	66 89 45 e4          	mov    %ax,-0x1c(%ebp)
    342b:	eb 09                	jmp    3436 <bigint_div_digit+0x76>
    342d:	8d 76 00             	lea    0x0(%esi),%esi
    3430:	8b 45 10             	mov    0x10(%ebp),%eax
    3433:	8b 48 08             	mov    0x8(%eax),%ecx
    3436:	4b                   	dec    %ebx
    3437:	8b 47 08             	mov    0x8(%edi),%eax
    343a:	c1 e2 08             	shl    $0x8,%edx
    343d:	0f b6 34 18          	movzbl (%eax,%ebx,1),%esi
    3441:	81 e6 ff 00 00 00    	and    $0xff,%esi
    3447:	89 f0                	mov    %esi,%eax
    3449:	01 d0                	add    %edx,%eax
    344b:	31 d2                	xor    %edx,%edx
    344d:	66 f7 75 e4          	divw   -0x1c(%ebp)
    3451:	88 04 19             	mov    %al,(%ecx,%ebx,1)
    3454:	85 db                	test   %ebx,%ebx
    3456:	75 d8                	jne    3430 <bigint_div_digit+0x70>
    3458:	8b 75 10             	mov    0x10(%ebp),%esi
    345b:	88 d0                	mov    %dl,%al
    345d:	8b 0e                	mov    (%esi),%ecx
    345f:	85 c9                	test   %ecx,%ecx
    3461:	74 27                	je     348a <bigint_div_digit+0xca>
    3463:	8b 56 08             	mov    0x8(%esi),%edx
    3466:	eb 06                	jmp    346e <bigint_div_digit+0xae>
    3468:	89 0e                	mov    %ecx,(%esi)
    346a:	85 c9                	test   %ecx,%ecx
    346c:	74 1c                	je     348a <bigint_div_digit+0xca>
    346e:	49                   	dec    %ecx
    346f:	80 3c 0a 00          	cmpb   $0x0,(%edx,%ecx,1)
    3473:	74 f3                	je     3468 <bigint_div_digit+0xa8>
    3475:	8b 55 14             	mov    0x14(%ebp),%edx
    3478:	88 02                	mov    %al,(%edx)
    347a:	8d 65 f4             	lea    -0xc(%ebp),%esp
    347d:	5b                   	pop    %ebx
    347e:	5e                   	pop    %esi
    347f:	5f                   	pop    %edi
    3480:	5d                   	pop    %ebp
    3481:	c3                   	ret    
    3482:	c7 06 00 00 00 00    	movl   $0x0,(%esi)
    3488:	31 c0                	xor    %eax,%eax
    348a:	8b 55 14             	mov    0x14(%ebp),%edx
    348d:	c7 46 04 00 00 00 00 	movl   $0x0,0x4(%esi)
    3494:	88 02                	mov    %al,(%edx)
    3496:	8d 65 f4             	lea    -0xc(%ebp),%esp
    3499:	5b                   	pop    %ebx
    349a:	5e                   	pop    %esi
    349b:	5f                   	pop    %edi
    349c:	5d                   	pop    %ebp
    349d:	c3                   	ret    
    349e:	66 90                	xchg   %ax,%ax

000034a0 <bigint_add>:
    34a0:	55                   	push   %ebp
    34a1:	89 e5                	mov    %esp,%ebp
    34a3:	8b 55 10             	mov    0x10(%ebp),%edx
    34a6:	8b 45 08             	mov    0x8(%ebp),%eax
    34a9:	8b 4d 0c             	mov    0xc(%ebp),%ecx
    34ac:	89 55 08             	mov    %edx,0x8(%ebp)
    34af:	31 d2                	xor    %edx,%edx
    34b1:	5d                   	pop    %ebp
    34b2:	e9 d9 f7 ff ff       	jmp    2c90 <bigint_sign_comb.constprop.5>
    34b7:	89 f6                	mov    %esi,%esi
    34b9:	8d bc 27 00 00 00 00 	lea    0x0(%edi,%eiz,1),%edi

000034c0 <bigint_sub>:
    34c0:	55                   	push   %ebp
    34c1:	89 e5                	mov    %esp,%ebp
    34c3:	8b 55 10             	mov    0x10(%ebp),%edx
    34c6:	8b 45 08             	mov    0x8(%ebp),%eax
    34c9:	8b 4d 0c             	mov    0xc(%ebp),%ecx
    34cc:	89 55 08             	mov    %edx,0x8(%ebp)
    34cf:	ba 01 00 00 00       	mov    $0x1,%edx
    34d4:	5d                   	pop    %ebp
    34d5:	e9 b6 f7 ff ff       	jmp    2c90 <bigint_sign_comb.constprop.5>
    34da:	8d b6 00 00 00 00    	lea    0x0(%esi),%esi

000034e0 <bigint_mul>:
    34e0:	55                   	push   %ebp
    34e1:	89 e5                	mov    %esp,%ebp
    34e3:	57                   	push   %edi
    34e4:	56                   	push   %esi
    34e5:	53                   	push   %ebx
    34e6:	83 ec 58             	sub    $0x58,%esp
    34e9:	c7 45 d4 00 00 00 00 	movl   $0x0,-0x2c(%ebp)
    34f0:	8b 75 08             	mov    0x8(%ebp),%esi
    34f3:	6a 01                	push   $0x1
    34f5:	e8 46 ec 01 00       	call   22140 <malloc@plt>
    34fa:	83 c4 10             	add    $0x10,%esp
    34fd:	89 45 d8             	mov    %eax,-0x28(%ebp)
    3500:	85 c0                	test   %eax,%eax
    3502:	0f 84 91 01 00 00    	je     3699 <bigint_mul+0x1b9>
    3508:	8b 5d 0c             	mov    0xc(%ebp),%ebx
    350b:	c7 45 d0 00 00 00 00 	movl   $0x0,-0x30(%ebp)
    3512:	8b 4d d4             	mov    -0x2c(%ebp),%ecx
    3515:	8b 13                	mov    (%ebx),%edx
    3517:	31 db                	xor    %ebx,%ebx
    3519:	85 d2                	test   %edx,%edx
    351b:	0f 84 40 01 00 00    	je     3661 <bigint_mul+0x181>
    3521:	8d b4 26 00 00 00 00 	lea    0x0(%esi,%eiz,1),%esi
    3528:	8b 45 0c             	mov    0xc(%ebp),%eax
    352b:	8b 40 08             	mov    0x8(%eax),%eax
    352e:	8a 04 18             	mov    (%eax,%ebx,1),%al
    3531:	88 45 b6             	mov    %al,-0x4a(%ebp)
    3534:	8b 06                	mov    (%esi),%eax
    3536:	40                   	inc    %eax
    3537:	89 45 b0             	mov    %eax,-0x50(%ebp)
    353a:	8d 3c 03             	lea    (%ebx,%eax,1),%edi
    353d:	89 f8                	mov    %edi,%eax
    353f:	85 ff                	test   %edi,%edi
    3541:	75 05                	jne    3548 <bigint_mul+0x68>
    3543:	b8 01 00 00 00       	mov    $0x1,%eax
    3548:	83 ec 0c             	sub    $0xc,%esp
    354b:	50                   	push   %eax
    354c:	e8 ef eb 01 00       	call   22140 <malloc@plt>
    3551:	83 c4 10             	add    $0x10,%esp
    3554:	89 45 cc             	mov    %eax,-0x34(%ebp)
    3557:	85 c0                	test   %eax,%eax
    3559:	0f 84 3a 01 00 00    	je     3699 <bigint_mul+0x1b9>
    355f:	8b 56 04             	mov    0x4(%esi),%edx
    3562:	89 7d c4             	mov    %edi,-0x3c(%ebp)
    3565:	89 55 c8             	mov    %edx,-0x38(%ebp)
    3568:	85 db                	test   %ebx,%ebx
    356a:	0f 84 19 01 00 00    	je     3689 <bigint_mul+0x1a9>
    3570:	31 d2                	xor    %edx,%edx
    3572:	eb 07                	jmp    357b <bigint_mul+0x9b>
    3574:	8d 74 26 00          	lea    0x0(%esi,%eiz,1),%esi
    3578:	8b 45 cc             	mov    -0x34(%ebp),%eax
    357b:	c6 04 10 00          	movb   $0x0,(%eax,%edx,1)
    357f:	42                   	inc    %edx
    3580:	39 d3                	cmp    %edx,%ebx
    3582:	75 f4                	jne    3578 <bigint_mul+0x98>
    3584:	8b 45 b0             	mov    -0x50(%ebp),%eax
    3587:	85 c0                	test   %eax,%eax
    3589:	74 3c                	je     35c7 <bigint_mul+0xe7>
    358b:	31 d2                	xor    %edx,%edx
    358d:	31 c9                	xor    %ecx,%ecx
    358f:	90                   	nop
    3590:	31 c0                	xor    %eax,%eax
    3592:	3b 0e                	cmp    (%esi),%ecx
    3594:	73 09                	jae    359f <bigint_mul+0xbf>
    3596:	8b 7e 08             	mov    0x8(%esi),%edi
    3599:	8a 45 b6             	mov    -0x4a(%ebp),%al
    359c:	f6 24 0f             	mulb   (%edi,%ecx,1)
    359f:	88 55 b7             	mov    %dl,-0x49(%ebp)
    35a2:	31 d2                	xor    %edx,%edx
    35a4:	8a 55 b7             	mov    -0x49(%ebp),%dl
    35a7:	01 d0                	add    %edx,%eax
    35a9:	89 c7                	mov    %eax,%edi
    35ab:	66 c1 ef 08          	shr    $0x8,%di
    35af:	89 fa                	mov    %edi,%edx
    35b1:	8b 7d cc             	mov    -0x34(%ebp),%edi
    35b4:	01 cf                	add    %ecx,%edi
    35b6:	41                   	inc    %ecx
    35b7:	39 4d b0             	cmp    %ecx,-0x50(%ebp)
    35ba:	88 04 1f             	mov    %al,(%edi,%ebx,1)
    35bd:	75 d1                	jne    3590 <bigint_mul+0xb0>
    35bf:	84 d2                	test   %dl,%dl
    35c1:	0f 85 d7 00 00 00    	jne    369e <bigint_mul+0x1be>
    35c7:	8b 45 c4             	mov    -0x3c(%ebp),%eax
    35ca:	85 c0                	test   %eax,%eax
    35cc:	74 20                	je     35ee <bigint_mul+0x10e>
    35ce:	8b 55 cc             	mov    -0x34(%ebp),%edx
    35d1:	48                   	dec    %eax
    35d2:	80 3c 02 00          	cmpb   $0x0,(%edx,%eax,1)
    35d6:	74 0f                	je     35e7 <bigint_mul+0x107>
    35d8:	eb 1b                	jmp    35f5 <bigint_mul+0x115>
    35da:	8d b6 00 00 00 00    	lea    0x0(%esi),%esi
    35e0:	48                   	dec    %eax
    35e1:	80 3c 02 00          	cmpb   $0x0,(%edx,%eax,1)
    35e5:	75 0e                	jne    35f5 <bigint_mul+0x115>
    35e7:	89 45 c4             	mov    %eax,-0x3c(%ebp)
    35ea:	85 c0                	test   %eax,%eax
    35ec:	75 f2                	jne    35e0 <bigint_mul+0x100>
    35ee:	c7 45 c8 00 00 00 00 	movl   $0x0,-0x38(%ebp)
    35f5:	83 ec 0c             	sub    $0xc,%esp
    35f8:	8d 45 dc             	lea    -0x24(%ebp),%eax
    35fb:	31 d2                	xor    %edx,%edx
    35fd:	8d 4d d0             	lea    -0x30(%ebp),%ecx
    3600:	50                   	push   %eax
    3601:	8d 45 c4             	lea    -0x3c(%ebp),%eax
    3604:	e8 87 f6 ff ff       	call   2c90 <bigint_sign_comb.constprop.5>
    3609:	8b 45 cc             	mov    -0x34(%ebp),%eax
    360c:	5f                   	pop    %edi
    360d:	c7 45 c8 00 00 00 00 	movl   $0x0,-0x38(%ebp)
    3614:	50                   	push   %eax
    3615:	c7 45 c4 00 00 00 00 	movl   $0x0,-0x3c(%ebp)
    361c:	e8 ef ec 01 00       	call   22310 <free@plt>
    3621:	58                   	pop    %eax
    3622:	8b 45 d8             	mov    -0x28(%ebp),%eax
    3625:	c7 45 cc 00 00 00 00 	movl   $0x0,-0x34(%ebp)
    362c:	50                   	push   %eax
    362d:	c7 45 d4 00 00 00 00 	movl   $0x0,-0x2c(%ebp)
    3634:	c7 45 d0 00 00 00 00 	movl   $0x0,-0x30(%ebp)
    363b:	e8 d0 ec 01 00       	call   22310 <free@plt>
    3640:	8b 7d 0c             	mov    0xc(%ebp),%edi
    3643:	8b 4d e0             	mov    -0x20(%ebp),%ecx
    3646:	8b 45 e4             	mov    -0x1c(%ebp),%eax
    3649:	8b 55 dc             	mov    -0x24(%ebp),%edx
    364c:	43                   	inc    %ebx
    364d:	83 c4 10             	add    $0x10,%esp
    3650:	89 4d d4             	mov    %ecx,-0x2c(%ebp)
    3653:	89 45 d8             	mov    %eax,-0x28(%ebp)
    3656:	89 55 d0             	mov    %edx,-0x30(%ebp)
    3659:	39 1f                	cmp    %ebx,(%edi)
    365b:	0f 87 c7 fe ff ff    	ja     3528 <bigint_mul+0x48>
    3661:	8b 75 0c             	mov    0xc(%ebp),%esi
    3664:	8b 5e 04             	mov    0x4(%esi),%ebx
    3667:	85 db                	test   %ebx,%ebx
    3669:	74 0b                	je     3676 <bigint_mul+0x196>
    366b:	85 c9                	test   %ecx,%ecx
    366d:	0f 94 c1             	sete   %cl
    3670:	81 e1 ff 00 00 00    	and    $0xff,%ecx
    3676:	8b 75 10             	mov    0x10(%ebp),%esi
    3679:	89 4e 04             	mov    %ecx,0x4(%esi)
    367c:	89 46 08             	mov    %eax,0x8(%esi)
    367f:	89 16                	mov    %edx,(%esi)
    3681:	8d 65 f4             	lea    -0xc(%ebp),%esp
    3684:	5b                   	pop    %ebx
    3685:	5e                   	pop    %esi
    3686:	5f                   	pop    %edi
    3687:	5d                   	pop    %ebp
    3688:	c3                   	ret    
    3689:	8b 45 b0             	mov    -0x50(%ebp),%eax
    368c:	85 c0                	test   %eax,%eax
    368e:	0f 85 f7 fe ff ff    	jne    358b <bigint_mul+0xab>
    3694:	e9 55 ff ff ff       	jmp    35ee <bigint_mul+0x10e>
    3699:	e8 c4 04 00 00       	call   3b62 <bigint_alloc.isra.0.part.1>
    369e:	50                   	push   %eax
    369f:	68 83 02 00 00       	push   $0x283
    36a4:	68 e9 d8 01 00       	push   $0x1d8e9
    36a9:	68 f6 d8 01 00       	push   $0x1d8f6
    36ae:	e8 ed ea 01 00       	call   221a0 <assert_abort@plt>
    36b3:	8d b6 00 00 00 00    	lea    0x0(%esi),%esi
    36b9:	8d bc 27 00 00 00 00 	lea    0x0(%edi,%eiz,1),%edi

000036c0 <bigint_get_as_string>:
    36c0:	55                   	push   %ebp
    36c1:	89 e5                	mov    %esp,%ebp
    36c3:	57                   	push   %edi
    36c4:	56                   	push   %esi
    36c5:	53                   	push   %ebx
    36c6:	83 ec 2c             	sub    $0x2c,%esp
    36c9:	8b 45 08             	mov    0x8(%ebp),%eax
    36cc:	8b 00                	mov    (%eax),%eax
    36ce:	89 45 e0             	mov    %eax,-0x20(%ebp)
    36d1:	85 c0                	test   %eax,%eax
    36d3:	0f 84 cf 01 00 00    	je     38a8 <bigint_get_as_string+0x1e8>
    36d9:	8b 45 08             	mov    0x8(%ebp),%eax
    36dc:	8b 78 04             	mov    0x4(%eax),%edi
    36df:	85 ff                	test   %edi,%edi
    36e1:	0f 85 e1 01 00 00    	jne    38c8 <bigint_get_as_string+0x208>
    36e7:	83 ec 0c             	sub    $0xc,%esp
    36ea:	8b 7d e0             	mov    -0x20(%ebp),%edi
    36ed:	57                   	push   %edi
    36ee:	e8 4d ea 01 00       	call   22140 <malloc@plt>
    36f3:	83 c4 10             	add    $0x10,%esp
    36f6:	85 c0                	test   %eax,%eax
    36f8:	0f 84 bf 01 00 00    	je     38bd <bigint_get_as_string+0x1fd>
    36fe:	c7 45 dc 00 00 00 00 	movl   $0x0,-0x24(%ebp)
    3705:	8b 5d 08             	mov    0x8(%ebp),%ebx
    3708:	8d 50 04             	lea    0x4(%eax),%edx
    370b:	8b 7d e0             	mov    -0x20(%ebp),%edi
    370e:	8b 4b 08             	mov    0x8(%ebx),%ecx
    3711:	39 d1                	cmp    %edx,%ecx
    3713:	8d 59 04             	lea    0x4(%ecx),%ebx
    3716:	0f 93 c2             	setae  %dl
    3719:	39 d8                	cmp    %ebx,%eax
    371b:	0f 93 c3             	setae  %bl
    371e:	09 d3                	or     %edx,%ebx
    3720:	83 ff 09             	cmp    $0x9,%edi
    3723:	0f 97 c2             	seta   %dl
    3726:	84 d3                	test   %dl,%bl
    3728:	0f 84 c2 03 00 00    	je     3af0 <bigint_get_as_string+0x430>
    372e:	89 c2                	mov    %eax,%edx
    3730:	09 ca                	or     %ecx,%edx
    3732:	83 e2 03             	and    $0x3,%edx
    3735:	0f 85 b5 03 00 00    	jne    3af0 <bigint_get_as_string+0x430>
    373b:	be 01 00 00 00       	mov    $0x1,%esi
    3740:	85 ff                	test   %edi,%edi
    3742:	74 02                	je     3746 <bigint_get_as_string+0x86>
    3744:	89 fe                	mov    %edi,%esi
    3746:	8d 7e fc             	lea    -0x4(%esi),%edi
    3749:	31 d2                	xor    %edx,%edx
    374b:	c1 ef 02             	shr    $0x2,%edi
    374e:	47                   	inc    %edi
    374f:	8d 1c bd 00 00 00 00 	lea    0x0(,%edi,4),%ebx
    3756:	89 5d e4             	mov    %ebx,-0x1c(%ebp)
    3759:	8b 1c 91             	mov    (%ecx,%edx,4),%ebx
    375c:	89 1c 90             	mov    %ebx,(%eax,%edx,4)
    375f:	42                   	inc    %edx
    3760:	39 d7                	cmp    %edx,%edi
    3762:	77 f5                	ja     3759 <bigint_get_as_string+0x99>
    3764:	8b 5d e4             	mov    -0x1c(%ebp),%ebx
    3767:	39 de                	cmp    %ebx,%esi
    3769:	74 27                	je     3792 <bigint_get_as_string+0xd2>
    376b:	8a 14 19             	mov    (%ecx,%ebx,1),%dl
    376e:	8b 7d e0             	mov    -0x20(%ebp),%edi
    3771:	88 14 18             	mov    %dl,(%eax,%ebx,1)
    3774:	8d 53 01             	lea    0x1(%ebx),%edx
    3777:	89 de                	mov    %ebx,%esi
    3779:	39 d7                	cmp    %edx,%edi
    377b:	76 15                	jbe    3792 <bigint_get_as_string+0xd2>
    377d:	8a 1c 11             	mov    (%ecx,%edx,1),%bl
    3780:	88 1c 10             	mov    %bl,(%eax,%edx,1)
    3783:	89 f3                	mov    %esi,%ebx
    3785:	83 c3 02             	add    $0x2,%ebx
    3788:	39 df                	cmp    %ebx,%edi
    378a:	76 06                	jbe    3792 <bigint_get_as_string+0xd2>
    378c:	8a 0c 19             	mov    (%ecx,%ebx,1),%cl
    378f:	88 0c 18             	mov    %cl,(%eax,%ebx,1)
    3792:	89 45 e4             	mov    %eax,-0x1c(%ebp)
    3795:	8d 76 00             	lea    0x0(%esi),%esi
    3798:	83 ec 0c             	sub    $0xc,%esp
    379b:	8b 5d e0             	mov    -0x20(%ebp),%ebx
    379e:	53                   	push   %ebx
    379f:	e8 9c e9 01 00       	call   22140 <malloc@plt>
    37a4:	83 c4 10             	add    $0x10,%esp
    37a7:	85 c0                	test   %eax,%eax
    37a9:	0f 84 0e 01 00 00    	je     38bd <bigint_get_as_string+0x1fd>
    37af:	31 c9                	xor    %ecx,%ecx
    37b1:	8d b4 26 00 00 00 00 	lea    0x0(%esi,%eiz,1),%esi
    37b8:	4b                   	dec    %ebx
    37b9:	8b 7d e4             	mov    -0x1c(%ebp),%edi
    37bc:	c1 e1 08             	shl    $0x8,%ecx
    37bf:	0f b6 34 1f          	movzbl (%edi,%ebx,1),%esi
    37c3:	81 e6 ff 00 00 00    	and    $0xff,%esi
    37c9:	01 ce                	add    %ecx,%esi
    37cb:	31 c9                	xor    %ecx,%ecx
    37cd:	66 89 f1             	mov    %si,%cx
    37d0:	8d 3c 49             	lea    (%ecx,%ecx,2),%edi
    37d3:	89 fa                	mov    %edi,%edx
    37d5:	c1 e2 04             	shl    $0x4,%edx
    37d8:	01 fa                	add    %edi,%edx
    37da:	89 d7                	mov    %edx,%edi
    37dc:	c1 e7 08             	shl    $0x8,%edi
    37df:	01 fa                	add    %edi,%edx
    37e1:	8d 0c 91             	lea    (%ecx,%edx,4),%ecx
    37e4:	c1 e9 13             	shr    $0x13,%ecx
    37e7:	89 ca                	mov    %ecx,%edx
    37e9:	88 14 18             	mov    %dl,(%eax,%ebx,1)
    37ec:	8d 0c 95 00 00 00 00 	lea    0x0(,%edx,4),%ecx
    37f3:	01 d1                	add    %edx,%ecx
    37f5:	01 c9                	add    %ecx,%ecx
    37f7:	29 ce                	sub    %ecx,%esi
    37f9:	85 db                	test   %ebx,%ebx
    37fb:	89 f1                	mov    %esi,%ecx
    37fd:	75 b9                	jne    37b8 <bigint_get_as_string+0xf8>
    37ff:	8b 5d e0             	mov    -0x20(%ebp),%ebx
    3802:	8d 53 ff             	lea    -0x1(%ebx),%edx
    3805:	80 3c 10 00          	cmpb   $0x0,(%eax,%edx,1)
    3809:	74 14                	je     381f <bigint_get_as_string+0x15f>
    380b:	e9 db 00 00 00       	jmp    38eb <bigint_get_as_string+0x22b>
    3810:	8d 4a ff             	lea    -0x1(%edx),%ecx
    3813:	80 3c 08 00          	cmpb   $0x0,(%eax,%ecx,1)
    3817:	0f 85 cb 00 00 00    	jne    38e8 <bigint_get_as_string+0x228>
    381d:	89 ca                	mov    %ecx,%edx
    381f:	85 d2                	test   %edx,%edx
    3821:	75 ed                	jne    3810 <bigint_get_as_string+0x150>
    3823:	83 ec 0c             	sub    $0xc,%esp
    3826:	8b 75 e4             	mov    -0x1c(%ebp),%esi
    3829:	89 c7                	mov    %eax,%edi
    382b:	56                   	push   %esi
    382c:	e8 df ea 01 00       	call   22310 <free@plt>
    3831:	8b 45 dc             	mov    -0x24(%ebp),%eax
    3834:	83 c4 10             	add    $0x10,%esp
    3837:	8d 58 01             	lea    0x1(%eax),%ebx
    383a:	89 5d d8             	mov    %ebx,-0x28(%ebp)
    383d:	8d 58 02             	lea    0x2(%eax),%ebx
    3840:	83 ec 0c             	sub    $0xc,%esp
    3843:	57                   	push   %edi
    3844:	e8 c7 ea 01 00       	call   22310 <free@plt>
    3849:	89 1c 24             	mov    %ebx,(%esp)
    384c:	e8 ef e8 01 00       	call   22140 <malloc@plt>
    3851:	83 c4 10             	add    $0x10,%esp
    3854:	89 45 d0             	mov    %eax,-0x30(%ebp)
    3857:	85 c0                	test   %eax,%eax
    3859:	0f 84 a9 02 00 00    	je     3b08 <bigint_get_as_string+0x448>
    385f:	8b 45 08             	mov    0x8(%ebp),%eax
    3862:	8b 00                	mov    (%eax),%eax
    3864:	89 45 e0             	mov    %eax,-0x20(%ebp)
    3867:	85 c0                	test   %eax,%eax
    3869:	0f 85 a0 00 00 00    	jne    390f <bigint_get_as_string+0x24f>
    386f:	8b 45 d0             	mov    -0x30(%ebp),%eax
    3872:	83 ec 0c             	sub    $0xc,%esp
    3875:	c6 00 30             	movb   $0x30,(%eax)
    3878:	6a 01                	push   $0x1
    387a:	e8 c1 e8 01 00       	call   22140 <malloc@plt>
    387f:	83 c4 10             	add    $0x10,%esp
    3882:	85 c0                	test   %eax,%eax
    3884:	74 37                	je     38bd <bigint_get_as_string+0x1fd>
    3886:	89 c7                	mov    %eax,%edi
    3888:	83 ec 0c             	sub    $0xc,%esp
    388b:	57                   	push   %edi
    388c:	e8 7f ea 01 00       	call   22310 <free@plt>
    3891:	8b 5d d0             	mov    -0x30(%ebp),%ebx
    3894:	8b 7d d8             	mov    -0x28(%ebp),%edi
    3897:	8b 45 0c             	mov    0xc(%ebp),%eax
    389a:	c6 04 3b 00          	movb   $0x0,(%ebx,%edi,1)
    389e:	89 18                	mov    %ebx,(%eax)
    38a0:	8d 65 f4             	lea    -0xc(%ebp),%esp
    38a3:	5b                   	pop    %ebx
    38a4:	5e                   	pop    %esi
    38a5:	5f                   	pop    %edi
    38a6:	5d                   	pop    %ebp
    38a7:	c3                   	ret    
    38a8:	83 ec 0c             	sub    $0xc,%esp
    38ab:	6a 01                	push   $0x1
    38ad:	e8 8e e8 01 00       	call   22140 <malloc@plt>
    38b2:	83 c4 10             	add    $0x10,%esp
    38b5:	85 c0                	test   %eax,%eax
    38b7:	0f 85 0b 02 00 00    	jne    3ac8 <bigint_get_as_string+0x408>
    38bd:	e8 a0 02 00 00       	call   3b62 <bigint_alloc.isra.0.part.1>
    38c2:	8d b6 00 00 00 00    	lea    0x0(%esi),%esi
    38c8:	83 ec 0c             	sub    $0xc,%esp
    38cb:	8b 45 e0             	mov    -0x20(%ebp),%eax
    38ce:	50                   	push   %eax
    38cf:	e8 6c e8 01 00       	call   22140 <malloc@plt>
    38d4:	83 c4 10             	add    $0x10,%esp
    38d7:	85 c0                	test   %eax,%eax
    38d9:	74 e2                	je     38bd <bigint_get_as_string+0x1fd>
    38db:	c7 45 dc 01 00 00 00 	movl   $0x1,-0x24(%ebp)
    38e2:	e9 1e fe ff ff       	jmp    3705 <bigint_get_as_string+0x45>
    38e7:	90                   	nop
    38e8:	89 55 e0             	mov    %edx,-0x20(%ebp)
    38eb:	83 ec 0c             	sub    $0xc,%esp
    38ee:	8b 5d e4             	mov    -0x1c(%ebp),%ebx
    38f1:	89 45 d8             	mov    %eax,-0x28(%ebp)
    38f4:	53                   	push   %ebx
    38f5:	e8 16 ea 01 00       	call   22310 <free@plt>
    38fa:	8b 75 dc             	mov    -0x24(%ebp),%esi
    38fd:	8b 45 d8             	mov    -0x28(%ebp),%eax
    3900:	46                   	inc    %esi
    3901:	89 45 e4             	mov    %eax,-0x1c(%ebp)
    3904:	89 75 dc             	mov    %esi,-0x24(%ebp)
    3907:	83 c4 10             	add    $0x10,%esp
    390a:	e9 89 fe ff ff       	jmp    3798 <bigint_get_as_string+0xd8>
    390f:	8b 45 08             	mov    0x8(%ebp),%eax
    3912:	8b 58 04             	mov    0x4(%eax),%ebx
    3915:	85 db                	test   %ebx,%ebx
    3917:	74 06                	je     391f <bigint_get_as_string+0x25f>
    3919:	8b 45 d0             	mov    -0x30(%ebp),%eax
    391c:	c6 00 2d             	movb   $0x2d,(%eax)
    391f:	83 ec 0c             	sub    $0xc,%esp
    3922:	8b 4d e0             	mov    -0x20(%ebp),%ecx
    3925:	51                   	push   %ecx
    3926:	e8 15 e8 01 00       	call   22140 <malloc@plt>
    392b:	83 c4 10             	add    $0x10,%esp
    392e:	85 c0                	test   %eax,%eax
    3930:	74 8b                	je     38bd <bigint_get_as_string+0x1fd>
    3932:	8b 5d 08             	mov    0x8(%ebp),%ebx
    3935:	8b 7d e0             	mov    -0x20(%ebp),%edi
    3938:	8b 4b 08             	mov    0x8(%ebx),%ecx
    393b:	8d 58 04             	lea    0x4(%eax),%ebx
    393e:	8d 51 04             	lea    0x4(%ecx),%edx
    3941:	39 d0                	cmp    %edx,%eax
    3943:	0f 93 c2             	setae  %dl
    3946:	39 d9                	cmp    %ebx,%ecx
    3948:	0f 93 c3             	setae  %bl
    394b:	09 d3                	or     %edx,%ebx
    394d:	83 ff 09             	cmp    $0x9,%edi
    3950:	0f 97 c2             	seta   %dl
    3953:	84 d3                	test   %dl,%bl
    3955:	0f 84 80 01 00 00    	je     3adb <bigint_get_as_string+0x41b>
    395b:	89 c2                	mov    %eax,%edx
    395d:	09 ca                	or     %ecx,%edx
    395f:	83 e2 03             	and    $0x3,%edx
    3962:	0f 85 73 01 00 00    	jne    3adb <bigint_get_as_string+0x41b>
    3968:	8d 77 fc             	lea    -0x4(%edi),%esi
    396b:	31 d2                	xor    %edx,%edx
    396d:	c1 ee 02             	shr    $0x2,%esi
    3970:	46                   	inc    %esi
    3971:	8d 1c b5 00 00 00 00 	lea    0x0(,%esi,4),%ebx
    3978:	8b 3c 91             	mov    (%ecx,%edx,4),%edi
    397b:	89 3c 90             	mov    %edi,(%eax,%edx,4)
    397e:	42                   	inc    %edx
    397f:	39 d6                	cmp    %edx,%esi
    3981:	77 f5                	ja     3978 <bigint_get_as_string+0x2b8>
    3983:	89 de                	mov    %ebx,%esi
    3985:	8b 7d e0             	mov    -0x20(%ebp),%edi
    3988:	39 f7                	cmp    %esi,%edi
    398a:	74 22                	je     39ae <bigint_get_as_string+0x2ee>
    398c:	8a 14 31             	mov    (%ecx,%esi,1),%dl
    398f:	88 14 30             	mov    %dl,(%eax,%esi,1)
    3992:	8d 56 01             	lea    0x1(%esi),%edx
    3995:	39 d7                	cmp    %edx,%edi
    3997:	76 15                	jbe    39ae <bigint_get_as_string+0x2ee>
    3999:	8a 1c 11             	mov    (%ecx,%edx,1),%bl
    399c:	88 1c 10             	mov    %bl,(%eax,%edx,1)
    399f:	89 f3                	mov    %esi,%ebx
    39a1:	83 c3 02             	add    $0x2,%ebx
    39a4:	39 df                	cmp    %ebx,%edi
    39a6:	76 06                	jbe    39ae <bigint_get_as_string+0x2ee>
    39a8:	8a 0c 19             	mov    (%ecx,%ebx,1),%cl
    39ab:	88 0c 18             	mov    %cl,(%eax,%ebx,1)
    39ae:	89 45 e4             	mov    %eax,-0x1c(%ebp)
    39b1:	8b 4d d8             	mov    -0x28(%ebp),%ecx
    39b4:	8b 45 d0             	mov    -0x30(%ebp),%eax
    39b7:	c7 45 dc 01 00 00 00 	movl   $0x1,-0x24(%ebp)
    39be:	01 c8                	add    %ecx,%eax
    39c0:	89 45 cc             	mov    %eax,-0x34(%ebp)
    39c3:	90                   	nop
    39c4:	8d 74 26 00          	lea    0x0(%esi,%eiz,1),%esi
    39c8:	83 ec 0c             	sub    $0xc,%esp
    39cb:	8b 5d e0             	mov    -0x20(%ebp),%ebx
    39ce:	53                   	push   %ebx
    39cf:	e8 6c e7 01 00       	call   22140 <malloc@plt>
    39d4:	83 c4 10             	add    $0x10,%esp
    39d7:	85 c0                	test   %eax,%eax
    39d9:	0f 84 de fe ff ff    	je     38bd <bigint_get_as_string+0x1fd>
    39df:	31 ff                	xor    %edi,%edi
    39e1:	89 fe                	mov    %edi,%esi
    39e3:	90                   	nop
    39e4:	8d 74 26 00          	lea    0x0(%esi,%eiz,1),%esi
    39e8:	4b                   	dec    %ebx
    39e9:	8b 7d e4             	mov    -0x1c(%ebp),%edi
    39ec:	c1 e6 08             	shl    $0x8,%esi
    39ef:	31 c9                	xor    %ecx,%ecx
    39f1:	8a 0c 1f             	mov    (%edi,%ebx,1),%cl
    39f4:	01 f1                	add    %esi,%ecx
    39f6:	31 f6                	xor    %esi,%esi
    39f8:	66 89 ce             	mov    %cx,%si
    39fb:	8d 3c 76             	lea    (%esi,%esi,2),%edi
    39fe:	89 fa                	mov    %edi,%edx
    3a00:	c1 e2 04             	shl    $0x4,%edx
    3a03:	01 fa                	add    %edi,%edx
    3a05:	89 d7                	mov    %edx,%edi
    3a07:	c1 e7 08             	shl    $0x8,%edi
    3a0a:	01 fa                	add    %edi,%edx
    3a0c:	8d 34 96             	lea    (%esi,%edx,4),%esi
    3a0f:	c1 ee 13             	shr    $0x13,%esi
    3a12:	89 f2                	mov    %esi,%edx
    3a14:	88 14 18             	mov    %dl,(%eax,%ebx,1)
    3a17:	8d 34 95 00 00 00 00 	lea    0x0(,%edx,4),%esi
    3a1e:	01 d6                	add    %edx,%esi
    3a20:	01 f6                	add    %esi,%esi
    3a22:	29 f1                	sub    %esi,%ecx
    3a24:	85 db                	test   %ebx,%ebx
    3a26:	89 ce                	mov    %ecx,%esi
    3a28:	75 be                	jne    39e8 <bigint_get_as_string+0x328>
    3a2a:	8b 5d e0             	mov    -0x20(%ebp),%ebx
    3a2d:	89 cf                	mov    %ecx,%edi
    3a2f:	89 ce                	mov    %ecx,%esi
    3a31:	8d 53 ff             	lea    -0x1(%ebx),%edx
    3a34:	80 3c 10 00          	cmpb   $0x0,(%eax,%edx,1)
    3a38:	74 11                	je     3a4b <bigint_get_as_string+0x38b>
    3a3a:	eb 51                	jmp    3a8d <bigint_get_as_string+0x3cd>
    3a3c:	8d 74 26 00          	lea    0x0(%esi,%eiz,1),%esi
    3a40:	8d 4a ff             	lea    -0x1(%edx),%ecx
    3a43:	80 3c 08 00          	cmpb   $0x0,(%eax,%ecx,1)
    3a47:	75 3f                	jne    3a88 <bigint_get_as_string+0x3c8>
    3a49:	89 ca                	mov    %ecx,%edx
    3a4b:	85 d2                	test   %edx,%edx
    3a4d:	75 f1                	jne    3a40 <bigint_get_as_string+0x380>
    3a4f:	89 f3                	mov    %esi,%ebx
    3a51:	83 ec 0c             	sub    $0xc,%esp
    3a54:	31 f6                	xor    %esi,%esi
    3a56:	89 c7                	mov    %eax,%edi
    3a58:	66 89 de             	mov    %bx,%si
    3a5b:	8b 45 e4             	mov    -0x1c(%ebp),%eax
    3a5e:	50                   	push   %eax
    3a5f:	e8 ac e8 01 00       	call   22310 <free@plt>
    3a64:	8b 45 d8             	mov    -0x28(%ebp),%eax
    3a67:	8b 55 dc             	mov    -0x24(%ebp),%edx
    3a6a:	8a 9e 38 d9 01 00    	mov    0x1d938(%esi),%bl
    3a70:	29 d0                	sub    %edx,%eax
    3a72:	8b 75 d0             	mov    -0x30(%ebp),%esi
    3a75:	88 5d e4             	mov    %bl,-0x1c(%ebp)
    3a78:	83 c4 10             	add    $0x10,%esp
    3a7b:	88 1c 06             	mov    %bl,(%esi,%eax,1)
    3a7e:	e9 05 fe ff ff       	jmp    3888 <bigint_get_as_string+0x1c8>
    3a83:	90                   	nop
    3a84:	8d 74 26 00          	lea    0x0(%esi,%eiz,1),%esi
    3a88:	89 f7                	mov    %esi,%edi
    3a8a:	89 55 e0             	mov    %edx,-0x20(%ebp)
    3a8d:	83 ec 0c             	sub    $0xc,%esp
    3a90:	8b 55 e4             	mov    -0x1c(%ebp),%edx
    3a93:	89 45 d4             	mov    %eax,-0x2c(%ebp)
    3a96:	31 f6                	xor    %esi,%esi
    3a98:	52                   	push   %edx
    3a99:	e8 72 e8 01 00       	call   22310 <free@plt>
    3a9e:	8b 5d dc             	mov    -0x24(%ebp),%ebx
    3aa1:	66 89 fe             	mov    %di,%si
    3aa4:	89 d9                	mov    %ebx,%ecx
    3aa6:	8b 7d cc             	mov    -0x34(%ebp),%edi
    3aa9:	f7 d9                	neg    %ecx
    3aab:	8a 86 38 d9 01 00    	mov    0x1d938(%esi),%al
    3ab1:	83 c4 10             	add    $0x10,%esp
    3ab4:	88 04 0f             	mov    %al,(%edi,%ecx,1)
    3ab7:	89 d9                	mov    %ebx,%ecx
    3ab9:	41                   	inc    %ecx
    3aba:	8b 45 d4             	mov    -0x2c(%ebp),%eax
    3abd:	89 4d dc             	mov    %ecx,-0x24(%ebp)
    3ac0:	89 45 e4             	mov    %eax,-0x1c(%ebp)
    3ac3:	e9 00 ff ff ff       	jmp    39c8 <bigint_get_as_string+0x308>
    3ac8:	89 c7                	mov    %eax,%edi
    3aca:	bb 02 00 00 00       	mov    $0x2,%ebx
    3acf:	c7 45 d8 01 00 00 00 	movl   $0x1,-0x28(%ebp)
    3ad6:	e9 65 fd ff ff       	jmp    3840 <bigint_get_as_string+0x180>
    3adb:	31 d2                	xor    %edx,%edx
    3add:	8d 76 00             	lea    0x0(%esi),%esi
    3ae0:	8a 1c 11             	mov    (%ecx,%edx,1),%bl
    3ae3:	88 1c 10             	mov    %bl,(%eax,%edx,1)
    3ae6:	42                   	inc    %edx
    3ae7:	39 d7                	cmp    %edx,%edi
    3ae9:	75 f5                	jne    3ae0 <bigint_get_as_string+0x420>
    3aeb:	e9 be fe ff ff       	jmp    39ae <bigint_get_as_string+0x2ee>
    3af0:	31 d2                	xor    %edx,%edx
    3af2:	8d b6 00 00 00 00    	lea    0x0(%esi),%esi
    3af8:	8a 1c 11             	mov    (%ecx,%edx,1),%bl
    3afb:	88 1c 10             	mov    %bl,(%eax,%edx,1)
    3afe:	42                   	inc    %edx
    3aff:	39 d7                	cmp    %edx,%edi
    3b01:	77 f5                	ja     3af8 <bigint_get_as_string+0x438>
    3b03:	e9 8a fc ff ff       	jmp    3792 <bigint_get_as_string+0xd2>
    3b08:	83 ec 0c             	sub    $0xc,%esp
    3b0b:	68 a0 d1 01 00       	push   $0x1d1a0
    3b10:	e8 7b e5 01 00       	call   22090 <printf@plt>
    3b15:	c7 04 24 01 00 00 00 	movl   $0x1,(%esp)
    3b1c:	e8 af e7 01 00       	call   222d0 <exit@plt>
    3b21:	eb 0d                	jmp    3b30 <bigint_print>
    3b23:	90                   	nop
    3b24:	90                   	nop
    3b25:	90                   	nop
    3b26:	90                   	nop
    3b27:	90                   	nop
    3b28:	90                   	nop
    3b29:	90                   	nop
    3b2a:	90                   	nop
    3b2b:	90                   	nop
    3b2c:	90                   	nop
    3b2d:	90                   	nop
    3b2e:	90                   	nop
    3b2f:	90                   	nop

00003b30 <bigint_print>:
    3b30:	55                   	push   %ebp
    3b31:	89 e5                	mov    %esp,%ebp
    3b33:	83 ec 20             	sub    $0x20,%esp
    3b36:	8d 45 f4             	lea    -0xc(%ebp),%eax
    3b39:	50                   	push   %eax
    3b3a:	8b 45 08             	mov    0x8(%ebp),%eax
    3b3d:	50                   	push   %eax
    3b3e:	e8 7d fb ff ff       	call   36c0 <bigint_get_as_string>
    3b43:	8b 45 f4             	mov    -0xc(%ebp),%eax
    3b46:	5a                   	pop    %edx
    3b47:	59                   	pop    %ecx
    3b48:	50                   	push   %eax
    3b49:	68 cc ef 01 00       	push   $0x1efcc
    3b4e:	e8 3d e5 01 00       	call   22090 <printf@plt>
    3b53:	58                   	pop    %eax
    3b54:	8b 45 f4             	mov    -0xc(%ebp),%eax
    3b57:	50                   	push   %eax
    3b58:	e8 b3 e7 01 00       	call   22310 <free@plt>
    3b5d:	83 c4 10             	add    $0x10,%esp
    3b60:	c9                   	leave  
    3b61:	c3                   	ret    

00003b62 <bigint_alloc.isra.0.part.1>:
    3b62:	55                   	push   %ebp
    3b63:	89 e5                	mov    %esp,%ebp
    3b65:	83 ec 14             	sub    $0x14,%esp
    3b68:	68 a0 d1 01 00       	push   $0x1d1a0
    3b6d:	e8 1e e5 01 00       	call   22090 <printf@plt>
    3b72:	c7 04 24 01 00 00 00 	movl   $0x1,(%esp)
    3b79:	e8 52 e7 01 00       	call   222d0 <exit@plt>
    3b7e:	66 90                	xchg   %ax,%ax

00003b80 <builtin_declare>:
    3b80:	55                   	push   %ebp
    3b81:	89 e5                	mov    %esp,%ebp
    3b83:	56                   	push   %esi
    3b84:	53                   	push   %ebx
    3b85:	83 ec 68             	sub    $0x68,%esp
    3b88:	8b 75 08             	mov    0x8(%ebp),%esi
    3b8b:	6a 20                	push   $0x20
    3b8d:	6a 01                	push   $0x1
    3b8f:	e8 1c e6 01 00       	call   221b0 <calloc@plt>
    3b94:	83 c4 10             	add    $0x10,%esp
    3b97:	85 c0                	test   %eax,%eax
    3b99:	0f 84 ae 00 00 00    	je     3c4d <builtin_declare+0xcd>
    3b9f:	89 30                	mov    %esi,(%eax)
    3ba1:	89 46 04             	mov    %eax,0x4(%esi)
    3ba4:	89 c3                	mov    %eax,%ebx
    3ba6:	8d 45 9c             	lea    -0x64(%ebp),%eax
    3ba9:	52                   	push   %edx
    3baa:	52                   	push   %edx
    3bab:	68 42 d9 01 00       	push   $0x1d942
    3bb0:	50                   	push   %eax
    3bb1:	e8 da 0b 00 00       	call   4790 <input_new_string>
    3bb6:	59                   	pop    %ecx
    3bb7:	8b 45 9c             	mov    -0x64(%ebp),%eax
    3bba:	5e                   	pop    %esi
    3bbb:	8d 75 b4             	lea    -0x4c(%ebp),%esi
    3bbe:	50                   	push   %eax
    3bbf:	56                   	push   %esi
    3bc0:	e8 9b 17 00 00       	call   5360 <lex_init>
    3bc5:	83 c4 0c             	add    $0xc,%esp
    3bc8:	8b 03                	mov    (%ebx),%eax
    3bca:	56                   	push   %esi
    3bcb:	8d 75 a0             	lea    -0x60(%ebp),%esi
    3bce:	50                   	push   %eax
    3bcf:	56                   	push   %esi
    3bd0:	e8 9b 30 00 00       	call   6c70 <parse_init>
    3bd5:	89 34 24             	mov    %esi,(%esp)
    3bd8:	e8 73 75 00 00       	call   b150 <parse_module>
    3bdd:	e8 fe 0d 01 00       	call   149e0 <stree_ident_new>
    3be2:	c7 04 24 57 d9 01 00 	movl   $0x1d957,(%esp)
    3be9:	89 c6                	mov    %eax,%esi
    3beb:	e8 40 13 01 00       	call   14f30 <strtab_get_sid>
    3bf0:	83 c4 0c             	add    $0xc,%esp
    3bf3:	89 06                	mov    %eax,(%esi)
    3bf5:	8b 03                	mov    (%ebx),%eax
    3bf7:	56                   	push   %esi
    3bf8:	6a 00                	push   $0x0
    3bfa:	50                   	push   %eax
    3bfb:	e8 d0 5a 01 00       	call   196d0 <symbol_lookup_in_csi>
    3c00:	83 c4 10             	add    $0x10,%esp
    3c03:	85 c0                	test   %eax,%eax
    3c05:	74 5f                	je     3c66 <builtin_declare+0xe6>
    3c07:	83 ec 0c             	sub    $0xc,%esp
    3c0a:	89 43 04             	mov    %eax,0x4(%ebx)
    3c0d:	53                   	push   %ebx
    3c0e:	e8 6d d5 ff ff       	call   1180 <bi_error_declare>
    3c13:	89 1c 24             	mov    %ebx,(%esp)
    3c16:	e8 85 d6 ff ff       	call   12a0 <bi_char_declare>
    3c1b:	89 1c 24             	mov    %ebx,(%esp)
    3c1e:	e8 1d d9 ff ff       	call   1540 <bi_console_declare>
    3c23:	89 1c 24             	mov    %ebx,(%esp)
    3c26:	e8 75 da ff ff       	call   16a0 <bi_int_declare>
    3c2b:	89 1c 24             	mov    %ebx,(%esp)
    3c2e:	e8 1d dc ff ff       	call   1850 <bi_task_declare>
    3c33:	89 1c 24             	mov    %ebx,(%esp)
    3c36:	e8 e5 e1 ff ff       	call   1e20 <bi_textfile_declare>
    3c3b:	89 1c 24             	mov    %ebx,(%esp)
    3c3e:	e8 cd e4 ff ff       	call   2110 <bi_string_declare>
    3c43:	83 c4 10             	add    $0x10,%esp
    3c46:	8d 65 f8             	lea    -0x8(%ebp),%esp
    3c49:	5b                   	pop    %ebx
    3c4a:	5e                   	pop    %esi
    3c4b:	5d                   	pop    %ebp
    3c4c:	c3                   	ret    
    3c4d:	83 ec 0c             	sub    $0xc,%esp
    3c50:	68 a0 d1 01 00       	push   $0x1d1a0
    3c55:	e8 36 e4 01 00       	call   22090 <printf@plt>
    3c5a:	c7 04 24 01 00 00 00 	movl   $0x1,(%esp)
    3c61:	e8 6a e6 01 00       	call   222d0 <exit@plt>
    3c66:	50                   	push   %eax
    3c67:	68 be 00 00 00       	push   $0xbe
    3c6c:	68 5e d9 01 00       	push   $0x1d95e
    3c71:	68 70 d9 01 00       	push   $0x1d970
    3c76:	e8 25 e5 01 00       	call   221a0 <assert_abort@plt>
    3c7b:	90                   	nop
    3c7c:	8d 74 26 00          	lea    0x0(%esi,%eiz,1),%esi

00003c80 <builtin_bind>:
    3c80:	55                   	push   %ebp
    3c81:	89 e5                	mov    %esp,%ebp
    3c83:	53                   	push   %ebx
    3c84:	83 ec 10             	sub    $0x10,%esp
    3c87:	8b 5d 08             	mov    0x8(%ebp),%ebx
    3c8a:	53                   	push   %ebx
    3c8b:	e8 a0 d4 ff ff       	call   1130 <bi_boxed_bind>
    3c90:	89 1c 24             	mov    %ebx,(%esp)
    3c93:	e8 08 d5 ff ff       	call   11a0 <bi_error_bind>
    3c98:	89 1c 24             	mov    %ebx,(%esp)
    3c9b:	e8 10 d6 ff ff       	call   12b0 <bi_char_bind>
    3ca0:	89 1c 24             	mov    %ebx,(%esp)
    3ca3:	e8 58 d9 ff ff       	call   1600 <bi_console_bind>
    3ca8:	89 1c 24             	mov    %ebx,(%esp)
    3cab:	e8 00 da ff ff       	call   16b0 <bi_int_bind>
    3cb0:	89 1c 24             	mov    %ebx,(%esp)
    3cb3:	e8 b8 db ff ff       	call   1870 <bi_task_bind>
    3cb8:	89 1c 24             	mov    %ebx,(%esp)
    3cbb:	e8 80 e1 ff ff       	call   1e40 <bi_textfile_bind>
    3cc0:	89 5d 08             	mov    %ebx,0x8(%ebp)
    3cc3:	83 c4 10             	add    $0x10,%esp
    3cc6:	8b 5d fc             	mov    -0x4(%ebp),%ebx
    3cc9:	c9                   	leave  
    3cca:	e9 51 e4 ff ff       	jmp    2120 <bi_string_bind>
    3ccf:	90                   	nop

00003cd0 <builtin_get_gf_class>:
    3cd0:	55                   	push   %ebp
    3cd1:	89 e5                	mov    %esp,%ebp
    3cd3:	8b 45 08             	mov    0x8(%ebp),%eax
    3cd6:	8b 40 04             	mov    0x4(%eax),%eax
    3cd9:	85 c0                	test   %eax,%eax
    3cdb:	74 0b                	je     3ce8 <builtin_get_gf_class+0x18>
    3cdd:	89 45 08             	mov    %eax,0x8(%ebp)
    3ce0:	5d                   	pop    %ebp
    3ce1:	e9 2a 57 01 00       	jmp    19410 <symbol_to_csi>
    3ce6:	66 90                	xchg   %ax,%ax
    3ce8:	31 c0                	xor    %eax,%eax
    3cea:	5d                   	pop    %ebp
    3ceb:	c3                   	ret    
    3cec:	8d 74 26 00          	lea    0x0(%esi,%eiz,1),%esi

00003cf0 <builtin_code_snippet>:
    3cf0:	55                   	push   %ebp
    3cf1:	89 e5                	mov    %esp,%ebp
    3cf3:	53                   	push   %ebx
    3cf4:	83 ec 6c             	sub    $0x6c,%esp
    3cf7:	8b 45 0c             	mov    0xc(%ebp),%eax
    3cfa:	50                   	push   %eax
    3cfb:	8d 45 9c             	lea    -0x64(%ebp),%eax
    3cfe:	50                   	push   %eax
    3cff:	e8 8c 0a 00 00       	call   4790 <input_new_string>
    3d04:	8b 5d 9c             	mov    -0x64(%ebp),%ebx
    3d07:	5a                   	pop    %edx
    3d08:	59                   	pop    %ecx
    3d09:	53                   	push   %ebx
    3d0a:	8d 5d b4             	lea    -0x4c(%ebp),%ebx
    3d0d:	53                   	push   %ebx
    3d0e:	e8 4d 16 00 00       	call   5360 <lex_init>
    3d13:	83 c4 0c             	add    $0xc,%esp
    3d16:	8b 45 08             	mov    0x8(%ebp),%eax
    3d19:	53                   	push   %ebx
    3d1a:	8b 00                	mov    (%eax),%eax
    3d1c:	8d 5d a0             	lea    -0x60(%ebp),%ebx
    3d1f:	50                   	push   %eax
    3d20:	53                   	push   %ebx
    3d21:	e8 4a 2f 00 00       	call   6c70 <parse_init>
    3d26:	89 1c 24             	mov    %ebx,(%esp)
    3d29:	e8 22 74 00 00       	call   b150 <parse_module>
    3d2e:	83 c4 10             	add    $0x10,%esp
    3d31:	8b 5d fc             	mov    -0x4(%ebp),%ebx
    3d34:	c9                   	leave  
    3d35:	c3                   	ret    
    3d36:	8d 76 00             	lea    0x0(%esi),%esi
    3d39:	8d bc 27 00 00 00 00 	lea    0x0(%edi,%eiz,1),%edi

00003d40 <builtin_find_lvl0>:
    3d40:	55                   	push   %ebp
    3d41:	89 e5                	mov    %esp,%ebp
    3d43:	53                   	push   %ebx
    3d44:	52                   	push   %edx
    3d45:	e8 96 0c 01 00       	call   149e0 <stree_ident_new>
    3d4a:	83 ec 0c             	sub    $0xc,%esp
    3d4d:	8b 4d 0c             	mov    0xc(%ebp),%ecx
    3d50:	89 c3                	mov    %eax,%ebx
    3d52:	51                   	push   %ecx
    3d53:	e8 d8 11 01 00       	call   14f30 <strtab_get_sid>
    3d58:	83 c4 0c             	add    $0xc,%esp
    3d5b:	89 03                	mov    %eax,(%ebx)
    3d5d:	8b 45 08             	mov    0x8(%ebp),%eax
    3d60:	53                   	push   %ebx
    3d61:	6a 00                	push   $0x0
    3d63:	8b 18                	mov    (%eax),%ebx
    3d65:	53                   	push   %ebx
    3d66:	e8 65 59 01 00       	call   196d0 <symbol_lookup_in_csi>
    3d6b:	83 c4 10             	add    $0x10,%esp
    3d6e:	85 c0                	test   %eax,%eax
    3d70:	74 05                	je     3d77 <builtin_find_lvl0+0x37>
    3d72:	8b 5d fc             	mov    -0x4(%ebp),%ebx
    3d75:	c9                   	leave  
    3d76:	c3                   	ret    
    3d77:	50                   	push   %eax
    3d78:	68 be 00 00 00       	push   $0xbe
    3d7d:	68 5e d9 01 00       	push   $0x1d95e
    3d82:	68 70 d9 01 00       	push   $0x1d970
    3d87:	e8 14 e4 01 00       	call   221a0 <assert_abort@plt>
    3d8c:	8d 74 26 00          	lea    0x0(%esi,%eiz,1),%esi

00003d90 <builtin_find_lvl1>:
    3d90:	55                   	push   %ebp
    3d91:	89 e5                	mov    %esp,%ebp
    3d93:	57                   	push   %edi
    3d94:	56                   	push   %esi
    3d95:	53                   	push   %ebx
    3d96:	83 ec 0c             	sub    $0xc,%esp
    3d99:	8b 75 08             	mov    0x8(%ebp),%esi
    3d9c:	e8 3f 0c 01 00       	call   149e0 <stree_ident_new>
    3da1:	83 ec 0c             	sub    $0xc,%esp
    3da4:	8b 7d 0c             	mov    0xc(%ebp),%edi
    3da7:	89 c3                	mov    %eax,%ebx
    3da9:	57                   	push   %edi
    3daa:	e8 81 11 01 00       	call   14f30 <strtab_get_sid>
    3daf:	83 c4 0c             	add    $0xc,%esp
    3db2:	89 03                	mov    %eax,(%ebx)
    3db4:	8b 06                	mov    (%esi),%eax
    3db6:	53                   	push   %ebx
    3db7:	6a 00                	push   $0x0
    3db9:	50                   	push   %eax
    3dba:	e8 11 59 01 00       	call   196d0 <symbol_lookup_in_csi>
    3dbf:	83 c4 10             	add    $0x10,%esp
    3dc2:	85 c0                	test   %eax,%eax
    3dc4:	74 3c                	je     3e02 <builtin_find_lvl1+0x72>
    3dc6:	83 ec 0c             	sub    $0xc,%esp
    3dc9:	50                   	push   %eax
    3dca:	e8 41 56 01 00       	call   19410 <symbol_to_csi>
    3dcf:	83 c4 10             	add    $0x10,%esp
    3dd2:	89 c7                	mov    %eax,%edi
    3dd4:	85 c0                	test   %eax,%eax
    3dd6:	74 54                	je     3e2c <builtin_find_lvl1+0x9c>
    3dd8:	83 ec 0c             	sub    $0xc,%esp
    3ddb:	8b 55 10             	mov    0x10(%ebp),%edx
    3dde:	52                   	push   %edx
    3ddf:	e8 4c 11 01 00       	call   14f30 <strtab_get_sid>
    3de4:	83 c4 0c             	add    $0xc,%esp
    3de7:	89 03                	mov    %eax,(%ebx)
    3de9:	8b 0e                	mov    (%esi),%ecx
    3deb:	53                   	push   %ebx
    3dec:	57                   	push   %edi
    3ded:	51                   	push   %ecx
    3dee:	e8 dd 58 01 00       	call   196d0 <symbol_lookup_in_csi>
    3df3:	83 c4 10             	add    $0x10,%esp
    3df6:	85 c0                	test   %eax,%eax
    3df8:	74 1d                	je     3e17 <builtin_find_lvl1+0x87>
    3dfa:	8d 65 f4             	lea    -0xc(%ebp),%esp
    3dfd:	5b                   	pop    %ebx
    3dfe:	5e                   	pop    %esi
    3dff:	5f                   	pop    %edi
    3e00:	5d                   	pop    %ebp
    3e01:	c3                   	ret    
    3e02:	56                   	push   %esi
    3e03:	68 d9 00 00 00       	push   $0xd9
    3e08:	68 5e d9 01 00       	push   $0x1d95e
    3e0d:	68 6c d9 01 00       	push   $0x1d96c
    3e12:	e8 89 e3 01 00       	call   221a0 <assert_abort@plt>
    3e17:	50                   	push   %eax
    3e18:	68 df 00 00 00       	push   $0xdf
    3e1d:	68 5e d9 01 00       	push   $0x1d95e
    3e22:	68 7c d9 01 00       	push   $0x1d97c
    3e27:	e8 74 e3 01 00       	call   221a0 <assert_abort@plt>
    3e2c:	53                   	push   %ebx
    3e2d:	68 db 00 00 00       	push   $0xdb
    3e32:	68 5e d9 01 00       	push   $0x1d95e
    3e37:	68 3f 0b 02 00       	push   $0x20b3f
    3e3c:	e8 5f e3 01 00       	call   221a0 <assert_abort@plt>
    3e41:	eb 0d                	jmp    3e50 <builtin_fun_bind>
    3e43:	90                   	nop
    3e44:	90                   	nop
    3e45:	90                   	nop
    3e46:	90                   	nop
    3e47:	90                   	nop
    3e48:	90                   	nop
    3e49:	90                   	nop
    3e4a:	90                   	nop
    3e4b:	90                   	nop
    3e4c:	90                   	nop
    3e4d:	90                   	nop
    3e4e:	90                   	nop
    3e4f:	90                   	nop

00003e50 <builtin_fun_bind>:
    3e50:	55                   	push   %ebp
    3e51:	89 e5                	mov    %esp,%ebp
    3e53:	57                   	push   %edi
    3e54:	56                   	push   %esi
    3e55:	53                   	push   %ebx
    3e56:	83 ec 0c             	sub    $0xc,%esp
    3e59:	8b 75 08             	mov    0x8(%ebp),%esi
    3e5c:	e8 7f 0b 01 00       	call   149e0 <stree_ident_new>
    3e61:	83 ec 0c             	sub    $0xc,%esp
    3e64:	89 c3                	mov    %eax,%ebx
    3e66:	8b 45 0c             	mov    0xc(%ebp),%eax
    3e69:	50                   	push   %eax
    3e6a:	e8 c1 10 01 00       	call   14f30 <strtab_get_sid>
    3e6f:	83 c4 0c             	add    $0xc,%esp
    3e72:	89 03                	mov    %eax,(%ebx)
    3e74:	8b 06                	mov    (%esi),%eax
    3e76:	53                   	push   %ebx
    3e77:	6a 00                	push   $0x0
    3e79:	50                   	push   %eax
    3e7a:	e8 51 58 01 00       	call   196d0 <symbol_lookup_in_csi>
    3e7f:	83 c4 10             	add    $0x10,%esp
    3e82:	85 c0                	test   %eax,%eax
    3e84:	74 59                	je     3edf <builtin_fun_bind+0x8f>
    3e86:	83 ec 0c             	sub    $0xc,%esp
    3e89:	50                   	push   %eax
    3e8a:	e8 81 55 01 00       	call   19410 <symbol_to_csi>
    3e8f:	83 c4 10             	add    $0x10,%esp
    3e92:	89 c7                	mov    %eax,%edi
    3e94:	85 c0                	test   %eax,%eax
    3e96:	0f 84 82 00 00 00    	je     3f1e <builtin_fun_bind+0xce>
    3e9c:	83 ec 0c             	sub    $0xc,%esp
    3e9f:	8b 4d 10             	mov    0x10(%ebp),%ecx
    3ea2:	51                   	push   %ecx
    3ea3:	e8 88 10 01 00       	call   14f30 <strtab_get_sid>
    3ea8:	83 c4 0c             	add    $0xc,%esp
    3eab:	89 03                	mov    %eax,(%ebx)
    3ead:	53                   	push   %ebx
    3eae:	8b 1e                	mov    (%esi),%ebx
    3eb0:	57                   	push   %edi
    3eb1:	53                   	push   %ebx
    3eb2:	e8 19 58 01 00       	call   196d0 <symbol_lookup_in_csi>
    3eb7:	83 c4 10             	add    $0x10,%esp
    3eba:	85 c0                	test   %eax,%eax
    3ebc:	74 4b                	je     3f09 <builtin_fun_bind+0xb9>
    3ebe:	83 ec 0c             	sub    $0xc,%esp
    3ec1:	50                   	push   %eax
    3ec2:	e8 d9 55 01 00       	call   194a0 <symbol_to_fun>
    3ec7:	83 c4 10             	add    $0x10,%esp
    3eca:	85 c0                	test   %eax,%eax
    3ecc:	74 26                	je     3ef4 <builtin_fun_bind+0xa4>
    3ece:	8b 40 0c             	mov    0xc(%eax),%eax
    3ed1:	8b 55 14             	mov    0x14(%ebp),%edx
    3ed4:	89 50 08             	mov    %edx,0x8(%eax)
    3ed7:	8d 65 f4             	lea    -0xc(%ebp),%esp
    3eda:	5b                   	pop    %ebx
    3edb:	5e                   	pop    %esi
    3edc:	5f                   	pop    %edi
    3edd:	5d                   	pop    %ebp
    3ede:	c3                   	ret    
    3edf:	57                   	push   %edi
    3ee0:	68 d9 00 00 00       	push   $0xd9
    3ee5:	68 5e d9 01 00       	push   $0x1d95e
    3eea:	68 6c d9 01 00       	push   $0x1d96c
    3eef:	e8 ac e2 01 00       	call   221a0 <assert_abort@plt>
    3ef4:	50                   	push   %eax
    3ef5:	68 f7 00 00 00       	push   $0xf7
    3efa:	68 5e d9 01 00       	push   $0x1d95e
    3eff:	68 29 f5 01 00       	push   $0x1f529
    3f04:	e8 97 e2 01 00       	call   221a0 <assert_abort@plt>
    3f09:	52                   	push   %edx
    3f0a:	68 df 00 00 00       	push   $0xdf
    3f0f:	68 5e d9 01 00       	push   $0x1d95e
    3f14:	68 7c d9 01 00       	push   $0x1d97c
    3f19:	e8 82 e2 01 00       	call   221a0 <assert_abort@plt>
    3f1e:	56                   	push   %esi
    3f1f:	68 db 00 00 00       	push   $0xdb
    3f24:	68 5e d9 01 00       	push   $0x1d95e
    3f29:	68 3f 0b 02 00       	push   $0x20b3f
    3f2e:	e8 6d e2 01 00       	call   221a0 <assert_abort@plt>
    3f33:	8d b6 00 00 00 00    	lea    0x0(%esi),%esi
    3f39:	8d bc 27 00 00 00 00 	lea    0x0(%edi,%eiz,1),%edi

00003f40 <builtin_run_proc>:
    3f40:	55                   	push   %ebp
    3f41:	89 e5                	mov    %esp,%ebp
    3f43:	53                   	push   %ebx
    3f44:	50                   	push   %eax
    3f45:	8b 55 0c             	mov    0xc(%ebp),%edx
    3f48:	8b 4d 08             	mov    0x8(%ebp),%ecx
    3f4b:	8b 42 08             	mov    0x8(%edx),%eax
    3f4e:	85 c0                	test   %eax,%eax
    3f50:	74 09                	je     3f5b <builtin_run_proc+0x1b>
    3f52:	89 4d 08             	mov    %ecx,0x8(%ebp)
    3f55:	8b 5d fc             	mov    -0x4(%ebp),%ebx
    3f58:	c9                   	leave  
    3f59:	ff e0                	jmp    *%eax
    3f5b:	83 ec 0c             	sub    $0xc,%esp
    3f5e:	8b 1a                	mov    (%edx),%ebx
    3f60:	68 bc d9 01 00       	push   $0x1d9bc
    3f65:	e8 26 e1 01 00       	call   22090 <printf@plt>
    3f6a:	89 1c 24             	mov    %ebx,(%esp)
    3f6d:	e8 ce 5e 01 00       	call   19e40 <symbol_print_fqn>
    3f72:	c7 04 24 1e 01 02 00 	movl   $0x2011e,(%esp)
    3f79:	e8 12 e1 01 00       	call   22090 <printf@plt>
    3f7e:	c7 04 24 01 00 00 00 	movl   $0x1,(%esp)
    3f85:	e8 46 e3 01 00       	call   222d0 <exit@plt>
    3f8a:	8d b6 00 00 00 00    	lea    0x0(%esi),%esi

00003f90 <builtin_get_self_mbr_var>:
    3f90:	55                   	push   %ebp
    3f91:	89 e5                	mov    %esp,%ebp
    3f93:	53                   	push   %ebx
    3f94:	83 ec 10             	sub    $0x10,%esp
    3f97:	8b 5d 08             	mov    0x8(%ebp),%ebx
    3f9a:	53                   	push   %ebx
    3f9b:	e8 f0 9d 00 00       	call   dd90 <run_get_current_proc_ar>
    3fa0:	83 c4 10             	add    $0x10,%esp
    3fa3:	8b 00                	mov    (%eax),%eax
    3fa5:	83 38 08             	cmpl   $0x8,(%eax)
    3fa8:	75 27                	jne    3fd1 <builtin_get_self_mbr_var+0x41>
    3faa:	83 ec 0c             	sub    $0xc,%esp
    3fad:	8b 55 0c             	mov    0xc(%ebp),%edx
    3fb0:	8b 58 04             	mov    0x4(%eax),%ebx
    3fb3:	52                   	push   %edx
    3fb4:	e8 77 0f 01 00       	call   14f30 <strtab_get_sid>
    3fb9:	83 c3 08             	add    $0x8,%ebx
    3fbc:	59                   	pop    %ecx
    3fbd:	5a                   	pop    %edx
    3fbe:	50                   	push   %eax
    3fbf:	53                   	push   %ebx
    3fc0:	e8 2b 0a 00 00       	call   49f0 <intmap_get>
    3fc5:	83 c4 10             	add    $0x10,%esp
    3fc8:	85 c0                	test   %eax,%eax
    3fca:	74 1a                	je     3fe6 <builtin_get_self_mbr_var+0x56>
    3fcc:	8b 5d fc             	mov    -0x4(%ebp),%ebx
    3fcf:	c9                   	leave  
    3fd0:	c3                   	ret    
    3fd1:	51                   	push   %ecx
    3fd2:	68 2a 01 00 00       	push   $0x12a
    3fd7:	68 5e d9 01 00       	push   $0x1d95e
    3fdc:	68 8c d9 01 00       	push   $0x1d98c
    3fe1:	e8 ba e1 01 00       	call   221a0 <assert_abort@plt>
    3fe6:	50                   	push   %eax
    3fe7:	68 2f 01 00 00       	push   $0x12f
    3fec:	68 5e d9 01 00       	push   $0x1d95e
    3ff1:	68 aa d9 01 00       	push   $0x1d9aa
    3ff6:	e8 a5 e1 01 00       	call   221a0 <assert_abort@plt>
    3ffb:	90                   	nop
    3ffc:	8d 74 26 00          	lea    0x0(%esi,%eiz,1),%esi

00004000 <builtin_return_string>:
    4000:	55                   	push   %ebp
    4001:	89 e5                	mov    %esp,%ebp
    4003:	56                   	push   %esi
    4004:	53                   	push   %ebx
    4005:	e8 86 7f 00 00       	call   bf90 <rdata_string_new>
    400a:	89 c6                	mov    %eax,%esi
    400c:	83 ec 0c             	sub    $0xc,%esp
    400f:	8b 45 0c             	mov    0xc(%ebp),%eax
    4012:	89 06                	mov    %eax,(%esi)
    4014:	6a 03                	push   $0x3
    4016:	e8 f5 7d 00 00       	call   be10 <rdata_var_new>
    401b:	89 c3                	mov    %eax,%ebx
    401d:	89 70 04             	mov    %esi,0x4(%eax)
    4020:	e8 cb 7d 00 00       	call   bdf0 <rdata_value_new>
    4025:	89 c6                	mov    %eax,%esi
    4027:	89 18                	mov    %ebx,(%eax)
    4029:	c7 04 24 01 00 00 00 	movl   $0x1,(%esp)
    4030:	e8 4b 7c 00 00       	call   bc80 <rdata_item_new>
    4035:	8b 55 08             	mov    0x8(%ebp),%edx
    4038:	89 c3                	mov    %eax,%ebx
    403a:	89 70 04             	mov    %esi,0x4(%eax)
    403d:	58                   	pop    %eax
    403e:	52                   	push   %edx
    403f:	e8 4c 9d 00 00       	call   dd90 <run_get_current_proc_ar>
    4044:	83 c4 10             	add    $0x10,%esp
    4047:	89 58 14             	mov    %ebx,0x14(%eax)
    404a:	8d 65 f8             	lea    -0x8(%ebp),%esp
    404d:	5b                   	pop    %ebx
    404e:	5e                   	pop    %esi
    404f:	5d                   	pop    %ebp
    4050:	c3                   	ret    
    4051:	eb 0d                	jmp    4060 <builtin_declare_fun>
    4053:	90                   	nop
    4054:	90                   	nop
    4055:	90                   	nop
    4056:	90                   	nop
    4057:	90                   	nop
    4058:	90                   	nop
    4059:	90                   	nop
    405a:	90                   	nop
    405b:	90                   	nop
    405c:	90                   	nop
    405d:	90                   	nop
    405e:	90                   	nop
    405f:	90                   	nop

00004060 <builtin_declare_fun>:
    4060:	55                   	push   %ebp
    4061:	89 e5                	mov    %esp,%ebp
    4063:	57                   	push   %edi
    4064:	56                   	push   %esi
    4065:	53                   	push   %ebx
    4066:	83 ec 0c             	sub    $0xc,%esp
    4069:	e8 72 09 01 00       	call   149e0 <stree_ident_new>
    406e:	83 ec 0c             	sub    $0xc,%esp
    4071:	89 c6                	mov    %eax,%esi
    4073:	8b 45 0c             	mov    0xc(%ebp),%eax
    4076:	50                   	push   %eax
    4077:	e8 b4 0e 01 00       	call   14f30 <strtab_get_sid>
    407c:	89 06                	mov    %eax,(%esi)
    407e:	e8 9d 00 01 00       	call   14120 <stree_fun_new>
    4083:	89 c3                	mov    %eax,%ebx
    4085:	89 30                	mov    %esi,(%eax)
    4087:	e8 d4 01 01 00       	call   14260 <stree_proc_new>
    408c:	89 43 0c             	mov    %eax,0xc(%ebx)
    408f:	c7 40 04 00 00 00 00 	movl   $0x0,0x4(%eax)
    4096:	e8 45 02 01 00       	call   142e0 <stree_fun_sig_new>
    409b:	89 43 08             	mov    %eax,0x8(%ebx)
    409e:	89 04 24             	mov    %eax,(%esp)
    40a1:	e8 fa 13 00 00       	call   54a0 <list_init>
    40a6:	c7 04 24 04 00 00 00 	movl   $0x4,(%esp)
    40ad:	e8 2e ff 00 00       	call   13fe0 <stree_csimbr_new>
    40b2:	89 c7                	mov    %eax,%edi
    40b4:	89 58 04             	mov    %ebx,0x4(%eax)
    40b7:	c7 04 24 04 00 00 00 	movl   $0x4,(%esp)
    40be:	e8 5d 0b 01 00       	call   14c20 <stree_symbol_new>
    40c3:	89 c6                	mov    %eax,%esi
    40c5:	89 58 04             	mov    %ebx,0x4(%eax)
    40c8:	8b 45 08             	mov    0x8(%ebp),%eax
    40cb:	89 46 08             	mov    %eax,0x8(%esi)
    40ce:	c7 04 24 01 00 00 00 	movl   $0x1,(%esp)
    40d5:	e8 46 01 01 00       	call   14220 <stree_symbol_attr_new>
    40da:	5a                   	pop    %edx
    40db:	59                   	pop    %ecx
    40dc:	50                   	push   %eax
    40dd:	8d 46 0c             	lea    0xc(%esi),%eax
    40e0:	50                   	push   %eax
    40e1:	e8 0a 14 00 00       	call   54f0 <sbi_list_append>
    40e6:	8b 43 0c             	mov    0xc(%ebx),%eax
    40e9:	89 73 04             	mov    %esi,0x4(%ebx)
    40ec:	89 30                	mov    %esi,(%eax)
    40ee:	5b                   	pop    %ebx
    40ef:	58                   	pop    %eax
    40f0:	8b 45 08             	mov    0x8(%ebp),%eax
    40f3:	57                   	push   %edi
    40f4:	8d 78 38             	lea    0x38(%eax),%edi
    40f7:	57                   	push   %edi
    40f8:	e8 f3 13 00 00       	call   54f0 <sbi_list_append>
    40fd:	8d 65 f4             	lea    -0xc(%ebp),%esp
    4100:	89 f0                	mov    %esi,%eax
    4102:	5b                   	pop    %ebx
    4103:	5e                   	pop    %esi
    4104:	5f                   	pop    %edi
    4105:	5d                   	pop    %ebp
    4106:	c3                   	ret    
    4107:	89 f6                	mov    %esi,%esi
    4109:	8d bc 27 00 00 00 00 	lea    0x0(%edi,%eiz,1),%edi

00004110 <builtin_fun_add_arg>:
    4110:	55                   	push   %ebp
    4111:	89 e5                	mov    %esp,%ebp
    4113:	57                   	push   %edi
    4114:	56                   	push   %esi
    4115:	53                   	push   %ebx
    4116:	83 ec 28             	sub    $0x28,%esp
    4119:	8b 55 08             	mov    0x8(%ebp),%edx
    411c:	8b 7d 0c             	mov    0xc(%ebp),%edi
    411f:	52                   	push   %edx
    4120:	e8 7b 53 01 00       	call   194a0 <symbol_to_fun>
    4125:	83 c4 10             	add    $0x10,%esp
    4128:	85 c0                	test   %eax,%eax
    412a:	74 40                	je     416c <builtin_fun_add_arg+0x5c>
    412c:	89 c6                	mov    %eax,%esi
    412e:	e8 6d 01 01 00       	call   142a0 <stree_proc_arg_new>
    4133:	89 c3                	mov    %eax,%ebx
    4135:	e8 a6 08 01 00       	call   149e0 <stree_ident_new>
    413a:	83 ec 0c             	sub    $0xc,%esp
    413d:	89 03                	mov    %eax,(%ebx)
    413f:	89 45 e4             	mov    %eax,-0x1c(%ebp)
    4142:	57                   	push   %edi
    4143:	e8 e8 0d 01 00       	call   14f30 <strtab_get_sid>
    4148:	8b 55 e4             	mov    -0x1c(%ebp),%edx
    414b:	83 c4 10             	add    $0x10,%esp
    414e:	89 02                	mov    %eax,(%edx)
    4150:	c7 43 04 00 00 00 00 	movl   $0x0,0x4(%ebx)
    4157:	89 5d 0c             	mov    %ebx,0xc(%ebp)
    415a:	8b 46 08             	mov    0x8(%esi),%eax
    415d:	89 45 08             	mov    %eax,0x8(%ebp)
    4160:	8d 65 f4             	lea    -0xc(%ebp),%esp
    4163:	5b                   	pop    %ebx
    4164:	5e                   	pop    %esi
    4165:	5f                   	pop    %edi
    4166:	5d                   	pop    %ebp
    4167:	e9 84 13 00 00       	jmp    54f0 <sbi_list_append>
    416c:	50                   	push   %eax
    416d:	68 96 01 00 00       	push   $0x196
    4172:	68 5e d9 01 00       	push   $0x1d95e
    4177:	68 29 f5 01 00       	push   $0x1f529
    417c:	e8 1f e0 01 00       	call   221a0 <assert_abort@plt>
    4181:	66 90                	xchg   %ax,%ax
    4183:	66 90                	xchg   %ax,%ax
    4185:	66 90                	xchg   %ax,%ax
    4187:	66 90                	xchg   %ax,%ax
    4189:	66 90                	xchg   %ax,%ax
    418b:	66 90                	xchg   %ax,%ax
    418d:	66 90                	xchg   %ax,%ax
    418f:	90                   	nop

00004190 <cspan_new>:
    4190:	55                   	push   %ebp
    4191:	89 e5                	mov    %esp,%ebp
    4193:	83 ec 10             	sub    $0x10,%esp
    4196:	6a 14                	push   $0x14
    4198:	6a 01                	push   $0x1
    419a:	e8 11 e0 01 00       	call   221b0 <calloc@plt>
    419f:	83 c4 10             	add    $0x10,%esp
    41a2:	85 c0                	test   %eax,%eax
    41a4:	74 1f                	je     41c5 <cspan_new+0x35>
    41a6:	8b 55 08             	mov    0x8(%ebp),%edx
    41a9:	89 10                	mov    %edx,(%eax)
    41ab:	8b 55 0c             	mov    0xc(%ebp),%edx
    41ae:	89 50 04             	mov    %edx,0x4(%eax)
    41b1:	8b 55 10             	mov    0x10(%ebp),%edx
    41b4:	89 50 08             	mov    %edx,0x8(%eax)
    41b7:	8b 55 14             	mov    0x14(%ebp),%edx
    41ba:	89 50 0c             	mov    %edx,0xc(%eax)
    41bd:	8b 55 18             	mov    0x18(%ebp),%edx
    41c0:	89 50 10             	mov    %edx,0x10(%eax)
    41c3:	c9                   	leave  
    41c4:	c3                   	ret    
    41c5:	83 ec 0c             	sub    $0xc,%esp
    41c8:	68 a0 d1 01 00       	push   $0x1d1a0
    41cd:	e8 be de 01 00       	call   22090 <printf@plt>
    41d2:	c7 04 24 01 00 00 00 	movl   $0x1,(%esp)
    41d9:	e8 f2 e0 01 00       	call   222d0 <exit@plt>
    41de:	66 90                	xchg   %ax,%ax

000041e0 <cspan_merge>:
    41e0:	55                   	push   %ebp
    41e1:	89 e5                	mov    %esp,%ebp
    41e3:	57                   	push   %edi
    41e4:	56                   	push   %esi
    41e5:	53                   	push   %ebx
    41e6:	83 ec 1c             	sub    $0x1c,%esp
    41e9:	8b 45 08             	mov    0x8(%ebp),%eax
    41ec:	8b 55 0c             	mov    0xc(%ebp),%edx
    41ef:	85 c0                	test   %eax,%eax
    41f1:	74 4e                	je     4241 <cspan_merge+0x61>
    41f3:	85 d2                	test   %edx,%edx
    41f5:	0f 84 83 00 00 00    	je     427e <cspan_merge+0x9e>
    41fb:	8b 18                	mov    (%eax),%ebx
    41fd:	3b 1a                	cmp    (%edx),%ebx
    41ff:	75 6b                	jne    426c <cspan_merge+0x8c>
    4201:	8b 48 04             	mov    0x4(%eax),%ecx
    4204:	8b 72 10             	mov    0x10(%edx),%esi
    4207:	8b 7a 0c             	mov    0xc(%edx),%edi
    420a:	8b 50 08             	mov    0x8(%eax),%edx
    420d:	89 55 e0             	mov    %edx,-0x20(%ebp)
    4210:	89 4d e4             	mov    %ecx,-0x1c(%ebp)
    4213:	50                   	push   %eax
    4214:	50                   	push   %eax
    4215:	6a 14                	push   $0x14
    4217:	6a 01                	push   $0x1
    4219:	e8 92 df 01 00       	call   221b0 <calloc@plt>
    421e:	83 c4 10             	add    $0x10,%esp
    4221:	8b 4d e4             	mov    -0x1c(%ebp),%ecx
    4224:	85 c0                	test   %eax,%eax
    4226:	8b 55 e0             	mov    -0x20(%ebp),%edx
    4229:	74 28                	je     4253 <cspan_merge+0x73>
    422b:	89 18                	mov    %ebx,(%eax)
    422d:	89 48 04             	mov    %ecx,0x4(%eax)
    4230:	89 50 08             	mov    %edx,0x8(%eax)
    4233:	89 78 0c             	mov    %edi,0xc(%eax)
    4236:	89 70 10             	mov    %esi,0x10(%eax)
    4239:	8d 65 f4             	lea    -0xc(%ebp),%esp
    423c:	5b                   	pop    %ebx
    423d:	5e                   	pop    %esi
    423e:	5f                   	pop    %edi
    423f:	5d                   	pop    %ebp
    4240:	c3                   	ret    
    4241:	53                   	push   %ebx
    4242:	6a 53                	push   $0x53
    4244:	68 e3 d9 01 00       	push   $0x1d9e3
    4249:	68 ef d9 01 00       	push   $0x1d9ef
    424e:	e8 4d df 01 00       	call   221a0 <assert_abort@plt>
    4253:	83 ec 0c             	sub    $0xc,%esp
    4256:	68 a0 d1 01 00       	push   $0x1d1a0
    425b:	e8 30 de 01 00       	call   22090 <printf@plt>
    4260:	c7 04 24 01 00 00 00 	movl   $0x1,(%esp)
    4267:	e8 64 e0 01 00       	call   222d0 <exit@plt>
    426c:	52                   	push   %edx
    426d:	6a 55                	push   $0x55
    426f:	68 e3 d9 01 00       	push   $0x1d9e3
    4274:	68 03 da 01 00       	push   $0x1da03
    4279:	e8 22 df 01 00       	call   221a0 <assert_abort@plt>
    427e:	51                   	push   %ecx
    427f:	6a 54                	push   $0x54
    4281:	68 e3 d9 01 00       	push   $0x1d9e3
    4286:	68 f9 d9 01 00       	push   $0x1d9f9
    428b:	e8 10 df 01 00       	call   221a0 <assert_abort@plt>

00004290 <cspan_print>:
    4290:	55                   	push   %ebp
    4291:	89 e5                	mov    %esp,%ebp
    4293:	53                   	push   %ebx
    4294:	83 ec 0c             	sub    $0xc,%esp
    4297:	8b 5d 08             	mov    0x8(%ebp),%ebx
    429a:	8b 03                	mov    (%ebx),%eax
    429c:	8b 00                	mov    (%eax),%eax
    429e:	50                   	push   %eax
    429f:	68 18 da 01 00       	push   $0x1da18
    42a4:	e8 e7 dd 01 00       	call   22090 <printf@plt>
    42a9:	8b 43 04             	mov    0x4(%ebx),%eax
    42ac:	8b 53 0c             	mov    0xc(%ebx),%edx
    42af:	83 c4 10             	add    $0x10,%esp
    42b2:	39 d0                	cmp    %edx,%eax
    42b4:	74 22                	je     42d8 <cspan_print+0x48>
    42b6:	83 ec 0c             	sub    $0xc,%esp
    42b9:	8b 4b 10             	mov    0x10(%ebx),%ecx
    42bc:	51                   	push   %ecx
    42bd:	52                   	push   %edx
    42be:	8b 5b 08             	mov    0x8(%ebx),%ebx
    42c1:	53                   	push   %ebx
    42c2:	50                   	push   %eax
    42c3:	68 1c da 01 00       	push   $0x1da1c
    42c8:	e8 c3 dd 01 00       	call   22090 <printf@plt>
    42cd:	83 c4 20             	add    $0x20,%esp
    42d0:	8b 5d fc             	mov    -0x4(%ebp),%ebx
    42d3:	c9                   	leave  
    42d4:	c3                   	ret    
    42d5:	8d 76 00             	lea    0x0(%esi),%esi
    42d8:	8b 53 10             	mov    0x10(%ebx),%edx
    42db:	52                   	push   %edx
    42dc:	8b 4b 08             	mov    0x8(%ebx),%ecx
    42df:	51                   	push   %ecx
    42e0:	50                   	push   %eax
    42e1:	68 28 da 01 00       	push   $0x1da28
    42e6:	e8 a5 dd 01 00       	call   22090 <printf@plt>
    42eb:	83 c4 10             	add    $0x10,%esp
    42ee:	8b 5d fc             	mov    -0x4(%ebp),%ebx
    42f1:	c9                   	leave  
    42f2:	c3                   	ret    
    42f3:	66 90                	xchg   %ax,%ax
    42f5:	66 90                	xchg   %ax,%ax
    42f7:	66 90                	xchg   %ax,%ax
    42f9:	66 90                	xchg   %ax,%ax
    42fb:	66 90                	xchg   %ax,%ax
    42fd:	66 90                	xchg   %ax,%ax
    42ff:	90                   	nop

00004300 <imode_run>:
    4300:	55                   	push   %ebp
    4301:	89 e5                	mov    %esp,%ebp
    4303:	57                   	push   %edi
    4304:	56                   	push   %esi
    4305:	53                   	push   %ebx
    4306:	81 ec ac 00 00 00    	sub    $0xac,%esp
    430c:	e8 5f 09 01 00       	call   14c70 <stree_program_new>
    4311:	89 c7                	mov    %eax,%edi
    4313:	e8 c8 fb 00 00       	call   13ee0 <stree_module_new>
    4318:	83 ec 0c             	sub    $0xc,%esp
    431b:	89 07                	mov    %eax,(%edi)
    431d:	57                   	push   %edi
    431e:	e8 5d f8 ff ff       	call   3b80 <builtin_declare>
    4323:	89 3c 24             	mov    %edi,(%esp)
    4326:	e8 05 73 00 00       	call   b630 <program_lib_process>
    432b:	83 c4 10             	add    $0x10,%esp
    432e:	85 c0                	test   %eax,%eax
    4330:	0f 85 01 03 00 00    	jne    4637 <imode_run+0x337>
    4336:	51                   	push   %ecx
    4337:	51                   	push   %ecx
    4338:	8b 1f                	mov    (%edi),%ebx
    433a:	53                   	push   %ebx
    433b:	57                   	push   %edi
    433c:	e8 af e8 ff ff       	call   2bf0 <ancr_module_process>
    4341:	8b 47 04             	mov    0x4(%edi),%eax
    4344:	5e                   	pop    %esi
    4345:	50                   	push   %eax
    4346:	e8 35 f9 ff ff       	call   3c80 <builtin_bind>
    434b:	8b 0f                	mov    (%edi),%ecx
    434d:	58                   	pop    %eax
    434e:	5a                   	pop    %edx
    434f:	51                   	push   %ecx
    4350:	57                   	push   %edi
    4351:	e8 9a e8 ff ff       	call   2bf0 <ancr_module_process>
    4356:	89 7d 80             	mov    %edi,-0x80(%ebp)
    4359:	e8 52 37 01 00       	call   17ab0 <stype_proc_vr_new>
    435e:	89 45 88             	mov    %eax,-0x78(%ebp)
    4361:	83 c0 04             	add    $0x4,%eax
    4364:	89 04 24             	mov    %eax,(%esp)
    4367:	e8 34 11 00 00       	call   54a0 <list_init>
    436c:	c7 45 84 00 00 00 00 	movl   $0x0,-0x7c(%ebp)
    4373:	e8 e8 fe 00 00       	call   14260 <stree_proc_new>
    4378:	89 c6                	mov    %eax,%esi
    437a:	e8 a1 fd 00 00       	call   14120 <stree_fun_new>
    437f:	c7 04 24 04 00 00 00 	movl   $0x4,(%esp)
    4386:	89 c3                	mov    %eax,%ebx
    4388:	e8 93 08 01 00       	call   14c20 <stree_symbol_new>
    438d:	89 85 50 ff ff ff    	mov    %eax,-0xb0(%ebp)
    4393:	89 58 04             	mov    %ebx,0x4(%eax)
    4396:	e8 45 06 01 00       	call   149e0 <stree_ident_new>
    439b:	89 03                	mov    %eax,(%ebx)
    439d:	89 85 54 ff ff ff    	mov    %eax,-0xac(%ebp)
    43a3:	c7 04 24 31 da 01 00 	movl   $0x1da31,(%esp)
    43aa:	e8 81 0b 01 00       	call   14f30 <strtab_get_sid>
    43af:	8b 8d 54 ff ff ff    	mov    -0xac(%ebp),%ecx
    43b5:	89 01                	mov    %eax,(%ecx)
    43b7:	e8 24 ff 00 00       	call   142e0 <stree_fun_sig_new>
    43bc:	8b 95 50 ff ff ff    	mov    -0xb0(%ebp),%edx
    43c2:	89 43 08             	mov    %eax,0x8(%ebx)
    43c5:	8b 45 88             	mov    -0x78(%ebp),%eax
    43c8:	89 30                	mov    %esi,(%eax)
    43ca:	89 53 04             	mov    %edx,0x4(%ebx)
    43cd:	89 16                	mov    %edx,(%esi)
    43cf:	e8 fc 36 01 00       	call   17ad0 <stype_block_vr_new>
    43d4:	89 04 24             	mov    %eax,(%esp)
    43d7:	89 c3                	mov    %eax,%ebx
    43d9:	89 85 50 ff ff ff    	mov    %eax,-0xb0(%ebp)
    43df:	e8 2c 05 00 00       	call   4910 <intmap_init>
    43e4:	58                   	pop    %eax
    43e5:	8b 45 88             	mov    -0x78(%ebp),%eax
    43e8:	83 c0 04             	add    $0x4,%eax
    43eb:	5a                   	pop    %edx
    43ec:	53                   	push   %ebx
    43ed:	50                   	push   %eax
    43ee:	e8 fd 10 00 00       	call   54f0 <sbi_list_append>
    43f3:	8d 85 74 ff ff ff    	lea    -0x8c(%ebp),%eax
    43f9:	89 04 24             	mov    %eax,(%esp)
    43fc:	e8 6f 97 00 00       	call   db70 <run_gdata_init>
    4401:	e8 6a c7 00 00       	call   10b70 <run_thread_ar_new>
    4406:	89 04 24             	mov    %eax,(%esp)
    4409:	89 85 78 ff ff ff    	mov    %eax,-0x88(%ebp)
    440f:	e8 8c 10 00 00       	call   54a0 <list_init>
    4414:	8d 85 70 ff ff ff    	lea    -0x90(%ebp),%eax
    441a:	50                   	push   %eax
    441b:	8b 8d 7c ff ff ff    	mov    -0x84(%ebp),%ecx
    4421:	8d 85 74 ff ff ff    	lea    -0x8c(%ebp),%eax
    4427:	56                   	push   %esi
    4428:	51                   	push   %ecx
    4429:	50                   	push   %eax
    442a:	e8 b1 a2 00 00       	call   e6e0 <run_proc_ar_create>
    442f:	83 c4 18             	add    $0x18,%esp
    4432:	8b 9d 70 ff ff ff    	mov    -0x90(%ebp),%ebx
    4438:	8b b5 78 ff ff ff    	mov    -0x88(%ebp),%esi
    443e:	53                   	push   %ebx
    443f:	56                   	push   %esi
    4440:	8d 5d 90             	lea    -0x70(%ebp),%ebx
    4443:	e8 a8 10 00 00       	call   54f0 <sbi_list_append>
    4448:	8d 75 a4             	lea    -0x5c(%ebp),%esi
    444b:	c7 04 24 38 da 01 00 	movl   $0x1da38,(%esp)
    4452:	e8 39 dc 01 00       	call   22090 <printf@plt>
    4457:	e8 54 df ff ff       	call   23b0 <os_input_disp_help>
    445c:	83 c4 10             	add    $0x10,%esp
    445f:	90                   	nop
    4460:	8b 85 78 ff ff ff    	mov    -0x88(%ebp),%eax
    4466:	83 ec 0c             	sub    $0xc,%esp
    4469:	c7 45 9c 00 00 00 00 	movl   $0x0,-0x64(%ebp)
    4470:	c7 45 8c 00 00 00 00 	movl   $0x0,-0x74(%ebp)
    4477:	c7 40 14 00 00 00 00 	movl   $0x0,0x14(%eax)
    447e:	c7 40 0c 00 00 00 00 	movl   $0x0,0xc(%eax)
    4485:	8d 85 64 ff ff ff    	lea    -0x9c(%ebp),%eax
    448b:	50                   	push   %eax
    448c:	e8 7f 02 00 00       	call   4710 <input_new_interactive>
    4491:	8b 8d 64 ff ff ff    	mov    -0x9c(%ebp),%ecx
    4497:	58                   	pop    %eax
    4498:	5a                   	pop    %edx
    4499:	51                   	push   %ecx
    449a:	56                   	push   %esi
    449b:	e8 c0 0e 00 00       	call   5360 <lex_init>
    44a0:	83 c4 0c             	add    $0xc,%esp
    44a3:	56                   	push   %esi
    44a4:	57                   	push   %edi
    44a5:	53                   	push   %ebx
    44a6:	e8 c5 27 00 00       	call   6c70 <parse_init>
    44ab:	89 1c 24             	mov    %ebx,(%esp)
    44ae:	e8 7d 6e 00 00       	call   b330 <lcur_lc>
    44b3:	83 c4 10             	add    $0x10,%esp
    44b6:	48                   	dec    %eax
    44b7:	0f 84 13 01 00 00    	je     45d0 <imode_run+0x2d0>
    44bd:	83 ec 0c             	sub    $0xc,%esp
    44c0:	53                   	push   %ebx
    44c1:	e8 da 30 00 00       	call   75a0 <parse_stat>
    44c6:	8b 55 9c             	mov    -0x64(%ebp),%edx
    44c9:	83 c4 10             	add    $0x10,%esp
    44cc:	85 d2                	test   %edx,%edx
    44ce:	75 90                	jne    4460 <imode_run+0x160>
    44d0:	89 85 54 ff ff ff    	mov    %eax,-0xac(%ebp)
    44d6:	52                   	push   %edx
    44d7:	6a 01                	push   $0x1
    44d9:	50                   	push   %eax
    44da:	8d 45 80             	lea    -0x80(%ebp),%eax
    44dd:	50                   	push   %eax
    44de:	e8 2d 21 01 00       	call   16610 <stype_stat>
    44e3:	8b 4d 8c             	mov    -0x74(%ebp),%ecx
    44e6:	83 c4 10             	add    $0x10,%esp
    44e9:	85 c9                	test   %ecx,%ecx
    44eb:	0f 85 6f ff ff ff    	jne    4460 <imode_run+0x160>
    44f1:	83 ec 0c             	sub    $0xc,%esp
    44f4:	8d 85 74 ff ff ff    	lea    -0x8c(%ebp),%eax
    44fa:	50                   	push   %eax
    44fb:	e8 60 96 00 00       	call   db60 <run_init>
    4500:	83 c4 0c             	add    $0xc,%esp
    4503:	8d 95 68 ff ff ff    	lea    -0x98(%ebp),%edx
    4509:	8b 85 54 ff ff ff    	mov    -0xac(%ebp),%eax
    450f:	89 bd 74 ff ff ff    	mov    %edi,-0x8c(%ebp)
    4515:	52                   	push   %edx
    4516:	50                   	push   %eax
    4517:	8d 85 74 ff ff ff    	lea    -0x8c(%ebp),%eax
    451d:	50                   	push   %eax
    451e:	e8 9d c2 00 00       	call   107c0 <run_stat>
    4523:	8d 85 74 ff ff ff    	lea    -0x8c(%ebp),%eax
    4529:	89 04 24             	mov    %eax,(%esp)
    452c:	e8 7f 96 00 00       	call   dbb0 <run_exc_check_unhandled>
    4531:	8b 85 68 ff ff ff    	mov    -0x98(%ebp),%eax
    4537:	83 c4 10             	add    $0x10,%esp
    453a:	85 c0                	test   %eax,%eax
    453c:	0f 84 e6 00 00 00    	je     4628 <imode_run+0x328>
    4542:	52                   	push   %edx
    4543:	8d 95 6c ff ff ff    	lea    -0x94(%ebp),%edx
    4549:	52                   	push   %edx
    454a:	50                   	push   %eax
    454b:	8d 85 74 ff ff ff    	lea    -0x8c(%ebp),%eax
    4551:	50                   	push   %eax
    4552:	e8 19 bc 00 00       	call   10170 <run_cvt_value_item>
    4557:	8b 85 68 ff ff ff    	mov    -0x98(%ebp),%eax
    455d:	59                   	pop    %ecx
    455e:	50                   	push   %eax
    455f:	e8 9c 86 00 00       	call   cc00 <rdata_item_destroy>
    4564:	8d 85 74 ff ff ff    	lea    -0x8c(%ebp),%eax
    456a:	89 04 24             	mov    %eax,(%esp)
    456d:	e8 3e 96 00 00       	call   dbb0 <run_exc_check_unhandled>
    4572:	8b 85 6c ff ff ff    	mov    -0x94(%ebp),%eax
    4578:	83 c4 10             	add    $0x10,%esp
    457b:	85 c0                	test   %eax,%eax
    457d:	0f 84 dd fe ff ff    	je     4460 <imode_run+0x160>
    4583:	83 38 01             	cmpl   $0x1,(%eax)
    4586:	0f 85 ca 00 00 00    	jne    4656 <imode_run+0x356>
    458c:	83 ec 0c             	sub    $0xc,%esp
    458f:	68 74 da 01 00       	push   $0x1da74
    4594:	e8 f7 da 01 00       	call   22090 <printf@plt>
    4599:	58                   	pop    %eax
    459a:	8b 85 6c ff ff ff    	mov    -0x94(%ebp),%eax
    45a0:	8b 40 04             	mov    0x4(%eax),%eax
    45a3:	50                   	push   %eax
    45a4:	e8 f7 92 00 00       	call   d8a0 <rdata_value_print>
    45a9:	c7 04 24 82 da 01 00 	movl   $0x1da82,(%esp)
    45b0:	e8 db da 01 00       	call   22090 <printf@plt>
    45b5:	58                   	pop    %eax
    45b6:	8b 85 6c ff ff ff    	mov    -0x94(%ebp),%eax
    45bc:	50                   	push   %eax
    45bd:	e8 3e 86 00 00       	call   cc00 <rdata_item_destroy>
    45c2:	83 c4 10             	add    $0x10,%esp
    45c5:	e9 96 fe ff ff       	jmp    4460 <imode_run+0x160>
    45ca:	8d b6 00 00 00 00    	lea    0x0(%esi),%esi
    45d0:	8d 85 74 ff ff ff    	lea    -0x8c(%ebp),%eax
    45d6:	8b b5 70 ff ff ff    	mov    -0x90(%ebp),%esi
    45dc:	53                   	push   %ebx
    45dd:	53                   	push   %ebx
    45de:	56                   	push   %esi
    45df:	50                   	push   %eax
    45e0:	e8 7b a1 00 00       	call   e760 <run_proc_ar_destroy>
    45e5:	8b 45 88             	mov    -0x78(%ebp),%eax
    45e8:	83 c0 04             	add    $0x4,%eax
    45eb:	89 04 24             	mov    %eax,(%esp)
    45ee:	e8 dd 10 00 00       	call   56d0 <sbi_list_last>
    45f3:	8b 8d 50 ff ff ff    	mov    -0xb0(%ebp),%ecx
    45f9:	83 c4 10             	add    $0x10,%esp
    45fc:	3b 48 08             	cmp    0x8(%eax),%ecx
    45ff:	75 40                	jne    4641 <imode_run+0x341>
    4601:	52                   	push   %edx
    4602:	52                   	push   %edx
    4603:	50                   	push   %eax
    4604:	8b 45 88             	mov    -0x78(%ebp),%eax
    4607:	83 c0 04             	add    $0x4,%eax
    460a:	50                   	push   %eax
    460b:	e8 c0 0f 00 00       	call   55d0 <sbi_list_remove>
    4610:	c7 04 24 7d da 01 00 	movl   $0x1da7d,(%esp)
    4617:	e8 74 da 01 00       	call   22090 <printf@plt>
    461c:	83 c4 10             	add    $0x10,%esp
    461f:	8d 65 f4             	lea    -0xc(%ebp),%esp
    4622:	5b                   	pop    %ebx
    4623:	5e                   	pop    %esi
    4624:	5f                   	pop    %edi
    4625:	5d                   	pop    %ebp
    4626:	c3                   	ret    
    4627:	90                   	nop
    4628:	c7 85 6c ff ff ff 00 	movl   $0x0,-0x94(%ebp)
    462f:	00 00 00 
    4632:	e9 29 fe ff ff       	jmp    4460 <imode_run+0x160>
    4637:	83 ec 0c             	sub    $0xc,%esp
    463a:	6a 01                	push   $0x1
    463c:	e8 8f dc 01 00       	call   222d0 <exit@plt>
    4641:	51                   	push   %ecx
    4642:	68 d0 00 00 00       	push   $0xd0
    4647:	68 4f da 01 00       	push   $0x1da4f
    464c:	68 84 da 01 00       	push   $0x1da84
    4651:	e8 4a db 01 00       	call   221a0 <assert_abort@plt>
    4656:	50                   	push   %eax
    4657:	68 c1 00 00 00       	push   $0xc1
    465c:	68 4f da 01 00       	push   $0x1da4f
    4661:	68 5b da 01 00       	push   $0x1da5b
    4666:	e8 35 db 01 00       	call   221a0 <assert_abort@plt>
    466b:	66 90                	xchg   %ax,%ax
    466d:	66 90                	xchg   %ax,%ax
    466f:	90                   	nop

00004670 <input_new_file>:
    4670:	55                   	push   %ebp
    4671:	89 e5                	mov    %esp,%ebp
    4673:	57                   	push   %edi
    4674:	56                   	push   %esi
    4675:	53                   	push   %ebx
    4676:	83 ec 18             	sub    $0x18,%esp
    4679:	8b 75 0c             	mov    0xc(%ebp),%esi
    467c:	6a 14                	push   $0x14
    467e:	e8 bd da 01 00       	call   22140 <malloc@plt>
    4683:	89 c3                	mov    %eax,%ebx
    4685:	8b 45 08             	mov    0x8(%ebp),%eax
    4688:	83 c4 10             	add    $0x10,%esp
    468b:	85 db                	test   %ebx,%ebx
    468d:	89 18                	mov    %ebx,(%eax)
    468f:	74 57                	je     46e8 <input_new_file+0x78>
    4691:	50                   	push   %eax
    4692:	50                   	push   %eax
    4693:	68 4e d6 01 00       	push   $0x1d64e
    4698:	56                   	push   %esi
    4699:	e8 92 db 01 00       	call   22230 <fopen@plt>
    469e:	83 c4 10             	add    $0x10,%esp
    46a1:	89 c7                	mov    %eax,%edi
    46a3:	85 c0                	test   %eax,%eax
    46a5:	74 49                	je     46f0 <input_new_file+0x80>
    46a7:	83 ec 0c             	sub    $0xc,%esp
    46aa:	68 00 01 00 00       	push   $0x100
    46af:	e8 8c da 01 00       	call   22140 <malloc@plt>
    46b4:	83 c4 10             	add    $0x10,%esp
    46b7:	89 43 0c             	mov    %eax,0xc(%ebx)
    46ba:	85 c0                	test   %eax,%eax
    46bc:	74 37                	je     46f5 <input_new_file+0x85>
    46be:	83 ec 0c             	sub    $0xc,%esp
    46c1:	56                   	push   %esi
    46c2:	e8 e9 db ff ff       	call   22b0 <os_str_dup>
    46c7:	c7 43 08 00 00 00 00 	movl   $0x0,0x8(%ebx)
    46ce:	89 03                	mov    %eax,(%ebx)
    46d0:	c7 43 10 00 00 00 00 	movl   $0x0,0x10(%ebx)
    46d7:	89 7b 04             	mov    %edi,0x4(%ebx)
    46da:	83 c4 10             	add    $0x10,%esp
    46dd:	31 c0                	xor    %eax,%eax
    46df:	8d 65 f4             	lea    -0xc(%ebp),%esp
    46e2:	5b                   	pop    %ebx
    46e3:	5e                   	pop    %esi
    46e4:	5f                   	pop    %edi
    46e5:	5d                   	pop    %ebp
    46e6:	c3                   	ret    
    46e7:	90                   	nop
    46e8:	b8 fe ff ff ff       	mov    $0xfffffffe,%eax
    46ed:	eb f0                	jmp    46df <input_new_file+0x6f>
    46ef:	90                   	nop
    46f0:	83 c8 ff             	or     $0xffffffff,%eax
    46f3:	eb ea                	jmp    46df <input_new_file+0x6f>
    46f5:	83 ec 0c             	sub    $0xc,%esp
    46f8:	68 a0 d1 01 00       	push   $0x1d1a0
    46fd:	e8 8e d9 01 00       	call   22090 <printf@plt>
    4702:	c7 04 24 01 00 00 00 	movl   $0x1,(%esp)
    4709:	e8 c2 db 01 00       	call   222d0 <exit@plt>
    470e:	66 90                	xchg   %ax,%ax

00004710 <input_new_interactive>:
    4710:	55                   	push   %ebp
    4711:	89 e5                	mov    %esp,%ebp
    4713:	53                   	push   %ebx
    4714:	83 ec 10             	sub    $0x10,%esp
    4717:	6a 14                	push   $0x14
    4719:	e8 22 da 01 00       	call   22140 <malloc@plt>
    471e:	89 c3                	mov    %eax,%ebx
