
tester:     file format elf32-i386


Disassembly of section .init:

000010f4 <__entry>:
    10f4:	66 8c d0             	mov    %ss,%ax
    10f7:	8e d8                	mov    %eax,%ds
    10f9:	8e c0                	mov    %eax,%es
    10fb:	8e e0                	mov    %eax,%fs
    10fd:	b8 01 00 00 00       	mov    $0x1,%eax
    1102:	0f a2                	cpuid  
    1104:	0f ba e2 0b          	bt     $0xb,%edx
    1108:	73 0c                	jae    1116 <__entry+0x22>
    110a:	8d 05 78 df 01 00    	lea    0x1df78,%eax
    1110:	c7 00 d0 b5 01 00    	movl   $0x1b5d0,(%eax)
    1116:	6a 00                	push   $0x0
    1118:	6a 00                	push   $0x0
    111a:	89 e5                	mov    %esp,%ebp
    111c:	57                   	push   %edi
    111d:	e8 fe 9e 01 00       	call   1b020 <__main@plt>

Disassembly of section .text:

00001140 <main>:
    1140:	8d 4c 24 04          	lea    0x4(%esp),%ecx
    1144:	83 e4 f0             	and    $0xfffffff0,%esp
    1147:	ff 71 fc             	pushl  -0x4(%ecx)
    114a:	55                   	push   %ebp
    114b:	89 e5                	mov    %esp,%ebp
    114d:	57                   	push   %edi
    114e:	56                   	push   %esi
    114f:	53                   	push   %ebx
    1150:	51                   	push   %ecx
    1151:	83 ec 18             	sub    $0x18,%esp
    1154:	8b 19                	mov    (%ecx),%ebx
    1156:	8b 71 04             	mov    0x4(%ecx),%esi
    1159:	83 fb 01             	cmp    $0x1,%ebx
    115c:	0f 8e b9 00 00 00    	jle    121b <main+0xdb>
    1162:	83 ec 0c             	sub    $0xc,%esp
    1165:	83 eb 02             	sub    $0x2,%ebx
    1168:	68 fa 71 01 00       	push   $0x171fa
    116d:	e8 6e 9f 01 00       	call   1b0e0 <log_init@plt>
    1172:	8d 46 08             	lea    0x8(%esi),%eax
    1175:	5f                   	pop    %edi
    1176:	a3 88 df 01 00       	mov    %eax,0x1df88
    117b:	58                   	pop    %eax
    117c:	68 bb 71 01 00       	push   $0x171bb
    1181:	c6 05 84 df 01 00 00 	movb   $0x0,0x1df84
    1188:	8b 46 04             	mov    0x4(%esi),%eax
    118b:	89 1d 8c df 01 00    	mov    %ebx,0x1df8c
    1191:	50                   	push   %eax
    1192:	e8 59 a2 01 00       	call   1b3f0 <str_cmp@plt>
    1197:	83 c4 10             	add    $0x10,%esp
    119a:	89 c7                	mov    %eax,%edi
    119c:	85 c0                	test   %eax,%eax
    119e:	0f 84 37 01 00 00    	je     12db <main+0x19b>
    11a4:	a1 80 d7 01 00       	mov    0x1d780,%eax
    11a9:	bb 80 d7 01 00       	mov    $0x1d780,%ebx
    11ae:	85 c0                	test   %eax,%eax
    11b0:	75 0f                	jne    11c1 <main+0x81>
    11b2:	eb 4e                	jmp    1202 <main+0xc2>
    11b4:	8d 74 26 00          	lea    0x0(%esi,%eiz,1),%esi
    11b8:	83 c3 10             	add    $0x10,%ebx
    11bb:	8b 03                	mov    (%ebx),%eax
    11bd:	85 c0                	test   %eax,%eax
    11bf:	74 41                	je     1202 <main+0xc2>
    11c1:	51                   	push   %ecx
    11c2:	51                   	push   %ecx
    11c3:	50                   	push   %eax
    11c4:	8b 7e 04             	mov    0x4(%esi),%edi
    11c7:	57                   	push   %edi
    11c8:	e8 23 a2 01 00       	call   1b3f0 <str_cmp@plt>
    11cd:	83 c4 10             	add    $0x10,%esp
    11d0:	89 c7                	mov    %eax,%edi
    11d2:	85 c0                	test   %eax,%eax
    11d4:	75 e2                	jne    11b8 <main+0x78>
    11d6:	ff 53 08             	call   *0x8(%ebx)
    11d9:	85 c0                	test   %eax,%eax
    11db:	0f 84 91 01 00 00    	je     1372 <main+0x232>
    11e1:	52                   	push   %edx
    11e2:	52                   	push   %edx
    11e3:	50                   	push   %eax
    11e4:	68 2b 72 01 00       	push   $0x1722b
    11e9:	83 cf ff             	or     $0xffffffff,%edi
    11ec:	e8 7f 9e 01 00       	call   1b070 <printf@plt>
    11f1:	83 c4 10             	add    $0x10,%esp
    11f4:	8d 65 f0             	lea    -0x10(%ebp),%esp
    11f7:	89 f8                	mov    %edi,%eax
    11f9:	59                   	pop    %ecx
    11fa:	5b                   	pop    %ebx
    11fb:	5e                   	pop    %esi
    11fc:	5f                   	pop    %edi
    11fd:	5d                   	pop    %ebp
    11fe:	8d 61 fc             	lea    -0x4(%ecx),%esp
    1201:	c3                   	ret    
    1202:	53                   	push   %ebx
    1203:	53                   	push   %ebx
    1204:	ff 76 04             	pushl  0x4(%esi)
    1207:	68 01 72 01 00       	push   $0x17201
    120c:	bf fe ff ff ff       	mov    $0xfffffffe,%edi
    1211:	e8 5a 9e 01 00       	call   1b070 <printf@plt>
    1216:	83 c4 10             	add    $0x10,%esp
    1219:	eb d9                	jmp    11f4 <main+0xb4>
    121b:	83 ec 0c             	sub    $0xc,%esp
    121e:	68 9b 71 01 00       	push   $0x1719b
    1223:	e8 48 9e 01 00       	call   1b070 <printf@plt>
    1228:	5b                   	pop    %ebx
    1229:	5f                   	pop    %edi
    122a:	ff 36                	pushl  (%esi)
    122c:	68 a4 71 01 00       	push   $0x171a4
    1231:	e8 3a 9e 01 00       	call   1b070 <printf@plt>
    1236:	a1 80 d7 01 00       	mov    0x1d780,%eax
    123b:	83 c4 10             	add    $0x10,%esp
    123e:	85 c0                	test   %eax,%eax
    1240:	0f 84 41 01 00 00    	je     1387 <main+0x247>
    1246:	bb 80 d7 01 00       	mov    $0x1d780,%ebx
    124b:	31 f6                	xor    %esi,%esi
    124d:	eb 0a                	jmp    1259 <main+0x119>
    124f:	90                   	nop
    1250:	83 c3 10             	add    $0x10,%ebx
    1253:	8b 03                	mov    (%ebx),%eax
    1255:	85 c0                	test   %eax,%eax
    1257:	74 21                	je     127a <main+0x13a>
    1259:	83 ec 0c             	sub    $0xc,%esp
    125c:	50                   	push   %eax
    125d:	e8 ce a2 01 00       	call   1b530 <str_length@plt>
    1262:	83 c4 10             	add    $0x10,%esp
    1265:	39 f0                	cmp    %esi,%eax
    1267:	76 e7                	jbe    1250 <main+0x110>
    1269:	83 ec 0c             	sub    $0xc,%esp
    126c:	ff 33                	pushl  (%ebx)
    126e:	e8 bd a2 01 00       	call   1b530 <str_length@plt>
    1273:	83 c4 10             	add    $0x10,%esp
    1276:	89 c6                	mov    %eax,%esi
    1278:	eb d6                	jmp    1250 <main+0x110>
    127a:	85 f6                	test   %esi,%esi
    127c:	0f 88 0c 01 00 00    	js     138e <main+0x24e>
    1282:	a1 80 d7 01 00       	mov    0x1d780,%eax
    1287:	bb 80 d7 01 00       	mov    $0x1d780,%ebx
    128c:	85 c0                	test   %eax,%eax
    128e:	74 30                	je     12c0 <main+0x180>
    1290:	ba 38 88 01 00       	mov    $0x18838,%edx
    1295:	80 7b 0c 00          	cmpb   $0x0,0xc(%ebx)
    1299:	75 05                	jne    12a0 <main+0x160>
    129b:	ba 91 71 01 00       	mov    $0x17191,%edx
    12a0:	83 ec 0c             	sub    $0xc,%esp
    12a3:	83 c3 10             	add    $0x10,%ebx
    12a6:	52                   	push   %edx
    12a7:	8b 53 f4             	mov    -0xc(%ebx),%edx
    12aa:	52                   	push   %edx
    12ab:	50                   	push   %eax
    12ac:	56                   	push   %esi
    12ad:	68 ef 71 01 00       	push   $0x171ef
    12b2:	e8 b9 9d 01 00       	call   1b070 <printf@plt>
    12b7:	8b 03                	mov    (%ebx),%eax
    12b9:	83 c4 20             	add    $0x20,%esp
    12bc:	85 c0                	test   %eax,%eax
    12be:	75 d0                	jne    1290 <main+0x150>
    12c0:	51                   	push   %ecx
    12c1:	68 bb 71 01 00       	push   $0x171bb
    12c6:	56                   	push   %esi
    12c7:	68 bd 71 01 00       	push   $0x171bd
    12cc:	31 ff                	xor    %edi,%edi
    12ce:	e8 9d 9d 01 00       	call   1b070 <printf@plt>
    12d3:	83 c4 10             	add    $0x10,%esp
    12d6:	e9 19 ff ff ff       	jmp    11f4 <main+0xb4>
    12db:	83 ec 0c             	sub    $0xc,%esp
    12de:	31 db                	xor    %ebx,%ebx
    12e0:	68 10 75 01 00       	push   $0x17510
    12e5:	e8 86 9d 01 00       	call   1b070 <printf@plt>
    12ea:	a1 80 d7 01 00       	mov    0x1d780,%eax
    12ef:	83 c4 10             	add    $0x10,%esp
    12f2:	c7 45 e4 00 00 00 00 	movl   $0x0,-0x1c(%ebp)
    12f9:	85 c0                	test   %eax,%eax
    12fb:	74 5b                	je     1358 <main+0x218>
    12fd:	be 80 d7 01 00       	mov    $0x1d780,%esi
    1302:	eb 0d                	jmp    1311 <main+0x1d1>
    1304:	8d 74 26 00          	lea    0x0(%esi,%eiz,1),%esi
    1308:	83 c6 10             	add    $0x10,%esi
    130b:	8b 06                	mov    (%esi),%eax
    130d:	85 c0                	test   %eax,%eax
    130f:	74 47                	je     1358 <main+0x218>
    1311:	80 7e 0c 00          	cmpb   $0x0,0xc(%esi)
    1315:	74 f1                	je     1308 <main+0x1c8>
    1317:	51                   	push   %ecx
    1318:	ff 76 04             	pushl  0x4(%esi)
    131b:	50                   	push   %eax
    131c:	68 14 72 01 00       	push   $0x17214
    1321:	e8 4a 9d 01 00       	call   1b070 <printf@plt>
    1326:	ff 56 08             	call   *0x8(%esi)
    1329:	83 c4 10             	add    $0x10,%esp
    132c:	85 c0                	test   %eax,%eax
    132e:	74 13                	je     1343 <main+0x203>
    1330:	52                   	push   %edx
    1331:	52                   	push   %edx
    1332:	50                   	push   %eax
    1333:	68 2b 72 01 00       	push   $0x1722b
    1338:	43                   	inc    %ebx
    1339:	e8 32 9d 01 00       	call   1b070 <printf@plt>
    133e:	83 c4 10             	add    $0x10,%esp
    1341:	eb c5                	jmp    1308 <main+0x1c8>
    1343:	83 ec 0c             	sub    $0xc,%esp
    1346:	68 1d 72 01 00       	push   $0x1721d
    134b:	e8 20 9d 01 00       	call   1b070 <printf@plt>
    1350:	ff 45 e4             	incl   -0x1c(%ebp)
    1353:	83 c4 10             	add    $0x10,%esp
    1356:	eb b0                	jmp    1308 <main+0x1c8>
    1358:	50                   	push   %eax
    1359:	8b 45 e4             	mov    -0x1c(%ebp),%eax
    135c:	01 c3                	add    %eax,%ebx
    135e:	50                   	push   %eax
    135f:	53                   	push   %ebx
    1360:	68 34 75 01 00       	push   $0x17534
    1365:	e8 06 9d 01 00       	call   1b070 <printf@plt>
    136a:	83 c4 10             	add    $0x10,%esp
    136d:	e9 82 fe ff ff       	jmp    11f4 <main+0xb4>
    1372:	83 ec 0c             	sub    $0xc,%esp
    1375:	68 1d 72 01 00       	push   $0x1721d
    137a:	e8 f1 9c 01 00       	call   1b070 <printf@plt>
    137f:	83 c4 10             	add    $0x10,%esp
    1382:	e9 6d fe ff ff       	jmp    11f4 <main+0xb4>
    1387:	31 f6                	xor    %esi,%esi
    1389:	e9 32 ff ff ff       	jmp    12c0 <main+0x180>
    138e:	83 ec 0c             	sub    $0xc,%esp
    1391:	31 ff                	xor    %edi,%edi
    1393:	68 d6 71 01 00       	push   $0x171d6
    1398:	e8 d3 9c 01 00       	call   1b070 <printf@plt>
    139d:	83 c4 10             	add    $0x10,%esp
    13a0:	e9 4f fe ff ff       	jmp    11f4 <main+0xb4>
    13a5:	66 90                	xchg   %ax,%ax
    13a7:	66 90                	xchg   %ax,%ax
    13a9:	66 90                	xchg   %ax,%ax
    13ab:	66 90                	xchg   %ax,%ax
    13ad:	66 90                	xchg   %ax,%ax
    13af:	90                   	nop

000013b0 <assert_eq_fn_uint8_t>:
    13b0:	55                   	push   %ebp
    13b1:	89 e5                	mov    %esp,%ebp
    13b3:	53                   	push   %ebx
    13b4:	83 ec 14             	sub    $0x14,%esp
    13b7:	8b 55 08             	mov    0x8(%ebp),%edx
    13ba:	8b 5d 0c             	mov    0xc(%ebp),%ebx
    13bd:	38 da                	cmp    %bl,%dl
    13bf:	74 2a                	je     13eb <assert_eq_fn_uint8_t+0x3b>
    13c1:	31 c9                	xor    %ecx,%ecx
    13c3:	31 c0                	xor    %eax,%eax
    13c5:	88 d0                	mov    %dl,%al
    13c7:	88 d9                	mov    %bl,%cl
    13c9:	89 55 f4             	mov    %edx,-0xc(%ebp)
    13cc:	52                   	push   %edx
    13cd:	51                   	push   %ecx
    13ce:	51                   	push   %ecx
    13cf:	8b 4d 10             	mov    0x10(%ebp),%ecx
    13d2:	50                   	push   %eax
    13d3:	50                   	push   %eax
    13d4:	a1 80 df 01 00       	mov    0x1df80,%eax
    13d9:	51                   	push   %ecx
    13da:	68 c4 75 01 00       	push   $0x175c4
    13df:	50                   	push   %eax
    13e0:	e8 4b 9f 01 00       	call   1b330 <fprintf@plt>
    13e5:	83 c4 20             	add    $0x20,%esp
    13e8:	8b 55 f4             	mov    -0xc(%ebp),%edx
    13eb:	38 da                	cmp    %bl,%dl
    13ed:	8b 5d fc             	mov    -0x4(%ebp),%ebx
    13f0:	0f 95 c0             	setne  %al
    13f3:	c9                   	leave  
    13f4:	c3                   	ret    
    13f5:	8d 74 26 00          	lea    0x0(%esi,%eiz,1),%esi
    13f9:	8d bc 27 00 00 00 00 	lea    0x0(%edi,%eiz,1),%edi

00001400 <assert_eq_fn_uint16_t>:
    1400:	55                   	push   %ebp
    1401:	89 e5                	mov    %esp,%ebp
    1403:	56                   	push   %esi
    1404:	53                   	push   %ebx
    1405:	8b 75 08             	mov    0x8(%ebp),%esi
    1408:	8b 5d 0c             	mov    0xc(%ebp),%ebx
    140b:	66 39 de             	cmp    %bx,%si
    140e:	74 26                	je     1436 <assert_eq_fn_uint16_t+0x36>
    1410:	31 d2                	xor    %edx,%edx
    1412:	31 c0                	xor    %eax,%eax
    1414:	66 89 da             	mov    %bx,%dx
    1417:	66 89 f0             	mov    %si,%ax
    141a:	51                   	push   %ecx
    141b:	52                   	push   %edx
    141c:	52                   	push   %edx
    141d:	50                   	push   %eax
    141e:	50                   	push   %eax
    141f:	8b 45 10             	mov    0x10(%ebp),%eax
    1422:	50                   	push   %eax
    1423:	a1 80 df 01 00       	mov    0x1df80,%eax
    1428:	68 00 76 01 00       	push   $0x17600
    142d:	50                   	push   %eax
    142e:	e8 fd 9e 01 00       	call   1b330 <fprintf@plt>
    1433:	83 c4 20             	add    $0x20,%esp
    1436:	66 39 de             	cmp    %bx,%si
    1439:	0f 95 c0             	setne  %al
    143c:	8d 65 f8             	lea    -0x8(%ebp),%esp
    143f:	5b                   	pop    %ebx
    1440:	5e                   	pop    %esi
    1441:	5d                   	pop    %ebp
    1442:	c3                   	ret    
    1443:	8d b6 00 00 00 00    	lea    0x0(%esi),%esi
    1449:	8d bc 27 00 00 00 00 	lea    0x0(%edi,%eiz,1),%edi

00001450 <assert_eq_fn_uint32_t>:
    1450:	55                   	push   %ebp
    1451:	89 e5                	mov    %esp,%ebp
    1453:	56                   	push   %esi
    1454:	53                   	push   %ebx
    1455:	8b 75 08             	mov    0x8(%ebp),%esi
    1458:	8b 5d 0c             	mov    0xc(%ebp),%ebx
    145b:	39 de                	cmp    %ebx,%esi
    145d:	74 1d                	je     147c <assert_eq_fn_uint32_t+0x2c>
    145f:	8b 55 10             	mov    0x10(%ebp),%edx
    1462:	8b 0d 80 df 01 00    	mov    0x1df80,%ecx
    1468:	50                   	push   %eax
    1469:	53                   	push   %ebx
    146a:	53                   	push   %ebx
    146b:	56                   	push   %esi
    146c:	56                   	push   %esi
    146d:	52                   	push   %edx
    146e:	68 38 76 01 00       	push   $0x17638
    1473:	51                   	push   %ecx
    1474:	e8 b7 9e 01 00       	call   1b330 <fprintf@plt>
    1479:	83 c4 20             	add    $0x20,%esp
    147c:	39 de                	cmp    %ebx,%esi
    147e:	0f 95 c0             	setne  %al
    1481:	8d 65 f8             	lea    -0x8(%ebp),%esp
    1484:	5b                   	pop    %ebx
    1485:	5e                   	pop    %esi
    1486:	5d                   	pop    %ebp
    1487:	c3                   	ret    
    1488:	90                   	nop
    1489:	8d b4 26 00 00 00 00 	lea    0x0(%esi,%eiz,1),%esi

00001490 <assert_eq_fn_uint64_t>:
    1490:	55                   	push   %ebp
    1491:	89 e5                	mov    %esp,%ebp
    1493:	57                   	push   %edi
    1494:	56                   	push   %esi
    1495:	53                   	push   %ebx
    1496:	83 ec 1c             	sub    $0x1c,%esp
    1499:	8b 4d 08             	mov    0x8(%ebp),%ecx
    149c:	8b 5d 0c             	mov    0xc(%ebp),%ebx
    149f:	8b 75 10             	mov    0x10(%ebp),%esi
    14a2:	8b 7d 14             	mov    0x14(%ebp),%edi
    14a5:	89 c8                	mov    %ecx,%eax
    14a7:	89 da                	mov    %ebx,%edx
    14a9:	31 f0                	xor    %esi,%eax
    14ab:	31 fa                	xor    %edi,%edx
    14ad:	09 c2                	or     %eax,%edx
    14af:	74 2d                	je     14de <assert_eq_fn_uint64_t+0x4e>
    14b1:	89 4d e0             	mov    %ecx,-0x20(%ebp)
    14b4:	50                   	push   %eax
    14b5:	8b 55 18             	mov    0x18(%ebp),%edx
    14b8:	57                   	push   %edi
    14b9:	56                   	push   %esi
    14ba:	57                   	push   %edi
    14bb:	56                   	push   %esi
    14bc:	53                   	push   %ebx
    14bd:	51                   	push   %ecx
    14be:	53                   	push   %ebx
    14bf:	51                   	push   %ecx
    14c0:	8b 0d 80 df 01 00    	mov    0x1df80,%ecx
    14c6:	52                   	push   %edx
    14c7:	68 6c 76 01 00       	push   $0x1766c
    14cc:	51                   	push   %ecx
    14cd:	89 5d e4             	mov    %ebx,-0x1c(%ebp)
    14d0:	e8 5b 9e 01 00       	call   1b330 <fprintf@plt>
    14d5:	83 c4 30             	add    $0x30,%esp
    14d8:	8b 4d e0             	mov    -0x20(%ebp),%ecx
    14db:	8b 5d e4             	mov    -0x1c(%ebp),%ebx
    14de:	89 d8                	mov    %ebx,%eax
    14e0:	89 ca                	mov    %ecx,%edx
    14e2:	31 f8                	xor    %edi,%eax
    14e4:	31 f2                	xor    %esi,%edx
    14e6:	09 c2                	or     %eax,%edx
    14e8:	0f 95 c0             	setne  %al
    14eb:	8d 65 f4             	lea    -0xc(%ebp),%esp
    14ee:	5b                   	pop    %ebx
    14ef:	5e                   	pop    %esi
    14f0:	5f                   	pop    %edi
    14f1:	5d                   	pop    %ebp
    14f2:	c3                   	ret    
    14f3:	66 90                	xchg   %ax,%ax
    14f5:	66 90                	xchg   %ax,%ax
    14f7:	66 90                	xchg   %ax,%ax
    14f9:	66 90                	xchg   %ax,%ax
    14fb:	66 90                	xchg   %ax,%ax
    14fd:	66 90                	xchg   %ax,%ax
    14ff:	90                   	nop

00001500 <threadtest>:
    1500:	55                   	push   %ebp
    1501:	89 e5                	mov    %esp,%ebp
    1503:	83 ec 08             	sub    $0x8,%esp
    1506:	e8 85 a1 01 00       	call   1b690 <thread_get_id@plt>
    150b:	51                   	push   %ecx
    150c:	51                   	push   %ecx
    150d:	52                   	push   %edx
    150e:	50                   	push   %eax
    150f:	e8 2c 9b 01 00       	call   1b040 <thread_detach@plt>
    1514:	a1 a0 df 01 00       	mov    0x1dfa0,%eax
    1519:	83 c4 10             	add    $0x10,%esp
    151c:	85 c0                	test   %eax,%eax
    151e:	74 19                	je     1539 <threadtest+0x39>
    1520:	83 ec 0c             	sub    $0xc,%esp
    1523:	68 a0 86 01 00       	push   $0x186a0
    1528:	e8 13 9c 01 00       	call   1b140 <usleep@plt>
    152d:	a1 a0 df 01 00       	mov    0x1dfa0,%eax
    1532:	83 c4 10             	add    $0x10,%esp
    1535:	85 c0                	test   %eax,%eax
    1537:	75 e7                	jne    1520 <threadtest+0x20>
    1539:	f0 ff 05 9c df 01 00 	lock incl 0x1df9c
    1540:	c9                   	leave  
    1541:	c3                   	ret    
    1542:	8d b4 26 00 00 00 00 	lea    0x0(%esi,%eiz,1),%esi
    1549:	8d bc 27 00 00 00 00 	lea    0x0(%edi,%eiz,1),%edi

00001550 <test_thread1>:
    1550:	55                   	push   %ebp
    1551:	89 e5                	mov    %esp,%ebp
    1553:	53                   	push   %ebx
    1554:	50                   	push   %eax
    1555:	c7 05 a0 df 01 00 01 	movl   $0x1,0x1dfa0
    155c:	00 00 00 
    155f:	80 3d 84 df 01 00 00 	cmpb   $0x0,0x1df84
    1566:	c7 05 9c df 01 00 00 	movl   $0x0,0x1df9c
    156d:	00 00 00 
    1570:	0f 84 f2 00 00 00    	je     1668 <test_thread1+0x118>
    1576:	31 db                	xor    %ebx,%ebx
    1578:	eb 0c                	jmp    1586 <test_thread1+0x36>
    157a:	8d b6 00 00 00 00    	lea    0x0(%esi),%esi
    1580:	43                   	inc    %ebx
    1581:	83 fb 14             	cmp    $0x14,%ebx
    1584:	74 42                	je     15c8 <test_thread1+0x78>
    1586:	6a 00                	push   $0x0
    1588:	68 b6 76 01 00       	push   $0x176b6
    158d:	6a 00                	push   $0x0
    158f:	68 00 15 00 00       	push   $0x1500
    1594:	e8 77 a0 01 00       	call   1b610 <thread_create@plt>
    1599:	83 c4 10             	add    $0x10,%esp
    159c:	85 c0                	test   %eax,%eax
    159e:	0f 88 e4 00 00 00    	js     1688 <test_thread1+0x138>
    15a4:	80 3d 84 df 01 00 00 	cmpb   $0x0,0x1df84
    15ab:	75 d3                	jne    1580 <test_thread1+0x30>
    15ad:	50                   	push   %eax
    15ae:	50                   	push   %eax
    15af:	a1 60 df 01 00       	mov    0x1df60,%eax
    15b4:	68 24 90 01 00       	push   $0x19024
    15b9:	43                   	inc    %ebx
    15ba:	50                   	push   %eax
    15bb:	e8 70 9d 01 00       	call   1b330 <fprintf@plt>
    15c0:	83 c4 10             	add    $0x10,%esp
    15c3:	83 fb 14             	cmp    $0x14,%ebx
    15c6:	75 be                	jne    1586 <test_thread1+0x36>
    15c8:	80 3d 84 df 01 00 00 	cmpb   $0x0,0x1df84
    15cf:	74 77                	je     1648 <test_thread1+0xf8>
    15d1:	83 ec 0c             	sub    $0xc,%esp
    15d4:	6a 0a                	push   $0xa
    15d6:	e8 d5 9b 01 00       	call   1b1b0 <sleep@plt>
    15db:	83 c4 10             	add    $0x10,%esp
    15de:	80 3d 84 df 01 00 00 	cmpb   $0x0,0x1df84
    15e5:	0f 84 d5 00 00 00    	je     16c0 <test_thread1+0x170>
    15eb:	c7 05 a0 df 01 00 00 	movl   $0x0,0x1dfa0
    15f2:	00 00 00 
    15f5:	a1 9c df 01 00       	mov    0x1df9c,%eax
    15fa:	39 c3                	cmp    %eax,%ebx
    15fc:	77 18                	ja     1616 <test_thread1+0xc6>
    15fe:	eb 40                	jmp    1640 <test_thread1+0xf0>
    1600:	83 ec 0c             	sub    $0xc,%esp
    1603:	6a 01                	push   $0x1
    1605:	e8 a6 9b 01 00       	call   1b1b0 <sleep@plt>
    160a:	a1 9c df 01 00       	mov    0x1df9c,%eax
    160f:	83 c4 10             	add    $0x10,%esp
    1612:	39 d8                	cmp    %ebx,%eax
    1614:	73 2a                	jae    1640 <test_thread1+0xf0>
    1616:	80 3d 84 df 01 00 00 	cmpb   $0x0,0x1df84
    161d:	75 e1                	jne    1600 <test_thread1+0xb0>
    161f:	a1 9c df 01 00       	mov    0x1df9c,%eax
    1624:	52                   	push   %edx
    1625:	89 da                	mov    %ebx,%edx
    1627:	8b 0d 60 df 01 00    	mov    0x1df60,%ecx
    162d:	29 c2                	sub    %eax,%edx
    162f:	52                   	push   %edx
    1630:	68 de 76 01 00       	push   $0x176de
    1635:	51                   	push   %ecx
    1636:	e8 f5 9c 01 00       	call   1b330 <fprintf@plt>
    163b:	83 c4 10             	add    $0x10,%esp
    163e:	eb c0                	jmp    1600 <test_thread1+0xb0>
    1640:	31 c0                	xor    %eax,%eax
    1642:	8b 5d fc             	mov    -0x4(%ebp),%ebx
    1645:	c9                   	leave  
    1646:	c3                   	ret    
    1647:	90                   	nop
    1648:	50                   	push   %eax
    1649:	a1 60 df 01 00       	mov    0x1df60,%eax
    164e:	6a 0a                	push   $0xa
    1650:	68 f0 76 01 00       	push   $0x176f0
    1655:	50                   	push   %eax
    1656:	e8 d5 9c 01 00       	call   1b330 <fprintf@plt>
    165b:	83 c4 10             	add    $0x10,%esp
    165e:	e9 6e ff ff ff       	jmp    15d1 <test_thread1+0x81>
    1663:	90                   	nop
    1664:	8d 74 26 00          	lea    0x0(%esi,%eiz,1),%esi
    1668:	a1 60 df 01 00       	mov    0x1df60,%eax
    166d:	53                   	push   %ebx
    166e:	53                   	push   %ebx
    166f:	68 a5 76 01 00       	push   $0x176a5
    1674:	50                   	push   %eax
    1675:	e8 b6 9c 01 00       	call   1b330 <fprintf@plt>
    167a:	83 c4 10             	add    $0x10,%esp
    167d:	e9 f4 fe ff ff       	jmp    1576 <test_thread1+0x26>
    1682:	8d b6 00 00 00 00    	lea    0x0(%esi),%esi
    1688:	80 3d 84 df 01 00 00 	cmpb   $0x0,0x1df84
    168f:	0f 85 3c ff ff ff    	jne    15d1 <test_thread1+0x81>
    1695:	8b 0d 60 df 01 00    	mov    0x1df60,%ecx
    169b:	52                   	push   %edx
    169c:	53                   	push   %ebx
    169d:	68 c1 76 01 00       	push   $0x176c1
    16a2:	51                   	push   %ecx
    16a3:	e8 88 9c 01 00       	call   1b330 <fprintf@plt>
    16a8:	83 c4 10             	add    $0x10,%esp
    16ab:	80 3d 84 df 01 00 00 	cmpb   $0x0,0x1df84
    16b2:	0f 85 19 ff ff ff    	jne    15d1 <test_thread1+0x81>
    16b8:	eb 8e                	jmp    1648 <test_thread1+0xf8>
    16ba:	8d b6 00 00 00 00    	lea    0x0(%esi),%esi
    16c0:	50                   	push   %eax
    16c1:	50                   	push   %eax
    16c2:	a1 60 df 01 00       	mov    0x1df60,%eax
    16c7:	68 37 88 01 00       	push   $0x18837
    16cc:	50                   	push   %eax
    16cd:	e8 5e 9c 01 00       	call   1b330 <fprintf@plt>
    16d2:	83 c4 10             	add    $0x10,%esp
    16d5:	e9 11 ff ff ff       	jmp    15eb <test_thread1+0x9b>
    16da:	66 90                	xchg   %ax,%ax
    16dc:	66 90                	xchg   %ax,%ax
    16de:	66 90                	xchg   %ax,%ax

000016e0 <test_it>:
    16e0:	55                   	push   %ebp
    16e1:	89 e5                	mov    %esp,%ebp
    16e3:	53                   	push   %ebx
    16e4:	83 ec 10             	sub    $0x10,%esp
    16e7:	c7 05 fc df 01 00 00 	movl   $0x0,0x1dffc
    16ee:	00 00 00 
    16f1:	68 e0 df 01 00       	push   $0x1dfe0
    16f6:	e8 c5 99 01 00       	call   1b0c0 <context_save@plt>
    16fb:	a1 c0 df 01 00       	mov    0x1dfc0,%eax
    1700:	83 c4 10             	add    $0x10,%esp
    1703:	8b 1d fc df 01 00    	mov    0x1dffc,%ebx
    1709:	8d 50 01             	lea    0x1(%eax),%edx
    170c:	89 15 c0 df 01 00    	mov    %edx,0x1dfc0
    1712:	80 3d 84 df 01 00 00 	cmpb   $0x0,0x1df84
    1719:	74 25                	je     1740 <test_it+0x60>
    171b:	85 db                	test   %ebx,%ebx
    171d:	75 11                	jne    1730 <test_it+0x50>
    171f:	4a                   	dec    %edx
    1720:	74 3b                	je     175d <test_it+0x7d>
    1722:	b8 38 77 01 00       	mov    $0x17738,%eax
    1727:	8b 5d fc             	mov    -0x4(%ebp),%ebx
    172a:	c9                   	leave  
    172b:	c3                   	ret    
    172c:	8d 74 26 00          	lea    0x0(%esi,%eiz,1),%esi
    1730:	b8 14 77 01 00       	mov    $0x17714,%eax
    1735:	83 fa 02             	cmp    $0x2,%edx
    1738:	75 ed                	jne    1727 <test_it+0x47>
    173a:	31 c0                	xor    %eax,%eax
    173c:	eb e9                	jmp    1727 <test_it+0x47>
    173e:	66 90                	xchg   %ax,%ax
    1740:	a1 60 df 01 00       	mov    0x1df60,%eax
    1745:	51                   	push   %ecx
    1746:	52                   	push   %edx
    1747:	68 5c 77 01 00       	push   $0x1775c
    174c:	50                   	push   %eax
    174d:	e8 de 9b 01 00       	call   1b330 <fprintf@plt>
    1752:	83 c4 10             	add    $0x10,%esp
    1755:	8b 15 c0 df 01 00    	mov    0x1dfc0,%edx
    175b:	eb be                	jmp    171b <test_it+0x3b>
    175d:	80 3d 84 df 01 00 00 	cmpb   $0x0,0x1df84
    1764:	75 15                	jne    177b <test_it+0x9b>
    1766:	50                   	push   %eax
    1767:	50                   	push   %eax
    1768:	68 84 77 01 00       	push   $0x17784
    176d:	ff 35 60 df 01 00    	pushl  0x1df60
    1773:	e8 b8 9b 01 00       	call   1b330 <fprintf@plt>
    1778:	83 c4 10             	add    $0x10,%esp
    177b:	52                   	push   %edx
    177c:	52                   	push   %edx
    177d:	6a 01                	push   $0x1
    177f:	68 e0 df 01 00       	push   $0x1dfe0
    1784:	e8 77 98 01 00       	call   1b000 <longjmp@plt>
    1789:	8d b4 26 00 00 00 00 	lea    0x0(%esi,%eiz,1),%esi

00001790 <test_setjmp1>:
    1790:	55                   	push   %ebp
    1791:	c7 05 c0 df 01 00 00 	movl   $0x0,0x1dfc0
    1798:	00 00 00 
    179b:	89 e5                	mov    %esp,%ebp
    179d:	5d                   	pop    %ebp
    179e:	e9 3d ff ff ff       	jmp    16e0 <test_it>
    17a3:	66 90                	xchg   %ax,%ax
    17a5:	66 90                	xchg   %ax,%ax
    17a7:	66 90                	xchg   %ax,%ax
    17a9:	66 90                	xchg   %ax,%ax
    17ab:	66 90                	xchg   %ax,%ax
    17ad:	66 90                	xchg   %ax,%ax
    17af:	90                   	nop

000017b0 <test_print1>:
    17b0:	80 3d 84 df 01 00 00 	cmpb   $0x0,0x1df84
    17b7:	74 07                	je     17c0 <test_print1+0x10>
    17b9:	31 c0                	xor    %eax,%eax
    17bb:	c3                   	ret    
    17bc:	8d 74 26 00          	lea    0x0(%esi,%eiz,1),%esi
    17c0:	55                   	push   %ebp
    17c1:	89 e5                	mov    %esp,%ebp
    17c3:	83 ec 10             	sub    $0x10,%esp
    17c6:	8b 0d 60 df 01 00    	mov    0x1df60,%ecx
    17cc:	68 ac 77 01 00       	push   $0x177ac
    17d1:	51                   	push   %ecx
    17d2:	e8 59 9b 01 00       	call   1b330 <fprintf@plt>
    17d7:	83 c4 10             	add    $0x10,%esp
    17da:	80 3d 84 df 01 00 00 	cmpb   $0x0,0x1df84
    17e1:	0f 85 86 00 00 00    	jne    186d <test_print1+0xbd>
    17e7:	8b 15 60 df 01 00    	mov    0x1df60,%edx
    17ed:	50                   	push   %eax
    17ee:	50                   	push   %eax
    17ef:	68 c6 78 01 00       	push   $0x178c6
    17f4:	52                   	push   %edx
    17f5:	e8 36 9b 01 00       	call   1b330 <fprintf@plt>
    17fa:	83 c4 10             	add    $0x10,%esp
    17fd:	80 3d 84 df 01 00 00 	cmpb   $0x0,0x1df84
    1804:	0f 85 b8 01 00 00    	jne    19c2 <test_print1+0x212>
    180a:	83 ec 0c             	sub    $0xc,%esp
    180d:	a1 60 df 01 00       	mov    0x1df60,%eax
    1812:	68 05 79 01 00       	push   $0x17905
    1817:	6a 03                	push   $0x3
    1819:	6a 05                	push   $0x5
    181b:	68 e0 78 01 00       	push   $0x178e0
    1820:	50                   	push   %eax
    1821:	e8 0a 9b 01 00       	call   1b330 <fprintf@plt>
    1826:	83 c4 20             	add    $0x20,%esp
    1829:	80 3d 84 df 01 00 00 	cmpb   $0x0,0x1df84
    1830:	0f 85 80 00 00 00    	jne    18b6 <test_print1+0x106>
    1836:	50                   	push   %eax
    1837:	50                   	push   %eax
    1838:	a1 60 df 01 00       	mov    0x1df60,%eax
    183d:	68 d8 77 01 00       	push   $0x177d8
    1842:	50                   	push   %eax
    1843:	e8 e8 9a 01 00       	call   1b330 <fprintf@plt>
    1848:	83 c4 10             	add    $0x10,%esp
    184b:	80 3d 84 df 01 00 00 	cmpb   $0x0,0x1df84
    1852:	0f 85 6a 01 00 00    	jne    19c2 <test_print1+0x212>
    1858:	50                   	push   %eax
    1859:	50                   	push   %eax
    185a:	a1 60 df 01 00       	mov    0x1df60,%eax
    185f:	68 08 78 01 00       	push   $0x17808
    1864:	50                   	push   %eax
    1865:	e8 c6 9a 01 00       	call   1b330 <fprintf@plt>
    186a:	83 c4 10             	add    $0x10,%esp
    186d:	80 3d 84 df 01 00 00 	cmpb   $0x0,0x1df84
    1874:	0f 85 80 00 00 00    	jne    18fa <test_print1+0x14a>
    187a:	8b 0d 60 df 01 00    	mov    0x1df60,%ecx
    1880:	52                   	push   %edx
    1881:	68 fb 78 01 00       	push   $0x178fb
    1886:	68 0a 79 01 00       	push   $0x1790a
    188b:	51                   	push   %ecx
    188c:	e8 9f 9a 01 00       	call   1b330 <fprintf@plt>
    1891:	83 c4 10             	add    $0x10,%esp
    1894:	80 3d 84 df 01 00 00 	cmpb   $0x0,0x1df84
    189b:	0f 85 21 01 00 00    	jne    19c2 <test_print1+0x212>
    18a1:	50                   	push   %eax
    18a2:	50                   	push   %eax
    18a3:	a1 60 df 01 00       	mov    0x1df60,%eax
    18a8:	68 28 78 01 00       	push   $0x17828
    18ad:	50                   	push   %eax
    18ae:	e8 7d 9a 01 00       	call   1b330 <fprintf@plt>
    18b3:	83 c4 10             	add    $0x10,%esp
    18b6:	80 3d 84 df 01 00 00 	cmpb   $0x0,0x1df84
    18bd:	75 7c                	jne    193b <test_print1+0x18b>
    18bf:	50                   	push   %eax
    18c0:	50                   	push   %eax
    18c1:	a1 60 df 01 00       	mov    0x1df60,%eax
    18c6:	68 26 79 01 00       	push   $0x17926
    18cb:	50                   	push   %eax
    18cc:	e8 5f 9a 01 00       	call   1b330 <fprintf@plt>
    18d1:	83 c4 10             	add    $0x10,%esp
    18d4:	80 3d 84 df 01 00 00 	cmpb   $0x0,0x1df84
    18db:	0f 85 e1 00 00 00    	jne    19c2 <test_print1+0x212>
    18e1:	50                   	push   %eax
    18e2:	a1 60 df 01 00       	mov    0x1df60,%eax
    18e7:	68 05 79 01 00       	push   $0x17905
    18ec:	68 43 79 01 00       	push   $0x17943
    18f1:	50                   	push   %eax
    18f2:	e8 39 9a 01 00       	call   1b330 <fprintf@plt>
    18f7:	83 c4 10             	add    $0x10,%esp
    18fa:	80 3d 84 df 01 00 00 	cmpb   $0x0,0x1df84
    1901:	75 78                	jne    197b <test_print1+0x1cb>
    1903:	8b 0d 60 df 01 00    	mov    0x1df60,%ecx
    1909:	52                   	push   %edx
    190a:	52                   	push   %edx
    190b:	68 4c 78 01 00       	push   $0x1784c
    1910:	51                   	push   %ecx
    1911:	e8 1a 9a 01 00       	call   1b330 <fprintf@plt>
    1916:	83 c4 10             	add    $0x10,%esp
    1919:	80 3d 84 df 01 00 00 	cmpb   $0x0,0x1df84
    1920:	0f 85 9c 00 00 00    	jne    19c2 <test_print1+0x212>
    1926:	50                   	push   %eax
    1927:	50                   	push   %eax
    1928:	a1 60 df 01 00       	mov    0x1df60,%eax
    192d:	68 7c 78 01 00       	push   $0x1787c
    1932:	50                   	push   %eax
    1933:	e8 f8 99 01 00       	call   1b330 <fprintf@plt>
    1938:	83 c4 10             	add    $0x10,%esp
    193b:	80 3d 84 df 01 00 00 	cmpb   $0x0,0x1df84
    1942:	75 7e                	jne    19c2 <test_print1+0x212>
    1944:	50                   	push   %eax
    1945:	a1 60 df 01 00       	mov    0x1df60,%eax
    194a:	68 fb 78 01 00       	push   $0x178fb
    194f:	68 43 79 01 00       	push   $0x17943
    1954:	50                   	push   %eax
    1955:	e8 d6 99 01 00       	call   1b330 <fprintf@plt>
    195a:	83 c4 10             	add    $0x10,%esp
    195d:	80 3d 84 df 01 00 00 	cmpb   $0x0,0x1df84
    1964:	75 5c                	jne    19c2 <test_print1+0x212>
    1966:	50                   	push   %eax
    1967:	50                   	push   %eax
    1968:	a1 60 df 01 00       	mov    0x1df60,%eax
    196d:	68 9c 78 01 00       	push   $0x1789c
    1972:	50                   	push   %eax
    1973:	e8 b8 99 01 00       	call   1b330 <fprintf@plt>
    1978:	83 c4 10             	add    $0x10,%esp
    197b:	80 3d 84 df 01 00 00 	cmpb   $0x0,0x1df84
    1982:	75 3e                	jne    19c2 <test_print1+0x212>
    1984:	8b 0d 60 df 01 00    	mov    0x1df60,%ecx
    198a:	52                   	push   %edx
    198b:	52                   	push   %edx
    198c:	68 5f 79 01 00       	push   $0x1795f
    1991:	51                   	push   %ecx
    1992:	e8 99 99 01 00       	call   1b330 <fprintf@plt>
    1997:	83 c4 10             	add    $0x10,%esp
    199a:	80 3d 84 df 01 00 00 	cmpb   $0x0,0x1df84
    19a1:	75 1f                	jne    19c2 <test_print1+0x212>
    19a3:	83 ec 0c             	sub    $0xc,%esp
    19a6:	a1 60 df 01 00       	mov    0x1df60,%eax
    19ab:	68 05 79 01 00       	push   $0x17905
    19b0:	6a 07                	push   $0x7
    19b2:	6a 07                	push   $0x7
    19b4:	68 7b 79 01 00       	push   $0x1797b
    19b9:	50                   	push   %eax
    19ba:	e8 71 99 01 00       	call   1b330 <fprintf@plt>
    19bf:	83 c4 20             	add    $0x20,%esp
    19c2:	31 c0                	xor    %eax,%eax
    19c4:	c9                   	leave  
    19c5:	c3                   	ret    
    19c6:	66 90                	xchg   %ax,%ax
    19c8:	66 90                	xchg   %ax,%ax
    19ca:	66 90                	xchg   %ax,%ax
    19cc:	66 90                	xchg   %ax,%ax
    19ce:	66 90                	xchg   %ax,%ax

000019d0 <test_print2>:
    19d0:	80 3d 84 df 01 00 00 	cmpb   $0x0,0x1df84
    19d7:	74 07                	je     19e0 <test_print2+0x10>
    19d9:	31 c0                	xor    %eax,%eax
    19db:	c3                   	ret    
    19dc:	8d 74 26 00          	lea    0x0(%esi,%eiz,1),%esi
    19e0:	55                   	push   %ebp
    19e1:	89 e5                	mov    %esp,%ebp
    19e3:	83 ec 10             	sub    $0x10,%esp
    19e6:	a1 60 df 01 00       	mov    0x1df60,%eax
    19eb:	68 97 79 01 00       	push   $0x17997
    19f0:	50                   	push   %eax
    19f1:	e8 3a 99 01 00       	call   1b330 <fprintf@plt>
    19f6:	83 c4 10             	add    $0x10,%esp
    19f9:	80 3d 84 df 01 00 00 	cmpb   $0x0,0x1df84
    1a00:	75 7d                	jne    1a7f <test_print2+0xaf>
    1a02:	8b 0d 60 df 01 00    	mov    0x1df60,%ecx
    1a08:	52                   	push   %edx
    1a09:	52                   	push   %edx
    1a0a:	68 b4 79 01 00       	push   $0x179b4
    1a0f:	51                   	push   %ecx
    1a10:	e8 1b 99 01 00       	call   1b330 <fprintf@plt>
    1a15:	83 c4 10             	add    $0x10,%esp
    1a18:	80 3d 84 df 01 00 00 	cmpb   $0x0,0x1df84
    1a1f:	0f 85 d2 01 00 00    	jne    1bf7 <test_print2+0x227>
    1a25:	50                   	push   %eax
    1a26:	a1 60 df 01 00       	mov    0x1df60,%eax
    1a2b:	6a 61                	push   $0x61
    1a2d:	68 ca 79 01 00       	push   $0x179ca
    1a32:	50                   	push   %eax
    1a33:	e8 f8 98 01 00       	call   1b330 <fprintf@plt>
    1a38:	83 c4 10             	add    $0x10,%esp
    1a3b:	80 3d 84 df 01 00 00 	cmpb   $0x0,0x1df84
    1a42:	0f 85 85 00 00 00    	jne    1acd <test_print2+0xfd>
    1a48:	50                   	push   %eax
    1a49:	50                   	push   %eax
    1a4a:	a1 60 df 01 00       	mov    0x1df60,%eax
    1a4f:	68 e4 79 01 00       	push   $0x179e4
    1a54:	50                   	push   %eax
    1a55:	e8 d6 98 01 00       	call   1b330 <fprintf@plt>
    1a5a:	83 c4 10             	add    $0x10,%esp
    1a5d:	80 3d 84 df 01 00 00 	cmpb   $0x0,0x1df84
    1a64:	0f 85 8d 01 00 00    	jne    1bf7 <test_print2+0x227>
    1a6a:	50                   	push   %eax
    1a6b:	50                   	push   %eax
    1a6c:	a1 60 df 01 00       	mov    0x1df60,%eax
    1a71:	68 2c 7a 01 00       	push   $0x17a2c
    1a76:	50                   	push   %eax
    1a77:	e8 b4 98 01 00       	call   1b330 <fprintf@plt>
    1a7c:	83 c4 10             	add    $0x10,%esp
    1a7f:	80 3d 84 df 01 00 00 	cmpb   $0x0,0x1df84
    1a86:	0f 85 8e 00 00 00    	jne    1b1a <test_print2+0x14a>
    1a8c:	8b 0d 60 df 01 00    	mov    0x1df60,%ecx
    1a92:	52                   	push   %edx
    1a93:	6a 05                	push   $0x5
    1a95:	6a 04                	push   $0x4
    1a97:	6a 03                	push   $0x3
    1a99:	6a 02                	push   $0x2
    1a9b:	6a 01                	push   $0x1
    1a9d:	68 5c 7a 01 00       	push   $0x17a5c
    1aa2:	51                   	push   %ecx
    1aa3:	e8 88 98 01 00       	call   1b330 <fprintf@plt>
    1aa8:	83 c4 20             	add    $0x20,%esp
    1aab:	80 3d 84 df 01 00 00 	cmpb   $0x0,0x1df84
    1ab2:	0f 85 3f 01 00 00    	jne    1bf7 <test_print2+0x227>
    1ab8:	50                   	push   %eax
    1ab9:	50                   	push   %eax
    1aba:	a1 60 df 01 00       	mov    0x1df60,%eax
    1abf:	68 98 7a 01 00       	push   $0x17a98
    1ac4:	50                   	push   %eax
    1ac5:	e8 66 98 01 00       	call   1b330 <fprintf@plt>
    1aca:	83 c4 10             	add    $0x10,%esp
    1acd:	80 3d 84 df 01 00 00 	cmpb   $0x0,0x1df84
    1ad4:	0f 85 85 00 00 00    	jne    1b5f <test_print2+0x18f>
    1ada:	50                   	push   %eax
    1adb:	50                   	push   %eax
    1adc:	a1 60 df 01 00       	mov    0x1df60,%eax
    1ae1:	68 e4 7a 01 00       	push   $0x17ae4
    1ae6:	50                   	push   %eax
    1ae7:	e8 44 98 01 00       	call   1b330 <fprintf@plt>
    1aec:	83 c4 10             	add    $0x10,%esp
    1aef:	80 3d 84 df 01 00 00 	cmpb   $0x0,0x1df84
    1af6:	0f 85 fb 00 00 00    	jne    1bf7 <test_print2+0x227>
    1afc:	50                   	push   %eax
    1afd:	a1 60 df 01 00       	mov    0x1df60,%eax
    1b02:	6a fb                	push   $0xfffffffb
    1b04:	6a fc                	push   $0xfffffffc
    1b06:	6a fd                	push   $0xfffffffd
    1b08:	6a fe                	push   $0xfffffffe
    1b0a:	6a ff                	push   $0xffffffff
    1b0c:	68 5c 7a 01 00       	push   $0x17a5c
    1b11:	50                   	push   %eax
    1b12:	e8 19 98 01 00       	call   1b330 <fprintf@plt>
    1b17:	83 c4 20             	add    $0x20,%esp
    1b1a:	80 3d 84 df 01 00 00 	cmpb   $0x0,0x1df84
    1b21:	0f 85 8a 00 00 00    	jne    1bb1 <test_print2+0x1e1>
    1b27:	8b 0d 60 df 01 00    	mov    0x1df60,%ecx
    1b2d:	52                   	push   %edx
    1b2e:	52                   	push   %edx
    1b2f:	68 18 7b 01 00       	push   $0x17b18
    1b34:	51                   	push   %ecx
    1b35:	e8 f6 97 01 00       	call   1b330 <fprintf@plt>
    1b3a:	83 c4 10             	add    $0x10,%esp
    1b3d:	80 3d 84 df 01 00 00 	cmpb   $0x0,0x1df84
    1b44:	0f 85 ad 00 00 00    	jne    1bf7 <test_print2+0x227>
    1b4a:	50                   	push   %eax
    1b4b:	50                   	push   %eax
    1b4c:	a1 60 df 01 00       	mov    0x1df60,%eax
    1b51:	68 e4 7a 01 00       	push   $0x17ae4
    1b56:	50                   	push   %eax
    1b57:	e8 d4 97 01 00       	call   1b330 <fprintf@plt>
    1b5c:	83 c4 10             	add    $0x10,%esp
    1b5f:	80 3d 84 df 01 00 00 	cmpb   $0x0,0x1df84
    1b66:	0f 85 8b 00 00 00    	jne    1bf7 <test_print2+0x227>
    1b6c:	a1 60 df 01 00       	mov    0x1df60,%eax
    1b71:	6a ff                	push   $0xffffffff
    1b73:	6a fb                	push   $0xfffffffb
    1b75:	6a ff                	push   $0xffffffff
    1b77:	6a fc                	push   $0xfffffffc
    1b79:	6a ff                	push   $0xffffffff
    1b7b:	6a fd                	push   $0xfffffffd
    1b7d:	6a ff                	push   $0xffffffff
    1b7f:	6a fe                	push   $0xfffffffe
    1b81:	6a ff                	push   $0xffffffff
    1b83:	6a ff                	push   $0xffffffff
    1b85:	68 a8 7b 01 00       	push   $0x17ba8
    1b8a:	50                   	push   %eax
    1b8b:	e8 a0 97 01 00       	call   1b330 <fprintf@plt>
    1b90:	83 c4 30             	add    $0x30,%esp
    1b93:	80 3d 84 df 01 00 00 	cmpb   $0x0,0x1df84
    1b9a:	75 5b                	jne    1bf7 <test_print2+0x227>
    1b9c:	50                   	push   %eax
    1b9d:	50                   	push   %eax
    1b9e:	a1 60 df 01 00       	mov    0x1df60,%eax
    1ba3:	68 ec 7b 01 00       	push   $0x17bec
    1ba8:	50                   	push   %eax
    1ba9:	e8 82 97 01 00       	call   1b330 <fprintf@plt>
    1bae:	83 c4 10             	add    $0x10,%esp
    1bb1:	80 3d 84 df 01 00 00 	cmpb   $0x0,0x1df84
    1bb8:	75 3d                	jne    1bf7 <test_print2+0x227>
    1bba:	a1 60 df 01 00       	mov    0x1df60,%eax
    1bbf:	51                   	push   %ecx
    1bc0:	51                   	push   %ecx
    1bc1:	68 3c 7c 01 00       	push   $0x17c3c
    1bc6:	50                   	push   %eax
    1bc7:	e8 64 97 01 00       	call   1b330 <fprintf@plt>
    1bcc:	83 c4 10             	add    $0x10,%esp
    1bcf:	80 3d 84 df 01 00 00 	cmpb   $0x0,0x1df84
    1bd6:	75 1f                	jne    1bf7 <test_print2+0x227>
    1bd8:	8b 15 60 df 01 00    	mov    0x1df60,%edx
    1bde:	50                   	push   %eax
    1bdf:	6a 15                	push   $0x15
    1be1:	6a 14                	push   $0x14
    1be3:	6a 13                	push   $0x13
    1be5:	6a 12                	push   $0x12
    1be7:	6a 11                	push   $0x11
    1be9:	68 7c 7c 01 00       	push   $0x17c7c
    1bee:	52                   	push   %edx
    1bef:	e8 3c 97 01 00       	call   1b330 <fprintf@plt>
    1bf4:	83 c4 20             	add    $0x20,%esp
    1bf7:	31 c0                	xor    %eax,%eax
    1bf9:	c9                   	leave  
    1bfa:	c3                   	ret    
    1bfb:	66 90                	xchg   %ax,%ax
    1bfd:	66 90                	xchg   %ax,%ax
    1bff:	90                   	nop

00001c00 <test_print3>:
    1c00:	55                   	push   %ebp
    1c01:	89 e5                	mov    %esp,%ebp
    1c03:	53                   	push   %ebx
    1c04:	83 ec 24             	sub    $0x24,%esp
    1c07:	80 3d 84 df 01 00 00 	cmpb   $0x0,0x1df84
    1c0e:	0f 84 b4 01 00 00    	je     1dc8 <test_print3+0x1c8>
    1c14:	8d 5d d8             	lea    -0x28(%ebp),%ebx
    1c17:	52                   	push   %edx
    1c18:	68 44 7d 01 00       	push   $0x17d44
    1c1d:	6a 20                	push   $0x20
    1c1f:	53                   	push   %ebx
    1c20:	e8 8b 94 01 00       	call   1b0b0 <snprintf@plt>
    1c25:	83 c4 10             	add    $0x10,%esp
    1c28:	80 3d 84 df 01 00 00 	cmpb   $0x0,0x1df84
    1c2f:	0f 84 33 01 00 00    	je     1d68 <test_print3+0x168>
    1c35:	50                   	push   %eax
    1c36:	68 28 7e 01 00       	push   $0x17e28
    1c3b:	6a 20                	push   $0x20
    1c3d:	53                   	push   %ebx
    1c3e:	e8 6d 94 01 00       	call   1b0b0 <snprintf@plt>
    1c43:	83 c4 10             	add    $0x10,%esp
    1c46:	80 3d 84 df 01 00 00 	cmpb   $0x0,0x1df84
    1c4d:	0f 84 b5 00 00 00    	je     1d08 <test_print3+0x108>
    1c53:	68 05 79 01 00       	push   $0x17905
    1c58:	68 e3 7f 01 00       	push   $0x17fe3
    1c5d:	6a 20                	push   $0x20
    1c5f:	53                   	push   %ebx
    1c60:	e8 4b 94 01 00       	call   1b0b0 <snprintf@plt>
    1c65:	83 c4 10             	add    $0x10,%esp
    1c68:	80 3d 84 df 01 00 00 	cmpb   $0x0,0x1df84
    1c6f:	74 3f                	je     1cb0 <test_print3+0xb0>
    1c71:	83 ec 0c             	sub    $0xc,%esp
    1c74:	6a 20                	push   $0x20
    1c76:	68 05 79 01 00       	push   $0x17905
    1c7b:	68 90 7f 01 00       	push   $0x17f90
    1c80:	6a 20                	push   $0x20
    1c82:	53                   	push   %ebx
    1c83:	e8 28 94 01 00       	call   1b0b0 <snprintf@plt>
    1c88:	83 c4 20             	add    $0x20,%esp
    1c8b:	80 3d 84 df 01 00 00 	cmpb   $0x0,0x1df84
    1c92:	75 15                	jne    1ca9 <test_print3+0xa9>
    1c94:	53                   	push   %ebx
    1c95:	50                   	push   %eax
    1c96:	a1 60 df 01 00       	mov    0x1df60,%eax
    1c9b:	68 64 7d 01 00       	push   $0x17d64
    1ca0:	50                   	push   %eax
    1ca1:	e8 8a 96 01 00       	call   1b330 <fprintf@plt>
    1ca6:	83 c4 10             	add    $0x10,%esp
    1ca9:	31 c0                	xor    %eax,%eax
    1cab:	8b 5d fc             	mov    -0x4(%ebp),%ebx
    1cae:	c9                   	leave  
    1caf:	c3                   	ret    
    1cb0:	53                   	push   %ebx
    1cb1:	50                   	push   %eax
    1cb2:	a1 60 df 01 00       	mov    0x1df60,%eax
    1cb7:	68 64 7d 01 00       	push   $0x17d64
    1cbc:	50                   	push   %eax
    1cbd:	e8 6e 96 01 00       	call   1b330 <fprintf@plt>
    1cc2:	83 c4 10             	add    $0x10,%esp
    1cc5:	80 3d 84 df 01 00 00 	cmpb   $0x0,0x1df84
    1ccc:	75 a3                	jne    1c71 <test_print3+0x71>
    1cce:	50                   	push   %eax
    1ccf:	50                   	push   %eax
    1cd0:	a1 60 df 01 00       	mov    0x1df60,%eax
    1cd5:	68 c4 7e 01 00       	push   $0x17ec4
    1cda:	50                   	push   %eax
    1cdb:	e8 50 96 01 00       	call   1b330 <fprintf@plt>
    1ce0:	83 c4 10             	add    $0x10,%esp
    1ce3:	80 3d 84 df 01 00 00 	cmpb   $0x0,0x1df84
    1cea:	75 85                	jne    1c71 <test_print3+0x71>
    1cec:	8b 0d 60 df 01 00    	mov    0x1df60,%ecx
    1cf2:	52                   	push   %edx
    1cf3:	52                   	push   %edx
    1cf4:	68 48 7f 01 00       	push   $0x17f48
    1cf9:	51                   	push   %ecx
    1cfa:	e8 31 96 01 00       	call   1b330 <fprintf@plt>
    1cff:	83 c4 10             	add    $0x10,%esp
    1d02:	e9 6a ff ff ff       	jmp    1c71 <test_print3+0x71>
    1d07:	90                   	nop
    1d08:	8b 0d 60 df 01 00    	mov    0x1df60,%ecx
    1d0e:	53                   	push   %ebx
    1d0f:	50                   	push   %eax
    1d10:	68 64 7d 01 00       	push   $0x17d64
    1d15:	51                   	push   %ecx
    1d16:	e8 15 96 01 00       	call   1b330 <fprintf@plt>
    1d1b:	83 c4 10             	add    $0x10,%esp
    1d1e:	80 3d 84 df 01 00 00 	cmpb   $0x0,0x1df84
    1d25:	0f 85 28 ff ff ff    	jne    1c53 <test_print3+0x53>
    1d2b:	8b 15 60 df 01 00    	mov    0x1df60,%edx
    1d31:	50                   	push   %eax
    1d32:	50                   	push   %eax
    1d33:	68 58 7e 01 00       	push   $0x17e58
    1d38:	52                   	push   %edx
    1d39:	e8 f2 95 01 00       	call   1b330 <fprintf@plt>
    1d3e:	83 c4 10             	add    $0x10,%esp
    1d41:	80 3d 84 df 01 00 00 	cmpb   $0x0,0x1df84
    1d48:	0f 85 05 ff ff ff    	jne    1c53 <test_print3+0x53>
    1d4e:	50                   	push   %eax
    1d4f:	50                   	push   %eax
    1d50:	a1 60 df 01 00       	mov    0x1df60,%eax
    1d55:	68 90 7e 01 00       	push   $0x17e90
    1d5a:	50                   	push   %eax
    1d5b:	e8 d0 95 01 00       	call   1b330 <fprintf@plt>
    1d60:	83 c4 10             	add    $0x10,%esp
    1d63:	e9 eb fe ff ff       	jmp    1c53 <test_print3+0x53>
    1d68:	53                   	push   %ebx
    1d69:	50                   	push   %eax
    1d6a:	a1 60 df 01 00       	mov    0x1df60,%eax
    1d6f:	68 64 7d 01 00       	push   $0x17d64
    1d74:	50                   	push   %eax
    1d75:	e8 b6 95 01 00       	call   1b330 <fprintf@plt>
    1d7a:	83 c4 10             	add    $0x10,%esp
    1d7d:	80 3d 84 df 01 00 00 	cmpb   $0x0,0x1df84
    1d84:	0f 85 ab fe ff ff    	jne    1c35 <test_print3+0x35>
    1d8a:	50                   	push   %eax
    1d8b:	50                   	push   %eax
    1d8c:	a1 60 df 01 00       	mov    0x1df60,%eax
    1d91:	68 90 7d 01 00       	push   $0x17d90
    1d96:	50                   	push   %eax
    1d97:	e8 94 95 01 00       	call   1b330 <fprintf@plt>
    1d9c:	83 c4 10             	add    $0x10,%esp
    1d9f:	80 3d 84 df 01 00 00 	cmpb   $0x0,0x1df84
    1da6:	0f 85 89 fe ff ff    	jne    1c35 <test_print3+0x35>
    1dac:	50                   	push   %eax
    1dad:	50                   	push   %eax
    1dae:	a1 60 df 01 00       	mov    0x1df60,%eax
    1db3:	68 e0 7d 01 00       	push   $0x17de0
    1db8:	50                   	push   %eax
    1db9:	e8 72 95 01 00       	call   1b330 <fprintf@plt>
    1dbe:	83 c4 10             	add    $0x10,%esp
    1dc1:	e9 6f fe ff ff       	jmp    1c35 <test_print3+0x35>
    1dc6:	66 90                	xchg   %ax,%ax
    1dc8:	50                   	push   %eax
    1dc9:	50                   	push   %eax
    1dca:	a1 60 df 01 00       	mov    0x1df60,%eax
    1dcf:	68 bc 7c 01 00       	push   $0x17cbc
    1dd4:	50                   	push   %eax
    1dd5:	e8 56 95 01 00       	call   1b330 <fprintf@plt>
    1dda:	83 c4 10             	add    $0x10,%esp
    1ddd:	80 3d 84 df 01 00 00 	cmpb   $0x0,0x1df84
    1de4:	0f 85 2a fe ff ff    	jne    1c14 <test_print3+0x14>
    1dea:	8b 1d 60 df 01 00    	mov    0x1df60,%ebx
    1df0:	51                   	push   %ecx
    1df1:	51                   	push   %ecx
    1df2:	68 00 7d 01 00       	push   $0x17d00
    1df7:	53                   	push   %ebx
    1df8:	e8 33 95 01 00       	call   1b330 <fprintf@plt>
    1dfd:	83 c4 10             	add    $0x10,%esp
    1e00:	e9 0f fe ff ff       	jmp    1c14 <test_print3+0x14>
    1e05:	66 90                	xchg   %ax,%ax
    1e07:	66 90                	xchg   %ax,%ax
    1e09:	66 90                	xchg   %ax,%ax
    1e0b:	66 90                	xchg   %ax,%ax
    1e0d:	66 90                	xchg   %ax,%ax
    1e0f:	90                   	nop

00001e10 <test_print4>:
    1e10:	55                   	push   %ebp
    1e11:	89 e5                	mov    %esp,%ebp
    1e13:	57                   	push   %edi
    1e14:	56                   	push   %esi
    1e15:	53                   	push   %ebx
    1e16:	83 ec 1c             	sub    $0x1c,%esp
    1e19:	a0 84 df 01 00       	mov    0x1df84,%al
    1e1e:	84 c0                	test   %al,%al
    1e20:	0f 84 61 04 00 00    	je     2287 <test_print4+0x477>
    1e26:	bf 20 00 00 00       	mov    $0x20,%edi
    1e2b:	be 40 00 00 00       	mov    $0x40,%esi
    1e30:	84 c0                	test   %al,%al
    1e32:	75 1a                	jne    1e4e <test_print4+0x3e>
    1e34:	50                   	push   %eax
    1e35:	a1 60 df 01 00       	mov    0x1df60,%eax
    1e3a:	57                   	push   %edi
    1e3b:	68 b3 82 01 00       	push   $0x182b3
    1e40:	50                   	push   %eax
    1e41:	e8 ea 94 01 00       	call   1b330 <fprintf@plt>
    1e46:	a0 84 df 01 00       	mov    0x1df84,%al
    1e4b:	83 c4 10             	add    $0x10,%esp
    1e4e:	89 fb                	mov    %edi,%ebx
    1e50:	89 f2                	mov    %esi,%edx
    1e52:	8d b6 00 00 00 00    	lea    0x0(%esi),%esi
    1e58:	84 c0                	test   %al,%al
    1e5a:	0f 84 98 01 00 00    	je     1ff8 <test_print4+0x1e8>
    1e60:	8d 4b 01             	lea    0x1(%ebx),%ecx
    1e63:	38 d1                	cmp    %dl,%cl
    1e65:	74 26                	je     1e8d <test_print4+0x7d>
    1e67:	83 c3 02             	add    $0x2,%ebx
    1e6a:	38 da                	cmp    %bl,%dl
    1e6c:	75 f2                	jne    1e60 <test_print4+0x50>
    1e6e:	84 c0                	test   %al,%al
    1e70:	75 1b                	jne    1e8d <test_print4+0x7d>
    1e72:	8b 0d 60 df 01 00    	mov    0x1df60,%ecx
    1e78:	52                   	push   %edx
    1e79:	52                   	push   %edx
    1e7a:	68 15 8c 01 00       	push   $0x18c15
    1e7f:	51                   	push   %ecx
    1e80:	e8 ab 94 01 00       	call   1b330 <fprintf@plt>
    1e85:	a0 84 df 01 00       	mov    0x1df84,%al
    1e8a:	83 c4 10             	add    $0x10,%esp
    1e8d:	89 fb                	mov    %edi,%ebx
    1e8f:	90                   	nop
    1e90:	84 c0                	test   %al,%al
    1e92:	0f 84 e0 00 00 00    	je     1f78 <test_print4+0x168>
    1e98:	8d 53 01             	lea    0x1(%ebx),%edx
    1e9b:	39 f2                	cmp    %esi,%edx
    1e9d:	74 11                	je     1eb0 <test_print4+0xa0>
    1e9f:	83 c3 02             	add    $0x2,%ebx
    1ea2:	39 f3                	cmp    %esi,%ebx
    1ea4:	75 f2                	jne    1e98 <test_print4+0x88>
    1ea6:	84 c0                	test   %al,%al
    1ea8:	0f 84 f5 00 00 00    	je     1fa3 <test_print4+0x193>
    1eae:	66 90                	xchg   %ax,%ax
    1eb0:	83 c7 20             	add    $0x20,%edi
    1eb3:	83 c6 20             	add    $0x20,%esi
    1eb6:	b0 01                	mov    $0x1,%al
    1eb8:	81 ff 80 00 00 00    	cmp    $0x80,%edi
    1ebe:	75 8e                	jne    1e4e <test_print4+0x3e>
    1ec0:	bb 80 00 00 00       	mov    $0x80,%ebx
    1ec5:	84 c0                	test   %al,%al
    1ec7:	75 1b                	jne    1ee4 <test_print4+0xd4>
    1ec9:	8b 3d 60 df 01 00    	mov    0x1df60,%edi
    1ecf:	56                   	push   %esi
    1ed0:	53                   	push   %ebx
    1ed1:	68 b3 82 01 00       	push   $0x182b3
    1ed6:	57                   	push   %edi
    1ed7:	e8 54 94 01 00       	call   1b330 <fprintf@plt>
    1edc:	a0 84 df 01 00       	mov    0x1df84,%al
    1ee1:	83 c4 10             	add    $0x10,%esp
    1ee4:	8d 7b 20             	lea    0x20(%ebx),%edi
    1ee7:	90                   	nop
    1ee8:	84 c0                	test   %al,%al
    1eea:	74 4c                	je     1f38 <test_print4+0x128>
    1eec:	89 de                	mov    %ebx,%esi
    1eee:	66 90                	xchg   %ax,%ax
    1ef0:	8d 5e 01             	lea    0x1(%esi),%ebx
    1ef3:	39 fb                	cmp    %edi,%ebx
    1ef5:	74 69                	je     1f60 <test_print4+0x150>
    1ef7:	83 c6 02             	add    $0x2,%esi
    1efa:	39 f7                	cmp    %esi,%edi
    1efc:	75 f2                	jne    1ef0 <test_print4+0xe0>
    1efe:	84 c0                	test   %al,%al
    1f00:	75 5c                	jne    1f5e <test_print4+0x14e>
    1f02:	50                   	push   %eax
    1f03:	50                   	push   %eax
    1f04:	a1 60 df 01 00       	mov    0x1df60,%eax
    1f09:	68 37 88 01 00       	push   $0x18837
    1f0e:	50                   	push   %eax
    1f0f:	89 f3                	mov    %esi,%ebx
    1f11:	e8 1a 94 01 00       	call   1b330 <fprintf@plt>
    1f16:	83 c4 10             	add    $0x10,%esp
    1f19:	a0 84 df 01 00       	mov    0x1df84,%al
    1f1e:	81 fe 00 01 00 00    	cmp    $0x100,%esi
    1f24:	75 9f                	jne    1ec5 <test_print4+0xb5>
    1f26:	84 c0                	test   %al,%al
    1f28:	0f 84 fc 00 00 00    	je     202a <test_print4+0x21a>
    1f2e:	8d 65 f4             	lea    -0xc(%ebp),%esp
    1f31:	31 c0                	xor    %eax,%eax
    1f33:	5b                   	pop    %ebx
    1f34:	5e                   	pop    %esi
    1f35:	5f                   	pop    %edi
    1f36:	5d                   	pop    %ebp
    1f37:	c3                   	ret    
    1f38:	8b 0d 60 df 01 00    	mov    0x1df60,%ecx
    1f3e:	52                   	push   %edx
    1f3f:	53                   	push   %ebx
    1f40:	43                   	inc    %ebx
    1f41:	68 bc 82 01 00       	push   $0x182bc
    1f46:	51                   	push   %ecx
    1f47:	e8 e4 93 01 00       	call   1b330 <fprintf@plt>
    1f4c:	83 c4 10             	add    $0x10,%esp
    1f4f:	a0 84 df 01 00       	mov    0x1df84,%al
    1f54:	39 fb                	cmp    %edi,%ebx
    1f56:	75 90                	jne    1ee8 <test_print4+0xd8>
    1f58:	89 de                	mov    %ebx,%esi
    1f5a:	84 c0                	test   %al,%al
    1f5c:	74 a4                	je     1f02 <test_print4+0xf2>
    1f5e:	89 f3                	mov    %esi,%ebx
    1f60:	b0 01                	mov    $0x1,%al
    1f62:	81 fb 00 01 00 00    	cmp    $0x100,%ebx
    1f68:	0f 85 76 ff ff ff    	jne    1ee4 <test_print4+0xd4>
    1f6e:	8d 65 f4             	lea    -0xc(%ebp),%esp
    1f71:	31 c0                	xor    %eax,%eax
    1f73:	5b                   	pop    %ebx
    1f74:	5e                   	pop    %esi
    1f75:	5f                   	pop    %edi
    1f76:	5d                   	pop    %ebp
    1f77:	c3                   	ret    
    1f78:	50                   	push   %eax
    1f79:	a1 60 df 01 00       	mov    0x1df60,%eax
    1f7e:	53                   	push   %ebx
    1f7f:	43                   	inc    %ebx
    1f80:	68 bc 82 01 00       	push   $0x182bc
    1f85:	50                   	push   %eax
    1f86:	e8 a5 93 01 00       	call   1b330 <fprintf@plt>
    1f8b:	83 c4 10             	add    $0x10,%esp
    1f8e:	a0 84 df 01 00       	mov    0x1df84,%al
    1f93:	39 f3                	cmp    %esi,%ebx
    1f95:	0f 85 f5 fe ff ff    	jne    1e90 <test_print4+0x80>
    1f9b:	84 c0                	test   %al,%al
    1f9d:	0f 85 0d ff ff ff    	jne    1eb0 <test_print4+0xa0>
    1fa3:	50                   	push   %eax
    1fa4:	50                   	push   %eax
    1fa5:	a1 60 df 01 00       	mov    0x1df60,%eax
    1faa:	68 37 88 01 00       	push   $0x18837
    1faf:	83 c7 20             	add    $0x20,%edi
    1fb2:	50                   	push   %eax
    1fb3:	83 c6 20             	add    $0x20,%esi
    1fb6:	e8 75 93 01 00       	call   1b330 <fprintf@plt>
    1fbb:	83 c4 10             	add    $0x10,%esp
    1fbe:	a0 84 df 01 00       	mov    0x1df84,%al
    1fc3:	81 ff 80 00 00 00    	cmp    $0x80,%edi
    1fc9:	0f 85 61 fe ff ff    	jne    1e30 <test_print4+0x20>
    1fcf:	84 c0                	test   %al,%al
    1fd1:	0f 85 e9 fe ff ff    	jne    1ec0 <test_print4+0xb0>
    1fd7:	50                   	push   %eax
    1fd8:	50                   	push   %eax
    1fd9:	a1 60 df 01 00       	mov    0x1df60,%eax
    1fde:	68 40 80 01 00       	push   $0x18040
    1fe3:	50                   	push   %eax
    1fe4:	e8 47 93 01 00       	call   1b330 <fprintf@plt>
    1fe9:	a0 84 df 01 00       	mov    0x1df84,%al
    1fee:	83 c4 10             	add    $0x10,%esp
    1ff1:	e9 ca fe ff ff       	jmp    1ec0 <test_print4+0xb0>
    1ff6:	66 90                	xchg   %ax,%ax
    1ff8:	50                   	push   %eax
    1ff9:	31 c0                	xor    %eax,%eax
    1ffb:	88 d8                	mov    %bl,%al
    1ffd:	88 55 e7             	mov    %dl,-0x19(%ebp)
    2000:	50                   	push   %eax
    2001:	a1 60 df 01 00       	mov    0x1df60,%eax
    2006:	68 b9 82 01 00       	push   $0x182b9
    200b:	43                   	inc    %ebx
    200c:	50                   	push   %eax
    200d:	e8 1e 93 01 00       	call   1b330 <fprintf@plt>
    2012:	8a 55 e7             	mov    -0x19(%ebp),%dl
    2015:	83 c4 10             	add    $0x10,%esp
    2018:	a0 84 df 01 00       	mov    0x1df84,%al
    201d:	38 d3                	cmp    %dl,%bl
    201f:	0f 85 33 fe ff ff    	jne    1e58 <test_print4+0x48>
    2025:	e9 44 fe ff ff       	jmp    1e6e <test_print4+0x5e>
    202a:	50                   	push   %eax
    202b:	50                   	push   %eax
    202c:	a1 60 df 01 00       	mov    0x1df60,%eax
    2031:	68 80 80 01 00       	push   $0x18080
    2036:	50                   	push   %eax
    2037:	e8 f4 92 01 00       	call   1b330 <fprintf@plt>
    203c:	83 c4 10             	add    $0x10,%esp
    203f:	80 3d 84 df 01 00 00 	cmpb   $0x0,0x1df84
    2046:	0f 85 e2 fe ff ff    	jne    1f2e <test_print4+0x11e>
    204c:	50                   	push   %eax
    204d:	a1 60 df 01 00       	mov    0x1df60,%eax
    2052:	68 a8 80 01 00       	push   $0x180a8
    2057:	68 c0 82 01 00       	push   $0x182c0
    205c:	50                   	push   %eax
    205d:	e8 ce 92 01 00       	call   1b330 <fprintf@plt>
    2062:	83 c4 10             	add    $0x10,%esp
    2065:	80 3d 84 df 01 00 00 	cmpb   $0x0,0x1df84
    206c:	0f 85 bc fe ff ff    	jne    1f2e <test_print4+0x11e>
    2072:	8b 3d 60 df 01 00    	mov    0x1df60,%edi
    2078:	56                   	push   %esi
    2079:	68 d0 80 01 00       	push   $0x180d0
    207e:	68 ce 82 01 00       	push   $0x182ce
    2083:	57                   	push   %edi
    2084:	e8 a7 92 01 00       	call   1b330 <fprintf@plt>
    2089:	83 c4 10             	add    $0x10,%esp
    208c:	80 3d 84 df 01 00 00 	cmpb   $0x0,0x1df84
    2093:	0f 85 95 fe ff ff    	jne    1f2e <test_print4+0x11e>
    2099:	8b 1d 60 df 01 00    	mov    0x1df60,%ebx
    209f:	51                   	push   %ecx
    20a0:	68 08 81 01 00       	push   $0x18108
    20a5:	68 dc 82 01 00       	push   $0x182dc
    20aa:	53                   	push   %ebx
    20ab:	e8 80 92 01 00       	call   1b330 <fprintf@plt>
    20b0:	83 c4 10             	add    $0x10,%esp
    20b3:	80 3d 84 df 01 00 00 	cmpb   $0x0,0x1df84
    20ba:	0f 85 6e fe ff ff    	jne    1f2e <test_print4+0x11e>
    20c0:	8b 15 60 df 01 00    	mov    0x1df60,%edx
    20c6:	50                   	push   %eax
    20c7:	68 60 81 01 00       	push   $0x18160
    20cc:	68 ea 82 01 00       	push   $0x182ea
    20d1:	52                   	push   %edx
    20d2:	e8 59 92 01 00       	call   1b330 <fprintf@plt>
    20d7:	83 c4 10             	add    $0x10,%esp
    20da:	80 3d 84 df 01 00 00 	cmpb   $0x0,0x1df84
    20e1:	0f 85 47 fe ff ff    	jne    1f2e <test_print4+0x11e>
    20e7:	50                   	push   %eax
    20e8:	a1 60 df 01 00       	mov    0x1df60,%eax
    20ed:	68 ac 81 01 00       	push   $0x181ac
    20f2:	68 f8 82 01 00       	push   $0x182f8
    20f7:	50                   	push   %eax
    20f8:	e8 33 92 01 00       	call   1b330 <fprintf@plt>
    20fd:	83 c4 10             	add    $0x10,%esp
    2100:	80 3d 84 df 01 00 00 	cmpb   $0x0,0x1df84
    2107:	0f 85 21 fe ff ff    	jne    1f2e <test_print4+0x11e>
    210d:	50                   	push   %eax
    210e:	a1 60 df 01 00       	mov    0x1df60,%eax
    2113:	68 e8 81 01 00       	push   $0x181e8
    2118:	68 06 83 01 00       	push   $0x18306
    211d:	50                   	push   %eax
    211e:	e8 0d 92 01 00       	call   1b330 <fprintf@plt>
    2123:	83 c4 10             	add    $0x10,%esp
    2126:	80 3d 84 df 01 00 00 	cmpb   $0x0,0x1df84
    212d:	0f 85 fb fd ff ff    	jne    1f2e <test_print4+0x11e>
    2133:	a1 60 df 01 00       	mov    0x1df60,%eax
    2138:	57                   	push   %edi
    2139:	68 44 82 01 00       	push   $0x18244
    213e:	68 14 83 01 00       	push   $0x18314
    2143:	50                   	push   %eax
    2144:	e8 e7 91 01 00       	call   1b330 <fprintf@plt>
    2149:	83 c4 10             	add    $0x10,%esp
    214c:	80 3d 84 df 01 00 00 	cmpb   $0x0,0x1df84
    2153:	0f 85 d5 fd ff ff    	jne    1f2e <test_print4+0x11e>
    2159:	8b 35 60 df 01 00    	mov    0x1df60,%esi
    215f:	53                   	push   %ebx
    2160:	53                   	push   %ebx
    2161:	68 8c 82 01 00       	push   $0x1828c
    2166:	56                   	push   %esi
    2167:	e8 c4 91 01 00       	call   1b330 <fprintf@plt>
    216c:	83 c4 10             	add    $0x10,%esp
    216f:	80 3d 84 df 01 00 00 	cmpb   $0x0,0x1df84
    2176:	0f 85 b2 fd ff ff    	jne    1f2e <test_print4+0x11e>
    217c:	8b 0d 60 df 01 00    	mov    0x1df60,%ecx
    2182:	52                   	push   %edx
    2183:	68 8c 83 01 00       	push   $0x1838c
    2188:	68 22 83 01 00       	push   $0x18322
    218d:	51                   	push   %ecx
    218e:	e8 9d 91 01 00       	call   1b330 <fprintf@plt>
    2193:	83 c4 10             	add    $0x10,%esp
    2196:	80 3d 84 df 01 00 00 	cmpb   $0x0,0x1df84
    219d:	0f 85 8b fd ff ff    	jne    1f2e <test_print4+0x11e>
    21a3:	50                   	push   %eax
    21a4:	a1 60 df 01 00       	mov    0x1df60,%eax
    21a9:	68 2c 84 01 00       	push   $0x1842c
    21ae:	68 31 83 01 00       	push   $0x18331
    21b3:	50                   	push   %eax
    21b4:	e8 77 91 01 00       	call   1b330 <fprintf@plt>
    21b9:	83 c4 10             	add    $0x10,%esp
    21bc:	80 3d 84 df 01 00 00 	cmpb   $0x0,0x1df84
    21c3:	0f 85 65 fd ff ff    	jne    1f2e <test_print4+0x11e>
    21c9:	50                   	push   %eax
    21ca:	a1 60 df 01 00       	mov    0x1df60,%eax
    21cf:	68 c8 84 01 00       	push   $0x184c8
    21d4:	68 40 83 01 00       	push   $0x18340
    21d9:	50                   	push   %eax
    21da:	e8 51 91 01 00       	call   1b330 <fprintf@plt>
    21df:	83 c4 10             	add    $0x10,%esp
    21e2:	80 3d 84 df 01 00 00 	cmpb   $0x0,0x1df84
    21e9:	0f 85 3f fd ff ff    	jne    1f2e <test_print4+0x11e>
    21ef:	50                   	push   %eax
    21f0:	a1 60 df 01 00       	mov    0x1df60,%eax
    21f5:	68 74 85 01 00       	push   $0x18574
    21fa:	68 4f 83 01 00       	push   $0x1834f
    21ff:	50                   	push   %eax
    2200:	e8 2b 91 01 00       	call   1b330 <fprintf@plt>
    2205:	83 c4 10             	add    $0x10,%esp
    2208:	80 3d 84 df 01 00 00 	cmpb   $0x0,0x1df84
    220f:	0f 85 19 fd ff ff    	jne    1f2e <test_print4+0x11e>
    2215:	8b 3d 60 df 01 00    	mov    0x1df60,%edi
    221b:	56                   	push   %esi
    221c:	68 10 86 01 00       	push   $0x18610
    2221:	68 5e 83 01 00       	push   $0x1835e
    2226:	57                   	push   %edi
    2227:	e8 04 91 01 00       	call   1b330 <fprintf@plt>
    222c:	83 c4 10             	add    $0x10,%esp
    222f:	80 3d 84 df 01 00 00 	cmpb   $0x0,0x1df84
    2236:	0f 85 f2 fc ff ff    	jne    1f2e <test_print4+0x11e>
    223c:	8b 1d 60 df 01 00    	mov    0x1df60,%ebx
    2242:	51                   	push   %ecx
    2243:	68 90 86 01 00       	push   $0x18690
    2248:	68 6d 83 01 00       	push   $0x1836d
    224d:	53                   	push   %ebx
    224e:	e8 dd 90 01 00       	call   1b330 <fprintf@plt>
    2253:	83 c4 10             	add    $0x10,%esp
    2256:	80 3d 84 df 01 00 00 	cmpb   $0x0,0x1df84
    225d:	0f 85 cb fc ff ff    	jne    1f2e <test_print4+0x11e>
    2263:	8b 15 60 df 01 00    	mov    0x1df60,%edx
    2269:	50                   	push   %eax
    226a:	68 50 87 01 00       	push   $0x18750
    226f:	68 7c 83 01 00       	push   $0x1837c
    2274:	52                   	push   %edx
    2275:	e8 b6 90 01 00       	call   1b330 <fprintf@plt>
    227a:	83 c4 10             	add    $0x10,%esp
    227d:	8d 65 f4             	lea    -0xc(%ebp),%esp
    2280:	31 c0                	xor    %eax,%eax
    2282:	5b                   	pop    %ebx
    2283:	5e                   	pop    %esi
    2284:	5f                   	pop    %edi
    2285:	5d                   	pop    %ebp
    2286:	c3                   	ret    
    2287:	50                   	push   %eax
    2288:	50                   	push   %eax
    2289:	a1 60 df 01 00       	mov    0x1df60,%eax
    228e:	68 f0 7f 01 00       	push   $0x17ff0
    2293:	50                   	push   %eax
    2294:	e8 97 90 01 00       	call   1b330 <fprintf@plt>
    2299:	a0 84 df 01 00       	mov    0x1df84,%al
    229e:	83 c4 10             	add    $0x10,%esp
    22a1:	e9 80 fb ff ff       	jmp    1e26 <test_print4+0x16>
    22a6:	66 90                	xchg   %ax,%ax
    22a8:	66 90                	xchg   %ax,%ax
    22aa:	66 90                	xchg   %ax,%ax
    22ac:	66 90                	xchg   %ax,%ax
    22ae:	66 90                	xchg   %ax,%ax

000022b0 <test_print5>:
    22b0:	80 3d 84 df 01 00 00 	cmpb   $0x0,0x1df84
    22b7:	74 07                	je     22c0 <test_print5+0x10>
    22b9:	31 c0                	xor    %eax,%eax
    22bb:	c3                   	ret    
    22bc:	8d 74 26 00          	lea    0x0(%esi,%eiz,1),%esi
    22c0:	55                   	push   %ebp
    22c1:	89 e5                	mov    %esp,%ebp
    22c3:	83 ec 10             	sub    $0x10,%esp
    22c6:	8b 0d 60 df 01 00    	mov    0x1df60,%ecx
    22cc:	68 e8 87 01 00       	push   $0x187e8
    22d1:	51                   	push   %ecx
    22d2:	e8 59 90 01 00       	call   1b330 <fprintf@plt>
    22d7:	83 c4 10             	add    $0x10,%esp
    22da:	80 3d 84 df 01 00 00 	cmpb   $0x0,0x1df84
    22e1:	75 71                	jne    2354 <test_print5+0xa4>
    22e3:	8b 15 60 df 01 00    	mov    0x1df60,%edx
    22e9:	50                   	push   %eax
    22ea:	50                   	push   %eax
    22eb:	68 06 88 01 00       	push   $0x18806
    22f0:	52                   	push   %edx
    22f1:	e8 3a 90 01 00       	call   1b330 <fprintf@plt>
    22f6:	83 c4 10             	add    $0x10,%esp
    22f9:	80 3d 84 df 01 00 00 	cmpb   $0x0,0x1df84
    2300:	75 7a                	jne    237c <test_print5+0xcc>
    2302:	50                   	push   %eax
    2303:	a1 60 df 01 00       	mov    0x1df60,%eax
    2308:	6a 00                	push   $0x0
    230a:	68 21 88 01 00       	push   $0x18821
    230f:	50                   	push   %eax
    2310:	e8 1b 90 01 00       	call   1b330 <fprintf@plt>
    2315:	83 c4 10             	add    $0x10,%esp
    2318:	80 3d 84 df 01 00 00 	cmpb   $0x0,0x1df84
    231f:	75 5b                	jne    237c <test_print5+0xcc>
    2321:	50                   	push   %eax
    2322:	50                   	push   %eax
    2323:	a1 60 df 01 00       	mov    0x1df60,%eax
    2328:	68 3c 88 01 00       	push   $0x1883c
    232d:	50                   	push   %eax
    232e:	e8 fd 8f 01 00       	call   1b330 <fprintf@plt>
    2333:	83 c4 10             	add    $0x10,%esp
    2336:	80 3d 84 df 01 00 00 	cmpb   $0x0,0x1df84
    233d:	75 3d                	jne    237c <test_print5+0xcc>
    233f:	a1 60 df 01 00       	mov    0x1df60,%eax
    2344:	51                   	push   %ecx
    2345:	51                   	push   %ecx
    2346:	68 8c 88 01 00       	push   $0x1888c
    234b:	50                   	push   %eax
    234c:	e8 df 8f 01 00       	call   1b330 <fprintf@plt>
    2351:	83 c4 10             	add    $0x10,%esp
    2354:	80 3d 84 df 01 00 00 	cmpb   $0x0,0x1df84
    235b:	75 1f                	jne    237c <test_print5+0xcc>
    235d:	8b 15 60 df 01 00    	mov    0x1df60,%edx
    2363:	50                   	push   %eax
    2364:	6a 65                	push   $0x65
    2366:	6a 64                	push   $0x64
    2368:	6a 63                	push   $0x63
    236a:	6a 62                	push   $0x62
    236c:	6a 61                	push   $0x61
    236e:	68 b8 88 01 00       	push   $0x188b8
    2373:	52                   	push   %edx
    2374:	e8 b7 8f 01 00       	call   1b330 <fprintf@plt>
    2379:	83 c4 20             	add    $0x20,%esp
    237c:	31 c0                	xor    %eax,%eax
    237e:	c9                   	leave  
    237f:	c3                   	ret    

00002380 <test_print6>:
    2380:	55                   	push   %ebp
    2381:	ba 01 01 00 00       	mov    $0x101,%edx
    2386:	89 e5                	mov    %esp,%ebp
    2388:	57                   	push   %edi
    2389:	56                   	push   %esi
    238a:	53                   	push   %ebx
    238b:	81 ec 3c 06 00 00    	sub    $0x63c,%esp
    2391:	c7 85 dc fa ff ff 84 	movl   $0x18984,-0x524(%ebp)
    2398:	89 01 00 
    239b:	d9 05 38 8d 01 00    	flds   0x18d38
    23a1:	c7 85 e0 fa ff ff 42 	movl   $0x18b42,-0x520(%ebp)
    23a8:	8b 01 00 
    23ab:	c7 85 e4 fa ff ff 00 	movl   $0x0,-0x51c(%ebp)
    23b2:	00 00 00 
    23b5:	dd 9d d4 fa ff ff    	fstpl  -0x52c(%ebp)
    23bb:	d9 ee                	fldz   
    23bd:	c7 85 f0 fa ff ff 84 	movl   $0x18984,-0x510(%ebp)
    23c4:	89 01 00 
    23c7:	c7 85 f4 fa ff ff 3a 	movl   $0x18c3a,-0x50c(%ebp)
    23ce:	8c 01 00 
    23d1:	dd 9d e8 fa ff ff    	fstpl  -0x518(%ebp)
    23d7:	dd 05 50 8d 01 00    	fldl   0x18d50
    23dd:	c7 85 f8 fa ff ff 00 	movl   $0x0,-0x508(%ebp)
    23e4:	00 00 00 
    23e7:	c7 85 04 fb ff ff 84 	movl   $0x18984,-0x4fc(%ebp)
    23ee:	89 01 00 
    23f1:	dd 95 fc fa ff ff    	fstl   -0x504(%ebp)
    23f7:	c7 85 08 fb ff ff 87 	movl   $0x18987,-0x4f8(%ebp)
    23fe:	89 01 00 
    2401:	c7 85 0c fb ff ff 00 	movl   $0x0,-0x4f4(%ebp)
    2408:	00 00 00 
    240b:	c7 85 10 fb ff ff bd 	movl   $0xcde2a7bd,-0x4f0(%ebp)
    2412:	a7 e2 cd 
    2415:	c7 85 14 fb ff ff 1a 	movl   $0x4c61ec1a,-0x4ec(%ebp)
    241c:	ec 61 4c 
    241f:	c7 85 18 fb ff ff 84 	movl   $0x18984,-0x4e8(%ebp)
    2426:	89 01 00 
    2429:	c7 85 1c fb ff ff 8b 	movl   $0x1898b,-0x4e4(%ebp)
    2430:	89 01 00 
    2433:	c7 85 20 fb ff ff 00 	movl   $0x0,-0x4e0(%ebp)
    243a:	00 00 00 
    243d:	c7 85 24 fb ff ff d3 	movl   $0x480164d3,-0x4dc(%ebp)
    2444:	64 01 48 
    2447:	c7 85 28 fb ff ff fb 	movl   $0xb3e213fb,-0x4d8(%ebp)
    244e:	13 e2 b3 
    2451:	c7 85 2c fb ff ff 84 	movl   $0x18984,-0x4d4(%ebp)
    2458:	89 01 00 
    245b:	c7 85 30 fb ff ff 91 	movl   $0x18991,-0x4d0(%ebp)
    2462:	89 01 00 
    2465:	c7 85 34 fb ff ff 00 	movl   $0x0,-0x4cc(%ebp)
    246c:	00 00 00 
    246f:	c7 85 38 fb ff ff 33 	movl   $0x3cac7433,-0x4c8(%ebp)
    2476:	74 ac 3c 
    2479:	c7 85 3c fb ff ff 1f 	movl   $0x7fac7b1f,-0x4c4(%ebp)
    2480:	7b ac 7f 
    2483:	c7 85 40 fb ff ff 84 	movl   $0x18984,-0x4c0(%ebp)
    248a:	89 01 00 
    248d:	c7 85 44 fb ff ff 98 	movl   $0x18998,-0x4bc(%ebp)
    2494:	89 01 00 
    2497:	dd 05 58 8d 01 00    	fldl   0x18d58
    249d:	c7 85 48 fb ff ff 00 	movl   $0x0,-0x4b8(%ebp)
    24a4:	00 00 00 
    24a7:	c7 85 54 fb ff ff 84 	movl   $0x18984,-0x4ac(%ebp)
    24ae:	89 01 00 
    24b1:	dd 95 4c fb ff ff    	fstl   -0x4b4(%ebp)
    24b7:	d9 c9                	fxch   %st(1)
    24b9:	c7 85 58 fb ff ff 9f 	movl   $0x1899f,-0x4a8(%ebp)
    24c0:	89 01 00 
    24c3:	c7 85 5c fb ff ff 00 	movl   $0x0,-0x4a4(%ebp)
    24ca:	00 00 00 
    24cd:	dd 95 60 fb ff ff    	fstl   -0x4a0(%ebp)
    24d3:	dd 05 60 8d 01 00    	fldl   0x18d60
    24d9:	d8 c8                	fmul   %st(0),%st
    24db:	c7 85 68 fb ff ff 84 	movl   $0x18984,-0x498(%ebp)
    24e2:	89 01 00 
    24e5:	c7 85 6c fb ff ff 87 	movl   $0x18987,-0x494(%ebp)
    24ec:	89 01 00 
    24ef:	c7 85 70 fb ff ff 00 	movl   $0x0,-0x490(%ebp)
    24f6:	00 00 00 
    24f9:	c7 85 74 fb ff ff d7 	movl   $0x6ac1d7,-0x48c(%ebp)
    2500:	c1 6a 00 
    2503:	c7 85 78 fb ff ff 00 	movl   $0x0,-0x488(%ebp)
    250a:	00 00 00 
    250d:	c7 85 7c fb ff ff 84 	movl   $0x18984,-0x484(%ebp)
    2514:	89 01 00 
    2517:	c7 85 80 fb ff ff b5 	movl   $0x189b5,-0x480(%ebp)
    251e:	89 01 00 
    2521:	dd 95 c4 fb ff ff    	fstl   -0x43c(%ebp)
    2527:	d9 c0                	fld    %st(0)
    2529:	c7 85 84 fb ff ff c1 	movl   $0x189c1,-0x47c(%ebp)
    2530:	89 01 00 
    2533:	c7 85 88 fb ff ff fc 	movl   $0xaacfc,-0x478(%ebp)
    253a:	ac 0a 00 
    253d:	c7 85 8c fb ff ff 00 	movl   $0x0,-0x474(%ebp)
    2544:	00 00 00 
    2547:	c7 85 90 fb ff ff 84 	movl   $0x18984,-0x470(%ebp)
    254e:	89 01 00 
    2551:	c7 85 94 fb ff ff cf 	movl   $0x189cf,-0x46c(%ebp)
    2558:	89 01 00 
    255b:	c7 85 98 fb ff ff 00 	movl   $0x0,-0x468(%ebp)
    2562:	00 00 00 
    2565:	c7 85 9c fb ff ff 40 	movl   $0x8377de40,-0x464(%ebp)
    256c:	de 77 83 
    256f:	c7 85 a0 fb ff ff 21 	movl   $0x42dc1221,-0x460(%ebp)
    2576:	12 dc 42 
    2579:	c7 85 a4 fb ff ff 84 	movl   $0x18984,-0x45c(%ebp)
    2580:	89 01 00 
    2583:	c7 85 a8 fb ff ff dc 	movl   $0x189dc,-0x458(%ebp)
    258a:	89 01 00 
    258d:	c7 85 ac fb ff ff 00 	movl   $0x0,-0x454(%ebp)
    2594:	00 00 00 
    2597:	c7 85 b0 fb ff ff 40 	movl   $0x8377de40,-0x450(%ebp)
    259e:	de 77 83 
    25a1:	c7 85 b4 fb ff ff 21 	movl   $0xc2dc1221,-0x44c(%ebp)
    25a8:	12 dc c2 
    25ab:	c7 85 b8 fb ff ff 84 	movl   $0x18984,-0x448(%ebp)
    25b2:	89 01 00 
    25b5:	c7 85 bc fb ff ff db 	movl   $0x189db,-0x444(%ebp)
    25bc:	89 01 00 
    25bf:	c7 85 c0 fb ff ff 00 	movl   $0x0,-0x440(%ebp)
    25c6:	00 00 00 
    25c9:	c7 85 cc fb ff ff 84 	movl   $0x18984,-0x434(%ebp)
    25d0:	89 01 00 
    25d3:	c7 85 d0 fb ff ff bc 	movl   $0x18bbc,-0x430(%ebp)
    25da:	8b 01 00 
    25dd:	d8 3d 3c 8d 01 00    	fdivrs 0x18d3c
    25e3:	c7 85 d4 fb ff ff 00 	movl   $0x0,-0x42c(%ebp)
    25ea:	00 00 00 
    25ed:	c7 85 e0 fb ff ff 84 	movl   $0x18984,-0x420(%ebp)
    25f4:	89 01 00 
    25f7:	c7 85 e4 fb ff ff 39 	movl   $0x18c39,-0x41c(%ebp)
    25fe:	8c 01 00 
    2601:	c7 85 e8 fb ff ff 00 	movl   $0x0,-0x418(%ebp)
    2608:	00 00 00 
    260b:	c7 85 ec fb ff ff f6 	movl   $0xe3dd97f6,-0x414(%ebp)
    2612:	97 dd e3 
    2615:	c7 85 f0 fb ff ff 87 	movl   $0x4132d687,-0x410(%ebp)
    261c:	d6 32 41 
    261f:	c7 85 f4 fb ff ff 84 	movl   $0x18984,-0x40c(%ebp)
    2626:	89 01 00 
    2629:	c7 85 f8 fb ff ff ec 	movl   $0x189ec,-0x408(%ebp)
    2630:	89 01 00 
    2633:	c7 85 fc fb ff ff 00 	movl   $0x0,-0x404(%ebp)
    263a:	00 00 00 
    263d:	c7 85 00 fc ff ff 11 	movl   $0xccd4aa11,-0x400(%ebp)
    2644:	aa d4 cc 
    2647:	c7 85 04 fc ff ff 87 	movl   $0x4132d687,-0x3fc(%ebp)
    264e:	d6 32 41 
    2651:	c7 85 08 fc ff ff 84 	movl   $0x18984,-0x3f8(%ebp)
    2658:	89 01 00 
    265b:	c7 85 0c fc ff ff f9 	movl   $0x189f9,-0x3f4(%ebp)
    2662:	89 01 00 
    2665:	c7 85 10 fc ff ff 00 	movl   $0x0,-0x3f0(%ebp)
    266c:	00 00 00 
    266f:	c7 85 14 fc ff ff 4c 	movl   $0x5af3924c,-0x3ec(%ebp)
    2676:	92 f3 5a 
    2679:	c7 85 18 fc ff ff 5f 	movl   $0x39b6b75f,-0x3e8(%ebp)
    2680:	b7 b6 39 
    2683:	c7 85 1c fc ff ff 84 	movl   $0x18984,-0x3e4(%ebp)
    268a:	89 01 00 
    268d:	c7 85 20 fc ff ff 07 	movl   $0x18a07,-0x3e0(%ebp)
    2694:	8a 01 00 
    2697:	c7 85 24 fc ff ff 00 	movl   $0x0,-0x3dc(%ebp)
    269e:	00 00 00 
    26a1:	c7 85 28 fc ff ff c6 	movl   $0xec5433c6,-0x3d8(%ebp)
    26a8:	33 54 ec 
    26ab:	c7 85 2c fc ff ff a5 	movl   $0x497c06a5,-0x3d4(%ebp)
    26b2:	06 7c 49 
    26b5:	c7 85 30 fc ff ff 84 	movl   $0x18984,-0x3d0(%ebp)
    26bc:	89 01 00 
    26bf:	c7 85 34 fc ff ff 10 	movl   $0x18a10,-0x3cc(%ebp)
    26c6:	8a 01 00 
    26c9:	c7 85 38 fc ff ff 00 	movl   $0x0,-0x3c8(%ebp)
    26d0:	00 00 00 
    26d3:	c7 85 3c fc ff ff 7b 	movl   $0x47ae147b,-0x3c4(%ebp)
    26da:	14 ae 47 
    26dd:	c7 85 40 fc ff ff e1 	movl   $0x3f847ae1,-0x3c0(%ebp)
    26e4:	7a 84 3f 
    26e7:	c7 85 44 fc ff ff 16 	movl   $0x18a16,-0x3bc(%ebp)
    26ee:	8a 01 00 
    26f1:	c7 85 48 fc ff ff 1d 	movl   $0x18a1d,-0x3b8(%ebp)
    26f8:	8a 01 00 
    26fb:	c7 85 4c fc ff ff 00 	movl   $0x0,-0x3b4(%ebp)
    2702:	00 00 00 
    2705:	8d b5 d3 f9 ff ff    	lea    -0x62d(%ebp),%esi
    270b:	89 f7                	mov    %esi,%edi
    270d:	f7 c6 01 00 00 00    	test   $0x1,%esi
    2713:	dd 95 d8 fb ff ff    	fstl   -0x428(%ebp)
    2719:	c7 85 50 fc ff ff 3d 	movl   $0xa3d70a3d,-0x3b0(%ebp)
    2720:	0a d7 a3 
    2723:	c7 85 54 fc ff ff 70 	movl   $0x4022fd70,-0x3ac(%ebp)
    272a:	fd 22 40 
    272d:	dd 05 68 8d 01 00    	fldl   0x18d68
    2733:	c7 85 58 fc ff ff 28 	movl   $0x18a28,-0x3a8(%ebp)
    273a:	8a 01 00 
    273d:	c7 85 5c fc ff ff 2f 	movl   $0x18a2f,-0x3a4(%ebp)
    2744:	8a 01 00 
    2747:	dd 95 64 fc ff ff    	fstl   -0x39c(%ebp)
    274d:	c7 85 60 fc ff ff 00 	movl   $0x0,-0x3a0(%ebp)
    2754:	00 00 00 
    2757:	c7 85 6c fc ff ff 28 	movl   $0x18a28,-0x394(%ebp)
    275e:	8a 01 00 
    2761:	dd 95 78 fc ff ff    	fstl   -0x388(%ebp)
    2767:	c7 85 70 fc ff ff 3a 	movl   $0x18a3a,-0x390(%ebp)
    276e:	8a 01 00 
    2771:	c7 85 74 fc ff ff 00 	movl   $0x0,-0x38c(%ebp)
    2778:	00 00 00 
    277b:	dd 9d 8c fc ff ff    	fstpl  -0x374(%ebp)
    2781:	d9 05 40 8d 01 00    	flds   0x18d40
    2787:	c7 85 80 fc ff ff 45 	movl   $0x18a45,-0x380(%ebp)
    278e:	8a 01 00 
    2791:	c7 85 84 fc ff ff 4a 	movl   $0x18a4a,-0x37c(%ebp)
    2798:	8a 01 00 
    279b:	dd 9d a0 fc ff ff    	fstpl  -0x360(%ebp)
    27a1:	d9 ca                	fxch   %st(2)
    27a3:	c7 85 88 fc ff ff 00 	movl   $0x0,-0x378(%ebp)
    27aa:	00 00 00 
    27ad:	c7 85 94 fc ff ff 16 	movl   $0x18a16,-0x36c(%ebp)
    27b4:	8a 01 00 
    27b7:	dd 95 b4 fc ff ff    	fstl   -0x34c(%ebp)
    27bd:	c7 85 98 fc ff ff 4a 	movl   $0x18a4a,-0x368(%ebp)
    27c4:	8a 01 00 
    27c7:	c7 85 9c fc ff ff 00 	movl   $0x0,-0x364(%ebp)
    27ce:	00 00 00 
    27d1:	dd 95 c8 fc ff ff    	fstl   -0x338(%ebp)
    27d7:	c7 85 a8 fc ff ff 55 	movl   $0x18a55,-0x358(%ebp)
    27de:	8a 01 00 
    27e1:	c7 85 ac fc ff ff 58 	movl   $0x18a58,-0x354(%ebp)
    27e8:	8a 01 00 
    27eb:	dd 95 dc fc ff ff    	fstl   -0x324(%ebp)
    27f1:	c7 85 b0 fc ff ff 00 	movl   $0x0,-0x350(%ebp)
    27f8:	00 00 00 
    27fb:	c7 85 bc fc ff ff 65 	movl   $0x18a65,-0x344(%ebp)
    2802:	8a 01 00 
    2805:	c7 85 c0 fc ff ff 6e 	movl   $0x18a6e,-0x340(%ebp)
    280c:	8a 01 00 
    280f:	c7 85 c4 fc ff ff 00 	movl   $0x0,-0x33c(%ebp)
    2816:	00 00 00 
    2819:	c7 85 d0 fc ff ff 79 	movl   $0x18a79,-0x330(%ebp)
    2820:	8a 01 00 
    2823:	c7 85 d4 fc ff ff 6e 	movl   $0x18a6e,-0x32c(%ebp)
    282a:	8a 01 00 
    282d:	c7 85 d8 fc ff ff 00 	movl   $0x0,-0x328(%ebp)
    2834:	00 00 00 
    2837:	c7 85 e4 fc ff ff 81 	movl   $0x18a81,-0x31c(%ebp)
    283e:	8a 01 00 
    2841:	c7 85 e8 fc ff ff 6e 	movl   $0x18a6e,-0x318(%ebp)
    2848:	8a 01 00 
    284b:	c7 85 ec fc ff ff 00 	movl   $0x0,-0x314(%ebp)
    2852:	00 00 00 
    2855:	dd 95 f0 fc ff ff    	fstl   -0x310(%ebp)
    285b:	c7 85 f8 fc ff ff 8a 	movl   $0x18a8a,-0x308(%ebp)
    2862:	8a 01 00 
    2865:	c7 85 fc fc ff ff 93 	movl   $0x18a93,-0x304(%ebp)
    286c:	8a 01 00 
    286f:	dd 95 04 fd ff ff    	fstl   -0x2fc(%ebp)
    2875:	c7 85 00 fd ff ff 00 	movl   $0x0,-0x300(%ebp)
    287c:	00 00 00 
    287f:	c7 85 0c fd ff ff 9e 	movl   $0x18a9e,-0x2f4(%ebp)
    2886:	8a 01 00 
    2889:	dd 95 18 fd ff ff    	fstl   -0x2e8(%ebp)
    288f:	c7 85 10 fd ff ff a6 	movl   $0x18aa6,-0x2f0(%ebp)
    2896:	8a 01 00 
    2899:	c7 85 14 fd ff ff 00 	movl   $0x0,-0x2ec(%ebp)
    28a0:	00 00 00 
    28a3:	dd 95 2c fd ff ff    	fstl   -0x2d4(%ebp)
    28a9:	c7 85 20 fd ff ff b1 	movl   $0x18ab1,-0x2e0(%ebp)
    28b0:	8a 01 00 
    28b3:	c7 85 24 fd ff ff ba 	movl   $0x18aba,-0x2dc(%ebp)
    28ba:	8a 01 00 
    28bd:	dd 95 40 fd ff ff    	fstl   -0x2c0(%ebp)
    28c3:	c7 85 28 fd ff ff 00 	movl   $0x0,-0x2d8(%ebp)
    28ca:	00 00 00 
    28cd:	c7 85 34 fd ff ff c5 	movl   $0x18ac5,-0x2cc(%ebp)
    28d4:	8a 01 00 
    28d7:	dd 95 54 fd ff ff    	fstl   -0x2ac(%ebp)
    28dd:	c7 85 38 fd ff ff ce 	movl   $0x18ace,-0x2c8(%ebp)
    28e4:	8a 01 00 
    28e7:	c7 85 3c fd ff ff 00 	movl   $0x0,-0x2c4(%ebp)
    28ee:	00 00 00 
    28f1:	dd 95 68 fd ff ff    	fstl   -0x298(%ebp)
    28f7:	dd 05 70 8d 01 00    	fldl   0x18d70
    28fd:	c7 85 48 fd ff ff d9 	movl   $0x18ad9,-0x2b8(%ebp)
    2904:	8a 01 00 
    2907:	c7 85 4c fd ff ff e1 	movl   $0x18ae1,-0x2b4(%ebp)
    290e:	8a 01 00 
    2911:	dd 95 7c fd ff ff    	fstl   -0x284(%ebp)
    2917:	c7 85 50 fd ff ff 00 	movl   $0x0,-0x2b0(%ebp)
    291e:	00 00 00 
    2921:	c7 85 5c fd ff ff ec 	movl   $0x18aec,-0x2a4(%ebp)
    2928:	8a 01 00 
    292b:	c7 85 60 fd ff ff f4 	movl   $0x18af4,-0x2a0(%ebp)
    2932:	8a 01 00 
    2935:	c7 85 64 fd ff ff 00 	movl   $0x0,-0x29c(%ebp)
    293c:	00 00 00 
    293f:	c7 85 70 fd ff ff ff 	movl   $0x18aff,-0x290(%ebp)
    2946:	8a 01 00 
    2949:	c7 85 74 fd ff ff f4 	movl   $0x18af4,-0x28c(%ebp)
    2950:	8a 01 00 
    2953:	c7 85 78 fd ff ff 00 	movl   $0x0,-0x288(%ebp)
    295a:	00 00 00 
    295d:	c7 85 84 fd ff ff 65 	movl   $0x18a65,-0x27c(%ebp)
    2964:	8a 01 00 
    2967:	c7 85 88 fd ff ff 06 	movl   $0x18b06,-0x278(%ebp)
    296e:	8b 01 00 
    2971:	c7 85 8c fd ff ff 00 	movl   $0x0,-0x274(%ebp)
    2978:	00 00 00 
    297b:	dd 95 90 fd ff ff    	fstl   -0x270(%ebp)
    2981:	c7 85 98 fd ff ff 79 	movl   $0x18a79,-0x268(%ebp)
    2988:	8a 01 00 
    298b:	c7 85 9c fd ff ff 06 	movl   $0x18b06,-0x264(%ebp)
    2992:	8b 01 00 
    2995:	dd 9d a4 fd ff ff    	fstpl  -0x25c(%ebp)
    299b:	d9 05 44 8d 01 00    	flds   0x18d44
    29a1:	c7 85 a0 fd ff ff 00 	movl   $0x0,-0x260(%ebp)
    29a8:	00 00 00 
    29ab:	c7 85 ac fd ff ff 11 	movl   $0x18b11,-0x254(%ebp)
    29b2:	8b 01 00 
    29b5:	dd 9d cc fd ff ff    	fstpl  -0x234(%ebp)
    29bb:	d9 05 48 8d 01 00    	flds   0x18d48
    29c1:	c7 85 b0 fd ff ff 1a 	movl   $0x18b1a,-0x250(%ebp)
    29c8:	8b 01 00 
    29cb:	c7 85 b4 fd ff ff 00 	movl   $0x0,-0x24c(%ebp)
    29d2:	00 00 00 
    29d5:	dd 9d e0 fd ff ff    	fstpl  -0x220(%ebp)
    29db:	dd 05 78 8d 01 00    	fldl   0x18d78
    29e1:	c7 85 b8 fd ff ff e6 	movl   $0x8b1bbde6,-0x248(%ebp)
    29e8:	bd 1b 8b 
    29eb:	c7 85 bc fd ff ff 51 	movl   $0x45f5e951,-0x244(%ebp)
    29f2:	e9 f5 45 
    29f5:	dd 95 f4 fd ff ff    	fstl   -0x20c(%ebp)
    29fb:	c7 85 c0 fd ff ff 26 	movl   $0x18b26,-0x240(%ebp)
    2a02:	8b 01 00 
    2a05:	c7 85 c4 fd ff ff 2d 	movl   $0x18b2d,-0x23c(%ebp)
    2a0c:	8b 01 00 
    2a0f:	dd 95 08 fe ff ff    	fstl   -0x1f8(%ebp)
    2a15:	c7 85 c8 fd ff ff 00 	movl   $0x0,-0x238(%ebp)
    2a1c:	00 00 00 
    2a1f:	c7 85 d4 fd ff ff 9e 	movl   $0x18a9e,-0x22c(%ebp)
    2a26:	8a 01 00 
    2a29:	c7 85 d8 fd ff ff 39 	movl   $0x18b39,-0x228(%ebp)
    2a30:	8b 01 00 
    2a33:	c7 85 dc fd ff ff 00 	movl   $0x0,-0x224(%ebp)
    2a3a:	00 00 00 
    2a3d:	c7 85 e8 fd ff ff 9e 	movl   $0x18a9e,-0x218(%ebp)
    2a44:	8a 01 00 
    2a47:	c7 85 ec fd ff ff 44 	movl   $0x18b44,-0x214(%ebp)
    2a4e:	8b 01 00 
    2a51:	c7 85 f0 fd ff ff 00 	movl   $0x0,-0x210(%ebp)
    2a58:	00 00 00 
    2a5b:	c7 85 fc fd ff ff ff 	movl   $0x18aff,-0x204(%ebp)
    2a62:	8a 01 00 
    2a65:	c7 85 00 fe ff ff 4f 	movl   $0x18b4f,-0x200(%ebp)
    2a6c:	8b 01 00 
    2a6f:	c7 85 04 fe ff ff 00 	movl   $0x0,-0x1fc(%ebp)
    2a76:	00 00 00 
    2a79:	c7 85 10 fe ff ff 5a 	movl   $0x18b5a,-0x1f0(%ebp)
    2a80:	8b 01 00 
    2a83:	c7 85 14 fe ff ff 61 	movl   $0x18b61,-0x1ec(%ebp)
    2a8a:	8b 01 00 
    2a8d:	c7 85 18 fe ff ff 00 	movl   $0x0,-0x1e8(%ebp)
    2a94:	00 00 00 
    2a97:	c7 85 24 fe ff ff 6c 	movl   $0x18b6c,-0x1dc(%ebp)
    2a9e:	8b 01 00 
    2aa1:	dd 9d 1c fe ff ff    	fstpl  -0x1e4(%ebp)
    2aa7:	d9 c9                	fxch   %st(1)
    2aa9:	c7 85 28 fe ff ff 74 	movl   $0x18b74,-0x1d8(%ebp)
    2ab0:	8b 01 00 
    2ab3:	c7 85 2c fe ff ff 00 	movl   $0x0,-0x1d4(%ebp)
    2aba:	00 00 00 
    2abd:	dd 95 58 fe ff ff    	fstl   -0x1a8(%ebp)
    2ac3:	d9 ca                	fxch   %st(2)
    2ac5:	c7 85 30 fe ff ff 25 	movl   $0xea289b25,-0x1d0(%ebp)
    2acc:	9b 28 ea 
    2acf:	c7 85 34 fe ff ff f3 	movl   $0xefe971f3,-0x1cc(%ebp)
    2ad6:	71 e9 ef 
    2ad9:	dd 95 6c fe ff ff    	fstl   -0x194(%ebp)
    2adf:	d9 ca                	fxch   %st(2)
    2ae1:	c7 85 38 fe ff ff 7f 	movl   $0x18b7f,-0x1c8(%ebp)
    2ae8:	8b 01 00 
    2aeb:	c7 85 3c fe ff ff 88 	movl   $0x18b88,-0x1c4(%ebp)
    2af2:	8b 01 00 
    2af5:	dd 9d 80 fe ff ff    	fstpl  -0x180(%ebp)
    2afb:	d9 c9                	fxch   %st(1)
    2afd:	c7 85 40 fe ff ff 00 	movl   $0x0,-0x1c0(%ebp)
    2b04:	00 00 00 
    2b07:	c7 85 44 fe ff ff 10 	movl   $0xea858f10,-0x1bc(%ebp)
    2b0e:	8f 85 ea 
    2b11:	dd 9d 94 fe ff ff    	fstpl  -0x16c(%ebp)
    2b17:	c7 85 48 fe ff ff f3 	movl   $0xefe971f3,-0x1b8(%ebp)
    2b1e:	71 e9 ef 
    2b21:	c7 85 4c fe ff ff 7f 	movl   $0x18b7f,-0x1b4(%ebp)
    2b28:	8b 01 00 
    2b2b:	dd 95 a8 fe ff ff    	fstl   -0x158(%ebp)
    2b31:	c7 85 50 fe ff ff 9b 	movl   $0x18b9b,-0x1b0(%ebp)
    2b38:	8b 01 00 
    2b3b:	c7 85 54 fe ff ff 00 	movl   $0x0,-0x1ac(%ebp)
    2b42:	00 00 00 
    2b45:	c7 85 60 fe ff ff ae 	movl   $0x18bae,-0x1a0(%ebp)
    2b4c:	8b 01 00 
    2b4f:	c7 85 64 fe ff ff b5 	movl   $0x18bb5,-0x19c(%ebp)
    2b56:	8b 01 00 
    2b59:	c7 85 68 fe ff ff 00 	movl   $0x0,-0x198(%ebp)
    2b60:	00 00 00 
    2b63:	c7 85 74 fe ff ff ff 	movl   $0x18aff,-0x18c(%ebp)
    2b6a:	8a 01 00 
    2b6d:	c7 85 78 fe ff ff c0 	movl   $0x18bc0,-0x188(%ebp)
    2b74:	8b 01 00 
    2b77:	c7 85 7c fe ff ff 00 	movl   $0x0,-0x184(%ebp)
    2b7e:	00 00 00 
    2b81:	c7 85 88 fe ff ff cb 	movl   $0x18bcb,-0x178(%ebp)
    2b88:	8b 01 00 
    2b8b:	c7 85 8c fe ff ff d2 	movl   $0x18bd2,-0x174(%ebp)
    2b92:	8b 01 00 
    2b95:	c7 85 90 fe ff ff 00 	movl   $0x0,-0x170(%ebp)
    2b9c:	00 00 00 
    2b9f:	c7 85 9c fe ff ff dd 	movl   $0x18bdd,-0x164(%ebp)
    2ba6:	8b 01 00 
    2ba9:	c7 85 a0 fe ff ff e4 	movl   $0x18be4,-0x160(%ebp)
    2bb0:	8b 01 00 
    2bb3:	c7 85 a4 fe ff ff 00 	movl   $0x0,-0x15c(%ebp)
    2bba:	00 00 00 
    2bbd:	c7 85 b0 fe ff ff ef 	movl   $0x18bef,-0x150(%ebp)
    2bc4:	8b 01 00 
    2bc7:	c7 85 b4 fe ff ff f8 	movl   $0x18bf8,-0x14c(%ebp)
    2bce:	8b 01 00 
    2bd1:	dd 95 bc fe ff ff    	fstl   -0x144(%ebp)
    2bd7:	c7 85 b8 fe ff ff 00 	movl   $0x0,-0x148(%ebp)
    2bde:	00 00 00 
    2be1:	c7 85 c4 fe ff ff 03 	movl   $0x18c03,-0x13c(%ebp)
    2be8:	8c 01 00 
    2beb:	dd 95 d0 fe ff ff    	fstl   -0x130(%ebp)
    2bf1:	c7 85 c8 fe ff ff 0d 	movl   $0x18c0d,-0x138(%ebp)
    2bf8:	8c 01 00 
    2bfb:	c7 85 cc fe ff ff 00 	movl   $0x0,-0x134(%ebp)
    2c02:	00 00 00 
    2c05:	dd 95 e4 fe ff ff    	fstl   -0x11c(%ebp)
    2c0b:	d9 ee                	fldz   
    2c0d:	d9 e0                	fchs   
    2c0f:	c7 85 d8 fe ff ff ef 	movl   $0x18bef,-0x128(%ebp)
    2c16:	8b 01 00 
    2c19:	c7 85 dc fe ff ff f8 	movl   $0x18bf8,-0x124(%ebp)
    2c20:	8b 01 00 
    2c23:	dd 9d f8 fe ff ff    	fstpl  -0x108(%ebp)
    2c29:	c7 85 e0 fe ff ff 00 	movl   $0x0,-0x120(%ebp)
    2c30:	00 00 00 
    2c33:	c7 85 ec fe ff ff 18 	movl   $0x18c18,-0x114(%ebp)
    2c3a:	8c 01 00 
    2c3d:	c7 85 f0 fe ff ff 1f 	movl   $0x18c1f,-0x110(%ebp)
    2c44:	8c 01 00 
    2c47:	c7 85 f4 fe ff ff 00 	movl   $0x0,-0x10c(%ebp)
    2c4e:	00 00 00 
    2c51:	c7 85 00 ff ff ff 2a 	movl   $0x18c2a,-0x100(%ebp)
    2c58:	8c 01 00 
    2c5b:	c7 85 04 ff ff ff 31 	movl   $0x18c31,-0xfc(%ebp)
    2c62:	8c 01 00 
    2c65:	c7 85 08 ff ff ff 00 	movl   $0x0,-0xf8(%ebp)
    2c6c:	00 00 00 
    2c6f:	c7 85 0c ff ff ff f2 	movl   $0x624dd2f2,-0xf4(%ebp)
    2c76:	d2 4d 62 
    2c79:	c7 85 10 ff ff ff 10 	movl   $0xbfb95810,-0xf0(%ebp)
    2c80:	58 b9 bf 
    2c83:	c7 85 14 ff ff ff 3c 	movl   $0x18c3c,-0xec(%ebp)
    2c8a:	8c 01 00 
    2c8d:	c7 85 18 ff ff ff 44 	movl   $0x18c44,-0xe8(%ebp)
    2c94:	8c 01 00 
    2c97:	c7 85 1c ff ff ff 00 	movl   $0x0,-0xe4(%ebp)
    2c9e:	00 00 00 
    2ca1:	c7 85 20 ff ff ff 46 	movl   $0xfdf3b646,-0xe0(%ebp)
    2ca8:	b6 f3 fd 
    2cab:	c7 85 24 ff ff ff d4 	movl   $0xbfb978d4,-0xdc(%ebp)
    2cb2:	78 b9 bf 
    2cb5:	c7 85 28 ff ff ff 3c 	movl   $0x18c3c,-0xd8(%ebp)
    2cbc:	8c 01 00 
    2cbf:	c7 85 2c ff ff ff 4f 	movl   $0x18c4f,-0xd4(%ebp)
    2cc6:	8c 01 00 
    2cc9:	c7 85 30 ff ff ff 00 	movl   $0x0,-0xd0(%ebp)
    2cd0:	00 00 00 
    2cd3:	c7 85 34 ff ff ff 35 	movl   $0x4538ef35,-0xcc(%ebp)
    2cda:	ef 38 45 
    2cdd:	c7 85 38 ff ff ff 47 	movl   $0xbfb97247,-0xc8(%ebp)
    2ce4:	72 b9 bf 
    2ce7:	c7 85 3c ff ff ff 3c 	movl   $0x18c3c,-0xc4(%ebp)
    2cee:	8c 01 00 
    2cf1:	c7 85 40 ff ff ff 44 	movl   $0x18c44,-0xc0(%ebp)
    2cf8:	8c 01 00 
    2cfb:	c7 85 44 ff ff ff 00 	movl   $0x0,-0xbc(%ebp)
    2d02:	00 00 00 
    2d05:	c7 85 48 ff ff ff 48 	movl   $0x147ae148,-0xb8(%ebp)
    2d0c:	e1 7a 14 
    2d0f:	c7 85 4c ff ff ff ae 	movl   $0xc058ffae,-0xb4(%ebp)
    2d16:	ff 58 c0 
    2d19:	d9 05 4c 8d 01 00    	flds   0x18d4c
    2d1f:	c7 85 50 ff ff ff 5a 	movl   $0x18c5a,-0xb0(%ebp)
    2d26:	8c 01 00 
    2d29:	c7 85 54 ff ff ff 62 	movl   $0x18c62,-0xac(%ebp)
    2d30:	8c 01 00 
    2d33:	dd 95 5c ff ff ff    	fstl   -0xa4(%ebp)
    2d39:	c7 85 58 ff ff ff 00 	movl   $0x0,-0xa8(%ebp)
    2d40:	00 00 00 
    2d43:	c7 85 64 ff ff ff 6d 	movl   $0x18c6d,-0x9c(%ebp)
    2d4a:	8c 01 00 
    2d4d:	dd 9d 70 ff ff ff    	fstpl  -0x90(%ebp)
    2d53:	c7 85 68 ff ff ff 24 	movl   $0x18924,-0x98(%ebp)
    2d5a:	89 01 00 
    2d5d:	c7 85 6c ff ff ff 00 	movl   $0x0,-0x94(%ebp)
    2d64:	00 00 00 
    2d67:	dd 55 84             	fstl   -0x7c(%ebp)
    2d6a:	c7 85 78 ff ff ff 5a 	movl   $0x18c5a,-0x88(%ebp)
    2d71:	8c 01 00 
    2d74:	c7 85 7c ff ff ff 76 	movl   $0x18c76,-0x84(%ebp)
    2d7b:	8c 01 00 
    2d7e:	dd 5d 98             	fstpl  -0x68(%ebp)
    2d81:	c7 45 80 00 00 00 00 	movl   $0x0,-0x80(%ebp)
    2d88:	c7 45 8c 81 8c 01 00 	movl   $0x18c81,-0x74(%ebp)
    2d8f:	dd 55 ac             	fstl   -0x54(%ebp)
    2d92:	c7 45 90 89 8c 01 00 	movl   $0x18c89,-0x70(%ebp)
    2d99:	c7 45 94 00 00 00 00 	movl   $0x0,-0x6c(%ebp)
    2da0:	c7 45 a0 94 8c 01 00 	movl   $0x18c94,-0x60(%ebp)
    2da7:	c7 45 a4 9d 8c 01 00 	movl   $0x18c9d,-0x5c(%ebp)
    2dae:	c7 45 a8 00 00 00 00 	movl   $0x0,-0x58(%ebp)
    2db5:	c7 45 b4 94 8c 01 00 	movl   $0x18c94,-0x4c(%ebp)
    2dbc:	c7 45 b8 b5 8c 01 00 	movl   $0x18cb5,-0x48(%ebp)
    2dc3:	c7 45 bc 00 00 00 00 	movl   $0x0,-0x44(%ebp)
    2dca:	dd 5d c0             	fstpl  -0x40(%ebp)
    2dcd:	c7 45 c8 cd 8c 01 00 	movl   $0x18ccd,-0x38(%ebp)
    2dd4:	c7 45 cc 89 8c 01 00 	movl   $0x18c89,-0x34(%ebp)
    2ddb:	c7 45 d0 00 00 00 00 	movl   $0x0,-0x30(%ebp)
    2de2:	c7 45 d4 92 99 99 99 	movl   $0x99999992,-0x2c(%ebp)
    2de9:	c7 45 d8 99 99 b9 3f 	movl   $0x3fb99999,-0x28(%ebp)
    2df0:	c7 45 dc d3 8c 01 00 	movl   $0x18cd3,-0x24(%ebp)
    2df7:	c7 45 e0 db 8c 01 00 	movl   $0x18cdb,-0x20(%ebp)
    2dfe:	c7 45 e4 00 00 00 00 	movl   $0x0,-0x1c(%ebp)
    2e05:	0f 85 9f 01 00 00    	jne    2faa <test_print6+0xc2a>
    2e0b:	f7 c7 02 00 00 00    	test   $0x2,%edi
    2e11:	0f 85 79 01 00 00    	jne    2f90 <test_print6+0xc10>
    2e17:	89 d1                	mov    %edx,%ecx
    2e19:	31 c0                	xor    %eax,%eax
    2e1b:	c1 e9 02             	shr    $0x2,%ecx
    2e1e:	f3 ab                	rep stos %eax,%es:(%edi)
    2e20:	f6 c2 02             	test   $0x2,%dl
    2e23:	74 08                	je     2e2d <test_print6+0xaad>
    2e25:	66 c7 07 00 00       	movw   $0x0,(%edi)
    2e2a:	83 c7 02             	add    $0x2,%edi
    2e2d:	83 e2 01             	and    $0x1,%edx
    2e30:	74 03                	je     2e35 <test_print6+0xab5>
    2e32:	c6 07 00             	movb   $0x0,(%edi)
    2e35:	80 3d 84 df 01 00 00 	cmpb   $0x0,0x1df84
    2e3c:	0f 84 33 01 00 00    	je     2f75 <test_print6+0xbf5>
    2e42:	8d 9d d4 fa ff ff    	lea    -0x52c(%ebp),%ebx
    2e48:	c7 85 c0 f9 ff ff 00 	movl   $0x0,-0x640(%ebp)
    2e4f:	00 00 00 
    2e52:	eb 1f                	jmp    2e73 <test_print6+0xaf3>
    2e54:	8d 74 26 00          	lea    0x0(%esi,%eiz,1),%esi
    2e58:	80 3d 84 df 01 00 00 	cmpb   $0x0,0x1df84
    2e5f:	0f 84 eb 00 00 00    	je     2f50 <test_print6+0xbd0>
    2e65:	83 c3 14             	add    $0x14,%ebx
    2e68:	8d 45 e8             	lea    -0x18(%ebp),%eax
    2e6b:	39 c3                	cmp    %eax,%ebx
    2e6d:	0f 84 7d 00 00 00    	je     2ef0 <test_print6+0xb70>
    2e73:	83 ec 0c             	sub    $0xc,%esp
    2e76:	8b 53 04             	mov    0x4(%ebx),%edx
    2e79:	8b 43 08             	mov    0x8(%ebx),%eax
    2e7c:	52                   	push   %edx
    2e7d:	89 85 c4 f9 ff ff    	mov    %eax,-0x63c(%ebp)
    2e83:	8b 0b                	mov    (%ebx),%ecx
    2e85:	51                   	push   %ecx
    2e86:	50                   	push   %eax
    2e87:	68 00 01 00 00       	push   $0x100
    2e8c:	56                   	push   %esi
    2e8d:	e8 1e 82 01 00       	call   1b0b0 <snprintf@plt>
    2e92:	83 c4 18             	add    $0x18,%esp
    2e95:	8b 7b 0c             	mov    0xc(%ebx),%edi
    2e98:	57                   	push   %edi
    2e99:	56                   	push   %esi
    2e9a:	e8 51 85 01 00       	call   1b3f0 <str_cmp@plt>
    2e9f:	83 c4 10             	add    $0x10,%esp
    2ea2:	85 c0                	test   %eax,%eax
    2ea4:	74 b2                	je     2e58 <test_print6+0xad8>
    2ea6:	8b 43 10             	mov    0x10(%ebx),%eax
    2ea9:	85 c0                	test   %eax,%eax
    2eab:	74 63                	je     2f10 <test_print6+0xb90>
    2ead:	52                   	push   %edx
    2eae:	52                   	push   %edx
    2eaf:	50                   	push   %eax
    2eb0:	56                   	push   %esi
    2eb1:	e8 3a 85 01 00       	call   1b3f0 <str_cmp@plt>
    2eb6:	83 c4 10             	add    $0x10,%esp
    2eb9:	85 c0                	test   %eax,%eax
    2ebb:	75 53                	jne    2f10 <test_print6+0xb90>
    2ebd:	80 3d 84 df 01 00 00 	cmpb   $0x0,0x1df84
    2ec4:	75 9f                	jne    2e65 <test_print6+0xae5>
    2ec6:	83 ec 0c             	sub    $0xc,%esp
    2ec9:	8b 85 c4 f9 ff ff    	mov    -0x63c(%ebp),%eax
    2ecf:	83 c3 14             	add    $0x14,%ebx
    2ed2:	57                   	push   %edi
    2ed3:	56                   	push   %esi
    2ed4:	50                   	push   %eax
    2ed5:	a1 60 df 01 00       	mov    0x1df60,%eax
    2eda:	68 08 8d 01 00       	push   $0x18d08
    2edf:	50                   	push   %eax
    2ee0:	e8 4b 84 01 00       	call   1b330 <fprintf@plt>
    2ee5:	8d 45 e8             	lea    -0x18(%ebp),%eax
    2ee8:	83 c4 20             	add    $0x20,%esp
    2eeb:	39 c3                	cmp    %eax,%ebx
    2eed:	75 84                	jne    2e73 <test_print6+0xaf3>
    2eef:	90                   	nop
    2ef0:	8b 95 c0 f9 ff ff    	mov    -0x640(%ebp),%edx
    2ef6:	b8 f4 88 01 00       	mov    $0x188f4,%eax
    2efb:	85 d2                	test   %edx,%edx
    2efd:	0f 84 9d 00 00 00    	je     2fa0 <test_print6+0xc20>
    2f03:	8d 65 f4             	lea    -0xc(%ebp),%esp
    2f06:	5b                   	pop    %ebx
    2f07:	5e                   	pop    %esi
    2f08:	5f                   	pop    %edi
    2f09:	5d                   	pop    %ebp
    2f0a:	c3                   	ret    
    2f0b:	90                   	nop
    2f0c:	8d 74 26 00          	lea    0x0(%esi,%eiz,1),%esi
    2f10:	8b 85 c0 f9 ff ff    	mov    -0x640(%ebp),%eax
    2f16:	40                   	inc    %eax
    2f17:	89 85 c0 f9 ff ff    	mov    %eax,-0x640(%ebp)
    2f1d:	80 3d 84 df 01 00 00 	cmpb   $0x0,0x1df84
    2f24:	0f 85 3b ff ff ff    	jne    2e65 <test_print6+0xae5>
    2f2a:	83 ec 0c             	sub    $0xc,%esp
    2f2d:	8b 8d c4 f9 ff ff    	mov    -0x63c(%ebp),%ecx
    2f33:	57                   	push   %edi
    2f34:	8b 3d 60 df 01 00    	mov    0x1df60,%edi
    2f3a:	56                   	push   %esi
    2f3b:	51                   	push   %ecx
    2f3c:	68 1f 8d 01 00       	push   $0x18d1f
    2f41:	57                   	push   %edi
    2f42:	e8 e9 83 01 00       	call   1b330 <fprintf@plt>
    2f47:	83 c4 20             	add    $0x20,%esp
    2f4a:	e9 16 ff ff ff       	jmp    2e65 <test_print6+0xae5>
    2f4f:	90                   	nop
    2f50:	83 ec 0c             	sub    $0xc,%esp
    2f53:	8b 8d c4 f9 ff ff    	mov    -0x63c(%ebp),%ecx
    2f59:	57                   	push   %edi
    2f5a:	8b 3d 60 df 01 00    	mov    0x1df60,%edi
    2f60:	56                   	push   %esi
    2f61:	51                   	push   %ecx
    2f62:	68 f2 8c 01 00       	push   $0x18cf2
    2f67:	57                   	push   %edi
    2f68:	e8 c3 83 01 00       	call   1b330 <fprintf@plt>
    2f6d:	83 c4 20             	add    $0x20,%esp
    2f70:	e9 f0 fe ff ff       	jmp    2e65 <test_print6+0xae5>
    2f75:	8b 3d 60 df 01 00    	mov    0x1df60,%edi
    2f7b:	53                   	push   %ebx
    2f7c:	53                   	push   %ebx
    2f7d:	68 48 89 01 00       	push   $0x18948
    2f82:	57                   	push   %edi
    2f83:	e8 a8 83 01 00       	call   1b330 <fprintf@plt>
    2f88:	83 c4 10             	add    $0x10,%esp
    2f8b:	e9 b2 fe ff ff       	jmp    2e42 <test_print6+0xac2>
    2f90:	66 c7 07 00 00       	movw   $0x0,(%edi)
    2f95:	83 ea 02             	sub    $0x2,%edx
    2f98:	83 c7 02             	add    $0x2,%edi
    2f9b:	e9 77 fe ff ff       	jmp    2e17 <test_print6+0xa97>
    2fa0:	8d 65 f4             	lea    -0xc(%ebp),%esp
    2fa3:	31 c0                	xor    %eax,%eax
    2fa5:	5b                   	pop    %ebx
    2fa6:	5e                   	pop    %esi
    2fa7:	5f                   	pop    %edi
    2fa8:	5d                   	pop    %ebp
    2fa9:	c3                   	ret    
    2faa:	c6 85 d3 f9 ff ff 00 	movb   $0x0,-0x62d(%ebp)
    2fb1:	8d bd d4 f9 ff ff    	lea    -0x62c(%ebp),%edi
    2fb7:	ba 00 01 00 00       	mov    $0x100,%edx
    2fbc:	e9 4a fe ff ff       	jmp    2e0b <test_print6+0xa8b>
    2fc1:	66 90                	xchg   %ax,%ax
    2fc3:	66 90                	xchg   %ax,%ax
    2fc5:	66 90                	xchg   %ax,%ax
    2fc7:	66 90                	xchg   %ax,%ax
    2fc9:	66 90                	xchg   %ax,%ax
    2fcb:	66 90                	xchg   %ax,%ax
    2fcd:	66 90                	xchg   %ax,%ax
    2fcf:	90                   	nop

00002fd0 <test_console1>:
    2fd0:	80 3d 84 df 01 00 00 	cmpb   $0x0,0x1df84
    2fd7:	74 07                	je     2fe0 <test_console1+0x10>
    2fd9:	31 c0                	xor    %eax,%eax
    2fdb:	c3                   	ret    
    2fdc:	8d 74 26 00          	lea    0x0(%esi,%eiz,1),%esi
    2fe0:	55                   	push   %ebp
    2fe1:	89 e5                	mov    %esp,%ebp
    2fe3:	57                   	push   %edi
    2fe4:	56                   	push   %esi
    2fe5:	53                   	push   %ebx
    2fe6:	83 ec 24             	sub    $0x24,%esp
    2fe9:	a1 60 df 01 00       	mov    0x1df60,%eax
    2fee:	50                   	push   %eax
    2fef:	a1 70 df 01 00       	mov    0x1df70,%eax
    2ff4:	50                   	push   %eax
    2ff5:	e8 f6 82 01 00       	call   1b2f0 <console_init@plt>
    2ffa:	89 c3                	mov    %eax,%ebx
    2ffc:	c7 04 24 80 8d 01 00 	movl   $0x18d80,(%esp)
    3003:	e8 68 80 01 00       	call   1b070 <printf@plt>
    3008:	89 1c 24             	mov    %ebx,(%esp)
    300b:	e8 d0 84 01 00       	call   1b4e0 <console_flush@plt>
    3010:	58                   	pop    %eax
    3011:	5a                   	pop    %edx
    3012:	6a 00                	push   $0x0
    3014:	53                   	push   %ebx
    3015:	e8 06 84 01 00       	call   1b420 <console_set_style@plt>
    301a:	c7 04 24 8d 8d 01 00 	movl   $0x18d8d,(%esp)
    3021:	e8 4a 80 01 00       	call   1b070 <printf@plt>
    3026:	89 1c 24             	mov    %ebx,(%esp)
    3029:	e8 b2 84 01 00       	call   1b4e0 <console_flush@plt>
    302e:	59                   	pop    %ecx
    302f:	5e                   	pop    %esi
    3030:	6a 01                	push   $0x1
    3032:	53                   	push   %ebx
    3033:	e8 e8 83 01 00       	call   1b420 <console_set_style@plt>
    3038:	c7 04 24 96 8d 01 00 	movl   $0x18d96,(%esp)
    303f:	e8 2c 80 01 00       	call   1b070 <printf@plt>
    3044:	89 1c 24             	mov    %ebx,(%esp)
    3047:	e8 94 84 01 00       	call   1b4e0 <console_flush@plt>
    304c:	5f                   	pop    %edi
    304d:	58                   	pop    %eax
    304e:	6a 02                	push   $0x2
    3050:	53                   	push   %ebx
    3051:	e8 ca 83 01 00       	call   1b420 <console_set_style@plt>
    3056:	c7 04 24 a3 8d 01 00 	movl   $0x18da3,(%esp)
    305d:	e8 0e 80 01 00       	call   1b070 <printf@plt>
    3062:	89 1c 24             	mov    %ebx,(%esp)
    3065:	e8 76 84 01 00       	call   1b4e0 <console_flush@plt>
    306a:	58                   	pop    %eax
    306b:	5a                   	pop    %edx
    306c:	6a 03                	push   $0x3
    306e:	53                   	push   %ebx
    306f:	e8 ac 83 01 00       	call   1b420 <console_set_style@plt>
    3074:	c7 04 24 ae 8d 01 00 	movl   $0x18dae,(%esp)
    307b:	e8 f0 7f 01 00       	call   1b070 <printf@plt>
    3080:	89 1c 24             	mov    %ebx,(%esp)
    3083:	e8 58 84 01 00       	call   1b4e0 <console_flush@plt>
    3088:	59                   	pop    %ecx
    3089:	5e                   	pop    %esi
    308a:	6a 00                	push   $0x0
    308c:	53                   	push   %ebx
    308d:	e8 8e 83 01 00       	call   1b420 <console_set_style@plt>
    3092:	c7 04 24 37 88 01 00 	movl   $0x18837,(%esp)
    3099:	e8 d2 7f 01 00       	call   1b070 <printf@plt>
    309e:	c7 04 24 b9 8d 01 00 	movl   $0x18db9,(%esp)
    30a5:	e8 c6 7f 01 00       	call   1b070 <printf@plt>
    30aa:	83 c4 10             	add    $0x10,%esp
    30ad:	c7 45 e4 00 00 00 00 	movl   $0x0,-0x1c(%ebp)
    30b4:	83 7d e4 01          	cmpl   $0x1,-0x1c(%ebp)
    30b8:	19 ff                	sbb    %edi,%edi
    30ba:	31 f6                	xor    %esi,%esi
    30bc:	83 f7 ff             	xor    $0xffffffff,%edi
    30bf:	83 e7 08             	and    $0x8,%edi
    30c2:	8d b6 00 00 00 00    	lea    0x0(%esi),%esi
    30c8:	83 ec 0c             	sub    $0xc,%esp
    30cb:	53                   	push   %ebx
    30cc:	e8 0f 84 01 00       	call   1b4e0 <console_flush@plt>
    30d1:	57                   	push   %edi
    30d2:	56                   	push   %esi
    30d3:	6a 07                	push   $0x7
    30d5:	53                   	push   %ebx
    30d6:	e8 f5 80 01 00       	call   1b1d0 <console_set_color@plt>
    30db:	83 c4 18             	add    $0x18,%esp
    30de:	8b 04 b5 40 8e 01 00 	mov    0x18e40(,%esi,4),%eax
    30e5:	46                   	inc    %esi
    30e6:	50                   	push   %eax
    30e7:	68 d2 8d 01 00       	push   $0x18dd2
    30ec:	e8 7f 7f 01 00       	call   1b070 <printf@plt>
    30f1:	83 c4 10             	add    $0x10,%esp
    30f4:	83 fe 08             	cmp    $0x8,%esi
    30f7:	75 cf                	jne    30c8 <test_console1+0xf8>
    30f9:	83 ec 0c             	sub    $0xc,%esp
    30fc:	53                   	push   %ebx
    30fd:	e8 de 83 01 00       	call   1b4e0 <console_flush@plt>
    3102:	58                   	pop    %eax
    3103:	5a                   	pop    %edx
    3104:	6a 00                	push   $0x0
    3106:	53                   	push   %ebx
    3107:	e8 14 83 01 00       	call   1b420 <console_set_style@plt>
    310c:	c7 04 24 0a 00 00 00 	movl   $0xa,(%esp)
    3113:	e8 f8 7e 01 00       	call   1b010 <putchar@plt>
    3118:	8b 4d e4             	mov    -0x1c(%ebp),%ecx
    311b:	41                   	inc    %ecx
    311c:	83 c4 10             	add    $0x10,%esp
    311f:	89 4d e4             	mov    %ecx,-0x1c(%ebp)
    3122:	8b 45 e4             	mov    -0x1c(%ebp),%eax
    3125:	83 f8 02             	cmp    $0x2,%eax
    3128:	75 8a                	jne    30b4 <test_console1+0xe4>
    312a:	83 ec 0c             	sub    $0xc,%esp
    312d:	68 d7 8d 01 00       	push   $0x18dd7
    3132:	e8 39 7f 01 00       	call   1b070 <printf@plt>
    3137:	83 c4 10             	add    $0x10,%esp
    313a:	c7 45 e4 00 00 00 00 	movl   $0x0,-0x1c(%ebp)
    3141:	83 7d e4 01          	cmpl   $0x1,-0x1c(%ebp)
    3145:	19 ff                	sbb    %edi,%edi
    3147:	31 f6                	xor    %esi,%esi
    3149:	83 f7 ff             	xor    $0xffffffff,%edi
    314c:	83 e7 08             	and    $0x8,%edi
    314f:	90                   	nop
    3150:	83 ec 0c             	sub    $0xc,%esp
    3153:	53                   	push   %ebx
    3154:	e8 87 83 01 00       	call   1b4e0 <console_flush@plt>
    3159:	57                   	push   %edi
    315a:	6a 07                	push   $0x7
    315c:	56                   	push   %esi
    315d:	53                   	push   %ebx
    315e:	e8 6d 80 01 00       	call   1b1d0 <console_set_color@plt>
    3163:	83 c4 18             	add    $0x18,%esp
    3166:	8b 04 b5 40 8e 01 00 	mov    0x18e40(,%esi,4),%eax
    316d:	46                   	inc    %esi
    316e:	50                   	push   %eax
    316f:	68 d2 8d 01 00       	push   $0x18dd2
    3174:	e8 f7 7e 01 00       	call   1b070 <printf@plt>
    3179:	83 c4 10             	add    $0x10,%esp
    317c:	83 fe 08             	cmp    $0x8,%esi
    317f:	75 cf                	jne    3150 <test_console1+0x180>
    3181:	83 ec 0c             	sub    $0xc,%esp
    3184:	53                   	push   %ebx
    3185:	e8 56 83 01 00       	call   1b4e0 <console_flush@plt>
    318a:	59                   	pop    %ecx
    318b:	5e                   	pop    %esi
    318c:	6a 00                	push   $0x0
    318e:	53                   	push   %ebx
    318f:	e8 8c 82 01 00       	call   1b420 <console_set_style@plt>
    3194:	c7 04 24 0a 00 00 00 	movl   $0xa,(%esp)
    319b:	e8 70 7e 01 00       	call   1b010 <putchar@plt>
    31a0:	8b 7d e4             	mov    -0x1c(%ebp),%edi
    31a3:	47                   	inc    %edi
    31a4:	83 c4 10             	add    $0x10,%esp
    31a7:	89 7d e4             	mov    %edi,-0x1c(%ebp)
    31aa:	8b 45 e4             	mov    -0x1c(%ebp),%eax
    31ad:	83 f8 02             	cmp    $0x2,%eax
    31b0:	75 8f                	jne    3141 <test_console1+0x171>
    31b2:	83 ec 0c             	sub    $0xc,%esp
    31b5:	31 f6                	xor    %esi,%esi
    31b7:	bf 00 00 ff 00       	mov    $0xff0000,%edi
    31bc:	68 f0 8d 01 00       	push   $0x18df0
    31c1:	e8 aa 7e 01 00       	call   1b070 <printf@plt>
    31c6:	83 c4 10             	add    $0x10,%esp
    31c9:	8d b4 26 00 00 00 00 	lea    0x0(%esi,%eiz,1),%esi
    31d0:	83 ec 0c             	sub    $0xc,%esp
    31d3:	53                   	push   %ebx
    31d4:	e8 07 83 01 00       	call   1b4e0 <console_flush@plt>
    31d9:	83 c4 0c             	add    $0xc,%esp
    31dc:	89 f8                	mov    %edi,%eax
    31de:	29 f0                	sub    %esi,%eax
    31e0:	50                   	push   %eax
    31e1:	56                   	push   %esi
    31e2:	81 c6 00 00 10 00    	add    $0x100000,%esi
    31e8:	53                   	push   %ebx
    31e9:	e8 a2 83 01 00       	call   1b590 <console_set_rgb_color@plt>
    31ee:	c7 04 24 58 00 00 00 	movl   $0x58,(%esp)
    31f5:	e8 16 7e 01 00       	call   1b010 <putchar@plt>
    31fa:	83 c4 10             	add    $0x10,%esp
    31fd:	81 fe 00 00 00 01    	cmp    $0x1000000,%esi
    3203:	75 cb                	jne    31d0 <test_console1+0x200>
    3205:	83 ec 0c             	sub    $0xc,%esp
    3208:	31 f6                	xor    %esi,%esi
    320a:	bf 00 ff 00 00       	mov    $0xff00,%edi
    320f:	53                   	push   %ebx
    3210:	e8 cb 82 01 00       	call   1b4e0 <console_flush@plt>
    3215:	6a 00                	push   $0x0
    3217:	6a 00                	push   $0x0
    3219:	6a 07                	push   $0x7
    321b:	53                   	push   %ebx
    321c:	e8 af 7f 01 00       	call   1b1d0 <console_set_color@plt>
    3221:	83 c4 14             	add    $0x14,%esp
    3224:	6a 0a                	push   $0xa
    3226:	e8 e5 7d 01 00       	call   1b010 <putchar@plt>
    322b:	83 c4 10             	add    $0x10,%esp
    322e:	66 90                	xchg   %ax,%ax
    3230:	83 ec 0c             	sub    $0xc,%esp
    3233:	53                   	push   %ebx
    3234:	e8 a7 82 01 00       	call   1b4e0 <console_flush@plt>
    3239:	83 c4 0c             	add    $0xc,%esp
    323c:	89 f8                	mov    %edi,%eax
    323e:	29 f0                	sub    %esi,%eax
    3240:	50                   	push   %eax
    3241:	56                   	push   %esi
    3242:	81 c6 00 10 00 00    	add    $0x1000,%esi
    3248:	53                   	push   %ebx
    3249:	e8 42 83 01 00       	call   1b590 <console_set_rgb_color@plt>
    324e:	c7 04 24 58 00 00 00 	movl   $0x58,(%esp)
    3255:	e8 b6 7d 01 00       	call   1b010 <putchar@plt>
    325a:	83 c4 10             	add    $0x10,%esp
    325d:	81 fe 00 00 01 00    	cmp    $0x10000,%esi
    3263:	75 cb                	jne    3230 <test_console1+0x260>
    3265:	83 ec 0c             	sub    $0xc,%esp
    3268:	31 f6                	xor    %esi,%esi
    326a:	bf ff 00 00 00       	mov    $0xff,%edi
    326f:	53                   	push   %ebx
    3270:	e8 6b 82 01 00       	call   1b4e0 <console_flush@plt>
    3275:	6a 00                	push   $0x0
    3277:	6a 00                	push   $0x0
    3279:	6a 07                	push   $0x7
    327b:	53                   	push   %ebx
    327c:	e8 4f 7f 01 00       	call   1b1d0 <console_set_color@plt>
    3281:	83 c4 14             	add    $0x14,%esp
    3284:	6a 0a                	push   $0xa
    3286:	e8 85 7d 01 00       	call   1b010 <putchar@plt>
    328b:	83 c4 10             	add    $0x10,%esp
    328e:	66 90                	xchg   %ax,%ax
    3290:	83 ec 0c             	sub    $0xc,%esp
    3293:	53                   	push   %ebx
    3294:	e8 47 82 01 00       	call   1b4e0 <console_flush@plt>
    3299:	83 c4 0c             	add    $0xc,%esp
    329c:	89 f8                	mov    %edi,%eax
    329e:	29 f0                	sub    %esi,%eax
    32a0:	50                   	push   %eax
    32a1:	56                   	push   %esi
    32a2:	83 c6 10             	add    $0x10,%esi
    32a5:	53                   	push   %ebx
    32a6:	e8 e5 82 01 00       	call   1b590 <console_set_rgb_color@plt>
    32ab:	c7 04 24 58 00 00 00 	movl   $0x58,(%esp)
    32b2:	e8 59 7d 01 00       	call   1b010 <putchar@plt>
    32b7:	83 c4 10             	add    $0x10,%esp
    32ba:	81 fe 00 01 00 00    	cmp    $0x100,%esi
    32c0:	75 ce                	jne    3290 <test_console1+0x2c0>
    32c2:	83 ec 0c             	sub    $0xc,%esp
    32c5:	53                   	push   %ebx
    32c6:	e8 15 82 01 00       	call   1b4e0 <console_flush@plt>
    32cb:	58                   	pop    %eax
    32cc:	5a                   	pop    %edx
    32cd:	6a 00                	push   $0x0
    32cf:	53                   	push   %ebx
    32d0:	e8 4b 81 01 00       	call   1b420 <console_set_style@plt>
    32d5:	c7 04 24 0a 00 00 00 	movl   $0xa,(%esp)
    32dc:	e8 2f 7d 01 00       	call   1b010 <putchar@plt>
    32e1:	83 c4 10             	add    $0x10,%esp
    32e4:	8d 65 f4             	lea    -0xc(%ebp),%esp
    32e7:	31 c0                	xor    %eax,%eax
    32e9:	5b                   	pop    %ebx
    32ea:	5e                   	pop    %esi
    32eb:	5f                   	pop    %edi
    32ec:	5d                   	pop    %ebp
    32ed:	c3                   	ret    
    32ee:	66 90                	xchg   %ax,%ax

000032f0 <test_stdio1>:
    32f0:	55                   	push   %ebp
    32f1:	89 e5                	mov    %esp,%ebp
    32f3:	57                   	push   %edi
    32f4:	56                   	push   %esi
    32f5:	53                   	push   %ebx
    32f6:	83 ec 0c             	sub    $0xc,%esp
    32f9:	80 3d 84 df 01 00 00 	cmpb   $0x0,0x1df84
    3300:	0f 84 f2 00 00 00    	je     33f8 <test_stdio1+0x108>
    3306:	e8 15 7e 01 00       	call   1b120 <__errno@plt>
    330b:	89 c6                	mov    %eax,%esi
    330d:	c7 00 00 00 00 00    	movl   $0x0,(%eax)
    3313:	53                   	push   %ebx
    3314:	53                   	push   %ebx
    3315:	68 ca 73 01 00       	push   $0x173ca
    331a:	68 b3 8e 01 00       	push   $0x18eb3
    331f:	e8 1c 81 01 00       	call   1b440 <fopen@plt>
    3324:	83 c4 10             	add    $0x10,%esp
    3327:	89 c3                	mov    %eax,%ebx
    3329:	85 c0                	test   %eax,%eax
    332b:	0f 84 77 02 00 00    	je     35a8 <test_stdio1+0x2b8>
    3331:	80 3d 84 df 01 00 00 	cmpb   $0x0,0x1df84
    3338:	0f 84 da 00 00 00    	je     3418 <test_stdio1+0x128>
    333e:	53                   	push   %ebx
    333f:	6a 20                	push   $0x20
    3341:	6a 01                	push   $0x1
    3343:	68 00 e0 01 00       	push   $0x1e000
    3348:	e8 c3 80 01 00       	call   1b410 <fread@plt>
    334d:	89 1c 24             	mov    %ebx,(%esp)
    3350:	89 c7                	mov    %eax,%edi
    3352:	e8 39 80 01 00       	call   1b390 <ferror@plt>
    3357:	83 c4 10             	add    $0x10,%esp
    335a:	85 c0                	test   %eax,%eax
    335c:	75 5a                	jne    33b8 <test_stdio1+0xc8>
    335e:	80 3d 84 df 01 00 00 	cmpb   $0x0,0x1df84
    3365:	0f 84 5d 02 00 00    	je     35c8 <test_stdio1+0x2d8>
    336b:	c6 87 00 e0 01 00 00 	movb   $0x0,0x1e000(%edi)
    3372:	6a 00                	push   $0x0
    3374:	6a 00                	push   $0x0
    3376:	6a 00                	push   $0x0
    3378:	53                   	push   %ebx
    3379:	e8 e2 7f 01 00       	call   1b360 <fseek@plt>
    337e:	83 c4 10             	add    $0x10,%esp
    3381:	85 c0                	test   %eax,%eax
    3383:	0f 84 cf 00 00 00    	je     3458 <test_stdio1+0x168>
    3389:	80 3d 84 df 01 00 00 	cmpb   $0x0,0x1df84
    3390:	0f 84 b2 01 00 00    	je     3548 <test_stdio1+0x258>
    3396:	83 ec 0c             	sub    $0xc,%esp
    3399:	53                   	push   %ebx
    339a:	e8 e1 80 01 00       	call   1b480 <fclose@plt>
    339f:	83 c4 10             	add    $0x10,%esp
    33a2:	8d 65 f4             	lea    -0xc(%ebp),%esp
    33a5:	bb 88 8e 01 00       	mov    $0x18e88,%ebx
    33aa:	89 d8                	mov    %ebx,%eax
    33ac:	5b                   	pop    %ebx
    33ad:	5e                   	pop    %esi
    33ae:	5f                   	pop    %edi
    33af:	5d                   	pop    %ebp
    33b0:	c3                   	ret    
    33b1:	8d b4 26 00 00 00 00 	lea    0x0(%esi,%eiz,1),%esi
    33b8:	80 3d 84 df 01 00 00 	cmpb   $0x0,0x1df84
    33bf:	75 17                	jne    33d8 <test_stdio1+0xe8>
    33c1:	50                   	push   %eax
    33c2:	8b 06                	mov    (%esi),%eax
    33c4:	50                   	push   %eax
    33c5:	a1 60 df 01 00       	mov    0x1df60,%eax
    33ca:	68 cf 8e 01 00       	push   $0x18ecf
    33cf:	50                   	push   %eax
    33d0:	e8 5b 7f 01 00       	call   1b330 <fprintf@plt>
    33d5:	83 c4 10             	add    $0x10,%esp
    33d8:	83 ec 0c             	sub    $0xc,%esp
    33db:	53                   	push   %ebx
    33dc:	bb 74 8e 01 00       	mov    $0x18e74,%ebx
    33e1:	e8 9a 80 01 00       	call   1b480 <fclose@plt>
    33e6:	83 c4 10             	add    $0x10,%esp
    33e9:	8d 65 f4             	lea    -0xc(%ebp),%esp
    33ec:	89 d8                	mov    %ebx,%eax
    33ee:	5b                   	pop    %ebx
    33ef:	5e                   	pop    %esi
    33f0:	5f                   	pop    %edi
    33f1:	5d                   	pop    %ebp
    33f2:	c3                   	ret    
    33f3:	90                   	nop
    33f4:	8d 74 26 00          	lea    0x0(%esi,%eiz,1),%esi
    33f8:	8b 3d 60 df 01 00    	mov    0x1df60,%edi
    33fe:	56                   	push   %esi
    33ff:	68 b3 8e 01 00       	push   $0x18eb3
    3404:	68 bd 8e 01 00       	push   $0x18ebd
    3409:	57                   	push   %edi
    340a:	e8 21 7f 01 00       	call   1b330 <fprintf@plt>
    340f:	83 c4 10             	add    $0x10,%esp
    3412:	e9 ef fe ff ff       	jmp    3306 <test_stdio1+0x16>
    3417:	90                   	nop
    3418:	8b 0d 60 df 01 00    	mov    0x1df60,%ecx
    341e:	52                   	push   %edx
    341f:	52                   	push   %edx
    3420:	68 db 8e 01 00       	push   $0x18edb
    3425:	51                   	push   %ecx
    3426:	e8 05 7f 01 00       	call   1b330 <fprintf@plt>
    342b:	83 c4 10             	add    $0x10,%esp
    342e:	80 3d 84 df 01 00 00 	cmpb   $0x0,0x1df84
    3435:	0f 85 03 ff ff ff    	jne    333e <test_stdio1+0x4e>
    343b:	50                   	push   %eax
    343c:	50                   	push   %eax
    343d:	a1 60 df 01 00       	mov    0x1df60,%eax
    3442:	68 df 8e 01 00       	push   $0x18edf
    3447:	50                   	push   %eax
    3448:	e8 e3 7e 01 00       	call   1b330 <fprintf@plt>
    344d:	83 c4 10             	add    $0x10,%esp
    3450:	e9 e9 fe ff ff       	jmp    333e <test_stdio1+0x4e>
    3455:	8d 76 00             	lea    0x0(%esi),%esi
    3458:	80 3d 84 df 01 00 00 	cmpb   $0x0,0x1df84
    345f:	75 40                	jne    34a1 <test_stdio1+0x1b1>
    3461:	a1 60 df 01 00       	mov    0x1df60,%eax
    3466:	57                   	push   %edi
    3467:	57                   	push   %edi
    3468:	68 db 8e 01 00       	push   $0x18edb
    346d:	50                   	push   %eax
    346e:	e8 bd 7e 01 00       	call   1b330 <fprintf@plt>
    3473:	83 c4 10             	add    $0x10,%esp
    3476:	80 3d 84 df 01 00 00 	cmpb   $0x0,0x1df84
    347d:	75 22                	jne    34a1 <test_stdio1+0x1b1>
    347f:	8b 0d 60 df 01 00    	mov    0x1df60,%ecx
    3485:	52                   	push   %edx
    3486:	52                   	push   %edx
    3487:	68 1e 8f 01 00       	push   $0x18f1e
    348c:	51                   	push   %ecx
    348d:	e8 9e 7e 01 00       	call   1b330 <fprintf@plt>
    3492:	83 c4 10             	add    $0x10,%esp
    3495:	eb 0a                	jmp    34a1 <test_stdio1+0x1b1>
    3497:	90                   	nop
    3498:	80 3d 84 df 01 00 00 	cmpb   $0x0,0x1df84
    349f:	74 5f                	je     3500 <test_stdio1+0x210>
    34a1:	83 ec 0c             	sub    $0xc,%esp
    34a4:	53                   	push   %ebx
    34a5:	e8 26 80 01 00       	call   1b4d0 <fgetc@plt>
    34aa:	83 c4 10             	add    $0x10,%esp
    34ad:	40                   	inc    %eax
    34ae:	75 e8                	jne    3498 <test_stdio1+0x1a8>
    34b0:	80 3d 84 df 01 00 00 	cmpb   $0x0,0x1df84
    34b7:	0f 84 ab 00 00 00    	je     3568 <test_stdio1+0x278>
    34bd:	83 ec 0c             	sub    $0xc,%esp
    34c0:	53                   	push   %ebx
    34c1:	e8 ba 7f 01 00       	call   1b480 <fclose@plt>
    34c6:	83 c4 10             	add    $0x10,%esp
    34c9:	85 c0                	test   %eax,%eax
    34cb:	74 4b                	je     3518 <test_stdio1+0x228>
    34cd:	bb 9f 8e 01 00       	mov    $0x18e9f,%ebx
    34d2:	80 3d 84 df 01 00 00 	cmpb   $0x0,0x1df84
    34d9:	0f 85 0a ff ff ff    	jne    33e9 <test_stdio1+0xf9>
    34df:	51                   	push   %ecx
    34e0:	8b 3d 60 df 01 00    	mov    0x1df60,%edi
    34e6:	8b 36                	mov    (%esi),%esi
    34e8:	56                   	push   %esi
    34e9:	68 cf 8e 01 00       	push   $0x18ecf
    34ee:	57                   	push   %edi
    34ef:	e8 3c 7e 01 00       	call   1b330 <fprintf@plt>
    34f4:	83 c4 10             	add    $0x10,%esp
    34f7:	e9 ed fe ff ff       	jmp    33e9 <test_stdio1+0xf9>
    34fc:	8d 74 26 00          	lea    0x0(%esi,%eiz,1),%esi
    3500:	50                   	push   %eax
    3501:	50                   	push   %eax
    3502:	a1 60 df 01 00       	mov    0x1df60,%eax
    3507:	68 24 90 01 00       	push   $0x19024
    350c:	50                   	push   %eax
    350d:	e8 1e 7e 01 00       	call   1b330 <fprintf@plt>
    3512:	83 c4 10             	add    $0x10,%esp
    3515:	eb 8a                	jmp    34a1 <test_stdio1+0x1b1>
    3517:	90                   	nop
    3518:	31 db                	xor    %ebx,%ebx
    351a:	80 3d 84 df 01 00 00 	cmpb   $0x0,0x1df84
    3521:	0f 85 c2 fe ff ff    	jne    33e9 <test_stdio1+0xf9>
    3527:	8b 15 60 df 01 00    	mov    0x1df60,%edx
    352d:	50                   	push   %eax
    352e:	50                   	push   %eax
    352f:	68 db 8e 01 00       	push   $0x18edb
    3534:	52                   	push   %edx
    3535:	e8 f6 7d 01 00       	call   1b330 <fprintf@plt>
    353a:	83 c4 10             	add    $0x10,%esp
    353d:	e9 a7 fe ff ff       	jmp    33e9 <test_stdio1+0xf9>
    3542:	8d b6 00 00 00 00    	lea    0x0(%esi),%esi
    3548:	50                   	push   %eax
    3549:	8b 06                	mov    (%esi),%eax
    354b:	50                   	push   %eax
    354c:	a1 60 df 01 00       	mov    0x1df60,%eax
    3551:	68 cf 8e 01 00       	push   $0x18ecf
    3556:	50                   	push   %eax
    3557:	e8 d4 7d 01 00       	call   1b330 <fprintf@plt>
    355c:	83 c4 10             	add    $0x10,%esp
    355f:	e9 32 fe ff ff       	jmp    3396 <test_stdio1+0xa6>
    3564:	8d 74 26 00          	lea    0x0(%esi,%eiz,1),%esi
    3568:	50                   	push   %eax
    3569:	50                   	push   %eax
    356a:	a1 60 df 01 00       	mov    0x1df60,%eax
    356f:	68 34 8f 01 00       	push   $0x18f34
    3574:	50                   	push   %eax
    3575:	e8 b6 7d 01 00       	call   1b330 <fprintf@plt>
    357a:	83 c4 10             	add    $0x10,%esp
    357d:	80 3d 84 df 01 00 00 	cmpb   $0x0,0x1df84
    3584:	0f 85 33 ff ff ff    	jne    34bd <test_stdio1+0x1cd>
    358a:	50                   	push   %eax
    358b:	50                   	push   %eax
    358c:	a1 60 df 01 00       	mov    0x1df60,%eax
    3591:	68 c3 8f 01 00       	push   $0x18fc3
    3596:	50                   	push   %eax
    3597:	e8 94 7d 01 00       	call   1b330 <fprintf@plt>
    359c:	83 c4 10             	add    $0x10,%esp
    359f:	e9 19 ff ff ff       	jmp    34bd <test_stdio1+0x1cd>
    35a4:	8d 74 26 00          	lea    0x0(%esi,%eiz,1),%esi
    35a8:	bb 60 8e 01 00       	mov    $0x18e60,%ebx
    35ad:	80 3d 84 df 01 00 00 	cmpb   $0x0,0x1df84
    35b4:	0f 84 25 ff ff ff    	je     34df <test_stdio1+0x1ef>
    35ba:	8d 65 f4             	lea    -0xc(%ebp),%esp
    35bd:	89 d8                	mov    %ebx,%eax
    35bf:	5b                   	pop    %ebx
    35c0:	5e                   	pop    %esi
    35c1:	5f                   	pop    %edi
    35c2:	5d                   	pop    %ebp
    35c3:	c3                   	ret    
    35c4:	8d 74 26 00          	lea    0x0(%esi,%eiz,1),%esi
    35c8:	a1 60 df 01 00       	mov    0x1df60,%eax
    35cd:	51                   	push   %ecx
    35ce:	51                   	push   %ecx
    35cf:	68 db 8e 01 00       	push   $0x18edb
    35d4:	50                   	push   %eax
    35d5:	e8 56 7d 01 00       	call   1b330 <fprintf@plt>
    35da:	83 c4 10             	add    $0x10,%esp
    35dd:	c6 87 00 e0 01 00 00 	movb   $0x0,0x1e000(%edi)
    35e4:	80 3d 84 df 01 00 00 	cmpb   $0x0,0x1df84
    35eb:	0f 85 81 fd ff ff    	jne    3372 <test_stdio1+0x82>
    35f1:	8b 15 60 df 01 00    	mov    0x1df60,%edx
    35f7:	68 00 e0 01 00       	push   $0x1e000
    35fc:	57                   	push   %edi
    35fd:	68 ec 8e 01 00       	push   $0x18eec
    3602:	52                   	push   %edx
    3603:	e8 28 7d 01 00       	call   1b330 <fprintf@plt>
    3608:	83 c4 10             	add    $0x10,%esp
    360b:	80 3d 84 df 01 00 00 	cmpb   $0x0,0x1df84
    3612:	0f 85 5a fd ff ff    	jne    3372 <test_stdio1+0x82>
    3618:	50                   	push   %eax
    3619:	50                   	push   %eax
    361a:	a1 60 df 01 00       	mov    0x1df60,%eax
    361f:	68 09 8f 01 00       	push   $0x18f09
    3624:	50                   	push   %eax
    3625:	e8 06 7d 01 00       	call   1b330 <fprintf@plt>
    362a:	83 c4 10             	add    $0x10,%esp
    362d:	e9 40 fd ff ff       	jmp    3372 <test_stdio1+0x82>
    3632:	66 90                	xchg   %ax,%ax
    3634:	66 90                	xchg   %ax,%ax
    3636:	66 90                	xchg   %ax,%ax
    3638:	66 90                	xchg   %ax,%ax
    363a:	66 90                	xchg   %ax,%ax
    363c:	66 90                	xchg   %ax,%ax
    363e:	66 90                	xchg   %ax,%ax

00003640 <test_stdio2>:
    3640:	55                   	push   %ebp
    3641:	89 e5                	mov    %esp,%ebp
    3643:	56                   	push   %esi
    3644:	80 3d 84 df 01 00 00 	cmpb   $0x0,0x1df84
    364b:	53                   	push   %ebx
    364c:	0f 84 4e 01 00 00    	je     37a0 <test_stdio2+0x160>
    3652:	e8 c9 7a 01 00       	call   1b120 <__errno@plt>
    3657:	89 c6                	mov    %eax,%esi
    3659:	c7 00 00 00 00 00    	movl   $0x0,(%eax)
    365f:	50                   	push   %eax
    3660:	50                   	push   %eax
    3661:	68 5f 8f 01 00       	push   $0x18f5f
    3666:	68 3b 8f 01 00       	push   $0x18f3b
    366b:	e8 d0 7d 01 00       	call   1b440 <fopen@plt>
    3670:	83 c4 10             	add    $0x10,%esp
    3673:	89 c3                	mov    %eax,%ebx
    3675:	85 c0                	test   %eax,%eax
    3677:	0f 84 c3 01 00 00    	je     3840 <test_stdio2+0x200>
    367d:	80 3d 84 df 01 00 00 	cmpb   $0x0,0x1df84
    3684:	0f 84 76 01 00 00    	je     3800 <test_stdio2+0x1c0>
    368a:	68 73 8f 01 00       	push   $0x18f73
    368f:	6a 2a                	push   $0x2a
    3691:	68 7a 8f 01 00       	push   $0x18f7a
    3696:	53                   	push   %ebx
    3697:	e8 94 7c 01 00       	call   1b330 <fprintf@plt>
    369c:	83 c4 10             	add    $0x10,%esp
    369f:	80 3d 84 df 01 00 00 	cmpb   $0x0,0x1df84
    36a6:	0f 84 14 01 00 00    	je     37c0 <test_stdio2+0x180>
    36ac:	83 ec 0c             	sub    $0xc,%esp
    36af:	53                   	push   %ebx
    36b0:	e8 cb 7d 01 00       	call   1b480 <fclose@plt>
    36b5:	83 c4 10             	add    $0x10,%esp
    36b8:	85 c0                	test   %eax,%eax
    36ba:	0f 85 a0 00 00 00    	jne    3760 <test_stdio2+0x120>
    36c0:	80 3d 84 df 01 00 00 	cmpb   $0x0,0x1df84
    36c7:	0f 84 c3 01 00 00    	je     3890 <test_stdio2+0x250>
    36cd:	50                   	push   %eax
    36ce:	50                   	push   %eax
    36cf:	68 ca 73 01 00       	push   $0x173ca
    36d4:	68 3b 8f 01 00       	push   $0x18f3b
    36d9:	e8 62 7d 01 00       	call   1b440 <fopen@plt>
    36de:	83 c4 10             	add    $0x10,%esp
    36e1:	89 c3                	mov    %eax,%ebx
    36e3:	85 c0                	test   %eax,%eax
    36e5:	0f 84 55 01 00 00    	je     3840 <test_stdio2+0x200>
    36eb:	80 3d 84 df 01 00 00 	cmpb   $0x0,0x1df84
    36f2:	75 15                	jne    3709 <test_stdio2+0xc9>
    36f4:	e9 df 01 00 00       	jmp    38d8 <test_stdio2+0x298>
    36f9:	8d b4 26 00 00 00 00 	lea    0x0(%esi,%eiz,1),%esi
    3700:	80 3d 84 df 01 00 00 	cmpb   $0x0,0x1df84
    3707:	74 77                	je     3780 <test_stdio2+0x140>
    3709:	83 ec 0c             	sub    $0xc,%esp
    370c:	53                   	push   %ebx
    370d:	e8 be 7d 01 00       	call   1b4d0 <fgetc@plt>
    3712:	83 c4 10             	add    $0x10,%esp
    3715:	83 f8 ff             	cmp    $0xffffffff,%eax
    3718:	75 e6                	jne    3700 <test_stdio2+0xc0>
    371a:	80 3d 84 df 01 00 00 	cmpb   $0x0,0x1df84
    3721:	0f 84 f1 01 00 00    	je     3918 <test_stdio2+0x2d8>
    3727:	83 ec 0c             	sub    $0xc,%esp
    372a:	53                   	push   %ebx
    372b:	e8 50 7d 01 00       	call   1b480 <fclose@plt>
    3730:	83 c4 10             	add    $0x10,%esp
    3733:	85 c0                	test   %eax,%eax
    3735:	75 29                	jne    3760 <test_stdio2+0x120>
    3737:	31 db                	xor    %ebx,%ebx
    3739:	80 3d 84 df 01 00 00 	cmpb   $0x0,0x1df84
    3740:	75 30                	jne    3772 <test_stdio2+0x132>
    3742:	8b 15 60 df 01 00    	mov    0x1df60,%edx
    3748:	50                   	push   %eax
    3749:	50                   	push   %eax
    374a:	68 db 8e 01 00       	push   $0x18edb
    374f:	52                   	push   %edx
    3750:	e8 db 7b 01 00       	call   1b330 <fprintf@plt>
    3755:	83 c4 10             	add    $0x10,%esp
    3758:	eb 18                	jmp    3772 <test_stdio2+0x132>
    375a:	8d b6 00 00 00 00    	lea    0x0(%esi),%esi
    3760:	80 3d 84 df 01 00 00 	cmpb   $0x0,0x1df84
    3767:	0f 84 eb 00 00 00    	je     3858 <test_stdio2+0x218>
    376d:	bb 9f 8e 01 00       	mov    $0x18e9f,%ebx
    3772:	8d 65 f8             	lea    -0x8(%ebp),%esp
    3775:	89 d8                	mov    %ebx,%eax
    3777:	5b                   	pop    %ebx
    3778:	5e                   	pop    %esi
    3779:	5d                   	pop    %ebp
    377a:	c3                   	ret    
    377b:	90                   	nop
    377c:	8d 74 26 00          	lea    0x0(%esi,%eiz,1),%esi
    3780:	8b 0d 60 df 01 00    	mov    0x1df60,%ecx
    3786:	52                   	push   %edx
    3787:	50                   	push   %eax
    3788:	68 b9 82 01 00       	push   $0x182b9
    378d:	51                   	push   %ecx
    378e:	e8 9d 7b 01 00       	call   1b330 <fprintf@plt>
    3793:	83 c4 10             	add    $0x10,%esp
    3796:	e9 6e ff ff ff       	jmp    3709 <test_stdio2+0xc9>
    379b:	90                   	nop
    379c:	8d 74 26 00          	lea    0x0(%esi,%eiz,1),%esi
    37a0:	50                   	push   %eax
    37a1:	a1 60 df 01 00       	mov    0x1df60,%eax
    37a6:	68 3b 8f 01 00       	push   $0x18f3b
    37ab:	68 41 8f 01 00       	push   $0x18f41
    37b0:	50                   	push   %eax
    37b1:	e8 7a 7b 01 00       	call   1b330 <fprintf@plt>
    37b6:	83 c4 10             	add    $0x10,%esp
    37b9:	e9 94 fe ff ff       	jmp    3652 <test_stdio2+0x12>
    37be:	66 90                	xchg   %ax,%ax
    37c0:	50                   	push   %eax
    37c1:	50                   	push   %eax
    37c2:	a1 60 df 01 00       	mov    0x1df60,%eax
    37c7:	68 db 8e 01 00       	push   $0x18edb
    37cc:	50                   	push   %eax
    37cd:	e8 5e 7b 01 00       	call   1b330 <fprintf@plt>
    37d2:	83 c4 10             	add    $0x10,%esp
    37d5:	80 3d 84 df 01 00 00 	cmpb   $0x0,0x1df84
    37dc:	0f 85 ca fe ff ff    	jne    36ac <test_stdio2+0x6c>
    37e2:	50                   	push   %eax
    37e3:	50                   	push   %eax
    37e4:	a1 60 df 01 00       	mov    0x1df60,%eax
    37e9:	68 c3 8f 01 00       	push   $0x18fc3
    37ee:	50                   	push   %eax
    37ef:	e8 3c 7b 01 00       	call   1b330 <fprintf@plt>
    37f4:	83 c4 10             	add    $0x10,%esp
    37f7:	e9 b0 fe ff ff       	jmp    36ac <test_stdio2+0x6c>
    37fc:	8d 74 26 00          	lea    0x0(%esi,%eiz,1),%esi
    3800:	8b 0d 60 df 01 00    	mov    0x1df60,%ecx
    3806:	52                   	push   %edx
    3807:	52                   	push   %edx
    3808:	68 db 8e 01 00       	push   $0x18edb
    380d:	51                   	push   %ecx
    380e:	e8 1d 7b 01 00       	call   1b330 <fprintf@plt>
    3813:	83 c4 10             	add    $0x10,%esp
    3816:	80 3d 84 df 01 00 00 	cmpb   $0x0,0x1df84
    381d:	0f 85 67 fe ff ff    	jne    368a <test_stdio2+0x4a>
    3823:	50                   	push   %eax
    3824:	50                   	push   %eax
    3825:	a1 60 df 01 00       	mov    0x1df60,%eax
    382a:	68 62 8f 01 00       	push   $0x18f62
    382f:	50                   	push   %eax
    3830:	e8 fb 7a 01 00       	call   1b330 <fprintf@plt>
    3835:	83 c4 10             	add    $0x10,%esp
    3838:	e9 4d fe ff ff       	jmp    368a <test_stdio2+0x4a>
    383d:	8d 76 00             	lea    0x0(%esi),%esi
    3840:	80 3d 84 df 01 00 00 	cmpb   $0x0,0x1df84
    3847:	74 2c                	je     3875 <test_stdio2+0x235>
    3849:	8d 65 f8             	lea    -0x8(%ebp),%esp
    384c:	bb 60 8e 01 00       	mov    $0x18e60,%ebx
    3851:	89 d8                	mov    %ebx,%eax
    3853:	5b                   	pop    %ebx
    3854:	5e                   	pop    %esi
    3855:	5d                   	pop    %ebp
    3856:	c3                   	ret    
    3857:	90                   	nop
    3858:	51                   	push   %ecx
    3859:	8b 1e                	mov    (%esi),%ebx
    385b:	8b 35 60 df 01 00    	mov    0x1df60,%esi
    3861:	53                   	push   %ebx
    3862:	68 cf 8e 01 00       	push   $0x18ecf
    3867:	56                   	push   %esi
    3868:	e8 c3 7a 01 00       	call   1b330 <fprintf@plt>
    386d:	83 c4 10             	add    $0x10,%esp
    3870:	e9 f8 fe ff ff       	jmp    376d <test_stdio2+0x12d>
    3875:	53                   	push   %ebx
    3876:	a1 60 df 01 00       	mov    0x1df60,%eax
    387b:	8b 36                	mov    (%esi),%esi
    387d:	56                   	push   %esi
    387e:	68 cf 8e 01 00       	push   $0x18ecf
    3883:	50                   	push   %eax
    3884:	e8 a7 7a 01 00       	call   1b330 <fprintf@plt>
    3889:	83 c4 10             	add    $0x10,%esp
    388c:	eb bb                	jmp    3849 <test_stdio2+0x209>
    388e:	66 90                	xchg   %ax,%ax
    3890:	8b 1d 60 df 01 00    	mov    0x1df60,%ebx
    3896:	51                   	push   %ecx
    3897:	51                   	push   %ecx
    3898:	68 db 8e 01 00       	push   $0x18edb
    389d:	53                   	push   %ebx
    389e:	e8 8d 7a 01 00       	call   1b330 <fprintf@plt>
    38a3:	83 c4 10             	add    $0x10,%esp
    38a6:	80 3d 84 df 01 00 00 	cmpb   $0x0,0x1df84
    38ad:	0f 85 1a fe ff ff    	jne    36cd <test_stdio2+0x8d>
    38b3:	8b 15 60 df 01 00    	mov    0x1df60,%edx
    38b9:	50                   	push   %eax
    38ba:	68 3b 8f 01 00       	push   $0x18f3b
    38bf:	68 94 8f 01 00       	push   $0x18f94
    38c4:	52                   	push   %edx
    38c5:	e8 66 7a 01 00       	call   1b330 <fprintf@plt>
    38ca:	83 c4 10             	add    $0x10,%esp
    38cd:	e9 fb fd ff ff       	jmp    36cd <test_stdio2+0x8d>
    38d2:	8d b6 00 00 00 00    	lea    0x0(%esi),%esi
    38d8:	50                   	push   %eax
    38d9:	50                   	push   %eax
    38da:	a1 60 df 01 00       	mov    0x1df60,%eax
    38df:	68 db 8e 01 00       	push   $0x18edb
    38e4:	50                   	push   %eax
    38e5:	e8 46 7a 01 00       	call   1b330 <fprintf@plt>
    38ea:	83 c4 10             	add    $0x10,%esp
    38ed:	80 3d 84 df 01 00 00 	cmpb   $0x0,0x1df84
    38f4:	0f 85 0f fe ff ff    	jne    3709 <test_stdio2+0xc9>
    38fa:	50                   	push   %eax
    38fb:	50                   	push   %eax
    38fc:	a1 60 df 01 00       	mov    0x1df60,%eax
    3901:	68 b2 8f 01 00       	push   $0x18fb2
    3906:	50                   	push   %eax
    3907:	e8 24 7a 01 00       	call   1b330 <fprintf@plt>
    390c:	83 c4 10             	add    $0x10,%esp
    390f:	e9 f5 fd ff ff       	jmp    3709 <test_stdio2+0xc9>
    3914:	8d 74 26 00          	lea    0x0(%esi,%eiz,1),%esi
    3918:	50                   	push   %eax
    3919:	50                   	push   %eax
    391a:	a1 60 df 01 00       	mov    0x1df60,%eax
    391f:	68 c2 8f 01 00       	push   $0x18fc2
    3924:	50                   	push   %eax
    3925:	e8 06 7a 01 00       	call   1b330 <fprintf@plt>
    392a:	83 c4 10             	add    $0x10,%esp
    392d:	e9 f5 fd ff ff       	jmp    3727 <test_stdio2+0xe7>
    3932:	66 90                	xchg   %ax,%ax
    3934:	66 90                	xchg   %ax,%ax
    3936:	66 90                	xchg   %ax,%ax
    3938:	66 90                	xchg   %ax,%ax
    393a:	66 90                	xchg   %ax,%ax
    393c:	66 90                	xchg   %ax,%ax
    393e:	66 90                	xchg   %ax,%ax

00003940 <test_logger1>:
    3940:	55                   	push   %ebp
    3941:	89 e5                	mov    %esp,%ebp
    3943:	53                   	push   %ebx
    3944:	31 db                	xor    %ebx,%ebx
    3946:	50                   	push   %eax
    3947:	90                   	nop
    3948:	53                   	push   %ebx
    3949:	68 cc 8f 01 00       	push   $0x18fcc
    394e:	53                   	push   %ebx
    394f:	43                   	inc    %ebx
    3950:	6a ff                	push   $0xffffffff
    3952:	e8 39 79 01 00       	call   1b290 <log_msg@plt>
    3957:	83 c4 10             	add    $0x10,%esp
    395a:	83 fb 06             	cmp    $0x6,%ebx
    395d:	75 e9                	jne    3948 <test_logger1+0x8>
    395f:	31 c0                	xor    %eax,%eax
    3961:	8b 5d fc             	mov    -0x4(%ebp),%ebx
    3964:	c9                   	leave  
    3965:	c3                   	ret    
    3966:	66 90                	xchg   %ax,%ax
    3968:	66 90                	xchg   %ax,%ax
    396a:	66 90                	xchg   %ax,%ax
    396c:	66 90                	xchg   %ax,%ax
    396e:	66 90                	xchg   %ax,%ax

00003970 <test_logger2>:
    3970:	55                   	push   %ebp
    3971:	89 e5                	mov    %esp,%ebp
    3973:	57                   	push   %edi
    3974:	56                   	push   %esi
    3975:	53                   	push   %ebx
    3976:	83 ec 14             	sub    $0x14,%esp
    3979:	6a ff                	push   $0xffffffff
    397b:	68 e6 8f 01 00       	push   $0x18fe6
    3980:	e8 ab 7c 01 00       	call   1b630 <log_create@plt>
    3985:	5f                   	pop    %edi
    3986:	89 c6                	mov    %eax,%esi
    3988:	5a                   	pop    %edx
    3989:	50                   	push   %eax
    398a:	68 ec 8f 01 00       	push   $0x18fec
    398f:	e8 9c 7c 01 00       	call   1b630 <log_create@plt>
    3994:	83 c4 10             	add    $0x10,%esp
    3997:	89 c7                	mov    %eax,%edi
    3999:	80 3d 84 df 01 00 00 	cmpb   $0x0,0x1df84
    39a0:	74 6f                	je     3a11 <test_logger2+0xa1>
    39a2:	8d b6 00 00 00 00    	lea    0x0(%esi),%esi
    39a8:	bb 01 00 00 00       	mov    $0x1,%ebx
    39ad:	83 ec 0c             	sub    $0xc,%esp
    39b0:	53                   	push   %ebx
    39b1:	e8 fa 7c 01 00       	call   1b6b0 <log_level_str@plt>
    39b6:	89 04 24             	mov    %eax,(%esp)
    39b9:	53                   	push   %ebx
    39ba:	68 0e 90 01 00       	push   $0x1900e
    39bf:	53                   	push   %ebx
    39c0:	6a ff                	push   $0xffffffff
    39c2:	e8 c9 78 01 00       	call   1b290 <log_msg@plt>
    39c7:	83 c4 14             	add    $0x14,%esp
    39ca:	53                   	push   %ebx
    39cb:	e8 e0 7c 01 00       	call   1b6b0 <log_level_str@plt>
    39d0:	89 04 24             	mov    %eax,(%esp)
    39d3:	53                   	push   %ebx
    39d4:	68 28 90 01 00       	push   $0x19028
    39d9:	53                   	push   %ebx
    39da:	56                   	push   %esi
    39db:	e8 b0 78 01 00       	call   1b290 <log_msg@plt>
    39e0:	83 c4 14             	add    $0x14,%esp
    39e3:	53                   	push   %ebx
    39e4:	e8 c7 7c 01 00       	call   1b6b0 <log_level_str@plt>
    39e9:	89 04 24             	mov    %eax,(%esp)
    39ec:	53                   	push   %ebx
    39ed:	68 50 90 01 00       	push   $0x19050
    39f2:	53                   	push   %ebx
    39f3:	57                   	push   %edi
    39f4:	e8 97 78 01 00       	call   1b290 <log_msg@plt>
    39f9:	83 c4 14             	add    $0x14,%esp
    39fc:	43                   	inc    %ebx
    39fd:	68 a0 86 01 00       	push   $0x186a0
    3a02:	e8 b9 7a 01 00       	call   1b4c0 <async_usleep@plt>
    3a07:	83 c4 10             	add    $0x10,%esp
    3a0a:	83 fb 06             	cmp    $0x6,%ebx
    3a0d:	75 9e                	jne    39ad <test_logger2+0x3d>
    3a0f:	eb 97                	jmp    39a8 <test_logger2+0x38>
    3a11:	8b 1d 60 df 01 00    	mov    0x1df60,%ebx
    3a17:	51                   	push   %ecx
    3a18:	56                   	push   %esi
    3a19:	68 f2 8f 01 00       	push   $0x18ff2
    3a1e:	53                   	push   %ebx
    3a1f:	e8 0c 79 01 00       	call   1b330 <fprintf@plt>
    3a24:	83 c4 10             	add    $0x10,%esp
    3a27:	80 3d 84 df 01 00 00 	cmpb   $0x0,0x1df84
    3a2e:	0f 85 74 ff ff ff    	jne    39a8 <test_logger2+0x38>
    3a34:	8b 15 60 df 01 00    	mov    0x1df60,%edx
    3a3a:	50                   	push   %eax
    3a3b:	57                   	push   %edi
    3a3c:	68 00 90 01 00       	push   $0x19000
    3a41:	52                   	push   %edx
    3a42:	e8 e9 78 01 00       	call   1b330 <fprintf@plt>
    3a47:	83 c4 10             	add    $0x10,%esp
    3a4a:	e9 59 ff ff ff       	jmp    39a8 <test_logger2+0x38>
    3a4f:	90                   	nop

00003a50 <test_fault1>:
    3a50:	55                   	push   %ebp
    3a51:	c7 05 04 00 00 00 00 	movl   $0x0,0x4
    3a58:	00 00 00 
    3a5b:	89 e5                	mov    %esp,%ebp
    3a5d:	b8 7b 90 01 00       	mov    $0x1907b,%eax
    3a62:	5d                   	pop    %ebp
    3a63:	c3                   	ret    
    3a64:	66 90                	xchg   %ax,%ax
    3a66:	66 90                	xchg   %ax,%ax
    3a68:	66 90                	xchg   %ax,%ax
    3a6a:	66 90                	xchg   %ax,%ax
    3a6c:	66 90                	xchg   %ax,%ax
    3a6e:	66 90                	xchg   %ax,%ax

00003a70 <test_fault2>:
    3a70:	55                   	push   %ebp
    3a71:	89 e5                	mov    %esp,%ebp
    3a73:	83 ec 20             	sub    $0x20,%esp
    3a76:	c7 45 f0 00 00 00 00 	movl   $0x0,-0x10(%ebp)
    3a7d:	c7 45 f4 00 00 00 00 	movl   $0x0,-0xc(%ebp)
    3a84:	8b 45 f1             	mov    -0xf(%ebp),%eax
    3a87:	89 45 ec             	mov    %eax,-0x14(%ebp)
    3a8a:	8b 45 ec             	mov    -0x14(%ebp),%eax
    3a8d:	50                   	push   %eax
    3a8e:	68 92 90 01 00       	push   $0x19092
    3a93:	e8 d8 75 01 00       	call   1b070 <printf@plt>
    3a98:	b8 9b 90 01 00       	mov    $0x1909b,%eax
    3a9d:	c9                   	leave  
    3a9e:	c3                   	ret    
    3a9f:	90                   	nop

00003aa0 <test_fault3>:
    3aa0:	55                   	push   %ebp
    3aa1:	89 e5                	mov    %esp,%ebp
    3aa3:	83 ec 08             	sub    $0x8,%esp
    3aa6:	e8 35 78 01 00       	call   1b2e0 <abort@plt>
    3aab:	66 90                	xchg   %ax,%ax
    3aad:	66 90                	xchg   %ax,%ax
    3aaf:	90                   	nop

00003ab0 <e>:
    3ab0:	55                   	push   %ebp
    3ab1:	b9 64 00 00 00       	mov    $0x64,%ecx
    3ab6:	89 e5                	mov    %esp,%ebp
    3ab8:	83 ec 10             	sub    $0x10,%esp
    3abb:	d9 ee                	fldz   
    3abd:	d9 7d fe             	fnstcw -0x2(%ebp)
    3ac0:	66 8b 45 fe          	mov    -0x2(%ebp),%ax
    3ac4:	b4 0c                	mov    $0xc,%ah
    3ac6:	66 89 45 fc          	mov    %ax,-0x4(%ebp)
    3aca:	8d b6 00 00 00 00    	lea    0x0(%esi),%esi
    3ad0:	d9 e8                	fld1   
    3ad2:	d9 c0                	fld    %st(0)
    3ad4:	d9 c1                	fld    %st(1)
    3ad6:	d9 c3                	fld    %st(3)
    3ad8:	eb 0a                	jmp    3ae4 <e+0x34>
    3ada:	8d b6 00 00 00 00    	lea    0x0(%esi),%esi
    3ae0:	d9 c9                	fxch   %st(1)
    3ae2:	d9 ca                	fxch   %st(2)
    3ae4:	d9 c3                	fld    %st(3)
    3ae6:	d8 f3                	fdiv   %st(3),%st
    3ae8:	d8 c1                	fadd   %st(1),%st
    3aea:	d9 cb                	fxch   %st(3)
    3aec:	d8 ca                	fmul   %st(2),%st
    3aee:	d9 ca                	fxch   %st(2)
    3af0:	d8 c4                	fadd   %st(4),%st
    3af2:	d9 c9                	fxch   %st(1)
    3af4:	dd eb                	fucomp %st(3)
    3af6:	df e0                	fnstsw %ax
    3af8:	80 e4 45             	and    $0x45,%ah
    3afb:	80 f4 40             	xor    $0x40,%ah
    3afe:	75 e0                	jne    3ae0 <e+0x30>
    3b00:	dd d8                	fstp   %st(0)
    3b02:	dd d8                	fstp   %st(0)
    3b04:	dd d9                	fstp   %st(1)
    3b06:	d8 0d c0 90 01 00    	fmuls  0x190c0
    3b0c:	d9 6d fc             	fldcw  -0x4(%ebp)
    3b0f:	df 7d f0             	fistpll -0x10(%ebp)
    3b12:	d9 6d fe             	fldcw  -0x2(%ebp)
    3b15:	8b 45 f0             	mov    -0x10(%ebp),%eax
    3b18:	3d d6 c4 33 10       	cmp    $0x1033c4d6,%eax
    3b1d:	75 0e                	jne    3b2d <e+0x7d>
    3b1f:	49                   	dec    %ecx
    3b20:	75 ae                	jne    3ad0 <e+0x20>
    3b22:	dd d8                	fstp   %st(0)
    3b24:	f0 ff 05 28 e0 01 00 	lock incl 0x1e028
    3b2b:	c9                   	leave  
    3b2c:	c3                   	ret    
    3b2d:	dd d8                	fstp   %st(0)
    3b2f:	f0 ff 05 24 e0 01 00 	lock incl 0x1e024
    3b36:	eb ec                	jmp    3b24 <e+0x74>
    3b38:	90                   	nop
    3b39:	8d b4 26 00 00 00 00 	lea    0x0(%esi,%eiz,1),%esi

00003b40 <test_float1>:
    3b40:	55                   	push   %ebp
    3b41:	89 e5                	mov    %esp,%ebp
    3b43:	53                   	push   %ebx
    3b44:	53                   	push   %ebx
    3b45:	c7 05 28 e0 01 00 00 	movl   $0x0,0x1e028
    3b4c:	00 00 00 
    3b4f:	80 3d 84 df 01 00 00 	cmpb   $0x0,0x1df84
    3b56:	c7 05 24 e0 01 00 00 	movl   $0x0,0x1e024
    3b5d:	00 00 00 
    3b60:	0f 84 ea 00 00 00    	je     3c50 <test_float1+0x110>
    3b66:	31 db                	xor    %ebx,%ebx
    3b68:	eb 0f                	jmp    3b79 <test_float1+0x39>
    3b6a:	8d b6 00 00 00 00    	lea    0x0(%esi),%esi
    3b70:	43                   	inc    %ebx
    3b71:	81 fb 96 00 00 00    	cmp    $0x96,%ebx
    3b77:	74 47                	je     3bc0 <test_float1+0x80>
    3b79:	6a 00                	push   $0x0
    3b7b:	68 56 8a 01 00       	push   $0x18a56
    3b80:	6a 00                	push   $0x0
    3b82:	68 b0 3a 00 00       	push   $0x3ab0
    3b87:	e8 84 7a 01 00       	call   1b610 <thread_create@plt>
    3b8c:	83 c4 10             	add    $0x10,%esp
    3b8f:	85 c0                	test   %eax,%eax
    3b91:	78 4d                	js     3be0 <test_float1+0xa0>
    3b93:	80 3d 84 df 01 00 00 	cmpb   $0x0,0x1df84
    3b9a:	75 d4                	jne    3b70 <test_float1+0x30>
    3b9c:	50                   	push   %eax
    3b9d:	50                   	push   %eax
    3b9e:	a1 60 df 01 00       	mov    0x1df60,%eax
    3ba3:	68 24 90 01 00       	push   $0x19024
    3ba8:	43                   	inc    %ebx
    3ba9:	50                   	push   %eax
    3baa:	e8 81 77 01 00       	call   1b330 <fprintf@plt>
    3baf:	83 c4 10             	add    $0x10,%esp
    3bb2:	81 fb 96 00 00 00    	cmp    $0x96,%ebx
    3bb8:	75 bf                	jne    3b79 <test_float1+0x39>
    3bba:	8d b6 00 00 00 00    	lea    0x0(%esi),%esi
    3bc0:	80 3d 84 df 01 00 00 	cmpb   $0x0,0x1df84
    3bc7:	75 24                	jne    3bed <test_float1+0xad>
    3bc9:	50                   	push   %eax
    3bca:	50                   	push   %eax
    3bcb:	a1 60 df 01 00       	mov    0x1df60,%eax
    3bd0:	68 37 88 01 00       	push   $0x18837
    3bd5:	50                   	push   %eax
    3bd6:	e8 55 77 01 00       	call   1b330 <fprintf@plt>
    3bdb:	83 c4 10             	add    $0x10,%esp
    3bde:	eb 0d                	jmp    3bed <test_float1+0xad>
    3be0:	80 3d 84 df 01 00 00 	cmpb   $0x0,0x1df84
    3be7:	0f 84 83 00 00 00    	je     3c70 <test_float1+0x130>
    3bed:	a1 28 e0 01 00       	mov    0x1e028,%eax
    3bf2:	39 c3                	cmp    %eax,%ebx
    3bf4:	77 18                	ja     3c0e <test_float1+0xce>
    3bf6:	eb 40                	jmp    3c38 <test_float1+0xf8>
    3bf8:	83 ec 0c             	sub    $0xc,%esp
    3bfb:	6a 01                	push   $0x1
    3bfd:	e8 ae 75 01 00       	call   1b1b0 <sleep@plt>
    3c02:	a1 28 e0 01 00       	mov    0x1e028,%eax
    3c07:	83 c4 10             	add    $0x10,%esp
    3c0a:	39 d8                	cmp    %ebx,%eax
    3c0c:	73 2a                	jae    3c38 <test_float1+0xf8>
    3c0e:	80 3d 84 df 01 00 00 	cmpb   $0x0,0x1df84
    3c15:	75 e1                	jne    3bf8 <test_float1+0xb8>
    3c17:	a1 28 e0 01 00       	mov    0x1e028,%eax
    3c1c:	52                   	push   %edx
    3c1d:	89 da                	mov    %ebx,%edx
    3c1f:	8b 0d 60 df 01 00    	mov    0x1df60,%ecx
    3c25:	29 c2                	sub    %eax,%edx
    3c27:	52                   	push   %edx
    3c28:	68 de 76 01 00       	push   $0x176de
    3c2d:	51                   	push   %ecx
    3c2e:	e8 fd 76 01 00       	call   1b330 <fprintf@plt>
    3c33:	83 c4 10             	add    $0x10,%esp
    3c36:	eb c0                	jmp    3bf8 <test_float1+0xb8>
    3c38:	a1 24 e0 01 00       	mov    0x1e024,%eax
    3c3d:	85 c0                	test   %eax,%eax
    3c3f:	74 49                	je     3c8a <test_float1+0x14a>
    3c41:	b8 b3 90 01 00       	mov    $0x190b3,%eax
    3c46:	8b 5d fc             	mov    -0x4(%ebp),%ebx
    3c49:	c9                   	leave  
    3c4a:	c3                   	ret    
    3c4b:	90                   	nop
    3c4c:	8d 74 26 00          	lea    0x0(%esi,%eiz,1),%esi
    3c50:	8b 0d 60 df 01 00    	mov    0x1df60,%ecx
    3c56:	52                   	push   %edx
    3c57:	52                   	push   %edx
    3c58:	68 a5 76 01 00       	push   $0x176a5
    3c5d:	51                   	push   %ecx
    3c5e:	e8 cd 76 01 00       	call   1b330 <fprintf@plt>
    3c63:	83 c4 10             	add    $0x10,%esp
    3c66:	e9 fb fe ff ff       	jmp    3b66 <test_float1+0x26>
    3c6b:	90                   	nop
    3c6c:	8d 74 26 00          	lea    0x0(%esi,%eiz,1),%esi
    3c70:	50                   	push   %eax
    3c71:	a1 60 df 01 00       	mov    0x1df60,%eax
    3c76:	53                   	push   %ebx
    3c77:	68 c1 76 01 00       	push   $0x176c1
    3c7c:	50                   	push   %eax
    3c7d:	e8 ae 76 01 00       	call   1b330 <fprintf@plt>
    3c82:	83 c4 10             	add    $0x10,%esp
    3c85:	e9 36 ff ff ff       	jmp    3bc0 <test_float1+0x80>
    3c8a:	31 c0                	xor    %eax,%eax
    3c8c:	8b 5d fc             	mov    -0x4(%ebp),%ebx
    3c8f:	c9                   	leave  
    3c90:	c3                   	ret    
    3c91:	66 90                	xchg   %ax,%ax
    3c93:	66 90                	xchg   %ax,%ax
    3c95:	66 90                	xchg   %ax,%ax
    3c97:	66 90                	xchg   %ax,%ax
    3c99:	66 90                	xchg   %ax,%ax
    3c9b:	66 90                	xchg   %ax,%ax
    3c9d:	66 90                	xchg   %ax,%ax
    3c9f:	90                   	nop

00003ca0 <test_float2>:
    3ca0:	55                   	push   %ebp
    3ca1:	89 e5                	mov    %esp,%ebp
    3ca3:	56                   	push   %esi
    3ca4:	53                   	push   %ebx
    3ca5:	31 f6                	xor    %esi,%esi
    3ca7:	83 ec 10             	sub    $0x10,%esp
    3caa:	31 db                	xor    %ebx,%ebx
    3cac:	eb 30                	jmp    3cde <test_float2+0x3e>
    3cae:	66 90                	xchg   %ax,%ax
    3cb0:	dd 05 10 9e 01 00    	fldl   0x19e10
    3cb6:	da e9                	fucompp 
    3cb8:	df e0                	fnstsw %ax
    3cba:	f6 c4 45             	test   $0x45,%ah
    3cbd:	74 11                	je     3cd0 <test_float2+0x30>
    3cbf:	8a 1d 84 df 01 00    	mov    0x1df84,%bl
    3cc5:	84 db                	test   %bl,%bl
    3cc7:	74 7f                	je     3d48 <test_float2+0xa8>
    3cc9:	dd d8                	fstp   %st(0)
    3ccb:	dd d8                	fstp   %st(0)
    3ccd:	eb 05                	jmp    3cd4 <test_float2+0x34>
    3ccf:	90                   	nop
    3cd0:	dd d8                	fstp   %st(0)
    3cd2:	dd d8                	fstp   %st(0)
    3cd4:	46                   	inc    %esi
    3cd5:	83 fe 0a             	cmp    $0xa,%esi
    3cd8:	0f 84 9a 00 00 00    	je     3d78 <test_float2+0xd8>
    3cde:	8b 04 f5 00 9d 01 00 	mov    0x19d00(,%esi,8),%eax
    3ce5:	8b 0c f5 04 9d 01 00 	mov    0x19d04(,%esi,8),%ecx
    3cec:	52                   	push   %edx
    3ced:	52                   	push   %edx
    3cee:	51                   	push   %ecx
    3cef:	50                   	push   %eax
    3cf0:	e8 8b 74 01 00       	call   1b180 <float64_atan@plt>
    3cf5:	83 c4 10             	add    $0x10,%esp
    3cf8:	dd 04 f5 40 9c 01 00 	fldl   0x19c40(,%esi,8)
    3cff:	dd 05 10 9e 01 00    	fldl   0x19e10
    3d05:	dd e9                	fucomp %st(1)
    3d07:	df e0                	fnstsw %ax
    3d09:	f6 c4 45             	test   $0x45,%ah
    3d0c:	75 17                	jne    3d25 <test_float2+0x85>
    3d0e:	dd 05 18 9e 01 00    	fldl   0x19e18
    3d14:	d9 c9                	fxch   %st(1)
    3d16:	dd e1                	fucom  %st(1)
    3d18:	df e0                	fnstsw %ax
    3d1a:	dd d9                	fstp   %st(1)
    3d1c:	d9 c1                	fld    %st(1)
    3d1e:	f6 c4 45             	test   $0x45,%ah
    3d21:	74 0c                	je     3d2f <test_float2+0x8f>
    3d23:	dd d8                	fstp   %st(0)
    3d25:	d9 c1                	fld    %st(1)
    3d27:	d8 f1                	fdiv   %st(1),%st
    3d29:	d8 25 30 9e 01 00    	fsubs  0x19e30
    3d2f:	d9 ee                	fldz   
    3d31:	dd e9                	fucomp %st(1)
    3d33:	df e0                	fnstsw %ax
    3d35:	f6 c4 45             	test   $0x45,%ah
    3d38:	0f 85 72 ff ff ff    	jne    3cb0 <test_float2+0x10>
    3d3e:	d9 e0                	fchs   
    3d40:	e9 6b ff ff ff       	jmp    3cb0 <test_float2+0x10>
    3d45:	8d 76 00             	lea    0x0(%esi),%esi
    3d48:	50                   	push   %eax
    3d49:	56                   	push   %esi
    3d4a:	83 ec 10             	sub    $0x10,%esp
    3d4d:	a1 60 df 01 00       	mov    0x1df60,%eax
    3d52:	46                   	inc    %esi
    3d53:	b3 01                	mov    $0x1,%bl
    3d55:	dd 5c 24 08          	fstpl  0x8(%esp)
    3d59:	dd 1c 24             	fstpl  (%esp)
    3d5c:	68 e0 90 01 00       	push   $0x190e0
    3d61:	50                   	push   %eax
    3d62:	e8 c9 75 01 00       	call   1b330 <fprintf@plt>
    3d67:	83 c4 20             	add    $0x20,%esp
    3d6a:	83 fe 0a             	cmp    $0xa,%esi
    3d6d:	0f 85 6b ff ff ff    	jne    3cde <test_float2+0x3e>
    3d73:	90                   	nop
    3d74:	8d 74 26 00          	lea    0x0(%esi,%eiz,1),%esi
    3d78:	31 f6                	xor    %esi,%esi
    3d7a:	eb 3a                	jmp    3db6 <test_float2+0x116>
    3d7c:	8d 74 26 00          	lea    0x0(%esi,%eiz,1),%esi
    3d80:	dd 05 20 9e 01 00    	fldl   0x19e20
    3d86:	da e9                	fucompp 
    3d88:	df e0                	fnstsw %ax
    3d8a:	f6 c4 45             	test   $0x45,%ah
    3d8d:	74 19                	je     3da8 <test_float2+0x108>
    3d8f:	8a 1d 84 df 01 00    	mov    0x1df84,%bl
    3d95:	84 db                	test   %bl,%bl
    3d97:	0f 84 93 00 00 00    	je     3e30 <test_float2+0x190>
    3d9d:	dd d8                	fstp   %st(0)
    3d9f:	dd d8                	fstp   %st(0)
    3da1:	eb 09                	jmp    3dac <test_float2+0x10c>
    3da3:	90                   	nop
    3da4:	8d 74 26 00          	lea    0x0(%esi,%eiz,1),%esi
    3da8:	dd d8                	fstp   %st(0)
    3daa:	dd d8                	fstp   %st(0)
    3dac:	46                   	inc    %esi
    3dad:	83 fe 0a             	cmp    $0xa,%esi
    3db0:	0f 84 aa 00 00 00    	je     3e60 <test_float2+0x1c0>
    3db6:	dd 04 f5 00 9d 01 00 	fldl   0x19d00(,%esi,8)
    3dbd:	83 ec 10             	sub    $0x10,%esp
    3dc0:	d9 5d f4             	fstps  -0xc(%ebp)
    3dc3:	d9 45 f4             	flds   -0xc(%ebp)
    3dc6:	d9 1c 24             	fstps  (%esp)
    3dc9:	e8 a2 75 01 00       	call   1b370 <float32_atan@plt>
    3dce:	83 c4 10             	add    $0x10,%esp
    3dd1:	dd 04 f5 40 9c 01 00 	fldl   0x19c40(,%esi,8)
    3dd8:	d9 55 f4             	fsts   -0xc(%ebp)
    3ddb:	d9 45 f4             	flds   -0xc(%ebp)
    3dde:	d9 c0                	fld    %st(0)
    3de0:	dd 05 20 9e 01 00    	fldl   0x19e20
    3de6:	dd e9                	fucomp %st(1)
    3de8:	df e0                	fnstsw %ax
    3dea:	f6 c4 45             	test   $0x45,%ah
    3ded:	75 19                	jne    3e08 <test_float2+0x168>
    3def:	dd 05 28 9e 01 00    	fldl   0x19e28
    3df5:	d9 c9                	fxch   %st(1)
    3df7:	da e9                	fucompp 
    3df9:	df e0                	fnstsw %ax
    3dfb:	d9 c2                	fld    %st(2)
    3dfd:	f6 c4 45             	test   $0x45,%ah
    3e00:	74 16                	je     3e18 <test_float2+0x178>
    3e02:	dd d8                	fstp   %st(0)
    3e04:	eb 04                	jmp    3e0a <test_float2+0x16a>
    3e06:	66 90                	xchg   %ax,%ax
    3e08:	dd d8                	fstp   %st(0)
    3e0a:	d8 fa                	fdivr  %st(2),%st
    3e0c:	d9 e8                	fld1   
    3e0e:	de e9                	fsubrp %st,%st(1)
    3e10:	eb 08                	jmp    3e1a <test_float2+0x17a>
    3e12:	8d b6 00 00 00 00    	lea    0x0(%esi),%esi
    3e18:	dd d9                	fstp   %st(1)
    3e1a:	d9 ee                	fldz   
    3e1c:	dd e9                	fucomp %st(1)
    3e1e:	df e0                	fnstsw %ax
    3e20:	f6 c4 45             	test   $0x45,%ah
    3e23:	0f 85 57 ff ff ff    	jne    3d80 <test_float2+0xe0>
    3e29:	d9 e0                	fchs   
    3e2b:	e9 50 ff ff ff       	jmp    3d80 <test_float2+0xe0>
    3e30:	50                   	push   %eax
    3e31:	56                   	push   %esi
    3e32:	83 ec 10             	sub    $0x10,%esp
    3e35:	a1 60 df 01 00       	mov    0x1df60,%eax
    3e3a:	46                   	inc    %esi
    3e3b:	b3 01                	mov    $0x1,%bl
    3e3d:	dd 5c 24 08          	fstpl  0x8(%esp)
    3e41:	dd 1c 24             	fstpl  (%esp)
    3e44:	68 1c 91 01 00       	push   $0x1911c
    3e49:	50                   	push   %eax
    3e4a:	e8 e1 74 01 00       	call   1b330 <fprintf@plt>
    3e4f:	83 c4 20             	add    $0x20,%esp
    3e52:	83 fe 0a             	cmp    $0xa,%esi
    3e55:	0f 85 5b ff ff ff    	jne    3db6 <test_float2+0x116>
    3e5b:	90                   	nop
    3e5c:	8d 74 26 00          	lea    0x0(%esi,%eiz,1),%esi
    3e60:	31 f6                	xor    %esi,%esi
    3e62:	eb 32                	jmp    3e96 <test_float2+0x1f6>
    3e64:	8d 74 26 00          	lea    0x0(%esi,%eiz,1),%esi
    3e68:	dd 05 10 9e 01 00    	fldl   0x19e10
    3e6e:	da e9                	fucompp 
    3e70:	df e0                	fnstsw %ax
    3e72:	f6 c4 45             	test   $0x45,%ah
    3e75:	74 11                	je     3e88 <test_float2+0x1e8>
    3e77:	8a 1d 84 df 01 00    	mov    0x1df84,%bl
    3e7d:	84 db                	test   %bl,%bl
    3e7f:	74 7f                	je     3f00 <test_float2+0x260>
    3e81:	dd d8                	fstp   %st(0)
    3e83:	dd d8                	fstp   %st(0)
    3e85:	eb 05                	jmp    3e8c <test_float2+0x1ec>
    3e87:	90                   	nop
    3e88:	dd d8                	fstp   %st(0)
    3e8a:	dd d8                	fstp   %st(0)
    3e8c:	46                   	inc    %esi
    3e8d:	83 fe 0a             	cmp    $0xa,%esi
    3e90:	0f 84 9a 00 00 00    	je     3f30 <test_float2+0x290>
    3e96:	8b 04 f5 c4 9d 01 00 	mov    0x19dc4(,%esi,8),%eax
    3e9d:	51                   	push   %ecx
    3e9e:	51                   	push   %ecx
    3e9f:	50                   	push   %eax
    3ea0:	8b 04 f5 c0 9d 01 00 	mov    0x19dc0(,%esi,8),%eax
    3ea7:	50                   	push   %eax
    3ea8:	e8 03 77 01 00       	call   1b5b0 <float64_ceil@plt>
    3ead:	dd 04 f5 e0 9b 01 00 	fldl   0x19be0(,%esi,8)
    3eb4:	dd 05 10 9e 01 00    	fldl   0x19e10
    3eba:	83 c4 10             	add    $0x10,%esp
    3ebd:	dd e9                	fucomp %st(1)
    3ebf:	df e0                	fnstsw %ax
    3ec1:	f6 c4 45             	test   $0x45,%ah
    3ec4:	75 17                	jne    3edd <test_float2+0x23d>
    3ec6:	dd 05 18 9e 01 00    	fldl   0x19e18
    3ecc:	d9 c9                	fxch   %st(1)
    3ece:	dd e1                	fucom  %st(1)
    3ed0:	df e0                	fnstsw %ax
    3ed2:	dd d9                	fstp   %st(1)
    3ed4:	d9 c1                	fld    %st(1)
    3ed6:	f6 c4 45             	test   $0x45,%ah
    3ed9:	74 0c                	je     3ee7 <test_float2+0x247>
    3edb:	dd d8                	fstp   %st(0)
    3edd:	d9 c1                	fld    %st(1)
    3edf:	d8 f1                	fdiv   %st(1),%st
    3ee1:	d8 25 30 9e 01 00    	fsubs  0x19e30
    3ee7:	d9 ee                	fldz   
    3ee9:	dd e9                	fucomp %st(1)
    3eeb:	df e0                	fnstsw %ax
    3eed:	f6 c4 45             	test   $0x45,%ah
    3ef0:	0f 85 72 ff ff ff    	jne    3e68 <test_float2+0x1c8>
    3ef6:	d9 e0                	fchs   
    3ef8:	e9 6b ff ff ff       	jmp    3e68 <test_float2+0x1c8>
    3efd:	8d 76 00             	lea    0x0(%esi),%esi
    3f00:	50                   	push   %eax
    3f01:	56                   	push   %esi
    3f02:	83 ec 10             	sub    $0x10,%esp
    3f05:	8b 15 60 df 01 00    	mov    0x1df60,%edx
    3f0b:	46                   	inc    %esi
    3f0c:	b3 01                	mov    $0x1,%bl
    3f0e:	dd 5c 24 08          	fstpl  0x8(%esp)
    3f12:	dd 1c 24             	fstpl  (%esp)
    3f15:	68 50 91 01 00       	push   $0x19150
    3f1a:	52                   	push   %edx
    3f1b:	e8 10 74 01 00       	call   1b330 <fprintf@plt>
    3f20:	83 c4 20             	add    $0x20,%esp
    3f23:	83 fe 0a             	cmp    $0xa,%esi
    3f26:	0f 85 6a ff ff ff    	jne    3e96 <test_float2+0x1f6>
    3f2c:	8d 74 26 00          	lea    0x0(%esi,%eiz,1),%esi
    3f30:	31 f6                	xor    %esi,%esi
    3f32:	eb 3a                	jmp    3f6e <test_float2+0x2ce>
    3f34:	8d 74 26 00          	lea    0x0(%esi,%eiz,1),%esi
    3f38:	dd 05 20 9e 01 00    	fldl   0x19e20
    3f3e:	da e9                	fucompp 
    3f40:	df e0                	fnstsw %ax
    3f42:	f6 c4 45             	test   $0x45,%ah
    3f45:	74 19                	je     3f60 <test_float2+0x2c0>
    3f47:	8a 1d 84 df 01 00    	mov    0x1df84,%bl
    3f4d:	84 db                	test   %bl,%bl
    3f4f:	0f 84 93 00 00 00    	je     3fe8 <test_float2+0x348>
    3f55:	dd d8                	fstp   %st(0)
    3f57:	dd d8                	fstp   %st(0)
    3f59:	eb 09                	jmp    3f64 <test_float2+0x2c4>
    3f5b:	90                   	nop
    3f5c:	8d 74 26 00          	lea    0x0(%esi,%eiz,1),%esi
    3f60:	dd d8                	fstp   %st(0)
    3f62:	dd d8                	fstp   %st(0)
    3f64:	46                   	inc    %esi
    3f65:	83 fe 0a             	cmp    $0xa,%esi
    3f68:	0f 84 aa 00 00 00    	je     4018 <test_float2+0x378>
    3f6e:	dd 04 f5 c0 9d 01 00 	fldl   0x19dc0(,%esi,8)
    3f75:	83 ec 10             	sub    $0x10,%esp
    3f78:	d9 5d f4             	fstps  -0xc(%ebp)
    3f7b:	d9 45 f4             	flds   -0xc(%ebp)
    3f7e:	d9 1c 24             	fstps  (%esp)
    3f81:	e8 7a 71 01 00       	call   1b100 <float32_ceil@plt>
    3f86:	83 c4 10             	add    $0x10,%esp
    3f89:	dd 04 f5 e0 9b 01 00 	fldl   0x19be0(,%esi,8)
    3f90:	d9 55 f4             	fsts   -0xc(%ebp)
    3f93:	d9 45 f4             	flds   -0xc(%ebp)
    3f96:	d9 c0                	fld    %st(0)
    3f98:	dd 05 20 9e 01 00    	fldl   0x19e20
    3f9e:	dd e9                	fucomp %st(1)
    3fa0:	df e0                	fnstsw %ax
    3fa2:	f6 c4 45             	test   $0x45,%ah
    3fa5:	75 19                	jne    3fc0 <test_float2+0x320>
    3fa7:	dd 05 28 9e 01 00    	fldl   0x19e28
    3fad:	d9 c9                	fxch   %st(1)
    3faf:	da e9                	fucompp 
    3fb1:	df e0                	fnstsw %ax
    3fb3:	d9 c2                	fld    %st(2)
    3fb5:	f6 c4 45             	test   $0x45,%ah
    3fb8:	74 16                	je     3fd0 <test_float2+0x330>
    3fba:	dd d8                	fstp   %st(0)
    3fbc:	eb 04                	jmp    3fc2 <test_float2+0x322>
    3fbe:	66 90                	xchg   %ax,%ax
    3fc0:	dd d8                	fstp   %st(0)
    3fc2:	d8 fa                	fdivr  %st(2),%st
    3fc4:	d9 e8                	fld1   
    3fc6:	de e9                	fsubrp %st,%st(1)
    3fc8:	eb 08                	jmp    3fd2 <test_float2+0x332>
    3fca:	8d b6 00 00 00 00    	lea    0x0(%esi),%esi
    3fd0:	dd d9                	fstp   %st(1)
    3fd2:	d9 ee                	fldz   
    3fd4:	dd e9                	fucomp %st(1)
    3fd6:	df e0                	fnstsw %ax
    3fd8:	f6 c4 45             	test   $0x45,%ah
    3fdb:	0f 85 57 ff ff ff    	jne    3f38 <test_float2+0x298>
    3fe1:	d9 e0                	fchs   
    3fe3:	e9 50 ff ff ff       	jmp    3f38 <test_float2+0x298>
    3fe8:	50                   	push   %eax
    3fe9:	56                   	push   %esi
    3fea:	83 ec 10             	sub    $0x10,%esp
    3fed:	a1 60 df 01 00       	mov    0x1df60,%eax
    3ff2:	46                   	inc    %esi
    3ff3:	b3 01                	mov    $0x1,%bl
    3ff5:	dd 5c 24 08          	fstpl  0x8(%esp)
    3ff9:	dd 1c 24             	fstpl  (%esp)
    3ffc:	68 84 91 01 00       	push   $0x19184
    4001:	50                   	push   %eax
    4002:	e8 29 73 01 00       	call   1b330 <fprintf@plt>
    4007:	83 c4 20             	add    $0x20,%esp
    400a:	83 fe 0a             	cmp    $0xa,%esi
    400d:	0f 85 5b ff ff ff    	jne    3f6e <test_float2+0x2ce>
    4013:	90                   	nop
    4014:	8d 74 26 00          	lea    0x0(%esi,%eiz,1),%esi
    4018:	31 f6                	xor    %esi,%esi
    401a:	eb 32                	jmp    404e <test_float2+0x3ae>
    401c:	8d 74 26 00          	lea    0x0(%esi,%eiz,1),%esi
    4020:	dd 05 10 9e 01 00    	fldl   0x19e10
    4026:	da e9                	fucompp 
    4028:	df e0                	fnstsw %ax
    402a:	f6 c4 45             	test   $0x45,%ah
    402d:	74 11                	je     4040 <test_float2+0x3a0>
    402f:	8a 1d 84 df 01 00    	mov    0x1df84,%bl
    4035:	84 db                	test   %bl,%bl
    4037:	74 7f                	je     40b8 <test_float2+0x418>
    4039:	dd d8                	fstp   %st(0)
    403b:	dd d8                	fstp   %st(0)
    403d:	eb 05                	jmp    4044 <test_float2+0x3a4>
    403f:	90                   	nop
    4040:	dd d8                	fstp   %st(0)
    4042:	dd d8                	fstp   %st(0)
    4044:	46                   	inc    %esi
    4045:	83 fe 0a             	cmp    $0xa,%esi
    4048:	0f 84 9a 00 00 00    	je     40e8 <test_float2+0x448>
    404e:	50                   	push   %eax
    404f:	50                   	push   %eax
    4050:	8b 04 f5 c4 9d 01 00 	mov    0x19dc4(,%esi,8),%eax
    4057:	50                   	push   %eax
    4058:	8b 04 f5 c0 9d 01 00 	mov    0x19dc0(,%esi,8),%eax
    405f:	50                   	push   %eax
    4060:	e8 cb 6f 01 00       	call   1b030 <cos_f64@plt>
    4065:	dd 04 f5 80 9b 01 00 	fldl   0x19b80(,%esi,8)
    406c:	dd 05 10 9e 01 00    	fldl   0x19e10
    4072:	83 c4 10             	add    $0x10,%esp
    4075:	dd e9                	fucomp %st(1)
    4077:	df e0                	fnstsw %ax
    4079:	f6 c4 45             	test   $0x45,%ah
    407c:	75 17                	jne    4095 <test_float2+0x3f5>
    407e:	dd 05 18 9e 01 00    	fldl   0x19e18
    4084:	d9 c9                	fxch   %st(1)
    4086:	dd e1                	fucom  %st(1)
    4088:	df e0                	fnstsw %ax
    408a:	dd d9                	fstp   %st(1)
    408c:	d9 c1                	fld    %st(1)
    408e:	f6 c4 45             	test   $0x45,%ah
    4091:	74 0c                	je     409f <test_float2+0x3ff>
    4093:	dd d8                	fstp   %st(0)
    4095:	d9 c1                	fld    %st(1)
    4097:	d8 f1                	fdiv   %st(1),%st
    4099:	d8 25 30 9e 01 00    	fsubs  0x19e30
    409f:	d9 ee                	fldz   
    40a1:	dd e9                	fucomp %st(1)
    40a3:	df e0                	fnstsw %ax
    40a5:	f6 c4 45             	test   $0x45,%ah
    40a8:	0f 85 72 ff ff ff    	jne    4020 <test_float2+0x380>
    40ae:	d9 e0                	fchs   
    40b0:	e9 6b ff ff ff       	jmp    4020 <test_float2+0x380>
    40b5:	8d 76 00             	lea    0x0(%esi),%esi
    40b8:	52                   	push   %edx
    40b9:	56                   	push   %esi
    40ba:	83 ec 10             	sub    $0x10,%esp
    40bd:	8b 0d 60 df 01 00    	mov    0x1df60,%ecx
    40c3:	46                   	inc    %esi
    40c4:	b3 01                	mov    $0x1,%bl
    40c6:	dd 5c 24 08          	fstpl  0x8(%esp)
    40ca:	dd 1c 24             	fstpl  (%esp)
    40cd:	68 b8 91 01 00       	push   $0x191b8
    40d2:	51                   	push   %ecx
    40d3:	e8 58 72 01 00       	call   1b330 <fprintf@plt>
    40d8:	83 c4 20             	add    $0x20,%esp
    40db:	83 fe 0a             	cmp    $0xa,%esi
    40de:	0f 85 6a ff ff ff    	jne    404e <test_float2+0x3ae>
    40e4:	8d 74 26 00          	lea    0x0(%esi,%eiz,1),%esi
    40e8:	31 f6                	xor    %esi,%esi
    40ea:	eb 3a                	jmp    4126 <test_float2+0x486>
    40ec:	8d 74 26 00          	lea    0x0(%esi,%eiz,1),%esi
    40f0:	dd 05 20 9e 01 00    	fldl   0x19e20
    40f6:	da e9                	fucompp 
    40f8:	df e0                	fnstsw %ax
    40fa:	f6 c4 45             	test   $0x45,%ah
    40fd:	74 19                	je     4118 <test_float2+0x478>
    40ff:	8a 1d 84 df 01 00    	mov    0x1df84,%bl
    4105:	84 db                	test   %bl,%bl
    4107:	0f 84 9b 00 00 00    	je     41a8 <test_float2+0x508>
    410d:	dd d8                	fstp   %st(0)
    410f:	dd d8                	fstp   %st(0)
    4111:	eb 09                	jmp    411c <test_float2+0x47c>
    4113:	90                   	nop
    4114:	8d 74 26 00          	lea    0x0(%esi,%eiz,1),%esi
    4118:	dd d8                	fstp   %st(0)
    411a:	dd d8                	fstp   %st(0)
    411c:	46                   	inc    %esi
    411d:	83 fe 0a             	cmp    $0xa,%esi
    4120:	0f 84 b2 00 00 00    	je     41d8 <test_float2+0x538>
    4126:	dd 04 f5 c0 9d 01 00 	fldl   0x19dc0(,%esi,8)
    412d:	83 ec 10             	sub    $0x10,%esp
    4130:	d9 5d f4             	fstps  -0xc(%ebp)
    4133:	d9 45 f4             	flds   -0xc(%ebp)
    4136:	dd 1c 24             	fstpl  (%esp)
    4139:	e8 f2 6e 01 00       	call   1b030 <cos_f64@plt>
    413e:	83 c4 10             	add    $0x10,%esp
    4141:	d9 5d f4             	fstps  -0xc(%ebp)
    4144:	d9 45 f4             	flds   -0xc(%ebp)
    4147:	dd 04 f5 80 9b 01 00 	fldl   0x19b80(,%esi,8)
    414e:	d9 55 f4             	fsts   -0xc(%ebp)
    4151:	d9 45 f4             	flds   -0xc(%ebp)
    4154:	d9 c0                	fld    %st(0)
    4156:	dd 05 20 9e 01 00    	fldl   0x19e20
    415c:	dd e9                	fucomp %st(1)
    415e:	df e0                	fnstsw %ax
    4160:	f6 c4 45             	test   $0x45,%ah
    4163:	75 1b                	jne    4180 <test_float2+0x4e0>
    4165:	dd 05 28 9e 01 00    	fldl   0x19e28
    416b:	d9 c9                	fxch   %st(1)
    416d:	da e9                	fucompp 
    416f:	df e0                	fnstsw %ax
    4171:	d9 c2                	fld    %st(2)
    4173:	f6 c4 45             	test   $0x45,%ah
    4176:	74 18                	je     4190 <test_float2+0x4f0>
    4178:	dd d8                	fstp   %st(0)
    417a:	eb 06                	jmp    4182 <test_float2+0x4e2>
    417c:	8d 74 26 00          	lea    0x0(%esi,%eiz,1),%esi
    4180:	dd d8                	fstp   %st(0)
    4182:	d8 fa                	fdivr  %st(2),%st
    4184:	d9 e8                	fld1   
    4186:	de e9                	fsubrp %st,%st(1)
    4188:	eb 08                	jmp    4192 <test_float2+0x4f2>
    418a:	8d b6 00 00 00 00    	lea    0x0(%esi),%esi
    4190:	dd d9                	fstp   %st(1)
    4192:	d9 ee                	fldz   
    4194:	dd e9                	fucomp %st(1)
    4196:	df e0                	fnstsw %ax
    4198:	f6 c4 45             	test   $0x45,%ah
    419b:	0f 85 4f ff ff ff    	jne    40f0 <test_float2+0x450>
    41a1:	d9 e0                	fchs   
    41a3:	e9 48 ff ff ff       	jmp    40f0 <test_float2+0x450>
    41a8:	50                   	push   %eax
    41a9:	56                   	push   %esi
    41aa:	83 ec 10             	sub    $0x10,%esp
    41ad:	a1 60 df 01 00       	mov    0x1df60,%eax
    41b2:	46                   	inc    %esi
    41b3:	b3 01                	mov    $0x1,%bl
    41b5:	dd 5c 24 08          	fstpl  0x8(%esp)
    41b9:	dd 1c 24             	fstpl  (%esp)
    41bc:	68 ec 91 01 00       	push   $0x191ec
    41c1:	50                   	push   %eax
    41c2:	e8 69 71 01 00       	call   1b330 <fprintf@plt>
    41c7:	83 c4 20             	add    $0x20,%esp
    41ca:	83 fe 0a             	cmp    $0xa,%esi
    41cd:	0f 85 53 ff ff ff    	jne    4126 <test_float2+0x486>
    41d3:	90                   	nop
    41d4:	8d 74 26 00          	lea    0x0(%esi,%eiz,1),%esi
    41d8:	31 f6                	xor    %esi,%esi
    41da:	eb 32                	jmp    420e <test_float2+0x56e>
    41dc:	8d 74 26 00          	lea    0x0(%esi,%eiz,1),%esi
    41e0:	dd 05 10 9e 01 00    	fldl   0x19e10
    41e6:	da e9                	fucompp 
    41e8:	df e0                	fnstsw %ax
    41ea:	f6 c4 45             	test   $0x45,%ah
    41ed:	74 11                	je     4200 <test_float2+0x560>
    41ef:	8a 1d 84 df 01 00    	mov    0x1df84,%bl
    41f5:	84 db                	test   %bl,%bl
    41f7:	74 7f                	je     4278 <test_float2+0x5d8>
    41f9:	dd d8                	fstp   %st(0)
    41fb:	dd d8                	fstp   %st(0)
    41fd:	eb 05                	jmp    4204 <test_float2+0x564>
    41ff:	90                   	nop
    4200:	dd d8                	fstp   %st(0)
    4202:	dd d8                	fstp   %st(0)
    4204:	46                   	inc    %esi
    4205:	83 fe 0a             	cmp    $0xa,%esi
    4208:	0f 84 9a 00 00 00    	je     42a8 <test_float2+0x608>
    420e:	50                   	push   %eax
    420f:	50                   	push   %eax
    4210:	8b 04 f5 64 9d 01 00 	mov    0x19d64(,%esi,8),%eax
    4217:	50                   	push   %eax
    4218:	8b 04 f5 60 9d 01 00 	mov    0x19d60(,%esi,8),%eax
    421f:	50                   	push   %eax
    4220:	e8 bb 73 01 00       	call   1b5e0 <float64_cosh@plt>
    4225:	dd 04 f5 20 9b 01 00 	fldl   0x19b20(,%esi,8)
    422c:	dd 05 10 9e 01 00    	fldl   0x19e10
    4232:	83 c4 10             	add    $0x10,%esp
    4235:	dd e9                	fucomp %st(1)
    4237:	df e0                	fnstsw %ax
    4239:	f6 c4 45             	test   $0x45,%ah
    423c:	75 17                	jne    4255 <test_float2+0x5b5>
    423e:	dd 05 18 9e 01 00    	fldl   0x19e18
    4244:	d9 c9                	fxch   %st(1)
    4246:	dd e1                	fucom  %st(1)
    4248:	df e0                	fnstsw %ax
    424a:	dd d9                	fstp   %st(1)
    424c:	d9 c1                	fld    %st(1)
    424e:	f6 c4 45             	test   $0x45,%ah
    4251:	74 0c                	je     425f <test_float2+0x5bf>
    4253:	dd d8                	fstp   %st(0)
    4255:	d9 c1                	fld    %st(1)
    4257:	d8 f1                	fdiv   %st(1),%st
    4259:	d8 25 30 9e 01 00    	fsubs  0x19e30
    425f:	d9 ee                	fldz   
    4261:	dd e9                	fucomp %st(1)
    4263:	df e0                	fnstsw %ax
    4265:	f6 c4 45             	test   $0x45,%ah
    4268:	0f 85 72 ff ff ff    	jne    41e0 <test_float2+0x540>
    426e:	d9 e0                	fchs   
    4270:	e9 6b ff ff ff       	jmp    41e0 <test_float2+0x540>
    4275:	8d 76 00             	lea    0x0(%esi),%esi
    4278:	53                   	push   %ebx
    4279:	56                   	push   %esi
    427a:	83 ec 10             	sub    $0x10,%esp
    427d:	a1 60 df 01 00       	mov    0x1df60,%eax
    4282:	46                   	inc    %esi
    4283:	b3 01                	mov    $0x1,%bl
    4285:	dd 5c 24 08          	fstpl  0x8(%esp)
    4289:	dd 1c 24             	fstpl  (%esp)
    428c:	68 20 92 01 00       	push   $0x19220
    4291:	50                   	push   %eax
    4292:	e8 99 70 01 00       	call   1b330 <fprintf@plt>
    4297:	83 c4 20             	add    $0x20,%esp
    429a:	83 fe 0a             	cmp    $0xa,%esi
    429d:	0f 85 6b ff ff ff    	jne    420e <test_float2+0x56e>
    42a3:	90                   	nop
    42a4:	8d 74 26 00          	lea    0x0(%esi,%eiz,1),%esi
    42a8:	31 f6                	xor    %esi,%esi
    42aa:	eb 3a                	jmp    42e6 <test_float2+0x646>
    42ac:	8d 74 26 00          	lea    0x0(%esi,%eiz,1),%esi
    42b0:	dd 05 20 9e 01 00    	fldl   0x19e20
    42b6:	da e9                	fucompp 
    42b8:	df e0                	fnstsw %ax
    42ba:	f6 c4 45             	test   $0x45,%ah
    42bd:	74 19                	je     42d8 <test_float2+0x638>
    42bf:	8a 1d 84 df 01 00    	mov    0x1df84,%bl
    42c5:	84 db                	test   %bl,%bl
    42c7:	0f 84 93 00 00 00    	je     4360 <test_float2+0x6c0>
    42cd:	dd d8                	fstp   %st(0)
    42cf:	dd d8                	fstp   %st(0)
    42d1:	eb 09                	jmp    42dc <test_float2+0x63c>
    42d3:	90                   	nop
    42d4:	8d 74 26 00          	lea    0x0(%esi,%eiz,1),%esi
    42d8:	dd d8                	fstp   %st(0)
    42da:	dd d8                	fstp   %st(0)
    42dc:	46                   	inc    %esi
    42dd:	83 fe 0a             	cmp    $0xa,%esi
    42e0:	0f 84 aa 00 00 00    	je     4390 <test_float2+0x6f0>
    42e6:	dd 04 f5 60 9d 01 00 	fldl   0x19d60(,%esi,8)
    42ed:	83 ec 10             	sub    $0x10,%esp
    42f0:	d9 5d f4             	fstps  -0xc(%ebp)
    42f3:	d9 45 f4             	flds   -0xc(%ebp)
    42f6:	d9 1c 24             	fstps  (%esp)
    42f9:	e8 92 6e 01 00       	call   1b190 <float32_cosh@plt>
    42fe:	83 c4 10             	add    $0x10,%esp
    4301:	dd 04 f5 20 9b 01 00 	fldl   0x19b20(,%esi,8)
    4308:	d9 55 f4             	fsts   -0xc(%ebp)
    430b:	d9 45 f4             	flds   -0xc(%ebp)
    430e:	d9 c0                	fld    %st(0)
    4310:	dd 05 20 9e 01 00    	fldl   0x19e20
    4316:	dd e9                	fucomp %st(1)
    4318:	df e0                	fnstsw %ax
    431a:	f6 c4 45             	test   $0x45,%ah
    431d:	75 19                	jne    4338 <test_float2+0x698>
    431f:	dd 05 28 9e 01 00    	fldl   0x19e28
    4325:	d9 c9                	fxch   %st(1)
    4327:	da e9                	fucompp 
    4329:	df e0                	fnstsw %ax
    432b:	d9 c2                	fld    %st(2)
    432d:	f6 c4 45             	test   $0x45,%ah
    4330:	74 16                	je     4348 <test_float2+0x6a8>
    4332:	dd d8                	fstp   %st(0)
    4334:	eb 04                	jmp    433a <test_float2+0x69a>
    4336:	66 90                	xchg   %ax,%ax
    4338:	dd d8                	fstp   %st(0)
    433a:	d8 fa                	fdivr  %st(2),%st
    433c:	d9 e8                	fld1   
    433e:	de e9                	fsubrp %st,%st(1)
    4340:	eb 08                	jmp    434a <test_float2+0x6aa>
    4342:	8d b6 00 00 00 00    	lea    0x0(%esi),%esi
    4348:	dd d9                	fstp   %st(1)
    434a:	d9 ee                	fldz   
    434c:	dd e9                	fucomp %st(1)
    434e:	df e0                	fnstsw %ax
    4350:	f6 c4 45             	test   $0x45,%ah
    4353:	0f 85 57 ff ff ff    	jne    42b0 <test_float2+0x610>
    4359:	d9 e0                	fchs   
    435b:	e9 50 ff ff ff       	jmp    42b0 <test_float2+0x610>
    4360:	52                   	push   %edx
    4361:	56                   	push   %esi
    4362:	83 ec 10             	sub    $0x10,%esp
    4365:	8b 0d 60 df 01 00    	mov    0x1df60,%ecx
    436b:	46                   	inc    %esi
    436c:	b3 01                	mov    $0x1,%bl
    436e:	dd 5c 24 08          	fstpl  0x8(%esp)
    4372:	dd 1c 24             	fstpl  (%esp)
    4375:	68 54 92 01 00       	push   $0x19254
    437a:	51                   	push   %ecx
    437b:	e8 b0 6f 01 00       	call   1b330 <fprintf@plt>
    4380:	83 c4 20             	add    $0x20,%esp
    4383:	83 fe 0a             	cmp    $0xa,%esi
    4386:	0f 85 5a ff ff ff    	jne    42e6 <test_float2+0x646>
    438c:	8d 74 26 00          	lea    0x0(%esi,%eiz,1),%esi
    4390:	31 f6                	xor    %esi,%esi
    4392:	eb 32                	jmp    43c6 <test_float2+0x726>
    4394:	8d 74 26 00          	lea    0x0(%esi,%eiz,1),%esi
    4398:	dd 05 10 9e 01 00    	fldl   0x19e10
    439e:	da e9                	fucompp 
    43a0:	df e0                	fnstsw %ax
    43a2:	f6 c4 45             	test   $0x45,%ah
    43a5:	74 11                	je     43b8 <test_float2+0x718>
    43a7:	8a 1d 84 df 01 00    	mov    0x1df84,%bl
    43ad:	84 db                	test   %bl,%bl
    43af:	74 7f                	je     4430 <test_float2+0x790>
    43b1:	dd d8                	fstp   %st(0)
    43b3:	dd d8                	fstp   %st(0)
    43b5:	eb 05                	jmp    43bc <test_float2+0x71c>
    43b7:	90                   	nop
    43b8:	dd d8                	fstp   %st(0)
    43ba:	dd d8                	fstp   %st(0)
    43bc:	46                   	inc    %esi
    43bd:	83 fe 0a             	cmp    $0xa,%esi
    43c0:	0f 84 9a 00 00 00    	je     4460 <test_float2+0x7c0>
    43c6:	50                   	push   %eax
    43c7:	50                   	push   %eax
    43c8:	8b 04 f5 64 9d 01 00 	mov    0x19d64(,%esi,8),%eax
    43cf:	50                   	push   %eax
    43d0:	8b 04 f5 60 9d 01 00 	mov    0x19d60(,%esi,8),%eax
    43d7:	50                   	push   %eax
    43d8:	e8 43 71 01 00       	call   1b520 <float64_exp@plt>
    43dd:	dd 04 f5 00 9a 01 00 	fldl   0x19a00(,%esi,8)
    43e4:	dd 05 10 9e 01 00    	fldl   0x19e10
    43ea:	83 c4 10             	add    $0x10,%esp
    43ed:	dd e9                	fucomp %st(1)
    43ef:	df e0                	fnstsw %ax
    43f1:	f6 c4 45             	test   $0x45,%ah
    43f4:	75 17                	jne    440d <test_float2+0x76d>
    43f6:	dd 05 18 9e 01 00    	fldl   0x19e18
    43fc:	d9 c9                	fxch   %st(1)
    43fe:	dd e1                	fucom  %st(1)
    4400:	df e0                	fnstsw %ax
    4402:	dd d9                	fstp   %st(1)
    4404:	d9 c1                	fld    %st(1)
    4406:	f6 c4 45             	test   $0x45,%ah
    4409:	74 0c                	je     4417 <test_float2+0x777>
    440b:	dd d8                	fstp   %st(0)
    440d:	d9 c1                	fld    %st(1)
    440f:	d8 f1                	fdiv   %st(1),%st
    4411:	d8 25 30 9e 01 00    	fsubs  0x19e30
    4417:	d9 ee                	fldz   
    4419:	dd e9                	fucomp %st(1)
    441b:	df e0                	fnstsw %ax
    441d:	f6 c4 45             	test   $0x45,%ah
    4420:	0f 85 72 ff ff ff    	jne    4398 <test_float2+0x6f8>
    4426:	d9 e0                	fchs   
    4428:	e9 6b ff ff ff       	jmp    4398 <test_float2+0x6f8>
    442d:	8d 76 00             	lea    0x0(%esi),%esi
    4430:	50                   	push   %eax
    4431:	56                   	push   %esi
    4432:	83 ec 10             	sub    $0x10,%esp
    4435:	a1 60 df 01 00       	mov    0x1df60,%eax
    443a:	46                   	inc    %esi
    443b:	b3 01                	mov    $0x1,%bl
    443d:	dd 5c 24 08          	fstpl  0x8(%esp)
    4441:	dd 1c 24             	fstpl  (%esp)
    4444:	68 88 92 01 00       	push   $0x19288
    4449:	50                   	push   %eax
    444a:	e8 e1 6e 01 00       	call   1b330 <fprintf@plt>
    444f:	83 c4 20             	add    $0x20,%esp
    4452:	83 fe 0a             	cmp    $0xa,%esi
    4455:	0f 85 6b ff ff ff    	jne    43c6 <test_float2+0x726>
    445b:	90                   	nop
    445c:	8d 74 26 00          	lea    0x0(%esi,%eiz,1),%esi
    4460:	31 f6                	xor    %esi,%esi
    4462:	eb 3a                	jmp    449e <test_float2+0x7fe>
    4464:	8d 74 26 00          	lea    0x0(%esi,%eiz,1),%esi
    4468:	dd 05 20 9e 01 00    	fldl   0x19e20
    446e:	da e9                	fucompp 
    4470:	df e0                	fnstsw %ax
    4472:	f6 c4 45             	test   $0x45,%ah
    4475:	74 19                	je     4490 <test_float2+0x7f0>
    4477:	8a 1d 84 df 01 00    	mov    0x1df84,%bl
    447d:	84 db                	test   %bl,%bl
    447f:	0f 84 93 00 00 00    	je     4518 <test_float2+0x878>
    4485:	dd d8                	fstp   %st(0)
    4487:	dd d8                	fstp   %st(0)
    4489:	eb 09                	jmp    4494 <test_float2+0x7f4>
    448b:	90                   	nop
    448c:	8d 74 26 00          	lea    0x0(%esi,%eiz,1),%esi
    4490:	dd d8                	fstp   %st(0)
    4492:	dd d8                	fstp   %st(0)
    4494:	46                   	inc    %esi
    4495:	83 fe 0a             	cmp    $0xa,%esi
    4498:	0f 84 aa 00 00 00    	je     4548 <test_float2+0x8a8>
    449e:	dd 04 f5 60 9d 01 00 	fldl   0x19d60(,%esi,8)
    44a5:	83 ec 10             	sub    $0x10,%esp
    44a8:	d9 5d f4             	fstps  -0xc(%ebp)
    44ab:	d9 45 f4             	flds   -0xc(%ebp)
    44ae:	d9 1c 24             	fstps  (%esp)
    44b1:	e8 1a 6c 01 00       	call   1b0d0 <float32_exp@plt>
    44b6:	83 c4 10             	add    $0x10,%esp
    44b9:	dd 04 f5 00 9a 01 00 	fldl   0x19a00(,%esi,8)
    44c0:	d9 55 f4             	fsts   -0xc(%ebp)
    44c3:	d9 45 f4             	flds   -0xc(%ebp)
    44c6:	d9 c0                	fld    %st(0)
    44c8:	dd 05 20 9e 01 00    	fldl   0x19e20
    44ce:	dd e9                	fucomp %st(1)
    44d0:	df e0                	fnstsw %ax
    44d2:	f6 c4 45             	test   $0x45,%ah
    44d5:	75 19                	jne    44f0 <test_float2+0x850>
    44d7:	dd 05 28 9e 01 00    	fldl   0x19e28
    44dd:	d9 c9                	fxch   %st(1)
    44df:	da e9                	fucompp 
    44e1:	df e0                	fnstsw %ax
    44e3:	d9 c2                	fld    %st(2)
    44e5:	f6 c4 45             	test   $0x45,%ah
    44e8:	74 16                	je     4500 <test_float2+0x860>
    44ea:	dd d8                	fstp   %st(0)
    44ec:	eb 04                	jmp    44f2 <test_float2+0x852>
    44ee:	66 90                	xchg   %ax,%ax
    44f0:	dd d8                	fstp   %st(0)
    44f2:	d8 fa                	fdivr  %st(2),%st
    44f4:	d9 e8                	fld1   
    44f6:	de e9                	fsubrp %st,%st(1)
    44f8:	eb 08                	jmp    4502 <test_float2+0x862>
    44fa:	8d b6 00 00 00 00    	lea    0x0(%esi),%esi
    4500:	dd d9                	fstp   %st(1)
    4502:	d9 ee                	fldz   
    4504:	dd e9                	fucomp %st(1)
    4506:	df e0                	fnstsw %ax
    4508:	f6 c4 45             	test   $0x45,%ah
    450b:	0f 85 57 ff ff ff    	jne    4468 <test_float2+0x7c8>
    4511:	d9 e0                	fchs   
    4513:	e9 50 ff ff ff       	jmp    4468 <test_float2+0x7c8>
    4518:	53                   	push   %ebx
    4519:	56                   	push   %esi
    451a:	83 ec 10             	sub    $0x10,%esp
    451d:	a1 60 df 01 00       	mov    0x1df60,%eax
    4522:	46                   	inc    %esi
    4523:	b3 01                	mov    $0x1,%bl
    4525:	dd 5c 24 08          	fstpl  0x8(%esp)
    4529:	dd 1c 24             	fstpl  (%esp)
    452c:	68 bc 92 01 00       	push   $0x192bc
    4531:	50                   	push   %eax
    4532:	e8 f9 6d 01 00       	call   1b330 <fprintf@plt>
    4537:	83 c4 20             	add    $0x20,%esp
    453a:	83 fe 0a             	cmp    $0xa,%esi
    453d:	0f 85 5b ff ff ff    	jne    449e <test_float2+0x7fe>
    4543:	90                   	nop
    4544:	8d 74 26 00          	lea    0x0(%esi,%eiz,1),%esi
    4548:	31 f6                	xor    %esi,%esi
    454a:	eb 32                	jmp    457e <test_float2+0x8de>
    454c:	8d 74 26 00          	lea    0x0(%esi,%eiz,1),%esi
    4550:	dd 05 10 9e 01 00    	fldl   0x19e10
    4556:	da e9                	fucompp 
    4558:	df e0                	fnstsw %ax
    455a:	f6 c4 45             	test   $0x45,%ah
    455d:	74 11                	je     4570 <test_float2+0x8d0>
    455f:	8a 1d 84 df 01 00    	mov    0x1df84,%bl
    4565:	84 db                	test   %bl,%bl
    4567:	74 7f                	je     45e8 <test_float2+0x948>
    4569:	dd d8                	fstp   %st(0)
    456b:	dd d8                	fstp   %st(0)
    456d:	eb 05                	jmp    4574 <test_float2+0x8d4>
    456f:	90                   	nop
    4570:	dd d8                	fstp   %st(0)
    4572:	dd d8                	fstp   %st(0)
    4574:	46                   	inc    %esi
    4575:	83 fe 0a             	cmp    $0xa,%esi
    4578:	0f 84 9a 00 00 00    	je     4618 <test_float2+0x978>
    457e:	8b 14 f5 c4 9d 01 00 	mov    0x19dc4(,%esi,8),%edx
    4585:	8b 0c f5 c0 9d 01 00 	mov    0x19dc0(,%esi,8),%ecx
    458c:	50                   	push   %eax
    458d:	50                   	push   %eax
    458e:	52                   	push   %edx
    458f:	51                   	push   %ecx
    4590:	e8 bb 6d 01 00       	call   1b350 <float64_fabs@plt>
    4595:	83 c4 10             	add    $0x10,%esp
    4598:	dd 04 f5 c0 9a 01 00 	fldl   0x19ac0(,%esi,8)
    459f:	dd 05 10 9e 01 00    	fldl   0x19e10
    45a5:	dd e9                	fucomp %st(1)
    45a7:	df e0                	fnstsw %ax
    45a9:	f6 c4 45             	test   $0x45,%ah
    45ac:	75 17                	jne    45c5 <test_float2+0x925>
    45ae:	dd 05 18 9e 01 00    	fldl   0x19e18
    45b4:	d9 c9                	fxch   %st(1)
    45b6:	dd e1                	fucom  %st(1)
    45b8:	df e0                	fnstsw %ax
    45ba:	dd d9                	fstp   %st(1)
    45bc:	d9 c1                	fld    %st(1)
    45be:	f6 c4 45             	test   $0x45,%ah
    45c1:	74 0c                	je     45cf <test_float2+0x92f>
    45c3:	dd d8                	fstp   %st(0)
    45c5:	d9 c1                	fld    %st(1)
    45c7:	d8 f1                	fdiv   %st(1),%st
    45c9:	d8 25 30 9e 01 00    	fsubs  0x19e30
    45cf:	d9 ee                	fldz   
    45d1:	dd e9                	fucomp %st(1)
    45d3:	df e0                	fnstsw %ax
    45d5:	f6 c4 45             	test   $0x45,%ah
    45d8:	0f 85 72 ff ff ff    	jne    4550 <test_float2+0x8b0>
    45de:	d9 e0                	fchs   
    45e0:	e9 6b ff ff ff       	jmp    4550 <test_float2+0x8b0>
    45e5:	8d 76 00             	lea    0x0(%esi),%esi
    45e8:	50                   	push   %eax
    45e9:	56                   	push   %esi
    45ea:	83 ec 10             	sub    $0x10,%esp
    45ed:	a1 60 df 01 00       	mov    0x1df60,%eax
    45f2:	46                   	inc    %esi
    45f3:	b3 01                	mov    $0x1,%bl
    45f5:	dd 5c 24 08          	fstpl  0x8(%esp)
    45f9:	dd 1c 24             	fstpl  (%esp)
    45fc:	68 f0 92 01 00       	push   $0x192f0
    4601:	50                   	push   %eax
    4602:	e8 29 6d 01 00       	call   1b330 <fprintf@plt>
    4607:	83 c4 20             	add    $0x20,%esp
    460a:	83 fe 0a             	cmp    $0xa,%esi
    460d:	0f 85 6b ff ff ff    	jne    457e <test_float2+0x8de>
    4613:	90                   	nop
    4614:	8d 74 26 00          	lea    0x0(%esi,%eiz,1),%esi
    4618:	31 f6                	xor    %esi,%esi
    461a:	eb 3a                	jmp    4656 <test_float2+0x9b6>
    461c:	8d 74 26 00          	lea    0x0(%esi,%eiz,1),%esi
    4620:	dd 05 20 9e 01 00    	fldl   0x19e20
    4626:	da e9                	fucompp 
    4628:	df e0                	fnstsw %ax
    462a:	f6 c4 45             	test   $0x45,%ah
    462d:	74 19                	je     4648 <test_float2+0x9a8>
    462f:	8a 1d 84 df 01 00    	mov    0x1df84,%bl
    4635:	84 db                	test   %bl,%bl
    4637:	0f 84 93 00 00 00    	je     46d0 <test_float2+0xa30>
    463d:	dd d8                	fstp   %st(0)
    463f:	dd d8                	fstp   %st(0)
    4641:	eb 09                	jmp    464c <test_float2+0x9ac>
    4643:	90                   	nop
    4644:	8d 74 26 00          	lea    0x0(%esi,%eiz,1),%esi
    4648:	dd d8                	fstp   %st(0)
    464a:	dd d8                	fstp   %st(0)
    464c:	46                   	inc    %esi
    464d:	83 fe 0a             	cmp    $0xa,%esi
    4650:	0f 84 aa 00 00 00    	je     4700 <test_float2+0xa60>
    4656:	dd 04 f5 c0 9d 01 00 	fldl   0x19dc0(,%esi,8)
    465d:	83 ec 10             	sub    $0x10,%esp
    4660:	d9 5d f4             	fstps  -0xc(%ebp)
    4663:	d9 45 f4             	flds   -0xc(%ebp)
    4666:	d9 1c 24             	fstps  (%esp)
    4669:	e8 32 6f 01 00       	call   1b5a0 <float32_fabs@plt>
    466e:	83 c4 10             	add    $0x10,%esp
    4671:	dd 04 f5 c0 9a 01 00 	fldl   0x19ac0(,%esi,8)
    4678:	d9 55 f4             	fsts   -0xc(%ebp)
    467b:	d9 45 f4             	flds   -0xc(%ebp)
    467e:	d9 c0                	fld    %st(0)
    4680:	dd 05 20 9e 01 00    	fldl   0x19e20
    4686:	dd e9                	fucomp %st(1)
    4688:	df e0                	fnstsw %ax
    468a:	f6 c4 45             	test   $0x45,%ah
    468d:	75 19                	jne    46a8 <test_float2+0xa08>
    468f:	dd 05 28 9e 01 00    	fldl   0x19e28
    4695:	d9 c9                	fxch   %st(1)
    4697:	da e9                	fucompp 
    4699:	df e0                	fnstsw %ax
    469b:	d9 c2                	fld    %st(2)
    469d:	f6 c4 45             	test   $0x45,%ah
    46a0:	74 16                	je     46b8 <test_float2+0xa18>
    46a2:	dd d8                	fstp   %st(0)
    46a4:	eb 04                	jmp    46aa <test_float2+0xa0a>
    46a6:	66 90                	xchg   %ax,%ax
    46a8:	dd d8                	fstp   %st(0)
    46aa:	d8 fa                	fdivr  %st(2),%st
    46ac:	d9 e8                	fld1   
    46ae:	de e9                	fsubrp %st,%st(1)
    46b0:	eb 08                	jmp    46ba <test_float2+0xa1a>
    46b2:	8d b6 00 00 00 00    	lea    0x0(%esi),%esi
    46b8:	dd d9                	fstp   %st(1)
    46ba:	d9 ee                	fldz   
    46bc:	dd e9                	fucomp %st(1)
    46be:	df e0                	fnstsw %ax
    46c0:	f6 c4 45             	test   $0x45,%ah
    46c3:	0f 85 57 ff ff ff    	jne    4620 <test_float2+0x980>
    46c9:	d9 e0                	fchs   
    46cb:	e9 50 ff ff ff       	jmp    4620 <test_float2+0x980>
    46d0:	50                   	push   %eax
    46d1:	56                   	push   %esi
    46d2:	83 ec 10             	sub    $0x10,%esp
    46d5:	a1 60 df 01 00       	mov    0x1df60,%eax
    46da:	46                   	inc    %esi
    46db:	b3 01                	mov    $0x1,%bl
    46dd:	dd 5c 24 08          	fstpl  0x8(%esp)
    46e1:	dd 1c 24             	fstpl  (%esp)
    46e4:	68 24 93 01 00       	push   $0x19324
    46e9:	50                   	push   %eax
    46ea:	e8 41 6c 01 00       	call   1b330 <fprintf@plt>
    46ef:	83 c4 20             	add    $0x20,%esp
    46f2:	83 fe 0a             	cmp    $0xa,%esi
    46f5:	0f 85 5b ff ff ff    	jne    4656 <test_float2+0x9b6>
    46fb:	90                   	nop
    46fc:	8d 74 26 00          	lea    0x0(%esi,%eiz,1),%esi
    4700:	31 f6                	xor    %esi,%esi
    4702:	eb 32                	jmp    4736 <test_float2+0xa96>
    4704:	8d 74 26 00          	lea    0x0(%esi,%eiz,1),%esi
    4708:	dd 05 10 9e 01 00    	fldl   0x19e10
    470e:	da e9                	fucompp 
    4710:	df e0                	fnstsw %ax
    4712:	f6 c4 45             	test   $0x45,%ah
    4715:	74 11                	je     4728 <test_float2+0xa88>
    4717:	8a 1d 84 df 01 00    	mov    0x1df84,%bl
    471d:	84 db                	test   %bl,%bl
    471f:	74 7f                	je     47a0 <test_float2+0xb00>
    4721:	dd d8                	fstp   %st(0)
    4723:	dd d8                	fstp   %st(0)
    4725:	eb 05                	jmp    472c <test_float2+0xa8c>
    4727:	90                   	nop
    4728:	dd d8                	fstp   %st(0)
    472a:	dd d8                	fstp   %st(0)
    472c:	46                   	inc    %esi
    472d:	83 fe 0a             	cmp    $0xa,%esi
    4730:	0f 84 9a 00 00 00    	je     47d0 <test_float2+0xb30>
    4736:	8b 04 f5 c0 9d 01 00 	mov    0x19dc0(,%esi,8),%eax
    473d:	8b 0c f5 c4 9d 01 00 	mov    0x19dc4(,%esi,8),%ecx
    4744:	52                   	push   %edx
    4745:	52                   	push   %edx
    4746:	51                   	push   %ecx
    4747:	50                   	push   %eax
    4748:	e8 b3 6e 01 00       	call   1b600 <float64_floor@plt>
    474d:	83 c4 10             	add    $0x10,%esp
    4750:	dd 04 f5 60 9a 01 00 	fldl   0x19a60(,%esi,8)
    4757:	dd 05 10 9e 01 00    	fldl   0x19e10
    475d:	dd e9                	fucomp %st(1)
    475f:	df e0                	fnstsw %ax
    4761:	f6 c4 45             	test   $0x45,%ah
    4764:	75 17                	jne    477d <test_float2+0xadd>
    4766:	dd 05 18 9e 01 00    	fldl   0x19e18
    476c:	d9 c9                	fxch   %st(1)
    476e:	dd e1                	fucom  %st(1)
    4770:	df e0                	fnstsw %ax
    4772:	dd d9                	fstp   %st(1)
    4774:	d9 c1                	fld    %st(1)
    4776:	f6 c4 45             	test   $0x45,%ah
    4779:	74 0c                	je     4787 <test_float2+0xae7>
    477b:	dd d8                	fstp   %st(0)
    477d:	d9 c1                	fld    %st(1)
    477f:	d8 f1                	fdiv   %st(1),%st
    4781:	d8 25 30 9e 01 00    	fsubs  0x19e30
    4787:	d9 ee                	fldz   
    4789:	dd e9                	fucomp %st(1)
    478b:	df e0                	fnstsw %ax
    478d:	f6 c4 45             	test   $0x45,%ah
    4790:	0f 85 72 ff ff ff    	jne    4708 <test_float2+0xa68>
    4796:	d9 e0                	fchs   
    4798:	e9 6b ff ff ff       	jmp    4708 <test_float2+0xa68>
    479d:	8d 76 00             	lea    0x0(%esi),%esi
    47a0:	50                   	push   %eax
    47a1:	56                   	push   %esi
    47a2:	83 ec 10             	sub    $0x10,%esp
    47a5:	a1 60 df 01 00       	mov    0x1df60,%eax
    47aa:	46                   	inc    %esi
    47ab:	b3 01                	mov    $0x1,%bl
    47ad:	dd 5c 24 08          	fstpl  0x8(%esp)
    47b1:	dd 1c 24             	fstpl  (%esp)
    47b4:	68 58 93 01 00       	push   $0x19358
    47b9:	50                   	push   %eax
    47ba:	e8 71 6b 01 00       	call   1b330 <fprintf@plt>
    47bf:	83 c4 20             	add    $0x20,%esp
    47c2:	83 fe 0a             	cmp    $0xa,%esi
    47c5:	0f 85 6b ff ff ff    	jne    4736 <test_float2+0xa96>
    47cb:	90                   	nop
    47cc:	8d 74 26 00          	lea    0x0(%esi,%eiz,1),%esi
    47d0:	31 f6                	xor    %esi,%esi
    47d2:	eb 3a                	jmp    480e <test_float2+0xb6e>
    47d4:	8d 74 26 00          	lea    0x0(%esi,%eiz,1),%esi
    47d8:	dd 05 20 9e 01 00    	fldl   0x19e20
    47de:	da e9                	fucompp 
    47e0:	df e0                	fnstsw %ax
    47e2:	f6 c4 45             	test   $0x45,%ah
    47e5:	74 19                	je     4800 <test_float2+0xb60>
    47e7:	8a 1d 84 df 01 00    	mov    0x1df84,%bl
    47ed:	84 db                	test   %bl,%bl
    47ef:	0f 84 93 00 00 00    	je     4888 <test_float2+0xbe8>
    47f5:	dd d8                	fstp   %st(0)
    47f7:	dd d8                	fstp   %st(0)
    47f9:	eb 09                	jmp    4804 <test_float2+0xb64>
    47fb:	90                   	nop
    47fc:	8d 74 26 00          	lea    0x0(%esi,%eiz,1),%esi
    4800:	dd d8                	fstp   %st(0)
    4802:	dd d8                	fstp   %st(0)
    4804:	46                   	inc    %esi
    4805:	83 fe 0a             	cmp    $0xa,%esi
    4808:	0f 84 aa 00 00 00    	je     48b8 <test_float2+0xc18>
    480e:	dd 04 f5 c0 9d 01 00 	fldl   0x19dc0(,%esi,8)
    4815:	83 ec 10             	sub    $0x10,%esp
    4818:	d9 5d f4             	fstps  -0xc(%ebp)
    481b:	d9 45 f4             	flds   -0xc(%ebp)
    481e:	d9 1c 24             	fstps  (%esp)
    4821:	e8 ea 68 01 00       	call   1b110 <float32_floor@plt>
    4826:	83 c4 10             	add    $0x10,%esp
    4829:	dd 04 f5 60 9a 01 00 	fldl   0x19a60(,%esi,8)
    4830:	d9 55 f4             	fsts   -0xc(%ebp)
    4833:	d9 45 f4             	flds   -0xc(%ebp)
    4836:	d9 c0                	fld    %st(0)
    4838:	dd 05 20 9e 01 00    	fldl   0x19e20
    483e:	dd e9                	fucomp %st(1)
    4840:	df e0                	fnstsw %ax
    4842:	f6 c4 45             	test   $0x45,%ah
    4845:	75 19                	jne    4860 <test_float2+0xbc0>
    4847:	dd 05 28 9e 01 00    	fldl   0x19e28
    484d:	d9 c9                	fxch   %st(1)
    484f:	da e9                	fucompp 
    4851:	df e0                	fnstsw %ax
    4853:	d9 c2                	fld    %st(2)
    4855:	f6 c4 45             	test   $0x45,%ah
    4858:	74 16                	je     4870 <test_float2+0xbd0>
    485a:	dd d8                	fstp   %st(0)
    485c:	eb 04                	jmp    4862 <test_float2+0xbc2>
    485e:	66 90                	xchg   %ax,%ax
    4860:	dd d8                	fstp   %st(0)
    4862:	d8 fa                	fdivr  %st(2),%st
    4864:	d9 e8                	fld1   
    4866:	de e9                	fsubrp %st,%st(1)
    4868:	eb 08                	jmp    4872 <test_float2+0xbd2>
    486a:	8d b6 00 00 00 00    	lea    0x0(%esi),%esi
    4870:	dd d9                	fstp   %st(1)
    4872:	d9 ee                	fldz   
    4874:	dd e9                	fucomp %st(1)
    4876:	df e0                	fnstsw %ax
    4878:	f6 c4 45             	test   $0x45,%ah
    487b:	0f 85 57 ff ff ff    	jne    47d8 <test_float2+0xb38>
    4881:	d9 e0                	fchs   
    4883:	e9 50 ff ff ff       	jmp    47d8 <test_float2+0xb38>
    4888:	50                   	push   %eax
    4889:	56                   	push   %esi
    488a:	83 ec 10             	sub    $0x10,%esp
    488d:	a1 60 df 01 00       	mov    0x1df60,%eax
    4892:	46                   	inc    %esi
    4893:	b3 01                	mov    $0x1,%bl
    4895:	dd 5c 24 08          	fstpl  0x8(%esp)
    4899:	dd 1c 24             	fstpl  (%esp)
    489c:	68 8c 93 01 00       	push   $0x1938c
    48a1:	50                   	push   %eax
    48a2:	e8 89 6a 01 00       	call   1b330 <fprintf@plt>
    48a7:	83 c4 20             	add    $0x20,%esp
    48aa:	83 fe 0a             	cmp    $0xa,%esi
    48ad:	0f 85 5b ff ff ff    	jne    480e <test_float2+0xb6e>
    48b3:	90                   	nop
    48b4:	8d 74 26 00          	lea    0x0(%esi,%eiz,1),%esi
    48b8:	31 f6                	xor    %esi,%esi
    48ba:	eb 32                	jmp    48ee <test_float2+0xc4e>
    48bc:	8d 74 26 00          	lea    0x0(%esi,%eiz,1),%esi
    48c0:	dd 05 10 9e 01 00    	fldl   0x19e10
    48c6:	da e9                	fucompp 
    48c8:	df e0                	fnstsw %ax
    48ca:	f6 c4 45             	test   $0x45,%ah
    48cd:	74 11                	je     48e0 <test_float2+0xc40>
    48cf:	8a 1d 84 df 01 00    	mov    0x1df84,%bl
    48d5:	84 db                	test   %bl,%bl
    48d7:	74 7f                	je     4958 <test_float2+0xcb8>
    48d9:	dd d8                	fstp   %st(0)
    48db:	dd d8                	fstp   %st(0)
    48dd:	eb 05                	jmp    48e4 <test_float2+0xc44>
    48df:	90                   	nop
    48e0:	dd d8                	fstp   %st(0)
    48e2:	dd d8                	fstp   %st(0)
    48e4:	46                   	inc    %esi
    48e5:	83 fe 0a             	cmp    $0xa,%esi
    48e8:	0f 84 9a 00 00 00    	je     4988 <test_float2+0xce8>
    48ee:	8b 04 f5 04 9d 01 00 	mov    0x19d04(,%esi,8),%eax
    48f5:	51                   	push   %ecx
    48f6:	51                   	push   %ecx
    48f7:	50                   	push   %eax
    48f8:	8b 04 f5 00 9d 01 00 	mov    0x19d00(,%esi,8),%eax
    48ff:	50                   	push   %eax
    4900:	e8 8b 6b 01 00       	call   1b490 <float64_log@plt>
    4905:	dd 04 f5 a0 99 01 00 	fldl   0x199a0(,%esi,8)
    490c:	dd 05 10 9e 01 00    	fldl   0x19e10
    4912:	83 c4 10             	add    $0x10,%esp
    4915:	dd e9                	fucomp %st(1)
    4917:	df e0                	fnstsw %ax
    4919:	f6 c4 45             	test   $0x45,%ah
    491c:	75 17                	jne    4935 <test_float2+0xc95>
    491e:	dd 05 18 9e 01 00    	fldl   0x19e18
    4924:	d9 c9                	fxch   %st(1)
    4926:	dd e1                	fucom  %st(1)
    4928:	df e0                	fnstsw %ax
    492a:	dd d9                	fstp   %st(1)
    492c:	d9 c1                	fld    %st(1)
    492e:	f6 c4 45             	test   $0x45,%ah
    4931:	74 0c                	je     493f <test_float2+0xc9f>
    4933:	dd d8                	fstp   %st(0)
    4935:	d9 c1                	fld    %st(1)
    4937:	d8 f1                	fdiv   %st(1),%st
    4939:	d8 25 30 9e 01 00    	fsubs  0x19e30
    493f:	d9 ee                	fldz   
    4941:	dd e9                	fucomp %st(1)
    4943:	df e0                	fnstsw %ax
    4945:	f6 c4 45             	test   $0x45,%ah
    4948:	0f 85 72 ff ff ff    	jne    48c0 <test_float2+0xc20>
    494e:	d9 e0                	fchs   
    4950:	e9 6b ff ff ff       	jmp    48c0 <test_float2+0xc20>
    4955:	8d 76 00             	lea    0x0(%esi),%esi
    4958:	50                   	push   %eax
    4959:	56                   	push   %esi
    495a:	83 ec 10             	sub    $0x10,%esp
    495d:	8b 15 60 df 01 00    	mov    0x1df60,%edx
    4963:	46                   	inc    %esi
    4964:	b3 01                	mov    $0x1,%bl
    4966:	dd 5c 24 08          	fstpl  0x8(%esp)
    496a:	dd 1c 24             	fstpl  (%esp)
    496d:	68 c0 93 01 00       	push   $0x193c0
    4972:	52                   	push   %edx
    4973:	e8 b8 69 01 00       	call   1b330 <fprintf@plt>
    4978:	83 c4 20             	add    $0x20,%esp
    497b:	83 fe 0a             	cmp    $0xa,%esi
    497e:	0f 85 6a ff ff ff    	jne    48ee <test_float2+0xc4e>
    4984:	8d 74 26 00          	lea    0x0(%esi,%eiz,1),%esi
    4988:	31 f6                	xor    %esi,%esi
    498a:	eb 3a                	jmp    49c6 <test_float2+0xd26>
    498c:	8d 74 26 00          	lea    0x0(%esi,%eiz,1),%esi
    4990:	dd 05 20 9e 01 00    	fldl   0x19e20
    4996:	da e9                	fucompp 
    4998:	df e0                	fnstsw %ax
    499a:	f6 c4 45             	test   $0x45,%ah
    499d:	74 19                	je     49b8 <test_float2+0xd18>
    499f:	8a 1d 84 df 01 00    	mov    0x1df84,%bl
    49a5:	84 db                	test   %bl,%bl
    49a7:	0f 84 93 00 00 00    	je     4a40 <test_float2+0xda0>
    49ad:	dd d8                	fstp   %st(0)
    49af:	dd d8                	fstp   %st(0)
    49b1:	eb 09                	jmp    49bc <test_float2+0xd1c>
    49b3:	90                   	nop
    49b4:	8d 74 26 00          	lea    0x0(%esi,%eiz,1),%esi
    49b8:	dd d8                	fstp   %st(0)
    49ba:	dd d8                	fstp   %st(0)
    49bc:	46                   	inc    %esi
    49bd:	83 fe 0a             	cmp    $0xa,%esi
    49c0:	0f 84 aa 00 00 00    	je     4a70 <test_float2+0xdd0>
    49c6:	dd 04 f5 00 9d 01 00 	fldl   0x19d00(,%esi,8)
    49cd:	83 ec 10             	sub    $0x10,%esp
    49d0:	d9 5d f4             	fstps  -0xc(%ebp)
    49d3:	d9 45 f4             	flds   -0xc(%ebp)
    49d6:	d9 1c 24             	fstps  (%esp)
    49d9:	e8 82 66 01 00       	call   1b060 <float32_log@plt>
    49de:	83 c4 10             	add    $0x10,%esp
    49e1:	dd 04 f5 a0 99 01 00 	fldl   0x199a0(,%esi,8)
    49e8:	d9 55 f4             	fsts   -0xc(%ebp)
    49eb:	d9 45 f4             	flds   -0xc(%ebp)
    49ee:	d9 c0                	fld    %st(0)
    49f0:	dd 05 20 9e 01 00    	fldl   0x19e20
    49f6:	dd e9                	fucomp %st(1)
    49f8:	df e0                	fnstsw %ax
    49fa:	f6 c4 45             	test   $0x45,%ah
    49fd:	75 19                	jne    4a18 <test_float2+0xd78>
    49ff:	dd 05 28 9e 01 00    	fldl   0x19e28
    4a05:	d9 c9                	fxch   %st(1)
    4a07:	da e9                	fucompp 
    4a09:	df e0                	fnstsw %ax
    4a0b:	d9 c2                	fld    %st(2)
    4a0d:	f6 c4 45             	test   $0x45,%ah
    4a10:	74 16                	je     4a28 <test_float2+0xd88>
    4a12:	dd d8                	fstp   %st(0)
    4a14:	eb 04                	jmp    4a1a <test_float2+0xd7a>
    4a16:	66 90                	xchg   %ax,%ax
    4a18:	dd d8                	fstp   %st(0)
    4a1a:	d8 fa                	fdivr  %st(2),%st
    4a1c:	d9 e8                	fld1   
    4a1e:	de e9                	fsubrp %st,%st(1)
    4a20:	eb 08                	jmp    4a2a <test_float2+0xd8a>
    4a22:	8d b6 00 00 00 00    	lea    0x0(%esi),%esi
    4a28:	dd d9                	fstp   %st(1)
    4a2a:	d9 ee                	fldz   
    4a2c:	dd e9                	fucomp %st(1)
    4a2e:	df e0                	fnstsw %ax
    4a30:	f6 c4 45             	test   $0x45,%ah
    4a33:	0f 85 57 ff ff ff    	jne    4990 <test_float2+0xcf0>
    4a39:	d9 e0                	fchs   
    4a3b:	e9 50 ff ff ff       	jmp    4990 <test_float2+0xcf0>
    4a40:	50                   	push   %eax
    4a41:	56                   	push   %esi
    4a42:	83 ec 10             	sub    $0x10,%esp
    4a45:	a1 60 df 01 00       	mov    0x1df60,%eax
    4a4a:	46                   	inc    %esi
    4a4b:	b3 01                	mov    $0x1,%bl
    4a4d:	dd 5c 24 08          	fstpl  0x8(%esp)
    4a51:	dd 1c 24             	fstpl  (%esp)
    4a54:	68 f4 93 01 00       	push   $0x193f4
    4a59:	50                   	push   %eax
    4a5a:	e8 d1 68 01 00       	call   1b330 <fprintf@plt>
    4a5f:	83 c4 20             	add    $0x20,%esp
    4a62:	83 fe 0a             	cmp    $0xa,%esi
    4a65:	0f 85 5b ff ff ff    	jne    49c6 <test_float2+0xd26>
    4a6b:	90                   	nop
    4a6c:	8d 74 26 00          	lea    0x0(%esi,%eiz,1),%esi
    4a70:	31 f6                	xor    %esi,%esi
    4a72:	eb 32                	jmp    4aa6 <test_float2+0xe06>
    4a74:	8d 74 26 00          	lea    0x0(%esi,%eiz,1),%esi
    4a78:	dd 05 10 9e 01 00    	fldl   0x19e10
    4a7e:	da e9                	fucompp 
    4a80:	df e0                	fnstsw %ax
    4a82:	f6 c4 45             	test   $0x45,%ah
    4a85:	74 11                	je     4a98 <test_float2+0xdf8>
    4a87:	8a 1d 84 df 01 00    	mov    0x1df84,%bl
    4a8d:	84 db                	test   %bl,%bl
    4a8f:	74 7f                	je     4b10 <test_float2+0xe70>
    4a91:	dd d8                	fstp   %st(0)
    4a93:	dd d8                	fstp   %st(0)
    4a95:	eb 05                	jmp    4a9c <test_float2+0xdfc>
    4a97:	90                   	nop
    4a98:	dd d8                	fstp   %st(0)
    4a9a:	dd d8                	fstp   %st(0)
    4a9c:	46                   	inc    %esi
    4a9d:	83 fe 0a             	cmp    $0xa,%esi
    4aa0:	0f 84 9a 00 00 00    	je     4b40 <test_float2+0xea0>
    4aa6:	50                   	push   %eax
    4aa7:	50                   	push   %eax
    4aa8:	8b 04 f5 04 9d 01 00 	mov    0x19d04(,%esi,8),%eax
    4aaf:	50                   	push   %eax
    4ab0:	8b 04 f5 00 9d 01 00 	mov    0x19d00(,%esi,8),%eax
    4ab7:	50                   	push   %eax
    4ab8:	e8 73 66 01 00       	call   1b130 <float64_log10@plt>
    4abd:	dd 04 f5 40 99 01 00 	fldl   0x19940(,%esi,8)
    4ac4:	dd 05 10 9e 01 00    	fldl   0x19e10
    4aca:	83 c4 10             	add    $0x10,%esp
    4acd:	dd e9                	fucomp %st(1)
    4acf:	df e0                	fnstsw %ax
    4ad1:	f6 c4 45             	test   $0x45,%ah
    4ad4:	75 17                	jne    4aed <test_float2+0xe4d>
    4ad6:	dd 05 18 9e 01 00    	fldl   0x19e18
    4adc:	d9 c9                	fxch   %st(1)
    4ade:	dd e1                	fucom  %st(1)
    4ae0:	df e0                	fnstsw %ax
    4ae2:	dd d9                	fstp   %st(1)
    4ae4:	d9 c1                	fld    %st(1)
    4ae6:	f6 c4 45             	test   $0x45,%ah
    4ae9:	74 0c                	je     4af7 <test_float2+0xe57>
    4aeb:	dd d8                	fstp   %st(0)
    4aed:	d9 c1                	fld    %st(1)
    4aef:	d8 f1                	fdiv   %st(1),%st
    4af1:	d8 25 30 9e 01 00    	fsubs  0x19e30
    4af7:	d9 ee                	fldz   
    4af9:	dd e9                	fucomp %st(1)
    4afb:	df e0                	fnstsw %ax
    4afd:	f6 c4 45             	test   $0x45,%ah
    4b00:	0f 85 72 ff ff ff    	jne    4a78 <test_float2+0xdd8>
    4b06:	d9 e0                	fchs   
    4b08:	e9 6b ff ff ff       	jmp    4a78 <test_float2+0xdd8>
    4b0d:	8d 76 00             	lea    0x0(%esi),%esi
    4b10:	52                   	push   %edx
    4b11:	56                   	push   %esi
    4b12:	83 ec 10             	sub    $0x10,%esp
    4b15:	8b 0d 60 df 01 00    	mov    0x1df60,%ecx
    4b1b:	46                   	inc    %esi
    4b1c:	b3 01                	mov    $0x1,%bl
    4b1e:	dd 5c 24 08          	fstpl  0x8(%esp)
    4b22:	dd 1c 24             	fstpl  (%esp)
    4b25:	68 28 94 01 00       	push   $0x19428
    4b2a:	51                   	push   %ecx
    4b2b:	e8 00 68 01 00       	call   1b330 <fprintf@plt>
    4b30:	83 c4 20             	add    $0x20,%esp
    4b33:	83 fe 0a             	cmp    $0xa,%esi
    4b36:	0f 85 6a ff ff ff    	jne    4aa6 <test_float2+0xe06>
    4b3c:	8d 74 26 00          	lea    0x0(%esi,%eiz,1),%esi
    4b40:	31 f6                	xor    %esi,%esi
    4b42:	eb 3a                	jmp    4b7e <test_float2+0xede>
    4b44:	8d 74 26 00          	lea    0x0(%esi,%eiz,1),%esi
    4b48:	dd 05 20 9e 01 00    	fldl   0x19e20
    4b4e:	da e9                	fucompp 
    4b50:	df e0                	fnstsw %ax
    4b52:	f6 c4 45             	test   $0x45,%ah
    4b55:	74 19                	je     4b70 <test_float2+0xed0>
    4b57:	8a 1d 84 df 01 00    	mov    0x1df84,%bl
    4b5d:	84 db                	test   %bl,%bl
    4b5f:	0f 84 93 00 00 00    	je     4bf8 <test_float2+0xf58>
    4b65:	dd d8                	fstp   %st(0)
    4b67:	dd d8                	fstp   %st(0)
    4b69:	eb 09                	jmp    4b74 <test_float2+0xed4>
    4b6b:	90                   	nop
    4b6c:	8d 74 26 00          	lea    0x0(%esi,%eiz,1),%esi
    4b70:	dd d8                	fstp   %st(0)
    4b72:	dd d8                	fstp   %st(0)
    4b74:	46                   	inc    %esi
    4b75:	83 fe 0a             	cmp    $0xa,%esi
    4b78:	0f 84 aa 00 00 00    	je     4c28 <test_float2+0xf88>
    4b7e:	dd 04 f5 00 9d 01 00 	fldl   0x19d00(,%esi,8)
    4b85:	83 ec 10             	sub    $0x10,%esp
    4b88:	d9 5d f4             	fstps  -0xc(%ebp)
    4b8b:	d9 45 f4             	flds   -0xc(%ebp)
    4b8e:	d9 1c 24             	fstps  (%esp)
    4b91:	e8 2a 66 01 00       	call   1b1c0 <float32_log10@plt>
    4b96:	83 c4 10             	add    $0x10,%esp
    4b99:	dd 04 f5 40 99 01 00 	fldl   0x19940(,%esi,8)
    4ba0:	d9 55 f4             	fsts   -0xc(%ebp)
    4ba3:	d9 45 f4             	flds   -0xc(%ebp)
    4ba6:	d9 c0                	fld    %st(0)
    4ba8:	dd 05 20 9e 01 00    	fldl   0x19e20
    4bae:	dd e9                	fucomp %st(1)
    4bb0:	df e0                	fnstsw %ax
    4bb2:	f6 c4 45             	test   $0x45,%ah
    4bb5:	75 19                	jne    4bd0 <test_float2+0xf30>
    4bb7:	dd 05 28 9e 01 00    	fldl   0x19e28
    4bbd:	d9 c9                	fxch   %st(1)
    4bbf:	da e9                	fucompp 
    4bc1:	df e0                	fnstsw %ax
    4bc3:	d9 c2                	fld    %st(2)
    4bc5:	f6 c4 45             	test   $0x45,%ah
    4bc8:	74 16                	je     4be0 <test_float2+0xf40>
    4bca:	dd d8                	fstp   %st(0)
    4bcc:	eb 04                	jmp    4bd2 <test_float2+0xf32>
    4bce:	66 90                	xchg   %ax,%ax
    4bd0:	dd d8                	fstp   %st(0)
    4bd2:	d8 fa                	fdivr  %st(2),%st
    4bd4:	d9 e8                	fld1   
    4bd6:	de e9                	fsubrp %st,%st(1)
    4bd8:	eb 08                	jmp    4be2 <test_float2+0xf42>
    4bda:	8d b6 00 00 00 00    	lea    0x0(%esi),%esi
    4be0:	dd d9                	fstp   %st(1)
    4be2:	d9 ee                	fldz   
    4be4:	dd e9                	fucomp %st(1)
    4be6:	df e0                	fnstsw %ax
    4be8:	f6 c4 45             	test   $0x45,%ah
    4beb:	0f 85 57 ff ff ff    	jne    4b48 <test_float2+0xea8>
    4bf1:	d9 e0                	fchs   
    4bf3:	e9 50 ff ff ff       	jmp    4b48 <test_float2+0xea8>
    4bf8:	50                   	push   %eax
    4bf9:	56                   	push   %esi
    4bfa:	83 ec 10             	sub    $0x10,%esp
    4bfd:	a1 60 df 01 00       	mov    0x1df60,%eax
    4c02:	46                   	inc    %esi
    4c03:	b3 01                	mov    $0x1,%bl
    4c05:	dd 5c 24 08          	fstpl  0x8(%esp)
    4c09:	dd 1c 24             	fstpl  (%esp)
    4c0c:	68 5c 94 01 00       	push   $0x1945c
    4c11:	50                   	push   %eax
    4c12:	e8 19 67 01 00       	call   1b330 <fprintf@plt>
    4c17:	83 c4 20             	add    $0x20,%esp
    4c1a:	83 fe 0a             	cmp    $0xa,%esi
    4c1d:	0f 85 5b ff ff ff    	jne    4b7e <test_float2+0xede>
    4c23:	90                   	nop
    4c24:	8d 74 26 00          	lea    0x0(%esi,%eiz,1),%esi
    4c28:	31 f6                	xor    %esi,%esi
    4c2a:	eb 32                	jmp    4c5e <test_float2+0xfbe>
    4c2c:	8d 74 26 00          	lea    0x0(%esi,%eiz,1),%esi
    4c30:	dd 05 10 9e 01 00    	fldl   0x19e10
    4c36:	da e9                	fucompp 
    4c38:	df e0                	fnstsw %ax
    4c3a:	f6 c4 45             	test   $0x45,%ah
    4c3d:	74 11                	je     4c50 <test_float2+0xfb0>
    4c3f:	8a 1d 84 df 01 00    	mov    0x1df84,%bl
    4c45:	84 db                	test   %bl,%bl
    4c47:	74 7f                	je     4cc8 <test_float2+0x1028>
    4c49:	dd d8                	fstp   %st(0)
    4c4b:	dd d8                	fstp   %st(0)
    4c4d:	eb 05                	jmp    4c54 <test_float2+0xfb4>
    4c4f:	90                   	nop
    4c50:	dd d8                	fstp   %st(0)
    4c52:	dd d8                	fstp   %st(0)
    4c54:	46                   	inc    %esi
    4c55:	83 fe 0a             	cmp    $0xa,%esi
    4c58:	0f 84 9a 00 00 00    	je     4cf8 <test_float2+0x1058>
    4c5e:	50                   	push   %eax
    4c5f:	50                   	push   %eax
    4c60:	8b 04 f5 c4 9d 01 00 	mov    0x19dc4(,%esi,8),%eax
    4c67:	50                   	push   %eax
    4c68:	8b 04 f5 c0 9d 01 00 	mov    0x19dc0(,%esi,8),%eax
    4c6f:	50                   	push   %eax
    4c70:	e8 eb 67 01 00       	call   1b460 <sin_f64@plt>
    4c75:	dd 04 f5 e0 98 01 00 	fldl   0x198e0(,%esi,8)
    4c7c:	dd 05 10 9e 01 00    	fldl   0x19e10
    4c82:	83 c4 10             	add    $0x10,%esp
    4c85:	dd e9                	fucomp %st(1)
    4c87:	df e0                	fnstsw %ax
    4c89:	f6 c4 45             	test   $0x45,%ah
    4c8c:	75 17                	jne    4ca5 <test_float2+0x1005>
    4c8e:	dd 05 18 9e 01 00    	fldl   0x19e18
    4c94:	d9 c9                	fxch   %st(1)
    4c96:	dd e1                	fucom  %st(1)
    4c98:	df e0                	fnstsw %ax
    4c9a:	dd d9                	fstp   %st(1)
    4c9c:	d9 c1                	fld    %st(1)
    4c9e:	f6 c4 45             	test   $0x45,%ah
    4ca1:	74 0c                	je     4caf <test_float2+0x100f>
    4ca3:	dd d8                	fstp   %st(0)
    4ca5:	d9 c1                	fld    %st(1)
    4ca7:	d8 f1                	fdiv   %st(1),%st
    4ca9:	d8 25 30 9e 01 00    	fsubs  0x19e30
    4caf:	d9 ee                	fldz   
    4cb1:	dd e9                	fucomp %st(1)
    4cb3:	df e0                	fnstsw %ax
    4cb5:	f6 c4 45             	test   $0x45,%ah
    4cb8:	0f 85 72 ff ff ff    	jne    4c30 <test_float2+0xf90>
    4cbe:	d9 e0                	fchs   
    4cc0:	e9 6b ff ff ff       	jmp    4c30 <test_float2+0xf90>
    4cc5:	8d 76 00             	lea    0x0(%esi),%esi
    4cc8:	53                   	push   %ebx
    4cc9:	56                   	push   %esi
    4cca:	83 ec 10             	sub    $0x10,%esp
    4ccd:	a1 60 df 01 00       	mov    0x1df60,%eax
    4cd2:	46                   	inc    %esi
    4cd3:	b3 01                	mov    $0x1,%bl
    4cd5:	dd 5c 24 08          	fstpl  0x8(%esp)
    4cd9:	dd 1c 24             	fstpl  (%esp)
    4cdc:	68 90 94 01 00       	push   $0x19490
    4ce1:	50                   	push   %eax
    4ce2:	e8 49 66 01 00       	call   1b330 <fprintf@plt>
    4ce7:	83 c4 20             	add    $0x20,%esp
    4cea:	83 fe 0a             	cmp    $0xa,%esi
    4ced:	0f 85 6b ff ff ff    	jne    4c5e <test_float2+0xfbe>
    4cf3:	90                   	nop
    4cf4:	8d 74 26 00          	lea    0x0(%esi,%eiz,1),%esi
    4cf8:	31 f6                	xor    %esi,%esi
    4cfa:	eb 3a                	jmp    4d36 <test_float2+0x1096>
    4cfc:	8d 74 26 00          	lea    0x0(%esi,%eiz,1),%esi
    4d00:	dd 05 20 9e 01 00    	fldl   0x19e20
    4d06:	da e9                	fucompp 
    4d08:	df e0                	fnstsw %ax
    4d0a:	f6 c4 45             	test   $0x45,%ah
    4d0d:	74 19                	je     4d28 <test_float2+0x1088>
    4d0f:	8a 1d 84 df 01 00    	mov    0x1df84,%bl
    4d15:	84 db                	test   %bl,%bl
    4d17:	0f 84 9b 00 00 00    	je     4db8 <test_float2+0x1118>
    4d1d:	dd d8                	fstp   %st(0)
    4d1f:	dd d8                	fstp   %st(0)
    4d21:	eb 09                	jmp    4d2c <test_float2+0x108c>
    4d23:	90                   	nop
    4d24:	8d 74 26 00          	lea    0x0(%esi,%eiz,1),%esi
    4d28:	dd d8                	fstp   %st(0)
    4d2a:	dd d8                	fstp   %st(0)
    4d2c:	46                   	inc    %esi
    4d2d:	83 fe 0a             	cmp    $0xa,%esi
    4d30:	0f 84 b2 00 00 00    	je     4de8 <test_float2+0x1148>
    4d36:	dd 04 f5 c0 9d 01 00 	fldl   0x19dc0(,%esi,8)
    4d3d:	83 ec 10             	sub    $0x10,%esp
    4d40:	d9 5d f4             	fstps  -0xc(%ebp)
    4d43:	d9 45 f4             	flds   -0xc(%ebp)
    4d46:	dd 1c 24             	fstpl  (%esp)
    4d49:	e8 12 67 01 00       	call   1b460 <sin_f64@plt>
    4d4e:	83 c4 10             	add    $0x10,%esp
    4d51:	d9 5d f4             	fstps  -0xc(%ebp)
    4d54:	d9 45 f4             	flds   -0xc(%ebp)
    4d57:	dd 04 f5 e0 98 01 00 	fldl   0x198e0(,%esi,8)
    4d5e:	d9 55 f4             	fsts   -0xc(%ebp)
    4d61:	d9 45 f4             	flds   -0xc(%ebp)
    4d64:	d9 c0                	fld    %st(0)
    4d66:	dd 05 20 9e 01 00    	fldl   0x19e20
    4d6c:	dd e9                	fucomp %st(1)
    4d6e:	df e0                	fnstsw %ax
    4d70:	f6 c4 45             	test   $0x45,%ah
    4d73:	75 1b                	jne    4d90 <test_float2+0x10f0>
    4d75:	dd 05 28 9e 01 00    	fldl   0x19e28
    4d7b:	d9 c9                	fxch   %st(1)
    4d7d:	da e9                	fucompp 
    4d7f:	df e0                	fnstsw %ax
    4d81:	d9 c2                	fld    %st(2)
    4d83:	f6 c4 45             	test   $0x45,%ah
    4d86:	74 18                	je     4da0 <test_float2+0x1100>
    4d88:	dd d8                	fstp   %st(0)
    4d8a:	eb 06                	jmp    4d92 <test_float2+0x10f2>
    4d8c:	8d 74 26 00          	lea    0x0(%esi,%eiz,1),%esi
    4d90:	dd d8                	fstp   %st(0)
    4d92:	d8 fa                	fdivr  %st(2),%st
    4d94:	d9 e8                	fld1   
    4d96:	de e9                	fsubrp %st,%st(1)
    4d98:	eb 08                	jmp    4da2 <test_float2+0x1102>
    4d9a:	8d b6 00 00 00 00    	lea    0x0(%esi),%esi
    4da0:	dd d9                	fstp   %st(1)
    4da2:	d9 ee                	fldz   
    4da4:	dd e9                	fucomp %st(1)
    4da6:	df e0                	fnstsw %ax
    4da8:	f6 c4 45             	test   $0x45,%ah
    4dab:	0f 85 4f ff ff ff    	jne    4d00 <test_float2+0x1060>
    4db1:	d9 e0                	fchs   
    4db3:	e9 48 ff ff ff       	jmp    4d00 <test_float2+0x1060>
    4db8:	52                   	push   %edx
    4db9:	56                   	push   %esi
    4dba:	83 ec 10             	sub    $0x10,%esp
    4dbd:	8b 0d 60 df 01 00    	mov    0x1df60,%ecx
    4dc3:	46                   	inc    %esi
    4dc4:	b3 01                	mov    $0x1,%bl
    4dc6:	dd 5c 24 08          	fstpl  0x8(%esp)
    4dca:	dd 1c 24             	fstpl  (%esp)
    4dcd:	68 c4 94 01 00       	push   $0x194c4
    4dd2:	51                   	push   %ecx
    4dd3:	e8 58 65 01 00       	call   1b330 <fprintf@plt>
    4dd8:	83 c4 20             	add    $0x20,%esp
    4ddb:	83 fe 0a             	cmp    $0xa,%esi
    4dde:	0f 85 52 ff ff ff    	jne    4d36 <test_float2+0x1096>
    4de4:	8d 74 26 00          	lea    0x0(%esi,%eiz,1),%esi
    4de8:	31 f6                	xor    %esi,%esi
    4dea:	eb 32                	jmp    4e1e <test_float2+0x117e>
    4dec:	8d 74 26 00          	lea    0x0(%esi,%eiz,1),%esi
    4df0:	dd 05 10 9e 01 00    	fldl   0x19e10
    4df6:	da e9                	fucompp 
    4df8:	df e0                	fnstsw %ax
    4dfa:	f6 c4 45             	test   $0x45,%ah
    4dfd:	74 11                	je     4e10 <test_float2+0x1170>
    4dff:	8a 1d 84 df 01 00    	mov    0x1df84,%bl
    4e05:	84 db                	test   %bl,%bl
    4e07:	74 7f                	je     4e88 <test_float2+0x11e8>
    4e09:	dd d8                	fstp   %st(0)
    4e0b:	dd d8                	fstp   %st(0)
    4e0d:	eb 05                	jmp    4e14 <test_float2+0x1174>
    4e0f:	90                   	nop
    4e10:	dd d8                	fstp   %st(0)
    4e12:	dd d8                	fstp   %st(0)
    4e14:	46                   	inc    %esi
    4e15:	83 fe 0a             	cmp    $0xa,%esi
    4e18:	0f 84 9a 00 00 00    	je     4eb8 <test_float2+0x1218>
    4e1e:	50                   	push   %eax
    4e1f:	50                   	push   %eax
    4e20:	8b 04 f5 64 9d 01 00 	mov    0x19d64(,%esi,8),%eax
    4e27:	50                   	push   %eax
    4e28:	8b 04 f5 60 9d 01 00 	mov    0x19d60(,%esi,8),%eax
    4e2f:	50                   	push   %eax
    4e30:	e8 cb 66 01 00       	call   1b500 <float64_sinh@plt>
    4e35:	dd 04 f5 80 98 01 00 	fldl   0x19880(,%esi,8)
    4e3c:	dd 05 10 9e 01 00    	fldl   0x19e10
    4e42:	83 c4 10             	add    $0x10,%esp
    4e45:	dd e9                	fucomp %st(1)
    4e47:	df e0                	fnstsw %ax
    4e49:	f6 c4 45             	test   $0x45,%ah
    4e4c:	75 17                	jne    4e65 <test_float2+0x11c5>
    4e4e:	dd 05 18 9e 01 00    	fldl   0x19e18
    4e54:	d9 c9                	fxch   %st(1)
    4e56:	dd e1                	fucom  %st(1)
    4e58:	df e0                	fnstsw %ax
    4e5a:	dd d9                	fstp   %st(1)
    4e5c:	d9 c1                	fld    %st(1)
    4e5e:	f6 c4 45             	test   $0x45,%ah
    4e61:	74 0c                	je     4e6f <test_float2+0x11cf>
    4e63:	dd d8                	fstp   %st(0)
    4e65:	d9 c1                	fld    %st(1)
    4e67:	d8 f1                	fdiv   %st(1),%st
    4e69:	d8 25 30 9e 01 00    	fsubs  0x19e30
    4e6f:	d9 ee                	fldz   
    4e71:	dd e9                	fucomp %st(1)
    4e73:	df e0                	fnstsw %ax
    4e75:	f6 c4 45             	test   $0x45,%ah
    4e78:	0f 85 72 ff ff ff    	jne    4df0 <test_float2+0x1150>
    4e7e:	d9 e0                	fchs   
    4e80:	e9 6b ff ff ff       	jmp    4df0 <test_float2+0x1150>
    4e85:	8d 76 00             	lea    0x0(%esi),%esi
    4e88:	50                   	push   %eax
    4e89:	56                   	push   %esi
    4e8a:	83 ec 10             	sub    $0x10,%esp
    4e8d:	a1 60 df 01 00       	mov    0x1df60,%eax
    4e92:	46                   	inc    %esi
    4e93:	b3 01                	mov    $0x1,%bl
    4e95:	dd 5c 24 08          	fstpl  0x8(%esp)
    4e99:	dd 1c 24             	fstpl  (%esp)
    4e9c:	68 f8 94 01 00       	push   $0x194f8
    4ea1:	50                   	push   %eax
    4ea2:	e8 89 64 01 00       	call   1b330 <fprintf@plt>
    4ea7:	83 c4 20             	add    $0x20,%esp
    4eaa:	83 fe 0a             	cmp    $0xa,%esi
    4ead:	0f 85 6b ff ff ff    	jne    4e1e <test_float2+0x117e>
    4eb3:	90                   	nop
    4eb4:	8d 74 26 00          	lea    0x0(%esi,%eiz,1),%esi
    4eb8:	31 f6                	xor    %esi,%esi
    4eba:	eb 3a                	jmp    4ef6 <test_float2+0x1256>
    4ebc:	8d 74 26 00          	lea    0x0(%esi,%eiz,1),%esi
    4ec0:	dd 05 20 9e 01 00    	fldl   0x19e20
    4ec6:	da e9                	fucompp 
    4ec8:	df e0                	fnstsw %ax
    4eca:	f6 c4 45             	test   $0x45,%ah
    4ecd:	74 19                	je     4ee8 <test_float2+0x1248>
    4ecf:	8a 1d 84 df 01 00    	mov    0x1df84,%bl
    4ed5:	84 db                	test   %bl,%bl
    4ed7:	0f 84 93 00 00 00    	je     4f70 <test_float2+0x12d0>
    4edd:	dd d8                	fstp   %st(0)
    4edf:	dd d8                	fstp   %st(0)
    4ee1:	eb 09                	jmp    4eec <test_float2+0x124c>
    4ee3:	90                   	nop
    4ee4:	8d 74 26 00          	lea    0x0(%esi,%eiz,1),%esi
    4ee8:	dd d8                	fstp   %st(0)
    4eea:	dd d8                	fstp   %st(0)
    4eec:	46                   	inc    %esi
    4eed:	83 fe 0a             	cmp    $0xa,%esi
    4ef0:	0f 84 aa 00 00 00    	je     4fa0 <test_float2+0x1300>
    4ef6:	dd 04 f5 60 9d 01 00 	fldl   0x19d60(,%esi,8)
    4efd:	83 ec 10             	sub    $0x10,%esp
    4f00:	d9 5d f4             	fstps  -0xc(%ebp)
    4f03:	d9 45 f4             	flds   -0xc(%ebp)
    4f06:	d9 1c 24             	fstps  (%esp)
    4f09:	e8 02 63 01 00       	call   1b210 <float32_sinh@plt>
    4f0e:	83 c4 10             	add    $0x10,%esp
    4f11:	dd 04 f5 80 98 01 00 	fldl   0x19880(,%esi,8)
    4f18:	d9 55 f4             	fsts   -0xc(%ebp)
    4f1b:	d9 45 f4             	flds   -0xc(%ebp)
    4f1e:	d9 c0                	fld    %st(0)
    4f20:	dd 05 20 9e 01 00    	fldl   0x19e20
    4f26:	dd e9                	fucomp %st(1)
    4f28:	df e0                	fnstsw %ax
    4f2a:	f6 c4 45             	test   $0x45,%ah
    4f2d:	75 19                	jne    4f48 <test_float2+0x12a8>
    4f2f:	dd 05 28 9e 01 00    	fldl   0x19e28
    4f35:	d9 c9                	fxch   %st(1)
    4f37:	da e9                	fucompp 
    4f39:	df e0                	fnstsw %ax
    4f3b:	d9 c2                	fld    %st(2)
    4f3d:	f6 c4 45             	test   $0x45,%ah
    4f40:	74 16                	je     4f58 <test_float2+0x12b8>
    4f42:	dd d8                	fstp   %st(0)
    4f44:	eb 04                	jmp    4f4a <test_float2+0x12aa>
    4f46:	66 90                	xchg   %ax,%ax
    4f48:	dd d8                	fstp   %st(0)
    4f4a:	d8 fa                	fdivr  %st(2),%st
    4f4c:	d9 e8                	fld1   
    4f4e:	de e9                	fsubrp %st,%st(1)
    4f50:	eb 08                	jmp    4f5a <test_float2+0x12ba>
    4f52:	8d b6 00 00 00 00    	lea    0x0(%esi),%esi
    4f58:	dd d9                	fstp   %st(1)
    4f5a:	d9 ee                	fldz   
    4f5c:	dd e9                	fucomp %st(1)
    4f5e:	df e0                	fnstsw %ax
    4f60:	f6 c4 45             	test   $0x45,%ah
    4f63:	0f 85 57 ff ff ff    	jne    4ec0 <test_float2+0x1220>
    4f69:	d9 e0                	fchs   
    4f6b:	e9 50 ff ff ff       	jmp    4ec0 <test_float2+0x1220>
    4f70:	53                   	push   %ebx
    4f71:	56                   	push   %esi
    4f72:	83 ec 10             	sub    $0x10,%esp
    4f75:	a1 60 df 01 00       	mov    0x1df60,%eax
    4f7a:	46                   	inc    %esi
    4f7b:	b3 01                	mov    $0x1,%bl
    4f7d:	dd 5c 24 08          	fstpl  0x8(%esp)
    4f81:	dd 1c 24             	fstpl  (%esp)
    4f84:	68 2c 95 01 00       	push   $0x1952c
    4f89:	50                   	push   %eax
    4f8a:	e8 a1 63 01 00       	call   1b330 <fprintf@plt>
    4f8f:	83 c4 20             	add    $0x20,%esp
    4f92:	83 fe 0a             	cmp    $0xa,%esi
    4f95:	0f 85 5b ff ff ff    	jne    4ef6 <test_float2+0x1256>
    4f9b:	90                   	nop
    4f9c:	8d 74 26 00          	lea    0x0(%esi,%eiz,1),%esi
    4fa0:	31 f6                	xor    %esi,%esi
    4fa2:	eb 32                	jmp    4fd6 <test_float2+0x1336>
    4fa4:	8d 74 26 00          	lea    0x0(%esi,%eiz,1),%esi
    4fa8:	dd 05 10 9e 01 00    	fldl   0x19e10
    4fae:	da e9                	fucompp 
    4fb0:	df e0                	fnstsw %ax
    4fb2:	f6 c4 45             	test   $0x45,%ah
    4fb5:	74 11                	je     4fc8 <test_float2+0x1328>
    4fb7:	8a 1d 84 df 01 00    	mov    0x1df84,%bl
    4fbd:	84 db                	test   %bl,%bl
    4fbf:	74 7f                	je     5040 <test_float2+0x13a0>
    4fc1:	dd d8                	fstp   %st(0)
    4fc3:	dd d8                	fstp   %st(0)
    4fc5:	eb 05                	jmp    4fcc <test_float2+0x132c>
    4fc7:	90                   	nop
    4fc8:	dd d8                	fstp   %st(0)
    4fca:	dd d8                	fstp   %st(0)
    4fcc:	46                   	inc    %esi
    4fcd:	83 fe 0a             	cmp    $0xa,%esi
    4fd0:	0f 84 9a 00 00 00    	je     5070 <test_float2+0x13d0>
    4fd6:	8b 14 f5 04 9d 01 00 	mov    0x19d04(,%esi,8),%edx
    4fdd:	8b 0c f5 00 9d 01 00 	mov    0x19d00(,%esi,8),%ecx
    4fe4:	50                   	push   %eax
    4fe5:	50                   	push   %eax
    4fe6:	52                   	push   %edx
    4fe7:	51                   	push   %ecx
    4fe8:	e8 03 65 01 00       	call   1b4f0 <float64_sqrt@plt>
    4fed:	83 c4 10             	add    $0x10,%esp
    4ff0:	dd 04 f5 20 98 01 00 	fldl   0x19820(,%esi,8)
    4ff7:	dd 05 10 9e 01 00    	fldl   0x19e10
    4ffd:	dd e9                	fucomp %st(1)
    4fff:	df e0                	fnstsw %ax
    5001:	f6 c4 45             	test   $0x45,%ah
    5004:	75 17                	jne    501d <test_float2+0x137d>
    5006:	dd 05 18 9e 01 00    	fldl   0x19e18
    500c:	d9 c9                	fxch   %st(1)
    500e:	dd e1                	fucom  %st(1)
    5010:	df e0                	fnstsw %ax
    5012:	dd d9                	fstp   %st(1)
    5014:	d9 c1                	fld    %st(1)
    5016:	f6 c4 45             	test   $0x45,%ah
    5019:	74 0c                	je     5027 <test_float2+0x1387>
    501b:	dd d8                	fstp   %st(0)
    501d:	d9 c1                	fld    %st(1)
    501f:	d8 f1                	fdiv   %st(1),%st
    5021:	d8 25 30 9e 01 00    	fsubs  0x19e30
    5027:	d9 ee                	fldz   
    5029:	dd e9                	fucomp %st(1)
    502b:	df e0                	fnstsw %ax
    502d:	f6 c4 45             	test   $0x45,%ah
    5030:	0f 85 72 ff ff ff    	jne    4fa8 <test_float2+0x1308>
    5036:	d9 e0                	fchs   
    5038:	e9 6b ff ff ff       	jmp    4fa8 <test_float2+0x1308>
    503d:	8d 76 00             	lea    0x0(%esi),%esi
    5040:	50                   	push   %eax
    5041:	56                   	push   %esi
    5042:	83 ec 10             	sub    $0x10,%esp
    5045:	a1 60 df 01 00       	mov    0x1df60,%eax
    504a:	46                   	inc    %esi
    504b:	b3 01                	mov    $0x1,%bl
    504d:	dd 5c 24 08          	fstpl  0x8(%esp)
    5051:	dd 1c 24             	fstpl  (%esp)
    5054:	68 60 95 01 00       	push   $0x19560
    5059:	50                   	push   %eax
    505a:	e8 d1 62 01 00       	call   1b330 <fprintf@plt>
    505f:	83 c4 20             	add    $0x20,%esp
    5062:	83 fe 0a             	cmp    $0xa,%esi
    5065:	0f 85 6b ff ff ff    	jne    4fd6 <test_float2+0x1336>
    506b:	90                   	nop
    506c:	8d 74 26 00          	lea    0x0(%esi,%eiz,1),%esi
    5070:	31 f6                	xor    %esi,%esi
    5072:	eb 3a                	jmp    50ae <test_float2+0x140e>
    5074:	8d 74 26 00          	lea    0x0(%esi,%eiz,1),%esi
    5078:	dd 05 20 9e 01 00    	fldl   0x19e20
    507e:	da e9                	fucompp 
    5080:	df e0                	fnstsw %ax
    5082:	f6 c4 45             	test   $0x45,%ah
    5085:	74 19                	je     50a0 <test_float2+0x1400>
    5087:	8a 1d 84 df 01 00    	mov    0x1df84,%bl
    508d:	84 db                	test   %bl,%bl
    508f:	0f 84 93 00 00 00    	je     5128 <test_float2+0x1488>
    5095:	dd d8                	fstp   %st(0)
    5097:	dd d8                	fstp   %st(0)
    5099:	eb 09                	jmp    50a4 <test_float2+0x1404>
    509b:	90                   	nop
    509c:	8d 74 26 00          	lea    0x0(%esi,%eiz,1),%esi
    50a0:	dd d8                	fstp   %st(0)
    50a2:	dd d8                	fstp   %st(0)
    50a4:	46                   	inc    %esi
    50a5:	83 fe 0a             	cmp    $0xa,%esi
    50a8:	0f 84 aa 00 00 00    	je     5158 <test_float2+0x14b8>
    50ae:	dd 04 f5 00 9d 01 00 	fldl   0x19d00(,%esi,8)
    50b5:	83 ec 10             	sub    $0x10,%esp
    50b8:	d9 5d f4             	fstps  -0xc(%ebp)
    50bb:	d9 45 f4             	flds   -0xc(%ebp)
    50be:	d9 1c 24             	fstps  (%esp)
    50c1:	e8 2a 61 01 00       	call   1b1f0 <float32_sqrt@plt>
    50c6:	83 c4 10             	add    $0x10,%esp
    50c9:	dd 04 f5 20 98 01 00 	fldl   0x19820(,%esi,8)
    50d0:	d9 55 f4             	fsts   -0xc(%ebp)
    50d3:	d9 45 f4             	flds   -0xc(%ebp)
    50d6:	d9 c0                	fld    %st(0)
    50d8:	dd 05 20 9e 01 00    	fldl   0x19e20
    50de:	dd e9                	fucomp %st(1)
    50e0:	df e0                	fnstsw %ax
    50e2:	f6 c4 45             	test   $0x45,%ah
    50e5:	75 19                	jne    5100 <test_float2+0x1460>
    50e7:	dd 05 28 9e 01 00    	fldl   0x19e28
    50ed:	d9 c9                	fxch   %st(1)
    50ef:	da e9                	fucompp 
    50f1:	df e0                	fnstsw %ax
    50f3:	d9 c2                	fld    %st(2)
    50f5:	f6 c4 45             	test   $0x45,%ah
    50f8:	74 16                	je     5110 <test_float2+0x1470>
    50fa:	dd d8                	fstp   %st(0)
    50fc:	eb 04                	jmp    5102 <test_float2+0x1462>
    50fe:	66 90                	xchg   %ax,%ax
    5100:	dd d8                	fstp   %st(0)
    5102:	d8 fa                	fdivr  %st(2),%st
    5104:	d9 e8                	fld1   
    5106:	de e9                	fsubrp %st,%st(1)
    5108:	eb 08                	jmp    5112 <test_float2+0x1472>
    510a:	8d b6 00 00 00 00    	lea    0x0(%esi),%esi
    5110:	dd d9                	fstp   %st(1)
    5112:	d9 ee                	fldz   
    5114:	dd e9                	fucomp %st(1)
    5116:	df e0                	fnstsw %ax
    5118:	f6 c4 45             	test   $0x45,%ah
    511b:	0f 85 57 ff ff ff    	jne    5078 <test_float2+0x13d8>
    5121:	d9 e0                	fchs   
    5123:	e9 50 ff ff ff       	jmp    5078 <test_float2+0x13d8>
    5128:	50                   	push   %eax
    5129:	56                   	push   %esi
    512a:	83 ec 10             	sub    $0x10,%esp
    512d:	a1 60 df 01 00       	mov    0x1df60,%eax
    5132:	46                   	inc    %esi
    5133:	b3 01                	mov    $0x1,%bl
    5135:	dd 5c 24 08          	fstpl  0x8(%esp)
    5139:	dd 1c 24             	fstpl  (%esp)
    513c:	68 94 95 01 00       	push   $0x19594
    5141:	50                   	push   %eax
    5142:	e8 e9 61 01 00       	call   1b330 <fprintf@plt>
    5147:	83 c4 20             	add    $0x20,%esp
    514a:	83 fe 0a             	cmp    $0xa,%esi
    514d:	0f 85 5b ff ff ff    	jne    50ae <test_float2+0x140e>
    5153:	90                   	nop
    5154:	8d 74 26 00          	lea    0x0(%esi,%eiz,1),%esi
    5158:	31 f6                	xor    %esi,%esi
    515a:	eb 32                	jmp    518e <test_float2+0x14ee>
    515c:	8d 74 26 00          	lea    0x0(%esi,%eiz,1),%esi
    5160:	dd 05 10 9e 01 00    	fldl   0x19e10
    5166:	da e9                	fucompp 
    5168:	df e0                	fnstsw %ax
    516a:	f6 c4 45             	test   $0x45,%ah
    516d:	74 11                	je     5180 <test_float2+0x14e0>
    516f:	8a 1d 84 df 01 00    	mov    0x1df84,%bl
    5175:	84 db                	test   %bl,%bl
    5177:	74 7f                	je     51f8 <test_float2+0x1558>
    5179:	dd d8                	fstp   %st(0)
    517b:	dd d8                	fstp   %st(0)
    517d:	eb 05                	jmp    5184 <test_float2+0x14e4>
    517f:	90                   	nop
    5180:	dd d8                	fstp   %st(0)
    5182:	dd d8                	fstp   %st(0)
    5184:	46                   	inc    %esi
    5185:	83 fe 0a             	cmp    $0xa,%esi
    5188:	0f 84 9a 00 00 00    	je     5228 <test_float2+0x1588>
    518e:	8b 04 f5 c0 9d 01 00 	mov    0x19dc0(,%esi,8),%eax
    5195:	8b 0c f5 c4 9d 01 00 	mov    0x19dc4(,%esi,8),%ecx
    519c:	52                   	push   %edx
    519d:	52                   	push   %edx
    519e:	51                   	push   %ecx
    519f:	50                   	push   %eax
    51a0:	e8 5b 62 01 00       	call   1b400 <float64_tan@plt>
    51a5:	83 c4 10             	add    $0x10,%esp
    51a8:	dd 04 f5 c0 97 01 00 	fldl   0x197c0(,%esi,8)
    51af:	dd 05 10 9e 01 00    	fldl   0x19e10
    51b5:	dd e9                	fucomp %st(1)
    51b7:	df e0                	fnstsw %ax
    51b9:	f6 c4 45             	test   $0x45,%ah
    51bc:	75 17                	jne    51d5 <test_float2+0x1535>
    51be:	dd 05 18 9e 01 00    	fldl   0x19e18
    51c4:	d9 c9                	fxch   %st(1)
    51c6:	dd e1                	fucom  %st(1)
    51c8:	df e0                	fnstsw %ax
    51ca:	dd d9                	fstp   %st(1)
    51cc:	d9 c1                	fld    %st(1)
    51ce:	f6 c4 45             	test   $0x45,%ah
    51d1:	74 0c                	je     51df <test_float2+0x153f>
    51d3:	dd d8                	fstp   %st(0)
    51d5:	d9 c1                	fld    %st(1)
    51d7:	d8 f1                	fdiv   %st(1),%st
    51d9:	d8 25 30 9e 01 00    	fsubs  0x19e30
    51df:	d9 ee                	fldz   
    51e1:	dd e9                	fucomp %st(1)
    51e3:	df e0                	fnstsw %ax
    51e5:	f6 c4 45             	test   $0x45,%ah
    51e8:	0f 85 72 ff ff ff    	jne    5160 <test_float2+0x14c0>
    51ee:	d9 e0                	fchs   
    51f0:	e9 6b ff ff ff       	jmp    5160 <test_float2+0x14c0>
    51f5:	8d 76 00             	lea    0x0(%esi),%esi
    51f8:	50                   	push   %eax
    51f9:	56                   	push   %esi
    51fa:	83 ec 10             	sub    $0x10,%esp
    51fd:	a1 60 df 01 00       	mov    0x1df60,%eax
    5202:	46                   	inc    %esi
    5203:	b3 01                	mov    $0x1,%bl
    5205:	dd 5c 24 08          	fstpl  0x8(%esp)
    5209:	dd 1c 24             	fstpl  (%esp)
    520c:	68 c8 95 01 00       	push   $0x195c8
    5211:	50                   	push   %eax
    5212:	e8 19 61 01 00       	call   1b330 <fprintf@plt>
    5217:	83 c4 20             	add    $0x20,%esp
    521a:	83 fe 0a             	cmp    $0xa,%esi
    521d:	0f 85 6b ff ff ff    	jne    518e <test_float2+0x14ee>
    5223:	90                   	nop
    5224:	8d 74 26 00          	lea    0x0(%esi,%eiz,1),%esi
    5228:	31 f6                	xor    %esi,%esi
    522a:	eb 3a                	jmp    5266 <test_float2+0x15c6>
    522c:	8d 74 26 00          	lea    0x0(%esi,%eiz,1),%esi
    5230:	dd 05 20 9e 01 00    	fldl   0x19e20
    5236:	da e9                	fucompp 
    5238:	df e0                	fnstsw %ax
    523a:	f6 c4 45             	test   $0x45,%ah
    523d:	74 19                	je     5258 <test_float2+0x15b8>
    523f:	8a 1d 84 df 01 00    	mov    0x1df84,%bl
    5245:	84 db                	test   %bl,%bl
    5247:	0f 84 93 00 00 00    	je     52e0 <test_float2+0x1640>
    524d:	dd d8                	fstp   %st(0)
    524f:	dd d8                	fstp   %st(0)
    5251:	eb 09                	jmp    525c <test_float2+0x15bc>
    5253:	90                   	nop
    5254:	8d 74 26 00          	lea    0x0(%esi,%eiz,1),%esi
    5258:	dd d8                	fstp   %st(0)
    525a:	dd d8                	fstp   %st(0)
    525c:	46                   	inc    %esi
    525d:	83 fe 0a             	cmp    $0xa,%esi
    5260:	0f 84 aa 00 00 00    	je     5310 <test_float2+0x1670>
