
mkbd:     file format elf32-i386


Disassembly of section .init:

000010f4 <__entry>:
    10f4:	66 8c d0             	mov    %ss,%ax
    10f7:	8e d8                	mov    %eax,%ds
    10f9:	8e c0                	mov    %eax,%es
    10fb:	8e e0                	mov    %eax,%fs
    10fd:	b8 01 00 00 00       	mov    $0x1,%eax
    1102:	0f a2                	cpuid  
    1104:	0f ba e2 0b          	bt     $0xb,%edx
    1108:	73 0c                	jae    1116 <__entry+0x22>
    110a:	8d 05 38 8e 00 00    	lea    0x8e38,%eax
    1110:	c7 00 e0 76 00 00    	movl   $0x76e0,(%eax)
    1116:	6a 00                	push   $0x0
    1118:	6a 00                	push   $0x0
    111a:	89 e5                	mov    %esp,%ebp
    111c:	57                   	push   %edi
    111d:	e8 de 63 00 00       	call   7500 <__main@plt>

Disassembly of section .text:

00001140 <wait_for_quit_fibril>:
    1140:	55                   	push   %ebp
    1141:	89 e5                	mov    %esp,%ebp
    1143:	56                   	push   %esi
    1144:	53                   	push   %ebx
    1145:	83 ec 38             	sub    $0x38,%esp
    1148:	8b 1d 20 8e 00 00    	mov    0x8e20,%ebx
    114e:	8b 35 30 8e 00 00    	mov    0x8e30,%esi
    1154:	53                   	push   %ebx
    1155:	56                   	push   %esi
    1156:	e8 95 64 00 00       	call   75f0 <console_init@plt>
    115b:	8d 75 d4             	lea    -0x2c(%ebp),%esi
    115e:	c7 04 24 cc 4e 00 00 	movl   $0x4ecc,(%esp)
    1165:	89 c3                	mov    %eax,%ebx
    1167:	e8 b4 63 00 00       	call   7520 <printf@plt>
    116c:	83 c4 10             	add    $0x10,%esp
    116f:	90                   	nop
    1170:	51                   	push   %ecx
    1171:	51                   	push   %ecx
    1172:	56                   	push   %esi
    1173:	53                   	push   %ebx
    1174:	e8 37 64 00 00       	call   75b0 <console_get_event@plt>
    1179:	83 c4 10             	add    $0x10,%esp
    117c:	84 c0                	test   %al,%al
    117e:	74 30                	je     11b0 <wait_for_quit_fibril+0x70>
    1180:	8b 55 dc             	mov    -0x24(%ebp),%edx
    1183:	85 d2                	test   %edx,%edx
    1185:	75 e9                	jne    1170 <wait_for_quit_fibril+0x30>
    1187:	8b 45 e8             	mov    -0x18(%ebp),%eax
    118a:	85 c0                	test   %eax,%eax
    118c:	75 e2                	jne    1170 <wait_for_quit_fibril+0x30>
    118e:	83 7d ec 3c          	cmpl   $0x3c,-0x14(%ebp)
    1192:	75 dc                	jne    1170 <wait_for_quit_fibril+0x30>
    1194:	8d 74 26 00          	lea    0x0(%esi,%eiz,1),%esi
    1198:	83 ec 0c             	sub    $0xc,%esp
    119b:	53                   	push   %ebx
    119c:	e8 4f 65 00 00       	call   76f0 <console_done@plt>
    11a1:	c7 04 24 00 00 00 00 	movl   $0x0,(%esp)
    11a8:	e8 f3 64 00 00       	call   76a0 <exit@plt>
    11ad:	8d 76 00             	lea    0x0(%esi),%esi
    11b0:	e8 8b 63 00 00       	call   7540 <__errno@plt>
    11b5:	83 ec 0c             	sub    $0xc,%esp
    11b8:	8b 08                	mov    (%eax),%ecx
    11ba:	51                   	push   %ecx
    11bb:	e8 b0 64 00 00       	call   7670 <str_error@plt>
    11c0:	5e                   	pop    %esi
    11c1:	5a                   	pop    %edx
    11c2:	50                   	push   %eax
    11c3:	68 f4 4e 00 00       	push   $0x4ef4
    11c8:	e8 53 63 00 00       	call   7520 <printf@plt>
    11cd:	83 c4 10             	add    $0x10,%esp
    11d0:	eb c6                	jmp    1198 <wait_for_quit_fibril+0x58>
    11d2:	66 90                	xchg   %ax,%ax
    11d4:	66 90                	xchg   %ax,%ax
    11d6:	66 90                	xchg   %ax,%ax
    11d8:	66 90                	xchg   %ax,%ax
    11da:	66 90                	xchg   %ax,%ax
    11dc:	66 90                	xchg   %ax,%ax
    11de:	66 90                	xchg   %ax,%ax

000011e0 <main>:
    11e0:	8d 4c 24 04          	lea    0x4(%esp),%ecx
    11e4:	83 e4 f0             	and    $0xfffffff0,%esp
    11e7:	ff 71 fc             	pushl  -0x4(%ecx)
    11ea:	55                   	push   %ebp
    11eb:	89 e5                	mov    %esp,%ebp
    11ed:	57                   	push   %edi
    11ee:	56                   	push   %esi
    11ef:	53                   	push   %ebx
    11f0:	51                   	push   %ecx
    11f1:	81 ec 38 04 00 00    	sub    $0x438,%esp
    11f7:	8b 41 04             	mov    0x4(%ecx),%eax
    11fa:	83 39 01             	cmpl   $0x1,(%ecx)
    11fd:	0f 8e ea 03 00 00    	jle    15ed <main+0x40d>
    1203:	8b 40 04             	mov    0x4(%eax),%eax
    1206:	8d 95 d8 fb ff ff    	lea    -0x428(%ebp),%edx
    120c:	c7 85 d8 fb ff ff 00 	movl   $0x0,-0x428(%ebp)
    1213:	00 00 00 
    1216:	53                   	push   %ebx
    1217:	53                   	push   %ebx
    1218:	52                   	push   %edx
    1219:	50                   	push   %eax
    121a:	e8 61 35 00 00       	call   4780 <usb_resolve_device_handle>
    121f:	83 c4 10             	add    $0x10,%esp
    1222:	89 c3                	mov    %eax,%ebx
    1224:	85 c0                	test   %eax,%eax
    1226:	0f 85 0f 02 00 00    	jne    143b <main+0x25b>
    122c:	50                   	push   %eax
    122d:	50                   	push   %eax
    122e:	6a 00                	push   $0x0
    1230:	ff b5 d8 fb ff ff    	pushl  -0x428(%ebp)
    1236:	e8 d5 62 00 00       	call   7510 <devman_device_connect@plt>
    123b:	83 c4 10             	add    $0x10,%esp
    123e:	85 c0                	test   %eax,%eax
    1240:	0f 84 2f 03 00 00    	je     1575 <main+0x395>
    1246:	8d 9d e8 fb ff ff    	lea    -0x418(%ebp),%ebx
    124c:	57                   	push   %edi
    124d:	68 00 04 00 00       	push   $0x400
    1252:	53                   	push   %ebx
    1253:	ff b5 d8 fb ff ff    	pushl  -0x428(%ebp)
    1259:	a3 3c 8e 00 00       	mov    %eax,0x8e3c
    125e:	e8 2d 64 00 00       	call   7690 <devman_fun_get_path@plt>
    1263:	83 c4 10             	add    $0x10,%esp
    1266:	85 c0                	test   %eax,%eax
    1268:	0f 85 1b 02 00 00    	jne    1489 <main+0x2a9>
    126e:	56                   	push   %esi
    126f:	56                   	push   %esi
    1270:	53                   	push   %ebx
    1271:	68 9a 50 00 00       	push   $0x509a
    1276:	e8 a5 62 00 00       	call   7520 <printf@plt>
    127b:	c7 04 24 20 00 00 00 	movl   $0x20,(%esp)
    1282:	8b 3d 3c 8e 00 00    	mov    0x8e3c,%edi
    1288:	e8 e3 62 00 00       	call   7570 <malloc@plt>
    128d:	83 c4 10             	add    $0x10,%esp
    1290:	89 c6                	mov    %eax,%esi
    1292:	85 c0                	test   %eax,%eax
    1294:	0f 84 b4 03 00 00    	je     164e <main+0x46e>
    129a:	83 ec 0c             	sub    $0xc,%esp
    129d:	50                   	push   %eax
    129e:	e8 6d 04 00 00       	call   1710 <usb_hid_report_init>
    12a3:	83 c4 10             	add    $0x10,%esp
    12a6:	89 c3                	mov    %eax,%ebx
    12a8:	85 c0                	test   %eax,%eax
    12aa:	0f 85 b2 01 00 00    	jne    1462 <main+0x282>
    12b0:	8d 85 e0 fb ff ff    	lea    -0x420(%ebp),%eax
    12b6:	53                   	push   %ebx
    12b7:	53                   	push   %ebx
    12b8:	50                   	push   %eax
    12b9:	57                   	push   %edi
    12ba:	e8 81 3a 00 00       	call   4d40 <usbhid_dev_get_report_descriptor_length>
    12bf:	83 c4 10             	add    $0x10,%esp
    12c2:	89 c3                	mov    %eax,%ebx
    12c4:	85 c0                	test   %eax,%eax
    12c6:	0f 85 96 01 00 00    	jne    1462 <main+0x282>
    12cc:	8b 85 e0 fb ff ff    	mov    -0x420(%ebp),%eax
    12d2:	85 c0                	test   %eax,%eax
    12d4:	0f 84 5e 03 00 00    	je     1638 <main+0x458>
    12da:	83 ec 0c             	sub    $0xc,%esp
    12dd:	50                   	push   %eax
    12de:	e8 8d 62 00 00       	call   7570 <malloc@plt>
    12e3:	83 c4 10             	add    $0x10,%esp
    12e6:	89 c2                	mov    %eax,%edx
    12e8:	85 c0                	test   %eax,%eax
    12ea:	0f 84 68 03 00 00    	je     1658 <main+0x478>
    12f0:	8d 85 e4 fb ff ff    	lea    -0x41c(%ebp),%eax
    12f6:	89 95 c4 fb ff ff    	mov    %edx,-0x43c(%ebp)
    12fc:	50                   	push   %eax
    12fd:	ff b5 e0 fb ff ff    	pushl  -0x420(%ebp)
    1303:	52                   	push   %edx
    1304:	57                   	push   %edi
    1305:	e8 a6 3a 00 00       	call   4db0 <usbhid_dev_get_report_descriptor>
    130a:	83 c4 10             	add    $0x10,%esp
    130d:	89 c3                	mov    %eax,%ebx
    130f:	85 c0                	test   %eax,%eax
    1311:	8b 95 c4 fb ff ff    	mov    -0x43c(%ebp),%edx
    1317:	0f 85 87 02 00 00    	jne    15a4 <main+0x3c4>
    131d:	8b 85 e4 fb ff ff    	mov    -0x41c(%ebp),%eax
    1323:	3b 85 e0 fb ff ff    	cmp    -0x420(%ebp),%eax
    1329:	0f 85 94 02 00 00    	jne    15c3 <main+0x3e3>
    132f:	89 95 c4 fb ff ff    	mov    %edx,-0x43c(%ebp)
    1335:	51                   	push   %ecx
    1336:	50                   	push   %eax
    1337:	52                   	push   %edx
    1338:	56                   	push   %esi
    1339:	e8 52 17 00 00       	call   2a90 <usb_hid_parse_report_descriptor>
    133e:	8b 95 c4 fb ff ff    	mov    -0x43c(%ebp),%edx
    1344:	89 c3                	mov    %eax,%ebx
    1346:	89 14 24             	mov    %edx,(%esp)
    1349:	e8 b2 63 00 00       	call   7700 <free@plt>
    134e:	83 c4 10             	add    $0x10,%esp
    1351:	85 db                	test   %ebx,%ebx
    1353:	0f 85 15 01 00 00    	jne    146e <main+0x28e>
    1359:	8d 85 dc fb ff ff    	lea    -0x424(%ebp),%eax
    135f:	53                   	push   %ebx
    1360:	53                   	push   %ebx
    1361:	50                   	push   %eax
    1362:	ff 35 3c 8e 00 00    	pushl  0x8e3c
    1368:	e8 f3 37 00 00       	call   4b60 <usbhid_dev_get_event_length>
    136d:	83 c4 10             	add    $0x10,%esp
    1370:	89 c3                	mov    %eax,%ebx
    1372:	85 c0                	test   %eax,%eax
    1374:	0f 85 c6 01 00 00    	jne    1540 <main+0x360>
    137a:	83 ec 0c             	sub    $0xc,%esp
    137d:	ff b5 dc fb ff ff    	pushl  -0x424(%ebp)
    1383:	e8 e8 61 00 00       	call   7570 <malloc@plt>
    1388:	83 c4 10             	add    $0x10,%esp
    138b:	89 85 c4 fb ff ff    	mov    %eax,-0x43c(%ebp)
    1391:	85 c0                	test   %eax,%eax
    1393:	0f 84 f0 00 00 00    	je     1489 <main+0x2a9>
    1399:	50                   	push   %eax
    139a:	6a 00                	push   $0x0
    139c:	6a 00                	push   $0x0
    139e:	68 40 11 00 00       	push   $0x1140
    13a3:	e8 18 63 00 00       	call   76c0 <fibril_create_generic@plt>
    13a8:	83 c4 10             	add    $0x10,%esp
    13ab:	85 c0                	test   %eax,%eax
    13ad:	0f 84 6d 02 00 00    	je     1620 <main+0x440>
    13b3:	83 ec 0c             	sub    $0xc,%esp
    13b6:	83 cf ff             	or     $0xffffffff,%edi
    13b9:	50                   	push   %eax
    13ba:	e8 11 63 00 00       	call   76d0 <fibril_add_ready@plt>
    13bf:	89 9d c0 fb ff ff    	mov    %ebx,-0x440(%ebp)
    13c5:	83 c4 10             	add    $0x10,%esp
    13c8:	8b 9d c4 fb ff ff    	mov    -0x43c(%ebp),%ebx
    13ce:	eb 10                	jmp    13e0 <main+0x200>
    13d0:	83 ec 0c             	sub    $0xc,%esp
    13d3:	68 10 27 00 00       	push   $0x2710
    13d8:	e8 63 62 00 00       	call   7640 <async_usleep@plt>
    13dd:	83 c4 10             	add    $0x10,%esp
    13e0:	50                   	push   %eax
    13e1:	50                   	push   %eax
    13e2:	8d 85 e4 fb ff ff    	lea    -0x41c(%ebp),%eax
    13e8:	6a 00                	push   $0x0
    13ea:	50                   	push   %eax
    13eb:	8d 85 e0 fb ff ff    	lea    -0x420(%ebp),%eax
    13f1:	50                   	push   %eax
    13f2:	8b 85 dc fb ff ff    	mov    -0x424(%ebp),%eax
    13f8:	50                   	push   %eax
    13f9:	a1 3c 8e 00 00       	mov    0x8e3c,%eax
    13fe:	53                   	push   %ebx
    13ff:	50                   	push   %eax
    1400:	e8 cb 37 00 00       	call   4bd0 <usbhid_dev_get_event>
    1405:	83 c4 20             	add    $0x20,%esp
    1408:	85 c0                	test   %eax,%eax
    140a:	0f 85 80 00 00 00    	jne    1490 <main+0x2b0>
    1410:	3b bd e4 fb ff ff    	cmp    -0x41c(%ebp),%edi
    1416:	7d b8                	jge    13d0 <main+0x1f0>
    1418:	8d 85 d7 fb ff ff    	lea    -0x429(%ebp),%eax
    141e:	50                   	push   %eax
    141f:	ff b5 dc fb ff ff    	pushl  -0x424(%ebp)
    1425:	53                   	push   %ebx
    1426:	56                   	push   %esi
    1427:	e8 84 21 00 00       	call   35b0 <usb_hid_parse_report>
    142c:	83 c4 10             	add    $0x10,%esp
    142f:	85 c0                	test   %eax,%eax
    1431:	74 7e                	je     14b1 <main+0x2d1>
    1433:	8b bd e4 fb ff ff    	mov    -0x41c(%ebp),%edi
    1439:	eb 95                	jmp    13d0 <main+0x1f0>
    143b:	83 ec 0c             	sub    $0xc,%esp
    143e:	50                   	push   %eax
    143f:	e8 2c 62 00 00       	call   7670 <str_error@plt>
    1444:	5a                   	pop    %edx
    1445:	59                   	pop    %ecx
    1446:	50                   	push   %eax
    1447:	68 88 4f 00 00       	push   $0x4f88
    144c:	e8 cf 60 00 00       	call   7520 <printf@plt>
    1451:	83 c4 10             	add    $0x10,%esp
    1454:	8d 65 f0             	lea    -0x10(%ebp),%esp
    1457:	89 d8                	mov    %ebx,%eax
    1459:	59                   	pop    %ecx
    145a:	5b                   	pop    %ebx
    145b:	5e                   	pop    %esi
    145c:	5f                   	pop    %edi
    145d:	5d                   	pop    %ebp
    145e:	8d 61 fc             	lea    -0x4(%ecx),%esp
    1461:	c3                   	ret    
    1462:	83 ec 0c             	sub    $0xc,%esp
    1465:	56                   	push   %esi
    1466:	e8 55 1d 00 00       	call   31c0 <usb_hid_report_deinit>
    146b:	83 c4 10             	add    $0x10,%esp
    146e:	83 ec 0c             	sub    $0xc,%esp
    1471:	53                   	push   %ebx
    1472:	e8 f9 61 00 00       	call   7670 <str_error@plt>
    1477:	5e                   	pop    %esi
    1478:	5f                   	pop    %edi
    1479:	50                   	push   %eax
    147a:	68 ec 4f 00 00       	push   $0x4fec
    147f:	e8 9c 60 00 00       	call   7520 <printf@plt>
    1484:	83 c4 10             	add    $0x10,%esp
    1487:	eb cb                	jmp    1454 <main+0x274>
    1489:	bb fe ff ff ff       	mov    $0xfffffffe,%ebx
    148e:	eb c4                	jmp    1454 <main+0x274>
    1490:	83 ec 0c             	sub    $0xc,%esp
    1493:	8b 9d c0 fb ff ff    	mov    -0x440(%ebp),%ebx
    1499:	50                   	push   %eax
    149a:	e8 d1 61 00 00       	call   7670 <str_error@plt>
    149f:	59                   	pop    %ecx
    14a0:	5e                   	pop    %esi
    14a1:	50                   	push   %eax
    14a2:	68 58 50 00 00       	push   $0x5058
    14a7:	e8 74 60 00 00       	call   7520 <printf@plt>
    14ac:	83 c4 10             	add    $0x10,%esp
    14af:	eb a3                	jmp    1454 <main+0x274>
    14b1:	e8 aa 30 00 00       	call   4560 <usb_hid_report_path>
    14b6:	89 c7                	mov    %eax,%edi
    14b8:	85 c0                	test   %eax,%eax
    14ba:	0f 84 73 ff ff ff    	je     1433 <main+0x253>
    14c0:	50                   	push   %eax
    14c1:	6a 00                	push   $0x0
    14c3:	6a 0c                	push   $0xc
    14c5:	57                   	push   %edi
    14c6:	e8 55 2b 00 00       	call   4020 <usb_hid_report_path_append_item>
    14cb:	58                   	pop    %eax
    14cc:	31 c0                	xor    %eax,%eax
    14ce:	5a                   	pop    %edx
    14cf:	8a 85 d7 fb ff ff    	mov    -0x429(%ebp),%al
    14d5:	50                   	push   %eax
    14d6:	57                   	push   %edi
    14d7:	e8 64 32 00 00       	call   4740 <usb_hid_report_path_set_report_id>
    14dc:	c7 04 24 01 00 00 00 	movl   $0x1,(%esp)
    14e3:	6a 03                	push   $0x3
    14e5:	57                   	push   %edi
    14e6:	6a 00                	push   $0x0
    14e8:	56                   	push   %esi
    14e9:	e8 52 29 00 00       	call   3e40 <usb_hid_report_get_sibling>
    14ee:	83 c4 20             	add    $0x20,%esp
    14f1:	85 c0                	test   %eax,%eax
    14f3:	74 6f                	je     1564 <main+0x384>
    14f5:	89 9d c4 fb ff ff    	mov    %ebx,-0x43c(%ebp)
    14fb:	89 c3                	mov    %eax,%ebx
    14fd:	eb 19                	jmp    1518 <main+0x338>
    14ff:	90                   	nop
    1500:	83 ec 0c             	sub    $0xc,%esp
    1503:	6a 01                	push   $0x1
    1505:	6a 03                	push   $0x3
    1507:	57                   	push   %edi
    1508:	53                   	push   %ebx
    1509:	56                   	push   %esi
    150a:	e8 31 29 00 00       	call   3e40 <usb_hid_report_get_sibling>
    150f:	83 c4 20             	add    $0x20,%esp
    1512:	89 c3                	mov    %eax,%ebx
    1514:	85 c0                	test   %eax,%eax
    1516:	74 46                	je     155e <main+0x37e>
    1518:	8b 43 3c             	mov    0x3c(%ebx),%eax
    151b:	85 c0                	test   %eax,%eax
    151d:	74 e1                	je     1500 <main+0x320>
    151f:	83 ec 0c             	sub    $0xc,%esp
    1522:	31 c0                	xor    %eax,%eax
    1524:	66 8b 43 0a          	mov    0xa(%ebx),%ax
    1528:	50                   	push   %eax
    1529:	e8 32 32 00 00       	call   4760 <usbhid_multimedia_usage_to_str>
    152e:	5a                   	pop    %edx
    152f:	59                   	pop    %ecx
    1530:	50                   	push   %eax
    1531:	68 ab 50 00 00       	push   $0x50ab
    1536:	e8 e5 5f 00 00       	call   7520 <printf@plt>
    153b:	83 c4 10             	add    $0x10,%esp
    153e:	eb c0                	jmp    1500 <main+0x320>
    1540:	83 ec 0c             	sub    $0xc,%esp
    1543:	50                   	push   %eax
    1544:	e8 27 61 00 00       	call   7670 <str_error@plt>
    1549:	5a                   	pop    %edx
    154a:	59                   	pop    %ecx
    154b:	50                   	push   %eax
    154c:	68 14 50 00 00       	push   $0x5014
    1551:	e8 ca 5f 00 00       	call   7520 <printf@plt>
    1556:	83 c4 10             	add    $0x10,%esp
    1559:	e9 f6 fe ff ff       	jmp    1454 <main+0x274>
    155e:	8b 9d c4 fb ff ff    	mov    -0x43c(%ebp),%ebx
    1564:	83 ec 0c             	sub    $0xc,%esp
    1567:	57                   	push   %edi
    1568:	e8 33 30 00 00       	call   45a0 <usb_hid_report_path_free>
    156d:	83 c4 10             	add    $0x10,%esp
    1570:	e9 be fe ff ff       	jmp    1433 <main+0x253>
    1575:	e8 c6 5f 00 00       	call   7540 <__errno@plt>
    157a:	83 ec 0c             	sub    $0xc,%esp
    157d:	89 c3                	mov    %eax,%ebx
    157f:	ff 30                	pushl  (%eax)
    1581:	e8 ea 60 00 00       	call   7670 <str_error@plt>
    1586:	83 c4 0c             	add    $0xc,%esp
    1589:	50                   	push   %eax
    158a:	ff b5 d8 fb ff ff    	pushl  -0x428(%ebp)
    1590:	68 b4 4f 00 00       	push   $0x4fb4
    1595:	e8 86 5f 00 00       	call   7520 <printf@plt>
    159a:	8b 1b                	mov    (%ebx),%ebx
    159c:	83 c4 10             	add    $0x10,%esp
    159f:	e9 b0 fe ff ff       	jmp    1454 <main+0x274>
    15a4:	83 ec 0c             	sub    $0xc,%esp
    15a7:	56                   	push   %esi
    15a8:	e8 13 1c 00 00       	call   31c0 <usb_hid_report_deinit>
    15ad:	8b 95 c4 fb ff ff    	mov    -0x43c(%ebp),%edx
    15b3:	89 14 24             	mov    %edx,(%esp)
    15b6:	e8 45 61 00 00       	call   7700 <free@plt>
    15bb:	83 c4 10             	add    $0x10,%esp
    15be:	e9 ab fe ff ff       	jmp    146e <main+0x28e>
    15c3:	83 ec 0c             	sub    $0xc,%esp
    15c6:	89 95 c4 fb ff ff    	mov    %edx,-0x43c(%ebp)
    15cc:	bb f2 ff ff ff       	mov    $0xfffffff2,%ebx
    15d1:	56                   	push   %esi
    15d2:	e8 e9 1b 00 00       	call   31c0 <usb_hid_report_deinit>
    15d7:	8b 95 c4 fb ff ff    	mov    -0x43c(%ebp),%edx
    15dd:	89 14 24             	mov    %edx,(%esp)
    15e0:	e8 1b 61 00 00       	call   7700 <free@plt>
    15e5:	83 c4 10             	add    $0x10,%esp
    15e8:	e9 81 fe ff ff       	jmp    146e <main+0x28e>
    15ed:	83 ec 0c             	sub    $0xc,%esp
    15f0:	8b 18                	mov    (%eax),%ebx
    15f2:	68 1c 4f 00 00       	push   $0x4f1c
    15f7:	e8 24 5f 00 00       	call   7520 <printf@plt>
    15fc:	5e                   	pop    %esi
    15fd:	5f                   	pop    %edi
    15fe:	53                   	push   %ebx
    15ff:	68 88 50 00 00       	push   $0x5088
    1604:	83 cb ff             	or     $0xffffffff,%ebx
    1607:	e8 14 5f 00 00       	call   7520 <printf@plt>
    160c:	c7 04 24 54 4f 00 00 	movl   $0x4f54,(%esp)
    1613:	e8 08 5f 00 00       	call   7520 <printf@plt>
    1618:	83 c4 10             	add    $0x10,%esp
    161b:	e9 34 fe ff ff       	jmp    1454 <main+0x274>
    1620:	83 ec 0c             	sub    $0xc,%esp
    1623:	83 cb ff             	or     $0xffffffff,%ebx
    1626:	68 38 50 00 00       	push   $0x5038
    162b:	e8 f0 5e 00 00       	call   7520 <printf@plt>
    1630:	83 c4 10             	add    $0x10,%esp
    1633:	e9 1c fe ff ff       	jmp    1454 <main+0x274>
    1638:	83 ec 0c             	sub    $0xc,%esp
    163b:	bb f2 ff ff ff       	mov    $0xfffffff2,%ebx
    1640:	56                   	push   %esi
    1641:	e8 7a 1b 00 00       	call   31c0 <usb_hid_report_deinit>
    1646:	83 c4 10             	add    $0x10,%esp
    1649:	e9 20 fe ff ff       	jmp    146e <main+0x28e>
    164e:	bb fe ff ff ff       	mov    $0xfffffffe,%ebx
    1653:	e9 16 fe ff ff       	jmp    146e <main+0x28e>
    1658:	83 ec 0c             	sub    $0xc,%esp
    165b:	bb fe ff ff ff       	mov    $0xfffffffe,%ebx
    1660:	56                   	push   %esi
    1661:	e8 5a 1b 00 00       	call   31c0 <usb_hid_report_deinit>
    1666:	83 c4 10             	add    $0x10,%esp
    1669:	e9 00 fe ff ff       	jmp    146e <main+0x28e>
    166e:	66 90                	xchg   %ax,%ax

00001670 <usb_hid_report_path_try_insert>:
    1670:	55                   	push   %ebp
    1671:	89 e5                	mov    %esp,%ebp
    1673:	57                   	push   %edi
    1674:	56                   	push   %esi
    1675:	53                   	push   %ebx
    1676:	83 ec 1c             	sub    $0x1c,%esp
    1679:	8b 45 08             	mov    0x8(%ebp),%eax
    167c:	8b 5d 0c             	mov    0xc(%ebp),%ebx
    167f:	85 db                	test   %ebx,%ebx
    1681:	8b 70 10             	mov    0x10(%eax),%esi
    1684:	74 72                	je     16f8 <usb_hid_report_path_try_insert+0x88>
    1686:	83 c0 0c             	add    $0xc,%eax
    1689:	89 45 e4             	mov    %eax,-0x1c(%ebp)
    168c:	39 c6                	cmp    %eax,%esi
    168e:	75 10                	jne    16a0 <usb_hid_report_path_try_insert+0x30>
    1690:	eb 2e                	jmp    16c0 <usb_hid_report_path_try_insert+0x50>
    1692:	8d b6 00 00 00 00    	lea    0x0(%esi),%esi
    1698:	8b 76 04             	mov    0x4(%esi),%esi
    169b:	3b 75 e4             	cmp    -0x1c(%ebp),%esi
    169e:	74 20                	je     16c0 <usb_hid_report_path_try_insert+0x50>
    16a0:	8d 7e f8             	lea    -0x8(%esi),%edi
    16a3:	51                   	push   %ecx
    16a4:	6a 00                	push   $0x0
    16a6:	53                   	push   %ebx
    16a7:	57                   	push   %edi
    16a8:	e8 43 2b 00 00       	call   41f0 <usb_hid_report_compare_usage_path>
    16ad:	83 c4 10             	add    $0x10,%esp
    16b0:	85 c0                	test   %eax,%eax
    16b2:	75 e4                	jne    1698 <usb_hid_report_path_try_insert+0x28>
    16b4:	8d 65 f4             	lea    -0xc(%ebp),%esp
    16b7:	89 f8                	mov    %edi,%eax
    16b9:	5b                   	pop    %ebx
    16ba:	5e                   	pop    %esi
    16bb:	5f                   	pop    %edi
    16bc:	5d                   	pop    %ebp
    16bd:	c3                   	ret    
    16be:	66 90                	xchg   %ax,%ax
    16c0:	83 ec 0c             	sub    $0xc,%esp
    16c3:	53                   	push   %ebx
    16c4:	e8 a7 2f 00 00       	call   4670 <usb_hid_report_path_clone>
    16c9:	83 c4 10             	add    $0x10,%esp
    16cc:	89 c7                	mov    %eax,%edi
    16ce:	85 c0                	test   %eax,%eax
    16d0:	74 e2                	je     16b4 <usb_hid_report_path_try_insert+0x44>
    16d2:	8b 4d e4             	mov    -0x1c(%ebp),%ecx
    16d5:	8d 47 08             	lea    0x8(%edi),%eax
    16d8:	89 4f 0c             	mov    %ecx,0xc(%edi)
    16db:	8b 4d 08             	mov    0x8(%ebp),%ecx
    16de:	8b 51 0c             	mov    0xc(%ecx),%edx
    16e1:	89 57 08             	mov    %edx,0x8(%edi)
    16e4:	8b 51 0c             	mov    0xc(%ecx),%edx
    16e7:	89 42 04             	mov    %eax,0x4(%edx)
    16ea:	8b 51 14             	mov    0x14(%ecx),%edx
    16ed:	42                   	inc    %edx
    16ee:	89 41 0c             	mov    %eax,0xc(%ecx)
    16f1:	89 51 14             	mov    %edx,0x14(%ecx)
    16f4:	eb be                	jmp    16b4 <usb_hid_report_path_try_insert+0x44>
    16f6:	66 90                	xchg   %ax,%ax
    16f8:	8d 65 f4             	lea    -0xc(%ebp),%esp
    16fb:	31 ff                	xor    %edi,%edi
    16fd:	89 f8                	mov    %edi,%eax
    16ff:	5b                   	pop    %ebx
    1700:	5e                   	pop    %esi
    1701:	5f                   	pop    %edi
    1702:	5d                   	pop    %ebp
    1703:	c3                   	ret    
    1704:	8d b6 00 00 00 00    	lea    0x0(%esi),%esi
    170a:	8d bf 00 00 00 00    	lea    0x0(%edi),%edi

00001710 <usb_hid_report_init>:
    1710:	55                   	push   %ebp
    1711:	89 e5                	mov    %esp,%ebp
    1713:	53                   	push   %ebx
    1714:	52                   	push   %edx
    1715:	8b 5d 08             	mov    0x8(%ebp),%ebx
    1718:	85 db                	test   %ebx,%ebx
    171a:	74 34                	je     1750 <usb_hid_report_init+0x40>
    171c:	50                   	push   %eax
    171d:	6a 20                	push   $0x20
    171f:	6a 00                	push   $0x0
    1721:	53                   	push   %ebx
    1722:	e8 f9 5e 00 00       	call   7620 <memset@plt>
    1727:	8d 43 04             	lea    0x4(%ebx),%eax
    172a:	89 43 04             	mov    %eax,0x4(%ebx)
    172d:	89 43 08             	mov    %eax,0x8(%ebx)
    1730:	8d 43 0c             	lea    0xc(%ebx),%eax
    1733:	c7 43 18 00 00 00 00 	movl   $0x0,0x18(%ebx)
    173a:	89 43 0c             	mov    %eax,0xc(%ebx)
    173d:	89 43 10             	mov    %eax,0x10(%ebx)
    1740:	83 c4 10             	add    $0x10,%esp
    1743:	31 c0                	xor    %eax,%eax
    1745:	8b 5d fc             	mov    -0x4(%ebp),%ebx
    1748:	c9                   	leave  
    1749:	c3                   	ret    
    174a:	8d b6 00 00 00 00    	lea    0x0(%esi),%esi
    1750:	b8 f2 ff ff ff       	mov    $0xfffffff2,%eax
    1755:	eb ee                	jmp    1745 <usb_hid_report_init+0x35>
    1757:	89 f6                	mov    %esi,%esi
    1759:	8d bc 27 00 00 00 00 	lea    0x0(%edi,%eiz,1),%edi

00001760 <usb_hid_report_append_fields>:
    1760:	55                   	push   %ebp
    1761:	89 e5                	mov    %esp,%ebp
    1763:	57                   	push   %edi
    1764:	56                   	push   %esi
    1765:	53                   	push   %ebx
    1766:	83 ec 3c             	sub    $0x3c,%esp
    1769:	8b 45 08             	mov    0x8(%ebp),%eax
    176c:	85 c0                	test   %eax,%eax
    176e:	0f 84 6c 04 00 00    	je     1be0 <usb_hid_report_append_fields+0x480>
    1774:	8b 45 0c             	mov    0xc(%ebp),%eax
    1777:	85 c0                	test   %eax,%eax
    1779:	0f 84 61 04 00 00    	je     1be0 <usb_hid_report_append_fields+0x480>
    177f:	8b 45 0c             	mov    0xc(%ebp),%eax
    1782:	8b 80 04 00 04 00    	mov    0x40004(%eax),%eax
    1788:	85 c0                	test   %eax,%eax
    178a:	0f 8e 24 04 00 00    	jle    1bb4 <usb_hid_report_append_fields+0x454>
    1790:	c1 e0 02             	shl    $0x2,%eax
    1793:	83 ec 0c             	sub    $0xc,%esp
    1796:	50                   	push   %eax
    1797:	e8 d4 5d 00 00       	call   7570 <malloc@plt>
    179c:	89 c1                	mov    %eax,%ecx
    179e:	89 45 c8             	mov    %eax,-0x38(%ebp)
    17a1:	8b 45 0c             	mov    0xc(%ebp),%eax
    17a4:	83 c4 0c             	add    $0xc,%esp
    17a7:	8b 80 04 00 04 00    	mov    0x40004(%eax),%eax
    17ad:	89 45 e4             	mov    %eax,-0x1c(%ebp)
    17b0:	c1 e0 02             	shl    $0x2,%eax
    17b3:	50                   	push   %eax
    17b4:	8b 45 0c             	mov    0xc(%ebp),%eax
    17b7:	83 c0 08             	add    $0x8,%eax
    17ba:	50                   	push   %eax
    17bb:	51                   	push   %ecx
    17bc:	e8 9f 5d 00 00       	call   7560 <memcpy@plt>
    17c1:	8b 45 0c             	mov    0xc(%ebp),%eax
    17c4:	8b 80 58 00 04 00    	mov    0x40058(%eax),%eax
    17ca:	83 c4 10             	add    $0x10,%esp
    17cd:	89 45 cc             	mov    %eax,-0x34(%ebp)
    17d0:	8b 45 0c             	mov    0xc(%ebp),%eax
    17d3:	8b 80 20 00 04 00    	mov    0x40020(%eax),%eax
    17d9:	85 c0                	test   %eax,%eax
    17db:	0f 8e 1a 02 00 00    	jle    19fb <usb_hid_report_append_fields+0x29b>
    17e1:	8b 45 08             	mov    0x8(%ebp),%eax
    17e4:	c7 45 c4 00 00 00 00 	movl   $0x0,-0x3c(%ebp)
    17eb:	83 c0 0c             	add    $0xc,%eax
    17ee:	c7 45 e0 00 00 00 00 	movl   $0x0,-0x20(%ebp)
    17f5:	89 45 e4             	mov    %eax,-0x1c(%ebp)
    17f8:	8b 45 08             	mov    0x8(%ebp),%eax
    17fb:	83 c0 04             	add    $0x4,%eax
    17fe:	89 45 dc             	mov    %eax,-0x24(%ebp)
    1801:	8d b4 26 00 00 00 00 	lea    0x0(%esi,%eiz,1),%esi
    1808:	83 ec 0c             	sub    $0xc,%esp
    180b:	6a 48                	push   $0x48
    180d:	e8 5e 5d 00 00       	call   7570 <malloc@plt>
    1812:	83 c4 10             	add    $0x10,%esp
    1815:	89 c6                	mov    %eax,%esi
    1817:	85 c0                	test   %eax,%eax
    1819:	0f 84 77 03 00 00    	je     1b96 <usb_hid_report_append_fields+0x436>
    181f:	57                   	push   %edi
    1820:	6a 48                	push   $0x48
    1822:	6a 00                	push   $0x0
    1824:	50                   	push   %eax
    1825:	e8 f6 5d 00 00       	call   7620 <memset@plt>
    182a:	8d 46 40             	lea    0x40(%esi),%eax
    182d:	89 45 d0             	mov    %eax,-0x30(%ebp)
    1830:	8b 45 0c             	mov    0xc(%ebp),%eax
    1833:	83 c4 10             	add    $0x10,%esp
    1836:	c7 46 40 00 00 00 00 	movl   $0x0,0x40(%esi)
    183d:	8b 80 14 00 04 00    	mov    0x40014(%eax),%eax
    1843:	c7 46 44 00 00 00 00 	movl   $0x0,0x44(%esi)
    184a:	89 46 14             	mov    %eax,0x14(%esi)
    184d:	8b 45 0c             	mov    0xc(%ebp),%eax
    1850:	8b 80 18 00 04 00    	mov    0x40018(%eax),%eax
    1856:	89 46 18             	mov    %eax,0x18(%esi)
    1859:	8b 45 0c             	mov    0xc(%ebp),%eax
    185c:	8b 80 48 00 04 00    	mov    0x40048(%eax),%eax
    1862:	89 46 1c             	mov    %eax,0x1c(%esi)
    1865:	8b 45 0c             	mov    0xc(%ebp),%eax
    1868:	8b 80 4c 00 04 00    	mov    0x4004c(%eax),%eax
    186e:	89 46 20             	mov    %eax,0x20(%esi)
    1871:	8b 45 0c             	mov    0xc(%ebp),%eax
    1874:	f6 80 50 00 04 00 02 	testb  $0x2,0x40050(%eax)
    187b:	0f 85 2f 02 00 00    	jne    1ab0 <usb_hid_report_append_fields+0x350>
    1881:	8b 80 04 00 04 00    	mov    0x40004(%eax),%eax
    1887:	c7 46 08 00 00 00 00 	movl   $0x0,0x8(%esi)
    188e:	89 46 38             	mov    %eax,0x38(%esi)
    1891:	8b 45 c8             	mov    -0x38(%ebp),%eax
    1894:	89 46 34             	mov    %eax,0x34(%esi)
    1897:	c7 45 c4 01 00 00 00 	movl   $0x1,-0x3c(%ebp)
    189e:	31 c0                	xor    %eax,%eax
    18a0:	8b 7d cc             	mov    -0x34(%ebp),%edi
    18a3:	53                   	push   %ebx
    18a4:	50                   	push   %eax
    18a5:	6a 01                	push   $0x1
    18a7:	57                   	push   %edi
    18a8:	e8 63 28 00 00       	call   4110 <usb_hid_report_set_last_item>
    18ad:	83 c4 0c             	add    $0xc,%esp
    18b0:	31 c0                	xor    %eax,%eax
    18b2:	66 8b 46 0a          	mov    0xa(%esi),%ax
    18b6:	50                   	push   %eax
    18b7:	6a 02                	push   $0x2
    18b9:	57                   	push   %edi
    18ba:	e8 51 28 00 00       	call   4110 <usb_hid_report_set_last_item>
    18bf:	8b 45 08             	mov    0x8(%ebp),%eax
    18c2:	83 c4 10             	add    $0x10,%esp
    18c5:	85 ff                	test   %edi,%edi
    18c7:	8b 58 10             	mov    0x10(%eax),%ebx
    18ca:	0f 84 bf 02 00 00    	je     1b8f <usb_hid_report_append_fields+0x42f>
    18d0:	3b 5d e4             	cmp    -0x1c(%ebp),%ebx
    18d3:	0f 84 12 02 00 00    	je     1aeb <usb_hid_report_append_fields+0x38b>
    18d9:	89 75 d8             	mov    %esi,-0x28(%ebp)
    18dc:	89 de                	mov    %ebx,%esi
    18de:	eb 0c                	jmp    18ec <usb_hid_report_append_fields+0x18c>
    18e0:	8b 76 04             	mov    0x4(%esi),%esi
    18e3:	3b 75 e4             	cmp    -0x1c(%ebp),%esi
    18e6:	0f 84 fc 01 00 00    	je     1ae8 <usb_hid_report_append_fields+0x388>
    18ec:	8d 5e f8             	lea    -0x8(%esi),%ebx
    18ef:	51                   	push   %ecx
    18f0:	6a 00                	push   $0x0
    18f2:	57                   	push   %edi
    18f3:	53                   	push   %ebx
    18f4:	e8 f7 28 00 00       	call   41f0 <usb_hid_report_compare_usage_path>
    18f9:	83 c4 10             	add    $0x10,%esp
    18fc:	85 c0                	test   %eax,%eax
    18fe:	75 e0                	jne    18e0 <usb_hid_report_append_fields+0x180>
    1900:	8b 75 d8             	mov    -0x28(%ebp),%esi
    1903:	89 df                	mov    %ebx,%edi
    1905:	8b 45 0c             	mov    0xc(%ebp),%eax
    1908:	89 7e 10             	mov    %edi,0x10(%esi)
    190b:	8b 80 1c 00 04 00    	mov    0x4001c(%eax),%eax
    1911:	89 45 d4             	mov    %eax,-0x2c(%ebp)
    1914:	89 46 04             	mov    %eax,0x4(%esi)
    1917:	8b 45 0c             	mov    0xc(%ebp),%eax
    191a:	8b b8 54 00 04 00    	mov    0x40054(%eax),%edi
    1920:	83 ff 01             	cmp    $0x1,%edi
    1923:	0f 84 07 02 00 00    	je     1b30 <usb_hid_report_append_fields+0x3d0>
    1929:	89 c2                	mov    %eax,%edx
    192b:	8b 5d e0             	mov    -0x20(%ebp),%ebx
    192e:	8b 45 d4             	mov    -0x2c(%ebp),%eax
    1931:	0f af c3             	imul   %ebx,%eax
    1934:	8b 8a 24 00 04 00    	mov    0x40024(%edx),%ecx
    193a:	01 c8                	add    %ecx,%eax
    193c:	89 06                	mov    %eax,(%esi)
    193e:	8b 4d 08             	mov    0x8(%ebp),%ecx
    1941:	8b 51 18             	mov    0x18(%ecx),%edx
    1944:	85 d2                	test   %edx,%edx
    1946:	0f 84 4c 01 00 00    	je     1a98 <usb_hid_report_append_fields+0x338>
    194c:	83 c0 08             	add    $0x8,%eax
    194f:	8b 4d 0c             	mov    0xc(%ebp),%ecx
    1952:	89 06                	mov    %eax,(%esi)
    1954:	8b 45 08             	mov    0x8(%ebp),%eax
    1957:	8a 09                	mov    (%ecx),%cl
    1959:	c7 40 18 01 00 00 00 	movl   $0x1,0x18(%eax)
    1960:	8b 45 0c             	mov    0xc(%ebp),%eax
    1963:	8a 80 50 00 04 00    	mov    0x40050(%eax),%al
    1969:	88 46 0c             	mov    %al,0xc(%esi)
    196c:	8b 45 08             	mov    0x8(%ebp),%eax
    196f:	8b 40 08             	mov    0x8(%eax),%eax
    1972:	39 45 dc             	cmp    %eax,-0x24(%ebp)
    1975:	8d 58 e8             	lea    -0x18(%eax),%ebx
    1978:	0f 84 9d 00 00 00    	je     1a1b <usb_hid_report_append_fields+0x2bb>
    197e:	84 c9                	test   %cl,%cl
    1980:	89 75 d8             	mov    %esi,-0x28(%ebp)
    1983:	0f 94 c2             	sete   %dl
    1986:	8b 75 dc             	mov    -0x24(%ebp),%esi
    1989:	eb 13                	jmp    199e <usb_hid_report_append_fields+0x23e>
    198b:	90                   	nop
    198c:	8d 74 26 00          	lea    0x0(%esi,%eiz,1),%esi
    1990:	84 d2                	test   %dl,%dl
    1992:	75 0e                	jne    19a2 <usb_hid_report_append_fields+0x242>
    1994:	8b 40 04             	mov    0x4(%eax),%eax
    1997:	39 c6                	cmp    %eax,%esi
    1999:	8d 58 e8             	lea    -0x18(%eax),%ebx
    199c:	74 7a                	je     1a18 <usb_hid_report_append_fields+0x2b8>
    199e:	38 0b                	cmp    %cl,(%ebx)
    19a0:	75 ee                	jne    1990 <usb_hid_report_append_fields+0x230>
    19a2:	3b 7b 04             	cmp    0x4(%ebx),%edi
    19a5:	75 ed                	jne    1994 <usb_hid_report_append_fields+0x234>
    19a7:	8b 75 d8             	mov    -0x28(%ebp),%esi
    19aa:	8d 43 10             	lea    0x10(%ebx),%eax
    19ad:	8b 53 10             	mov    0x10(%ebx),%edx
    19b0:	8b 4b 08             	mov    0x8(%ebx),%ecx
    19b3:	89 56 40             	mov    %edx,0x40(%esi)
    19b6:	89 46 44             	mov    %eax,0x44(%esi)
    19b9:	8b 43 10             	mov    0x10(%ebx),%eax
    19bc:	8b 55 d0             	mov    -0x30(%ebp),%edx
    19bf:	89 50 04             	mov    %edx,0x4(%eax)
    19c2:	8b 45 d4             	mov    -0x2c(%ebp),%eax
    19c5:	01 c1                	add    %eax,%ecx
    19c7:	8b 43 0c             	mov    0xc(%ebx),%eax
    19ca:	40                   	inc    %eax
    19cb:	89 4b 08             	mov    %ecx,0x8(%ebx)
    19ce:	89 43 0c             	mov    %eax,0xc(%ebx)
    19d1:	8b 45 e0             	mov    -0x20(%ebp),%eax
    19d4:	40                   	inc    %eax
    19d5:	8b 4d 0c             	mov    0xc(%ebp),%ecx
    19d8:	89 45 e0             	mov    %eax,-0x20(%ebp)
    19db:	89 53 10             	mov    %edx,0x10(%ebx)
    19de:	8b 45 e0             	mov    -0x20(%ebp),%eax
    19e1:	39 81 20 00 04 00    	cmp    %eax,0x40020(%ecx)
    19e7:	0f 8f 1b fe ff ff    	jg     1808 <usb_hid_report_append_fields+0xa8>
    19ed:	8b 7d c8             	mov    -0x38(%ebp),%edi
    19f0:	85 ff                	test   %edi,%edi
    19f2:	74 16                	je     1a0a <usb_hid_report_append_fields+0x2aa>
    19f4:	8b 75 c4             	mov    -0x3c(%ebp),%esi
    19f7:	85 f6                	test   %esi,%esi
    19f9:	75 0f                	jne    1a0a <usb_hid_report_append_fields+0x2aa>
    19fb:	83 ec 0c             	sub    $0xc,%esp
    19fe:	8b 5d c8             	mov    -0x38(%ebp),%ebx
    1a01:	53                   	push   %ebx
    1a02:	e8 f9 5c 00 00       	call   7700 <free@plt>
    1a07:	83 c4 10             	add    $0x10,%esp
    1a0a:	31 c0                	xor    %eax,%eax
    1a0c:	8d 65 f4             	lea    -0xc(%ebp),%esp
    1a0f:	5b                   	pop    %ebx
    1a10:	5e                   	pop    %esi
    1a11:	5f                   	pop    %edi
    1a12:	5d                   	pop    %ebp
    1a13:	c3                   	ret    
    1a14:	8d 74 26 00          	lea    0x0(%esi,%eiz,1),%esi
    1a18:	8b 75 d8             	mov    -0x28(%ebp),%esi
    1a1b:	83 ec 0c             	sub    $0xc,%esp
    1a1e:	6a 20                	push   $0x20
    1a20:	e8 4b 5b 00 00       	call   7570 <malloc@plt>
    1a25:	83 c4 10             	add    $0x10,%esp
    1a28:	89 c3                	mov    %eax,%ebx
    1a2a:	85 c0                	test   %eax,%eax
    1a2c:	0f 84 64 01 00 00    	je     1b96 <usb_hid_report_append_fields+0x436>
    1a32:	51                   	push   %ecx
    1a33:	6a 20                	push   $0x20
    1a35:	6a 00                	push   $0x0
    1a37:	50                   	push   %eax
    1a38:	e8 e3 5b 00 00       	call   7620 <memset@plt>
    1a3d:	8b 45 0c             	mov    0xc(%ebp),%eax
    1a40:	8b 80 54 00 04 00    	mov    0x40054(%eax),%eax
    1a46:	83 c4 10             	add    $0x10,%esp
    1a49:	89 43 04             	mov    %eax,0x4(%ebx)
    1a4c:	8b 45 0c             	mov    0xc(%ebp),%eax
    1a4f:	8b 00                	mov    (%eax),%eax
    1a51:	88 03                	mov    %al,(%ebx)
    1a53:	84 c0                	test   %al,%al
    1a55:	0f 85 48 01 00 00    	jne    1ba3 <usb_hid_report_append_fields+0x443>
    1a5b:	8b 4b 08             	mov    0x8(%ebx),%ecx
    1a5e:	8b 55 dc             	mov    -0x24(%ebp),%edx
    1a61:	8d 7b 18             	lea    0x18(%ebx),%edi
    1a64:	89 53 1c             	mov    %edx,0x1c(%ebx)
    1a67:	8b 55 08             	mov    0x8(%ebp),%edx
    1a6a:	8d 43 10             	lea    0x10(%ebx),%eax
    1a6d:	8b 52 04             	mov    0x4(%edx),%edx
    1a70:	89 43 10             	mov    %eax,0x10(%ebx)
    1a73:	89 53 18             	mov    %edx,0x18(%ebx)
    1a76:	89 43 14             	mov    %eax,0x14(%ebx)
    1a79:	89 7a 04             	mov    %edi,0x4(%edx)
    1a7c:	8b 55 08             	mov    0x8(%ebp),%edx
    1a7f:	89 7a 04             	mov    %edi,0x4(%edx)
    1a82:	89 d7                	mov    %edx,%edi
    1a84:	8b 12                	mov    (%edx),%edx
    1a86:	42                   	inc    %edx
    1a87:	89 17                	mov    %edx,(%edi)
    1a89:	8b 7e 04             	mov    0x4(%esi),%edi
    1a8c:	89 7d d4             	mov    %edi,-0x2c(%ebp)
    1a8f:	89 c2                	mov    %eax,%edx
    1a91:	e9 1d ff ff ff       	jmp    19b3 <usb_hid_report_append_fields+0x253>
    1a96:	66 90                	xchg   %ax,%ax
    1a98:	8b 45 0c             	mov    0xc(%ebp),%eax
    1a9b:	8b 4d 0c             	mov    0xc(%ebp),%ecx
    1a9e:	8a 80 50 00 04 00    	mov    0x40050(%eax),%al
    1aa4:	8a 09                	mov    (%ecx),%cl
    1aa6:	e9 be fe ff ff       	jmp    1969 <usb_hid_report_append_fields+0x209>
    1aab:	90                   	nop
    1aac:	8d 74 26 00          	lea    0x0(%esi,%eiz,1),%esi
    1ab0:	8b 80 04 00 04 00    	mov    0x40004(%eax),%eax
    1ab6:	8b 7d e0             	mov    -0x20(%ebp),%edi
    1ab9:	39 f8                	cmp    %edi,%eax
    1abb:	0f 8e c2 00 00 00    	jle    1b83 <usb_hid_report_append_fields+0x423>
    1ac1:	8b 45 0c             	mov    0xc(%ebp),%eax
    1ac4:	8b 44 b8 08          	mov    0x8(%eax,%edi,4),%eax
    1ac8:	66 89 46 0a          	mov    %ax,0xa(%esi)
    1acc:	a9 00 00 ff ff       	test   $0xffff0000,%eax
    1ad1:	0f 84 95 00 00 00    	je     1b6c <usb_hid_report_append_fields+0x40c>
    1ad7:	c1 e8 10             	shr    $0x10,%eax
    1ada:	66 89 46 08          	mov    %ax,0x8(%esi)
    1ade:	e9 bd fd ff ff       	jmp    18a0 <usb_hid_report_append_fields+0x140>
    1ae3:	90                   	nop
    1ae4:	8d 74 26 00          	lea    0x0(%esi,%eiz,1),%esi
    1ae8:	8b 75 d8             	mov    -0x28(%ebp),%esi
    1aeb:	83 ec 0c             	sub    $0xc,%esp
    1aee:	8b 4d cc             	mov    -0x34(%ebp),%ecx
    1af1:	51                   	push   %ecx
    1af2:	e8 79 2b 00 00       	call   4670 <usb_hid_report_path_clone>
    1af7:	83 c4 10             	add    $0x10,%esp
    1afa:	89 c7                	mov    %eax,%edi
    1afc:	85 c0                	test   %eax,%eax
    1afe:	0f 84 01 fe ff ff    	je     1905 <usb_hid_report_append_fields+0x1a5>
    1b04:	8b 55 e4             	mov    -0x1c(%ebp),%edx
    1b07:	8b 4d 08             	mov    0x8(%ebp),%ecx
    1b0a:	89 57 0c             	mov    %edx,0xc(%edi)
    1b0d:	8b 55 08             	mov    0x8(%ebp),%edx
    1b10:	8d 47 08             	lea    0x8(%edi),%eax
    1b13:	8b 52 0c             	mov    0xc(%edx),%edx
    1b16:	89 57 08             	mov    %edx,0x8(%edi)
    1b19:	8b 51 0c             	mov    0xc(%ecx),%edx
    1b1c:	89 42 04             	mov    %eax,0x4(%edx)
    1b1f:	8b 51 14             	mov    0x14(%ecx),%edx
    1b22:	42                   	inc    %edx
    1b23:	89 41 0c             	mov    %eax,0xc(%ecx)
    1b26:	89 51 14             	mov    %edx,0x14(%ecx)
    1b29:	e9 d7 fd ff ff       	jmp    1905 <usb_hid_report_append_fields+0x1a5>
    1b2e:	66 90                	xchg   %ax,%ax
    1b30:	8b 4d d4             	mov    -0x2c(%ebp),%ecx
    1b33:	8b 55 e0             	mov    -0x20(%ebp),%edx
    1b36:	0f af d1             	imul   %ecx,%edx
    1b39:	8b 98 24 00 04 00    	mov    0x40024(%eax),%ebx
    1b3f:	01 da                	add    %ebx,%edx
    1b41:	89 d0                	mov    %edx,%eax
    1b43:	c1 f8 1f             	sar    $0x1f,%eax
    1b46:	83 e0 07             	and    $0x7,%eax
    1b49:	01 d0                	add    %edx,%eax
    1b4b:	c1 f8 03             	sar    $0x3,%eax
    1b4e:	8d 44 00 01          	lea    0x1(%eax,%eax,1),%eax
    1b52:	c1 e0 03             	shl    $0x3,%eax
    1b55:	29 d0                	sub    %edx,%eax
    1b57:	29 c8                	sub    %ecx,%eax
    1b59:	0f 89 dd fd ff ff    	jns    193c <usb_hid_report_append_fields+0x1dc>
    1b5f:	c7 06 00 00 00 00    	movl   $0x0,(%esi)
    1b65:	31 c0                	xor    %eax,%eax
    1b67:	e9 d2 fd ff ff       	jmp    193e <usb_hid_report_append_fields+0x1de>
    1b6c:	8b 45 0c             	mov    0xc(%ebp),%eax
    1b6f:	8b 80 08 00 04 00    	mov    0x40008(%eax),%eax
    1b75:	66 89 46 08          	mov    %ax,0x8(%esi)
    1b79:	25 ff ff 00 00       	and    $0xffff,%eax
    1b7e:	e9 1d fd ff ff       	jmp    18a0 <usb_hid_report_append_fields+0x140>
    1b83:	8b 7d 0c             	mov    0xc(%ebp),%edi
    1b86:	8b 44 87 04          	mov    0x4(%edi,%eax,4),%eax
    1b8a:	e9 39 ff ff ff       	jmp    1ac8 <usb_hid_report_append_fields+0x368>
    1b8f:	31 ff                	xor    %edi,%edi
    1b91:	e9 6f fd ff ff       	jmp    1905 <usb_hid_report_append_fields+0x1a5>
    1b96:	8d 65 f4             	lea    -0xc(%ebp),%esp
    1b99:	b8 fe ff ff ff       	mov    $0xfffffffe,%eax
    1b9e:	5b                   	pop    %ebx
    1b9f:	5e                   	pop    %esi
    1ba0:	5f                   	pop    %edi
    1ba1:	5d                   	pop    %ebp
    1ba2:	c3                   	ret    
    1ba3:	c7 43 08 08 00 00 00 	movl   $0x8,0x8(%ebx)
    1baa:	b9 08 00 00 00       	mov    $0x8,%ecx
    1baf:	e9 aa fe ff ff       	jmp    1a5e <usb_hid_report_append_fields+0x2fe>
    1bb4:	8b 45 0c             	mov    0xc(%ebp),%eax
    1bb7:	c7 45 c8 00 00 00 00 	movl   $0x0,-0x38(%ebp)
    1bbe:	8b 80 58 00 04 00    	mov    0x40058(%eax),%eax
    1bc4:	89 45 cc             	mov    %eax,-0x34(%ebp)
    1bc7:	8b 45 0c             	mov    0xc(%ebp),%eax
    1bca:	8b 80 20 00 04 00    	mov    0x40020(%eax),%eax
    1bd0:	85 c0                	test   %eax,%eax
    1bd2:	0f 8f 09 fc ff ff    	jg     17e1 <usb_hid_report_append_fields+0x81>
    1bd8:	e9 2d fe ff ff       	jmp    1a0a <usb_hid_report_append_fields+0x2aa>
    1bdd:	8d 76 00             	lea    0x0(%esi),%esi
    1be0:	b8 f2 ff ff ff       	mov    $0xfffffff2,%eax
    1be5:	e9 22 fe ff ff       	jmp    1a0c <usb_hid_report_append_fields+0x2ac>
    1bea:	8d b6 00 00 00 00    	lea    0x0(%esi),%esi

00001bf0 <usb_hid_report_find_description>:
    1bf0:	55                   	push   %ebp
    1bf1:	89 e5                	mov    %esp,%ebp
    1bf3:	57                   	push   %edi
    1bf4:	56                   	push   %esi
    1bf5:	53                   	push   %ebx
    1bf6:	8b 75 08             	mov    0x8(%ebp),%esi
    1bf9:	8b 5d 0c             	mov    0xc(%ebp),%ebx
    1bfc:	8b 7d 10             	mov    0x10(%ebp),%edi
    1bff:	85 f6                	test   %esi,%esi
    1c01:	74 3d                	je     1c40 <usb_hid_report_find_description+0x50>
    1c03:	8b 56 08             	mov    0x8(%esi),%edx
    1c06:	83 c6 04             	add    $0x4,%esi
    1c09:	39 f2                	cmp    %esi,%edx
    1c0b:	8d 42 e8             	lea    -0x18(%edx),%eax
    1c0e:	74 30                	je     1c40 <usb_hid_report_find_description+0x50>
    1c10:	88 d9                	mov    %bl,%cl
    1c12:	84 db                	test   %bl,%bl
    1c14:	0f 94 c3             	sete   %bl
    1c17:	eb 15                	jmp    1c2e <usb_hid_report_find_description+0x3e>
    1c19:	8d b4 26 00 00 00 00 	lea    0x0(%esi,%eiz,1),%esi
    1c20:	84 db                	test   %bl,%bl
    1c22:	75 0e                	jne    1c32 <usb_hid_report_find_description+0x42>
    1c24:	8b 52 04             	mov    0x4(%edx),%edx
    1c27:	39 f2                	cmp    %esi,%edx
    1c29:	8d 42 e8             	lea    -0x18(%edx),%eax
    1c2c:	74 12                	je     1c40 <usb_hid_report_find_description+0x50>
    1c2e:	38 08                	cmp    %cl,(%eax)
    1c30:	75 ee                	jne    1c20 <usb_hid_report_find_description+0x30>
    1c32:	39 78 04             	cmp    %edi,0x4(%eax)
    1c35:	75 ed                	jne    1c24 <usb_hid_report_find_description+0x34>
    1c37:	5b                   	pop    %ebx
    1c38:	5e                   	pop    %esi
    1c39:	5f                   	pop    %edi
    1c3a:	5d                   	pop    %ebp
    1c3b:	c3                   	ret    
    1c3c:	8d 74 26 00          	lea    0x0(%esi,%eiz,1),%esi
    1c40:	5b                   	pop    %ebx
    1c41:	31 c0                	xor    %eax,%eax
    1c43:	5e                   	pop    %esi
    1c44:	5f                   	pop    %edi
    1c45:	5d                   	pop    %ebp
    1c46:	c3                   	ret    
    1c47:	89 f6                	mov    %esi,%esi
    1c49:	8d bc 27 00 00 00 00 	lea    0x0(%edi,%eiz,1),%edi

00001c50 <usb_hid_report_parse_main_tag>:
    1c50:	55                   	push   %ebp
    1c51:	89 e5                	mov    %esp,%ebp
    1c53:	56                   	push   %esi
    1c54:	53                   	push   %ebx
    1c55:	8a 45 08             	mov    0x8(%ebp),%al
    1c58:	8b 55 0c             	mov    0xc(%ebp),%edx
    1c5b:	8b 75 14             	mov    0x14(%ebp),%esi
    1c5e:	8b 5d 18             	mov    0x18(%ebp),%ebx
    1c61:	8d 48 f8             	lea    -0x8(%eax),%ecx
    1c64:	80 f9 04             	cmp    $0x4,%cl
    1c67:	0f 87 c5 00 00 00    	ja     1d32 <usb_hid_report_parse_main_tag+0xe2>
    1c6d:	31 c0                	xor    %eax,%eax
    1c6f:	88 c8                	mov    %cl,%al
    1c71:	ff 24 85 bc 50 00 00 	jmp    *0x50bc(,%eax,4)
    1c78:	8b 43 14             	mov    0x14(%ebx),%eax
    1c7b:	8d 4b 10             	lea    0x10(%ebx),%ecx
    1c7e:	39 c8                	cmp    %ecx,%eax
    1c80:	0f 84 a2 00 00 00    	je     1d28 <usb_hid_report_parse_main_tag+0xd8>
    1c86:	83 e8 0c             	sub    $0xc,%eax
    1c89:	8a 0a                	mov    (%edx),%cl
    1c8b:	88 48 08             	mov    %cl,0x8(%eax)
    1c8e:	50                   	push   %eax
    1c8f:	8b 86 04 00 04 00    	mov    0x40004(%esi),%eax
    1c95:	66 8b 4c 86 06       	mov    0x6(%esi,%eax,4),%cx
    1c9a:	81 e1 ff ff 00 00    	and    $0xffff,%ecx
    1ca0:	51                   	push   %ecx
    1ca1:	6a 01                	push   $0x1
    1ca3:	53                   	push   %ebx
    1ca4:	e8 67 24 00 00       	call   4110 <usb_hid_report_set_last_item>
    1ca9:	8b 86 04 00 04 00    	mov    0x40004(%esi),%eax
    1caf:	83 c4 0c             	add    $0xc,%esp
    1cb2:	8b 54 86 04          	mov    0x4(%esi,%eax,4),%edx
    1cb6:	81 e2 ff ff 00 00    	and    $0xffff,%edx
    1cbc:	52                   	push   %edx
    1cbd:	6a 02                	push   $0x2
    1cbf:	53                   	push   %ebx
    1cc0:	e8 4b 24 00 00       	call   4110 <usb_hid_report_set_last_item>
    1cc5:	8b 86 04 00 04 00    	mov    0x40004(%esi),%eax
    1ccb:	83 c4 0c             	add    $0xc,%esp
    1cce:	8b 54 86 04          	mov    0x4(%esi,%eax,4),%edx
    1cd2:	52                   	push   %edx
    1cd3:	8b 8e 08 00 04 00    	mov    0x40008(%esi),%ecx
    1cd9:	51                   	push   %ecx
    1cda:	53                   	push   %ebx
    1cdb:	e8 40 23 00 00       	call   4020 <usb_hid_report_path_append_item>
    1ce0:	89 34 24             	mov    %esi,(%esp)
    1ce3:	e8 a8 22 00 00       	call   3f90 <usb_hid_report_reset_local_items>
    1ce8:	83 c4 10             	add    $0x10,%esp
    1ceb:	b8 02 00 00 00       	mov    $0x2,%eax
    1cf0:	8d 65 f8             	lea    -0x8(%ebp),%esp
    1cf3:	5b                   	pop    %ebx
    1cf4:	5e                   	pop    %esi
    1cf5:	5d                   	pop    %ebp
    1cf6:	c3                   	ret    
    1cf7:	90                   	nop
    1cf8:	8a 02                	mov    (%edx),%al
    1cfa:	88 86 50 00 04 00    	mov    %al,0x40050(%esi)
    1d00:	8d 65 f8             	lea    -0x8(%ebp),%esp
    1d03:	31 c0                	xor    %eax,%eax
    1d05:	5b                   	pop    %ebx
    1d06:	5e                   	pop    %esi
    1d07:	5d                   	pop    %ebp
    1d08:	c3                   	ret    
    1d09:	8d b4 26 00 00 00 00 	lea    0x0(%esi,%eiz,1),%esi
    1d10:	83 ec 0c             	sub    $0xc,%esp
    1d13:	53                   	push   %ebx
    1d14:	e8 57 23 00 00       	call   4070 <usb_hid_report_remove_last_item>
    1d19:	83 c4 10             	add    $0x10,%esp
    1d1c:	8d 65 f8             	lea    -0x8(%ebp),%esp
    1d1f:	b8 02 00 00 00       	mov    $0x2,%eax
    1d24:	5b                   	pop    %ebx
    1d25:	5e                   	pop    %esi
    1d26:	5d                   	pop    %ebp
    1d27:	c3                   	ret    
    1d28:	b8 f4 ff ff ff       	mov    $0xfffffff4,%eax
    1d2d:	e9 57 ff ff ff       	jmp    1c89 <usb_hid_report_parse_main_tag+0x39>
    1d32:	b8 02 00 00 00       	mov    $0x2,%eax
    1d37:	eb b7                	jmp    1cf0 <usb_hid_report_parse_main_tag+0xa0>
    1d39:	8d b4 26 00 00 00 00 	lea    0x0(%esi,%eiz,1),%esi

00001d40 <usb_hid_report_parse_global_tag>:
    1d40:	55                   	push   %ebp
    1d41:	89 e5                	mov    %esp,%ebp
    1d43:	57                   	push   %edi
    1d44:	56                   	push   %esi
    1d45:	53                   	push   %ebx
    1d46:	51                   	push   %ecx
    1d47:	8b 45 08             	mov    0x8(%ebp),%eax
    1d4a:	8b 55 0c             	mov    0xc(%ebp),%edx
    1d4d:	8b 5d 10             	mov    0x10(%ebp),%ebx
    1d50:	3c 0b                	cmp    $0xb,%al
    1d52:	0f 87 3f 04 00 00    	ja     2197 <usb_hid_report_parse_global_tag+0x457>
    1d58:	31 c9                	xor    %ecx,%ecx
    1d5a:	88 c1                	mov    %al,%cl
    1d5c:	ff 24 8d d0 50 00 00 	jmp    *0x50d0(,%ecx,4)
    1d63:	90                   	nop
    1d64:	8d 74 26 00          	lea    0x0(%esi,%eiz,1),%esi
    1d68:	31 ff                	xor    %edi,%edi
    1d6a:	31 c0                	xor    %eax,%eax
    1d6c:	85 db                	test   %ebx,%ebx
    1d6e:	74 1a                	je     1d8a <usb_hid_report_parse_global_tag+0x4a>
    1d70:	0f b6 34 02          	movzbl (%edx,%eax,1),%esi
    1d74:	8d 0c c5 00 00 00 00 	lea    0x0(,%eax,8),%ecx
    1d7b:	81 e6 ff 00 00 00    	and    $0xff,%esi
    1d81:	d3 e6                	shl    %cl,%esi
    1d83:	40                   	inc    %eax
    1d84:	09 f7                	or     %esi,%edi
    1d86:	39 c3                	cmp    %eax,%ebx
    1d88:	75 e6                	jne    1d70 <usb_hid_report_parse_global_tag+0x30>
    1d8a:	8b 45 14             	mov    0x14(%ebp),%eax
    1d8d:	89 b8 20 00 04 00    	mov    %edi,0x40020(%eax)
    1d93:	31 c0                	xor    %eax,%eax
    1d95:	eb 06                	jmp    1d9d <usb_hid_report_parse_global_tag+0x5d>
    1d97:	90                   	nop
    1d98:	25 ff 00 00 00       	and    $0xff,%eax
    1d9d:	5a                   	pop    %edx
    1d9e:	5b                   	pop    %ebx
    1d9f:	5e                   	pop    %esi
    1da0:	5f                   	pop    %edi
    1da1:	5d                   	pop    %ebp
    1da2:	c3                   	ret    
    1da3:	90                   	nop
    1da4:	8d 74 26 00          	lea    0x0(%esi,%eiz,1),%esi
    1da8:	31 ff                	xor    %edi,%edi
    1daa:	85 db                	test   %ebx,%ebx
    1dac:	74 1c                	je     1dca <usb_hid_report_parse_global_tag+0x8a>
    1dae:	31 c0                	xor    %eax,%eax
    1db0:	0f b6 34 02          	movzbl (%edx,%eax,1),%esi
    1db4:	8d 0c c5 00 00 00 00 	lea    0x0(,%eax,8),%ecx
    1dbb:	81 e6 ff 00 00 00    	and    $0xff,%esi
    1dc1:	d3 e6                	shl    %cl,%esi
    1dc3:	40                   	inc    %eax
    1dc4:	09 f7                	or     %esi,%edi
    1dc6:	39 c3                	cmp    %eax,%ebx
    1dc8:	75 e6                	jne    1db0 <usb_hid_report_parse_global_tag+0x70>
    1dca:	8b 45 14             	mov    0x14(%ebp),%eax
    1dcd:	89 b8 08 00 04 00    	mov    %edi,0x40008(%eax)
    1dd3:	31 c0                	xor    %eax,%eax
    1dd5:	eb c6                	jmp    1d9d <usb_hid_report_parse_global_tag+0x5d>
    1dd7:	90                   	nop
    1dd8:	31 c0                	xor    %eax,%eax
    1dda:	31 f6                	xor    %esi,%esi
    1ddc:	31 ff                	xor    %edi,%edi
    1dde:	85 db                	test   %ebx,%ebx
    1de0:	74 71                	je     1e53 <usb_hid_report_parse_global_tag+0x113>
    1de2:	8d b6 00 00 00 00    	lea    0x0(%esi),%esi
    1de8:	0f b6 3c 02          	movzbl (%edx,%eax,1),%edi
    1dec:	8d 0c c5 00 00 00 00 	lea    0x0(,%eax,8),%ecx
    1df3:	81 e7 ff 00 00 00    	and    $0xff,%edi
    1df9:	d3 e7                	shl    %cl,%edi
    1dfb:	40                   	inc    %eax
    1dfc:	09 fe                	or     %edi,%esi
    1dfe:	39 c3                	cmp    %eax,%ebx
    1e00:	75 e6                	jne    1de8 <usb_hid_report_parse_global_tag+0xa8>
    1e02:	8d 0c c5 00 00 00 00 	lea    0x0(,%eax,8),%ecx
    1e09:	bf 01 00 00 00       	mov    $0x1,%edi
    1e0e:	89 4d f0             	mov    %ecx,-0x10(%ebp)
    1e11:	49                   	dec    %ecx
    1e12:	d3 e7                	shl    %cl,%edi
    1e14:	85 f7                	test   %esi,%edi
    1e16:	bf 00 00 00 00       	mov    $0x0,%edi
    1e1b:	0f 84 4f 03 00 00    	je     2170 <usb_hid_report_parse_global_tag+0x430>
    1e21:	31 db                	xor    %ebx,%ebx
    1e23:	90                   	nop
    1e24:	8d 74 26 00          	lea    0x0(%esi,%eiz,1),%esi
    1e28:	0f b6 34 1a          	movzbl (%edx,%ebx,1),%esi
    1e2c:	8d 0c dd 00 00 00 00 	lea    0x0(,%ebx,8),%ecx
    1e33:	81 e6 ff 00 00 00    	and    $0xff,%esi
    1e39:	d3 e6                	shl    %cl,%esi
    1e3b:	43                   	inc    %ebx
    1e3c:	09 f7                	or     %esi,%edi
    1e3e:	39 d8                	cmp    %ebx,%eax
    1e40:	75 e6                	jne    1e28 <usb_hid_report_parse_global_tag+0xe8>
    1e42:	b8 01 00 00 00       	mov    $0x1,%eax
    1e47:	8a 4d f0             	mov    -0x10(%ebp),%cl
    1e4a:	d3 e0                	shl    %cl,%eax
    1e4c:	48                   	dec    %eax
    1e4d:	f7 df                	neg    %edi
    1e4f:	21 c7                	and    %eax,%edi
    1e51:	f7 df                	neg    %edi
    1e53:	8b 45 14             	mov    0x14(%ebp),%eax
    1e56:	89 b8 14 00 04 00    	mov    %edi,0x40014(%eax)
    1e5c:	31 c0                	xor    %eax,%eax
    1e5e:	e9 3a ff ff ff       	jmp    1d9d <usb_hid_report_parse_global_tag+0x5d>
    1e63:	90                   	nop
    1e64:	8d 74 26 00          	lea    0x0(%esi,%eiz,1),%esi
    1e68:	31 ff                	xor    %edi,%edi
    1e6a:	31 c0                	xor    %eax,%eax
    1e6c:	85 db                	test   %ebx,%ebx
    1e6e:	74 1a                	je     1e8a <usb_hid_report_parse_global_tag+0x14a>
    1e70:	0f b6 34 02          	movzbl (%edx,%eax,1),%esi
    1e74:	8d 0c c5 00 00 00 00 	lea    0x0(,%eax,8),%ecx
    1e7b:	81 e6 ff 00 00 00    	and    $0xff,%esi
    1e81:	d3 e6                	shl    %cl,%esi
    1e83:	40                   	inc    %eax
    1e84:	09 f7                	or     %esi,%edi
    1e86:	39 c3                	cmp    %eax,%ebx
    1e88:	75 e6                	jne    1e70 <usb_hid_report_parse_global_tag+0x130>
    1e8a:	8b 45 14             	mov    0x14(%ebp),%eax
    1e8d:	89 b8 28 00 04 00    	mov    %edi,0x40028(%eax)
    1e93:	31 c0                	xor    %eax,%eax
    1e95:	e9 03 ff ff ff       	jmp    1d9d <usb_hid_report_parse_global_tag+0x5d>
    1e9a:	8d b6 00 00 00 00    	lea    0x0(%esi),%esi
    1ea0:	31 ff                	xor    %edi,%edi
    1ea2:	31 c0                	xor    %eax,%eax
    1ea4:	85 db                	test   %ebx,%ebx
    1ea6:	74 1a                	je     1ec2 <usb_hid_report_parse_global_tag+0x182>
    1ea8:	0f b6 34 02          	movzbl (%edx,%eax,1),%esi
    1eac:	8d 0c c5 00 00 00 00 	lea    0x0(,%eax,8),%ecx
    1eb3:	81 e6 ff 00 00 00    	and    $0xff,%esi
    1eb9:	d3 e6                	shl    %cl,%esi
    1ebb:	40                   	inc    %eax
    1ebc:	09 f7                	or     %esi,%edi
    1ebe:	39 c3                	cmp    %eax,%ebx
    1ec0:	75 e6                	jne    1ea8 <usb_hid_report_parse_global_tag+0x168>
    1ec2:	8b 45 14             	mov    0x14(%ebp),%eax
    1ec5:	89 b8 2c 00 04 00    	mov    %edi,0x4002c(%eax)
    1ecb:	31 c0                	xor    %eax,%eax
    1ecd:	e9 cb fe ff ff       	jmp    1d9d <usb_hid_report_parse_global_tag+0x5d>
    1ed2:	8d b6 00 00 00 00    	lea    0x0(%esi),%esi
    1ed8:	31 f6                	xor    %esi,%esi
    1eda:	31 c0                	xor    %eax,%eax
    1edc:	31 ff                	xor    %edi,%edi
    1ede:	85 db                	test   %ebx,%ebx
    1ee0:	74 71                	je     1f53 <usb_hid_report_parse_global_tag+0x213>
    1ee2:	8d b6 00 00 00 00    	lea    0x0(%esi),%esi
    1ee8:	0f b6 3c 02          	movzbl (%edx,%eax,1),%edi
    1eec:	8d 0c c5 00 00 00 00 	lea    0x0(,%eax,8),%ecx
    1ef3:	81 e7 ff 00 00 00    	and    $0xff,%edi
    1ef9:	d3 e7                	shl    %cl,%edi
    1efb:	40                   	inc    %eax
    1efc:	09 fe                	or     %edi,%esi
    1efe:	39 c3                	cmp    %eax,%ebx
    1f00:	75 e6                	jne    1ee8 <usb_hid_report_parse_global_tag+0x1a8>
    1f02:	8d 0c c5 00 00 00 00 	lea    0x0(,%eax,8),%ecx
    1f09:	bf 01 00 00 00       	mov    $0x1,%edi
    1f0e:	89 4d f0             	mov    %ecx,-0x10(%ebp)
    1f11:	49                   	dec    %ecx
    1f12:	d3 e7                	shl    %cl,%edi
    1f14:	85 f7                	test   %esi,%edi
    1f16:	bf 00 00 00 00       	mov    $0x0,%edi
    1f1b:	0f 84 ff 01 00 00    	je     2120 <usb_hid_report_parse_global_tag+0x3e0>
    1f21:	31 db                	xor    %ebx,%ebx
    1f23:	90                   	nop
    1f24:	8d 74 26 00          	lea    0x0(%esi,%eiz,1),%esi
    1f28:	0f b6 34 1a          	movzbl (%edx,%ebx,1),%esi
    1f2c:	8d 0c dd 00 00 00 00 	lea    0x0(,%ebx,8),%ecx
    1f33:	81 e6 ff 00 00 00    	and    $0xff,%esi
    1f39:	d3 e6                	shl    %cl,%esi
    1f3b:	43                   	inc    %ebx
    1f3c:	09 f7                	or     %esi,%edi
    1f3e:	39 d8                	cmp    %ebx,%eax
    1f40:	75 e6                	jne    1f28 <usb_hid_report_parse_global_tag+0x1e8>
    1f42:	b8 01 00 00 00       	mov    $0x1,%eax
    1f47:	8a 4d f0             	mov    -0x10(%ebp),%cl
    1f4a:	d3 e0                	shl    %cl,%eax
    1f4c:	48                   	dec    %eax
    1f4d:	f7 df                	neg    %edi
    1f4f:	21 c7                	and    %eax,%edi
    1f51:	f7 df                	neg    %edi
    1f53:	8b 45 14             	mov    0x14(%ebp),%eax
    1f56:	89 b8 48 00 04 00    	mov    %edi,0x40048(%eax)
    1f5c:	31 c0                	xor    %eax,%eax
    1f5e:	e9 3a fe ff ff       	jmp    1d9d <usb_hid_report_parse_global_tag+0x5d>
    1f63:	90                   	nop
    1f64:	8d 74 26 00          	lea    0x0(%esi,%eiz,1),%esi
    1f68:	31 ff                	xor    %edi,%edi
    1f6a:	31 c0                	xor    %eax,%eax
    1f6c:	85 db                	test   %ebx,%ebx
    1f6e:	74 1a                	je     1f8a <usb_hid_report_parse_global_tag+0x24a>
    1f70:	0f b6 34 02          	movzbl (%edx,%eax,1),%esi
    1f74:	8d 0c c5 00 00 00 00 	lea    0x0(,%eax,8),%ecx
    1f7b:	81 e6 ff 00 00 00    	and    $0xff,%esi
    1f81:	d3 e6                	shl    %cl,%esi
    1f83:	40                   	inc    %eax
    1f84:	09 f7                	or     %esi,%edi
    1f86:	39 c3                	cmp    %eax,%ebx
    1f88:	75 e6                	jne    1f70 <usb_hid_report_parse_global_tag+0x230>
    1f8a:	8b 45 14             	mov    0x14(%ebp),%eax
    1f8d:	89 b8 1c 00 04 00    	mov    %edi,0x4001c(%eax)
    1f93:	31 c0                	xor    %eax,%eax
    1f95:	e9 03 fe ff ff       	jmp    1d9d <usb_hid_report_parse_global_tag+0x5d>
    1f9a:	8d b6 00 00 00 00    	lea    0x0(%esi),%esi
    1fa0:	31 ff                	xor    %edi,%edi
    1fa2:	31 c0                	xor    %eax,%eax
    1fa4:	85 db                	test   %ebx,%ebx
    1fa6:	74 1a                	je     1fc2 <usb_hid_report_parse_global_tag+0x282>
    1fa8:	0f b6 34 02          	movzbl (%edx,%eax,1),%esi
    1fac:	8d 0c c5 00 00 00 00 	lea    0x0(,%eax,8),%ecx
    1fb3:	81 e6 ff 00 00 00    	and    $0xff,%esi
    1fb9:	d3 e6                	shl    %cl,%esi
    1fbb:	40                   	inc    %eax
    1fbc:	09 f7                	or     %esi,%edi
    1fbe:	39 c3                	cmp    %eax,%ebx
    1fc0:	75 e6                	jne    1fa8 <usb_hid_report_parse_global_tag+0x268>
    1fc2:	8b 45 14             	mov    0x14(%ebp),%eax
    1fc5:	89 38                	mov    %edi,(%eax)
    1fc7:	b8 03 00 00 00       	mov    $0x3,%eax
    1fcc:	e9 cc fd ff ff       	jmp    1d9d <usb_hid_report_parse_global_tag+0x5d>
    1fd1:	8d b4 26 00 00 00 00 	lea    0x0(%esi,%eiz,1),%esi
    1fd8:	31 f6                	xor    %esi,%esi
    1fda:	31 c0                	xor    %eax,%eax
    1fdc:	31 ff                	xor    %edi,%edi
    1fde:	85 db                	test   %ebx,%ebx
    1fe0:	74 71                	je     2053 <usb_hid_report_parse_global_tag+0x313>
    1fe2:	8d b6 00 00 00 00    	lea    0x0(%esi),%esi
    1fe8:	0f b6 3c 02          	movzbl (%edx,%eax,1),%edi
    1fec:	8d 0c c5 00 00 00 00 	lea    0x0(,%eax,8),%ecx
    1ff3:	81 e7 ff 00 00 00    	and    $0xff,%edi
    1ff9:	d3 e7                	shl    %cl,%edi
    1ffb:	40                   	inc    %eax
    1ffc:	09 fe                	or     %edi,%esi
    1ffe:	39 c3                	cmp    %eax,%ebx
    2000:	75 e6                	jne    1fe8 <usb_hid_report_parse_global_tag+0x2a8>
    2002:	8d 0c c5 00 00 00 00 	lea    0x0(,%eax,8),%ecx
    2009:	bf 01 00 00 00       	mov    $0x1,%edi
    200e:	89 4d f0             	mov    %ecx,-0x10(%ebp)
    2011:	49                   	dec    %ecx
    2012:	d3 e7                	shl    %cl,%edi
    2014:	85 f7                	test   %esi,%edi
    2016:	bf 00 00 00 00       	mov    $0x0,%edi
    201b:	0f 84 d7 00 00 00    	je     20f8 <usb_hid_report_parse_global_tag+0x3b8>
    2021:	31 db                	xor    %ebx,%ebx
    2023:	90                   	nop
    2024:	8d 74 26 00          	lea    0x0(%esi,%eiz,1),%esi
    2028:	0f b6 34 1a          	movzbl (%edx,%ebx,1),%esi
    202c:	8d 0c dd 00 00 00 00 	lea    0x0(,%ebx,8),%ecx
    2033:	81 e6 ff 00 00 00    	and    $0xff,%esi
    2039:	d3 e6                	shl    %cl,%esi
    203b:	43                   	inc    %ebx
    203c:	09 f7                	or     %esi,%edi
    203e:	39 d8                	cmp    %ebx,%eax
    2040:	75 e6                	jne    2028 <usb_hid_report_parse_global_tag+0x2e8>
    2042:	b8 01 00 00 00       	mov    $0x1,%eax
    2047:	8a 4d f0             	mov    -0x10(%ebp),%cl
    204a:	d3 e0                	shl    %cl,%eax
    204c:	48                   	dec    %eax
    204d:	f7 df                	neg    %edi
    204f:	21 c7                	and    %eax,%edi
    2051:	f7 df                	neg    %edi
    2053:	8b 45 14             	mov    0x14(%ebp),%eax
    2056:	89 b8 18 00 04 00    	mov    %edi,0x40018(%eax)
    205c:	31 c0                	xor    %eax,%eax
    205e:	e9 3a fd ff ff       	jmp    1d9d <usb_hid_report_parse_global_tag+0x5d>
    2063:	90                   	nop
    2064:	8d 74 26 00          	lea    0x0(%esi,%eiz,1),%esi
    2068:	31 f6                	xor    %esi,%esi
    206a:	31 c0                	xor    %eax,%eax
    206c:	31 ff                	xor    %edi,%edi
    206e:	85 db                	test   %ebx,%ebx
    2070:	74 71                	je     20e3 <usb_hid_report_parse_global_tag+0x3a3>
    2072:	8d b6 00 00 00 00    	lea    0x0(%esi),%esi
    2078:	0f b6 3c 02          	movzbl (%edx,%eax,1),%edi
    207c:	8d 0c c5 00 00 00 00 	lea    0x0(,%eax,8),%ecx
    2083:	81 e7 ff 00 00 00    	and    $0xff,%edi
    2089:	d3 e7                	shl    %cl,%edi
    208b:	40                   	inc    %eax
    208c:	09 fe                	or     %edi,%esi
    208e:	39 c3                	cmp    %eax,%ebx
    2090:	75 e6                	jne    2078 <usb_hid_report_parse_global_tag+0x338>
    2092:	8d 0c c5 00 00 00 00 	lea    0x0(,%eax,8),%ecx
    2099:	bf 01 00 00 00       	mov    $0x1,%edi
    209e:	89 4d f0             	mov    %ecx,-0x10(%ebp)
    20a1:	49                   	dec    %ecx
    20a2:	d3 e7                	shl    %cl,%edi
    20a4:	85 f7                	test   %esi,%edi
    20a6:	bf 00 00 00 00       	mov    $0x0,%edi
    20ab:	0f 84 97 00 00 00    	je     2148 <usb_hid_report_parse_global_tag+0x408>
    20b1:	31 db                	xor    %ebx,%ebx
    20b3:	90                   	nop
    20b4:	8d 74 26 00          	lea    0x0(%esi,%eiz,1),%esi
    20b8:	0f b6 34 1a          	movzbl (%edx,%ebx,1),%esi
    20bc:	8d 0c dd 00 00 00 00 	lea    0x0(,%ebx,8),%ecx
    20c3:	81 e6 ff 00 00 00    	and    $0xff,%esi
    20c9:	d3 e6                	shl    %cl,%esi
    20cb:	43                   	inc    %ebx
    20cc:	09 f7                	or     %esi,%edi
    20ce:	39 d8                	cmp    %ebx,%eax
    20d0:	75 e6                	jne    20b8 <usb_hid_report_parse_global_tag+0x378>
    20d2:	b8 01 00 00 00       	mov    $0x1,%eax
    20d7:	8a 4d f0             	mov    -0x10(%ebp),%cl
    20da:	d3 e0                	shl    %cl,%eax
    20dc:	48                   	dec    %eax
    20dd:	f7 df                	neg    %edi
    20df:	21 c7                	and    %eax,%edi
    20e1:	f7 df                	neg    %edi
    20e3:	8b 45 14             	mov    0x14(%ebp),%eax
    20e6:	89 b8 4c 00 04 00    	mov    %edi,0x4004c(%eax)
    20ec:	31 c0                	xor    %eax,%eax
    20ee:	e9 aa fc ff ff       	jmp    1d9d <usb_hid_report_parse_global_tag+0x5d>
    20f3:	90                   	nop
    20f4:	8d 74 26 00          	lea    0x0(%esi,%eiz,1),%esi
    20f8:	31 c0                	xor    %eax,%eax
    20fa:	8d b6 00 00 00 00    	lea    0x0(%esi),%esi
    2100:	0f b6 34 02          	movzbl (%edx,%eax,1),%esi
    2104:	8d 0c c5 00 00 00 00 	lea    0x0(,%eax,8),%ecx
    210b:	81 e6 ff 00 00 00    	and    $0xff,%esi
    2111:	d3 e6                	shl    %cl,%esi
    2113:	40                   	inc    %eax
    2114:	09 f7                	or     %esi,%edi
    2116:	39 c3                	cmp    %eax,%ebx
    2118:	75 e6                	jne    2100 <usb_hid_report_parse_global_tag+0x3c0>
    211a:	e9 34 ff ff ff       	jmp    2053 <usb_hid_report_parse_global_tag+0x313>
    211f:	90                   	nop
    2120:	31 c0                	xor    %eax,%eax
    2122:	8d b6 00 00 00 00    	lea    0x0(%esi),%esi
    2128:	0f b6 34 02          	movzbl (%edx,%eax,1),%esi
    212c:	8d 0c c5 00 00 00 00 	lea    0x0(,%eax,8),%ecx
    2133:	81 e6 ff 00 00 00    	and    $0xff,%esi
    2139:	d3 e6                	shl    %cl,%esi
    213b:	40                   	inc    %eax
    213c:	09 f7                	or     %esi,%edi
    213e:	39 c3                	cmp    %eax,%ebx
    2140:	75 e6                	jne    2128 <usb_hid_report_parse_global_tag+0x3e8>
    2142:	e9 0c fe ff ff       	jmp    1f53 <usb_hid_report_parse_global_tag+0x213>
    2147:	90                   	nop
    2148:	31 c0                	xor    %eax,%eax
    214a:	8d b6 00 00 00 00    	lea    0x0(%esi),%esi
    2150:	0f b6 34 02          	movzbl (%edx,%eax,1),%esi
    2154:	8d 0c c5 00 00 00 00 	lea    0x0(,%eax,8),%ecx
    215b:	81 e6 ff 00 00 00    	and    $0xff,%esi
    2161:	d3 e6                	shl    %cl,%esi
    2163:	40                   	inc    %eax
    2164:	09 f7                	or     %esi,%edi
    2166:	39 c3                	cmp    %eax,%ebx
    2168:	75 e6                	jne    2150 <usb_hid_report_parse_global_tag+0x410>
    216a:	e9 74 ff ff ff       	jmp    20e3 <usb_hid_report_parse_global_tag+0x3a3>
    216f:	90                   	nop
    2170:	31 c0                	xor    %eax,%eax
    2172:	8d b6 00 00 00 00    	lea    0x0(%esi),%esi
    2178:	0f b6 34 02          	movzbl (%edx,%eax,1),%esi
    217c:	8d 0c c5 00 00 00 00 	lea    0x0(,%eax,8),%ecx
    2183:	81 e6 ff 00 00 00    	and    $0xff,%esi
    2189:	d3 e6                	shl    %cl,%esi
    218b:	40                   	inc    %eax
    218c:	09 f7                	or     %esi,%edi
    218e:	39 c3                	cmp    %eax,%ebx
    2190:	75 e6                	jne    2178 <usb_hid_report_parse_global_tag+0x438>
    2192:	e9 bc fc ff ff       	jmp    1e53 <usb_hid_report_parse_global_tag+0x113>
    2197:	b8 02 00 00 00       	mov    $0x2,%eax
    219c:	e9 fc fb ff ff       	jmp    1d9d <usb_hid_report_parse_global_tag+0x5d>
    21a1:	eb 0d                	jmp    21b0 <usb_hid_report_parse_tag>
    21a3:	90                   	nop
    21a4:	90                   	nop
    21a5:	90                   	nop
    21a6:	90                   	nop
    21a7:	90                   	nop
    21a8:	90                   	nop
    21a9:	90                   	nop
    21aa:	90                   	nop
    21ab:	90                   	nop
    21ac:	90                   	nop
    21ad:	90                   	nop
    21ae:	90                   	nop
    21af:	90                   	nop

000021b0 <usb_hid_report_parse_tag>:
    21b0:	55                   	push   %ebp
    21b1:	89 e5                	mov    %esp,%ebp
    21b3:	57                   	push   %edi
    21b4:	56                   	push   %esi
    21b5:	53                   	push   %ebx
    21b6:	83 ec 1c             	sub    $0x1c,%esp
    21b9:	8b 75 0c             	mov    0xc(%ebp),%esi
    21bc:	8b 45 08             	mov    0x8(%ebp),%eax
    21bf:	8b 7d 18             	mov    0x18(%ebp),%edi
    21c2:	89 f1                	mov    %esi,%ecx
    21c4:	89 45 e0             	mov    %eax,-0x20(%ebp)
    21c7:	8b 55 10             	mov    0x10(%ebp),%edx
    21ca:	8b 45 14             	mov    0x14(%ebp),%eax
    21cd:	89 7d e4             	mov    %edi,-0x1c(%ebp)
    21d0:	8b 5d 1c             	mov    0x1c(%ebp),%ebx
    21d3:	80 f9 01             	cmp    $0x1,%cl
    21d6:	74 40                	je     2218 <usb_hid_report_parse_tag+0x68>
    21d8:	72 1e                	jb     21f8 <usb_hid_report_parse_tag+0x48>
    21da:	80 f9 02             	cmp    $0x2,%cl
    21dd:	75 29                	jne    2208 <usb_hid_report_parse_tag+0x58>
    21df:	8b 7d e0             	mov    -0x20(%ebp),%edi
    21e2:	89 f9                	mov    %edi,%ecx
    21e4:	80 f9 0a             	cmp    $0xa,%cl
    21e7:	77 1f                	ja     2208 <usb_hid_report_parse_tag+0x58>
    21e9:	81 e1 ff 00 00 00    	and    $0xff,%ecx
    21ef:	ff 24 8d 00 51 00 00 	jmp    *0x5100(,%ecx,4)
    21f6:	66 90                	xchg   %ax,%ax
    21f8:	8a 45 e0             	mov    -0x20(%ebp),%al
    21fb:	83 e8 08             	sub    $0x8,%eax
    21fe:	3c 04                	cmp    $0x4,%al
    2200:	76 36                	jbe    2238 <usb_hid_report_parse_tag+0x88>
    2202:	8d b6 00 00 00 00    	lea    0x0(%esi),%esi
    2208:	b8 02 00 00 00       	mov    $0x2,%eax
    220d:	8d 65 f4             	lea    -0xc(%ebp),%esp
    2210:	5b                   	pop    %ebx
    2211:	5e                   	pop    %esi
    2212:	5f                   	pop    %edi
    2213:	5d                   	pop    %ebp
    2214:	c3                   	ret    
    2215:	8d 76 00             	lea    0x0(%esi),%esi
    2218:	31 c9                	xor    %ecx,%ecx
    221a:	89 5d 18             	mov    %ebx,0x18(%ebp)
    221d:	8a 4d e0             	mov    -0x20(%ebp),%cl
    2220:	89 7d 14             	mov    %edi,0x14(%ebp)
    2223:	89 45 10             	mov    %eax,0x10(%ebp)
    2226:	89 55 0c             	mov    %edx,0xc(%ebp)
    2229:	89 4d 08             	mov    %ecx,0x8(%ebp)
    222c:	8d 65 f4             	lea    -0xc(%ebp),%esp
    222f:	5b                   	pop    %ebx
    2230:	5e                   	pop    %esi
    2231:	5f                   	pop    %edi
    2232:	5d                   	pop    %ebp
    2233:	e9 08 fb ff ff       	jmp    1d40 <usb_hid_report_parse_global_tag>
    2238:	31 c9                	xor    %ecx,%ecx
    223a:	88 c1                	mov    %al,%cl
    223c:	ff 24 8d 2c 51 00 00 	jmp    *0x512c(,%ecx,4)
    2243:	90                   	nop
    2244:	8d 74 26 00          	lea    0x0(%esi,%eiz,1),%esi
    2248:	8b 43 14             	mov    0x14(%ebx),%eax
    224b:	8d 4b 10             	lea    0x10(%ebx),%ecx
    224e:	39 c8                	cmp    %ecx,%eax
    2250:	0f 84 3a 04 00 00    	je     2690 <usb_hid_report_parse_tag+0x4e0>
    2256:	83 e8 0c             	sub    $0xc,%eax
    2259:	8a 12                	mov    (%edx),%dl
    225b:	88 50 08             	mov    %dl,0x8(%eax)
    225e:	56                   	push   %esi
    225f:	8b 87 04 00 04 00    	mov    0x40004(%edi),%eax
    2265:	66 8b 4c 87 06       	mov    0x6(%edi,%eax,4),%cx
    226a:	81 e1 ff ff 00 00    	and    $0xffff,%ecx
    2270:	51                   	push   %ecx
    2271:	6a 01                	push   $0x1
    2273:	53                   	push   %ebx
    2274:	e8 97 1e 00 00       	call   4110 <usb_hid_report_set_last_item>
    2279:	8b 87 04 00 04 00    	mov    0x40004(%edi),%eax
    227f:	83 c4 0c             	add    $0xc,%esp
    2282:	8b 4c 87 04          	mov    0x4(%edi,%eax,4),%ecx
    2286:	81 e1 ff ff 00 00    	and    $0xffff,%ecx
    228c:	51                   	push   %ecx
    228d:	6a 02                	push   $0x2
    228f:	53                   	push   %ebx
    2290:	e8 7b 1e 00 00       	call   4110 <usb_hid_report_set_last_item>
    2295:	8b 87 04 00 04 00    	mov    0x40004(%edi),%eax
    229b:	83 c4 0c             	add    $0xc,%esp
    229e:	8b 44 87 04          	mov    0x4(%edi,%eax,4),%eax
    22a2:	50                   	push   %eax
    22a3:	8b 87 08 00 04 00    	mov    0x40008(%edi),%eax
    22a9:	50                   	push   %eax
    22aa:	53                   	push   %ebx
    22ab:	e8 70 1d 00 00       	call   4020 <usb_hid_report_path_append_item>
    22b0:	89 3c 24             	mov    %edi,(%esp)
    22b3:	e8 d8 1c 00 00       	call   3f90 <usb_hid_report_reset_local_items>
    22b8:	83 c4 10             	add    $0x10,%esp
    22bb:	b8 02 00 00 00       	mov    $0x2,%eax
    22c0:	e9 48 ff ff ff       	jmp    220d <usb_hid_report_parse_tag+0x5d>
    22c5:	8d 76 00             	lea    0x0(%esi),%esi
    22c8:	8a 02                	mov    (%edx),%al
    22ca:	8b 55 e4             	mov    -0x1c(%ebp),%edx
    22cd:	88 45 e0             	mov    %al,-0x20(%ebp)
    22d0:	88 82 50 00 04 00    	mov    %al,0x40050(%edx)
    22d6:	b8 01 00 00 00       	mov    $0x1,%eax
    22db:	e9 2d ff ff ff       	jmp    220d <usb_hid_report_parse_tag+0x5d>
    22e0:	83 ec 0c             	sub    $0xc,%esp
    22e3:	53                   	push   %ebx
    22e4:	e8 87 1d 00 00       	call   4070 <usb_hid_report_remove_last_item>
    22e9:	83 c4 10             	add    $0x10,%esp
    22ec:	b8 02 00 00 00       	mov    $0x2,%eax
    22f1:	e9 17 ff ff ff       	jmp    220d <usb_hid_report_parse_tag+0x5d>
    22f6:	66 90                	xchg   %ax,%ax
    22f8:	31 ff                	xor    %edi,%edi
    22fa:	31 db                	xor    %ebx,%ebx
    22fc:	85 c0                	test   %eax,%eax
    22fe:	74 1a                	je     231a <usb_hid_report_parse_tag+0x16a>
    2300:	0f b6 34 1a          	movzbl (%edx,%ebx,1),%esi
    2304:	8d 0c dd 00 00 00 00 	lea    0x0(,%ebx,8),%ecx
    230b:	81 e6 ff 00 00 00    	and    $0xff,%esi
    2311:	d3 e6                	shl    %cl,%esi
    2313:	43                   	inc    %ebx
    2314:	09 f7                	or     %esi,%edi
    2316:	39 d8                	cmp    %ebx,%eax
    2318:	75 e6                	jne    2300 <usb_hid_report_parse_tag+0x150>
    231a:	8b 45 e4             	mov    -0x1c(%ebp),%eax
    231d:	89 b8 64 00 04 00    	mov    %edi,0x40064(%eax)
    2323:	31 c0                	xor    %eax,%eax
    2325:	e9 e3 fe ff ff       	jmp    220d <usb_hid_report_parse_tag+0x5d>
    232a:	8d b6 00 00 00 00    	lea    0x0(%esi),%esi
    2330:	8b 7d e4             	mov    -0x1c(%ebp),%edi
    2333:	8b 8f 64 00 04 00    	mov    0x40064(%edi),%ecx
    2339:	85 c9                	test   %ecx,%ecx
    233b:	74 11                	je     234e <usb_hid_report_parse_tag+0x19e>
    233d:	49                   	dec    %ecx
    233e:	0f 85 d8 02 00 00    	jne    261c <usb_hid_report_parse_tag+0x46c>
    2344:	c7 87 64 00 04 00 02 	movl   $0x2,0x40064(%edi)
    234b:	00 00 00 
    234e:	8b bf 08 00 04 00    	mov    0x40008(%edi),%edi
    2354:	c1 e7 10             	shl    $0x10,%edi
    2357:	89 7d e0             	mov    %edi,-0x20(%ebp)
    235a:	31 ff                	xor    %edi,%edi
    235c:	85 c0                	test   %eax,%eax
    235e:	74 22                	je     2382 <usb_hid_report_parse_tag+0x1d2>
    2360:	31 db                	xor    %ebx,%ebx
    2362:	8d b6 00 00 00 00    	lea    0x0(%esi),%esi
    2368:	0f b6 34 1a          	movzbl (%edx,%ebx,1),%esi
    236c:	8d 0c dd 00 00 00 00 	lea    0x0(,%ebx,8),%ecx
    2373:	81 e6 ff 00 00 00    	and    $0xff,%esi
    2379:	d3 e6                	shl    %cl,%esi
    237b:	43                   	inc    %ebx
    237c:	09 f7                	or     %esi,%edi
    237e:	39 d8                	cmp    %ebx,%eax
    2380:	75 e6                	jne    2368 <usb_hid_report_parse_tag+0x1b8>
    2382:	8b 55 e4             	mov    -0x1c(%ebp),%edx
    2385:	8b 4d e0             	mov    -0x20(%ebp),%ecx
    2388:	01 cf                	add    %ecx,%edi
    238a:	8b 82 04 00 04 00    	mov    0x40004(%edx),%eax
    2390:	89 7c 82 08          	mov    %edi,0x8(%edx,%eax,4)
    2394:	40                   	inc    %eax
    2395:	89 82 04 00 04 00    	mov    %eax,0x40004(%edx)
    239b:	31 c0                	xor    %eax,%eax
    239d:	e9 6b fe ff ff       	jmp    220d <usb_hid_report_parse_tag+0x5d>
    23a2:	8d b6 00 00 00 00    	lea    0x0(%esi),%esi
    23a8:	83 f8 03             	cmp    $0x3,%eax
    23ab:	0f 84 b3 02 00 00    	je     2664 <usb_hid_report_parse_tag+0x4b4>
    23b1:	31 ff                	xor    %edi,%edi
    23b3:	31 db                	xor    %ebx,%ebx
    23b5:	85 c0                	test   %eax,%eax
    23b7:	74 21                	je     23da <usb_hid_report_parse_tag+0x22a>
    23b9:	8d b4 26 00 00 00 00 	lea    0x0(%esi,%eiz,1),%esi
    23c0:	0f b6 34 1a          	movzbl (%edx,%ebx,1),%esi
    23c4:	8d 0c dd 00 00 00 00 	lea    0x0(,%ebx,8),%ecx
    23cb:	81 e6 ff 00 00 00    	and    $0xff,%esi
    23d1:	d3 e6                	shl    %cl,%esi
    23d3:	43                   	inc    %ebx
    23d4:	09 f7                	or     %esi,%edi
    23d6:	39 d8                	cmp    %ebx,%eax
    23d8:	75 e6                	jne    23c0 <usb_hid_report_parse_tag+0x210>
    23da:	8b 45 e4             	mov    -0x1c(%ebp),%eax
    23dd:	89 b8 0c 00 04 00    	mov    %edi,0x4000c(%eax)
    23e3:	31 c0                	xor    %eax,%eax
    23e5:	e9 23 fe ff ff       	jmp    220d <usb_hid_report_parse_tag+0x5d>
    23ea:	8d b6 00 00 00 00    	lea    0x0(%esi),%esi
    23f0:	31 ff                	xor    %edi,%edi
    23f2:	31 db                	xor    %ebx,%ebx
    23f4:	85 c0                	test   %eax,%eax
    23f6:	74 1a                	je     2412 <usb_hid_report_parse_tag+0x262>
    23f8:	0f b6 34 1a          	movzbl (%edx,%ebx,1),%esi
    23fc:	8d 0c dd 00 00 00 00 	lea    0x0(,%ebx,8),%ecx
    2403:	81 e6 ff 00 00 00    	and    $0xff,%esi
    2409:	d3 e6                	shl    %cl,%esi
    240b:	43                   	inc    %ebx
    240c:	09 f7                	or     %esi,%edi
    240e:	39 d8                	cmp    %ebx,%eax
    2410:	75 e6                	jne    23f8 <usb_hid_report_parse_tag+0x248>
    2412:	8b 45 e4             	mov    -0x1c(%ebp),%eax
    2415:	89 b8 44 00 04 00    	mov    %edi,0x40044(%eax)
    241b:	31 c0                	xor    %eax,%eax
    241d:	e9 eb fd ff ff       	jmp    220d <usb_hid_report_parse_tag+0x5d>
    2422:	8d b6 00 00 00 00    	lea    0x0(%esi),%esi
    2428:	31 ff                	xor    %edi,%edi
    242a:	31 db                	xor    %ebx,%ebx
    242c:	85 c0                	test   %eax,%eax
    242e:	74 1a                	je     244a <usb_hid_report_parse_tag+0x29a>
    2430:	0f b6 34 1a          	movzbl (%edx,%ebx,1),%esi
    2434:	8d 0c dd 00 00 00 00 	lea    0x0(,%ebx,8),%ecx
    243b:	81 e6 ff 00 00 00    	and    $0xff,%esi
    2441:	d3 e6                	shl    %cl,%esi
    2443:	43                   	inc    %ebx
    2444:	09 f7                	or     %esi,%edi
    2446:	39 d8                	cmp    %ebx,%eax
    2448:	75 e6                	jne    2430 <usb_hid_report_parse_tag+0x280>
    244a:	8b 45 e4             	mov    -0x1c(%ebp),%eax
    244d:	89 b8 30 00 04 00    	mov    %edi,0x40030(%eax)
    2453:	31 c0                	xor    %eax,%eax
    2455:	e9 b3 fd ff ff       	jmp    220d <usb_hid_report_parse_tag+0x5d>
    245a:	8d b6 00 00 00 00    	lea    0x0(%esi),%esi
    2460:	31 ff                	xor    %edi,%edi
    2462:	31 db                	xor    %ebx,%ebx
    2464:	85 c0                	test   %eax,%eax
    2466:	74 1a                	je     2482 <usb_hid_report_parse_tag+0x2d2>
    2468:	0f b6 34 1a          	movzbl (%edx,%ebx,1),%esi
    246c:	8d 0c dd 00 00 00 00 	lea    0x0(,%ebx,8),%ecx
    2473:	81 e6 ff 00 00 00    	and    $0xff,%esi
    2479:	d3 e6                	shl    %cl,%esi
    247b:	43                   	inc    %ebx
    247c:	09 f7                	or     %esi,%edi
    247e:	39 d8                	cmp    %ebx,%eax
    2480:	75 e6                	jne    2468 <usb_hid_report_parse_tag+0x2b8>
    2482:	8b 45 e4             	mov    -0x1c(%ebp),%eax
    2485:	89 b8 3c 00 04 00    	mov    %edi,0x4003c(%eax)
    248b:	31 c0                	xor    %eax,%eax
    248d:	e9 7b fd ff ff       	jmp    220d <usb_hid_report_parse_tag+0x5d>
    2492:	8d b6 00 00 00 00    	lea    0x0(%esi),%esi
    2498:	31 ff                	xor    %edi,%edi
    249a:	31 db                	xor    %ebx,%ebx
    249c:	85 c0                	test   %eax,%eax
    249e:	74 1a                	je     24ba <usb_hid_report_parse_tag+0x30a>
    24a0:	0f b6 34 1a          	movzbl (%edx,%ebx,1),%esi
    24a4:	8d 0c dd 00 00 00 00 	lea    0x0(,%ebx,8),%ecx
    24ab:	81 e6 ff 00 00 00    	and    $0xff,%esi
    24b1:	d3 e6                	shl    %cl,%esi
    24b3:	43                   	inc    %ebx
    24b4:	09 f7                	or     %esi,%edi
    24b6:	39 d8                	cmp    %ebx,%eax
    24b8:	75 e6                	jne    24a0 <usb_hid_report_parse_tag+0x2f0>
    24ba:	8b 45 e4             	mov    -0x1c(%ebp),%eax
    24bd:	89 b8 34 00 04 00    	mov    %edi,0x40034(%eax)
    24c3:	31 c0                	xor    %eax,%eax
    24c5:	e9 43 fd ff ff       	jmp    220d <usb_hid_report_parse_tag+0x5d>
    24ca:	8d b6 00 00 00 00    	lea    0x0(%esi),%esi
    24d0:	83 f8 03             	cmp    $0x3,%eax
    24d3:	0f 84 4a 01 00 00    	je     2623 <usb_hid_report_parse_tag+0x473>
    24d9:	31 ff                	xor    %edi,%edi
    24db:	31 db                	xor    %ebx,%ebx
    24dd:	85 c0                	test   %eax,%eax
    24df:	74 21                	je     2502 <usb_hid_report_parse_tag+0x352>
    24e1:	8d b4 26 00 00 00 00 	lea    0x0(%esi,%eiz,1),%esi
    24e8:	0f b6 34 1a          	movzbl (%edx,%ebx,1),%esi
    24ec:	8d 0c dd 00 00 00 00 	lea    0x0(,%ebx,8),%ecx
    24f3:	81 e6 ff 00 00 00    	and    $0xff,%esi
    24f9:	d3 e6                	shl    %cl,%esi
    24fb:	43                   	inc    %ebx
    24fc:	09 f7                	or     %esi,%edi
    24fe:	39 d8                	cmp    %ebx,%eax
    2500:	75 e6                	jne    24e8 <usb_hid_report_parse_tag+0x338>
    2502:	8b 45 e4             	mov    -0x1c(%ebp),%eax
    2505:	89 b8 10 00 04 00    	mov    %edi,0x40010(%eax)
    250b:	8b 90 0c 00 04 00    	mov    0x4000c(%eax),%edx
    2511:	39 fa                	cmp    %edi,%edx
    2513:	7f 5e                	jg     2573 <usb_hid_report_parse_tag+0x3c3>
    2515:	89 c1                	mov    %eax,%ecx
    2517:	8b 40 04             	mov    0x4(%eax),%eax
    251a:	89 c3                	mov    %eax,%ebx
    251c:	c1 e3 10             	shl    $0x10,%ebx
    251f:	8b b1 04 00 04 00    	mov    0x40004(%ecx),%esi
    2525:	66 85 c0             	test   %ax,%ax
    2528:	0f 85 c2 00 00 00    	jne    25f0 <usb_hid_report_parse_tag+0x440>
    252e:	89 f0                	mov    %esi,%eax
    2530:	8b 4d e4             	mov    -0x1c(%ebp),%ecx
    2533:	29 d0                	sub    %edx,%eax
    2535:	8d 5f 01             	lea    0x1(%edi),%ebx
    2538:	89 7d dc             	mov    %edi,-0x24(%ebp)
    253b:	89 55 e0             	mov    %edx,-0x20(%ebp)
    253e:	8d 0c 81             	lea    (%ecx,%eax,4),%ecx
    2541:	8b 7d e4             	mov    -0x1c(%ebp),%edi
    2544:	8d 74 26 00          	lea    0x0(%esi,%eiz,1),%esi
    2548:	8b 87 08 00 04 00    	mov    0x40008(%edi),%eax
    254e:	c1 e0 10             	shl    $0x10,%eax
    2551:	01 d0                	add    %edx,%eax
    2553:	89 44 91 08          	mov    %eax,0x8(%ecx,%edx,4)
    2557:	42                   	inc    %edx
    2558:	39 d3                	cmp    %edx,%ebx
    255a:	75 ec                	jne    2548 <usb_hid_report_parse_tag+0x398>
    255c:	8b 45 e0             	mov    -0x20(%ebp),%eax
    255f:	8b 7d dc             	mov    -0x24(%ebp),%edi
    2562:	29 c7                	sub    %eax,%edi
    2564:	8d 44 37 01          	lea    0x1(%edi,%esi,1),%eax
    2568:	8b 55 e4             	mov    -0x1c(%ebp),%edx
    256b:	89 82 04 00 04 00    	mov    %eax,0x40004(%edx)
    2571:	89 d0                	mov    %edx,%eax
    2573:	66 c7 40 04 00 00    	movw   $0x0,0x4(%eax)
    2579:	31 c0                	xor    %eax,%eax
    257b:	e9 8d fc ff ff       	jmp    220d <usb_hid_report_parse_tag+0x5d>
    2580:	31 ff                	xor    %edi,%edi
    2582:	31 db                	xor    %ebx,%ebx
    2584:	85 c0                	test   %eax,%eax
    2586:	74 1a                	je     25a2 <usb_hid_report_parse_tag+0x3f2>
    2588:	0f b6 34 1a          	movzbl (%edx,%ebx,1),%esi
    258c:	8d 0c dd 00 00 00 00 	lea    0x0(,%ebx,8),%ecx
    2593:	81 e6 ff 00 00 00    	and    $0xff,%esi
    2599:	d3 e6                	shl    %cl,%esi
    259b:	43                   	inc    %ebx
    259c:	09 f7                	or     %esi,%edi
    259e:	39 d8                	cmp    %ebx,%eax
    25a0:	75 e6                	jne    2588 <usb_hid_report_parse_tag+0x3d8>
    25a2:	8b 45 e4             	mov    -0x1c(%ebp),%eax
    25a5:	89 b8 38 00 04 00    	mov    %edi,0x40038(%eax)
    25ab:	31 c0                	xor    %eax,%eax
    25ad:	e9 5b fc ff ff       	jmp    220d <usb_hid_report_parse_tag+0x5d>
    25b2:	8d b6 00 00 00 00    	lea    0x0(%esi),%esi
    25b8:	31 ff                	xor    %edi,%edi
    25ba:	31 db                	xor    %ebx,%ebx
    25bc:	85 c0                	test   %eax,%eax
    25be:	74 1a                	je     25da <usb_hid_report_parse_tag+0x42a>
    25c0:	0f b6 34 1a          	movzbl (%edx,%ebx,1),%esi
    25c4:	8d 0c dd 00 00 00 00 	lea    0x0(,%ebx,8),%ecx
    25cb:	81 e6 ff 00 00 00    	and    $0xff,%esi
    25d1:	d3 e6                	shl    %cl,%esi
    25d3:	43                   	inc    %ebx
    25d4:	09 f7                	or     %esi,%edi
    25d6:	39 d8                	cmp    %ebx,%eax
    25d8:	75 e6                	jne    25c0 <usb_hid_report_parse_tag+0x410>
    25da:	8b 45 e4             	mov    -0x1c(%ebp),%eax
    25dd:	89 b8 40 00 04 00    	mov    %edi,0x40040(%eax)
    25e3:	31 c0                	xor    %eax,%eax
    25e5:	e9 23 fc ff ff       	jmp    220d <usb_hid_report_parse_tag+0x5d>
    25ea:	8d b6 00 00 00 00    	lea    0x0(%esi),%esi
    25f0:	8d 4c 3b 01          	lea    0x1(%ebx,%edi,1),%ecx
    25f4:	8d 04 1a             	lea    (%edx,%ebx,1),%eax
    25f7:	89 4d e0             	mov    %ecx,-0x20(%ebp)
    25fa:	89 f1                	mov    %esi,%ecx
    25fc:	8b 5d e4             	mov    -0x1c(%ebp),%ebx
    25ff:	29 c1                	sub    %eax,%ecx
    2601:	8d 0c 8b             	lea    (%ebx,%ecx,4),%ecx
    2604:	8b 5d e0             	mov    -0x20(%ebp),%ebx
    2607:	90                   	nop
    2608:	89 44 81 08          	mov    %eax,0x8(%ecx,%eax,4)
    260c:	40                   	inc    %eax
    260d:	39 c3                	cmp    %eax,%ebx
    260f:	75 f7                	jne    2608 <usb_hid_report_parse_tag+0x458>
    2611:	29 d7                	sub    %edx,%edi
    2613:	8d 44 37 01          	lea    0x1(%edi,%esi,1),%eax
    2617:	e9 4c ff ff ff       	jmp    2568 <usb_hid_report_parse_tag+0x3b8>
    261c:	31 c0                	xor    %eax,%eax
    261e:	e9 ea fb ff ff       	jmp    220d <usb_hid_report_parse_tag+0x5d>
    2623:	31 c9                	xor    %ecx,%ecx
    2625:	8b 7d e4             	mov    -0x1c(%ebp),%edi
    2628:	8a 4a 02             	mov    0x2(%edx),%cl
    262b:	31 db                	xor    %ebx,%ebx
    262d:	66 8b 5f 04          	mov    0x4(%edi),%bx
    2631:	89 c8                	mov    %ecx,%eax
    2633:	c1 e0 10             	shl    $0x10,%eax
    2636:	39 d9                	cmp    %ebx,%ecx
    2638:	75 60                	jne    269a <usb_hid_report_parse_tag+0x4ea>
    263a:	c1 e8 10             	shr    $0x10,%eax
    263d:	89 f9                	mov    %edi,%ecx
    263f:	66 89 47 04          	mov    %ax,0x4(%edi)
    2643:	31 c0                	xor    %eax,%eax
    2645:	0f b6 7a 01          	movzbl 0x1(%edx),%edi
    2649:	81 e7 ff 00 00 00    	and    $0xff,%edi
    264f:	8a 02                	mov    (%edx),%al
    2651:	c1 e7 08             	shl    $0x8,%edi
    2654:	09 c7                	or     %eax,%edi
    2656:	8b 45 e4             	mov    -0x1c(%ebp),%eax
    2659:	89 b9 10 00 04 00    	mov    %edi,0x40010(%ecx)
    265f:	e9 a7 fe ff ff       	jmp    250b <usb_hid_report_parse_tag+0x35b>
    2664:	8b 4d e4             	mov    -0x1c(%ebp),%ecx
    2667:	31 c0                	xor    %eax,%eax
    2669:	8a 42 02             	mov    0x2(%edx),%al
    266c:	66 89 41 04          	mov    %ax,0x4(%ecx)
    2670:	31 c0                	xor    %eax,%eax
    2672:	0f b6 3a             	movzbl (%edx),%edi
    2675:	8a 42 01             	mov    0x1(%edx),%al
    2678:	81 e7 ff 00 00 00    	and    $0xff,%edi
    267e:	c1 e0 08             	shl    $0x8,%eax
    2681:	09 f8                	or     %edi,%eax
    2683:	89 81 0c 00 04 00    	mov    %eax,0x4000c(%ecx)
    2689:	31 c0                	xor    %eax,%eax
    268b:	e9 7d fb ff ff       	jmp    220d <usb_hid_report_parse_tag+0x5d>
    2690:	b8 f4 ff ff ff       	mov    $0xfffffff4,%eax
    2695:	e9 bf fb ff ff       	jmp    2259 <usb_hid_report_parse_tag+0xa9>
    269a:	b8 f2 ff ff ff       	mov    $0xfffffff2,%eax
    269f:	e9 69 fb ff ff       	jmp    220d <usb_hid_report_parse_tag+0x5d>
    26a4:	8d b6 00 00 00 00    	lea    0x0(%esi),%esi
    26aa:	8d bf 00 00 00 00    	lea    0x0(%edi),%edi

000026b0 <usb_hid_report_parse_local_tag>:
    26b0:	55                   	push   %ebp
    26b1:	89 e5                	mov    %esp,%ebp
    26b3:	57                   	push   %edi
    26b4:	56                   	push   %esi
    26b5:	53                   	push   %ebx
    26b6:	83 ec 08             	sub    $0x8,%esp
    26b9:	8b 5d 08             	mov    0x8(%ebp),%ebx
    26bc:	8b 55 0c             	mov    0xc(%ebp),%edx
    26bf:	8b 45 10             	mov    0x10(%ebp),%eax
    26c2:	80 fb 0a             	cmp    $0xa,%bl
    26c5:	0f 87 f5 02 00 00    	ja     29c0 <usb_hid_report_parse_local_tag+0x310>
    26cb:	31 c9                	xor    %ecx,%ecx
    26cd:	88 d9                	mov    %bl,%cl
    26cf:	ff 24 8d 40 51 00 00 	jmp    *0x5140(,%ecx,4)
    26d6:	66 90                	xchg   %ax,%ax
    26d8:	31 ff                	xor    %edi,%edi
    26da:	31 db                	xor    %ebx,%ebx
    26dc:	85 c0                	test   %eax,%eax
    26de:	74 1a                	je     26fa <usb_hid_report_parse_local_tag+0x4a>
    26e0:	0f b6 34 1a          	movzbl (%edx,%ebx,1),%esi
    26e4:	8d 0c dd 00 00 00 00 	lea    0x0(,%ebx,8),%ecx
    26eb:	81 e6 ff 00 00 00    	and    $0xff,%esi
    26f1:	d3 e6                	shl    %cl,%esi
    26f3:	43                   	inc    %ebx
    26f4:	09 f7                	or     %esi,%edi
    26f6:	39 d8                	cmp    %ebx,%eax
    26f8:	75 e6                	jne    26e0 <usb_hid_report_parse_local_tag+0x30>
    26fa:	8b 45 14             	mov    0x14(%ebp),%eax
    26fd:	89 b8 64 00 04 00    	mov    %edi,0x40064(%eax)
    2703:	31 c0                	xor    %eax,%eax
    2705:	e9 ab 02 00 00       	jmp    29b5 <usb_hid_report_parse_local_tag+0x305>
    270a:	8d b6 00 00 00 00    	lea    0x0(%esi),%esi
    2710:	8b 7d 14             	mov    0x14(%ebp),%edi
    2713:	8b 8f 64 00 04 00    	mov    0x40064(%edi),%ecx
    2719:	85 c9                	test   %ecx,%ecx
    271b:	74 11                	je     272e <usb_hid_report_parse_local_tag+0x7e>
    271d:	49                   	dec    %ecx
    271e:	0f 85 d4 02 00 00    	jne    29f8 <usb_hid_report_parse_local_tag+0x348>
    2724:	c7 87 64 00 04 00 02 	movl   $0x2,0x40064(%edi)
    272b:	00 00 00 
    272e:	8b bf 08 00 04 00    	mov    0x40008(%edi),%edi
    2734:	c1 e7 10             	shl    $0x10,%edi
    2737:	85 c0                	test   %eax,%eax
    2739:	89 7d f0             	mov    %edi,-0x10(%ebp)
    273c:	0f 84 35 03 00 00    	je     2a77 <usb_hid_report_parse_local_tag+0x3c7>
    2742:	31 db                	xor    %ebx,%ebx
    2744:	31 ff                	xor    %edi,%edi
    2746:	66 90                	xchg   %ax,%ax
    2748:	0f b6 34 1a          	movzbl (%edx,%ebx,1),%esi
    274c:	8d 0c dd 00 00 00 00 	lea    0x0(,%ebx,8),%ecx
    2753:	81 e6 ff 00 00 00    	and    $0xff,%esi
    2759:	d3 e6                	shl    %cl,%esi
    275b:	43                   	inc    %ebx
    275c:	09 f7                	or     %esi,%edi
    275e:	39 d8                	cmp    %ebx,%eax
    2760:	75 e6                	jne    2748 <usb_hid_report_parse_local_tag+0x98>
    2762:	8b 45 14             	mov    0x14(%ebp),%eax
    2765:	8b 55 14             	mov    0x14(%ebp),%edx
    2768:	8b 75 f0             	mov    -0x10(%ebp),%esi
    276b:	8b 80 04 00 04 00    	mov    0x40004(%eax),%eax
    2771:	01 f7                	add    %esi,%edi
    2773:	89 7c 82 08          	mov    %edi,0x8(%edx,%eax,4)
    2777:	40                   	inc    %eax
    2778:	89 82 04 00 04 00    	mov    %eax,0x40004(%edx)
    277e:	31 c0                	xor    %eax,%eax
    2780:	e9 30 02 00 00       	jmp    29b5 <usb_hid_report_parse_local_tag+0x305>
    2785:	8d 76 00             	lea    0x0(%esi),%esi
    2788:	83 f8 03             	cmp    $0x3,%eax
    278b:	0f 84 b7 02 00 00    	je     2a48 <usb_hid_report_parse_local_tag+0x398>
    2791:	31 ff                	xor    %edi,%edi
    2793:	31 db                	xor    %ebx,%ebx
    2795:	85 c0                	test   %eax,%eax
    2797:	74 21                	je     27ba <usb_hid_report_parse_local_tag+0x10a>
    2799:	8d b4 26 00 00 00 00 	lea    0x0(%esi,%eiz,1),%esi
    27a0:	0f b6 34 1a          	movzbl (%edx,%ebx,1),%esi
    27a4:	8d 0c dd 00 00 00 00 	lea    0x0(,%ebx,8),%ecx
    27ab:	81 e6 ff 00 00 00    	and    $0xff,%esi
    27b1:	d3 e6                	shl    %cl,%esi
    27b3:	43                   	inc    %ebx
    27b4:	09 f7                	or     %esi,%edi
    27b6:	39 d8                	cmp    %ebx,%eax
    27b8:	75 e6                	jne    27a0 <usb_hid_report_parse_local_tag+0xf0>
    27ba:	8b 45 14             	mov    0x14(%ebp),%eax
    27bd:	89 b8 0c 00 04 00    	mov    %edi,0x4000c(%eax)
    27c3:	31 c0                	xor    %eax,%eax
    27c5:	e9 eb 01 00 00       	jmp    29b5 <usb_hid_report_parse_local_tag+0x305>
    27ca:	8d b6 00 00 00 00    	lea    0x0(%esi),%esi
    27d0:	31 ff                	xor    %edi,%edi
    27d2:	31 db                	xor    %ebx,%ebx
    27d4:	85 c0                	test   %eax,%eax
    27d6:	74 1a                	je     27f2 <usb_hid_report_parse_local_tag+0x142>
    27d8:	0f b6 34 1a          	movzbl (%edx,%ebx,1),%esi
    27dc:	8d 0c dd 00 00 00 00 	lea    0x0(,%ebx,8),%ecx
    27e3:	81 e6 ff 00 00 00    	and    $0xff,%esi
    27e9:	d3 e6                	shl    %cl,%esi
    27eb:	43                   	inc    %ebx
    27ec:	09 f7                	or     %esi,%edi
    27ee:	39 d8                	cmp    %ebx,%eax
    27f0:	75 e6                	jne    27d8 <usb_hid_report_parse_local_tag+0x128>
    27f2:	8b 45 14             	mov    0x14(%ebp),%eax
    27f5:	89 b8 44 00 04 00    	mov    %edi,0x40044(%eax)
    27fb:	31 c0                	xor    %eax,%eax
    27fd:	e9 b3 01 00 00       	jmp    29b5 <usb_hid_report_parse_local_tag+0x305>
    2802:	8d b6 00 00 00 00    	lea    0x0(%esi),%esi
    2808:	31 ff                	xor    %edi,%edi
    280a:	31 db                	xor    %ebx,%ebx
    280c:	85 c0                	test   %eax,%eax
    280e:	74 1a                	je     282a <usb_hid_report_parse_local_tag+0x17a>
    2810:	0f b6 34 1a          	movzbl (%edx,%ebx,1),%esi
    2814:	8d 0c dd 00 00 00 00 	lea    0x0(,%ebx,8),%ecx
    281b:	81 e6 ff 00 00 00    	and    $0xff,%esi
    2821:	d3 e6                	shl    %cl,%esi
    2823:	43                   	inc    %ebx
    2824:	09 f7                	or     %esi,%edi
    2826:	39 d8                	cmp    %ebx,%eax
    2828:	75 e6                	jne    2810 <usb_hid_report_parse_local_tag+0x160>
    282a:	8b 45 14             	mov    0x14(%ebp),%eax
    282d:	89 b8 3c 00 04 00    	mov    %edi,0x4003c(%eax)
    2833:	31 c0                	xor    %eax,%eax
    2835:	e9 7b 01 00 00       	jmp    29b5 <usb_hid_report_parse_local_tag+0x305>
    283a:	8d b6 00 00 00 00    	lea    0x0(%esi),%esi
    2840:	31 ff                	xor    %edi,%edi
    2842:	31 db                	xor    %ebx,%ebx
    2844:	85 c0                	test   %eax,%eax
    2846:	74 1a                	je     2862 <usb_hid_report_parse_local_tag+0x1b2>
    2848:	0f b6 34 1a          	movzbl (%edx,%ebx,1),%esi
    284c:	8d 0c dd 00 00 00 00 	lea    0x0(,%ebx,8),%ecx
    2853:	81 e6 ff 00 00 00    	and    $0xff,%esi
    2859:	d3 e6                	shl    %cl,%esi
    285b:	43                   	inc    %ebx
    285c:	09 f7                	or     %esi,%edi
    285e:	39 d8                	cmp    %ebx,%eax
    2860:	75 e6                	jne    2848 <usb_hid_report_parse_local_tag+0x198>
    2862:	8b 45 14             	mov    0x14(%ebp),%eax
    2865:	89 b8 34 00 04 00    	mov    %edi,0x40034(%eax)
    286b:	31 c0                	xor    %eax,%eax
    286d:	e9 43 01 00 00       	jmp    29b5 <usb_hid_report_parse_local_tag+0x305>
    2872:	8d b6 00 00 00 00    	lea    0x0(%esi),%esi
    2878:	83 f8 03             	cmp    $0x3,%eax
    287b:	0f 84 7f 01 00 00    	je     2a00 <usb_hid_report_parse_local_tag+0x350>
    2881:	31 ff                	xor    %edi,%edi
    2883:	31 db                	xor    %ebx,%ebx
    2885:	85 c0                	test   %eax,%eax
    2887:	74 21                	je     28aa <usb_hid_report_parse_local_tag+0x1fa>
    2889:	8d b4 26 00 00 00 00 	lea    0x0(%esi,%eiz,1),%esi
    2890:	0f b6 34 1a          	movzbl (%edx,%ebx,1),%esi
    2894:	8d 0c dd 00 00 00 00 	lea    0x0(,%ebx,8),%ecx
    289b:	81 e6 ff 00 00 00    	and    $0xff,%esi
    28a1:	d3 e6                	shl    %cl,%esi
    28a3:	43                   	inc    %ebx
    28a4:	09 f7                	or     %esi,%edi
    28a6:	39 d8                	cmp    %ebx,%eax
    28a8:	75 e6                	jne    2890 <usb_hid_report_parse_local_tag+0x1e0>
    28aa:	8b 45 14             	mov    0x14(%ebp),%eax
    28ad:	89 b8 10 00 04 00    	mov    %edi,0x40010(%eax)
    28b3:	8b 90 0c 00 04 00    	mov    0x4000c(%eax),%edx
    28b9:	39 fa                	cmp    %edi,%edx
    28bb:	7f 5b                	jg     2918 <usb_hid_report_parse_local_tag+0x268>
    28bd:	89 c1                	mov    %eax,%ecx
    28bf:	8b 40 04             	mov    0x4(%eax),%eax
    28c2:	8b b1 04 00 04 00    	mov    0x40004(%ecx),%esi
    28c8:	89 c1                	mov    %eax,%ecx
    28ca:	c1 e1 10             	shl    $0x10,%ecx
    28cd:	66 85 c0             	test   %ax,%ax
    28d0:	0f 85 f2 00 00 00    	jne    29c8 <usb_hid_report_parse_local_tag+0x318>
    28d6:	89 f0                	mov    %esi,%eax
    28d8:	8b 4d 14             	mov    0x14(%ebp),%ecx
    28db:	29 d0                	sub    %edx,%eax
    28dd:	8d 5f 01             	lea    0x1(%edi),%ebx
    28e0:	89 7d ec             	mov    %edi,-0x14(%ebp)
    28e3:	89 55 f0             	mov    %edx,-0x10(%ebp)
    28e6:	8d 0c 81             	lea    (%ecx,%eax,4),%ecx
    28e9:	8b 7d 14             	mov    0x14(%ebp),%edi
    28ec:	8d 74 26 00          	lea    0x0(%esi,%eiz,1),%esi
    28f0:	8b 87 08 00 04 00    	mov    0x40008(%edi),%eax
    28f6:	c1 e0 10             	shl    $0x10,%eax
    28f9:	01 d0                	add    %edx,%eax
    28fb:	89 44 91 08          	mov    %eax,0x8(%ecx,%edx,4)
    28ff:	42                   	inc    %edx
    2900:	39 d3                	cmp    %edx,%ebx
    2902:	75 ec                	jne    28f0 <usb_hid_report_parse_local_tag+0x240>
    2904:	46                   	inc    %esi
    2905:	8b 5d f0             	mov    -0x10(%ebp),%ebx
    2908:	8b 7d ec             	mov    -0x14(%ebp),%edi
    290b:	29 de                	sub    %ebx,%esi
    290d:	01 f7                	add    %esi,%edi
    290f:	8b 45 14             	mov    0x14(%ebp),%eax
    2912:	89 b8 04 00 04 00    	mov    %edi,0x40004(%eax)
    2918:	66 c7 40 04 00 00    	movw   $0x0,0x4(%eax)
    291e:	31 c0                	xor    %eax,%eax
    2920:	e9 90 00 00 00       	jmp    29b5 <usb_hid_report_parse_local_tag+0x305>
    2925:	8d 76 00             	lea    0x0(%esi),%esi
    2928:	31 ff                	xor    %edi,%edi
    292a:	31 db                	xor    %ebx,%ebx
    292c:	85 c0                	test   %eax,%eax
    292e:	74 1a                	je     294a <usb_hid_report_parse_local_tag+0x29a>
    2930:	0f b6 34 1a          	movzbl (%edx,%ebx,1),%esi
    2934:	8d 0c dd 00 00 00 00 	lea    0x0(,%ebx,8),%ecx
    293b:	81 e6 ff 00 00 00    	and    $0xff,%esi
    2941:	d3 e6                	shl    %cl,%esi
    2943:	43                   	inc    %ebx
    2944:	09 f7                	or     %esi,%edi
    2946:	39 d8                	cmp    %ebx,%eax
    2948:	75 e6                	jne    2930 <usb_hid_report_parse_local_tag+0x280>
    294a:	8b 45 14             	mov    0x14(%ebp),%eax
    294d:	89 b8 30 00 04 00    	mov    %edi,0x40030(%eax)
    2953:	31 c0                	xor    %eax,%eax
    2955:	eb 5e                	jmp    29b5 <usb_hid_report_parse_local_tag+0x305>
    2957:	90                   	nop
    2958:	31 ff                	xor    %edi,%edi
    295a:	31 db                	xor    %ebx,%ebx
    295c:	85 c0                	test   %eax,%eax
    295e:	74 1a                	je     297a <usb_hid_report_parse_local_tag+0x2ca>
    2960:	0f b6 34 1a          	movzbl (%edx,%ebx,1),%esi
    2964:	8d 0c dd 00 00 00 00 	lea    0x0(,%ebx,8),%ecx
    296b:	81 e6 ff 00 00 00    	and    $0xff,%esi
    2971:	d3 e6                	shl    %cl,%esi
    2973:	43                   	inc    %ebx
    2974:	09 f7                	or     %esi,%edi
    2976:	39 d8                	cmp    %ebx,%eax
    2978:	75 e6                	jne    2960 <usb_hid_report_parse_local_tag+0x2b0>
    297a:	8b 45 14             	mov    0x14(%ebp),%eax
    297d:	89 b8 40 00 04 00    	mov    %edi,0x40040(%eax)
    2983:	31 c0                	xor    %eax,%eax
    2985:	eb 2e                	jmp    29b5 <usb_hid_report_parse_local_tag+0x305>
    2987:	90                   	nop
    2988:	31 ff                	xor    %edi,%edi
    298a:	31 db                	xor    %ebx,%ebx
    298c:	85 c0                	test   %eax,%eax
    298e:	74 1a                	je     29aa <usb_hid_report_parse_local_tag+0x2fa>
    2990:	0f b6 34 1a          	movzbl (%edx,%ebx,1),%esi
    2994:	8d 0c dd 00 00 00 00 	lea    0x0(,%ebx,8),%ecx
    299b:	81 e6 ff 00 00 00    	and    $0xff,%esi
    29a1:	d3 e6                	shl    %cl,%esi
    29a3:	43                   	inc    %ebx
    29a4:	09 f7                	or     %esi,%edi
    29a6:	39 d8                	cmp    %ebx,%eax
    29a8:	75 e6                	jne    2990 <usb_hid_report_parse_local_tag+0x2e0>
    29aa:	8b 45 14             	mov    0x14(%ebp),%eax
    29ad:	89 b8 38 00 04 00    	mov    %edi,0x40038(%eax)
    29b3:	31 c0                	xor    %eax,%eax
    29b5:	5a                   	pop    %edx
    29b6:	59                   	pop    %ecx
    29b7:	5b                   	pop    %ebx
    29b8:	5e                   	pop    %esi
    29b9:	5f                   	pop    %edi
    29ba:	5d                   	pop    %ebp
    29bb:	c3                   	ret    
    29bc:	8d 74 26 00          	lea    0x0(%esi,%eiz,1),%esi
    29c0:	b8 02 00 00 00       	mov    $0x2,%eax
    29c5:	eb ee                	jmp    29b5 <usb_hid_report_parse_local_tag+0x305>
    29c7:	90                   	nop
    29c8:	8d 04 0a             	lea    (%edx,%ecx,1),%eax
    29cb:	8d 4c 39 01          	lea    0x1(%ecx,%edi,1),%ecx
    29cf:	89 4d f0             	mov    %ecx,-0x10(%ebp)
    29d2:	89 f1                	mov    %esi,%ecx
    29d4:	8b 5d 14             	mov    0x14(%ebp),%ebx
    29d7:	29 c1                	sub    %eax,%ecx
    29d9:	8d 0c 8b             	lea    (%ebx,%ecx,4),%ecx
    29dc:	8b 5d f0             	mov    -0x10(%ebp),%ebx
    29df:	90                   	nop
    29e0:	89 44 81 08          	mov    %eax,0x8(%ecx,%eax,4)
    29e4:	40                   	inc    %eax
    29e5:	39 d8                	cmp    %ebx,%eax
    29e7:	75 f7                	jne    29e0 <usb_hid_report_parse_local_tag+0x330>
    29e9:	29 d7                	sub    %edx,%edi
    29eb:	8d 7c 37 01          	lea    0x1(%edi,%esi,1),%edi
    29ef:	e9 1b ff ff ff       	jmp    290f <usb_hid_report_parse_local_tag+0x25f>
    29f4:	8d 74 26 00          	lea    0x0(%esi,%eiz,1),%esi
    29f8:	31 c0                	xor    %eax,%eax
    29fa:	eb b9                	jmp    29b5 <usb_hid_report_parse_local_tag+0x305>
    29fc:	8d 74 26 00          	lea    0x0(%esi,%eiz,1),%esi
    2a00:	31 c9                	xor    %ecx,%ecx
    2a02:	8b 45 14             	mov    0x14(%ebp),%eax
    2a05:	8a 4a 02             	mov    0x2(%edx),%cl
    2a08:	31 db                	xor    %ebx,%ebx
    2a0a:	66 8b 58 04          	mov    0x4(%eax),%bx
    2a0e:	89 c8                	mov    %ecx,%eax
    2a10:	c1 e0 10             	shl    $0x10,%eax
    2a13:	39 d9                	cmp    %ebx,%ecx
    2a15:	75 67                	jne    2a7e <usb_hid_report_parse_local_tag+0x3ce>
    2a17:	c1 e8 10             	shr    $0x10,%eax
    2a1a:	8b 7d 14             	mov    0x14(%ebp),%edi
    2a1d:	66 89 47 04          	mov    %ax,0x4(%edi)
    2a21:	31 c0                	xor    %eax,%eax
    2a23:	0f b6 7a 01          	movzbl 0x1(%edx),%edi
    2a27:	81 e7 ff 00 00 00    	and    $0xff,%edi
    2a2d:	8a 02                	mov    (%edx),%al
    2a2f:	c1 e7 08             	shl    $0x8,%edi
    2a32:	09 c7                	or     %eax,%edi
    2a34:	8b 45 14             	mov    0x14(%ebp),%eax
    2a37:	89 b8 10 00 04 00    	mov    %edi,0x40010(%eax)
    2a3d:	e9 71 fe ff ff       	jmp    28b3 <usb_hid_report_parse_local_tag+0x203>
    2a42:	8d b6 00 00 00 00    	lea    0x0(%esi),%esi
    2a48:	8b 7d 14             	mov    0x14(%ebp),%edi
    2a4b:	31 c0                	xor    %eax,%eax
    2a4d:	8a 42 02             	mov    0x2(%edx),%al
    2a50:	66 89 47 04          	mov    %ax,0x4(%edi)
    2a54:	31 c0                	xor    %eax,%eax
    2a56:	0f b6 3a             	movzbl (%edx),%edi
    2a59:	8a 42 01             	mov    0x1(%edx),%al
    2a5c:	81 e7 ff 00 00 00    	and    $0xff,%edi
    2a62:	c1 e0 08             	shl    $0x8,%eax
    2a65:	8b 55 14             	mov    0x14(%ebp),%edx
    2a68:	09 f8                	or     %edi,%eax
    2a6a:	89 82 0c 00 04 00    	mov    %eax,0x4000c(%edx)
    2a70:	31 c0                	xor    %eax,%eax
    2a72:	e9 3e ff ff ff       	jmp    29b5 <usb_hid_report_parse_local_tag+0x305>
    2a77:	31 ff                	xor    %edi,%edi
    2a79:	e9 e4 fc ff ff       	jmp    2762 <usb_hid_report_parse_local_tag+0xb2>
    2a7e:	b8 f2 ff ff ff       	mov    $0xfffffff2,%eax
    2a83:	e9 2d ff ff ff       	jmp    29b5 <usb_hid_report_parse_local_tag+0x305>
    2a88:	90                   	nop
    2a89:	8d b4 26 00 00 00 00 	lea    0x0(%esi,%eiz,1),%esi

00002a90 <usb_hid_parse_report_descriptor>:
    2a90:	55                   	push   %ebp
    2a91:	89 e5                	mov    %esp,%ebp
    2a93:	57                   	push   %edi
    2a94:	56                   	push   %esi
    2a95:	53                   	push   %ebx
    2a96:	83 ec 3c             	sub    $0x3c,%esp
    2a99:	8d 45 e0             	lea    -0x20(%ebp),%eax
    2a9c:	89 45 e0             	mov    %eax,-0x20(%ebp)
    2a9f:	89 45 e4             	mov    %eax,-0x1c(%ebp)
    2aa2:	8b 45 08             	mov    0x8(%ebp),%eax
    2aa5:	85 c0                	test   %eax,%eax
    2aa7:	0f 84 f3 03 00 00    	je     2ea0 <usb_hid_parse_report_descriptor+0x410>
    2aad:	8b 7d 08             	mov    0x8(%ebp),%edi
    2ab0:	56                   	push   %esi
    2ab1:	6a 20                	push   $0x20
    2ab3:	6a 00                	push   $0x0
    2ab5:	57                   	push   %edi
    2ab6:	e8 65 4b 00 00       	call   7620 <memset@plt>
    2abb:	8b 7d 08             	mov    0x8(%ebp),%edi
    2abe:	8b 45 08             	mov    0x8(%ebp),%eax
    2ac1:	83 c0 04             	add    $0x4,%eax
    2ac4:	89 47 04             	mov    %eax,0x4(%edi)
    2ac7:	89 47 08             	mov    %eax,0x8(%edi)
    2aca:	89 f8                	mov    %edi,%eax
    2acc:	c7 47 18 00 00 00 00 	movl   $0x0,0x18(%edi)
    2ad3:	83 c0 0c             	add    $0xc,%eax
    2ad6:	89 47 0c             	mov    %eax,0xc(%edi)
    2ad9:	89 47 10             	mov    %eax,0x10(%edi)
    2adc:	c7 04 24 68 00 04 00 	movl   $0x40068,(%esp)
    2ae3:	e8 88 4a 00 00       	call   7570 <malloc@plt>
    2ae8:	83 c4 10             	add    $0x10,%esp
    2aeb:	89 c6                	mov    %eax,%esi
    2aed:	85 c0                	test   %eax,%eax
    2aef:	0f 84 51 04 00 00    	je     2f46 <usb_hid_parse_report_descriptor+0x4b6>
    2af5:	53                   	push   %ebx
    2af6:	68 68 00 04 00       	push   $0x40068
    2afb:	6a 00                	push   $0x0
    2afd:	50                   	push   %eax
    2afe:	e8 1d 4b 00 00       	call   7620 <memset@plt>
    2b03:	c7 86 5c 00 04 00 00 	movl   $0x0,0x4005c(%esi)
    2b0a:	00 00 00 
    2b0d:	c7 86 60 00 04 00 00 	movl   $0x0,0x40060(%esi)
    2b14:	00 00 00 
    2b17:	e8 44 1a 00 00       	call   4560 <usb_hid_report_path>
    2b1c:	83 c4 10             	add    $0x10,%esp
    2b1f:	89 45 d0             	mov    %eax,-0x30(%ebp)
    2b22:	85 c0                	test   %eax,%eax
    2b24:	0f 84 1c 04 00 00    	je     2f46 <usb_hid_parse_report_descriptor+0x4b6>
    2b2a:	52                   	push   %edx
    2b2b:	6a 00                	push   $0x0
    2b2d:	6a 00                	push   $0x0
    2b2f:	50                   	push   %eax
    2b30:	e8 eb 14 00 00       	call   4020 <usb_hid_report_path_append_item>
    2b35:	8b 4d 10             	mov    0x10(%ebp),%ecx
    2b38:	83 c4 10             	add    $0x10,%esp
    2b3b:	85 c9                	test   %ecx,%ecx
    2b3d:	0f 84 6b 01 00 00    	je     2cae <usb_hid_parse_report_descriptor+0x21e>
    2b43:	8b 45 d0             	mov    -0x30(%ebp),%eax
    2b46:	31 db                	xor    %ebx,%ebx
    2b48:	83 c0 10             	add    $0x10,%eax
    2b4b:	c7 45 bc 00 00 00 00 	movl   $0x0,-0x44(%ebp)
    2b52:	c7 45 c0 00 00 00 00 	movl   $0x0,-0x40(%ebp)
    2b59:	c7 45 c4 00 00 00 00 	movl   $0x0,-0x3c(%ebp)
    2b60:	89 45 b8             	mov    %eax,-0x48(%ebp)
    2b63:	89 d9                	mov    %ebx,%ecx
    2b65:	89 f7                	mov    %esi,%edi
    2b67:	e9 20 01 00 00       	jmp    2c8c <usb_hid_parse_report_descriptor+0x1fc>
    2b6c:	8d 74 26 00          	lea    0x0(%esi,%eiz,1),%esi
    2b70:	89 c2                	mov    %eax,%edx
    2b72:	83 e2 03             	and    $0x3,%edx
    2b75:	8d 1c 0a             	lea    (%edx,%ecx,1),%ebx
    2b78:	39 5d 10             	cmp    %ebx,0x10(%ebp)
    2b7b:	0f 86 1f 03 00 00    	jbe    2ea0 <usb_hid_parse_report_descriptor+0x410>
    2b81:	41                   	inc    %ecx
    2b82:	88 c3                	mov    %al,%bl
    2b84:	c0 eb 04             	shr    $0x4,%bl
    2b87:	89 4d d4             	mov    %ecx,-0x2c(%ebp)
    2b8a:	c1 e8 02             	shr    $0x2,%eax
    2b8d:	03 4d 0c             	add    0xc(%ebp),%ecx
    2b90:	89 4d cc             	mov    %ecx,-0x34(%ebp)
    2b93:	88 d9                	mov    %bl,%cl
    2b95:	81 e1 ff 00 00 00    	and    $0xff,%ecx
    2b9b:	83 e0 03             	and    $0x3,%eax
    2b9e:	89 4d c8             	mov    %ecx,-0x38(%ebp)
    2ba1:	3c 01                	cmp    $0x1,%al
    2ba3:	0f 84 47 02 00 00    	je     2df0 <usb_hid_parse_report_descriptor+0x360>
    2ba9:	0f 82 09 01 00 00    	jb     2cb8 <usb_hid_parse_report_descriptor+0x228>
    2baf:	3c 02                	cmp    $0x2,%al
    2bb1:	0f 85 cb 00 00 00    	jne    2c82 <usb_hid_parse_report_descriptor+0x1f2>
    2bb7:	83 ec 0c             	sub    $0xc,%esp
    2bba:	8b 45 d0             	mov    -0x30(%ebp),%eax
    2bbd:	50                   	push   %eax
    2bbe:	8b 45 cc             	mov    -0x34(%ebp),%eax
    2bc1:	57                   	push   %edi
    2bc2:	52                   	push   %edx
    2bc3:	50                   	push   %eax
    2bc4:	8b 45 c8             	mov    -0x38(%ebp),%eax
    2bc7:	50                   	push   %eax
    2bc8:	e8 e3 fa ff ff       	call   26b0 <usb_hid_report_parse_local_tag>
    2bcd:	83 c4 20             	add    $0x20,%esp
    2bd0:	83 f8 03             	cmp    $0x3,%eax
    2bd3:	0f 84 39 02 00 00    	je     2e12 <usb_hid_parse_report_descriptor+0x382>
    2bd9:	0f 8e b1 02 00 00    	jle    2e90 <usb_hid_parse_report_descriptor+0x400>
    2bdf:	83 f8 0a             	cmp    $0xa,%eax
    2be2:	0f 84 60 02 00 00    	je     2e48 <usb_hid_parse_report_descriptor+0x3b8>
    2be8:	83 f8 0b             	cmp    $0xb,%eax
    2beb:	0f 85 8c 00 00 00    	jne    2c7d <usb_hid_parse_report_descriptor+0x1ed>
    2bf1:	8b 5d e4             	mov    -0x1c(%ebp),%ebx
    2bf4:	8d 45 e0             	lea    -0x20(%ebp),%eax
    2bf7:	39 c3                	cmp    %eax,%ebx
    2bf9:	0f 84 a1 02 00 00    	je     2ea0 <usb_hid_parse_report_descriptor+0x410>
    2bff:	85 db                	test   %ebx,%ebx
    2c01:	0f 84 99 02 00 00    	je     2ea0 <usb_hid_parse_report_descriptor+0x410>
    2c07:	83 ec 0c             	sub    $0xc,%esp
    2c0a:	57                   	push   %edi
    2c0b:	8d bb a4 ff fb ff    	lea    -0x4005c(%ebx),%edi
    2c11:	e8 ea 4a 00 00       	call   7700 <free@plt>
    2c16:	83 c4 0c             	add    $0xc,%esp
    2c19:	8b 87 58 00 04 00    	mov    0x40058(%edi),%eax
    2c1f:	8b 40 08             	mov    0x8(%eax),%eax
    2c22:	8d 50 f4             	lea    -0xc(%eax),%edx
    2c25:	8b 40 f4             	mov    -0xc(%eax),%eax
    2c28:	89 55 cc             	mov    %edx,-0x34(%ebp)
    2c2b:	8b 55 d0             	mov    -0x30(%ebp),%edx
    2c2e:	50                   	push   %eax
    2c2f:	6a 01                	push   $0x1
    2c31:	52                   	push   %edx
    2c32:	e8 d9 14 00 00       	call   4110 <usb_hid_report_set_last_item>
    2c37:	8b 55 cc             	mov    -0x34(%ebp),%edx
    2c3a:	83 c4 0c             	add    $0xc,%esp
    2c3d:	8b 45 d0             	mov    -0x30(%ebp),%eax
    2c40:	8b 4a 04             	mov    0x4(%edx),%ecx
    2c43:	51                   	push   %ecx
    2c44:	6a 02                	push   $0x2
    2c46:	50                   	push   %eax
    2c47:	e8 c4 14 00 00       	call   4110 <usb_hid_report_set_last_item>
    2c4c:	58                   	pop    %eax
    2c4d:	8b 87 58 00 04 00    	mov    0x40058(%edi),%eax
    2c53:	50                   	push   %eax
    2c54:	e8 47 19 00 00       	call   45a0 <usb_hid_report_path_free>
    2c59:	8b 13                	mov    (%ebx),%edx
    2c5b:	83 c4 10             	add    $0x10,%esp
    2c5e:	85 d2                	test   %edx,%edx
    2c60:	74 0e                	je     2c70 <usb_hid_parse_report_descriptor+0x1e0>
    2c62:	8b 43 04             	mov    0x4(%ebx),%eax
    2c65:	85 c0                	test   %eax,%eax
    2c67:	74 07                	je     2c70 <usb_hid_parse_report_descriptor+0x1e0>
    2c69:	89 10                	mov    %edx,(%eax)
    2c6b:	8b 13                	mov    (%ebx),%edx
    2c6d:	89 42 04             	mov    %eax,0x4(%edx)
    2c70:	c7 03 00 00 00 00    	movl   $0x0,(%ebx)
    2c76:	c7 43 04 00 00 00 00 	movl   $0x0,0x4(%ebx)
    2c7d:	8a 16                	mov    (%esi),%dl
    2c7f:	83 e2 03             	and    $0x3,%edx
    2c82:	8b 4d d4             	mov    -0x2c(%ebp),%ecx
    2c85:	01 d1                	add    %edx,%ecx
    2c87:	3b 4d 10             	cmp    0x10(%ebp),%ecx
    2c8a:	73 22                	jae    2cae <usb_hid_parse_report_descriptor+0x21e>
    2c8c:	8b 75 0c             	mov    0xc(%ebp),%esi
    2c8f:	01 ce                	add    %ecx,%esi
    2c91:	8a 06                	mov    (%esi),%al
    2c93:	3c fe                	cmp    $0xfe,%al
    2c95:	0f 85 d5 fe ff ff    	jne    2b70 <usb_hid_parse_report_descriptor+0xe0>
    2c9b:	8b 45 0c             	mov    0xc(%ebp),%eax
    2c9e:	8a 44 08 01          	mov    0x1(%eax,%ecx,1),%al
    2ca2:	83 e0 03             	and    $0x3,%eax
    2ca5:	8d 4c 01 03          	lea    0x3(%ecx,%eax,1),%ecx
    2ca9:	3b 4d 10             	cmp    0x10(%ebp),%ecx
    2cac:	72 de                	jb     2c8c <usb_hid_parse_report_descriptor+0x1fc>
    2cae:	8d 65 f4             	lea    -0xc(%ebp),%esp
    2cb1:	31 c0                	xor    %eax,%eax
    2cb3:	5b                   	pop    %ebx
    2cb4:	5e                   	pop    %esi
    2cb5:	5f                   	pop    %edi
    2cb6:	5d                   	pop    %ebp
    2cb7:	c3                   	ret    
    2cb8:	8d 4b f8             	lea    -0x8(%ebx),%ecx
    2cbb:	80 f9 04             	cmp    $0x4,%cl
    2cbe:	77 c2                	ja     2c82 <usb_hid_parse_report_descriptor+0x1f2>
    2cc0:	31 c0                	xor    %eax,%eax
    2cc2:	88 c8                	mov    %cl,%al
    2cc4:	ff 24 85 6c 51 00 00 	jmp    *0x516c(,%eax,4)
    2ccb:	90                   	nop
    2ccc:	8d 74 26 00          	lea    0x0(%esi,%eiz,1),%esi
    2cd0:	8b 45 d0             	mov    -0x30(%ebp),%eax
    2cd3:	8b 40 14             	mov    0x14(%eax),%eax
    2cd6:	3b 45 b8             	cmp    -0x48(%ebp),%eax
    2cd9:	0f 84 5d 02 00 00    	je     2f3c <usb_hid_parse_report_descriptor+0x4ac>
    2cdf:	83 e8 0c             	sub    $0xc,%eax
    2ce2:	8b 5d cc             	mov    -0x34(%ebp),%ebx
    2ce5:	8a 0b                	mov    (%ebx),%cl
    2ce7:	88 48 08             	mov    %cl,0x8(%eax)
    2cea:	53                   	push   %ebx
    2ceb:	8b 87 04 00 04 00    	mov    0x40004(%edi),%eax
    2cf1:	66 8b 5c 87 06       	mov    0x6(%edi,%eax,4),%bx
    2cf6:	8b 45 d0             	mov    -0x30(%ebp),%eax
    2cf9:	81 e3 ff ff 00 00    	and    $0xffff,%ebx
    2cff:	53                   	push   %ebx
    2d00:	6a 01                	push   $0x1
    2d02:	50                   	push   %eax
    2d03:	e8 08 14 00 00       	call   4110 <usb_hid_report_set_last_item>
    2d08:	8b 87 04 00 04 00    	mov    0x40004(%edi),%eax
    2d0e:	83 c4 0c             	add    $0xc,%esp
    2d11:	8b 5c 87 04          	mov    0x4(%edi,%eax,4),%ebx
    2d15:	81 e3 ff ff 00 00    	and    $0xffff,%ebx
    2d1b:	53                   	push   %ebx
    2d1c:	8b 5d d0             	mov    -0x30(%ebp),%ebx
    2d1f:	6a 02                	push   $0x2
    2d21:	53                   	push   %ebx
    2d22:	e8 e9 13 00 00       	call   4110 <usb_hid_report_set_last_item>
    2d27:	8b 87 04 00 04 00    	mov    0x40004(%edi),%eax
    2d2d:	83 c4 0c             	add    $0xc,%esp
    2d30:	8b 44 87 04          	mov    0x4(%edi,%eax,4),%eax
    2d34:	50                   	push   %eax
    2d35:	8b 87 08 00 04 00    	mov    0x40008(%edi),%eax
    2d3b:	50                   	push   %eax
    2d3c:	53                   	push   %ebx
    2d3d:	e8 de 12 00 00       	call   4020 <usb_hid_report_path_append_item>
    2d42:	89 3c 24             	mov    %edi,(%esp)
    2d45:	e8 46 12 00 00       	call   3f90 <usb_hid_report_reset_local_items>
    2d4a:	8a 16                	mov    (%esi),%dl
    2d4c:	83 c4 10             	add    $0x10,%esp
    2d4f:	83 e2 03             	and    $0x3,%edx
    2d52:	e9 2b ff ff ff       	jmp    2c82 <usb_hid_parse_report_descriptor+0x1f2>
    2d57:	90                   	nop
    2d58:	8b 45 cc             	mov    -0x34(%ebp),%eax
    2d5b:	8a 00                	mov    (%eax),%al
    2d5d:	88 87 50 00 04 00    	mov    %al,0x40050(%edi)
    2d63:	8b 55 d0             	mov    -0x30(%ebp),%edx
    2d66:	31 c0                	xor    %eax,%eax
    2d68:	89 97 58 00 04 00    	mov    %edx,0x40058(%edi)
    2d6e:	51                   	push   %ecx
    2d6f:	51                   	push   %ecx
    2d70:	8a 07                	mov    (%edi),%al
    2d72:	50                   	push   %eax
    2d73:	52                   	push   %edx
    2d74:	e8 c7 19 00 00       	call   4740 <usb_hid_report_path_set_report_id>
    2d79:	8b 07                	mov    (%edi),%eax
    2d7b:	83 c4 10             	add    $0x10,%esp
    2d7e:	85 c0                	test   %eax,%eax
    2d80:	74 0a                	je     2d8c <usb_hid_parse_report_descriptor+0x2fc>
    2d82:	8b 45 08             	mov    0x8(%ebp),%eax
    2d85:	c7 40 18 01 00 00 00 	movl   $0x1,0x18(%eax)
    2d8c:	80 fb 09             	cmp    $0x9,%bl
    2d8f:	0f 84 7b 01 00 00    	je     2f10 <usb_hid_parse_report_descriptor+0x480>
    2d95:	80 fb 0b             	cmp    $0xb,%bl
    2d98:	0f 84 42 01 00 00    	je     2ee0 <usb_hid_parse_report_descriptor+0x450>
    2d9e:	80 fb 08             	cmp    $0x8,%bl
    2da1:	0f 84 09 01 00 00    	je     2eb0 <usb_hid_parse_report_descriptor+0x420>
    2da7:	8b 45 c8             	mov    -0x38(%ebp),%eax
    2daa:	50                   	push   %eax
    2dab:	68 80 51 00 00       	push   $0x5180
    2db0:	6a 05                	push   $0x5
    2db2:	6a ff                	push   $0xffffffff
    2db4:	e8 17 48 00 00       	call   75d0 <log_msg@plt>
    2db9:	83 c4 10             	add    $0x10,%esp
    2dbc:	8b 5d 08             	mov    0x8(%ebp),%ebx
    2dbf:	51                   	push   %ecx
    2dc0:	51                   	push   %ecx
    2dc1:	57                   	push   %edi
    2dc2:	53                   	push   %ebx
    2dc3:	e8 98 e9 ff ff       	call   1760 <usb_hid_report_append_fields>
    2dc8:	e9 75 ff ff ff       	jmp    2d42 <usb_hid_parse_report_descriptor+0x2b2>
    2dcd:	8d 76 00             	lea    0x0(%esi),%esi
    2dd0:	83 ec 0c             	sub    $0xc,%esp
    2dd3:	8b 4d d0             	mov    -0x30(%ebp),%ecx
    2dd6:	51                   	push   %ecx
    2dd7:	e8 94 12 00 00       	call   4070 <usb_hid_report_remove_last_item>
    2ddc:	8a 16                	mov    (%esi),%dl
    2dde:	83 c4 10             	add    $0x10,%esp
    2de1:	83 e2 03             	and    $0x3,%edx
    2de4:	e9 99 fe ff ff       	jmp    2c82 <usb_hid_parse_report_descriptor+0x1f2>
    2de9:	8d b4 26 00 00 00 00 	lea    0x0(%esi,%eiz,1),%esi
    2df0:	83 ec 0c             	sub    $0xc,%esp
    2df3:	8b 45 d0             	mov    -0x30(%ebp),%eax
    2df6:	50                   	push   %eax
    2df7:	8b 45 cc             	mov    -0x34(%ebp),%eax
    2dfa:	57                   	push   %edi
    2dfb:	52                   	push   %edx
    2dfc:	8b 55 c8             	mov    -0x38(%ebp),%edx
    2dff:	50                   	push   %eax
    2e00:	52                   	push   %edx
    2e01:	e8 3a ef ff ff       	call   1d40 <usb_hid_report_parse_global_tag>
    2e06:	83 c4 20             	add    $0x20,%esp
    2e09:	83 f8 03             	cmp    $0x3,%eax
    2e0c:	0f 85 c7 fd ff ff    	jne    2bd9 <usb_hid_parse_report_descriptor+0x149>
    2e12:	50                   	push   %eax
    2e13:	50                   	push   %eax
    2e14:	31 c0                	xor    %eax,%eax
    2e16:	8b 55 d0             	mov    -0x30(%ebp),%edx
    2e19:	8a 07                	mov    (%edi),%al
    2e1b:	50                   	push   %eax
    2e1c:	52                   	push   %edx
    2e1d:	e8 1e 19 00 00       	call   4740 <usb_hid_report_path_set_report_id>
    2e22:	8a 16                	mov    (%esi),%dl
    2e24:	83 e2 03             	and    $0x3,%edx
    2e27:	83 c4 10             	add    $0x10,%esp
    2e2a:	c7 45 bc 00 00 00 00 	movl   $0x0,-0x44(%ebp)
    2e31:	c7 45 c0 00 00 00 00 	movl   $0x0,-0x40(%ebp)
    2e38:	c7 45 c4 00 00 00 00 	movl   $0x0,-0x3c(%ebp)
    2e3f:	e9 3e fe ff ff       	jmp    2c82 <usb_hid_parse_report_descriptor+0x1f2>
    2e44:	8d 74 26 00          	lea    0x0(%esi,%eiz,1),%esi
    2e48:	83 ec 0c             	sub    $0xc,%esp
    2e4b:	57                   	push   %edi
    2e4c:	e8 9f 0f 00 00       	call   3df0 <usb_hid_report_item_clone>
    2e51:	89 c3                	mov    %eax,%ebx
    2e53:	58                   	pop    %eax
    2e54:	8b 45 d0             	mov    -0x30(%ebp),%eax
    2e57:	50                   	push   %eax
    2e58:	e8 13 18 00 00       	call   4670 <usb_hid_report_path_clone>
    2e5d:	8d 55 e0             	lea    -0x20(%ebp),%edx
    2e60:	89 83 58 00 04 00    	mov    %eax,0x40058(%ebx)
    2e66:	89 93 5c 00 04 00    	mov    %edx,0x4005c(%ebx)
    2e6c:	8b 55 e4             	mov    -0x1c(%ebp),%edx
    2e6f:	8d 83 5c 00 04 00    	lea    0x4005c(%ebx),%eax
    2e75:	89 93 60 00 04 00    	mov    %edx,0x40060(%ebx)
    2e7b:	89 02                	mov    %eax,(%edx)
    2e7d:	83 c4 10             	add    $0x10,%esp
    2e80:	8a 16                	mov    (%esi),%dl
    2e82:	89 45 e4             	mov    %eax,-0x1c(%ebp)
    2e85:	83 e2 03             	and    $0x3,%edx
    2e88:	e9 f5 fd ff ff       	jmp    2c82 <usb_hid_parse_report_descriptor+0x1f2>
    2e8d:	8d 76 00             	lea    0x0(%esi),%esi
    2e90:	48                   	dec    %eax
    2e91:	0f 84 cc fe ff ff    	je     2d63 <usb_hid_parse_report_descriptor+0x2d3>
    2e97:	e9 e1 fd ff ff       	jmp    2c7d <usb_hid_parse_report_descriptor+0x1ed>
    2e9c:	8d 74 26 00          	lea    0x0(%esi,%eiz,1),%esi
    2ea0:	b8 f2 ff ff ff       	mov    $0xfffffff2,%eax
    2ea5:	8d 65 f4             	lea    -0xc(%ebp),%esp
    2ea8:	5b                   	pop    %ebx
    2ea9:	5e                   	pop    %esi
    2eaa:	5f                   	pop    %edi
    2eab:	5d                   	pop    %ebp
    2eac:	c3                   	ret    
    2ead:	8d 76 00             	lea    0x0(%esi),%esi
    2eb0:	8b 87 20 00 04 00    	mov    0x40020(%edi),%eax
    2eb6:	8b 97 1c 00 04 00    	mov    0x4001c(%edi),%edx
    2ebc:	0f af c2             	imul   %edx,%eax
    2ebf:	8b 5d c4             	mov    -0x3c(%ebp),%ebx
    2ec2:	c7 87 54 00 04 00 01 	movl   $0x1,0x40054(%edi)
    2ec9:	00 00 00 
    2ecc:	89 9f 24 00 04 00    	mov    %ebx,0x40024(%edi)
    2ed2:	01 c3                	add    %eax,%ebx
    2ed4:	89 5d c4             	mov    %ebx,-0x3c(%ebp)
    2ed7:	e9 e0 fe ff ff       	jmp    2dbc <usb_hid_parse_report_descriptor+0x32c>
    2edc:	8d 74 26 00          	lea    0x0(%esi,%eiz,1),%esi
    2ee0:	8b 87 20 00 04 00    	mov    0x40020(%edi),%eax
    2ee6:	8b 97 1c 00 04 00    	mov    0x4001c(%edi),%edx
    2eec:	0f af c2             	imul   %edx,%eax
    2eef:	8b 5d bc             	mov    -0x44(%ebp),%ebx
    2ef2:	c7 87 54 00 04 00 03 	movl   $0x3,0x40054(%edi)
    2ef9:	00 00 00 
    2efc:	89 9f 24 00 04 00    	mov    %ebx,0x40024(%edi)
    2f02:	01 c3                	add    %eax,%ebx
    2f04:	89 5d bc             	mov    %ebx,-0x44(%ebp)
    2f07:	e9 b0 fe ff ff       	jmp    2dbc <usb_hid_parse_report_descriptor+0x32c>
    2f0c:	8d 74 26 00          	lea    0x0(%esi,%eiz,1),%esi
    2f10:	8b 87 20 00 04 00    	mov    0x40020(%edi),%eax
    2f16:	8b 8f 1c 00 04 00    	mov    0x4001c(%edi),%ecx
    2f1c:	0f af c1             	imul   %ecx,%eax
    2f1f:	8b 5d c0             	mov    -0x40(%ebp),%ebx
    2f22:	c7 87 54 00 04 00 02 	movl   $0x2,0x40054(%edi)
    2f29:	00 00 00 
    2f2c:	89 9f 24 00 04 00    	mov    %ebx,0x40024(%edi)
    2f32:	01 c3                	add    %eax,%ebx
    2f34:	89 5d c0             	mov    %ebx,-0x40(%ebp)
    2f37:	e9 80 fe ff ff       	jmp    2dbc <usb_hid_parse_report_descriptor+0x32c>
    2f3c:	b8 f4 ff ff ff       	mov    $0xfffffff4,%eax
    2f41:	e9 9c fd ff ff       	jmp    2ce2 <usb_hid_parse_report_descriptor+0x252>
    2f46:	b8 fe ff ff ff       	mov    $0xfffffffe,%eax
    2f4b:	e9 55 ff ff ff       	jmp    2ea5 <usb_hid_parse_report_descriptor+0x415>

00002f50 <usb_hid_report_tag_data_uint32>:
    2f50:	55                   	push   %ebp
    2f51:	31 c0                	xor    %eax,%eax
    2f53:	89 e5                	mov    %esp,%ebp
    2f55:	57                   	push   %edi
    2f56:	56                   	push   %esi
    2f57:	53                   	push   %ebx
    2f58:	8b 75 0c             	mov    0xc(%ebp),%esi
    2f5b:	8b 7d 08             	mov    0x8(%ebp),%edi
    2f5e:	85 f6                	test   %esi,%esi
    2f60:	74 1b                	je     2f7d <usb_hid_report_tag_data_uint32+0x2d>
    2f62:	31 d2                	xor    %edx,%edx
    2f64:	8d 74 26 00          	lea    0x0(%esi,%eiz,1),%esi
    2f68:	31 db                	xor    %ebx,%ebx
    2f6a:	8d 0c d5 00 00 00 00 	lea    0x0(,%edx,8),%ecx
    2f71:	8a 1c 17             	mov    (%edi,%edx,1),%bl
    2f74:	42                   	inc    %edx
    2f75:	d3 e3                	shl    %cl,%ebx
    2f77:	09 d8                	or     %ebx,%eax
    2f79:	39 d6                	cmp    %edx,%esi
    2f7b:	75 eb                	jne    2f68 <usb_hid_report_tag_data_uint32+0x18>
    2f7d:	5b                   	pop    %ebx
    2f7e:	5e                   	pop    %esi
    2f7f:	5f                   	pop    %edi
    2f80:	5d                   	pop    %ebp
    2f81:	c3                   	ret    
    2f82:	8d b4 26 00 00 00 00 	lea    0x0(%esi,%eiz,1),%esi
    2f89:	8d bc 27 00 00 00 00 	lea    0x0(%edi,%eiz,1),%edi

00002f90 <usb_hid_descriptor_print_list>:
    2f90:	55                   	push   %ebp
    2f91:	89 e5                	mov    %esp,%ebp
    2f93:	57                   	push   %edi
    2f94:	56                   	push   %esi
    2f95:	53                   	push   %ebx
    2f96:	83 ec 0c             	sub    $0xc,%esp
    2f99:	8b 7d 08             	mov    0x8(%ebp),%edi
    2f9c:	85 ff                	test   %edi,%edi
    2f9e:	0f 84 36 01 00 00    	je     30da <usb_hid_descriptor_print_list+0x14a>
    2fa4:	8b 77 04             	mov    0x4(%edi),%esi
    2fa7:	39 f7                	cmp    %esi,%edi
    2fa9:	8d 5e c0             	lea    -0x40(%esi),%ebx
    2fac:	0f 84 28 01 00 00    	je     30da <usb_hid_descriptor_print_list+0x14a>
    2fb2:	8d b6 00 00 00 00    	lea    0x0(%esi),%esi
    2fb8:	8b 03                	mov    (%ebx),%eax
    2fba:	50                   	push   %eax
    2fbb:	68 9d 51 00 00       	push   $0x519d
    2fc0:	6a 04                	push   $0x4
    2fc2:	6a ff                	push   $0xffffffff
    2fc4:	e8 07 46 00 00       	call   75d0 <log_msg@plt>
    2fc9:	8b 53 04             	mov    0x4(%ebx),%edx
    2fcc:	52                   	push   %edx
    2fcd:	68 ab 51 00 00       	push   $0x51ab
    2fd2:	6a 04                	push   $0x4
    2fd4:	6a ff                	push   $0xffffffff
    2fd6:	e8 f5 45 00 00       	call   75d0 <log_msg@plt>
    2fdb:	83 c4 20             	add    $0x20,%esp
    2fde:	8b 4b 14             	mov    0x14(%ebx),%ecx
    2fe1:	51                   	push   %ecx
    2fe2:	68 b8 51 00 00       	push   $0x51b8
    2fe7:	6a 04                	push   $0x4
    2fe9:	6a ff                	push   $0xffffffff
    2feb:	e8 e0 45 00 00       	call   75d0 <log_msg@plt>
    2ff0:	8b 43 18             	mov    0x18(%ebx),%eax
    2ff3:	50                   	push   %eax
    2ff4:	68 c6 51 00 00       	push   $0x51c6
    2ff9:	6a 04                	push   $0x4
    2ffb:	6a ff                	push   $0xffffffff
    2ffd:	e8 ce 45 00 00       	call   75d0 <log_msg@plt>
    3002:	83 c4 20             	add    $0x20,%esp
    3005:	8b 43 1c             	mov    0x1c(%ebx),%eax
    3008:	50                   	push   %eax
    3009:	68 d4 51 00 00       	push   $0x51d4
    300e:	6a 04                	push   $0x4
    3010:	6a ff                	push   $0xffffffff
    3012:	e8 b9 45 00 00       	call   75d0 <log_msg@plt>
    3017:	8b 43 20             	mov    0x20(%ebx),%eax
    301a:	50                   	push   %eax
    301b:	68 e2 51 00 00       	push   $0x51e2
    3020:	6a 04                	push   $0x4
    3022:	6a ff                	push   $0xffffffff
    3024:	e8 a7 45 00 00       	call   75d0 <log_msg@plt>
    3029:	83 c4 20             	add    $0x20,%esp
    302c:	8b 43 24             	mov    0x24(%ebx),%eax
    302f:	50                   	push   %eax
    3030:	68 f0 51 00 00       	push   $0x51f0
    3035:	6a 04                	push   $0x4
    3037:	6a ff                	push   $0xffffffff
    3039:	e8 92 45 00 00       	call   75d0 <log_msg@plt>
    303e:	8b 43 28             	mov    0x28(%ebx),%eax
    3041:	50                   	push   %eax
    3042:	68 01 52 00 00       	push   $0x5201
    3047:	6a 04                	push   $0x4
    3049:	6a ff                	push   $0xffffffff
    304b:	e8 80 45 00 00       	call   75d0 <log_msg@plt>
    3050:	83 c4 20             	add    $0x20,%esp
    3053:	8b 43 38             	mov    0x38(%ebx),%eax
    3056:	50                   	push   %eax
    3057:	68 11 52 00 00       	push   $0x5211
    305c:	6a 04                	push   $0x4
    305e:	6a ff                	push   $0xffffffff
    3060:	e8 6b 45 00 00       	call   75d0 <log_msg@plt>
    3065:	8b 53 3c             	mov    0x3c(%ebx),%edx
    3068:	52                   	push   %edx
    3069:	68 26 52 00 00       	push   $0x5226
    306e:	6a 04                	push   $0x4
    3070:	6a ff                	push   $0xffffffff
    3072:	e8 59 45 00 00       	call   75d0 <log_msg@plt>
    3077:	83 c4 20             	add    $0x20,%esp
    307a:	31 c0                	xor    %eax,%eax
    307c:	66 8b 43 0a          	mov    0xa(%ebx),%ax
    3080:	50                   	push   %eax
    3081:	68 33 52 00 00       	push   $0x5233
    3086:	6a 04                	push   $0x4
    3088:	6a ff                	push   $0xffffffff
    308a:	e8 41 45 00 00       	call   75d0 <log_msg@plt>
    308f:	31 c0                	xor    %eax,%eax
    3091:	66 8b 43 08          	mov    0x8(%ebx),%ax
    3095:	50                   	push   %eax
    3096:	68 41 52 00 00       	push   $0x5241
    309b:	6a 04                	push   $0x4
    309d:	6a ff                	push   $0xffffffff
    309f:	e8 2c 45 00 00       	call   75d0 <log_msg@plt>
    30a4:	83 c4 14             	add    $0x14,%esp
    30a7:	8b 4b 10             	mov    0x10(%ebx),%ecx
    30aa:	51                   	push   %ecx
    30ab:	e8 a0 10 00 00       	call   4150 <usb_hid_print_usage_path>
    30b0:	83 c4 0c             	add    $0xc,%esp
    30b3:	68 b1 73 00 00       	push   $0x73b1
    30b8:	6a 04                	push   $0x4
    30ba:	6a ff                	push   $0xffffffff
    30bc:	e8 0f 45 00 00       	call   75d0 <log_msg@plt>
    30c1:	8b 76 04             	mov    0x4(%esi),%esi
    30c4:	83 c4 10             	add    $0x10,%esp
    30c7:	39 f7                	cmp    %esi,%edi
    30c9:	8d 5e c0             	lea    -0x40(%esi),%ebx
    30cc:	0f 85 e6 fe ff ff    	jne    2fb8 <usb_hid_descriptor_print_list+0x28>
    30d2:	8d 65 f4             	lea    -0xc(%ebp),%esp
    30d5:	5b                   	pop    %ebx
    30d6:	5e                   	pop    %esi
    30d7:	5f                   	pop    %edi
    30d8:	5d                   	pop    %ebp
    30d9:	c3                   	ret    
    30da:	53                   	push   %ebx
    30db:	68 95 51 00 00       	push   $0x5195
    30e0:	6a 04                	push   $0x4
    30e2:	6a ff                	push   $0xffffffff
    30e4:	e8 e7 44 00 00       	call   75d0 <log_msg@plt>
    30e9:	83 c4 10             	add    $0x10,%esp
    30ec:	8d 65 f4             	lea    -0xc(%ebp),%esp
    30ef:	5b                   	pop    %ebx
    30f0:	5e                   	pop    %esi
    30f1:	5f                   	pop    %edi
    30f2:	5d                   	pop    %ebp
    30f3:	c3                   	ret    
    30f4:	8d b6 00 00 00 00    	lea    0x0(%esi),%esi
    30fa:	8d bf 00 00 00 00    	lea    0x0(%edi),%edi

00003100 <usb_hid_descriptor_print>:
    3100:	55                   	push   %ebp
    3101:	89 e5                	mov    %esp,%ebp
    3103:	57                   	push   %edi
    3104:	56                   	push   %esi
    3105:	53                   	push   %ebx
    3106:	83 ec 1c             	sub    $0x1c,%esp
    3109:	8b 75 08             	mov    0x8(%ebp),%esi
    310c:	85 f6                	test   %esi,%esi
    310e:	0f 84 a3 00 00 00    	je     31b7 <usb_hid_descriptor_print+0xb7>
    3114:	8b 7e 08             	mov    0x8(%esi),%edi
    3117:	8d 46 04             	lea    0x4(%esi),%eax
    311a:	89 45 e4             	mov    %eax,-0x1c(%ebp)
    311d:	39 c7                	cmp    %eax,%edi
    311f:	8d 5f e8             	lea    -0x18(%edi),%ebx
    3122:	0f 84 8f 00 00 00    	je     31b7 <usb_hid_descriptor_print+0xb7>
    3128:	31 c0                	xor    %eax,%eax
    312a:	83 c3 10             	add    $0x10,%ebx
    312d:	8a 43 f0             	mov    -0x10(%ebx),%al
    3130:	50                   	push   %eax
    3131:	68 53 52 00 00       	push   $0x5253
    3136:	6a 04                	push   $0x4
    3138:	6a ff                	push   $0xffffffff
    313a:	e8 91 44 00 00       	call   75d0 <log_msg@plt>
    313f:	8b 43 f4             	mov    -0xc(%ebx),%eax
    3142:	50                   	push   %eax
    3143:	68 62 52 00 00       	push   $0x5262
    3148:	6a 04                	push   $0x4
    314a:	6a ff                	push   $0xffffffff
    314c:	e8 7f 44 00 00       	call   75d0 <log_msg@plt>
    3151:	83 c4 20             	add    $0x20,%esp
    3154:	8b 53 f8             	mov    -0x8(%ebx),%edx
    3157:	52                   	push   %edx
    3158:	68 6d 52 00 00       	push   $0x526d
    315d:	6a 04                	push   $0x4
    315f:	6a ff                	push   $0xffffffff
    3161:	e8 6a 44 00 00       	call   75d0 <log_msg@plt>
    3166:	83 c4 0c             	add    $0xc,%esp
    3169:	8b 4b f4             	mov    -0xc(%ebx),%ecx
    316c:	31 c0                	xor    %eax,%eax
    316e:	51                   	push   %ecx
    316f:	8a 43 f0             	mov    -0x10(%ebx),%al
    3172:	50                   	push   %eax
    3173:	56                   	push   %esi
    3174:	e8 87 01 00 00       	call   3300 <usb_hid_report_byte_size>
    3179:	50                   	push   %eax
    317a:	68 7b 52 00 00       	push   $0x527b
    317f:	6a 04                	push   $0x4
    3181:	6a ff                	push   $0xffffffff
    3183:	e8 48 44 00 00       	call   75d0 <log_msg@plt>
    3188:	83 c4 20             	add    $0x20,%esp
    318b:	8b 43 fc             	mov    -0x4(%ebx),%eax
    318e:	50                   	push   %eax
    318f:	68 89 52 00 00       	push   $0x5289
    3194:	6a 04                	push   $0x4
    3196:	6a ff                	push   $0xffffffff
    3198:	e8 33 44 00 00       	call   75d0 <log_msg@plt>
    319d:	89 1c 24             	mov    %ebx,(%esp)
    31a0:	e8 eb fd ff ff       	call   2f90 <usb_hid_descriptor_print_list>
    31a5:	8b 7f 04             	mov    0x4(%edi),%edi
    31a8:	83 c4 10             	add    $0x10,%esp
    31ab:	8d 5f e8             	lea    -0x18(%edi),%ebx
    31ae:	3b 7d e4             	cmp    -0x1c(%ebp),%edi
    31b1:	0f 85 71 ff ff ff    	jne    3128 <usb_hid_descriptor_print+0x28>
    31b7:	8d 65 f4             	lea    -0xc(%ebp),%esp
    31ba:	5b                   	pop    %ebx
    31bb:	5e                   	pop    %esi
    31bc:	5f                   	pop    %edi
    31bd:	5d                   	pop    %ebp
    31be:	c3                   	ret    
    31bf:	90                   	nop

000031c0 <usb_hid_report_deinit>:
    31c0:	55                   	push   %ebp
    31c1:	89 e5                	mov    %esp,%ebp
    31c3:	57                   	push   %edi
    31c4:	56                   	push   %esi
    31c5:	53                   	push   %ebx
    31c6:	83 ec 1c             	sub    $0x1c,%esp
    31c9:	8b 7d 08             	mov    0x8(%ebp),%edi
    31cc:	85 ff                	test   %edi,%edi
    31ce:	0f 84 de 00 00 00    	je     32b2 <usb_hid_report_deinit+0xf2>
    31d4:	8b 47 10             	mov    0x10(%edi),%eax
    31d7:	8d 5f 0c             	lea    0xc(%edi),%ebx
    31da:	39 c3                	cmp    %eax,%ebx
    31dc:	74 39                	je     3217 <usb_hid_report_deinit+0x57>
    31de:	66 90                	xchg   %ax,%ax
    31e0:	8b 08                	mov    (%eax),%ecx
    31e2:	8d 70 f8             	lea    -0x8(%eax),%esi
    31e5:	85 c9                	test   %ecx,%ecx
    31e7:	74 0e                	je     31f7 <usb_hid_report_deinit+0x37>
    31e9:	8b 50 04             	mov    0x4(%eax),%edx
    31ec:	85 d2                	test   %edx,%edx
    31ee:	74 07                	je     31f7 <usb_hid_report_deinit+0x37>
    31f0:	89 0a                	mov    %ecx,(%edx)
    31f2:	8b 08                	mov    (%eax),%ecx
    31f4:	89 51 04             	mov    %edx,0x4(%ecx)
    31f7:	83 ec 0c             	sub    $0xc,%esp
    31fa:	c7 00 00 00 00 00    	movl   $0x0,(%eax)
    3200:	c7 40 04 00 00 00 00 	movl   $0x0,0x4(%eax)
    3207:	56                   	push   %esi
    3208:	e8 93 13 00 00       	call   45a0 <usb_hid_report_path_free>
    320d:	8b 47 10             	mov    0x10(%edi),%eax
    3210:	83 c4 10             	add    $0x10,%esp
    3213:	39 d8                	cmp    %ebx,%eax
    3215:	75 c9                	jne    31e0 <usb_hid_report_deinit+0x20>
    3217:	8d 47 04             	lea    0x4(%edi),%eax
    321a:	8b 5f 08             	mov    0x8(%edi),%ebx
    321d:	89 45 e4             	mov    %eax,-0x1c(%ebp)
    3220:	39 c3                	cmp    %eax,%ebx
    3222:	0f 84 8a 00 00 00    	je     32b2 <usb_hid_report_deinit+0xf2>
    3228:	83 eb 18             	sub    $0x18,%ebx
    322b:	8b 53 18             	mov    0x18(%ebx),%edx
    322e:	85 d2                	test   %edx,%edx
    3230:	74 0f                	je     3241 <usb_hid_report_deinit+0x81>
    3232:	8b 43 1c             	mov    0x1c(%ebx),%eax
    3235:	85 c0                	test   %eax,%eax
    3237:	74 08                	je     3241 <usb_hid_report_deinit+0x81>
    3239:	89 10                	mov    %edx,(%eax)
    323b:	8b 53 18             	mov    0x18(%ebx),%edx
    323e:	89 42 04             	mov    %eax,0x4(%edx)
    3241:	8b 43 14             	mov    0x14(%ebx),%eax
    3244:	8d 73 10             	lea    0x10(%ebx),%esi
    3247:	c7 43 18 00 00 00 00 	movl   $0x0,0x18(%ebx)
    324e:	c7 43 1c 00 00 00 00 	movl   $0x0,0x1c(%ebx)
    3255:	39 c6                	cmp    %eax,%esi
    3257:	74 41                	je     329a <usb_hid_report_deinit+0xda>
    3259:	8d b4 26 00 00 00 00 	lea    0x0(%esi,%eiz,1),%esi
    3260:	83 e8 40             	sub    $0x40,%eax
    3263:	8b 48 40             	mov    0x40(%eax),%ecx
    3266:	85 c9                	test   %ecx,%ecx
    3268:	74 0f                	je     3279 <usb_hid_report_deinit+0xb9>
    326a:	8b 50 44             	mov    0x44(%eax),%edx
    326d:	85 d2                	test   %edx,%edx
    326f:	74 08                	je     3279 <usb_hid_report_deinit+0xb9>
    3271:	89 0a                	mov    %ecx,(%edx)
    3273:	8b 48 40             	mov    0x40(%eax),%ecx
    3276:	89 51 04             	mov    %edx,0x4(%ecx)
    3279:	83 ec 0c             	sub    $0xc,%esp
    327c:	c7 40 40 00 00 00 00 	movl   $0x0,0x40(%eax)
    3283:	c7 40 44 00 00 00 00 	movl   $0x0,0x44(%eax)
    328a:	50                   	push   %eax
    328b:	e8 70 44 00 00       	call   7700 <free@plt>
    3290:	8b 43 14             	mov    0x14(%ebx),%eax
    3293:	83 c4 10             	add    $0x10,%esp
    3296:	39 f0                	cmp    %esi,%eax
    3298:	75 c6                	jne    3260 <usb_hid_report_deinit+0xa0>
    329a:	83 ec 0c             	sub    $0xc,%esp
    329d:	53                   	push   %ebx
    329e:	e8 5d 44 00 00       	call   7700 <free@plt>
    32a3:	8b 5f 08             	mov    0x8(%edi),%ebx
    32a6:	83 c4 10             	add    $0x10,%esp
    32a9:	3b 5d e4             	cmp    -0x1c(%ebp),%ebx
    32ac:	0f 85 76 ff ff ff    	jne    3228 <usb_hid_report_deinit+0x68>
    32b2:	8d 65 f4             	lea    -0xc(%ebp),%esp
    32b5:	5b                   	pop    %ebx
    32b6:	5e                   	pop    %esi
    32b7:	5f                   	pop    %edi
    32b8:	5d                   	pop    %ebp
    32b9:	c3                   	ret    
    32ba:	66 90                	xchg   %ax,%ax
    32bc:	66 90                	xchg   %ax,%ax
    32be:	66 90                	xchg   %ax,%ax

000032c0 <usb_hid_report_size>:
    32c0:	55                   	push   %ebp
    32c1:	89 e5                	mov    %esp,%ebp
    32c3:	83 ec 08             	sub    $0x8,%esp
    32c6:	8b 55 08             	mov    0x8(%ebp),%edx
    32c9:	8b 45 0c             	mov    0xc(%ebp),%eax
    32cc:	85 d2                	test   %edx,%edx
    32ce:	74 20                	je     32f0 <usb_hid_report_size+0x30>
    32d0:	25 ff 00 00 00       	and    $0xff,%eax
    32d5:	51                   	push   %ecx
    32d6:	8b 4d 10             	mov    0x10(%ebp),%ecx
    32d9:	51                   	push   %ecx
    32da:	50                   	push   %eax
    32db:	52                   	push   %edx
    32dc:	e8 0f e9 ff ff       	call   1bf0 <usb_hid_report_find_description>
    32e1:	83 c4 10             	add    $0x10,%esp
    32e4:	85 c0                	test   %eax,%eax
    32e6:	74 08                	je     32f0 <usb_hid_report_size+0x30>
    32e8:	8b 40 0c             	mov    0xc(%eax),%eax
    32eb:	c9                   	leave  
    32ec:	c3                   	ret    
    32ed:	8d 76 00             	lea    0x0(%esi),%esi
    32f0:	31 c0                	xor    %eax,%eax
    32f2:	c9                   	leave  
    32f3:	c3                   	ret    
    32f4:	8d b6 00 00 00 00    	lea    0x0(%esi),%esi
    32fa:	8d bf 00 00 00 00    	lea    0x0(%edi),%edi

00003300 <usb_hid_report_byte_size>:
    3300:	55                   	push   %ebp
    3301:	89 e5                	mov    %esp,%ebp
    3303:	83 ec 08             	sub    $0x8,%esp
    3306:	8b 55 08             	mov    0x8(%ebp),%edx
    3309:	8b 45 0c             	mov    0xc(%ebp),%eax
    330c:	85 d2                	test   %edx,%edx
    330e:	74 28                	je     3338 <usb_hid_report_byte_size+0x38>
    3310:	25 ff 00 00 00       	and    $0xff,%eax
    3315:	51                   	push   %ecx
    3316:	8b 4d 10             	mov    0x10(%ebp),%ecx
    3319:	51                   	push   %ecx
    331a:	50                   	push   %eax
    331b:	52                   	push   %edx
    331c:	e8 cf e8 ff ff       	call   1bf0 <usb_hid_report_find_description>
    3321:	83 c4 10             	add    $0x10,%esp
    3324:	85 c0                	test   %eax,%eax
    3326:	74 10                	je     3338 <usb_hid_report_byte_size+0x38>
    3328:	8b 40 08             	mov    0x8(%eax),%eax
    332b:	c9                   	leave  
    332c:	83 c0 07             	add    $0x7,%eax
    332f:	c1 e8 03             	shr    $0x3,%eax
    3332:	c3                   	ret    
    3333:	90                   	nop
    3334:	8d 74 26 00          	lea    0x0(%esi,%eiz,1),%esi
    3338:	31 c0                	xor    %eax,%eax
    333a:	c9                   	leave  
    333b:	c3                   	ret    
    333c:	8d 74 26 00          	lea    0x0(%esi,%eiz,1),%esi

00003340 <usb_hid_translate_data>:
    3340:	55                   	push   %ebp
    3341:	89 e5                	mov    %esp,%ebp
    3343:	57                   	push   %edi
    3344:	56                   	push   %esi
    3345:	53                   	push   %ebx
    3346:	83 ec 2c             	sub    $0x2c,%esp
    3349:	8b 45 08             	mov    0x8(%ebp),%eax
    334c:	8b 40 04             	mov    0x4(%eax),%eax
    334f:	89 c7                	mov    %eax,%edi
    3351:	89 45 ec             	mov    %eax,-0x14(%ebp)
    3354:	31 c0                	xor    %eax,%eax
    3356:	83 ff 20             	cmp    $0x20,%edi
    3359:	0f 87 28 01 00 00    	ja     3487 <usb_hid_translate_data+0x147>
    335f:	8b 45 08             	mov    0x8(%ebp),%eax
    3362:	8b 40 1c             	mov    0x1c(%eax),%eax
    3365:	89 45 e8             	mov    %eax,-0x18(%ebp)
    3368:	85 c0                	test   %eax,%eax
    336a:	8b 45 08             	mov    0x8(%ebp),%eax
    336d:	0f 84 1d 01 00 00    	je     3490 <usb_hid_translate_data+0x150>
    3373:	8b 40 14             	mov    0x14(%eax),%eax
    3376:	89 45 e4             	mov    %eax,-0x1c(%ebp)
    3379:	8b 45 08             	mov    0x8(%ebp),%eax
    337c:	8b 58 20             	mov    0x20(%eax),%ebx
    337f:	3b 5d e8             	cmp    -0x18(%ebp),%ebx
    3382:	0f 84 2c 01 00 00    	je     34b4 <usb_hid_translate_data+0x174>
    3388:	8b 7d e8             	mov    -0x18(%ebp),%edi
    338b:	8b 45 08             	mov    0x8(%ebp),%eax
    338e:	29 fb                	sub    %edi,%ebx
    3390:	8b 7d 08             	mov    0x8(%ebp),%edi
    3393:	8b 40 18             	mov    0x18(%eax),%eax
    3396:	8b 75 e4             	mov    -0x1c(%ebp),%esi
    3399:	8b 57 30             	mov    0x30(%edi),%edx
    339c:	89 45 f0             	mov    %eax,-0x10(%ebp)
    339f:	b9 01 00 00 00       	mov    $0x1,%ecx
    33a4:	29 f0                	sub    %esi,%eax
    33a6:	85 d2                	test   %edx,%edx
    33a8:	0f 84 40 01 00 00    	je     34ee <usb_hid_translate_data+0x1ae>
    33ae:	83 fa 01             	cmp    $0x1,%edx
    33b1:	0f 85 29 01 00 00    	jne    34e0 <usb_hid_translate_data+0x1a0>
    33b7:	ba 0a 00 00 00       	mov    $0xa,%edx
    33bc:	0f af ca             	imul   %edx,%ecx
    33bf:	0f af d9             	imul   %ecx,%ebx
    33c2:	89 c2                	mov    %eax,%edx
    33c4:	c1 fa 1f             	sar    $0x1f,%edx
    33c7:	f7 fb                	idiv   %ebx
    33c9:	89 45 e0             	mov    %eax,-0x20(%ebp)
    33cc:	8b 45 08             	mov    0x8(%ebp),%eax
    33cf:	8b 7d ec             	mov    -0x14(%ebp),%edi
    33d2:	8b 00                	mov    (%eax),%eax
    33d4:	8d 5f ff             	lea    -0x1(%edi),%ebx
    33d7:	89 c2                	mov    %eax,%edx
    33d9:	89 5d dc             	mov    %ebx,-0x24(%ebp)
    33dc:	c1 fa 1f             	sar    $0x1f,%edx
    33df:	8d 3c 18             	lea    (%eax,%ebx,1),%edi
    33e2:	c1 ef 03             	shr    $0x3,%edi
    33e5:	89 d1                	mov    %edx,%ecx
    33e7:	83 e1 07             	and    $0x7,%ecx
    33ea:	01 c1                	add    %eax,%ecx
    33ec:	c1 f9 03             	sar    $0x3,%ecx
    33ef:	89 4d f0             	mov    %ecx,-0x10(%ebp)
    33f2:	89 cb                	mov    %ecx,%ebx
    33f4:	39 f9                	cmp    %edi,%ecx
    33f6:	0f 84 0c 01 00 00    	je     3508 <usb_hid_translate_data+0x1c8>
    33fc:	0f 87 3d 01 00 00    	ja     353f <usb_hid_translate_data+0x1ff>
    3402:	c1 ea 1d             	shr    $0x1d,%edx
    3405:	be 08 00 00 00       	mov    $0x8,%esi
    340a:	01 d0                	add    %edx,%eax
    340c:	8b 4d ec             	mov    -0x14(%ebp),%ecx
    340f:	83 e0 07             	and    $0x7,%eax
    3412:	29 d0                	sub    %edx,%eax
    3414:	89 f2                	mov    %esi,%edx
    3416:	29 c2                	sub    %eax,%edx
    3418:	b8 01 00 00 00       	mov    $0x1,%eax
    341d:	29 d1                	sub    %edx,%ecx
    341f:	89 55 d4             	mov    %edx,-0x2c(%ebp)
    3422:	d3 e0                	shl    %cl,%eax
    3424:	8b 4d ec             	mov    -0x14(%ebp),%ecx
    3427:	48                   	dec    %eax
    3428:	29 ce                	sub    %ecx,%esi
    342a:	89 45 d8             	mov    %eax,-0x28(%ebp)
    342d:	31 d2                	xor    %edx,%edx
    342f:	31 c0                	xor    %eax,%eax
    3431:	89 75 d0             	mov    %esi,-0x30(%ebp)
    3434:	8d 74 26 00          	lea    0x0(%esi,%eiz,1),%esi
    3438:	39 5d f0             	cmp    %ebx,-0x10(%ebp)
    343b:	0f 84 10 01 00 00    	je     3551 <usb_hid_translate_data+0x211>
    3441:	39 df                	cmp    %ebx,%edi
    3443:	0f 84 20 01 00 00    	je     3569 <usb_hid_translate_data+0x229>
    3449:	8b 4d 0c             	mov    0xc(%ebp),%ecx
    344c:	83 c2 08             	add    $0x8,%edx
    344f:	0f b6 71 01          	movzbl 0x1(%ecx),%esi
    3453:	88 d1                	mov    %dl,%cl
    3455:	81 e6 ff 00 00 00    	and    $0xff,%esi
    345b:	d3 e6                	shl    %cl,%esi
    345d:	01 f0                	add    %esi,%eax
    345f:	43                   	inc    %ebx
    3460:	39 df                	cmp    %ebx,%edi
    3462:	73 d4                	jae    3438 <usb_hid_translate_data+0xf8>
    3464:	8b 7d e4             	mov    -0x1c(%ebp),%edi
    3467:	85 ff                	test   %edi,%edi
    3469:	78 55                	js     34c0 <usb_hid_translate_data+0x180>
    346b:	8b 7d 08             	mov    0x8(%ebp),%edi
    346e:	8b 77 18             	mov    0x18(%edi),%esi
    3471:	85 f6                	test   %esi,%esi
    3473:	78 4b                	js     34c0 <usb_hid_translate_data+0x180>
    3475:	8b 4d e4             	mov    -0x1c(%ebp),%ecx
    3478:	8b 5d e8             	mov    -0x18(%ebp),%ebx
    347b:	29 c8                	sub    %ecx,%eax
    347d:	89 c2                	mov    %eax,%edx
    347f:	c1 fa 1f             	sar    $0x1f,%edx
    3482:	f7 7d e0             	idivl  -0x20(%ebp)
    3485:	01 d8                	add    %ebx,%eax
    3487:	83 c4 2c             	add    $0x2c,%esp
    348a:	5b                   	pop    %ebx
    348b:	5e                   	pop    %esi
    348c:	5f                   	pop    %edi
    348d:	5d                   	pop    %ebp
    348e:	c3                   	ret    
    348f:	90                   	nop
    3490:	8b 58 20             	mov    0x20(%eax),%ebx
    3493:	85 db                	test   %ebx,%ebx
    3495:	75 61                	jne    34f8 <usb_hid_translate_data+0x1b8>
    3497:	89 c2                	mov    %eax,%edx
    3499:	8b 40 14             	mov    0x14(%eax),%eax
    349c:	89 45 e8             	mov    %eax,-0x18(%ebp)
    349f:	89 45 e4             	mov    %eax,-0x1c(%ebp)
    34a2:	8b 5a 18             	mov    0x18(%edx),%ebx
    34a5:	89 42 1c             	mov    %eax,0x1c(%edx)
    34a8:	89 5a 20             	mov    %ebx,0x20(%edx)
    34ab:	3b 5d e8             	cmp    -0x18(%ebp),%ebx
    34ae:	0f 85 d4 fe ff ff    	jne    3388 <usb_hid_translate_data+0x48>
    34b4:	c7 45 e0 01 00 00 00 	movl   $0x1,-0x20(%ebp)
    34bb:	e9 0c ff ff ff       	jmp    33cc <usb_hid_translate_data+0x8c>
    34c0:	89 c2                	mov    %eax,%edx
    34c2:	8a 4d dc             	mov    -0x24(%ebp),%cl
    34c5:	d3 fa                	sar    %cl,%edx
    34c7:	83 e2 01             	and    $0x1,%edx
    34ca:	74 a9                	je     3475 <usb_hid_translate_data+0x135>
    34cc:	ba 01 00 00 00       	mov    $0x1,%edx
    34d1:	8a 4d ec             	mov    -0x14(%ebp),%cl
    34d4:	d3 e2                	shl    %cl,%edx
    34d6:	4a                   	dec    %edx
    34d7:	f7 d8                	neg    %eax
    34d9:	21 d0                	and    %edx,%eax
    34db:	f7 d8                	neg    %eax
    34dd:	eb 96                	jmp    3475 <usb_hid_translate_data+0x135>
    34df:	90                   	nop
    34e0:	4a                   	dec    %edx
    34e1:	8d 0c 89             	lea    (%ecx,%ecx,4),%ecx
    34e4:	01 c9                	add    %ecx,%ecx
    34e6:	85 d2                	test   %edx,%edx
    34e8:	0f 85 c0 fe ff ff    	jne    33ae <usb_hid_translate_data+0x6e>
    34ee:	ba 01 00 00 00       	mov    $0x1,%edx
    34f3:	e9 c4 fe ff ff       	jmp    33bc <usb_hid_translate_data+0x7c>
    34f8:	8b 40 14             	mov    0x14(%eax),%eax
    34fb:	89 45 e4             	mov    %eax,-0x1c(%ebp)
    34fe:	e9 85 fe ff ff       	jmp    3388 <usb_hid_translate_data+0x48>
    3503:	90                   	nop
    3504:	8d 74 26 00          	lea    0x0(%esi,%eiz,1),%esi
    3508:	c1 ea 1d             	shr    $0x1d,%edx
    350b:	8b 7d ec             	mov    -0x14(%ebp),%edi
    350e:	01 d0                	add    %edx,%eax
    3510:	bb 08 00 00 00       	mov    $0x8,%ebx
    3515:	83 e0 07             	and    $0x7,%eax
    3518:	29 fb                	sub    %edi,%ebx
    351a:	29 d0                	sub    %edx,%eax
    351c:	89 ce                	mov    %ecx,%esi
    351e:	29 c3                	sub    %eax,%ebx
    3520:	89 f9                	mov    %edi,%ecx
    3522:	b8 01 00 00 00       	mov    $0x1,%eax
    3527:	8b 7d 0c             	mov    0xc(%ebp),%edi
    352a:	d3 e0                	shl    %cl,%eax
    352c:	48                   	dec    %eax
    352d:	88 d9                	mov    %bl,%cl
    352f:	31 d2                	xor    %edx,%edx
    3531:	d3 e0                	shl    %cl,%eax
    3533:	8a 14 37             	mov    (%edi,%esi,1),%dl
    3536:	21 d0                	and    %edx,%eax
    3538:	d3 f8                	sar    %cl,%eax
    353a:	e9 25 ff ff ff       	jmp    3464 <usb_hid_translate_data+0x124>
    353f:	8b 55 e4             	mov    -0x1c(%ebp),%edx
    3542:	31 c0                	xor    %eax,%eax
    3544:	85 d2                	test   %edx,%edx
    3546:	0f 89 1f ff ff ff    	jns    346b <usb_hid_translate_data+0x12b>
    354c:	e9 24 ff ff ff       	jmp    3475 <usb_hid_translate_data+0x135>
    3551:	8b 55 0c             	mov    0xc(%ebp),%edx
    3554:	8b 75 f0             	mov    -0x10(%ebp),%esi
    3557:	31 c0                	xor    %eax,%eax
    3559:	8a 04 32             	mov    (%edx,%esi,1),%al
    355c:	8b 55 d8             	mov    -0x28(%ebp),%edx
    355f:	21 d0                	and    %edx,%eax
    3561:	8b 55 d4             	mov    -0x2c(%ebp),%edx
    3564:	e9 f6 fe ff ff       	jmp    345f <usb_hid_translate_data+0x11f>
    3569:	8b 75 d0             	mov    -0x30(%ebp),%esi
    356c:	8b 4d ec             	mov    -0x14(%ebp),%ecx
    356f:	01 d6                	add    %edx,%esi
    3571:	29 d1                	sub    %edx,%ecx
    3573:	89 75 cc             	mov    %esi,-0x34(%ebp)
    3576:	be 01 00 00 00       	mov    $0x1,%esi
    357b:	d3 e6                	shl    %cl,%esi
    357d:	4e                   	dec    %esi
    357e:	8a 4d cc             	mov    -0x34(%ebp),%cl
    3581:	d3 e6                	shl    %cl,%esi
    3583:	89 75 c8             	mov    %esi,-0x38(%ebp)
    3586:	8b 75 0c             	mov    0xc(%ebp),%esi
    3589:	31 c9                	xor    %ecx,%ecx
    358b:	8a 0c 3e             	mov    (%esi,%edi,1),%cl
    358e:	8b 75 c8             	mov    -0x38(%ebp),%esi
    3591:	21 ce                	and    %ecx,%esi
    3593:	8a 4d cc             	mov    -0x34(%ebp),%cl
    3596:	d3 fe                	sar    %cl,%esi
    3598:	88 d1                	mov    %dl,%cl
    359a:	d3 e6                	shl    %cl,%esi
    359c:	01 f0                	add    %esi,%eax
    359e:	e9 bc fe ff ff       	jmp    345f <usb_hid_translate_data+0x11f>
    35a3:	8d b6 00 00 00 00    	lea    0x0(%esi),%esi
    35a9:	8d bc 27 00 00 00 00 	lea    0x0(%edi,%eiz,1),%edi

000035b0 <usb_hid_parse_report>:
    35b0:	55                   	push   %ebp
    35b1:	89 e5                	mov    %esp,%ebp
    35b3:	57                   	push   %edi
    35b4:	56                   	push   %esi
    35b5:	53                   	push   %ebx
    35b6:	83 ec 4c             	sub    $0x4c,%esp
    35b9:	8b 45 08             	mov    0x8(%ebp),%eax
    35bc:	85 c0                	test   %eax,%eax
    35be:	0f 84 f0 02 00 00    	je     38b4 <usb_hid_parse_report+0x304>
    35c4:	8b 70 18             	mov    0x18(%eax),%esi
    35c7:	85 f6                	test   %esi,%esi
    35c9:	0f 84 dc 02 00 00    	je     38ab <usb_hid_parse_report+0x2fb>
    35cf:	8b 7d 0c             	mov    0xc(%ebp),%edi
    35d2:	31 c9                	xor    %ecx,%ecx
    35d4:	8a 17                	mov    (%edi),%dl
    35d6:	88 d1                	mov    %dl,%cl
    35d8:	8b 5d 14             	mov    0x14(%ebp),%ebx
    35db:	88 13                	mov    %dl,(%ebx)
    35dd:	53                   	push   %ebx
    35de:	6a 01                	push   $0x1
    35e0:	51                   	push   %ecx
    35e1:	50                   	push   %eax
    35e2:	e8 09 e6 ff ff       	call   1bf0 <usb_hid_report_find_description>
    35e7:	83 c4 10             	add    $0x10,%esp
    35ea:	85 c0                	test   %eax,%eax
    35ec:	0f 84 c2 02 00 00    	je     38b4 <usb_hid_parse_report+0x304>
    35f2:	8b 78 14             	mov    0x14(%eax),%edi
    35f5:	83 c0 10             	add    $0x10,%eax
    35f8:	89 45 e0             	mov    %eax,-0x20(%ebp)
    35fb:	39 c7                	cmp    %eax,%edi
    35fd:	8d 77 c0             	lea    -0x40(%edi),%esi
    3600:	0f 84 a4 01 00 00    	je     37aa <usb_hid_parse_report+0x1fa>
    3606:	66 90                	xchg   %ax,%ax
    3608:	8a 46 0c             	mov    0xc(%esi),%al
    360b:	a8 01                	test   $0x1,%al
    360d:	0f 85 88 01 00 00    	jne    379b <usb_hid_parse_report+0x1eb>
    3613:	a8 02                	test   $0x2,%al
    3615:	0f 85 9d 01 00 00    	jne    37b8 <usb_hid_parse_report+0x208>
    361b:	8b 46 04             	mov    0x4(%esi),%eax
    361e:	89 45 d8             	mov    %eax,-0x28(%ebp)
    3621:	83 f8 20             	cmp    $0x20,%eax
    3624:	8b 46 1c             	mov    0x1c(%esi),%eax
    3627:	89 45 dc             	mov    %eax,-0x24(%ebp)
    362a:	0f 87 a0 01 00 00    	ja     37d0 <usb_hid_parse_report+0x220>
    3630:	85 c0                	test   %eax,%eax
    3632:	0f 84 a0 01 00 00    	je     37d8 <usb_hid_parse_report+0x228>
    3638:	8b 46 14             	mov    0x14(%esi),%eax
    363b:	8b 5e 20             	mov    0x20(%esi),%ebx
    363e:	89 45 d4             	mov    %eax,-0x2c(%ebp)
    3641:	3b 5d dc             	cmp    -0x24(%ebp),%ebx
    3644:	0f 84 b4 01 00 00    	je     37fe <usb_hid_parse_report+0x24e>
    364a:	8b 55 d4             	mov    -0x2c(%ebp),%edx
    364d:	8b 4d dc             	mov    -0x24(%ebp),%ecx
    3650:	8b 46 18             	mov    0x18(%esi),%eax
    3653:	29 cb                	sub    %ecx,%ebx
    3655:	29 d0                	sub    %edx,%eax
    3657:	b9 01 00 00 00       	mov    $0x1,%ecx
    365c:	8b 56 30             	mov    0x30(%esi),%edx
    365f:	85 d2                	test   %edx,%edx
    3661:	0f 84 d1 01 00 00    	je     3838 <usb_hid_parse_report+0x288>
    3667:	83 fa 01             	cmp    $0x1,%edx
    366a:	0f 85 d8 01 00 00    	jne    3848 <usb_hid_parse_report+0x298>
    3670:	ba 0a 00 00 00       	mov    $0xa,%edx
    3675:	0f af ca             	imul   %edx,%ecx
    3678:	0f af d9             	imul   %ecx,%ebx
    367b:	89 c2                	mov    %eax,%edx
    367d:	c1 fa 1f             	sar    $0x1f,%edx
    3680:	f7 fb                	idiv   %ebx
    3682:	89 45 d0             	mov    %eax,-0x30(%ebp)
    3685:	8b 06                	mov    (%esi),%eax
    3687:	89 c2                	mov    %eax,%edx
    3689:	c1 fa 1f             	sar    $0x1f,%edx
    368c:	89 d1                	mov    %edx,%ecx
    368e:	89 55 cc             	mov    %edx,-0x34(%ebp)
    3691:	83 e1 07             	and    $0x7,%ecx
    3694:	01 c1                	add    %eax,%ecx
    3696:	c1 f9 03             	sar    $0x3,%ecx
    3699:	89 cb                	mov    %ecx,%ebx
    369b:	89 4d e4             	mov    %ecx,-0x1c(%ebp)
    369e:	8b 4d d8             	mov    -0x28(%ebp),%ecx
    36a1:	8d 51 ff             	lea    -0x1(%ecx),%edx
    36a4:	89 55 c4             	mov    %edx,-0x3c(%ebp)
    36a7:	8d 0c 10             	lea    (%eax,%edx,1),%ecx
    36aa:	c1 e9 03             	shr    $0x3,%ecx
    36ad:	89 ca                	mov    %ecx,%edx
    36af:	89 55 c8             	mov    %edx,-0x38(%ebp)
    36b2:	39 d3                	cmp    %edx,%ebx
    36b4:	0f 84 9e 01 00 00    	je     3858 <usb_hid_parse_report+0x2a8>
    36ba:	0f 87 d9 01 00 00    	ja     3899 <usb_hid_parse_report+0x2e9>
    36c0:	8b 55 cc             	mov    -0x34(%ebp),%edx
    36c3:	b9 08 00 00 00       	mov    $0x8,%ecx
    36c8:	c1 ea 1d             	shr    $0x1d,%edx
    36cb:	89 5d cc             	mov    %ebx,-0x34(%ebp)
    36ce:	01 d0                	add    %edx,%eax
    36d0:	bb 08 00 00 00       	mov    $0x8,%ebx
    36d5:	83 e0 07             	and    $0x7,%eax
    36d8:	89 7d c0             	mov    %edi,-0x40(%ebp)
    36db:	29 d0                	sub    %edx,%eax
    36dd:	8b 55 d8             	mov    -0x28(%ebp),%edx
    36e0:	29 c1                	sub    %eax,%ecx
    36e2:	29 d3                	sub    %edx,%ebx
    36e4:	89 c8                	mov    %ecx,%eax
    36e6:	89 4d b4             	mov    %ecx,-0x4c(%ebp)
    36e9:	89 d1                	mov    %edx,%ecx
    36eb:	89 5d b0             	mov    %ebx,-0x50(%ebp)
    36ee:	29 c1                	sub    %eax,%ecx
    36f0:	b8 01 00 00 00       	mov    $0x1,%eax
    36f5:	d3 e0                	shl    %cl,%eax
    36f7:	48                   	dec    %eax
    36f8:	89 75 bc             	mov    %esi,-0x44(%ebp)
    36fb:	89 45 b8             	mov    %eax,-0x48(%ebp)
    36fe:	8b 7d c8             	mov    -0x38(%ebp),%edi
    3701:	31 c0                	xor    %eax,%eax
    3703:	8b 5d cc             	mov    -0x34(%ebp),%ebx
    3706:	31 f6                	xor    %esi,%esi
    3708:	39 5d e4             	cmp    %ebx,-0x1c(%ebp)
    370b:	0f 84 e7 01 00 00    	je     38f8 <usb_hid_parse_report+0x348>
    3711:	39 df                	cmp    %ebx,%edi
    3713:	0f 84 a5 01 00 00    	je     38be <usb_hid_parse_report+0x30e>
    3719:	8b 4d 0c             	mov    0xc(%ebp),%ecx
    371c:	83 c6 08             	add    $0x8,%esi
    371f:	31 d2                	xor    %edx,%edx
    3721:	8a 51 01             	mov    0x1(%ecx),%dl
    3724:	89 f1                	mov    %esi,%ecx
    3726:	d3 e2                	shl    %cl,%edx
    3728:	01 d0                	add    %edx,%eax
    372a:	43                   	inc    %ebx
    372b:	39 df                	cmp    %ebx,%edi
    372d:	73 d9                	jae    3708 <usb_hid_parse_report+0x158>
    372f:	8b 7d c0             	mov    -0x40(%ebp),%edi
    3732:	8b 75 bc             	mov    -0x44(%ebp),%esi
    3735:	8b 55 d4             	mov    -0x2c(%ebp),%edx
    3738:	85 d2                	test   %edx,%edx
    373a:	0f 88 d0 00 00 00    	js     3810 <usb_hid_parse_report+0x260>
    3740:	8b 5e 18             	mov    0x18(%esi),%ebx
    3743:	85 db                	test   %ebx,%ebx
    3745:	0f 88 c5 00 00 00    	js     3810 <usb_hid_parse_report+0x260>
    374b:	8b 55 d4             	mov    -0x2c(%ebp),%edx
    374e:	8b 4d dc             	mov    -0x24(%ebp),%ecx
    3751:	29 d0                	sub    %edx,%eax
    3753:	89 c2                	mov    %eax,%edx
    3755:	c1 fa 1f             	sar    $0x1f,%edx
    3758:	f7 7d d0             	idivl  -0x30(%ebp)
    375b:	01 c8                	add    %ecx,%eax
    375d:	8b 55 dc             	mov    -0x24(%ebp),%edx
    3760:	89 46 3c             	mov    %eax,0x3c(%esi)
    3763:	29 d0                	sub    %edx,%eax
    3765:	8b 56 34             	mov    0x34(%esi),%edx
    3768:	8b 04 82             	mov    (%edx,%eax,4),%eax
    376b:	66 89 46 0a          	mov    %ax,0xa(%esi)
    376f:	c1 e8 10             	shr    $0x10,%eax
    3772:	66 89 46 08          	mov    %ax,0x8(%esi)
    3776:	51                   	push   %ecx
    3777:	8b 5e 10             	mov    0x10(%esi),%ebx
    377a:	50                   	push   %eax
    377b:	6a 01                	push   $0x1
    377d:	53                   	push   %ebx
    377e:	e8 8d 09 00 00       	call   4110 <usb_hid_report_set_last_item>
    3783:	83 c4 0c             	add    $0xc,%esp
    3786:	31 c0                	xor    %eax,%eax
    3788:	66 8b 46 0a          	mov    0xa(%esi),%ax
    378c:	8b 76 10             	mov    0x10(%esi),%esi
    378f:	50                   	push   %eax
    3790:	6a 02                	push   $0x2
    3792:	56                   	push   %esi
    3793:	e8 78 09 00 00       	call   4110 <usb_hid_report_set_last_item>
    3798:	83 c4 10             	add    $0x10,%esp
    379b:	8b 7f 04             	mov    0x4(%edi),%edi
    379e:	3b 7d e0             	cmp    -0x20(%ebp),%edi
    37a1:	8d 77 c0             	lea    -0x40(%edi),%esi
    37a4:	0f 85 5e fe ff ff    	jne    3608 <usb_hid_parse_report+0x58>
    37aa:	31 c0                	xor    %eax,%eax
    37ac:	8d 65 f4             	lea    -0xc(%ebp),%esp
    37af:	5b                   	pop    %ebx
    37b0:	5e                   	pop    %esi
    37b1:	5f                   	pop    %edi
    37b2:	5d                   	pop    %ebp
    37b3:	c3                   	ret    
    37b4:	8d 74 26 00          	lea    0x0(%esi,%eiz,1),%esi
    37b8:	8b 5d 0c             	mov    0xc(%ebp),%ebx
    37bb:	51                   	push   %ecx
    37bc:	51                   	push   %ecx
    37bd:	53                   	push   %ebx
    37be:	56                   	push   %esi
    37bf:	e8 7c fb ff ff       	call   3340 <usb_hid_translate_data>
    37c4:	83 c4 10             	add    $0x10,%esp
    37c7:	89 46 3c             	mov    %eax,0x3c(%esi)
    37ca:	eb cf                	jmp    379b <usb_hid_parse_report+0x1eb>
    37cc:	8d 74 26 00          	lea    0x0(%esi,%eiz,1),%esi
    37d0:	31 c0                	xor    %eax,%eax
    37d2:	eb 89                	jmp    375d <usb_hid_parse_report+0x1ad>
    37d4:	8d 74 26 00          	lea    0x0(%esi,%eiz,1),%esi
    37d8:	8b 5e 20             	mov    0x20(%esi),%ebx
    37db:	8b 46 14             	mov    0x14(%esi),%eax
    37de:	89 45 d4             	mov    %eax,-0x2c(%ebp)
    37e1:	85 db                	test   %ebx,%ebx
    37e3:	0f 85 61 fe ff ff    	jne    364a <usb_hid_parse_report+0x9a>
    37e9:	8b 5e 18             	mov    0x18(%esi),%ebx
    37ec:	89 45 dc             	mov    %eax,-0x24(%ebp)
    37ef:	89 46 1c             	mov    %eax,0x1c(%esi)
    37f2:	89 5e 20             	mov    %ebx,0x20(%esi)
    37f5:	3b 5d dc             	cmp    -0x24(%ebp),%ebx
    37f8:	0f 85 4c fe ff ff    	jne    364a <usb_hid_parse_report+0x9a>
    37fe:	c7 45 d0 01 00 00 00 	movl   $0x1,-0x30(%ebp)
    3805:	e9 7b fe ff ff       	jmp    3685 <usb_hid_parse_report+0xd5>
    380a:	8d b6 00 00 00 00    	lea    0x0(%esi),%esi
    3810:	89 c2                	mov    %eax,%edx
    3812:	8a 4d c4             	mov    -0x3c(%ebp),%cl
    3815:	d3 fa                	sar    %cl,%edx
    3817:	83 e2 01             	and    $0x1,%edx
    381a:	0f 84 2b ff ff ff    	je     374b <usb_hid_parse_report+0x19b>
    3820:	ba 01 00 00 00       	mov    $0x1,%edx
    3825:	8a 4d d8             	mov    -0x28(%ebp),%cl
    3828:	d3 e2                	shl    %cl,%edx
    382a:	4a                   	dec    %edx
    382b:	f7 d8                	neg    %eax
    382d:	21 d0                	and    %edx,%eax
    382f:	f7 d8                	neg    %eax
    3831:	e9 15 ff ff ff       	jmp    374b <usb_hid_parse_report+0x19b>
    3836:	66 90                	xchg   %ax,%ax
    3838:	ba 01 00 00 00       	mov    $0x1,%edx
    383d:	e9 33 fe ff ff       	jmp    3675 <usb_hid_parse_report+0xc5>
    3842:	8d b6 00 00 00 00    	lea    0x0(%esi),%esi
    3848:	8d 0c 89             	lea    (%ecx,%ecx,4),%ecx
    384b:	4a                   	dec    %edx
    384c:	01 c9                	add    %ecx,%ecx
    384e:	e9 0c fe ff ff       	jmp    365f <usb_hid_parse_report+0xaf>
    3853:	90                   	nop
    3854:	8d 74 26 00          	lea    0x0(%esi,%eiz,1),%esi
    3858:	8b 55 cc             	mov    -0x34(%ebp),%edx
    385b:	8b 4d d8             	mov    -0x28(%ebp),%ecx
    385e:	c1 ea 1d             	shr    $0x1d,%edx
    3861:	bb 08 00 00 00       	mov    $0x8,%ebx
    3866:	01 d0                	add    %edx,%eax
    3868:	29 cb                	sub    %ecx,%ebx
    386a:	83 e0 07             	and    $0x7,%eax
    386d:	29 d0                	sub    %edx,%eax
    386f:	31 d2                	xor    %edx,%edx
    3871:	29 c3                	sub    %eax,%ebx
    3873:	b8 01 00 00 00       	mov    $0x1,%eax
    3878:	d3 e0                	shl    %cl,%eax
    387a:	48                   	dec    %eax
    387b:	88 d9                	mov    %bl,%cl
    387d:	d3 e0                	shl    %cl,%eax
    387f:	89 45 cc             	mov    %eax,-0x34(%ebp)
    3882:	8b 4d 0c             	mov    0xc(%ebp),%ecx
    3885:	8b 45 e4             	mov    -0x1c(%ebp),%eax
    3888:	8a 14 01             	mov    (%ecx,%eax,1),%dl
    388b:	8b 45 cc             	mov    -0x34(%ebp),%eax
    388e:	21 d0                	and    %edx,%eax
    3890:	88 d9                	mov    %bl,%cl
    3892:	d3 f8                	sar    %cl,%eax
    3894:	e9 9c fe ff ff       	jmp    3735 <usb_hid_parse_report+0x185>
    3899:	8b 55 d4             	mov    -0x2c(%ebp),%edx
    389c:	31 c0                	xor    %eax,%eax
    389e:	85 d2                	test   %edx,%edx
    38a0:	0f 89 9a fe ff ff    	jns    3740 <usb_hid_parse_report+0x190>
    38a6:	e9 a0 fe ff ff       	jmp    374b <usb_hid_parse_report+0x19b>
    38ab:	31 c9                	xor    %ecx,%ecx
    38ad:	31 d2                	xor    %edx,%edx
    38af:	e9 24 fd ff ff       	jmp    35d8 <usb_hid_parse_report+0x28>
    38b4:	b8 f2 ff ff ff       	mov    $0xfffffff2,%eax
    38b9:	e9 ee fe ff ff       	jmp    37ac <usb_hid_parse_report+0x1fc>
    38be:	8b 55 b0             	mov    -0x50(%ebp),%edx
    38c1:	8b 4d d8             	mov    -0x28(%ebp),%ecx
    38c4:	01 f2                	add    %esi,%edx
    38c6:	29 f1                	sub    %esi,%ecx
    38c8:	89 55 cc             	mov    %edx,-0x34(%ebp)
    38cb:	ba 01 00 00 00       	mov    $0x1,%edx
    38d0:	d3 e2                	shl    %cl,%edx
    38d2:	4a                   	dec    %edx
    38d3:	8a 4d cc             	mov    -0x34(%ebp),%cl
    38d6:	d3 e2                	shl    %cl,%edx
    38d8:	8b 4d 0c             	mov    0xc(%ebp),%ecx
    38db:	89 55 c8             	mov    %edx,-0x38(%ebp)
    38de:	31 d2                	xor    %edx,%edx
    38e0:	8a 14 39             	mov    (%ecx,%edi,1),%dl
    38e3:	8b 4d c8             	mov    -0x38(%ebp),%ecx
    38e6:	21 ca                	and    %ecx,%edx
    38e8:	8a 4d cc             	mov    -0x34(%ebp),%cl
    38eb:	d3 fa                	sar    %cl,%edx
    38ed:	89 f1                	mov    %esi,%ecx
    38ef:	d3 e2                	shl    %cl,%edx
    38f1:	01 d0                	add    %edx,%eax
    38f3:	e9 32 fe ff ff       	jmp    372a <usb_hid_parse_report+0x17a>
    38f8:	8b 75 0c             	mov    0xc(%ebp),%esi
    38fb:	8b 55 e4             	mov    -0x1c(%ebp),%edx
    38fe:	31 c0                	xor    %eax,%eax
    3900:	8a 04 16             	mov    (%esi,%edx,1),%al
    3903:	8b 75 b8             	mov    -0x48(%ebp),%esi
    3906:	21 f0                	and    %esi,%eax
    3908:	8b 75 b4             	mov    -0x4c(%ebp),%esi
    390b:	e9 1a fe ff ff       	jmp    372a <usb_hid_parse_report+0x17a>

00003910 <usb_hid_report_output>:
    3910:	55                   	push   %ebp
    3911:	89 e5                	mov    %esp,%ebp
    3913:	57                   	push   %edi
    3914:	56                   	push   %esi
    3915:	53                   	push   %ebx
    3916:	83 ec 0c             	sub    $0xc,%esp
    3919:	8b 4d 08             	mov    0x8(%ebp),%ecx
    391c:	8b 7d 0c             	mov    0xc(%ebp),%edi
    391f:	8a 5d 10             	mov    0x10(%ebp),%bl
    3922:	85 c9                	test   %ecx,%ecx
    3924:	74 5a                	je     3980 <usb_hid_report_output+0x70>
    3926:	8b 41 08             	mov    0x8(%ecx),%eax
    3929:	83 c1 04             	add    $0x4,%ecx
    392c:	39 c8                	cmp    %ecx,%eax
    392e:	8d 50 e8             	lea    -0x18(%eax),%edx
    3931:	75 0f                	jne    3942 <usb_hid_report_output+0x32>
    3933:	eb 4b                	jmp    3980 <usb_hid_report_output+0x70>
    3935:	8d 76 00             	lea    0x0(%esi),%esi
    3938:	8b 40 04             	mov    0x4(%eax),%eax
    393b:	39 c8                	cmp    %ecx,%eax
    393d:	8d 50 e8             	lea    -0x18(%eax),%edx
    3940:	74 3e                	je     3980 <usb_hid_report_output+0x70>
    3942:	38 1a                	cmp    %bl,(%edx)
    3944:	75 f2                	jne    3938 <usb_hid_report_output+0x28>
    3946:	83 7a 04 02          	cmpl   $0x2,0x4(%edx)
    394a:	75 ec                	jne    3938 <usb_hid_report_output+0x28>
    394c:	8b 42 08             	mov    0x8(%edx),%eax
    394f:	83 ec 0c             	sub    $0xc,%esp
    3952:	83 c0 07             	add    $0x7,%eax
    3955:	c1 e8 03             	shr    $0x3,%eax
    3958:	89 07                	mov    %eax,(%edi)
    395a:	50                   	push   %eax
    395b:	e8 10 3c 00 00       	call   7570 <malloc@plt>
    3960:	83 c4 0c             	add    $0xc,%esp
    3963:	89 c6                	mov    %eax,%esi
    3965:	8b 07                	mov    (%edi),%eax
    3967:	50                   	push   %eax
    3968:	6a 00                	push   $0x0
    396a:	56                   	push   %esi
    396b:	e8 b0 3c 00 00       	call   7620 <memset@plt>
    3970:	83 c4 10             	add    $0x10,%esp
    3973:	8d 65 f4             	lea    -0xc(%ebp),%esp
    3976:	89 f0                	mov    %esi,%eax
    3978:	5b                   	pop    %ebx
    3979:	5e                   	pop    %esi
    397a:	5f                   	pop    %edi
    397b:	5d                   	pop    %ebp
    397c:	c3                   	ret    
    397d:	8d 76 00             	lea    0x0(%esi),%esi
    3980:	c7 07 00 00 00 00    	movl   $0x0,(%edi)
    3986:	31 f6                	xor    %esi,%esi
    3988:	eb e9                	jmp    3973 <usb_hid_report_output+0x63>
    398a:	8d b6 00 00 00 00    	lea    0x0(%esi),%esi

00003990 <usb_hid_report_output_free>:
    3990:	55                   	push   %ebp
    3991:	89 e5                	mov    %esp,%ebp
    3993:	8b 45 08             	mov    0x8(%ebp),%eax
    3996:	85 c0                	test   %eax,%eax
    3998:	74 06                	je     39a0 <usb_hid_report_output_free+0x10>
    399a:	5d                   	pop    %ebp
    399b:	e9 60 3d 00 00       	jmp    7700 <free@plt>
    39a0:	5d                   	pop    %ebp
    39a1:	c3                   	ret    
    39a2:	8d b4 26 00 00 00 00 	lea    0x0(%esi,%eiz,1),%esi
    39a9:	8d bc 27 00 00 00 00 	lea    0x0(%edi,%eiz,1),%edi

000039b0 <usb_hid_report_output_translate>:
    39b0:	55                   	push   %ebp
    39b1:	89 e5                	mov    %esp,%ebp
    39b3:	57                   	push   %edi
    39b4:	56                   	push   %esi
    39b5:	53                   	push   %ebx
    39b6:	83 ec 3c             	sub    $0x3c,%esp
    39b9:	8b 55 08             	mov    0x8(%ebp),%edx
    39bc:	8b 45 0c             	mov    0xc(%ebp),%eax
    39bf:	85 d2                	test   %edx,%edx
    39c1:	0f 84 10 03 00 00    	je     3cd7 <usb_hid_report_output_translate+0x327>
    39c7:	8b 5a 18             	mov    0x18(%edx),%ebx
    39ca:	85 db                	test   %ebx,%ebx
    39cc:	74 05                	je     39d3 <usb_hid_report_output_translate+0x23>
    39ce:	8b 75 10             	mov    0x10(%ebp),%esi
    39d1:	88 06                	mov    %al,(%esi)
    39d3:	25 ff 00 00 00       	and    $0xff,%eax
    39d8:	51                   	push   %ecx
    39d9:	6a 02                	push   $0x2
    39db:	50                   	push   %eax
    39dc:	52                   	push   %edx
    39dd:	e8 0e e2 ff ff       	call   1bf0 <usb_hid_report_find_description>
    39e2:	83 c4 10             	add    $0x10,%esp
    39e5:	89 45 cc             	mov    %eax,-0x34(%ebp)
    39e8:	85 c0                	test   %eax,%eax
    39ea:	0f 84 e7 02 00 00    	je     3cd7 <usb_hid_report_output_translate+0x327>
    39f0:	8b 70 14             	mov    0x14(%eax),%esi
    39f3:	83 c0 10             	add    $0x10,%eax
    39f6:	89 75 d0             	mov    %esi,-0x30(%ebp)
    39f9:	89 45 c8             	mov    %eax,-0x38(%ebp)
    39fc:	8d 7e c0             	lea    -0x40(%esi),%edi
    39ff:	39 c6                	cmp    %eax,%esi
    3a01:	0f 84 b2 01 00 00    	je     3bb9 <usb_hid_report_output_translate+0x209>
    3a07:	89 7d dc             	mov    %edi,-0x24(%ebp)
    3a0a:	8d b6 00 00 00 00    	lea    0x0(%esi),%esi
    3a10:	8b 45 dc             	mov    -0x24(%ebp),%eax
    3a13:	8b 48 1c             	mov    0x1c(%eax),%ecx
    3a16:	8b 78 3c             	mov    0x3c(%eax),%edi
    3a19:	85 c9                	test   %ecx,%ecx
    3a1b:	0f 84 a7 01 00 00    	je     3bc8 <usb_hid_report_output_translate+0x218>
    3a21:	8b 58 20             	mov    0x20(%eax),%ebx
    3a24:	8b 70 14             	mov    0x14(%eax),%esi
    3a27:	39 cb                	cmp    %ecx,%ebx
    3a29:	0f 84 ba 01 00 00    	je     3be9 <usb_hid_report_output_translate+0x239>
    3a2f:	8b 55 dc             	mov    -0x24(%ebp),%edx
    3a32:	29 cb                	sub    %ecx,%ebx
    3a34:	89 5d e4             	mov    %ebx,-0x1c(%ebp)
    3a37:	bb 01 00 00 00       	mov    $0x1,%ebx
    3a3c:	8b 42 18             	mov    0x18(%edx),%eax
    3a3f:	8b 52 30             	mov    0x30(%edx),%edx
    3a42:	29 f0                	sub    %esi,%eax
    3a44:	85 d2                	test   %edx,%edx
    3a46:	0f 84 d2 01 00 00    	je     3c1e <usb_hid_report_output_translate+0x26e>
    3a4c:	83 fa 01             	cmp    $0x1,%edx
    3a4f:	0f 85 bb 01 00 00    	jne    3c10 <usb_hid_report_output_translate+0x260>
    3a55:	ba 0a 00 00 00       	mov    $0xa,%edx
    3a5a:	0f af da             	imul   %edx,%ebx
    3a5d:	8b 55 e4             	mov    -0x1c(%ebp),%edx
    3a60:	0f af da             	imul   %edx,%ebx
    3a63:	89 c2                	mov    %eax,%edx
    3a65:	c1 fa 1f             	sar    $0x1f,%edx
    3a68:	f7 fb                	idiv   %ebx
    3a6a:	89 fb                	mov    %edi,%ebx
    3a6c:	29 cb                	sub    %ecx,%ebx
    3a6e:	0f af d8             	imul   %eax,%ebx
    3a71:	01 f3                	add    %esi,%ebx
    3a73:	53                   	push   %ebx
    3a74:	56                   	push   %esi
    3a75:	51                   	push   %ecx
    3a76:	50                   	push   %eax
    3a77:	57                   	push   %edi
    3a78:	68 98 52 00 00       	push   $0x5298
    3a7d:	6a 04                	push   $0x4
    3a7f:	6a ff                	push   $0xffffffff
    3a81:	e8 4a 3b 00 00       	call   75d0 <log_msg@plt>
    3a86:	8b 45 dc             	mov    -0x24(%ebp),%eax
    3a89:	8b 70 14             	mov    0x14(%eax),%esi
    3a8c:	83 c4 20             	add    $0x20,%esp
    3a8f:	85 f6                	test   %esi,%esi
    3a91:	0f 88 61 01 00 00    	js     3bf8 <usb_hid_report_output_translate+0x248>
    3a97:	8b 48 18             	mov    0x18(%eax),%ecx
    3a9a:	85 c9                	test   %ecx,%ecx
    3a9c:	0f 88 56 01 00 00    	js     3bf8 <usb_hid_report_output_translate+0x248>
    3aa2:	8b 40 04             	mov    0x4(%eax),%eax
    3aa5:	89 5d d8             	mov    %ebx,-0x28(%ebp)
    3aa8:	89 45 e0             	mov    %eax,-0x20(%ebp)
    3aab:	89 d8                	mov    %ebx,%eax
    3aad:	8b 75 cc             	mov    -0x34(%ebp),%esi
    3ab0:	89 45 e4             	mov    %eax,-0x1c(%ebp)
    3ab3:	8b 76 08             	mov    0x8(%esi),%esi
    3ab6:	89 75 d4             	mov    %esi,-0x2c(%ebp)
    3ab9:	8d 7e ff             	lea    -0x1(%esi),%edi
    3abc:	8b 75 dc             	mov    -0x24(%ebp),%esi
    3abf:	8b 16                	mov    (%esi),%edx
    3ac1:	50                   	push   %eax
    3ac2:	29 d7                	sub    %edx,%edi
    3ac4:	68 d4 52 00 00       	push   $0x52d4
    3ac9:	6a 04                	push   $0x4
    3acb:	6a ff                	push   $0xffffffff
    3acd:	e8 fe 3a 00 00       	call   75d0 <log_msg@plt>
    3ad2:	89 f8                	mov    %edi,%eax
    3ad4:	c1 f8 1f             	sar    $0x1f,%eax
    3ad7:	83 c4 10             	add    $0x10,%esp
    3ada:	89 c6                	mov    %eax,%esi
    3adc:	89 45 d4             	mov    %eax,-0x2c(%ebp)
    3adf:	8b 45 e0             	mov    -0x20(%ebp),%eax
    3ae2:	83 e6 07             	and    $0x7,%esi
    3ae5:	01 f8                	add    %edi,%eax
    3ae7:	01 fe                	add    %edi,%esi
    3ae9:	c1 fe 03             	sar    $0x3,%esi
    3aec:	8d 50 ff             	lea    -0x1(%eax),%edx
    3aef:	89 d3                	mov    %edx,%ebx
    3af1:	c1 fb 1f             	sar    $0x1f,%ebx
    3af4:	83 e3 07             	and    $0x7,%ebx
    3af7:	01 d3                	add    %edx,%ebx
    3af9:	c1 fb 03             	sar    $0x3,%ebx
    3afc:	39 de                	cmp    %ebx,%esi
    3afe:	0f 84 24 01 00 00    	je     3c28 <usb_hid_report_output_translate+0x278>
    3b04:	0f 8f 8d 00 00 00    	jg     3b97 <usb_hid_report_output_translate+0x1e7>
    3b0a:	89 c2                	mov    %eax,%edx
    3b0c:	c1 fa 1f             	sar    $0x1f,%edx
    3b0f:	c1 ea 1d             	shr    $0x1d,%edx
    3b12:	01 d0                	add    %edx,%eax
    3b14:	83 e0 07             	and    $0x7,%eax
    3b17:	29 d0                	sub    %edx,%eax
    3b19:	8b 55 e0             	mov    -0x20(%ebp),%edx
    3b1c:	29 c2                	sub    %eax,%edx
    3b1e:	b8 01 00 00 00       	mov    $0x1,%eax
    3b23:	89 d1                	mov    %edx,%ecx
    3b25:	89 55 c4             	mov    %edx,-0x3c(%ebp)
    3b28:	89 c2                	mov    %eax,%edx
    3b2a:	89 5d e0             	mov    %ebx,-0x20(%ebp)
    3b2d:	d3 e2                	shl    %cl,%edx
    3b2f:	8d 4a ff             	lea    -0x1(%edx),%ecx
    3b32:	4a                   	dec    %edx
    3b33:	88 55 bf             	mov    %dl,-0x41(%ebp)
    3b36:	8b 55 d4             	mov    -0x2c(%ebp),%edx
    3b39:	c1 ea 1d             	shr    $0x1d,%edx
    3b3c:	89 4d c0             	mov    %ecx,-0x40(%ebp)
    3b3f:	01 d7                	add    %edx,%edi
    3b41:	b9 08 00 00 00       	mov    $0x8,%ecx
    3b46:	83 e7 07             	and    $0x7,%edi
    3b49:	29 d7                	sub    %edx,%edi
    3b4b:	8b 55 10             	mov    0x10(%ebp),%edx
    3b4e:	29 f9                	sub    %edi,%ecx
    3b50:	89 7d b8             	mov    %edi,-0x48(%ebp)
    3b53:	d3 e0                	shl    %cl,%eax
    3b55:	48                   	dec    %eax
    3b56:	89 f9                	mov    %edi,%ecx
    3b58:	89 45 d8             	mov    %eax,-0x28(%ebp)
    3b5b:	01 f2                	add    %esi,%edx
    3b5d:	d3 e0                	shl    %cl,%eax
    3b5f:	83 f0 ff             	xor    $0xffffffff,%eax
    3b62:	8d 7b 01             	lea    0x1(%ebx),%edi
    3b65:	88 45 d4             	mov    %al,-0x2c(%ebp)
    3b68:	89 f0                	mov    %esi,%eax
    3b6a:	8d b6 00 00 00 00    	lea    0x0(%esi),%esi
    3b70:	39 c6                	cmp    %eax,%esi
    3b72:	0f 84 3e 01 00 00    	je     3cb6 <usb_hid_report_output_translate+0x306>
    3b78:	39 45 e0             	cmp    %eax,-0x20(%ebp)
    3b7b:	0f 84 15 01 00 00    	je     3c96 <usb_hid_report_output_translate+0x2e6>
    3b81:	88 c1                	mov    %al,%cl
    3b83:	bb ff 00 00 00       	mov    $0xff,%ebx
    3b88:	d3 e3                	shl    %cl,%ebx
    3b8a:	8b 4d e4             	mov    -0x1c(%ebp),%ecx
    3b8d:	21 d9                	and    %ebx,%ecx
    3b8f:	88 0a                	mov    %cl,(%edx)
    3b91:	40                   	inc    %eax
    3b92:	42                   	inc    %edx
    3b93:	39 f8                	cmp    %edi,%eax
    3b95:	75 d9                	jne    3b70 <usb_hid_report_output_translate+0x1c0>
    3b97:	8b 45 dc             	mov    -0x24(%ebp),%eax
    3b9a:	c7 40 3c 00 00 00 00 	movl   $0x0,0x3c(%eax)
    3ba1:	8b 45 d0             	mov    -0x30(%ebp),%eax
    3ba4:	8b 40 04             	mov    0x4(%eax),%eax
    3ba7:	89 45 d0             	mov    %eax,-0x30(%ebp)
    3baa:	3b 45 c8             	cmp    -0x38(%ebp),%eax
    3bad:	8d 78 c0             	lea    -0x40(%eax),%edi
    3bb0:	89 7d dc             	mov    %edi,-0x24(%ebp)
    3bb3:	0f 85 57 fe ff ff    	jne    3a10 <usb_hid_report_output_translate+0x60>
    3bb9:	8d 65 f4             	lea    -0xc(%ebp),%esp
    3bbc:	31 c0                	xor    %eax,%eax
    3bbe:	5b                   	pop    %ebx
    3bbf:	5e                   	pop    %esi
    3bc0:	5f                   	pop    %edi
    3bc1:	5d                   	pop    %ebp
    3bc2:	c3                   	ret    
    3bc3:	90                   	nop
    3bc4:	8d 74 26 00          	lea    0x0(%esi,%eiz,1),%esi
    3bc8:	8b 58 20             	mov    0x20(%eax),%ebx
    3bcb:	8b 70 14             	mov    0x14(%eax),%esi
    3bce:	85 db                	test   %ebx,%ebx
    3bd0:	0f 85 59 fe ff ff    	jne    3a2f <usb_hid_report_output_translate+0x7f>
    3bd6:	8b 58 18             	mov    0x18(%eax),%ebx
    3bd9:	89 f1                	mov    %esi,%ecx
    3bdb:	89 70 1c             	mov    %esi,0x1c(%eax)
    3bde:	89 58 20             	mov    %ebx,0x20(%eax)
    3be1:	39 cb                	cmp    %ecx,%ebx
    3be3:	0f 85 46 fe ff ff    	jne    3a2f <usb_hid_report_output_translate+0x7f>
    3be9:	b8 01 00 00 00       	mov    $0x1,%eax
    3bee:	e9 77 fe ff ff       	jmp    3a6a <usb_hid_report_output_translate+0xba>
    3bf3:	90                   	nop
    3bf4:	8d 74 26 00          	lea    0x0(%esi,%eiz,1),%esi
    3bf8:	85 db                	test   %ebx,%ebx
    3bfa:	78 7c                	js     3c78 <usb_hid_report_output_translate+0x2c8>
    3bfc:	8b 45 dc             	mov    -0x24(%ebp),%eax
    3bff:	89 5d d8             	mov    %ebx,-0x28(%ebp)
    3c02:	8b 40 04             	mov    0x4(%eax),%eax
    3c05:	89 45 e0             	mov    %eax,-0x20(%ebp)
    3c08:	89 d8                	mov    %ebx,%eax
    3c0a:	e9 9e fe ff ff       	jmp    3aad <usb_hid_report_output_translate+0xfd>
    3c0f:	90                   	nop
    3c10:	4a                   	dec    %edx
    3c11:	8d 1c 9b             	lea    (%ebx,%ebx,4),%ebx
    3c14:	01 db                	add    %ebx,%ebx
    3c16:	85 d2                	test   %edx,%edx
    3c18:	0f 85 2e fe ff ff    	jne    3a4c <usb_hid_report_output_translate+0x9c>
    3c1e:	ba 01 00 00 00       	mov    $0x1,%edx
    3c23:	e9 32 fe ff ff       	jmp    3a5a <usb_hid_report_output_translate+0xaa>
    3c28:	3b 75 14             	cmp    0x14(%ebp),%esi
    3c2b:	73 8c                	jae    3bb9 <usb_hid_report_output_translate+0x209>
    3c2d:	c1 ea 03             	shr    $0x3,%edx
    3c30:	39 55 14             	cmp    %edx,0x14(%ebp)
    3c33:	76 84                	jbe    3bb9 <usb_hid_report_output_translate+0x209>
    3c35:	8b 55 d4             	mov    -0x2c(%ebp),%edx
    3c38:	8b 5d d8             	mov    -0x28(%ebp),%ebx
    3c3b:	c1 ea 1d             	shr    $0x1d,%edx
    3c3e:	01 d7                	add    %edx,%edi
    3c40:	83 e7 07             	and    $0x7,%edi
    3c43:	29 fa                	sub    %edi,%edx
    3c45:	8b 7d e0             	mov    -0x20(%ebp),%edi
    3c48:	8d 42 08             	lea    0x8(%edx),%eax
    3c4b:	ba 01 00 00 00       	mov    $0x1,%edx
    3c50:	29 f8                	sub    %edi,%eax
    3c52:	88 c1                	mov    %al,%cl
    3c54:	d3 e3                	shl    %cl,%ebx
    3c56:	89 f9                	mov    %edi,%ecx
    3c58:	8b 7d 10             	mov    0x10(%ebp),%edi
    3c5b:	d3 e2                	shl    %cl,%edx
    3c5d:	4a                   	dec    %edx
    3c5e:	88 c1                	mov    %al,%cl
    3c60:	d3 e2                	shl    %cl,%edx
    3c62:	01 fe                	add    %edi,%esi
    3c64:	88 d0                	mov    %dl,%al
    3c66:	83 f0 ff             	xor    $0xffffffff,%eax
    3c69:	21 da                	and    %ebx,%edx
    3c6b:	22 06                	and    (%esi),%al
    3c6d:	09 d0                	or     %edx,%eax
    3c6f:	88 06                	mov    %al,(%esi)
    3c71:	e9 21 ff ff ff       	jmp    3b97 <usb_hid_report_output_translate+0x1e7>
    3c76:	66 90                	xchg   %ax,%ax
    3c78:	8b 45 dc             	mov    -0x24(%ebp),%eax
    3c7b:	8b 40 04             	mov    0x4(%eax),%eax
    3c7e:	89 c6                	mov    %eax,%esi
    3c80:	89 45 e0             	mov    %eax,-0x20(%ebp)
    3c83:	89 f1                	mov    %esi,%ecx
    3c85:	b8 01 00 00 00       	mov    $0x1,%eax
    3c8a:	d3 e0                	shl    %cl,%eax
    3c8c:	01 d8                	add    %ebx,%eax
    3c8e:	89 45 d8             	mov    %eax,-0x28(%ebp)
    3c91:	e9 17 fe ff ff       	jmp    3aad <usb_hid_report_output_translate+0xfd>
    3c96:	8b 5d e4             	mov    -0x1c(%ebp),%ebx
    3c99:	8a 4d c4             	mov    -0x3c(%ebp),%cl
    3c9c:	d3 fb                	sar    %cl,%ebx
    3c9e:	8b 4d c0             	mov    -0x40(%ebp),%ecx
    3ca1:	21 d9                	and    %ebx,%ecx
    3ca3:	89 cb                	mov    %ecx,%ebx
    3ca5:	89 4d e4             	mov    %ecx,-0x1c(%ebp)
    3ca8:	8a 4d bf             	mov    -0x41(%ebp),%cl
    3cab:	22 0a                	and    (%edx),%cl
    3cad:	09 d9                	or     %ebx,%ecx
    3caf:	88 0a                	mov    %cl,(%edx)
    3cb1:	e9 db fe ff ff       	jmp    3b91 <usb_hid_report_output_translate+0x1e1>
    3cb6:	8b 4d e4             	mov    -0x1c(%ebp),%ecx
    3cb9:	8b 5d d8             	mov    -0x28(%ebp),%ebx
    3cbc:	21 cb                	and    %ecx,%ebx
    3cbe:	8a 4d d4             	mov    -0x2c(%ebp),%cl
    3cc1:	22 0a                	and    (%edx),%cl
    3cc3:	88 4d be             	mov    %cl,-0x42(%ebp)
    3cc6:	8a 4d b8             	mov    -0x48(%ebp),%cl
    3cc9:	d3 e3                	shl    %cl,%ebx
    3ccb:	89 d9                	mov    %ebx,%ecx
    3ccd:	0a 4d be             	or     -0x42(%ebp),%cl
    3cd0:	88 0a                	mov    %cl,(%edx)
    3cd2:	e9 ba fe ff ff       	jmp    3b91 <usb_hid_report_output_translate+0x1e1>
    3cd7:	8d 65 f4             	lea    -0xc(%ebp),%esp
    3cda:	b8 f2 ff ff ff       	mov    $0xfffffff2,%eax
    3cdf:	5b                   	pop    %ebx
    3ce0:	5e                   	pop    %esi
    3ce1:	5f                   	pop    %edi
    3ce2:	5d                   	pop    %ebp
    3ce3:	c3                   	ret    
    3ce4:	8d b6 00 00 00 00    	lea    0x0(%esi),%esi
    3cea:	8d bf 00 00 00 00    	lea    0x0(%edi),%edi

00003cf0 <usb_hid_translate_data_reverse>:
    3cf0:	55                   	push   %ebp
    3cf1:	89 e5                	mov    %esp,%ebp
    3cf3:	57                   	push   %edi
    3cf4:	56                   	push   %esi
    3cf5:	53                   	push   %ebx
    3cf6:	83 ec 1c             	sub    $0x1c,%esp
    3cf9:	8b 5d 08             	mov    0x8(%ebp),%ebx
    3cfc:	8b 73 1c             	mov    0x1c(%ebx),%esi
    3cff:	85 f6                	test   %esi,%esi
    3d01:	0f 84 89 00 00 00    	je     3d90 <usb_hid_translate_data_reverse+0xa0>
    3d07:	8b 4b 20             	mov    0x20(%ebx),%ecx
    3d0a:	8b 7b 14             	mov    0x14(%ebx),%edi
    3d0d:	39 f1                	cmp    %esi,%ecx
    3d0f:	0f 84 9c 00 00 00    	je     3db1 <usb_hid_translate_data_reverse+0xc1>
    3d15:	29 f1                	sub    %esi,%ecx
    3d17:	8b 43 18             	mov    0x18(%ebx),%eax
    3d1a:	8b 53 30             	mov    0x30(%ebx),%edx
    3d1d:	29 f8                	sub    %edi,%eax
    3d1f:	89 4d e4             	mov    %ecx,-0x1c(%ebp)
    3d22:	85 d2                	test   %edx,%edx
    3d24:	b9 01 00 00 00       	mov    $0x1,%ecx
    3d29:	0f 84 97 00 00 00    	je     3dc6 <usb_hid_translate_data_reverse+0xd6>
    3d2f:	83 fa 01             	cmp    $0x1,%edx
    3d32:	0f 85 80 00 00 00    	jne    3db8 <usb_hid_translate_data_reverse+0xc8>
    3d38:	ba 0a 00 00 00       	mov    $0xa,%edx
    3d3d:	0f af ca             	imul   %edx,%ecx
    3d40:	8b 55 e4             	mov    -0x1c(%ebp),%edx
    3d43:	0f af ca             	imul   %edx,%ecx
    3d46:	89 c2                	mov    %eax,%edx
    3d48:	c1 fa 1f             	sar    $0x1f,%edx
    3d4b:	f7 f9                	idiv   %ecx
    3d4d:	8b 55 0c             	mov    0xc(%ebp),%edx
    3d50:	29 f2                	sub    %esi,%edx
    3d52:	0f af d0             	imul   %eax,%edx
    3d55:	01 fa                	add    %edi,%edx
    3d57:	52                   	push   %edx
    3d58:	57                   	push   %edi
    3d59:	56                   	push   %esi
    3d5a:	8b 75 0c             	mov    0xc(%ebp),%esi
    3d5d:	50                   	push   %eax
    3d5e:	89 55 e4             	mov    %edx,-0x1c(%ebp)
    3d61:	56                   	push   %esi
    3d62:	68 98 52 00 00       	push   $0x5298
    3d67:	6a 04                	push   $0x4
    3d69:	6a ff                	push   $0xffffffff
    3d6b:	e8 60 38 00 00       	call   75d0 <log_msg@plt>
    3d70:	8b 7b 14             	mov    0x14(%ebx),%edi
    3d73:	83 c4 20             	add    $0x20,%esp
    3d76:	8b 55 e4             	mov    -0x1c(%ebp),%edx
    3d79:	85 ff                	test   %edi,%edi
    3d7b:	78 53                	js     3dd0 <usb_hid_translate_data_reverse+0xe0>
    3d7d:	8b 4b 18             	mov    0x18(%ebx),%ecx
    3d80:	89 d0                	mov    %edx,%eax
    3d82:	85 c9                	test   %ecx,%ecx
    3d84:	78 4a                	js     3dd0 <usb_hid_translate_data_reverse+0xe0>
    3d86:	8d 65 f4             	lea    -0xc(%ebp),%esp
    3d89:	5b                   	pop    %ebx
    3d8a:	5e                   	pop    %esi
    3d8b:	5f                   	pop    %edi
    3d8c:	5d                   	pop    %ebp
    3d8d:	c3                   	ret    
    3d8e:	66 90                	xchg   %ax,%ax
    3d90:	8b 4b 20             	mov    0x20(%ebx),%ecx
    3d93:	8b 7b 14             	mov    0x14(%ebx),%edi
    3d96:	85 c9                	test   %ecx,%ecx
    3d98:	0f 85 77 ff ff ff    	jne    3d15 <usb_hid_translate_data_reverse+0x25>
    3d9e:	8b 4b 18             	mov    0x18(%ebx),%ecx
    3da1:	89 fe                	mov    %edi,%esi
    3da3:	89 7b 1c             	mov    %edi,0x1c(%ebx)
    3da6:	89 4b 20             	mov    %ecx,0x20(%ebx)
    3da9:	39 f1                	cmp    %esi,%ecx
    3dab:	0f 85 64 ff ff ff    	jne    3d15 <usb_hid_translate_data_reverse+0x25>
    3db1:	b8 01 00 00 00       	mov    $0x1,%eax
    3db6:	eb 95                	jmp    3d4d <usb_hid_translate_data_reverse+0x5d>
    3db8:	4a                   	dec    %edx
    3db9:	8d 0c 89             	lea    (%ecx,%ecx,4),%ecx
    3dbc:	01 c9                	add    %ecx,%ecx
    3dbe:	85 d2                	test   %edx,%edx
    3dc0:	0f 85 69 ff ff ff    	jne    3d2f <usb_hid_translate_data_reverse+0x3f>
    3dc6:	ba 01 00 00 00       	mov    $0x1,%edx
    3dcb:	e9 6d ff ff ff       	jmp    3d3d <usb_hid_translate_data_reverse+0x4d>
    3dd0:	89 d0                	mov    %edx,%eax
    3dd2:	85 d2                	test   %edx,%edx
    3dd4:	79 b0                	jns    3d86 <usb_hid_translate_data_reverse+0x96>
    3dd6:	8b 4b 04             	mov    0x4(%ebx),%ecx
    3dd9:	ba 01 00 00 00       	mov    $0x1,%edx
    3dde:	8d 65 f4             	lea    -0xc(%ebp),%esp
    3de1:	d3 e2                	shl    %cl,%edx
    3de3:	5b                   	pop    %ebx
    3de4:	01 d0                	add    %edx,%eax
    3de6:	5e                   	pop    %esi
    3de7:	5f                   	pop    %edi
    3de8:	5d                   	pop    %ebp
    3de9:	c3                   	ret    
    3dea:	8d b6 00 00 00 00    	lea    0x0(%esi),%esi

00003df0 <usb_hid_report_item_clone>:
    3df0:	55                   	push   %ebp
    3df1:	89 e5                	mov    %esp,%ebp
    3df3:	53                   	push   %ebx
    3df4:	83 ec 10             	sub    $0x10,%esp
    3df7:	68 68 00 04 00       	push   $0x40068
    3dfc:	e8 6f 37 00 00       	call   7570 <malloc@plt>
    3e01:	83 c4 10             	add    $0x10,%esp
    3e04:	89 c3                	mov    %eax,%ebx
    3e06:	85 c0                	test   %eax,%eax
    3e08:	74 27                	je     3e31 <usb_hid_report_item_clone+0x41>
    3e0a:	8b 55 08             	mov    0x8(%ebp),%edx
    3e0d:	50                   	push   %eax
    3e0e:	68 68 00 04 00       	push   $0x40068
    3e13:	52                   	push   %edx
    3e14:	53                   	push   %ebx
    3e15:	e8 46 37 00 00       	call   7560 <memcpy@plt>
    3e1a:	c7 83 5c 00 04 00 00 	movl   $0x0,0x4005c(%ebx)
    3e21:	00 00 00 
    3e24:	c7 83 60 00 04 00 00 	movl   $0x0,0x40060(%ebx)
    3e2b:	00 00 00 
    3e2e:	83 c4 10             	add    $0x10,%esp
    3e31:	89 d8                	mov    %ebx,%eax
    3e33:	8b 5d fc             	mov    -0x4(%ebp),%ebx
    3e36:	c9                   	leave  
    3e37:	c3                   	ret    
    3e38:	90                   	nop
    3e39:	8d b4 26 00 00 00 00 	lea    0x0(%esi,%eiz,1),%esi

00003e40 <usb_hid_report_get_sibling>:
    3e40:	55                   	push   %ebp
    3e41:	89 e5                	mov    %esp,%ebp
    3e43:	57                   	push   %edi
    3e44:	56                   	push   %esi
    3e45:	53                   	push   %ebx
    3e46:	83 ec 10             	sub    $0x10,%esp
    3e49:	8b 45 18             	mov    0x18(%ebp),%eax
    3e4c:	8b 55 10             	mov    0x10(%ebp),%edx
    3e4f:	50                   	push   %eax
    3e50:	31 c0                	xor    %eax,%eax
    3e52:	8a 42 04             	mov    0x4(%edx),%al
    3e55:	8b 5d 0c             	mov    0xc(%ebp),%ebx
    3e58:	50                   	push   %eax
    3e59:	8b 45 08             	mov    0x8(%ebp),%eax
    3e5c:	50                   	push   %eax
    3e5d:	e8 8e dd ff ff       	call   1bf0 <usb_hid_report_find_description>
    3e62:	83 c4 10             	add    $0x10,%esp
    3e65:	85 c0                	test   %eax,%eax
    3e67:	74 70                	je     3ed9 <usb_hid_report_get_sibling+0x99>
    3e69:	85 db                	test   %ebx,%ebx
    3e6b:	0f 84 90 00 00 00    	je     3f01 <usb_hid_report_get_sibling+0xc1>
    3e71:	8b 73 44             	mov    0x44(%ebx),%esi
    3e74:	8d 58 10             	lea    0x10(%eax),%ebx
    3e77:	39 de                	cmp    %ebx,%esi
    3e79:	75 0c                	jne    3e87 <usb_hid_report_get_sibling+0x47>
    3e7b:	eb 5c                	jmp    3ed9 <usb_hid_report_get_sibling+0x99>
    3e7d:	8d 76 00             	lea    0x0(%esi),%esi
    3e80:	8b 76 04             	mov    0x4(%esi),%esi
    3e83:	39 de                	cmp    %ebx,%esi
    3e85:	74 52                	je     3ed9 <usb_hid_report_get_sibling+0x99>
    3e87:	8d 7e c0             	lea    -0x40(%esi),%edi
    3e8a:	f6 47 0c 01          	testb  $0x1,0xc(%edi)
    3e8e:	75 f0                	jne    3e80 <usb_hid_report_get_sibling+0x40>
    3e90:	31 c0                	xor    %eax,%eax
    3e92:	51                   	push   %ecx
    3e93:	66 8b 47 0a          	mov    0xa(%edi),%ax
    3e97:	50                   	push   %eax
    3e98:	31 c0                	xor    %eax,%eax
    3e9a:	66 8b 47 08          	mov    0x8(%edi),%ax
    3e9e:	50                   	push   %eax
    3e9f:	8b 47 10             	mov    0x10(%edi),%eax
    3ea2:	50                   	push   %eax
    3ea3:	e8 78 01 00 00       	call   4020 <usb_hid_report_path_append_item>
    3ea8:	83 c4 0c             	add    $0xc,%esp
    3eab:	8b 45 14             	mov    0x14(%ebp),%eax
    3eae:	50                   	push   %eax
    3eaf:	8b 45 10             	mov    0x10(%ebp),%eax
    3eb2:	50                   	push   %eax
    3eb3:	8b 47 10             	mov    0x10(%edi),%eax
    3eb6:	50                   	push   %eax
    3eb7:	e8 34 03 00 00       	call   41f0 <usb_hid_report_compare_usage_path>
    3ebc:	83 c4 10             	add    $0x10,%esp
    3ebf:	85 c0                	test   %eax,%eax
    3ec1:	74 25                	je     3ee8 <usb_hid_report_get_sibling+0xa8>
    3ec3:	83 ec 0c             	sub    $0xc,%esp
    3ec6:	8b 47 10             	mov    0x10(%edi),%eax
    3ec9:	50                   	push   %eax
    3eca:	e8 a1 01 00 00       	call   4070 <usb_hid_report_remove_last_item>
    3ecf:	8b 76 04             	mov    0x4(%esi),%esi
    3ed2:	83 c4 10             	add    $0x10,%esp
    3ed5:	39 de                	cmp    %ebx,%esi
    3ed7:	75 ae                	jne    3e87 <usb_hid_report_get_sibling+0x47>
    3ed9:	8d 65 f4             	lea    -0xc(%ebp),%esp
    3edc:	31 ff                	xor    %edi,%edi
    3ede:	89 f8                	mov    %edi,%eax
    3ee0:	5b                   	pop    %ebx
    3ee1:	5e                   	pop    %esi
    3ee2:	5f                   	pop    %edi
    3ee3:	5d                   	pop    %ebp
    3ee4:	c3                   	ret    
    3ee5:	8d 76 00             	lea    0x0(%esi),%esi
    3ee8:	83 ec 0c             	sub    $0xc,%esp
    3eeb:	8b 57 10             	mov    0x10(%edi),%edx
    3eee:	52                   	push   %edx
    3eef:	e8 7c 01 00 00       	call   4070 <usb_hid_report_remove_last_item>
    3ef4:	83 c4 10             	add    $0x10,%esp
    3ef7:	8d 65 f4             	lea    -0xc(%ebp),%esp
    3efa:	89 f8                	mov    %edi,%eax
    3efc:	5b                   	pop    %ebx
    3efd:	5e                   	pop    %esi
    3efe:	5f                   	pop    %edi
    3eff:	5d                   	pop    %ebp
    3f00:	c3                   	ret    
    3f01:	8b 70 14             	mov    0x14(%eax),%esi
    3f04:	e9 6b ff ff ff       	jmp    3e74 <usb_hid_report_get_sibling+0x34>
    3f09:	8d b4 26 00 00 00 00 	lea    0x0(%esi,%eiz,1),%esi

00003f10 <usb_hid_get_next_report_id>:
    3f10:	55                   	push   %ebp
    3f11:	89 e5                	mov    %esp,%ebp
    3f13:	56                   	push   %esi
    3f14:	53                   	push   %ebx
    3f15:	8b 5d 08             	mov    0x8(%ebp),%ebx
    3f18:	8b 45 0c             	mov    0xc(%ebp),%eax
    3f1b:	8b 75 10             	mov    0x10(%ebp),%esi
    3f1e:	85 db                	test   %ebx,%ebx
    3f20:	74 2d                	je     3f4f <usb_hid_get_next_report_id+0x3f>
    3f22:	84 c0                	test   %al,%al
    3f24:	75 42                	jne    3f68 <usb_hid_get_next_report_id+0x58>
    3f26:	8b 43 08             	mov    0x8(%ebx),%eax
    3f29:	8d 4b 04             	lea    0x4(%ebx),%ecx
    3f2c:	39 c8                	cmp    %ecx,%eax
    3f2e:	74 1f                	je     3f4f <usb_hid_get_next_report_id+0x3f>
    3f30:	8d 50 e8             	lea    -0x18(%eax),%edx
    3f33:	3b 72 04             	cmp    0x4(%edx),%esi
    3f36:	75 10                	jne    3f48 <usb_hid_get_next_report_id+0x38>
    3f38:	eb 1e                	jmp    3f58 <usb_hid_get_next_report_id+0x48>
    3f3a:	8d b6 00 00 00 00    	lea    0x0(%esi),%esi
    3f40:	8d 50 e8             	lea    -0x18(%eax),%edx
    3f43:	3b 70 ec             	cmp    -0x14(%eax),%esi
    3f46:	74 10                	je     3f58 <usb_hid_get_next_report_id+0x48>
    3f48:	8b 40 04             	mov    0x4(%eax),%eax
    3f4b:	39 c8                	cmp    %ecx,%eax
    3f4d:	75 f1                	jne    3f40 <usb_hid_get_next_report_id+0x30>
    3f4f:	8d 65 f8             	lea    -0x8(%ebp),%esp
    3f52:	31 c0                	xor    %eax,%eax
    3f54:	5b                   	pop    %ebx
    3f55:	5e                   	pop    %esi
    3f56:	5d                   	pop    %ebp
    3f57:	c3                   	ret    
    3f58:	8a 02                	mov    (%edx),%al
    3f5a:	8d 65 f8             	lea    -0x8(%ebp),%esp
    3f5d:	5b                   	pop    %ebx
    3f5e:	5e                   	pop    %esi
    3f5f:	5d                   	pop    %ebp
    3f60:	c3                   	ret    
    3f61:	8d b4 26 00 00 00 00 	lea    0x0(%esi,%eiz,1),%esi
    3f68:	25 ff 00 00 00       	and    $0xff,%eax
    3f6d:	52                   	push   %edx
    3f6e:	56                   	push   %esi
    3f6f:	50                   	push   %eax
    3f70:	53                   	push   %ebx
    3f71:	e8 7a dc ff ff       	call   1bf0 <usb_hid_report_find_description>
    3f76:	83 c4 10             	add    $0x10,%esp
    3f79:	85 c0                	test   %eax,%eax
    3f7b:	74 d2                	je     3f4f <usb_hid_get_next_report_id+0x3f>
    3f7d:	8b 40 1c             	mov    0x1c(%eax),%eax
    3f80:	eb a7                	jmp    3f29 <usb_hid_get_next_report_id+0x19>
    3f82:	8d b4 26 00 00 00 00 	lea    0x0(%esi,%eiz,1),%esi
    3f89:	8d bc 27 00 00 00 00 	lea    0x0(%edi,%eiz,1),%edi

00003f90 <usb_hid_report_reset_local_items>:
    3f90:	55                   	push   %ebp
    3f91:	89 e5                	mov    %esp,%ebp
    3f93:	53                   	push   %ebx
    3f94:	52                   	push   %edx
    3f95:	8b 5d 08             	mov    0x8(%ebp),%ebx
    3f98:	85 db                	test   %ebx,%ebx
    3f9a:	74 74                	je     4010 <usb_hid_report_reset_local_items+0x80>
    3f9c:	c7 83 04 00 04 00 00 	movl   $0x0,0x40004(%ebx)
    3fa3:	00 00 00 
    3fa6:	50                   	push   %eax
    3fa7:	8d 43 08             	lea    0x8(%ebx),%eax
    3faa:	68 ff ff 00 00       	push   $0xffff
    3faf:	6a 00                	push   $0x0
    3fb1:	50                   	push   %eax
    3fb2:	e8 69 36 00 00       	call   7620 <memset@plt>
    3fb7:	66 c7 43 04 00 00    	movw   $0x0,0x4(%ebx)
    3fbd:	c7 83 0c 00 04 00 00 	movl   $0x0,0x4000c(%ebx)
    3fc4:	00 00 00 
    3fc7:	c7 83 10 00 04 00 00 	movl   $0x0,0x40010(%ebx)
    3fce:	00 00 00 
    3fd1:	c7 83 3c 00 04 00 00 	movl   $0x0,0x4003c(%ebx)
    3fd8:	00 00 00 
    3fdb:	c7 83 40 00 04 00 00 	movl   $0x0,0x40040(%ebx)
    3fe2:	00 00 00 
    3fe5:	c7 83 44 00 04 00 00 	movl   $0x0,0x40044(%ebx)
    3fec:	00 00 00 
    3fef:	c7 83 30 00 04 00 00 	movl   $0x0,0x40030(%ebx)
    3ff6:	00 00 00 
    3ff9:	c7 83 34 00 04 00 00 	movl   $0x0,0x40034(%ebx)
    4000:	00 00 00 
    4003:	c7 83 38 00 04 00 00 	movl   $0x0,0x40038(%ebx)
    400a:	00 00 00 
    400d:	83 c4 10             	add    $0x10,%esp
    4010:	8b 5d fc             	mov    -0x4(%ebp),%ebx
    4013:	c9                   	leave  
    4014:	c3                   	ret    
    4015:	66 90                	xchg   %ax,%ax
    4017:	66 90                	xchg   %ax,%ax
    4019:	66 90                	xchg   %ax,%ax
    401b:	66 90                	xchg   %ax,%ax
    401d:	66 90                	xchg   %ax,%ax
    401f:	90                   	nop

00004020 <usb_hid_report_path_append_item>:
    4020:	55                   	push   %ebp
    4021:	89 e5                	mov    %esp,%ebp
    4023:	53                   	push   %ebx
    4024:	83 ec 10             	sub    $0x10,%esp
    4027:	8b 5d 08             	mov    0x8(%ebp),%ebx
    402a:	6a 14                	push   $0x14
    402c:	e8 3f 35 00 00       	call   7570 <malloc@plt>
    4031:	83 c4 10             	add    $0x10,%esp
    4034:	85 c0                	test   %eax,%eax
    4036:	74 30                	je     4068 <usb_hid_report_path_append_item+0x48>
    4038:	8b 4d 10             	mov    0x10(%ebp),%ecx
    403b:	8d 50 0c             	lea    0xc(%eax),%edx
    403e:	89 48 04             	mov    %ecx,0x4(%eax)
    4041:	8b 4d 0c             	mov    0xc(%ebp),%ecx
    4044:	89 08                	mov    %ecx,(%eax)
    4046:	8d 4b 10             	lea    0x10(%ebx),%ecx
    4049:	89 48 10             	mov    %ecx,0x10(%eax)
    404c:	8b 4b 10             	mov    0x10(%ebx),%ecx
    404f:	c6 40 08 00          	movb   $0x0,0x8(%eax)
    4053:	89 48 0c             	mov    %ecx,0xc(%eax)
    4056:	8b 03                	mov    (%ebx),%eax
    4058:	89 51 04             	mov    %edx,0x4(%ecx)
    405b:	40                   	inc    %eax
    405c:	89 53 10             	mov    %edx,0x10(%ebx)
    405f:	89 03                	mov    %eax,(%ebx)
    4061:	31 c0                	xor    %eax,%eax
    4063:	8b 5d fc             	mov    -0x4(%ebp),%ebx
    4066:	c9                   	leave  
    4067:	c3                   	ret    
    4068:	b8 fe ff ff ff       	mov    $0xfffffffe,%eax
    406d:	eb f4                	jmp    4063 <usb_hid_report_path_append_item+0x43>
    406f:	90                   	nop

00004070 <usb_hid_report_remove_last_item>:
    4070:	55                   	push   %ebp
    4071:	89 e5                	mov    %esp,%ebp
    4073:	56                   	push   %esi
    4074:	53                   	push   %ebx
    4075:	8b 55 08             	mov    0x8(%ebp),%edx
    4078:	8d 4a 10             	lea    0x10(%edx),%ecx
    407b:	3b 4a 14             	cmp    0x14(%edx),%ecx
    407e:	74 48                	je     40c8 <usb_hid_report_remove_last_item+0x58>
    4080:	8b 42 10             	mov    0x10(%edx),%eax
    4083:	39 c1                	cmp    %eax,%ecx
    4085:	74 39                	je     40c0 <usb_hid_report_remove_last_item+0x50>
    4087:	8b 18                	mov    (%eax),%ebx
    4089:	8d 70 f4             	lea    -0xc(%eax),%esi
    408c:	85 db                	test   %ebx,%ebx
    408e:	74 0e                	je     409e <usb_hid_report_remove_last_item+0x2e>
    4090:	8b 48 04             	mov    0x4(%eax),%ecx
    4093:	85 c9                	test   %ecx,%ecx
    4095:	74 07                	je     409e <usb_hid_report_remove_last_item+0x2e>
    4097:	89 19                	mov    %ebx,(%ecx)
    4099:	8b 18                	mov    (%eax),%ebx
    409b:	89 4b 04             	mov    %ecx,0x4(%ebx)
    409e:	c7 00 00 00 00 00    	movl   $0x0,(%eax)
    40a4:	c7 40 04 00 00 00 00 	movl   $0x0,0x4(%eax)
    40ab:	8b 02                	mov    (%edx),%eax
    40ad:	48                   	dec    %eax
    40ae:	89 02                	mov    %eax,(%edx)
    40b0:	89 75 08             	mov    %esi,0x8(%ebp)
    40b3:	5b                   	pop    %ebx
    40b4:	5e                   	pop    %esi
    40b5:	5d                   	pop    %ebp
    40b6:	e9 45 36 00 00       	jmp    7700 <free@plt>
    40bb:	90                   	nop
    40bc:	8d 74 26 00          	lea    0x0(%esi,%eiz,1),%esi
    40c0:	a1 00 00 00 00       	mov    0x0,%eax
    40c5:	0f 0b                	ud2    
    40c7:	90                   	nop
    40c8:	5b                   	pop    %ebx
    40c9:	5e                   	pop    %esi
    40ca:	5d                   	pop    %ebp
    40cb:	c3                   	ret    
    40cc:	8d 74 26 00          	lea    0x0(%esi,%eiz,1),%esi

000040d0 <usb_hid_report_null_last_item>:
    40d0:	55                   	push   %ebp
    40d1:	89 e5                	mov    %esp,%ebp
    40d3:	83 ec 08             	sub    $0x8,%esp
    40d6:	8b 45 08             	mov    0x8(%ebp),%eax
    40d9:	8d 50 10             	lea    0x10(%eax),%edx
    40dc:	3b 50 14             	cmp    0x14(%eax),%edx
    40df:	74 18                	je     40f9 <usb_hid_report_null_last_item+0x29>
    40e1:	8b 40 10             	mov    0x10(%eax),%eax
    40e4:	39 c2                	cmp    %eax,%edx
    40e6:	74 18                	je     4100 <usb_hid_report_null_last_item+0x30>
    40e8:	83 e8 0c             	sub    $0xc,%eax
    40eb:	52                   	push   %edx
    40ec:	6a 14                	push   $0x14
    40ee:	6a 00                	push   $0x0
    40f0:	50                   	push   %eax
    40f1:	e8 2a 35 00 00       	call   7620 <memset@plt>
    40f6:	83 c4 10             	add    $0x10,%esp
    40f9:	c9                   	leave  
    40fa:	c3                   	ret    
    40fb:	90                   	nop
    40fc:	8d 74 26 00          	lea    0x0(%esi,%eiz,1),%esi
    4100:	b8 f4 ff ff ff       	mov    $0xfffffff4,%eax
    4105:	eb e4                	jmp    40eb <usb_hid_report_null_last_item+0x1b>
    4107:	89 f6                	mov    %esi,%esi
    4109:	8d bc 27 00 00 00 00 	lea    0x0(%edi,%eiz,1),%edi

00004110 <usb_hid_report_set_last_item>:
    4110:	55                   	push   %ebp
    4111:	89 e5                	mov    %esp,%ebp
    4113:	8b 45 08             	mov    0x8(%ebp),%eax
    4116:	8d 50 10             	lea    0x10(%eax),%edx
    4119:	3b 50 14             	cmp    0x14(%eax),%edx
    411c:	74 1c                	je     413a <usb_hid_report_set_last_item+0x2a>
    411e:	8b 40 10             	mov    0x10(%eax),%eax
    4121:	39 c2                	cmp    %eax,%edx
    4123:	74 23                	je     4148 <usb_hid_report_set_last_item+0x38>
    4125:	83 e8 0c             	sub    $0xc,%eax
    4128:	83 7d 0c 01          	cmpl   $0x1,0xc(%ebp)
    412c:	74 12                	je     4140 <usb_hid_report_set_last_item+0x30>
    412e:	83 7d 0c 02          	cmpl   $0x2,0xc(%ebp)
    4132:	75 06                	jne    413a <usb_hid_report_set_last_item+0x2a>
    4134:	8b 4d 10             	mov    0x10(%ebp),%ecx
    4137:	89 48 04             	mov    %ecx,0x4(%eax)
    413a:	5d                   	pop    %ebp
    413b:	c3                   	ret    
    413c:	8d 74 26 00          	lea    0x0(%esi,%eiz,1),%esi
    4140:	8b 4d 10             	mov    0x10(%ebp),%ecx
    4143:	89 08                	mov    %ecx,(%eax)
    4145:	5d                   	pop    %ebp
    4146:	c3                   	ret    
    4147:	90                   	nop
    4148:	b8 f4 ff ff ff       	mov    $0xfffffff4,%eax
    414d:	eb d9                	jmp    4128 <usb_hid_report_set_last_item+0x18>
    414f:	90                   	nop

00004150 <usb_hid_print_usage_path>:
    4150:	55                   	push   %ebp
    4151:	31 c0                	xor    %eax,%eax
    4153:	89 e5                	mov    %esp,%ebp
    4155:	57                   	push   %edi
    4156:	56                   	push   %esi
    4157:	53                   	push   %ebx
    4158:	83 ec 0c             	sub    $0xc,%esp
    415b:	8b 7d 08             	mov    0x8(%ebp),%edi
    415e:	83 c7 10             	add    $0x10,%edi
    4161:	8a 47 f4             	mov    -0xc(%edi),%al
    4164:	50                   	push   %eax
    4165:	68 eb 52 00 00       	push   $0x52eb
    416a:	6a 04                	push   $0x4
    416c:	6a ff                	push   $0xffffffff
    416e:	e8 5d 34 00 00       	call   75d0 <log_msg@plt>
    4173:	8b 4f f0             	mov    -0x10(%edi),%ecx
    4176:	51                   	push   %ecx
    4177:	68 04 53 00 00       	push   $0x5304
    417c:	6a 04                	push   $0x4
    417e:	6a ff                	push   $0xffffffff
    4180:	e8 4b 34 00 00       	call   75d0 <log_msg@plt>
    4185:	8b 5f 04             	mov    0x4(%edi),%ebx
    4188:	83 c4 20             	add    $0x20,%esp
    418b:	39 df                	cmp    %ebx,%edi
    418d:	74 50                	je     41df <usb_hid_print_usage_path+0x8f>
    418f:	8d 73 f4             	lea    -0xc(%ebx),%esi
    4192:	8d b6 00 00 00 00    	lea    0x0(%esi),%esi
    4198:	8b 06                	mov    (%esi),%eax
    419a:	50                   	push   %eax
    419b:	68 11 53 00 00       	push   $0x5311
    41a0:	6a 04                	push   $0x4
    41a2:	6a ff                	push   $0xffffffff
    41a4:	e8 27 34 00 00       	call   75d0 <log_msg@plt>
    41a9:	8b 56 04             	mov    0x4(%esi),%edx
    41ac:	52                   	push   %edx
    41ad:	68 22 53 00 00       	push   $0x5322
    41b2:	6a 04                	push   $0x4
    41b4:	6a ff                	push   $0xffffffff
    41b6:	e8 15 34 00 00       	call   75d0 <log_msg@plt>
    41bb:	83 c4 20             	add    $0x20,%esp
    41be:	31 c0                	xor    %eax,%eax
    41c0:	8a 46 08             	mov    0x8(%esi),%al
    41c3:	50                   	push   %eax
    41c4:	68 2e 53 00 00       	push   $0x532e
    41c9:	6a 04                	push   $0x4
    41cb:	6a ff                	push   $0xffffffff
    41cd:	e8 fe 33 00 00       	call   75d0 <log_msg@plt>
    41d2:	8b 5b 04             	mov    0x4(%ebx),%ebx
    41d5:	83 c4 10             	add    $0x10,%esp
    41d8:	8d 73 f4             	lea    -0xc(%ebx),%esi
    41db:	39 df                	cmp    %ebx,%edi
    41dd:	75 b9                	jne    4198 <usb_hid_print_usage_path+0x48>
    41df:	8d 65 f4             	lea    -0xc(%ebp),%esp
    41e2:	5b                   	pop    %ebx
    41e3:	5e                   	pop    %esi
    41e4:	5f                   	pop    %edi
    41e5:	5d                   	pop    %ebp
    41e6:	c3                   	ret    
    41e7:	89 f6                	mov    %esi,%esi
    41e9:	8d bc 27 00 00 00 00 	lea    0x0(%edi,%eiz,1),%edi

000041f0 <usb_hid_report_compare_usage_path>:
    41f0:	55                   	push   %ebp
    41f1:	89 e5                	mov    %esp,%ebp
    41f3:	57                   	push   %edi
    41f4:	56                   	push   %esi
    41f5:	53                   	push   %ebx
    41f6:	83 ec 10             	sub    $0x10,%esp
    41f9:	8b 4d 0c             	mov    0xc(%ebp),%ecx
    41fc:	8b 5d 08             	mov    0x8(%ebp),%ebx
    41ff:	8a 51 04             	mov    0x4(%ecx),%dl
    4202:	38 53 04             	cmp    %dl,0x4(%ebx)
    4205:	74 11                	je     4218 <usb_hid_report_compare_usage_path+0x28>
    4207:	b8 01 00 00 00       	mov    $0x1,%eax
    420c:	84 d2                	test   %dl,%dl
    420e:	74 08                	je     4218 <usb_hid_report_compare_usage_path+0x28>
    4210:	83 c4 10             	add    $0x10,%esp
    4213:	5b                   	pop    %ebx
    4214:	5e                   	pop    %esi
    4215:	5f                   	pop    %edi
    4216:	5d                   	pop    %ebp
    4217:	c3                   	ret    
    4218:	8b 01                	mov    (%ecx),%eax
    421a:	85 c0                	test   %eax,%eax
    421c:	74 f2                	je     4210 <usb_hid_report_compare_usage_path+0x20>
    421e:	8b 7d 10             	mov    0x10(%ebp),%edi
    4221:	83 e7 02             	and    $0x2,%edi
    4224:	89 7d e8             	mov    %edi,-0x18(%ebp)
    4227:	74 09                	je     4232 <usb_hid_report_compare_usage_path+0x42>
    4229:	8b 7d 10             	mov    0x10(%ebp),%edi
    422c:	83 ef 02             	sub    $0x2,%edi
    422f:	89 7d 10             	mov    %edi,0x10(%ebp)
    4232:	83 7d 10 01          	cmpl   $0x1,0x10(%ebp)
    4236:	0f 84 2c 01 00 00    	je     4368 <usb_hid_report_compare_usage_path+0x178>
    423c:	7e 2a                	jle    4268 <usb_hid_report_compare_usage_path+0x78>
    423e:	83 7d 10 04          	cmpl   $0x4,0x10(%ebp)
    4242:	74 33                	je     4277 <usb_hid_report_compare_usage_path+0x87>
    4244:	83 7d 10 08          	cmpl   $0x8,0x10(%ebp)
    4248:	0f 85 0a 01 00 00    	jne    4358 <usb_hid_report_compare_usage_path+0x168>
    424e:	83 f8 01             	cmp    $0x1,%eax
    4251:	0f 84 41 02 00 00    	je     4498 <usb_hid_report_compare_usage_path+0x2a8>
    4257:	83 c4 10             	add    $0x10,%esp
    425a:	b8 01 00 00 00       	mov    $0x1,%eax
    425f:	5b                   	pop    %ebx
    4260:	5e                   	pop    %esi
    4261:	5f                   	pop    %edi
    4262:	5d                   	pop    %ebp
    4263:	c3                   	ret    
    4264:	8d 74 26 00          	lea    0x0(%esi,%eiz,1),%esi
    4268:	8b 75 10             	mov    0x10(%ebp),%esi
    426b:	85 f6                	test   %esi,%esi
    426d:	0f 85 e5 00 00 00    	jne    4358 <usb_hid_report_compare_usage_path+0x168>
    4273:	3b 03                	cmp    (%ebx),%eax
    4275:	75 e0                	jne    4257 <usb_hid_report_compare_usage_path+0x67>
    4277:	8d 73 10             	lea    0x10(%ebx),%esi
    427a:	8b 43 14             	mov    0x14(%ebx),%eax
    427d:	8b 51 14             	mov    0x14(%ecx),%edx
    4280:	89 75 f0             	mov    %esi,-0x10(%ebp)
    4283:	39 f0                	cmp    %esi,%eax
    4285:	0f 84 bc 02 00 00    	je     4547 <usb_hid_report_compare_usage_path+0x357>
    428b:	8d 59 10             	lea    0x10(%ecx),%ebx
    428e:	89 5d ec             	mov    %ebx,-0x14(%ebp)
    4291:	39 da                	cmp    %ebx,%edx
    4293:	0f 84 df 01 00 00    	je     4478 <usb_hid_report_compare_usage_path+0x288>
    4299:	8b 48 f4             	mov    -0xc(%eax),%ecx
    429c:	8b 72 f4             	mov    -0xc(%edx),%esi
    429f:	39 ce                	cmp    %ecx,%esi
    42a1:	0f 95 45 e7          	setne  -0x19(%ebp)
    42a5:	85 c9                	test   %ecx,%ecx
    42a7:	8d 58 f4             	lea    -0xc(%eax),%ebx
    42aa:	0f 95 c1             	setne  %cl
    42ad:	8d 7a f4             	lea    -0xc(%edx),%edi
    42b0:	84 4d e7             	test   %cl,-0x19(%ebp)
    42b3:	74 04                	je     42b9 <usb_hid_report_compare_usage_path+0xc9>
    42b5:	85 f6                	test   %esi,%esi
    42b7:	75 9e                	jne    4257 <usb_hid_report_compare_usage_path+0x67>
    42b9:	8b 75 e8             	mov    -0x18(%ebp),%esi
    42bc:	85 f6                	test   %esi,%esi
    42be:	74 38                	je     42f8 <usb_hid_report_compare_usage_path+0x108>
    42c0:	8b 40 04             	mov    0x4(%eax),%eax
    42c3:	8b 52 04             	mov    0x4(%edx),%edx
    42c6:	39 45 f0             	cmp    %eax,-0x10(%ebp)
    42c9:	0f 84 b9 01 00 00    	je     4488 <usb_hid_report_compare_usage_path+0x298>
    42cf:	39 55 ec             	cmp    %edx,-0x14(%ebp)
    42d2:	0f 84 a0 01 00 00    	je     4478 <usb_hid_report_compare_usage_path+0x288>
    42d8:	8b 48 f4             	mov    -0xc(%eax),%ecx
    42db:	8b 72 f4             	mov    -0xc(%edx),%esi
    42de:	39 ce                	cmp    %ecx,%esi
    42e0:	0f 95 c3             	setne  %bl
    42e3:	85 c9                	test   %ecx,%ecx
    42e5:	0f 95 c1             	setne  %cl
    42e8:	84 cb                	test   %cl,%bl
    42ea:	74 d4                	je     42c0 <usb_hid_report_compare_usage_path+0xd0>
    42ec:	85 f6                	test   %esi,%esi
    42ee:	74 d0                	je     42c0 <usb_hid_report_compare_usage_path+0xd0>
    42f0:	e9 62 ff ff ff       	jmp    4257 <usb_hid_report_compare_usage_path+0x67>
    42f5:	8d 76 00             	lea    0x0(%esi),%esi
    42f8:	8b 4b 04             	mov    0x4(%ebx),%ecx
    42fb:	8b 77 04             	mov    0x4(%edi),%esi
    42fe:	39 f1                	cmp    %esi,%ecx
    4300:	0f 95 c3             	setne  %bl
    4303:	85 c9                	test   %ecx,%ecx
    4305:	0f 95 c1             	setne  %cl
    4308:	84 cb                	test   %cl,%bl
    430a:	74 08                	je     4314 <usb_hid_report_compare_usage_path+0x124>
    430c:	85 f6                	test   %esi,%esi
    430e:	0f 85 43 ff ff ff    	jne    4257 <usb_hid_report_compare_usage_path+0x67>
    4314:	8b 40 04             	mov    0x4(%eax),%eax
    4317:	8b 52 04             	mov    0x4(%edx),%edx
    431a:	3b 45 f0             	cmp    -0x10(%ebp),%eax
    431d:	0f 84 65 01 00 00    	je     4488 <usb_hid_report_compare_usage_path+0x298>
    4323:	3b 55 ec             	cmp    -0x14(%ebp),%edx
    4326:	0f 84 4c 01 00 00    	je     4478 <usb_hid_report_compare_usage_path+0x288>
    432c:	8b 48 f4             	mov    -0xc(%eax),%ecx
    432f:	8b 72 f4             	mov    -0xc(%edx),%esi
    4332:	85 c9                	test   %ecx,%ecx
    4334:	0f 95 45 e8          	setne  -0x18(%ebp)
    4338:	39 f1                	cmp    %esi,%ecx
    433a:	8d 58 f4             	lea    -0xc(%eax),%ebx
    433d:	0f 95 c1             	setne  %cl
    4340:	8d 7a f4             	lea    -0xc(%edx),%edi
    4343:	84 4d e8             	test   %cl,-0x18(%ebp)
    4346:	74 b0                	je     42f8 <usb_hid_report_compare_usage_path+0x108>
    4348:	85 f6                	test   %esi,%esi
    434a:	74 ac                	je     42f8 <usb_hid_report_compare_usage_path+0x108>
    434c:	e9 06 ff ff ff       	jmp    4257 <usb_hid_report_compare_usage_path+0x67>
    4351:	8d b4 26 00 00 00 00 	lea    0x0(%esi,%eiz,1),%esi
    4358:	b8 f2 ff ff ff       	mov    $0xfffffff2,%eax
    435d:	e9 ae fe ff ff       	jmp    4210 <usb_hid_report_compare_usage_path+0x20>
    4362:	8d b6 00 00 00 00    	lea    0x0(%esi),%esi
    4368:	8d 71 10             	lea    0x10(%ecx),%esi
    436b:	8b 43 10             	mov    0x10(%ebx),%eax
    436e:	8b 51 10             	mov    0x10(%ecx),%edx
    4371:	89 75 f0             	mov    %esi,-0x10(%ebp)
    4374:	3b 71 14             	cmp    0x14(%ecx),%esi
    4377:	0f 84 f3 00 00 00    	je     4470 <usb_hid_report_compare_usage_path+0x280>
    437d:	8d 7b 10             	lea    0x10(%ebx),%edi
    4380:	89 7d ec             	mov    %edi,-0x14(%ebp)
    4383:	39 f8                	cmp    %edi,%eax
    4385:	0f 84 9d 01 00 00    	je     4528 <usb_hid_report_compare_usage_path+0x338>
    438b:	39 d6                	cmp    %edx,%esi
    438d:	0f 84 dd 00 00 00    	je     4470 <usb_hid_report_compare_usage_path+0x280>
    4393:	8b 48 f4             	mov    -0xc(%eax),%ecx
    4396:	8b 72 f4             	mov    -0xc(%edx),%esi
    4399:	85 c9                	test   %ecx,%ecx
    439b:	0f 95 45 e7          	setne  -0x19(%ebp)
    439f:	39 ce                	cmp    %ecx,%esi
    43a1:	8d 58 f4             	lea    -0xc(%eax),%ebx
    43a4:	0f 95 c1             	setne  %cl
    43a7:	8d 7a f4             	lea    -0xc(%edx),%edi
    43aa:	84 4d e7             	test   %cl,-0x19(%ebp)
    43ad:	74 08                	je     43b7 <usb_hid_report_compare_usage_path+0x1c7>
    43af:	85 f6                	test   %esi,%esi
    43b1:	0f 85 a0 fe ff ff    	jne    4257 <usb_hid_report_compare_usage_path+0x67>
    43b7:	8b 4d e8             	mov    -0x18(%ebp),%ecx
    43ba:	85 c9                	test   %ecx,%ecx
    43bc:	75 5a                	jne    4418 <usb_hid_report_compare_usage_path+0x228>
    43be:	66 90                	xchg   %ax,%ax
    43c0:	8b 4b 04             	mov    0x4(%ebx),%ecx
    43c3:	8b 77 04             	mov    0x4(%edi),%esi
    43c6:	39 f1                	cmp    %esi,%ecx
    43c8:	0f 95 c3             	setne  %bl
    43cb:	85 c9                	test   %ecx,%ecx
    43cd:	0f 95 c1             	setne  %cl
    43d0:	84 cb                	test   %cl,%bl
    43d2:	74 08                	je     43dc <usb_hid_report_compare_usage_path+0x1ec>
    43d4:	85 f6                	test   %esi,%esi
    43d6:	0f 85 7b fe ff ff    	jne    4257 <usb_hid_report_compare_usage_path+0x67>
    43dc:	8b 00                	mov    (%eax),%eax
    43de:	8b 12                	mov    (%edx),%edx
    43e0:	3b 45 ec             	cmp    -0x14(%ebp),%eax
    43e3:	0f 84 3f 01 00 00    	je     4528 <usb_hid_report_compare_usage_path+0x338>
    43e9:	39 55 f0             	cmp    %edx,-0x10(%ebp)
    43ec:	0f 84 7e 00 00 00    	je     4470 <usb_hid_report_compare_usage_path+0x280>
    43f2:	8b 48 f4             	mov    -0xc(%eax),%ecx
    43f5:	8b 72 f4             	mov    -0xc(%edx),%esi
    43f8:	39 f1                	cmp    %esi,%ecx
    43fa:	0f 95 45 e8          	setne  -0x18(%ebp)
    43fe:	85 c9                	test   %ecx,%ecx
    4400:	8d 58 f4             	lea    -0xc(%eax),%ebx
    4403:	0f 95 c1             	setne  %cl
    4406:	8d 7a f4             	lea    -0xc(%edx),%edi
    4409:	84 4d e8             	test   %cl,-0x18(%ebp)
    440c:	74 b2                	je     43c0 <usb_hid_report_compare_usage_path+0x1d0>
    440e:	85 f6                	test   %esi,%esi
    4410:	74 ae                	je     43c0 <usb_hid_report_compare_usage_path+0x1d0>
    4412:	e9 40 fe ff ff       	jmp    4257 <usb_hid_report_compare_usage_path+0x67>
    4417:	90                   	nop
    4418:	8b 00                	mov    (%eax),%eax
    441a:	8b 12                	mov    (%edx),%edx
    441c:	39 45 ec             	cmp    %eax,-0x14(%ebp)
    441f:	0f 84 03 01 00 00    	je     4528 <usb_hid_report_compare_usage_path+0x338>
    4425:	39 55 f0             	cmp    %edx,-0x10(%ebp)
    4428:	74 46                	je     4470 <usb_hid_report_compare_usage_path+0x280>
    442a:	8b 48 f4             	mov    -0xc(%eax),%ecx
    442d:	8b 72 f4             	mov    -0xc(%edx),%esi
    4430:	39 ce                	cmp    %ecx,%esi
    4432:	0f 95 c3             	setne  %bl
    4435:	85 c9                	test   %ecx,%ecx
    4437:	0f 95 c1             	setne  %cl
    443a:	84 cb                	test   %cl,%bl
    443c:	74 da                	je     4418 <usb_hid_report_compare_usage_path+0x228>
    443e:	85 f6                	test   %esi,%esi
    4440:	74 d6                	je     4418 <usb_hid_report_compare_usage_path+0x228>
    4442:	e9 10 fe ff ff       	jmp    4257 <usb_hid_report_compare_usage_path+0x67>
    4447:	89 df                	mov    %ebx,%edi
    4449:	eb 13                	jmp    445e <usb_hid_report_compare_usage_path+0x26e>
    444b:	85 c9                	test   %ecx,%ecx
    444d:	74 21                	je     4470 <usb_hid_report_compare_usage_path+0x280>
    444f:	8b 52 04             	mov    0x4(%edx),%edx
    4452:	3b 55 ec             	cmp    -0x14(%ebp),%edx
    4455:	8d 72 f4             	lea    -0xc(%edx),%esi
    4458:	0f 84 b2 fd ff ff    	je     4210 <usb_hid_report_compare_usage_path+0x20>
    445e:	8b 0e                	mov    (%esi),%ecx
    4460:	39 f9                	cmp    %edi,%ecx
    4462:	0f 94 c3             	sete   %bl
    4465:	0a 5d e7             	or     -0x19(%ebp),%bl
    4468:	74 e1                	je     444b <usb_hid_report_compare_usage_path+0x25b>
    446a:	8d b6 00 00 00 00    	lea    0x0(%esi),%esi
    4470:	31 c0                	xor    %eax,%eax
    4472:	e9 99 fd ff ff       	jmp    4210 <usb_hid_report_compare_usage_path+0x20>
    4477:	90                   	nop
    4478:	31 c0                	xor    %eax,%eax
    447a:	f6 45 10 04          	testb  $0x4,0x10(%ebp)
    447e:	0f 94 c0             	sete   %al
    4481:	e9 8a fd ff ff       	jmp    4210 <usb_hid_report_compare_usage_path+0x20>
    4486:	66 90                	xchg   %ax,%ax
    4488:	31 c0                	xor    %eax,%eax
    448a:	39 55 ec             	cmp    %edx,-0x14(%ebp)
    448d:	0f 95 c0             	setne  %al
    4490:	e9 7b fd ff ff       	jmp    4210 <usb_hid_report_compare_usage_path+0x20>
    4495:	8d 76 00             	lea    0x0(%esi),%esi
    4498:	8b 79 14             	mov    0x14(%ecx),%edi
    449b:	83 c1 10             	add    $0x10,%ecx
    449e:	39 cf                	cmp    %ecx,%edi
    44a0:	0f 84 97 00 00 00    	je     453d <usb_hid_report_compare_usage_path+0x34d>
    44a6:	83 ef 0c             	sub    $0xc,%edi
    44a9:	8b 53 14             	mov    0x14(%ebx),%edx
    44ac:	83 c3 10             	add    $0x10,%ebx
    44af:	89 5d ec             	mov    %ebx,-0x14(%ebp)
    44b2:	39 da                	cmp    %ebx,%edx
    44b4:	8d 72 f4             	lea    -0xc(%edx),%esi
    44b7:	0f 84 53 fd ff ff    	je     4210 <usb_hid_report_compare_usage_path+0x20>
    44bd:	8b 1f                	mov    (%edi),%ebx
    44bf:	8b 4d e8             	mov    -0x18(%ebp),%ecx
    44c2:	85 db                	test   %ebx,%ebx
    44c4:	89 5d f0             	mov    %ebx,-0x10(%ebp)
    44c7:	0f 94 45 e7          	sete   -0x19(%ebp)
    44cb:	85 c9                	test   %ecx,%ecx
    44cd:	0f 85 74 ff ff ff    	jne    4447 <usb_hid_report_compare_usage_path+0x257>
    44d3:	8a 5d e7             	mov    -0x19(%ebp),%bl
    44d6:	89 45 e8             	mov    %eax,-0x18(%ebp)
    44d9:	eb 14                	jmp    44ef <usb_hid_report_compare_usage_path+0x2ff>
    44db:	90                   	nop
    44dc:	8d 74 26 00          	lea    0x0(%esi,%eiz,1),%esi
    44e0:	84 db                	test   %bl,%bl
    44e2:	75 1c                	jne    4500 <usb_hid_report_compare_usage_path+0x310>
    44e4:	8b 52 04             	mov    0x4(%edx),%edx
    44e7:	3b 55 ec             	cmp    -0x14(%ebp),%edx
    44ea:	8d 72 f4             	lea    -0xc(%edx),%esi
    44ed:	74 46                	je     4535 <usb_hid_report_compare_usage_path+0x345>
    44ef:	8b 06                	mov    (%esi),%eax
    44f1:	3b 45 f0             	cmp    -0x10(%ebp),%eax
    44f4:	0f 94 c1             	sete   %cl
    44f7:	85 c0                	test   %eax,%eax
    44f9:	0f 94 c0             	sete   %al
    44fc:	08 c1                	or     %al,%cl
    44fe:	74 e0                	je     44e0 <usb_hid_report_compare_usage_path+0x2f0>
    4500:	8b 46 04             	mov    0x4(%esi),%eax
    4503:	8b 77 04             	mov    0x4(%edi),%esi
    4506:	39 f0                	cmp    %esi,%eax
    4508:	0f 94 c1             	sete   %cl
    450b:	85 c0                	test   %eax,%eax
    450d:	0f 94 c0             	sete   %al
    4510:	08 c1                	or     %al,%cl
    4512:	0f 85 58 ff ff ff    	jne    4470 <usb_hid_report_compare_usage_path+0x280>
    4518:	85 f6                	test   %esi,%esi
    451a:	75 c8                	jne    44e4 <usb_hid_report_compare_usage_path+0x2f4>
    451c:	31 c0                	xor    %eax,%eax
    451e:	e9 ed fc ff ff       	jmp    4210 <usb_hid_report_compare_usage_path+0x20>
    4523:	90                   	nop
    4524:	8d 74 26 00          	lea    0x0(%esi,%eiz,1),%esi
    4528:	31 c0                	xor    %eax,%eax
    452a:	39 55 f0             	cmp    %edx,-0x10(%ebp)
    452d:	0f 95 c0             	setne  %al
    4530:	e9 db fc ff ff       	jmp    4210 <usb_hid_report_compare_usage_path+0x20>
    4535:	8b 45 e8             	mov    -0x18(%ebp),%eax
    4538:	e9 d3 fc ff ff       	jmp    4210 <usb_hid_report_compare_usage_path+0x20>
    453d:	bf f4 ff ff ff       	mov    $0xfffffff4,%edi
    4542:	e9 62 ff ff ff       	jmp    44a9 <usb_hid_report_compare_usage_path+0x2b9>
    4547:	31 c0                	xor    %eax,%eax
    4549:	83 c1 10             	add    $0x10,%ecx
    454c:	39 ca                	cmp    %ecx,%edx
    454e:	0f 95 c0             	setne  %al
    4551:	e9 ba fc ff ff       	jmp    4210 <usb_hid_report_compare_usage_path+0x20>
    4556:	8d 76 00             	lea    0x0(%esi),%esi
    4559:	8d bc 27 00 00 00 00 	lea    0x0(%edi,%eiz,1),%edi

00004560 <usb_hid_report_path>:
    4560:	55                   	push   %ebp
    4561:	89 e5                	mov    %esp,%ebp
    4563:	83 ec 14             	sub    $0x14,%esp
    4566:	6a 18                	push   $0x18
    4568:	e8 03 30 00 00       	call   7570 <malloc@plt>
    456d:	83 c4 10             	add    $0x10,%esp
    4570:	85 c0                	test   %eax,%eax
    4572:	74 21                	je     4595 <usb_hid_report_path+0x35>
    4574:	8d 50 10             	lea    0x10(%eax),%edx
    4577:	c7 00 00 00 00 00    	movl   $0x0,(%eax)
    457d:	c6 40 04 00          	movb   $0x0,0x4(%eax)
    4581:	c7 40 08 00 00 00 00 	movl   $0x0,0x8(%eax)
    4588:	c7 40 0c 00 00 00 00 	movl   $0x0,0xc(%eax)
    458f:	89 50 10             	mov    %edx,0x10(%eax)
    4592:	89 50 14             	mov    %edx,0x14(%eax)
    4595:	c9                   	leave  
    4596:	c3                   	ret    
    4597:	89 f6                	mov    %esi,%esi
    4599:	8d bc 27 00 00 00 00 	lea    0x0(%edi,%eiz,1),%edi

000045a0 <usb_hid_report_path_free>:
    45a0:	55                   	push   %ebp
    45a1:	89 e5                	mov    %esp,%ebp
    45a3:	57                   	push   %edi
    45a4:	56                   	push   %esi
    45a5:	53                   	push   %ebx
    45a6:	83 ec 0c             	sub    $0xc,%esp
    45a9:	8b 5d 08             	mov    0x8(%ebp),%ebx
    45ac:	85 db                	test   %ebx,%ebx
    45ae:	0f 84 ac 00 00 00    	je     4660 <usb_hid_report_path_free+0xc0>
    45b4:	8d 73 10             	lea    0x10(%ebx),%esi
    45b7:	39 73 14             	cmp    %esi,0x14(%ebx)
    45ba:	75 3e                	jne    45fa <usb_hid_report_path_free+0x5a>
    45bc:	eb 4a                	jmp    4608 <usb_hid_report_path_free+0x68>
    45be:	66 90                	xchg   %ax,%ax
    45c0:	8b 08                	mov    (%eax),%ecx
    45c2:	8d 78 f4             	lea    -0xc(%eax),%edi
    45c5:	85 c9                	test   %ecx,%ecx
    45c7:	74 0e                	je     45d7 <usb_hid_report_path_free+0x37>
    45c9:	8b 50 04             	mov    0x4(%eax),%edx
    45cc:	85 d2                	test   %edx,%edx
    45ce:	74 07                	je     45d7 <usb_hid_report_path_free+0x37>
    45d0:	89 0a                	mov    %ecx,(%edx)
    45d2:	8b 08                	mov    (%eax),%ecx
    45d4:	89 51 04             	mov    %edx,0x4(%ecx)
    45d7:	c7 00 00 00 00 00    	movl   $0x0,(%eax)
    45dd:	c7 40 04 00 00 00 00 	movl   $0x0,0x4(%eax)
    45e4:	83 ec 0c             	sub    $0xc,%esp
    45e7:	8b 03                	mov    (%ebx),%eax
    45e9:	48                   	dec    %eax
    45ea:	89 03                	mov    %eax,(%ebx)
    45ec:	57                   	push   %edi
    45ed:	e8 0e 31 00 00       	call   7700 <free@plt>
    45f2:	83 c4 10             	add    $0x10,%esp
    45f5:	39 73 14             	cmp    %esi,0x14(%ebx)
    45f8:	74 0e                	je     4608 <usb_hid_report_path_free+0x68>
    45fa:	8b 43 10             	mov    0x10(%ebx),%eax
    45fd:	39 f0                	cmp    %esi,%eax
    45ff:	75 bf                	jne    45c0 <usb_hid_report_path_free+0x20>
    4601:	a1 00 00 00 00       	mov    0x0,%eax
    4606:	0f 0b                	ud2    
    4608:	8b 43 08             	mov    0x8(%ebx),%eax
    460b:	85 c0                	test   %eax,%eax
    460d:	74 21                	je     4630 <usb_hid_report_path_free+0x90>
    460f:	8b 4b 0c             	mov    0xc(%ebx),%ecx
    4612:	85 c9                	test   %ecx,%ecx
    4614:	74 21                	je     4637 <usb_hid_report_path_free+0x97>
    4616:	50                   	push   %eax
    4617:	68 7d 01 00 00       	push   $0x17d
    461c:	68 3a 53 00 00       	push   $0x533a
    4621:	68 48 53 00 00       	push   $0x5348
    4626:	e8 e5 2f 00 00       	call   7610 <assert_abort@plt>
    462b:	90                   	nop
    462c:	8d 74 26 00          	lea    0x0(%esi,%eiz,1),%esi
    4630:	8b 73 0c             	mov    0xc(%ebx),%esi
    4633:	85 f6                	test   %esi,%esi
    4635:	74 19                	je     4650 <usb_hid_report_path_free+0xb0>
    4637:	52                   	push   %edx
    4638:	68 8a 01 00 00       	push   $0x18a
    463d:	68 68 53 00 00       	push   $0x5368
    4642:	68 88 53 00 00       	push   $0x5388
    4647:	e8 c4 2f 00 00       	call   7610 <assert_abort@plt>
    464c:	8d 74 26 00          	lea    0x0(%esi,%eiz,1),%esi
    4650:	89 5d 08             	mov    %ebx,0x8(%ebp)
    4653:	8d 65 f4             	lea    -0xc(%ebp),%esp
    4656:	5b                   	pop    %ebx
    4657:	5e                   	pop    %esi
    4658:	5f                   	pop    %edi
    4659:	5d                   	pop    %ebp
    465a:	e9 a1 30 00 00       	jmp    7700 <free@plt>
    465f:	90                   	nop
    4660:	8d 65 f4             	lea    -0xc(%ebp),%esp
    4663:	5b                   	pop    %ebx
    4664:	5e                   	pop    %esi
    4665:	5f                   	pop    %edi
    4666:	5d                   	pop    %ebp
    4667:	c3                   	ret    
    4668:	90                   	nop
    4669:	8d b4 26 00 00 00 00 	lea    0x0(%esi,%eiz,1),%esi

00004670 <usb_hid_report_path_clone>:
    4670:	55                   	push   %ebp
    4671:	89 e5                	mov    %esp,%ebp
    4673:	57                   	push   %edi
    4674:	56                   	push   %esi
    4675:	53                   	push   %ebx
    4676:	83 ec 28             	sub    $0x28,%esp
    4679:	8b 75 08             	mov    0x8(%ebp),%esi
    467c:	6a 18                	push   $0x18
    467e:	e8 ed 2e 00 00       	call   7570 <malloc@plt>
    4683:	83 c4 10             	add    $0x10,%esp
    4686:	85 c0                	test   %eax,%eax
    4688:	0f 84 96 00 00 00    	je     4724 <usb_hid_report_path_clone+0xb4>
    468e:	89 c3                	mov    %eax,%ebx
    4690:	c7 00 00 00 00 00    	movl   $0x0,(%eax)
    4696:	c7 40 08 00 00 00 00 	movl   $0x0,0x8(%eax)
    469d:	c7 40 0c 00 00 00 00 	movl   $0x0,0xc(%eax)
    46a4:	8d 40 10             	lea    0x10(%eax),%eax
    46a7:	8b 7e 14             	mov    0x14(%esi),%edi
    46aa:	89 45 e0             	mov    %eax,-0x20(%ebp)
    46ad:	89 43 10             	mov    %eax,0x10(%ebx)
    46b0:	89 43 14             	mov    %eax,0x14(%ebx)
    46b3:	8a 46 04             	mov    0x4(%esi),%al
    46b6:	88 43 04             	mov    %al,0x4(%ebx)
    46b9:	8d 46 10             	lea    0x10(%esi),%eax
    46bc:	89 45 e4             	mov    %eax,-0x1c(%ebp)
    46bf:	39 f8                	cmp    %edi,%eax
    46c1:	74 63                	je     4726 <usb_hid_report_path_clone+0xb6>
    46c3:	89 d8                	mov    %ebx,%eax
    46c5:	8d 77 f4             	lea    -0xc(%edi),%esi
    46c8:	89 fb                	mov    %edi,%ebx
    46ca:	89 c7                	mov    %eax,%edi
    46cc:	eb 45                	jmp    4713 <usb_hid_report_path_clone+0xa3>
    46ce:	66 90                	xchg   %ax,%ax
    46d0:	8b 16                	mov    (%esi),%edx
    46d2:	c7 40 10 00 00 00 00 	movl   $0x0,0x10(%eax)
    46d9:	89 10                	mov    %edx,(%eax)
    46db:	8b 56 04             	mov    0x4(%esi),%edx
    46de:	c7 40 0c 00 00 00 00 	movl   $0x0,0xc(%eax)
    46e5:	89 50 04             	mov    %edx,0x4(%eax)
    46e8:	8a 56 08             	mov    0x8(%esi),%dl
    46eb:	8b 77 10             	mov    0x10(%edi),%esi
    46ee:	88 50 08             	mov    %dl,0x8(%eax)
    46f1:	8d 48 0c             	lea    0xc(%eax),%ecx
    46f4:	8b 55 e0             	mov    -0x20(%ebp),%edx
    46f7:	89 70 0c             	mov    %esi,0xc(%eax)
    46fa:	89 50 10             	mov    %edx,0x10(%eax)
    46fd:	89 4e 04             	mov    %ecx,0x4(%esi)
    4700:	8b 07                	mov    (%edi),%eax
    4702:	8b 5b 04             	mov    0x4(%ebx),%ebx
    4705:	40                   	inc    %eax
    4706:	89 4f 10             	mov    %ecx,0x10(%edi)
    4709:	89 07                	mov    %eax,(%edi)
    470b:	8d 73 f4             	lea    -0xc(%ebx),%esi
    470e:	39 5d e4             	cmp    %ebx,-0x1c(%ebp)
    4711:	74 1d                	je     4730 <usb_hid_report_path_clone+0xc0>
    4713:	83 ec 0c             	sub    $0xc,%esp
    4716:	6a 14                	push   $0x14
    4718:	e8 53 2e 00 00       	call   7570 <malloc@plt>
    471d:	83 c4 10             	add    $0x10,%esp
    4720:	85 c0                	test   %eax,%eax
    4722:	75 ac                	jne    46d0 <usb_hid_report_path_clone+0x60>
    4724:	31 db                	xor    %ebx,%ebx
    4726:	8d 65 f4             	lea    -0xc(%ebp),%esp
    4729:	89 d8                	mov    %ebx,%eax
    472b:	5b                   	pop    %ebx
    472c:	5e                   	pop    %esi
    472d:	5f                   	pop    %edi
    472e:	5d                   	pop    %ebp
    472f:	c3                   	ret    
    4730:	8d 65 f4             	lea    -0xc(%ebp),%esp
    4733:	89 fb                	mov    %edi,%ebx
    4735:	89 d8                	mov    %ebx,%eax
    4737:	5b                   	pop    %ebx
    4738:	5e                   	pop    %esi
    4739:	5f                   	pop    %edi
    473a:	5d                   	pop    %ebp
    473b:	c3                   	ret    
    473c:	8d 74 26 00          	lea    0x0(%esi,%eiz,1),%esi

00004740 <usb_hid_report_path_set_report_id>:
    4740:	55                   	push   %ebp
    4741:	89 e5                	mov    %esp,%ebp
    4743:	8b 45 08             	mov    0x8(%ebp),%eax
    4746:	8b 55 0c             	mov    0xc(%ebp),%edx
    4749:	85 c0                	test   %eax,%eax
    474b:	74 07                	je     4754 <usb_hid_report_path_set_report_id+0x14>
    474d:	88 50 04             	mov    %dl,0x4(%eax)
    4750:	31 c0                	xor    %eax,%eax
    4752:	5d                   	pop    %ebp
    4753:	c3                   	ret    
    4754:	b8 f2 ff ff ff       	mov    $0xfffffff2,%eax
    4759:	5d                   	pop    %ebp
    475a:	c3                   	ret    
    475b:	66 90                	xchg   %ax,%ax
    475d:	66 90                	xchg   %ax,%ax
    475f:	90                   	nop

00004760 <usbhid_multimedia_usage_to_str>:
    4760:	55                   	push   %ebp
    4761:	b8 b1 53 00 00       	mov    $0x53b1,%eax
    4766:	89 e5                	mov    %esp,%ebp
    4768:	8b 55 08             	mov    0x8(%ebp),%edx
    476b:	81 fa 9c 02 00 00    	cmp    $0x29c,%edx
    4771:	77 07                	ja     477a <usbhid_multimedia_usage_to_str+0x1a>
    4773:	8b 04 95 00 69 00 00 	mov    0x6900(,%edx,4),%eax
    477a:	5d                   	pop    %ebp
    477b:	c3                   	ret    
    477c:	66 90                	xchg   %ax,%ax
    477e:	66 90                	xchg   %ax,%ax

00004780 <usb_resolve_device_handle>:
    4780:	55                   	push   %ebp
    4781:	89 e5                	mov    %esp,%ebp
    4783:	56                   	push   %esi
    4784:	53                   	push   %ebx
    4785:	8b 5d 08             	mov    0x8(%ebp),%ebx
    4788:	8b 75 0c             	mov    0xc(%ebp),%esi
    478b:	85 db                	test   %ebx,%ebx
    478d:	74 31                	je     47c0 <usb_resolve_device_handle+0x40>
    478f:	85 f6                	test   %esi,%esi
    4791:	74 2d                	je     47c0 <usb_resolve_device_handle+0x40>
    4793:	52                   	push   %edx
    4794:	6a 00                	push   $0x0
    4796:	56                   	push   %esi
    4797:	53                   	push   %ebx
    4798:	e8 e3 2e 00 00       	call   7680 <devman_fun_get_handle@plt>
    479d:	83 c4 10             	add    $0x10,%esp
    47a0:	85 c0                	test   %eax,%eax
    47a2:	74 12                	je     47b6 <usb_resolve_device_handle+0x36>
    47a4:	50                   	push   %eax
    47a5:	6a 0a                	push   $0xa
    47a7:	6a 00                	push   $0x0
    47a9:	53                   	push   %ebx
    47aa:	e8 d1 2d 00 00       	call   7580 <strtoul@plt>
    47af:	83 c4 10             	add    $0x10,%esp
    47b2:	89 06                	mov    %eax,(%esi)
    47b4:	31 c0                	xor    %eax,%eax
    47b6:	8d 65 f8             	lea    -0x8(%ebp),%esp
    47b9:	5b                   	pop    %ebx
    47ba:	5e                   	pop    %esi
    47bb:	5d                   	pop    %ebp
    47bc:	c3                   	ret    
    47bd:	8d 76 00             	lea    0x0(%esi),%esi
    47c0:	b8 f6 ff ff ff       	mov    $0xfffffff6,%eax
    47c5:	eb ef                	jmp    47b6 <usb_resolve_device_handle+0x36>
    47c7:	66 90                	xchg   %ax,%ax
    47c9:	66 90                	xchg   %ax,%ax
    47cb:	66 90                	xchg   %ax,%ax
    47cd:	66 90                	xchg   %ax,%ax
    47cf:	90                   	nop

000047d0 <remote_usbhid_get_report_descriptor>:
    47d0:	55                   	push   %ebp
    47d1:	89 e5                	mov    %esp,%ebp
    47d3:	56                   	push   %esi
    47d4:	53                   	push   %ebx
    47d5:	83 ec 10             	sub    $0x10,%esp
    47d8:	8b 5d 0c             	mov    0xc(%ebp),%ebx
    47db:	8b 43 0c             	mov    0xc(%ebx),%eax
    47de:	85 c0                	test   %eax,%eax
    47e0:	0f 84 02 01 00 00    	je     48e8 <remote_usbhid_get_report_descriptor+0x118>
    47e6:	50                   	push   %eax
    47e7:	50                   	push   %eax
    47e8:	8d 45 ec             	lea    -0x14(%ebp),%eax
    47eb:	50                   	push   %eax
    47ec:	8d 45 f0             	lea    -0x10(%ebp),%eax
    47ef:	50                   	push   %eax
    47f0:	e8 3b 2e 00 00       	call   7630 <async_data_read_receive@plt>
    47f5:	83 c4 10             	add    $0x10,%esp
    47f8:	84 c0                	test   %al,%al
    47fa:	0f 84 98 00 00 00    	je     4898 <remote_usbhid_get_report_descriptor+0xc8>
    4800:	8b 45 ec             	mov    -0x14(%ebp),%eax
    4803:	85 c0                	test   %eax,%eax
    4805:	75 29                	jne    4830 <remote_usbhid_get_report_descriptor+0x60>
    4807:	8b 45 f0             	mov    -0x10(%ebp),%eax
    480a:	56                   	push   %esi
    480b:	56                   	push   %esi
    480c:	6a f2                	push   $0xfffffff2
    480e:	50                   	push   %eax
    480f:	e8 8c 2d 00 00       	call   75a0 <async_answer_0@plt>
    4814:	8b 4d 10             	mov    0x10(%ebp),%ecx
    4817:	58                   	pop    %eax
    4818:	5a                   	pop    %edx
    4819:	6a f2                	push   $0xfffffff2
    481b:	51                   	push   %ecx
    481c:	e8 7f 2d 00 00       	call   75a0 <async_answer_0@plt>
    4821:	83 c4 10             	add    $0x10,%esp
    4824:	8d 65 f8             	lea    -0x8(%ebp),%esp
    4827:	5b                   	pop    %ebx
    4828:	5e                   	pop    %esi
    4829:	5d                   	pop    %ebp
    482a:	c3                   	ret    
    482b:	90                   	nop
    482c:	8d 74 26 00          	lea    0x0(%esi,%eiz,1),%esi
    4830:	83 ec 0c             	sub    $0xc,%esp
    4833:	50                   	push   %eax
    4834:	e8 37 2d 00 00       	call   7570 <malloc@plt>
    4839:	83 c4 10             	add    $0x10,%esp
    483c:	89 c6                	mov    %eax,%esi
    483e:	85 c0                	test   %eax,%eax
    4840:	0f 84 ba 00 00 00    	je     4900 <remote_usbhid_get_report_descriptor+0x130>
    4846:	8d 45 f4             	lea    -0xc(%ebp),%eax
    4849:	c7 45 f4 00 00 00 00 	movl   $0x0,-0xc(%ebp)
    4850:	50                   	push   %eax
    4851:	8b 45 ec             	mov    -0x14(%ebp),%eax
    4854:	50                   	push   %eax
    4855:	8b 45 08             	mov    0x8(%ebp),%eax
    4858:	56                   	push   %esi
    4859:	50                   	push   %eax
    485a:	ff 53 0c             	call   *0xc(%ebx)
    485d:	8b 55 f4             	mov    -0xc(%ebp),%edx
    4860:	83 c4 10             	add    $0x10,%esp
    4863:	3b 55 ec             	cmp    -0x14(%ebp),%edx
    4866:	76 48                	jbe    48b0 <remote_usbhid_get_report_descriptor+0xe0>
    4868:	bb fd ff ff ff       	mov    $0xfffffffd,%ebx
    486d:	83 ec 0c             	sub    $0xc,%esp
    4870:	56                   	push   %esi
    4871:	e8 8a 2e 00 00       	call   7700 <free@plt>
    4876:	8b 4d f0             	mov    -0x10(%ebp),%ecx
    4879:	58                   	pop    %eax
    487a:	5a                   	pop    %edx
    487b:	53                   	push   %ebx
    487c:	51                   	push   %ecx
    487d:	e8 1e 2d 00 00       	call   75a0 <async_answer_0@plt>
    4882:	5e                   	pop    %esi
    4883:	58                   	pop    %eax
    4884:	8b 45 10             	mov    0x10(%ebp),%eax
    4887:	53                   	push   %ebx
    4888:	50                   	push   %eax
    4889:	e8 12 2d 00 00       	call   75a0 <async_answer_0@plt>
    488e:	83 c4 10             	add    $0x10,%esp
    4891:	8d 65 f8             	lea    -0x8(%ebp),%esp
    4894:	5b                   	pop    %ebx
    4895:	5e                   	pop    %esi
    4896:	5d                   	pop    %ebp
    4897:	c3                   	ret    
    4898:	8b 75 10             	mov    0x10(%ebp),%esi
    489b:	53                   	push   %ebx
    489c:	53                   	push   %ebx
    489d:	6a f2                	push   $0xfffffff2
    489f:	56                   	push   %esi
    48a0:	e8 fb 2c 00 00       	call   75a0 <async_answer_0@plt>
    48a5:	83 c4 10             	add    $0x10,%esp
    48a8:	8d 65 f8             	lea    -0x8(%ebp),%esp
    48ab:	5b                   	pop    %ebx
    48ac:	5e                   	pop    %esi
    48ad:	5d                   	pop    %ebp
    48ae:	c3                   	ret    
    48af:	90                   	nop
    48b0:	89 c3                	mov    %eax,%ebx
    48b2:	85 c0                	test   %eax,%eax
    48b4:	75 b7                	jne    486d <remote_usbhid_get_report_descriptor+0x9d>
    48b6:	50                   	push   %eax
    48b7:	52                   	push   %edx
    48b8:	8b 55 f0             	mov    -0x10(%ebp),%edx
    48bb:	56                   	push   %esi
    48bc:	52                   	push   %edx
    48bd:	e8 8e 2c 00 00       	call   7550 <async_data_read_finalize@plt>
    48c2:	8b 45 10             	mov    0x10(%ebp),%eax
    48c5:	59                   	pop    %ecx
    48c6:	5b                   	pop    %ebx
    48c7:	6a 00                	push   $0x0
    48c9:	50                   	push   %eax
    48ca:	e8 d1 2c 00 00       	call   75a0 <async_answer_0@plt>
    48cf:	89 34 24             	mov    %esi,(%esp)
    48d2:	e8 29 2e 00 00       	call   7700 <free@plt>
    48d7:	83 c4 10             	add    $0x10,%esp
    48da:	8d 65 f8             	lea    -0x8(%ebp),%esp
    48dd:	5b                   	pop    %ebx
    48de:	5e                   	pop    %esi
    48df:	5d                   	pop    %ebp
    48e0:	c3                   	ret    
    48e1:	8d b4 26 00 00 00 00 	lea    0x0(%esi,%eiz,1),%esi
    48e8:	50                   	push   %eax
    48e9:	50                   	push   %eax
    48ea:	8b 45 10             	mov    0x10(%ebp),%eax
    48ed:	6a f5                	push   $0xfffffff5
    48ef:	50                   	push   %eax
    48f0:	e8 ab 2c 00 00       	call   75a0 <async_answer_0@plt>
    48f5:	83 c4 10             	add    $0x10,%esp
    48f8:	8d 65 f8             	lea    -0x8(%ebp),%esp
    48fb:	5b                   	pop    %ebx
    48fc:	5e                   	pop    %esi
    48fd:	5d                   	pop    %ebp
    48fe:	c3                   	ret    
    48ff:	90                   	nop
    4900:	50                   	push   %eax
    4901:	50                   	push   %eax
    4902:	8b 45 f0             	mov    -0x10(%ebp),%eax
    4905:	6a fe                	push   $0xfffffffe
    4907:	50                   	push   %eax
    4908:	e8 93 2c 00 00       	call   75a0 <async_answer_0@plt>
    490d:	8b 5d 10             	mov    0x10(%ebp),%ebx
    4910:	5a                   	pop    %edx
    4911:	59                   	pop    %ecx
    4912:	6a fe                	push   $0xfffffffe
    4914:	53                   	push   %ebx
    4915:	e8 86 2c 00 00       	call   75a0 <async_answer_0@plt>
    491a:	83 c4 10             	add    $0x10,%esp
    491d:	e9 02 ff ff ff       	jmp    4824 <remote_usbhid_get_report_descriptor+0x54>
    4922:	8d b4 26 00 00 00 00 	lea    0x0(%esi,%eiz,1),%esi
    4929:	8d bc 27 00 00 00 00 	lea    0x0(%edi,%eiz,1),%edi

00004930 <remote_usbhid_get_report_descriptor_length>:
    4930:	55                   	push   %ebp
    4931:	89 e5                	mov    %esp,%ebp
    4933:	53                   	push   %ebx
    4934:	50                   	push   %eax
    4935:	8b 45 0c             	mov    0xc(%ebp),%eax
    4938:	8b 55 08             	mov    0x8(%ebp),%edx
    493b:	8b 5d 10             	mov    0x10(%ebp),%ebx
    493e:	8b 40 08             	mov    0x8(%eax),%eax
    4941:	85 c0                	test   %eax,%eax
    4943:	74 23                	je     4968 <remote_usbhid_get_report_descriptor_length+0x38>
    4945:	83 ec 0c             	sub    $0xc,%esp
    4948:	52                   	push   %edx
    4949:	ff d0                	call   *%eax
    494b:	89 5d 08             	mov    %ebx,0x8(%ebp)
    494e:	83 c4 10             	add    $0x10,%esp
    4951:	8b 5d fc             	mov    -0x4(%ebp),%ebx
    4954:	89 45 10             	mov    %eax,0x10(%ebp)
    4957:	c7 45 0c 00 00 00 00 	movl   $0x0,0xc(%ebp)
    495e:	c9                   	leave  
    495f:	e9 ec 2c 00 00       	jmp    7650 <async_answer_1@plt>
    4964:	8d 74 26 00          	lea    0x0(%esi,%eiz,1),%esi
    4968:	89 5d 08             	mov    %ebx,0x8(%ebp)
    496b:	8b 5d fc             	mov    -0x4(%ebp),%ebx
    496e:	c7 45 0c f5 ff ff ff 	movl   $0xfffffff5,0xc(%ebp)
    4975:	c9                   	leave  
    4976:	e9 25 2c 00 00       	jmp    75a0 <async_answer_0@plt>
    497b:	90                   	nop
    497c:	8d 74 26 00          	lea    0x0(%esi,%eiz,1),%esi

00004980 <remote_usbhid_get_event>:
    4980:	55                   	push   %ebp
    4981:	89 e5                	mov    %esp,%ebp
    4983:	57                   	push   %edi
    4984:	56                   	push   %esi
    4985:	53                   	push   %ebx
    4986:	83 ec 1c             	sub    $0x1c,%esp
    4989:	8b 5d 0c             	mov    0xc(%ebp),%ebx
    498c:	8b 4b 04             	mov    0x4(%ebx),%ecx
    498f:	85 c9                	test   %ecx,%ecx
    4991:	0f 84 11 01 00 00    	je     4aa8 <remote_usbhid_get_event+0x128>
    4997:	8b 45 14             	mov    0x14(%ebp),%eax
    499a:	8b 70 08             	mov    0x8(%eax),%esi
    499d:	50                   	push   %eax
    499e:	50                   	push   %eax
    499f:	8d 45 d8             	lea    -0x28(%ebp),%eax
    49a2:	50                   	push   %eax
    49a3:	8d 45 dc             	lea    -0x24(%ebp),%eax
    49a6:	50                   	push   %eax
    49a7:	e8 84 2c 00 00       	call   7630 <async_data_read_receive@plt>
    49ac:	83 c4 10             	add    $0x10,%esp
    49af:	84 c0                	test   %al,%al
    49b1:	0f 84 a9 00 00 00    	je     4a60 <remote_usbhid_get_event+0xe0>
    49b7:	8b 45 d8             	mov    -0x28(%ebp),%eax
    49ba:	85 c0                	test   %eax,%eax
    49bc:	75 2a                	jne    49e8 <remote_usbhid_get_event+0x68>
    49be:	8b 75 dc             	mov    -0x24(%ebp),%esi
    49c1:	53                   	push   %ebx
    49c2:	53                   	push   %ebx
    49c3:	6a f2                	push   $0xfffffff2
    49c5:	56                   	push   %esi
    49c6:	e8 d5 2b 00 00       	call   75a0 <async_answer_0@plt>
    49cb:	5f                   	pop    %edi
    49cc:	58                   	pop    %eax
    49cd:	8b 45 10             	mov    0x10(%ebp),%eax
    49d0:	6a f2                	push   $0xfffffff2
    49d2:	50                   	push   %eax
    49d3:	e8 c8 2b 00 00       	call   75a0 <async_answer_0@plt>
    49d8:	83 c4 10             	add    $0x10,%esp
    49db:	8d 65 f4             	lea    -0xc(%ebp),%esp
    49de:	5b                   	pop    %ebx
    49df:	5e                   	pop    %esi
    49e0:	5f                   	pop    %edi
    49e1:	5d                   	pop    %ebp
    49e2:	c3                   	ret    
    49e3:	90                   	nop
    49e4:	8d 74 26 00          	lea    0x0(%esi,%eiz,1),%esi
    49e8:	83 ec 0c             	sub    $0xc,%esp
    49eb:	50                   	push   %eax
    49ec:	e8 7f 2b 00 00       	call   7570 <malloc@plt>
    49f1:	83 c4 10             	add    $0x10,%esp
    49f4:	89 c7                	mov    %eax,%edi
    49f6:	85 c0                	test   %eax,%eax
    49f8:	0f 84 c2 00 00 00    	je     4ac0 <remote_usbhid_get_event+0x140>
    49fe:	50                   	push   %eax
    49ff:	50                   	push   %eax
    4a00:	8d 45 e4             	lea    -0x1c(%ebp),%eax
    4a03:	56                   	push   %esi
    4a04:	50                   	push   %eax
    4a05:	8d 45 e0             	lea    -0x20(%ebp),%eax
    4a08:	50                   	push   %eax
    4a09:	8b 45 d8             	mov    -0x28(%ebp),%eax
    4a0c:	50                   	push   %eax
    4a0d:	8b 45 08             	mov    0x8(%ebp),%eax
    4a10:	57                   	push   %edi
    4a11:	50                   	push   %eax
    4a12:	ff 53 04             	call   *0x4(%ebx)
    4a15:	83 c4 20             	add    $0x20,%esp
    4a18:	89 c3                	mov    %eax,%ebx
    4a1a:	85 c0                	test   %eax,%eax
    4a1c:	75 5a                	jne    4a78 <remote_usbhid_get_event+0xf8>
    4a1e:	8b 45 e0             	mov    -0x20(%ebp),%eax
    4a21:	8b 55 d8             	mov    -0x28(%ebp),%edx
    4a24:	39 d0                	cmp    %edx,%eax
    4a26:	72 05                	jb     4a2d <remote_usbhid_get_event+0xad>
    4a28:	89 55 e0             	mov    %edx,-0x20(%ebp)
    4a2b:	89 d0                	mov    %edx,%eax
    4a2d:	8b 4d dc             	mov    -0x24(%ebp),%ecx
    4a30:	52                   	push   %edx
    4a31:	50                   	push   %eax
    4a32:	57                   	push   %edi
    4a33:	51                   	push   %ecx
    4a34:	e8 17 2b 00 00       	call   7550 <async_data_read_finalize@plt>
    4a39:	89 3c 24             	mov    %edi,(%esp)
    4a3c:	e8 bf 2c 00 00       	call   7700 <free@plt>
    4a41:	83 c4 0c             	add    $0xc,%esp
    4a44:	8b 5d e4             	mov    -0x1c(%ebp),%ebx
    4a47:	8b 75 10             	mov    0x10(%ebp),%esi
    4a4a:	53                   	push   %ebx
    4a4b:	6a 00                	push   $0x0
    4a4d:	56                   	push   %esi
    4a4e:	e8 fd 2b 00 00       	call   7650 <async_answer_1@plt>
    4a53:	83 c4 10             	add    $0x10,%esp
    4a56:	8d 65 f4             	lea    -0xc(%ebp),%esp
    4a59:	5b                   	pop    %ebx
    4a5a:	5e                   	pop    %esi
    4a5b:	5f                   	pop    %edi
    4a5c:	5d                   	pop    %ebp
    4a5d:	c3                   	ret    
    4a5e:	66 90                	xchg   %ax,%ax
    4a60:	50                   	push   %eax
    4a61:	50                   	push   %eax
    4a62:	8b 45 10             	mov    0x10(%ebp),%eax
    4a65:	6a f8                	push   $0xfffffff8
    4a67:	50                   	push   %eax
    4a68:	e8 33 2b 00 00       	call   75a0 <async_answer_0@plt>
    4a6d:	83 c4 10             	add    $0x10,%esp
    4a70:	8d 65 f4             	lea    -0xc(%ebp),%esp
    4a73:	5b                   	pop    %ebx
    4a74:	5e                   	pop    %esi
    4a75:	5f                   	pop    %edi
    4a76:	5d                   	pop    %ebp
    4a77:	c3                   	ret    
    4a78:	83 ec 0c             	sub    $0xc,%esp
    4a7b:	57                   	push   %edi
    4a7c:	e8 7f 2c 00 00       	call   7700 <free@plt>
    4a81:	5f                   	pop    %edi
    4a82:	58                   	pop    %eax
    4a83:	8b 45 dc             	mov    -0x24(%ebp),%eax
    4a86:	53                   	push   %ebx
    4a87:	50                   	push   %eax
    4a88:	e8 13 2b 00 00       	call   75a0 <async_answer_0@plt>
    4a8d:	8b 4d 10             	mov    0x10(%ebp),%ecx
    4a90:	58                   	pop    %eax
    4a91:	5a                   	pop    %edx
    4a92:	53                   	push   %ebx
    4a93:	51                   	push   %ecx
    4a94:	e8 07 2b 00 00       	call   75a0 <async_answer_0@plt>
    4a99:	83 c4 10             	add    $0x10,%esp
    4a9c:	e9 3a ff ff ff       	jmp    49db <remote_usbhid_get_event+0x5b>
    4aa1:	8d b4 26 00 00 00 00 	lea    0x0(%esi,%eiz,1),%esi
    4aa8:	8b 55 10             	mov    0x10(%ebp),%edx
    4aab:	50                   	push   %eax
    4aac:	50                   	push   %eax
    4aad:	6a f5                	push   $0xfffffff5
    4aaf:	52                   	push   %edx
    4ab0:	e8 eb 2a 00 00       	call   75a0 <async_answer_0@plt>
    4ab5:	83 c4 10             	add    $0x10,%esp
    4ab8:	8d 65 f4             	lea    -0xc(%ebp),%esp
    4abb:	5b                   	pop    %ebx
    4abc:	5e                   	pop    %esi
    4abd:	5f                   	pop    %edi
    4abe:	5d                   	pop    %ebp
    4abf:	c3                   	ret    
    4ac0:	50                   	push   %eax
    4ac1:	50                   	push   %eax
    4ac2:	8b 45 dc             	mov    -0x24(%ebp),%eax
    4ac5:	6a fe                	push   $0xfffffffe
    4ac7:	50                   	push   %eax
    4ac8:	e8 d3 2a 00 00       	call   75a0 <async_answer_0@plt>
    4acd:	8b 4d 10             	mov    0x10(%ebp),%ecx
    4ad0:	58                   	pop    %eax
    4ad1:	5a                   	pop    %edx
    4ad2:	6a fe                	push   $0xfffffffe
    4ad4:	51                   	push   %ecx
    4ad5:	e8 c6 2a 00 00       	call   75a0 <async_answer_0@plt>
    4ada:	83 c4 10             	add    $0x10,%esp
    4add:	e9 f9 fe ff ff       	jmp    49db <remote_usbhid_get_event+0x5b>
    4ae2:	8d b4 26 00 00 00 00 	lea    0x0(%esi,%eiz,1),%esi
    4ae9:	8d bc 27 00 00 00 00 	lea    0x0(%edi,%eiz,1),%edi

00004af0 <remote_usbhid_get_event_length>:
    4af0:	55                   	push   %ebp
    4af1:	89 e5                	mov    %esp,%ebp
    4af3:	57                   	push   %edi
    4af4:	56                   	push   %esi
    4af5:	53                   	push   %ebx
    4af6:	83 ec 18             	sub    $0x18,%esp
    4af9:	8b 7d 0c             	mov    0xc(%ebp),%edi
    4afc:	8b 75 08             	mov    0x8(%ebp),%esi
    4aff:	68 74 73 00 00       	push   $0x7374
    4b04:	8b 5d 10             	mov    0x10(%ebp),%ebx
    4b07:	e8 14 2a 00 00       	call   7520 <printf@plt>
    4b0c:	8b 07                	mov    (%edi),%eax
    4b0e:	83 c4 10             	add    $0x10,%esp
    4b11:	85 c0                	test   %eax,%eax
    4b13:	74 23                	je     4b38 <remote_usbhid_get_event_length+0x48>
    4b15:	83 ec 0c             	sub    $0xc,%esp
    4b18:	56                   	push   %esi
    4b19:	ff d0                	call   *%eax
    4b1b:	89 5d 08             	mov    %ebx,0x8(%ebp)
    4b1e:	89 45 10             	mov    %eax,0x10(%ebp)
    4b21:	c7 45 0c 00 00 00 00 	movl   $0x0,0xc(%ebp)
    4b28:	83 c4 10             	add    $0x10,%esp
    4b2b:	8d 65 f4             	lea    -0xc(%ebp),%esp
    4b2e:	5b                   	pop    %ebx
    4b2f:	5e                   	pop    %esi
    4b30:	5f                   	pop    %edi
    4b31:	5d                   	pop    %ebp
    4b32:	e9 19 2b 00 00       	jmp    7650 <async_answer_1@plt>
    4b37:	90                   	nop
    4b38:	83 ec 0c             	sub    $0xc,%esp
    4b3b:	68 98 73 00 00       	push   $0x7398
    4b40:	e8 db 29 00 00       	call   7520 <printf@plt>
    4b45:	89 5d 08             	mov    %ebx,0x8(%ebp)
    4b48:	c7 45 0c f5 ff ff ff 	movl   $0xfffffff5,0xc(%ebp)
    4b4f:	83 c4 10             	add    $0x10,%esp
    4b52:	8d 65 f4             	lea    -0xc(%ebp),%esp
    4b55:	5b                   	pop    %ebx
    4b56:	5e                   	pop    %esi
    4b57:	5f                   	pop    %edi
    4b58:	5d                   	pop    %ebp
    4b59:	e9 42 2a 00 00       	jmp    75a0 <async_answer_0@plt>
    4b5e:	66 90                	xchg   %ax,%ax

00004b60 <usbhid_dev_get_event_length>:
    4b60:	55                   	push   %ebp
    4b61:	89 e5                	mov    %esp,%ebp
    4b63:	56                   	push   %esi
    4b64:	53                   	push   %ebx
    4b65:	83 ec 20             	sub    $0x20,%esp
    4b68:	8b 45 08             	mov    0x8(%ebp),%eax
    4b6b:	8b 5d 0c             	mov    0xc(%ebp),%ebx
    4b6e:	85 c0                	test   %eax,%eax
    4b70:	74 56                	je     4bc8 <usbhid_dev_get_event_length+0x68>
    4b72:	83 ec 0c             	sub    $0xc,%esp
    4b75:	50                   	push   %eax
    4b76:	e8 e5 2a 00 00       	call   7660 <async_exchange_begin@plt>
    4b7b:	83 c4 0c             	add    $0xc,%esp
    4b7e:	89 c6                	mov    %eax,%esi
    4b80:	8d 45 f4             	lea    -0xc(%ebp),%eax
    4b83:	6a 00                	push   $0x0
    4b85:	6a 00                	push   $0x0
    4b87:	6a 00                	push   $0x0
    4b89:	6a 00                	push   $0x0
    4b8b:	50                   	push   %eax
    4b8c:	6a 00                	push   $0x0
    4b8e:	6a 00                	push   $0x0
    4b90:	6a 00                	push   $0x0
    4b92:	6a 00                	push   $0x0
    4b94:	68 0a 04 00 00       	push   $0x40a
    4b99:	56                   	push   %esi
    4b9a:	e8 f1 29 00 00       	call   7590 <async_req_fast@plt>
    4b9f:	83 c4 24             	add    $0x24,%esp
    4ba2:	89 45 e4             	mov    %eax,-0x1c(%ebp)
    4ba5:	56                   	push   %esi
    4ba6:	e8 55 2a 00 00       	call   7600 <async_exchange_end@plt>
    4bab:	8b 45 e4             	mov    -0x1c(%ebp),%eax
    4bae:	83 c4 10             	add    $0x10,%esp
    4bb1:	85 c0                	test   %eax,%eax
    4bb3:	75 09                	jne    4bbe <usbhid_dev_get_event_length+0x5e>
    4bb5:	85 db                	test   %ebx,%ebx
    4bb7:	74 05                	je     4bbe <usbhid_dev_get_event_length+0x5e>
    4bb9:	8b 55 f4             	mov    -0xc(%ebp),%edx
    4bbc:	89 13                	mov    %edx,(%ebx)
    4bbe:	8d 65 f8             	lea    -0x8(%ebp),%esp
    4bc1:	5b                   	pop    %ebx
    4bc2:	5e                   	pop    %esi
    4bc3:	5d                   	pop    %ebp
    4bc4:	c3                   	ret    
    4bc5:	8d 76 00             	lea    0x0(%esi),%esi
    4bc8:	b8 f2 ff ff ff       	mov    $0xfffffff2,%eax
    4bcd:	eb ef                	jmp    4bbe <usbhid_dev_get_event_length+0x5e>
    4bcf:	90                   	nop

00004bd0 <usbhid_dev_get_event>:
    4bd0:	55                   	push   %ebp
    4bd1:	89 e5                	mov    %esp,%ebp
    4bd3:	57                   	push   %edi
    4bd4:	56                   	push   %esi
    4bd5:	53                   	push   %ebx
    4bd6:	83 ec 6c             	sub    $0x6c,%esp
    4bd9:	8b 75 08             	mov    0x8(%ebp),%esi
    4bdc:	8b 5d 10             	mov    0x10(%ebp),%ebx
    4bdf:	85 f6                	test   %esi,%esi
    4be1:	0f 84 01 01 00 00    	je     4ce8 <usbhid_dev_get_event+0x118>
    4be7:	8b 45 0c             	mov    0xc(%ebp),%eax
    4bea:	85 c0                	test   %eax,%eax
    4bec:	0f 84 12 01 00 00    	je     4d04 <usbhid_dev_get_event+0x134>
    4bf2:	85 db                	test   %ebx,%ebx
    4bf4:	0f 84 ee 00 00 00    	je     4ce8 <usbhid_dev_get_event+0x118>
    4bfa:	83 ec 0c             	sub    $0xc,%esp
    4bfd:	53                   	push   %ebx
    4bfe:	e8 6d 29 00 00       	call   7570 <malloc@plt>
    4c03:	83 c4 10             	add    $0x10,%esp
    4c06:	89 c7                	mov    %eax,%edi
    4c08:	85 c0                	test   %eax,%eax
    4c0a:	0f 84 f4 00 00 00    	je     4d04 <usbhid_dev_get_event+0x134>
    4c10:	83 ec 0c             	sub    $0xc,%esp
    4c13:	56                   	push   %esi
    4c14:	e8 47 2a 00 00       	call   7660 <async_exchange_begin@plt>
    4c19:	83 c4 0c             	add    $0xc,%esp
    4c1c:	89 c6                	mov    %eax,%esi
    4c1e:	8d 45 a0             	lea    -0x60(%ebp),%eax
    4c21:	50                   	push   %eax
    4c22:	8b 45 1c             	mov    0x1c(%ebp),%eax
    4c25:	6a 00                	push   $0x0
    4c27:	6a 00                	push   $0x0
    4c29:	50                   	push   %eax
    4c2a:	6a 01                	push   $0x1
    4c2c:	68 0a 04 00 00       	push   $0x40a
    4c31:	56                   	push   %esi
    4c32:	e8 89 29 00 00       	call   75c0 <async_send_fast@plt>
    4c37:	83 c4 20             	add    $0x20,%esp
    4c3a:	89 45 94             	mov    %eax,-0x6c(%ebp)
    4c3d:	85 c0                	test   %eax,%eax
    4c3f:	0f 84 ab 00 00 00    	je     4cf0 <usbhid_dev_get_event+0x120>
    4c45:	8d 45 c4             	lea    -0x3c(%ebp),%eax
    4c48:	50                   	push   %eax
    4c49:	53                   	push   %ebx
    4c4a:	57                   	push   %edi
    4c4b:	56                   	push   %esi
    4c4c:	e8 8f 29 00 00       	call   75e0 <async_data_read@plt>
    4c51:	89 34 24             	mov    %esi,(%esp)
    4c54:	89 c3                	mov    %eax,%ebx
    4c56:	e8 a5 29 00 00       	call   7600 <async_exchange_end@plt>
    4c5b:	83 c4 10             	add    $0x10,%esp
    4c5e:	85 db                	test   %ebx,%ebx
    4c60:	0f 84 aa 00 00 00    	je     4d10 <usbhid_dev_get_event+0x140>
    4c66:	50                   	push   %eax
    4c67:	50                   	push   %eax
    4c68:	8d 45 98             	lea    -0x68(%ebp),%eax
    4c6b:	50                   	push   %eax
    4c6c:	53                   	push   %ebx
    4c6d:	e8 be 28 00 00       	call   7530 <async_wait_for@plt>
    4c72:	58                   	pop    %eax
    4c73:	8b 4d 94             	mov    -0x6c(%ebp),%ecx
    4c76:	8d 45 9c             	lea    -0x64(%ebp),%eax
    4c79:	5a                   	pop    %edx
    4c7a:	50                   	push   %eax
    4c7b:	51                   	push   %ecx
    4c7c:	e8 af 28 00 00       	call   7530 <async_wait_for@plt>
    4c81:	8b 45 98             	mov    -0x68(%ebp),%eax
    4c84:	83 c4 10             	add    $0x10,%esp
    4c87:	85 c0                	test   %eax,%eax
    4c89:	74 15                	je     4ca0 <usbhid_dev_get_event+0xd0>
    4c8b:	8b 55 9c             	mov    -0x64(%ebp),%edx
    4c8e:	85 d2                	test   %edx,%edx
    4c90:	74 15                	je     4ca7 <usbhid_dev_get_event+0xd7>
    4c92:	8d 65 f4             	lea    -0xc(%ebp),%esp
    4c95:	89 d0                	mov    %edx,%eax
    4c97:	5b                   	pop    %ebx
    4c98:	5e                   	pop    %esi
    4c99:	5f                   	pop    %edi
    4c9a:	5d                   	pop    %ebp
    4c9b:	c3                   	ret    
    4c9c:	8d 74 26 00          	lea    0x0(%esi,%eiz,1),%esi
    4ca0:	8b 45 9c             	mov    -0x64(%ebp),%eax
    4ca3:	85 c0                	test   %eax,%eax
    4ca5:	74 09                	je     4cb0 <usbhid_dev_get_event+0xe0>
    4ca7:	8d 65 f4             	lea    -0xc(%ebp),%esp
    4caa:	5b                   	pop    %ebx
    4cab:	5e                   	pop    %esi
    4cac:	5f                   	pop    %edi
    4cad:	5d                   	pop    %ebp
    4cae:	c3                   	ret    
    4caf:	90                   	nop
    4cb0:	8b 5d cc             	mov    -0x34(%ebp),%ebx
    4cb3:	8b 4d 0c             	mov    0xc(%ebp),%ecx
    4cb6:	52                   	push   %edx
    4cb7:	53                   	push   %ebx
    4cb8:	57                   	push   %edi
    4cb9:	51                   	push   %ecx
    4cba:	e8 a1 28 00 00       	call   7560 <memcpy@plt>
    4cbf:	8b 75 14             	mov    0x14(%ebp),%esi
    4cc2:	83 c4 10             	add    $0x10,%esp
    4cc5:	85 f6                	test   %esi,%esi
    4cc7:	74 05                	je     4cce <usbhid_dev_get_event+0xfe>
    4cc9:	8b 45 14             	mov    0x14(%ebp),%eax
    4ccc:	89 18                	mov    %ebx,(%eax)
    4cce:	8b 45 18             	mov    0x18(%ebp),%eax
    4cd1:	85 c0                	test   %eax,%eax
    4cd3:	74 63                	je     4d38 <usbhid_dev_get_event+0x168>
    4cd5:	8b 4d 18             	mov    0x18(%ebp),%ecx
    4cd8:	8b 45 a4             	mov    -0x5c(%ebp),%eax
    4cdb:	89 01                	mov    %eax,(%ecx)
    4cdd:	8d 65 f4             	lea    -0xc(%ebp),%esp
    4ce0:	31 c0                	xor    %eax,%eax
    4ce2:	5b                   	pop    %ebx
    4ce3:	5e                   	pop    %esi
    4ce4:	5f                   	pop    %edi
    4ce5:	5d                   	pop    %ebp
    4ce6:	c3                   	ret    
    4ce7:	90                   	nop
    4ce8:	b8 f2 ff ff ff       	mov    $0xfffffff2,%eax
    4ced:	eb b8                	jmp    4ca7 <usbhid_dev_get_event+0xd7>
    4cef:	90                   	nop
    4cf0:	83 ec 0c             	sub    $0xc,%esp
    4cf3:	56                   	push   %esi
    4cf4:	e8 07 29 00 00       	call   7600 <async_exchange_end@plt>
    4cf9:	89 3c 24             	mov    %edi,(%esp)
    4cfc:	e8 ff 29 00 00       	call   7700 <free@plt>
    4d01:	83 c4 10             	add    $0x10,%esp
    4d04:	b8 fe ff ff ff       	mov    $0xfffffffe,%eax
    4d09:	eb 9c                	jmp    4ca7 <usbhid_dev_get_event+0xd7>
    4d0b:	90                   	nop
    4d0c:	8d 74 26 00          	lea    0x0(%esi,%eiz,1),%esi
    4d10:	83 ec 0c             	sub    $0xc,%esp
    4d13:	8b 5d 94             	mov    -0x6c(%ebp),%ebx
    4d16:	53                   	push   %ebx
    4d17:	e8 94 29 00 00       	call   76b0 <async_forget@plt>
    4d1c:	89 3c 24             	mov    %edi,(%esp)
    4d1f:	e8 dc 29 00 00       	call   7700 <free@plt>
    4d24:	83 c4 10             	add    $0x10,%esp
    4d27:	b8 fe ff ff ff       	mov    $0xfffffffe,%eax
    4d2c:	e9 76 ff ff ff       	jmp    4ca7 <usbhid_dev_get_event+0xd7>
    4d31:	8d b4 26 00 00 00 00 	lea    0x0(%esi,%eiz,1),%esi
    4d38:	31 c0                	xor    %eax,%eax
    4d3a:	e9 68 ff ff ff       	jmp    4ca7 <usbhid_dev_get_event+0xd7>
    4d3f:	90                   	nop

00004d40 <usbhid_dev_get_report_descriptor_length>:
    4d40:	55                   	push   %ebp
    4d41:	89 e5                	mov    %esp,%ebp
    4d43:	56                   	push   %esi
    4d44:	53                   	push   %ebx
    4d45:	83 ec 20             	sub    $0x20,%esp
    4d48:	8b 45 08             	mov    0x8(%ebp),%eax
    4d4b:	8b 5d 0c             	mov    0xc(%ebp),%ebx
    4d4e:	85 c0                	test   %eax,%eax
    4d50:	74 56                	je     4da8 <usbhid_dev_get_report_descriptor_length+0x68>
    4d52:	83 ec 0c             	sub    $0xc,%esp
    4d55:	50                   	push   %eax
    4d56:	e8 05 29 00 00       	call   7660 <async_exchange_begin@plt>
    4d5b:	83 c4 0c             	add    $0xc,%esp
    4d5e:	89 c6                	mov    %eax,%esi
    4d60:	8d 45 f4             	lea    -0xc(%ebp),%eax
    4d63:	6a 00                	push   $0x0
    4d65:	6a 00                	push   $0x0
    4d67:	6a 00                	push   $0x0
    4d69:	6a 00                	push   $0x0
    4d6b:	50                   	push   %eax
    4d6c:	6a 00                	push   $0x0
    4d6e:	6a 00                	push   $0x0
    4d70:	6a 00                	push   $0x0
    4d72:	6a 02                	push   $0x2
    4d74:	68 0a 04 00 00       	push   $0x40a
    4d79:	56                   	push   %esi
    4d7a:	e8 11 28 00 00       	call   7590 <async_req_fast@plt>
    4d7f:	83 c4 24             	add    $0x24,%esp
    4d82:	89 45 e4             	mov    %eax,-0x1c(%ebp)
    4d85:	56                   	push   %esi
    4d86:	e8 75 28 00 00       	call   7600 <async_exchange_end@plt>
    4d8b:	8b 45 e4             	mov    -0x1c(%ebp),%eax
    4d8e:	83 c4 10             	add    $0x10,%esp
    4d91:	85 c0                	test   %eax,%eax
    4d93:	75 09                	jne    4d9e <usbhid_dev_get_report_descriptor_length+0x5e>
    4d95:	85 db                	test   %ebx,%ebx
    4d97:	74 05                	je     4d9e <usbhid_dev_get_report_descriptor_length+0x5e>
    4d99:	8b 55 f4             	mov    -0xc(%ebp),%edx
    4d9c:	89 13                	mov    %edx,(%ebx)
    4d9e:	8d 65 f8             	lea    -0x8(%ebp),%esp
    4da1:	5b                   	pop    %ebx
    4da2:	5e                   	pop    %esi
    4da3:	5d                   	pop    %ebp
    4da4:	c3                   	ret    
    4da5:	8d 76 00             	lea    0x0(%esi),%esi
    4da8:	b8 f2 ff ff ff       	mov    $0xfffffff2,%eax
    4dad:	eb ef                	jmp    4d9e <usbhid_dev_get_report_descriptor_length+0x5e>
    4daf:	90                   	nop

00004db0 <usbhid_dev_get_report_descriptor>:
    4db0:	55                   	push   %ebp
    4db1:	89 e5                	mov    %esp,%ebp
    4db3:	57                   	push   %edi
    4db4:	56                   	push   %esi
    4db5:	53                   	push   %ebx
    4db6:	83 ec 3c             	sub    $0x3c,%esp
    4db9:	8b 45 08             	mov    0x8(%ebp),%eax
    4dbc:	8b 5d 0c             	mov    0xc(%ebp),%ebx
    4dbf:	85 c0                	test   %eax,%eax
    4dc1:	0f 84 c1 00 00 00    	je     4e88 <usbhid_dev_get_report_descriptor+0xd8>
    4dc7:	85 db                	test   %ebx,%ebx
    4dc9:	0f 84 f5 00 00 00    	je     4ec4 <usbhid_dev_get_report_descriptor+0x114>
    4dcf:	8b 55 10             	mov    0x10(%ebp),%edx
    4dd2:	85 d2                	test   %edx,%edx
    4dd4:	0f 84 ae 00 00 00    	je     4e88 <usbhid_dev_get_report_descriptor+0xd8>
    4dda:	83 ec 0c             	sub    $0xc,%esp
    4ddd:	50                   	push   %eax
    4dde:	e8 7d 28 00 00       	call   7660 <async_exchange_begin@plt>
    4de3:	83 c4 0c             	add    $0xc,%esp
    4de6:	89 c6                	mov    %eax,%esi
    4de8:	6a 00                	push   $0x0
    4dea:	6a 00                	push   $0x0
    4dec:	6a 00                	push   $0x0
    4dee:	6a 00                	push   $0x0
    4df0:	6a 03                	push   $0x3
    4df2:	68 0a 04 00 00       	push   $0x40a
    4df7:	50                   	push   %eax
    4df8:	e8 c3 27 00 00       	call   75c0 <async_send_fast@plt>
    4dfd:	83 c4 20             	add    $0x20,%esp
    4e00:	89 c7                	mov    %eax,%edi
    4e02:	85 c0                	test   %eax,%eax
    4e04:	0f 84 86 00 00 00    	je     4e90 <usbhid_dev_get_report_descriptor+0xe0>
    4e0a:	8d 45 c4             	lea    -0x3c(%ebp),%eax
    4e0d:	50                   	push   %eax
    4e0e:	8b 45 10             	mov    0x10(%ebp),%eax
    4e11:	50                   	push   %eax
    4e12:	53                   	push   %ebx
    4e13:	56                   	push   %esi
    4e14:	e8 c7 27 00 00       	call   75e0 <async_data_read@plt>
    4e19:	89 c3                	mov    %eax,%ebx
    4e1b:	89 34 24             	mov    %esi,(%esp)
    4e1e:	e8 dd 27 00 00       	call   7600 <async_exchange_end@plt>
    4e23:	83 c4 10             	add    $0x10,%esp
    4e26:	85 db                	test   %ebx,%ebx
    4e28:	74 7e                	je     4ea8 <usbhid_dev_get_report_descriptor+0xf8>
    4e2a:	8d 45 bc             	lea    -0x44(%ebp),%eax
    4e2d:	51                   	push   %ecx
    4e2e:	51                   	push   %ecx
    4e2f:	50                   	push   %eax
    4e30:	53                   	push   %ebx
    4e31:	e8 fa 26 00 00       	call   7530 <async_wait_for@plt>
    4e36:	8d 45 c0             	lea    -0x40(%ebp),%eax
    4e39:	5b                   	pop    %ebx
    4e3a:	5e                   	pop    %esi
    4e3b:	50                   	push   %eax
    4e3c:	57                   	push   %edi
    4e3d:	e8 ee 26 00 00       	call   7530 <async_wait_for@plt>
    4e42:	8b 45 bc             	mov    -0x44(%ebp),%eax
    4e45:	83 c4 10             	add    $0x10,%esp
    4e48:	85 c0                	test   %eax,%eax
    4e4a:	75 24                	jne    4e70 <usbhid_dev_get_report_descriptor+0xc0>
    4e4c:	8b 45 c0             	mov    -0x40(%ebp),%eax
    4e4f:	85 c0                	test   %eax,%eax
    4e51:	75 11                	jne    4e64 <usbhid_dev_get_report_descriptor+0xb4>
    4e53:	8b 55 14             	mov    0x14(%ebp),%edx
    4e56:	8b 45 cc             	mov    -0x34(%ebp),%eax
    4e59:	85 d2                	test   %edx,%edx
    4e5b:	74 63                	je     4ec0 <usbhid_dev_get_report_descriptor+0x110>
    4e5d:	8b 4d 14             	mov    0x14(%ebp),%ecx
    4e60:	89 01                	mov    %eax,(%ecx)
    4e62:	31 c0                	xor    %eax,%eax
    4e64:	8d 65 f4             	lea    -0xc(%ebp),%esp
    4e67:	5b                   	pop    %ebx
    4e68:	5e                   	pop    %esi
    4e69:	5f                   	pop    %edi
    4e6a:	5d                   	pop    %ebp
    4e6b:	c3                   	ret    
    4e6c:	8d 74 26 00          	lea    0x0(%esi,%eiz,1),%esi
    4e70:	8b 55 c0             	mov    -0x40(%ebp),%edx
    4e73:	85 d2                	test   %edx,%edx
    4e75:	74 ed                	je     4e64 <usbhid_dev_get_report_descriptor+0xb4>
    4e77:	8d 65 f4             	lea    -0xc(%ebp),%esp
    4e7a:	89 d0                	mov    %edx,%eax
    4e7c:	5b                   	pop    %ebx
    4e7d:	5e                   	pop    %esi
    4e7e:	5f                   	pop    %edi
    4e7f:	5d                   	pop    %ebp
    4e80:	c3                   	ret    
    4e81:	8d b4 26 00 00 00 00 	lea    0x0(%esi,%eiz,1),%esi
    4e88:	b8 f2 ff ff ff       	mov    $0xfffffff2,%eax
    4e8d:	eb d5                	jmp    4e64 <usbhid_dev_get_report_descriptor+0xb4>
    4e8f:	90                   	nop
    4e90:	83 ec 0c             	sub    $0xc,%esp
    4e93:	56                   	push   %esi
    4e94:	e8 67 27 00 00       	call   7600 <async_exchange_end@plt>
    4e99:	83 c4 10             	add    $0x10,%esp
    4e9c:	b8 fe ff ff ff       	mov    $0xfffffffe,%eax
    4ea1:	eb c1                	jmp    4e64 <usbhid_dev_get_report_descriptor+0xb4>
    4ea3:	90                   	nop
    4ea4:	8d 74 26 00          	lea    0x0(%esi,%eiz,1),%esi
    4ea8:	83 ec 0c             	sub    $0xc,%esp
    4eab:	57                   	push   %edi
    4eac:	e8 ff 27 00 00       	call   76b0 <async_forget@plt>
    4eb1:	83 c4 10             	add    $0x10,%esp
    4eb4:	b8 fe ff ff ff       	mov    $0xfffffffe,%eax
    4eb9:	eb a9                	jmp    4e64 <usbhid_dev_get_report_descriptor+0xb4>
    4ebb:	90                   	nop
    4ebc:	8d 74 26 00          	lea    0x0(%esi,%eiz,1),%esi
    4ec0:	31 c0                	xor    %eax,%eax
    4ec2:	eb a0                	jmp    4e64 <usbhid_dev_get_report_descriptor+0xb4>
    4ec4:	b8 fe ff ff ff       	mov    $0xfffffffe,%eax
    4ec9:	eb 99                	jmp    4e64 <usbhid_dev_get_report_descriptor+0xb4>
    4ecb:	90                   	nop
    4ecc:	50                   	push   %eax
    4ecd:	72 65                	jb     4f34 <usbhid_dev_get_report_descriptor+0x184>
    4ecf:	73 73                	jae    4f44 <usbhid_dev_get_report_descriptor+0x194>
    4ed1:	20 3c 45 53 43 3e 20 	and    %bh,0x203e4353(,%eax,2)
    4ed8:	74 6f                	je     4f49 <usbhid_dev_get_report_descriptor+0x199>
    4eda:	20 71 75             	and    %dh,0x75(%ecx)
    4edd:	69 74 20 74 68 65 20 	imul   $0x61206568,0x74(%eax,%eiz,1),%esi
    4ee4:	61 
    4ee5:	70 70                	jo     4f57 <usbhid_dev_get_report_descriptor+0x1a7>
    4ee7:	6c                   	insb   (%dx),%es:(%edi)
    4ee8:	69 63 61 74 69 6f 6e 	imul   $0x6e6f6974,0x61(%ebx),%esp
    4eef:	2e 0a 00             	or     %cs:(%eax),%al
    4ef2:	00 00                	add    %al,(%eax)
    4ef4:	43                   	inc    %ebx
    4ef5:	6f                   	outsl  %ds:(%esi),(%dx)
    4ef6:	6e                   	outsb  %ds:(%esi),(%dx)
    4ef7:	6e                   	outsb  %ds:(%esi),(%dx)
    4ef8:	65 63 74 69 6f       	arpl   %si,%gs:0x6f(%ecx,%ebp,2)
    4efd:	6e                   	outsb  %ds:(%esi),(%dx)
    4efe:	20 77 69             	and    %dh,0x69(%edi)
    4f01:	74 68                	je     4f6b <usbhid_dev_get_report_descriptor+0x1bb>
    4f03:	20 63 6f             	and    %ah,0x6f(%ebx)
    4f06:	6e                   	outsb  %ds:(%esi),(%dx)
    4f07:	73 6f                	jae    4f78 <usbhid_dev_get_report_descriptor+0x1c8>
    4f09:	6c                   	insb   (%dx),%es:(%edi)
    4f0a:	65 20 62 72          	and    %ah,%gs:0x72(%edx)
    4f0e:	6f                   	outsl  %ds:(%esi),(%dx)
    4f0f:	6b 65 6e 3a          	imul   $0x3a,0x6e(%ebp),%esp
    4f13:	20 25 73 2e 0a 00    	and    %ah,0xa2e73
    4f19:	00 00                	add    %al,(%eax)
    4f1b:	00 6d 6b             	add    %ch,0x6b(%ebp)
    4f1e:	62 64 3a 20          	bound  %esp,0x20(%edx,%edi,1)
    4f22:	50                   	push   %eax
    4f23:	72 69                	jb     4f8e <usbhid_dev_get_report_descriptor+0x1de>
    4f25:	6e                   	outsb  %ds:(%esi),(%dx)
    4f26:	74 20                	je     4f48 <usbhid_dev_get_report_descriptor+0x198>
    4f28:	6f                   	outsl  %ds:(%esi),(%dx)
    4f29:	75 74                	jne    4f9f <usbhid_dev_get_report_descriptor+0x1ef>
    4f2b:	20 77 68             	and    %dh,0x68(%edi)
    4f2e:	61                   	popa   
    4f2f:	74 20                	je     4f51 <usbhid_dev_get_report_descriptor+0x1a1>
    4f31:	6d                   	insl   (%dx),%es:(%edi)
    4f32:	75 6c                	jne    4fa0 <usbhid_dev_get_report_descriptor+0x1f0>
    4f34:	74 69                	je     4f9f <usbhid_dev_get_report_descriptor+0x1ef>
    4f36:	6d                   	insl   (%dx),%es:(%edi)
    4f37:	65 64 69 61 20 6b 65 	gs imul $0x7379656b,%fs:0x20(%ecx),%esp
    4f3e:	79 73 
    4f40:	20 77 65             	and    %dh,0x65(%edi)
    4f43:	72 65                	jb     4faa <usbhid_dev_get_report_descriptor+0x1fa>
    4f45:	20 70 72             	and    %dh,0x72(%eax)
    4f48:	65 73 73             	gs jae 4fbe <usbhid_dev_get_report_descriptor+0x20e>
    4f4b:	65 64 2e 0a 0a       	gs fs or %cs:(%edx),%cl
    4f50:	00 00                	add    %al,(%eax)
    4f52:	00 00                	add    %al,(%eax)
    4f54:	20 20                	and    %ah,(%eax)
    4f56:	20 20                	and    %ah,(%eax)
    4f58:	20 20                	and    %ah,(%eax)
    4f5a:	54                   	push   %esp
    4f5b:	68 65 20 64 65       	push   $0x65642065
    4f60:	76 69                	jbe    4fcb <usbhid_dev_get_report_descriptor+0x21b>
    4f62:	63 65 20             	arpl   %sp,0x20(%ebp)
    4f65:	69 73 20 61 20 64 65 	imul   $0x65642061,0x20(%ebx),%esi
    4f6c:	76 6d                	jbe    4fdb <usbhid_dev_get_report_descriptor+0x22b>
    4f6e:	61                   	popa   
    4f6f:	6e                   	outsb  %ds:(%esi),(%dx)
    4f70:	20 70 61             	and    %dh,0x61(%eax)
    4f73:	74 68                	je     4fdd <usbhid_dev_get_report_descriptor+0x22d>
    4f75:	20 74 6f 20          	and    %dh,0x20(%edi,%ebp,2)
    4f79:	74 68                	je     4fe3 <usbhid_dev_get_report_descriptor+0x233>
    4f7b:	65 20 64 65 76       	and    %ah,%gs:0x76(%ebp,%eiz,2)
    4f80:	69 63 65 2e 0a 00 00 	imul   $0xa2e,0x65(%ebx),%esp
    4f87:	00 44 65 76          	add    %al,0x76(%ebp,%eiz,2)
    4f8b:	69 63 65 20 6e 6f 74 	imul   $0x746f6e20,0x65(%ebx),%esp
    4f92:	20 66 6f             	and    %ah,0x6f(%esi)
    4f95:	75 6e                	jne    5005 <usbhid_dev_get_report_descriptor+0x255>
    4f97:	64 20 6f 72          	and    %ch,%fs:0x72(%edi)
    4f9b:	20 6e 6f             	and    %ch,0x6f(%esi)
    4f9e:	74 20                	je     4fc0 <usbhid_dev_get_report_descriptor+0x210>
    4fa0:	6f                   	outsl  %ds:(%esi),(%dx)
    4fa1:	66 20 55 53          	data16 and %dl,0x53(%ebp)
    4fa5:	42                   	inc    %edx
    4fa6:	20 6b 69             	and    %ch,0x69(%ebx)
    4fa9:	6e                   	outsb  %ds:(%esi),(%dx)
    4faa:	64 3a 20             	cmp    %fs:(%eax),%ah
    4fad:	25 73 2e 0a 00       	and    $0xa2e73,%eax
    4fb2:	00 00                	add    %al,(%eax)
    4fb4:	6d                   	insl   (%dx),%es:(%edi)
    4fb5:	6b 62 64 3a          	imul   $0x3a,0x64(%edx),%esp
    4fb9:	20 66 61             	and    %ah,0x61(%esi)
    4fbc:	69 6c 65 64 20 74 6f 	imul   $0x206f7420,0x64(%ebp,%eiz,2),%ebp
    4fc3:	20 
    4fc4:	63 6f 6e             	arpl   %bp,0x6e(%edi)
    4fc7:	6e                   	outsb  %ds:(%esi),(%dx)
    4fc8:	65 63 74 20 74       	arpl   %si,%gs:0x74(%eax,%eiz,1)
    4fcd:	6f                   	outsl  %ds:(%esi),(%dx)
    4fce:	20 74 68 65          	and    %dh,0x65(%eax,%ebp,2)
    4fd2:	20 64 65 76          	and    %ah,0x76(%ebp,%eiz,2)
    4fd6:	69 63 65 20 28 68 61 	imul   $0x61682820,0x65(%ebx),%esp
    4fdd:	6e                   	outsb  %ds:(%esi),(%dx)
    4fde:	64 6c                	fs insb (%dx),%es:(%edi)
    4fe0:	65 20 25 75 29 3a 20 	and    %ah,%gs:0x203a2975
    4fe7:	25 73 2e 0a 00       	and    $0xa2e73,%eax
    4fec:	46                   	inc    %esi
    4fed:	61                   	popa   
    4fee:	69 6c 65 64 20 74 6f 	imul   $0x206f7420,0x64(%ebp,%eiz,2),%ebp
    4ff5:	20 
    4ff6:	69 6e 69 74 69 61 6c 	imul   $0x6c616974,0x69(%esi),%ebp
    4ffd:	69 7a 65 20 72 65 70 	imul   $0x70657220,0x65(%edx),%edi
    5004:	6f                   	outsl  %ds:(%esi),(%dx)
    5005:	72 74                	jb     507b <usbhid_dev_get_report_descriptor+0x2cb>
    5007:	20 70 61             	and    %dh,0x61(%eax)
    500a:	72 73                	jb     507f <usbhid_dev_get_report_descriptor+0x2cf>
    500c:	65 72 3a             	gs jb  5049 <usbhid_dev_get_report_descriptor+0x299>
    500f:	20 25 73 0a 00 46    	and    %ah,0x46000a73
    5015:	61                   	popa   
    5016:	69 6c 65 64 20 74 6f 	imul   $0x206f7420,0x64(%ebp,%eiz,2),%ebp
    501d:	20 
    501e:	67 65 74 20          	addr16 gs je 5042 <usbhid_dev_get_report_descriptor+0x292>
    5022:	65 76 65             	gs jbe 508a <usbhid_dev_get_report_descriptor+0x2da>
    5025:	6e                   	outsb  %ds:(%esi),(%dx)
    5026:	74 20                	je     5048 <usbhid_dev_get_report_descriptor+0x298>
    5028:	6c                   	insb   (%dx),%es:(%edi)
    5029:	65 6e                	outsb  %gs:(%esi),(%dx)
    502b:	67 74 68             	addr16 je 5096 <usbhid_dev_get_report_descriptor+0x2e6>
    502e:	3a 20                	cmp    (%eax),%ah
    5030:	25 73 2e 0a 00       	and    $0xa2e73,%eax
    5035:	00 00                	add    %al,(%eax)
    5037:	00 46 61             	add    %al,0x61(%esi)
    503a:	69 6c 65 64 20 74 6f 	imul   $0x206f7420,0x64(%ebp,%eiz,2),%ebp
    5041:	20 
    5042:	73 74                	jae    50b8 <usbhid_dev_get_report_descriptor+0x308>
    5044:	61                   	popa   
    5045:	72 74                	jb     50bb <usbhid_dev_get_report_descriptor+0x30b>
    5047:	20 65 78             	and    %ah,0x78(%ebp)
    504a:	74 72                	je     50be <usbhid_dev_get_report_descriptor+0x30e>
    504c:	61                   	popa   
    504d:	20 66 69             	and    %ah,0x69(%esi)
    5050:	62 72 69             	bound  %esi,0x69(%edx)
    5053:	6c                   	insb   (%dx),%es:(%edi)
    5054:	2e 0a 00             	or     %cs:(%eax),%al
    5057:	00 45 72             	add    %al,0x72(%ebp)
    505a:	72 6f                	jb     50cb <usbhid_dev_get_report_descriptor+0x31b>
    505c:	72 20                	jb     507e <usbhid_dev_get_report_descriptor+0x2ce>
    505e:	69 6e 20 67 65 74 74 	imul   $0x74746567,0x20(%esi),%ebp
    5065:	69 6e 67 20 65 76 65 	imul   $0x65766520,0x67(%esi),%ebp
    506c:	6e                   	outsb  %ds:(%esi),(%dx)
    506d:	74 20                	je     508f <usbhid_dev_get_report_descriptor+0x2df>
    506f:	66 72 6f             	data16 jb 50e1 <usbhid_dev_get_report_descriptor+0x331>
    5072:	6d                   	insl   (%dx),%es:(%edi)
    5073:	20 74 68 65          	and    %dh,0x65(%eax,%ebp,2)
    5077:	20 48 49             	and    %cl,0x49(%eax)
    507a:	44                   	inc    %esp
    507b:	20 64 72 69          	and    %ah,0x69(%edx,%esi,2)
    507f:	76 65                	jbe    50e6 <usbhid_dev_get_report_descriptor+0x336>
    5081:	72 3a                	jb     50bd <usbhid_dev_get_report_descriptor+0x30d>
    5083:	25 73 2e 0a 00       	and    $0xa2e73,%eax
    5088:	55                   	push   %ebp
    5089:	73 61                	jae    50ec <usbhid_dev_get_report_descriptor+0x33c>
    508b:	67 65 3a 20          	cmp    %gs:(%bx,%si),%ah
    508f:	25 73 20 64 65       	and    $0x65642073,%eax
    5094:	76 69                	jbe    50ff <usbhid_dev_get_report_descriptor+0x34f>
    5096:	63 65 0a             	arpl   %sp,0xa(%ebp)
    5099:	00 44 65 76          	add    %al,0x76(%ebp,%eiz,2)
    509d:	69 63 65 20 70 61 74 	imul   $0x74617020,0x65(%ebx),%esp
    50a4:	68 3a 20 25 73       	push   $0x7325203a
    50a9:	0a 00                	or     (%eax),%al
    50ab:	50                   	push   %eax
    50ac:	72 65                	jb     5113 <usbhid_dev_get_report_descriptor+0x363>
    50ae:	73 73                	jae    5123 <usbhid_dev_get_report_descriptor+0x373>
    50b0:	65 64 20 6b 65       	gs and %ch,%fs:0x65(%ebx)
    50b5:	79 3a                	jns    50f1 <usbhid_dev_get_report_descriptor+0x341>
    50b7:	20 25 73 0a 00 f8    	and    %ah,0xf8000a73
    50bd:	1c 00                	sbb    $0x0,%al
    50bf:	00 f8                	add    %bh,%al
    50c1:	1c 00                	sbb    $0x0,%al
    50c3:	00 78 1c             	add    %bh,0x1c(%eax)
    50c6:	00 00                	add    %al,(%eax)
    50c8:	f8                   	clc    
    50c9:	1c 00                	sbb    $0x0,%al
    50cb:	00 10                	add    %dl,(%eax)
    50cd:	1d 00 00 a8 1d       	sbb    $0x1da80000,%eax
    50d2:	00 00                	add    %al,(%eax)
    50d4:	d8 1d 00 00 d8 1f    	fcomps 0x1fd80000
    50da:	00 00                	add    %al,(%eax)
    50dc:	d8 1e                	fcomps (%esi)
    50de:	00 00                	add    %al,(%eax)
    50e0:	68 20 00 00 68       	push   $0x68000020
    50e5:	1e                   	push   %ds
    50e6:	00 00                	add    %al,(%eax)
    50e8:	a0 1e 00 00 68       	mov    0x6800001e,%al
    50ed:	1f                   	pop    %ds
    50ee:	00 00                	add    %al,(%eax)
    50f0:	a0 1f 00 00 68       	mov    0x6800001f,%al
    50f5:	1d 00 00 98 1d       	sbb    $0x1d980000,%eax
    50fa:	00 00                	add    %al,(%eax)
    50fc:	98                   	cwtl   
    50fd:	1d 00 00 30 23       	sbb    $0x23300000,%eax
    5102:	00 00                	add    %al,(%eax)
    5104:	a8 23                	test   $0x23,%al
    5106:	00 00                	add    %al,(%eax)
    5108:	d0 24 00             	shlb   (%eax,%eax,1)
    510b:	00 60 24             	add    %ah,0x24(%eax)
    510e:	00 00                	add    %al,(%eax)
    5110:	b8 25 00 00 f0       	mov    $0xf0000025,%eax
    5115:	23 00                	and    (%eax),%eax
    5117:	00 08                	add    %cl,(%eax)
    5119:	22 00                	and    (%eax),%al
    511b:	00 28                	add    %ch,(%eax)
    511d:	24 00                	and    $0x0,%al
    511f:	00 98 24 00 00 80    	add    %bl,-0x7fffffdc(%eax)
    5125:	25 00 00 f8 22       	and    $0x22f80000,%eax
    512a:	00 00                	add    %al,(%eax)
    512c:	c8 22 00 00          	enter  $0x22,$0x0
    5130:	c8 22 00 00          	enter  $0x22,$0x0
    5134:	48                   	dec    %eax
    5135:	22 00                	and    (%eax),%al
    5137:	00 c8                	add    %cl,%al
    5139:	22 00                	and    (%eax),%al
    513b:	00 e0                	add    %ah,%al
    513d:	22 00                	and    (%eax),%al
    513f:	00 10                	add    %dl,(%eax)
    5141:	27                   	daa    
    5142:	00 00                	add    %al,(%eax)
    5144:	88 27                	mov    %ah,(%edi)
    5146:	00 00                	add    %al,(%eax)
    5148:	78 28                	js     5172 <usbhid_dev_get_report_descriptor+0x3c2>
    514a:	00 00                	add    %al,(%eax)
    514c:	08 28                	or     %ch,(%eax)
    514e:	00 00                	add    %al,(%eax)
    5150:	58                   	pop    %eax
    5151:	29 00                	sub    %eax,(%eax)
    5153:	00 d0                	add    %dl,%al
    5155:	27                   	daa    
    5156:	00 00                	add    %al,(%eax)
    5158:	c0 29 00             	shrb   $0x0,(%ecx)
    515b:	00 28                	add    %ch,(%eax)
    515d:	29 00                	sub    %eax,(%eax)
    515f:	00 40 28             	add    %al,0x28(%eax)
    5162:	00 00                	add    %al,(%eax)
    5164:	88 29                	mov    %ch,(%ecx)
    5166:	00 00                	add    %al,(%eax)
    5168:	d8 26                	fsubs  (%esi)
    516a:	00 00                	add    %al,(%eax)
    516c:	58                   	pop    %eax
    516d:	2d 00 00 58 2d       	sub    $0x2d580000,%eax
    5172:	00 00                	add    %al,(%eax)
    5174:	d0 2c 00             	shrb   (%eax,%eax,1)
    5177:	00 58 2d             	add    %bl,0x2d(%eax)
    517a:	00 00                	add    %al,(%eax)
    517c:	d0 2d 00 00 09 6a    	shrb   0x6a090000
    5182:	75 6d                	jne    51f1 <usbhid_dev_get_report_descriptor+0x441>
    5184:	70 20                	jo     51a6 <usbhid_dev_get_report_descriptor+0x3f6>
    5186:	6f                   	outsl  %ds:(%esi),(%dx)
    5187:	76 65                	jbe    51ee <usbhid_dev_get_report_descriptor+0x43e>
    5189:	72 20                	jb     51ab <usbhid_dev_get_report_descriptor+0x3fb>
    518b:	2d 20 74 61 67       	sub    $0x67617420,%eax
    5190:	20 25 58 0a 00 09    	and    %ah,0x9000a58
    5196:	65 6d                	gs insl (%dx),%es:(%edi)
    5198:	70 74                	jo     520e <usbhid_dev_get_report_descriptor+0x45e>
    519a:	79 0a                	jns    51a6 <usbhid_dev_get_report_descriptor+0x3f6>
    519c:	00 09                	add    %cl,(%ecx)
    519e:	09 4f 46             	or     %ecx,0x46(%edi)
    51a1:	46                   	inc    %esi
    51a2:	53                   	push   %ebx
    51a3:	45                   	inc    %ebp
    51a4:	54                   	push   %esp
    51a5:	3a 20                	cmp    (%eax),%ah
    51a7:	25 58 0a 00 09       	and    $0x9000a58,%eax
    51ac:	09 53 49             	or     %edx,0x49(%ebx)
    51af:	5a                   	pop    %edx
    51b0:	45                   	inc    %ebp
    51b1:	3a 20                	cmp    (%eax),%ah
    51b3:	25 7a 75 0a 00       	and    $0xa757a,%eax
    51b8:	09 09                	or     %ecx,(%ecx)
    51ba:	4c                   	dec    %esp
    51bb:	4f                   	dec    %edi
    51bc:	47                   	inc    %edi
    51bd:	4d                   	dec    %ebp
    51be:	49                   	dec    %ecx
    51bf:	4e                   	dec    %esi
    51c0:	3a 20                	cmp    (%eax),%ah
    51c2:	25 64 0a 00 09       	and    $0x9000a64,%eax
    51c7:	09 4c 4f 47          	or     %ecx,0x47(%edi,%ecx,2)
    51cb:	4d                   	dec    %ebp
    51cc:	41                   	inc    %ecx
    51cd:	58                   	pop    %eax
    51ce:	3a 20                	cmp    (%eax),%ah
    51d0:	25 64 0a 00 09       	and    $0x9000a64,%eax
    51d5:	09 50 48             	or     %edx,0x48(%eax)
    51d8:	59                   	pop    %ecx
    51d9:	4d                   	dec    %ebp
    51da:	49                   	dec    %ecx
    51db:	4e                   	dec    %esi
    51dc:	3a 20                	cmp    (%eax),%ah
    51de:	25 64 0a 00 09       	and    $0x9000a64,%eax
    51e3:	09 50 48             	or     %edx,0x48(%eax)
    51e6:	59                   	pop    %ecx
    51e7:	4d                   	dec    %ebp
    51e8:	41                   	inc    %ecx
    51e9:	58                   	pop    %eax
    51ea:	3a 20                	cmp    (%eax),%ah
    51ec:	25 64 0a 00 09       	and    $0x9000a64,%eax
    51f1:	09 74 55 53          	or     %esi,0x53(%ebp,%edx,2)
    51f5:	41                   	inc    %ecx
    51f6:	47                   	inc    %edi
    51f7:	45                   	inc    %ebp
    51f8:	4d                   	dec    %ebp
    51f9:	49                   	dec    %ecx
    51fa:	4e                   	dec    %esi
    51fb:	3a 20                	cmp    (%eax),%ah
    51fd:	25 58 0a 00 09       	and    $0x9000a58,%eax
    5202:	09 55 53             	or     %edx,0x53(%ebp)
    5205:	41                   	inc    %ecx
    5206:	47                   	inc    %edi
    5207:	45                   	inc    %ebp
    5208:	4d                   	dec    %ebp
    5209:	41                   	inc    %ecx
    520a:	58                   	pop    %eax
    520b:	3a 20                	cmp    (%eax),%ah
    520d:	25 58 0a 00 09       	and    $0x9000a58,%eax
    5212:	09 55 53             	or     %edx,0x53(%ebp)
    5215:	41                   	inc    %ecx
    5216:	47                   	inc    %edi
    5217:	45                   	inc    %ebp
    5218:	53                   	push   %ebx
    5219:	20 43 4f             	and    %al,0x4f(%ebx)
    521c:	55                   	push   %ebp
    521d:	4e                   	dec    %esi
    521e:	54                   	push   %esp
    521f:	3a 20                	cmp    (%eax),%ah
    5221:	25 7a 75 0a 00       	and    $0xa757a,%eax
    5226:	09 09                	or     %ecx,(%ecx)
    5228:	56                   	push   %esi
    5229:	41                   	inc    %ecx
    522a:	4c                   	dec    %esp
    522b:	55                   	push   %ebp
    522c:	45                   	inc    %ebp
    522d:	3a 20                	cmp    (%eax),%ah
    522f:	25 58 0a 00 09       	and    $0x9000a58,%eax
    5234:	09 74 55 53          	or     %esi,0x53(%ebp,%edx,2)
    5238:	41                   	inc    %ecx
    5239:	47                   	inc    %edi
    523a:	45                   	inc    %ebp
    523b:	3a 20                	cmp    (%eax),%ah
    523d:	25 58 0a 00 09       	and    $0x9000a58,%eax
    5242:	09 55 53             	or     %edx,0x53(%ebp)
    5245:	41                   	inc    %ecx
    5246:	47                   	inc    %edi
    5247:	45                   	inc    %ebp
    5248:	20 50 41             	and    %dl,0x41(%eax)
    524b:	47                   	inc    %edi
    524c:	45                   	inc    %ebp
    524d:	3a 20                	cmp    (%eax),%ah
    524f:	25 58 0a 00 52       	and    $0x52000a58,%eax
    5254:	65 70 6f             	gs jo  52c6 <usbhid_dev_get_report_descriptor+0x516>
    5257:	72 74                	jb     52cd <usbhid_dev_get_report_descriptor+0x51d>
    5259:	20 49 44             	and    %cl,0x44(%ecx)
    525c:	3a 20                	cmp    (%eax),%ah
    525e:	25 64 0a 00 09       	and    $0x9000a64,%eax
    5263:	54                   	push   %esp
    5264:	79 70                	jns    52d6 <usbhid_dev_get_report_descriptor+0x526>
    5266:	65 3a 20             	cmp    %gs:(%eax),%ah
    5269:	25 64 0a 00 09       	and    $0x9000a64,%eax
    526e:	4c                   	dec    %esp
    526f:	65 6e                	outsb  %gs:(%esi),(%dx)
    5271:	67 74 68             	addr16 je 52dc <usbhid_dev_get_report_descriptor+0x52c>
    5274:	3a 20                	cmp    (%eax),%ah
    5276:	25 7a 75 0a 00       	and    $0xa757a,%eax
    527b:	09 42 20             	or     %eax,0x20(%edx)
    527e:	53                   	push   %ebx
    527f:	69 7a 65 3a 20 25 7a 	imul   $0x7a25203a,0x65(%edx),%edi
    5286:	75 0a                	jne    5292 <usbhid_dev_get_report_descriptor+0x4e2>
    5288:	00 09                	add    %cl,(%ecx)
    528a:	49                   	dec    %ecx
    528b:	74 65                	je     52f2 <usbhid_dev_get_report_descriptor+0x542>
    528d:	6d                   	insl   (%dx),%es:(%edi)
    528e:	73 3a                	jae    52ca <usbhid_dev_get_report_descriptor+0x51a>
    5290:	20 25 7a 75 0a 00    	and    %ah,0xa757a
    5296:	66 90                	xchg   %ax,%ax
    5298:	09 76 61             	or     %esi,0x61(%esi)
    529b:	6c                   	insb   (%dx),%es:(%edi)
    529c:	75 65                	jne    5303 <usbhid_dev_get_report_descriptor+0x553>
    529e:	28 25 78 29 2c 20    	sub    %ah,0x202c2978
    52a4:	72 65                	jb     530b <usbhid_dev_get_report_descriptor+0x55b>
    52a6:	73 6f                	jae    5317 <usbhid_dev_get_report_descriptor+0x567>
    52a8:	6c                   	insb   (%dx),%es:(%edi)
    52a9:	75 74                	jne    531f <usbhid_dev_get_report_descriptor+0x56f>
    52ab:	69 6f 6e 28 25 78 29 	imul   $0x29782528,0x6e(%edi),%ebp
    52b2:	2c 20                	sub    $0x20,%al
    52b4:	70 68                	jo     531e <usbhid_dev_get_report_descriptor+0x56e>
    52b6:	79 6d                	jns    5325 <usbhid_dev_get_report_descriptor+0x575>
    52b8:	69 6e 28 25 78 29 20 	imul   $0x20297825,0x28(%esi),%ebp
    52bf:	6c                   	insb   (%dx),%es:(%edi)
    52c0:	6f                   	outsl  %ds:(%esi),(%dx)
    52c1:	67 6d                	insl   (%dx),%es:(%di)
    52c3:	69 6e 28 25 78 29 2c 	imul   $0x2c297825,0x28(%esi),%ebp
    52ca:	20 72 65             	and    %dh,0x65(%edx)
    52cd:	74 28                	je     52f7 <usbhid_dev_get_report_descriptor+0x547>
    52cf:	25 78 29 0a 00       	and    $0xa2978,%eax
    52d4:	09 74 72 61          	or     %esi,0x61(%edx,%esi,2)
    52d8:	6e                   	outsb  %ds:(%esi),(%dx)
    52d9:	73 6c                	jae    5347 <usbhid_dev_get_report_descriptor+0x597>
    52db:	61                   	popa   
    52dc:	74 65                	je     5343 <usbhid_dev_get_report_descriptor+0x593>
    52de:	64 20 76 61          	and    %dh,%fs:0x61(%esi)
    52e2:	6c                   	insb   (%dx),%es:(%edi)
    52e3:	75 65                	jne    534a <usbhid_dev_get_report_descriptor+0x59a>
    52e5:	3a 20                	cmp    (%eax),%ah
    52e7:	25 78 0a 00 55       	and    $0x55000a78,%eax
    52ec:	53                   	push   %ebx
    52ed:	41                   	inc    %ecx
    52ee:	47                   	inc    %edi
    52ef:	45                   	inc    %ebp
    52f0:	5f                   	pop    %edi
    52f1:	50                   	push   %eax
    52f2:	41                   	inc    %ecx
    52f3:	54                   	push   %esp
    52f4:	48                   	dec    %eax
    52f5:	20 46 4f             	and    %al,0x4f(%esi)
    52f8:	52                   	push   %edx
    52f9:	20 52 49             	and    %dl,0x49(%edx)
    52fc:	64 28 25 64 29 3a 0a 	sub    %ah,%fs:0xa3a2964
    5303:	00 09                	add    %cl,(%ecx)
    5305:	4c                   	dec    %esp
    5306:	45                   	inc    %ebp
    5307:	4e                   	dec    %esi
    5308:	47                   	inc    %edi
    5309:	54                   	push   %esp
    530a:	48                   	dec    %eax
    530b:	3a 20                	cmp    (%eax),%ah
    530d:	25 64 0a 00 09       	and    $0x9000a64,%eax
    5312:	55                   	push   %ebp
    5313:	53                   	push   %ebx
    5314:	41                   	inc    %ecx
    5315:	47                   	inc    %edi
    5316:	45                   	inc    %ebp
    5317:	5f                   	pop    %edi
    5318:	50                   	push   %eax
    5319:	41                   	inc    %ecx
    531a:	47                   	inc    %edi
    531b:	45                   	inc    %ebp
    531c:	3a 20                	cmp    (%eax),%ah
    531e:	25 58 0a 00 09       	and    $0x9000a58,%eax
    5323:	55                   	push   %ebp
    5324:	53                   	push   %ebx
    5325:	41                   	inc    %ecx
    5326:	47                   	inc    %edi
    5327:	45                   	inc    %ebp
    5328:	3a 20                	cmp    (%eax),%ah
    532a:	25 58 0a 00 09       	and    $0x9000a58,%eax
    532f:	46                   	inc    %esi
    5330:	4c                   	dec    %esp
    5331:	41                   	inc    %ecx
    5332:	47                   	inc    %edi
    5333:	53                   	push   %ebx
    5334:	3a 20                	cmp    (%eax),%ah
    5336:	25 64 0a 00 73       	and    $0x73000a64,%eax
    533b:	72 63                	jb     53a0 <usbhid_dev_get_report_descriptor+0x5f0>
    533d:	2f                   	das    
    533e:	68 69 64 70 61       	push   $0x61706469
    5343:	74 68                	je     53ad <usbhid_dev_get_report_descriptor+0x5fd>
    5345:	2e 63 00             	arpl   %ax,%cs:(%eax)
    5348:	21 6c 69 6e          	and    %ebp,0x6e(%ecx,%ebp,2)
    534c:	6b 5f 75 73          	imul   $0x73,0x75(%edi),%ebx
    5350:	65 64 28 26          	gs sub %ah,%fs:(%esi)
    5354:	70 61                	jo     53b7 <usbhid_dev_get_report_descriptor+0x607>
    5356:	74 68                	je     53c0 <usbhid_dev_get_report_descriptor+0x610>
    5358:	2d 3e 63 70 61       	sub    $0x6170633e,%eax
    535d:	74 68                	je     53c7 <usbhid_dev_get_report_descriptor+0x617>
    535f:	5f                   	pop    %edi
    5360:	6c                   	insb   (%dx),%es:(%edi)
    5361:	69 6e 6b 29 00 66 90 	imul   $0x90660029,0x6b(%esi),%ebp
    5368:	2e 2e 2f             	cs cs das 
    536b:	2e 2e 2f             	cs cs das 
    536e:	6c                   	insb   (%dx),%es:(%edi)
    536f:	69 62 2f 63 2f 69 6e 	imul   $0x6e692f63,0x2f(%edx),%esp
    5376:	63 6c 75 64          	arpl   %bp,0x64(%ebp,%esi,2)
    537a:	65 2f                	gs das 
    537c:	61                   	popa   
    537d:	64 74 2f             	fs je  53af <usbhid_dev_get_report_descriptor+0x5ff>
    5380:	6c                   	insb   (%dx),%es:(%edi)
    5381:	69 73 74 2e 68 00 00 	imul   $0x682e,0x74(%ebx),%esi
    5388:	6c                   	insb   (%dx),%es:(%edi)
    5389:	69 6e 6b 2d 3e 70 72 	imul   $0x72703e2d,0x6b(%esi),%ebp
    5390:	65 76 20             	gs jbe 53b3 <usbhid_dev_get_report_descriptor+0x603>
    5393:	21 3d 20 4e 55 4c    	and    %edi,0x4c554e20
    5399:	4c                   	dec    %esp
    539a:	20 26                	and    %ah,(%esi)
    539c:	26 20 6c 69 6e       	and    %ch,%es:0x6e(%ecx,%ebp,2)
    53a1:	6b 2d 3e 6e 65 78 74 	imul   $0x74,0x78656e3e,%ebp
    53a8:	20 21                	and    %ah,(%ecx)
    53aa:	3d 20 4e 55 4c       	cmp    $0x4c554e20,%eax
    53af:	4c                   	dec    %esp
    53b0:	00 55 6e             	add    %dl,0x6e(%ebp)
    53b3:	6b 6e 6f 77          	imul   $0x77,0x6f(%esi),%ebp
    53b7:	6e                   	outsb  %ds:(%esi),(%dx)
    53b8:	20 75 73             	and    %dh,0x73(%ebp)
    53bb:	61                   	popa   
    53bc:	67 65 00 43 6f       	add    %al,%gs:0x6f(%bp,%di)
    53c1:	6e                   	outsb  %ds:(%esi),(%dx)
    53c2:	73 75                	jae    5439 <usbhid_dev_get_report_descriptor+0x689>
    53c4:	6d                   	insl   (%dx),%es:(%edi)
    53c5:	65 72 20             	gs jb  53e8 <usbhid_dev_get_report_descriptor+0x638>
    53c8:	43                   	inc    %ebx
    53c9:	6f                   	outsl  %ds:(%esi),(%dx)
    53ca:	6e                   	outsb  %ds:(%esi),(%dx)
    53cb:	74 72                	je     543f <usbhid_dev_get_report_descriptor+0x68f>
    53cd:	6f                   	outsl  %ds:(%esi),(%dx)
    53ce:	6c                   	insb   (%dx),%es:(%edi)
    53cf:	00 4e 75             	add    %cl,0x75(%esi)
    53d2:	6d                   	insl   (%dx),%es:(%edi)
    53d3:	65 72 69             	gs jb  543f <usbhid_dev_get_report_descriptor+0x68f>
    53d6:	63 20                	arpl   %sp,(%eax)
    53d8:	4b                   	dec    %ebx
    53d9:	65 79 20             	gs jns 53fc <usbhid_dev_get_report_descriptor+0x64c>
    53dc:	50                   	push   %eax
    53dd:	61                   	popa   
    53de:	64 00 50 72          	add    %dl,%fs:0x72(%eax)
    53e2:	6f                   	outsl  %ds:(%esi),(%dx)
    53e3:	67 72 61             	addr16 jb 5447 <usbhid_dev_get_report_descriptor+0x697>
    53e6:	6d                   	insl   (%dx),%es:(%edi)
    53e7:	6d                   	insl   (%dx),%es:(%edi)
    53e8:	61                   	popa   
    53e9:	62 6c 65 20          	bound  %ebp,0x20(%ebp,%eiz,2)
    53ed:	42                   	inc    %edx
    53ee:	75 74                	jne    5464 <usbhid_dev_get_report_descriptor+0x6b4>
    53f0:	74 6f                	je     5461 <usbhid_dev_get_report_descriptor+0x6b1>
    53f2:	6e                   	outsb  %ds:(%esi),(%dx)
    53f3:	73 00                	jae    53f5 <usbhid_dev_get_report_descriptor+0x645>
    53f5:	4d                   	dec    %ebp
    53f6:	69 63 72 6f 70 68 6f 	imul   $0x6f68706f,0x72(%ebx),%esp
    53fd:	6e                   	outsb  %ds:(%esi),(%dx)
    53fe:	65 00 48 65          	add    %cl,%gs:0x65(%eax)
    5402:	61                   	popa   
    5403:	64 70 68             	fs jo  546e <usbhid_dev_get_report_descriptor+0x6be>
    5406:	6f                   	outsl  %ds:(%esi),(%dx)
    5407:	6e                   	outsb  %ds:(%esi),(%dx)
    5408:	65 00 47 72          	add    %al,%gs:0x72(%edi)
    540c:	61                   	popa   
    540d:	70 68                	jo     5477 <usbhid_dev_get_report_descriptor+0x6c7>
    540f:	69 63 20 45 71 75 61 	imul   $0x61757145,0x20(%ebx),%esp
    5416:	6c                   	insb   (%dx),%es:(%edi)
    5417:	69 7a 65 72 00 52 65 	imul   $0x65520072,0x65(%edx),%edi
    541e:	73 65                	jae    5485 <usbhid_dev_get_report_descriptor+0x6d5>
    5420:	72 76                	jb     5498 <usbhid_dev_get_report_descriptor+0x6e8>
    5422:	65 64 00 2b          	gs add %ch,%fs:(%ebx)
    5426:	31 30                	xor    %esi,(%eax)
    5428:	00 2b                	add    %ch,(%ebx)
    542a:	31 30                	xor    %esi,(%eax)
    542c:	30 00                	xor    %al,(%eax)
    542e:	41                   	inc    %ecx
    542f:	4d                   	dec    %ebp
    5430:	2f                   	das    
    5431:	50                   	push   %eax
    5432:	4d                   	dec    %ebp
    5433:	00 4d 65             	add    %cl,0x65(%ebp)
    5436:	6e                   	outsb  %ds:(%esi),(%dx)
    5437:	75 00                	jne    5439 <usbhid_dev_get_report_descriptor+0x689>
    5439:	4d                   	dec    %ebp
    543a:	65 6e                	outsb  %gs:(%esi),(%dx)
    543c:	75 20                	jne    545e <usbhid_dev_get_report_descriptor+0x6ae>
    543e:	50                   	push   %eax
    543f:	69 63 6b 00 4d 65 6e 	imul   $0x6e654d00,0x6b(%ebx),%esp
    5446:	75 20                	jne    5468 <usbhid_dev_get_report_descriptor+0x6b8>
    5448:	55                   	push   %ebp
    5449:	70 00                	jo     544b <usbhid_dev_get_report_descriptor+0x69b>
    544b:	4d                   	dec    %ebp
    544c:	65 6e                	outsb  %gs:(%esi),(%dx)
    544e:	75 20                	jne    5470 <usbhid_dev_get_report_descriptor+0x6c0>
    5450:	44                   	inc    %esp
    5451:	6f                   	outsl  %ds:(%esi),(%dx)
    5452:	77 6e                	ja     54c2 <usbhid_dev_get_report_descriptor+0x712>
    5454:	00 4d 65             	add    %cl,0x65(%ebp)
    5457:	6e                   	outsb  %ds:(%esi),(%dx)
    5458:	75 20                	jne    547a <usbhid_dev_get_report_descriptor+0x6ca>
    545a:	4c                   	dec    %esp
    545b:	65 66 74 00          	gs data16 je 545f <usbhid_dev_get_report_descriptor+0x6af>
    545f:	4d                   	dec    %ebp
    5460:	65 6e                	outsb  %gs:(%esi),(%dx)
    5462:	75 20                	jne    5484 <usbhid_dev_get_report_descriptor+0x6d4>
    5464:	52                   	push   %edx
    5465:	69 67 68 74 00 4d 65 	imul   $0x654d0074,0x68(%edi),%esp
    546c:	6e                   	outsb  %ds:(%esi),(%dx)
    546d:	75 20                	jne    548f <usbhid_dev_get_report_descriptor+0x6df>
    546f:	45                   	inc    %ebp
    5470:	73 63                	jae    54d5 <usbhid_dev_get_report_descriptor+0x725>
    5472:	61                   	popa   
    5473:	70 65                	jo     54da <usbhid_dev_get_report_descriptor+0x72a>
    5475:	00 4d 65             	add    %cl,0x65(%ebp)
    5478:	6e                   	outsb  %ds:(%esi),(%dx)
    5479:	75 20                	jne    549b <usbhid_dev_get_report_descriptor+0x6eb>
    547b:	56                   	push   %esi
    547c:	61                   	popa   
    547d:	6c                   	insb   (%dx),%es:(%edi)
    547e:	75 65                	jne    54e5 <usbhid_dev_get_report_descriptor+0x735>
    5480:	20 49 6e             	and    %cl,0x6e(%ecx)
    5483:	63 72 65             	arpl   %si,0x65(%edx)
    5486:	61                   	popa   
    5487:	73 65                	jae    54ee <usbhid_dev_get_report_descriptor+0x73e>
    5489:	00 4d 65             	add    %cl,0x65(%ebp)
    548c:	6e                   	outsb  %ds:(%esi),(%dx)
    548d:	75 20                	jne    54af <usbhid_dev_get_report_descriptor+0x6ff>
    548f:	56                   	push   %esi
    5490:	61                   	popa   
    5491:	6c                   	insb   (%dx),%es:(%edi)
    5492:	75 65                	jne    54f9 <usbhid_dev_get_report_descriptor+0x749>
    5494:	20 44 65 63          	and    %al,0x63(%ebp,%eiz,2)
    5498:	72 65                	jb     54ff <usbhid_dev_get_report_descriptor+0x74f>
    549a:	61                   	popa   
    549b:	73 65                	jae    5502 <usbhid_dev_get_report_descriptor+0x752>
    549d:	00 44 61 74          	add    %al,0x74(%ecx,%eiz,2)
    54a1:	61                   	popa   
    54a2:	20 4f 6e             	and    %cl,0x6e(%edi)
    54a5:	20 53 63             	and    %dl,0x63(%ebx)
    54a8:	72 65                	jb     550f <usbhid_dev_get_report_descriptor+0x75f>
    54aa:	65 6e                	outsb  %gs:(%esi),(%dx)
    54ac:	00 43 6c             	add    %al,0x6c(%ebx)
    54af:	6f                   	outsl  %ds:(%esi),(%dx)
    54b0:	73 65                	jae    5517 <usbhid_dev_get_report_descriptor+0x767>
    54b2:	64 20 43 61          	and    %al,%fs:0x61(%ebx)
    54b6:	70 74                	jo     552c <usbhid_dev_get_report_descriptor+0x77c>
    54b8:	69 6f 6e 00 43 6c 6f 	imul   $0x6f6c4300,0x6e(%edi),%ebp
    54bf:	73 65                	jae    5526 <usbhid_dev_get_report_descriptor+0x776>
    54c1:	64 20 43 61          	and    %al,%fs:0x61(%ebx)
    54c5:	70 74                	jo     553b <usbhid_dev_get_report_descriptor+0x78b>
    54c7:	69 6f 6e 20 53 65 6c 	imul   $0x6c655320,0x6e(%edi),%ebp
    54ce:	65 63 74 00 56       	arpl   %si,%gs:0x56(%eax,%eax,1)
    54d3:	43                   	inc    %ebx
    54d4:	52                   	push   %edx
    54d5:	2f                   	das    
    54d6:	54                   	push   %esp
    54d7:	56                   	push   %esi
    54d8:	00 42 72             	add    %al,0x72(%edx)
    54db:	6f                   	outsl  %ds:(%esi),(%dx)
    54dc:	61                   	popa   
    54dd:	64 63 61 73          	arpl   %sp,%fs:0x73(%ecx)
    54e1:	74 20                	je     5503 <usbhid_dev_get_report_descriptor+0x753>
    54e3:	4d                   	dec    %ebp
    54e4:	6f                   	outsl  %ds:(%esi),(%dx)
    54e5:	64 65 00 53 6e       	fs add %dl,%gs:0x6e(%ebx)
    54ea:	61                   	popa   
    54eb:	70 73                	jo     5560 <usbhid_dev_get_report_descriptor+0x7b0>
    54ed:	68 6f 74 00 53       	push   $0x5300746f
    54f2:	74 69                	je     555d <usbhid_dev_get_report_descriptor+0x7ad>
    54f4:	6c                   	insb   (%dx),%es:(%edi)
    54f5:	6c                   	insb   (%dx),%es:(%edi)
    54f6:	00 41 73             	add    %al,0x73(%ecx)
    54f9:	73 69                	jae    5564 <usbhid_dev_get_report_descriptor+0x7b4>
    54fb:	67 6e                	outsb  %ds:(%si),(%dx)
    54fd:	20 53 65             	and    %dl,0x65(%ebx)
    5500:	6c                   	insb   (%dx),%es:(%edi)
    5501:	65 63 74 69 6f       	arpl   %si,%gs:0x6f(%ecx,%ebp,2)
    5506:	6e                   	outsb  %ds:(%esi),(%dx)
    5507:	00 4d 6f             	add    %cl,0x6f(%ebp)
    550a:	64 65 20 53 74       	fs and %dl,%gs:0x74(%ebx)
    550f:	65 70 00             	gs jo  5512 <usbhid_dev_get_report_descriptor+0x762>
    5512:	52                   	push   %edx
    5513:	65 63 61 6c          	arpl   %sp,%gs:0x6c(%ecx)
    5517:	6c                   	insb   (%dx),%es:(%edi)
    5518:	20 4c 61 73          	and    %cl,0x73(%ecx,%eiz,2)
    551c:	74 00                	je     551e <usbhid_dev_get_report_descriptor+0x76e>
    551e:	45                   	inc    %ebp
    551f:	6e                   	outsb  %ds:(%esi),(%dx)
    5520:	74 65                	je     5587 <usbhid_dev_get_report_descriptor+0x7d7>
    5522:	72 20                	jb     5544 <usbhid_dev_get_report_descriptor+0x794>
    5524:	43                   	inc    %ebx
    5525:	68 61 6e 6e 65       	push   $0x656e6e61
    552a:	6c                   	insb   (%dx),%es:(%edi)
    552b:	00 4f 72             	add    %cl,0x72(%edi)
    552e:	64 65 72 20          	fs gs jb 5552 <usbhid_dev_get_report_descriptor+0x7a2>
    5532:	4d                   	dec    %ebp
    5533:	6f                   	outsl  %ds:(%esi),(%dx)
    5534:	76 69                	jbe    559f <usbhid_dev_get_report_descriptor+0x7ef>
    5536:	65 00 4d 65          	add    %cl,%gs:0x65(%ebp)
    553a:	64 69 61 20 53 65 6c 	imul   $0x656c6553,%fs:0x20(%ecx),%esp
    5541:	65 
    5542:	63 74 69 6f          	arpl   %si,0x6f(%ecx,%ebp,2)
    5546:	6e                   	outsb  %ds:(%esi),(%dx)
    5547:	00 4d 65             	add    %cl,0x65(%ebp)
    554a:	64 69 61 20 53 65 6c 	imul   $0x656c6553,%fs:0x20(%ecx),%esp
    5551:	65 
    5552:	63 74 20 43          	arpl   %si,0x43(%eax,%eiz,1)
    5556:	6f                   	outsl  %ds:(%esi),(%dx)
    5557:	6d                   	insl   (%dx),%es:(%edi)
    5558:	70 75                	jo     55cf <usbhid_dev_get_report_descriptor+0x81f>
    555a:	74 65                	je     55c1 <usbhid_dev_get_report_descriptor+0x811>
    555c:	72 00                	jb     555e <usbhid_dev_get_report_descriptor+0x7ae>
    555e:	4d                   	dec    %ebp
    555f:	65 64 69 61 20 53 65 	gs imul $0x656c6553,%fs:0x20(%ecx),%esp
    5566:	6c 65 
    5568:	63 74 20 54          	arpl   %si,0x54(%eax,%eiz,1)
    556c:	56                   	push   %esi
    556d:	00 4d 65             	add    %cl,0x65(%ebp)
    5570:	64 69 61 20 53 65 6c 	imul   $0x656c6553,%fs:0x20(%ecx),%esp
    5577:	65 
    5578:	63 74 20 57          	arpl   %si,0x57(%eax,%eiz,1)
    557c:	57                   	push   %edi
    557d:	57                   	push   %edi
    557e:	00 4d 65             	add    %cl,0x65(%ebp)
    5581:	64 69 61 20 53 65 6c 	imul   $0x656c6553,%fs:0x20(%ecx),%esp
    5588:	65 
    5589:	63 74 20 44          	arpl   %si,0x44(%eax,%eiz,1)
    558d:	56                   	push   %esi
    558e:	44                   	inc    %esp
    558f:	00 4d 65             	add    %cl,0x65(%ebp)
    5592:	64 69 61 20 53 65 6c 	imul   $0x656c6553,%fs:0x20(%ecx),%esp
    5599:	65 
    559a:	63 74 20 54          	arpl   %si,0x54(%eax,%eiz,1)
    559e:	65 6c                	gs insb (%dx),%es:(%edi)
    55a0:	65 70 68             	gs jo  560b <usbhid_dev_get_report_descriptor+0x85b>
    55a3:	6f                   	outsl  %ds:(%esi),(%dx)
    55a4:	6e                   	outsb  %ds:(%esi),(%dx)
    55a5:	65 00 4d 65          	add    %cl,%gs:0x65(%ebp)
    55a9:	64 69 61 20 53 65 6c 	imul   $0x656c6553,%fs:0x20(%ecx),%esp
    55b0:	65 
    55b1:	63 74 20 50          	arpl   %si,0x50(%eax,%eiz,1)
    55b5:	72 6f                	jb     5626 <usbhid_dev_get_report_descriptor+0x876>
    55b7:	67 72 61             	addr16 jb 561b <usbhid_dev_get_report_descriptor+0x86b>
    55ba:	6d                   	insl   (%dx),%es:(%edi)
    55bb:	20 47 75             	and    %al,0x75(%edi)
    55be:	69 64 65 00 4d 65 64 	imul   $0x6964654d,0x0(%ebp,%eiz,2),%esp
    55c5:	69 
    55c6:	61                   	popa   
    55c7:	20 53 65             	and    %dl,0x65(%ebx)
    55ca:	6c                   	insb   (%dx),%es:(%edi)
    55cb:	65 63 74 20 56       	arpl   %si,%gs:0x56(%eax,%eiz,1)
    55d0:	69 64 65 6f 20 50 68 	imul   $0x6f685020,0x6f(%ebp,%eiz,2),%esp
    55d7:	6f 
    55d8:	6e                   	outsb  %ds:(%esi),(%dx)
    55d9:	65 00 4d 65          	add    %cl,%gs:0x65(%ebp)
    55dd:	64 69 61 20 53 65 6c 	imul   $0x656c6553,%fs:0x20(%ecx),%esp
    55e4:	65 
    55e5:	63 74 20 47          	arpl   %si,0x47(%eax,%eiz,1)
    55e9:	61                   	popa   
    55ea:	6d                   	insl   (%dx),%es:(%edi)
    55eb:	65 73 00             	gs jae 55ee <usbhid_dev_get_report_descriptor+0x83e>
    55ee:	4d                   	dec    %ebp
    55ef:	65 64 69 61 20 53 65 	gs imul $0x656c6553,%fs:0x20(%ecx),%esp
    55f6:	6c 65 
    55f8:	63 74 20 4d          	arpl   %si,0x4d(%eax,%eiz,1)
    55fc:	65 73 73             	gs jae 5672 <usbhid_dev_get_report_descriptor+0x8c2>
    55ff:	61                   	popa   
    5600:	67 65 73 00          	addr16 gs jae 5604 <usbhid_dev_get_report_descriptor+0x854>
    5604:	4d                   	dec    %ebp
    5605:	65 64 69 61 20 53 65 	gs imul $0x656c6553,%fs:0x20(%ecx),%esp
    560c:	6c 65 
    560e:	63 74 20 43          	arpl   %si,0x43(%eax,%eiz,1)
    5612:	44                   	inc    %esp
    5613:	00 4d 65             	add    %cl,0x65(%ebp)
    5616:	64 69 61 20 53 65 6c 	imul   $0x656c6553,%fs:0x20(%ecx),%esp
    561d:	65 
    561e:	63 74 20 56          	arpl   %si,0x56(%eax,%eiz,1)
    5622:	43                   	inc    %ebx
    5623:	52                   	push   %edx
    5624:	00 4d 65             	add    %cl,0x65(%ebp)
    5627:	64 69 61 20 53 65 6c 	imul   $0x656c6553,%fs:0x20(%ecx),%esp
    562e:	65 
    562f:	63 74 20 54          	arpl   %si,0x54(%eax,%eiz,1)
    5633:	75 6e                	jne    56a3 <usbhid_dev_get_report_descriptor+0x8f3>
    5635:	65 72 00             	gs jb  5638 <usbhid_dev_get_report_descriptor+0x888>
    5638:	51                   	push   %ecx
    5639:	75 69                	jne    56a4 <usbhid_dev_get_report_descriptor+0x8f4>
    563b:	74 00                	je     563d <usbhid_dev_get_report_descriptor+0x88d>
    563d:	4d                   	dec    %ebp
    563e:	65 64 69 61 20 53 65 	gs imul $0x656c6553,%fs:0x20(%ecx),%esp
    5645:	6c 65 
    5647:	63 74 20 54          	arpl   %si,0x54(%eax,%eiz,1)
    564b:	61                   	popa   
    564c:	70 65                	jo     56b3 <usbhid_dev_get_report_descriptor+0x903>
    564e:	00 4d 65             	add    %cl,0x65(%ebp)
    5651:	64 69 61 20 53 65 6c 	imul   $0x656c6553,%fs:0x20(%ecx),%esp
    5658:	65 
    5659:	63 74 20 43          	arpl   %si,0x43(%eax,%eiz,1)
    565d:	61                   	popa   
    565e:	62 6c 65 00          	bound  %ebp,0x0(%ebp,%eiz,2)
    5662:	4d                   	dec    %ebp
    5663:	65 64 69 61 20 53 65 	gs imul $0x656c6553,%fs:0x20(%ecx),%esp
    566a:	6c 65 
    566c:	63 74 20 53          	arpl   %si,0x53(%eax,%eiz,1)
    5670:	61                   	popa   
    5671:	74 65                	je     56d8 <usbhid_dev_get_report_descriptor+0x928>
    5673:	6c                   	insb   (%dx),%es:(%edi)
    5674:	6c                   	insb   (%dx),%es:(%edi)
    5675:	69 74 65 00 4d 65 64 	imul   $0x6964654d,0x0(%ebp,%eiz,2),%esi
    567c:	69 
    567d:	61                   	popa   
    567e:	20 53 65             	and    %dl,0x65(%ebx)
    5681:	6c                   	insb   (%dx),%es:(%edi)
    5682:	65 63 74 20 53       	arpl   %si,%gs:0x53(%eax,%eiz,1)
    5687:	65 63 75 72          	arpl   %si,%gs:0x72(%ebp)
    568b:	69 74 79 00 4d 65 64 	imul   $0x6964654d,0x0(%ecx,%edi,2),%esi
    5692:	69 
    5693:	61                   	popa   
    5694:	20 53 65             	and    %dl,0x65(%ebx)
    5697:	6c                   	insb   (%dx),%es:(%edi)
    5698:	65 63 74 20 48       	arpl   %si,%gs:0x48(%eax,%eiz,1)
    569d:	6f                   	outsl  %ds:(%esi),(%dx)
    569e:	6d                   	insl   (%dx),%es:(%edi)
    569f:	65 00 4d 65          	add    %cl,%gs:0x65(%ebp)
    56a3:	64 69 61 20 53 65 6c 	imul   $0x656c6553,%fs:0x20(%ecx),%esp
    56aa:	65 
    56ab:	63 74 20 43          	arpl   %si,0x43(%eax,%eiz,1)
    56af:	61                   	popa   
    56b0:	6c                   	insb   (%dx),%es:(%edi)
    56b1:	6c                   	insb   (%dx),%es:(%edi)
    56b2:	00 43 68             	add    %al,0x68(%ebx)
    56b5:	61                   	popa   
    56b6:	6e                   	outsb  %ds:(%esi),(%dx)
    56b7:	6e                   	outsb  %ds:(%esi),(%dx)
    56b8:	65 6c                	gs insb (%dx),%es:(%edi)
    56ba:	20 49 6e             	and    %cl,0x6e(%ecx)
    56bd:	63 72 65             	arpl   %si,0x65(%edx)
    56c0:	6d                   	insl   (%dx),%es:(%edi)
    56c1:	65 6e                	outsb  %gs:(%esi),(%dx)
    56c3:	74 00                	je     56c5 <usbhid_dev_get_report_descriptor+0x915>
    56c5:	43                   	inc    %ebx
    56c6:	68 61 6e 6e 65       	push   $0x656e6e61
    56cb:	6c                   	insb   (%dx),%es:(%edi)
    56cc:	20 44 65 63          	and    %al,0x63(%ebp,%eiz,2)
    56d0:	72 65                	jb     5737 <usbhid_dev_get_report_descriptor+0x987>
    56d2:	6d                   	insl   (%dx),%es:(%edi)
    56d3:	65 6e                	outsb  %gs:(%esi),(%dx)
    56d5:	74 00                	je     56d7 <usbhid_dev_get_report_descriptor+0x927>
    56d7:	4d                   	dec    %ebp
    56d8:	65 64 69 61 20 53 65 	gs imul $0x656c6553,%fs:0x20(%ecx),%esp
    56df:	6c 65 
    56e1:	63 74 20 53          	arpl   %si,0x53(%eax,%eiz,1)
    56e5:	41                   	inc    %ecx
    56e6:	50                   	push   %eax
    56e7:	00 56 43             	add    %dl,0x43(%esi)
    56ea:	52                   	push   %edx
    56eb:	20 50 6c             	and    %dl,0x6c(%eax)
    56ee:	75 73                	jne    5763 <usbhid_dev_get_report_descriptor+0x9b3>
    56f0:	00 4f 6e             	add    %cl,0x6e(%edi)
    56f3:	63 65 00             	arpl   %sp,0x0(%ebp)
    56f6:	44                   	inc    %esp
    56f7:	61                   	popa   
    56f8:	69 6c 79 00 57 65 65 	imul   $0x6b656557,0x0(%ecx,%edi,2),%ebp
    56ff:	6b 
    5700:	6c                   	insb   (%dx),%es:(%edi)
    5701:	79 00                	jns    5703 <usbhid_dev_get_report_descriptor+0x953>
    5703:	4d                   	dec    %ebp
    5704:	6f                   	outsl  %ds:(%esi),(%dx)
    5705:	6e                   	outsb  %ds:(%esi),(%dx)
    5706:	74 68                	je     5770 <usbhid_dev_get_report_descriptor+0x9c0>
    5708:	6c                   	insb   (%dx),%es:(%edi)
    5709:	79 00                	jns    570b <usbhid_dev_get_report_descriptor+0x95b>
    570b:	52                   	push   %edx
    570c:	65 63 6f 72          	arpl   %bp,%gs:0x72(%edi)
    5710:	64 00 46 61          	add    %al,%fs:0x61(%esi)
    5714:	73 74                	jae    578a <usbhid_dev_get_report_descriptor+0x9da>
    5716:	20 46 6f             	and    %al,0x6f(%esi)
    5719:	72 77                	jb     5792 <usbhid_dev_get_report_descriptor+0x9e2>
    571b:	61                   	popa   
    571c:	72 64                	jb     5782 <usbhid_dev_get_report_descriptor+0x9d2>
    571e:	00 52 65             	add    %dl,0x65(%edx)
    5721:	77 69                	ja     578c <usbhid_dev_get_report_descriptor+0x9dc>
    5723:	6e                   	outsb  %ds:(%esi),(%dx)
    5724:	64 00 53 63          	add    %dl,%fs:0x63(%ebx)
    5728:	61                   	popa   
    5729:	6e                   	outsb  %ds:(%esi),(%dx)
    572a:	20 4e 65             	and    %cl,0x65(%esi)
    572d:	78 74                	js     57a3 <usbhid_dev_get_report_descriptor+0x9f3>
    572f:	20 54 72 61          	and    %dl,0x61(%edx,%esi,2)
    5733:	63 6b 00             	arpl   %bp,0x0(%ebx)
    5736:	53                   	push   %ebx
    5737:	63 61 6e             	arpl   %sp,0x6e(%ecx)
    573a:	20 50 72             	and    %dl,0x72(%eax)
    573d:	65 76 69             	gs jbe 57a9 <usbhid_dev_get_report_descriptor+0x9f9>
    5740:	6f                   	outsl  %ds:(%esi),(%dx)
    5741:	75 73                	jne    57b6 <usbhid_dev_get_report_descriptor+0xa06>
    5743:	20 54 72 61          	and    %dl,0x61(%edx,%esi,2)
    5747:	63 00                	arpl   %ax,(%eax)
    5749:	52                   	push   %edx
    574a:	61                   	popa   
    574b:	6e                   	outsb  %ds:(%esi),(%dx)
    574c:	64 6f                	outsl  %fs:(%esi),(%dx)
    574e:	6d                   	insl   (%dx),%es:(%edi)
    574f:	20 50 6c             	and    %dl,0x6c(%eax)
    5752:	61                   	popa   
    5753:	79 00                	jns    5755 <usbhid_dev_get_report_descriptor+0x9a5>
    5755:	53                   	push   %ebx
    5756:	65 6c                	gs insb (%dx),%es:(%edi)
    5758:	65 63 74 20 44       	arpl   %si,%gs:0x44(%eax,%eiz,1)
    575d:	69 73 63 00 45 6e 74 	imul   $0x746e4500,0x63(%ebx),%esi
    5764:	65 72 20             	gs jb  5787 <usbhid_dev_get_report_descriptor+0x9d7>
    5767:	44                   	inc    %esp
    5768:	69 73 63 00 54 72 61 	imul   $0x61725400,0x63(%ebx),%esi
    576f:	63 6b 20             	arpl   %bp,0x20(%ebx)
    5772:	4e                   	dec    %esi
    5773:	6f                   	outsl  %ds:(%esi),(%dx)
    5774:	72 6d                	jb     57e3 <usbhid_dev_get_report_descriptor+0xa33>
    5776:	61                   	popa   
    5777:	6c                   	insb   (%dx),%es:(%edi)
    5778:	00 53 6c             	add    %dl,0x6c(%ebx)
    577b:	6f                   	outsl  %ds:(%esi),(%dx)
    577c:	77 20                	ja     579e <usbhid_dev_get_report_descriptor+0x9ee>
    577e:	54                   	push   %esp
    577f:	72 61                	jb     57e2 <usbhid_dev_get_report_descriptor+0xa32>
    5781:	63 6b 69             	arpl   %bp,0x69(%ebx)
    5784:	6e                   	outsb  %ds:(%esi),(%dx)
    5785:	67 00 46 72          	add    %al,0x72(%bp)
    5789:	61                   	popa   
    578a:	6d                   	insl   (%dx),%es:(%edi)
    578b:	65 20 46 6f          	and    %al,%gs:0x6f(%esi)
    578f:	72 77                	jb     5808 <usbhid_dev_get_report_descriptor+0xa58>
    5791:	61                   	popa   
    5792:	72 64                	jb     57f8 <usbhid_dev_get_report_descriptor+0xa48>
    5794:	00 46 72             	add    %al,0x72(%esi)
    5797:	61                   	popa   
    5798:	6d                   	insl   (%dx),%es:(%edi)
    5799:	65 20 42 61          	and    %al,%gs:0x61(%edx)
    579d:	63 6b 00             	arpl   %bp,0x0(%ebx)
    57a0:	43                   	inc    %ebx
    57a1:	6c                   	insb   (%dx),%es:(%edi)
    57a2:	65 61                	gs popa 
    57a4:	72 20                	jb     57c6 <usbhid_dev_get_report_descriptor+0xa16>
    57a6:	4d                   	dec    %ebp
    57a7:	61                   	popa   
    57a8:	72 6b                	jb     5815 <usbhid_dev_get_report_descriptor+0xa65>
    57aa:	00 52 65             	add    %dl,0x65(%edx)
    57ad:	70 65                	jo     5814 <usbhid_dev_get_report_descriptor+0xa64>
    57af:	61                   	popa   
    57b0:	74 20                	je     57d2 <usbhid_dev_get_report_descriptor+0xa22>
    57b2:	46                   	inc    %esi
    57b3:	72 6f                	jb     5824 <usbhid_dev_get_report_descriptor+0xa74>
    57b5:	6d                   	insl   (%dx),%es:(%edi)
    57b6:	20 4d 61             	and    %cl,0x61(%ebp)
    57b9:	72 6b                	jb     5826 <usbhid_dev_get_report_descriptor+0xa76>
    57bb:	00 52 65             	add    %dl,0x65(%edx)
    57be:	74 75                	je     5835 <usbhid_dev_get_report_descriptor+0xa85>
    57c0:	72 6e                	jb     5830 <usbhid_dev_get_report_descriptor+0xa80>
    57c2:	20 74 6f 20          	and    %dh,0x20(%edi,%ebp,2)
    57c6:	4d                   	dec    %ebp
    57c7:	61                   	popa   
    57c8:	72 6b                	jb     5835 <usbhid_dev_get_report_descriptor+0xa85>
    57ca:	00 53 65             	add    %dl,0x65(%ebx)
    57cd:	61                   	popa   
    57ce:	72 63                	jb     5833 <usbhid_dev_get_report_descriptor+0xa83>
    57d0:	68 20 4d 61 72       	push   $0x72614d20
    57d5:	6b 20 46             	imul   $0x46,(%eax),%esp
    57d8:	6f                   	outsl  %ds:(%esi),(%dx)
    57d9:	72 77                	jb     5852 <usbhid_dev_get_report_descriptor+0xaa2>
    57db:	61                   	popa   
    57dc:	72 64                	jb     5842 <usbhid_dev_get_report_descriptor+0xa92>
    57de:	00 53 65             	add    %dl,0x65(%ebx)
    57e1:	61                   	popa   
    57e2:	72 63                	jb     5847 <usbhid_dev_get_report_descriptor+0xa97>
    57e4:	68 20 4d 61 72       	push   $0x72614d20
    57e9:	6b 20 42             	imul   $0x42,(%eax),%esp
    57ec:	61                   	popa   
    57ed:	63 6b 77             	arpl   %bp,0x77(%ebx)
    57f0:	61                   	popa   
    57f1:	72 64                	jb     5857 <usbhid_dev_get_report_descriptor+0xaa7>
    57f3:	73 00                	jae    57f5 <usbhid_dev_get_report_descriptor+0xa45>
    57f5:	43                   	inc    %ebx
    57f6:	6f                   	outsl  %ds:(%esi),(%dx)
    57f7:	75 6e                	jne    5867 <usbhid_dev_get_report_descriptor+0xab7>
    57f9:	74 65                	je     5860 <usbhid_dev_get_report_descriptor+0xab0>
    57fb:	72 20                	jb     581d <usbhid_dev_get_report_descriptor+0xa6d>
    57fd:	52                   	push   %edx
    57fe:	65 73 65             	gs jae 5866 <usbhid_dev_get_report_descriptor+0xab6>
    5801:	74 00                	je     5803 <usbhid_dev_get_report_descriptor+0xa53>
    5803:	53                   	push   %ebx
    5804:	68 6f 77 20 43       	push   $0x4320776f
    5809:	6f                   	outsl  %ds:(%esi),(%dx)
    580a:	75 6e                	jne    587a <usbhid_dev_get_report_descriptor+0xaca>
    580c:	74 65                	je     5873 <usbhid_dev_get_report_descriptor+0xac3>
    580e:	72 00                	jb     5810 <usbhid_dev_get_report_descriptor+0xa60>
    5810:	54                   	push   %esp
    5811:	72 61                	jb     5874 <usbhid_dev_get_report_descriptor+0xac4>
    5813:	63 6b 69             	arpl   %bp,0x69(%ebx)
    5816:	6e                   	outsb  %ds:(%esi),(%dx)
    5817:	67 20 49 6e          	and    %cl,0x6e(%bx,%di)
    581b:	63 72 65             	arpl   %si,0x65(%edx)
    581e:	6d                   	insl   (%dx),%es:(%edi)
    581f:	65 6e                	outsb  %gs:(%esi),(%dx)
    5821:	74 00                	je     5823 <usbhid_dev_get_report_descriptor+0xa73>
    5823:	54                   	push   %esp
    5824:	72 61                	jb     5887 <usbhid_dev_get_report_descriptor+0xad7>
    5826:	63 6b 69             	arpl   %bp,0x69(%ebx)
    5829:	6e                   	outsb  %ds:(%esi),(%dx)
    582a:	67 20 44 65          	and    %al,0x65(%si)
    582e:	63 72 65             	arpl   %si,0x65(%edx)
    5831:	6d                   	insl   (%dx),%es:(%edi)
    5832:	65 6e                	outsb  %gs:(%esi),(%dx)
    5834:	74 00                	je     5836 <usbhid_dev_get_report_descriptor+0xa86>
    5836:	53                   	push   %ebx
    5837:	74 6f                	je     58a8 <usbhid_dev_get_report_descriptor+0xaf8>
    5839:	70 2f                	jo     586a <usbhid_dev_get_report_descriptor+0xaba>
    583b:	45                   	inc    %ebp
    583c:	6a 65                	push   $0x65
    583e:	63 74 00 50          	arpl   %si,0x50(%eax,%eax,1)
    5842:	6c                   	insb   (%dx),%es:(%edi)
    5843:	61                   	popa   
    5844:	79 2f                	jns    5875 <usbhid_dev_get_report_descriptor+0xac5>
    5846:	50                   	push   %eax
    5847:	61                   	popa   
    5848:	75 73                	jne    58bd <usbhid_dev_get_report_descriptor+0xb0d>
    584a:	65 00 50 6c          	add    %dl,%gs:0x6c(%eax)
    584e:	61                   	popa   
    584f:	79 2f                	jns    5880 <usbhid_dev_get_report_descriptor+0xad0>
    5851:	53                   	push   %ebx
    5852:	6b 69 70 00          	imul   $0x0,0x70(%ecx),%ebp
    5856:	56                   	push   %esi
    5857:	6f                   	outsl  %ds:(%esi),(%dx)
    5858:	6c                   	insb   (%dx),%es:(%edi)
    5859:	75 6d                	jne    58c8 <usbhid_dev_get_report_descriptor+0xb18>
    585b:	65 00 42 61          	add    %al,%gs:0x61(%edx)
    585f:	6c                   	insb   (%dx),%es:(%edi)
    5860:	61                   	popa   
    5861:	6e                   	outsb  %ds:(%esi),(%dx)
    5862:	63 65 00             	arpl   %sp,0x0(%ebp)
    5865:	4d                   	dec    %ebp
    5866:	75 74                	jne    58dc <usbhid_dev_get_report_descriptor+0xb2c>
    5868:	65 00 42 61          	add    %al,%gs:0x61(%edx)
    586c:	73 73                	jae    58e1 <usbhid_dev_get_report_descriptor+0xb31>
    586e:	00 54 72 65          	add    %dl,0x65(%edx,%esi,2)
    5872:	62 6c 65 00          	bound  %ebp,0x0(%ebp,%eiz,2)
    5876:	42                   	inc    %edx
    5877:	61                   	popa   
    5878:	73 73                	jae    58ed <usbhid_dev_get_report_descriptor+0xb3d>
    587a:	20 42 6f             	and    %al,0x6f(%edx)
    587d:	6f                   	outsl  %ds:(%esi),(%dx)
    587e:	73 74                	jae    58f4 <usbhid_dev_get_report_descriptor+0xb44>
    5880:	00 53 75             	add    %dl,0x75(%ebx)
    5883:	72 72                	jb     58f7 <usbhid_dev_get_report_descriptor+0xb47>
    5885:	6f                   	outsl  %ds:(%esi),(%dx)
    5886:	75 6e                	jne    58f6 <usbhid_dev_get_report_descriptor+0xb46>
    5888:	64 20 4d 6f          	and    %cl,%fs:0x6f(%ebp)
    588c:	64 65 00 4c 6f 75    	fs add %cl,%gs:0x75(%edi,%ebp,2)
    5892:	64 6e                	outsb  %fs:(%esi),(%dx)
    5894:	65 73 73             	gs jae 590a <usbhid_dev_get_report_descriptor+0xb5a>
    5897:	00 4d 50             	add    %cl,0x50(%ebp)
    589a:	58                   	pop    %eax
    589b:	00 56 6f             	add    %dl,0x6f(%esi)
    589e:	6c                   	insb   (%dx),%es:(%edi)
    589f:	75 6d                	jne    590e <usbhid_dev_get_report_descriptor+0xb5e>
    58a1:	65 20 49 6e          	and    %cl,%gs:0x6e(%ecx)
    58a5:	63 72 65             	arpl   %si,0x65(%edx)
    58a8:	6d                   	insl   (%dx),%es:(%edi)
    58a9:	65 6e                	outsb  %gs:(%esi),(%dx)
    58ab:	74 00                	je     58ad <usbhid_dev_get_report_descriptor+0xafd>
    58ad:	56                   	push   %esi
    58ae:	6f                   	outsl  %ds:(%esi),(%dx)
    58af:	6c                   	insb   (%dx),%es:(%edi)
    58b0:	75 6d                	jne    591f <usbhid_dev_get_report_descriptor+0xb6f>
    58b2:	65 20 44 65 63       	and    %al,%gs:0x63(%ebp,%eiz,2)
    58b7:	72 65                	jb     591e <usbhid_dev_get_report_descriptor+0xb6e>
    58b9:	6d                   	insl   (%dx),%es:(%edi)
    58ba:	65 6e                	outsb  %gs:(%esi),(%dx)
    58bc:	74 00                	je     58be <usbhid_dev_get_report_descriptor+0xb0e>
    58be:	53                   	push   %ebx
    58bf:	70 65                	jo     5926 <usbhid_dev_get_report_descriptor+0xb76>
    58c1:	65 64 20 53 65       	gs and %dl,%fs:0x65(%ebx)
    58c6:	6c                   	insb   (%dx),%es:(%edi)
    58c7:	65 63 74 00 50       	arpl   %si,%gs:0x50(%eax,%eax,1)
    58cc:	6c                   	insb   (%dx),%es:(%edi)
    58cd:	61                   	popa   
    58ce:	79 62                	jns    5932 <usbhid_dev_get_report_descriptor+0xb82>
    58d0:	61                   	popa   
    58d1:	63 6b 20             	arpl   %bp,0x20(%ebx)
    58d4:	53                   	push   %ebx
    58d5:	70 65                	jo     593c <usbhid_dev_get_report_descriptor+0xb8c>
    58d7:	65 64 00 53 74       	gs add %dl,%fs:0x74(%ebx)
    58dc:	61                   	popa   
    58dd:	6e                   	outsb  %ds:(%esi),(%dx)
    58de:	64 61                	fs popa 
    58e0:	72 64                	jb     5946 <usbhid_dev_get_report_descriptor+0xb96>
    58e2:	20 50 6c             	and    %dl,0x6c(%eax)
    58e5:	61                   	popa   
    58e6:	79 00                	jns    58e8 <usbhid_dev_get_report_descriptor+0xb38>
    58e8:	4c                   	dec    %esp
    58e9:	6f                   	outsl  %ds:(%esi),(%dx)
    58ea:	6e                   	outsb  %ds:(%esi),(%dx)
    58eb:	67 20 50 6c          	and    %dl,0x6c(%bx,%si)
    58ef:	61                   	popa   
    58f0:	79 00                	jns    58f2 <usbhid_dev_get_report_descriptor+0xb42>
    58f2:	45                   	inc    %ebp
    58f3:	78 74                	js     5969 <usbhid_dev_get_report_descriptor+0xbb9>
    58f5:	65 6e                	outsb  %gs:(%esi),(%dx)
    58f7:	64 65 64 20 50 6c    	fs gs and %dl,%fs:0x6c(%eax)
    58fd:	61                   	popa   
    58fe:	79 00                	jns    5900 <usbhid_dev_get_report_descriptor+0xb50>
    5900:	53                   	push   %ebx
    5901:	6c                   	insb   (%dx),%es:(%edi)
    5902:	6f                   	outsl  %ds:(%esi),(%dx)
    5903:	77 00                	ja     5905 <usbhid_dev_get_report_descriptor+0xb55>
    5905:	46                   	inc    %esi
    5906:	61                   	popa   
    5907:	6e                   	outsb  %ds:(%esi),(%dx)
    5908:	20 45 6e             	and    %al,0x6e(%ebp)
    590b:	61                   	popa   
    590c:	62 6c 65 00          	bound  %ebp,0x0(%ebp,%eiz,2)
    5910:	46                   	inc    %esi
    5911:	61                   	popa   
    5912:	6e                   	outsb  %ds:(%esi),(%dx)
    5913:	20 53 70             	and    %dl,0x70(%ebx)
    5916:	65 65 64 00 4c 69 67 	gs gs add %cl,%fs:0x67(%ecx,%ebp,2)
    591d:	68 74 20 45 6e       	push   $0x6e452074
    5922:	61                   	popa   
    5923:	62 6c 65 00          	bound  %ebp,0x0(%ebp,%eiz,2)
    5927:	4c                   	dec    %esp
    5928:	69 67 68 74 20 49 6c 	imul   $0x6c492074,0x68(%edi),%esp
    592f:	6c                   	insb   (%dx),%es:(%edi)
    5930:	75 6d                	jne    599f <usbhid_dev_get_report_descriptor+0xbef>
    5932:	69 6e 61 74 69 6f 6e 	imul   $0x6e6f6974,0x61(%esi),%ebp
    5939:	20 4c 65 76          	and    %cl,0x76(%ebp,%eiz,2)
    593d:	65 6c                	gs insb (%dx),%es:(%edi)
    593f:	00 43 6c             	add    %al,0x6c(%ebx)
    5942:	69 6d 61 74 65 20 43 	imul   $0x43206574,0x61(%ebp),%ebp
    5949:	6f                   	outsl  %ds:(%esi),(%dx)
    594a:	6e                   	outsb  %ds:(%esi),(%dx)
    594b:	74 72                	je     59bf <usbhid_dev_get_report_descriptor+0xc0f>
    594d:	6f                   	outsl  %ds:(%esi),(%dx)
    594e:	6c                   	insb   (%dx),%es:(%edi)
    594f:	20 45 6e             	and    %al,0x6e(%ebp)
    5952:	61                   	popa   
    5953:	62 6c 65 00          	bound  %ebp,0x0(%ebp,%eiz,2)
    5957:	52                   	push   %edx
    5958:	6f                   	outsl  %ds:(%esi),(%dx)
    5959:	6f                   	outsl  %ds:(%esi),(%dx)
    595a:	6d                   	insl   (%dx),%es:(%edi)
    595b:	20 54 65 6d          	and    %dl,0x6d(%ebp,%eiz,2)
    595f:	70 65                	jo     59c6 <usbhid_dev_get_report_descriptor+0xc16>
    5961:	72 61                	jb     59c4 <usbhid_dev_get_report_descriptor+0xc14>
    5963:	74 75                	je     59da <usbhid_dev_get_report_descriptor+0xc2a>
    5965:	72 65                	jb     59cc <usbhid_dev_get_report_descriptor+0xc1c>
    5967:	00 53 65             	add    %dl,0x65(%ebx)
    596a:	63 75 72             	arpl   %si,0x72(%ebp)
    596d:	69 74 79 20 45 6e 61 	imul   $0x62616e45,0x20(%ecx,%edi,2),%esi
    5974:	62 
    5975:	6c                   	insb   (%dx),%es:(%edi)
    5976:	65 00 46 69          	add    %al,%gs:0x69(%esi)
    597a:	72 65                	jb     59e1 <usbhid_dev_get_report_descriptor+0xc31>
    597c:	20 41 6c             	and    %al,0x6c(%ecx)
    597f:	61                   	popa   
    5980:	72 6d                	jb     59ef <usbhid_dev_get_report_descriptor+0xc3f>
    5982:	00 50 6f             	add    %dl,0x6f(%eax)
    5985:	6c                   	insb   (%dx),%es:(%edi)
    5986:	69 63 65 20 41 6c 61 	imul   $0x616c4120,0x65(%ebx),%esp
    598d:	72 6d                	jb     59fc <usbhid_dev_get_report_descriptor+0xc4c>
    598f:	00 50 72             	add    %dl,0x72(%eax)
    5992:	6f                   	outsl  %ds:(%esi),(%dx)
    5993:	78 69                	js     59fe <usbhid_dev_get_report_descriptor+0xc4e>
    5995:	6d                   	insl   (%dx),%es:(%edi)
    5996:	69 74 79 00 4d 6f 74 	imul   $0x69746f4d,0x0(%ecx,%edi,2),%esi
    599d:	69 
    599e:	6f                   	outsl  %ds:(%esi),(%dx)
    599f:	6e                   	outsb  %ds:(%esi),(%dx)
    59a0:	00 44 75 72          	add    %al,0x72(%ebp,%esi,2)
    59a4:	65 73 73             	gs jae 5a1a <usbhid_dev_get_report_descriptor+0xc6a>
    59a7:	20 41 6c             	and    %al,0x6c(%ecx)
    59aa:	61                   	popa   
    59ab:	72 6d                	jb     5a1a <usbhid_dev_get_report_descriptor+0xc6a>
    59ad:	00 48 6f             	add    %cl,0x6f(%eax)
    59b0:	6c                   	insb   (%dx),%es:(%edi)
    59b1:	64 75 70             	fs jne 5a24 <usbhid_dev_get_report_descriptor+0xc74>
    59b4:	20 41 6c             	and    %al,0x6c(%ecx)
    59b7:	61                   	popa   
    59b8:	72 6d                	jb     5a27 <usbhid_dev_get_report_descriptor+0xc77>
    59ba:	00 4d 65             	add    %cl,0x65(%ebp)
    59bd:	64 69 63 61 6c 20 41 	imul   $0x6c41206c,%fs:0x61(%ebx),%esp
    59c4:	6c 
    59c5:	61                   	popa   
    59c6:	72 6d                	jb     5a35 <usbhid_dev_get_report_descriptor+0xc85>
    59c8:	00 42 61             	add    %al,0x61(%edx)
    59cb:	6c                   	insb   (%dx),%es:(%edi)
    59cc:	61                   	popa   
    59cd:	6e                   	outsb  %ds:(%esi),(%dx)
    59ce:	63 65 20             	arpl   %sp,0x20(%ebp)
    59d1:	52                   	push   %edx
    59d2:	69 67 68 74 00 42 61 	imul   $0x61420074,0x68(%edi),%esp
    59d9:	6c                   	insb   (%dx),%es:(%edi)
    59da:	61                   	popa   
    59db:	6e                   	outsb  %ds:(%esi),(%dx)
    59dc:	63 65 20             	arpl   %sp,0x20(%ebp)
    59df:	4c                   	dec    %esp
    59e0:	65 66 74 00          	gs data16 je 59e4 <usbhid_dev_get_report_descriptor+0xc34>
    59e4:	42                   	inc    %edx
    59e5:	61                   	popa   
    59e6:	73 73                	jae    5a5b <usbhid_dev_get_report_descriptor+0xcab>
    59e8:	20 49 6e             	and    %cl,0x6e(%ecx)
    59eb:	63 72 65             	arpl   %si,0x65(%edx)
    59ee:	6d                   	insl   (%dx),%es:(%edi)
    59ef:	65 6e                	outsb  %gs:(%esi),(%dx)
    59f1:	74 00                	je     59f3 <usbhid_dev_get_report_descriptor+0xc43>
    59f3:	42                   	inc    %edx
    59f4:	61                   	popa   
    59f5:	73 73                	jae    5a6a <usbhid_dev_get_report_descriptor+0xcba>
    59f7:	20 44 65 63          	and    %al,0x63(%ebp,%eiz,2)
    59fb:	72 65                	jb     5a62 <usbhid_dev_get_report_descriptor+0xcb2>
    59fd:	6d                   	insl   (%dx),%es:(%edi)
    59fe:	65 6e                	outsb  %gs:(%esi),(%dx)
    5a00:	74 00                	je     5a02 <usbhid_dev_get_report_descriptor+0xc52>
    5a02:	54                   	push   %esp
    5a03:	72 65                	jb     5a6a <usbhid_dev_get_report_descriptor+0xcba>
    5a05:	62 6c 65 20          	bound  %ebp,0x20(%ebp,%eiz,2)
    5a09:	49                   	dec    %ecx
    5a0a:	6e                   	outsb  %ds:(%esi),(%dx)
    5a0b:	63 72 65             	arpl   %si,0x65(%edx)
    5a0e:	6d                   	insl   (%dx),%es:(%edi)
    5a0f:	65 6e                	outsb  %gs:(%esi),(%dx)
    5a11:	74 00                	je     5a13 <usbhid_dev_get_report_descriptor+0xc63>
    5a13:	54                   	push   %esp
    5a14:	72 65                	jb     5a7b <usbhid_dev_get_report_descriptor+0xccb>
    5a16:	62 6c 65 20          	bound  %ebp,0x20(%ebp,%eiz,2)
    5a1a:	44                   	inc    %esp
    5a1b:	65 63 72 65          	arpl   %si,%gs:0x65(%edx)
    5a1f:	6d                   	insl   (%dx),%es:(%edi)
    5a20:	65 6e                	outsb  %gs:(%esi),(%dx)
    5a22:	74 00                	je     5a24 <usbhid_dev_get_report_descriptor+0xc74>
    5a24:	53                   	push   %ebx
    5a25:	70 65                	jo     5a8c <usbhid_dev_get_report_descriptor+0xcdc>
    5a27:	61                   	popa   
    5a28:	6b 65 72 20          	imul   $0x20,0x72(%ebp),%esp
    5a2c:	53                   	push   %ebx
    5a2d:	79 73                	jns    5aa2 <usbhid_dev_get_report_descriptor+0xcf2>
    5a2f:	74 65                	je     5a96 <usbhid_dev_get_report_descriptor+0xce6>
    5a31:	6d                   	insl   (%dx),%es:(%edi)
    5a32:	00 43 68             	add    %al,0x68(%ebx)
    5a35:	61                   	popa   
    5a36:	6e                   	outsb  %ds:(%esi),(%dx)
    5a37:	6e                   	outsb  %ds:(%esi),(%dx)
    5a38:	65 6c                	gs insb (%dx),%es:(%edi)
    5a3a:	20 4c 65 66          	and    %cl,0x66(%ebp,%eiz,2)
    5a3e:	74 00                	je     5a40 <usbhid_dev_get_report_descriptor+0xc90>
    5a40:	43                   	inc    %ebx
    5a41:	68 61 6e 6e 65       	push   $0x656e6e61
    5a46:	6c                   	insb   (%dx),%es:(%edi)
    5a47:	20 52 69             	and    %dl,0x69(%edx)
    5a4a:	67 68 74 00 43 68    	addr16 push $0x68430074
    5a50:	61                   	popa   
    5a51:	6e                   	outsb  %ds:(%esi),(%dx)
    5a52:	6e                   	outsb  %ds:(%esi),(%dx)
    5a53:	65 6c                	gs insb (%dx),%es:(%edi)
    5a55:	20 43 65             	and    %al,0x65(%ebx)
    5a58:	6e                   	outsb  %ds:(%esi),(%dx)
    5a59:	74 65                	je     5ac0 <usbhid_dev_get_report_descriptor+0xd10>
    5a5b:	72 00                	jb     5a5d <usbhid_dev_get_report_descriptor+0xcad>
    5a5d:	43                   	inc    %ebx
    5a5e:	68 61 6e 6e 65       	push   $0x656e6e61
    5a63:	6c                   	insb   (%dx),%es:(%edi)
    5a64:	20 46 72             	and    %al,0x72(%esi)
    5a67:	6f                   	outsl  %ds:(%esi),(%dx)
    5a68:	6e                   	outsb  %ds:(%esi),(%dx)
    5a69:	74 00                	je     5a6b <usbhid_dev_get_report_descriptor+0xcbb>
    5a6b:	43                   	inc    %ebx
    5a6c:	68 61 6e 6e 65       	push   $0x656e6e61
    5a71:	6c                   	insb   (%dx),%es:(%edi)
    5a72:	20 43 65             	and    %al,0x65(%ebx)
    5a75:	6e                   	outsb  %ds:(%esi),(%dx)
    5a76:	74 65                	je     5add <usbhid_dev_get_report_descriptor+0xd2d>
    5a78:	72 20                	jb     5a9a <usbhid_dev_get_report_descriptor+0xcea>
    5a7a:	46                   	inc    %esi
    5a7b:	72 6f                	jb     5aec <usbhid_dev_get_report_descriptor+0xd3c>
    5a7d:	6e                   	outsb  %ds:(%esi),(%dx)
    5a7e:	74 00                	je     5a80 <usbhid_dev_get_report_descriptor+0xcd0>
    5a80:	43                   	inc    %ebx
    5a81:	68 61 6e 6e 65       	push   $0x656e6e61
    5a86:	6c                   	insb   (%dx),%es:(%edi)
    5a87:	20 53 69             	and    %dl,0x69(%ebx)
    5a8a:	64 65 00 43 68       	fs add %al,%gs:0x68(%ebx)
    5a8f:	61                   	popa   
    5a90:	6e                   	outsb  %ds:(%esi),(%dx)
    5a91:	6e                   	outsb  %ds:(%esi),(%dx)
    5a92:	65 6c                	gs insb (%dx),%es:(%edi)
    5a94:	20 53 75             	and    %dl,0x75(%ebx)
    5a97:	72 72                	jb     5b0b <usbhid_dev_get_report_descriptor+0xd5b>
    5a99:	6f                   	outsl  %ds:(%esi),(%dx)
    5a9a:	75 6e                	jne    5b0a <usbhid_dev_get_report_descriptor+0xd5a>
    5a9c:	64 00 43 68          	add    %al,%fs:0x68(%ebx)
    5aa0:	61                   	popa   
    5aa1:	6e                   	outsb  %ds:(%esi),(%dx)
    5aa2:	6e                   	outsb  %ds:(%esi),(%dx)
    5aa3:	65 6c                	gs insb (%dx),%es:(%edi)
    5aa5:	20 54 6f 70          	and    %dl,0x70(%edi,%ebp,2)
    5aa9:	00 43 68             	add    %al,0x68(%ebx)
    5aac:	61                   	popa   
    5aad:	6e                   	outsb  %ds:(%esi),(%dx)
    5aae:	6e                   	outsb  %ds:(%esi),(%dx)
    5aaf:	65 6c                	gs insb (%dx),%es:(%edi)
    5ab1:	20 55 6e             	and    %dl,0x6e(%ebp)
    5ab4:	6b 6e 6f 77          	imul   $0x77,0x6f(%esi),%ebp
    5ab8:	6e                   	outsb  %ds:(%esi),(%dx)
    5ab9:	00 53 75             	add    %dl,0x75(%ebx)
    5abc:	62 2d 63 68 61 6e    	bound  %ebp,0x6e616863
    5ac2:	6e                   	outsb  %ds:(%esi),(%dx)
    5ac3:	65 6c                	gs insb (%dx),%es:(%edi)
    5ac5:	00 53 75             	add    %dl,0x75(%ebx)
    5ac8:	62 2d 63 68 61 6e    	bound  %ebp,0x6e616863
    5ace:	6e                   	outsb  %ds:(%esi),(%dx)
    5acf:	65 6c                	gs insb (%dx),%es:(%edi)
    5ad1:	20 49 6e             	and    %cl,0x6e(%ecx)
    5ad4:	63 72 65             	arpl   %si,0x65(%edx)
    5ad7:	6d                   	insl   (%dx),%es:(%edi)
    5ad8:	65 6e                	outsb  %gs:(%esi),(%dx)
    5ada:	74 00                	je     5adc <usbhid_dev_get_report_descriptor+0xd2c>
    5adc:	53                   	push   %ebx
    5add:	75 62                	jne    5b41 <usbhid_dev_get_report_descriptor+0xd91>
    5adf:	2d 63 68 61 6e       	sub    $0x6e616863,%eax
    5ae4:	6e                   	outsb  %ds:(%esi),(%dx)
    5ae5:	65 6c                	gs insb (%dx),%es:(%edi)
    5ae7:	20 44 65 63          	and    %al,0x63(%ebp,%eiz,2)
    5aeb:	72 65                	jb     5b52 <usbhid_dev_get_report_descriptor+0xda2>
    5aed:	6d                   	insl   (%dx),%es:(%edi)
    5aee:	65 6e                	outsb  %gs:(%esi),(%dx)
    5af0:	74 00                	je     5af2 <usbhid_dev_get_report_descriptor+0xd42>
    5af2:	41                   	inc    %ecx
    5af3:	6c                   	insb   (%dx),%es:(%edi)
    5af4:	74 65                	je     5b5b <usbhid_dev_get_report_descriptor+0xdab>
    5af6:	72 6e                	jb     5b66 <usbhid_dev_get_report_descriptor+0xdb6>
    5af8:	61                   	popa   
    5af9:	74 65                	je     5b60 <usbhid_dev_get_report_descriptor+0xdb0>
    5afb:	20 41 75             	and    %al,0x75(%ecx)
    5afe:	64 69 6f 20 49 6e 63 	imul   $0x72636e49,%fs:0x20(%edi),%ebp
    5b05:	72 
    5b06:	65 6d                	gs insl (%dx),%es:(%edi)
    5b08:	65 6e                	outsb  %gs:(%esi),(%dx)
    5b0a:	74 00                	je     5b0c <usbhid_dev_get_report_descriptor+0xd5c>
    5b0c:	41                   	inc    %ecx
    5b0d:	6c                   	insb   (%dx),%es:(%edi)
    5b0e:	74 65                	je     5b75 <usbhid_dev_get_report_descriptor+0xdc5>
    5b10:	72 6e                	jb     5b80 <usbhid_dev_get_report_descriptor+0xdd0>
    5b12:	61                   	popa   
    5b13:	74 65                	je     5b7a <usbhid_dev_get_report_descriptor+0xdca>
    5b15:	20 41 75             	and    %al,0x75(%ecx)
    5b18:	64 69 6f 20 44 65 63 	imul   $0x72636544,%fs:0x20(%edi),%ebp
    5b1f:	72 
    5b20:	65 6d                	gs insl (%dx),%es:(%edi)
    5b22:	65 6e                	outsb  %gs:(%esi),(%dx)
    5b24:	74 00                	je     5b26 <usbhid_dev_get_report_descriptor+0xd76>
    5b26:	41                   	inc    %ecx
    5b27:	70 70                	jo     5b99 <usbhid_dev_get_report_descriptor+0xde9>
    5b29:	6c                   	insb   (%dx),%es:(%edi)
    5b2a:	69 63 61 74 69 6f 6e 	imul   $0x6e6f6974,0x61(%ebx),%esp
    5b31:	20 4c 61 75          	and    %cl,0x75(%ecx,%eiz,2)
    5b35:	6e                   	outsb  %ds:(%esi),(%dx)
    5b36:	63 68 20             	arpl   %bp,0x20(%eax)
    5b39:	42                   	inc    %edx
    5b3a:	75 74                	jne    5bb0 <usbhid_dev_get_report_descriptor+0xe00>
    5b3c:	74 6f                	je     5bad <usbhid_dev_get_report_descriptor+0xdfd>
    5b3e:	6e                   	outsb  %ds:(%esi),(%dx)
    5b3f:	73 00                	jae    5b41 <usbhid_dev_get_report_descriptor+0xd91>
    5b41:	41                   	inc    %ecx
    5b42:	4c                   	dec    %esp
    5b43:	20 57 6f             	and    %dl,0x6f(%edi)
    5b46:	72 64                	jb     5bac <usbhid_dev_get_report_descriptor+0xdfc>
    5b48:	20 50 72             	and    %dl,0x72(%eax)
    5b4b:	6f                   	outsl  %ds:(%esi),(%dx)
    5b4c:	63 65 73             	arpl   %sp,0x73(%ebp)
    5b4f:	73 6f                	jae    5bc0 <usbhid_dev_get_report_descriptor+0xe10>
    5b51:	72 00                	jb     5b53 <usbhid_dev_get_report_descriptor+0xda3>
    5b53:	41                   	inc    %ecx
    5b54:	4c                   	dec    %esp
    5b55:	20 54 65 78          	and    %dl,0x78(%ebp,%eiz,2)
    5b59:	74 20                	je     5b7b <usbhid_dev_get_report_descriptor+0xdcb>
    5b5b:	45                   	inc    %ebp
    5b5c:	64 69 74 6f 72 00 41 	imul   $0x204c4100,%fs:0x72(%edi,%ebp,2),%esi
    5b63:	4c 20 
    5b65:	53                   	push   %ebx
    5b66:	70 72                	jo     5bda <usbhid_dev_get_report_descriptor+0xe2a>
    5b68:	65 61                	gs popa 
    5b6a:	64 73 68             	fs jae 5bd5 <usbhid_dev_get_report_descriptor+0xe25>
    5b6d:	65 65 74 00          	gs gs je 5b71 <usbhid_dev_get_report_descriptor+0xdc1>
    5b71:	41                   	inc    %ecx
    5b72:	4c                   	dec    %esp
    5b73:	20 47 72             	and    %al,0x72(%edi)
    5b76:	61                   	popa   
    5b77:	70 68                	jo     5be1 <usbhid_dev_get_report_descriptor+0xe31>
    5b79:	69 63 73 20 45 64 69 	imul   $0x69644520,0x73(%ebx),%esp
    5b80:	74 6f                	je     5bf1 <usbhid_dev_get_report_descriptor+0xe41>
    5b82:	72 00                	jb     5b84 <usbhid_dev_get_report_descriptor+0xdd4>
    5b84:	41                   	inc    %ecx
    5b85:	4c                   	dec    %esp
    5b86:	20 50 72             	and    %dl,0x72(%eax)
    5b89:	65 73 65             	gs jae 5bf1 <usbhid_dev_get_report_descriptor+0xe41>
    5b8c:	6e                   	outsb  %ds:(%esi),(%dx)
    5b8d:	74 61                	je     5bf0 <usbhid_dev_get_report_descriptor+0xe40>
    5b8f:	74 69                	je     5bfa <usbhid_dev_get_report_descriptor+0xe4a>
    5b91:	6f                   	outsl  %ds:(%esi),(%dx)
    5b92:	6e                   	outsb  %ds:(%esi),(%dx)
    5b93:	20 41 70             	and    %al,0x70(%ecx)
    5b96:	70 00                	jo     5b98 <usbhid_dev_get_report_descriptor+0xde8>
    5b98:	41                   	inc    %ecx
    5b99:	4c                   	dec    %esp
    5b9a:	20 44 61 74          	and    %al,0x74(%ecx,%eiz,2)
    5b9e:	61                   	popa   
    5b9f:	62 61 73             	bound  %esp,0x73(%ecx)
    5ba2:	65 20 41 70          	and    %al,%gs:0x70(%ecx)
    5ba6:	70 00                	jo     5ba8 <usbhid_dev_get_report_descriptor+0xdf8>
    5ba8:	41                   	inc    %ecx
    5ba9:	4c                   	dec    %esp
    5baa:	20 45 6d             	and    %al,0x6d(%ebp)
    5bad:	61                   	popa   
    5bae:	69 6c 20 52 65 61 64 	imul   $0x65646165,0x52(%eax,%eiz,1),%ebp
    5bb5:	65 
    5bb6:	72 00                	jb     5bb8 <usbhid_dev_get_report_descriptor+0xe08>
    5bb8:	41                   	inc    %ecx
    5bb9:	4c                   	dec    %esp
    5bba:	20 4e 65             	and    %cl,0x65(%esi)
    5bbd:	77 73                	ja     5c32 <usbhid_dev_get_report_descriptor+0xe82>
    5bbf:	72 65                	jb     5c26 <usbhid_dev_get_report_descriptor+0xe76>
    5bc1:	61                   	popa   
    5bc2:	64 65 72 00          	fs gs jb 5bc6 <usbhid_dev_get_report_descriptor+0xe16>
    5bc6:	41                   	inc    %ecx
    5bc7:	4c                   	dec    %esp
    5bc8:	20 56 6f             	and    %dl,0x6f(%esi)
    5bcb:	69 63 65 6d 61 69 6c 	imul   $0x6c69616d,0x65(%ebx),%esp
    5bd2:	00 41 4c             	add    %al,0x4c(%ecx)
    5bd5:	20 43 6f             	and    %al,0x6f(%ebx)
    5bd8:	6e                   	outsb  %ds:(%esi),(%dx)
    5bd9:	74 61                	je     5c3c <usbhid_dev_get_report_descriptor+0xe8c>
    5bdb:	63 74 73 2f          	arpl   %si,0x2f(%ebx,%esi,2)
    5bdf:	41                   	inc    %ecx
    5be0:	64 64 72 65          	fs fs jb 5c49 <usbhid_dev_get_report_descriptor+0xe99>
    5be4:	73 73                	jae    5c59 <usbhid_dev_get_report_descriptor+0xea9>
    5be6:	20 42 6f             	and    %al,0x6f(%edx)
    5be9:	6f                   	outsl  %ds:(%esi),(%dx)
    5bea:	6b 00 41             	imul   $0x41,(%eax),%eax
    5bed:	4c                   	dec    %esp
    5bee:	20 43 61             	and    %al,0x61(%ebx)
    5bf1:	6c                   	insb   (%dx),%es:(%edi)
    5bf2:	65 6e                	outsb  %gs:(%esi),(%dx)
    5bf4:	64 61                	fs popa 
    5bf6:	72 2f                	jb     5c27 <usbhid_dev_get_report_descriptor+0xe77>
    5bf8:	53                   	push   %ebx
    5bf9:	63 68 65             	arpl   %bp,0x65(%eax)
    5bfc:	64 75 6c             	fs jne 5c6b <usbhid_dev_get_report_descriptor+0xebb>
    5bff:	65 00 41 4c          	add    %al,%gs:0x4c(%ecx)
    5c03:	20 54 61 73          	and    %dl,0x73(%ecx,%eiz,2)
    5c07:	6b 2f 50             	imul   $0x50,(%edi),%ebp
    5c0a:	72 6f                	jb     5c7b <usbhid_dev_get_report_descriptor+0xecb>
    5c0c:	6a 65                	push   $0x65
    5c0e:	63 74 20 4d          	arpl   %si,0x4d(%eax,%eiz,1)
    5c12:	61                   	popa   
    5c13:	6e                   	outsb  %ds:(%esi),(%dx)
    5c14:	61                   	popa   
    5c15:	67 65 72 00          	addr16 gs jb 5c19 <usbhid_dev_get_report_descriptor+0xe69>
    5c19:	41                   	inc    %ecx
    5c1a:	4c                   	dec    %esp
    5c1b:	20 4c 6f 67          	and    %cl,0x67(%edi,%ebp,2)
    5c1f:	2f                   	das    
    5c20:	4a                   	dec    %edx
    5c21:	6f                   	outsl  %ds:(%esi),(%dx)
    5c22:	75 72                	jne    5c96 <usbhid_dev_get_report_descriptor+0xee6>
    5c24:	6e                   	outsb  %ds:(%esi),(%dx)
    5c25:	61                   	popa   
    5c26:	6c                   	insb   (%dx),%es:(%edi)
    5c27:	2f                   	das    
    5c28:	54                   	push   %esp
    5c29:	69 6d 65 63 61 72 64 	imul   $0x64726163,0x65(%ebp),%ebp
    5c30:	00 41 4c             	add    %al,0x4c(%ecx)
    5c33:	20 43 68             	and    %al,0x68(%ebx)
    5c36:	65 63 6b 62          	arpl   %bp,%gs:0x62(%ebx)
    5c3a:	6f                   	outsl  %ds:(%esi),(%dx)
    5c3b:	6f                   	outsl  %ds:(%esi),(%dx)
    5c3c:	6b 2f 46             	imul   $0x46,(%edi),%ebp
    5c3f:	69 6e 61 6e 63 65 00 	imul   $0x65636e,0x61(%esi),%ebp
    5c46:	41                   	inc    %ecx
    5c47:	4c                   	dec    %esp
    5c48:	20 43 61             	and    %al,0x61(%ebx)
    5c4b:	6c                   	insb   (%dx),%es:(%edi)
    5c4c:	63 75 6c             	arpl   %si,0x6c(%ebp)
    5c4f:	61                   	popa   
    5c50:	74 6f                	je     5cc1 <usbhid_dev_get_report_descriptor+0xf11>
    5c52:	72 00                	jb     5c54 <usbhid_dev_get_report_descriptor+0xea4>
    5c54:	41                   	inc    %ecx
    5c55:	4c                   	dec    %esp
    5c56:	20 41 2f             	and    %al,0x2f(%ecx)
    5c59:	56                   	push   %esi
    5c5a:	20 43 61             	and    %al,0x61(%ebx)
    5c5d:	70 74                	jo     5cd3 <usbhid_dev_get_report_descriptor+0xf23>
    5c5f:	75 72                	jne    5cd3 <usbhid_dev_get_report_descriptor+0xf23>
    5c61:	65 2f                	gs das 
    5c63:	50                   	push   %eax
    5c64:	6c                   	insb   (%dx),%es:(%edi)
    5c65:	61                   	popa   
    5c66:	79 62                	jns    5cca <usbhid_dev_get_report_descriptor+0xf1a>
    5c68:	61                   	popa   
    5c69:	63 6b 00             	arpl   %bp,0x0(%ebx)
    5c6c:	41                   	inc    %ecx
    5c6d:	4c                   	dec    %esp
    5c6e:	20 4c 6f 63          	and    %cl,0x63(%edi,%ebp,2)
    5c72:	61                   	popa   
    5c73:	6c                   	insb   (%dx),%es:(%edi)
    5c74:	20 4d 61             	and    %cl,0x61(%ebp)
    5c77:	63 68 69             	arpl   %bp,0x69(%eax)
    5c7a:	6e                   	outsb  %ds:(%esi),(%dx)
    5c7b:	65 20 42 72          	and    %al,%gs:0x72(%edx)
    5c7f:	6f                   	outsl  %ds:(%esi),(%dx)
    5c80:	77 73                	ja     5cf5 <usbhid_dev_get_report_descriptor+0xf45>
    5c82:	65 72 00             	gs jb  5c85 <usbhid_dev_get_report_descriptor+0xed5>
    5c85:	41                   	inc    %ecx
    5c86:	4c                   	dec    %esp
    5c87:	20 4c 41 4e          	and    %cl,0x4e(%ecx,%eax,2)
    5c8b:	2f                   	das    
    5c8c:	57                   	push   %edi
    5c8d:	41                   	inc    %ecx
    5c8e:	4e                   	dec    %esi
    5c8f:	20 42 72             	and    %al,0x72(%edx)
    5c92:	6f                   	outsl  %ds:(%esi),(%dx)
    5c93:	77 73                	ja     5d08 <usbhid_dev_get_report_descriptor+0xf58>
    5c95:	65 72 00             	gs jb  5c98 <usbhid_dev_get_report_descriptor+0xee8>
    5c98:	41                   	inc    %ecx
    5c99:	4c                   	dec    %esp
    5c9a:	20 49 6e             	and    %cl,0x6e(%ecx)
    5c9d:	74 65                	je     5d04 <usbhid_dev_get_report_descriptor+0xf54>
    5c9f:	72 6e                	jb     5d0f <usbhid_dev_get_report_descriptor+0xf5f>
    5ca1:	65 74 20             	gs je  5cc4 <usbhid_dev_get_report_descriptor+0xf14>
    5ca4:	42                   	inc    %edx
    5ca5:	72 6f                	jb     5d16 <usbhid_dev_get_report_descriptor+0xf66>
    5ca7:	77 73                	ja     5d1c <usbhid_dev_get_report_descriptor+0xf6c>
    5ca9:	65 72 00             	gs jb  5cac <usbhid_dev_get_report_descriptor+0xefc>
    5cac:	41                   	inc    %ecx
    5cad:	4c                   	dec    %esp
    5cae:	20 4e 65             	and    %cl,0x65(%esi)
    5cb1:	74 77                	je     5d2a <usbhid_dev_get_report_descriptor+0xf7a>
    5cb3:	6f                   	outsl  %ds:(%esi),(%dx)
    5cb4:	72 6b                	jb     5d21 <usbhid_dev_get_report_descriptor+0xf71>
    5cb6:	20 43 6f             	and    %al,0x6f(%ebx)
    5cb9:	6e                   	outsb  %ds:(%esi),(%dx)
    5cba:	66 65 72 65          	data16 gs jb 5d23 <usbhid_dev_get_report_descriptor+0xf73>
    5cbe:	6e                   	outsb  %ds:(%esi),(%dx)
    5cbf:	63 65 00             	arpl   %sp,0x0(%ebp)
    5cc2:	41                   	inc    %ecx
    5cc3:	4c                   	dec    %esp
    5cc4:	20 4e 65             	and    %cl,0x65(%esi)
    5cc7:	74 77                	je     5d40 <usbhid_dev_get_report_descriptor+0xf90>
    5cc9:	6f                   	outsl  %ds:(%esi),(%dx)
    5cca:	72 6b                	jb     5d37 <usbhid_dev_get_report_descriptor+0xf87>
    5ccc:	20 43 68             	and    %al,0x68(%ebx)
    5ccf:	61                   	popa   
    5cd0:	74 00                	je     5cd2 <usbhid_dev_get_report_descriptor+0xf22>
    5cd2:	41                   	inc    %ecx
    5cd3:	4c                   	dec    %esp
    5cd4:	20 54 65 6c          	and    %dl,0x6c(%ebp,%eiz,2)
    5cd8:	65 70 68             	gs jo  5d43 <usbhid_dev_get_report_descriptor+0xf93>
    5cdb:	6f                   	outsl  %ds:(%esi),(%dx)
    5cdc:	6e                   	outsb  %ds:(%esi),(%dx)
    5cdd:	79 2f                	jns    5d0e <usbhid_dev_get_report_descriptor+0xf5e>
    5cdf:	44                   	inc    %esp
    5ce0:	69 61 6c 65 72 00 41 	imul   $0x41007265,0x6c(%ecx),%esp
    5ce7:	4c                   	dec    %esp
    5ce8:	20 4c 6f 67          	and    %cl,0x67(%edi,%ebp,2)
    5cec:	6f                   	outsl  %ds:(%esi),(%dx)
    5ced:	6e                   	outsb  %ds:(%esi),(%dx)
    5cee:	00 41 4c             	add    %al,0x4c(%ecx)
    5cf1:	20 4c 6f 67          	and    %cl,0x67(%edi,%ebp,2)
    5cf5:	6f                   	outsl  %ds:(%esi),(%dx)
    5cf6:	66 66 00 41 4c       	data16 data16 add %al,0x4c(%ecx)
    5cfb:	20 4c 6f 67          	and    %cl,0x67(%edi,%ebp,2)
    5cff:	6f                   	outsl  %ds:(%esi),(%dx)
    5d00:	6e                   	outsb  %ds:(%esi),(%dx)
    5d01:	2f                   	das    
    5d02:	4c                   	dec    %esp
    5d03:	6f                   	outsl  %ds:(%esi),(%dx)
    5d04:	67 6f                	outsl  %ds:(%si),(%dx)
    5d06:	66 66 00 41 4c       	data16 data16 add %al,0x4c(%ecx)
    5d0b:	20 54 65 72          	and    %dl,0x72(%ebp,%eiz,2)
    5d0f:	6d                   	insl   (%dx),%es:(%edi)
    5d10:	69 6e 61 6c 20 4c 6f 	imul   $0x6f4c206c,0x61(%esi),%ebp
    5d17:	63 6b 2f             	arpl   %bp,0x2f(%ebx)
    5d1a:	53                   	push   %ebx
    5d1b:	63 72 65             	arpl   %si,0x65(%edx)
    5d1e:	65 6e                	outsb  %gs:(%esi),(%dx)
    5d20:	73 61                	jae    5d83 <usbhid_dev_get_report_descriptor+0xfd3>
    5d22:	76 65                	jbe    5d89 <usbhid_dev_get_report_descriptor+0xfd9>
    5d24:	72 00                	jb     5d26 <usbhid_dev_get_report_descriptor+0xf76>
    5d26:	41                   	inc    %ecx
    5d27:	4c                   	dec    %esp
    5d28:	20 43 6f             	and    %al,0x6f(%ebx)
    5d2b:	6e                   	outsb  %ds:(%esi),(%dx)
    5d2c:	74 72                	je     5da0 <usbhid_dev_get_report_descriptor+0xff0>
    5d2e:	6f                   	outsl  %ds:(%esi),(%dx)
    5d2f:	6c                   	insb   (%dx),%es:(%edi)
    5d30:	20 50 61             	and    %dl,0x61(%eax)
    5d33:	6e                   	outsb  %ds:(%esi),(%dx)
    5d34:	65 6c                	gs insb (%dx),%es:(%edi)
    5d36:	00 41 4c             	add    %al,0x4c(%ecx)
    5d39:	20 43 6f             	and    %al,0x6f(%ebx)
    5d3c:	6d                   	insl   (%dx),%es:(%edi)
    5d3d:	6d                   	insl   (%dx),%es:(%edi)
    5d3e:	61                   	popa   
    5d3f:	6e                   	outsb  %ds:(%esi),(%dx)
    5d40:	64 20 4c 69 6e       	and    %cl,%fs:0x6e(%ecx,%ebp,2)
    5d45:	65 20 50 72          	and    %dl,%gs:0x72(%eax)
    5d49:	6f                   	outsl  %ds:(%esi),(%dx)
    5d4a:	63 65 73             	arpl   %sp,0x73(%ebp)
    5d4d:	73 6f                	jae    5dbe <usbhid_dev_get_report_descriptor+0x100e>
    5d4f:	72 2f                	jb     5d80 <usbhid_dev_get_report_descriptor+0xfd0>
    5d51:	52                   	push   %edx
    5d52:	75 6e                	jne    5dc2 <usbhid_dev_get_report_descriptor+0x1012>
    5d54:	00 41 4c             	add    %al,0x4c(%ecx)
    5d57:	20 50 72             	and    %dl,0x72(%eax)
    5d5a:	6f                   	outsl  %ds:(%esi),(%dx)
    5d5b:	63 65 73             	arpl   %sp,0x73(%ebp)
    5d5e:	73 2f                	jae    5d8f <usbhid_dev_get_report_descriptor+0xfdf>
    5d60:	54                   	push   %esp
    5d61:	61                   	popa   
    5d62:	73 6b                	jae    5dcf <usbhid_dev_get_report_descriptor+0x101f>
    5d64:	20 4d 61             	and    %cl,0x61(%ebp)
    5d67:	6e                   	outsb  %ds:(%esi),(%dx)
    5d68:	61                   	popa   
    5d69:	67 65 72 00          	addr16 gs jb 5d6d <usbhid_dev_get_report_descriptor+0xfbd>
    5d6d:	41                   	inc    %ecx
    5d6e:	4c                   	dec    %esp
    5d6f:	20 53 65             	and    %dl,0x65(%ebx)
    5d72:	6c                   	insb   (%dx),%es:(%edi)
    5d73:	65 63 74 20 54       	arpl   %si,%gs:0x54(%eax,%eiz,1)
    5d78:	61                   	popa   
    5d79:	73 6b                	jae    5de6 <usbhid_dev_get_report_descriptor+0x1036>
    5d7b:	2f                   	das    
    5d7c:	41                   	inc    %ecx
    5d7d:	70 70                	jo     5def <usbhid_dev_get_report_descriptor+0x103f>
    5d7f:	6c                   	insb   (%dx),%es:(%edi)
    5d80:	69 63 61 74 69 6f 6e 	imul   $0x6e6f6974,0x61(%ebx),%esp
    5d87:	00 41 4c             	add    %al,0x4c(%ecx)
    5d8a:	20 4e 65             	and    %cl,0x65(%esi)
    5d8d:	78 74                	js     5e03 <usbhid_dev_get_report_descriptor+0x1053>
    5d8f:	20 54 61 73          	and    %dl,0x73(%ecx,%eiz,2)
    5d93:	6b 2f 41             	imul   $0x41,(%edi),%ebp
    5d96:	70 70                	jo     5e08 <usbhid_dev_get_report_descriptor+0x1058>
    5d98:	6c                   	insb   (%dx),%es:(%edi)
    5d99:	69 63 61 74 69 6f 6e 	imul   $0x6e6f6974,0x61(%ebx),%esp
    5da0:	00 41 4c             	add    %al,0x4c(%ecx)
    5da3:	20 50 72             	and    %dl,0x72(%eax)
    5da6:	65 76 69             	gs jbe 5e12 <usbhid_dev_get_report_descriptor+0x1062>
    5da9:	6f                   	outsl  %ds:(%esi),(%dx)
    5daa:	75 73                	jne    5e1f <usbhid_dev_get_report_descriptor+0x106f>
    5dac:	20 54 61 73          	and    %dl,0x73(%ecx,%eiz,2)
    5db0:	6b 2f 41             	imul   $0x41,(%edi),%ebp
    5db3:	70 70                	jo     5e25 <usbhid_dev_get_report_descriptor+0x1075>
    5db5:	6c                   	insb   (%dx),%es:(%edi)
    5db6:	69 63 61 74 69 6f 6e 	imul   $0x6e6f6974,0x61(%ebx),%esp
    5dbd:	00 41 4c             	add    %al,0x4c(%ecx)
    5dc0:	20 49 6e             	and    %cl,0x6e(%ecx)
    5dc3:	74 65                	je     5e2a <usbhid_dev_get_report_descriptor+0x107a>
    5dc5:	67 72 61             	addr16 jb 5e29 <usbhid_dev_get_report_descriptor+0x1079>
    5dc8:	74 65                	je     5e2f <usbhid_dev_get_report_descriptor+0x107f>
    5dca:	64 20 48 65          	and    %cl,%fs:0x65(%eax)
    5dce:	6c                   	insb   (%dx),%es:(%edi)
    5dcf:	70 20                	jo     5df1 <usbhid_dev_get_report_descriptor+0x1041>
    5dd1:	43                   	inc    %ebx
    5dd2:	65 6e                	outsb  %gs:(%esi),(%dx)
    5dd4:	74 65                	je     5e3b <usbhid_dev_get_report_descriptor+0x108b>
    5dd6:	72 00                	jb     5dd8 <usbhid_dev_get_report_descriptor+0x1028>
    5dd8:	41                   	inc    %ecx
    5dd9:	4c                   	dec    %esp
    5dda:	20 44 6f 63          	and    %al,0x63(%edi,%ebp,2)
    5dde:	75 6d                	jne    5e4d <usbhid_dev_get_report_descriptor+0x109d>
    5de0:	65 6e                	outsb  %gs:(%esi),(%dx)
    5de2:	74 73                	je     5e57 <usbhid_dev_get_report_descriptor+0x10a7>
    5de4:	00 41 4c             	add    %al,0x4c(%ecx)
    5de7:	20 54 68 65          	and    %dl,0x65(%eax,%ebp,2)
    5deb:	73 61                	jae    5e4e <usbhid_dev_get_report_descriptor+0x109e>
    5ded:	75 72                	jne    5e61 <usbhid_dev_get_report_descriptor+0x10b1>
    5def:	75 73                	jne    5e64 <usbhid_dev_get_report_descriptor+0x10b4>
    5df1:	00 41 4c             	add    %al,0x4c(%ecx)
    5df4:	20 44 69 63          	and    %al,0x63(%ecx,%ebp,2)
    5df8:	74 69                	je     5e63 <usbhid_dev_get_report_descriptor+0x10b3>
    5dfa:	6f                   	outsl  %ds:(%esi),(%dx)
    5dfb:	6e                   	outsb  %ds:(%esi),(%dx)
    5dfc:	61                   	popa   
    5dfd:	72 79                	jb     5e78 <usbhid_dev_get_report_descriptor+0x10c8>
    5dff:	00 41 4c             	add    %al,0x4c(%ecx)
    5e02:	20 44 65 73          	and    %al,0x73(%ebp,%eiz,2)
    5e06:	6b 74 6f 70 00       	imul   $0x0,0x70(%edi,%ebp,2),%esi
    5e0b:	41                   	inc    %ecx
    5e0c:	4c                   	dec    %esp
    5e0d:	20 53 70             	and    %dl,0x70(%ebx)
    5e10:	65 6c                	gs insb (%dx),%es:(%edi)
    5e12:	6c                   	insb   (%dx),%es:(%edi)
    5e13:	20 43 68             	and    %al,0x68(%ebx)
    5e16:	65 63 6b 00          	arpl   %bp,%gs:0x0(%ebx)
    5e1a:	41                   	inc    %ecx
    5e1b:	4c                   	dec    %esp
    5e1c:	20 47 72             	and    %al,0x72(%edi)
    5e1f:	61                   	popa   
    5e20:	6d                   	insl   (%dx),%es:(%edi)
    5e21:	6d                   	insl   (%dx),%es:(%edi)
    5e22:	61                   	popa   
    5e23:	72 20                	jb     5e45 <usbhid_dev_get_report_descriptor+0x1095>
    5e25:	43                   	inc    %ebx
    5e26:	68 65 63 6b 00       	push   $0x6b6365
    5e2b:	41                   	inc    %ecx
    5e2c:	4c                   	dec    %esp
    5e2d:	20 57 69             	and    %dl,0x69(%edi)
    5e30:	72 65                	jb     5e97 <usbhid_dev_get_report_descriptor+0x10e7>
    5e32:	6c                   	insb   (%dx),%es:(%edi)
    5e33:	65 73 73             	gs jae 5ea9 <usbhid_dev_get_report_descriptor+0x10f9>
    5e36:	20 53 74             	and    %dl,0x74(%ebx)
    5e39:	61                   	popa   
    5e3a:	74 75                	je     5eb1 <usbhid_dev_get_report_descriptor+0x1101>
    5e3c:	73 00                	jae    5e3e <usbhid_dev_get_report_descriptor+0x108e>
    5e3e:	41                   	inc    %ecx
    5e3f:	4c                   	dec    %esp
    5e40:	20 4b 65             	and    %cl,0x65(%ebx)
    5e43:	79 62                	jns    5ea7 <usbhid_dev_get_report_descriptor+0x10f7>
    5e45:	6f                   	outsl  %ds:(%esi),(%dx)
    5e46:	61                   	popa   
    5e47:	72 64                	jb     5ead <usbhid_dev_get_report_descriptor+0x10fd>
    5e49:	20 4c 61 79          	and    %cl,0x79(%ecx,%eiz,2)
    5e4d:	6f                   	outsl  %ds:(%esi),(%dx)
    5e4e:	75 74                	jne    5ec4 <usbhid_dev_get_report_descriptor+0x1114>
    5e50:	00 41 4c             	add    %al,0x4c(%ecx)
    5e53:	20 56 69             	and    %dl,0x69(%esi)
    5e56:	72 75                	jb     5ecd <usbhid_dev_get_report_descriptor+0x111d>
    5e58:	73 20                	jae    5e7a <usbhid_dev_get_report_descriptor+0x10ca>
    5e5a:	50                   	push   %eax
    5e5b:	72 6f                	jb     5ecc <usbhid_dev_get_report_descriptor+0x111c>
    5e5d:	74 65                	je     5ec4 <usbhid_dev_get_report_descriptor+0x1114>
    5e5f:	63 74 69 6f          	arpl   %si,0x6f(%ecx,%ebp,2)
    5e63:	6e                   	outsb  %ds:(%esi),(%dx)
    5e64:	00 41 4c             	add    %al,0x4c(%ecx)
    5e67:	20 45 6e             	and    %al,0x6e(%ebp)
    5e6a:	63 72 79             	arpl   %si,0x79(%edx)
    5e6d:	70 74                	jo     5ee3 <usbhid_dev_get_report_descriptor+0x1133>
    5e6f:	69 6f 6e 00 41 4c 20 	imul   $0x204c4100,0x6e(%edi),%ebp
    5e76:	53                   	push   %ebx
    5e77:	63 72 65             	arpl   %si,0x65(%edx)
    5e7a:	65 6e                	outsb  %gs:(%esi),(%dx)
    5e7c:	20 53 61             	and    %dl,0x61(%ebx)
    5e7f:	76 65                	jbe    5ee6 <usbhid_dev_get_report_descriptor+0x1136>
    5e81:	72 00                	jb     5e83 <usbhid_dev_get_report_descriptor+0x10d3>
    5e83:	41                   	inc    %ecx
    5e84:	4c                   	dec    %esp
    5e85:	20 41 6c             	and    %al,0x6c(%ecx)
    5e88:	61                   	popa   
    5e89:	72 6d                	jb     5ef8 <usbhid_dev_get_report_descriptor+0x1148>
    5e8b:	73 00                	jae    5e8d <usbhid_dev_get_report_descriptor+0x10dd>
    5e8d:	41                   	inc    %ecx
    5e8e:	4c                   	dec    %esp
    5e8f:	20 43 6c             	and    %al,0x6c(%ebx)
    5e92:	6f                   	outsl  %ds:(%esi),(%dx)
    5e93:	63 6b 00             	arpl   %bp,0x0(%ebx)
    5e96:	41                   	inc    %ecx
    5e97:	4c                   	dec    %esp
    5e98:	20 46 69             	and    %al,0x69(%esi)
    5e9b:	6c                   	insb   (%dx),%es:(%edi)
    5e9c:	65 20 42 72          	and    %al,%gs:0x72(%edx)
    5ea0:	6f                   	outsl  %ds:(%esi),(%dx)
    5ea1:	77 73                	ja     5f16 <usbhid_dev_get_report_descriptor+0x1166>
    5ea3:	65 72 00             	gs jb  5ea6 <usbhid_dev_get_report_descriptor+0x10f6>
    5ea6:	41                   	inc    %ecx
    5ea7:	4c                   	dec    %esp
    5ea8:	20 50 6f             	and    %dl,0x6f(%eax)
    5eab:	77 65                	ja     5f12 <usbhid_dev_get_report_descriptor+0x1162>
    5ead:	72 20                	jb     5ecf <usbhid_dev_get_report_descriptor+0x111f>
    5eaf:	53                   	push   %ebx
    5eb0:	74 61                	je     5f13 <usbhid_dev_get_report_descriptor+0x1163>
    5eb2:	74 75                	je     5f29 <usbhid_dev_get_report_descriptor+0x1179>
    5eb4:	73 00                	jae    5eb6 <usbhid_dev_get_report_descriptor+0x1106>
    5eb6:	41                   	inc    %ecx
    5eb7:	4c                   	dec    %esp
    5eb8:	20 49 6d             	and    %cl,0x6d(%ecx)
    5ebb:	61                   	popa   
    5ebc:	67 65 20 42 72       	and    %al,%gs:0x72(%bp,%si)
    5ec1:	6f                   	outsl  %ds:(%esi),(%dx)
    5ec2:	77 73                	ja     5f37 <usbhid_dev_get_report_descriptor+0x1187>
    5ec4:	65 72 00             	gs jb  5ec7 <usbhid_dev_get_report_descriptor+0x1117>
    5ec7:	41                   	inc    %ecx
    5ec8:	4c                   	dec    %esp
    5ec9:	20 41 75             	and    %al,0x75(%ecx)
    5ecc:	64 69 6f 20 42 72 6f 	imul   $0x776f7242,%fs:0x20(%edi),%ebp
    5ed3:	77 
    5ed4:	73 65                	jae    5f3b <usbhid_dev_get_report_descriptor+0x118b>
    5ed6:	72 00                	jb     5ed8 <usbhid_dev_get_report_descriptor+0x1128>
    5ed8:	41                   	inc    %ecx
    5ed9:	4c                   	dec    %esp
    5eda:	20 4d 6f             	and    %cl,0x6f(%ebp)
    5edd:	76 69                	jbe    5f48 <usbhid_dev_get_report_descriptor+0x1198>
    5edf:	65 20 42 72          	and    %al,%gs:0x72(%edx)
    5ee3:	6f                   	outsl  %ds:(%esi),(%dx)
    5ee4:	77 73                	ja     5f59 <usbhid_dev_get_report_descriptor+0x11a9>
    5ee6:	65 72 00             	gs jb  5ee9 <usbhid_dev_get_report_descriptor+0x1139>
    5ee9:	41                   	inc    %ecx
    5eea:	4c                   	dec    %esp
    5eeb:	20 44 69 67          	and    %al,0x67(%ecx,%ebp,2)
    5eef:	69 74 61 6c 20 52 69 	imul   $0x67695220,0x6c(%ecx,%eiz,2),%esi
    5ef6:	67 
    5ef7:	68 74 73 20 4d       	push   $0x4d207374
    5efc:	61                   	popa   
    5efd:	6e                   	outsb  %ds:(%esi),(%dx)
    5efe:	61                   	popa   
    5eff:	67 65 72 00          	addr16 gs jb 5f03 <usbhid_dev_get_report_descriptor+0x1153>
    5f03:	41                   	inc    %ecx
    5f04:	4c                   	dec    %esp
    5f05:	20 44 69 67          	and    %al,0x67(%ecx,%ebp,2)
    5f09:	69 74 61 6c 20 57 61 	imul   $0x6c615720,0x6c(%ecx,%eiz,2),%esi
    5f10:	6c 
    5f11:	6c                   	insb   (%dx),%es:(%edi)
    5f12:	65 74 00             	gs je  5f15 <usbhid_dev_get_report_descriptor+0x1165>
    5f15:	41                   	inc    %ecx
    5f16:	4c                   	dec    %esp
    5f17:	20 49 6e             	and    %cl,0x6e(%ecx)
    5f1a:	73 74                	jae    5f90 <usbhid_dev_get_report_descriptor+0x11e0>
    5f1c:	61                   	popa   
    5f1d:	6e                   	outsb  %ds:(%esi),(%dx)
    5f1e:	74 20                	je     5f40 <usbhid_dev_get_report_descriptor+0x1190>
    5f20:	4d                   	dec    %ebp
    5f21:	65 73 73             	gs jae 5f97 <usbhid_dev_get_report_descriptor+0x11e7>
    5f24:	61                   	popa   
    5f25:	67 69 6e 67 00 41 4c 	imul   $0x204c4100,0x67(%bp),%ebp
    5f2c:	20 
    5f2d:	4f                   	dec    %edi
    5f2e:	45                   	inc    %ebp
    5f2f:	4d                   	dec    %ebp
    5f30:	20 48 65             	and    %cl,0x65(%eax)
    5f33:	6c                   	insb   (%dx),%es:(%edi)
    5f34:	70 00                	jo     5f36 <usbhid_dev_get_report_descriptor+0x1186>
    5f36:	41                   	inc    %ecx
    5f37:	4c                   	dec    %esp
    5f38:	20 4f 6e             	and    %cl,0x6e(%edi)
    5f3b:	6c                   	insb   (%dx),%es:(%edi)
    5f3c:	69 6e 65 20 43 6f 6d 	imul   $0x6d6f4320,0x65(%esi),%ebp
    5f43:	6d                   	insl   (%dx),%es:(%edi)
    5f44:	75 6e                	jne    5fb4 <usbhid_dev_get_report_descriptor+0x1204>
    5f46:	69 74 79 00 41 4c 20 	imul   $0x4f204c41,0x0(%ecx,%edi,2),%esi
    5f4d:	4f 
    5f4e:	6e                   	outsb  %ds:(%esi),(%dx)
    5f4f:	6c                   	insb   (%dx),%es:(%edi)
    5f50:	69 6e 65 20 53 68 6f 	imul   $0x6f685320,0x65(%esi),%ebp
    5f57:	70 70                	jo     5fc9 <usbhid_dev_get_report_descriptor+0x1219>
    5f59:	69 6e 67 20 42 72 6f 	imul   $0x6f724220,0x67(%esi),%ebp
    5f60:	77 73                	ja     5fd5 <usbhid_dev_get_report_descriptor+0x1225>
    5f62:	65 72 00             	gs jb  5f65 <usbhid_dev_get_report_descriptor+0x11b5>
    5f65:	41                   	inc    %ecx
    5f66:	4c                   	dec    %esp
    5f67:	20 53 6d             	and    %dl,0x6d(%ebx)
    5f6a:	61                   	popa   
    5f6b:	72 74                	jb     5fe1 <usbhid_dev_get_report_descriptor+0x1231>
    5f6d:	43                   	inc    %ebx
    5f6e:	61                   	popa   
    5f6f:	72 64                	jb     5fd5 <usbhid_dev_get_report_descriptor+0x1225>
    5f71:	20 49 6e             	and    %cl,0x6e(%ecx)
    5f74:	66 6f                	outsw  %ds:(%esi),(%dx)
    5f76:	72 6d                	jb     5fe5 <usbhid_dev_get_report_descriptor+0x1235>
    5f78:	61                   	popa   
    5f79:	74 69                	je     5fe4 <usbhid_dev_get_report_descriptor+0x1234>
    5f7b:	6f                   	outsl  %ds:(%esi),(%dx)
    5f7c:	6e                   	outsb  %ds:(%esi),(%dx)
    5f7d:	2f                   	das    
    5f7e:	48                   	dec    %eax
    5f7f:	65 6c                	gs insb (%dx),%es:(%edi)
    5f81:	70 00                	jo     5f83 <usbhid_dev_get_report_descriptor+0x11d3>
    5f83:	41                   	inc    %ecx
    5f84:	4c                   	dec    %esp
    5f85:	20 4f 6e             	and    %cl,0x6e(%edi)
    5f88:	6c                   	insb   (%dx),%es:(%edi)
    5f89:	69 6e 65 20 41 63 74 	imul   $0x74634120,0x65(%esi),%ebp
    5f90:	69 76 69 74 79 20 42 	imul   $0x42207974,0x69(%esi),%esi
    5f97:	72 6f                	jb     6008 <usbhid_dev_get_report_descriptor+0x1258>
    5f99:	77 73                	ja     600e <usbhid_dev_get_report_descriptor+0x125e>
    5f9b:	65 72 00             	gs jb  5f9e <usbhid_dev_get_report_descriptor+0x11ee>
    5f9e:	41                   	inc    %ecx
    5f9f:	4c                   	dec    %esp
    5fa0:	20 52 65             	and    %dl,0x65(%edx)
    5fa3:	73 65                	jae    600a <usbhid_dev_get_report_descriptor+0x125a>
    5fa5:	61                   	popa   
    5fa6:	72 63                	jb     600b <usbhid_dev_get_report_descriptor+0x125b>
    5fa8:	68 2f 53 65 61       	push   $0x6165532f
    5fad:	72 63                	jb     6012 <usbhid_dev_get_report_descriptor+0x1262>
    5faf:	68 20 42 72 6f       	push   $0x6f724220
    5fb4:	77 73                	ja     6029 <usbhid_dev_get_report_descriptor+0x1279>
    5fb6:	65 72 00             	gs jb  5fb9 <usbhid_dev_get_report_descriptor+0x1209>
    5fb9:	41                   	inc    %ecx
    5fba:	4c                   	dec    %esp
    5fbb:	20 41 75             	and    %al,0x75(%ecx)
    5fbe:	64 69 6f 20 50 6c 61 	imul   $0x79616c50,%fs:0x20(%edi),%ebp
    5fc5:	79 
    5fc6:	65 72 00             	gs jb  5fc9 <usbhid_dev_get_report_descriptor+0x1219>
    5fc9:	41                   	inc    %ecx
    5fca:	43                   	inc    %ebx
    5fcb:	20 4e 65             	and    %cl,0x65(%esi)
    5fce:	77 00                	ja     5fd0 <usbhid_dev_get_report_descriptor+0x1220>
    5fd0:	41                   	inc    %ecx
    5fd1:	43                   	inc    %ebx
    5fd2:	20 4f 70             	and    %cl,0x70(%edi)
    5fd5:	65 6e                	outsb  %gs:(%esi),(%dx)
    5fd7:	00 41 43             	add    %al,0x43(%ecx)
    5fda:	20 43 6c             	and    %al,0x6c(%ebx)
    5fdd:	6f                   	outsl  %ds:(%esi),(%dx)
    5fde:	73 65                	jae    6045 <usbhid_dev_get_report_descriptor+0x1295>
    5fe0:	00 41 43             	add    %al,0x43(%ecx)
    5fe3:	20 45 78             	and    %al,0x78(%ebp)
    5fe6:	69 74 00 41 43 20 4d 	imul   $0x614d2043,0x41(%eax,%eax,1),%esi
    5fed:	61 
    5fee:	78 69                	js     6059 <usbhid_dev_get_report_descriptor+0x12a9>
    5ff0:	6d                   	insl   (%dx),%es:(%edi)
    5ff1:	69 7a 65 00 41 43 20 	imul   $0x20434100,0x65(%edx),%edi
    5ff8:	4d                   	dec    %ebp
    5ff9:	69 6e 69 6d 69 7a 65 	imul   $0x657a696d,0x69(%esi),%ebp
    6000:	00 41 43             	add    %al,0x43(%ecx)
    6003:	20 53 61             	and    %dl,0x61(%ebx)
    6006:	76 65                	jbe    606d <usbhid_dev_get_report_descriptor+0x12bd>
    6008:	00 41 43             	add    %al,0x43(%ecx)
    600b:	20 50 72             	and    %dl,0x72(%eax)
    600e:	69 6e 74 00 41 43 20 	imul   $0x20434100,0x74(%esi),%ebp
    6015:	50                   	push   %eax
    6016:	72 6f                	jb     6087 <usbhid_dev_get_report_descriptor+0x12d7>
    6018:	70 65                	jo     607f <usbhid_dev_get_report_descriptor+0x12cf>
    601a:	72 74                	jb     6090 <usbhid_dev_get_report_descriptor+0x12e0>
    601c:	69 65 73 00 41 43 20 	imul   $0x20434100,0x73(%ebp),%esp
    6023:	55                   	push   %ebp
    6024:	6e                   	outsb  %ds:(%esi),(%dx)
    6025:	64 6f                	outsl  %fs:(%esi),(%dx)
    6027:	00 41 43             	add    %al,0x43(%ecx)
    602a:	20 43 6f             	and    %al,0x6f(%ebx)
    602d:	70 79                	jo     60a8 <usbhid_dev_get_report_descriptor+0x12f8>
    602f:	00 41 43             	add    %al,0x43(%ecx)
    6032:	20 43 75             	and    %al,0x75(%ebx)
    6035:	74 00                	je     6037 <usbhid_dev_get_report_descriptor+0x1287>
    6037:	41                   	inc    %ecx
    6038:	43                   	inc    %ebx
    6039:	20 50 61             	and    %dl,0x61(%eax)
    603c:	73 74                	jae    60b2 <usbhid_dev_get_report_descriptor+0x1302>
    603e:	65 00 41 43          	add    %al,%gs:0x43(%ecx)
    6042:	20 53 65             	and    %dl,0x65(%ebx)
    6045:	6c                   	insb   (%dx),%es:(%edi)
    6046:	65 63 74 20 41       	arpl   %si,%gs:0x41(%eax,%eiz,1)
    604b:	6c                   	insb   (%dx),%es:(%edi)
    604c:	6c                   	insb   (%dx),%es:(%edi)
    604d:	00 41 43             	add    %al,0x43(%ecx)
    6050:	20 46 69             	and    %al,0x69(%esi)
    6053:	6e                   	outsb  %ds:(%esi),(%dx)
    6054:	64 00 41 43          	add    %al,%fs:0x43(%ecx)
    6058:	20 46 69             	and    %al,0x69(%esi)
    605b:	6e                   	outsb  %ds:(%esi),(%dx)
    605c:	64 20 61 6e          	and    %ah,%fs:0x6e(%ecx)
    6060:	64 20 52 65          	and    %dl,%fs:0x65(%edx)
    6064:	70 6c                	jo     60d2 <usbhid_dev_get_report_descriptor+0x1322>
    6066:	61                   	popa   
    6067:	63 65 00             	arpl   %sp,0x0(%ebp)
    606a:	41                   	inc    %ecx
    606b:	43                   	inc    %ebx
    606c:	20 53 65             	and    %dl,0x65(%ebx)
    606f:	61                   	popa   
    6070:	72 63                	jb     60d5 <usbhid_dev_get_report_descriptor+0x1325>
    6072:	68 00 41 43 20       	push   $0x20434100
    6077:	47                   	inc    %edi
    6078:	6f                   	outsl  %ds:(%esi),(%dx)
    6079:	20 54 6f 00          	and    %dl,0x0(%edi,%ebp,2)
    607d:	41                   	inc    %ecx
    607e:	43                   	inc    %ebx
    607f:	20 48 6f             	and    %cl,0x6f(%eax)
    6082:	6d                   	insl   (%dx),%es:(%edi)
    6083:	65 00 41 43          	add    %al,%gs:0x43(%ecx)
    6087:	20 42 61             	and    %al,0x61(%edx)
    608a:	63 6b 00             	arpl   %bp,0x0(%ebx)
    608d:	41                   	inc    %ecx
    608e:	43                   	inc    %ebx
    608f:	20 46 6f             	and    %al,0x6f(%esi)
    6092:	72 77                	jb     610b <usbhid_dev_get_report_descriptor+0x135b>
    6094:	61                   	popa   
    6095:	72 64                	jb     60fb <usbhid_dev_get_report_descriptor+0x134b>
    6097:	00 41 43             	add    %al,0x43(%ecx)
    609a:	20 53 74             	and    %dl,0x74(%ebx)
    609d:	6f                   	outsl  %ds:(%esi),(%dx)
    609e:	70 00                	jo     60a0 <usbhid_dev_get_report_descriptor+0x12f0>
    60a0:	41                   	inc    %ecx
    60a1:	43                   	inc    %ebx
    60a2:	20 52 65             	and    %dl,0x65(%edx)
    60a5:	66 72 65             	data16 jb 610d <usbhid_dev_get_report_descriptor+0x135d>
    60a8:	73 68                	jae    6112 <usbhid_dev_get_report_descriptor+0x1362>
    60aa:	00 41 43             	add    %al,0x43(%ecx)
    60ad:	20 50 72             	and    %dl,0x72(%eax)
    60b0:	65 76 69             	gs jbe 611c <usbhid_dev_get_report_descriptor+0x136c>
    60b3:	6f                   	outsl  %ds:(%esi),(%dx)
    60b4:	75 73                	jne    6129 <usbhid_dev_get_report_descriptor+0x1379>
    60b6:	20 4c 69 6e          	and    %cl,0x6e(%ecx,%ebp,2)
    60ba:	6b 00 41             	imul   $0x41,(%eax),%eax
    60bd:	43                   	inc    %ebx
    60be:	20 4e 65             	and    %cl,0x65(%esi)
    60c1:	78 74                	js     6137 <usbhid_dev_get_report_descriptor+0x1387>
    60c3:	20 4c 69 6e          	and    %cl,0x6e(%ecx,%ebp,2)
    60c7:	6b 00 41             	imul   $0x41,(%eax),%eax
    60ca:	43                   	inc    %ebx
    60cb:	20 42 6f             	and    %al,0x6f(%edx)
    60ce:	6f                   	outsl  %ds:(%esi),(%dx)
    60cf:	6b 6d 61 72          	imul   $0x72,0x61(%ebp),%ebp
    60d3:	6b 73 00 41          	imul   $0x41,0x0(%ebx),%esi
    60d7:	43                   	inc    %ebx
    60d8:	20 48 69             	and    %cl,0x69(%eax)
    60db:	73 74                	jae    6151 <usbhid_dev_get_report_descriptor+0x13a1>
    60dd:	6f                   	outsl  %ds:(%esi),(%dx)
    60de:	72 79                	jb     6159 <usbhid_dev_get_report_descriptor+0x13a9>
    60e0:	00 41 43             	add    %al,0x43(%ecx)
    60e3:	20 53 75             	and    %dl,0x75(%ebx)
    60e6:	62 73 63             	bound  %esi,0x63(%ebx)
    60e9:	72 69                	jb     6154 <usbhid_dev_get_report_descriptor+0x13a4>
    60eb:	70 74                	jo     6161 <usbhid_dev_get_report_descriptor+0x13b1>
    60ed:	69 6f 6e 73 00 41 43 	imul   $0x43410073,0x6e(%edi),%ebp
    60f4:	20 5a 6f             	and    %bl,0x6f(%edx)
    60f7:	6f                   	outsl  %ds:(%esi),(%dx)
    60f8:	6d                   	insl   (%dx),%es:(%edi)
    60f9:	20 49 6e             	and    %cl,0x6e(%ecx)
    60fc:	00 41 43             	add    %al,0x43(%ecx)
    60ff:	20 5a 6f             	and    %bl,0x6f(%edx)
    6102:	6f                   	outsl  %ds:(%esi),(%dx)
    6103:	6d                   	insl   (%dx),%es:(%edi)
    6104:	20 4f 75             	and    %cl,0x75(%edi)
    6107:	74 00                	je     6109 <usbhid_dev_get_report_descriptor+0x1359>
    6109:	41                   	inc    %ecx
    610a:	43                   	inc    %ebx
    610b:	20 5a 6f             	and    %bl,0x6f(%edx)
    610e:	6f                   	outsl  %ds:(%esi),(%dx)
    610f:	6d                   	insl   (%dx),%es:(%edi)
    6110:	00 41 43             	add    %al,0x43(%ecx)
    6113:	20 46 75             	and    %al,0x75(%esi)
    6116:	6c                   	insb   (%dx),%es:(%edi)
    6117:	6c                   	insb   (%dx),%es:(%edi)
    6118:	20 53 63             	and    %dl,0x63(%ebx)
    611b:	72 65                	jb     6182 <usbhid_dev_get_report_descriptor+0x13d2>
    611d:	65 6e                	outsb  %gs:(%esi),(%dx)
    611f:	20 56 69             	and    %dl,0x69(%esi)
    6122:	65 77 00             	gs ja  6125 <usbhid_dev_get_report_descriptor+0x1375>
    6125:	41                   	inc    %ecx
    6126:	43                   	inc    %ebx
    6127:	20 4e 6f             	and    %cl,0x6f(%esi)
    612a:	72 6d                	jb     6199 <usbhid_dev_get_report_descriptor+0x13e9>
    612c:	61                   	popa   
    612d:	6c                   	insb   (%dx),%es:(%edi)
    612e:	20 56 69             	and    %dl,0x69(%esi)
    6131:	65 77 00             	gs ja  6134 <usbhid_dev_get_report_descriptor+0x1384>
    6134:	41                   	inc    %ecx
    6135:	43                   	inc    %ebx
    6136:	20 56 69             	and    %dl,0x69(%esi)
    6139:	65 77 20             	gs ja  615c <usbhid_dev_get_report_descriptor+0x13ac>
    613c:	54                   	push   %esp
    613d:	6f                   	outsl  %ds:(%esi),(%dx)
    613e:	67 67 6c             	addr16 insb (%dx),%es:(%di)
    6141:	65 00 41 43          	add    %al,%gs:0x43(%ecx)
    6145:	20 53 63             	and    %dl,0x63(%ebx)
    6148:	72 6f                	jb     61b9 <usbhid_dev_get_report_descriptor+0x1409>
    614a:	6c                   	insb   (%dx),%es:(%edi)
    614b:	6c                   	insb   (%dx),%es:(%edi)
    614c:	20 55 70             	and    %dl,0x70(%ebp)
    614f:	00 41 43             	add    %al,0x43(%ecx)
    6152:	20 53 63             	and    %dl,0x63(%ebx)
    6155:	72 6f                	jb     61c6 <usbhid_dev_get_report_descriptor+0x1416>
    6157:	6c                   	insb   (%dx),%es:(%edi)
    6158:	6c                   	insb   (%dx),%es:(%edi)
    6159:	20 44 6f 77          	and    %al,0x77(%edi,%ebp,2)
    615d:	6e                   	outsb  %ds:(%esi),(%dx)
    615e:	00 41 43             	add    %al,0x43(%ecx)
    6161:	20 53 63             	and    %dl,0x63(%ebx)
    6164:	72 6f                	jb     61d5 <usbhid_dev_get_report_descriptor+0x1425>
    6166:	6c                   	insb   (%dx),%es:(%edi)
    6167:	6c                   	insb   (%dx),%es:(%edi)
    6168:	00 41 43             	add    %al,0x43(%ecx)
    616b:	20 50 61             	and    %dl,0x61(%eax)
    616e:	6e                   	outsb  %ds:(%esi),(%dx)
    616f:	20 4c 65 66          	and    %cl,0x66(%ebp,%eiz,2)
    6173:	74 00                	je     6175 <usbhid_dev_get_report_descriptor+0x13c5>
    6175:	41                   	inc    %ecx
    6176:	43                   	inc    %ebx
    6177:	20 50 61             	and    %dl,0x61(%eax)
    617a:	6e                   	outsb  %ds:(%esi),(%dx)
    617b:	20 52 69             	and    %dl,0x69(%edx)
    617e:	67 68 74 00 41 43    	addr16 push $0x43410074
    6184:	20 50 61             	and    %dl,0x61(%eax)
    6187:	6e                   	outsb  %ds:(%esi),(%dx)
    6188:	00 41 43             	add    %al,0x43(%ecx)
    618b:	20 4e 65             	and    %cl,0x65(%esi)
    618e:	77 20                	ja     61b0 <usbhid_dev_get_report_descriptor+0x1400>
    6190:	57                   	push   %edi
    6191:	69 6e 64 6f 77 00 41 	imul   $0x4100776f,0x64(%esi),%ebp
    6198:	43                   	inc    %ebx
    6199:	20 54 69 6c          	and    %dl,0x6c(%ecx,%ebp,2)
    619d:	65 20 48 6f          	and    %cl,%gs:0x6f(%eax)
    61a1:	72 69                	jb     620c <usbhid_dev_get_report_descriptor+0x145c>
    61a3:	7a 6f                	jp     6214 <usbhid_dev_get_report_descriptor+0x1464>
    61a5:	6e                   	outsb  %ds:(%esi),(%dx)
    61a6:	74 61                	je     6209 <usbhid_dev_get_report_descriptor+0x1459>
    61a8:	6c                   	insb   (%dx),%es:(%edi)
    61a9:	6c                   	insb   (%dx),%es:(%edi)
    61aa:	79 00                	jns    61ac <usbhid_dev_get_report_descriptor+0x13fc>
    61ac:	41                   	inc    %ecx
    61ad:	43                   	inc    %ebx
    61ae:	20 54 69 6c          	and    %dl,0x6c(%ecx,%ebp,2)
    61b2:	65 20 56 65          	and    %dl,%gs:0x65(%esi)
    61b6:	72 74                	jb     622c <usbhid_dev_get_report_descriptor+0x147c>
    61b8:	69 63 61 6c 6c 79 00 	imul   $0x796c6c,0x61(%ebx),%esp
    61bf:	41                   	inc    %ecx
    61c0:	43                   	inc    %ebx
    61c1:	20 46 6f             	and    %al,0x6f(%esi)
    61c4:	72 6d                	jb     6233 <usbhid_dev_get_report_descriptor+0x1483>
    61c6:	61                   	popa   
    61c7:	74 00                	je     61c9 <usbhid_dev_get_report_descriptor+0x1419>
    61c9:	41                   	inc    %ecx
    61ca:	43                   	inc    %ebx
    61cb:	20 45 64             	and    %al,0x64(%ebp)
    61ce:	69 74 00 41 43 20 42 	imul   $0x6f422043,0x41(%eax,%eax,1),%esi
    61d5:	6f 
    61d6:	6c                   	insb   (%dx),%es:(%edi)
    61d7:	64 00 41 43          	add    %al,%fs:0x43(%ecx)
    61db:	20 49 74             	and    %cl,0x74(%ecx)
    61de:	61                   	popa   
    61df:	6c                   	insb   (%dx),%es:(%edi)
    61e0:	69 63 73 00 41 43 20 	imul   $0x20434100,0x73(%ebx),%esp
    61e7:	55                   	push   %ebp
    61e8:	6e                   	outsb  %ds:(%esi),(%dx)
    61e9:	64 65 6c             	fs gs insb (%dx),%es:(%edi)
    61ec:	69 6e 65 00 41 43 20 	imul   $0x20434100,0x65(%esi),%ebp
    61f3:	53                   	push   %ebx
    61f4:	74 72                	je     6268 <usbhid_dev_get_report_descriptor+0x14b8>
    61f6:	69 6b 65 74 68 72 6f 	imul   $0x6f726874,0x65(%ebx),%ebp
    61fd:	75 67                	jne    6266 <usbhid_dev_get_report_descriptor+0x14b6>
    61ff:	68 00 41 43 20       	push   $0x20434100
    6204:	53                   	push   %ebx
    6205:	75 62                	jne    6269 <usbhid_dev_get_report_descriptor+0x14b9>
    6207:	73 63                	jae    626c <usbhid_dev_get_report_descriptor+0x14bc>
    6209:	72 69                	jb     6274 <usbhid_dev_get_report_descriptor+0x14c4>
    620b:	70 74                	jo     6281 <usbhid_dev_get_report_descriptor+0x14d1>
    620d:	00 41 43             	add    %al,0x43(%ecx)
    6210:	20 53 75             	and    %dl,0x75(%ebx)
    6213:	70 65                	jo     627a <usbhid_dev_get_report_descriptor+0x14ca>
    6215:	72 73                	jb     628a <usbhid_dev_get_report_descriptor+0x14da>
    6217:	63 72 69             	arpl   %si,0x69(%edx)
    621a:	70 74                	jo     6290 <usbhid_dev_get_report_descriptor+0x14e0>
    621c:	00 41 43             	add    %al,0x43(%ecx)
    621f:	20 41 6c             	and    %al,0x6c(%ecx)
    6222:	6c                   	insb   (%dx),%es:(%edi)
    6223:	20 43 61             	and    %al,0x61(%ebx)
    6226:	70 73                	jo     629b <usbhid_dev_get_report_descriptor+0x14eb>
    6228:	00 41 43             	add    %al,0x43(%ecx)
    622b:	20 52 6f             	and    %dl,0x6f(%edx)
    622e:	74 61                	je     6291 <usbhid_dev_get_report_descriptor+0x14e1>
    6230:	74 65                	je     6297 <usbhid_dev_get_report_descriptor+0x14e7>
    6232:	00 41 43             	add    %al,0x43(%ecx)
    6235:	20 52 65             	and    %dl,0x65(%edx)
    6238:	73 69                	jae    62a3 <usbhid_dev_get_report_descriptor+0x14f3>
    623a:	7a 65                	jp     62a1 <usbhid_dev_get_report_descriptor+0x14f1>
    623c:	00 41 43             	add    %al,0x43(%ecx)
    623f:	20 46 6c             	and    %al,0x6c(%esi)
    6242:	69 70 20 48 6f 72 69 	imul   $0x69726f48,0x20(%eax),%esi
    6249:	7a 6f                	jp     62ba <usbhid_dev_get_report_descriptor+0x150a>
    624b:	6e                   	outsb  %ds:(%esi),(%dx)
    624c:	74 61                	je     62af <usbhid_dev_get_report_descriptor+0x14ff>
    624e:	6c                   	insb   (%dx),%es:(%edi)
    624f:	00 41 43             	add    %al,0x43(%ecx)
    6252:	20 46 6c             	and    %al,0x6c(%esi)
    6255:	69 70 20 56 65 72 74 	imul   $0x74726556,0x20(%eax),%esi
    625c:	69 63 61 6c 00 41 43 	imul   $0x4341006c,0x61(%ebx),%esp
    6263:	20 4d 69             	and    %cl,0x69(%ebp)
    6266:	72 72                	jb     62da <usbhid_dev_get_report_descriptor+0x152a>
    6268:	6f                   	outsl  %ds:(%esi),(%dx)
    6269:	72 20                	jb     628b <usbhid_dev_get_report_descriptor+0x14db>
    626b:	48                   	dec    %eax
    626c:	6f                   	outsl  %ds:(%esi),(%dx)
    626d:	72 69                	jb     62d8 <usbhid_dev_get_report_descriptor+0x1528>
    626f:	7a 6f                	jp     62e0 <usbhid_dev_get_report_descriptor+0x1530>
    6271:	6e                   	outsb  %ds:(%esi),(%dx)
    6272:	74 61                	je     62d5 <usbhid_dev_get_report_descriptor+0x1525>
    6274:	6c                   	insb   (%dx),%es:(%edi)
    6275:	00 41 43             	add    %al,0x43(%ecx)
    6278:	20 4d 69             	and    %cl,0x69(%ebp)
    627b:	72 72                	jb     62ef <usbhid_dev_get_report_descriptor+0x153f>
    627d:	6f                   	outsl  %ds:(%esi),(%dx)
    627e:	72 20                	jb     62a0 <usbhid_dev_get_report_descriptor+0x14f0>
    6280:	56                   	push   %esi
    6281:	65 72 74             	gs jb  62f8 <usbhid_dev_get_report_descriptor+0x1548>
    6284:	69 63 61 6c 00 41 43 	imul   $0x4341006c,0x61(%ebx),%esp
    628b:	20 46 6f             	and    %al,0x6f(%esi)
    628e:	6e                   	outsb  %ds:(%esi),(%dx)
    628f:	74 20                	je     62b1 <usbhid_dev_get_report_descriptor+0x1501>
    6291:	53                   	push   %ebx
    6292:	65 6c                	gs insb (%dx),%es:(%edi)
    6294:	65 63 74 00 41       	arpl   %si,%gs:0x41(%eax,%eax,1)
    6299:	43                   	inc    %ebx
    629a:	20 46 6f             	and    %al,0x6f(%esi)
    629d:	6e                   	outsb  %ds:(%esi),(%dx)
    629e:	74 20                	je     62c0 <usbhid_dev_get_report_descriptor+0x1510>
    62a0:	43                   	inc    %ebx
    62a1:	6f                   	outsl  %ds:(%esi),(%dx)
    62a2:	6c                   	insb   (%dx),%es:(%edi)
    62a3:	6f                   	outsl  %ds:(%esi),(%dx)
    62a4:	72 00                	jb     62a6 <usbhid_dev_get_report_descriptor+0x14f6>
    62a6:	41                   	inc    %ecx
    62a7:	43                   	inc    %ebx
    62a8:	20 46 6f             	and    %al,0x6f(%esi)
    62ab:	6e                   	outsb  %ds:(%esi),(%dx)
    62ac:	74 20                	je     62ce <usbhid_dev_get_report_descriptor+0x151e>
    62ae:	53                   	push   %ebx
    62af:	69 7a 65 00 41 43 20 	imul   $0x20434100,0x65(%edx),%edi
    62b6:	4a                   	dec    %edx
    62b7:	75 73                	jne    632c <usbhid_dev_get_report_descriptor+0x157c>
    62b9:	74 69                	je     6324 <usbhid_dev_get_report_descriptor+0x1574>
    62bb:	66 79 20             	data16 jns 62de <usbhid_dev_get_report_descriptor+0x152e>
    62be:	4c                   	dec    %esp
    62bf:	65 66 74 00          	gs data16 je 62c3 <usbhid_dev_get_report_descriptor+0x1513>
    62c3:	41                   	inc    %ecx
    62c4:	43                   	inc    %ebx
    62c5:	20 4a 75             	and    %cl,0x75(%edx)
    62c8:	73 74                	jae    633e <usbhid_dev_get_report_descriptor+0x158e>
    62ca:	69 66 79 20 43 65 6e 	imul   $0x6e654320,0x79(%esi),%esp
    62d1:	74 65                	je     6338 <usbhid_dev_get_report_descriptor+0x1588>
    62d3:	72 20                	jb     62f5 <usbhid_dev_get_report_descriptor+0x1545>
    62d5:	48                   	dec    %eax
    62d6:	00 41 43             	add    %al,0x43(%ecx)
    62d9:	20 4a 75             	and    %cl,0x75(%edx)
    62dc:	73 74                	jae    6352 <usbhid_dev_get_report_descriptor+0x15a2>
    62de:	69 66 79 20 52 69 67 	imul   $0x67695220,0x79(%esi),%esp
    62e5:	68 74 00 41 43       	push   $0x43410074
    62ea:	20 4a 75             	and    %cl,0x75(%edx)
    62ed:	73 74                	jae    6363 <usbhid_dev_get_report_descriptor+0x15b3>
    62ef:	69 66 79 20 42 6c 6f 	imul   $0x6f6c4220,0x79(%esi),%esp
    62f6:	63 6b 20             	arpl   %bp,0x20(%ebx)
    62f9:	48                   	dec    %eax
    62fa:	00 41 43             	add    %al,0x43(%ecx)
    62fd:	20 4a 75             	and    %cl,0x75(%edx)
    6300:	73 74                	jae    6376 <usbhid_dev_get_report_descriptor+0x15c6>
    6302:	69 66 79 20 54 6f 70 	imul   $0x706f5420,0x79(%esi),%esp
    6309:	00 41 43             	add    %al,0x43(%ecx)
    630c:	20 4a 75             	and    %cl,0x75(%edx)
    630f:	73 74                	jae    6385 <usbhid_dev_get_report_descriptor+0x15d5>
    6311:	69 66 79 20 43 65 6e 	imul   $0x6e654320,0x79(%esi),%esp
    6318:	74 65                	je     637f <usbhid_dev_get_report_descriptor+0x15cf>
    631a:	72 20                	jb     633c <usbhid_dev_get_report_descriptor+0x158c>
    631c:	56                   	push   %esi
    631d:	00 41 43             	add    %al,0x43(%ecx)
    6320:	20 4a 75             	and    %cl,0x75(%edx)
    6323:	73 74                	jae    6399 <usbhid_dev_get_report_descriptor+0x15e9>
    6325:	69 66 79 20 42 6f 74 	imul   $0x746f4220,0x79(%esi),%esp
    632c:	74 6f                	je     639d <usbhid_dev_get_report_descriptor+0x15ed>
    632e:	6d                   	insl   (%dx),%es:(%edi)
    632f:	00 41 43             	add    %al,0x43(%ecx)
    6332:	20 4a 75             	and    %cl,0x75(%edx)
    6335:	73 74                	jae    63ab <usbhid_dev_get_report_descriptor+0x15fb>
    6337:	69 66 79 20 42 6c 6f 	imul   $0x6f6c4220,0x79(%esi),%esp
    633e:	63 6b 20             	arpl   %bp,0x20(%ebx)
    6341:	56                   	push   %esi
    6342:	00 41 43             	add    %al,0x43(%ecx)
    6345:	20 49 6e             	and    %cl,0x6e(%ecx)
    6348:	64 65 6e             	fs outsb %gs:(%esi),(%dx)
    634b:	74 20                	je     636d <usbhid_dev_get_report_descriptor+0x15bd>
    634d:	44                   	inc    %esp
    634e:	65 63 72 65          	arpl   %si,%gs:0x65(%edx)
    6352:	61                   	popa   
    6353:	73 65                	jae    63ba <usbhid_dev_get_report_descriptor+0x160a>
    6355:	00 41 43             	add    %al,0x43(%ecx)
    6358:	20 49 6e             	and    %cl,0x6e(%ecx)
    635b:	64 65 6e             	fs outsb %gs:(%esi),(%dx)
    635e:	74 20                	je     6380 <usbhid_dev_get_report_descriptor+0x15d0>
    6360:	49                   	dec    %ecx
    6361:	6e                   	outsb  %ds:(%esi),(%dx)
    6362:	63 72 65             	arpl   %si,0x65(%edx)
    6365:	61                   	popa   
    6366:	73 65                	jae    63cd <usbhid_dev_get_report_descriptor+0x161d>
    6368:	00 41 43             	add    %al,0x43(%ecx)
    636b:	20 4e 75             	and    %cl,0x75(%esi)
    636e:	6d                   	insl   (%dx),%es:(%edi)
    636f:	62 65 72             	bound  %esp,0x72(%ebp)
    6372:	65 64 20 4c 69 73    	gs and %cl,%fs:0x73(%ecx,%ebp,2)
    6378:	74 00                	je     637a <usbhid_dev_get_report_descriptor+0x15ca>
    637a:	41                   	inc    %ecx
    637b:	43                   	inc    %ebx
    637c:	20 52 65             	and    %dl,0x65(%edx)
    637f:	73 74                	jae    63f5 <usbhid_dev_get_report_descriptor+0x1645>
    6381:	61                   	popa   
    6382:	72 74                	jb     63f8 <usbhid_dev_get_report_descriptor+0x1648>
    6384:	20 4e 75             	and    %cl,0x75(%esi)
    6387:	6d                   	insl   (%dx),%es:(%edi)
    6388:	62 65 72             	bound  %esp,0x72(%ebp)
    638b:	69 6e 67 00 41 43 20 	imul   $0x20434100,0x67(%esi),%ebp
    6392:	42                   	inc    %edx
    6393:	75 6c                	jne    6401 <usbhid_dev_get_report_descriptor+0x1651>
    6395:	6c                   	insb   (%dx),%es:(%edi)
    6396:	65 74 65             	gs je  63fe <usbhid_dev_get_report_descriptor+0x164e>
    6399:	64 20 4c 69 73       	and    %cl,%fs:0x73(%ecx,%ebp,2)
    639e:	74 00                	je     63a0 <usbhid_dev_get_report_descriptor+0x15f0>
    63a0:	41                   	inc    %ecx
    63a1:	43                   	inc    %ebx
    63a2:	20 50 72             	and    %dl,0x72(%eax)
    63a5:	6f                   	outsl  %ds:(%esi),(%dx)
    63a6:	6d                   	insl   (%dx),%es:(%edi)
    63a7:	6f                   	outsl  %ds:(%esi),(%dx)
    63a8:	74 65                	je     640f <usbhid_dev_get_report_descriptor+0x165f>
    63aa:	00 41 43             	add    %al,0x43(%ecx)
    63ad:	20 44 65 6d          	and    %al,0x6d(%ebp,%eiz,2)
    63b1:	6f                   	outsl  %ds:(%esi),(%dx)
    63b2:	74 65                	je     6419 <usbhid_dev_get_report_descriptor+0x1669>
    63b4:	00 41 43             	add    %al,0x43(%ecx)
    63b7:	20 59 65             	and    %bl,0x65(%ecx)
    63ba:	73 00                	jae    63bc <usbhid_dev_get_report_descriptor+0x160c>
    63bc:	41                   	inc    %ecx
    63bd:	43                   	inc    %ebx
    63be:	20 4e 6f             	and    %cl,0x6f(%esi)
    63c1:	00 41 43             	add    %al,0x43(%ecx)
    63c4:	20 43 61             	and    %al,0x61(%ebx)
    63c7:	6e                   	outsb  %ds:(%esi),(%dx)
    63c8:	63 65 6c             	arpl   %sp,0x6c(%ebp)
    63cb:	00 41 43             	add    %al,0x43(%ecx)
    63ce:	20 43 61             	and    %al,0x61(%ebx)
    63d1:	74 61                	je     6434 <usbhid_dev_get_report_descriptor+0x1684>
    63d3:	6c                   	insb   (%dx),%es:(%edi)
    63d4:	6f                   	outsl  %ds:(%esi),(%dx)
    63d5:	67 00 41 43          	add    %al,0x43(%bx,%di)
    63d9:	20 42 75             	and    %al,0x75(%edx)
    63dc:	79 2f                	jns    640d <usbhid_dev_get_report_descriptor+0x165d>
    63de:	43                   	inc    %ebx
    63df:	68 65 63 6b 6f       	push   $0x6f6b6365
    63e4:	75 74                	jne    645a <usbhid_dev_get_report_descriptor+0x16aa>
    63e6:	00 41 43             	add    %al,0x43(%ecx)
    63e9:	20 41 64             	and    %al,0x64(%ecx)
    63ec:	64 20 74 6f 20       	and    %dh,%fs:0x20(%edi,%ebp,2)
    63f1:	43                   	inc    %ebx
    63f2:	61                   	popa   
    63f3:	72 74                	jb     6469 <usbhid_dev_get_report_descriptor+0x16b9>
    63f5:	00 41 43             	add    %al,0x43(%ecx)
    63f8:	20 45 78             	and    %al,0x78(%ebp)
    63fb:	70 61                	jo     645e <usbhid_dev_get_report_descriptor+0x16ae>
    63fd:	6e                   	outsb  %ds:(%esi),(%dx)
    63fe:	64 00 41 43          	add    %al,%fs:0x43(%ecx)
    6402:	20 45 78             	and    %al,0x78(%ebp)
    6405:	70 61                	jo     6468 <usbhid_dev_get_report_descriptor+0x16b8>
    6407:	6e                   	outsb  %ds:(%esi),(%dx)
    6408:	64 20 41 6c          	and    %al,%fs:0x6c(%ecx)
    640c:	6c                   	insb   (%dx),%es:(%edi)
    640d:	00 41 43             	add    %al,0x43(%ecx)
    6410:	20 43 6f             	and    %al,0x6f(%ebx)
    6413:	6c                   	insb   (%dx),%es:(%edi)
    6414:	6c                   	insb   (%dx),%es:(%edi)
    6415:	61                   	popa   
    6416:	70 73                	jo     648b <usbhid_dev_get_report_descriptor+0x16db>
    6418:	65 00 41 43          	add    %al,%gs:0x43(%ecx)
    641c:	20 43 6f             	and    %al,0x6f(%ebx)
    641f:	6c                   	insb   (%dx),%es:(%edi)
    6420:	6c                   	insb   (%dx),%es:(%edi)
    6421:	61                   	popa   
    6422:	70 73                	jo     6497 <usbhid_dev_get_report_descriptor+0x16e7>
    6424:	65 20 41 6c          	and    %al,%gs:0x6c(%ecx)
    6428:	6c                   	insb   (%dx),%es:(%edi)
    6429:	00 41 43             	add    %al,0x43(%ecx)
    642c:	20 50 72             	and    %dl,0x72(%eax)
    642f:	69 6e 74 20 50 72 65 	imul   $0x65725020,0x74(%esi),%ebp
    6436:	76 69                	jbe    64a1 <usbhid_dev_get_report_descriptor+0x16f1>
    6438:	65 77 00             	gs ja  643b <usbhid_dev_get_report_descriptor+0x168b>
    643b:	41                   	inc    %ecx
    643c:	43                   	inc    %ebx
    643d:	20 50 61             	and    %dl,0x61(%eax)
    6440:	73 74                	jae    64b6 <usbhid_dev_get_report_descriptor+0x1706>
    6442:	65 20 53 70          	and    %dl,%gs:0x70(%ebx)
    6446:	65 63 69 61          	arpl   %bp,%gs:0x61(%ecx)
    644a:	6c                   	insb   (%dx),%es:(%edi)
    644b:	00 41 43             	add    %al,0x43(%ecx)
    644e:	20 49 6e             	and    %cl,0x6e(%ecx)
    6451:	73 65                	jae    64b8 <usbhid_dev_get_report_descriptor+0x1708>
    6453:	72 74                	jb     64c9 <usbhid_dev_get_report_descriptor+0x1719>
    6455:	20 4d 6f             	and    %cl,0x6f(%ebp)
    6458:	64 65 00 41 43       	fs add %al,%gs:0x43(%ecx)
    645d:	20 44 65 6c          	and    %al,0x6c(%ebp,%eiz,2)
    6461:	65 74 65             	gs je  64c9 <usbhid_dev_get_report_descriptor+0x1719>
    6464:	00 41 43             	add    %al,0x43(%ecx)
    6467:	20 4c 6f 63          	and    %cl,0x63(%edi,%ebp,2)
    646b:	6b 00 41             	imul   $0x41,(%eax),%eax
    646e:	43                   	inc    %ebx
    646f:	20 55 6e             	and    %dl,0x6e(%ebp)
    6472:	6c                   	insb   (%dx),%es:(%edi)
    6473:	6f                   	outsl  %ds:(%esi),(%dx)
    6474:	63 6b 00             	arpl   %bp,0x0(%ebx)
    6477:	41                   	inc    %ecx
    6478:	43                   	inc    %ebx
    6479:	20 50 72             	and    %dl,0x72(%eax)
    647c:	6f                   	outsl  %ds:(%esi),(%dx)
    647d:	74 65                	je     64e4 <usbhid_dev_get_report_descriptor+0x1734>
    647f:	63 74 00 41          	arpl   %si,0x41(%eax,%eax,1)
    6483:	43                   	inc    %ebx
    6484:	20 55 6e             	and    %dl,0x6e(%ebp)
    6487:	70 72                	jo     64fb <usbhid_dev_get_report_descriptor+0x174b>
    6489:	6f                   	outsl  %ds:(%esi),(%dx)
    648a:	74 65                	je     64f1 <usbhid_dev_get_report_descriptor+0x1741>
    648c:	63 74 00 41          	arpl   %si,0x41(%eax,%eax,1)
    6490:	43                   	inc    %ebx
    6491:	20 41 74             	and    %al,0x74(%ecx)
    6494:	74 61                	je     64f7 <usbhid_dev_get_report_descriptor+0x1747>
    6496:	63 68 20             	arpl   %bp,0x20(%eax)
    6499:	43                   	inc    %ebx
    649a:	6f                   	outsl  %ds:(%esi),(%dx)
    649b:	6d                   	insl   (%dx),%es:(%edi)
    649c:	6d                   	insl   (%dx),%es:(%edi)
    649d:	65 6e                	outsb  %gs:(%esi),(%dx)
    649f:	74 00                	je     64a1 <usbhid_dev_get_report_descriptor+0x16f1>
    64a1:	41                   	inc    %ecx
    64a2:	43                   	inc    %ebx
    64a3:	20 44 65 6c          	and    %al,0x6c(%ebp,%eiz,2)
    64a7:	65 74 65             	gs je  650f <usbhid_dev_get_report_descriptor+0x175f>
    64aa:	20 43 6f             	and    %al,0x6f(%ebx)
    64ad:	6d                   	insl   (%dx),%es:(%edi)
    64ae:	6d                   	insl   (%dx),%es:(%edi)
    64af:	65 6e                	outsb  %gs:(%esi),(%dx)
    64b1:	74 00                	je     64b3 <usbhid_dev_get_report_descriptor+0x1703>
    64b3:	41                   	inc    %ecx
    64b4:	43                   	inc    %ebx
    64b5:	20 56 69             	and    %dl,0x69(%esi)
    64b8:	65 77 20             	gs ja  64db <usbhid_dev_get_report_descriptor+0x172b>
    64bb:	43                   	inc    %ebx
    64bc:	6f                   	outsl  %ds:(%esi),(%dx)
    64bd:	6d                   	insl   (%dx),%es:(%edi)
    64be:	6d                   	insl   (%dx),%es:(%edi)
    64bf:	65 6e                	outsb  %gs:(%esi),(%dx)
    64c1:	74 00                	je     64c3 <usbhid_dev_get_report_descriptor+0x1713>
    64c3:	41                   	inc    %ecx
    64c4:	43                   	inc    %ebx
    64c5:	20 53 65             	and    %dl,0x65(%ebx)
    64c8:	6c                   	insb   (%dx),%es:(%edi)
    64c9:	65 63 74 20 57       	arpl   %si,%gs:0x57(%eax,%eiz,1)
    64ce:	6f                   	outsl  %ds:(%esi),(%dx)
    64cf:	72 64                	jb     6535 <usbhid_dev_get_report_descriptor+0x1785>
    64d1:	00 41 43             	add    %al,0x43(%ecx)
    64d4:	20 53 65             	and    %dl,0x65(%ebx)
    64d7:	6c                   	insb   (%dx),%es:(%edi)
    64d8:	65 63 74 20 53       	arpl   %si,%gs:0x53(%eax,%eiz,1)
    64dd:	65 6e                	outsb  %gs:(%esi),(%dx)
    64df:	74 65                	je     6546 <usbhid_dev_get_report_descriptor+0x1796>
    64e1:	6e                   	outsb  %ds:(%esi),(%dx)
    64e2:	63 65 00             	arpl   %sp,0x0(%ebp)
    64e5:	41                   	inc    %ecx
    64e6:	43                   	inc    %ebx
    64e7:	20 53 65             	and    %dl,0x65(%ebx)
    64ea:	6c                   	insb   (%dx),%es:(%edi)
    64eb:	65 63 74 20 50       	arpl   %si,%gs:0x50(%eax,%eiz,1)
    64f0:	61                   	popa   
    64f1:	72 61                	jb     6554 <usbhid_dev_get_report_descriptor+0x17a4>
    64f3:	67 72 61             	addr16 jb 6557 <usbhid_dev_get_report_descriptor+0x17a7>
    64f6:	70 68                	jo     6560 <usbhid_dev_get_report_descriptor+0x17b0>
    64f8:	00 41 43             	add    %al,0x43(%ecx)
    64fb:	20 53 65             	and    %dl,0x65(%ebx)
    64fe:	6c                   	insb   (%dx),%es:(%edi)
    64ff:	65 63 74 20 43       	arpl   %si,%gs:0x43(%eax,%eiz,1)
    6504:	6f                   	outsl  %ds:(%esi),(%dx)
    6505:	6c                   	insb   (%dx),%es:(%edi)
    6506:	75 6d                	jne    6575 <usbhid_dev_get_report_descriptor+0x17c5>
    6508:	6e                   	outsb  %ds:(%esi),(%dx)
    6509:	00 41 43             	add    %al,0x43(%ecx)
    650c:	20 53 65             	and    %dl,0x65(%ebx)
    650f:	6c                   	insb   (%dx),%es:(%edi)
    6510:	65 63 74 20 52       	arpl   %si,%gs:0x52(%eax,%eiz,1)
    6515:	6f                   	outsl  %ds:(%esi),(%dx)
    6516:	77 00                	ja     6518 <usbhid_dev_get_report_descriptor+0x1768>
    6518:	41                   	inc    %ecx
    6519:	43                   	inc    %ebx
    651a:	20 53 65             	and    %dl,0x65(%ebx)
    651d:	6c                   	insb   (%dx),%es:(%edi)
    651e:	65 63 74 20 54       	arpl   %si,%gs:0x54(%eax,%eiz,1)
    6523:	61                   	popa   
    6524:	62 6c 65 00          	bound  %ebp,0x0(%ebp,%eiz,2)
    6528:	41                   	inc    %ecx
    6529:	43                   	inc    %ebx
    652a:	20 53 65             	and    %dl,0x65(%ebx)
    652d:	6c                   	insb   (%dx),%es:(%edi)
    652e:	65 63 74 20 4f       	arpl   %si,%gs:0x4f(%eax,%eiz,1)
    6533:	62 6a 65             	bound  %ebp,0x65(%edx)
    6536:	63 74 00 41          	arpl   %si,0x41(%eax,%eax,1)
    653a:	43                   	inc    %ebx
    653b:	20 52 65             	and    %dl,0x65(%edx)
    653e:	64 6f                	outsl  %fs:(%esi),(%dx)
    6540:	2f                   	das    
    6541:	52                   	push   %edx
    6542:	65 70 65             	gs jo  65aa <usbhid_dev_get_report_descriptor+0x17fa>
    6545:	61                   	popa   
    6546:	74 00                	je     6548 <usbhid_dev_get_report_descriptor+0x1798>
    6548:	41                   	inc    %ecx
    6549:	43                   	inc    %ebx
    654a:	20 53 6f             	and    %dl,0x6f(%ebx)
    654d:	72 74                	jb     65c3 <usbhid_dev_get_report_descriptor+0x1813>
    654f:	00 41 43             	add    %al,0x43(%ecx)
    6552:	20 53 6f             	and    %dl,0x6f(%ebx)
    6555:	72 74                	jb     65cb <usbhid_dev_get_report_descriptor+0x181b>
    6557:	20 41 73             	and    %al,0x73(%ecx)
    655a:	63 65 6e             	arpl   %sp,0x6e(%ebp)
    655d:	64 69 6e 67 00 41 43 	imul   $0x20434100,%fs:0x67(%esi),%ebp
    6564:	20 
    6565:	53                   	push   %ebx
    6566:	6f                   	outsl  %ds:(%esi),(%dx)
    6567:	72 74                	jb     65dd <usbhid_dev_get_report_descriptor+0x182d>
    6569:	20 44 65 73          	and    %al,0x73(%ebp,%eiz,2)
    656d:	63 65 6e             	arpl   %sp,0x6e(%ebp)
    6570:	64 69 6e 67 00 41 43 	imul   $0x20434100,%fs:0x67(%esi),%ebp
    6577:	20 
    6578:	46                   	inc    %esi
    6579:	69 6c 74 65 72 00 41 	imul   $0x43410072,0x65(%esp,%esi,2),%ebp
    6580:	43 
    6581:	20 53 65             	and    %dl,0x65(%ebx)
    6584:	74 20                	je     65a6 <usbhid_dev_get_report_descriptor+0x17f6>
    6586:	43                   	inc    %ebx
    6587:	6c                   	insb   (%dx),%es:(%edi)
    6588:	6f                   	outsl  %ds:(%esi),(%dx)
    6589:	63 6b 00             	arpl   %bp,0x0(%ebx)
    658c:	41                   	inc    %ecx
    658d:	43                   	inc    %ebx
    658e:	20 56 69             	and    %dl,0x69(%esi)
    6591:	65 77 20             	gs ja  65b4 <usbhid_dev_get_report_descriptor+0x1804>
    6594:	43                   	inc    %ebx
    6595:	6c                   	insb   (%dx),%es:(%edi)
    6596:	6f                   	outsl  %ds:(%esi),(%dx)
    6597:	63 6b 00             	arpl   %bp,0x0(%ebx)
    659a:	41                   	inc    %ecx
    659b:	43                   	inc    %ebx
    659c:	20 53 65             	and    %dl,0x65(%ebx)
    659f:	6c                   	insb   (%dx),%es:(%edi)
    65a0:	65 63 74 20 54       	arpl   %si,%gs:0x54(%eax,%eiz,1)
    65a5:	69 6d 65 20 5a 6f 6e 	imul   $0x6e6f5a20,0x65(%ebp),%ebp
    65ac:	65 00 41 43          	add    %al,%gs:0x43(%ecx)
    65b0:	20 45 64             	and    %al,0x64(%ebp)
    65b3:	69 74 20 54 69 6d 65 	imul   $0x20656d69,0x54(%eax,%eiz,1),%esi
    65ba:	20 
    65bb:	5a                   	pop    %edx
    65bc:	6f                   	outsl  %ds:(%esi),(%dx)
    65bd:	6e                   	outsb  %ds:(%esi),(%dx)
    65be:	65 73 00             	gs jae 65c1 <usbhid_dev_get_report_descriptor+0x1811>
    65c1:	41                   	inc    %ecx
    65c2:	43                   	inc    %ebx
    65c3:	20 53 65             	and    %dl,0x65(%ebx)
    65c6:	74 20                	je     65e8 <usbhid_dev_get_report_descriptor+0x1838>
    65c8:	41                   	inc    %ecx
    65c9:	6c                   	insb   (%dx),%es:(%edi)
    65ca:	61                   	popa   
    65cb:	72 6d                	jb     663a <usbhid_dev_get_report_descriptor+0x188a>
    65cd:	00 41 43             	add    %al,0x43(%ecx)
    65d0:	20 43 6c             	and    %al,0x6c(%ebx)
    65d3:	65 61                	gs popa 
    65d5:	72 20                	jb     65f7 <usbhid_dev_get_report_descriptor+0x1847>
    65d7:	41                   	inc    %ecx
    65d8:	6c                   	insb   (%dx),%es:(%edi)
    65d9:	61                   	popa   
    65da:	72 6d                	jb     6649 <usbhid_dev_get_report_descriptor+0x1899>
    65dc:	00 41 43             	add    %al,0x43(%ecx)
    65df:	20 53 6e             	and    %dl,0x6e(%ebx)
    65e2:	6f                   	outsl  %ds:(%esi),(%dx)
    65e3:	6f                   	outsl  %ds:(%esi),(%dx)
    65e4:	7a 65                	jp     664b <usbhid_dev_get_report_descriptor+0x189b>
    65e6:	20 41 6c             	and    %al,0x6c(%ecx)
    65e9:	61                   	popa   
    65ea:	72 6d                	jb     6659 <usbhid_dev_get_report_descriptor+0x18a9>
    65ec:	00 41 43             	add    %al,0x43(%ecx)
    65ef:	20 52 65             	and    %dl,0x65(%edx)
    65f2:	73 65                	jae    6659 <usbhid_dev_get_report_descriptor+0x18a9>
    65f4:	74 20                	je     6616 <usbhid_dev_get_report_descriptor+0x1866>
    65f6:	41                   	inc    %ecx
    65f7:	6c                   	insb   (%dx),%es:(%edi)
    65f8:	61                   	popa   
    65f9:	72 6d                	jb     6668 <usbhid_dev_get_report_descriptor+0x18b8>
    65fb:	00 41 43             	add    %al,0x43(%ecx)
    65fe:	20 53 79             	and    %dl,0x79(%ebx)
    6601:	6e                   	outsb  %ds:(%esi),(%dx)
    6602:	63 68 72             	arpl   %bp,0x72(%eax)
    6605:	6f                   	outsl  %ds:(%esi),(%dx)
    6606:	6e                   	outsb  %ds:(%esi),(%dx)
    6607:	69 7a 65 00 41 43 20 	imul   $0x20434100,0x65(%edx),%edi
    660e:	53                   	push   %ebx
    660f:	65 6e                	outsb  %gs:(%esi),(%dx)
    6611:	64 2f                	fs das 
    6613:	52                   	push   %edx
    6614:	65 63 65 69          	arpl   %sp,%gs:0x69(%ebp)
    6618:	76 65                	jbe    667f <usbhid_dev_get_report_descriptor+0x18cf>
    661a:	00 41 43             	add    %al,0x43(%ecx)
    661d:	20 53 65             	and    %dl,0x65(%ebx)
    6620:	6e                   	outsb  %ds:(%esi),(%dx)
    6621:	64 20 54 6f 00       	and    %dl,%fs:0x0(%edi,%ebp,2)
    6626:	41                   	inc    %ecx
    6627:	43                   	inc    %ebx
    6628:	20 52 65             	and    %dl,0x65(%edx)
    662b:	70 6c                	jo     6699 <usbhid_dev_get_report_descriptor+0x18e9>
    662d:	79 00                	jns    662f <usbhid_dev_get_report_descriptor+0x187f>
    662f:	41                   	inc    %ecx
    6630:	43                   	inc    %ebx
    6631:	20 52 65             	and    %dl,0x65(%edx)
    6634:	70 6c                	jo     66a2 <usbhid_dev_get_report_descriptor+0x18f2>
    6636:	79 20                	jns    6658 <usbhid_dev_get_report_descriptor+0x18a8>
    6638:	41                   	inc    %ecx
    6639:	6c                   	insb   (%dx),%es:(%edi)
    663a:	6c                   	insb   (%dx),%es:(%edi)
    663b:	00 41 43             	add    %al,0x43(%ecx)
    663e:	20 46 6f             	and    %al,0x6f(%esi)
    6641:	72 77                	jb     66ba <usbhid_dev_get_report_descriptor+0x190a>
    6643:	61                   	popa   
    6644:	72 64                	jb     66aa <usbhid_dev_get_report_descriptor+0x18fa>
    6646:	20 4d 73             	and    %cl,0x73(%ebp)
    6649:	67 00 41 43          	add    %al,0x43(%bx,%di)
    664d:	20 53 65             	and    %dl,0x65(%ebx)
    6650:	6e                   	outsb  %ds:(%esi),(%dx)
    6651:	64 00 41 43          	add    %al,%fs:0x43(%ecx)
    6655:	20 41 74             	and    %al,0x74(%ecx)
    6658:	74 61                	je     66bb <usbhid_dev_get_report_descriptor+0x190b>
    665a:	63 68 20             	arpl   %bp,0x20(%eax)
    665d:	46                   	inc    %esi
    665e:	69 6c 65 00 41 43 20 	imul   $0x55204341,0x0(%ebp,%eiz,2),%ebp
    6665:	55 
    6666:	70 6c                	jo     66d4 <usbhid_dev_get_report_descriptor+0x1924>
    6668:	6f                   	outsl  %ds:(%esi),(%dx)
    6669:	61                   	popa   
    666a:	64 00 41 43          	add    %al,%fs:0x43(%ecx)
    666e:	20 44 6f 77          	and    %al,0x77(%edi,%ebp,2)
    6672:	6e                   	outsb  %ds:(%esi),(%dx)
    6673:	6c                   	insb   (%dx),%es:(%edi)
    6674:	6f                   	outsl  %ds:(%esi),(%dx)
    6675:	61                   	popa   
    6676:	64 20 28             	and    %ch,%fs:(%eax)
    6679:	53                   	push   %ebx
    667a:	61                   	popa   
    667b:	76 65                	jbe    66e2 <usbhid_dev_get_report_descriptor+0x1932>
    667d:	20 54 61 72          	and    %dl,0x72(%ecx,%eiz,2)
    6681:	67 65 74 20          	addr16 gs je 66a5 <usbhid_dev_get_report_descriptor+0x18f5>
    6685:	41                   	inc    %ecx
    6686:	73 29                	jae    66b1 <usbhid_dev_get_report_descriptor+0x1901>
    6688:	00 41 43             	add    %al,0x43(%ecx)
    668b:	20 53 65             	and    %dl,0x65(%ebx)
    668e:	74 20                	je     66b0 <usbhid_dev_get_report_descriptor+0x1900>
    6690:	42                   	inc    %edx
    6691:	6f                   	outsl  %ds:(%esi),(%dx)
    6692:	72 64                	jb     66f8 <usbhid_dev_get_report_descriptor+0x1948>
    6694:	65 72 73             	gs jb  670a <usbhid_dev_get_report_descriptor+0x195a>
    6697:	00 41 43             	add    %al,0x43(%ecx)
    669a:	20 49 6e             	and    %cl,0x6e(%ecx)
    669d:	73 65                	jae    6704 <usbhid_dev_get_report_descriptor+0x1954>
    669f:	72 74                	jb     6715 <usbhid_dev_get_report_descriptor+0x1965>
    66a1:	20 52 6f             	and    %dl,0x6f(%edx)
    66a4:	77 00                	ja     66a6 <usbhid_dev_get_report_descriptor+0x18f6>
    66a6:	41                   	inc    %ecx
    66a7:	43                   	inc    %ebx
    66a8:	20 49 6e             	and    %cl,0x6e(%ecx)
    66ab:	73 65                	jae    6712 <usbhid_dev_get_report_descriptor+0x1962>
    66ad:	72 74                	jb     6723 <usbhid_dev_get_report_descriptor+0x1973>
    66af:	20 43 6f             	and    %al,0x6f(%ebx)
    66b2:	6c                   	insb   (%dx),%es:(%edi)
    66b3:	75 6d                	jne    6722 <usbhid_dev_get_report_descriptor+0x1972>
    66b5:	6e                   	outsb  %ds:(%esi),(%dx)
    66b6:	00 41 43             	add    %al,0x43(%ecx)
    66b9:	20 49 6e             	and    %cl,0x6e(%ecx)
    66bc:	73 65                	jae    6723 <usbhid_dev_get_report_descriptor+0x1973>
    66be:	72 74                	jb     6734 <usbhid_dev_get_report_descriptor+0x1984>
    66c0:	20 46 69             	and    %al,0x69(%esi)
    66c3:	6c                   	insb   (%dx),%es:(%edi)
    66c4:	65 00 41 43          	add    %al,%gs:0x43(%ecx)
    66c8:	20 49 6e             	and    %cl,0x6e(%ecx)
    66cb:	73 65                	jae    6732 <usbhid_dev_get_report_descriptor+0x1982>
    66cd:	72 74                	jb     6743 <usbhid_dev_get_report_descriptor+0x1993>
    66cf:	20 50 69             	and    %dl,0x69(%eax)
    66d2:	63 74 75 72          	arpl   %si,0x72(%ebp,%esi,2)
    66d6:	65 00 41 43          	add    %al,%gs:0x43(%ecx)
    66da:	20 49 6e             	and    %cl,0x6e(%ecx)
    66dd:	73 65                	jae    6744 <usbhid_dev_get_report_descriptor+0x1994>
    66df:	72 74                	jb     6755 <usbhid_dev_get_report_descriptor+0x19a5>
    66e1:	20 4f 62             	and    %cl,0x62(%edi)
    66e4:	6a 65                	push   $0x65
    66e6:	63 74 00 41          	arpl   %si,0x41(%eax,%eax,1)
    66ea:	43                   	inc    %ebx
    66eb:	20 49 6e             	and    %cl,0x6e(%ecx)
    66ee:	73 65                	jae    6755 <usbhid_dev_get_report_descriptor+0x19a5>
    66f0:	72 74                	jb     6766 <usbhid_dev_get_report_descriptor+0x19b6>
    66f2:	20 53 79             	and    %dl,0x79(%ebx)
    66f5:	6d                   	insl   (%dx),%es:(%edi)
    66f6:	62 6f 6c             	bound  %ebp,0x6c(%edi)
    66f9:	00 41 43             	add    %al,0x43(%ecx)
    66fc:	20 53 61             	and    %dl,0x61(%ebx)
    66ff:	76 65                	jbe    6766 <usbhid_dev_get_report_descriptor+0x19b6>
    6701:	20 61 6e             	and    %ah,0x6e(%ecx)
    6704:	64 20 43 6c          	and    %al,%fs:0x6c(%ebx)
    6708:	6f                   	outsl  %ds:(%esi),(%dx)
    6709:	73 65                	jae    6770 <usbhid_dev_get_report_descriptor+0x19c0>
    670b:	00 41 43             	add    %al,0x43(%ecx)
    670e:	20 52 65             	and    %dl,0x65(%edx)
    6711:	6e                   	outsb  %ds:(%esi),(%dx)
    6712:	61                   	popa   
    6713:	6d                   	insl   (%dx),%es:(%edi)
    6714:	65 00 41 43          	add    %al,%gs:0x43(%ecx)
    6718:	20 4d 65             	and    %cl,0x65(%ebp)
    671b:	72 67                	jb     6784 <usbhid_dev_get_report_descriptor+0x19d4>
    671d:	65 00 41 43          	add    %al,%gs:0x43(%ecx)
    6721:	20 53 70             	and    %dl,0x70(%ebx)
    6724:	6c                   	insb   (%dx),%es:(%edi)
    6725:	69 74 00 41 43 20 44 	imul   $0x69442043,0x41(%eax,%eax,1),%esi
    672c:	69 
    672d:	73 74                	jae    67a3 <usbhid_dev_get_report_descriptor+0x19f3>
    672f:	72 75                	jb     67a6 <usbhid_dev_get_report_descriptor+0x19f6>
    6731:	62 75 74             	bound  %esi,0x74(%ebp)
    6734:	65 20 48 6f          	and    %cl,%gs:0x6f(%eax)
    6738:	72 69                	jb     67a3 <usbhid_dev_get_report_descriptor+0x19f3>
    673a:	7a 6f                	jp     67ab <usbhid_dev_get_report_descriptor+0x19fb>
    673c:	6e                   	outsb  %ds:(%esi),(%dx)
    673d:	74 61                	je     67a0 <usbhid_dev_get_report_descriptor+0x19f0>
    673f:	6c                   	insb   (%dx),%es:(%edi)
    6740:	6c                   	insb   (%dx),%es:(%edi)
    6741:	79 00                	jns    6743 <usbhid_dev_get_report_descriptor+0x1993>
    6743:	41                   	inc    %ecx
    6744:	43                   	inc    %ebx
    6745:	20 44 69 73          	and    %al,0x73(%ecx,%ebp,2)
    6749:	74 72                	je     67bd <usbhid_dev_get_report_descriptor+0x1a0d>
    674b:	75 62                	jne    67af <usbhid_dev_get_report_descriptor+0x19ff>
    674d:	75 74                	jne    67c3 <usbhid_dev_get_report_descriptor+0x1a13>
    674f:	65 20 56 65          	and    %dl,%gs:0x65(%esi)
    6753:	72 74                	jb     67c9 <usbhid_dev_get_report_descriptor+0x1a19>
    6755:	69 63 61 6c 6c 79 00 	imul   $0x796c6c,0x61(%ebx),%esp
    675c:	43                   	inc    %ebx
    675d:	68 61 6e 6e 65       	push   $0x656e6e61
    6762:	6c                   	insb   (%dx),%es:(%edi)
    6763:	20 4c 6f 77          	and    %cl,0x77(%edi,%ebp,2)
    6767:	20 46 72             	and    %al,0x72(%esi)
    676a:	65 71 75             	gs jno 67e2 <usbhid_dev_get_report_descriptor+0x1a32>
    676d:	65 6e                	outsb  %gs:(%esi),(%dx)
    676f:	63 79 20             	arpl   %di,0x20(%ecx)
    6772:	45                   	inc    %ebp
    6773:	6e                   	outsb  %ds:(%esi),(%dx)
    6774:	68 61 6e 63 65       	push   $0x65636e61
    6779:	6d                   	insl   (%dx),%es:(%edi)
    677a:	65 6e                	outsb  %gs:(%esi),(%dx)
    677c:	74 00                	je     677e <usbhid_dev_get_report_descriptor+0x19ce>
    677e:	00 00                	add    %al,(%eax)
    6780:	41                   	inc    %ecx
    6781:	4c                   	dec    %esp
    6782:	20 4c 61 75          	and    %cl,0x75(%ecx,%eiz,2)
    6786:	6e                   	outsb  %ds:(%esi),(%dx)
    6787:	63 68 20             	arpl   %bp,0x20(%eax)
    678a:	42                   	inc    %edx
    678b:	75 74                	jne    6801 <usbhid_dev_get_report_descriptor+0x1a51>
    678d:	74 69                	je     67f8 <usbhid_dev_get_report_descriptor+0x1a48>
    678f:	6f                   	outsl  %ds:(%esi),(%dx)
    6790:	6e                   	outsb  %ds:(%esi),(%dx)
    6791:	20 43 6f             	and    %al,0x6f(%ebx)
    6794:	6e                   	outsb  %ds:(%esi),(%dx)
    6795:	66 69 67 75 72 61    	imul   $0x6172,0x75(%edi),%sp
    679b:	74 69                	je     6806 <usbhid_dev_get_report_descriptor+0x1a56>
    679d:	6f                   	outsl  %ds:(%esi),(%dx)
    679e:	6e                   	outsb  %ds:(%esi),(%dx)
    679f:	20 54 6f 6f          	and    %dl,0x6f(%edi,%ebp,2)
    67a3:	6c                   	insb   (%dx),%es:(%edi)
    67a4:	00 00                	add    %al,(%eax)
    67a6:	00 00                	add    %al,(%eax)
    67a8:	41                   	inc    %ecx
    67a9:	4c                   	dec    %esp
    67aa:	20 50 72             	and    %dl,0x72(%eax)
    67ad:	6f                   	outsl  %ds:(%esi),(%dx)
    67ae:	67 72 61             	addr16 jb 6812 <usbhid_dev_get_report_descriptor+0x1a62>
    67b1:	6d                   	insl   (%dx),%es:(%edi)
    67b2:	6d                   	insl   (%dx),%es:(%edi)
    67b3:	61                   	popa   
    67b4:	62 6c 65 20          	bound  %ebp,0x20(%ebp,%eiz,2)
    67b8:	42                   	inc    %edx
    67b9:	75 74                	jne    682f <usbhid_dev_get_report_descriptor+0x1a7f>
    67bb:	74 6f                	je     682c <usbhid_dev_get_report_descriptor+0x1a7c>
    67bd:	6e                   	outsb  %ds:(%esi),(%dx)
    67be:	20 43 6f             	and    %al,0x6f(%ebx)
    67c1:	6e                   	outsb  %ds:(%esi),(%dx)
    67c2:	66 69 67 75 72 61    	imul   $0x6172,0x75(%edi),%sp
    67c8:	74 69                	je     6833 <usbhid_dev_get_report_descriptor+0x1a83>
    67ca:	6f                   	outsl  %ds:(%esi),(%dx)
    67cb:	6e                   	outsb  %ds:(%esi),(%dx)
    67cc:	00 00                	add    %al,(%eax)
    67ce:	00 00                	add    %al,(%eax)
    67d0:	41                   	inc    %ecx
    67d1:	4c                   	dec    %esp
    67d2:	20 43 6f             	and    %al,0x6f(%ebx)
    67d5:	6e                   	outsb  %ds:(%esi),(%dx)
    67d6:	73 75                	jae    684d <usbhid_dev_get_report_descriptor+0x1a9d>
    67d8:	6d                   	insl   (%dx),%es:(%edi)
    67d9:	65 72 20             	gs jb  67fc <usbhid_dev_get_report_descriptor+0x1a4c>
    67dc:	43                   	inc    %ebx
    67dd:	6f                   	outsl  %ds:(%esi),(%dx)
    67de:	6e                   	outsb  %ds:(%esi),(%dx)
    67df:	74 72                	je     6853 <usbhid_dev_get_report_descriptor+0x1aa3>
    67e1:	6f                   	outsl  %ds:(%esi),(%dx)
    67e2:	6c                   	insb   (%dx),%es:(%edi)
    67e3:	20 43 6f             	and    %al,0x6f(%ebx)
    67e6:	6e                   	outsb  %ds:(%esi),(%dx)
    67e7:	66 69 67 75 72 61    	imul   $0x6172,0x75(%edi),%sp
    67ed:	74 69                	je     6858 <usbhid_dev_get_report_descriptor+0x1aa8>
    67ef:	6f                   	outsl  %ds:(%esi),(%dx)
    67f0:	6e                   	outsb  %ds:(%esi),(%dx)
    67f1:	00 00                	add    %al,(%eax)
    67f3:	00 41 4c             	add    %al,0x4c(%ecx)
    67f6:	20 52 65             	and    %dl,0x65(%edx)
    67f9:	6d                   	insl   (%dx),%es:(%edi)
    67fa:	6f                   	outsl  %ds:(%esi),(%dx)
    67fb:	74 65                	je     6862 <usbhid_dev_get_report_descriptor+0x1ab2>
    67fd:	20 4e 65             	and    %cl,0x65(%esi)
    6800:	74 77                	je     6879 <usbhid_dev_get_report_descriptor+0x1ac9>
    6802:	6f                   	outsl  %ds:(%esi),(%dx)
    6803:	72 6b                	jb     6870 <usbhid_dev_get_report_descriptor+0x1ac0>
    6805:	69 6e 67 2f 49 53 50 	imul   $0x5053492f,0x67(%esi),%ebp
    680c:	20 43 6f             	and    %al,0x6f(%ebx)
    680f:	6e                   	outsb  %ds:(%esi),(%dx)
    6810:	6e                   	outsb  %ds:(%esi),(%dx)
    6811:	65 63 74 00 00       	arpl   %si,%gs:0x0(%eax,%eax,1)
    6816:	00 00                	add    %al,(%eax)
    6818:	41                   	inc    %ecx
    6819:	4c                   	dec    %esp
    681a:	20 50 72             	and    %dl,0x72(%eax)
    681d:	65 65 6d             	gs gs insl (%dx),%es:(%edi)
    6820:	70 74                	jo     6896 <usbhid_dev_get_report_descriptor+0x1ae6>
    6822:	69 76 65 20 48 61 6c 	imul   $0x6c614820,0x65(%esi),%esi
    6829:	74 20                	je     684b <usbhid_dev_get_report_descriptor+0x1a9b>
    682b:	54                   	push   %esp
    682c:	61                   	popa   
    682d:	73 6b                	jae    689a <usbhid_dev_get_report_descriptor+0x1aea>
    682f:	2f                   	das    
    6830:	41                   	inc    %ecx
    6831:	70 70                	jo     68a3 <usbhid_dev_get_report_descriptor+0x1af3>
    6833:	6c                   	insb   (%dx),%es:(%edi)
    6834:	69 63 61 74 69 6f 6e 	imul   $0x6e6f6974,0x61(%ebx),%esp
    683b:	00 41 4c             	add    %al,0x4c(%ecx)
    683e:	20 4f 45             	and    %cl,0x45(%edi)
    6841:	4d                   	dec    %ebp
    6842:	20 46 65             	and    %al,0x65(%esi)
    6845:	61                   	popa   
    6846:	74 75                	je     68bd <usbhid_dev_get_report_descriptor+0x1b0d>
    6848:	72 65                	jb     68af <usbhid_dev_get_report_descriptor+0x1aff>
    684a:	73 20                	jae    686c <usbhid_dev_get_report_descriptor+0x1abc>
    684c:	54                   	push   %esp
    684d:	69 70 73 2f 54 75 74 	imul   $0x7475542f,0x73(%eax),%esi
    6854:	6f                   	outsl  %ds:(%esi),(%dx)
    6855:	72 69                	jb     68c0 <usbhid_dev_get_report_descriptor+0x1b10>
    6857:	61                   	popa   
    6858:	6c                   	insb   (%dx),%es:(%edi)
    6859:	20 42 72             	and    %al,0x72(%edx)
    685c:	6f                   	outsl  %ds:(%esi),(%dx)
    685d:	77 73                	ja     68d2 <usbhid_dev_get_report_descriptor+0x1b22>
    685f:	65 72 00             	gs jb  6862 <usbhid_dev_get_report_descriptor+0x1ab2>
    6862:	00 00                	add    %al,(%eax)
    6864:	41                   	inc    %ecx
    6865:	4c                   	dec    %esp
    6866:	20 45 6e             	and    %al,0x6e(%ebp)
    6869:	74 65                	je     68d0 <usbhid_dev_get_report_descriptor+0x1b20>
    686b:	72 74                	jb     68e1 <usbhid_dev_get_report_descriptor+0x1b31>
    686d:	61                   	popa   
    686e:	69 6e 6d 65 6e 74 20 	imul   $0x20746e65,0x6d(%esi),%ebp
    6875:	43                   	inc    %ebx
    6876:	6f                   	outsl  %ds:(%esi),(%dx)
    6877:	6e                   	outsb  %ds:(%esi),(%dx)
    6878:	74 65                	je     68df <usbhid_dev_get_report_descriptor+0x1b2f>
    687a:	6e                   	outsb  %ds:(%esi),(%dx)
    687b:	74 20                	je     689d <usbhid_dev_get_report_descriptor+0x1aed>
    687d:	42                   	inc    %edx
    687e:	72 6f                	jb     68ef <usbhid_dev_get_report_descriptor+0x1b3f>
    6880:	77 73                	ja     68f5 <usbhid_dev_get_report_descriptor+0x1b45>
    6882:	65 72 00             	gs jb  6885 <usbhid_dev_get_report_descriptor+0x1ad5>
    6885:	00 00                	add    %al,(%eax)
    6887:	00 41 4c             	add    %al,0x4c(%ecx)
    688a:	20 4d 61             	and    %cl,0x61(%ebp)
    688d:	72 6b                	jb     68fa <usbhid_dev_get_report_descriptor+0x1b4a>
    688f:	65 74 20             	gs je  68b2 <usbhid_dev_get_report_descriptor+0x1b02>
    6892:	4d                   	dec    %ebp
    6893:	6f                   	outsl  %ds:(%esi),(%dx)
    6894:	6e                   	outsb  %ds:(%esi),(%dx)
    6895:	69 74 6f 72 2f 46 69 	imul   $0x6e69462f,0x72(%edi,%ebp,2),%esi
    689c:	6e 
    689d:	61                   	popa   
    689e:	6e                   	outsb  %ds:(%esi),(%dx)
    689f:	63 65 20             	arpl   %sp,0x20(%ebp)
    68a2:	42                   	inc    %edx
    68a3:	72 6f                	jb     6914 <usbhid_consumer_usage_str+0x14>
    68a5:	77 73                	ja     691a <usbhid_consumer_usage_str+0x1a>
    68a7:	65 72 00             	gs jb  68aa <usbhid_dev_get_report_descriptor+0x1afa>
    68aa:	00 00                	add    %al,(%eax)
    68ac:	41                   	inc    %ecx
    68ad:	4c                   	dec    %esp
    68ae:	20 43 75             	and    %al,0x75(%ebx)
    68b1:	73 74                	jae    6927 <usbhid_consumer_usage_str+0x27>
    68b3:	6f                   	outsl  %ds:(%esi),(%dx)
    68b4:	6d                   	insl   (%dx),%es:(%edi)
    68b5:	69 7a 65 64 20 43 6f 	imul   $0x6f432064,0x65(%edx),%edi
    68bc:	72 70                	jb     692e <usbhid_consumer_usage_str+0x2e>
    68be:	6f                   	outsl  %ds:(%esi),(%dx)
    68bf:	72 61                	jb     6922 <usbhid_consumer_usage_str+0x22>
    68c1:	74 65                	je     6928 <usbhid_consumer_usage_str+0x28>
    68c3:	20 4e 65             	and    %cl,0x65(%esi)
    68c6:	77 73                	ja     693b <usbhid_consumer_usage_str+0x3b>
    68c8:	20 42 72             	and    %al,0x72(%edx)
    68cb:	6f                   	outsl  %ds:(%esi),(%dx)
    68cc:	77 73                	ja     6941 <usbhid_consumer_usage_str+0x41>
    68ce:	65 72 00             	gs jb  68d1 <usbhid_dev_get_report_descriptor+0x1b21>
    68d1:	00 00                	add    %al,(%eax)
    68d3:	00 47 65             	add    %al,0x65(%edi)
    68d6:	6e                   	outsb  %ds:(%esi),(%dx)
    68d7:	65 72 69             	gs jb  6943 <usbhid_consumer_usage_str+0x43>
    68da:	63 20                	arpl   %sp,(%eax)
    68dc:	47                   	inc    %edi
    68dd:	55                   	push   %ebp
    68de:	49                   	dec    %ecx
    68df:	20 41 70             	and    %al,0x70(%ecx)
    68e2:	70 6c                	jo     6950 <usbhid_consumer_usage_str+0x50>
    68e4:	69 63 61 74 69 6f 6e 	imul   $0x6e6f6974,0x61(%ebx),%esp
    68eb:	20 43 6f             	and    %al,0x6f(%ebx)
    68ee:	6e                   	outsb  %ds:(%esi),(%dx)
    68ef:	74 72                	je     6963 <usbhid_consumer_usage_str+0x63>
    68f1:	6f                   	outsl  %ds:(%esi),(%dx)
    68f2:	6c                   	insb   (%dx),%es:(%edi)
    68f3:	73 00                	jae    68f5 <usbhid_dev_get_report_descriptor+0x1b45>
    68f5:	66 90                	xchg   %ax,%ax
    68f7:	66 90                	xchg   %ax,%ax
    68f9:	66 90                	xchg   %ax,%ax
    68fb:	66 90                	xchg   %ax,%ax
    68fd:	66 90                	xchg   %ax,%ax
    68ff:	90                   	nop

00006900 <usbhid_consumer_usage_str>:
    6900:	00 00 00 00 bf 53 00 00 d0 53 00 00 e0 53 00 00     .....S...S...S..
    6910:	f5 53 00 00 00 54 00 00 0a 54 00 00 1c 54 00 00     .S...T...T...T..
    6920:	1c 54 00 00 1c 54 00 00 1c 54 00 00 1c 54 00 00     .T...T...T...T..
    6930:	1c 54 00 00 1c 54 00 00 1c 54 00 00 1c 54 00 00     .T...T...T...T..
    6940:	1c 54 00 00 1c 54 00 00 1c 54 00 00 1c 54 00 00     .T...T...T...T..
    6950:	1c 54 00 00 1c 54 00 00 1c 54 00 00 1c 54 00 00     .T...T...T...T..
    6960:	1c 54 00 00 1c 54 00 00 1c 54 00 00 1c 54 00 00     .T...T...T...T..
    6970:	1c 54 00 00 1c 54 00 00 1c 54 00 00 1c 54 00 00     .T...T...T...T..
    6980:	25 54 00 00 29 54 00 00 2e 54 00 00 1c 54 00 00     %T..)T...T...T..
    6990:	1c 54 00 00 1c 54 00 00 1c 54 00 00 1c 54 00 00     .T...T...T...T..
    69a0:	1c 54 00 00 1c 54 00 00 1c 54 00 00 1c 54 00 00     .T...T...T...T..
    69b0:	1c 54 00 00 1c 54 00 00 1c 54 00 00 1c 54 00 00     .T...T...T...T..
    69c0:	1c 54 00 00 1c 54 00 00 1c 54 00 00 1c 54 00 00     .T...T...T...T..
    69d0:	1c 54 00 00 1c 54 00 00 1c 54 00 00 1c 54 00 00     .T...T...T...T..
    69e0:	1c 54 00 00 1c 54 00 00 1c 54 00 00 1c 54 00 00     .T...T...T...T..
    69f0:	1c 54 00 00 1c 54 00 00 1c 54 00 00 1c 54 00 00     .T...T...T...T..
    6a00:	34 54 00 00 39 54 00 00 43 54 00 00 4b 54 00 00     4T..9T..CT..KT..
    6a10:	55 54 00 00 5f 54 00 00 6a 54 00 00 76 54 00 00     UT.._T..jT..vT..
    6a20:	8a 54 00 00 1c 54 00 00 1c 54 00 00 1c 54 00 00     .T...T...T...T..
    6a30:	1c 54 00 00 1c 54 00 00 1c 54 00 00 1c 54 00 00     .T...T...T...T..
    6a40:	1c 54 00 00 1c 54 00 00 1c 54 00 00 1c 54 00 00     .T...T...T...T..
    6a50:	1c 54 00 00 1c 54 00 00 1c 54 00 00 1c 54 00 00     .T...T...T...T..
    6a60:	1c 54 00 00 1c 54 00 00 1c 54 00 00 1c 54 00 00     .T...T...T...T..
    6a70:	1c 54 00 00 1c 54 00 00 1c 54 00 00 1c 54 00 00     .T...T...T...T..
    6a80:	9e 54 00 00 ad 54 00 00 bc 54 00 00 d2 54 00 00     .T...T...T...T..
    6a90:	d9 54 00 00 e8 54 00 00 f1 54 00 00 1c 54 00 00     .T...T...T...T..
    6aa0:	1c 54 00 00 1c 54 00 00 1c 54 00 00 1c 54 00 00     .T...T...T...T..
    6ab0:	1c 54 00 00 1c 54 00 00 1c 54 00 00 1c 54 00 00     .T...T...T...T..
    6ac0:	1c 54 00 00 1c 54 00 00 1c 54 00 00 1c 54 00 00     .T...T...T...T..
    6ad0:	1c 54 00 00 1c 54 00 00 1c 54 00 00 1c 54 00 00     .T...T...T...T..
    6ae0:	1c 54 00 00 1c 54 00 00 1c 54 00 00 1c 54 00 00     .T...T...T...T..
    6af0:	1c 54 00 00 1c 54 00 00 1c 54 00 00 1c 54 00 00     .T...T...T...T..
    6b00:	3e 55 00 00 f7 54 00 00 08 55 00 00 12 55 00 00     >U...T...U...U..
    6b10:	1e 55 00 00 2c 55 00 00 24 55 00 00 38 55 00 00     .U..,U..$U..8U..
    6b20:	48 55 00 00 5e 55 00 00 6e 55 00 00 7f 55 00 00     HU..^U..nU...U..
    6b30:	90 55 00 00 a7 55 00 00 c2 55 00 00 db 55 00 00     .U...U...U...U..
    6b40:	ee 55 00 00 04 56 00 00 14 56 00 00 25 56 00 00     .U...V...V..%V..
    6b50:	38 56 00 00 31 5f 00 00 3d 56 00 00 4f 56 00 00     8V..1_..=V..OV..
    6b60:	62 56 00 00 79 56 00 00 8f 56 00 00 a1 56 00 00     bV..yV...V...V..
    6b70:	b3 56 00 00 c5 56 00 00 d7 56 00 00 1c 54 00 00     .V...V...V...T..
    6b80:	e8 56 00 00 f1 56 00 00 f6 56 00 00 fc 56 00 00     .V...V...V...V..
    6b90:	03 57 00 00 1c 54 00 00 1c 54 00 00 1c 54 00 00     .W...T...T...T..
    6ba0:	1c 54 00 00 1c 54 00 00 1c 54 00 00 1c 54 00 00     .T...T...T...T..
    6bb0:	1c 54 00 00 1c 54 00 00 1c 54 00 00 1c 54 00 00     .T...T...T...T..
    6bc0:	fb 58 00 00 46 58 00 00 0b 57 00 00 12 57 00 00     .X..FX...W...W..
    6bd0:	1f 57 00 00 26 57 00 00 36 57 00 00 9b 60 00 00     .W..&W..6W...`..
    6be0:	3b 58 00 00 49 57 00 00 55 57 00 00 61 57 00 00     ;X..IW..UW..aW..
    6bf0:	41 65 00 00 7e 57 00 00 6c 57 00 00 79 57 00 00     Ae..~W..lW..yW..
    6c00:	87 57 00 00 95 57 00 00 b7 57 00 00 a0 57 00 00     .W...W...W...W..
    6c10:	ab 57 00 00 bc 57 00 00 cb 57 00 00 df 57 00 00     .W...W...W...W..
    6c20:	f5 57 00 00 03 58 00 00 10 58 00 00 23 58 00 00     .W...X...X..#X..
    6c30:	36 58 00 00 41 58 00 00 4c 58 00 00 1c 54 00 00     6X..AX..LX...T..
    6c40:	1c 54 00 00 1c 54 00 00 1c 54 00 00 1c 54 00 00     .T...T...T...T..
    6c50:	1c 54 00 00 1c 54 00 00 1c 54 00 00 1c 54 00 00     .T...T...T...T..
    6c60:	1c 54 00 00 1c 54 00 00 1c 54 00 00 1c 54 00 00     .T...T...T...T..
    6c70:	1c 54 00 00 1c 54 00 00 1c 54 00 00 1c 54 00 00     .T...T...T...T..
    6c80:	56 58 00 00 5d 58 00 00 65 58 00 00 6a 58 00 00     VX..]X..eX..jX..
    6c90:	6f 58 00 00 76 58 00 00 81 58 00 00 8f 58 00 00     oX..vX...X...X..
    6ca0:	98 58 00 00 9c 58 00 00 ad 58 00 00 1c 54 00 00     .X...X...X...T..
    6cb0:	1c 54 00 00 1c 54 00 00 1c 54 00 00 1c 54 00 00     .T...T...T...T..
    6cc0:	be 58 00 00 cb 58 00 00 da 58 00 00 e8 58 00 00     .X...X...X...X..
    6cd0:	f2 58 00 00 00 59 00 00 1c 54 00 00 1c 54 00 00     .X...Y...T...T..
    6ce0:	1c 54 00 00 1c 54 00 00 1c 54 00 00 1c 54 00 00     .T...T...T...T..
    6cf0:	1c 54 00 00 1c 54 00 00 1c 54 00 00 1c 54 00 00     .T...T...T...T..
    6d00:	05 59 00 00 10 59 00 00 1a 59 00 00 27 59 00 00     .Y...Y...Y..'Y..
    6d10:	40 59 00 00 57 59 00 00 68 59 00 00 78 59 00 00     @Y..WY..hY..xY..
    6d20:	83 59 00 00 90 59 00 00 9a 59 00 00 a1 59 00 00     .Y...Y...Y...Y..
    6d30:	ae 59 00 00 bb 59 00 00 1c 54 00 00 1c 54 00 00     .Y...Y...T...T..
    6d40:	1c 54 00 00 1c 54 00 00 1c 54 00 00 1c 54 00 00     .T...T...T...T..
    6d50:	1c 54 00 00 1c 54 00 00 1c 54 00 00 1c 54 00 00     .T...T...T...T..
    6d60:	1c 54 00 00 1c 54 00 00 1c 54 00 00 1c 54 00 00     .T...T...T...T..
    6d70:	1c 54 00 00 1c 54 00 00 1c 54 00 00 1c 54 00 00     .T...T...T...T..
    6d80:	1c 54 00 00 1c 54 00 00 1c 54 00 00 1c 54 00 00     .T...T...T...T..
    6d90:	1c 54 00 00 1c 54 00 00 1c 54 00 00 1c 54 00 00     .T...T...T...T..
    6da0:	1c 54 00 00 1c 54 00 00 1c 54 00 00 1c 54 00 00     .T...T...T...T..
    6db0:	1c 54 00 00 1c 54 00 00 1c 54 00 00 1c 54 00 00     .T...T...T...T..
    6dc0:	1c 54 00 00 1c 54 00 00 1c 54 00 00 1c 54 00 00     .T...T...T...T..
    6dd0:	1c 54 00 00 1c 54 00 00 1c 54 00 00 1c 54 00 00     .T...T...T...T..
    6de0:	1c 54 00 00 1c 54 00 00 1c 54 00 00 1c 54 00 00     .T...T...T...T..
    6df0:	1c 54 00 00 1c 54 00 00 1c 54 00 00 1c 54 00 00     .T...T...T...T..
    6e00:	1c 54 00 00 1c 54 00 00 1c 54 00 00 1c 54 00 00     .T...T...T...T..
    6e10:	1c 54 00 00 1c 54 00 00 1c 54 00 00 1c 54 00 00     .T...T...T...T..
    6e20:	1c 54 00 00 1c 54 00 00 1c 54 00 00 1c 54 00 00     .T...T...T...T..
    6e30:	1c 54 00 00 1c 54 00 00 1c 54 00 00 1c 54 00 00     .T...T...T...T..
    6e40:	c9 59 00 00 d7 59 00 00 e4 59 00 00 f3 59 00 00     .Y...Y...Y...Y..
    6e50:	02 5a 00 00 13 5a 00 00 1c 54 00 00 1c 54 00 00     .Z...Z...T...T..
    6e60:	1c 54 00 00 1c 54 00 00 1c 54 00 00 1c 54 00 00     .T...T...T...T..
    6e70:	1c 54 00 00 1c 54 00 00 1c 54 00 00 1c 54 00 00     .T...T...T...T..
    6e80:	24 5a 00 00 33 5a 00 00 40 5a 00 00 4e 5a 00 00     $Z..3Z..@Z..NZ..
    6e90:	5d 5a 00 00 6b 5a 00 00 80 5a 00 00 8d 5a 00 00     ]Z..kZ...Z...Z..
    6ea0:	5c 67 00 00 9e 5a 00 00 aa 5a 00 00 1c 54 00 00     \g...Z...Z...T..
    6eb0:	1c 54 00 00 1c 54 00 00 1c 54 00 00 1c 54 00 00     .T...T...T...T..
    6ec0:	ba 5a 00 00 c6 5a 00 00 dc 5a 00 00 f2 5a 00 00     .Z...Z...Z...Z..
    6ed0:	0c 5b 00 00 1c 54 00 00 1c 54 00 00 1c 54 00 00     .[...T...T...T..
    6ee0:	1c 54 00 00 1c 54 00 00 1c 54 00 00 1c 54 00 00     .T...T...T...T..
    6ef0:	1c 54 00 00 1c 54 00 00 1c 54 00 00 1c 54 00 00     .T...T...T...T..
    6f00:	26 5b 00 00 80 67 00 00 a8 67 00 00 d0 67 00 00     &[...g...g...g..
    6f10:	41 5b 00 00 53 5b 00 00 62 5b 00 00 71 5b 00 00     A[..S[..b[..q[..
    6f20:	84 5b 00 00 98 5b 00 00 a8 5b 00 00 b8 5b 00 00     .[...[...[...[..
    6f30:	c6 5b 00 00 d3 5b 00 00 ec 5b 00 00 01 5c 00 00     .[...[...[...\..
    6f40:	19 5c 00 00 31 5c 00 00 46 5c 00 00 54 5c 00 00     .\..1\..F\..T\..
    6f50:	6c 5c 00 00 85 5c 00 00 98 5c 00 00 f4 67 00 00     l\...\...\...g..
    6f60:	ac 5c 00 00 c2 5c 00 00 d2 5c 00 00 e6 5c 00 00     .\...\...\...\..
    6f70:	ef 5c 00 00 f9 5c 00 00 09 5d 00 00 26 5d 00 00     .\...\...]..&]..
    6f80:	37 5d 00 00 55 5d 00 00 6d 5d 00 00 88 5d 00 00     7]..U]..m]...]..
    6f90:	a1 5d 00 00 18 68 00 00 be 5d 00 00 d8 5d 00 00     .]...h...]...]..
    6fa0:	e5 5d 00 00 f2 5d 00 00 00 5e 00 00 0b 5e 00 00     .]...]...^...^..
    6fb0:	1a 5e 00 00 2b 5e 00 00 3e 5e 00 00 51 5e 00 00     .^..+^..>^..Q^..
    6fc0:	65 5e 00 00 73 5e 00 00 83 5e 00 00 8d 5e 00 00     e^..s^...^...^..
    6fd0:	96 5e 00 00 a6 5e 00 00 b6 5e 00 00 c7 5e 00 00     .^...^...^...^..
    6fe0:	d8 5e 00 00 e9 5e 00 00 03 5f 00 00 1c 54 00 00     .^...^..._...T..
    6ff0:	15 5f 00 00 3c 68 00 00 2a 5f 00 00 36 5f 00 00     ._..<h..*_..6_..
    7000:	64 68 00 00 4a 5f 00 00 65 5f 00 00 88 68 00 00     dh..J_..e_...h..
    7010:	ac 68 00 00 83 5f 00 00 9e 5f 00 00 b9 5f 00 00     .h..._..._..._..
    7020:	1c 54 00 00 1c 54 00 00 1c 54 00 00 1c 54 00 00     .T...T...T...T..
    7030:	1c 54 00 00 1c 54 00 00 1c 54 00 00 1c 54 00 00     .T...T...T...T..
    7040:	1c 54 00 00 1c 54 00 00 1c 54 00 00 1c 54 00 00     .T...T...T...T..
    7050:	1c 54 00 00 1c 54 00 00 1c 54 00 00 1c 54 00 00     .T...T...T...T..
    7060:	1c 54 00 00 1c 54 00 00 1c 54 00 00 1c 54 00 00     .T...T...T...T..
    7070:	1c 54 00 00 1c 54 00 00 1c 54 00 00 1c 54 00 00     .T...T...T...T..
    7080:	1c 54 00 00 1c 54 00 00 1c 54 00 00 1c 54 00 00     .T...T...T...T..
    7090:	1c 54 00 00 1c 54 00 00 1c 54 00 00 1c 54 00 00     .T...T...T...T..
    70a0:	1c 54 00 00 1c 54 00 00 1c 54 00 00 1c 54 00 00     .T...T...T...T..
    70b0:	1c 54 00 00 1c 54 00 00 1c 54 00 00 1c 54 00 00     .T...T...T...T..
    70c0:	1c 54 00 00 1c 54 00 00 1c 54 00 00 1c 54 00 00     .T...T...T...T..
    70d0:	1c 54 00 00 1c 54 00 00 1c 54 00 00 1c 54 00 00     .T...T...T...T..
    70e0:	1c 54 00 00 1c 54 00 00 1c 54 00 00 1c 54 00 00     .T...T...T...T..
    70f0:	1c 54 00 00 1c 54 00 00 1c 54 00 00 1c 54 00 00     .T...T...T...T..
    7100:	d4 68 00 00 c9 5f 00 00 d0 5f 00 00 d8 5f 00 00     .h..._..._..._..
    7110:	e1 5f 00 00 e9 5f 00 00 f5 5f 00 00 01 60 00 00     ._..._..._...`..
    7120:	09 60 00 00 12 60 00 00 b2 73 00 00 b2 73 00 00     .`...`...s...s..
    7130:	b2 73 00 00 b2 73 00 00 b2 73 00 00 b2 73 00 00     .s...s...s...s..
    7140:	b2 73 00 00 b2 73 00 00 b2 73 00 00 b2 73 00 00     .s...s...s...s..
    7150:	b2 73 00 00 b2 73 00 00 b2 73 00 00 b2 73 00 00     .s...s...s...s..
    7160:	b2 73 00 00 b2 73 00 00 20 60 00 00 28 60 00 00     .s...s.. `..(`..
    7170:	30 60 00 00 37 60 00 00 40 60 00 00 4e 60 00 00     0`..7`..@`..N`..
    7180:	56 60 00 00 6a 60 00 00 74 60 00 00 7d 60 00 00     V`..j`..t`..}`..
    7190:	85 60 00 00 8d 60 00 00 98 60 00 00 a0 60 00 00     .`...`...`...`..
    71a0:	ab 60 00 00 bc 60 00 00 c9 60 00 00 d6 60 00 00     .`...`...`...`..
    71b0:	e1 60 00 00 f2 60 00 00 fd 60 00 00 09 61 00 00     .`...`...`...a..
    71c0:	11 61 00 00 25 61 00 00 34 61 00 00 43 61 00 00     .a..%a..4a..Ca..
    71d0:	50 61 00 00 5f 61 00 00 69 61 00 00 75 61 00 00     Pa.._a..ia..ua..
    71e0:	82 61 00 00 89 61 00 00 97 61 00 00 ac 61 00 00     .a...a...a...a..
    71f0:	bf 61 00 00 c9 61 00 00 d1 61 00 00 d9 61 00 00     .a...a...a...a..
    7200:	e4 61 00 00 f0 61 00 00 01 62 00 00 0e 62 00 00     .a...a...b...b..
    7210:	1d 62 00 00 29 62 00 00 33 62 00 00 3d 62 00 00     .b..)b..3b..=b..
    7220:	50 62 00 00 61 62 00 00 76 62 00 00 89 62 00 00     Pb..ab..vb...b..
    7230:	98 62 00 00 a6 62 00 00 b3 62 00 00 c3 62 00 00     .b...b...b...b..
    7240:	d7 62 00 00 e8 62 00 00 fb 62 00 00 0a 63 00 00     .b...b...b...c..
    7250:	1e 63 00 00 30 63 00 00 43 63 00 00 56 63 00 00     .c..0c..Cc..Vc..
    7260:	69 63 00 00 7a 63 00 00 8f 63 00 00 a0 63 00 00     ic..zc...c...c..
    7270:	ab 63 00 00 b5 63 00 00 bc 63 00 00 c2 63 00 00     .c...c...c...c..
    7280:	cc 63 00 00 d7 63 00 00 e7 63 00 00 f6 63 00 00     .c...c...c...c..
    7290:	00 64 00 00 0e 64 00 00 1a 64 00 00 2a 64 00 00     .d...d...d..*d..
    72a0:	3b 64 00 00 4c 64 00 00 5b 64 00 00 65 64 00 00     ;d..Ld..[d..ed..
    72b0:	6d 64 00 00 77 64 00 00 82 64 00 00 8f 64 00 00     md..wd...d...d..
    72c0:	a1 64 00 00 b3 64 00 00 c3 64 00 00 d2 64 00 00     .d...d...d...d..
    72d0:	e5 64 00 00 f9 64 00 00 0a 65 00 00 18 65 00 00     .d...d...e...e..
    72e0:	28 65 00 00 39 65 00 00 48 65 00 00 50 65 00 00     (e..9e..He..Pe..
    72f0:	62 65 00 00 75 65 00 00 7f 65 00 00 8c 65 00 00     be..ue...e...e..
    7300:	9a 65 00 00 ae 65 00 00 c1 65 00 00 ce 65 00 00     .e...e...e...e..
    7310:	dd 65 00 00 ed 65 00 00 fc 65 00 00 0b 66 00 00     .e...e...e...f..
    7320:	1b 66 00 00 26 66 00 00 2f 66 00 00 3c 66 00 00     .f..&f../f..<f..
    7330:	4b 66 00 00 53 66 00 00 62 66 00 00 6c 66 00 00     Kf..Sf..bf..lf..
    7340:	89 66 00 00 98 66 00 00 a6 66 00 00 b7 66 00 00     .f...f...f...f..
    7350:	c6 66 00 00 d8 66 00 00 e9 66 00 00 fa 66 00 00     .f...f...f...f..
    7360:	0c 67 00 00 16 67 00 00 1f 67 00 00 28 67 00 00     .g...g...g..(g..
    7370:	43 67 00 00 72 65 6d 6f 74 65 5f 75 73 62 68 69     Cg..remote_usbhi
    7380:	64 5f 67 65 74 5f 65 76 65 6e 74 5f 6c 65 6e 67     d_get_event_leng
    7390:	74 68 28 29 0a 00 00 00 47 65 74 20 65 76 65 6e     th()....Get even
    73a0:	74 20 6c 65 6e 67 74 68 20 6e 6f 74 20 73 65 74     t length not set
    73b0:	21 0a 00 90                                         !...

000073b4 <remote_usbhid_iface>:
    73b4:	04 00 00 00 bc 73 00 00                             .....s..

000073bc <remote_usbhid_iface_ops>:
    73bc:	f0 4a 00 00 80 49 00 00 30 49 00 00 d0 47 00 00     .J...I..0I...G..

Disassembly of section .plt:

000074f0 <__main@plt-0x10>:
    74f0:	ff 35 8c 8d 00 00    	pushl  0x8d8c
    74f6:	ff 25 90 8d 00 00    	jmp    *0x8d90
    74fc:	00 00                	add    %al,(%eax)
	...

00007500 <__main@plt>:
    7500:	ff 25 94 8d 00 00    	jmp    *0x8d94
    7506:	68 00 00 00 00       	push   $0x0
    750b:	e9 e0 ff ff ff       	jmp    74f0 <remote_usbhid_iface_ops+0x134>

00007510 <devman_device_connect@plt>:
    7510:	ff 25 98 8d 00 00    	jmp    *0x8d98
    7516:	68 08 00 00 00       	push   $0x8
    751b:	e9 d0 ff ff ff       	jmp    74f0 <remote_usbhid_iface_ops+0x134>

00007520 <printf@plt>:
    7520:	ff 25 9c 8d 00 00    	jmp    *0x8d9c
    7526:	68 10 00 00 00       	push   $0x10
    752b:	e9 c0 ff ff ff       	jmp    74f0 <remote_usbhid_iface_ops+0x134>

00007530 <async_wait_for@plt>:
    7530:	ff 25 a0 8d 00 00    	jmp    *0x8da0
    7536:	68 18 00 00 00       	push   $0x18
    753b:	e9 b0 ff ff ff       	jmp    74f0 <remote_usbhid_iface_ops+0x134>

00007540 <__errno@plt>:
    7540:	ff 25 a4 8d 00 00    	jmp    *0x8da4
    7546:	68 20 00 00 00       	push   $0x20
    754b:	e9 a0 ff ff ff       	jmp    74f0 <remote_usbhid_iface_ops+0x134>

00007550 <async_data_read_finalize@plt>:
    7550:	ff 25 a8 8d 00 00    	jmp    *0x8da8
    7556:	68 28 00 00 00       	push   $0x28
    755b:	e9 90 ff ff ff       	jmp    74f0 <remote_usbhid_iface_ops+0x134>

00007560 <memcpy@plt>:
    7560:	ff 25 ac 8d 00 00    	jmp    *0x8dac
    7566:	68 30 00 00 00       	push   $0x30
    756b:	e9 80 ff ff ff       	jmp    74f0 <remote_usbhid_iface_ops+0x134>

00007570 <malloc@plt>:
    7570:	ff 25 b0 8d 00 00    	jmp    *0x8db0
    7576:	68 38 00 00 00       	push   $0x38
    757b:	e9 70 ff ff ff       	jmp    74f0 <remote_usbhid_iface_ops+0x134>

00007580 <strtoul@plt>:
    7580:	ff 25 b4 8d 00 00    	jmp    *0x8db4
    7586:	68 40 00 00 00       	push   $0x40
    758b:	e9 60 ff ff ff       	jmp    74f0 <remote_usbhid_iface_ops+0x134>

00007590 <async_req_fast@plt>:
    7590:	ff 25 b8 8d 00 00    	jmp    *0x8db8
    7596:	68 48 00 00 00       	push   $0x48
    759b:	e9 50 ff ff ff       	jmp    74f0 <remote_usbhid_iface_ops+0x134>

000075a0 <async_answer_0@plt>:
    75a0:	ff 25 bc 8d 00 00    	jmp    *0x8dbc
    75a6:	68 50 00 00 00       	push   $0x50
    75ab:	e9 40 ff ff ff       	jmp    74f0 <remote_usbhid_iface_ops+0x134>

000075b0 <console_get_event@plt>:
    75b0:	ff 25 c0 8d 00 00    	jmp    *0x8dc0
    75b6:	68 58 00 00 00       	push   $0x58
    75bb:	e9 30 ff ff ff       	jmp    74f0 <remote_usbhid_iface_ops+0x134>

000075c0 <async_send_fast@plt>:
    75c0:	ff 25 c4 8d 00 00    	jmp    *0x8dc4
    75c6:	68 60 00 00 00       	push   $0x60
    75cb:	e9 20 ff ff ff       	jmp    74f0 <remote_usbhid_iface_ops+0x134>

000075d0 <log_msg@plt>:
    75d0:	ff 25 c8 8d 00 00    	jmp    *0x8dc8
    75d6:	68 68 00 00 00       	push   $0x68
    75db:	e9 10 ff ff ff       	jmp    74f0 <remote_usbhid_iface_ops+0x134>

000075e0 <async_data_read@plt>:
    75e0:	ff 25 cc 8d 00 00    	jmp    *0x8dcc
    75e6:	68 70 00 00 00       	push   $0x70
    75eb:	e9 00 ff ff ff       	jmp    74f0 <remote_usbhid_iface_ops+0x134>

000075f0 <console_init@plt>:
    75f0:	ff 25 d0 8d 00 00    	jmp    *0x8dd0
    75f6:	68 78 00 00 00       	push   $0x78
    75fb:	e9 f0 fe ff ff       	jmp    74f0 <remote_usbhid_iface_ops+0x134>

00007600 <async_exchange_end@plt>:
    7600:	ff 25 d4 8d 00 00    	jmp    *0x8dd4
    7606:	68 80 00 00 00       	push   $0x80
    760b:	e9 e0 fe ff ff       	jmp    74f0 <remote_usbhid_iface_ops+0x134>

00007610 <assert_abort@plt>:
    7610:	ff 25 d8 8d 00 00    	jmp    *0x8dd8
    7616:	68 88 00 00 00       	push   $0x88
    761b:	e9 d0 fe ff ff       	jmp    74f0 <remote_usbhid_iface_ops+0x134>

00007620 <memset@plt>:
    7620:	ff 25 dc 8d 00 00    	jmp    *0x8ddc
    7626:	68 90 00 00 00       	push   $0x90
    762b:	e9 c0 fe ff ff       	jmp    74f0 <remote_usbhid_iface_ops+0x134>

00007630 <async_data_read_receive@plt>:
    7630:	ff 25 e0 8d 00 00    	jmp    *0x8de0
    7636:	68 98 00 00 00       	push   $0x98
    763b:	e9 b0 fe ff ff       	jmp    74f0 <remote_usbhid_iface_ops+0x134>

00007640 <async_usleep@plt>:
    7640:	ff 25 e4 8d 00 00    	jmp    *0x8de4
    7646:	68 a0 00 00 00       	push   $0xa0
    764b:	e9 a0 fe ff ff       	jmp    74f0 <remote_usbhid_iface_ops+0x134>

00007650 <async_answer_1@plt>:
    7650:	ff 25 e8 8d 00 00    	jmp    *0x8de8
    7656:	68 a8 00 00 00       	push   $0xa8
    765b:	e9 90 fe ff ff       	jmp    74f0 <remote_usbhid_iface_ops+0x134>

00007660 <async_exchange_begin@plt>:
    7660:	ff 25 ec 8d 00 00    	jmp    *0x8dec
    7666:	68 b0 00 00 00       	push   $0xb0
    766b:	e9 80 fe ff ff       	jmp    74f0 <remote_usbhid_iface_ops+0x134>

00007670 <str_error@plt>:
    7670:	ff 25 f0 8d 00 00    	jmp    *0x8df0
    7676:	68 b8 00 00 00       	push   $0xb8
    767b:	e9 70 fe ff ff       	jmp    74f0 <remote_usbhid_iface_ops+0x134>

00007680 <devman_fun_get_handle@plt>:
    7680:	ff 25 f4 8d 00 00    	jmp    *0x8df4
    7686:	68 c0 00 00 00       	push   $0xc0
    768b:	e9 60 fe ff ff       	jmp    74f0 <remote_usbhid_iface_ops+0x134>

00007690 <devman_fun_get_path@plt>:
    7690:	ff 25 f8 8d 00 00    	jmp    *0x8df8
    7696:	68 c8 00 00 00       	push   $0xc8
    769b:	e9 50 fe ff ff       	jmp    74f0 <remote_usbhid_iface_ops+0x134>

000076a0 <exit@plt>:
    76a0:	ff 25 fc 8d 00 00    	jmp    *0x8dfc
    76a6:	68 d0 00 00 00       	push   $0xd0
    76ab:	e9 40 fe ff ff       	jmp    74f0 <remote_usbhid_iface_ops+0x134>

000076b0 <async_forget@plt>:
    76b0:	ff 25 00 8e 00 00    	jmp    *0x8e00
    76b6:	68 d8 00 00 00       	push   $0xd8
    76bb:	e9 30 fe ff ff       	jmp    74f0 <remote_usbhid_iface_ops+0x134>

000076c0 <fibril_create_generic@plt>:
    76c0:	ff 25 04 8e 00 00    	jmp    *0x8e04
    76c6:	68 e0 00 00 00       	push   $0xe0
    76cb:	e9 20 fe ff ff       	jmp    74f0 <remote_usbhid_iface_ops+0x134>

000076d0 <fibril_add_ready@plt>:
    76d0:	ff 25 08 8e 00 00    	jmp    *0x8e08
    76d6:	68 e8 00 00 00       	push   $0xe8
    76db:	e9 10 fe ff ff       	jmp    74f0 <remote_usbhid_iface_ops+0x134>

000076e0 <__syscall_fast@plt>:
    76e0:	ff 25 0c 8e 00 00    	jmp    *0x8e0c
    76e6:	68 f0 00 00 00       	push   $0xf0
    76eb:	e9 00 fe ff ff       	jmp    74f0 <remote_usbhid_iface_ops+0x134>

000076f0 <console_done@plt>:
    76f0:	ff 25 10 8e 00 00    	jmp    *0x8e10
    76f6:	68 f8 00 00 00       	push   $0xf8
    76fb:	e9 f0 fd ff ff       	jmp    74f0 <remote_usbhid_iface_ops+0x134>

00007700 <free@plt>:
    7700:	ff 25 14 8e 00 00    	jmp    *0x8e14
    7706:	68 00 01 00 00       	push   $0x100
    770b:	e9 e0 fd ff ff       	jmp    74f0 <remote_usbhid_iface_ops+0x134>
