
mkbd:     file format elf32-i386


Disassembly of section .init:

000010f4 <__entry>:
    10f4:	66 8c d0             	mov    %ss,%ax
    10f7:	8e d8                	mov    %eax,%ds
    10f9:	8e c0                	mov    %eax,%es
    10fb:	8e e0                	mov    %eax,%fs
    10fd:	b8 01 00 00 00       	mov    $0x1,%eax
    1102:	0f a2                	cpuid  
    1104:	0f ba e2 0b          	bt     $0xb,%edx
    1108:	73 0c                	jae    1116 <__entry+0x22>
    110a:	8d 05 38 8e 00 00    	lea    0x8e38,%eax
    1110:	c7 00 e0 76 00 00    	movl   $0x76e0,(%eax)
    1116:	6a 00                	push   $0x0
    1118:	6a 00                	push   $0x0
    111a:	89 e5                	mov    %esp,%ebp
    111c:	57                   	push   %edi
    111d:	e8 de 63 00 00       	call   7500 <__main@plt>

Disassembly of section .text:

00001140 <wait_for_quit_fibril>:
    1140:	55                   	push   %ebp
    1141:	89 e5                	mov    %esp,%ebp
    1143:	56                   	push   %esi
    1144:	53                   	push   %ebx
    1145:	83 ec 38             	sub    $0x38,%esp
    1148:	8b 1d 20 8e 00 00    	mov    0x8e20,%ebx
    114e:	8b 35 30 8e 00 00    	mov    0x8e30,%esi
    1154:	53                   	push   %ebx
    1155:	56                   	push   %esi
    1156:	e8 95 64 00 00       	call   75f0 <console_init@plt>
    115b:	8d 75 d4             	lea    -0x2c(%ebp),%esi
    115e:	c7 04 24 cc 4e 00 00 	movl   $0x4ecc,(%esp)
    1165:	89 c3                	mov    %eax,%ebx
    1167:	e8 b4 63 00 00       	call   7520 <printf@plt>
    116c:	83 c4 10             	add    $0x10,%esp
    116f:	90                   	nop
    1170:	51                   	push   %ecx
    1171:	51                   	push   %ecx
    1172:	56                   	push   %esi
    1173:	53                   	push   %ebx
    1174:	e8 37 64 00 00       	call   75b0 <console_get_event@plt>
    1179:	83 c4 10             	add    $0x10,%esp
    117c:	84 c0                	test   %al,%al
    117e:	74 30                	je     11b0 <wait_for_quit_fibril+0x70>
    1180:	8b 55 dc             	mov    -0x24(%ebp),%edx
    1183:	85 d2                	test   %edx,%edx
    1185:	75 e9                	jne    1170 <wait_for_quit_fibril+0x30>
    1187:	8b 45 e8             	mov    -0x18(%ebp),%eax
    118a:	85 c0                	test   %eax,%eax
    118c:	75 e2                	jne    1170 <wait_for_quit_fibril+0x30>
    118e:	83 7d ec 3c          	cmpl   $0x3c,-0x14(%ebp)
    1192:	75 dc                	jne    1170 <wait_for_quit_fibril+0x30>
    1194:	8d 74 26 00          	lea    0x0(%esi,%eiz,1),%esi
    1198:	83 ec 0c             	sub    $0xc,%esp
    119b:	53                   	push   %ebx
    119c:	e8 4f 65 00 00       	call   76f0 <console_done@plt>
    11a1:	c7 04 24 00 00 00 00 	movl   $0x0,(%esp)
    11a8:	e8 f3 64 00 00       	call   76a0 <exit@plt>
    11ad:	8d 76 00             	lea    0x0(%esi),%esi
    11b0:	e8 8b 63 00 00       	call   7540 <__errno@plt>
    11b5:	83 ec 0c             	sub    $0xc,%esp
    11b8:	8b 08                	mov    (%eax),%ecx
    11ba:	51                   	push   %ecx
    11bb:	e8 b0 64 00 00       	call   7670 <str_error@plt>
    11c0:	5e                   	pop    %esi
    11c1:	5a                   	pop    %edx
    11c2:	50                   	push   %eax
    11c3:	68 f4 4e 00 00       	push   $0x4ef4
    11c8:	e8 53 63 00 00       	call   7520 <printf@plt>
    11cd:	83 c4 10             	add    $0x10,%esp
    11d0:	eb c6                	jmp    1198 <wait_for_quit_fibril+0x58>
    11d2:	66 90                	xchg   %ax,%ax
    11d4:	66 90                	xchg   %ax,%ax
    11d6:	66 90                	xchg   %ax,%ax
    11d8:	66 90                	xchg   %ax,%ax
    11da:	66 90                	xchg   %ax,%ax
    11dc:	66 90                	xchg   %ax,%ax
    11de:	66 90                	xchg   %ax,%ax

000011e0 <main>:
    11e0:	8d 4c 24 04          	lea    0x4(%esp),%ecx
    11e4:	83 e4 f0             	and    $0xfffffff0,%esp
    11e7:	ff 71 fc             	pushl  -0x4(%ecx)
    11ea:	55                   	push   %ebp
    11eb:	89 e5                	mov    %esp,%ebp
    11ed:	57                   	push   %edi
    11ee:	56                   	push   %esi
    11ef:	53                   	push   %ebx
    11f0:	51                   	push   %ecx
    11f1:	81 ec 38 04 00 00    	sub    $0x438,%esp
    11f7:	8b 41 04             	mov    0x4(%ecx),%eax
    11fa:	83 39 01             	cmpl   $0x1,(%ecx)
    11fd:	0f 8e ea 03 00 00    	jle    15ed <main+0x40d>
    1203:	8b 40 04             	mov    0x4(%eax),%eax
    1206:	8d 95 d8 fb ff ff    	lea    -0x428(%ebp),%edx
    120c:	c7 85 d8 fb ff ff 00 	movl   $0x0,-0x428(%ebp)
    1213:	00 00 00 
    1216:	53                   	push   %ebx
    1217:	53                   	push   %ebx
    1218:	52                   	push   %edx
    1219:	50                   	push   %eax
    121a:	e8 61 35 00 00       	call   4780 <usb_resolve_device_handle>
    121f:	83 c4 10             	add    $0x10,%esp
    1222:	89 c3                	mov    %eax,%ebx
    1224:	85 c0                	test   %eax,%eax
    1226:	0f 85 0f 02 00 00    	jne    143b <main+0x25b>
    122c:	50                   	push   %eax
    122d:	50                   	push   %eax
    122e:	6a 00                	push   $0x0
    1230:	ff b5 d8 fb ff ff    	pushl  -0x428(%ebp)
    1236:	e8 d5 62 00 00       	call   7510 <devman_device_connect@plt>
    123b:	83 c4 10             	add    $0x10,%esp
    123e:	85 c0                	test   %eax,%eax
    1240:	0f 84 2f 03 00 00    	je     1575 <main+0x395>
    1246:	8d 9d e8 fb ff ff    	lea    -0x418(%ebp),%ebx
    124c:	57                   	push   %edi
    124d:	68 00 04 00 00       	push   $0x400
    1252:	53                   	push   %ebx
    1253:	ff b5 d8 fb ff ff    	pushl  -0x428(%ebp)
    1259:	a3 3c 8e 00 00       	mov    %eax,0x8e3c
    125e:	e8 2d 64 00 00       	call   7690 <devman_fun_get_path@plt>
    1263:	83 c4 10             	add    $0x10,%esp
    1266:	85 c0                	test   %eax,%eax
    1268:	0f 85 1b 02 00 00    	jne    1489 <main+0x2a9>
    126e:	56                   	push   %esi
    126f:	56                   	push   %esi
    1270:	53                   	push   %ebx
    1271:	68 9a 50 00 00       	push   $0x509a
    1276:	e8 a5 62 00 00       	call   7520 <printf@plt>
    127b:	c7 04 24 20 00 00 00 	movl   $0x20,(%esp)
    1282:	8b 3d 3c 8e 00 00    	mov    0x8e3c,%edi
    1288:	e8 e3 62 00 00       	call   7570 <malloc@plt>
    128d:	83 c4 10             	add    $0x10,%esp
    1290:	89 c6                	mov    %eax,%esi
    1292:	85 c0                	test   %eax,%eax
    1294:	0f 84 b4 03 00 00    	je     164e <main+0x46e>
    129a:	83 ec 0c             	sub    $0xc,%esp
    129d:	50                   	push   %eax
    129e:	e8 6d 04 00 00       	call   1710 <usb_hid_report_init>
    12a3:	83 c4 10             	add    $0x10,%esp
    12a6:	89 c3                	mov    %eax,%ebx
    12a8:	85 c0                	test   %eax,%eax
    12aa:	0f 85 b2 01 00 00    	jne    1462 <main+0x282>
    12b0:	8d 85 e0 fb ff ff    	lea    -0x420(%ebp),%eax
    12b6:	53                   	push   %ebx
    12b7:	53                   	push   %ebx
    12b8:	50                   	push   %eax
    12b9:	57                   	push   %edi
    12ba:	e8 81 3a 00 00       	call   4d40 <usbhid_dev_get_report_descriptor_length>
    12bf:	83 c4 10             	add    $0x10,%esp
    12c2:	89 c3                	mov    %eax,%ebx
    12c4:	85 c0                	test   %eax,%eax
    12c6:	0f 85 96 01 00 00    	jne    1462 <main+0x282>
    12cc:	8b 85 e0 fb ff ff    	mov    -0x420(%ebp),%eax
    12d2:	85 c0                	test   %eax,%eax
    12d4:	0f 84 5e 03 00 00    	je     1638 <main+0x458>
    12da:	83 ec 0c             	sub    $0xc,%esp
    12dd:	50                   	push   %eax
    12de:	e8 8d 62 00 00       	call   7570 <malloc@plt>
    12e3:	83 c4 10             	add    $0x10,%esp
    12e6:	89 c2                	mov    %eax,%edx
    12e8:	85 c0                	test   %eax,%eax
    12ea:	0f 84 68 03 00 00    	je     1658 <main+0x478>
    12f0:	8d 85 e4 fb ff ff    	lea    -0x41c(%ebp),%eax
    12f6:	89 95 c4 fb ff ff    	mov    %edx,-0x43c(%ebp)
    12fc:	50                   	push   %eax
    12fd:	ff b5 e0 fb ff ff    	pushl  -0x420(%ebp)
    1303:	52                   	push   %edx
    1304:	57                   	push   %edi
    1305:	e8 a6 3a 00 00       	call   4db0 <usbhid_dev_get_report_descriptor>
    130a:	83 c4 10             	add    $0x10,%esp
    130d:	89 c3                	mov    %eax,%ebx
    130f:	85 c0                	test   %eax,%eax
    1311:	8b 95 c4 fb ff ff    	mov    -0x43c(%ebp),%edx
    1317:	0f 85 87 02 00 00    	jne    15a4 <main+0x3c4>
    131d:	8b 85 e4 fb ff ff    	mov    -0x41c(%ebp),%eax
    1323:	3b 85 e0 fb ff ff    	cmp    -0x420(%ebp),%eax
    1329:	0f 85 94 02 00 00    	jne    15c3 <main+0x3e3>
    132f:	89 95 c4 fb ff ff    	mov    %edx,-0x43c(%ebp)
    1335:	51                   	push   %ecx
    1336:	50                   	push   %eax
    1337:	52                   	push   %edx
    1338:	56                   	push   %esi
    1339:	e8 52 17 00 00       	call   2a90 <usb_hid_parse_report_descriptor>
    133e:	8b 95 c4 fb ff ff    	mov    -0x43c(%ebp),%edx
    1344:	89 c3                	mov    %eax,%ebx
    1346:	89 14 24             	mov    %edx,(%esp)
    1349:	e8 b2 63 00 00       	call   7700 <free@plt>
    134e:	83 c4 10             	add    $0x10,%esp
    1351:	85 db                	test   %ebx,%ebx
    1353:	0f 85 15 01 00 00    	jne    146e <main+0x28e>
    1359:	8d 85 dc fb ff ff    	lea    -0x424(%ebp),%eax
    135f:	53                   	push   %ebx
    1360:	53                   	push   %ebx
    1361:	50                   	push   %eax
    1362:	ff 35 3c 8e 00 00    	pushl  0x8e3c
    1368:	e8 f3 37 00 00       	call   4b60 <usbhid_dev_get_event_length>
    136d:	83 c4 10             	add    $0x10,%esp
    1370:	89 c3                	mov    %eax,%ebx
    1372:	85 c0                	test   %eax,%eax
    1374:	0f 85 c6 01 00 00    	jne    1540 <main+0x360>
    137a:	83 ec 0c             	sub    $0xc,%esp
    137d:	ff b5 dc fb ff ff    	pushl  -0x424(%ebp)
    1383:	e8 e8 61 00 00       	call   7570 <malloc@plt>
    1388:	83 c4 10             	add    $0x10,%esp
    138b:	89 85 c4 fb ff ff    	mov    %eax,-0x43c(%ebp)
    1391:	85 c0                	test   %eax,%eax
    1393:	0f 84 f0 00 00 00    	je     1489 <main+0x2a9>
    1399:	50                   	push   %eax
    139a:	6a 00                	push   $0x0
    139c:	6a 00                	push   $0x0
    139e:	68 40 11 00 00       	push   $0x1140
    13a3:	e8 18 63 00 00       	call   76c0 <fibril_create_generic@plt>
    13a8:	83 c4 10             	add    $0x10,%esp
    13ab:	85 c0                	test   %eax,%eax
    13ad:	0f 84 6d 02 00 00    	je     1620 <main+0x440>
    13b3:	83 ec 0c             	sub    $0xc,%esp
    13b6:	83 cf ff             	or     $0xffffffff,%edi
    13b9:	50                   	push   %eax
    13ba:	e8 11 63 00 00       	call   76d0 <fibril_add_ready@plt>
    13bf:	89 9d c0 fb ff ff    	mov    %ebx,-0x440(%ebp)
    13c5:	83 c4 10             	add    $0x10,%esp
    13c8:	8b 9d c4 fb ff ff    	mov    -0x43c(%ebp),%ebx
    13ce:	eb 10                	jmp    13e0 <main+0x200>
    13d0:	83 ec 0c             	sub    $0xc,%esp
    13d3:	68 10 27 00 00       	push   $0x2710
    13d8:	e8 63 62 00 00       	call   7640 <async_usleep@plt>
    13dd:	83 c4 10             	add    $0x10,%esp
    13e0:	50                   	push   %eax
    13e1:	50                   	push   %eax
    13e2:	8d 85 e4 fb ff ff    	lea    -0x41c(%ebp),%eax
    13e8:	6a 00                	push   $0x0
    13ea:	50                   	push   %eax
    13eb:	8d 85 e0 fb ff ff    	lea    -0x420(%ebp),%eax
    13f1:	50                   	push   %eax
    13f2:	8b 85 dc fb ff ff    	mov    -0x424(%ebp),%eax
    13f8:	50                   	push   %eax
    13f9:	a1 3c 8e 00 00       	mov    0x8e3c,%eax
    13fe:	53                   	push   %ebx
    13ff:	50                   	push   %eax
    1400:	e8 cb 37 00 00       	call   4bd0 <usbhid_dev_get_event>
    1405:	83 c4 20             	add    $0x20,%esp
    1408:	85 c0                	test   %eax,%eax
    140a:	0f 85 80 00 00 00    	jne    1490 <main+0x2b0>
    1410:	3b bd e4 fb ff ff    	cmp    -0x41c(%ebp),%edi
    1416:	7d b8                	jge    13d0 <main+0x1f0>
    1418:	8d 85 d7 fb ff ff    	lea    -0x429(%ebp),%eax
    141e:	50                   	push   %eax
    141f:	ff b5 dc fb ff ff    	pushl  -0x424(%ebp)
    1425:	53                   	push   %ebx
    1426:	56                   	push   %esi
    1427:	e8 84 21 00 00       	call   35b0 <usb_hid_parse_report>
    142c:	83 c4 10             	add    $0x10,%esp
    142f:	85 c0                	test   %eax,%eax
    1431:	74 7e                	je     14b1 <main+0x2d1>
    1433:	8b bd e4 fb ff ff    	mov    -0x41c(%ebp),%edi
    1439:	eb 95                	jmp    13d0 <main+0x1f0>
    143b:	83 ec 0c             	sub    $0xc,%esp
    143e:	50                   	push   %eax
    143f:	e8 2c 62 00 00       	call   7670 <str_error@plt>
    1444:	5a                   	pop    %edx
    1445:	59                   	pop    %ecx
    1446:	50                   	push   %eax
    1447:	68 88 4f 00 00       	push   $0x4f88
    144c:	e8 cf 60 00 00       	call   7520 <printf@plt>
    1451:	83 c4 10             	add    $0x10,%esp
    1454:	8d 65 f0             	lea    -0x10(%ebp),%esp
    1457:	89 d8                	mov    %ebx,%eax
    1459:	59                   	pop    %ecx
    145a:	5b                   	pop    %ebx
    145b:	5e                   	pop    %esi
    145c:	5f                   	pop    %edi
    145d:	5d                   	pop    %ebp
    145e:	8d 61 fc             	lea    -0x4(%ecx),%esp
    1461:	c3                   	ret    
    1462:	83 ec 0c             	sub    $0xc,%esp
    1465:	56                   	push   %esi
    1466:	e8 55 1d 00 00       	call   31c0 <usb_hid_report_deinit>
    146b:	83 c4 10             	add    $0x10,%esp
    146e:	83 ec 0c             	sub    $0xc,%esp
    1471:	53                   	push   %ebx
    1472:	e8 f9 61 00 00       	call   7670 <str_error@plt>
    1477:	5e                   	pop    %esi
    1478:	5f                   	pop    %edi
    1479:	50                   	push   %eax
    147a:	68 ec 4f 00 00       	push   $0x4fec
    147f:	e8 9c 60 00 00       	call   7520 <printf@plt>
    1484:	83 c4 10             	add    $0x10,%esp
    1487:	eb cb                	jmp    1454 <main+0x274>
    1489:	bb fe ff ff ff       	mov    $0xfffffffe,%ebx
    148e:	eb c4                	jmp    1454 <main+0x274>
    1490:	83 ec 0c             	sub    $0xc,%esp
    1493:	8b 9d c0 fb ff ff    	mov    -0x440(%ebp),%ebx
    1499:	50                   	push   %eax
    149a:	e8 d1 61 00 00       	call   7670 <str_error@plt>
    149f:	59                   	pop    %ecx
    14a0:	5e                   	pop    %esi
    14a1:	50                   	push   %eax
    14a2:	68 58 50 00 00       	push   $0x5058
    14a7:	e8 74 60 00 00       	call   7520 <printf@plt>
    14ac:	83 c4 10             	add    $0x10,%esp
    14af:	eb a3                	jmp    1454 <main+0x274>
    14b1:	e8 aa 30 00 00       	call   4560 <usb_hid_report_path>
    14b6:	89 c7                	mov    %eax,%edi
    14b8:	85 c0                	test   %eax,%eax
    14ba:	0f 84 73 ff ff ff    	je     1433 <main+0x253>
    14c0:	50                   	push   %eax
    14c1:	6a 00                	push   $0x0
    14c3:	6a 0c                	push   $0xc
    14c5:	57                   	push   %edi
    14c6:	e8 55 2b 00 00       	call   4020 <usb_hid_report_path_append_item>
    14cb:	58                   	pop    %eax
    14cc:	31 c0                	xor    %eax,%eax
    14ce:	5a                   	pop    %edx
    14cf:	8a 85 d7 fb ff ff    	mov    -0x429(%ebp),%al
    14d5:	50                   	push   %eax
    14d6:	57                   	push   %edi
    14d7:	e8 64 32 00 00       	call   4740 <usb_hid_report_path_set_report_id>
    14dc:	c7 04 24 01 00 00 00 	movl   $0x1,(%esp)
    14e3:	6a 03                	push   $0x3
    14e5:	57                   	push   %edi
    14e6:	6a 00                	push   $0x0
    14e8:	56                   	push   %esi
    14e9:	e8 52 29 00 00       	call   3e40 <usb_hid_report_get_sibling>
    14ee:	83 c4 20             	add    $0x20,%esp
    14f1:	85 c0                	test   %eax,%eax
    14f3:	74 6f                	je     1564 <main+0x384>
    14f5:	89 9d c4 fb ff ff    	mov    %ebx,-0x43c(%ebp)
    14fb:	89 c3                	mov    %eax,%ebx
    14fd:	eb 19                	jmp    1518 <main+0x338>
    14ff:	90                   	nop
    1500:	83 ec 0c             	sub    $0xc,%esp
    1503:	6a 01                	push   $0x1
    1505:	6a 03                	push   $0x3
    1507:	57                   	push   %edi
    1508:	53                   	push   %ebx
    1509:	56                   	push   %esi
    150a:	e8 31 29 00 00       	call   3e40 <usb_hid_report_get_sibling>
    150f:	83 c4 20             	add    $0x20,%esp
    1512:	89 c3                	mov    %eax,%ebx
    1514:	85 c0                	test   %eax,%eax
    1516:	74 46                	je     155e <main+0x37e>
    1518:	8b 43 3c             	mov    0x3c(%ebx),%eax
    151b:	85 c0                	test   %eax,%eax
    151d:	74 e1                	je     1500 <main+0x320>
    151f:	83 ec 0c             	sub    $0xc,%esp
    1522:	31 c0                	xor    %eax,%eax
    1524:	66 8b 43 0a          	mov    0xa(%ebx),%ax
    1528:	50                   	push   %eax
    1529:	e8 32 32 00 00       	call   4760 <usbhid_multimedia_usage_to_str>
    152e:	5a                   	pop    %edx
    152f:	59                   	pop    %ecx
    1530:	50                   	push   %eax
    1531:	68 ab 50 00 00       	push   $0x50ab
    1536:	e8 e5 5f 00 00       	call   7520 <printf@plt>
    153b:	83 c4 10             	add    $0x10,%esp
    153e:	eb c0                	jmp    1500 <main+0x320>
    1540:	83 ec 0c             	sub    $0xc,%esp
    1543:	50                   	push   %eax
    1544:	e8 27 61 00 00       	call   7670 <str_error@plt>
    1549:	5a                   	pop    %edx
    154a:	59                   	pop    %ecx
    154b:	50                   	push   %eax
    154c:	68 14 50 00 00       	push   $0x5014
    1551:	e8 ca 5f 00 00       	call   7520 <printf@plt>
    1556:	83 c4 10             	add    $0x10,%esp
    1559:	e9 f6 fe ff ff       	jmp    1454 <main+0x274>
    155e:	8b 9d c4 fb ff ff    	mov    -0x43c(%ebp),%ebx
    1564:	83 ec 0c             	sub    $0xc,%esp
    1567:	57                   	push   %edi
    1568:	e8 33 30 00 00       	call   45a0 <usb_hid_report_path_free>
    156d:	83 c4 10             	add    $0x10,%esp
    1570:	e9 be fe ff ff       	jmp    1433 <main+0x253>
    1575:	e8 c6 5f 00 00       	call   7540 <__errno@plt>
    157a:	83 ec 0c             	sub    $0xc,%esp
    157d:	89 c3                	mov    %eax,%ebx
    157f:	ff 30                	pushl  (%eax)
    1581:	e8 ea 60 00 00       	call   7670 <str_error@plt>
    1586:	83 c4 0c             	add    $0xc,%esp
    1589:	50                   	push   %eax
    158a:	ff b5 d8 fb ff ff    	pushl  -0x428(%ebp)
    1590:	68 b4 4f 00 00       	push   $0x4fb4
    1595:	e8 86 5f 00 00       	call   7520 <printf@plt>
    159a:	8b 1b                	mov    (%ebx),%ebx
    159c:	83 c4 10             	add    $0x10,%esp
    159f:	e9 b0 fe ff ff       	jmp    1454 <main+0x274>
    15a4:	83 ec 0c             	sub    $0xc,%esp
    15a7:	56                   	push   %esi
    15a8:	e8 13 1c 00 00       	call   31c0 <usb_hid_report_deinit>
    15ad:	8b 95 c4 fb ff ff    	mov    -0x43c(%ebp),%edx
    15b3:	89 14 24             	mov    %edx,(%esp)
    15b6:	e8 45 61 00 00       	call   7700 <free@plt>
    15bb:	83 c4 10             	add    $0x10,%esp
    15be:	e9 ab fe ff ff       	jmp    146e <main+0x28e>
    15c3:	83 ec 0c             	sub    $0xc,%esp
    15c6:	89 95 c4 fb ff ff    	mov    %edx,-0x43c(%ebp)
    15cc:	bb f2 ff ff ff       	mov    $0xfffffff2,%ebx
    15d1:	56                   	push   %esi
    15d2:	e8 e9 1b 00 00       	call   31c0 <usb_hid_report_deinit>
    15d7:	8b 95 c4 fb ff ff    	mov    -0x43c(%ebp),%edx
    15dd:	89 14 24             	mov    %edx,(%esp)
    15e0:	e8 1b 61 00 00       	call   7700 <free@plt>
    15e5:	83 c4 10             	add    $0x10,%esp
    15e8:	e9 81 fe ff ff       	jmp    146e <main+0x28e>
    15ed:	83 ec 0c             	sub    $0xc,%esp
    15f0:	8b 18                	mov    (%eax),%ebx
    15f2:	68 1c 4f 00 00       	push   $0x4f1c
    15f7:	e8 24 5f 00 00       	call   7520 <printf@plt>
    15fc:	5e                   	pop    %esi
    15fd:	5f                   	pop    %edi
    15fe:	53                   	push   %ebx
    15ff:	68 88 50 00 00       	push   $0x5088
    1604:	83 cb ff             	or     $0xffffffff,%ebx
    1607:	e8 14 5f 00 00       	call   7520 <printf@plt>
    160c:	c7 04 24 54 4f 00 00 	movl   $0x4f54,(%esp)
    1613:	e8 08 5f 00 00       	call   7520 <printf@plt>
    1618:	83 c4 10             	add    $0x10,%esp
    161b:	e9 34 fe ff ff       	jmp    1454 <main+0x274>
    1620:	83 ec 0c             	sub    $0xc,%esp
    1623:	83 cb ff             	or     $0xffffffff,%ebx
    1626:	68 38 50 00 00       	push   $0x5038
    162b:	e8 f0 5e 00 00       	call   7520 <printf@plt>
    1630:	83 c4 10             	add    $0x10,%esp
    1633:	e9 1c fe ff ff       	jmp    1454 <main+0x274>
    1638:	83 ec 0c             	sub    $0xc,%esp
    163b:	bb f2 ff ff ff       	mov    $0xfffffff2,%ebx
    1640:	56                   	push   %esi
    1641:	e8 7a 1b 00 00       	call   31c0 <usb_hid_report_deinit>
    1646:	83 c4 10             	add    $0x10,%esp
    1649:	e9 20 fe ff ff       	jmp    146e <main+0x28e>
    164e:	bb fe ff ff ff       	mov    $0xfffffffe,%ebx
    1653:	e9 16 fe ff ff       	jmp    146e <main+0x28e>
    1658:	83 ec 0c             	sub    $0xc,%esp
    165b:	bb fe ff ff ff       	mov    $0xfffffffe,%ebx
    1660:	56                   	push   %esi
    1661:	e8 5a 1b 00 00       	call   31c0 <usb_hid_report_deinit>
    1666:	83 c4 10             	add    $0x10,%esp
    1669:	e9 00 fe ff ff       	jmp    146e <main+0x28e>
    166e:	66 90                	xchg   %ax,%ax

00001670 <usb_hid_report_path_try_insert>:
    1670:	55                   	push   %ebp
    1671:	89 e5                	mov    %esp,%ebp
    1673:	57                   	push   %edi
    1674:	56                   	push   %esi
    1675:	53                   	push   %ebx
    1676:	83 ec 1c             	sub    $0x1c,%esp
    1679:	8b 45 08             	mov    0x8(%ebp),%eax
    167c:	8b 5d 0c             	mov    0xc(%ebp),%ebx
    167f:	85 db                	test   %ebx,%ebx
    1681:	8b 70 10             	mov    0x10(%eax),%esi
    1684:	74 72                	je     16f8 <usb_hid_report_path_try_insert+0x88>
    1686:	83 c0 0c             	add    $0xc,%eax
    1689:	89 45 e4             	mov    %eax,-0x1c(%ebp)
    168c:	39 c6                	cmp    %eax,%esi
    168e:	75 10                	jne    16a0 <usb_hid_report_path_try_insert+0x30>
    1690:	eb 2e                	jmp    16c0 <usb_hid_report_path_try_insert+0x50>
    1692:	8d b6 00 00 00 00    	lea    0x0(%esi),%esi
    1698:	8b 76 04             	mov    0x4(%esi),%esi
    169b:	3b 75 e4             	cmp    -0x1c(%ebp),%esi
    169e:	74 20                	je     16c0 <usb_hid_report_path_try_insert+0x50>
    16a0:	8d 7e f8             	lea    -0x8(%esi),%edi
    16a3:	51                   	push   %ecx
    16a4:	6a 00                	push   $0x0
    16a6:	53                   	push   %ebx
    16a7:	57                   	push   %edi
    16a8:	e8 43 2b 00 00       	call   41f0 <usb_hid_report_compare_usage_path>
    16ad:	83 c4 10             	add    $0x10,%esp
    16b0:	85 c0                	test   %eax,%eax
    16b2:	75 e4                	jne    1698 <usb_hid_report_path_try_insert+0x28>
    16b4:	8d 65 f4             	lea    -0xc(%ebp),%esp
    16b7:	89 f8                	mov    %edi,%eax
    16b9:	5b                   	pop    %ebx
    16ba:	5e                   	pop    %esi
    16bb:	5f                   	pop    %edi
    16bc:	5d                   	pop    %ebp
    16bd:	c3                   	ret    
    16be:	66 90                	xchg   %ax,%ax
    16c0:	83 ec 0c             	sub    $0xc,%esp
    16c3:	53                   	push   %ebx
    16c4:	e8 a7 2f 00 00       	call   4670 <usb_hid_report_path_clone>
    16c9:	83 c4 10             	add    $0x10,%esp
    16cc:	89 c7                	mov    %eax,%edi
    16ce:	85 c0                	test   %eax,%eax
    16d0:	74 e2                	je     16b4 <usb_hid_report_path_try_insert+0x44>
    16d2:	8b 4d e4             	mov    -0x1c(%ebp),%ecx
    16d5:	8d 47 08             	lea    0x8(%edi),%eax
    16d8:	89 4f 0c             	mov    %ecx,0xc(%edi)
    16db:	8b 4d 08             	mov    0x8(%ebp),%ecx
    16de:	8b 51 0c             	mov    0xc(%ecx),%edx
    16e1:	89 57 08             	mov    %edx,0x8(%edi)
    16e4:	8b 51 0c             	mov    0xc(%ecx),%edx
    16e7:	89 42 04             	mov    %eax,0x4(%edx)
    16ea:	8b 51 14             	mov    0x14(%ecx),%edx
    16ed:	42                   	inc    %edx
    16ee:	89 41 0c             	mov    %eax,0xc(%ecx)
    16f1:	89 51 14             	mov    %edx,0x14(%ecx)
    16f4:	eb be                	jmp    16b4 <usb_hid_report_path_try_insert+0x44>
    16f6:	66 90                	xchg   %ax,%ax
    16f8:	8d 65 f4             	lea    -0xc(%ebp),%esp
    16fb:	31 ff                	xor    %edi,%edi
    16fd:	89 f8                	mov    %edi,%eax
    16ff:	5b                   	pop    %ebx
    1700:	5e                   	pop    %esi
    1701:	5f                   	pop    %edi
    1702:	5d                   	pop    %ebp
    1703:	c3                   	ret    
    1704:	8d b6 00 00 00 00    	lea    0x0(%esi),%esi
    170a:	8d bf 00 00 00 00    	lea    0x0(%edi),%edi

00001710 <usb_hid_report_init>:
    1710:	55                   	push   %ebp
    1711:	89 e5                	mov    %esp,%ebp
    1713:	53                   	push   %ebx
    1714:	52                   	push   %edx
    1715:	8b 5d 08             	mov    0x8(%ebp),%ebx
    1718:	85 db                	test   %ebx,%ebx
    171a:	74 34                	je     1750 <usb_hid_report_init+0x40>
    171c:	50                   	push   %eax
    171d:	6a 20                	push   $0x20
    171f:	6a 00                	push   $0x0
    1721:	53                   	push   %ebx
    1722:	e8 f9 5e 00 00       	call   7620 <memset@plt>
    1727:	8d 43 04             	lea    0x4(%ebx),%eax
    172a:	89 43 04             	mov    %eax,0x4(%ebx)
    172d:	89 43 08             	mov    %eax,0x8(%ebx)
    1730:	8d 43 0c             	lea    0xc(%ebx),%eax
    1733:	c7 43 18 00 00 00 00 	movl   $0x0,0x18(%ebx)
    173a:	89 43 0c             	mov    %eax,0xc(%ebx)
    173d:	89 43 10             	mov    %eax,0x10(%ebx)
    1740:	83 c4 10             	add    $0x10,%esp
    1743:	31 c0                	xor    %eax,%eax
    1745:	8b 5d fc             	mov    -0x4(%ebp),%ebx
    1748:	c9                   	leave  
    1749:	c3                   	ret    
    174a:	8d b6 00 00 00 00    	lea    0x0(%esi),%esi
    1750:	b8 f2 ff ff ff       	mov    $0xfffffff2,%eax
    1755:	eb ee                	jmp    1745 <usb_hid_report_init+0x35>
    1757:	89 f6                	mov    %esi,%esi
    1759:	8d bc 27 00 00 00 00 	lea    0x0(%edi,%eiz,1),%edi

00001760 <usb_hid_report_append_fields>:
    1760:	55                   	push   %ebp
    1761:	89 e5                	mov    %esp,%ebp
    1763:	57                   	push   %edi
    1764:	56                   	push   %esi
    1765:	53                   	push   %ebx
    1766:	83 ec 3c             	sub    $0x3c,%esp
    1769:	8b 45 08             	mov    0x8(%ebp),%eax
    176c:	85 c0                	test   %eax,%eax
    176e:	0f 84 6c 04 00 00    	je     1be0 <usb_hid_report_append_fields+0x480>
    1774:	8b 45 0c             	mov    0xc(%ebp),%eax
    1777:	85 c0                	test   %eax,%eax
    1779:	0f 84 61 04 00 00    	je     1be0 <usb_hid_report_append_fields+0x480>
    177f:	8b 45 0c             	mov    0xc(%ebp),%eax
    1782:	8b 80 04 00 04 00    	mov    0x40004(%eax),%eax
    1788:	85 c0                	test   %eax,%eax
    178a:	0f 8e 24 04 00 00    	jle    1bb4 <usb_hid_report_append_fields+0x454>
    1790:	c1 e0 02             	shl    $0x2,%eax
    1793:	83 ec 0c             	sub    $0xc,%esp
    1796:	50                   	push   %eax
    1797:	e8 d4 5d 00 00       	call   7570 <malloc@plt>
    179c:	89 c1                	mov    %eax,%ecx
    179e:	89 45 c8             	mov    %eax,-0x38(%ebp)
    17a1:	8b 45 0c             	mov    0xc(%ebp),%eax
    17a4:	83 c4 0c             	add    $0xc,%esp
    17a7:	8b 80 04 00 04 00    	mov    0x40004(%eax),%eax
    17ad:	89 45 e4             	mov    %eax,-0x1c(%ebp)
    17b0:	c1 e0 02             	shl    $0x2,%eax
    17b3:	50                   	push   %eax
    17b4:	8b 45 0c             	mov    0xc(%ebp),%eax
    17b7:	83 c0 08             	add    $0x8,%eax
    17ba:	50                   	push   %eax
    17bb:	51                   	push   %ecx
    17bc:	e8 9f 5d 00 00       	call   7560 <memcpy@plt>
    17c1:	8b 45 0c             	mov    0xc(%ebp),%eax
    17c4:	8b 80 58 00 04 00    	mov    0x40058(%eax),%eax
    17ca:	83 c4 10             	add    $0x10,%esp
    17cd:	89 45 cc             	mov    %eax,-0x34(%ebp)
    17d0:	8b 45 0c             	mov    0xc(%ebp),%eax
    17d3:	8b 80 20 00 04 00    	mov    0x40020(%eax),%eax
    17d9:	85 c0                	test   %eax,%eax
    17db:	0f 8e 1a 02 00 00    	jle    19fb <usb_hid_report_append_fields+0x29b>
    17e1:	8b 45 08             	mov    0x8(%ebp),%eax
    17e4:	c7 45 c4 00 00 00 00 	movl   $0x0,-0x3c(%ebp)
    17eb:	83 c0 0c             	add    $0xc,%eax
    17ee:	c7 45 e0 00 00 00 00 	movl   $0x0,-0x20(%ebp)
    17f5:	89 45 e4             	mov    %eax,-0x1c(%ebp)
    17f8:	8b 45 08             	mov    0x8(%ebp),%eax
    17fb:	83 c0 04             	add    $0x4,%eax
    17fe:	89 45 dc             	mov    %eax,-0x24(%ebp)
    1801:	8d b4 26 00 00 00 00 	lea    0x0(%esi,%eiz,1),%esi
    1808:	83 ec 0c             	sub    $0xc,%esp
    180b:	6a 48                	push   $0x48
    180d:	e8 5e 5d 00 00       	call   7570 <malloc@plt>
    1812:	83 c4 10             	add    $0x10,%esp
    1815:	89 c6                	mov    %eax,%esi
    1817:	85 c0                	test   %eax,%eax
    1819:	0f 84 77 03 00 00    	je     1b96 <usb_hid_report_append_fields+0x436>
    181f:	57                   	push   %edi
    1820:	6a 48                	push   $0x48
    1822:	6a 00                	push   $0x0
    1824:	50                   	push   %eax
    1825:	e8 f6 5d 00 00       	call   7620 <memset@plt>
    182a:	8d 46 40             	lea    0x40(%esi),%eax
    182d:	89 45 d0             	mov    %eax,-0x30(%ebp)
    1830:	8b 45 0c             	mov    0xc(%ebp),%eax
    1833:	83 c4 10             	add    $0x10,%esp
    1836:	c7 46 40 00 00 00 00 	movl   $0x0,0x40(%esi)
    183d:	8b 80 14 00 04 00    	mov    0x40014(%eax),%eax
    1843:	c7 46 44 00 00 00 00 	movl   $0x0,0x44(%esi)
    184a:	89 46 14             	mov    %eax,0x14(%esi)
    184d:	8b 45 0c             	mov    0xc(%ebp),%eax
    1850:	8b 80 18 00 04 00    	mov    0x40018(%eax),%eax
    1856:	89 46 18             	mov    %eax,0x18(%esi)
    1859:	8b 45 0c             	mov    0xc(%ebp),%eax
    185c:	8b 80 48 00 04 00    	mov    0x40048(%eax),%eax
    1862:	89 46 1c             	mov    %eax,0x1c(%esi)
    1865:	8b 45 0c             	mov    0xc(%ebp),%eax
    1868:	8b 80 4c 00 04 00    	mov    0x4004c(%eax),%eax
    186e:	89 46 20             	mov    %eax,0x20(%esi)
    1871:	8b 45 0c             	mov    0xc(%ebp),%eax
    1874:	f6 80 50 00 04 00 02 	testb  $0x2,0x40050(%eax)
    187b:	0f 85 2f 02 00 00    	jne    1ab0 <usb_hid_report_append_fields+0x350>
    1881:	8b 80 04 00 04 00    	mov    0x40004(%eax),%eax
    1887:	c7 46 08 00 00 00 00 	movl   $0x0,0x8(%esi)
    188e:	89 46 38             	mov    %eax,0x38(%esi)
    1891:	8b 45 c8             	mov    -0x38(%ebp),%eax
    1894:	89 46 34             	mov    %eax,0x34(%esi)
    1897:	c7 45 c4 01 00 00 00 	movl   $0x1,-0x3c(%ebp)
    189e:	31 c0                	xor    %eax,%eax
    18a0:	8b 7d cc             	mov    -0x34(%ebp),%edi
    18a3:	53                   	push   %ebx
    18a4:	50                   	push   %eax
    18a5:	6a 01                	push   $0x1
    18a7:	57                   	push   %edi
    18a8:	e8 63 28 00 00       	call   4110 <usb_hid_report_set_last_item>
    18ad:	83 c4 0c             	add    $0xc,%esp
    18b0:	31 c0                	xor    %eax,%eax
    18b2:	66 8b 46 0a          	mov    0xa(%esi),%ax
    18b6:	50                   	push   %eax
    18b7:	6a 02                	push   $0x2
    18b9:	57                   	push   %edi
    18ba:	e8 51 28 00 00       	call   4110 <usb_hid_report_set_last_item>
    18bf:	8b 45 08             	mov    0x8(%ebp),%eax
    18c2:	83 c4 10             	add    $0x10,%esp
    18c5:	85 ff                	test   %edi,%edi
    18c7:	8b 58 10             	mov    0x10(%eax),%ebx
    18ca:	0f 84 bf 02 00 00    	je     1b8f <usb_hid_report_append_fields+0x42f>
    18d0:	3b 5d e4             	cmp    -0x1c(%ebp),%ebx
    18d3:	0f 84 12 02 00 00    	je     1aeb <usb_hid_report_append_fields+0x38b>
    18d9:	89 75 d8             	mov    %esi,-0x28(%ebp)
    18dc:	89 de                	mov    %ebx,%esi
    18de:	eb 0c                	jmp    18ec <usb_hid_report_append_fields+0x18c>
    18e0:	8b 76 04             	mov    0x4(%esi),%esi
    18e3:	3b 75 e4             	cmp    -0x1c(%ebp),%esi
    18e6:	0f 84 fc 01 00 00    	je     1ae8 <usb_hid_report_append_fields+0x388>
    18ec:	8d 5e f8             	lea    -0x8(%esi),%ebx
    18ef:	51                   	push   %ecx
    18f0:	6a 00                	push   $0x0
    18f2:	57                   	push   %edi
    18f3:	53                   	push   %ebx
    18f4:	e8 f7 28 00 00       	call   41f0 <usb_hid_report_compare_usage_path>
    18f9:	83 c4 10             	add    $0x10,%esp
    18fc:	85 c0                	test   %eax,%eax
    18fe:	75 e0                	jne    18e0 <usb_hid_report_append_fields+0x180>
    1900:	8b 75 d8             	mov    -0x28(%ebp),%esi
    1903:	89 df                	mov    %ebx,%edi
    1905:	8b 45 0c             	mov    0xc(%ebp),%eax
    1908:	89 7e 10             	mov    %edi,0x10(%esi)
    190b:	8b 80 1c 00 04 00    	mov    0x4001c(%eax),%eax
    1911:	89 45 d4             	mov    %eax,-0x2c(%ebp)
    1914:	89 46 04             	mov    %eax,0x4(%esi)
    1917:	8b 45 0c             	mov    0xc(%ebp),%eax
    191a:	8b b8 54 00 04 00    	mov    0x40054(%eax),%edi
    1920:	83 ff 01             	cmp    $0x1,%edi
    1923:	0f 84 07 02 00 00    	je     1b30 <usb_hid_report_append_fields+0x3d0>
    1929:	89 c2                	mov    %eax,%edx
    192b:	8b 5d e0             	mov    -0x20(%ebp),%ebx
    192e:	8b 45 d4             	mov    -0x2c(%ebp),%eax
    1931:	0f af c3             	imul   %ebx,%eax
    1934:	8b 8a 24 00 04 00    	mov    0x40024(%edx),%ecx
    193a:	01 c8                	add    %ecx,%eax
    193c:	89 06                	mov    %eax,(%esi)
    193e:	8b 4d 08             	mov    0x8(%ebp),%ecx
    1941:	8b 51 18             	mov    0x18(%ecx),%edx
    1944:	85 d2                	test   %edx,%edx
    1946:	0f 84 4c 01 00 00    	je     1a98 <usb_hid_report_append_fields+0x338>
    194c:	83 c0 08             	add    $0x8,%eax
    194f:	8b 4d 0c             	mov    0xc(%ebp),%ecx
    1952:	89 06                	mov    %eax,(%esi)
    1954:	8b 45 08             	mov    0x8(%ebp),%eax
    1957:	8a 09                	mov    (%ecx),%cl
    1959:	c7 40 18 01 00 00 00 	movl   $0x1,0x18(%eax)
    1960:	8b 45 0c             	mov    0xc(%ebp),%eax
    1963:	8a 80 50 00 04 00    	mov    0x40050(%eax),%al
    1969:	88 46 0c             	mov    %al,0xc(%esi)
    196c:	8b 45 08             	mov    0x8(%ebp),%eax
    196f:	8b 40 08             	mov    0x8(%eax),%eax
    1972:	39 45 dc             	cmp    %eax,-0x24(%ebp)
    1975:	8d 58 e8             	lea    -0x18(%eax),%ebx
    1978:	0f 84 9d 00 00 00    	je     1a1b <usb_hid_report_append_fields+0x2bb>
    197e:	84 c9                	test   %cl,%cl
    1980:	89 75 d8             	mov    %esi,-0x28(%ebp)
    1983:	0f 94 c2             	sete   %dl
    1986:	8b 75 dc             	mov    -0x24(%ebp),%esi
    1989:	eb 13                	jmp    199e <usb_hid_report_append_fields+0x23e>
    198b:	90                   	nop
    198c:	8d 74 26 00          	lea    0x0(%esi,%eiz,1),%esi
    1990:	84 d2                	test   %dl,%dl
    1992:	75 0e                	jne    19a2 <usb_hid_report_append_fields+0x242>
    1994:	8b 40 04             	mov    0x4(%eax),%eax
    1997:	39 c6                	cmp    %eax,%esi
    1999:	8d 58 e8             	lea    -0x18(%eax),%ebx
    199c:	74 7a                	je     1a18 <usb_hid_report_append_fields+0x2b8>
    199e:	38 0b                	cmp    %cl,(%ebx)
    19a0:	75 ee                	jne    1990 <usb_hid_report_append_fields+0x230>
    19a2:	3b 7b 04             	cmp    0x4(%ebx),%edi
    19a5:	75 ed                	jne    1994 <usb_hid_report_append_fields+0x234>
    19a7:	8b 75 d8             	mov    -0x28(%ebp),%esi
    19aa:	8d 43 10             	lea    0x10(%ebx),%eax
    19ad:	8b 53 10             	mov    0x10(%ebx),%edx
    19b0:	8b 4b 08             	mov    0x8(%ebx),%ecx
    19b3:	89 56 40             	mov    %edx,0x40(%esi)
    19b6:	89 46 44             	mov    %eax,0x44(%esi)
    19b9:	8b 43 10             	mov    0x10(%ebx),%eax
    19bc:	8b 55 d0             	mov    -0x30(%ebp),%edx
    19bf:	89 50 04             	mov    %edx,0x4(%eax)
    19c2:	8b 45 d4             	mov    -0x2c(%ebp),%eax
    19c5:	01 c1                	add    %eax,%ecx
    19c7:	8b 43 0c             	mov    0xc(%ebx),%eax
    19ca:	40                   	inc    %eax
    19cb:	89 4b 08             	mov    %ecx,0x8(%ebx)
    19ce:	89 43 0c             	mov    %eax,0xc(%ebx)
    19d1:	8b 45 e0             	mov    -0x20(%ebp),%eax
    19d4:	40                   	inc    %eax
    19d5:	8b 4d 0c             	mov    0xc(%ebp),%ecx
    19d8:	89 45 e0             	mov    %eax,-0x20(%ebp)
    19db:	89 53 10             	mov    %edx,0x10(%ebx)
    19de:	8b 45 e0             	mov    -0x20(%ebp),%eax
    19e1:	39 81 20 00 04 00    	cmp    %eax,0x40020(%ecx)
    19e7:	0f 8f 1b fe ff ff    	jg     1808 <usb_hid_report_append_fields+0xa8>
    19ed:	8b 7d c8             	mov    -0x38(%ebp),%edi
    19f0:	85 ff                	test   %edi,%edi
    19f2:	74 16                	je     1a0a <usb_hid_report_append_fields+0x2aa>
    19f4:	8b 75 c4             	mov    -0x3c(%ebp),%esi
    19f7:	85 f6                	test   %esi,%esi
    19f9:	75 0f                	jne    1a0a <usb_hid_report_append_fields+0x2aa>
    19fb:	83 ec 0c             	sub    $0xc,%esp
    19fe:	8b 5d c8             	mov    -0x38(%ebp),%ebx
    1a01:	53                   	push   %ebx
    1a02:	e8 f9 5c 00 00       	call   7700 <free@plt>
    1a07:	83 c4 10             	add    $0x10,%esp
    1a0a:	31 c0                	xor    %eax,%eax
    1a0c:	8d 65 f4             	lea    -0xc(%ebp),%esp
    1a0f:	5b                   	pop    %ebx
    1a10:	5e                   	pop    %esi
    1a11:	5f                   	pop    %edi
    1a12:	5d                   	pop    %ebp
    1a13:	c3                   	ret    
    1a14:	8d 74 26 00          	lea    0x0(%esi,%eiz,1),%esi
    1a18:	8b 75 d8             	mov    -0x28(%ebp),%esi
    1a1b:	83 ec 0c             	sub    $0xc,%esp
    1a1e:	6a 20                	push   $0x20
    1a20:	e8 4b 5b 00 00       	call   7570 <malloc@plt>
    1a25:	83 c4 10             	add    $0x10,%esp
    1a28:	89 c3                	mov    %eax,%ebx
    1a2a:	85 c0                	test   %eax,%eax
    1a2c:	0f 84 64 01 00 00    	je     1b96 <usb_hid_report_append_fields+0x436>
    1a32:	51                   	push   %ecx
    1a33:	6a 20                	push   $0x20
    1a35:	6a 00                	push   $0x0
    1a37:	50                   	push   %eax
    1a38:	e8 e3 5b 00 00       	call   7620 <memset@plt>
    1a3d:	8b 45 0c             	mov    0xc(%ebp),%eax
    1a40:	8b 80 54 00 04 00    	mov    0x40054(%eax),%eax
    1a46:	83 c4 10             	add    $0x10,%esp
    1a49:	89 43 04             	mov    %eax,0x4(%ebx)
    1a4c:	8b 45 0c             	mov    0xc(%ebp),%eax
    1a4f:	8b 00                	mov    (%eax),%eax
    1a51:	88 03                	mov    %al,(%ebx)
    1a53:	84 c0                	test   %al,%al
    1a55:	0f 85 48 01 00 00    	jne    1ba3 <usb_hid_report_append_fields+0x443>
    1a5b:	8b 4b 08             	mov    0x8(%ebx),%ecx
    1a5e:	8b 55 dc             	mov    -0x24(%ebp),%edx
    1a61:	8d 7b 18             	lea    0x18(%ebx),%edi
    1a64:	89 53 1c             	mov    %edx,0x1c(%ebx)
    1a67:	8b 55 08             	mov    0x8(%ebp),%edx
    1a6a:	8d 43 10             	lea    0x10(%ebx),%eax
    1a6d:	8b 52 04             	mov    0x4(%edx),%edx
    1a70:	89 43 10             	mov    %eax,0x10(%ebx)
    1a73:	89 53 18             	mov    %edx,0x18(%ebx)
    1a76:	89 43 14             	mov    %eax,0x14(%ebx)
    1a79:	89 7a 04             	mov    %edi,0x4(%edx)
    1a7c:	8b 55 08             	mov    0x8(%ebp),%edx
    1a7f:	89 7a 04             	mov    %edi,0x4(%edx)
    1a82:	89 d7                	mov    %edx,%edi
    1a84:	8b 12                	mov    (%edx),%edx
    1a86:	42                   	inc    %edx
    1a87:	89 17                	mov    %edx,(%edi)
    1a89:	8b 7e 04             	mov    0x4(%esi),%edi
    1a8c:	89 7d d4             	mov    %edi,-0x2c(%ebp)
    1a8f:	89 c2                	mov    %eax,%edx
    1a91:	e9 1d ff ff ff       	jmp    19b3 <usb_hid_report_append_fields+0x253>
    1a96:	66 90                	xchg   %ax,%ax
    1a98:	8b 45 0c             	mov    0xc(%ebp),%eax
    1a9b:	8b 4d 0c             	mov    0xc(%ebp),%ecx
    1a9e:	8a 80 50 00 04 00    	mov    0x40050(%eax),%al
    1aa4:	8a 09                	mov    (%ecx),%cl
    1aa6:	e9 be fe ff ff       	jmp    1969 <usb_hid_report_append_fields+0x209>
    1aab:	90                   	nop
    1aac:	8d 74 26 00          	lea    0x0(%esi,%eiz,1),%esi
    1ab0:	8b 80 04 00 04 00    	mov    0x40004(%eax),%eax
    1ab6:	8b 7d e0             	mov    -0x20(%ebp),%edi
    1ab9:	39 f8                	cmp    %edi,%eax
    1abb:	0f 8e c2 00 00 00    	jle    1b83 <usb_hid_report_append_fields+0x423>
    1ac1:	8b 45 0c             	mov    0xc(%ebp),%eax
    1ac4:	8b 44 b8 08          	mov    0x8(%eax,%edi,4),%eax
    1ac8:	66 89 46 0a          	mov    %ax,0xa(%esi)
    1acc:	a9 00 00 ff ff       	test   $0xffff0000,%eax
    1ad1:	0f 84 95 00 00 00    	je     1b6c <usb_hid_report_append_fields+0x40c>
    1ad7:	c1 e8 10             	shr    $0x10,%eax
    1ada:	66 89 46 08          	mov    %ax,0x8(%esi)
    1ade:	e9 bd fd ff ff       	jmp    18a0 <usb_hid_report_append_fields+0x140>
    1ae3:	90                   	nop
    1ae4:	8d 74 26 00          	lea    0x0(%esi,%eiz,1),%esi
    1ae8:	8b 75 d8             	mov    -0x28(%ebp),%esi
    1aeb:	83 ec 0c             	sub    $0xc,%esp
    1aee:	8b 4d cc             	mov    -0x34(%ebp),%ecx
    1af1:	51                   	push   %ecx
    1af2:	e8 79 2b 00 00       	call   4670 <usb_hid_report_path_clone>
    1af7:	83 c4 10             	add    $0x10,%esp
    1afa:	89 c7                	mov    %eax,%edi
    1afc:	85 c0                	test   %eax,%eax
    1afe:	0f 84 01 fe ff ff    	je     1905 <usb_hid_report_append_fields+0x1a5>
    1b04:	8b 55 e4             	mov    -0x1c(%ebp),%edx
    1b07:	8b 4d 08             	mov    0x8(%ebp),%ecx
    1b0a:	89 57 0c             	mov    %edx,0xc(%edi)
    1b0d:	8b 55 08             	mov    0x8(%ebp),%edx
    1b10:	8d 47 08             	lea    0x8(%edi),%eax
    1b13:	8b 52 0c             	mov    0xc(%edx),%edx
    1b16:	89 57 08             	mov    %edx,0x8(%edi)
    1b19:	8b 51 0c             	mov    0xc(%ecx),%edx
    1b1c:	89 42 04             	mov    %eax,0x4(%edx)
    1b1f:	8b 51 14             	mov    0x14(%ecx),%edx
    1b22:	42                   	inc    %edx
    1b23:	89 41 0c             	mov    %eax,0xc(%ecx)
    1b26:	89 51 14             	mov    %edx,0x14(%ecx)
    1b29:	e9 d7 fd ff ff       	jmp    1905 <usb_hid_report_append_fields+0x1a5>
    1b2e:	66 90                	xchg   %ax,%ax
    1b30:	8b 4d d4             	mov    -0x2c(%ebp),%ecx
    1b33:	8b 55 e0             	mov    -0x20(%ebp),%edx
    1b36:	0f af d1             	imul   %ecx,%edx
    1b39:	8b 98 24 00 04 00    	mov    0x40024(%eax),%ebx
    1b3f:	01 da                	add    %ebx,%edx
    1b41:	89 d0                	mov    %edx,%eax
    1b43:	c1 f8 1f             	sar    $0x1f,%eax
    1b46:	83 e0 07             	and    $0x7,%eax
    1b49:	01 d0                	add    %edx,%eax
    1b4b:	c1 f8 03             	sar    $0x3,%eax
    1b4e:	8d 44 00 01          	lea    0x1(%eax,%eax,1),%eax
    1b52:	c1 e0 03             	shl    $0x3,%eax
    1b55:	29 d0                	sub    %edx,%eax
    1b57:	29 c8                	sub    %ecx,%eax
    1b59:	0f 89 dd fd ff ff    	jns    193c <usb_hid_report_append_fields+0x1dc>
    1b5f:	c7 06 00 00 00 00    	movl   $0x0,(%esi)
    1b65:	31 c0                	xor    %eax,%eax
    1b67:	e9 d2 fd ff ff       	jmp    193e <usb_hid_report_append_fields+0x1de>
    1b6c:	8b 45 0c             	mov    0xc(%ebp),%eax
    1b6f:	8b 80 08 00 04 00    	mov    0x40008(%eax),%eax
    1b75:	66 89 46 08          	mov    %ax,0x8(%esi)
    1b79:	25 ff ff 00 00       	and    $0xffff,%eax
    1b7e:	e9 1d fd ff ff       	jmp    18a0 <usb_hid_report_append_fields+0x140>
    1b83:	8b 7d 0c             	mov    0xc(%ebp),%edi
    1b86:	8b 44 87 04          	mov    0x4(%edi,%eax,4),%eax
    1b8a:	e9 39 ff ff ff       	jmp    1ac8 <usb_hid_report_append_fields+0x368>
    1b8f:	31 ff                	xor    %edi,%edi
    1b91:	e9 6f fd ff ff       	jmp    1905 <usb_hid_report_append_fields+0x1a5>
    1b96:	8d 65 f4             	lea    -0xc(%ebp),%esp
    1b99:	b8 fe ff ff ff       	mov    $0xfffffffe,%eax
    1b9e:	5b                   	pop    %ebx
    1b9f:	5e                   	pop    %esi
    1ba0:	5f                   	pop    %edi
    1ba1:	5d                   	pop    %ebp
    1ba2:	c3                   	ret    
    1ba3:	c7 43 08 08 00 00 00 	movl   $0x8,0x8(%ebx)
    1baa:	b9 08 00 00 00       	mov    $0x8,%ecx
    1baf:	e9 aa fe ff ff       	jmp    1a5e <usb_hid_report_append_fields+0x2fe>
    1bb4:	8b 45 0c             	mov    0xc(%ebp),%eax
    1bb7:	c7 45 c8 00 00 00 00 	movl   $0x0,-0x38(%ebp)
    1bbe:	8b 80 58 00 04 00    	mov    0x40058(%eax),%eax
    1bc4:	89 45 cc             	mov    %eax,-0x34(%ebp)
    1bc7:	8b 45 0c             	mov    0xc(%ebp),%eax
    1bca:	8b 80 20 00 04 00    	mov    0x40020(%eax),%eax
    1bd0:	85 c0                	test   %eax,%eax
    1bd2:	0f 8f 09 fc ff ff    	jg     17e1 <usb_hid_report_append_fields+0x81>
    1bd8:	e9 2d fe ff ff       	jmp    1a0a <usb_hid_report_append_fields+0x2aa>
    1bdd:	8d 76 00             	lea    0x0(%esi),%esi
    1be0:	b8 f2 ff ff ff       	mov    $0xfffffff2,%eax
    1be5:	e9 22 fe ff ff       	jmp    1a0c <usb_hid_report_append_fields+0x2ac>
    1bea:	8d b6 00 00 00 00    	lea    0x0(%esi),%esi

00001bf0 <usb_hid_report_find_description>:
    1bf0:	55                   	push   %ebp
    1bf1:	89 e5                	mov    %esp,%ebp
    1bf3:	57                   	push   %edi
    1bf4:	56                   	push   %esi
    1bf5:	53                   	push   %ebx
    1bf6:	8b 75 08             	mov    0x8(%ebp),%esi
    1bf9:	8b 5d 0c             	mov    0xc(%ebp),%ebx
    1bfc:	8b 7d 10             	mov    0x10(%ebp),%edi
    1bff:	85 f6                	test   %esi,%esi
    1c01:	74 3d                	je     1c40 <usb_hid_report_find_description+0x50>
    1c03:	8b 56 08             	mov    0x8(%esi),%edx
    1c06:	83 c6 04             	add    $0x4,%esi
    1c09:	39 f2                	cmp    %esi,%edx
    1c0b:	8d 42 e8             	lea    -0x18(%edx),%eax
    1c0e:	74 30                	je     1c40 <usb_hid_report_find_description+0x50>
    1c10:	88 d9                	mov    %bl,%cl
    1c12:	84 db                	test   %bl,%bl
    1c14:	0f 94 c3             	sete   %bl
    1c17:	eb 15                	jmp    1c2e <usb_hid_report_find_description+0x3e>
    1c19:	8d b4 26 00 00 00 00 	lea    0x0(%esi,%eiz,1),%esi
    1c20:	84 db                	test   %bl,%bl
    1c22:	75 0e                	jne    1c32 <usb_hid_report_find_description+0x42>
    1c24:	8b 52 04             	mov    0x4(%edx),%edx
    1c27:	39 f2                	cmp    %esi,%edx
    1c29:	8d 42 e8             	lea    -0x18(%edx),%eax
    1c2c:	74 12                	je     1c40 <usb_hid_report_find_description+0x50>
    1c2e:	38 08                	cmp    %cl,(%eax)
    1c30:	75 ee                	jne    1c20 <usb_hid_report_find_description+0x30>
    1c32:	39 78 04             	cmp    %edi,0x4(%eax)
    1c35:	75 ed                	jne    1c24 <usb_hid_report_find_description+0x34>
    1c37:	5b                   	pop    %ebx
    1c38:	5e                   	pop    %esi
    1c39:	5f                   	pop    %edi
    1c3a:	5d                   	pop    %ebp
    1c3b:	c3                   	ret    
    1c3c:	8d 74 26 00          	lea    0x0(%esi,%eiz,1),%esi
    1c40:	5b                   	pop    %ebx
    1c41:	31 c0                	xor    %eax,%eax
    1c43:	5e                   	pop    %esi
    1c44:	5f                   	pop    %edi
    1c45:	5d                   	pop    %ebp
    1c46:	c3                   	ret    
    1c47:	89 f6                	mov    %esi,%esi
    1c49:	8d bc 27 00 00 00 00 	lea    0x0(%edi,%eiz,1),%edi

00001c50 <usb_hid_report_parse_main_tag>:
    1c50:	55                   	push   %ebp
    1c51:	89 e5                	mov    %esp,%ebp
    1c53:	56                   	push   %esi
    1c54:	53                   	push   %ebx
    1c55:	8a 45 08             	mov    0x8(%ebp),%al
    1c58:	8b 55 0c             	mov    0xc(%ebp),%edx
    1c5b:	8b 75 14             	mov    0x14(%ebp),%esi
    1c5e:	8b 5d 18             	mov    0x18(%ebp),%ebx
    1c61:	8d 48 f8             	lea    -0x8(%eax),%ecx
    1c64:	80 f9 04             	cmp    $0x4,%cl
    1c67:	0f 87 c5 00 00 00    	ja     1d32 <usb_hid_report_parse_main_tag+0xe2>
    1c6d:	31 c0                	xor    %eax,%eax
    1c6f:	88 c8                	mov    %cl,%al
    1c71:	ff 24 85 bc 50 00 00 	jmp    *0x50bc(,%eax,4)
    1c78:	8b 43 14             	mov    0x14(%ebx),%eax
    1c7b:	8d 4b 10             	lea    0x10(%ebx),%ecx
    1c7e:	39 c8                	cmp    %ecx,%eax
    1c80:	0f 84 a2 00 00 00    	je     1d28 <usb_hid_report_parse_main_tag+0xd8>
    1c86:	83 e8 0c             	sub    $0xc,%eax
    1c89:	8a 0a                	mov    (%edx),%cl
    1c8b:	88 48 08             	mov    %cl,0x8(%eax)
    1c8e:	50                   	push   %eax
    1c8f:	8b 86 04 00 04 00    	mov    0x40004(%esi),%eax
    1c95:	66 8b 4c 86 06       	mov    0x6(%esi,%eax,4),%cx
    1c9a:	81 e1 ff ff 00 00    	and    $0xffff,%ecx
    1ca0:	51                   	push   %ecx
    1ca1:	6a 01                	push   $0x1
    1ca3:	53                   	push   %ebx
    1ca4:	e8 67 24 00 00       	call   4110 <usb_hid_report_set_last_item>
    1ca9:	8b 86 04 00 04 00    	mov    0x40004(%esi),%eax
    1caf:	83 c4 0c             	add    $0xc,%esp
    1cb2:	8b 54 86 04          	mov    0x4(%esi,%eax,4),%edx
    1cb6:	81 e2 ff ff 00 00    	and    $0xffff,%edx
    1cbc:	52                   	push   %edx
    1cbd:	6a 02                	push   $0x2
    1cbf:	53                   	push   %ebx
    1cc0:	e8 4b 24 00 00       	call   4110 <usb_hid_report_set_last_item>
    1cc5:	8b 86 04 00 04 00    	mov    0x40004(%esi),%eax
    1ccb:	83 c4 0c             	add    $0xc,%esp
    1cce:	8b 54 86 04          	mov    0x4(%esi,%eax,4),%edx
    1cd2:	52                   	push   %edx
    1cd3:	8b 8e 08 00 04 00    	mov    0x40008(%esi),%ecx
    1cd9:	51                   	push   %ecx
    1cda:	53                   	push   %ebx
    1cdb:	e8 40 23 00 00       	call   4020 <usb_hid_report_path_append_item>
    1ce0:	89 34 24             	mov    %esi,(%esp)
    1ce3:	e8 a8 22 00 00       	call   3f90 <usb_hid_report_reset_local_items>
    1ce8:	83 c4 10             	add    $0x10,%esp
    1ceb:	b8 02 00 00 00       	mov    $0x2,%eax
    1cf0:	8d 65 f8             	lea    -0x8(%ebp),%esp
    1cf3:	5b                   	pop    %ebx
    1cf4:	5e                   	pop    %esi
    1cf5:	5d                   	pop    %ebp
    1cf6:	c3                   	ret    
    1cf7:	90                   	nop
    1cf8:	8a 02                	mov    (%edx),%al
    1cfa:	88 86 50 00 04 00    	mov    %al,0x40050(%esi)
    1d00:	8d 65 f8             	lea    -0x8(%ebp),%esp
    1d03:	31 c0                	xor    %eax,%eax
    1d05:	5b                   	pop    %ebx
    1d06:	5e                   	pop    %esi
    1d07:	5d                   	pop    %ebp
    1d08:	c3                   	ret    
    1d09:	8d b4 26 00 00 00 00 	lea    0x0(%esi,%eiz,1),%esi
    1d10:	83 ec 0c             	sub    $0xc,%esp
    1d13:	53                   	push   %ebx
    1d14:	e8 57 23 00 00       	call   4070 <usb_hid_report_remove_last_item>
    1d19:	83 c4 10             	add    $0x10,%esp
    1d1c:	8d 65 f8             	lea    -0x8(%ebp),%esp
    1d1f:	b8 02 00 00 00       	mov    $0x2,%eax
    1d24:	5b                   	pop    %ebx
    1d25:	5e                   	pop    %esi
    1d26:	5d                   	pop    %ebp
    1d27:	c3                   	ret    
    1d28:	b8 f4 ff ff ff       	mov    $0xfffffff4,%eax
    1d2d:	e9 57 ff ff ff       	jmp    1c89 <usb_hid_report_parse_main_tag+0x39>
    1d32:	b8 02 00 00 00       	mov    $0x2,%eax
    1d37:	eb b7                	jmp    1cf0 <usb_hid_report_parse_main_tag+0xa0>
    1d39:	8d b4 26 00 00 00 00 	lea    0x0(%esi,%eiz,1),%esi

00001d40 <usb_hid_report_parse_global_tag>:
    1d40:	55                   	push   %ebp
    1d41:	89 e5                	mov    %esp,%ebp
    1d43:	57                   	push   %edi
    1d44:	56                   	push   %esi
    1d45:	53                   	push   %ebx
    1d46:	51                   	push   %ecx
    1d47:	8b 45 08             	mov    0x8(%ebp),%eax
    1d4a:	8b 55 0c             	mov    0xc(%ebp),%edx
    1d4d:	8b 5d 10             	mov    0x10(%ebp),%ebx
    1d50:	3c 0b                	cmp    $0xb,%al
    1d52:	0f 87 3f 04 00 00    	ja     2197 <usb_hid_report_parse_global_tag+0x457>
    1d58:	31 c9                	xor    %ecx,%ecx
    1d5a:	88 c1                	mov    %al,%cl
    1d5c:	ff 24 8d d0 50 00 00 	jmp    *0x50d0(,%ecx,4)
    1d63:	90                   	nop
    1d64:	8d 74 26 00          	lea    0x0(%esi,%eiz,1),%esi
    1d68:	31 ff                	xor    %edi,%edi
    1d6a:	31 c0                	xor    %eax,%eax
    1d6c:	85 db                	test   %ebx,%ebx
    1d6e:	74 1a                	je     1d8a <usb_hid_report_parse_global_tag+0x4a>
    1d70:	0f b6 34 02          	movzbl (%edx,%eax,1),%esi
    1d74:	8d 0c c5 00 00 00 00 	lea    0x0(,%eax,8),%ecx
    1d7b:	81 e6 ff 00 00 00    	and    $0xff,%esi
    1d81:	d3 e6                	shl    %cl,%esi
    1d83:	40                   	inc    %eax
    1d84:	09 f7                	or     %esi,%edi
    1d86:	39 c3                	cmp    %eax,%ebx
    1d88:	75 e6                	jne    1d70 <usb_hid_report_parse_global_tag+0x30>
    1d8a:	8b 45 14             	mov    0x14(%ebp),%eax
    1d8d:	89 b8 20 00 04 00    	mov    %edi,0x40020(%eax)
    1d93:	31 c0                	xor    %eax,%eax
    1d95:	eb 06                	jmp    1d9d <usb_hid_report_parse_global_tag+0x5d>
    1d97:	90                   	nop
    1d98:	25 ff 00 00 00       	and    $0xff,%eax
    1d9d:	5a                   	pop    %edx
    1d9e:	5b                   	pop    %ebx
    1d9f:	5e                   	pop    %esi
    1da0:	5f                   	pop    %edi
    1da1:	5d                   	pop    %ebp
    1da2:	c3                   	ret    
    1da3:	90                   	nop
    1da4:	8d 74 26 00          	lea    0x0(%esi,%eiz,1),%esi
    1da8:	31 ff                	xor    %edi,%edi
    1daa:	85 db                	test   %ebx,%ebx
    1dac:	74 1c                	je     1dca <usb_hid_report_parse_global_tag+0x8a>
    1dae:	31 c0                	xor    %eax,%eax
    1db0:	0f b6 34 02          	movzbl (%edx,%eax,1),%esi
    1db4:	8d 0c c5 00 00 00 00 	lea    0x0(,%eax,8),%ecx
    1dbb:	81 e6 ff 00 00 00    	and    $0xff,%esi
    1dc1:	d3 e6                	shl    %cl,%esi
    1dc3:	40                   	inc    %eax
    1dc4:	09 f7                	or     %esi,%edi
    1dc6:	39 c3                	cmp    %eax,%ebx
    1dc8:	75 e6                	jne    1db0 <usb_hid_report_parse_global_tag+0x70>
    1dca:	8b 45 14             	mov    0x14(%ebp),%eax
    1dcd:	89 b8 08 00 04 00    	mov    %edi,0x40008(%eax)
    1dd3:	31 c0                	xor    %eax,%eax
    1dd5:	eb c6                	jmp    1d9d <usb_hid_report_parse_global_tag+0x5d>
    1dd7:	90                   	nop
    1dd8:	31 c0                	xor    %eax,%eax
    1dda:	31 f6                	xor    %esi,%esi
    1ddc:	31 ff                	xor    %edi,%edi
    1dde:	85 db                	test   %ebx,%ebx
    1de0:	74 71                	je     1e53 <usb_hid_report_parse_global_tag+0x113>
    1de2:	8d b6 00 00 00 00    	lea    0x0(%esi),%esi
    1de8:	0f b6 3c 02          	movzbl (%edx,%eax,1),%edi
    1dec:	8d 0c c5 00 00 00 00 	lea    0x0(,%eax,8),%ecx
    1df3:	81 e7 ff 00 00 00    	and    $0xff,%edi
    1df9:	d3 e7                	shl    %cl,%edi
    1dfb:	40                   	inc    %eax
    1dfc:	09 fe                	or     %edi,%esi
    1dfe:	39 c3                	cmp    %eax,%ebx
    1e00:	75 e6                	jne    1de8 <usb_hid_report_parse_global_tag+0xa8>
    1e02:	8d 0c c5 00 00 00 00 	lea    0x0(,%eax,8),%ecx
    1e09:	bf 01 00 00 00       	mov    $0x1,%edi
    1e0e:	89 4d f0             	mov    %ecx,-0x10(%ebp)
    1e11:	49                   	dec    %ecx
    1e12:	d3 e7                	shl    %cl,%edi
    1e14:	85 f7                	test   %esi,%edi
    1e16:	bf 00 00 00 00       	mov    $0x0,%edi
    1e1b:	0f 84 4f 03 00 00    	je     2170 <usb_hid_report_parse_global_tag+0x430>
    1e21:	31 db                	xor    %ebx,%ebx
    1e23:	90                   	nop
    1e24:	8d 74 26 00          	lea    0x0(%esi,%eiz,1),%esi
    1e28:	0f b6 34 1a          	movzbl (%edx,%ebx,1),%esi
    1e2c:	8d 0c dd 00 00 00 00 	lea    0x0(,%ebx,8),%ecx
    1e33:	81 e6 ff 00 00 00    	and    $0xff,%esi
    1e39:	d3 e6                	shl    %cl,%esi
    1e3b:	43                   	inc    %ebx
    1e3c:	09 f7                	or     %esi,%edi
    1e3e:	39 d8                	cmp    %ebx,%eax
    1e40:	75 e6                	jne    1e28 <usb_hid_report_parse_global_tag+0xe8>
    1e42:	b8 01 00 00 00       	mov    $0x1,%eax
    1e47:	8a 4d f0             	mov    -0x10(%ebp),%cl
    1e4a:	d3 e0                	shl    %cl,%eax
    1e4c:	48                   	dec    %eax
    1e4d:	f7 df                	neg    %edi
    1e4f:	21 c7                	and    %eax,%edi
    1e51:	f7 df                	neg    %edi
    1e53:	8b 45 14             	mov    0x14(%ebp),%eax
    1e56:	89 b8 14 00 04 00    	mov    %edi,0x40014(%eax)
    1e5c:	31 c0                	xor    %eax,%eax
    1e5e:	e9 3a ff ff ff       	jmp    1d9d <usb_hid_report_parse_global_tag+0x5d>
    1e63:	90                   	nop
    1e64:	8d 74 26 00          	lea    0x0(%esi,%eiz,1),%esi
    1e68:	31 ff                	xor    %edi,%edi
    1e6a:	31 c0                	xor    %eax,%eax
    1e6c:	85 db                	test   %ebx,%ebx
    1e6e:	74 1a                	je     1e8a <usb_hid_report_parse_global_tag+0x14a>
    1e70:	0f b6 34 02          	movzbl (%edx,%eax,1),%esi
    1e74:	8d 0c c5 00 00 00 00 	lea    0x0(,%eax,8),%ecx
    1e7b:	81 e6 ff 00 00 00    	and    $0xff,%esi
    1e81:	d3 e6                	shl    %cl,%esi
    1e83:	40                   	inc    %eax
    1e84:	09 f7                	or     %esi,%edi
    1e86:	39 c3                	cmp    %eax,%ebx
    1e88:	75 e6                	jne    1e70 <usb_hid_report_parse_global_tag+0x130>
    1e8a:	8b 45 14             	mov    0x14(%ebp),%eax
    1e8d:	89 b8 28 00 04 00    	mov    %edi,0x40028(%eax)
    1e93:	31 c0                	xor    %eax,%eax
    1e95:	e9 03 ff ff ff       	jmp    1d9d <usb_hid_report_parse_global_tag+0x5d>
    1e9a:	8d b6 00 00 00 00    	lea    0x0(%esi),%esi
    1ea0:	31 ff                	xor    %edi,%edi
    1ea2:	31 c0                	xor    %eax,%eax
    1ea4:	85 db                	test   %ebx,%ebx
    1ea6:	74 1a                	je     1ec2 <usb_hid_report_parse_global_tag+0x182>
    1ea8:	0f b6 34 02          	movzbl (%edx,%eax,1),%esi
    1eac:	8d 0c c5 00 00 00 00 	lea    0x0(,%eax,8),%ecx
    1eb3:	81 e6 ff 00 00 00    	and    $0xff,%esi
    1eb9:	d3 e6                	shl    %cl,%esi
    1ebb:	40                   	inc    %eax
    1ebc:	09 f7                	or     %esi,%edi
    1ebe:	39 c3                	cmp    %eax,%ebx
    1ec0:	75 e6                	jne    1ea8 <usb_hid_report_parse_global_tag+0x168>
    1ec2:	8b 45 14             	mov    0x14(%ebp),%eax
    1ec5:	89 b8 2c 00 04 00    	mov    %edi,0x4002c(%eax)
    1ecb:	31 c0                	xor    %eax,%eax
    1ecd:	e9 cb fe ff ff       	jmp    1d9d <usb_hid_report_parse_global_tag+0x5d>
    1ed2:	8d b6 00 00 00 00    	lea    0x0(%esi),%esi
    1ed8:	31 f6                	xor    %esi,%esi
    1eda:	31 c0                	xor    %eax,%eax
    1edc:	31 ff                	xor    %edi,%edi
    1ede:	85 db                	test   %ebx,%ebx
    1ee0:	74 71                	je     1f53 <usb_hid_report_parse_global_tag+0x213>
    1ee2:	8d b6 00 00 00 00    	lea    0x0(%esi),%esi
    1ee8:	0f b6 3c 02          	movzbl (%edx,%eax,1),%edi
    1eec:	8d 0c c5 00 00 00 00 	lea    0x0(,%eax,8),%ecx
    1ef3:	81 e7 ff 00 00 00    	and    $0xff,%edi
    1ef9:	d3 e7                	shl    %cl,%edi
    1efb:	40                   	inc    %eax
    1efc:	09 fe                	or     %edi,%esi
    1efe:	39 c3                	cmp    %eax,%ebx
    1f00:	75 e6                	jne    1ee8 <usb_hid_report_parse_global_tag+0x1a8>
    1f02:	8d 0c c5 00 00 00 00 	lea    0x0(,%eax,8),%ecx
    1f09:	bf 01 00 00 00       	mov    $0x1,%edi
    1f0e:	89 4d f0             	mov    %ecx,-0x10(%ebp)
    1f11:	49                   	dec    %ecx
    1f12:	d3 e7                	shl    %cl,%edi
    1f14:	85 f7                	test   %esi,%edi
    1f16:	bf 00 00 00 00       	mov    $0x0,%edi
    1f1b:	0f 84 ff 01 00 00    	je     2120 <usb_hid_report_parse_global_tag+0x3e0>
    1f21:	31 db                	xor    %ebx,%ebx
    1f23:	90                   	nop
    1f24:	8d 74 26 00          	lea    0x0(%esi,%eiz,1),%esi
    1f28:	0f b6 34 1a          	movzbl (%edx,%ebx,1),%esi
    1f2c:	8d 0c dd 00 00 00 00 	lea    0x0(,%ebx,8),%ecx
    1f33:	81 e6 ff 00 00 00    	and    $0xff,%esi
    1f39:	d3 e6                	shl    %cl,%esi
    1f3b:	43                   	inc    %ebx
    1f3c:	09 f7                	or     %esi,%edi
    1f3e:	39 d8                	cmp    %ebx,%eax
    1f40:	75 e6                	jne    1f28 <usb_hid_report_parse_global_tag+0x1e8>
    1f42:	b8 01 00 00 00       	mov    $0x1,%eax
    1f47:	8a 4d f0             	mov    -0x10(%ebp),%cl
    1f4a:	d3 e0                	shl    %cl,%eax
    1f4c:	48                   	dec    %eax
    1f4d:	f7 df                	neg    %edi
    1f4f:	21 c7                	and    %eax,%edi
    1f51:	f7 df                	neg    %edi
    1f53:	8b 45 14             	mov    0x14(%ebp),%eax
    1f56:	89 b8 48 00 04 00    	mov    %edi,0x40048(%eax)
    1f5c:	31 c0                	xor    %eax,%eax
    1f5e:	e9 3a fe ff ff       	jmp    1d9d <usb_hid_report_parse_global_tag+0x5d>
    1f63:	90                   	nop
    1f64:	8d 74 26 00          	lea    0x0(%esi,%eiz,1),%esi
    1f68:	31 ff                	xor    %edi,%edi
    1f6a:	31 c0                	xor    %eax,%eax
    1f6c:	85 db                	test   %ebx,%ebx
    1f6e:	74 1a                	je     1f8a <usb_hid_report_parse_global_tag+0x24a>
    1f70:	0f b6 34 02          	movzbl (%edx,%eax,1),%esi
    1f74:	8d 0c c5 00 00 00 00 	lea    0x0(,%eax,8),%ecx
    1f7b:	81 e6 ff 00 00 00    	and    $0xff,%esi
    1f81:	d3 e6                	shl    %cl,%esi
    1f83:	40                   	inc    %eax
    1f84:	09 f7                	or     %esi,%edi
    1f86:	39 c3                	cmp    %eax,%ebx
    1f88:	75 e6                	jne    1f70 <usb_hid_report_parse_global_tag+0x230>
    1f8a:	8b 45 14             	mov    0x14(%ebp),%eax
    1f8d:	89 b8 1c 00 04 00    	mov    %edi,0x4001c(%eax)
    1f93:	31 c0                	xor    %eax,%eax
    1f95:	e9 03 fe ff ff       	jmp    1d9d <usb_hid_report_parse_global_tag+0x5d>
    1f9a:	8d b6 00 00 00 00    	lea    0x0(%esi),%esi
    1fa0:	31 ff                	xor    %edi,%edi
    1fa2:	31 c0                	xor    %eax,%eax
    1fa4:	85 db                	test   %ebx,%ebx
    1fa6:	74 1a                	je     1fc2 <usb_hid_report_parse_global_tag+0x282>
    1fa8:	0f b6 34 02          	movzbl (%edx,%eax,1),%esi
    1fac:	8d 0c c5 00 00 00 00 	lea    0x0(,%eax,8),%ecx
    1fb3:	81 e6 ff 00 00 00    	and    $0xff,%esi
    1fb9:	d3 e6                	shl    %cl,%esi
    1fbb:	40                   	inc    %eax
    1fbc:	09 f7                	or     %esi,%edi
    1fbe:	39 c3                	cmp    %eax,%ebx
    1fc0:	75 e6                	jne    1fa8 <usb_hid_report_parse_global_tag+0x268>
    1fc2:	8b 45 14             	mov    0x14(%ebp),%eax
    1fc5:	89 38                	mov    %edi,(%eax)
    1fc7:	b8 03 00 00 00       	mov    $0x3,%eax
    1fcc:	e9 cc fd ff ff       	jmp    1d9d <usb_hid_report_parse_global_tag+0x5d>
    1fd1:	8d b4 26 00 00 00 00 	lea    0x0(%esi,%eiz,1),%esi
    1fd8:	31 f6                	xor    %esi,%esi
    1fda:	31 c0                	xor    %eax,%eax
    1fdc:	31 ff                	xor    %edi,%edi
    1fde:	85 db                	test   %ebx,%ebx
    1fe0:	74 71                	je     2053 <usb_hid_report_parse_global_tag+0x313>
    1fe2:	8d b6 00 00 00 00    	lea    0x0(%esi),%esi
    1fe8:	0f b6 3c 02          	movzbl (%edx,%eax,1),%edi
    1fec:	8d 0c c5 00 00 00 00 	lea    0x0(,%eax,8),%ecx
    1ff3:	81 e7 ff 00 00 00    	and    $0xff,%edi
    1ff9:	d3 e7                	shl    %cl,%edi
    1ffb:	40                   	inc    %eax
    1ffc:	09 fe                	or     %edi,%esi
    1ffe:	39 c3                	cmp    %eax,%ebx
    2000:	75 e6                	jne    1fe8 <usb_hid_report_parse_global_tag+0x2a8>
    2002:	8d 0c c5 00 00 00 00 	lea    0x0(,%eax,8),%ecx
    2009:	bf 01 00 00 00       	mov    $0x1,%edi
    200e:	89 4d f0             	mov    %ecx,-0x10(%ebp)
    2011:	49                   	dec    %ecx
    2012:	d3 e7                	shl    %cl,%edi
    2014:	85 f7                	test   %esi,%edi
    2016:	bf 00 00 00 00       	mov    $0x0,%edi
    201b:	0f 84 d7 00 00 00    	je     20f8 <usb_hid_report_parse_global_tag+0x3b8>
    2021:	31 db                	xor    %ebx,%ebx
    2023:	90                   	nop
    2024:	8d 74 26 00          	lea    0x0(%esi,%eiz,1),%esi
    2028:	0f b6 34 1a          	movzbl (%edx,%ebx,1),%esi
    202c:	8d 0c dd 00 00 00 00 	lea    0x0(,%ebx,8),%ecx
    2033:	81 e6 ff 00 00 00    	and    $0xff,%esi
    2039:	d3 e6                	shl    %cl,%esi
    203b:	43                   	inc    %ebx
    203c:	09 f7                	or     %esi,%edi
    203e:	39 d8                	cmp    %ebx,%eax
    2040:	75 e6                	jne    2028 <usb_hid_report_parse_global_tag+0x2e8>
    2042:	b8 01 00 00 00       	mov    $0x1,%eax
    2047:	8a 4d f0             	mov    -0x10(%ebp),%cl
    204a:	d3 e0                	shl    %cl,%eax
    204c:	48                   	dec    %eax
    204d:	f7 df                	neg    %edi
    204f:	21 c7                	and    %eax,%edi
    2051:	f7 df                	neg    %edi
    2053:	8b 45 14             	mov    0x14(%ebp),%eax
    2056:	89 b8 18 00 04 00    	mov    %edi,0x40018(%eax)
    205c:	31 c0                	xor    %eax,%eax
    205e:	e9 3a fd ff ff       	jmp    1d9d <usb_hid_report_parse_global_tag+0x5d>
    2063:	90                   	nop
    2064:	8d 74 26 00          	lea    0x0(%esi,%eiz,1),%esi
    2068:	31 f6                	xor    %esi,%esi
    206a:	31 c0                	xor    %eax,%eax
    206c:	31 ff                	xor    %edi,%edi
    206e:	85 db                	test   %ebx,%ebx
    2070:	74 71                	je     20e3 <usb_hid_report_parse_global_tag+0x3a3>
    2072:	8d b6 00 00 00 00    	lea    0x0(%esi),%esi
    2078:	0f b6 3c 02          	movzbl (%edx,%eax,1),%edi
    207c:	8d 0c c5 00 00 00 00 	lea    0x0(,%eax,8),%ecx
    2083:	81 e7 ff 00 00 00    	and    $0xff,%edi
    2089:	d3 e7                	shl    %cl,%edi
    208b:	40                   	inc    %eax
    208c:	09 fe                	or     %edi,%esi
    208e:	39 c3                	cmp    %eax,%ebx
    2090:	75 e6                	jne    2078 <usb_hid_report_parse_global_tag+0x338>
    2092:	8d 0c c5 00 00 00 00 	lea    0x0(,%eax,8),%ecx
    2099:	bf 01 00 00 00       	mov    $0x1,%edi
    209e:	89 4d f0             	mov    %ecx,-0x10(%ebp)
    20a1:	49                   	dec    %ecx
    20a2:	d3 e7                	shl    %cl,%edi
    20a4:	85 f7                	test   %esi,%edi
    20a6:	bf 00 00 00 00       	mov    $0x0,%edi
    20ab:	0f 84 97 00 00 00    	je     2148 <usb_hid_report_parse_global_tag+0x408>
    20b1:	31 db                	xor    %ebx,%ebx
    20b3:	90                   	nop
    20b4:	8d 74 26 00          	lea    0x0(%esi,%eiz,1),%esi
    20b8:	0f b6 34 1a          	movzbl (%edx,%ebx,1),%esi
    20bc:	8d 0c dd 00 00 00 00 	lea    0x0(,%ebx,8),%ecx
    20c3:	81 e6 ff 00 00 00    	and    $0xff,%esi
    20c9:	d3 e6                	shl    %cl,%esi
    20cb:	43                   	inc    %ebx
    20cc:	09 f7                	or     %esi,%edi
    20ce:	39 d8                	cmp    %ebx,%eax
    20d0:	75 e6                	jne    20b8 <usb_hid_report_parse_global_tag+0x378>
    20d2:	b8 01 00 00 00       	mov    $0x1,%eax
    20d7:	8a 4d f0             	mov    -0x10(%ebp),%cl
    20da:	d3 e0                	shl    %cl,%eax
    20dc:	48                   	dec    %eax
    20dd:	f7 df                	neg    %edi
    20df:	21 c7                	and    %eax,%edi
    20e1:	f7 df                	neg    %edi
    20e3:	8b 45 14             	mov    0x14(%ebp),%eax
    20e6:	89 b8 4c 00 04 00    	mov    %edi,0x4004c(%eax)
    20ec:	31 c0                	xor    %eax,%eax
    20ee:	e9 aa fc ff ff       	jmp    1d9d <usb_hid_report_parse_global_tag+0x5d>
    20f3:	90                   	nop
    20f4:	8d 74 26 00          	lea    0x0(%esi,%eiz,1),%esi
    20f8:	31 c0                	xor    %eax,%eax
    20fa:	8d b6 00 00 00 00    	lea    0x0(%esi),%esi
    2100:	0f b6 34 02          	movzbl (%edx,%eax,1),%esi
    2104:	8d 0c c5 00 00 00 00 	lea    0x0(,%eax,8),%ecx
    210b:	81 e6 ff 00 00 00    	and    $0xff,%esi
    2111:	d3 e6                	shl    %cl,%esi
    2113:	40                   	inc    %eax
    2114:	09 f7                	or     %esi,%edi
    2116:	39 c3                	cmp    %eax,%ebx
    2118:	75 e6                	jne    2100 <usb_hid_report_parse_global_tag+0x3c0>
    211a:	e9 34 ff ff ff       	jmp    2053 <usb_hid_report_parse_global_tag+0x313>
    211f:	90                   	nop
    2120:	31 c0                	xor    %eax,%eax
    2122:	8d b6 00 00 00 00    	lea    0x0(%esi),%esi
    2128:	0f b6 34 02          	movzbl (%edx,%eax,1),%esi
    212c:	8d 0c c5 00 00 00 00 	lea    0x0(,%eax,8),%ecx
    2133:	81 e6 ff 00 00 00    	and    $0xff,%esi
    2139:	d3 e6                	shl    %cl,%esi
    213b:	40                   	inc    %eax
    213c:	09 f7                	or     %esi,%edi
    213e:	39 c3                	cmp    %eax,%ebx
    2140:	75 e6                	jne    2128 <usb_hid_report_parse_global_tag+0x3e8>
    2142:	e9 0c fe ff ff       	jmp    1f53 <usb_hid_report_parse_global_tag+0x213>
    2147:	90                   	nop
    2148:	31 c0                	xor    %eax,%eax
    214a:	8d b6 00 00 00 00    	lea    0x0(%esi),%esi
    2150:	0f b6 34 02          	movzbl (%edx,%eax,1),%esi
    2154:	8d 0c c5 00 00 00 00 	lea    0x0(,%eax,8),%ecx
    215b:	81 e6 ff 00 00 00    	and    $0xff,%esi
    2161:	d3 e6                	shl    %cl,%esi
    2163:	40                   	inc    %eax
    2164:	09 f7                	or     %esi,%edi
    2166:	39 c3                	cmp    %eax,%ebx
    2168:	75 e6                	jne    2150 <usb_hid_report_parse_global_tag+0x410>
    216a:	e9 74 ff ff ff       	jmp    20e3 <usb_hid_report_parse_global_tag+0x3a3>
    216f:	90                   	nop
    2170:	31 c0                	xor    %eax,%eax
    2172:	8d b6 00 00 00 00    	lea    0x0(%esi),%esi
    2178:	0f b6 34 02          	movzbl (%edx,%eax,1),%esi
    217c:	8d 0c c5 00 00 00 00 	lea    0x0(,%eax,8),%ecx
    2183:	81 e6 ff 00 00 00    	and    $0xff,%esi
    2189:	d3 e6                	shl    %cl,%esi
    218b:	40                   	inc    %eax
    218c:	09 f7                	or     %esi,%edi
    218e:	39 c3                	cmp    %eax,%ebx
    2190:	75 e6                	jne    2178 <usb_hid_report_parse_global_tag+0x438>
    2192:	e9 bc fc ff ff       	jmp    1e53 <usb_hid_report_parse_global_tag+0x113>
    2197:	b8 02 00 00 00       	mov    $0x2,%eax
    219c:	e9 fc fb ff ff       	jmp    1d9d <usb_hid_report_parse_global_tag+0x5d>
    21a1:	eb 0d                	jmp    21b0 <usb_hid_report_parse_tag>
    21a3:	90                   	nop
    21a4:	90                   	nop
    21a5:	90                   	nop
    21a6:	90                   	nop
    21a7:	90                   	nop
    21a8:	90                   	nop
    21a9:	90                   	nop
    21aa:	90                   	nop
    21ab:	90                   	nop
    21ac:	90                   	nop
    21ad:	90                   	nop
    21ae:	90                   	nop
    21af:	90                   	nop

000021b0 <usb_hid_report_parse_tag>:
    21b0:	55                   	push   %ebp
    21b1:	89 e5                	mov    %esp,%ebp
    21b3:	57                   	push   %edi
    21b4:	56                   	push   %esi
    21b5:	53                   	push   %ebx
    21b6:	83 ec 1c             	sub    $0x1c,%esp
    21b9:	8b 75 0c             	mov    0xc(%ebp),%esi
    21bc:	8b 45 08             	mov    0x8(%ebp),%eax
    21bf:	8b 7d 18             	mov    0x18(%ebp),%edi
    21c2:	89 f1                	mov    %esi,%ecx
    21c4:	89 45 e0             	mov    %eax,-0x20(%ebp)
    21c7:	8b 55 10             	mov    0x10(%ebp),%edx
    21ca:	8b 45 14             	mov    0x14(%ebp),%eax
    21cd:	89 7d e4             	mov    %edi,-0x1c(%ebp)
    21d0:	8b 5d 1c             	mov    0x1c(%ebp),%ebx
    21d3:	80 f9 01             	cmp    $0x1,%cl
    21d6:	74 40                	je     2218 <usb_hid_report_parse_tag+0x68>
    21d8:	72 1e                	jb     21f8 <usb_hid_report_parse_tag+0x48>
    21da:	80 f9 02             	cmp    $0x2,%cl
    21dd:	75 29                	jne    2208 <usb_hid_report_parse_tag+0x58>
    21df:	8b 7d e0             	mov    -0x20(%ebp),%edi
    21e2:	89 f9                	mov    %edi,%ecx
    21e4:	80 f9 0a             	cmp    $0xa,%cl
    21e7:	77 1f                	ja     2208 <usb_hid_report_parse_tag+0x58>
    21e9:	81 e1 ff 00 00 00    	and    $0xff,%ecx
    21ef:	ff 24 8d 00 51 00 00 	jmp    *0x5100(,%ecx,4)
    21f6:	66 90                	xchg   %ax,%ax
    21f8:	8a 45 e0             	mov    -0x20(%ebp),%al
    21fb:	83 e8 08             	sub    $0x8,%eax
    21fe:	3c 04                	cmp    $0x4,%al
    2200:	76 36                	jbe    2238 <usb_hid_report_parse_tag+0x88>
    2202:	8d b6 00 00 00 00    	lea    0x0(%esi),%esi
    2208:	b8 02 00 00 00       	mov    $0x2,%eax
    220d:	8d 65 f4             	lea    -0xc(%ebp),%esp
    2210:	5b                   	pop    %ebx
    2211:	5e                   	pop    %esi
    2212:	5f                   	pop    %edi
    2213:	5d                   	pop    %ebp
    2214:	c3                   	ret    
    2215:	8d 76 00             	lea    0x0(%esi),%esi
    2218:	31 c9                	xor    %ecx,%ecx
    221a:	89 5d 18             	mov    %ebx,0x18(%ebp)
    221d:	8a 4d e0             	mov    -0x20(%ebp),%cl
    2220:	89 7d 14             	mov    %edi,0x14(%ebp)
    2223:	89 45 10             	mov    %eax,0x10(%ebp)
    2226:	89 55 0c             	mov    %edx,0xc(%ebp)
    2229:	89 4d 08             	mov    %ecx,0x8(%ebp)
    222c:	8d 65 f4             	lea    -0xc(%ebp),%esp
    222f:	5b                   	pop    %ebx
    2230:	5e                   	pop    %esi
    2231:	5f                   	pop    %edi
    2232:	5d                   	pop    %ebp
    2233:	e9 08 fb ff ff       	jmp    1d40 <usb_hid_report_parse_global_tag>
    2238:	31 c9                	xor    %ecx,%ecx
    223a:	88 c1                	mov    %al,%cl
    223c:	ff 24 8d 2c 51 00 00 	jmp    *0x512c(,%ecx,4)
    2243:	90                   	nop
    2244:	8d 74 26 00          	lea    0x0(%esi,%eiz,1),%esi
    2248:	8b 43 14             	mov    0x14(%ebx),%eax
    224b:	8d 4b 10             	lea    0x10(%ebx),%ecx
    224e:	39 c8                	cmp    %ecx,%eax
    2250:	0f 84 3a 04 00 00    	je     2690 <usb_hid_report_parse_tag+0x4e0>
    2256:	83 e8 0c             	sub    $0xc,%eax
    2259:	8a 12                	mov    (%edx),%dl
    225b:	88 50 08             	mov    %dl,0x8(%eax)
    225e:	56                   	push   %esi
    225f:	8b 87 04 00 04 00    	mov    0x40004(%edi),%eax
    2265:	66 8b 4c 87 06       	mov    0x6(%edi,%eax,4),%cx
    226a:	81 e1 ff ff 00 00    	and    $0xffff,%ecx
    2270:	51                   	push   %ecx
    2271:	6a 01                	push   $0x1
    2273:	53                   	push   %ebx
    2274:	e8 97 1e 00 00       	call   4110 <usb_hid_report_set_last_item>
    2279:	8b 87 04 00 04 00    	mov    0x40004(%edi),%eax
    227f:	83 c4 0c             	add    $0xc,%esp
    2282:	8b 4c 87 04          	mov    0x4(%edi,%eax,4),%ecx
    2286:	81 e1 ff ff 00 00    	and    $0xffff,%ecx
    228c:	51                   	push   %ecx
    228d:	6a 02                	push   $0x2
    228f:	53                   	push   %ebx
    2290:	e8 7b 1e 00 00       	call   4110 <usb_hid_report_set_last_item>
    2295:	8b 87 04 00 04 00    	mov    0x40004(%edi),%eax
    229b:	83 c4 0c             	add    $0xc,%esp
    229e:	8b 44 87 04          	mov    0x4(%edi,%eax,4),%eax
    22a2:	50                   	push   %eax
    22a3:	8b 87 08 00 04 00    	mov    0x40008(%edi),%eax
    22a9:	50                   	push   %eax
    22aa:	53                   	push   %ebx
    22ab:	e8 70 1d 00 00       	call   4020 <usb_hid_report_path_append_item>
    22b0:	89 3c 24             	mov    %edi,(%esp)
    22b3:	e8 d8 1c 00 00       	call   3f90 <usb_hid_report_reset_local_items>
    22b8:	83 c4 10             	add    $0x10,%esp
    22bb:	b8 02 00 00 00       	mov    $0x2,%eax
    22c0:	e9 48 ff ff ff       	jmp    220d <usb_hid_report_parse_tag+0x5d>
    22c5:	8d 76 00             	lea    0x0(%esi),%esi
    22c8:	8a 02                	mov    (%edx),%al
    22ca:	8b 55 e4             	mov    -0x1c(%ebp),%edx
    22cd:	88 45 e0             	mov    %al,-0x20(%ebp)
    22d0:	88 82 50 00 04 00    	mov    %al,0x40050(%edx)
    22d6:	b8 01 00 00 00       	mov    $0x1,%eax
    22db:	e9 2d ff ff ff       	jmp    220d <usb_hid_report_parse_tag+0x5d>
    22e0:	83 ec 0c             	sub    $0xc,%esp
    22e3:	53                   	push   %ebx
    22e4:	e8 87 1d 00 00       	call   4070 <usb_hid_report_remove_last_item>
    22e9:	83 c4 10             	add    $0x10,%esp
    22ec:	b8 02 00 00 00       	mov    $0x2,%eax
    22f1:	e9 17 ff ff ff       	jmp    220d <usb_hid_report_parse_tag+0x5d>
    22f6:	66 90                	xchg   %ax,%ax
    22f8:	31 ff                	xor    %edi,%edi
    22fa:	31 db                	xor    %ebx,%ebx
    22fc:	85 c0                	test   %eax,%eax
    22fe:	74 1a                	je     231a <usb_hid_report_parse_tag+0x16a>
    2300:	0f b6 34 1a          	movzbl (%edx,%ebx,1),%esi
    2304:	8d 0c dd 00 00 00 00 	lea    0x0(,%ebx,8),%ecx
    230b:	81 e6 ff 00 00 00    	and    $0xff,%esi
    2311:	d3 e6                	shl    %cl,%esi
    2313:	43                   	inc    %ebx
    2314:	09 f7                	or     %esi,%edi
    2316:	39 d8                	cmp    %ebx,%eax
    2318:	75 e6                	jne    2300 <usb_hid_report_parse_tag+0x150>
    231a:	8b 45 e4             	mov    -0x1c(%ebp),%eax
    231d:	89 b8 64 00 04 00    	mov    %edi,0x40064(%eax)
    2323:	31 c0                	xor    %eax,%eax
    2325:	e9 e3 fe ff ff       	jmp    220d <usb_hid_report_parse_tag+0x5d>
    232a:	8d b6 00 00 00 00    	lea    0x0(%esi),%esi
    2330:	8b 7d e4             	mov    -0x1c(%ebp),%edi
    2333:	8b 8f 64 00 04 00    	mov    0x40064(%edi),%ecx
    2339:	85 c9                	test   %ecx,%ecx
    233b:	74 11                	je     234e <usb_hid_report_parse_tag+0x19e>
    233d:	49                   	dec    %ecx
    233e:	0f 85 d8 02 00 00    	jne    261c <usb_hid_report_parse_tag+0x46c>
    2344:	c7 87 64 00 04 00 02 	movl   $0x2,0x40064(%edi)
    234b:	00 00 00 
    234e:	8b bf 08 00 04 00    	mov    0x40008(%edi),%edi
    2354:	c1 e7 10             	shl    $0x10,%edi
    2357:	89 7d e0             	mov    %edi,-0x20(%ebp)
    235a:	31 ff                	xor    %edi,%edi
    235c:	85 c0                	test   %eax,%eax
    235e:	74 22                	je     2382 <usb_hid_report_parse_tag+0x1d2>
    2360:	31 db                	xor    %ebx,%ebx
    2362:	8d b6 00 00 00 00    	lea    0x0(%esi),%esi
    2368:	0f b6 34 1a          	movzbl (%edx,%ebx,1),%esi
    236c:	8d 0c dd 00 00 00 00 	lea    0x0(,%ebx,8),%ecx
    2373:	81 e6 ff 00 00 00    	and    $0xff,%esi
    2379:	d3 e6                	shl    %cl,%esi
    237b:	43                   	inc    %ebx
    237c:	09 f7                	or     %esi,%edi
    237e:	39 d8                	cmp    %ebx,%eax
    2380:	75 e6                	jne    2368 <usb_hid_report_parse_tag+0x1b8>
    2382:	8b 55 e4             	mov    -0x1c(%ebp),%edx
    2385:	8b 4d e0             	mov    -0x20(%ebp),%ecx
    2388:	01 cf                	add    %ecx,%edi
    238a:	8b 82 04 00 04 00    	mov    0x40004(%edx),%eax
    2390:	89 7c 82 08          	mov    %edi,0x8(%edx,%eax,4)
    2394:	40                   	inc    %eax
    2395:	89 82 04 00 04 00    	mov    %eax,0x40004(%edx)
    239b:	31 c0                	xor    %eax,%eax
    239d:	e9 6b fe ff ff       	jmp    220d <usb_hid_report_parse_tag+0x5d>
    23a2:	8d b6 00 00 00 00    	lea    0x0(%esi),%esi
    23a8:	83 f8 03             	cmp    $0x3,%eax
    23ab:	0f 84 b3 02 00 00    	je     2664 <usb_hid_report_parse_tag+0x4b4>
    23b1:	31 ff                	xor    %edi,%edi
    23b3:	31 db                	xor    %ebx,%ebx
    23b5:	85 c0                	test   %eax,%eax
    23b7:	74 21                	je     23da <usb_hid_report_parse_tag+0x22a>
    23b9:	8d b4 26 00 00 00 00 	lea    0x0(%esi,%eiz,1),%esi
    23c0:	0f b6 34 1a          	movzbl (%edx,%ebx,1),%esi
    23c4:	8d 0c dd 00 00 00 00 	lea    0x0(,%ebx,8),%ecx
    23cb:	81 e6 ff 00 00 00    	and    $0xff,%esi
    23d1:	d3 e6                	shl    %cl,%esi
    23d3:	43                   	inc    %ebx
    23d4:	09 f7                	or     %esi,%edi
    23d6:	39 d8                	cmp    %ebx,%eax
    23d8:	75 e6                	jne    23c0 <usb_hid_report_parse_tag+0x210>
    23da:	8b 45 e4             	mov    -0x1c(%ebp),%eax
    23dd:	89 b8 0c 00 04 00    	mov    %edi,0x4000c(%eax)
    23e3:	31 c0                	xor    %eax,%eax
    23e5:	e9 23 fe ff ff       	jmp    220d <usb_hid_report_parse_tag+0x5d>
    23ea:	8d b6 00 00 00 00    	lea    0x0(%esi),%esi
    23f0:	31 ff                	xor    %edi,%edi
    23f2:	31 db                	xor    %ebx,%ebx
    23f4:	85 c0                	test   %eax,%eax
    23f6:	74 1a                	je     2412 <usb_hid_report_parse_tag+0x262>
    23f8:	0f b6 34 1a          	movzbl (%edx,%ebx,1),%esi
    23fc:	8d 0c dd 00 00 00 00 	lea    0x0(,%ebx,8),%ecx
    2403:	81 e6 ff 00 00 00    	and    $0xff,%esi
    2409:	d3 e6                	shl    %cl,%esi
    240b:	43                   	inc    %ebx
    240c:	09 f7                	or     %esi,%edi
    240e:	39 d8                	cmp    %ebx,%eax
    2410:	75 e6                	jne    23f8 <usb_hid_report_parse_tag+0x248>
    2412:	8b 45 e4             	mov    -0x1c(%ebp),%eax
    2415:	89 b8 44 00 04 00    	mov    %edi,0x40044(%eax)
    241b:	31 c0                	xor    %eax,%eax
    241d:	e9 eb fd ff ff       	jmp    220d <usb_hid_report_parse_tag+0x5d>
    2422:	8d b6 00 00 00 00    	lea    0x0(%esi),%esi
    2428:	31 ff                	xor    %edi,%edi
    242a:	31 db                	xor    %ebx,%ebx
    242c:	85 c0                	test   %eax,%eax
    242e:	74 1a                	je     244a <usb_hid_report_parse_tag+0x29a>
    2430:	0f b6 34 1a          	movzbl (%edx,%ebx,1),%esi
    2434:	8d 0c dd 00 00 00 00 	lea    0x0(,%ebx,8),%ecx
    243b:	81 e6 ff 00 00 00    	and    $0xff,%esi
    2441:	d3 e6                	shl    %cl,%esi
    2443:	43                   	inc    %ebx
    2444:	09 f7                	or     %esi,%edi
    2446:	39 d8                	cmp    %ebx,%eax
    2448:	75 e6                	jne    2430 <usb_hid_report_parse_tag+0x280>
    244a:	8b 45 e4             	mov    -0x1c(%ebp),%eax
    244d:	89 b8 30 00 04 00    	mov    %edi,0x40030(%eax)
    2453:	31 c0                	xor    %eax,%eax
    2455:	e9 b3 fd ff ff       	jmp    220d <usb_hid_report_parse_tag+0x5d>
    245a:	8d b6 00 00 00 00    	lea    0x0(%esi),%esi
    2460:	31 ff                	xor    %edi,%edi
    2462:	31 db                	xor    %ebx,%ebx
    2464:	85 c0                	test   %eax,%eax
    2466:	74 1a                	je     2482 <usb_hid_report_parse_tag+0x2d2>
    2468:	0f b6 34 1a          	movzbl (%edx,%ebx,1),%esi
    246c:	8d 0c dd 00 00 00 00 	lea    0x0(,%ebx,8),%ecx
    2473:	81 e6 ff 00 00 00    	and    $0xff,%esi
    2479:	d3 e6                	shl    %cl,%esi
    247b:	43                   	inc    %ebx
    247c:	09 f7                	or     %esi,%edi
    247e:	39 d8                	cmp    %ebx,%eax
    2480:	75 e6                	jne    2468 <usb_hid_report_parse_tag+0x2b8>
    2482:	8b 45 e4             	mov    -0x1c(%ebp),%eax
    2485:	89 b8 3c 00 04 00    	mov    %edi,0x4003c(%eax)
    248b:	31 c0                	xor    %eax,%eax
    248d:	e9 7b fd ff ff       	jmp    220d <usb_hid_report_parse_tag+0x5d>
    2492:	8d b6 00 00 00 00    	lea    0x0(%esi),%esi
    2498:	31 ff                	xor    %edi,%edi
    249a:	31 db                	xor    %ebx,%ebx
    249c:	85 c0                	test   %eax,%eax
    249e:	74 1a                	je     24ba <usb_hid_report_parse_tag+0x30a>
    24a0:	0f b6 34 1a          	movzbl (%edx,%ebx,1),%esi
    24a4:	8d 0c dd 00 00 00 00 	lea    0x0(,%ebx,8),%ecx
    24ab:	81 e6 ff 00 00 00    	and    $0xff,%esi
    24b1:	d3 e6                	shl    %cl,%esi
    24b3:	43                   	inc    %ebx
    24b4:	09 f7                	or     %esi,%edi
    24b6:	39 d8                	cmp    %ebx,%eax
    24b8:	75 e6                	jne    24a0 <usb_hid_report_parse_tag+0x2f0>
    24ba:	8b 45 e4             	mov    -0x1c(%ebp),%eax
    24bd:	89 b8 34 00 04 00    	mov    %edi,0x40034(%eax)
    24c3:	31 c0                	xor    %eax,%eax
    24c5:	e9 43 fd ff ff       	jmp    220d <usb_hid_report_parse_tag+0x5d>
    24ca:	8d b6 00 00 00 00    	lea    0x0(%esi),%esi
    24d0:	83 f8 03             	cmp    $0x3,%eax
    24d3:	0f 84 4a 01 00 00    	je     2623 <usb_hid_report_parse_tag+0x473>
    24d9:	31 ff                	xor    %edi,%edi
    24db:	31 db                	xor    %ebx,%ebx
    24dd:	85 c0                	test   %eax,%eax
    24df:	74 21                	je     2502 <usb_hid_report_parse_tag+0x352>
    24e1:	8d b4 26 00 00 00 00 	lea    0x0(%esi,%eiz,1),%esi
    24e8:	0f b6 34 1a          	movzbl (%edx,%ebx,1),%esi
    24ec:	8d 0c dd 00 00 00 00 	lea    0x0(,%ebx,8),%ecx
    24f3:	81 e6 ff 00 00 00    	and    $0xff,%esi
    24f9:	d3 e6                	shl    %cl,%esi
    24fb:	43                   	inc    %ebx
    24fc:	09 f7                	or     %esi,%edi
    24fe:	39 d8                	cmp    %ebx,%eax
    2500:	75 e6                	jne    24e8 <usb_hid_report_parse_tag+0x338>
    2502:	8b 45 e4             	mov    -0x1c(%ebp),%eax
    2505:	89 b8 10 00 04 00    	mov    %edi,0x40010(%eax)
    250b:	8b 90 0c 00 04 00    	mov    0x4000c(%eax),%edx
    2511:	39 fa                	cmp    %edi,%edx
    2513:	7f 5e                	jg     2573 <usb_hid_report_parse_tag+0x3c3>
    2515:	89 c1                	mov    %eax,%ecx
    2517:	8b 40 04             	mov    0x4(%eax),%eax
    251a:	89 c3                	mov    %eax,%ebx
    251c:	c1 e3 10             	shl    $0x10,%ebx
    251f:	8b b1 04 00 04 00    	mov    0x40004(%ecx),%esi
    2525:	66 85 c0             	test   %ax,%ax
    2528:	0f 85 c2 00 00 00    	jne    25f0 <usb_hid_report_parse_tag+0x440>
    252e:	89 f0                	mov    %esi,%eax
    2530:	8b 4d e4             	mov    -0x1c(%ebp),%ecx
    2533:	29 d0                	sub    %edx,%eax
    2535:	8d 5f 01             	lea    0x1(%edi),%ebx
    2538:	89 7d dc             	mov    %edi,-0x24(%ebp)
    253b:	89 55 e0             	mov    %edx,-0x20(%ebp)
    253e:	8d 0c 81             	lea    (%ecx,%eax,4),%ecx
    2541:	8b 7d e4             	mov    -0x1c(%ebp),%edi
    2544:	8d 74 26 00          	lea    0x0(%esi,%eiz,1),%esi
    2548:	8b 87 08 00 04 00    	mov    0x40008(%edi),%eax
    254e:	c1 e0 10             	shl    $0x10,%eax
    2551:	01 d0                	add    %edx,%eax
    2553:	89 44 91 08          	mov    %eax,0x8(%ecx,%edx,4)
    2557:	42                   	inc    %edx
    2558:	39 d3                	cmp    %edx,%ebx
    255a:	75 ec                	jne    2548 <usb_hid_report_parse_tag+0x398>
    255c:	8b 45 e0             	mov    -0x20(%ebp),%eax
    255f:	8b 7d dc             	mov    -0x24(%ebp),%edi
    2562:	29 c7                	sub    %eax,%edi
    2564:	8d 44 37 01          	lea    0x1(%edi,%esi,1),%eax
    2568:	8b 55 e4             	mov    -0x1c(%ebp),%edx
    256b:	89 82 04 00 04 00    	mov    %eax,0x40004(%edx)
    2571:	89 d0                	mov    %edx,%eax
    2573:	66 c7 40 04 00 00    	movw   $0x0,0x4(%eax)
    2579:	31 c0                	xor    %eax,%eax
    257b:	e9 8d fc ff ff       	jmp    220d <usb_hid_report_parse_tag+0x5d>
    2580:	31 ff                	xor    %edi,%edi
    2582:	31 db                	xor    %ebx,%ebx
    2584:	85 c0                	test   %eax,%eax
    2586:	74 1a                	je     25a2 <usb_hid_report_parse_tag+0x3f2>
    2588:	0f b6 34 1a          	movzbl (%edx,%ebx,1),%esi
    258c:	8d 0c dd 00 00 00 00 	lea    0x0(,%ebx,8),%ecx
    2593:	81 e6 ff 00 00 00    	and    $0xff,%esi
    2599:	d3 e6                	shl    %cl,%esi
    259b:	43                   	inc    %ebx
    259c:	09 f7                	or     %esi,%edi
    259e:	39 d8                	cmp    %ebx,%eax
    25a0:	75 e6                	jne    2588 <usb_hid_report_parse_tag+0x3d8>
    25a2:	8b 45 e4             	mov    -0x1c(%ebp),%eax
    25a5:	89 b8 38 00 04 00    	mov    %edi,0x40038(%eax)
    25ab:	31 c0                	xor    %eax,%eax
    25ad:	e9 5b fc ff ff       	jmp    220d <usb_hid_report_parse_tag+0x5d>
    25b2:	8d b6 00 00 00 00    	lea    0x0(%esi),%esi
    25b8:	31 ff                	xor    %edi,%edi
    25ba:	31 db                	xor    %ebx,%ebx
    25bc:	85 c0                	test   %eax,%eax
    25be:	74 1a                	je     25da <usb_hid_report_parse_tag+0x42a>
    25c0:	0f b6 34 1a          	movzbl (%edx,%ebx,1),%esi
    25c4:	8d 0c dd 00 00 00 00 	lea    0x0(,%ebx,8),%ecx
    25cb:	81 e6 ff 00 00 00    	and    $0xff,%esi
    25d1:	d3 e6                	shl    %cl,%esi
    25d3:	43                   	inc    %ebx
    25d4:	09 f7                	or     %esi,%edi
    25d6:	39 d8                	cmp    %ebx,%eax
    25d8:	75 e6                	jne    25c0 <usb_hid_report_parse_tag+0x410>
    25da:	8b 45 e4             	mov    -0x1c(%ebp),%eax
    25dd:	89 b8 40 00 04 00    	mov    %edi,0x40040(%eax)
    25e3:	31 c0                	xor    %eax,%eax
    25e5:	e9 23 fc ff ff       	jmp    220d <usb_hid_report_parse_tag+0x5d>
    25ea:	8d b6 00 00 00 00    	lea    0x0(%esi),%esi
    25f0:	8d 4c 3b 01          	lea    0x1(%ebx,%edi,1),%ecx
    25f4:	8d 04 1a             	lea    (%edx,%ebx,1),%eax
    25f7:	89 4d e0             	mov    %ecx,-0x20(%ebp)
    25fa:	89 f1                	mov    %esi,%ecx
    25fc:	8b 5d e4             	mov    -0x1c(%ebp),%ebx
    25ff:	29 c1                	sub    %eax,%ecx
    2601:	8d 0c 8b             	lea    (%ebx,%ecx,4),%ecx
    2604:	8b 5d e0             	mov    -0x20(%ebp),%ebx
    2607:	90                   	nop
    2608:	89 44 81 08          	mov    %eax,0x8(%ecx,%eax,4)
    260c:	40                   	inc    %eax
    260d:	39 c3                	cmp    %eax,%ebx
    260f:	75 f7                	jne    2608 <usb_hid_report_parse_tag+0x458>
    2611:	29 d7                	sub    %edx,%edi
    2613:	8d 44 37 01          	lea    0x1(%edi,%esi,1),%eax
    2617:	e9 4c ff ff ff       	jmp    2568 <usb_hid_report_parse_tag+0x3b8>
    261c:	31 c0                	xor    %eax,%eax
    261e:	e9 ea fb ff ff       	jmp    220d <usb_hid_report_parse_tag+0x5d>
    2623:	31 c9                	xor    %ecx,%ecx
    2625:	8b 7d e4             	mov    -0x1c(%ebp),%edi
    2628:	8a 4a 02             	mov    0x2(%edx),%cl
    262b:	31 db                	xor    %ebx,%ebx
    262d:	66 8b 5f 04          	mov    0x4(%edi),%bx
    2631:	89 c8                	mov    %ecx,%eax
    2633:	c1 e0 10             	shl    $0x10,%eax
    2636:	39 d9                	cmp    %ebx,%ecx
    2638:	75 60                	jne    269a <usb_hid_report_parse_tag+0x4ea>
    263a:	c1 e8 10             	shr    $0x10,%eax
    263d:	89 f9                	mov    %edi,%ecx
    263f:	66 89 47 04          	mov    %ax,0x4(%edi)
    2643:	31 c0                	xor    %eax,%eax
    2645:	0f b6 7a 01          	movzbl 0x1(%edx),%edi
    2649:	81 e7 ff 00 00 00    	and    $0xff,%edi
    264f:	8a 02                	mov    (%edx),%al
    2651:	c1 e7 08             	shl    $0x8,%edi
    2654:	09 c7                	or     %eax,%edi
    2656:	8b 45 e4             	mov    -0x1c(%ebp),%eax
    2659:	89 b9 10 00 04 00    	mov    %edi,0x40010(%ecx)
    265f:	e9 a7 fe ff ff       	jmp    250b <usb_hid_report_parse_tag+0x35b>
    2664:	8b 4d e4             	mov    -0x1c(%ebp),%ecx
    2667:	31 c0                	xor    %eax,%eax
    2669:	8a 42 02             	mov    0x2(%edx),%al
    266c:	66 89 41 04          	mov    %ax,0x4(%ecx)
    2670:	31 c0                	xor    %eax,%eax
    2672:	0f b6 3a             	movzbl (%edx),%edi
    2675:	8a 42 01             	mov    0x1(%edx),%al
    2678:	81 e7 ff 00 00 00    	and    $0xff,%edi
    267e:	c1 e0 08             	shl    $0x8,%eax
    2681:	09 f8                	or     %edi,%eax
    2683:	89 81 0c 00 04 00    	mov    %eax,0x4000c(%ecx)
    2689:	31 c0                	xor    %eax,%eax
    268b:	e9 7d fb ff ff       	jmp    220d <usb_hid_report_parse_tag+0x5d>
    2690:	b8 f4 ff ff ff       	mov    $0xfffffff4,%eax
    2695:	e9 bf fb ff ff       	jmp    2259 <usb_hid_report_parse_tag+0xa9>
    269a:	b8 f2 ff ff ff       	mov    $0xfffffff2,%eax
    269f:	e9 69 fb ff ff       	jmp    220d <usb_hid_report_parse_tag+0x5d>
    26a4:	8d b6 00 00 00 00    	lea    0x0(%esi),%esi
    26aa:	8d bf 00 00 00 00    	lea    0x0(%edi),%edi

000026b0 <usb_hid_report_parse_local_tag>:
    26b0:	55                   	push   %ebp
    26b1:	89 e5                	mov    %esp,%ebp
    26b3:	57                   	push   %edi
    26b4:	56                   	push   %esi
    26b5:	53                   	push   %ebx
    26b6:	83 ec 08             	sub    $0x8,%esp
    26b9:	8b 5d 08             	mov    0x8(%ebp),%ebx
    26bc:	8b 55 0c             	mov    0xc(%ebp),%edx
    26bf:	8b 45 10             	mov    0x10(%ebp),%eax
    26c2:	80 fb 0a             	cmp    $0xa,%bl
    26c5:	0f 87 f5 02 00 00    	ja     29c0 <usb_hid_report_parse_local_tag+0x310>
    26cb:	31 c9                	xor    %ecx,%ecx
    26cd:	88 d9                	mov    %bl,%cl
    26cf:	ff 24 8d 40 51 00 00 	jmp    *0x5140(,%ecx,4)
    26d6:	66 90                	xchg   %ax,%ax
    26d8:	31 ff                	xor    %edi,%edi
    26da:	31 db                	xor    %ebx,%ebx
    26dc:	85 c0                	test   %eax,%eax
    26de:	74 1a                	je     26fa <usb_hid_report_parse_local_tag+0x4a>
    26e0:	0f b6 34 1a          	movzbl (%edx,%ebx,1),%esi
    26e4:	8d 0c dd 00 00 00 00 	lea    0x0(,%ebx,8),%ecx
    26eb:	81 e6 ff 00 00 00    	and    $0xff,%esi
    26f1:	d3 e6                	shl    %cl,%esi
    26f3:	43                   	inc    %ebx
    26f4:	09 f7                	or     %esi,%edi
    26f6:	39 d8                	cmp    %ebx,%eax
    26f8:	75 e6                	jne    26e0 <usb_hid_report_parse_local_tag+0x30>
    26fa:	8b 45 14             	mov    0x14(%ebp),%eax
    26fd:	89 b8 64 00 04 00    	mov    %edi,0x40064(%eax)
    2703:	31 c0                	xor    %eax,%eax
    2705:	e9 ab 02 00 00       	jmp    29b5 <usb_hid_report_parse_local_tag+0x305>
    270a:	8d b6 00 00 00 00    	lea    0x0(%esi),%esi
    2710:	8b 7d 14             	mov    0x14(%ebp),%edi
    2713:	8b 8f 64 00 04 00    	mov    0x40064(%edi),%ecx
    2719:	85 c9                	test   %ecx,%ecx
    271b:	74 11                	je     272e <usb_hid_report_parse_local_tag+0x7e>
    271d:	49                   	dec    %ecx
    271e:	0f 85 d4 02 00 00    	jne    29f8 <usb_hid_report_parse_local_tag+0x348>
    2724:	c7 87 64 00 04 00 02 	movl   $0x2,0x40064(%edi)
    272b:	00 00 00 
    272e:	8b bf 08 00 04 00    	mov    0x40008(%edi),%edi
    2734:	c1 e7 10             	shl    $0x10,%edi
    2737:	85 c0                	test   %eax,%eax
    2739:	89 7d f0             	mov    %edi,-0x10(%ebp)
    273c:	0f 84 35 03 00 00    	je     2a77 <usb_hid_report_parse_local_tag+0x3c7>
    2742:	31 db                	xor    %ebx,%ebx
    2744:	31 ff                	xor    %edi,%edi
    2746:	66 90                	xchg   %ax,%ax
    2748:	0f b6 34 1a          	movzbl (%edx,%ebx,1),%esi
    274c:	8d 0c dd 00 00 00 00 	lea    0x0(,%ebx,8),%ecx
    2753:	81 e6 ff 00 00 00    	and    $0xff,%esi
    2759:	d3 e6                	shl    %cl,%esi
    275b:	43                   	inc    %ebx
    275c:	09 f7                	or     %esi,%edi
    275e:	39 d8                	cmp    %ebx,%eax
    2760:	75 e6                	jne    2748 <usb_hid_report_parse_local_tag+0x98>
    2762:	8b 45 14             	mov    0x14(%ebp),%eax
    2765:	8b 55 14             	mov    0x14(%ebp),%edx
    2768:	8b 75 f0             	mov    -0x10(%ebp),%esi
    276b:	8b 80 04 00 04 00    	mov    0x40004(%eax),%eax
    2771:	01 f7                	add    %esi,%edi
    2773:	89 7c 82 08          	mov    %edi,0x8(%edx,%eax,4)
    2777:	40                   	inc    %eax
    2778:	89 82 04 00 04 00    	mov    %eax,0x40004(%edx)
    277e:	31 c0                	xor    %eax,%eax
    2780:	e9 30 02 00 00       	jmp    29b5 <usb_hid_report_parse_local_tag+0x305>
    2785:	8d 76 00             	lea    0x0(%esi),%esi
    2788:	83 f8 03             	cmp    $0x3,%eax
    278b:	0f 84 b7 02 00 00    	je     2a48 <usb_hid_report_parse_local_tag+0x398>
    2791:	31 ff                	xor    %edi,%edi
    2793:	31 db                	xor    %ebx,%ebx
    2795:	85 c0                	test   %eax,%eax
    2797:	74 21                	je     27ba <usb_hid_report_parse_local_tag+0x10a>
    2799:	8d b4 26 00 00 00 00 	lea    0x0(%esi,%eiz,1),%esi
    27a0:	0f b6 34 1a          	movzbl (%edx,%ebx,1),%esi
    27a4:	8d 0c dd 00 00 00 00 	lea    0x0(,%ebx,8),%ecx
    27ab:	81 e6 ff 00 00 00    	and    $0xff,%esi
    27b1:	d3 e6                	shl    %cl,%esi
    27b3:	43                   	inc    %ebx
    27b4:	09 f7                	or     %esi,%edi
    27b6:	39 d8                	cmp    %ebx,%eax
    27b8:	75 e6                	jne    27a0 <usb_hid_report_parse_local_tag+0xf0>
    27ba:	8b 45 14             	mov    0x14(%ebp),%eax
    27bd:	89 b8 0c 00 04 00    	mov    %edi,0x4000c(%eax)
    27c3:	31 c0                	xor    %eax,%eax
    27c5:	e9 eb 01 00 00       	jmp    29b5 <usb_hid_report_parse_local_tag+0x305>
    27ca:	8d b6 00 00 00 00    	lea    0x0(%esi),%esi
    27d0:	31 ff                	xor    %edi,%edi
    27d2:	31 db                	xor    %ebx,%ebx
    27d4:	85 c0                	test   %eax,%eax
    27d6:	74 1a                	je     27f2 <usb_hid_report_parse_local_tag+0x142>
    27d8:	0f b6 34 1a          	movzbl (%edx,%ebx,1),%esi
    27dc:	8d 0c dd 00 00 00 00 	lea    0x0(,%ebx,8),%ecx
    27e3:	81 e6 ff 00 00 00    	and    $0xff,%esi
    27e9:	d3 e6                	shl    %cl,%esi
    27eb:	43                   	inc    %ebx
    27ec:	09 f7                	or     %esi,%edi
    27ee:	39 d8                	cmp    %ebx,%eax
    27f0:	75 e6                	jne    27d8 <usb_hid_report_parse_local_tag+0x128>
    27f2:	8b 45 14             	mov    0x14(%ebp),%eax
    27f5:	89 b8 44 00 04 00    	mov    %edi,0x40044(%eax)
    27fb:	31 c0                	xor    %eax,%eax
    27fd:	e9 b3 01 00 00       	jmp    29b5 <usb_hid_report_parse_local_tag+0x305>
    2802:	8d b6 00 00 00 00    	lea    0x0(%esi),%esi
    2808:	31 ff                	xor    %edi,%edi
    280a:	31 db                	xor    %ebx,%ebx
    280c:	85 c0                	test   %eax,%eax
    280e:	74 1a                	je     282a <usb_hid_report_parse_local_tag+0x17a>
    2810:	0f b6 34 1a          	movzbl (%edx,%ebx,1),%esi
    2814:	8d 0c dd 00 00 00 00 	lea    0x0(,%ebx,8),%ecx
    281b:	81 e6 ff 00 00 00    	and    $0xff,%esi
    2821:	d3 e6                	shl    %cl,%esi
    2823:	43                   	inc    %ebx
    2824:	09 f7                	or     %esi,%edi
    2826:	39 d8                	cmp    %ebx,%eax
    2828:	75 e6                	jne    2810 <usb_hid_report_parse_local_tag+0x160>
    282a:	8b 45 14             	mov    0x14(%ebp),%eax
    282d:	89 b8 3c 00 04 00    	mov    %edi,0x4003c(%eax)
    2833:	31 c0                	xor    %eax,%eax
    2835:	e9 7b 01 00 00       	jmp    29b5 <usb_hid_report_parse_local_tag+0x305>
    283a:	8d b6 00 00 00 00    	lea    0x0(%esi),%esi
    2840:	31 ff                	xor    %edi,%edi
    2842:	31 db                	xor    %ebx,%ebx
    2844:	85 c0                	test   %eax,%eax
    2846:	74 1a                	je     2862 <usb_hid_report_parse_local_tag+0x1b2>
    2848:	0f b6 34 1a          	movzbl (%edx,%ebx,1),%esi
    284c:	8d 0c dd 00 00 00 00 	lea    0x0(,%ebx,8),%ecx
    2853:	81 e6 ff 00 00 00    	and    $0xff,%esi
    2859:	d3 e6                	shl    %cl,%esi
    285b:	43                   	inc    %ebx
    285c:	09 f7                	or     %esi,%edi
    285e:	39 d8                	cmp    %ebx,%eax
    2860:	75 e6                	jne    2848 <usb_hid_report_parse_local_tag+0x198>
    2862:	8b 45 14             	mov    0x14(%ebp),%eax
    2865:	89 b8 34 00 04 00    	mov    %edi,0x40034(%eax)
    286b:	31 c0                	xor    %eax,%eax
    286d:	e9 43 01 00 00       	jmp    29b5 <usb_hid_report_parse_local_tag+0x305>
    2872:	8d b6 00 00 00 00    	lea    0x0(%esi),%esi
    2878:	83 f8 03             	cmp    $0x3,%eax
    287b:	0f 84 7f 01 00 00    	je     2a00 <usb_hid_report_parse_local_tag+0x350>
    2881:	31 ff                	xor    %edi,%edi
    2883:	31 db                	xor    %ebx,%ebx
    2885:	85 c0                	test   %eax,%eax
    2887:	74 21                	je     28aa <usb_hid_report_parse_local_tag+0x1fa>
    2889:	8d b4 26 00 00 00 00 	lea    0x0(%esi,%eiz,1),%esi
    2890:	0f b6 34 1a          	movzbl (%edx,%ebx,1),%esi
    2894:	8d 0c dd 00 00 00 00 	lea    0x0(,%ebx,8),%ecx
    289b:	81 e6 ff 00 00 00    	and    $0xff,%esi
    28a1:	d3 e6                	shl    %cl,%esi
    28a3:	43                   	inc    %ebx
    28a4:	09 f7                	or     %esi,%edi
    28a6:	39 d8                	cmp    %ebx,%eax
    28a8:	75 e6                	jne    2890 <usb_hid_report_parse_local_tag+0x1e0>
    28aa:	8b 45 14             	mov    0x14(%ebp),%eax
    28ad:	89 b8 10 00 04 00    	mov    %edi,0x40010(%eax)
    28b3:	8b 90 0c 00 04 00    	mov    0x4000c(%eax),%edx
    28b9:	39 fa                	cmp    %edi,%edx
    28bb:	7f 5b                	jg     2918 <usb_hid_report_parse_local_tag+0x268>
    28bd:	89 c1                	mov    %eax,%ecx
    28bf:	8b 40 04             	mov    0x4(%eax),%eax
    28c2:	8b b1 04 00 04 00    	mov    0x40004(%ecx),%esi
    28c8:	89 c1                	mov    %eax,%ecx
    28ca:	c1 e1 10             	shl    $0x10,%ecx
    28cd:	66 85 c0             	test   %ax,%ax
    28d0:	0f 85 f2 00 00 00    	jne    29c8 <usb_hid_report_parse_local_tag+0x318>
    28d6:	89 f0                	mov    %esi,%eax
    28d8:	8b 4d 14             	mov    0x14(%ebp),%ecx
    28db:	29 d0                	sub    %edx,%eax
    28dd:	8d 5f 01             	lea    0x1(%edi),%ebx
    28e0:	89 7d ec             	mov    %edi,-0x14(%ebp)
    28e3:	89 55 f0             	mov    %edx,-0x10(%ebp)
    28e6:	8d 0c 81             	lea    (%ecx,%eax,4),%ecx
    28e9:	8b 7d 14             	mov    0x14(%ebp),%edi
    28ec:	8d 74 26 00          	lea    0x0(%esi,%eiz,1),%esi
    28f0:	8b 87 08 00 04 00    	mov    0x40008(%edi),%eax
    28f6:	c1 e0 10             	shl    $0x10,%eax
    28f9:	01 d0                	add    %edx,%eax
    28fb:	89 44 91 08          	mov    %eax,0x8(%ecx,%edx,4)
    28ff:	42                   	inc    %edx
    2900:	39 d3                	cmp    %edx,%ebx
    2902:	75 ec                	jne    28f0 <usb_hid_report_parse_local_tag+0x240>
    2904:	46                   	inc    %esi
    2905:	8b 5d f0             	mov    -0x10(%ebp),%ebx
    2908:	8b 7d ec             	mov    -0x14(%ebp),%edi
    290b:	29 de                	sub    %ebx,%esi
    290d:	01 f7                	add    %esi,%edi
    290f:	8b 45 14             	mov    0x14(%ebp),%eax
    2912:	89 b8 04 00 04 00    	mov    %edi,0x40004(%eax)
    2918:	66 c7 40 04 00 00    	movw   $0x0,0x4(%eax)
    291e:	31 c0                	xor    %eax,%eax
    2920:	e9 90 00 00 00       	jmp    29b5 <usb_hid_report_parse_local_tag+0x305>
    2925:	8d 76 00             	lea    0x0(%esi),%esi
    2928:	31 ff                	xor    %edi,%edi
    292a:	31 db                	xor    %ebx,%ebx
    292c:	85 c0                	test   %eax,%eax
    292e:	74 1a                	je     294a <usb_hid_report_parse_local_tag+0x29a>
    2930:	0f b6 34 1a          	movzbl (%edx,%ebx,1),%esi
    2934:	8d 0c dd 00 00 00 00 	lea    0x0(,%ebx,8),%ecx
    293b:	81 e6 ff 00 00 00    	and    $0xff,%esi
    2941:	d3 e6                	shl    %cl,%esi
    2943:	43                   	inc    %ebx
    2944:	09 f7                	or     %esi,%edi
    2946:	39 d8                	cmp    %ebx,%eax
    2948:	75 e6                	jne    2930 <usb_hid_report_parse_local_tag+0x280>
    294a:	8b 45 14             	mov    0x14(%ebp),%eax
    294d:	89 b8 30 00 04 00    	mov    %edi,0x40030(%eax)
    2953:	31 c0                	xor    %eax,%eax
    2955:	eb 5e                	jmp    29b5 <usb_hid_report_parse_local_tag+0x305>
    2957:	90                   	nop
    2958:	31 ff                	xor    %edi,%edi
    295a:	31 db                	xor    %ebx,%ebx
    295c:	85 c0                	test   %eax,%eax
    295e:	74 1a                	je     297a <usb_hid_report_parse_local_tag+0x2ca>
    2960:	0f b6 34 1a          	movzbl (%edx,%ebx,1),%esi
    2964:	8d 0c dd 00 00 00 00 	lea    0x0(,%ebx,8),%ecx
    296b:	81 e6 ff 00 00 00    	and    $0xff,%esi
    2971:	d3 e6                	shl    %cl,%esi
    2973:	43                   	inc    %ebx
    2974:	09 f7                	or     %esi,%edi
    2976:	39 d8                	cmp    %ebx,%eax
    2978:	75 e6                	jne    2960 <usb_hid_report_parse_local_tag+0x2b0>
    297a:	8b 45 14             	mov    0x14(%ebp),%eax
    297d:	89 b8 40 00 04 00    	mov    %edi,0x40040(%eax)
    2983:	31 c0                	xor    %eax,%eax
    2985:	eb 2e                	jmp    29b5 <usb_hid_report_parse_local_tag+0x305>
    2987:	90                   	nop
    2988:	31 ff                	xor    %edi,%edi
    298a:	31 db                	xor    %ebx,%ebx
    298c:	85 c0                	test   %eax,%eax
    298e:	74 1a                	je     29aa <usb_hid_report_parse_local_tag+0x2fa>
    2990:	0f b6 34 1a          	movzbl (%edx,%ebx,1),%esi
    2994:	8d 0c dd 00 00 00 00 	lea    0x0(,%ebx,8),%ecx
    299b:	81 e6 ff 00 00 00    	and    $0xff,%esi
    29a1:	d3 e6                	shl    %cl,%esi
    29a3:	43                   	inc    %ebx
    29a4:	09 f7                	or     %esi,%edi
    29a6:	39 d8                	cmp    %ebx,%eax
    29a8:	75 e6                	jne    2990 <usb_hid_report_parse_local_tag+0x2e0>
    29aa:	8b 45 14             	mov    0x14(%ebp),%eax
    29ad:	89 b8 38 00 04 00    	mov    %edi,0x40038(%eax)
    29b3:	31 c0                	xor    %eax,%eax
    29b5:	5a                   	pop    %edx
    29b6:	59                   	pop    %ecx
    29b7:	5b                   	pop    %ebx
    29b8:	5e                   	pop    %esi
    29b9:	5f                   	pop    %edi
    29ba:	5d                   	pop    %ebp
    29bb:	c3                   	ret    
    29bc:	8d 74 26 00          	lea    0x0(%esi,%eiz,1),%esi
    29c0:	b8 02 00 00 00       	mov    $0x2,%eax
    29c5:	eb ee                	jmp    29b5 <usb_hid_report_parse_local_tag+0x305>
    29c7:	90                   	nop
    29c8:	8d 04 0a             	lea    (%edx,%ecx,1),%eax
    29cb:	8d 4c 39 01          	lea    0x1(%ecx,%edi,1),%ecx
    29cf:	89 4d f0             	mov    %ecx,-0x10(%ebp)
    29d2:	89 f1                	mov    %esi,%ecx
    29d4:	8b 5d 14             	mov    0x14(%ebp),%ebx
    29d7:	29 c1                	sub    %eax,%ecx
    29d9:	8d 0c 8b             	lea    (%ebx,%ecx,4),%ecx
    29dc:	8b 5d f0             	mov    -0x10(%ebp),%ebx
    29df:	90                   	nop
    29e0:	89 44 81 08          	mov    %eax,0x8(%ecx,%eax,4)
    29e4:	40                   	inc    %eax
    29e5:	39 d8                	cmp    %ebx,%eax
    29e7:	75 f7                	jne    29e0 <usb_hid_report_parse_local_tag+0x330>
    29e9:	29 d7                	sub    %edx,%edi
    29eb:	8d 7c 37 01          	lea    0x1(%edi,%esi,1),%edi
    29ef:	e9 1b ff ff ff       	jmp    290f <usb_hid_report_parse_local_tag+0x25f>
    29f4:	8d 74 26 00          	lea    0x0(%esi,%eiz,1),%esi
    29f8:	31 c0                	xor    %eax,%eax
    29fa:	eb b9                	jmp    29b5 <usb_hid_report_parse_local_tag+0x305>
    29fc:	8d 74 26 00          	lea    0x0(%esi,%eiz,1),%esi
    2a00:	31 c9                	xor    %ecx,%ecx
    2a02:	8b 45 14             	mov    0x14(%ebp),%eax
    2a05:	8a 4a 02             	mov    0x2(%edx),%cl
    2a08:	31 db                	xor    %ebx,%ebx
    2a0a:	66 8b 58 04          	mov    0x4(%eax),%bx
    2a0e:	89 c8                	mov    %ecx,%eax
    2a10:	c1 e0 10             	shl    $0x10,%eax
    2a13:	39 d9                	cmp    %ebx,%ecx
    2a15:	75 67                	jne    2a7e <usb_hid_report_parse_local_tag+0x3ce>
    2a17:	c1 e8 10             	shr    $0x10,%eax
    2a1a:	8b 7d 14             	mov    0x14(%ebp),%edi
    2a1d:	66 89 47 04          	mov    %ax,0x4(%edi)
    2a21:	31 c0                	xor    %eax,%eax
    2a23:	0f b6 7a 01          	movzbl 0x1(%edx),%edi
    2a27:	81 e7 ff 00 00 00    	and    $0xff,%edi
    2a2d:	8a 02                	mov    (%edx),%al
    2a2f:	c1 e7 08             	shl    $0x8,%edi
    2a32:	09 c7                	or     %eax,%edi
    2a34:	8b 45 14             	mov    0x14(%ebp),%eax
    2a37:	89 b8 10 00 04 00    	mov    %edi,0x40010(%eax)
    2a3d:	e9 71 fe ff ff       	jmp    28b3 <usb_hid_report_parse_local_tag+0x203>
    2a42:	8d b6 00 00 00 00    	lea    0x0(%esi),%esi
    2a48:	8b 7d 14             	mov    0x14(%ebp),%edi
    2a4b:	31 c0                	xor    %eax,%eax
    2a4d:	8a 42 02             	mov    0x2(%edx),%al
    2a50:	66 89 47 04          	mov    %ax,0x4(%edi)
    2a54:	31 c0                	xor    %eax,%eax
    2a56:	0f b6 3a             	movzbl (%edx),%edi
    2a59:	8a 42 01             	mov    0x1(%edx),%al
    2a5c:	81 e7 ff 00 00 00    	and    $0xff,%edi
    2a62:	c1 e0 08             	shl    $0x8,%eax
    2a65:	8b 55 14             	mov    0x14(%ebp),%edx
    2a68:	09 f8                	or     %edi,%eax
    2a6a:	89 82 0c 00 04 00    	mov    %eax,0x4000c(%edx)
    2a70:	31 c0                	xor    %eax,%eax
    2a72:	e9 3e ff ff ff       	jmp    29b5 <usb_hid_report_parse_local_tag+0x305>
    2a77:	31 ff                	xor    %edi,%edi
    2a79:	e9 e4 fc ff ff       	jmp    2762 <usb_hid_report_parse_local_tag+0xb2>
    2a7e:	b8 f2 ff ff ff       	mov    $0xfffffff2,%eax
    2a83:	e9 2d ff ff ff       	jmp    29b5 <usb_hid_report_parse_local_tag+0x305>
    2a88:	90                   	nop
    2a89:	8d b4 26 00 00 00 00 	lea    0x0(%esi,%eiz,1),%esi

00002a90 <usb_hid_parse_report_descriptor>:
    2a90:	55                   	push   %ebp
    2a91:	89 e5                	mov    %esp,%ebp
    2a93:	57                   	push   %edi
    2a94:	56                   	push   %esi
    2a95:	53                   	push   %ebx
    2a96:	83 ec 3c             	sub    $0x3c,%esp
    2a99:	8d 45 e0             	lea    -0x20(%ebp),%eax
    2a9c:	89 45 e0             	mov    %eax,-0x20(%ebp)
    2a9f:	89 45 e4             	mov    %eax,-0x1c(%ebp)
    2aa2:	8b 45 08             	mov    0x8(%ebp),%eax
    2aa5:	85 c0                	test   %eax,%eax
    2aa7:	0f 84 f3 03 00 00    	je     2ea0 <usb_hid_parse_report_descriptor+0x410>
    2aad:	8b 7d 08             	mov    0x8(%ebp),%edi
    2ab0:	56                   	push   %esi
    2ab1:	6a 20                	push   $0x20
    2ab3:	6a 00                	push   $0x0
    2ab5:	57                   	push   %edi
    2ab6:	e8 65 4b 00 00       	call   7620 <memset@plt>
    2abb:	8b 7d 08             	mov    0x8(%ebp),%edi
    2abe:	8b 45 08             	mov    0x8(%ebp),%eax
    2ac1:	83 c0 04             	add    $0x4,%eax
    2ac4:	89 47 04             	mov    %eax,0x4(%edi)
    2ac7:	89 47 08             	mov    %eax,0x8(%edi)
    2aca:	89 f8                	mov    %edi,%eax
    2acc:	c7 47 18 00 00 00 00 	movl   $0x0,0x18(%edi)
    2ad3:	83 c0 0c             	add    $0xc,%eax
    2ad6:	89 47 0c             	mov    %eax,0xc(%edi)
    2ad9:	89 47 10             	mov    %eax,0x10(%edi)
    2adc:	c7 04 24 68 00 04 00 	movl   $0x40068,(%esp)
    2ae3:	e8 88 4a 00 00       	call   7570 <malloc@plt>
    2ae8:	83 c4 10             	add    $0x10,%esp
    2aeb:	89 c6                	mov    %eax,%esi
    2aed:	85 c0                	test   %eax,%eax
    2aef:	0f 84 51 04 00 00    	je     2f46 <usb_hid_parse_report_descriptor+0x4b6>
    2af5:	53                   	push   %ebx
    2af6:	68 68 00 04 00       	push   $0x40068
    2afb:	6a 00                	push   $0x0
    2afd:	50                   	push   %eax
    2afe:	e8 1d 4b 00 00       	call   7620 <memset@plt>
    2b03:	c7 86 5c 00 04 00 00 	movl   $0x0,0x4005c(%esi)
    2b0a:	00 00 00 
    2b0d:	c7 86 60 00 04 00 00 	movl   $0x0,0x40060(%esi)
    2b14:	00 00 00 
    2b17:	e8 44 1a 00 00       	call   4560 <usb_hid_report_path>
    2b1c:	83 c4 10             	add    $0x10,%esp
    2b1f:	89 45 d0             	mov    %eax,-0x30(%ebp)
    2b22:	85 c0                	test   %eax,%eax
    2b24:	0f 84 1c 04 00 00    	je     2f46 <usb_hid_parse_report_descriptor+0x4b6>
    2b2a:	52                   	push   %edx
    2b2b:	6a 00                	push   $0x0
    2b2d:	6a 00                	push   $0x0
    2b2f:	50                   	push   %eax
    2b30:	e8 eb 14 00 00       	call   4020 <usb_hid_report_path_append_item>
    2b35:	8b 4d 10             	mov    0x10(%ebp),%ecx
    2b38:	83 c4 10             	add    $0x10,%esp
    2b3b:	85 c9                	test   %ecx,%ecx
    2b3d:	0f 84 6b 01 00 00    	je     2cae <usb_hid_parse_report_descriptor+0x21e>
    2b43:	8b 45 d0             	mov    -0x30(%ebp),%eax
    2b46:	31 db                	xor    %ebx,%ebx
    2b48:	83 c0 10             	add    $0x10,%eax
    2b4b:	c7 45 bc 00 00 00 00 	movl   $0x0,-0x44(%ebp)
    2b52:	c7 45 c0 00 00 00 00 	movl   $0x0,-0x40(%ebp)
    2b59:	c7 45 c4 00 00 00 00 	movl   $0x0,-0x3c(%ebp)
    2b60:	89 45 b8             	mov    %eax,-0x48(%ebp)
    2b63:	89 d9                	mov    %ebx,%ecx
    2b65:	89 f7                	mov    %esi,%edi
    2b67:	e9 20 01 00 00       	jmp    2c8c <usb_hid_parse_report_descriptor+0x1fc>
    2b6c:	8d 74 26 00          	lea    0x0(%esi,%eiz,1),%esi
    2b70:	89 c2                	mov    %eax,%edx
    2b72:	83 e2 03             	and    $0x3,%edx
    2b75:	8d 1c 0a             	lea    (%edx,%ecx,1),%ebx
    2b78:	39 5d 10             	cmp    %ebx,0x10(%ebp)
    2b7b:	0f 86 1f 03 00 00    	jbe    2ea0 <usb_hid_parse_report_descriptor+0x410>
    2b81:	41                   	inc    %ecx
    2b82:	88 c3                	mov    %al,%bl
    2b84:	c0 eb 04             	shr    $0x4,%bl
    2b87:	89 4d d4             	mov    %ecx,-0x2c(%ebp)
    2b8a:	c1 e8 02             	shr    $0x2,%eax
    2b8d:	03 4d 0c             	add    0xc(%ebp),%ecx
    2b90:	89 4d cc             	mov    %ecx,-0x34(%ebp)
    2b93:	88 d9                	mov    %bl,%cl
    2b95:	81 e1 ff 00 00 00    	and    $0xff,%ecx
    2b9b:	83 e0 03             	and    $0x3,%eax
    2b9e:	89 4d c8             	mov    %ecx,-0x38(%ebp)
    2ba1:	3c 01                	cmp    $0x1,%al
    2ba3:	0f 84 47 02 00 00    	je     2df0 <usb_hid_parse_report_descriptor+0x360>
    2ba9:	0f 82 09 01 00 00    	jb     2cb8 <usb_hid_parse_report_descriptor+0x228>
    2baf:	3c 02                	cmp    $0x2,%al
    2bb1:	0f 85 cb 00 00 00    	jne    2c82 <usb_hid_parse_report_descriptor+0x1f2>
    2bb7:	83 ec 0c             	sub    $0xc,%esp
    2bba:	8b 45 d0             	mov    -0x30(%ebp),%eax
    2bbd:	50                   	push   %eax
    2bbe:	8b 45 cc             	mov    -0x34(%ebp),%eax
    2bc1:	57                   	push   %edi
    2bc2:	52                   	push   %edx
    2bc3:	50                   	push   %eax
    2bc4:	8b 45 c8             	mov    -0x38(%ebp),%eax
    2bc7:	50                   	push   %eax
    2bc8:	e8 e3 fa ff ff       	call   26b0 <usb_hid_report_parse_local_tag>
    2bcd:	83 c4 20             	add    $0x20,%esp
    2bd0:	83 f8 03             	cmp    $0x3,%eax
    2bd3:	0f 84 39 02 00 00    	je     2e12 <usb_hid_parse_report_descriptor+0x382>
    2bd9:	0f 8e b1 02 00 00    	jle    2e90 <usb_hid_parse_report_descriptor+0x400>
    2bdf:	83 f8 0a             	cmp    $0xa,%eax
    2be2:	0f 84 60 02 00 00    	je     2e48 <usb_hid_parse_report_descriptor+0x3b8>
    2be8:	83 f8 0b             	cmp    $0xb,%eax
    2beb:	0f 85 8c 00 00 00    	jne    2c7d <usb_hid_parse_report_descriptor+0x1ed>
    2bf1:	8b 5d e4             	mov    -0x1c(%ebp),%ebx
    2bf4:	8d 45 e0             	lea    -0x20(%ebp),%eax
    2bf7:	39 c3                	cmp    %eax,%ebx
    2bf9:	0f 84 a1 02 00 00    	je     2ea0 <usb_hid_parse_report_descriptor+0x410>
    2bff:	85 db                	test   %ebx,%ebx
    2c01:	0f 84 99 02 00 00    	je     2ea0 <usb_hid_parse_report_descriptor+0x410>
    2c07:	83 ec 0c             	sub    $0xc,%esp
    2c0a:	57                   	push   %edi
    2c0b:	8d bb a4 ff fb ff    	lea    -0x4005c(%ebx),%edi
    2c11:	e8 ea 4a 00 00       	call   7700 <free@plt>
    2c16:	83 c4 0c             	add    $0xc,%esp
    2c19:	8b 87 58 00 04 00    	mov    0x40058(%edi),%eax
    2c1f:	8b 40 08             	mov    0x8(%eax),%eax
    2c22:	8d 50 f4             	lea    -0xc(%eax),%edx
    2c25:	8b 40 f4             	mov    -0xc(%eax),%eax
    2c28:	89 55 cc             	mov    %edx,-0x34(%ebp)
    2c2b:	8b 55 d0             	mov    -0x30(%ebp),%edx
    2c2e:	50                   	push   %eax
    2c2f:	6a 01                	push   $0x1
    2c31:	52                   	push   %edx
    2c32:	e8 d9 14 00 00       	call   4110 <usb_hid_report_set_last_item>
    2c37:	8b 55 cc             	mov    -0x34(%ebp),%edx
    2c3a:	83 c4 0c             	add    $0xc,%esp
    2c3d:	8b 45 d0             	mov    -0x30(%ebp),%eax
    2c40:	8b 4a 04             	mov    0x4(%edx),%ecx
    2c43:	51                   	push   %ecx
    2c44:	6a 02                	push   $0x2
    2c46:	50                   	push   %eax
    2c47:	e8 c4 14 00 00       	call   4110 <usb_hid_report_set_last_item>
    2c4c:	58                   	pop    %eax
    2c4d:	8b 87 58 00 04 00    	mov    0x40058(%edi),%eax
    2c53:	50                   	push   %eax
    2c54:	e8 47 19 00 00       	call   45a0 <usb_hid_report_path_free>
    2c59:	8b 13                	mov    (%ebx),%edx
    2c5b:	83 c4 10             	add    $0x10,%esp
    2c5e:	85 d2                	test   %edx,%edx
    2c60:	74 0e                	je     2c70 <usb_hid_parse_report_descriptor+0x1e0>
    2c62:	8b 43 04             	mov    0x4(%ebx),%eax
    2c65:	85 c0                	test   %eax,%eax
    2c67:	74 07                	je     2c70 <usb_hid_parse_report_descriptor+0x1e0>
    2c69:	89 10                	mov    %edx,(%eax)
    2c6b:	8b 13                	mov    (%ebx),%edx
    2c6d:	89 42 04             	mov    %eax,0x4(%edx)
    2c70:	c7 03 00 00 00 00    	movl   $0x0,(%ebx)
    2c76:	c7 43 04 00 00 00 00 	movl   $0x0,0x4(%ebx)
    2c7d:	8a 16                	mov    (%esi),%dl
    2c7f:	83 e2 03             	and    $0x3,%edx
    2c82:	8b 4d d4             	mov    -0x2c(%ebp),%ecx
    2c85:	01 d1                	add    %edx,%ecx
    2c87:	3b 4d 10             	cmp    0x10(%ebp),%ecx
    2c8a:	73 22                	jae    2cae <usb_hid_parse_report_descriptor+0x21e>
    2c8c:	8b 75 0c             	mov    0xc(%ebp),%esi
    2c8f:	01 ce                	add    %ecx,%esi
    2c91:	8a 06                	mov    (%esi),%al
    2c93:	3c fe                	cmp    $0xfe,%al
    2c95:	0f 85 d5 fe ff ff    	jne    2b70 <usb_hid_parse_report_descriptor+0xe0>
    2c9b:	8b 45 0c             	mov    0xc(%ebp),%eax
    2c9e:	8a 44 08 01          	mov    0x1(%eax,%ecx,1),%al
    2ca2:	83 e0 03             	and    $0x3,%eax
    2ca5:	8d 4c 01 03          	lea    0x3(%ecx,%eax,1),%ecx
    2ca9:	3b 4d 10             	cmp    0x10(%ebp),%ecx
    2cac:	72 de                	jb     2c8c <usb_hid_parse_report_descriptor+0x1fc>
    2cae:	8d 65 f4             	lea    -0xc(%ebp),%esp
    2cb1:	31 c0                	xor    %eax,%eax
    2cb3:	5b                   	pop    %ebx
    2cb4:	5e                   	pop    %esi
    2cb5:	5f                   	pop    %edi
    2cb6:	5d                   	pop    %ebp
    2cb7:	c3                   	ret    
    2cb8:	8d 4b f8             	lea    -0x8(%ebx),%ecx
    2cbb:	80 f9 04             	cmp    $0x4,%cl
    2cbe:	77 c2                	ja     2c82 <usb_hid_parse_report_descriptor+0x1f2>
    2cc0:	31 c0                	xor    %eax,%eax
    2cc2:	88 c8                	mov    %cl,%al
    2cc4:	ff 24 85 6c 51 00 00 	jmp    *0x516c(,%eax,4)
    2ccb:	90                   	nop
    2ccc:	8d 74 26 00          	lea    0x0(%esi,%eiz,1),%esi
    2cd0:	8b 45 d0             	mov    -0x30(%ebp),%eax
    2cd3:	8b 40 14             	mov    0x14(%eax),%eax
    2cd6:	3b 45 b8             	cmp    -0x48(%ebp),%eax
    2cd9:	0f 84 5d 02 00 00    	je     2f3c <usb_hid_parse_report_descriptor+0x4ac>
    2cdf:	83 e8 0c             	sub    $0xc,%eax
    2ce2:	8b 5d cc             	mov    -0x34(%ebp),%ebx
    2ce5:	8a 0b                	mov    (%ebx),%cl
    2ce7:	88 48 08             	mov    %cl,0x8(%eax)
    2cea:	53                   	push   %ebx
    2ceb:	8b 87 04 00 04 00    	mov    0x40004(%edi),%eax
    2cf1:	66 8b 5c 87 06       	mov    0x6(%edi,%eax,4),%bx
    2cf6:	8b 45 d0             	mov    -0x30(%ebp),%eax
    2cf9:	81 e3 ff ff 00 00    	and    $0xffff,%ebx
    2cff:	53                   	push   %ebx
    2d00:	6a 01                	push   $0x1
    2d02:	50                   	push   %eax
    2d03:	e8 08 14 00 00       	call   4110 <usb_hid_report_set_last_item>
    2d08:	8b 87 04 00 04 00    	mov    0x40004(%edi),%eax
    2d0e:	83 c4 0c             	add    $0xc,%esp
    2d11:	8b 5c 87 04          	mov    0x4(%edi,%eax,4),%ebx
    2d15:	81 e3 ff ff 00 00    	and    $0xffff,%ebx
    2d1b:	53                   	push   %ebx
    2d1c:	8b 5d d0             	mov    -0x30(%ebp),%ebx
    2d1f:	6a 02                	push   $0x2
    2d21:	53                   	push   %ebx
    2d22:	e8 e9 13 00 00       	call   4110 <usb_hid_report_set_last_item>
    2d27:	8b 87 04 00 04 00    	mov    0x40004(%edi),%eax
    2d2d:	83 c4 0c             	add    $0xc,%esp
    2d30:	8b 44 87 04          	mov    0x4(%edi,%eax,4),%eax
    2d34:	50                   	push   %eax
    2d35:	8b 87 08 00 04 00    	mov    0x40008(%edi),%eax
    2d3b:	50                   	push   %eax
    2d3c:	53                   	push   %ebx
    2d3d:	e8 de 12 00 00       	call   4020 <usb_hid_report_path_append_item>
    2d42:	89 3c 24             	mov    %edi,(%esp)
    2d45:	e8 46 12 00 00       	call   3f90 <usb_hid_report_reset_local_items>
    2d4a:	8a 16                	mov    (%esi),%dl
    2d4c:	83 c4 10             	add    $0x10,%esp
    2d4f:	83 e2 03             	and    $0x3,%edx
    2d52:	e9 2b ff ff ff       	jmp    2c82 <usb_hid_parse_report_descriptor+0x1f2>
    2d57:	90                   	nop
    2d58:	8b 45 cc             	mov    -0x34(%ebp),%eax
    2d5b:	8a 00                	mov    (%eax),%al
    2d5d:	88 87 50 00 04 00    	mov    %al,0x40050(%edi)
    2d63:	8b 55 d0             	mov    -0x30(%ebp),%edx
    2d66:	31 c0                	xor    %eax,%eax
    2d68:	89 97 58 00 04 00    	mov    %edx,0x40058(%edi)
    2d6e:	51                   	push   %ecx
    2d6f:	51                   	push   %ecx
    2d70:	8a 07                	mov    (%edi),%al
    2d72:	50                   	push   %eax
    2d73:	52                   	push   %edx
    2d74:	e8 c7 19 00 00       	call   4740 <usb_hid_report_path_set_report_id>
    2d79:	8b 07                	mov    (%edi),%eax
    2d7b:	83 c4 10             	add    $0x10,%esp
    2d7e:	85 c0                	test   %eax,%eax
    2d80:	74 0a                	je     2d8c <usb_hid_parse_report_descriptor+0x2fc>
    2d82:	8b 45 08             	mov    0x8(%ebp),%eax
    2d85:	c7 40 18 01 00 00 00 	movl   $0x1,0x18(%eax)
    2d8c:	80 fb 09             	cmp    $0x9,%bl
    2d8f:	0f 84 7b 01 00 00    	je     2f10 <usb_hid_parse_report_descriptor+0x480>
    2d95:	80 fb 0b             	cmp    $0xb,%bl
    2d98:	0f 84 42 01 00 00    	je     2ee0 <usb_hid_parse_report_descriptor+0x450>
    2d9e:	80 fb 08             	cmp    $0x8,%bl
    2da1:	0f 84 09 01 00 00    	je     2eb0 <usb_hid_parse_report_descriptor+0x420>
    2da7:	8b 45 c8             	mov    -0x38(%ebp),%eax
    2daa:	50                   	push   %eax
    2dab:	68 80 51 00 00       	push   $0x5180
    2db0:	6a 05                	push   $0x5
    2db2:	6a ff                	push   $0xffffffff
    2db4:	e8 17 48 00 00       	call   75d0 <log_msg@plt>
    2db9:	83 c4 10             	add    $0x10,%esp
    2dbc:	8b 5d 08             	mov    0x8(%ebp),%ebx
    2dbf:	51                   	push   %ecx
    2dc0:	51                   	push   %ecx
    2dc1:	57                   	push   %edi
    2dc2:	53                   	push   %ebx
    2dc3:	e8 98 e9 ff ff       	call   1760 <usb_hid_report_append_fields>
    2dc8:	e9 75 ff ff ff       	jmp    2d42 <usb_hid_parse_report_descriptor+0x2b2>
    2dcd:	8d 76 00             	lea    0x0(%esi),%esi
    2dd0:	83 ec 0c             	sub    $0xc,%esp
    2dd3:	8b 4d d0             	mov    -0x30(%ebp),%ecx
    2dd6:	51                   	push   %ecx
    2dd7:	e8 94 12 00 00       	call   4070 <usb_hid_report_remove_last_item>
    2ddc:	8a 16                	mov    (%esi),%dl
    2dde:	83 c4 10             	add    $0x10,%esp
    2de1:	83 e2 03             	and    $0x3,%edx
    2de4:	e9 99 fe ff ff       	jmp    2c82 <usb_hid_parse_report_descriptor+0x1f2>
    2de9:	8d b4 26 00 00 00 00 	lea    0x0(%esi,%eiz,1),%esi
    2df0:	83 ec 0c             	sub    $0xc,%esp
    2df3:	8b 45 d0             	mov    -0x30(%ebp),%eax
    2df6:	50                   	push   %eax
    2df7:	8b 45 cc             	mov    -0x34(%ebp),%eax
    2dfa:	57                   	push   %edi
    2dfb:	52                   	push   %edx
    2dfc:	8b 55 c8             	mov    -0x38(%ebp),%edx
    2dff:	50                   	push   %eax
    2e00:	52                   	push   %edx
    2e01:	e8 3a ef ff ff       	call   1d40 <usb_hid_report_parse_global_tag>
    2e06:	83 c4 20             	add    $0x20,%esp
    2e09:	83 f8 03             	cmp    $0x3,%eax
    2e0c:	0f 85 c7 fd ff ff    	jne    2bd9 <usb_hid_parse_report_descriptor+0x149>
    2e12:	50                   	push   %eax
    2e13:	50                   	push   %eax
    2e14:	31 c0                	xor    %eax,%eax
    2e16:	8b 55 d0             	mov    -0x30(%ebp),%edx
    2e19:	8a 07                	mov    (%edi),%al
    2e1b:	50                   	push   %eax
    2e1c:	52                   	push   %edx
    2e1d:	e8 1e 19 00 00       	call   4740 <usb_hid_report_path_set_report_id>
    2e22:	8a 16                	mov    (%esi),%dl
    2e24:	83 e2 03             	and    $0x3,%edx
    2e27:	83 c4 10             	add    $0x10,%esp
    2e2a:	c7 45 bc 00 00 00 00 	movl   $0x0,-0x44(%ebp)
    2e31:	c7 45 c0 00 00 00 00 	movl   $0x0,-0x40(%ebp)
    2e38:	c7 45 c4 00 00 00 00 	movl   $0x0,-0x3c(%ebp)
    2e3f:	e9 3e fe ff ff       	jmp    2c82 <usb_hid_parse_report_descriptor+0x1f2>
    2e44:	8d 74 26 00          	lea    0x0(%esi,%eiz,1),%esi
    2e48:	83 ec 0c             	sub    $0xc,%esp
    2e4b:	57                   	push   %edi
    2e4c:	e8 9f 0f 00 00       	call   3df0 <usb_hid_report_item_clone>
    2e51:	89 c3                	mov    %eax,%ebx
    2e53:	58                   	pop    %eax
    2e54:	8b 45 d0             	mov    -0x30(%ebp),%eax
    2e57:	50                   	push   %eax
    2e58:	e8 13 18 00 00       	call   4670 <usb_hid_report_path_clone>
    2e5d:	8d 55 e0             	lea    -0x20(%ebp),%edx
    2e60:	89 83 58 00 04 00    	mov    %eax,0x40058(%ebx)
    2e66:	89 93 5c 00 04 00    	mov    %edx,0x4005c(%ebx)
    2e6c:	8b 55 e4             	mov    -0x1c(%ebp),%edx
    2e6f:	8d 83 5c 00 04 00    	lea    0x4005c(%ebx),%eax
    2e75:	89 93 60 00 04 00    	mov    %edx,0x40060(%ebx)
    2e7b:	89 02                	mov    %eax,(%edx)
    2e7d:	83 c4 10             	add    $0x10,%esp
    2e80:	8a 16                	mov    (%esi),%dl
    2e82:	89 45 e4             	mov    %eax,-0x1c(%ebp)
    2e85:	83 e2 03             	and    $0x3,%edx
    2e88:	e9 f5 fd ff ff       	jmp    2c82 <usb_hid_parse_report_descriptor+0x1f2>
    2e8d:	8d 76 00             	lea    0x0(%esi),%esi
    2e90:	48                   	dec    %eax
    2e91:	0f 84 cc fe ff ff    	je     2d63 <usb_hid_parse_report_descriptor+0x2d3>
    2e97:	e9 e1 fd ff ff       	jmp    2c7d <usb_hid_parse_report_descriptor+0x1ed>
    2e9c:	8d 74 26 00          	lea    0x0(%esi,%eiz,1),%esi
    2ea0:	b8 f2 ff ff ff       	mov    $0xfffffff2,%eax
    2ea5:	8d 65 f4             	lea    -0xc(%ebp),%esp
    2ea8:	5b                   	pop    %ebx
    2ea9:	5e                   	pop    %esi
    2eaa:	5f                   	pop    %edi
    2eab:	5d                   	pop    %ebp
    2eac:	c3                   	ret    
    2ead:	8d 76 00             	lea    0x0(%esi),%esi
    2eb0:	8b 87 20 00 04 00    	mov    0x40020(%edi),%eax
    2eb6:	8b 97 1c 00 04 00    	mov    0x4001c(%edi),%edx
    2ebc:	0f af c2             	imul   %edx,%eax
    2ebf:	8b 5d c4             	mov    -0x3c(%ebp),%ebx
    2ec2:	c7 87 54 00 04 00 01 	movl   $0x1,0x40054(%edi)
    2ec9:	00 00 00 
    2ecc:	89 9f 24 00 04 00    	mov    %ebx,0x40024(%edi)
    2ed2:	01 c3                	add    %eax,%ebx
    2ed4:	89 5d c4             	mov    %ebx,-0x3c(%ebp)
    2ed7:	e9 e0 fe ff ff       	jmp    2dbc <usb_hid_parse_report_descriptor+0x32c>
    2edc:	8d 74 26 00          	lea    0x0(%esi,%eiz,1),%esi
    2ee0:	8b 87 20 00 04 00    	mov    0x40020(%edi),%eax
    2ee6:	8b 97 1c 00 04 00    	mov    0x4001c(%edi),%edx
    2eec:	0f af c2             	imul   %edx,%eax
    2eef:	8b 5d bc             	mov    -0x44(%ebp),%ebx
    2ef2:	c7 87 54 00 04 00 03 	movl   $0x3,0x40054(%edi)
    2ef9:	00 00 00 
    2efc:	89 9f 24 00 04 00    	mov    %ebx,0x40024(%edi)
    2f02:	01 c3                	add    %eax,%ebx
    2f04:	89 5d bc             	mov    %ebx,-0x44(%ebp)
    2f07:	e9 b0 fe ff ff       	jmp    2dbc <usb_hid_parse_report_descriptor+0x32c>
    2f0c:	8d 74 26 00          	lea    0x0(%esi,%eiz,1),%esi
    2f10:	8b 87 20 00 04 00    	mov    0x40020(%edi),%eax
    2f16:	8b 8f 1c 00 04 00    	mov    0x4001c(%edi),%ecx
    2f1c:	0f af c1             	imul   %ecx,%eax
    2f1f:	8b 5d c0             	mov    -0x40(%ebp),%ebx
    2f22:	c7 87 54 00 04 00 02 	movl   $0x2,0x40054(%edi)
    2f29:	00 00 00 
    2f2c:	89 9f 24 00 04 00    	mov    %ebx,0x40024(%edi)
    2f32:	01 c3                	add    %eax,%ebx
    2f34:	89 5d c0             	mov    %ebx,-0x40(%ebp)
    2f37:	e9 80 fe ff ff       	jmp    2dbc <usb_hid_parse_report_descriptor+0x32c>
    2f3c:	b8 f4 ff ff ff       	mov    $0xfffffff4,%eax
    2f41:	e9 9c fd ff ff       	jmp    2ce2 <usb_hid_parse_report_descriptor+0x252>
    2f46:	b8 fe ff ff ff       	mov    $0xfffffffe,%eax
    2f4b:	e9 55 ff ff ff       	jmp    2ea5 <usb_hid_parse_report_descriptor+0x415>

00002f50 <usb_hid_report_tag_data_uint32>:
    2f50:	55                   	push   %ebp
    2f51:	31 c0                	xor    %eax,%eax
    2f53:	89 e5                	mov    %esp,%ebp
    2f55:	57                   	push   %edi
    2f56:	56                   	push   %esi
    2f57:	53                   	push   %ebx
    2f58:	8b 75 0c             	mov    0xc(%ebp),%esi
    2f5b:	8b 7d 08             	mov    0x8(%ebp),%edi
    2f5e:	85 f6                	test   %esi,%esi
    2f60:	74 1b                	je     2f7d <usb_hid_report_tag_data_uint32+0x2d>
    2f62:	31 d2                	xor    %edx,%edx
    2f64:	8d 74 26 00          	lea    0x0(%esi,%eiz,1),%esi
    2f68:	31 db                	xor    %ebx,%ebx
    2f6a:	8d 0c d5 00 00 00 00 	lea    0x0(,%edx,8),%ecx
    2f71:	8a 1c 17             	mov    (%edi,%edx,1),%bl
    2f74:	42                   	inc    %edx
    2f75:	d3 e3                	shl    %cl,%ebx
    2f77:	09 d8                	or     %ebx,%eax
    2f79:	39 d6                	cmp    %edx,%esi
    2f7b:	75 eb                	jne    2f68 <usb_hid_report_tag_data_uint32+0x18>
    2f7d:	5b                   	pop    %ebx
    2f7e:	5e                   	pop    %esi
    2f7f:	5f                   	pop    %edi
    2f80:	5d                   	pop    %ebp
    2f81:	c3                   	ret    
    2f82:	8d b4 26 00 00 00 00 	lea    0x0(%esi,%eiz,1),%esi
    2f89:	8d bc 27 00 00 00 00 	lea    0x0(%edi,%eiz,1),%edi

00002f90 <usb_hid_descriptor_print_list>:
    2f90:	55                   	push   %ebp
    2f91:	89 e5                	mov    %esp,%ebp
    2f93:	57                   	push   %edi
    2f94:	56                   	push   %esi
    2f95:	53                   	push   %ebx
    2f96:	83 ec 0c             	sub    $0xc,%esp
    2f99:	8b 7d 08             	mov    0x8(%ebp),%edi
    2f9c:	85 ff                	test   %edi,%edi
    2f9e:	0f 84 36 01 00 00    	je     30da <usb_hid_descriptor_print_list+0x14a>
    2fa4:	8b 77 04             	mov    0x4(%edi),%esi
    2fa7:	39 f7                	cmp    %esi,%edi
    2fa9:	8d 5e c0             	lea    -0x40(%esi),%ebx
    2fac:	0f 84 28 01 00 00    	je     30da <usb_hid_descriptor_print_list+0x14a>
    2fb2:	8d b6 00 00 00 00    	lea    0x0(%esi),%esi
    2fb8:	8b 03                	mov    (%ebx),%eax
    2fba:	50                   	push   %eax
    2fbb:	68 9d 51 00 00       	push   $0x519d
    2fc0:	6a 04                	push   $0x4
    2fc2:	6a ff                	push   $0xffffffff
    2fc4:	e8 07 46 00 00       	call   75d0 <log_msg@plt>
    2fc9:	8b 53 04             	mov    0x4(%ebx),%edx
    2fcc:	52                   	push   %edx
    2fcd:	68 ab 51 00 00       	push   $0x51ab
    2fd2:	6a 04                	push   $0x4
    2fd4:	6a ff                	push   $0xffffffff
    2fd6:	e8 f5 45 00 00       	call   75d0 <log_msg@plt>
    2fdb:	83 c4 20             	add    $0x20,%esp
    2fde:	8b 4b 14             	mov    0x14(%ebx),%ecx
    2fe1:	51                   	push   %ecx
    2fe2:	68 b8 51 00 00       	push   $0x51b8
    2fe7:	6a 04                	push   $0x4
    2fe9:	6a ff                	push   $0xffffffff
    2feb:	e8 e0 45 00 00       	call   75d0 <log_msg@plt>
    2ff0:	8b 43 18             	mov    0x18(%ebx),%eax
    2ff3:	50                   	push   %eax
    2ff4:	68 c6 51 00 00       	push   $0x51c6
    2ff9:	6a 04                	push   $0x4
    2ffb:	6a ff                	push   $0xffffffff
    2ffd:	e8 ce 45 00 00       	call   75d0 <log_msg@plt>
    3002:	83 c4 20             	add    $0x20,%esp
    3005:	8b 43 1c             	mov    0x1c(%ebx),%eax
    3008:	50                   	push   %eax
    3009:	68 d4 51 00 00       	push   $0x51d4
    300e:	6a 04                	push   $0x4
    3010:	6a ff                	push   $0xffffffff
    3012:	e8 b9 45 00 00       	call   75d0 <log_msg@plt>
    3017:	8b 43 20             	mov    0x20(%ebx),%eax
    301a:	50                   	push   %eax
    301b:	68 e2 51 00 00       	push   $0x51e2
    3020:	6a 04                	push   $0x4
    3022:	6a ff                	push   $0xffffffff
    3024:	e8 a7 45 00 00       	call   75d0 <log_msg@plt>
    3029:	83 c4 20             	add    $0x20,%esp
    302c:	8b 43 24             	mov    0x24(%ebx),%eax
    302f:	50                   	push   %eax
    3030:	68 f0 51 00 00       	push   $0x51f0
    3035:	6a 04                	push   $0x4
    3037:	6a ff                	push   $0xffffffff
    3039:	e8 92 45 00 00       	call   75d0 <log_msg@plt>
    303e:	8b 43 28             	mov    0x28(%ebx),%eax
    3041:	50                   	push   %eax
    3042:	68 01 52 00 00       	push   $0x5201
    3047:	6a 04                	push   $0x4
    3049:	6a ff                	push   $0xffffffff
    304b:	e8 80 45 00 00       	call   75d0 <log_msg@plt>
    3050:	83 c4 20             	add    $0x20,%esp
    3053:	8b 43 38             	mov    0x38(%ebx),%eax
    3056:	50                   	push   %eax
    3057:	68 11 52 00 00       	push   $0x5211
    305c:	6a 04                	push   $0x4
    305e:	6a ff                	push   $0xffffffff
    3060:	e8 6b 45 00 00       	call   75d0 <log_msg@plt>
    3065:	8b 53 3c             	mov    0x3c(%ebx),%edx
    3068:	52                   	push   %edx
    3069:	68 26 52 00 00       	push   $0x5226
    306e:	6a 04                	push   $0x4
    3070:	6a ff                	push   $0xffffffff
    3072:	e8 59 45 00 00       	call   75d0 <log_msg@plt>
    3077:	83 c4 20             	add    $0x20,%esp
    307a:	31 c0                	xor    %eax,%eax
    307c:	66 8b 43 0a          	mov    0xa(%ebx),%ax
    3080:	50                   	push   %eax
    3081:	68 33 52 00 00       	push   $0x5233
    3086:	6a 04                	push   $0x4
    3088:	6a ff                	push   $0xffffffff
    308a:	e8 41 45 00 00       	call   75d0 <log_msg@plt>
    308f:	31 c0                	xor    %eax,%eax
    3091:	66 8b 43 08          	mov    0x8(%ebx),%ax
    3095:	50                   	push   %eax
    3096:	68 41 52 00 00       	push   $0x5241
    309b:	6a 04                	push   $0x4
    309d:	6a ff                	push   $0xffffffff
    309f:	e8 2c 45 00 00       	call   75d0 <log_msg@plt>
    30a4:	83 c4 14             	add    $0x14,%esp
    30a7:	8b 4b 10             	mov    0x10(%ebx),%ecx
    30aa:	51                   	push   %ecx
    30ab:	e8 a0 10 00 00       	call   4150 <usb_hid_print_usage_path>
    30b0:	83 c4 0c             	add    $0xc,%esp
    30b3:	68 b1 73 00 00       	push   $0x73b1
    30b8:	6a 04                	push   $0x4
    30ba:	6a ff                	push   $0xffffffff
    30bc:	e8 0f 45 00 00       	call   75d0 <log_msg@plt>
    30c1:	8b 76 04             	mov    0x4(%esi),%esi
    30c4:	83 c4 10             	add    $0x10,%esp
    30c7:	39 f7                	cmp    %esi,%edi
    30c9:	8d 5e c0             	lea    -0x40(%esi),%ebx
    30cc:	0f 85 e6 fe ff ff    	jne    2fb8 <usb_hid_descriptor_print_list+0x28>
    30d2:	8d 65 f4             	lea    -0xc(%ebp),%esp
    30d5:	5b                   	pop    %ebx
    30d6:	5e                   	pop    %esi
    30d7:	5f                   	pop    %edi
    30d8:	5d                   	pop    %ebp
    30d9:	c3                   	ret    
    30da:	53                   	push   %ebx
    30db:	68 95 51 00 00       	push   $0x5195
    30e0:	6a 04                	push   $0x4
    30e2:	6a ff                	push   $0xffffffff
    30e4:	e8 e7 44 00 00       	call   75d0 <log_msg@plt>
    30e9:	83 c4 10             	add    $0x10,%esp
    30ec:	8d 65 f4             	lea    -0xc(%ebp),%esp
    30ef:	5b                   	pop    %ebx
    30f0:	5e                   	pop    %esi
    30f1:	5f                   	pop    %edi
    30f2:	5d                   	pop    %ebp
    30f3:	c3                   	ret    
    30f4:	8d b6 00 00 00 00    	lea    0x0(%esi),%esi
    30fa:	8d bf 00 00 00 00    	lea    0x0(%edi),%edi

00003100 <usb_hid_descriptor_print>:
    3100:	55                   	push   %ebp
    3101:	89 e5                	mov    %esp,%ebp
    3103:	57                   	push   %edi
    3104:	56                   	push   %esi
    3105:	53                   	push   %ebx
    3106:	83 ec 1c             	sub    $0x1c,%esp
    3109:	8b 75 08             	mov    0x8(%ebp),%esi
    310c:	85 f6                	test   %esi,%esi
    310e:	0f 84 a3 00 00 00    	je     31b7 <usb_hid_descriptor_print+0xb7>
    3114:	8b 7e 08             	mov    0x8(%esi),%edi
    3117:	8d 46 04             	lea    0x4(%esi),%eax
    311a:	89 45 e4             	mov    %eax,-0x1c(%ebp)
    311d:	39 c7                	cmp    %eax,%edi
    311f:	8d 5f e8             	lea    -0x18(%edi),%ebx
    3122:	0f 84 8f 00 00 00    	je     31b7 <usb_hid_descriptor_print+0xb7>
    3128:	31 c0                	xor    %eax,%eax
    312a:	83 c3 10             	add    $0x10,%ebx
    312d:	8a 43 f0             	mov    -0x10(%ebx),%al
    3130:	50                   	push   %eax
    3131:	68 53 52 00 00       	push   $0x5253
    3136:	6a 04                	push   $0x4
    3138:	6a ff                	push   $0xffffffff
    313a:	e8 91 44 00 00       	call   75d0 <log_msg@plt>
    313f:	8b 43 f4             	mov    -0xc(%ebx),%eax
    3142:	50                   	push   %eax
    3143:	68 62 52 00 00       	push   $0x5262
    3148:	6a 04                	push   $0x4
    314a:	6a ff                	push   $0xffffffff
    314c:	e8 7f 44 00 00       	call   75d0 <log_msg@plt>
    3151:	83 c4 20             	add    $0x20,%esp
    3154:	8b 53 f8             	mov    -0x8(%ebx),%edx
    3157:	52                   	push   %edx
    3158:	68 6d 52 00 00       	push   $0x526d
    315d:	6a 04                	push   $0x4
    315f:	6a ff                	push   $0xffffffff
    3161:	e8 6a 44 00 00       	call   75d0 <log_msg@plt>
    3166:	83 c4 0c             	add    $0xc,%esp
    3169:	8b 4b f4             	mov    -0xc(%ebx),%ecx
    316c:	31 c0                	xor    %eax,%eax
    316e:	51                   	push   %ecx
    316f:	8a 43 f0             	mov    -0x10(%ebx),%al
    3172:	50                   	push   %eax
    3173:	56                   	push   %esi
    3174:	e8 87 01 00 00       	call   3300 <usb_hid_report_byte_size>
    3179:	50                   	push   %eax
    317a:	68 7b 52 00 00       	push   $0x527b
    317f:	6a 04                	push   $0x4
    3181:	6a ff                	push   $0xffffffff
    3183:	e8 48 44 00 00       	call   75d0 <log_msg@plt>
    3188:	83 c4 20             	add    $0x20,%esp
    318b:	8b 43 fc             	mov    -0x4(%ebx),%eax
    318e:	50                   	push   %eax
    318f:	68 89 52 00 00       	push   $0x5289
    3194:	6a 04                	push   $0x4
    3196:	6a ff                	push   $0xffffffff
    3198:	e8 33 44 00 00       	call   75d0 <log_msg@plt>
    319d:	89 1c 24             	mov    %ebx,(%esp)
    31a0:	e8 eb fd ff ff       	call   2f90 <usb_hid_descriptor_print_list>
    31a5:	8b 7f 04             	mov    0x4(%edi),%edi
    31a8:	83 c4 10             	add    $0x10,%esp
    31ab:	8d 5f e8             	lea    -0x18(%edi),%ebx
    31ae:	3b 7d e4             	cmp    -0x1c(%ebp),%edi
    31b1:	0f 85 71 ff ff ff    	jne    3128 <usb_hid_descriptor_print+0x28>
    31b7:	8d 65 f4             	lea    -0xc(%ebp),%esp
    31ba:	5b                   	pop    %ebx
    31bb:	5e                   	pop    %esi
    31bc:	5f                   	pop    %edi
    31bd:	5d                   	pop    %ebp
    31be:	c3                   	ret    
    31bf:	90                   	nop

000031c0 <usb_hid_report_deinit>:
    31c0:	55                   	push   %ebp
    31c1:	89 e5                	mov    %esp,%ebp
    31c3:	57                   	push   %edi
    31c4:	56                   	push   %esi
    31c5:	53                   	push   %ebx
    31c6:	83 ec 1c             	sub    $0x1c,%esp
    31c9:	8b 7d 08             	mov    0x8(%ebp),%edi
    31cc:	85 ff                	test   %edi,%edi
    31ce:	0f 84 de 00 00 00    	je     32b2 <usb_hid_report_deinit+0xf2>
    31d4:	8b 47 10             	mov    0x10(%edi),%eax
    31d7:	8d 5f 0c             	lea    0xc(%edi),%ebx
    31da:	39 c3                	cmp    %eax,%ebx
    31dc:	74 39                	je     3217 <usb_hid_report_deinit+0x57>
    31de:	66 90                	xchg   %ax,%ax
    31e0:	8b 08                	mov    (%eax),%ecx
    31e2:	8d 70 f8             	lea    -0x8(%eax),%esi
    31e5:	85 c9                	test   %ecx,%ecx
    31e7:	74 0e                	je     31f7 <usb_hid_report_deinit+0x37>
    31e9:	8b 50 04             	mov    0x4(%eax),%edx
    31ec:	85 d2                	test   %edx,%edx
    31ee:	74 07                	je     31f7 <usb_hid_report_deinit+0x37>
    31f0:	89 0a                	mov    %ecx,(%edx)
    31f2:	8b 08                	mov    (%eax),%ecx
    31f4:	89 51 04             	mov    %edx,0x4(%ecx)
    31f7:	83 ec 0c             	sub    $0xc,%esp
    31fa:	c7 00 00 00 00 00    	movl   $0x0,(%eax)
    3200:	c7 40 04 00 00 00 00 	movl   $0x0,0x4(%eax)
    3207:	56                   	push   %esi
    3208:	e8 93 13 00 00       	call   45a0 <usb_hid_report_path_free>
    320d:	8b 47 10             	mov    0x10(%edi),%eax
    3210:	83 c4 10             	add    $0x10,%esp
    3213:	39 d8                	cmp    %ebx,%eax
    3215:	75 c9                	jne    31e0 <usb_hid_report_deinit+0x20>
    3217:	8d 47 04             	lea    0x4(%edi),%eax
    321a:	8b 5f 08             	mov    0x8(%edi),%ebx
    321d:	89 45 e4             	mov    %eax,-0x1c(%ebp)
    3220:	39 c3                	cmp    %eax,%ebx
    3222:	0f 84 8a 00 00 00    	je     32b2 <usb_hid_report_deinit+0xf2>
    3228:	83 eb 18             	sub    $0x18,%ebx
    322b:	8b 53 18             	mov    0x18(%ebx),%edx
    322e:	85 d2                	test   %edx,%edx
    3230:	74 0f                	je     3241 <usb_hid_report_deinit+0x81>
    3232:	8b 43 1c             	mov    0x1c(%ebx),%eax
    3235:	85 c0                	test   %eax,%eax
    3237:	74 08                	je     3241 <usb_hid_report_deinit+0x81>
    3239:	89 10                	mov    %edx,(%eax)
    323b:	8b 53 18             	mov    0x18(%ebx),%edx
    323e:	89 42 04             	mov    %eax,0x4(%edx)
    3241:	8b 43 14             	mov    0x14(%ebx),%eax
    3244:	8d 73 10             	lea    0x10(%ebx),%esi
    3247:	c7 43 18 00 00 00 00 	movl   $0x0,0x18(%ebx)
    324e:	c7 43 1c 00 00 00 00 	movl   $0x0,0x1c(%ebx)
    3255:	39 c6                	cmp    %eax,%esi
    3257:	74 41                	je     329a <usb_hid_report_deinit+0xda>
    3259:	8d b4 26 00 00 00 00 	lea    0x0(%esi,%eiz,1),%esi
    3260:	83 e8 40             	sub    $0x40,%eax
    3263:	8b 48 40             	mov    0x40(%eax),%ecx
    3266:	85 c9                	test   %ecx,%ecx
    3268:	74 0f                	je     3279 <usb_hid_report_deinit+0xb9>
    326a:	8b 50 44             	mov    0x44(%eax),%edx
    326d:	85 d2                	test   %edx,%edx
    326f:	74 08                	je     3279 <usb_hid_report_deinit+0xb9>
    3271:	89 0a                	mov    %ecx,(%edx)
    3273:	8b 48 40             	mov    0x40(%eax),%ecx
    3276:	89 51 04             	mov    %edx,0x4(%ecx)
    3279:	83 ec 0c             	sub    $0xc,%esp
    327c:	c7 40 40 00 00 00 00 	movl   $0x0,0x40(%eax)
    3283:	c7 40 44 00 00 00 00 	movl   $0x0,0x44(%eax)
    328a:	50                   	push   %eax
    328b:	e8 70 44 00 00       	call   7700 <free@plt>
    3290:	8b 43 14             	mov    0x14(%ebx),%eax
    3293:	83 c4 10             	add    $0x10,%esp
    3296:	39 f0                	cmp    %esi,%eax
    3298:	75 c6                	jne    3260 <usb_hid_report_deinit+0xa0>
    329a:	83 ec 0c             	sub    $0xc,%esp
    329d:	53                   	push   %ebx
    329e:	e8 5d 44 00 00       	call   7700 <free@plt>
    32a3:	8b 5f 08             	mov    0x8(%edi),%ebx
    32a6:	83 c4 10             	add    $0x10,%esp
    32a9:	3b 5d e4             	cmp    -0x1c(%ebp),%ebx
    32ac:	0f 85 76 ff ff ff    	jne    3228 <usb_hid_report_deinit+0x68>
    32b2:	8d 65 f4             	lea    -0xc(%ebp),%esp
    32b5:	5b                   	pop    %ebx
    32b6:	5e                   	pop    %esi
    32b7:	5f                   	pop    %edi
    32b8:	5d                   	pop    %ebp
    32b9:	c3                   	ret    
    32ba:	66 90                	xchg   %ax,%ax
    32bc:	66 90                	xchg   %ax,%ax
    32be:	66 90                	xchg   %ax,%ax

000032c0 <usb_hid_report_size>:
    32c0:	55                   	push   %ebp
    32c1:	89 e5                	mov    %esp,%ebp
    32c3:	83 ec 08             	sub    $0x8,%esp
    32c6:	8b 55 08             	mov    0x8(%ebp),%edx
    32c9:	8b 45 0c             	mov    0xc(%ebp),%eax
    32cc:	85 d2                	test   %edx,%edx
    32ce:	74 20                	je     32f0 <usb_hid_report_size+0x30>
    32d0:	25 ff 00 00 00       	and    $0xff,%eax
    32d5:	51                   	push   %ecx
    32d6:	8b 4d 10             	mov    0x10(%ebp),%ecx
    32d9:	51                   	push   %ecx
    32da:	50                   	push   %eax
    32db:	52                   	push   %edx
    32dc:	e8 0f e9 ff ff       	call   1bf0 <usb_hid_report_find_description>
    32e1:	83 c4 10             	add    $0x10,%esp
    32e4:	85 c0                	test   %eax,%eax
    32e6:	74 08                	je     32f0 <usb_hid_report_size+0x30>
    32e8:	8b 40 0c             	mov    0xc(%eax),%eax
    32eb:	c9                   	leave  
    32ec:	c3                   	ret    
    32ed:	8d 76 00             	lea    0x0(%esi),%esi
    32f0:	31 c0                	xor    %eax,%eax
    32f2:	c9                   	leave  
    32f3:	c3                   	ret    
    32f4:	8d b6 00 00 00 00    	lea    0x0(%esi),%esi
    32fa:	8d bf 00 00 00 00    	lea    0x0(%edi),%edi

00003300 <usb_hid_report_byte_size>:
    3300:	55                   	push   %ebp
    3301:	89 e5                	mov    %esp,%ebp
    3303:	83 ec 08             	sub    $0x8,%esp
    3306:	8b 55 08             	mov    0x8(%ebp),%edx
    3309:	8b 45 0c             	mov    0xc(%ebp),%eax
    330c:	85 d2                	test   %edx,%edx
    330e:	74 28                	je     3338 <usb_hid_report_byte_size+0x38>
    3310:	25 ff 00 00 00       	and    $0xff,%eax
    3315:	51                   	push   %ecx
    3316:	8b 4d 10             	mov    0x10(%ebp),%ecx
    3319:	51                   	push   %ecx
    331a:	50                   	push   %eax
    331b:	52                   	push   %edx
    331c:	e8 cf e8 ff ff       	call   1bf0 <usb_hid_report_find_description>
    3321:	83 c4 10             	add    $0x10,%esp
    3324:	85 c0                	test   %eax,%eax
    3326:	74 10                	je     3338 <usb_hid_report_byte_size+0x38>
    3328:	8b 40 08             	mov    0x8(%eax),%eax
    332b:	c9                   	leave  
    332c:	83 c0 07             	add    $0x7,%eax
    332f:	c1 e8 03             	shr    $0x3,%eax
    3332:	c3                   	ret    
    3333:	90                   	nop
    3334:	8d 74 26 00          	lea    0x0(%esi,%eiz,1),%esi
    3338:	31 c0                	xor    %eax,%eax
    333a:	c9                   	leave  
    333b:	c3                   	ret    
    333c:	8d 74 26 00          	lea    0x0(%esi,%eiz,1),%esi

00003340 <usb_hid_translate_data>:
    3340:	55                   	push   %ebp
    3341:	89 e5                	mov    %esp,%ebp
    3343:	57                   	push   %edi
    3344:	56                   	push   %esi
    3345:	53                   	push   %ebx
    3346:	83 ec 2c             	sub    $0x2c,%esp
    3349:	8b 45 08             	mov    0x8(%ebp),%eax
    334c:	8b 40 04             	mov    0x4(%eax),%eax
    334f:	89 c7                	mov    %eax,%edi
    3351:	89 45 ec             	mov    %eax,-0x14(%ebp)
    3354:	31 c0                	xor    %eax,%eax
    3356:	83 ff 20             	cmp    $0x20,%edi
    3359:	0f 87 28 01 00 00    	ja     3487 <usb_hid_translate_data+0x147>
    335f:	8b 45 08             	mov    0x8(%ebp),%eax
    3362:	8b 40 1c             	mov    0x1c(%eax),%eax
    3365:	89 45 e8             	mov    %eax,-0x18(%ebp)
    3368:	85 c0                	test   %eax,%eax
    336a:	8b 45 08             	mov    0x8(%ebp),%eax
    336d:	0f 84 1d 01 00 00    	je     3490 <usb_hid_translate_data+0x150>
    3373:	8b 40 14             	mov    0x14(%eax),%eax
    3376:	89 45 e4             	mov    %eax,-0x1c(%ebp)
    3379:	8b 45 08             	mov    0x8(%ebp),%eax
    337c:	8b 58 20             	mov    0x20(%eax),%ebx
    337f:	3b 5d e8             	cmp    -0x18(%ebp),%ebx
    3382:	0f 84 2c 01 00 00    	je     34b4 <usb_hid_translate_data+0x174>
    3388:	8b 7d e8             	mov    -0x18(%ebp),%edi
    338b:	8b 45 08             	mov    0x8(%ebp),%eax
    338e:	29 fb                	sub    %edi,%ebx
    3390:	8b 7d 08             	mov    0x8(%ebp),%edi
    3393:	8b 40 18             	mov    0x18(%eax),%eax
    3396:	8b 75 e4             	mov    -0x1c(%ebp),%esi
    3399:	8b 57 30             	mov    0x30(%edi),%edx
    339c:	89 45 f0             	mov    %eax,-0x10(%ebp)
    339f:	b9 01 00 00 00       	mov    $0x1,%ecx
    33a4:	29 f0                	sub    %esi,%eax
    33a6:	85 d2                	test   %edx,%edx
    33a8:	0f 84 40 01 00 00    	je     34ee <usb_hid_translate_data+0x1ae>
    33ae:	83 fa 01             	cmp    $0x1,%edx
    33b1:	0f 85 29 01 00 00    	jne    34e0 <usb_hid_translate_data+0x1a0>
    33b7:	ba 0a 00 00 00       	mov    $0xa,%edx
    33bc:	0f af ca             	imul   %edx,%ecx
    33bf:	0f af d9             	imul   %ecx,%ebx
    33c2:	89 c2                	mov    %eax,%edx
    33c4:	c1 fa 1f             	sar    $0x1f,%edx
    33c7:	f7 fb                	idiv   %ebx
    33c9:	89 45 e0             	mov    %eax,-0x20(%ebp)
    33cc:	8b 45 08             	mov    0x8(%ebp),%eax
    33cf:	8b 7d ec             	mov    -0x14(%ebp),%edi
    33d2:	8b 00                	mov    (%eax),%eax
    33d4:	8d 5f ff             	lea    -0x1(%edi),%ebx
    33d7:	89 c2                	mov    %eax,%edx
    33d9:	89 5d dc             	mov    %ebx,-0x24(%ebp)
    33dc:	c1 fa 1f             	sar    $0x1f,%edx
    33df:	8d 3c 18             	lea    (%eax,%ebx,1),%edi
    33e2:	c1 ef 03             	shr    $0x3,%edi
    33e5:	89 d1                	mov    %edx,%ecx
    33e7:	83 e1 07             	and    $0x7,%ecx
    33ea:	01 c1                	add    %eax,%ecx
    33ec:	c1 f9 03             	sar    $0x3,%ecx
    33ef:	89 4d f0             	mov    %ecx,-0x10(%ebp)
    33f2:	89 cb                	mov    %ecx,%ebx
    33f4:	39 f9                	cmp    %edi,%ecx
    33f6:	0f 84 0c 01 00 00    	je     3508 <usb_hid_translate_data+0x1c8>
    33fc:	0f 87 3d 01 00 00    	ja     353f <usb_hid_translate_data+0x1ff>
    3402:	c1 ea 1d             	shr    $0x1d,%edx
    3405:	be 08 00 00 00       	mov    $0x8,%esi
    340a:	01 d0                	add    %edx,%eax
    340c:	8b 4d ec             	mov    -0x14(%ebp),%ecx
    340f:	83 e0 07             	and    $0x7,%eax
    3412:	29 d0                	sub    %edx,%eax
    3414:	89 f2                	mov    %esi,%edx
    3416:	29 c2                	sub    %eax,%edx
    3418:	b8 01 00 00 00       	mov    $0x1,%eax
    341d:	29 d1                	sub    %edx,%ecx
    341f:	89 55 d4             	mov    %edx,-0x2c(%ebp)
    3422:	d3 e0                	shl    %cl,%eax
    3424:	8b 4d ec             	mov    -0x14(%ebp),%ecx
    3427:	48                   	dec    %eax
    3428:	29 ce                	sub    %ecx,%esi
    342a:	89 45 d8             	mov    %eax,-0x28(%ebp)
    342d:	31 d2                	xor    %edx,%edx
    342f:	31 c0                	xor    %eax,%eax
    3431:	89 75 d0             	mov    %esi,-0x30(%ebp)
    3434:	8d 74 26 00          	lea    0x0(%esi,%eiz,1),%esi
    3438:	39 5d f0             	cmp    %ebx,-0x10(%ebp)
    343b:	0f 84 10 01 00 00    	je     3551 <usb_hid_translate_data+0x211>
    3441:	39 df                	cmp    %ebx,%edi
    3443:	0f 84 20 01 00 00    	je     3569 <usb_hid_translate_data+0x229>
    3449:	8b 4d 0c             	mov    0xc(%ebp),%ecx
    344c:	83 c2 08             	add    $0x8,%edx
    344f:	0f b6 71 01          	movzbl 0x1(%ecx),%esi
    3453:	88 d1                	mov    %dl,%cl
    3455:	81 e6 ff 00 00 00    	and    $0xff,%esi
    345b:	d3 e6                	shl    %cl,%esi
    345d:	01 f0                	add    %esi,%eax
    345f:	43                   	inc    %ebx
    3460:	39 df                	cmp    %ebx,%edi
    3462:	73 d4                	jae    3438 <usb_hid_translate_data+0xf8>
    3464:	8b 7d e4             	mov    -0x1c(%ebp),%edi
    3467:	85 ff                	test   %edi,%edi
    3469:	78 55                	js     34c0 <usb_hid_translate_data+0x180>
    346b:	8b 7d 08             	mov    0x8(%ebp),%edi
    346e:	8b 77 18             	mov    0x18(%edi),%esi
    3471:	85 f6                	test   %esi,%esi
    3473:	78 4b                	js     34c0 <usb_hid_translate_data+0x180>
    3475:	8b 4d e4             	mov    -0x1c(%ebp),%ecx
    3478:	8b 5d e8             	mov    -0x18(%ebp),%ebx
    347b:	29 c8                	sub    %ecx,%eax
    347d:	89 c2                	mov    %eax,%edx
    347f:	c1 fa 1f             	sar    $0x1f,%edx
    3482:	f7 7d e0             	idivl  -0x20(%ebp)
    3485:	01 d8                	add    %ebx,%eax
    3487:	83 c4 2c             	add    $0x2c,%esp
    348a:	5b                   	pop    %ebx
    348b:	5e                   	pop    %esi
    348c:	5f                   	pop    %edi
    348d:	5d                   	pop    %ebp
    348e:	c3                   	ret    
    348f:	90                   	nop
    3490:	8b 58 20             	mov    0x20(%eax),%ebx
    3493:	85 db                	test   %ebx,%ebx
    3495:	75 61                	jne    34f8 <usb_hid_translate_data+0x1b8>
    3497:	89 c2                	mov    %eax,%edx
    3499:	8b 40 14             	mov    0x14(%eax),%eax
    349c:	89 45 e8             	mov    %eax,-0x18(%ebp)
    349f:	89 45 e4             	mov    %eax,-0x1c(%ebp)
    34a2:	8b 5a 18             	mov    0x18(%edx),%ebx
    34a5:	89 42 1c             	mov    %eax,0x1c(%edx)
    34a8:	89 5a 20             	mov    %ebx,0x20(%edx)
    34ab:	3b 5d e8             	cmp    -0x18(%ebp),%ebx
    34ae:	0f 85 d4 fe ff ff    	jne    3388 <usb_hid_translate_data+0x48>
    34b4:	c7 45 e0 01 00 00 00 	movl   $0x1,-0x20(%ebp)
    34bb:	e9 0c ff ff ff       	jmp    33cc <usb_hid_translate_data+0x8c>
    34c0:	89 c2                	mov    %eax,%edx
    34c2:	8a 4d dc             	mov    -0x24(%ebp),%cl
    34c5:	d3 fa                	sar    %cl,%edx
    34c7:	83 e2 01             	and    $0x1,%edx
    34ca:	74 a9                	je     3475 <usb_hid_translate_data+0x135>
    34cc:	ba 01 00 00 00       	mov    $0x1,%edx
    34d1:	8a 4d ec             	mov    -0x14(%ebp),%cl
    34d4:	d3 e2                	shl    %cl,%edx
    34d6:	4a                   	dec    %edx
    34d7:	f7 d8                	neg    %eax
    34d9:	21 d0                	and    %edx,%eax
    34db:	f7 d8                	neg    %eax
    34dd:	eb 96                	jmp    3475 <usb_hid_translate_data+0x135>
    34df:	90                   	nop
    34e0:	4a                   	dec    %edx
    34e1:	8d 0c 89             	lea    (%ecx,%ecx,4),%ecx
    34e4:	01 c9                	add    %ecx,%ecx
    34e6:	85 d2                	test   %edx,%edx
    34e8:	0f 85 c0 fe ff ff    	jne    33ae <usb_hid_translate_data+0x6e>
    34ee:	ba 01 00 00 00       	mov    $0x1,%edx
    34f3:	e9 c4 fe ff ff       	jmp    33bc <usb_hid_translate_data+0x7c>
    34f8:	8b 40 14             	mov    0x14(%eax),%eax
    34fb:	89 45 e4             	mov    %eax,-0x1c(%ebp)
    34fe:	e9 85 fe ff ff       	jmp    3388 <usb_hid_translate_data+0x48>
    3503:	90                   	nop
    3504:	8d 74 26 00          	lea    0x0(%esi,%eiz,1),%esi
    3508:	c1 ea 1d             	shr    $0x1d,%edx
    350b:	8b 7d ec             	mov    -0x14(%ebp),%edi
    350e:	01 d0                	add    %edx,%eax
    3510:	bb 08 00 00 00       	mov    $0x8,%ebx
    3515:	83 e0 07             	and    $0x7,%eax
    3518:	29 fb                	sub    %edi,%ebx
    351a:	29 d0                	sub    %edx,%eax
    351c:	89 ce                	mov    %ecx,%esi
    351e:	29 c3                	sub    %eax,%ebx
    3520:	89 f9                	mov    %edi,%ecx
    3522:	b8 01 00 00 00       	mov    $0x1,%eax
    3527:	8b 7d 0c             	mov    0xc(%ebp),%edi
    352a:	d3 e0                	shl    %cl,%eax
    352c:	48                   	dec    %eax
    352d:	88 d9                	mov    %bl,%cl
    352f:	31 d2                	xor    %edx,%edx
    3531:	d3 e0                	shl    %cl,%eax
    3533:	8a 14 37             	mov    (%edi,%esi,1),%dl
    3536:	21 d0                	and    %edx,%eax
    3538:	d3 f8                	sar    %cl,%eax
    353a:	e9 25 ff ff ff       	jmp    3464 <usb_hid_translate_data+0x124>
    353f:	8b 55 e4             	mov    -0x1c(%ebp),%edx
    3542:	31 c0                	xor    %eax,%eax
    3544:	85 d2                	test   %edx,%edx
    3546:	0f 89 1f ff ff ff    	jns    346b <usb_hid_translate_data+0x12b>
    354c:	e9 24 ff ff ff       	jmp    3475 <usb_hid_translate_data+0x135>
    3551:	8b 55 0c             	mov    0xc(%ebp),%edx
    3554:	8b 75 f0             	mov    -0x10(%ebp),%esi
    3557:	31 c0                	xor    %eax,%eax
    3559:	8a 04 32             	mov    (%edx,%esi,1),%al
    355c:	8b 55 d8             	mov    -0x28(%ebp),%edx
    355f:	21 d0                	and    %edx,%eax
    3561:	8b 55 d4             	mov    -0x2c(%ebp),%edx
    3564:	e9 f6 fe ff ff       	jmp    345f <usb_hid_translate_data+0x11f>
    3569:	8b 75 d0             	mov    -0x30(%ebp),%esi
    356c:	8b 4d ec             	mov    -0x14(%ebp),%ecx
    356f:	01 d6                	add    %edx,%esi
    3571:	29 d1                	sub    %edx,%ecx
    3573:	89 75 cc             	mov    %esi,-0x34(%ebp)
    3576:	be 01 00 00 00       	mov    $0x1,%esi
    357b:	d3 e6                	shl    %cl,%esi
    357d:	4e                   	dec    %esi
    357e:	8a 4d cc             	mov    -0x34(%ebp),%cl
    3581:	d3 e6                	shl    %cl,%esi
    3583:	89 75 c8             	mov    %esi,-0x38(%ebp)
    3586:	8b 75 0c             	mov    0xc(%ebp),%esi
    3589:	31 c9                	xor    %ecx,%ecx
    358b:	8a 0c 3e             	mov    (%esi,%edi,1),%cl
    358e:	8b 75 c8             	mov    -0x38(%ebp),%esi
    3591:	21 ce                	and    %ecx,%esi
    3593:	8a 4d cc             	mov    -0x34(%ebp),%cl
    3596:	d3 fe                	sar    %cl,%esi
    3598:	88 d1                	mov    %dl,%cl
    359a:	d3 e6                	shl    %cl,%esi
    359c:	01 f0                	add    %esi,%eax
    359e:	e9 bc fe ff ff       	jmp    345f <usb_hid_translate_data+0x11f>
    35a3:	8d b6 00 00 00 00    	lea    0x0(%esi),%esi
    35a9:	8d bc 27 00 00 00 00 	lea    0x0(%edi,%eiz,1),%edi

000035b0 <usb_hid_parse_report>:
    35b0:	55                   	push   %ebp
    35b1:	89 e5                	mov    %esp,%ebp
    35b3:	57                   	push   %edi
    35b4:	56                   	push   %esi
    35b5:	53                   	push   %ebx
    35b6:	83 ec 4c             	sub    $0x4c,%esp
    35b9:	8b 45 08             	mov    0x8(%ebp),%eax
    35bc:	85 c0                	test   %eax,%eax
    35be:	0f 84 f0 02 00 00    	je     38b4 <usb_hid_parse_report+0x304>
    35c4:	8b 70 18             	mov    0x18(%eax),%esi
    35c7:	85 f6                	test   %esi,%esi
    35c9:	0f 84 dc 02 00 00    	je     38ab <usb_hid_parse_report+0x2fb>
    35cf:	8b 7d 0c             	mov    0xc(%ebp),%edi
    35d2:	31 c9                	xor    %ecx,%ecx
    35d4:	8a 17                	mov    (%edi),%dl
    35d6:	88 d1                	mov    %dl,%cl
    35d8:	8b 5d 14             	mov    0x14(%ebp),%ebx
    35db:	88 13                	mov    %dl,(%ebx)
    35dd:	53                   	push   %ebx
    35de:	6a 01                	push   $0x1
    35e0:	51                   	push   %ecx
    35e1:	50                   	push   %eax
    35e2:	e8 09 e6 ff ff       	call   1bf0 <usb_hid_report_find_description>
    35e7:	83 c4 10             	add    $0x10,%esp
    35ea:	85 c0                	test   %eax,%eax
    35ec:	0f 84 c2 02 00 00    	je     38b4 <usb_hid_parse_report+0x304>
    35f2:	8b 78 14             	mov    0x14(%eax),%edi
    35f5:	83 c0 10             	add    $0x10,%eax
    35f8:	89 45 e0             	mov    %eax,-0x20(%ebp)
    35fb:	39 c7                	cmp    %eax,%edi
    35fd:	8d 77 c0             	lea    -0x40(%edi),%esi
    3600:	0f 84 a4 01 00 00    	je     37aa <usb_hid_parse_report+0x1fa>
    3606:	66 90                	xchg   %ax,%ax
    3608:	8a 46 0c             	mov    0xc(%esi),%al
    360b:	a8 01                	test   $0x1,%al
    360d:	0f 85 88 01 00 00    	jne    379b <usb_hid_parse_report+0x1eb>
    3613:	a8 02                	test   $0x2,%al
    3615:	0f 85 9d 01 00 00    	jne    37b8 <usb_hid_parse_report+0x208>
    361b:	8b 46 04             	mov    0x4(%esi),%eax
    361e:	89 45 d8             	mov    %eax,-0x28(%ebp)
    3621:	83 f8 20             	cmp    $0x20,%eax
    3624:	8b 46 1c             	mov    0x1c(%esi),%eax
    3627:	89 45 dc             	mov    %eax,-0x24(%ebp)
    362a:	0f 87 a0 01 00 00    	ja     37d0 <usb_hid_parse_report+0x220>
    3630:	85 c0                	test   %eax,%eax
    3632:	0f 84 a0 01 00 00    	je     37d8 <usb_hid_parse_report+0x228>
    3638:	8b 46 14             	mov    0x14(%esi),%eax
    363b:	8b 5e 20             	mov    0x20(%esi),%ebx
    363e:	89 45 d4             	mov    %eax,-0x2c(%ebp)
    3641:	3b 5d dc             	cmp    -0x24(%ebp),%ebx
    3644:	0f 84 b4 01 00 00    	je     37fe <usb_hid_parse_report+0x24e>
    364a:	8b 55 d4             	mov    -0x2c(%ebp),%edx
    364d:	8b 4d dc             	mov    -0x24(%ebp),%ecx
    3650:	8b 46 18             	mov    0x18(%esi),%eax
    3653:	29 cb                	sub    %ecx,%ebx
    3655:	29 d0                	sub    %edx,%eax
    3657:	b9 01 00 00 00       	mov    $0x1,%ecx
    365c:	8b 56 30             	mov    0x30(%esi),%edx
    365f:	85 d2                	test   %edx,%edx
    3661:	0f 84 d1 01 00 00    	je     3838 <usb_hid_parse_report+0x288>
    3667:	83 fa 01             	cmp    $0x1,%edx
    366a:	0f 85 d8 01 00 00    	jne    3848 <usb_hid_parse_report+0x298>
    3670:	ba 0a 00 00 00       	mov    $0xa,%edx
    3675:	0f af ca             	imul   %edx,%ecx
    3678:	0f af d9             	imul   %ecx,%ebx
    367b:	89 c2                	mov    %eax,%edx
    367d:	c1 fa 1f             	sar    $0x1f,%edx
    3680:	f7 fb                	idiv   %ebx
    3682:	89 45 d0             	mov    %eax,-0x30(%ebp)
    3685:	8b 06                	mov    (%esi),%eax
    3687:	89 c2                	mov    %eax,%edx
    3689:	c1 fa 1f             	sar    $0x1f,%edx
    368c:	89 d1                	mov    %edx,%ecx
    368e:	89 55 cc             	mov    %edx,-0x34(%ebp)
    3691:	83 e1 07             	and    $0x7,%ecx
    3694:	01 c1                	add    %eax,%ecx
    3696:	c1 f9 03             	sar    $0x3,%ecx
    3699:	89 cb                	mov    %ecx,%ebx
    369b:	89 4d e4             	mov    %ecx,-0x1c(%ebp)
    369e:	8b 4d d8             	mov    -0x28(%ebp),%ecx
    36a1:	8d 51 ff             	lea    -0x1(%ecx),%edx
    36a4:	89 55 c4             	mov    %edx,-0x3c(%ebp)
    36a7:	8d 0c 10             	lea    (%eax,%edx,1),%ecx
    36aa:	c1 e9 03             	shr    $0x3,%ecx
    36ad:	89 ca                	mov    %ecx,%edx
    36af:	89 55 c8             	mov    %edx,-0x38(%ebp)
    36b2:	39 d3                	cmp    %edx,%ebx
    36b4:	0f 84 9e 01 00 00    	je     3858 <usb_hid_parse_report+0x2a8>
    36ba:	0f 87 d9 01 00 00    	ja     3899 <usb_hid_parse_report+0x2e9>
    36c0:	8b 55 cc             	mov    -0x34(%ebp),%edx
    36c3:	b9 08 00 00 00       	mov    $0x8,%ecx
    36c8:	c1 ea 1d             	shr    $0x1d,%edx
    36cb:	89 5d cc             	mov    %ebx,-0x34(%ebp)
    36ce:	01 d0                	add    %edx,%eax
    36d0:	bb 08 00 00 00       	mov    $0x8,%ebx
    36d5:	83 e0 07             	and    $0x7,%eax
    36d8:	89 7d c0             	mov    %edi,-0x40(%ebp)
    36db:	29 d0                	sub    %edx,%eax
    36dd:	8b 55 d8             	mov    -0x28(%ebp),%edx
    36e0:	29 c1                	sub    %eax,%ecx
    36e2:	29 d3                	sub    %edx,%ebx
    36e4:	89 c8                	mov    %ecx,%eax
    36e6:	89 4d b4             	mov    %ecx,-0x4c(%ebp)
    36e9:	89 d1                	mov    %edx,%ecx
    36eb:	89 5d b0             	mov    %ebx,-0x50(%ebp)
    36ee:	29 c1                	sub    %eax,%ecx
    36f0:	b8 01 00 00 00       	mov    $0x1,%eax
    36f5:	d3 e0                	shl    %cl,%eax
    36f7:	48                   	dec    %eax
    36f8:	89 75 bc             	mov    %esi,-0x44(%ebp)
    36fb:	89 45 b8             	mov    %eax,-0x48(%ebp)
    36fe:	8b 7d c8             	mov    -0x38(%ebp),%edi
    3701:	31 c0                	xor    %eax,%eax
    3703:	8b 5d cc             	mov    -0x34(%ebp),%ebx
    3706:	31 f6                	xor    %esi,%esi
    3708:	39 5d e4             	cmp    %ebx,-0x1c(%ebp)
    370b:	0f 84 e7 01 00 00    	je     38f8 <usb_hid_parse_report+0x348>
    3711:	39 df                	cmp    %ebx,%edi
    3713:	0f 84 a5 01 00 00    	je     38be <usb_hid_parse_report+0x30e>
    3719:	8b 4d 0c             	mov    0xc(%ebp),%ecx
    371c:	83 c6 08             	add    $0x8,%esi
    371f:	31 d2                	xor    %edx,%edx
    3721:	8a 51 01             	mov    0x1(%ecx),%dl
    3724:	89 f1                	mov    %esi,%ecx
    3726:	d3 e2                	shl    %cl,%edx
    3728:	01 d0                	add    %edx,%eax
    372a:	43                   	inc    %ebx
    372b:	39 df                	cmp    %ebx,%edi
    372d:	73 d9                	jae    3708 <usb_hid_parse_report+0x158>
    372f:	8b 7d c0             	mov    -0x40(%ebp),%edi
    3732:	8b 75 bc             	mov    -0x44(%ebp),%esi
    3735:	8b 55 d4             	mov    -0x2c(%ebp),%edx
    3738:	85 d2                	test   %edx,%edx
    373a:	0f 88 d0 00 00 00    	js     3810 <usb_hid_parse_report+0x260>
    3740:	8b 5e 18             	mov    0x18(%esi),%ebx
    3743:	85 db                	test   %ebx,%ebx
    3745:	0f 88 c5 00 00 00    	js     3810 <usb_hid_parse_report+0x260>
    374b:	8b 55 d4             	mov    -0x2c(%ebp),%edx
    374e:	8b 4d dc             	mov    -0x24(%ebp),%ecx
    3751:	29 d0                	sub    %edx,%eax
    3753:	89 c2                	mov    %eax,%edx
    3755:	c1 fa 1f             	sar    $0x1f,%edx
    3758:	f7 7d d0             	idivl  -0x30(%ebp)
    375b:	01 c8                	add    %ecx,%eax
    375d:	8b 55 dc             	mov    -0x24(%ebp),%edx
    3760:	89 46 3c             	mov    %eax,0x3c(%esi)
    3763:	29 d0                	sub    %edx,%eax
    3765:	8b 56 34             	mov    0x34(%esi),%edx
    3768:	8b 04 82             	mov    (%edx,%eax,4),%eax
    376b:	66 89 46 0a          	mov    %ax,0xa(%esi)
    376f:	c1 e8 10             	shr    $0x10,%eax
    3772:	66 89 46 08          	mov    %ax,0x8(%esi)
    3776:	51                   	push   %ecx
    3777:	8b 5e 10             	mov    0x10(%esi),%ebx
    377a:	50                   	push   %eax
    377b:	6a 01                	push   $0x1
    377d:	53                   	push   %ebx
    377e:	e8 8d 09 00 00       	call   4110 <usb_hid_report_set_last_item>
    3783:	83 c4 0c             	add    $0xc,%esp
    3786:	31 c0                	xor    %eax,%eax
    3788:	66 8b 46 0a          	mov    0xa(%esi),%ax
    378c:	8b 76 10             	mov    0x10(%esi),%esi
    378f:	50                   	push   %eax
    3790:	6a 02                	push   $0x2
    3792:	56                   	push   %esi
    3793:	e8 78 09 00 00       	call   4110 <usb_hid_report_set_last_item>
    3798:	83 c4 10             	add    $0x10,%esp
    379b:	8b 7f 04             	mov    0x4(%edi),%edi
    379e:	3b 7d e0             	cmp    -0x20(%ebp),%edi
    37a1:	8d 77 c0             	lea    -0x40(%edi),%esi
    37a4:	0f 85 5e fe ff ff    	jne    3608 <usb_hid_parse_report+0x58>
    37aa:	31 c0                	xor    %eax,%eax
    37ac:	8d 65 f4             	lea    -0xc(%ebp),%esp
    37af:	5b                   	pop    %ebx
    37b0:	5e                   	pop    %esi
    37b1:	5f                   	pop    %edi
    37b2:	5d                   	pop    %ebp
    37b3:	c3                   	ret    
    37b4:	8d 74 26 00          	lea    0x0(%esi,%eiz,1),%esi
    37b8:	8b 5d 0c             	mov    0xc(%ebp),%ebx
    37bb:	51                   	push   %ecx
    37bc:	51                   	push   %ecx
    37bd:	53                   	push   %ebx
    37be:	56                   	push   %esi
    37bf:	e8 7c fb ff ff       	call   3340 <usb_hid_translate_data>
    37c4:	83 c4 10             	add    $0x10,%esp
    37c7:	89 46 3c             	mov    %eax,0x3c(%esi)
    37ca:	eb cf                	jmp    379b <usb_hid_parse_report+0x1eb>
    37cc:	8d 74 26 00          	lea    0x0(%esi,%eiz,1),%esi
    37d0:	31 c0                	xor    %eax,%eax
    37d2:	eb 89                	jmp    375d <usb_hid_parse_report+0x1ad>
    37d4:	8d 74 26 00          	lea    0x0(%esi,%eiz,1),%esi
    37d8:	8b 5e 20             	mov    0x20(%esi),%ebx
    37db:	8b 46 14             	mov    0x14(%esi),%eax
    37de:	89 45 d4             	mov    %eax,-0x2c(%ebp)
    37e1:	85 db                	test   %ebx,%ebx
    37e3:	0f 85 61 fe ff ff    	jne    364a <usb_hid_parse_report+0x9a>
    37e9:	8b 5e 18             	mov    0x18(%esi),%ebx
    37ec:	89 45 dc             	mov    %eax,-0x24(%ebp)
    37ef:	89 46 1c             	mov    %eax,0x1c(%esi)
    37f2:	89 5e 20             	mov    %ebx,0x20(%esi)
    37f5:	3b 5d dc             	cmp    -0x24(%ebp),%ebx
    37f8:	0f 85 4c fe ff ff    	jne    364a <usb_hid_parse_report+0x9a>
    37fe:	c7 45 d0 01 00 00 00 	movl   $0x1,-0x30(%ebp)
    3805:	e9 7b fe ff ff       	jmp    3685 <usb_hid_parse_report+0xd5>
    380a:	8d b6 00 00 00 00    	lea    0x0(%esi),%esi
    3810:	89 c2                	mov    %eax,%edx
    3812:	8a 4d c4             	mov    -0x3c(%ebp),%cl
    3815:	d3 fa                	sar    %cl,%edx
    3817:	83 e2 01             	and    $0x1,%edx
    381a:	0f 84 2b ff ff ff    	je     374b <usb_hid_parse_report+0x19b>
    3820:	ba 01 00 00 00       	mov    $0x1,%edx
    3825:	8a 4d d8             	mov    -0x28(%ebp),%cl
    3828:	d3 e2                	shl    %cl,%edx
    382a:	4a                   	dec    %edx
    382b:	f7 d8                	neg    %eax
    382d:	21 d0                	and    %edx,%eax
    382f:	f7 d8                	neg    %eax
    3831:	e9 15 ff ff ff       	jmp    374b <usb_hid_parse_report+0x19b>
    3836:	66 90                	xchg   %ax,%ax
    3838:	ba 01 00 00 00       	mov    $0x1,%edx
    383d:	e9 33 fe ff ff       	jmp    3675 <usb_hid_parse_report+0xc5>
    3842:	8d b6 00 00 00 00    	lea    0x0(%esi),%esi
    3848:	8d 0c 89             	lea    (%ecx,%ecx,4),%ecx
    384b:	4a                   	dec    %edx
    384c:	01 c9                	add    %ecx,%ecx
    384e:	e9 0c fe ff ff       	jmp    365f <usb_hid_parse_report+0xaf>
    3853:	90                   	nop
    3854:	8d 74 26 00          	lea    0x0(%esi,%eiz,1),%esi
    3858:	8b 55 cc             	mov    -0x34(%ebp),%edx
    385b:	8b 4d d8             	mov    -0x28(%ebp),%ecx
    385e:	c1 ea 1d             	shr    $0x1d,%edx
    3861:	bb 08 00 00 00       	mov    $0x8,%ebx
    3866:	01 d0                	add    %edx,%eax
    3868:	29 cb                	sub    %ecx,%ebx
    386a:	83 e0 07             	and    $0x7,%eax
    386d:	29 d0                	sub    %edx,%eax
    386f:	31 d2                	xor    %edx,%edx
    3871:	29 c3                	sub    %eax,%ebx
    3873:	b8 01 00 00 00       	mov    $0x1,%eax
    3878:	d3 e0                	shl    %cl,%eax
    387a:	48                   	dec    %eax
    387b:	88 d9                	mov    %bl,%cl
    387d:	d3 e0                	shl    %cl,%eax
    387f:	89 45 cc             	mov    %eax,-0x34(%ebp)
    3882:	8b 4d 0c             	mov    0xc(%ebp),%ecx
    3885:	8b 45 e4             	mov    -0x1c(%ebp),%eax
    3888:	8a 14 01             	mov    (%ecx,%eax,1),%dl
    388b:	8b 45 cc             	mov    -0x34(%ebp),%eax
    388e:	21 d0                	and    %edx,%eax
    3890:	88 d9                	mov    %bl,%cl
    3892:	d3 f8                	sar    %cl,%eax
    3894:	e9 9c fe ff ff       	jmp    3735 <usb_hid_parse_report+0x185>
    3899:	8b 55 d4             	mov    -0x2c(%ebp),%edx
    389c:	31 c0                	xor    %eax,%eax
    389e:	85 d2                	test   %edx,%edx
    38a0:	0f 89 9a fe ff ff    	jns    3740 <usb_hid_parse_report+0x190>
    38a6:	e9 a0 fe ff ff       	jmp    374b <usb_hid_parse_report+0x19b>
    38ab:	31 c9                	xor    %ecx,%ecx
    38ad:	31 d2                	xor    %edx,%edx
    38af:	e9 24 fd ff ff       	jmp    35d8 <usb_hid_parse_report+0x28>
    38b4:	b8 f2 ff ff ff       	mov    $0xfffffff2,%eax
    38b9:	e9 ee fe ff ff       	jmp    37ac <usb_hid_parse_report+0x1fc>
    38be:	8b 55 b0             	mov    -0x50(%ebp),%edx
    38c1:	8b 4d d8             	mov    -0x28(%ebp),%ecx
    38c4:	01 f2                	add    %esi,%edx
    38c6:	29 f1                	sub    %esi,%ecx
    38c8:	89 55 cc             	mov    %edx,-0x34(%ebp)
    38cb:	ba 01 00 00 00       	mov    $0x1,%edx
    38d0:	d3 e2                	shl    %cl,%edx
    38d2:	4a                   	dec    %edx
    38d3:	8a 4d cc             	mov    -0x34(%ebp),%cl
    38d6:	d3 e2                	shl    %cl,%edx
    38d8:	8b 4d 0c             	mov    0xc(%ebp),%ecx
    38db:	89 55 c8             	mov    %edx,-0x38(%ebp)
    38de:	31 d2                	xor    %edx,%edx
    38e0:	8a 14 39             	mov    (%ecx,%edi,1),%dl
    38e3:	8b 4d c8             	mov    -0x38(%ebp),%ecx
    38e6:	21 ca                	and    %ecx,%edx
    38e8:	8a 4d cc             	mov    -0x34(%ebp),%cl
    38eb:	d3 fa                	sar    %cl,%edx
    38ed:	89 f1                	mov    %esi,%ecx
    38ef:	d3 e2                	shl    %cl,%edx
    38f1:	01 d0                	add    %edx,%eax
    38f3:	e9 32 fe ff ff       	jmp    372a <usb_hid_parse_report+0x17a>
    38f8:	8b 75 0c             	mov    0xc(%ebp),%esi
    38fb:	8b 55 e4             	mov    -0x1c(%ebp),%edx
    38fe:	31 c0                	xor    %eax,%eax
    3900:	8a 04 16             	mov    (%esi,%edx,1),%al
    3903:	8b 75 b8             	mov    -0x48(%ebp),%esi
    3906:	21 f0                	and    %esi,%eax
    3908:	8b 75 b4             	mov    -0x4c(%ebp),%esi
    390b:	e9 1a fe ff ff       	jmp    372a <usb_hid_parse_report+0x17a>

00003910 <usb_hid_report_output>:
    3910:	55                   	push   %ebp
    3911:	89 e5                	mov    %esp,%ebp
    3913:	57                   	push   %edi
    3914:	56                   	push   %esi
    3915:	53                   	push   %ebx
    3916:	83 ec 0c             	sub    $0xc,%esp
    3919:	8b 4d 08             	mov    0x8(%ebp),%ecx
    391c:	8b 7d 0c             	mov    0xc(%ebp),%edi
    391f:	8a 5d 10             	mov    0x10(%ebp),%bl
    3922:	85 c9                	test   %ecx,%ecx
    3924:	74 5a                	je     3980 <usb_hid_report_output+0x70>
    3926:	8b 41 08             	mov    0x8(%ecx),%eax
    3929:	83 c1 04             	add    $0x4,%ecx
    392c:	39 c8                	cmp    %ecx,%eax
    392e:	8d 50 e8             	lea    -0x18(%eax),%edx
    3931:	75 0f                	jne    3942 <usb_hid_report_output+0x32>
    3933:	eb 4b                	jmp    3980 <usb_hid_report_output+0x70>
    3935:	8d 76 00             	lea    0x0(%esi),%esi
    3938:	8b 40 04             	mov    0x4(%eax),%eax
    393b:	39 c8                	cmp    %ecx,%eax
    393d:	8d 50 e8             	lea    -0x18(%eax),%edx
    3940:	74 3e                	je     3980 <usb_hid_report_output+0x70>
    3942:	38 1a                	cmp    %bl,(%edx)
    3944:	75 f2                	jne    3938 <usb_hid_report_output+0x28>
    3946:	83 7a 04 02          	cmpl   $0x2,0x4(%edx)
    394a:	75 ec                	jne    3938 <usb_hid_report_output+0x28>
    394c:	8b 42 08             	mov    0x8(%edx),%eax
    394f:	83 ec 0c             	sub    $0xc,%esp
    3952:	83 c0 07             	add    $0x7,%eax
    3955:	c1 e8 03             	shr    $0x3,%eax
    3958:	89 07                	mov    %eax,(%edi)
    395a:	50                   	push   %eax
    395b:	e8 10 3c 00 00       	call   7570 <malloc@plt>
    3960:	83 c4 0c             	add    $0xc,%esp
    3963:	89 c6                	mov    %eax,%esi
    3965:	8b 07                	mov    (%edi),%eax
    3967:	50                   	push   %eax
    3968:	6a 00                	push   $0x0
    396a:	56                   	push   %esi
    396b:	e8 b0 3c 00 00       	call   7620 <memset@plt>
    3970:	83 c4 10             	add    $0x10,%esp
    3973:	8d 65 f4             	lea    -0xc(%ebp),%esp
    3976:	89 f0                	mov    %esi,%eax
    3978:	5b                   	pop    %ebx
    3979:	5e                   	pop    %esi
    397a:	5f                   	pop    %edi
    397b:	5d                   	pop    %ebp
    397c:	c3                   	ret    
    397d:	8d 76 00             	lea    0x0(%esi),%esi
    3980:	c7 07 00 00 00 00    	movl   $0x0,(%edi)
    3986:	31 f6                	xor    %esi,%esi
    3988:	eb e9                	jmp    3973 <usb_hid_report_output+0x63>
    398a:	8d b6 00 00 00 00    	lea    0x0(%esi),%esi

00003990 <usb_hid_report_output_free>:
    3990:	55                   	push   %ebp
    3991:	89 e5                	mov    %esp,%ebp
    3993:	8b 45 08             	mov    0x8(%ebp),%eax
    3996:	85 c0                	test   %eax,%eax
    3998:	74 06                	je     39a0 <usb_hid_report_output_free+0x10>
    399a:	5d                   	pop    %ebp
    399b:	e9 60 3d 00 00       	jmp    7700 <free@plt>
    39a0:	5d                   	pop    %ebp
    39a1:	c3                   	ret    
    39a2:	8d b4 26 00 00 00 00 	lea    0x0(%esi,%eiz,1),%esi
    39a9:	8d bc 27 00 00 00 00 	lea    0x0(%edi,%eiz,1),%edi

000039b0 <usb_hid_report_output_translate>:
    39b0:	55                   	push   %ebp
    39b1:	89 e5                	mov    %esp,%ebp
    39b3:	57                   	push   %edi
    39b4:	56                   	push   %esi
    39b5:	53                   	push   %ebx
    39b6:	83 ec 3c             	sub    $0x3c,%esp
    39b9:	8b 55 08             	mov    0x8(%ebp),%edx
    39bc:	8b 45 0c             	mov    0xc(%ebp),%eax
    39bf:	85 d2                	test   %edx,%edx
    39c1:	0f 84 10 03 00 00    	je     3cd7 <usb_hid_report_output_translate+0x327>
    39c7:	8b 5a 18             	mov    0x18(%edx),%ebx
    39ca:	85 db                	test   %ebx,%ebx
    39cc:	74 05                	je     39d3 <usb_hid_report_output_translate+0x23>
    39ce:	8b 75 10             	mov    0x10(%ebp),%esi
    39d1:	88 06                	mov    %al,(%esi)
    39d3:	25 ff 00 00 00       	and    $0xff,%eax
    39d8:	51                   	push   %ecx
    39d9:	6a 02                	push   $0x2
    39db:	50                   	push   %eax
    39dc:	52                   	push   %edx
    39dd:	e8 0e e2 ff ff       	call   1bf0 <usb_hid_report_find_description>
    39e2:	83 c4 10             	add    $0x10,%esp
    39e5:	89 45 cc             	mov    %eax,-0x34(%ebp)
    39e8:	85 c0                	test   %eax,%eax
    39ea:	0f 84 e7 02 00 00    	je     3cd7 <usb_hid_report_output_translate+0x327>
    39f0:	8b 70 14             	mov    0x14(%eax),%esi
    39f3:	83 c0 10             	add    $0x10,%eax
    39f6:	89 75 d0             	mov    %esi,-0x30(%ebp)
    39f9:	89 45 c8             	mov    %eax,-0x38(%ebp)
    39fc:	8d 7e c0             	lea    -0x40(%esi),%edi
    39ff:	39 c6                	cmp    %eax,%esi
    3a01:	0f 84 b2 01 00 00    	je     3bb9 <usb_hid_report_output_translate+0x209>
    3a07:	89 7d dc             	mov    %edi,-0x24(%ebp)
    3a0a:	8d b6 00 00 00 00    	lea    0x0(%esi),%esi
    3a10:	8b 45 dc             	mov    -0x24(%ebp),%eax
    3a13:	8b 48 1c             	mov    0x1c(%eax),%ecx
    3a16:	8b 78 3c             	mov    0x3c(%eax),%edi
    3a19:	85 c9                	test   %ecx,%ecx
    3a1b:	0f 84 a7 01 00 00    	je     3bc8 <usb_hid_report_output_translate+0x218>
    3a21:	8b 58 20             	mov    0x20(%eax),%ebx
    3a24:	8b 70 14             	mov    0x14(%eax),%esi
    3a27:	39 cb                	cmp    %ecx,%ebx
    3a29:	0f 84 ba 01 00 00    	je     3be9 <usb_hid_report_output_translate+0x239>
    3a2f:	8b 55 dc             	mov    -0x24(%ebp),%edx
    3a32:	29 cb                	sub    %ecx,%ebx
    3a34:	89 5d e4             	mov    %ebx,-0x1c(%ebp)
    3a37:	bb 01 00 00 00       	mov    $0x1,%ebx
    3a3c:	8b 42 18             	mov    0x18(%edx),%eax
    3a3f:	8b 52 30             	mov    0x30(%edx),%edx
    3a42:	29 f0                	sub    %esi,%eax
    3a44:	85 d2                	test   %edx,%edx
    3a46:	0f 84 d2 01 00 00    	je     3c1e <usb_hid_report_output_translate+0x26e>
    3a4c:	83 fa 01             	cmp    $0x1,%edx
    3a4f:	0f 85 bb 01 00 00    	jne    3c10 <usb_hid_report_output_translate+0x260>
    3a55:	ba 0a 00 00 00       	mov    $0xa,%edx
    3a5a:	0f af da             	imul   %edx,%ebx
    3a5d:	8b 55 e4             	mov    -0x1c(%ebp),%edx
    3a60:	0f af da             	imul   %edx,%ebx
    3a63:	89 c2                	mov    %eax,%edx
    3a65:	c1 fa 1f             	sar    $0x1f,%edx
    3a68:	f7 fb                	idiv   %ebx
    3a6a:	89 fb                	mov    %edi,%ebx
    3a6c:	29 cb                	sub    %ecx,%ebx
    3a6e:	0f af d8             	imul   %eax,%ebx
    3a71:	01 f3                	add    %esi,%ebx
    3a73:	53                   	push   %ebx
    3a74:	56                   	push   %esi
    3a75:	51                   	push   %ecx
    3a76:	50                   	push   %eax
    3a77:	57                   	push   %edi
    3a78:	68 98 52 00 00       	push   $0x5298
    3a7d:	6a 04                	push   $0x4
    3a7f:	6a ff                	push   $0xffffffff
    3a81:	e8 4a 3b 00 00       	call   75d0 <log_msg@plt>
    3a86:	8b 45 dc             	mov    -0x24(%ebp),%eax
    3a89:	8b 70 14             	mov    0x14(%eax),%esi
    3a8c:	83 c4 20             	add    $0x20,%esp
    3a8f:	85 f6                	test   %esi,%esi
    3a91:	0f 88 61 01 00 00    	js     3bf8 <usb_hid_report_output_translate+0x248>
    3a97:	8b 48 18             	mov    0x18(%eax),%ecx
    3a9a:	85 c9                	test   %ecx,%ecx
    3a9c:	0f 88 56 01 00 00    	js     3bf8 <usb_hid_report_output_translate+0x248>
    3aa2:	8b 40 04             	mov    0x4(%eax),%eax
    3aa5:	89 5d d8             	mov    %ebx,-0x28(%ebp)
    3aa8:	89 45 e0             	mov    %eax,-0x20(%ebp)
    3aab:	89 d8                	mov    %ebx,%eax
    3aad:	8b 75 cc             	mov    -0x34(%ebp),%esi
    3ab0:	89 45 e4             	mov    %eax,-0x1c(%ebp)
    3ab3:	8b 76 08             	mov    0x8(%esi),%esi
    3ab6:	89 75 d4             	mov    %esi,-0x2c(%ebp)
    3ab9:	8d 7e ff             	lea    -0x1(%esi),%edi
    3abc:	8b 75 dc             	mov    -0x24(%ebp),%esi
    3abf:	8b 16                	mov    (%esi),%edx
    3ac1:	50                   	push   %eax
    3ac2:	29 d7                	sub    %edx,%edi
    3ac4:	68 d4 52 00 00       	push   $0x52d4
    3ac9:	6a 04                	push   $0x4
    3acb:	6a ff                	push   $0xffffffff
    3acd:	e8 fe 3a 00 00       	call   75d0 <log_msg@plt>
    3ad2:	89 f8                	mov    %edi,%eax
    3ad4:	c1 f8 1f             	sar    $0x1f,%eax
    3ad7:	83 c4 10             	add    $0x10,%esp
    3ada:	89 c6                	mov    %eax,%esi
    3adc:	89 45 d4             	mov    %eax,-0x2c(%ebp)
    3adf:	8b 45 e0             	mov    -0x20(%ebp),%eax
    3ae2:	83 e6 07             	and    $0x7,%esi
    3ae5:	01 f8                	add    %edi,%eax
    3ae7:	01 fe                	add    %edi,%esi
    3ae9:	c1 fe 03             	sar    $0x3,%esi
    3aec:	8d 50 ff             	lea    -0x1(%eax),%edx
    3aef:	89 d3                	mov    %edx,%ebx
    3af1:	c1 fb 1f             	sar    $0x1f,%ebx
    3af4:	83 e3 07             	and    $0x7,%ebx
    3af7:	01 d3                	add    %edx,%ebx
    3af9:	c1 fb 03             	sar    $0x3,%ebx
    3afc:	39 de                	cmp    %ebx,%esi
    3afe:	0f 84 24 01 00 00    	je     3c28 <usb_hid_report_output_translate+0x278>
    3b04:	0f 8f 8d 00 00 00    	jg     3b97 <usb_hid_report_output_translate+0x1e7>
    3b0a:	89 c2                	mov    %eax,%edx
    3b0c:	c1 fa 1f             	sar    $0x1f,%edx
    3b0f:	c1 ea 1d             	shr    $0x1d,%edx
    3b12:	01 d0                	add    %edx,%eax
    3b14:	83 e0 07             	and    $0x7,%eax
    3b17:	29 d0                	sub    %edx,%eax
    3b19:	8b 55 e0             	mov    -0x20(%ebp),%edx
    3b1c:	29 c2                	sub    %eax,%edx
    3b1e:	b8 01 00 00 00       	mov    $0x1,%eax
    3b23:	89 d1                	mov    %edx,%ecx
    3b25:	89 55 c4             	mov    %edx,-0x3c(%ebp)
    3b28:	89 c2                	mov    %eax,%edx
    3b2a:	89 5d e0             	mov    %ebx,-0x20(%ebp)
    3b2d:	d3 e2                	shl    %cl,%edx
    3b2f:	8d 4a ff             	lea    -0x1(%edx),%ecx
    3b32:	4a                   	dec    %edx
    3b33:	88 55 bf             	mov    %dl,-0x41(%ebp)
    3b36:	8b 55 d4             	mov    -0x2c(%ebp),%edx
    3b39:	c1 ea 1d             	shr    $0x1d,%edx
    3b3c:	89 4d c0             	mov    %ecx,-0x40(%ebp)
    3b3f:	01 d7                	add    %edx,%edi
    3b41:	b9 08 00 00 00       	mov    $0x8,%ecx
    3b46:	83 e7 07             	and    $0x7,%edi
    3b49:	29 d7                	sub    %edx,%edi
    3b4b:	8b 55 10             	mov    0x10(%ebp),%edx
    3b4e:	29 f9                	sub    %edi,%ecx
    3b50:	89 7d b8             	mov    %edi,-0x48(%ebp)
    3b53:	d3 e0                	shl    %cl,%eax
    3b55:	48                   	dec    %eax
    3b56:	89 f9                	mov    %edi,%ecx
    3b58:	89 45 d8             	mov    %eax,-0x28(%ebp)
    3b5b:	01 f2                	add    %esi,%edx
    3b5d:	d3 e0                	shl    %cl,%eax
    3b5f:	83 f0 ff             	xor    $0xffffffff,%eax
    3b62:	8d 7b 01             	lea    0x1(%ebx),%edi
    3b65:	88 45 d4             	mov    %al,-0x2c(%ebp)
    3b68:	89 f0                	mov    %esi,%eax
    3b6a:	8d b6 00 00 00 00    	lea    0x0(%esi),%esi
    3b70:	39 c6                	cmp    %eax,%esi
    3b72:	0f 84 3e 01 00 00    	je     3cb6 <usb_hid_report_output_translate+0x306>
    3b78:	39 45 e0             	cmp    %eax,-0x20(%ebp)
    3b7b:	0f 84 15 01 00 00    	je     3c96 <usb_hid_report_output_translate+0x2e6>
    3b81:	88 c1                	mov    %al,%cl
    3b83:	bb ff 00 00 00       	mov    $0xff,%ebx
    3b88:	d3 e3                	shl    %cl,%ebx
    3b8a:	8b 4d e4             	mov    -0x1c(%ebp),%ecx
    3b8d:	21 d9                	and    %ebx,%ecx
    3b8f:	88 0a                	mov    %cl,(%edx)
    3b91:	40                   	inc    %eax
    3b92:	42                   	inc    %edx
    3b93:	39 f8                	cmp    %edi,%eax
    3b95:	75 d9                	jne    3b70 <usb_hid_report_output_translate+0x1c0>
    3b97:	8b 45 dc             	mov    -0x24(%ebp),%eax
    3b9a:	c7 40 3c 00 00 00 00 	movl   $0x0,0x3c(%eax)
    3ba1:	8b 45 d0             	mov    -0x30(%ebp),%eax
    3ba4:	8b 40 04             	mov    0x4(%eax),%eax
    3ba7:	89 45 d0             	mov    %eax,-0x30(%ebp)
    3baa:	3b 45 c8             	cmp    -0x38(%ebp),%eax
    3bad:	8d 78 c0             	lea    -0x40(%eax),%edi
    3bb0:	89 7d dc             	mov    %edi,-0x24(%ebp)
    3bb3:	0f 85 57 fe ff ff    	jne    3a10 <usb_hid_report_output_translate+0x60>
    3bb9:	8d 65 f4             	lea    -0xc(%ebp),%esp
    3bbc:	31 c0                	xor    %eax,%eax
    3bbe:	5b                   	pop    %ebx
    3bbf:	5e                   	pop    %esi
    3bc0:	5f                   	pop    %edi
    3bc1:	5d                   	pop    %ebp
    3bc2:	c3                   	ret    
    3bc3:	90                   	nop
    3bc4:	8d 74 26 00          	lea    0x0(%esi,%eiz,1),%esi
    3bc8:	8b 58 20             	mov    0x20(%eax),%ebx
    3bcb:	8b 70 14             	mov    0x14(%eax),%esi
    3bce:	85 db                	test   %ebx,%ebx
    3bd0:	0f 85 59 fe ff ff    	jne    3a2f <usb_hid_report_output_translate+0x7f>
    3bd6:	8b 58 18             	mov    0x18(%eax),%ebx
    3bd9:	89 f1                	mov    %esi,%ecx
    3bdb:	89 70 1c             	mov    %esi,0x1c(%eax)
    3bde:	89 58 20             	mov    %ebx,0x20(%eax)
    3be1:	39 cb                	cmp    %ecx,%ebx
    3be3:	0f 85 46 fe ff ff    	jne    3a2f <usb_hid_report_output_translate+0x7f>
    3be9:	b8 01 00 00 00       	mov    $0x1,%eax
    3bee:	e9 77 fe ff ff       	jmp    3a6a <usb_hid_report_output_translate+0xba>
    3bf3:	90                   	nop
    3bf4:	8d 74 26 00          	lea    0x0(%esi,%eiz,1),%esi
    3bf8:	85 db                	test   %ebx,%ebx
    3bfa:	78 7c                	js     3c78 <usb_hid_report_output_translate+0x2c8>
    3bfc:	8b 45 dc             	mov    -0x24(%ebp),%eax
    3bff:	89 5d d8             	mov    %ebx,-0x28(%ebp)
    3c02:	8b 40 04             	mov    0x4(%eax),%eax
    3c05:	89 45 e0             	mov    %eax,-0x20(%ebp)
    3c08:	89 d8                	mov    %ebx,%eax
    3c0a:	e9 9e fe ff ff       	jmp    3aad <usb_hid_report_output_translate+0xfd>
    3c0f:	90                   	nop
    3c10:	4a                   	dec    %edx
    3c11:	8d 1c 9b             	lea    (%ebx,%ebx,4),%ebx
    3c14:	01 db                	add    %ebx,%ebx
    3c16:	85 d2                	test   %edx,%edx
    3c18:	0f 85 2e fe ff ff    	jne    3a4c <usb_hid_report_output_translate+0x9c>
    3c1e:	ba 01 00 00 00       	mov    $0x1,%edx
    3c23:	e9 32 fe ff ff       	jmp    3a5a <usb_hid_report_output_translate+0xaa>
    3c28:	3b 75 14             	cmp    0x14(%ebp),%esi
    3c2b:	73 8c                	jae    3bb9 <usb_hid_report_output_translate+0x209>
    3c2d:	c1 ea 03             	shr    $0x3,%edx
    3c30:	39 55 14             	cmp    %edx,0x14(%ebp)
    3c33:	76 84                	jbe    3bb9 <usb_hid_report_output_translate+0x209>
    3c35:	8b 55 d4             	mov    -0x2c(%ebp),%edx
    3c38:	8b 5d d8             	mov    -0x28(%ebp),%ebx
    3c3b:	c1 ea 1d             	shr    $0x1d,%edx
    3c3e:	01 d7                	add    %edx,%edi
    3c40:	83 e7 07             	and    $0x7,%edi
    3c43:	29 fa                	sub    %edi,%edx
    3c45:	8b 7d e0             	mov    -0x20(%ebp),%edi
    3c48:	8d 42 08             	lea    0x8(%edx),%eax
    3c4b:	ba 01 00 00 00       	mov    $0x1,%edx
    3c50:	29 f8                	sub    %edi,%eax
    3c52:	88 c1                	mov    %al,%cl
    3c54:	d3 e3                	shl    %cl,%ebx
    3c56:	89 f9                	mov    %edi,%ecx
    3c58:	8b 7d 10             	mov    0x10(%ebp),%edi
    3c5b:	d3 e2                	shl    %cl,%edx
    3c5d:	4a                   	dec    %edx
    3c5e:	88 c1                	mov    %al,%cl
    3c60:	d3 e2                	shl    %cl,%edx
    3c62:	01 fe                	add    %edi,%esi
    3c64:	88 d0                	mov    %dl,%al
    3c66:	83 f0 ff             	xor    $0xffffffff,%eax
    3c69:	21 da                	and    %ebx,%edx
    3c6b:	22 06                	and    (%esi),%al
    3c6d:	09 d0                	or     %edx,%eax
    3c6f:	88 06                	mov    %al,(%esi)
    3c71:	e9 21 ff ff ff       	jmp    3b97 <usb_hid_report_output_translate+0x1e7>
    3c76:	66 90                	xchg   %ax,%ax
    3c78:	8b 45 dc             	mov    -0x24(%ebp),%eax
    3c7b:	8b 40 04             	mov    0x4(%eax),%eax
    3c7e:	89 c6                	mov    %eax,%esi
    3c80:	89 45 e0             	mov    %eax,-0x20(%ebp)
    3c83:	89 f1                	mov    %esi,%ecx
    3c85:	b8 01 00 00 00       	mov    $0x1,%eax
    3c8a:	d3 e0                	shl    %cl,%eax
    3c8c:	01 d8                	add    %ebx,%eax
    3c8e:	89 45 d8             	mov    %eax,-0x28(%ebp)
    3c91:	e9 17 fe ff ff       	jmp    3aad <usb_hid_report_output_translate+0xfd>
    3c96:	8b 5d e4             	mov    -0x1c(%ebp),%ebx
    3c99:	8a 4d c4             	mov    -0x3c(%ebp),%cl
    3c9c:	d3 fb                	sar    %cl,%ebx
    3c9e:	8b 4d c0             	mov    -0x40(%ebp),%ecx
    3ca1:	21 d9                	and    %ebx,%ecx
    3ca3:	89 cb                	mov    %ecx,%ebx
    3ca5:	89 4d e4             	mov    %ecx,-0x1c(%ebp)
    3ca8:	8a 4d bf             	mov    -0x41(%ebp),%cl
    3cab:	22 0a                	and    (%edx),%cl
    3cad:	09 d9                	or     %ebx,%ecx
    3caf:	88 0a                	mov    %cl,(%edx)
    3cb1:	e9 db fe ff ff       	jmp    3b91 <usb_hid_report_output_translate+0x1e1>
    3cb6:	8b 4d e4             	mov    -0x1c(%ebp),%ecx
    3cb9:	8b 5d d8             	mov    -0x28(%ebp),%ebx
    3cbc:	21 cb                	and    %ecx,%ebx
    3cbe:	8a 4d d4             	mov    -0x2c(%ebp),%cl
    3cc1:	22 0a                	and    (%edx),%cl
    3cc3:	88 4d be             	mov    %cl,-0x42(%ebp)
    3cc6:	8a 4d b8             	mov    -0x48(%ebp),%cl
    3cc9:	d3 e3                	shl    %cl,%ebx
    3ccb:	89 d9                	mov    %ebx,%ecx
    3ccd:	0a 4d be             	or     -0x42(%ebp),%cl
    3cd0:	88 0a                	mov    %cl,(%edx)
    3cd2:	e9 ba fe ff ff       	jmp    3b91 <usb_hid_report_output_translate+0x1e1>
    3cd7:	8d 65 f4             	lea    -0xc(%ebp),%esp
    3cda:	b8 f2 ff ff ff       	mov    $0xfffffff2,%eax
    3cdf:	5b                   	pop    %ebx
    3ce0:	5e                   	pop    %esi
    3ce1:	5f                   	pop    %edi
    3ce2:	5d                   	pop    %ebp
    3ce3:	c3                   	ret    
    3ce4:	8d b6 00 00 00 00    	lea    0x0(%esi),%esi
    3cea:	8d bf 00 00 00 00    	lea    0x0(%edi),%edi

00003cf0 <usb_hid_translate_data_reverse>:
    3cf0:	55                   	push   %ebp
    3cf1:	89 e5                	mov    %esp,%ebp
    3cf3:	57                   	push   %edi
    3cf4:	56                   	push   %esi
    3cf5:	53                   	push   %ebx
    3cf6:	83 ec 1c             	sub    $0x1c,%esp
    3cf9:	8b 5d 08             	mov    0x8(%ebp),%ebx
    3cfc:	8b 73 1c             	mov    0x1c(%ebx),%esi
    3cff:	85 f6                	test   %esi,%esi
    3d01:	0f 84 89 00 00 00    	je     3d90 <usb_hid_translate_data_reverse+0xa0>
    3d07:	8b 4b 20             	mov    0x20(%ebx),%ecx
    3d0a:	8b 7b 14             	mov    0x14(%ebx),%edi
    3d0d:	39 f1                	cmp    %esi,%ecx
    3d0f:	0f 84 9c 00 00 00    	je     3db1 <usb_hid_translate_data_reverse+0xc1>
    3d15:	29 f1                	sub    %esi,%ecx
    3d17:	8b 43 18             	mov    0x18(%ebx),%eax
    3d1a:	8b 53 30             	mov    0x30(%ebx),%edx
    3d1d:	29 f8                	sub    %edi,%eax
    3d1f:	89 4d e4             	mov    %ecx,-0x1c(%ebp)
    3d22:	85 d2                	test   %edx,%edx
    3d24:	b9 01 00 00 00       	mov    $0x1,%ecx
    3d29:	0f 84 97 00 00 00    	je     3dc6 <usb_hid_translate_data_reverse+0xd6>
    3d2f:	83 fa 01             	cmp    $0x1,%edx
    3d32:	0f 85 80 00 00 00    	jne    3db8 <usb_hid_translate_data_reverse+0xc8>
    3d38:	ba 0a 00 00 00       	mov    $0xa,%edx
    3d3d:	0f af ca             	imul   %edx,%ecx
    3d40:	8b 55 e4             	mov    -0x1c(%ebp),%edx
    3d43:	0f af ca             	imul   %edx,%ecx
    3d46:	89 c2                	mov    %eax,%edx
    3d48:	c1 fa 1f             	sar    $0x1f,%edx
    3d4b:	f7 f9                	idiv   %ecx
    3d4d:	8b 55 0c             	mov    0xc(%ebp),%edx
    3d50:	29 f2                	sub    %esi,%edx
    3d52:	0f af d0             	imul   %eax,%edx
    3d55:	01 fa                	add    %edi,%edx
    3d57:	52                   	push   %edx
    3d58:	57                   	push   %edi
    3d59:	56                   	push   %esi
    3d5a:	8b 75 0c             	mov    0xc(%ebp),%esi
    3d5d:	50                   	push   %eax
    3d5e:	89 55 e4             	mov    %edx,-0x1c(%ebp)
    3d61:	56                   	push   %esi
    3d62:	68 98 52 00 00       	push   $0x5298
    3d67:	6a 04                	push   $0x4
    3d69:	6a ff                	push   $0xffffffff
    3d6b:	e8 60 38 00 00       	call   75d0 <log_msg@plt>
    3d70:	8b 7b 14             	mov    0x14(%ebx),%edi
    3d73:	83 c4 20             	add    $0x20,%esp
    3d76:	8b 55 e4             	mov    -0x1c(%ebp),%edx
    3d79:	85 ff                	test   %edi,%edi
    3d7b:	78 53                	js     3dd0 <usb_hid_translate_data_reverse+0xe0>
    3d7d:	8b 4b 18             	mov    0x18(%ebx),%ecx
    3d80:	89 d0                	mov    %edx,%eax
    3d82:	85 c9                	test   %ecx,%ecx
    3d84:	78 4a                	js     3dd0 <usb_hid_translate_data_reverse+0xe0>
    3d86:	8d 65 f4             	lea    -0xc(%ebp),%esp
    3d89:	5b                   	pop    %ebx
    3d8a:	5e                   	pop    %esi
    3d8b:	5f                   	pop    %edi
    3d8c:	5d                   	pop    %ebp
    3d8d:	c3                   	ret    
    3d8e:	66 90                	xchg   %ax,%ax
    3d90:	8b 4b 20             	mov    0x20(%ebx),%ecx
    3d93:	8b 7b 14             	mov    0x14(%ebx),%edi
    3d96:	85 c9                	test   %ecx,%ecx
    3d98:	0f 85 77 ff ff ff    	jne    3d15 <usb_hid_translate_data_reverse+0x25>
    3d9e:	8b 4b 18             	mov    0x18(%ebx),%ecx
    3da1:	89 fe                	mov    %edi,%esi
    3da3:	89 7b 1c             	mov    %edi,0x1c(%ebx)
    3da6:	89 4b 20             	mov    %ecx,0x20(%ebx)
    3da9:	39 f1                	cmp    %esi,%ecx
    3dab:	0f 85 64 ff ff ff    	jne    3d15 <usb_hid_translate_data_reverse+0x25>
    3db1:	b8 01 00 00 00       	mov    $0x1,%eax
    3db6:	eb 95                	jmp    3d4d <usb_hid_translate_data_reverse+0x5d>
    3db8:	4a                   	dec    %edx
    3db9:	8d 0c 89             	lea    (%ecx,%ecx,4),%ecx
    3dbc:	01 c9                	add    %ecx,%ecx
    3dbe:	85 d2                	test   %edx,%edx
    3dc0:	0f 85 69 ff ff ff    	jne    3d2f <usb_hid_translate_data_reverse+0x3f>
    3dc6:	ba 01 00 00 00       	mov    $0x1,%edx
    3dcb:	e9 6d ff ff ff       	jmp    3d3d <usb_hid_translate_data_reverse+0x4d>
    3dd0:	89 d0                	mov    %edx,%eax
    3dd2:	85 d2                	test   %edx,%edx
    3dd4:	79 b0                	jns    3d86 <usb_hid_translate_data_reverse+0x96>
    3dd6:	8b 4b 04             	mov    0x4(%ebx),%ecx
    3dd9:	ba 01 00 00 00       	mov    $0x1,%edx
    3dde:	8d 65 f4             	lea    -0xc(%ebp),%esp
    3de1:	d3 e2                	shl    %cl,%edx
    3de3:	5b                   	pop    %ebx
    3de4:	01 d0                	add    %edx,%eax
    3de6:	5e                   	pop    %esi
    3de7:	5f                   	pop    %edi
    3de8:	5d                   	pop    %ebp
    3de9:	c3                   	ret    
    3dea:	8d b6 00 00 00 00    	lea    0x0(%esi),%esi

00003df0 <usb_hid_report_item_clone>:
    3df0:	55                   	push   %ebp
    3df1:	89 e5                	mov    %esp,%ebp
    3df3:	53                   	push   %ebx
    3df4:	83 ec 10             	sub    $0x10,%esp
    3df7:	68 68 00 04 00       	push   $0x40068
    3dfc:	e8 6f 37 00 00       	call   7570 <malloc@plt>
    3e01:	83 c4 10             	add    $0x10,%esp
    3e04:	89 c3                	mov    %eax,%ebx
    3e06:	85 c0                	test   %eax,%eax
    3e08:	74 27                	je     3e31 <usb_hid_report_item_clone+0x41>
    3e0a:	8b 55 08             	mov    0x8(%ebp),%edx
    3e0d:	50                   	push   %eax
    3e0e:	68 68 00 04 00       	push   $0x40068
    3e13:	52                   	push   %edx
    3e14:	53                   	push   %ebx
    3e15:	e8 46 37 00 00       	call   7560 <memcpy@plt>
    3e1a:	c7 83 5c 00 04 00 00 	movl   $0x0,0x4005c(%ebx)
    3e21:	00 00 00 
    3e24:	c7 83 60 00 04 00 00 	movl   $0x0,0x40060(%ebx)
    3e2b:	00 00 00 
    3e2e:	83 c4 10             	add    $0x10,%esp
    3e31:	89 d8                	mov    %ebx,%eax
    3e33:	8b 5d fc             	mov    -0x4(%ebp),%ebx
    3e36:	c9                   	leave  
    3e37:	c3                   	ret    
    3e38:	90                   	nop
    3e39:	8d b4 26 00 00 00 00 	lea    0x0(%esi,%eiz,1),%esi

00003e40 <usb_hid_report_get_sibling>:
    3e40:	55                   	push   %ebp
    3e41:	89 e5                	mov    %esp,%ebp
    3e43:	57                   	push   %edi
    3e44:	56                   	push   %esi
    3e45:	53                   	push   %ebx
    3e46:	83 ec 10             	sub    $0x10,%esp
    3e49:	8b 45 18             	mov    0x18(%ebp),%eax
    3e4c:	8b 55 10             	mov    0x10(%ebp),%edx
    3e4f:	50                   	push   %eax
    3e50:	31 c0                	xor    %eax,%eax
    3e52:	8a 42 04             	mov    0x4(%edx),%al
    3e55:	8b 5d 0c             	mov    0xc(%ebp),%ebx
    3e58:	50                   	push   %eax
    3e59:	8b 45 08             	mov    0x8(%ebp),%eax
    3e5c:	50                   	push   %eax
    3e5d:	e8 8e dd ff ff       	call   1bf0 <usb_hid_report_find_description>
    3e62:	83 c4 10             	add    $0x10,%esp
    3e65:	85 c0                	test   %eax,%eax
    3e67:	74 70                	je     3ed9 <usb_hid_report_get_sibling+0x99>
    3e69:	85 db                	test   %ebx,%ebx
    3e6b:	0f 84 90 00 00 00    	je     3f01 <usb_hid_report_get_sibling+0xc1>
    3e71:	8b 73 44             	mov    0x44(%ebx),%esi
    3e74:	8d 58 10             	lea    0x10(%eax),%ebx
    3e77:	39 de                	cmp    %ebx,%esi
    3e79:	75 0c                	jne    3e87 <usb_hid_report_get_sibling+0x47>
    3e7b:	eb 5c                	jmp    3ed9 <usb_hid_report_get_sibling+0x99>
    3e7d:	8d 76 00             	lea    0x0(%esi),%esi
    3e80:	8b 76 04             	mov    0x4(%esi),%esi
    3e83:	39 de                	cmp    %ebx,%esi
    3e85:	74 52                	je     3ed9 <usb_hid_report_get_sibling+0x99>
    3e87:	8d 7e c0             	lea    -0x40(%esi),%edi
    3e8a:	f6 47 0c 01          	testb  $0x1,0xc(%edi)
    3e8e:	75 f0                	jne    3e80 <usb_hid_report_get_sibling+0x40>
    3e90:	31 c0                	xor    %eax,%eax
    3e92:	51                   	push   %ecx
    3e93:	66 8b 47 0a          	mov    0xa(%edi),%ax
    3e97:	50                   	push   %eax
    3e98:	31 c0                	xor    %eax,%eax
    3e9a:	66 8b 47 08          	mov    0x8(%edi),%ax
    3e9e:	50                   	push   %eax
    3e9f:	8b 47 10             	mov    0x10(%edi),%eax
    3ea2:	50                   	push   %eax
    3ea3:	e8 78 01 00 00       	call   4020 <usb_hid_report_path_append_item>
    3ea8:	83 c4 0c             	add    $0xc,%esp
    3eab:	8b 45 14             	mov    0x14(%ebp),%eax
    3eae:	50                   	push   %eax
    3eaf:	8b 45 10             	mov    0x10(%ebp),%eax
    3eb2:	50                   	push   %eax
    3eb3:	8b 47 10             	mov    0x10(%edi),%eax
    3eb6:	50                   	push   %eax
    3eb7:	e8 34 03 00 00       	call   41f0 <usb_hid_report_compare_usage_path>
    3ebc:	83 c4 10             	add    $0x10,%esp
    3ebf:	85 c0                	test   %eax,%eax
    3ec1:	74 25                	je     3ee8 <usb_hid_report_get_sibling+0xa8>
    3ec3:	83 ec 0c             	sub    $0xc,%esp
    3ec6:	8b 47 10             	mov    0x10(%edi),%eax
    3ec9:	50                   	push   %eax
    3eca:	e8 a1 01 00 00       	call   4070 <usb_hid_report_remove_last_item>
    3ecf:	8b 76 04             	mov    0x4(%esi),%esi
    3ed2:	83 c4 10             	add    $0x10,%esp
    3ed5:	39 de                	cmp    %ebx,%esi
    3ed7:	75 ae                	jne    3e87 <usb_hid_report_get_sibling+0x47>
    3ed9:	8d 65 f4             	lea    -0xc(%ebp),%esp
    3edc:	31 ff                	xor    %edi,%edi
    3ede:	89 f8                	mov    %edi,%eax
    3ee0:	5b                   	pop    %ebx
    3ee1:	5e                   	pop    %esi
    3ee2:	5f                   	pop    %edi
    3ee3:	5d                   	pop    %ebp
    3ee4:	c3                   	ret    
    3ee5:	8d 76 00             	lea    0x0(%esi),%esi
    3ee8:	83 ec 0c             	sub    $0xc,%esp
    3eeb:	8b 57 10             	mov    0x10(%edi),%edx
    3eee:	52                   	push   %edx
    3eef:	e8 7c 01 00 00       	call   4070 <usb_hid_report_remove_last_item>
    3ef4:	83 c4 10             	add    $0x10,%esp
    3ef7:	8d 65 f4             	lea    -0xc(%ebp),%esp
    3efa:	89 f8                	mov    %edi,%eax
    3efc:	5b                   	pop    %ebx
    3efd:	5e                   	pop    %esi
    3efe:	5f                   	pop    %edi
    3eff:	5d                   	pop    %ebp
    3f00:	c3                   	ret    
    3f01:	8b 70 14             	mov    0x14(%eax),%esi
    3f04:	e9 6b ff ff ff       	jmp    3e74 <usb_hid_report_get_sibling+0x34>
    3f09:	8d b4 26 00 00 00 00 	lea    0x0(%esi,%eiz,1),%esi

00003f10 <usb_hid_get_next_report_id>:
    3f10:	55                   	push   %ebp
    3f11:	89 e5                	mov    %esp,%ebp
    3f13:	56                   	push   %esi
    3f14:	53                   	push   %ebx
    3f15:	8b 5d 08             	mov    0x8(%ebp),%ebx
    3f18:	8b 45 0c             	mov    0xc(%ebp),%eax
    3f1b:	8b 75 10             	mov    0x10(%ebp),%esi
    3f1e:	85 db                	test   %ebx,%ebx
    3f20:	74 2d                	je     3f4f <usb_hid_get_next_report_id+0x3f>
    3f22:	84 c0                	test   %al,%al
    3f24:	75 42                	jne    3f68 <usb_hid_get_next_report_id+0x58>
    3f26:	8b 43 08             	mov    0x8(%ebx),%eax
    3f29:	8d 4b 04             	lea    0x4(%ebx),%ecx
    3f2c:	39 c8                	cmp    %ecx,%eax
    3f2e:	74 1f                	je     3f4f <usb_hid_get_next_report_id+0x3f>
    3f30:	8d 50 e8             	lea    -0x18(%eax),%edx
    3f33:	3b 72 04             	cmp    0x4(%edx),%esi
    3f36:	75 10                	jne    3f48 <usb_hid_get_next_report_id+0x38>
    3f38:	eb 1e                	jmp    3f58 <usb_hid_get_next_report_id+0x48>
    3f3a:	8d b6 00 00 00 00    	lea    0x0(%esi),%esi
    3f40:	8d 50 e8             	lea    -0x18(%eax),%edx
    3f43:	3b 70 ec             	cmp    -0x14(%eax),%esi
    3f46:	74 10                	je     3f58 <usb_hid_get_next_report_id+0x48>
    3f48:	8b 40 04             	mov    0x4(%eax),%eax
    3f4b:	39 c8                	cmp    %ecx,%eax
    3f4d:	75 f1                	jne    3f40 <usb_hid_get_next_report_id+0x30>
    3f4f:	8d 65 f8             	lea    -0x8(%ebp),%esp
    3f52:	31 c0                	xor    %eax,%eax
    3f54:	5b                   	pop    %ebx
    3f55:	5e                   	pop    %esi
    3f56:	5d                   	pop    %ebp
    3f57:	c3                   	ret    
    3f58:	8a 02                	mov    (%edx),%al
    3f5a:	8d 65 f8             	lea    -0x8(%ebp),%esp
    3f5d:	5b                   	pop    %ebx
    3f5e:	5e                   	pop    %esi
    3f5f:	5d                   	pop    %ebp
    3f60:	c3                   	ret    
    3f61:	8d b4 26 00 00 00 00 	lea    0x0(%esi,%eiz,1),%esi
    3f68:	25 ff 00 00 00       	and    $0xff,%eax
    3f6d:	52                   	push   %edx
    3f6e:	56                   	push   %esi
    3f6f:	50                   	push   %eax
    3f70:	53                   	push   %ebx
    3f71:	e8 7a dc ff ff       	call   1bf0 <usb_hid_report_find_description>
    3f76:	83 c4 10             	add    $0x10,%esp
    3f79:	85 c0                	test   %eax,%eax
    3f7b:	74 d2                	je     3f4f <usb_hid_get_next_report_id+0x3f>
    3f7d:	8b 40 1c             	mov    0x1c(%eax),%eax
    3f80:	eb a7                	jmp    3f29 <usb_hid_get_next_report_id+0x19>
    3f82:	8d b4 26 00 00 00 00 	lea    0x0(%esi,%eiz,1),%esi
    3f89:	8d bc 27 00 00 00 00 	lea    0x0(%edi,%eiz,1),%edi

00003f90 <usb_hid_report_reset_local_items>:
    3f90:	55                   	push   %ebp
    3f91:	89 e5                	mov    %esp,%ebp
    3f93:	53                   	push   %ebx
    3f94:	52                   	push   %edx
    3f95:	8b 5d 08             	mov    0x8(%ebp),%ebx
    3f98:	85 db                	test   %ebx,%ebx
    3f9a:	74 74                	je     4010 <usb_hid_report_reset_local_items+0x80>
    3f9c:	c7 83 04 00 04 00 00 	movl   $0x0,0x40004(%ebx)
    3fa3:	00 00 00 
    3fa6:	50                   	push   %eax
    3fa7:	8d 43 08             	lea    0x8(%ebx),%eax
    3faa:	68 ff ff 00 00       	push   $0xffff
    3faf:	6a 00                	push   $0x0
    3fb1:	50                   	push   %eax
    3fb2:	e8 69 36 00 00       	call   7620 <memset@plt>
    3fb7:	66 c7 43 04 00 00    	movw   $0x0,0x4(%ebx)
    3fbd:	c7 83 0c 00 04 00 00 	movl   $0x0,0x4000c(%ebx)
    3fc4:	00 00 00 
    3fc7:	c7 83 10 00 04 00 00 	movl   $0x0,0x40010(%ebx)
    3fce:	00 00 00 
    3fd1:	c7 83 3c 00 04 00 00 	movl   $0x0,0x4003c(%ebx)
    3fd8:	00 00 00 
    3fdb:	c7 83 40 00 04 00 00 	movl   $0x0,0x40040(%ebx)
    3fe2:	00 00 00 
    3fe5:	c7 83 44 00 04 00 00 	movl   $0x0,0x40044(%ebx)
    3fec:	00 00 00 
    3fef:	c7 83 30 00 04 00 00 	movl   $0x0,0x40030(%ebx)
    3ff6:	00 00 00 
    3ff9:	c7 83 34 00 04 00 00 	movl   $0x0,0x40034(%ebx)
    4000:	00 00 00 
    4003:	c7 83 38 00 04 00 00 	movl   $0x0,0x40038(%ebx)
    400a:	00 00 00 
    400d:	83 c4 10             	add    $0x10,%esp
    4010:	8b 5d fc             	mov    -0x4(%ebp),%ebx
    4013:	c9                   	leave  
    4014:	c3                   	ret    
    4015:	66 90                	xchg   %ax,%ax
    4017:	66 90                	xchg   %ax,%ax
    4019:	66 90                	xchg   %ax,%ax
    401b:	66 90                	xchg   %ax,%ax
    401d:	66 90                	xchg   %ax,%ax
    401f:	90                   	nop

00004020 <usb_hid_report_path_append_item>:
    4020:	55                   	push   %ebp
    4021:	89 e5                	mov    %esp,%ebp
    4023:	53                   	push   %ebx
    4024:	83 ec 10             	sub    $0x10,%esp
    4027:	8b 5d 08             	mov    0x8(%ebp),%ebx
    402a:	6a 14                	push   $0x14
    402c:	e8 3f 35 00 00       	call   7570 <malloc@plt>
    4031:	83 c4 10             	add    $0x10,%esp
    4034:	85 c0                	test   %eax,%eax
    4036:	74 30                	je     4068 <usb_hid_report_path_append_item+0x48>
    4038:	8b 4d 10             	mov    0x10(%ebp),%ecx
    403b:	8d 50 0c             	lea    0xc(%eax),%edx
    403e:	89 48 04             	mov    %ecx,0x4(%eax)
    4041:	8b 4d 0c             	mov    0xc(%ebp),%ecx
    4044:	89 08                	mov    %ecx,(%eax)
    4046:	8d 4b 10             	lea    0x10(%ebx),%ecx
    4049:	89 48 10             	mov    %ecx,0x10(%eax)
    404c:	8b 4b 10             	mov    0x10(%ebx),%ecx
    404f:	c6 40 08 00          	movb   $0x0,0x8(%eax)
    4053:	89 48 0c             	mov    %ecx,0xc(%eax)
    4056:	8b 03                	mov    (%ebx),%eax
    4058:	89 51 04             	mov    %edx,0x4(%ecx)
    405b:	40                   	inc    %eax
    405c:	89 53 10             	mov    %edx,0x10(%ebx)
    405f:	89 03                	mov    %eax,(%ebx)
    4061:	31 c0                	xor    %eax,%eax
    4063:	8b 5d fc             	mov    -0x4(%ebp),%ebx
    4066:	c9                   	leave  
    4067:	c3                   	ret    
    4068:	b8 fe ff ff ff       	mov    $0xfffffffe,%eax
    406d:	eb f4                	jmp    4063 <usb_hid_report_path_append_item+0x43>
    406f:	90                   	nop

00004070 <usb_hid_report_remove_last_item>:
    4070:	55                   	push   %ebp
    4071:	89 e5                	mov    %esp,%ebp
    4073:	56                   	push   %esi
    4074:	53                   	push   %ebx
    4075:	8b 55 08             	mov    0x8(%ebp),%edx
    4078:	8d 4a 10             	lea    0x10(%edx),%ecx
    407b:	3b 4a 14             	cmp    0x14(%edx),%ecx
    407e:	74 48                	je     40c8 <usb_hid_report_remove_last_item+0x58>
    4080:	8b 42 10             	mov    0x10(%edx),%eax
    4083:	39 c1                	cmp    %eax,%ecx
    4085:	74 39                	je     40c0 <usb_hid_report_remove_last_item+0x50>
    4087:	8b 18                	mov    (%eax),%ebx
    4089:	8d 70 f4             	lea    -0xc(%eax),%esi
    408c:	85 db                	test   %ebx,%ebx
    408e:	74 0e                	je     409e <usb_hid_report_remove_last_item+0x2e>
    4090:	8b 48 04             	mov    0x4(%eax),%ecx
    4093:	85 c9                	test   %ecx,%ecx
    4095:	74 07                	je     409e <usb_hid_report_remove_last_item+0x2e>
    4097:	89 19                	mov    %ebx,(%ecx)
    4099:	8b 18                	mov    (%eax),%ebx
    409b:	89 4b 04             	mov    %ecx,0x4(%ebx)
    409e:	c7 00 00 00 00 00    	movl   $0x0,(%eax)
    40a4:	c7 40 04 00 00 00 00 	movl   $0x0,0x4(%eax)
    40ab:	8b 02                	mov    (%edx),%eax
    40ad:	48                   	dec    %eax
    40ae:	89 02                	mov    %eax,(%edx)
    40b0:	89 75 08             	mov    %esi,0x8(%ebp)
    40b3:	5b                   	pop    %ebx
    40b4:	5e                   	pop    %esi
    40b5:	5d                   	pop    %ebp
    40b6:	e9 45 36 00 00       	jmp    7700 <free@plt>
    40bb:	90                   	nop
    40bc:	8d 74 26 00          	lea    0x0(%esi,%eiz,1),%esi
    40c0:	a1 00 00 00 00       	mov    0x0,%eax
    40c5:	0f 0b                	ud2    
    40c7:	90                   	nop
    40c8:	5b                   	pop    %ebx
    40c9:	5e                   	pop    %esi
    40ca:	5d                   	pop    %ebp
    40cb:	c3                   	ret    
    40cc:	8d 74 26 00          	lea    0x0(%esi,%eiz,1),%esi

000040d0 <usb_hid_report_null_last_item>:
    40d0:	55                   	push   %ebp
    40d1:	89 e5                	mov    %esp,%ebp
    40d3:	83 ec 08             	sub    $0x8,%esp
    40d6:	8b 45 08             	mov    0x8(%ebp),%eax
    40d9:	8d 50 10             	lea    0x10(%eax),%edx
    40dc:	3b 50 14             	cmp    0x14(%eax),%edx
    40df:	74 18                	je     40f9 <usb_hid_report_null_last_item+0x29>
    40e1:	8b 40 10             	mov    0x10(%eax),%eax
    40e4:	39 c2                	cmp    %eax,%edx
    40e6:	74 18                	je     4100 <usb_hid_report_null_last_item+0x30>
    40e8:	83 e8 0c             	sub    $0xc,%eax
    40eb:	52                   	push   %edx
    40ec:	6a 14                	push   $0x14
    40ee:	6a 00                	push   $0x0
    40f0:	50                   	push   %eax
    40f1:	e8 2a 35 00 00       	call   7620 <memset@plt>
    40f6:	83 c4 10             	add    $0x10,%esp
    40f9:	c9                   	leave  
    40fa:	c3                   	ret    
    40fb:	90                   	nop
    40fc:	8d 74 26 00          	lea    0x0(%esi,%eiz,1),%esi
    4100:	b8 f4 ff ff ff       	mov    $0xfffffff4,%eax
    4105:	eb e4                	jmp    40eb <usb_hid_report_null_last_item+0x1b>
    4107:	89 f6                	mov    %esi,%esi
    4109:	8d bc 27 00 00 00 00 	lea    0x0(%edi,%eiz,1),%edi

00004110 <usb_hid_report_set_last_item>:
    4110:	55                   	push   %ebp
    4111:	89 e5                	mov    %esp,%ebp
    4113:	8b 45 08             	mov    0x8(%ebp),%eax
    4116:	8d 50 10             	lea    0x10(%eax),%edx
    4119:	3b 50 14             	cmp    0x14(%eax),%edx
    411c:	74 1c                	je     413a <usb_hid_report_set_last_item+0x2a>
    411e:	8b 40 10             	mov    0x10(%eax),%eax
    4121:	39 c2                	cmp    %eax,%edx
    4123:	74 23                	je     4148 <usb_hid_report_set_last_item+0x38>
    4125:	83 e8 0c             	sub    $0xc,%eax
    4128:	83 7d 0c 01          	cmpl   $0x1,0xc(%ebp)
    412c:	74 12                	je     4140 <usb_hid_report_set_last_item+0x30>
    412e:	83 7d 0c 02          	cmpl   $0x2,0xc(%ebp)
    4132:	75 06                	jne    413a <usb_hid_report_set_last_item+0x2a>
    4134:	8b 4d 10             	mov    0x10(%ebp),%ecx
    4137:	89 48 04             	mov    %ecx,0x4(%eax)
    413a:	5d                   	pop    %ebp
    413b:	c3                   	ret    
    413c:	8d 74 26 00          	lea    0x0(%esi,%eiz,1),%esi
    4140:	8b 4d 10             	mov    0x10(%ebp),%ecx
    4143:	89 08                	mov    %ecx,(%eax)
    4145:	5d                   	pop    %ebp
    4146:	c3                   	ret    
    4147:	90                   	nop
    4148:	b8 f4 ff ff ff       	mov    $0xfffffff4,%eax
    414d:	eb d9                	jmp    4128 <usb_hid_report_set_last_item+0x18>
    414f:	90                   	nop

00004150 <usb_hid_print_usage_path>:
    4150:	55                   	push   %ebp
    4151:	31 c0                	xor    %eax,%eax
    4153:	89 e5                	mov    %esp,%ebp
    4155:	57                   	push   %edi
    4156:	56                   	push   %esi
    4157:	53                   	push   %ebx
    4158:	83 ec 0c             	sub    $0xc,%esp
    415b:	8b 7d 08             	mov    0x8(%ebp),%edi
    415e:	83 c7 10             	add    $0x10,%edi
    4161:	8a 47 f4             	mov    -0xc(%edi),%al
    4164:	50                   	push   %eax
    4165:	68 eb 52 00 00       	push   $0x52eb
    416a:	6a 04                	push   $0x4
    416c:	6a ff                	push   $0xffffffff
    416e:	e8 5d 34 00 00       	call   75d0 <log_msg@plt>
    4173:	8b 4f f0             	mov    -0x10(%edi),%ecx
    4176:	51                   	push   %ecx
    4177:	68 04 53 00 00       	push   $0x5304
    417c:	6a 04                	push   $0x4
    417e:	6a ff                	push   $0xffffffff
    4180:	e8 4b 34 00 00       	call   75d0 <log_msg@plt>
    4185:	8b 5f 04             	mov    0x4(%edi),%ebx
    4188:	83 c4 20             	add    $0x20,%esp
    418b:	39 df                	cmp    %ebx,%edi
    418d:	74 50                	je     41df <usb_hid_print_usage_path+0x8f>
    418f:	8d 73 f4             	lea    -0xc(%ebx),%esi
    4192:	8d b6 00 00 00 00    	lea    0x0(%esi),%esi
    4198:	8b 06                	mov    (%esi),%eax
    419a:	50                   	push   %eax
    419b:	68 11 53 00 00       	push   $0x5311
    41a0:	6a 04                	push   $0x4
    41a2:	6a ff                	push   $0xffffffff
    41a4:	e8 27 34 00 00       	call   75d0 <log_msg@plt>
    41a9:	8b 56 04             	mov    0x4(%esi),%edx
    41ac:	52                   	push   %edx
    41ad:	68 22 53 00 00       	push   $0x5322
    41b2:	6a 04                	push   $0x4
    41b4:	6a ff                	push   $0xffffffff
    41b6:	e8 15 34 00 00       	call   75d0 <log_msg@plt>
    41bb:	83 c4 20             	add    $0x20,%esp
    41be:	31 c0                	xor    %eax,%eax
    41c0:	8a 46 08             	mov    0x8(%esi),%al
    41c3:	50                   	push   %eax
    41c4:	68 2e 53 00 00       	push   $0x532e
    41c9:	6a 04                	push   $0x4
    41cb:	6a ff                	push   $0xffffffff
    41cd:	e8 fe 33 00 00       	call   75d0 <log_msg@plt>
    41d2:	8b 5b 04             	mov    0x4(%ebx),%ebx
    41d5:	83 c4 10             	add    $0x10,%esp
    41d8:	8d 73 f4             	lea    -0xc(%ebx),%esi
    41db:	39 df                	cmp    %ebx,%edi
    41dd:	75 b9                	jne    4198 <usb_hid_print_usage_path+0x48>
    41df:	8d 65 f4             	lea    -0xc(%ebp),%esp
    41e2:	5b                   	pop    %ebx
    41e3:	5e                   	pop    %esi
    41e4:	5f                   	pop    %edi
    41e5:	5d                   	pop    %ebp
    41e6:	c3                   	ret    
    41e7:	89 f6                	mov    %esi,%esi
    41e9:	8d bc 27 00 00 00 00 	lea    0x0(%edi,%eiz,1),%edi

000041f0 <usb_hid_report_compare_usage_path>:
    41f0:	55                   	push   %ebp
    41f1:	89 e5                	mov    %esp,%ebp
    41f3:	57                   	push   %edi
    41f4:	56                   	push   %esi
    41f5:	53                   	push   %ebx
    41f6:	83 ec 10             	sub    $0x10,%esp
    41f9:	8b 4d 0c             	mov    0xc(%ebp),%ecx
    41fc:	8b 5d 08             	mov    0x8(%ebp),%ebx
    41ff:	8a 51 04             	mov    0x4(%ecx),%dl
    4202:	38 53 04             	cmp    %dl,0x4(%ebx)
    4205:	74 11                	je     4218 <usb_hid_report_compare_usage_path+0x28>
    4207:	b8 01 00 00 00       	mov    $0x1,%eax
    420c:	84 d2                	test   %dl,%dl
    420e:	74 08                	je     4218 <usb_hid_report_compare_usage_path+0x28>
    4210:	83 c4 10             	add    $0x10,%esp
    4213:	5b                   	pop    %ebx
    4214:	5e                   	pop    %esi
    4215:	5f                   	pop    %edi
    4216:	5d                   	pop    %ebp
    4217:	c3                   	ret    
    4218:	8b 01                	mov    (%ecx),%eax
    421a:	85 c0                	test   %eax,%eax
    421c:	74 f2                	je     4210 <usb_hid_report_compare_usage_path+0x20>
    421e:	8b 7d 10             	mov    0x10(%ebp),%edi
    4221:	83 e7 02             	and    $0x2,%edi
    4224:	89 7d e8             	mov    %edi,-0x18(%ebp)
    4227:	74 09                	je     4232 <usb_hid_report_compare_usage_path+0x42>
    4229:	8b 7d 10             	mov    0x10(%ebp),%edi
    422c:	83 ef 02             	sub    $0x2,%edi
    422f:	89 7d 10             	mov    %edi,0x10(%ebp)
    4232:	83 7d 10 01          	cmpl   $0x1,0x10(%ebp)
    4236:	0f 84 2c 01 00 00    	je     4368 <usb_hid_report_compare_usage_path+0x178>
    423c:	7e 2a                	jle    4268 <usb_hid_report_compare_usage_path+0x78>
    423e:	83 7d 10 04          	cmpl   $0x4,0x10(%ebp)
    4242:	74 33                	je     4277 <usb_hid_report_compare_usage_path+0x87>
    4244:	83 7d 10 08          	cmpl   $0x8,0x10(%ebp)
    4248:	0f 85 0a 01 00 00    	jne    4358 <usb_hid_report_compare_usage_path+0x168>
    424e:	83 f8 01             	cmp    $0x1,%eax
    4251:	0f 84 41 02 00 00    	je     4498 <usb_hid_report_compare_usage_path+0x2a8>
    4257:	83 c4 10             	add    $0x10,%esp
    425a:	b8 01 00 00 00       	mov    $0x1,%eax
    425f:	5b                   	pop    %ebx
    4260:	5e                   	pop    %esi
    4261:	5f                   	pop    %edi
    4262:	5d                   	pop    %ebp
    4263:	c3                   	ret    
    4264:	8d 74 26 00          	lea    0x0(%esi,%eiz,1),%esi
    4268:	8b 75 10             	mov    0x10(%ebp),%esi
    426b:	85 f6                	test   %esi,%esi
    426d:	0f 85 e5 00 00 00    	jne    4358 <usb_hid_report_compare_usage_path+0x168>
    4273:	3b 03                	cmp    (%ebx),%eax
    4275:	75 e0                	jne    4257 <usb_hid_report_compare_usage_path+0x67>
    4277:	8d 73 10             	lea    0x10(%ebx),%esi
    427a:	8b 43 14             	mov    0x14(%ebx),%eax
    427d:	8b 51 14             	mov    0x14(%ecx),%edx
    4280:	89 75 f0             	mov    %esi,-0x10(%ebp)
    4283:	39 f0                	cmp    %esi,%eax
    4285:	0f 84 bc 02 00 00    	je     4547 <usb_hid_report_compare_usage_path+0x357>
    428b:	8d 59 10             	lea    0x10(%ecx),%ebx
    428e:	89 5d ec             	mov    %ebx,-0x14(%ebp)
    4291:	39 da                	cmp    %ebx,%edx
    4293:	0f 84 df 01 00 00    	je     4478 <usb_hid_report_compare_usage_path+0x288>
    4299:	8b 48 f4             	mov    -0xc(%eax),%ecx
    429c:	8b 72 f4             	mov    -0xc(%edx),%esi
    429f:	39 ce                	cmp    %ecx,%esi
    42a1:	0f 95 45 e7          	setne  -0x19(%ebp)
    42a5:	85 c9                	test   %ecx,%ecx
    42a7:	8d 58 f4             	lea    -0xc(%eax),%ebx
    42aa:	0f 95 c1             	setne  %cl
    42ad:	8d 7a f4             	lea    -0xc(%edx),%edi
    42b0:	84 4d e7             	test   %cl,-0x19(%ebp)
    42b3:	74 04                	je     42b9 <usb_hid_report_compare_usage_path+0xc9>
    42b5:	85 f6                	test   %esi,%esi
    42b7:	75 9e                	jne    4257 <usb_hid_report_compare_usage_path+0x67>
    42b9:	8b 75 e8             	mov    -0x18(%ebp),%esi
    42bc:	85 f6                	test   %esi,%esi
    42be:	74 38                	je     42f8 <usb_hid_report_compare_usage_path+0x108>
    42c0:	8b 40 04             	mov    0x4(%eax),%eax
    42c3:	8b 52 04             	mov    0x4(%edx),%edx
    42c6:	39 45 f0             	cmp    %eax,-0x10(%ebp)
    42c9:	0f 84 b9 01 00 00    	je     4488 <usb_hid_report_compare_usage_path+0x298>
    42cf:	39 55 ec             	cmp    %edx,-0x14(%ebp)
    42d2:	0f 84 a0 01 00 00    	je     4478 <usb_hid_report_compare_usage_path+0x288>
    42d8:	8b 48 f4             	mov    -0xc(%eax),%ecx
    42db:	8b 72 f4             	mov    -0xc(%edx),%esi
    42de:	39 ce                	cmp    %ecx,%esi
    42e0:	0f 95 c3             	setne  %bl
    42e3:	85 c9                	test   %ecx,%ecx
    42e5:	0f 95 c1             	setne  %cl
    42e8:	84 cb                	test   %cl,%bl
    42ea:	74 d4                	je     42c0 <usb_hid_report_compare_usage_path+0xd0>
    42ec:	85 f6                	test   %esi,%esi
    42ee:	74 d0                	je     42c0 <usb_hid_report_compare_usage_path+0xd0>
    42f0:	e9 62 ff ff ff       	jmp    4257 <usb_hid_report_compare_usage_path+0x67>
    42f5:	8d 76 00             	lea    0x0(%esi),%esi
    42f8:	8b 4b 04             	mov    0x4(%ebx),%ecx
    42fb:	8b 77 04             	mov    0x4(%edi),%esi
    42fe:	39 f1                	cmp    %esi,%ecx
    4300:	0f 95 c3             	setne  %bl
    4303:	85 c9                	test   %ecx,%ecx
    4305:	0f 95 c1             	setne  %cl
    4308:	84 cb                	test   %cl,%bl
    430a:	74 08                	je     4314 <usb_hid_report_compare_usage_path+0x124>
    430c:	85 f6                	test   %esi,%esi
    430e:	0f 85 43 ff ff ff    	jne    4257 <usb_hid_report_compare_usage_path+0x67>
    4314:	8b 40 04             	mov    0x4(%eax),%eax
    4317:	8b 52 04             	mov    0x4(%edx),%edx
    431a:	3b 45 f0             	cmp    -0x10(%ebp),%eax
    431d:	0f 84 65 01 00 00    	je     4488 <usb_hid_report_compare_usage_path+0x298>
    4323:	3b 55 ec             	cmp    -0x14(%ebp),%edx
    4326:	0f 84 4c 01 00 00    	je     4478 <usb_hid_report_compare_usage_path+0x288>
    432c:	8b 48 f4             	mov    -0xc(%eax),%ecx
    432f:	8b 72 f4             	mov    -0xc(%edx),%esi
    4332:	85 c9                	test   %ecx,%ecx
    4334:	0f 95 45 e8          	setne  -0x18(%ebp)
    4338:	39 f1                	cmp    %esi,%ecx
    433a:	8d 58 f4             	lea    -0xc(%eax),%ebx
    433d:	0f 95 c1             	setne  %cl
    4340:	8d 7a f4             	lea    -0xc(%edx),%edi
    4343:	84 4d e8             	test   %cl,-0x18(%ebp)
    4346:	74 b0                	je     42f8 <usb_hid_report_compare_usage_path+0x108>
    4348:	85 f6                	test   %esi,%esi
    434a:	74 ac                	je     42f8 <usb_hid_report_compare_usage_path+0x108>
    434c:	e9 06 ff ff ff       	jmp    4257 <usb_hid_report_compare_usage_path+0x67>
    4351:	8d b4 26 00 00 00 00 	lea    0x0(%esi,%eiz,1),%esi
    4358:	b8 f2 ff ff ff       	mov    $0xfffffff2,%eax
    435d:	e9 ae fe ff ff       	jmp    4210 <usb_hid_report_compare_usage_path+0x20>
    4362:	8d b6 00 00 00 00    	lea    0x0(%esi),%esi
    4368:	8d 71 10             	lea    0x10(%ecx),%esi
    436b:	8b 43 10             	mov    0x10(%ebx),%eax
    436e:	8b 51 10             	mov    0x10(%ecx),%edx
    4371:	89 75 f0             	mov    %esi,-0x10(%ebp)
    4374:	3b 71 14             	cmp    0x14(%ecx),%esi
    4377:	0f 84 f3 00 00 00    	je     4470 <usb_hid_report_compare_usage_path+0x280>
    437d:	8d 7b 10             	lea    0x10(%ebx),%edi
    4380:	89 7d ec             	mov    %edi,-0x14(%ebp)
    4383:	39 f8                	cmp    %edi,%eax
    4385:	0f 84 9d 01 00 00    	je     4528 <usb_hid_report_compare_usage_path+0x338>
    438b:	39 d6                	cmp    %edx,%esi
    438d:	0f 84 dd 00 00 00    	je     4470 <usb_hid_report_compare_usage_path+0x280>
    4393:	8b 48 f4             	mov    -0xc(%eax),%ecx
    4396:	8b 72 f4             	mov    -0xc(%edx),%esi
    4399:	85 c9                	test   %ecx,%ecx
    439b:	0f 95 45 e7          	setne  -0x19(%ebp)
    439f:	39 ce                	cmp    %ecx,%esi
    43a1:	8d 58 f4             	lea    -0xc(%eax),%ebx
    43a4:	0f 95 c1             	setne  %cl
    43a7:	8d 7a f4             	lea    -0xc(%edx),%edi
    43aa:	84 4d e7             	test   %cl,-0x19(%ebp)
    43ad:	74 08                	je     43b7 <usb_hid_report_compare_usage_path+0x1c7>
    43af:	85 f6                	test   %esi,%esi
    43b1:	0f 85 a0 fe ff ff    	jne    4257 <usb_hid_report_compare_usage_path+0x67>
    43b7:	8b 4d e8             	mov    -0x18(%ebp),%ecx
    43ba:	85 c9                	test   %ecx,%ecx
    43bc:	75 5a                	jne    4418 <usb_hid_report_compare_usage_path+0x228>
    43be:	66 90                	xchg   %ax,%ax
    43c0:	8b 4b 04             	mov    0x4(%ebx),%ecx
    43c3:	8b 77 04             	mov    0x4(%edi),%esi
    43c6:	39 f1                	cmp    %esi,%ecx
    43c8:	0f 95 c3             	setne  %bl
    43cb:	85 c9                	test   %ecx,%ecx
    43cd:	0f 95 c1             	setne  %cl
    43d0:	84 cb                	test   %cl,%bl
    43d2:	74 08                	je     43dc <usb_hid_report_compare_usage_path+0x1ec>
    43d4:	85 f6                	test   %esi,%esi
    43d6:	0f 85 7b fe ff ff    	jne    4257 <usb_hid_report_compare_usage_path+0x67>
    43dc:	8b 00                	mov    (%eax),%eax
    43de:	8b 12                	mov    (%edx),%edx
    43e0:	3b 45 ec             	cmp    -0x14(%ebp),%eax
    43e3:	0f 84 3f 01 00 00    	je     4528 <usb_hid_report_compare_usage_path+0x338>
    43e9:	39 55 f0             	cmp    %edx,-0x10(%ebp)
    43ec:	0f 84 7e 00 00 00    	je     4470 <usb_hid_report_compare_usage_path+0x280>
    43f2:	8b 48 f4             	mov    -0xc(%eax),%ecx
    43f5:	8b 72 f4             	mov    -0xc(%edx),%esi
    43f8:	39 f1                	cmp    %esi,%ecx
    43fa:	0f 95 45 e8          	setne  -0x18(%ebp)
    43fe:	85 c9                	test   %ecx,%ecx
    4400:	8d 58 f4             	lea    -0xc(%eax),%ebx
    4403:	0f 95 c1             	setne  %cl
    4406:	8d 7a f4             	lea    -0xc(%edx),%edi
    4409:	84 4d e8             	test   %cl,-0x18(%ebp)
    440c:	74 b2                	je     43c0 <usb_hid_report_compare_usage_path+0x1d0>
    440e:	85 f6                	test   %esi,%esi
    4410:	74 ae                	je     43c0 <usb_hid_report_compare_usage_path+0x1d0>
    4412:	e9 40 fe ff ff       	jmp    4257 <usb_hid_report_compare_usage_path+0x67>
    4417:	90                   	nop
    4418:	8b 00                	mov    (%eax),%eax
    441a:	8b 12                	mov    (%edx),%edx
    441c:	39 45 ec             	cmp    %eax,-0x14(%ebp)
    441f:	0f 84 03 01 00 00    	je     4528 <usb_hid_report_compare_usage_path+0x338>
    4425:	39 55 f0             	cmp    %edx,-0x10(%ebp)
    4428:	74 46                	je     4470 <usb_hid_report_compare_usage_path+0x280>
    442a:	8b 48 f4             	mov    -0xc(%eax),%ecx
    442d:	8b 72 f4             	mov    -0xc(%edx),%esi
    4430:	39 ce                	cmp    %ecx,%esi
    4432:	0f 95 c3             	setne  %bl
    4435:	85 c9                	test   %ecx,%ecx
    4437:	0f 95 c1             	setne  %cl
    443a:	84 cb                	test   %cl,%bl
    443c:	74 da                	je     4418 <usb_hid_report_compare_usage_path+0x228>
    443e:	85 f6                	test   %esi,%esi
    4440:	74 d6                	je     4418 <usb_hid_report_compare_usage_path+0x228>
    4442:	e9 10 fe ff ff       	jmp    4257 <usb_hid_report_compare_usage_path+0x67>
    4447:	89 df                	mov    %ebx,%edi
    4449:	eb 13                	jmp    445e <usb_hid_report_compare_usage_path+0x26e>
    444b:	85 c9                	test   %ecx,%ecx
    444d:	74 21                	je     4470 <usb_hid_report_compare_usage_path+0x280>
    444f:	8b 52 04             	mov    0x4(%edx),%edx
    4452:	3b 55 ec             	cmp    -0x14(%ebp),%edx
    4455:	8d 72 f4             	lea    -0xc(%edx),%esi
    4458:	0f 84 b2 fd ff ff    	je     4210 <usb_hid_report_compare_usage_path+0x20>
    445e:	8b 0e                	mov    (%esi),%ecx
    4460:	39 f9                	cmp    %edi,%ecx
    4462:	0f 94 c3             	sete   %bl
    4465:	0a 5d e7             	or     -0x19(%ebp),%bl
    4468:	74 e1                	je     444b <usb_hid_report_compare_usage_path+0x25b>
    446a:	8d b6 00 00 00 00    	lea    0x0(%esi),%esi
    4470:	31 c0                	xor    %eax,%eax
    4472:	e9 99 fd ff ff       	jmp    4210 <usb_hid_report_compare_usage_path+0x20>
    4477:	90                   	nop
    4478:	31 c0                	xor    %eax,%eax
    447a:	f6 45 10 04          	testb  $0x4,0x10(%ebp)
    447e:	0f 94 c0             	sete   %al
    4481:	e9 8a fd ff ff       	jmp    4210 <usb_hid_report_compare_usage_path+0x20>
    4486:	66 90                	xchg   %ax,%ax
    4488:	31 c0                	xor    %eax,%eax
    448a:	39 55 ec             	cmp    %edx,-0x14(%ebp)
    448d:	0f 95 c0             	setne  %al
    4490:	e9 7b fd ff ff       	jmp    4210 <usb_hid_report_compare_usage_path+0x20>
    4495:	8d 76 00             	lea    0x0(%esi),%esi
    4498:	8b 79 14             	mov    0x14(%ecx),%edi
    449b:	83 c1 10             	add    $0x10,%ecx
    449e:	39 cf                	cmp    %ecx,%edi
    44a0:	0f 84 97 00 00 00    	je     453d <usb_hid_report_compare_usage_path+0x34d>
    44a6:	83 ef 0c             	sub    $0xc,%edi
    44a9:	8b 53 14             	mov    0x14(%ebx),%edx
    44ac:	83 c3 10             	add    $0x10,%ebx
    44af:	89 5d ec             	mov    %ebx,-0x14(%ebp)
    44b2:	39 da                	cmp    %ebx,%edx
    44b4:	8d 72 f4             	lea    -0xc(%edx),%esi
    44b7:	0f 84 53 fd ff ff    	je     4210 <usb_hid_report_compare_usage_path+0x20>
    44bd:	8b 1f                	mov    (%edi),%ebx
    44bf:	8b 4d e8             	mov    -0x18(%ebp),%ecx
    44c2:	85 db                	test   %ebx,%ebx
    44c4:	89 5d f0             	mov    %ebx,-0x10(%ebp)
    44c7:	0f 94 45 e7          	sete   -0x19(%ebp)
    44cb:	85 c9                	test   %ecx,%ecx
    44cd:	0f 85 74 ff ff ff    	jne    4447 <usb_hid_report_compare_usage_path+0x257>
    44d3:	8a 5d e7             	mov    -0x19(%ebp),%bl
    44d6:	89 45 e8             	mov    %eax,-0x18(%ebp)
    44d9:	eb 14                	jmp    44ef <usb_hid_report_compare_usage_path+0x2ff>
    44db:	90                   	nop
    44dc:	8d 74 26 00          	lea    0x0(%esi,%eiz,1),%esi
    44e0:	84 db                	test   %bl,%bl
    44e2:	75 1c                	jne    4500 <usb_hid_report_compare_usage_path+0x310>
    44e4:	8b 52 04             	mov    0x4(%edx),%edx
    44e7:	3b 55 ec             	cmp    -0x14(%ebp),%edx
    44ea:	8d 72 f4             	lea    -0xc(%edx),%esi
    44ed:	74 46                	je     4535 <usb_hid_report_compare_usage_path+0x345>
    44ef:	8b 06                	mov    (%esi),%eax
    44f1:	3b 45 f0             	cmp    -0x10(%ebp),%eax
    44f4:	0f 94 c1             	sete   %cl
    44f7:	85 c0                	test   %eax,%eax
    44f9:	0f 94 c0             	sete   %al
    44fc:	08 c1                	or     %al,%cl
    44fe:	74 e0                	je     44e0 <usb_hid_report_compare_usage_path+0x2f0>
    4500:	8b 46 04             	mov    0x4(%esi),%eax
    4503:	8b 77 04             	mov    0x4(%edi),%esi
    4506:	39 f0                	cmp    %esi,%eax
    4508:	0f 94 c1             	sete   %cl
    450b:	85 c0                	test   %eax,%eax
    450d:	0f 94 c0             	sete   %al
    4510:	08 c1                	or     %al,%cl
    4512:	0f 85 58 ff ff ff    	jne    4470 <usb_hid_report_compare_usage_path+0x280>
    4518:	85 f6                	test   %esi,%esi
    451a:	75 c8                	jne    44e4 <usb_hid_report_compare_usage_path+0x2f4>
    451c:	31 c0                	xor    %eax,%eax
    451e:	e9 ed fc ff ff       	jmp    4210 <usb_hid_report_compare_usage_path+0x20>
    4523:	90                   	nop
    4524:	8d 74 26 00          	lea    0x0(%esi,%eiz,1),%esi
    4528:	31 c0                	xor    %eax,%eax
    452a:	39 55 f0             	cmp    %edx,-0x10(%ebp)
    452d:	0f 95 c0             	setne  %al
    4530:	e9 db fc ff ff       	jmp    4210 <usb_hid_report_compare_usage_path+0x20>
    4535:	8b 45 e8             	mov    -0x18(%ebp),%eax
    4538:	e9 d3 fc ff ff       	jmp    4210 <usb_hid_report_compare_usage_path+0x20>
    453d:	bf f4 ff ff ff       	mov    $0xfffffff4,%edi
    4542:	e9 62 ff ff ff       	jmp    44a9 <usb_hid_report_compare_usage_path+0x2b9>
    4547:	31 c0                	xor    %eax,%eax
    4549:	83 c1 10             	add    $0x10,%ecx
    454c:	39 ca                	cmp    %ecx,%edx
    454e:	0f 95 c0             	setne  %al
    4551:	e9 ba fc ff ff       	jmp    4210 <usb_hid_report_compare_usage_path+0x20>
    4556:	8d 76 00             	lea    0x0(%esi),%esi
    4559:	8d bc 27 00 00 00 00 	lea    0x0(%edi,%eiz,1),%edi

00004560 <usb_hid_report_path>:
    4560:	55                   	push   %ebp
    4561:	89 e5                	mov    %esp,%ebp
    4563:	83 ec 14             	sub    $0x14,%esp
    4566:	6a 18                	push   $0x18
    4568:	e8 03 30 00 00       	call   7570 <malloc@plt>
    456d:	83 c4 10             	add    $0x10,%esp
    4570:	85 c0                	test   %eax,%eax
    4572:	74 21                	je     4595 <usb_hid_report_path+0x35>
    4574:	8d 50 10             	lea    0x10(%eax),%edx
    4577:	c7 00 00 00 00 00    	movl   $0x0,(%eax)
    457d:	c6 40 04 00          	movb   $0x0,0x4(%eax)
    4581:	c7 40 08 00 00 00 00 	movl   $0x0,0x8(%eax)
    4588:	c7 40 0c 00 00 00 00 	movl   $0x0,0xc(%eax)
    458f:	89 50 10             	mov    %edx,0x10(%eax)
    4592:	89 50 14             	mov    %edx,0x14(%eax)
    4595:	c9                   	leave  
    4596:	c3                   	ret    
    4597:	89 f6                	mov    %esi,%esi
    4599:	8d bc 27 00 00 00 00 	lea    0x0(%edi,%eiz,1),%edi

000045a0 <usb_hid_report_path_free>:
    45a0:	55                   	push   %ebp
    45a1:	89 e5                	mov    %esp,%ebp
    45a3:	57                   	push   %edi
    45a4:	56                   	push   %esi
    45a5:	53                   	push   %ebx
    45a6:	83 ec 0c             	sub    $0xc,%esp
    45a9:	8b 5d 08             	mov    0x8(%ebp),%ebx
    45ac:	85 db                	test   %ebx,%ebx
    45ae:	0f 84 ac 00 00 00    	je     4660 <usb_hid_report_path_free+0xc0>
    45b4:	8d 73 10             	lea    0x10(%ebx),%esi
    45b7:	39 73 14             	cmp    %esi,0x14(%ebx)
    45ba:	75 3e                	jne    45fa <usb_hid_report_path_free+0x5a>
    45bc:	eb 4a                	jmp    4608 <usb_hid_report_path_free+0x68>
    45be:	66 90                	xchg   %ax,%ax
    45c0:	8b 08                	mov    (%eax),%ecx
    45c2:	8d 78 f4             	lea    -0xc(%eax),%edi
    45c5:	85 c9                	test   %ecx,%ecx
    45c7:	74 0e                	je     45d7 <usb_hid_report_path_free+0x37>
    45c9:	8b 50 04             	mov    0x4(%eax),%edx
    45cc:	85 d2                	test   %edx,%edx
    45ce:	74 07                	je     45d7 <usb_hid_report_path_free+0x37>
    45d0:	89 0a                	mov    %ecx,(%edx)
    45d2:	8b 08                	mov    (%eax),%ecx
    45d4:	89 51 04             	mov    %edx,0x4(%ecx)
    45d7:	c7 00 00 00 00 00    	movl   $0x0,(%eax)
    45dd:	c7 40 04 00 00 00 00 	movl   $0x0,0x4(%eax)
    45e4:	83 ec 0c             	sub    $0xc,%esp
    45e7:	8b 03                	mov    (%ebx),%eax
    45e9:	48                   	dec    %eax
    45ea:	89 03                	mov    %eax,(%ebx)
    45ec:	57                   	push   %edi
    45ed:	e8 0e 31 00 00       	call   7700 <free@plt>
    45f2:	83 c4 10             	add    $0x10,%esp
    45f5:	39 73 14             	cmp    %esi,0x14(%ebx)
    45f8:	74 0e                	je     4608 <usb_hid_report_path_free+0x68>
    45fa:	8b 43 10             	mov    0x10(%ebx),%eax
    45fd:	39 f0                	cmp    %esi,%eax
    45ff:	75 bf                	jne    45c0 <usb_hid_report_path_free+0x20>
    4601:	a1 00 00 00 00       	mov    0x0,%eax
    4606:	0f 0b                	ud2    
    4608:	8b 43 08             	mov    0x8(%ebx),%eax
    460b:	85 c0                	test   %eax,%eax
    460d:	74 21                	je     4630 <usb_hid_report_path_free+0x90>
    460f:	8b 4b 0c             	mov    0xc(%ebx),%ecx
    4612:	85 c9                	test   %ecx,%ecx
    4614:	74 21                	je     4637 <usb_hid_report_path_free+0x97>
    4616:	50                   	push   %eax
    4617:	68 7d 01 00 00       	push   $0x17d
    461c:	68 3a 53 00 00       	push   $0x533a
    4621:	68 48 53 00 00       	push   $0x5348
    4626:	e8 e5 2f 00 00       	call   7610 <assert_abort@plt>
    462b:	90                   	nop
    462c:	8d 74 26 00          	lea    0x0(%esi,%eiz,1),%esi
    4630:	8b 73 0c             	mov    0xc(%ebx),%esi
    4633:	85 f6                	test   %esi,%esi
    4635:	74 19                	je     4650 <usb_hid_report_path_free+0xb0>
    4637:	52                   	push   %edx
    4638:	68 8a 01 00 00       	push   $0x18a
    463d:	68 68 53 00 00       	push   $0x5368
    4642:	68 88 53 00 00       	push   $0x5388
    4647:	e8 c4 2f 00 00       	call   7610 <assert_abort@plt>
    464c:	8d 74 26 00          	lea    0x0(%esi,%eiz,1),%esi
    4650:	89 5d 08             	mov    %ebx,0x8(%ebp)
    4653:	8d 65 f4             	lea    -0xc(%ebp),%esp
    4656:	5b                   	pop    %ebx
    4657:	5e                   	pop    %esi
    4658:	5f                   	pop    %edi
    4659:	5d                   	pop    %ebp
    465a:	e9 a1 30 00 00       	jmp    7700 <free@plt>
    465f:	90                   	nop
    4660:	8d 65 f4             	lea    -0xc(%ebp),%esp
    4663:	5b                   	pop    %ebx
    4664:	5e                   	pop    %esi
    4665:	5f                   	pop    %edi
    4666:	5d                   	pop    %ebp
    4667:	c3                   	ret    
    4668:	90                   	nop
    4669:	8d b4 26 00 00 00 00 	lea    0x0(%esi,%eiz,1),%esi

00004670 <usb_hid_report_path_clone>:
    4670:	55                   	push   %ebp
    4671:	89 e5                	mov    %esp,%ebp
    4673:	57                   	push   %edi
    4674:	56                   	push   %esi
    4675:	53                   	push   %ebx
    4676:	83 ec 28             	sub    $0x28,%esp
    4679:	8b 75 08             	mov    0x8(%ebp),%esi
    467c:	6a 18                	push   $0x18
    467e:	e8 ed 2e 00 00       	call   7570 <malloc@plt>
    4683:	83 c4 10             	add    $0x10,%esp
    4686:	85 c0                	test   %eax,%eax
    4688:	0f 84 96 00 00 00    	je     4724 <usb_hid_report_path_clone+0xb4>
    468e:	89 c3                	mov    %eax,%ebx
    4690:	c7 00 00 00 00 00    	movl   $0x0,(%eax)
    4696:	c7 40 08 00 00 00 00 	movl   $0x0,0x8(%eax)
    469d:	c7 40 0c 00 00 00 00 	movl   $0x0,0xc(%eax)
    46a4:	8d 40 10             	lea    0x10(%eax),%eax
    46a7:	8b 7e 14             	mov    0x14(%esi),%edi
    46aa:	89 45 e0             	mov    %eax,-0x20(%ebp)
    46ad:	89 43 10             	mov    %eax,0x10(%ebx)
    46b0:	89 43 14             	mov    %eax,0x14(%ebx)
    46b3:	8a 46 04             	mov    0x4(%esi),%al
    46b6:	88 43 04             	mov    %al,0x4(%ebx)
    46b9:	8d 46 10             	lea    0x10(%esi),%eax
    46bc:	89 45 e4             	mov    %eax,-0x1c(%ebp)
