
rfb:     file format elf32-i386


Disassembly of section .init:

000010f4 <__entry>:
    10f4:	66 8c d0             	mov    %ss,%ax
    10f7:	8e d8                	mov    %eax,%ds
    10f9:	8e c0                	mov    %eax,%es
    10fb:	8e e0                	mov    %eax,%fs
    10fd:	b8 01 00 00 00       	mov    $0x1,%eax
    1102:	0f a2                	cpuid  
    1104:	0f ba e2 0b          	bt     $0xb,%edx
    1108:	73 0c                	jae    1116 <__entry+0x22>
    110a:	8d 05 c0 70 00 00    	lea    0x70c0,%eax
    1110:	c7 00 50 56 00 00    	movl   $0x5650,(%eax)
    1116:	6a 00                	push   $0x0
    1118:	6a 00                	push   $0x0
    111a:	89 e5                	mov    %esp,%ebp
    111c:	57                   	push   %edi
    111d:	e8 7e 42 00 00       	call   53a0 <__main@plt>

Disassembly of section .text:

00001130 <rfb_wakeup>:
    1130:	55                   	push   %ebp
    1131:	31 c0                	xor    %eax,%eax
    1133:	89 e5                	mov    %esp,%ebp
    1135:	5d                   	pop    %ebp
    1136:	c3                   	ret    
    1137:	89 f6                	mov    %esi,%esi
    1139:	8d bc 27 00 00 00 00 	lea    0x0(%edi,%eiz,1),%edi

00001140 <rfb_change_mode>:
    1140:	55                   	push   %ebp
    1141:	31 c0                	xor    %eax,%eax
    1143:	89 e5                	mov    %esp,%ebp
    1145:	5d                   	pop    %ebp
    1146:	c3                   	ret    
    1147:	89 f6                	mov    %esi,%esi
    1149:	8d bc 27 00 00 00 00 	lea    0x0(%edi,%eiz,1),%edi

00001150 <client_connection>:
    1150:	55                   	push   %ebp
    1151:	89 e5                	mov    %esp,%ebp
    1153:	83 ec 08             	sub    $0x8,%esp
    1156:	8b 45 08             	mov    0x8(%ebp),%eax
    1159:	8b 55 10             	mov    0x10(%ebp),%edx
    115c:	8b 4d 0c             	mov    0xc(%ebp),%ecx
    115f:	52                   	push   %edx
    1160:	51                   	push   %ecx
    1161:	50                   	push   %eax
    1162:	a1 38 71 00 00       	mov    0x7138,%eax
    1167:	50                   	push   %eax
    1168:	e8 e3 32 00 00       	call   4450 <graph_visualizer_connection>
    116d:	83 c4 10             	add    $0x10,%esp
    1170:	c9                   	leave  
    1171:	c3                   	ret    
    1172:	8d b4 26 00 00 00 00 	lea    0x0(%esi,%eiz,1),%esi
    1179:	8d bc 27 00 00 00 00 	lea    0x0(%edi,%eiz,1),%edi

00001180 <rfb_handle_damage_pixels>:
    1180:	55                   	push   %ebp
    1181:	89 e5                	mov    %esp,%ebp
    1183:	57                   	push   %edi
    1184:	56                   	push   %esi
    1185:	53                   	push   %ebx
    1186:	83 ec 28             	sub    $0x28,%esp
    1189:	8b 5d 14             	mov    0x14(%ebp),%ebx
    118c:	8b 75 08             	mov    0x8(%ebp),%esi
    118f:	68 1c 71 00 00       	push   $0x711c
    1194:	8b 7d 18             	mov    0x18(%ebp),%edi
    1197:	e8 04 45 00 00       	call   56a0 <fibril_mutex_lock@plt>
    119c:	8b 45 0c             	mov    0xc(%ebp),%eax
    119f:	01 d8                	add    %ebx,%eax
    11a1:	83 c4 10             	add    $0x10,%esp
    11a4:	89 c2                	mov    %eax,%edx
    11a6:	89 45 e0             	mov    %eax,-0x20(%ebp)
    11a9:	31 c0                	xor    %eax,%eax
    11ab:	66 a1 e0 70 00 00    	mov    0x70e0,%ax
    11b1:	39 c2                	cmp    %eax,%edx
    11b3:	0f 87 c4 01 00 00    	ja     137d <rfb_handle_damage_pixels+0x1fd>
    11b9:	8b 45 10             	mov    0x10(%ebp),%eax
    11bc:	01 f8                	add    %edi,%eax
    11be:	89 c2                	mov    %eax,%edx
    11c0:	89 45 d8             	mov    %eax,-0x28(%ebp)
    11c3:	31 c0                	xor    %eax,%eax
    11c5:	66 a1 e2 70 00 00    	mov    0x70e2,%ax
    11cb:	39 c2                	cmp    %eax,%edx
    11cd:	0f 87 aa 01 00 00    	ja     137d <rfb_handle_damage_pixels+0x1fd>
    11d3:	80 3d 18 71 00 00 00 	cmpb   $0x0,0x7118
    11da:	0f 84 42 01 00 00    	je     1322 <rfb_handle_damage_pixels+0x1a2>
    11e0:	31 c0                	xor    %eax,%eax
    11e2:	8b 0d 0c 71 00 00    	mov    0x710c,%ecx
    11e8:	66 89 c8             	mov    %cx,%ax
    11eb:	8b 15 10 71 00 00    	mov    0x7110,%edx
    11f1:	39 45 0c             	cmp    %eax,0xc(%ebp)
    11f4:	73 22                	jae    1218 <rfb_handle_damage_pixels+0x98>
    11f6:	89 c8                	mov    %ecx,%eax
    11f8:	8b 3d 10 71 00 00    	mov    0x7110,%edi
    11fe:	8b 55 0c             	mov    0xc(%ebp),%edx
    1201:	01 f8                	add    %edi,%eax
    1203:	29 d0                	sub    %edx,%eax
    1205:	89 c2                	mov    %eax,%edx
    1207:	66 a3 10 71 00 00    	mov    %ax,0x7110
    120d:	8b 45 0c             	mov    0xc(%ebp),%eax
    1210:	66 a3 0c 71 00 00    	mov    %ax,0x710c
    1216:	89 c1                	mov    %eax,%ecx
    1218:	31 c0                	xor    %eax,%eax
    121a:	66 8b 1d 0e 71 00 00 	mov    0x710e,%bx
    1221:	66 89 d8             	mov    %bx,%ax
    1224:	66 8b 3d 12 71 00 00 	mov    0x7112,%di
    122b:	39 45 10             	cmp    %eax,0x10(%ebp)
    122e:	73 21                	jae    1251 <rfb_handle_damage_pixels+0xd1>
    1230:	89 d8                	mov    %ebx,%eax
    1232:	8b 5d 10             	mov    0x10(%ebp),%ebx
    1235:	66 03 05 12 71 00 00 	add    0x7112,%ax
    123c:	29 d8                	sub    %ebx,%eax
    123e:	89 c7                	mov    %eax,%edi
    1240:	66 a3 12 71 00 00    	mov    %ax,0x7112
    1246:	8b 45 10             	mov    0x10(%ebp),%eax
    1249:	66 a3 0e 71 00 00    	mov    %ax,0x710e
    124f:	89 c3                	mov    %eax,%ebx
    1251:	89 c8                	mov    %ecx,%eax
    1253:	25 ff ff 00 00       	and    $0xffff,%eax
    1258:	89 45 e4             	mov    %eax,-0x1c(%ebp)
    125b:	31 c0                	xor    %eax,%eax
    125d:	66 89 d0             	mov    %dx,%ax
    1260:	8b 55 e4             	mov    -0x1c(%ebp),%edx
    1263:	01 d0                	add    %edx,%eax
    1265:	8b 55 e0             	mov    -0x20(%ebp),%edx
    1268:	39 c2                	cmp    %eax,%edx
    126a:	76 0a                	jbe    1276 <rfb_handle_damage_pixels+0xf6>
    126c:	89 d0                	mov    %edx,%eax
    126e:	29 c8                	sub    %ecx,%eax
    1270:	66 a3 10 71 00 00    	mov    %ax,0x7110
    1276:	31 d2                	xor    %edx,%edx
    1278:	31 c0                	xor    %eax,%eax
    127a:	66 89 f8             	mov    %di,%ax
    127d:	66 89 da             	mov    %bx,%dx
    1280:	01 d0                	add    %edx,%eax
    1282:	8b 7d d8             	mov    -0x28(%ebp),%edi
    1285:	39 c7                	cmp    %eax,%edi
    1287:	76 0a                	jbe    1293 <rfb_handle_damage_pixels+0x113>
    1289:	89 f8                	mov    %edi,%eax
    128b:	29 d8                	sub    %ebx,%eax
    128d:	66 a3 12 71 00 00    	mov    %ax,0x7112
    1293:	8b 45 d8             	mov    -0x28(%ebp),%eax
    1296:	39 45 10             	cmp    %eax,0x10(%ebp)
    1299:	0f 83 c4 00 00 00    	jae    1363 <rfb_handle_damage_pixels+0x1e3>
    129f:	a1 08 71 00 00       	mov    0x7108,%eax
    12a4:	89 45 dc             	mov    %eax,-0x24(%ebp)
    12a7:	8b 45 e0             	mov    -0x20(%ebp),%eax
    12aa:	39 45 0c             	cmp    %eax,0xc(%ebp)
    12ad:	0f 83 b0 00 00 00    	jae    1363 <rfb_handle_damage_pixels+0x1e3>
    12b3:	8b be 80 00 00 00    	mov    0x80(%esi),%edi
    12b9:	8d b4 26 00 00 00 00 	lea    0x0(%esi,%eiz,1),%esi
    12c0:	8b 45 20             	mov    0x20(%ebp),%eax
    12c3:	8b 55 10             	mov    0x10(%ebp),%edx
    12c6:	01 d0                	add    %edx,%eax
    12c8:	8b 5d 0c             	mov    0xc(%ebp),%ebx
    12cb:	89 45 e4             	mov    %eax,-0x1c(%ebp)
    12ce:	eb 2d                	jmp    12fd <rfb_handle_damage_pixels+0x17d>
    12d0:	8b 10                	mov    (%eax),%edx
    12d2:	a1 00 71 00 00       	mov    0x7100,%eax
    12d7:	39 d8                	cmp    %ebx,%eax
    12d9:	76 1c                	jbe    12f7 <rfb_handle_damage_pixels+0x177>
    12db:	8b 4d 10             	mov    0x10(%ebp),%ecx
    12de:	39 0d 04 71 00 00    	cmp    %ecx,0x7104
    12e4:	76 11                	jbe    12f7 <rfb_handle_damage_pixels+0x177>
    12e6:	0f af c1             	imul   %ecx,%eax
    12e9:	8b 4d dc             	mov    -0x24(%ebp),%ecx
    12ec:	01 d8                	add    %ebx,%eax
    12ee:	8d 04 81             	lea    (%ecx,%eax,4),%eax
    12f1:	85 c0                	test   %eax,%eax
    12f3:	74 02                	je     12f7 <rfb_handle_damage_pixels+0x177>
    12f5:	89 10                	mov    %edx,(%eax)
    12f7:	43                   	inc    %ebx
    12f8:	39 5d e0             	cmp    %ebx,-0x20(%ebp)
    12fb:	74 53                	je     1350 <rfb_handle_damage_pixels+0x1d0>
    12fd:	31 d2                	xor    %edx,%edx
    12ff:	8b 45 e4             	mov    -0x1c(%ebp),%eax
    1302:	f7 76 7c             	divl   0x7c(%esi)
    1305:	8b 4e 78             	mov    0x78(%esi),%ecx
    1308:	8b 45 1c             	mov    0x1c(%ebp),%eax
    130b:	0f af ca             	imul   %edx,%ecx
    130e:	01 d8                	add    %ebx,%eax
    1310:	31 d2                	xor    %edx,%edx
    1312:	f7 76 78             	divl   0x78(%esi)
    1315:	01 d1                	add    %edx,%ecx
    1317:	8d 04 8f             	lea    (%edi,%ecx,4),%eax
    131a:	85 c0                	test   %eax,%eax
    131c:	75 b2                	jne    12d0 <rfb_handle_damage_pixels+0x150>
    131e:	31 d2                	xor    %edx,%edx
    1320:	eb b0                	jmp    12d2 <rfb_handle_damage_pixels+0x152>
    1322:	8b 45 0c             	mov    0xc(%ebp),%eax
    1325:	66 89 1d 10 71 00 00 	mov    %bx,0x7110
    132c:	66 a3 0c 71 00 00    	mov    %ax,0x710c
    1332:	8b 45 10             	mov    0x10(%ebp),%eax
    1335:	66 a3 0e 71 00 00    	mov    %ax,0x710e
    133b:	66 89 3d 12 71 00 00 	mov    %di,0x7112
    1342:	c6 05 18 71 00 00 01 	movb   $0x1,0x7118
    1349:	e9 45 ff ff ff       	jmp    1293 <rfb_handle_damage_pixels+0x113>
    134e:	66 90                	xchg   %ax,%ax
    1350:	8b 4d 10             	mov    0x10(%ebp),%ecx
    1353:	8b 45 d8             	mov    -0x28(%ebp),%eax
    1356:	41                   	inc    %ecx
    1357:	89 4d 10             	mov    %ecx,0x10(%ebp)
    135a:	3b 45 10             	cmp    0x10(%ebp),%eax
    135d:	0f 85 5d ff ff ff    	jne    12c0 <rfb_handle_damage_pixels+0x140>
    1363:	83 ec 0c             	sub    $0xc,%esp
    1366:	68 1c 71 00 00       	push   $0x711c
    136b:	e8 d0 41 00 00       	call   5540 <fibril_mutex_unlock@plt>
    1370:	83 c4 10             	add    $0x10,%esp
    1373:	31 c0                	xor    %eax,%eax
    1375:	8d 65 f4             	lea    -0xc(%ebp),%esp
    1378:	5b                   	pop    %ebx
    1379:	5e                   	pop    %esi
    137a:	5f                   	pop    %edi
    137b:	5d                   	pop    %ebp
    137c:	c3                   	ret    
    137d:	83 ec 0c             	sub    $0xc,%esp
    1380:	68 1c 71 00 00       	push   $0x711c
    1385:	e8 b6 41 00 00       	call   5540 <fibril_mutex_unlock@plt>
    138a:	83 c4 10             	add    $0x10,%esp
    138d:	b8 f2 ff ff ff       	mov    $0xfffffff2,%eax
    1392:	eb e1                	jmp    1375 <rfb_handle_damage_pixels+0x1f5>
    1394:	8d b6 00 00 00 00    	lea    0x0(%esi),%esi
    139a:	8d bf 00 00 00 00    	lea    0x0(%edi),%edi

000013a0 <rfb_yield>:
    13a0:	55                   	push   %ebp
    13a1:	31 c0                	xor    %eax,%eax
    13a3:	89 e5                	mov    %esp,%ebp
    13a5:	5d                   	pop    %ebp
    13a6:	c3                   	ret    
    13a7:	89 f6                	mov    %esi,%esi
    13a9:	8d bc 27 00 00 00 00 	lea    0x0(%edi,%eiz,1),%edi

000013b0 <rfb_suspend>:
    13b0:	55                   	push   %ebp
    13b1:	31 c0                	xor    %eax,%eax
    13b3:	89 e5                	mov    %esp,%ebp
    13b5:	5d                   	pop    %ebp
    13b6:	c3                   	ret    
    13b7:	89 f6                	mov    %esi,%esi
    13b9:	8d bc 27 00 00 00 00 	lea    0x0(%edi,%eiz,1),%edi

000013c0 <rfb_claim>:
    13c0:	55                   	push   %ebp
    13c1:	31 c0                	xor    %eax,%eax
    13c3:	89 e5                	mov    %esp,%ebp
    13c5:	5d                   	pop    %ebp
    13c6:	c3                   	ret    
    13c7:	66 90                	xchg   %ax,%ax
    13c9:	66 90                	xchg   %ax,%ax
    13cb:	66 90                	xchg   %ax,%ax
    13cd:	66 90                	xchg   %ax,%ax
    13cf:	90                   	nop

000013d0 <main>:
    13d0:	8d 4c 24 04          	lea    0x4(%esp),%ecx
    13d4:	83 e4 f0             	and    $0xfffffff0,%esp
    13d7:	ff 71 fc             	pushl  -0x4(%ecx)
    13da:	55                   	push   %ebp
    13db:	89 e5                	mov    %esp,%ebp
    13dd:	57                   	push   %edi
    13de:	56                   	push   %esi
    13df:	53                   	push   %ebx
    13e0:	51                   	push   %ecx
    13e1:	83 ec 34             	sub    $0x34,%esp
    13e4:	8b 31                	mov    (%ecx),%esi
    13e6:	8b 59 04             	mov    0x4(%ecx),%ebx
    13e9:	68 83 4b 00 00       	push   $0x4b83
    13ee:	e8 0d 40 00 00       	call   5400 <log_init@plt>
    13f3:	83 c4 10             	add    $0x10,%esp
    13f6:	83 fe 03             	cmp    $0x3,%esi
    13f9:	0f 8e 5d 02 00 00    	jle    165c <main+0x28c>
    13ff:	8b 43 04             	mov    0x4(%ebx),%eax
    1402:	8d 7d d8             	lea    -0x28(%ebp),%edi
    1405:	89 45 d4             	mov    %eax,-0x2c(%ebp)
    1408:	50                   	push   %eax
    1409:	6a 00                	push   $0x0
    140b:	57                   	push   %edi
    140c:	ff 73 08             	pushl  0x8(%ebx)
    140f:	e8 8c 40 00 00       	call   54a0 <strtoul@plt>
    1414:	83 c4 10             	add    $0x10,%esp
    1417:	89 c2                	mov    %eax,%edx
    1419:	8b 45 d8             	mov    -0x28(%ebp),%eax
    141c:	80 38 00             	cmpb   $0x0,(%eax)
    141f:	0f 85 f7 01 00 00    	jne    161c <main+0x24c>
    1425:	50                   	push   %eax
    1426:	6a 00                	push   $0x0
    1428:	57                   	push   %edi
    1429:	89 55 d0             	mov    %edx,-0x30(%ebp)
    142c:	ff 73 0c             	pushl  0xc(%ebx)
    142f:	e8 6c 40 00 00       	call   54a0 <strtoul@plt>
    1434:	83 c4 10             	add    $0x10,%esp
    1437:	89 c1                	mov    %eax,%ecx
    1439:	8b 45 d8             	mov    -0x28(%ebp),%eax
    143c:	8b 55 d0             	mov    -0x30(%ebp),%edx
    143f:	80 38 00             	cmpb   $0x0,(%eax)
    1442:	0f 85 49 02 00 00    	jne    1691 <main+0x2c1>
    1448:	83 fe 04             	cmp    $0x4,%esi
    144b:	0f 85 0e 02 00 00    	jne    165f <main+0x28f>
    1451:	bb 0c 17 00 00       	mov    $0x170c,%ebx
    1456:	ff 75 d4             	pushl  -0x2c(%ebp)
    1459:	81 e1 ff ff 00 00    	and    $0xffff,%ecx
    145f:	81 e2 ff ff 00 00    	and    $0xffff,%edx
    1465:	51                   	push   %ecx
    1466:	52                   	push   %edx
    1467:	68 e0 70 00 00       	push   $0x70e0
    146c:	e8 7f 27 00 00       	call   3bf0 <rfb_init>
    1471:	c7 04 24 88 00 00 00 	movl   $0x88,(%esp)
    1478:	e8 f3 3f 00 00       	call   5470 <malloc@plt>
    147d:	83 c4 10             	add    $0x10,%esp
    1480:	a3 38 71 00 00       	mov    %eax,0x7138
    1485:	85 c0                	test   %eax,%eax
    1487:	0f 84 23 02 00 00    	je     16b0 <main+0x2e0>
    148d:	83 ec 0c             	sub    $0xc,%esp
    1490:	be 2c 4d 00 00       	mov    $0x4d2c,%esi
    1495:	50                   	push   %eax
    1496:	e8 d5 29 00 00       	call   3e70 <graph_init_visualizer>
    149b:	31 c0                	xor    %eax,%eax
    149d:	31 d2                	xor    %edx,%edx
    149f:	66 a1 e2 70 00 00    	mov    0x70e2,%ax
    14a5:	66 8b 15 e0 70 00 00 	mov    0x70e0,%dx
    14ac:	a3 58 71 00 00       	mov    %eax,0x7158
    14b1:	a3 60 71 00 00       	mov    %eax,0x7160
    14b6:	a1 38 71 00 00       	mov    0x7138,%eax
    14bb:	c7 05 6c 71 00 00 0b 	movl   $0xb,0x716c
    14c2:	00 00 00 
    14c5:	89 15 54 71 00 00    	mov    %edx,0x7154
    14cb:	89 15 5c 71 00 00    	mov    %edx,0x715c
    14d1:	8d 50 28             	lea    0x28(%eax),%edx
    14d4:	8d 78 60             	lea    0x60(%eax),%edi
    14d7:	89 15 44 71 00 00    	mov    %edx,0x7144
    14dd:	8b 50 28             	mov    0x28(%eax),%edx
    14e0:	b9 06 00 00 00       	mov    $0x6,%ecx
    14e5:	c7 05 68 71 00 00 01 	movl   $0x1,0x7168
    14ec:	00 00 00 
    14ef:	c7 05 48 71 00 00 00 	movl   $0x0,0x7148
    14f6:	00 00 00 
    14f9:	c7 05 4c 71 00 00 00 	movl   $0x0,0x714c
    1500:	00 00 00 
    1503:	c7 05 50 71 00 00 00 	movl   $0x0,0x7150
    150a:	00 00 00 
    150d:	c7 05 64 71 00 00 01 	movl   $0x1,0x7164
    1514:	00 00 00 
    1517:	c7 42 04 40 71 00 00 	movl   $0x7140,0x4(%edx)
    151e:	c7 40 28 40 71 00 00 	movl   $0x7140,0x28(%eax)
    1525:	c7 40 30 00 00 00 00 	movl   $0x0,0x30(%eax)
    152c:	89 15 40 71 00 00    	mov    %edx,0x7140
    1532:	f3 a5                	rep movsl %ds:(%esi),%es:(%edi)
    1534:	c7 80 84 00 00 00 00 	movl   $0x0,0x84(%eax)
    153b:	00 00 00 
    153e:	5a                   	pop    %edx
    153f:	59                   	pop    %ecx
    1540:	6a 00                	push   $0x0
    1542:	68 50 11 00 00       	push   $0x1150
    1547:	e8 24 41 00 00       	call   5670 <async_set_fallback_port_handler@plt>
    154c:	c7 04 24 83 4b 00 00 	movl   $0x4b83,(%esp)
    1553:	e8 98 40 00 00       	call   55f0 <loc_server_register@plt>
    1558:	83 c4 10             	add    $0x10,%esp
    155b:	89 c6                	mov    %eax,%esi
    155d:	85 c0                	test   %eax,%eax
    155f:	0f 85 35 01 00 00    	jne    169a <main+0x2ca>
    1565:	50                   	push   %eax
    1566:	8d 45 dc             	lea    -0x24(%ebp),%eax
    1569:	ff 75 d4             	pushl  -0x2c(%ebp)
    156c:	68 bb 4b 00 00       	push   $0x4bbb
    1571:	50                   	push   %eax
    1572:	e8 69 40 00 00       	call   55e0 <asprintf@plt>
    1577:	83 c4 10             	add    $0x10,%esp
    157a:	89 c6                	mov    %eax,%esi
    157c:	85 c0                	test   %eax,%eax
    157e:	0f 88 7e 01 00 00    	js     1702 <main+0x332>
    1584:	50                   	push   %eax
    1585:	50                   	push   %eax
    1586:	8d 45 e0             	lea    -0x20(%ebp),%eax
    1589:	50                   	push   %eax
    158a:	ff 75 dc             	pushl  -0x24(%ebp)
    158d:	e8 7e 3e 00 00       	call   5410 <loc_service_register@plt>
    1592:	83 c4 10             	add    $0x10,%esp
    1595:	89 c6                	mov    %eax,%esi
    1597:	85 c0                	test   %eax,%eax
    1599:	0f 85 4c 01 00 00    	jne    16eb <main+0x31b>
    159f:	83 ec 0c             	sub    $0xc,%esp
    15a2:	ff 75 dc             	pushl  -0x24(%ebp)
    15a5:	e8 e6 40 00 00       	call   5690 <free@plt>
    15aa:	83 c4 0c             	add    $0xc,%esp
    15ad:	8d 45 e4             	lea    -0x1c(%ebp),%eax
    15b0:	6a 01                	push   $0x1
    15b2:	50                   	push   %eax
    15b3:	68 c2 4b 00 00       	push   $0x4bc2
    15b8:	e8 f3 3d 00 00       	call   53b0 <loc_category_get_id@plt>
    15bd:	83 c4 10             	add    $0x10,%esp
    15c0:	85 c0                	test   %eax,%eax
    15c2:	0f 85 04 01 00 00    	jne    16cc <main+0x2fc>
    15c8:	50                   	push   %eax
    15c9:	50                   	push   %eax
    15ca:	ff 75 e4             	pushl  -0x1c(%ebp)
    15cd:	ff 75 e0             	pushl  -0x20(%ebp)
    15d0:	e8 db 3f 00 00       	call   55b0 <loc_service_add_to_cat@plt>
    15d5:	83 c4 10             	add    $0x10,%esp
    15d8:	85 c0                	test   %eax,%eax
    15da:	0f 85 37 01 00 00    	jne    1717 <main+0x347>
    15e0:	81 e3 ff ff 00 00    	and    $0xffff,%ebx
    15e6:	56                   	push   %esi
    15e7:	56                   	push   %esi
    15e8:	53                   	push   %ebx
    15e9:	68 e0 70 00 00       	push   $0x70e0
    15ee:	e8 7d 27 00 00       	call   3d70 <rfb_listen>
    15f3:	83 c4 10             	add    $0x10,%esp
    15f6:	89 c6                	mov    %eax,%esi
    15f8:	85 c0                	test   %eax,%eax
    15fa:	0f 84 36 01 00 00    	je     1736 <main+0x366>
    1600:	51                   	push   %ecx
    1601:	51                   	push   %ecx
    1602:	68 08 4d 00 00       	push   $0x4d08
    1607:	be 02 00 00 00       	mov    $0x2,%esi
    160c:	ff 35 c8 70 00 00    	pushl  0x70c8
    1612:	e8 09 3f 00 00       	call   5520 <fprintf@plt>
    1617:	83 c4 10             	add    $0x10,%esp
    161a:	eb 32                	jmp    164e <main+0x27e>
    161c:	50                   	push   %eax
    161d:	50                   	push   %eax
    161e:	68 87 4b 00 00       	push   $0x4b87
    1623:	ff 35 c8 70 00 00    	pushl  0x70c8
    1629:	e8 f2 3e 00 00       	call   5520 <fprintf@plt>
    162e:	83 c4 0c             	add    $0xc,%esp
    1631:	a1 c8 70 00 00       	mov    0x70c8,%eax
    1636:	68 83 4b 00 00       	push   $0x4b83
    163b:	68 e8 4b 00 00       	push   $0x4be8
    1640:	50                   	push   %eax
    1641:	be 01 00 00 00       	mov    $0x1,%esi
    1646:	e8 d5 3e 00 00       	call   5520 <fprintf@plt>
    164b:	83 c4 10             	add    $0x10,%esp
    164e:	8d 65 f0             	lea    -0x10(%ebp),%esp
    1651:	89 f0                	mov    %esi,%eax
    1653:	59                   	pop    %ecx
    1654:	5b                   	pop    %ebx
    1655:	5e                   	pop    %esi
    1656:	5f                   	pop    %edi
    1657:	5d                   	pop    %ebp
    1658:	8d 61 fc             	lea    -0x4(%ecx),%esp
    165b:	c3                   	ret    
    165c:	52                   	push   %edx
    165d:	eb d2                	jmp    1631 <main+0x261>
    165f:	50                   	push   %eax
    1660:	6a 00                	push   $0x0
    1662:	57                   	push   %edi
    1663:	89 4d cc             	mov    %ecx,-0x34(%ebp)
    1666:	ff 73 10             	pushl  0x10(%ebx)
    1669:	89 55 d0             	mov    %edx,-0x30(%ebp)
    166c:	e8 2f 3e 00 00       	call   54a0 <strtoul@plt>
    1671:	89 c3                	mov    %eax,%ebx
    1673:	8b 45 d8             	mov    -0x28(%ebp),%eax
    1676:	83 c4 10             	add    $0x10,%esp
    1679:	8b 55 d0             	mov    -0x30(%ebp),%edx
    167c:	80 38 00             	cmpb   $0x0,(%eax)
    167f:	8b 4d cc             	mov    -0x34(%ebp),%ecx
    1682:	0f 84 ce fd ff ff    	je     1456 <main+0x86>
    1688:	56                   	push   %esi
    1689:	56                   	push   %esi
    168a:	68 a6 4b 00 00       	push   $0x4ba6
    168f:	eb 92                	jmp    1623 <main+0x253>
    1691:	50                   	push   %eax
    1692:	50                   	push   %eax
    1693:	68 96 4b 00 00       	push   $0x4b96
    1698:	eb 89                	jmp    1623 <main+0x253>
    169a:	50                   	push   %eax
    169b:	50                   	push   %eax
    169c:	68 83 4b 00 00       	push   $0x4b83
    16a1:	68 3c 4c 00 00       	push   $0x4c3c
    16a6:	e8 25 3d 00 00       	call   53d0 <printf@plt>
    16ab:	83 c4 10             	add    $0x10,%esp
    16ae:	eb 9e                	jmp    164e <main+0x27e>
    16b0:	53                   	push   %ebx
    16b1:	53                   	push   %ebx
    16b2:	68 14 4c 00 00       	push   $0x4c14
    16b7:	be 03 00 00 00       	mov    $0x3,%esi
    16bc:	ff 35 c8 70 00 00    	pushl  0x70c8
    16c2:	e8 59 3e 00 00       	call   5520 <fprintf@plt>
    16c7:	83 c4 10             	add    $0x10,%esp
    16ca:	eb 82                	jmp    164e <main+0x27e>
    16cc:	50                   	push   %eax
    16cd:	50                   	push   %eax
    16ce:	68 a8 4c 00 00       	push   $0x4ca8
    16d3:	be 01 00 00 00       	mov    $0x1,%esi
    16d8:	ff 35 c8 70 00 00    	pushl  0x70c8
    16de:	e8 3d 3e 00 00       	call   5520 <fprintf@plt>
    16e3:	83 c4 10             	add    $0x10,%esp
    16e6:	e9 63 ff ff ff       	jmp    164e <main+0x27e>
    16eb:	50                   	push   %eax
    16ec:	50                   	push   %eax
    16ed:	ff 75 dc             	pushl  -0x24(%ebp)
    16f0:	68 80 4c 00 00       	push   $0x4c80
    16f5:	e8 d6 3c 00 00       	call   53d0 <printf@plt>
    16fa:	83 c4 10             	add    $0x10,%esp
    16fd:	e9 4c ff ff ff       	jmp    164e <main+0x27e>
    1702:	83 ec 0c             	sub    $0xc,%esp
    1705:	68 5c 4c 00 00       	push   $0x4c5c
    170a:	e8 c1 3c 00 00       	call   53d0 <printf@plt>
    170f:	83 c4 10             	add    $0x10,%esp
    1712:	e9 37 ff ff ff       	jmp    164e <main+0x27e>
    1717:	57                   	push   %edi
    1718:	57                   	push   %edi
    1719:	68 d4 4c 00 00       	push   $0x4cd4
    171e:	be 01 00 00 00       	mov    $0x1,%esi
    1723:	ff 35 c8 70 00 00    	pushl  0x70c8
    1729:	e8 f2 3d 00 00       	call   5520 <fprintf@plt>
    172e:	83 c4 10             	add    $0x10,%esp
    1731:	e9 18 ff ff ff       	jmp    164e <main+0x27e>
    1736:	52                   	push   %edx
    1737:	52                   	push   %edx
    1738:	68 83 4b 00 00       	push   $0x4b83
    173d:	68 cd 4b 00 00       	push   $0x4bcd
    1742:	e8 89 3c 00 00       	call   53d0 <printf@plt>
    1747:	c7 04 24 00 00 00 00 	movl   $0x0,(%esp)
    174e:	e8 6d 3c 00 00       	call   53c0 <task_retval@plt>
    1753:	83 c8 ff             	or     $0xffffffff,%eax
    1756:	f0 0f c1 05 c4 70 00 	lock xadd %eax,0x70c4
    175d:	00 
    175e:	83 c4 10             	add    $0x10,%esp
    1761:	48                   	dec    %eax
    1762:	78 12                	js     1776 <main+0x3a6>
    1764:	83 ec 0c             	sub    $0xc,%esp
    1767:	6a 03                	push   $0x3
    1769:	e8 d2 3e 00 00       	call   5640 <fibril_switch@plt>
    176e:	83 c4 10             	add    $0x10,%esp
    1771:	e9 d8 fe ff ff       	jmp    164e <main+0x27e>
    1776:	50                   	push   %eax
    1777:	6a 0b                	push   $0xb
    1779:	6a 00                	push   $0x0
    177b:	6a 00                	push   $0x0
    177d:	6a 00                	push   $0x0
    177f:	6a 00                	push   $0x0
    1781:	6a 00                	push   $0x0
    1783:	68 c4 70 00 00       	push   $0x70c4
    1788:	ff 15 c0 70 00 00    	call   *0x70c0
    178e:	83 c4 20             	add    $0x20,%esp
    1791:	eb d1                	jmp    1764 <main+0x394>
    1793:	66 90                	xchg   %ax,%ax
    1795:	66 90                	xchg   %ax,%ax
    1797:	66 90                	xchg   %ax,%ax
    1799:	66 90                	xchg   %ax,%ax
    179b:	66 90                	xchg   %ax,%ax
    179d:	66 90                	xchg   %ax,%ax
    179f:	90                   	nop

000017a0 <rfb_encode_true_color>:
    17a0:	55                   	push   %ebp
    17a1:	89 e5                	mov    %esp,%ebp
    17a3:	57                   	push   %edi
    17a4:	56                   	push   %esi
    17a5:	53                   	push   %ebx
    17a6:	83 ec 2c             	sub    $0x2c,%esp
    17a9:	89 55 cc             	mov    %edx,-0x34(%ebp)
    17ac:	89 ca                	mov    %ecx,%edx
    17ae:	89 c3                	mov    %eax,%ebx
    17b0:	c1 ea 10             	shr    $0x10,%edx
    17b3:	bf 81 80 80 80       	mov    $0x80808081,%edi
    17b8:	89 d0                	mov    %edx,%eax
    17ba:	31 d2                	xor    %edx,%edx
    17bc:	88 c2                	mov    %al,%dl
    17be:	31 c0                	xor    %eax,%eax
    17c0:	66 8b 43 04          	mov    0x4(%ebx),%ax
    17c4:	89 4d d4             	mov    %ecx,-0x2c(%ebp)
    17c7:	0f af d0             	imul   %eax,%edx
    17ca:	89 d0                	mov    %edx,%eax
    17cc:	8a 4b 0a             	mov    0xa(%ebx),%cl
    17cf:	f7 e7                	mul    %edi
    17d1:	c1 ea 07             	shr    $0x7,%edx
    17d4:	8b 45 d4             	mov    -0x2c(%ebp),%eax
    17d7:	d3 e2                	shl    %cl,%edx
    17d9:	89 d6                	mov    %edx,%esi
    17db:	8a 4b 0b             	mov    0xb(%ebx),%cl
    17de:	0f b6 d4             	movzbl %ah,%edx
    17e1:	31 c0                	xor    %eax,%eax
    17e3:	66 8b 43 06          	mov    0x6(%ebx),%ax
    17e7:	0f af d0             	imul   %eax,%edx
    17ea:	89 d0                	mov    %edx,%eax
    17ec:	f7 e7                	mul    %edi
    17ee:	c1 ea 07             	shr    $0x7,%edx
    17f1:	d3 e2                	shl    %cl,%edx
    17f3:	09 f2                	or     %esi,%edx
    17f5:	8a 4b 0c             	mov    0xc(%ebx),%cl
    17f8:	0f b6 75 d4          	movzbl -0x2c(%ebp),%esi
    17fc:	89 55 d0             	mov    %edx,-0x30(%ebp)
    17ff:	31 d2                	xor    %edx,%edx
    1801:	81 e6 ff 00 00 00    	and    $0xff,%esi
    1807:	66 8b 53 08          	mov    0x8(%ebx),%dx
    180b:	0f af d6             	imul   %esi,%edx
    180e:	89 d0                	mov    %edx,%eax
    1810:	f7 e7                	mul    %edi
    1812:	c1 ea 07             	shr    $0x7,%edx
    1815:	8b 7d d0             	mov    -0x30(%ebp),%edi
    1818:	d3 e2                	shl    %cl,%edx
    181a:	09 fa                	or     %edi,%edx
    181c:	8a 03                	mov    (%ebx),%al
    181e:	89 55 e4             	mov    %edx,-0x1c(%ebp)
    1821:	3c 08                	cmp    $0x8,%al
    1823:	74 6b                	je     1890 <rfb_encode_true_color+0xf0>
    1825:	3c 10                	cmp    $0x10,%al
    1827:	74 37                	je     1860 <rfb_encode_true_color+0xc0>
    1829:	3c 20                	cmp    $0x20,%al
    182b:	74 0b                	je     1838 <rfb_encode_true_color+0x98>
    182d:	8d 65 f4             	lea    -0xc(%ebp),%esp
    1830:	5b                   	pop    %ebx
    1831:	5e                   	pop    %esi
    1832:	5f                   	pop    %edi
    1833:	5d                   	pop    %ebp
    1834:	c3                   	ret    
    1835:	8d 76 00             	lea    0x0(%esi),%esi
    1838:	80 7b 02 00          	cmpb   $0x0,0x2(%ebx)
    183c:	74 05                	je     1843 <rfb_encode_true_color+0xa3>
    183e:	0f ca                	bswap  %edx
    1840:	89 55 e4             	mov    %edx,-0x1c(%ebp)
    1843:	8b 55 cc             	mov    -0x34(%ebp),%edx
    1846:	50                   	push   %eax
    1847:	8d 45 e4             	lea    -0x1c(%ebp),%eax
    184a:	6a 04                	push   $0x4
    184c:	50                   	push   %eax
    184d:	52                   	push   %edx
    184e:	e8 fd 3b 00 00       	call   5450 <memcpy@plt>
    1853:	83 c4 10             	add    $0x10,%esp
    1856:	8d 65 f4             	lea    -0xc(%ebp),%esp
    1859:	5b                   	pop    %ebx
    185a:	5e                   	pop    %esi
    185b:	5f                   	pop    %edi
    185c:	5d                   	pop    %ebp
    185d:	c3                   	ret    
    185e:	66 90                	xchg   %ax,%ax
    1860:	66 89 55 e2          	mov    %dx,-0x1e(%ebp)
    1864:	80 7b 02 00          	cmpb   $0x0,0x2(%ebx)
    1868:	74 08                	je     1872 <rfb_encode_true_color+0xd2>
    186a:	66 c1 c2 08          	rol    $0x8,%dx
    186e:	66 89 55 e2          	mov    %dx,-0x1e(%ebp)
    1872:	53                   	push   %ebx
    1873:	6a 02                	push   $0x2
    1875:	8d 45 e2             	lea    -0x1e(%ebp),%eax
    1878:	8b 4d cc             	mov    -0x34(%ebp),%ecx
    187b:	50                   	push   %eax
    187c:	51                   	push   %ecx
    187d:	e8 ce 3b 00 00       	call   5450 <memcpy@plt>
    1882:	83 c4 10             	add    $0x10,%esp
    1885:	8d 65 f4             	lea    -0xc(%ebp),%esp
    1888:	5b                   	pop    %ebx
    1889:	5e                   	pop    %esi
    188a:	5f                   	pop    %edi
    188b:	5d                   	pop    %ebp
    188c:	c3                   	ret    
    188d:	8d 76 00             	lea    0x0(%esi),%esi
    1890:	88 55 e2             	mov    %dl,-0x1e(%ebp)
    1893:	56                   	push   %esi
    1894:	6a 01                	push   $0x1
    1896:	eb dd                	jmp    1875 <rfb_encode_true_color+0xd5>
    1898:	90                   	nop
    1899:	8d b4 26 00 00 00 00 	lea    0x0(%esi,%eiz,1),%esi

000018a0 <rfb_encode_pixel>:
    18a0:	55                   	push   %ebp
    18a1:	89 e5                	mov    %esp,%ebp
    18a3:	57                   	push   %edi
    18a4:	56                   	push   %esi
    18a5:	53                   	push   %ebx
    18a6:	83 ec 2c             	sub    $0x2c,%esp
    18a9:	89 45 d8             	mov    %eax,-0x28(%ebp)
    18ac:	89 55 d4             	mov    %edx,-0x2c(%ebp)
    18af:	89 4d dc             	mov    %ecx,-0x24(%ebp)
    18b2:	80 78 07 00          	cmpb   $0x0,0x7(%eax)
    18b6:	0f 85 9f 00 00 00    	jne    195b <rfb_encode_pixel+0xbb>
    18bc:	8b 78 4c             	mov    0x4c(%eax),%edi
    18bf:	89 c8                	mov    %ecx,%eax
    18c1:	c1 e8 10             	shr    $0x10,%eax
    18c4:	83 ce ff             	or     $0xffffffff,%esi
    18c7:	89 45 e4             	mov    %eax,-0x1c(%ebp)
    18ca:	89 c8                	mov    %ecx,%eax
    18cc:	c1 e8 08             	shr    $0x8,%eax
    18cf:	89 45 e0             	mov    %eax,-0x20(%ebp)
    18d2:	31 c0                	xor    %eax,%eax
    18d4:	eb 11                	jmp    18e7 <rfb_encode_pixel+0x47>
    18d6:	66 90                	xchg   %ax,%ax
    18d8:	83 fe ff             	cmp    $0xffffffff,%esi
    18db:	75 14                	jne    18f1 <rfb_encode_pixel+0x51>
    18dd:	89 c6                	mov    %eax,%esi
    18df:	40                   	inc    %eax
    18e0:	3d 00 01 00 00       	cmp    $0x100,%eax
    18e5:	74 41                	je     1928 <rfb_encode_pixel+0x88>
    18e7:	8b 14 87             	mov    (%edi,%eax,4),%edx
    18ea:	89 d1                	mov    %edx,%ecx
    18ec:	c1 e9 18             	shr    $0x18,%ecx
    18ef:	74 e7                	je     18d8 <rfb_encode_pixel+0x38>
    18f1:	85 c9                	test   %ecx,%ecx
    18f3:	74 ea                	je     18df <rfb_encode_pixel+0x3f>
    18f5:	89 d1                	mov    %edx,%ecx
    18f7:	8b 5d e4             	mov    -0x1c(%ebp),%ebx
    18fa:	c1 e9 10             	shr    $0x10,%ecx
    18fd:	31 d9                	xor    %ebx,%ecx
    18ff:	89 d3                	mov    %edx,%ebx
    1901:	c1 eb 08             	shr    $0x8,%ebx
    1904:	33 5d e0             	xor    -0x20(%ebp),%ebx
    1907:	09 d9                	or     %ebx,%ecx
    1909:	84 c9                	test   %cl,%cl
    190b:	75 d2                	jne    18df <rfb_encode_pixel+0x3f>
    190d:	8b 4d dc             	mov    -0x24(%ebp),%ecx
    1910:	31 ca                	xor    %ecx,%edx
    1912:	84 d2                	test   %dl,%dl
    1914:	75 c9                	jne    18df <rfb_encode_pixel+0x3f>
    1916:	8b 7d d4             	mov    -0x2c(%ebp),%edi
    1919:	88 07                	mov    %al,(%edi)
    191b:	83 c4 2c             	add    $0x2c,%esp
    191e:	5b                   	pop    %ebx
    191f:	5e                   	pop    %esi
    1920:	5f                   	pop    %edi
    1921:	5d                   	pop    %ebp
    1922:	c3                   	ret    
    1923:	90                   	nop
    1924:	8d 74 26 00          	lea    0x0(%esi,%eiz,1),%esi
    1928:	83 fe ff             	cmp    $0xffffffff,%esi
    192b:	74 41                	je     196e <rfb_encode_pixel+0xce>
    192d:	8b 4d dc             	mov    -0x24(%ebp),%ecx
    1930:	8b 45 d8             	mov    -0x28(%ebp),%eax
    1933:	81 c9 00 00 00 ff    	or     $0xff000000,%ecx
    1939:	89 0c b7             	mov    %ecx,(%edi,%esi,4)
    193c:	8b 50 50             	mov    0x50(%eax),%edx
    193f:	8d 46 01             	lea    0x1(%esi),%eax
    1942:	39 d0                	cmp    %edx,%eax
    1944:	72 24                	jb     196a <rfb_encode_pixel+0xca>
    1946:	8b 7d d8             	mov    -0x28(%ebp),%edi
    1949:	89 47 50             	mov    %eax,0x50(%edi)
    194c:	8b 7d d4             	mov    -0x2c(%ebp),%edi
    194f:	89 f0                	mov    %esi,%eax
    1951:	88 07                	mov    %al,(%edi)
    1953:	83 c4 2c             	add    $0x2c,%esp
    1956:	5b                   	pop    %ebx
    1957:	5e                   	pop    %esi
    1958:	5f                   	pop    %edi
    1959:	5d                   	pop    %ebp
    195a:	c3                   	ret    
    195b:	83 c4 2c             	add    $0x2c,%esp
    195e:	83 c0 04             	add    $0x4,%eax
    1961:	5b                   	pop    %ebx
    1962:	5e                   	pop    %esi
    1963:	5f                   	pop    %edi
    1964:	5d                   	pop    %ebp
    1965:	e9 36 fe ff ff       	jmp    17a0 <rfb_encode_true_color>
    196a:	89 d0                	mov    %edx,%eax
    196c:	eb d8                	jmp    1946 <rfb_encode_pixel+0xa6>
    196e:	8b 45 d4             	mov    -0x2c(%ebp),%eax
    1971:	c6 00 00             	movb   $0x0,(%eax)
    1974:	83 c4 2c             	add    $0x2c,%esp
    1977:	5b                   	pop    %ebx
    1978:	5e                   	pop    %esi
    1979:	5f                   	pop    %edi
    197a:	5d                   	pop    %ebp
    197b:	c3                   	ret    
    197c:	8d 74 26 00          	lea    0x0(%esi,%eiz,1),%esi

00001980 <rfb_new_conn>:
    1980:	55                   	push   %ebp
    1981:	89 e5                	mov    %esp,%ebp
    1983:	57                   	push   %edi
    1984:	56                   	push   %esi
    1985:	53                   	push   %ebx
    1986:	81 ec b8 00 00 00    	sub    $0xb8,%esp
    198c:	8b 4d 08             	mov    0x8(%ebp),%ecx
    198f:	51                   	push   %ecx
    1990:	e8 9b 3a 00 00       	call   5430 <tcp_listener_userptr@plt>
    1995:	83 c4 0c             	add    $0xc,%esp
    1998:	89 45 a4             	mov    %eax,-0x5c(%ebp)
    199b:	68 44 4d 00 00       	push   $0x4d44
    19a0:	6a 04                	push   $0x4
    19a2:	6a ff                	push   $0xffffffff
    19a4:	e8 37 3b 00 00       	call   54e0 <log_msg@plt>
    19a9:	83 c4 0c             	add    $0xc,%esp
    19ac:	8b 5d 0c             	mov    0xc(%ebp),%ebx
    19af:	c7 05 84 71 00 00 00 	movl   $0x0,0x7184
    19b6:	00 00 00 
    19b9:	c7 05 80 71 00 00 00 	movl   $0x0,0x7180
    19c0:	00 00 00 
    19c3:	6a 0c                	push   $0xc
    19c5:	68 58 4d 00 00       	push   $0x4d58
    19ca:	53                   	push   %ebx
    19cb:	e8 90 3a 00 00       	call   5460 <tcp_conn_send@plt>
    19d0:	83 c4 10             	add    $0x10,%esp
    19d3:	85 c0                	test   %eax,%eax
    19d5:	0f 85 7d 01 00 00    	jne    1b58 <rfb_new_conn+0x1d8>
    19db:	8b 15 84 71 00 00    	mov    0x7184,%edx
    19e1:	a1 80 71 00 00       	mov    0x7180,%eax
    19e6:	39 c2                	cmp    %eax,%edx
    19e8:	0f 84 2c 03 00 00    	je     1d1a <rfb_new_conn+0x39a>
    19ee:	8d 4a 01             	lea    0x1(%edx),%ecx
    19f1:	8a 9a a0 71 00 00    	mov    0x71a0(%edx),%bl
    19f7:	88 5d c8             	mov    %bl,-0x38(%ebp)
    19fa:	39 c8                	cmp    %ecx,%eax
    19fc:	0f 84 5d 03 00 00    	je     1d5f <rfb_new_conn+0x3df>
    1a02:	8d 51 01             	lea    0x1(%ecx),%edx
    1a05:	8a 99 a0 71 00 00    	mov    0x71a0(%ecx),%bl
    1a0b:	88 5d c9             	mov    %bl,-0x37(%ebp)
    1a0e:	39 c2                	cmp    %eax,%edx
    1a10:	0f 84 92 03 00 00    	je     1da8 <rfb_new_conn+0x428>
    1a16:	8d 4a 01             	lea    0x1(%edx),%ecx
    1a19:	8a 9a a0 71 00 00    	mov    0x71a0(%edx),%bl
    1a1f:	88 5d ca             	mov    %bl,-0x36(%ebp)
    1a22:	39 c8                	cmp    %ecx,%eax
    1a24:	0f 84 c7 03 00 00    	je     1df1 <rfb_new_conn+0x471>
    1a2a:	8d 51 01             	lea    0x1(%ecx),%edx
    1a2d:	8a 99 a0 71 00 00    	mov    0x71a0(%ecx),%bl
    1a33:	88 5d cb             	mov    %bl,-0x35(%ebp)
    1a36:	39 c2                	cmp    %eax,%edx
    1a38:	0f 84 fc 03 00 00    	je     1e3a <rfb_new_conn+0x4ba>
    1a3e:	8d 4a 01             	lea    0x1(%edx),%ecx
    1a41:	8a 9a a0 71 00 00    	mov    0x71a0(%edx),%bl
    1a47:	88 5d cc             	mov    %bl,-0x34(%ebp)
    1a4a:	39 c1                	cmp    %eax,%ecx
    1a4c:	0f 84 31 04 00 00    	je     1e83 <rfb_new_conn+0x503>
    1a52:	8d 51 01             	lea    0x1(%ecx),%edx
    1a55:	8a 99 a0 71 00 00    	mov    0x71a0(%ecx),%bl
    1a5b:	88 5d cd             	mov    %bl,-0x33(%ebp)
    1a5e:	39 c2                	cmp    %eax,%edx
    1a60:	0f 84 66 04 00 00    	je     1ecc <rfb_new_conn+0x54c>
    1a66:	8d 4a 01             	lea    0x1(%edx),%ecx
    1a69:	8a 9a a0 71 00 00    	mov    0x71a0(%edx),%bl
    1a6f:	88 5d ce             	mov    %bl,-0x32(%ebp)
    1a72:	39 c1                	cmp    %eax,%ecx
    1a74:	0f 84 12 01 00 00    	je     1b8c <rfb_new_conn+0x20c>
    1a7a:	8d 51 01             	lea    0x1(%ecx),%edx
    1a7d:	8a 99 a0 71 00 00    	mov    0x71a0(%ecx),%bl
    1a83:	88 5d cf             	mov    %bl,-0x31(%ebp)
    1a86:	39 c2                	cmp    %eax,%edx
    1a88:	0f 84 47 01 00 00    	je     1bd5 <rfb_new_conn+0x255>
    1a8e:	8d 4a 01             	lea    0x1(%edx),%ecx
    1a91:	8a 9a a0 71 00 00    	mov    0x71a0(%edx),%bl
    1a97:	88 5d d0             	mov    %bl,-0x30(%ebp)
    1a9a:	39 c1                	cmp    %eax,%ecx
    1a9c:	0f 84 7c 01 00 00    	je     1c1e <rfb_new_conn+0x29e>
    1aa2:	8d 59 01             	lea    0x1(%ecx),%ebx
    1aa5:	8a 89 a0 71 00 00    	mov    0x71a0(%ecx),%cl
    1aab:	88 4d d1             	mov    %cl,-0x2f(%ebp)
    1aae:	39 c3                	cmp    %eax,%ebx
    1ab0:	0f 84 b1 01 00 00    	je     1c67 <rfb_new_conn+0x2e7>
    1ab6:	8d 53 01             	lea    0x1(%ebx),%edx
    1ab9:	8a 9b a0 71 00 00    	mov    0x71a0(%ebx),%bl
    1abf:	88 5d d2             	mov    %bl,-0x2e(%ebp)
    1ac2:	39 c2                	cmp    %eax,%edx
    1ac4:	0f 84 e2 01 00 00    	je     1cac <rfb_new_conn+0x32c>
    1aca:	8d 42 01             	lea    0x1(%edx),%eax
    1acd:	a3 84 71 00 00       	mov    %eax,0x7184
    1ad2:	8a 82 a0 71 00 00    	mov    0x71a0(%edx),%al
    1ad8:	88 45 d3             	mov    %al,-0x2d(%ebp)
    1adb:	50                   	push   %eax
    1adc:	8d 45 c8             	lea    -0x38(%ebp),%eax
    1adf:	6a 0c                	push   $0xc
    1ae1:	68 58 4d 00 00       	push   $0x4d58
    1ae6:	50                   	push   %eax
    1ae7:	e8 b4 3a 00 00       	call   55a0 <memcmp@plt>
    1aec:	83 c4 10             	add    $0x10,%esp
    1aef:	85 c0                	test   %eax,%eax
    1af1:	0f 85 09 02 00 00    	jne    1d00 <rfb_new_conn+0x380>
    1af7:	50                   	push   %eax
    1af8:	8d 45 ba             	lea    -0x46(%ebp),%eax
    1afb:	6a 02                	push   $0x2
    1afd:	50                   	push   %eax
    1afe:	8b 45 0c             	mov    0xc(%ebp),%eax
    1b01:	c6 45 ba 01          	movb   $0x1,-0x46(%ebp)
    1b05:	50                   	push   %eax
    1b06:	c6 45 bb 01          	movb   $0x1,-0x45(%ebp)
    1b0a:	e8 51 39 00 00       	call   5460 <tcp_conn_send@plt>
    1b0f:	83 c4 10             	add    $0x10,%esp
    1b12:	85 c0                	test   %eax,%eax
    1b14:	75 5c                	jne    1b72 <rfb_new_conn+0x1f2>
    1b16:	a1 84 71 00 00       	mov    0x7184,%eax
    1b1b:	3b 05 80 71 00 00    	cmp    0x7180,%eax
    1b21:	0f 84 e8 10 00 00    	je     2c0f <rfb_new_conn+0x128f>
    1b27:	8d 50 01             	lea    0x1(%eax),%edx
    1b2a:	89 15 84 71 00 00    	mov    %edx,0x7184
    1b30:	80 b8 a0 71 00 00 01 	cmpb   $0x1,0x71a0(%eax)
    1b37:	0f 84 d8 03 00 00    	je     1f15 <rfb_new_conn+0x595>
    1b3d:	50                   	push   %eax
    1b3e:	68 74 4e 00 00       	push   $0x4e74
    1b43:	6a 02                	push   $0x2
    1b45:	6a ff                	push   $0xffffffff
    1b47:	e8 94 39 00 00       	call   54e0 <log_msg@plt>
    1b4c:	83 c4 10             	add    $0x10,%esp
    1b4f:	eb 19                	jmp    1b6a <rfb_new_conn+0x1ea>
    1b51:	8d b4 26 00 00 00 00 	lea    0x0(%esi,%eiz,1),%esi
    1b58:	50                   	push   %eax
    1b59:	68 28 4e 00 00       	push   $0x4e28
    1b5e:	6a 02                	push   $0x2
    1b60:	6a ff                	push   $0xffffffff
    1b62:	e8 79 39 00 00       	call   54e0 <log_msg@plt>
    1b67:	83 c4 10             	add    $0x10,%esp
    1b6a:	8d 65 f4             	lea    -0xc(%ebp),%esp
    1b6d:	5b                   	pop    %ebx
    1b6e:	5e                   	pop    %esi
    1b6f:	5f                   	pop    %edi
    1b70:	5d                   	pop    %ebp
    1b71:	c3                   	ret    
    1b72:	50                   	push   %eax
    1b73:	68 4c 4e 00 00       	push   $0x4e4c
    1b78:	6a 02                	push   $0x2
    1b7a:	6a ff                	push   $0xffffffff
    1b7c:	e8 5f 39 00 00       	call   54e0 <log_msg@plt>
    1b81:	83 c4 10             	add    $0x10,%esp
    1b84:	8d 65 f4             	lea    -0xc(%ebp),%esp
    1b87:	5b                   	pop    %ebx
    1b88:	5e                   	pop    %esi
    1b89:	5f                   	pop    %edi
    1b8a:	5d                   	pop    %ebp
    1b8b:	c3                   	ret    
    1b8c:	8d 45 d4             	lea    -0x2c(%ebp),%eax
    1b8f:	8b 7d 0c             	mov    0xc(%ebp),%edi
    1b92:	50                   	push   %eax
    1b93:	c7 05 84 71 00 00 00 	movl   $0x0,0x7184
    1b9a:	00 00 00 
    1b9d:	68 00 04 00 00       	push   $0x400
    1ba2:	c7 05 80 71 00 00 00 	movl   $0x0,0x7180
    1ba9:	00 00 00 
    1bac:	68 a0 71 00 00       	push   $0x71a0
    1bb1:	57                   	push   %edi
    1bb2:	e8 c9 3a 00 00       	call   5680 <tcp_conn_recv_wait@plt>
    1bb7:	83 c4 10             	add    $0x10,%esp
    1bba:	85 c0                	test   %eax,%eax
    1bbc:	0f 85 20 01 00 00    	jne    1ce2 <rfb_new_conn+0x362>
    1bc2:	8b 45 d4             	mov    -0x2c(%ebp),%eax
    1bc5:	8b 0d 84 71 00 00    	mov    0x7184,%ecx
    1bcb:	a3 80 71 00 00       	mov    %eax,0x7180
    1bd0:	e9 a5 fe ff ff       	jmp    1a7a <rfb_new_conn+0xfa>
    1bd5:	8d 45 d4             	lea    -0x2c(%ebp),%eax
    1bd8:	8b 75 0c             	mov    0xc(%ebp),%esi
    1bdb:	50                   	push   %eax
    1bdc:	c7 05 84 71 00 00 00 	movl   $0x0,0x7184
    1be3:	00 00 00 
    1be6:	68 00 04 00 00       	push   $0x400
    1beb:	c7 05 80 71 00 00 00 	movl   $0x0,0x7180
    1bf2:	00 00 00 
    1bf5:	68 a0 71 00 00       	push   $0x71a0
    1bfa:	56                   	push   %esi
    1bfb:	e8 80 3a 00 00       	call   5680 <tcp_conn_recv_wait@plt>
    1c00:	83 c4 10             	add    $0x10,%esp
    1c03:	85 c0                	test   %eax,%eax
    1c05:	0f 85 d7 00 00 00    	jne    1ce2 <rfb_new_conn+0x362>
    1c0b:	8b 45 d4             	mov    -0x2c(%ebp),%eax
    1c0e:	8b 15 84 71 00 00    	mov    0x7184,%edx
    1c14:	a3 80 71 00 00       	mov    %eax,0x7180
    1c19:	e9 70 fe ff ff       	jmp    1a8e <rfb_new_conn+0x10e>
    1c1e:	8d 45 d4             	lea    -0x2c(%ebp),%eax
    1c21:	8b 5d 0c             	mov    0xc(%ebp),%ebx
    1c24:	50                   	push   %eax
    1c25:	c7 05 84 71 00 00 00 	movl   $0x0,0x7184
    1c2c:	00 00 00 
    1c2f:	68 00 04 00 00       	push   $0x400
    1c34:	c7 05 80 71 00 00 00 	movl   $0x0,0x7180
    1c3b:	00 00 00 
    1c3e:	68 a0 71 00 00       	push   $0x71a0
    1c43:	53                   	push   %ebx
    1c44:	e8 37 3a 00 00       	call   5680 <tcp_conn_recv_wait@plt>
    1c49:	83 c4 10             	add    $0x10,%esp
    1c4c:	85 c0                	test   %eax,%eax
    1c4e:	0f 85 8e 00 00 00    	jne    1ce2 <rfb_new_conn+0x362>
    1c54:	8b 45 d4             	mov    -0x2c(%ebp),%eax
    1c57:	8b 0d 84 71 00 00    	mov    0x7184,%ecx
    1c5d:	a3 80 71 00 00       	mov    %eax,0x7180
    1c62:	e9 3b fe ff ff       	jmp    1aa2 <rfb_new_conn+0x122>
    1c67:	8d 45 d4             	lea    -0x2c(%ebp),%eax
    1c6a:	8b 4d 0c             	mov    0xc(%ebp),%ecx
    1c6d:	50                   	push   %eax
    1c6e:	c7 05 84 71 00 00 00 	movl   $0x0,0x7184
    1c75:	00 00 00 
    1c78:	68 00 04 00 00       	push   $0x400
    1c7d:	c7 05 80 71 00 00 00 	movl   $0x0,0x7180
    1c84:	00 00 00 
    1c87:	68 a0 71 00 00       	push   $0x71a0
    1c8c:	51                   	push   %ecx
    1c8d:	e8 ee 39 00 00       	call   5680 <tcp_conn_recv_wait@plt>
    1c92:	83 c4 10             	add    $0x10,%esp
    1c95:	85 c0                	test   %eax,%eax
    1c97:	75 49                	jne    1ce2 <rfb_new_conn+0x362>
    1c99:	8b 45 d4             	mov    -0x2c(%ebp),%eax
    1c9c:	8b 1d 84 71 00 00    	mov    0x7184,%ebx
    1ca2:	a3 80 71 00 00       	mov    %eax,0x7180
    1ca7:	e9 0a fe ff ff       	jmp    1ab6 <rfb_new_conn+0x136>
    1cac:	8d 45 d4             	lea    -0x2c(%ebp),%eax
    1caf:	8b 55 0c             	mov    0xc(%ebp),%edx
    1cb2:	50                   	push   %eax
    1cb3:	c7 05 84 71 00 00 00 	movl   $0x0,0x7184
    1cba:	00 00 00 
    1cbd:	68 00 04 00 00       	push   $0x400
    1cc2:	c7 05 80 71 00 00 00 	movl   $0x0,0x7180
    1cc9:	00 00 00 
    1ccc:	68 a0 71 00 00       	push   $0x71a0
    1cd1:	52                   	push   %edx
    1cd2:	e8 a9 39 00 00       	call   5680 <tcp_conn_recv_wait@plt>
    1cd7:	83 c4 10             	add    $0x10,%esp
    1cda:	85 c0                	test   %eax,%eax
    1cdc:	0f 84 7a 03 00 00    	je     205c <rfb_new_conn+0x6dc>
    1ce2:	50                   	push   %eax
    1ce3:	68 10 50 00 00       	push   $0x5010
    1ce8:	6a 02                	push   $0x2
    1cea:	6a ff                	push   $0xffffffff
    1cec:	e8 ef 37 00 00       	call   54e0 <log_msg@plt>
    1cf1:	83 c4 10             	add    $0x10,%esp
    1cf4:	8d 65 f4             	lea    -0xc(%ebp),%esp
    1cf7:	5b                   	pop    %ebx
    1cf8:	5e                   	pop    %esi
    1cf9:	5f                   	pop    %edi
    1cfa:	5d                   	pop    %ebp
    1cfb:	c3                   	ret    
    1cfc:	8d 74 26 00          	lea    0x0(%esi,%eiz,1),%esi
    1d00:	50                   	push   %eax
    1d01:	68 65 4d 00 00       	push   $0x4d65
    1d06:	6a 02                	push   $0x2
    1d08:	6a ff                	push   $0xffffffff
    1d0a:	e8 d1 37 00 00       	call   54e0 <log_msg@plt>
    1d0f:	83 c4 10             	add    $0x10,%esp
    1d12:	8d 65 f4             	lea    -0xc(%ebp),%esp
    1d15:	5b                   	pop    %ebx
    1d16:	5e                   	pop    %esi
    1d17:	5f                   	pop    %edi
    1d18:	5d                   	pop    %ebp
    1d19:	c3                   	ret    
    1d1a:	8d 45 d4             	lea    -0x2c(%ebp),%eax
    1d1d:	8b 55 0c             	mov    0xc(%ebp),%edx
    1d20:	50                   	push   %eax
    1d21:	c7 05 84 71 00 00 00 	movl   $0x0,0x7184
    1d28:	00 00 00 
    1d2b:	68 00 04 00 00       	push   $0x400
    1d30:	c7 05 80 71 00 00 00 	movl   $0x0,0x7180
    1d37:	00 00 00 
    1d3a:	68 a0 71 00 00       	push   $0x71a0
    1d3f:	52                   	push   %edx
    1d40:	e8 3b 39 00 00       	call   5680 <tcp_conn_recv_wait@plt>
    1d45:	83 c4 10             	add    $0x10,%esp
    1d48:	85 c0                	test   %eax,%eax
    1d4a:	75 96                	jne    1ce2 <rfb_new_conn+0x362>
    1d4c:	8b 45 d4             	mov    -0x2c(%ebp),%eax
    1d4f:	8b 15 84 71 00 00    	mov    0x7184,%edx
    1d55:	a3 80 71 00 00       	mov    %eax,0x7180
    1d5a:	e9 8f fc ff ff       	jmp    19ee <rfb_new_conn+0x6e>
    1d5f:	8d 45 d4             	lea    -0x2c(%ebp),%eax
    1d62:	c7 05 84 71 00 00 00 	movl   $0x0,0x7184
    1d69:	00 00 00 
    1d6c:	50                   	push   %eax
    1d6d:	8b 45 0c             	mov    0xc(%ebp),%eax
    1d70:	68 00 04 00 00       	push   $0x400
    1d75:	c7 05 80 71 00 00 00 	movl   $0x0,0x7180
    1d7c:	00 00 00 
    1d7f:	68 a0 71 00 00       	push   $0x71a0
    1d84:	50                   	push   %eax
    1d85:	e8 f6 38 00 00       	call   5680 <tcp_conn_recv_wait@plt>
    1d8a:	83 c4 10             	add    $0x10,%esp
    1d8d:	85 c0                	test   %eax,%eax
    1d8f:	0f 85 4d ff ff ff    	jne    1ce2 <rfb_new_conn+0x362>
    1d95:	8b 45 d4             	mov    -0x2c(%ebp),%eax
    1d98:	8b 0d 84 71 00 00    	mov    0x7184,%ecx
    1d9e:	a3 80 71 00 00       	mov    %eax,0x7180
    1da3:	e9 5a fc ff ff       	jmp    1a02 <rfb_new_conn+0x82>
    1da8:	8d 45 d4             	lea    -0x2c(%ebp),%eax
    1dab:	c7 05 84 71 00 00 00 	movl   $0x0,0x7184
    1db2:	00 00 00 
    1db5:	50                   	push   %eax
    1db6:	8b 45 0c             	mov    0xc(%ebp),%eax
    1db9:	68 00 04 00 00       	push   $0x400
    1dbe:	c7 05 80 71 00 00 00 	movl   $0x0,0x7180
    1dc5:	00 00 00 
    1dc8:	68 a0 71 00 00       	push   $0x71a0
    1dcd:	50                   	push   %eax
    1dce:	e8 ad 38 00 00       	call   5680 <tcp_conn_recv_wait@plt>
    1dd3:	83 c4 10             	add    $0x10,%esp
    1dd6:	85 c0                	test   %eax,%eax
    1dd8:	0f 85 04 ff ff ff    	jne    1ce2 <rfb_new_conn+0x362>
    1dde:	8b 45 d4             	mov    -0x2c(%ebp),%eax
    1de1:	8b 15 84 71 00 00    	mov    0x7184,%edx
    1de7:	a3 80 71 00 00       	mov    %eax,0x7180
    1dec:	e9 25 fc ff ff       	jmp    1a16 <rfb_new_conn+0x96>
    1df1:	8d 45 d4             	lea    -0x2c(%ebp),%eax
    1df4:	c7 05 84 71 00 00 00 	movl   $0x0,0x7184
    1dfb:	00 00 00 
    1dfe:	50                   	push   %eax
    1dff:	8b 45 0c             	mov    0xc(%ebp),%eax
    1e02:	68 00 04 00 00       	push   $0x400
    1e07:	c7 05 80 71 00 00 00 	movl   $0x0,0x7180
    1e0e:	00 00 00 
    1e11:	68 a0 71 00 00       	push   $0x71a0
    1e16:	50                   	push   %eax
    1e17:	e8 64 38 00 00       	call   5680 <tcp_conn_recv_wait@plt>
    1e1c:	83 c4 10             	add    $0x10,%esp
    1e1f:	85 c0                	test   %eax,%eax
    1e21:	0f 85 bb fe ff ff    	jne    1ce2 <rfb_new_conn+0x362>
    1e27:	8b 45 d4             	mov    -0x2c(%ebp),%eax
    1e2a:	8b 0d 84 71 00 00    	mov    0x7184,%ecx
    1e30:	a3 80 71 00 00       	mov    %eax,0x7180
    1e35:	e9 f0 fb ff ff       	jmp    1a2a <rfb_new_conn+0xaa>
    1e3a:	8d 45 d4             	lea    -0x2c(%ebp),%eax
    1e3d:	c7 05 84 71 00 00 00 	movl   $0x0,0x7184
    1e44:	00 00 00 
    1e47:	50                   	push   %eax
    1e48:	8b 45 0c             	mov    0xc(%ebp),%eax
    1e4b:	68 00 04 00 00       	push   $0x400
    1e50:	c7 05 80 71 00 00 00 	movl   $0x0,0x7180
    1e57:	00 00 00 
    1e5a:	68 a0 71 00 00       	push   $0x71a0
    1e5f:	50                   	push   %eax
    1e60:	e8 1b 38 00 00       	call   5680 <tcp_conn_recv_wait@plt>
    1e65:	83 c4 10             	add    $0x10,%esp
    1e68:	85 c0                	test   %eax,%eax
    1e6a:	0f 85 72 fe ff ff    	jne    1ce2 <rfb_new_conn+0x362>
    1e70:	8b 45 d4             	mov    -0x2c(%ebp),%eax
    1e73:	8b 15 84 71 00 00    	mov    0x7184,%edx
    1e79:	a3 80 71 00 00       	mov    %eax,0x7180
    1e7e:	e9 bb fb ff ff       	jmp    1a3e <rfb_new_conn+0xbe>
    1e83:	8d 45 d4             	lea    -0x2c(%ebp),%eax
    1e86:	c7 05 84 71 00 00 00 	movl   $0x0,0x7184
    1e8d:	00 00 00 
    1e90:	50                   	push   %eax
    1e91:	8b 45 0c             	mov    0xc(%ebp),%eax
    1e94:	68 00 04 00 00       	push   $0x400
    1e99:	c7 05 80 71 00 00 00 	movl   $0x0,0x7180
    1ea0:	00 00 00 
    1ea3:	68 a0 71 00 00       	push   $0x71a0
    1ea8:	50                   	push   %eax
    1ea9:	e8 d2 37 00 00       	call   5680 <tcp_conn_recv_wait@plt>
    1eae:	83 c4 10             	add    $0x10,%esp
    1eb1:	85 c0                	test   %eax,%eax
    1eb3:	0f 85 29 fe ff ff    	jne    1ce2 <rfb_new_conn+0x362>
    1eb9:	8b 45 d4             	mov    -0x2c(%ebp),%eax
    1ebc:	8b 0d 84 71 00 00    	mov    0x7184,%ecx
    1ec2:	a3 80 71 00 00       	mov    %eax,0x7180
    1ec7:	e9 86 fb ff ff       	jmp    1a52 <rfb_new_conn+0xd2>
    1ecc:	8d 45 d4             	lea    -0x2c(%ebp),%eax
    1ecf:	c7 05 84 71 00 00 00 	movl   $0x0,0x7184
    1ed6:	00 00 00 
    1ed9:	50                   	push   %eax
    1eda:	8b 45 0c             	mov    0xc(%ebp),%eax
    1edd:	68 00 04 00 00       	push   $0x400
    1ee2:	c7 05 80 71 00 00 00 	movl   $0x0,0x7180
    1ee9:	00 00 00 
    1eec:	68 a0 71 00 00       	push   $0x71a0
    1ef1:	50                   	push   %eax
    1ef2:	e8 89 37 00 00       	call   5680 <tcp_conn_recv_wait@plt>
    1ef7:	83 c4 10             	add    $0x10,%esp
    1efa:	85 c0                	test   %eax,%eax
    1efc:	0f 85 e0 fd ff ff    	jne    1ce2 <rfb_new_conn+0x362>
    1f02:	8b 45 d4             	mov    -0x2c(%ebp),%eax
    1f05:	8b 15 84 71 00 00    	mov    0x7184,%edx
    1f0b:	a3 80 71 00 00       	mov    %eax,0x7180
    1f10:	e9 51 fb ff ff       	jmp    1a66 <rfb_new_conn+0xe6>
    1f15:	8d 45 bc             	lea    -0x44(%ebp),%eax
    1f18:	8b 7d 0c             	mov    0xc(%ebp),%edi
    1f1b:	c7 45 bc 00 00 00 00 	movl   $0x0,-0x44(%ebp)
    1f22:	56                   	push   %esi
    1f23:	6a 04                	push   $0x4
    1f25:	50                   	push   %eax
    1f26:	57                   	push   %edi
    1f27:	e8 34 35 00 00       	call   5460 <tcp_conn_send@plt>
    1f2c:	83 c4 10             	add    $0x10,%esp
    1f2f:	85 c0                	test   %eax,%eax
    1f31:	0f 85 38 01 00 00    	jne    206f <rfb_new_conn+0x6ef>
    1f37:	a1 84 71 00 00       	mov    0x7184,%eax
    1f3c:	3b 05 80 71 00 00    	cmp    0x7180,%eax
    1f42:	0f 84 77 11 00 00    	je     30bf <rfb_new_conn+0x173f>
    1f48:	8b 75 a4             	mov    -0x5c(%ebp),%esi
    1f4b:	40                   	inc    %eax
    1f4c:	83 ec 0c             	sub    $0xc,%esp
    1f4f:	a3 84 71 00 00       	mov    %eax,0x7184
    1f54:	89 f0                	mov    %esi,%eax
    1f56:	83 c0 3c             	add    $0x3c,%eax
    1f59:	50                   	push   %eax
    1f5a:	89 85 54 ff ff ff    	mov    %eax,-0xac(%ebp)
    1f60:	e8 3b 37 00 00       	call   56a0 <fibril_mutex_lock@plt>
    1f65:	8b 4e 14             	mov    0x14(%esi),%ecx
    1f68:	5a                   	pop    %edx
    1f69:	51                   	push   %ecx
    1f6a:	e8 b1 36 00 00       	call   5620 <str_length@plt>
    1f6f:	89 c6                	mov    %eax,%esi
    1f71:	8d 40 18             	lea    0x18(%eax),%eax
    1f74:	89 04 24             	mov    %eax,(%esp)
    1f77:	89 45 a0             	mov    %eax,-0x60(%ebp)
    1f7a:	e8 f1 34 00 00       	call   5470 <malloc@plt>
    1f7f:	83 c4 10             	add    $0x10,%esp
    1f82:	89 c3                	mov    %eax,%ebx
    1f84:	85 c0                	test   %eax,%eax
    1f86:	0f 84 8e 11 00 00    	je     311a <rfb_new_conn+0x179a>
    1f8c:	8b 55 a4             	mov    -0x5c(%ebp),%edx
    1f8f:	66 8b 7a 02          	mov    0x2(%edx),%di
    1f93:	8b 4a 04             	mov    0x4(%edx),%ecx
    1f96:	8b 02                	mov    (%edx),%eax
    1f98:	66 89 7d 9c          	mov    %di,-0x64(%ebp)
    1f9c:	89 4b 04             	mov    %ecx,0x4(%ebx)
    1f9f:	8b 7a 08             	mov    0x8(%edx),%edi
    1fa2:	8b 4a 0c             	mov    0xc(%edx),%ecx
    1fa5:	8b 52 10             	mov    0x10(%edx),%edx
    1fa8:	89 53 10             	mov    %edx,0x10(%ebx)
    1fab:	8b 55 9c             	mov    -0x64(%ebp),%edx
    1fae:	66 c1 c0 08          	rol    $0x8,%ax
    1fb2:	66 c1 c2 08          	rol    $0x8,%dx
    1fb6:	66 89 03             	mov    %ax,(%ebx)
    1fb9:	66 89 53 02          	mov    %dx,0x2(%ebx)
    1fbd:	89 f8                	mov    %edi,%eax
    1fbf:	89 fa                	mov    %edi,%edx
    1fc1:	c1 ea 10             	shr    $0x10,%edx
    1fc4:	89 4b 0c             	mov    %ecx,0xc(%ebx)
    1fc7:	66 c1 c0 08          	rol    $0x8,%ax
    1fcb:	66 89 43 08          	mov    %ax,0x8(%ebx)
    1fcf:	89 d0                	mov    %edx,%eax
    1fd1:	66 c1 c0 08          	rol    $0x8,%ax
    1fd5:	66 89 43 0a          	mov    %ax,0xa(%ebx)
    1fd9:	89 f0                	mov    %esi,%eax
    1fdb:	66 c1 c1 08          	rol    $0x8,%cx
    1fdf:	8b 7d a4             	mov    -0x5c(%ebp),%edi
    1fe2:	66 89 4b 0c          	mov    %cx,0xc(%ebx)
    1fe6:	0f c8                	bswap  %eax
    1fe8:	89 43 14             	mov    %eax,0x14(%ebx)
    1feb:	51                   	push   %ecx
    1fec:	8d 43 18             	lea    0x18(%ebx),%eax
    1fef:	56                   	push   %esi
    1ff0:	8b 77 14             	mov    0x14(%edi),%esi
    1ff3:	56                   	push   %esi
    1ff4:	50                   	push   %eax
    1ff5:	e8 56 34 00 00       	call   5450 <memcpy@plt>
    1ffa:	8b 85 54 ff ff ff    	mov    -0xac(%ebp),%eax
    2000:	5f                   	pop    %edi
    2001:	50                   	push   %eax
    2002:	e8 39 35 00 00       	call   5540 <fibril_mutex_unlock@plt>
    2007:	83 c4 0c             	add    $0xc,%esp
    200a:	8b 45 a0             	mov    -0x60(%ebp),%eax
    200d:	50                   	push   %eax
    200e:	8b 45 0c             	mov    0xc(%ebp),%eax
    2011:	53                   	push   %ebx
    2012:	50                   	push   %eax
    2013:	e8 48 34 00 00       	call   5460 <tcp_conn_send@plt>
    2018:	83 c4 10             	add    $0x10,%esp
    201b:	85 c0                	test   %eax,%eax
    201d:	0f 85 85 10 00 00    	jne    30a8 <rfb_new_conn+0x1728>
    2023:	a1 84 71 00 00       	mov    0x7184,%eax
    2028:	8b 0d 80 71 00 00    	mov    0x7180,%ecx
    202e:	8b 7d a4             	mov    -0x5c(%ebp),%edi
    2031:	39 c8                	cmp    %ecx,%eax
    2033:	0f 84 ef 0d 00 00    	je     2e28 <rfb_new_conn+0x14a8>
    2039:	8d 50 01             	lea    0x1(%eax),%edx
    203c:	8a 98 a0 71 00 00    	mov    0x71a0(%eax),%bl
    2042:	89 15 84 71 00 00    	mov    %edx,0x7184
    2048:	80 fb 06             	cmp    $0x6,%bl
    204b:	0f 87 3d 09 00 00    	ja     298e <rfb_new_conn+0x100e>
    2051:	31 c0                	xor    %eax,%eax
    2053:	88 d8                	mov    %bl,%al
    2055:	ff 24 85 a4 50 00 00 	jmp    *0x50a4(,%eax,4)
    205c:	8b 45 d4             	mov    -0x2c(%ebp),%eax
    205f:	8b 15 84 71 00 00    	mov    0x7184,%edx
    2065:	a3 80 71 00 00       	mov    %eax,0x7180
    206a:	e9 5b fa ff ff       	jmp    1aca <rfb_new_conn+0x14a>
    206f:	50                   	push   %eax
    2070:	68 a4 4e 00 00       	push   $0x4ea4
    2075:	6a 02                	push   $0x2
    2077:	6a ff                	push   $0xffffffff
    2079:	e8 62 34 00 00       	call   54e0 <log_msg@plt>
    207e:	83 c4 10             	add    $0x10,%esp
    2081:	e9 e4 fa ff ff       	jmp    1b6a <rfb_new_conn+0x1ea>
    2086:	8d 45 b9             	lea    -0x47(%ebp),%eax
    2089:	53                   	push   %ebx
    208a:	6a 01                	push   $0x1
    208c:	50                   	push   %eax
    208d:	8d 45 d4             	lea    -0x2c(%ebp),%eax
    2090:	c6 45 b9 06          	movb   $0x6,-0x47(%ebp)
    2094:	50                   	push   %eax
    2095:	e8 b6 33 00 00       	call   5450 <memcpy@plt>
    209a:	8b 15 84 71 00 00    	mov    0x7184,%edx
    20a0:	a1 80 71 00 00       	mov    0x7180,%eax
    20a5:	83 c4 10             	add    $0x10,%esp
    20a8:	39 c2                	cmp    %eax,%edx
    20aa:	0f 84 f8 13 00 00    	je     34a8 <rfb_new_conn+0x1b28>
    20b0:	8d 4a 01             	lea    0x1(%edx),%ecx
    20b3:	8a 9a a0 71 00 00    	mov    0x71a0(%edx),%bl
    20b9:	88 5d d5             	mov    %bl,-0x2b(%ebp)
    20bc:	39 c1                	cmp    %eax,%ecx
    20be:	0f 84 94 13 00 00    	je     3458 <rfb_new_conn+0x1ad8>
    20c4:	8d 51 01             	lea    0x1(%ecx),%edx
    20c7:	8a 99 a0 71 00 00    	mov    0x71a0(%ecx),%bl
    20cd:	88 5d d6             	mov    %bl,-0x2a(%ebp)
    20d0:	39 c2                	cmp    %eax,%edx
    20d2:	0f 84 30 13 00 00    	je     3408 <rfb_new_conn+0x1a88>
    20d8:	8d 4a 01             	lea    0x1(%edx),%ecx
    20db:	8a 9a a0 71 00 00    	mov    0x71a0(%edx),%bl
    20e1:	88 5d d7             	mov    %bl,-0x29(%ebp)
    20e4:	39 c1                	cmp    %eax,%ecx
    20e6:	0f 84 cc 12 00 00    	je     33b8 <rfb_new_conn+0x1a38>
    20ec:	8d 51 01             	lea    0x1(%ecx),%edx
    20ef:	8a 99 a0 71 00 00    	mov    0x71a0(%ecx),%bl
    20f5:	88 5d d8             	mov    %bl,-0x28(%ebp)
    20f8:	39 c2                	cmp    %eax,%edx
    20fa:	0f 84 68 12 00 00    	je     3368 <rfb_new_conn+0x19e8>
    2100:	8d 42 01             	lea    0x1(%edx),%eax
    2103:	a3 84 71 00 00       	mov    %eax,0x7184
    2108:	8a 82 a0 71 00 00    	mov    0x71a0(%edx),%al
    210e:	88 45 d9             	mov    %al,-0x27(%ebp)
    2111:	8b 45 d6             	mov    -0x2a(%ebp),%eax
    2114:	0f c8                	bswap  %eax
    2116:	89 45 d6             	mov    %eax,-0x2a(%ebp)
    2119:	50                   	push   %eax
    211a:	68 c8 4f 00 00       	push   $0x4fc8
    211f:	6a 05                	push   $0x5
    2121:	6a ff                	push   $0xffffffff
    2123:	e8 b8 33 00 00       	call   54e0 <log_msg@plt>
    2128:	8b 75 d6             	mov    -0x2a(%ebp),%esi
    212b:	83 c4 10             	add    $0x10,%esp
    212e:	85 f6                	test   %esi,%esi
    2130:	0f 84 4d 0d 00 00    	je     2e83 <rfb_new_conn+0x1503>
    2136:	a1 84 71 00 00       	mov    0x7184,%eax
    213b:	8b 0d 80 71 00 00    	mov    0x7180,%ecx
    2141:	31 db                	xor    %ebx,%ebx
    2143:	eb 0a                	jmp    214f <rfb_new_conn+0x7cf>
    2145:	43                   	inc    %ebx
    2146:	40                   	inc    %eax
    2147:	39 de                	cmp    %ebx,%esi
    2149:	0f 84 e2 fe ff ff    	je     2031 <rfb_new_conn+0x6b1>
    214f:	39 c8                	cmp    %ecx,%eax
    2151:	75 f2                	jne    2145 <rfb_new_conn+0x7c5>
    2153:	8d 45 c4             	lea    -0x3c(%ebp),%eax
    2156:	c7 05 84 71 00 00 00 	movl   $0x0,0x7184
    215d:	00 00 00 
    2160:	50                   	push   %eax
    2161:	8b 45 0c             	mov    0xc(%ebp),%eax
    2164:	68 00 04 00 00       	push   $0x400
    2169:	c7 05 80 71 00 00 00 	movl   $0x0,0x7180
    2170:	00 00 00 
    2173:	68 a0 71 00 00       	push   $0x71a0
    2178:	50                   	push   %eax
    2179:	e8 02 35 00 00       	call   5680 <tcp_conn_recv_wait@plt>
    217e:	83 c4 10             	add    $0x10,%esp
    2181:	85 c0                	test   %eax,%eax
    2183:	0f 85 fa 0c 00 00    	jne    2e83 <rfb_new_conn+0x1503>
    2189:	8b 4d c4             	mov    -0x3c(%ebp),%ecx
    218c:	a1 84 71 00 00       	mov    0x7184,%eax
    2191:	89 0d 80 71 00 00    	mov    %ecx,0x7180
    2197:	eb ac                	jmp    2145 <rfb_new_conn+0x7c5>
    2199:	50                   	push   %eax
    219a:	8d 45 b8             	lea    -0x48(%ebp),%eax
    219d:	6a 01                	push   $0x1
    219f:	50                   	push   %eax
    21a0:	8d 45 d4             	lea    -0x2c(%ebp),%eax
    21a3:	c6 45 b8 05          	movb   $0x5,-0x48(%ebp)
    21a7:	50                   	push   %eax
    21a8:	e8 a3 32 00 00       	call   5450 <memcpy@plt>
    21ad:	8b 15 84 71 00 00    	mov    0x7184,%edx
    21b3:	a1 80 71 00 00       	mov    0x7180,%eax
    21b8:	83 c4 10             	add    $0x10,%esp
    21bb:	39 c2                	cmp    %eax,%edx
    21bd:	0f 84 45 18 00 00    	je     3a08 <rfb_new_conn+0x2088>
    21c3:	8d 4a 01             	lea    0x1(%edx),%ecx
    21c6:	8a 9a a0 71 00 00    	mov    0x71a0(%edx),%bl
    21cc:	88 5d d5             	mov    %bl,-0x2b(%ebp)
    21cf:	39 c1                	cmp    %eax,%ecx
    21d1:	0f 84 e1 17 00 00    	je     39b8 <rfb_new_conn+0x2038>
    21d7:	8d 51 01             	lea    0x1(%ecx),%edx
    21da:	8a 99 a0 71 00 00    	mov    0x71a0(%ecx),%bl
    21e0:	88 5d d6             	mov    %bl,-0x2a(%ebp)
    21e3:	39 c2                	cmp    %eax,%edx
    21e5:	0f 84 7d 17 00 00    	je     3968 <rfb_new_conn+0x1fe8>
    21eb:	8d 4a 01             	lea    0x1(%edx),%ecx
    21ee:	8a 9a a0 71 00 00    	mov    0x71a0(%edx),%bl
    21f4:	88 5d d7             	mov    %bl,-0x29(%ebp)
    21f7:	39 c1                	cmp    %eax,%ecx
    21f9:	0f 84 19 17 00 00    	je     3918 <rfb_new_conn+0x1f98>
    21ff:	8d 51 01             	lea    0x1(%ecx),%edx
    2202:	8a 99 a0 71 00 00    	mov    0x71a0(%ecx),%bl
    2208:	88 5d d8             	mov    %bl,-0x28(%ebp)
    220b:	39 c2                	cmp    %eax,%edx
    220d:	0f 84 15 16 00 00    	je     3828 <rfb_new_conn+0x1ea8>
    2213:	8d 42 01             	lea    0x1(%edx),%eax
    2216:	a3 84 71 00 00       	mov    %eax,0x7184
    221b:	8a 82 a0 71 00 00    	mov    0x71a0(%edx),%al
    2221:	88 45 d9             	mov    %al,-0x27(%ebp)
    2224:	66 c1 45 d6 08       	rolw   $0x8,-0x2a(%ebp)
    2229:	66 c1 45 d8 08       	rolw   $0x8,-0x28(%ebp)
    222e:	56                   	push   %esi
    222f:	68 d9 4d 00 00       	push   $0x4dd9
    2234:	6a 05                	push   $0x5
    2236:	6a ff                	push   $0xffffffff
    2238:	e8 a3 32 00 00       	call   54e0 <log_msg@plt>
    223d:	a1 84 71 00 00       	mov    0x7184,%eax
    2242:	8b 0d 80 71 00 00    	mov    0x7180,%ecx
    2248:	83 c4 10             	add    $0x10,%esp
    224b:	e9 e1 fd ff ff       	jmp    2031 <rfb_new_conn+0x6b1>
    2250:	50                   	push   %eax
    2251:	8d 45 b7             	lea    -0x49(%ebp),%eax
    2254:	6a 01                	push   $0x1
    2256:	50                   	push   %eax
    2257:	8d 45 d4             	lea    -0x2c(%ebp),%eax
    225a:	c6 45 b7 04          	movb   $0x4,-0x49(%ebp)
    225e:	50                   	push   %eax
    225f:	e8 ec 31 00 00       	call   5450 <memcpy@plt>
    2264:	8b 15 84 71 00 00    	mov    0x7184,%edx
    226a:	a1 80 71 00 00       	mov    0x7180,%eax
    226f:	83 c4 10             	add    $0x10,%esp
    2272:	39 c2                	cmp    %eax,%edx
    2274:	0f 84 ae 0f 00 00    	je     3228 <rfb_new_conn+0x18a8>
    227a:	8d 4a 01             	lea    0x1(%edx),%ecx
    227d:	8a 9a a0 71 00 00    	mov    0x71a0(%edx),%bl
    2283:	88 5d d5             	mov    %bl,-0x2b(%ebp)
    2286:	39 c1                	cmp    %eax,%ecx
    2288:	0f 84 4a 0f 00 00    	je     31d8 <rfb_new_conn+0x1858>
    228e:	8d 51 01             	lea    0x1(%ecx),%edx
    2291:	8a 99 a0 71 00 00    	mov    0x71a0(%ecx),%bl
    2297:	88 5d d6             	mov    %bl,-0x2a(%ebp)
    229a:	39 c2                	cmp    %eax,%edx
    229c:	0f 84 e6 0e 00 00    	je     3188 <rfb_new_conn+0x1808>
    22a2:	8d 4a 01             	lea    0x1(%edx),%ecx
    22a5:	8a 9a a0 71 00 00    	mov    0x71a0(%edx),%bl
    22ab:	88 5d d7             	mov    %bl,-0x29(%ebp)
    22ae:	39 c1                	cmp    %eax,%ecx
    22b0:	0f 84 88 0e 00 00    	je     313e <rfb_new_conn+0x17be>
    22b6:	8d 51 01             	lea    0x1(%ecx),%edx
    22b9:	8a 99 a0 71 00 00    	mov    0x71a0(%ecx),%bl
    22bf:	88 5d d8             	mov    %bl,-0x28(%ebp)
    22c2:	39 c2                	cmp    %eax,%edx
    22c4:	0f 84 fe 0f 00 00    	je     32c8 <rfb_new_conn+0x1948>
    22ca:	8d 4a 01             	lea    0x1(%edx),%ecx
    22cd:	8a 9a a0 71 00 00    	mov    0x71a0(%edx),%bl
    22d3:	88 5d d9             	mov    %bl,-0x27(%ebp)
    22d6:	39 c1                	cmp    %eax,%ecx
    22d8:	0f 84 9a 0f 00 00    	je     3278 <rfb_new_conn+0x18f8>
    22de:	8d 51 01             	lea    0x1(%ecx),%edx
    22e1:	8a 99 a0 71 00 00    	mov    0x71a0(%ecx),%bl
    22e7:	88 5d da             	mov    %bl,-0x26(%ebp)
    22ea:	39 c2                	cmp    %eax,%edx
    22ec:	0f 84 26 10 00 00    	je     3318 <rfb_new_conn+0x1998>
    22f2:	8d 42 01             	lea    0x1(%edx),%eax
    22f5:	a3 84 71 00 00       	mov    %eax,0x7184
    22fa:	8a 82 a0 71 00 00    	mov    0x71a0(%edx),%al
    2300:	88 45 db             	mov    %al,-0x25(%ebp)
    2303:	8b 45 d8             	mov    -0x28(%ebp),%eax
    2306:	52                   	push   %edx
    2307:	0f c8                	bswap  %eax
    2309:	89 45 d8             	mov    %eax,-0x28(%ebp)
    230c:	68 bf 4d 00 00       	push   $0x4dbf
    2311:	e9 1e ff ff ff       	jmp    2234 <rfb_new_conn+0x8b4>
    2316:	50                   	push   %eax
    2317:	8d 45 b6             	lea    -0x4a(%ebp),%eax
    231a:	6a 01                	push   $0x1
    231c:	50                   	push   %eax
    231d:	8d 45 d4             	lea    -0x2c(%ebp),%eax
    2320:	c6 45 b6 03          	movb   $0x3,-0x4a(%ebp)
    2324:	50                   	push   %eax
    2325:	e8 26 31 00 00       	call   5450 <memcpy@plt>
    232a:	8b 15 84 71 00 00    	mov    0x7184,%edx
    2330:	a1 80 71 00 00       	mov    0x7180,%eax
    2335:	83 c4 10             	add    $0x10,%esp
    2338:	39 c2                	cmp    %eax,%edx
    233a:	0f 84 58 12 00 00    	je     3598 <rfb_new_conn+0x1c18>
    2340:	8d 4a 01             	lea    0x1(%edx),%ecx
    2343:	8a 9a a0 71 00 00    	mov    0x71a0(%edx),%bl
    2349:	88 5d d5             	mov    %bl,-0x2b(%ebp)
    234c:	39 c1                	cmp    %eax,%ecx
    234e:	0f 84 f4 11 00 00    	je     3548 <rfb_new_conn+0x1bc8>
    2354:	8d 51 01             	lea    0x1(%ecx),%edx
    2357:	8a 99 a0 71 00 00    	mov    0x71a0(%ecx),%bl
    235d:	88 5d d6             	mov    %bl,-0x2a(%ebp)
    2360:	39 c2                	cmp    %eax,%edx
    2362:	0f 84 70 13 00 00    	je     36d8 <rfb_new_conn+0x1d58>
    2368:	8d 4a 01             	lea    0x1(%edx),%ecx
    236b:	8a 9a a0 71 00 00    	mov    0x71a0(%edx),%bl
    2371:	88 5d d7             	mov    %bl,-0x29(%ebp)
    2374:	39 c1                	cmp    %eax,%ecx
    2376:	0f 84 0c 13 00 00    	je     3688 <rfb_new_conn+0x1d08>
    237c:	8d 51 01             	lea    0x1(%ecx),%edx
    237f:	8a 99 a0 71 00 00    	mov    0x71a0(%ecx),%bl
    2385:	88 5d d8             	mov    %bl,-0x28(%ebp)
    2388:	39 c2                	cmp    %eax,%edx
    238a:	0f 84 a8 12 00 00    	je     3638 <rfb_new_conn+0x1cb8>
    2390:	8d 4a 01             	lea    0x1(%edx),%ecx
    2393:	8a 9a a0 71 00 00    	mov    0x71a0(%edx),%bl
    2399:	88 5d d9             	mov    %bl,-0x27(%ebp)
    239c:	39 c1                	cmp    %eax,%ecx
    239e:	0f 84 44 12 00 00    	je     35e8 <rfb_new_conn+0x1c68>
    23a4:	8d 51 01             	lea    0x1(%ecx),%edx
    23a7:	8a 99 a0 71 00 00    	mov    0x71a0(%ecx),%bl
    23ad:	88 5d da             	mov    %bl,-0x26(%ebp)
    23b0:	39 c2                	cmp    %eax,%edx
    23b2:	0f 84 20 14 00 00    	je     37d8 <rfb_new_conn+0x1e58>
    23b8:	8d 4a 01             	lea    0x1(%edx),%ecx
    23bb:	8a 9a a0 71 00 00    	mov    0x71a0(%edx),%bl
    23c1:	88 5d db             	mov    %bl,-0x25(%ebp)
    23c4:	39 c1                	cmp    %eax,%ecx
    23c6:	0f 84 bc 13 00 00    	je     3788 <rfb_new_conn+0x1e08>
    23cc:	8d 51 01             	lea    0x1(%ecx),%edx
    23cf:	8a 99 a0 71 00 00    	mov    0x71a0(%ecx),%bl
    23d5:	88 5d dc             	mov    %bl,-0x24(%ebp)
    23d8:	39 c2                	cmp    %eax,%edx
    23da:	0f 84 35 17 00 00    	je     3b15 <rfb_new_conn+0x2195>
    23e0:	8d 42 01             	lea    0x1(%edx),%eax
    23e3:	a3 84 71 00 00       	mov    %eax,0x7184
    23e8:	8a 82 a0 71 00 00    	mov    0x71a0(%edx),%al
    23ee:	88 45 dd             	mov    %al,-0x23(%ebp)
    23f1:	66 8b 45 d6          	mov    -0x2a(%ebp),%ax
    23f5:	66 c1 c0 08          	rol    $0x8,%ax
    23f9:	66 89 45 d6          	mov    %ax,-0x2a(%ebp)
    23fd:	66 c1 c0 08          	rol    $0x8,%ax
    2401:	66 89 45 d8          	mov    %ax,-0x28(%ebp)
    2405:	50                   	push   %eax
    2406:	66 c1 45 da 08       	rolw   $0x8,-0x26(%ebp)
    240b:	68 9c 4f 00 00       	push   $0x4f9c
    2410:	6a 05                	push   $0x5
    2412:	66 c1 45 dc 08       	rolw   $0x8,-0x24(%ebp)
    2417:	6a ff                	push   $0xffffffff
    2419:	e8 c2 30 00 00       	call   54e0 <log_msg@plt>
    241e:	58                   	pop    %eax
    241f:	8b 85 54 ff ff ff    	mov    -0xac(%ebp),%eax
    2425:	8a 5d d5             	mov    -0x2b(%ebp),%bl
    2428:	50                   	push   %eax
    2429:	e8 72 32 00 00       	call   56a0 <fibril_mutex_lock@plt>
    242e:	83 c4 10             	add    $0x10,%esp
    2431:	84 db                	test   %bl,%bl
    2433:	0f 84 33 0a 00 00    	je     2e6c <rfb_new_conn+0x14ec>
    2439:	80 7f 38 00          	cmpb   $0x0,0x38(%edi)
    243d:	0f 84 29 0a 00 00    	je     2e6c <rfb_new_conn+0x14ec>
    2443:	66 8b 77 30          	mov    0x30(%edi),%si
    2447:	66 8b 5f 32          	mov    0x32(%edi),%bx
    244b:	8a 47 04             	mov    0x4(%edi),%al
    244e:	31 c9                	xor    %ecx,%ecx
    2450:	c0 e8 03             	shr    $0x3,%al
    2453:	66 89 d9             	mov    %bx,%cx
    2456:	88 c2                	mov    %al,%dl
    2458:	31 c0                	xor    %eax,%eax
    245a:	88 d0                	mov    %dl,%al
    245c:	31 d2                	xor    %edx,%edx
    245e:	66 89 f2             	mov    %si,%dx
    2461:	83 ec 0c             	sub    $0xc,%esp
    2464:	0f af ca             	imul   %edx,%ecx
    2467:	0f af c1             	imul   %ecx,%eax
    246a:	83 c0 10             	add    $0x10,%eax
    246d:	50                   	push   %eax
    246e:	89 85 50 ff ff ff    	mov    %eax,-0xb0(%ebp)
    2474:	e8 f7 2f 00 00       	call   5470 <malloc@plt>
    2479:	83 c4 10             	add    $0x10,%esp
    247c:	89 85 7c ff ff ff    	mov    %eax,-0x84(%ebp)
    2482:	85 c0                	test   %eax,%eax
    2484:	0f 84 7c 09 00 00    	je     2e06 <rfb_new_conn+0x1486>
    248a:	89 c6                	mov    %eax,%esi
    248c:	50                   	push   %eax
    248d:	8b 85 50 ff ff ff    	mov    -0xb0(%ebp),%eax
    2493:	50                   	push   %eax
    2494:	6a 00                	push   $0x0
    2496:	56                   	push   %esi
    2497:	e8 24 31 00 00       	call   55c0 <memset@plt>
    249c:	89 f0                	mov    %esi,%eax
    249e:	c6 06 00             	movb   $0x0,(%esi)
    24a1:	83 c0 10             	add    $0x10,%eax
    24a4:	83 c4 10             	add    $0x10,%esp
    24a7:	89 45 84             	mov    %eax,-0x7c(%ebp)
    24aa:	8b 47 2c             	mov    0x2c(%edi),%eax
    24ad:	89 46 04             	mov    %eax,0x4(%esi)
    24b0:	66 c7 46 02 00 01    	movw   $0x100,0x2(%esi)
    24b6:	8b 47 30             	mov    0x30(%edi),%eax
    24b9:	89 46 08             	mov    %eax,0x8(%esi)
    24bc:	8b 47 34             	mov    0x34(%edi),%eax
    24bf:	89 46 0c             	mov    %eax,0xc(%esi)
    24c2:	80 7f 54 00          	cmpb   $0x0,0x54(%edi)
    24c6:	0f 84 08 0a 00 00    	je     2ed4 <rfb_new_conn+0x1554>
    24cc:	c7 46 0c 0f 00 00 00 	movl   $0xf,0xc(%esi)
    24d3:	c7 45 9c 00 00 00 00 	movl   $0x0,-0x64(%ebp)
    24da:	8a 47 04             	mov    0x4(%edi),%al
    24dd:	c0 e8 03             	shr    $0x3,%al
    24e0:	89 c6                	mov    %eax,%esi
    24e2:	81 e6 ff 00 00 00    	and    $0xff,%esi
    24e8:	89 75 94             	mov    %esi,-0x6c(%ebp)
    24eb:	80 7f 04 20          	cmpb   $0x20,0x4(%edi)
    24ef:	0f 84 33 12 00 00    	je     3728 <rfb_new_conn+0x1da8>
    24f5:	8b 85 7c ff ff ff    	mov    -0x84(%ebp),%eax
    24fb:	66 8b 70 0a          	mov    0xa(%eax),%si
    24ff:	66 8b 40 08          	mov    0x8(%eax),%ax
    2503:	66 85 f6             	test   %si,%si
    2506:	66 89 b5 74 ff ff ff 	mov    %si,-0x8c(%ebp)
    250d:	0f 84 83 16 00 00    	je     3b96 <rfb_new_conn+0x2216>
    2513:	66 89 85 76 ff ff ff 	mov    %ax,-0x8a(%ebp)
    251a:	66 c7 85 66 ff ff ff 	movw   $0x0,-0x9a(%ebp)
    2521:	00 00 
    2523:	66 83 bd 76 ff ff ff 	cmpw   $0x0,-0x8a(%ebp)
    252a:	00 
    252b:	0f 84 75 09 00 00    	je     2ea6 <rfb_new_conn+0x1526>
    2531:	66 8b 85 66 ff ff ff 	mov    -0x9a(%ebp),%ax
    2538:	66 c7 45 90 00 00    	movw   $0x0,-0x70(%ebp)
    253e:	25 ff ff 00 00       	and    $0xffff,%eax
    2543:	89 fe                	mov    %edi,%esi
    2545:	89 85 60 ff ff ff    	mov    %eax,-0xa0(%ebp)
    254b:	83 c0 0f             	add    $0xf,%eax
    254e:	89 85 5c ff ff ff    	mov    %eax,-0xa4(%ebp)
    2554:	8d 74 26 00          	lea    0x0(%esi,%eiz,1),%esi
    2558:	8b 5d 90             	mov    -0x70(%ebp),%ebx
    255b:	66 8b bd 76 ff ff ff 	mov    -0x8a(%ebp),%di
    2562:	89 d8                	mov    %ebx,%eax
    2564:	ba 10 00 00 00       	mov    $0x10,%edx
    2569:	25 ff ff 00 00       	and    $0xffff,%eax
    256e:	89 45 80             	mov    %eax,-0x80(%ebp)
    2571:	8d 48 0f             	lea    0xf(%eax),%ecx
    2574:	31 c0                	xor    %eax,%eax
    2576:	66 89 f8             	mov    %di,%ax
    2579:	39 c1                	cmp    %eax,%ecx
    257b:	7c 06                	jl     2583 <rfb_new_conn+0xc03>
    257d:	89 fa                	mov    %edi,%edx
    257f:	89 d8                	mov    %ebx,%eax
    2581:	29 c2                	sub    %eax,%edx
    2583:	8b 9d 74 ff ff ff    	mov    -0x8c(%ebp),%ebx
    2589:	89 d8                	mov    %ebx,%eax
    258b:	25 ff ff 00 00       	and    $0xffff,%eax
    2590:	89 c7                	mov    %eax,%edi
    2592:	89 85 68 ff ff ff    	mov    %eax,-0x98(%ebp)
    2598:	3b bd 5c ff ff ff    	cmp    -0xa4(%ebp),%edi
    259e:	b8 10 00 00 00       	mov    $0x10,%eax
    25a3:	7f 09                	jg     25ae <rfb_new_conn+0xc2e>
    25a5:	89 d8                	mov    %ebx,%eax
    25a7:	66 2b 85 66 ff ff ff 	sub    -0x9a(%ebp),%ax
    25ae:	89 c7                	mov    %eax,%edi
    25b0:	8b 45 84             	mov    -0x7c(%ebp),%eax
    25b3:	81 e7 ff ff 00 00    	and    $0xffff,%edi
    25b9:	85 c0                	test   %eax,%eax
    25bb:	89 bd 6c ff ff ff    	mov    %edi,-0x94(%ebp)
    25c1:	0f 84 32 06 00 00    	je     2bf9 <rfb_new_conn+0x1279>
    25c7:	40                   	inc    %eax
    25c8:	89 85 70 ff ff ff    	mov    %eax,-0x90(%ebp)
    25ce:	31 c0                	xor    %eax,%eax
    25d0:	8b 7e 20             	mov    0x20(%esi),%edi
    25d3:	66 8b 45 90          	mov    -0x70(%ebp),%ax
    25d7:	c7 45 a0 00 00 00 00 	movl   $0x0,-0x60(%ebp)
    25de:	39 f8                	cmp    %edi,%eax
    25e0:	73 21                	jae    2603 <rfb_new_conn+0xc83>
    25e2:	8b 9d 60 ff ff ff    	mov    -0xa0(%ebp),%ebx
    25e8:	39 5e 24             	cmp    %ebx,0x24(%esi)
    25eb:	76 16                	jbe    2603 <rfb_new_conn+0xc83>
    25ed:	89 d9                	mov    %ebx,%ecx
    25ef:	0f af cf             	imul   %edi,%ecx
    25f2:	01 c8                	add    %ecx,%eax
    25f4:	8b 4e 28             	mov    0x28(%esi),%ecx
    25f7:	8d 04 81             	lea    (%ecx,%eax,4),%eax
    25fa:	85 c0                	test   %eax,%eax
    25fc:	74 05                	je     2603 <rfb_new_conn+0xc83>
    25fe:	8b 00                	mov    (%eax),%eax
    2600:	89 45 a0             	mov    %eax,-0x60(%ebp)
    2603:	8b 8d 60 ff ff ff    	mov    -0xa0(%ebp),%ecx
    2609:	8b 85 6c ff ff ff    	mov    -0x94(%ebp),%eax
    260f:	01 c8                	add    %ecx,%eax
    2611:	89 c3                	mov    %eax,%ebx
    2613:	89 85 78 ff ff ff    	mov    %eax,-0x88(%ebp)
    2619:	39 cb                	cmp    %ecx,%ebx
    261b:	0f 8e a1 03 00 00    	jle    29c2 <rfb_new_conn+0x1042>
    2621:	89 d0                	mov    %edx,%eax
    2623:	8b 5d 80             	mov    -0x80(%ebp),%ebx
    2626:	25 ff ff 00 00       	and    $0xffff,%eax
    262b:	01 c3                	add    %eax,%ebx
    262d:	89 85 58 ff ff ff    	mov    %eax,-0xa8(%ebp)
    2633:	66 8b 85 66 ff ff ff 	mov    -0x9a(%ebp),%ax
    263a:	89 5d a4             	mov    %ebx,-0x5c(%ebp)
    263d:	66 89 45 88          	mov    %ax,-0x78(%ebp)
    2641:	8b 5d a4             	mov    -0x5c(%ebp),%ebx
    2644:	39 5d 80             	cmp    %ebx,-0x80(%ebp)
    2647:	0f 8d 5b 03 00 00    	jge    29a8 <rfb_new_conn+0x1028>
    264d:	31 db                	xor    %ebx,%ebx
    264f:	89 f8                	mov    %edi,%eax
    2651:	66 8b 5d 88          	mov    -0x78(%ebp),%bx
    2655:	0f af c3             	imul   %ebx,%eax
    2658:	89 5d 98             	mov    %ebx,-0x68(%ebp)
    265b:	89 45 8c             	mov    %eax,-0x74(%ebp)
    265e:	8b 45 90             	mov    -0x70(%ebp),%eax
    2661:	eb 14                	jmp    2677 <rfb_new_conn+0xcf7>
    2663:	90                   	nop
    2664:	8d 74 26 00          	lea    0x0(%esi,%eiz,1),%esi
    2668:	40                   	inc    %eax
    2669:	31 d2                	xor    %edx,%edx
    266b:	66 89 c2             	mov    %ax,%dx
    266e:	3b 55 a4             	cmp    -0x5c(%ebp),%edx
    2671:	0f 8d 31 03 00 00    	jge    29a8 <rfb_new_conn+0x1028>
    2677:	31 c9                	xor    %ecx,%ecx
    2679:	31 d2                	xor    %edx,%edx
    267b:	66 89 c1             	mov    %ax,%cx
    267e:	39 cf                	cmp    %ecx,%edi
    2680:	76 19                	jbe    269b <rfb_new_conn+0xd1b>
    2682:	8b 5d 98             	mov    -0x68(%ebp),%ebx
    2685:	39 5e 24             	cmp    %ebx,0x24(%esi)
    2688:	76 11                	jbe    269b <rfb_new_conn+0xd1b>
    268a:	8b 5d 8c             	mov    -0x74(%ebp),%ebx
    268d:	01 d9                	add    %ebx,%ecx
    268f:	8b 5e 28             	mov    0x28(%esi),%ebx
    2692:	8d 0c 8b             	lea    (%ebx,%ecx,4),%ecx
    2695:	85 c9                	test   %ecx,%ecx
    2697:	74 02                	je     269b <rfb_new_conn+0xd1b>
    2699:	8b 11                	mov    (%ecx),%edx
    269b:	39 55 a0             	cmp    %edx,-0x60(%ebp)
    269e:	74 c8                	je     2668 <rfb_new_conn+0xce8>
    26a0:	8b 95 6c ff ff ff    	mov    -0x94(%ebp),%edx
    26a6:	8b 8d 58 ff ff ff    	mov    -0xa8(%ebp),%ecx
    26ac:	0f af d1             	imul   %ecx,%edx
    26af:	8b 5d 94             	mov    -0x6c(%ebp),%ebx
    26b2:	8b 85 70 ff ff ff    	mov    -0x90(%ebp),%eax
    26b8:	0f af d3             	imul   %ebx,%edx
    26bb:	85 c0                	test   %eax,%eax
    26bd:	89 55 88             	mov    %edx,-0x78(%ebp)
    26c0:	0f 84 a4 05 00 00    	je     2c6a <rfb_new_conn+0x12ea>
    26c6:	8b 9d 60 ff ff ff    	mov    -0xa0(%ebp),%ebx
    26cc:	39 9d 78 ff ff ff    	cmp    %ebx,-0x88(%ebp)
    26d2:	0f 8e 30 05 00 00    	jle    2c08 <rfb_new_conn+0x1288>
    26d8:	8b 5d a4             	mov    -0x5c(%ebp),%ebx
    26db:	39 5d 80             	cmp    %ebx,-0x80(%ebp)
    26de:	0f 8d 24 05 00 00    	jge    2c08 <rfb_new_conn+0x1288>
    26e4:	66 8b 85 66 ff ff ff 	mov    -0x9a(%ebp),%ax
    26eb:	66 89 45 8c          	mov    %ax,-0x74(%ebp)
    26ef:	89 f8                	mov    %edi,%eax
    26f1:	8b bd 70 ff ff ff    	mov    -0x90(%ebp),%edi
    26f7:	90                   	nop
    26f8:	8b 5d 8c             	mov    -0x74(%ebp),%ebx
    26fb:	89 7d a0             	mov    %edi,-0x60(%ebp)
    26fe:	81 e3 ff ff 00 00    	and    $0xffff,%ebx
    2704:	89 5d 98             	mov    %ebx,-0x68(%ebp)
    2707:	8b 5d 90             	mov    -0x70(%ebp),%ebx
    270a:	eb 27                	jmp    2733 <rfb_new_conn+0xdb3>
    270c:	8d 74 26 00          	lea    0x0(%esi,%eiz,1),%esi
    2710:	50                   	push   %eax
    2711:	8b 45 94             	mov    -0x6c(%ebp),%eax
    2714:	50                   	push   %eax
    2715:	8d 45 c5             	lea    -0x3b(%ebp),%eax
    2718:	50                   	push   %eax
    2719:	8b 45 a0             	mov    -0x60(%ebp),%eax
    271c:	50                   	push   %eax
    271d:	43                   	inc    %ebx
    271e:	e8 2d 2d 00 00       	call   5450 <memcpy@plt>
    2723:	31 c0                	xor    %eax,%eax
    2725:	66 89 d8             	mov    %bx,%ax
    2728:	83 c4 10             	add    $0x10,%esp
    272b:	3b 45 a4             	cmp    -0x5c(%ebp),%eax
    272e:	7d 57                	jge    2787 <rfb_new_conn+0xe07>
    2730:	8b 46 20             	mov    0x20(%esi),%eax
    2733:	31 d2                	xor    %edx,%edx
    2735:	31 c9                	xor    %ecx,%ecx
    2737:	66 89 da             	mov    %bx,%dx
    273a:	39 c2                	cmp    %eax,%edx
    273c:	73 19                	jae    2757 <rfb_new_conn+0xdd7>
    273e:	8b 7d 98             	mov    -0x68(%ebp),%edi
    2741:	39 7e 24             	cmp    %edi,0x24(%esi)
    2744:	76 11                	jbe    2757 <rfb_new_conn+0xdd7>
    2746:	0f af c7             	imul   %edi,%eax
    2749:	01 d0                	add    %edx,%eax
    274b:	8b 56 28             	mov    0x28(%esi),%edx
    274e:	8d 04 82             	lea    (%edx,%eax,4),%eax
    2751:	85 c0                	test   %eax,%eax
    2753:	74 02                	je     2757 <rfb_new_conn+0xdd7>
    2755:	8b 08                	mov    (%eax),%ecx
    2757:	8d 55 c4             	lea    -0x3c(%ebp),%edx
    275a:	89 f0                	mov    %esi,%eax
    275c:	e8 3f f1 ff ff       	call   18a0 <rfb_encode_pixel>
    2761:	83 7d 9c 01          	cmpl   $0x1,-0x64(%ebp)
    2765:	74 a9                	je     2710 <rfb_new_conn+0xd90>
    2767:	50                   	push   %eax
    2768:	8b 45 94             	mov    -0x6c(%ebp),%eax
    276b:	50                   	push   %eax
    276c:	8d 45 c4             	lea    -0x3c(%ebp),%eax
    276f:	50                   	push   %eax
    2770:	8b 45 a0             	mov    -0x60(%ebp),%eax
    2773:	50                   	push   %eax
    2774:	43                   	inc    %ebx
    2775:	e8 d6 2c 00 00       	call   5450 <memcpy@plt>
    277a:	31 c0                	xor    %eax,%eax
    277c:	66 89 d8             	mov    %bx,%ax
    277f:	83 c4 10             	add    $0x10,%esp
    2782:	3b 45 a4             	cmp    -0x5c(%ebp),%eax
    2785:	7c a9                	jl     2730 <rfb_new_conn+0xdb0>
    2787:	66 ff 45 8c          	incw   -0x74(%ebp)
    278b:	8b 7d a0             	mov    -0x60(%ebp),%edi
    278e:	8b 45 8c             	mov    -0x74(%ebp),%eax
    2791:	89 c3                	mov    %eax,%ebx
    2793:	31 c0                	xor    %eax,%eax
    2795:	66 89 d8             	mov    %bx,%ax
    2798:	3b 85 78 ff ff ff    	cmp    -0x88(%ebp),%eax
    279e:	0f 8d 64 04 00 00    	jge    2c08 <rfb_new_conn+0x1288>
    27a4:	8b 46 20             	mov    0x20(%esi),%eax
    27a7:	e9 4c ff ff ff       	jmp    26f8 <rfb_new_conn+0xd78>
    27ac:	50                   	push   %eax
    27ad:	8d 45 b4             	lea    -0x4c(%ebp),%eax
    27b0:	6a 01                	push   $0x1
    27b2:	50                   	push   %eax
    27b3:	8d 45 d4             	lea    -0x2c(%ebp),%eax
    27b6:	c6 45 b4 00          	movb   $0x0,-0x4c(%ebp)
    27ba:	50                   	push   %eax
    27bb:	8d 5d d5             	lea    -0x2b(%ebp),%ebx
    27be:	e8 8d 2c 00 00       	call   5450 <memcpy@plt>
    27c3:	8b 15 84 71 00 00    	mov    0x7184,%edx
    27c9:	8b 0d 80 71 00 00    	mov    0x7180,%ecx
    27cf:	83 c4 10             	add    $0x10,%esp
    27d2:	eb 1d                	jmp    27f1 <rfb_new_conn+0xe71>
    27d4:	8d 50 01             	lea    0x1(%eax),%edx
    27d7:	8a 80 a0 71 00 00    	mov    0x71a0(%eax),%al
    27dd:	88 03                	mov    %al,(%ebx)
    27df:	43                   	inc    %ebx
    27e0:	8d 45 e8             	lea    -0x18(%ebp),%eax
    27e3:	89 15 84 71 00 00    	mov    %edx,0x7184
    27e9:	39 c3                	cmp    %eax,%ebx
    27eb:	0f 84 a3 05 00 00    	je     2d94 <rfb_new_conn+0x1414>
    27f1:	89 d0                	mov    %edx,%eax
    27f3:	39 ca                	cmp    %ecx,%edx
    27f5:	75 dd                	jne    27d4 <rfb_new_conn+0xe54>
    27f7:	8d 45 c4             	lea    -0x3c(%ebp),%eax
    27fa:	c7 05 84 71 00 00 00 	movl   $0x0,0x7184
    2801:	00 00 00 
    2804:	50                   	push   %eax
    2805:	8b 45 0c             	mov    0xc(%ebp),%eax
    2808:	68 00 04 00 00       	push   $0x400
    280d:	c7 05 80 71 00 00 00 	movl   $0x0,0x7180
    2814:	00 00 00 
    2817:	68 a0 71 00 00       	push   $0x71a0
    281c:	50                   	push   %eax
    281d:	e8 5e 2e 00 00       	call   5680 <tcp_conn_recv_wait@plt>
    2822:	83 c4 10             	add    $0x10,%esp
    2825:	85 c0                	test   %eax,%eax
    2827:	0f 85 67 05 00 00    	jne    2d94 <rfb_new_conn+0x1414>
    282d:	8b 4d c4             	mov    -0x3c(%ebp),%ecx
    2830:	a1 84 71 00 00       	mov    0x7184,%eax
    2835:	89 0d 80 71 00 00    	mov    %ecx,0x7180
    283b:	eb 97                	jmp    27d4 <rfb_new_conn+0xe54>
    283d:	50                   	push   %eax
    283e:	8d 45 b5             	lea    -0x4b(%ebp),%eax
    2841:	6a 01                	push   $0x1
    2843:	50                   	push   %eax
    2844:	8d 45 d4             	lea    -0x2c(%ebp),%eax
    2847:	c6 45 b5 02          	movb   $0x2,-0x4b(%ebp)
    284b:	50                   	push   %eax
    284c:	e8 ff 2b 00 00       	call   5450 <memcpy@plt>
    2851:	8b 15 84 71 00 00    	mov    0x7184,%edx
    2857:	a1 80 71 00 00       	mov    0x7180,%eax
    285c:	83 c4 10             	add    $0x10,%esp
    285f:	39 c2                	cmp    %eax,%edx
    2861:	0f 84 61 10 00 00    	je     38c8 <rfb_new_conn+0x1f48>
    2867:	8d 4a 01             	lea    0x1(%edx),%ecx
    286a:	8a 9a a0 71 00 00    	mov    0x71a0(%edx),%bl
    2870:	88 5d d5             	mov    %bl,-0x2b(%ebp)
    2873:	39 c1                	cmp    %eax,%ecx
    2875:	0f 84 fd 0f 00 00    	je     3878 <rfb_new_conn+0x1ef8>
    287b:	8d 51 01             	lea    0x1(%ecx),%edx
    287e:	8a 99 a0 71 00 00    	mov    0x71a0(%ecx),%bl
    2884:	88 5d d6             	mov    %bl,-0x2a(%ebp)
    2887:	39 c2                	cmp    %eax,%edx
    2889:	0f 84 69 0c 00 00    	je     34f8 <rfb_new_conn+0x1b78>
    288f:	8d 42 01             	lea    0x1(%edx),%eax
    2892:	a3 84 71 00 00       	mov    %eax,0x7184
    2897:	8a 82 a0 71 00 00    	mov    0x71a0(%edx),%al
    289d:	88 45 d7             	mov    %al,-0x29(%ebp)
    28a0:	52                   	push   %edx
    28a1:	68 83 4d 00 00       	push   $0x4d83
    28a6:	6a 05                	push   $0x5
    28a8:	6a ff                	push   $0xffffffff
    28aa:	66 c1 45 d6 08       	rolw   $0x8,-0x2a(%ebp)
    28af:	e8 2c 2c 00 00       	call   54e0 <log_msg@plt>
    28b4:	83 c4 10             	add    $0x10,%esp
    28b7:	66 83 7d d6 00       	cmpw   $0x0,-0x2a(%ebp)
    28bc:	0f 84 c1 05 00 00    	je     2e83 <rfb_new_conn+0x1503>
    28c2:	8b 0d 80 71 00 00    	mov    0x7180,%ecx
    28c8:	a1 84 71 00 00       	mov    0x7184,%eax
    28cd:	31 db                	xor    %ebx,%ebx
    28cf:	8b 75 0c             	mov    0xc(%ebp),%esi
    28d2:	eb 69                	jmp    293d <rfb_new_conn+0xfbd>
    28d4:	8d 50 01             	lea    0x1(%eax),%edx
    28d7:	8a 80 a0 71 00 00    	mov    0x71a0(%eax),%al
    28dd:	88 45 c0             	mov    %al,-0x40(%ebp)
    28e0:	39 ca                	cmp    %ecx,%edx
    28e2:	0f 84 bb 03 00 00    	je     2ca3 <rfb_new_conn+0x1323>
    28e8:	8d 42 01             	lea    0x1(%edx),%eax
    28eb:	8a 92 a0 71 00 00    	mov    0x71a0(%edx),%dl
    28f1:	88 55 c1             	mov    %dl,-0x3f(%ebp)
    28f4:	39 c8                	cmp    %ecx,%eax
    28f6:	0f 84 52 04 00 00    	je     2d4e <rfb_new_conn+0x13ce>
    28fc:	8d 50 01             	lea    0x1(%eax),%edx
    28ff:	8a 80 a0 71 00 00    	mov    0x71a0(%eax),%al
    2905:	88 45 c2             	mov    %al,-0x3e(%ebp)
    2908:	39 ca                	cmp    %ecx,%edx
    290a:	0f 84 f7 03 00 00    	je     2d07 <rfb_new_conn+0x1387>
    2910:	8d 42 01             	lea    0x1(%edx),%eax
    2913:	8a 92 a0 71 00 00    	mov    0x71a0(%edx),%dl
    2919:	88 55 c3             	mov    %dl,-0x3d(%ebp)
    291c:	a3 84 71 00 00       	mov    %eax,0x7184
    2921:	8b 55 c0             	mov    -0x40(%ebp),%edx
    2924:	0f ca                	bswap  %edx
    2926:	89 55 c0             	mov    %edx,-0x40(%ebp)
    2929:	83 fa 0f             	cmp    $0xf,%edx
    292c:	0f 84 4b 03 00 00    	je     2c7d <rfb_new_conn+0x12fd>
    2932:	43                   	inc    %ebx
    2933:	66 3b 5d d6          	cmp    -0x2a(%ebp),%bx
    2937:	0f 83 f4 f6 ff ff    	jae    2031 <rfb_new_conn+0x6b1>
    293d:	c7 45 c0 00 00 00 00 	movl   $0x0,-0x40(%ebp)
    2944:	39 c1                	cmp    %eax,%ecx
    2946:	75 8c                	jne    28d4 <rfb_new_conn+0xf54>
    2948:	8d 45 c4             	lea    -0x3c(%ebp),%eax
    294b:	c7 05 84 71 00 00 00 	movl   $0x0,0x7184
    2952:	00 00 00 
    2955:	50                   	push   %eax
    2956:	c7 05 80 71 00 00 00 	movl   $0x0,0x7180
    295d:	00 00 00 
    2960:	68 00 04 00 00       	push   $0x400
    2965:	68 a0 71 00 00       	push   $0x71a0
    296a:	56                   	push   %esi
    296b:	e8 10 2d 00 00       	call   5680 <tcp_conn_recv_wait@plt>
    2970:	83 c4 10             	add    $0x10,%esp
    2973:	85 c0                	test   %eax,%eax
    2975:	0f 85 ef f1 ff ff    	jne    1b6a <rfb_new_conn+0x1ea>
    297b:	8b 4d c4             	mov    -0x3c(%ebp),%ecx
    297e:	a1 84 71 00 00       	mov    0x7184,%eax
    2983:	89 0d 80 71 00 00    	mov    %ecx,0x7180
    2989:	e9 46 ff ff ff       	jmp    28d4 <rfb_new_conn+0xf54>
    298e:	50                   	push   %eax
    298f:	68 e8 4f 00 00       	push   $0x4fe8
    2994:	6a 02                	push   $0x2
    2996:	6a ff                	push   $0xffffffff
    2998:	e8 43 2b 00 00       	call   54e0 <log_msg@plt>
    299d:	83 c4 10             	add    $0x10,%esp
    29a0:	e9 c5 f1 ff ff       	jmp    1b6a <rfb_new_conn+0x1ea>
    29a5:	8d 76 00             	lea    0x0(%esi),%esi
    29a8:	66 ff 45 88          	incw   -0x78(%ebp)
    29ac:	8b 45 88             	mov    -0x78(%ebp),%eax
    29af:	89 c3                	mov    %eax,%ebx
    29b1:	31 c0                	xor    %eax,%eax
    29b3:	66 89 d8             	mov    %bx,%ax
    29b6:	3b 85 78 ff ff ff    	cmp    -0x88(%ebp),%eax
    29bc:	0f 8c 7f fc ff ff    	jl     2641 <rfb_new_conn+0xcc1>
    29c2:	8b 85 70 ff ff ff    	mov    -0x90(%ebp),%eax
    29c8:	85 c0                	test   %eax,%eax
    29ca:	0f 84 9a 02 00 00    	je     2c6a <rfb_new_conn+0x12ea>
    29d0:	8b 4d a0             	mov    -0x60(%ebp),%ecx
    29d3:	8d 55 c4             	lea    -0x3c(%ebp),%edx
    29d6:	89 f0                	mov    %esi,%eax
    29d8:	e8 c3 ee ff ff       	call   18a0 <rfb_encode_pixel>
    29dd:	83 7d 9c 01          	cmpl   $0x1,-0x64(%ebp)
    29e1:	0f 85 03 03 00 00    	jne    2cea <rfb_new_conn+0x136a>
    29e7:	50                   	push   %eax
    29e8:	8b 45 94             	mov    -0x6c(%ebp),%eax
    29eb:	50                   	push   %eax
    29ec:	8d 45 c5             	lea    -0x3b(%ebp),%eax
    29ef:	50                   	push   %eax
    29f0:	8b 85 70 ff ff ff    	mov    -0x90(%ebp),%eax
    29f6:	50                   	push   %eax
    29f7:	e8 54 2a 00 00       	call   5450 <memcpy@plt>
    29fc:	83 c4 10             	add    $0x10,%esp
    29ff:	8b 45 94             	mov    -0x6c(%ebp),%eax
    2a02:	89 45 88             	mov    %eax,-0x78(%ebp)
    2a05:	b0 01                	mov    $0x1,%al
    2a07:	8b 7d 84             	mov    -0x7c(%ebp),%edi
    2a0a:	88 07                	mov    %al,(%edi)
    2a0c:	8b 7d 88             	mov    -0x78(%ebp),%edi
    2a0f:	8b 85 70 ff ff ff    	mov    -0x90(%ebp),%eax
    2a15:	01 f8                	add    %edi,%eax
    2a17:	8b bd 7c ff ff ff    	mov    -0x84(%ebp),%edi
    2a1d:	89 45 84             	mov    %eax,-0x7c(%ebp)
    2a20:	66 8b 47 0a          	mov    0xa(%edi),%ax
    2a24:	66 89 85 74 ff ff ff 	mov    %ax,-0x8c(%ebp)
    2a2b:	25 ff ff 00 00       	and    $0xffff,%eax
    2a30:	89 85 68 ff ff ff    	mov    %eax,-0x98(%ebp)
    2a36:	66 8b 47 08          	mov    0x8(%edi),%ax
    2a3a:	66 89 85 76 ff ff ff 	mov    %ax,-0x8a(%ebp)
    2a41:	89 c3                	mov    %eax,%ebx
    2a43:	66 83 45 90 10       	addw   $0x10,-0x70(%ebp)
    2a48:	8b 7d 90             	mov    -0x70(%ebp),%edi
    2a4b:	89 d8                	mov    %ebx,%eax
    2a4d:	66 39 fb             	cmp    %di,%bx
    2a50:	0f 87 02 fb ff ff    	ja     2558 <rfb_new_conn+0xbd8>
    2a56:	89 f7                	mov    %esi,%edi
    2a58:	66 83 85 66 ff ff ff 	addw   $0x10,-0x9a(%ebp)
    2a5f:	10 
    2a60:	66 8b b5 66 ff ff ff 	mov    -0x9a(%ebp),%si
    2a67:	66 3b b5 74 ff ff ff 	cmp    -0x8c(%ebp),%si
    2a6e:	0f 82 af fa ff ff    	jb     2523 <rfb_new_conn+0xba3>
    2a74:	8b b5 7c ff ff ff    	mov    -0x84(%ebp),%esi
    2a7a:	8b 56 0c             	mov    0xc(%esi),%edx
    2a7d:	0f ca                	bswap  %edx
    2a7f:	66 c1 c0 08          	rol    $0x8,%ax
    2a83:	66 89 46 08          	mov    %ax,0x8(%esi)
    2a87:	8b 8d 74 ff ff ff    	mov    -0x8c(%ebp),%ecx
    2a8d:	8b 85 68 ff ff ff    	mov    -0x98(%ebp),%eax
    2a93:	89 56 0c             	mov    %edx,0xc(%esi)
    2a96:	66 c1 46 04 08       	rolw   $0x8,0x4(%esi)
    2a9b:	66 c1 46 06 08       	rolw   $0x8,0x6(%esi)
    2aa0:	c1 e0 08             	shl    $0x8,%eax
    2aa3:	66 c1 e9 08          	shr    $0x8,%cx
    2aa7:	09 c8                	or     %ecx,%eax
    2aa9:	66 89 46 0a          	mov    %ax,0xa(%esi)
    2aad:	c6 47 38 00          	movb   $0x0,0x38(%edi)
    2ab1:	80 7f 07 00          	cmpb   $0x0,0x7(%edi)
    2ab5:	0f 85 d8 03 00 00    	jne    2e93 <rfb_new_conn+0x1513>
    2abb:	8b 47 50             	mov    0x50(%edi),%eax
    2abe:	83 ec 0c             	sub    $0xc,%esp
    2ac1:	8d 44 40 03          	lea    0x3(%eax,%eax,2),%eax
    2ac5:	01 c0                	add    %eax,%eax
    2ac7:	50                   	push   %eax
    2ac8:	89 45 98             	mov    %eax,-0x68(%ebp)
    2acb:	e8 a0 29 00 00       	call   5470 <malloc@plt>
    2ad0:	83 c4 10             	add    $0x10,%esp
    2ad3:	89 c3                	mov    %eax,%ebx
    2ad5:	89 45 9c             	mov    %eax,-0x64(%ebp)
    2ad8:	85 c0                	test   %eax,%eax
    2ada:	0f 84 d0 10 00 00    	je     3bb0 <rfb_new_conn+0x2230>
    2ae0:	c6 00 01             	movb   $0x1,(%eax)
    2ae3:	66 c7 40 02 00 00    	movw   $0x0,0x2(%eax)
    2ae9:	8b 47 50             	mov    0x50(%edi),%eax
    2aec:	89 c2                	mov    %eax,%edx
    2aee:	66 c1 c2 08          	rol    $0x8,%dx
    2af2:	66 89 53 04          	mov    %dx,0x4(%ebx)
    2af6:	85 c0                	test   %eax,%eax
    2af8:	0f 84 93 00 00 00    	je     2b91 <rfb_new_conn+0x1211>
    2afe:	8b 77 4c             	mov    0x4c(%edi),%esi
    2b01:	83 c3 06             	add    $0x6,%ebx
    2b04:	89 5d a4             	mov    %ebx,-0x5c(%ebp)
    2b07:	89 7d 90             	mov    %edi,-0x70(%ebp)
    2b0a:	8d 04 86             	lea    (%esi,%eax,4),%eax
    2b0d:	89 45 94             	mov    %eax,-0x6c(%ebp)
    2b10:	8b 06                	mov    (%esi),%eax
    2b12:	83 c6 04             	add    $0x4,%esi
    2b15:	89 c1                	mov    %eax,%ecx
    2b17:	c1 e8 10             	shr    $0x10,%eax
    2b1a:	89 4d a0             	mov    %ecx,-0x60(%ebp)
    2b1d:	89 c7                	mov    %eax,%edi
    2b1f:	b8 81 80 80 80       	mov    $0x80808081,%eax
    2b24:	81 e7 ff 00 00 00    	and    $0xff,%edi
    2b2a:	89 fa                	mov    %edi,%edx
    2b2c:	c1 e2 10             	shl    $0x10,%edx
    2b2f:	29 fa                	sub    %edi,%edx
    2b31:	f7 e2                	mul    %edx
    2b33:	0f b6 c5             	movzbl %ch,%eax
    2b36:	89 d3                	mov    %edx,%ebx
    2b38:	89 c2                	mov    %eax,%edx
    2b3a:	c1 e2 10             	shl    $0x10,%edx
    2b3d:	29 c2                	sub    %eax,%edx
    2b3f:	b8 81 80 80 80       	mov    $0x80808081,%eax
    2b44:	f7 e2                	mul    %edx
    2b46:	0f b6 7d a0          	movzbl -0x60(%ebp),%edi
    2b4a:	c1 ea 07             	shr    $0x7,%edx
    2b4d:	81 e7 ff 00 00 00    	and    $0xff,%edi
    2b53:	89 d1                	mov    %edx,%ecx
    2b55:	89 fa                	mov    %edi,%edx
    2b57:	c1 e2 10             	shl    $0x10,%edx
    2b5a:	b8 81 80 80 80       	mov    $0x80808081,%eax
    2b5f:	c1 eb 07             	shr    $0x7,%ebx
    2b62:	29 fa                	sub    %edi,%edx
    2b64:	f7 e2                	mul    %edx
    2b66:	c1 ea 07             	shr    $0x7,%edx
    2b69:	8b 45 a4             	mov    -0x5c(%ebp),%eax
    2b6c:	66 c1 c3 08          	rol    $0x8,%bx
    2b70:	66 c1 c1 08          	rol    $0x8,%cx
    2b74:	66 c1 c2 08          	rol    $0x8,%dx
    2b78:	66 89 18             	mov    %bx,(%eax)
    2b7b:	66 89 48 02          	mov    %cx,0x2(%eax)
    2b7f:	66 89 50 04          	mov    %dx,0x4(%eax)
    2b83:	83 c0 06             	add    $0x6,%eax
    2b86:	89 45 a4             	mov    %eax,-0x5c(%ebp)
    2b89:	3b 75 94             	cmp    -0x6c(%ebp),%esi
    2b8c:	75 82                	jne    2b10 <rfb_new_conn+0x1190>
    2b8e:	8b 7d 90             	mov    -0x70(%ebp),%edi
    2b91:	83 ec 0c             	sub    $0xc,%esp
    2b94:	8b 85 54 ff ff ff    	mov    -0xac(%ebp),%eax
    2b9a:	50                   	push   %eax
    2b9b:	e8 a0 29 00 00       	call   5540 <fibril_mutex_unlock@plt>
    2ba0:	83 c4 10             	add    $0x10,%esp
    2ba3:	80 7f 07 00          	cmpb   $0x0,0x7(%edi)
    2ba7:	75 1d                	jne    2bc6 <rfb_new_conn+0x1246>
    2ba9:	8b 45 98             	mov    -0x68(%ebp),%eax
    2bac:	56                   	push   %esi
    2bad:	50                   	push   %eax
    2bae:	8b 45 9c             	mov    -0x64(%ebp),%eax
    2bb1:	50                   	push   %eax
    2bb2:	8b 45 0c             	mov    0xc(%ebp),%eax
    2bb5:	50                   	push   %eax
    2bb6:	e8 a5 28 00 00       	call   5460 <tcp_conn_send@plt>
    2bbb:	83 c4 10             	add    $0x10,%esp
    2bbe:	85 c0                	test   %eax,%eax
    2bc0:	0f 85 ff 0f 00 00    	jne    3bc5 <rfb_new_conn+0x2245>
    2bc6:	8b 4d 0c             	mov    0xc(%ebp),%ecx
    2bc9:	8b 95 50 ff ff ff    	mov    -0xb0(%ebp),%edx
    2bcf:	8b b5 7c ff ff ff    	mov    -0x84(%ebp),%esi
    2bd5:	50                   	push   %eax
    2bd6:	52                   	push   %edx
    2bd7:	56                   	push   %esi
    2bd8:	51                   	push   %ecx
    2bd9:	e8 82 28 00 00       	call   5460 <tcp_conn_send@plt>
    2bde:	89 34 24             	mov    %esi,(%esp)
    2be1:	e8 aa 2a 00 00       	call   5690 <free@plt>
    2be6:	a1 84 71 00 00       	mov    0x7184,%eax
    2beb:	8b 0d 80 71 00 00    	mov    0x7180,%ecx
    2bf1:	83 c4 10             	add    $0x10,%esp
    2bf4:	e9 38 f4 ff ff       	jmp    2031 <rfb_new_conn+0x6b1>
    2bf9:	c7 85 70 ff ff ff 00 	movl   $0x0,-0x90(%ebp)
    2c00:	00 00 00 
    2c03:	e9 c6 f9 ff ff       	jmp    25ce <rfb_new_conn+0xc4e>
    2c08:	31 c0                	xor    %eax,%eax
    2c0a:	e9 f8 fd ff ff       	jmp    2a07 <rfb_new_conn+0x1087>
    2c0f:	8d 45 d4             	lea    -0x2c(%ebp),%eax
    2c12:	c7 05 84 71 00 00 00 	movl   $0x0,0x7184
    2c19:	00 00 00 
    2c1c:	50                   	push   %eax
    2c1d:	8b 45 0c             	mov    0xc(%ebp),%eax
    2c20:	68 00 04 00 00       	push   $0x400
    2c25:	c7 05 80 71 00 00 00 	movl   $0x0,0x7180
    2c2c:	00 00 00 
    2c2f:	68 a0 71 00 00       	push   $0x71a0
    2c34:	50                   	push   %eax
    2c35:	e8 46 2a 00 00       	call   5680 <tcp_conn_recv_wait@plt>
    2c3a:	83 c4 10             	add    $0x10,%esp
    2c3d:	85 c0                	test   %eax,%eax
    2c3f:	75 12                	jne    2c53 <rfb_new_conn+0x12d3>
    2c41:	8b 45 d4             	mov    -0x2c(%ebp),%eax
    2c44:	a3 80 71 00 00       	mov    %eax,0x7180
    2c49:	a1 84 71 00 00       	mov    0x7184,%eax
    2c4e:	e9 d4 ee ff ff       	jmp    1b27 <rfb_new_conn+0x1a7>
    2c53:	50                   	push   %eax
    2c54:	68 34 50 00 00       	push   $0x5034
    2c59:	6a 02                	push   $0x2
    2c5b:	6a ff                	push   $0xffffffff
    2c5d:	e8 7e 28 00 00       	call   54e0 <log_msg@plt>
    2c62:	83 c4 10             	add    $0x10,%esp
    2c65:	e9 00 ef ff ff       	jmp    1b6a <rfb_new_conn+0x1ea>
    2c6a:	c7 45 84 00 00 00 00 	movl   $0x0,-0x7c(%ebp)
    2c71:	66 8b 9d 76 ff ff ff 	mov    -0x8a(%ebp),%bx
    2c78:	e9 c6 fd ff ff       	jmp    2a43 <rfb_new_conn+0x10c3>
    2c7d:	50                   	push   %eax
    2c7e:	68 a1 4d 00 00       	push   $0x4da1
    2c83:	6a 04                	push   $0x4
    2c85:	6a ff                	push   $0xffffffff
    2c87:	e8 54 28 00 00       	call   54e0 <log_msg@plt>
    2c8c:	c6 47 54 01          	movb   $0x1,0x54(%edi)
    2c90:	a1 84 71 00 00       	mov    0x7184,%eax
    2c95:	8b 0d 80 71 00 00    	mov    0x7180,%ecx
    2c9b:	83 c4 10             	add    $0x10,%esp
    2c9e:	e9 8f fc ff ff       	jmp    2932 <rfb_new_conn+0xfb2>
    2ca3:	8d 45 c4             	lea    -0x3c(%ebp),%eax
    2ca6:	c7 05 84 71 00 00 00 	movl   $0x0,0x7184
    2cad:	00 00 00 
    2cb0:	50                   	push   %eax
    2cb1:	c7 05 80 71 00 00 00 	movl   $0x0,0x7180
    2cb8:	00 00 00 
    2cbb:	68 00 04 00 00       	push   $0x400
    2cc0:	68 a0 71 00 00       	push   $0x71a0
    2cc5:	56                   	push   %esi
    2cc6:	e8 b5 29 00 00       	call   5680 <tcp_conn_recv_wait@plt>
    2ccb:	83 c4 10             	add    $0x10,%esp
    2cce:	85 c0                	test   %eax,%eax
    2cd0:	0f 85 94 ee ff ff    	jne    1b6a <rfb_new_conn+0x1ea>
    2cd6:	8b 4d c4             	mov    -0x3c(%ebp),%ecx
    2cd9:	8b 15 84 71 00 00    	mov    0x7184,%edx
    2cdf:	89 0d 80 71 00 00    	mov    %ecx,0x7180
    2ce5:	e9 fe fb ff ff       	jmp    28e8 <rfb_new_conn+0xf68>
    2cea:	50                   	push   %eax
    2ceb:	8b 45 94             	mov    -0x6c(%ebp),%eax
    2cee:	50                   	push   %eax
    2cef:	8b 95 70 ff ff ff    	mov    -0x90(%ebp),%edx
    2cf5:	8d 45 c4             	lea    -0x3c(%ebp),%eax
    2cf8:	50                   	push   %eax
    2cf9:	52                   	push   %edx
    2cfa:	e8 51 27 00 00       	call   5450 <memcpy@plt>
    2cff:	83 c4 10             	add    $0x10,%esp
    2d02:	e9 f8 fc ff ff       	jmp    29ff <rfb_new_conn+0x107f>
    2d07:	8d 45 c4             	lea    -0x3c(%ebp),%eax
    2d0a:	c7 05 84 71 00 00 00 	movl   $0x0,0x7184
    2d11:	00 00 00 
    2d14:	50                   	push   %eax
    2d15:	c7 05 80 71 00 00 00 	movl   $0x0,0x7180
    2d1c:	00 00 00 
    2d1f:	68 00 04 00 00       	push   $0x400
    2d24:	68 a0 71 00 00       	push   $0x71a0
    2d29:	56                   	push   %esi
    2d2a:	e8 51 29 00 00       	call   5680 <tcp_conn_recv_wait@plt>
    2d2f:	83 c4 10             	add    $0x10,%esp
    2d32:	85 c0                	test   %eax,%eax
    2d34:	0f 85 30 ee ff ff    	jne    1b6a <rfb_new_conn+0x1ea>
    2d3a:	8b 4d c4             	mov    -0x3c(%ebp),%ecx
    2d3d:	8b 15 84 71 00 00    	mov    0x7184,%edx
    2d43:	89 0d 80 71 00 00    	mov    %ecx,0x7180
    2d49:	e9 c2 fb ff ff       	jmp    2910 <rfb_new_conn+0xf90>
    2d4e:	8d 45 c4             	lea    -0x3c(%ebp),%eax
    2d51:	c7 05 84 71 00 00 00 	movl   $0x0,0x7184
    2d58:	00 00 00 
    2d5b:	50                   	push   %eax
    2d5c:	c7 05 80 71 00 00 00 	movl   $0x0,0x7180
    2d63:	00 00 00 
    2d66:	68 00 04 00 00       	push   $0x400
    2d6b:	68 a0 71 00 00       	push   $0x71a0
    2d70:	56                   	push   %esi
    2d71:	e8 0a 29 00 00       	call   5680 <tcp_conn_recv_wait@plt>
    2d76:	83 c4 10             	add    $0x10,%esp
    2d79:	85 c0                	test   %eax,%eax
    2d7b:	0f 85 e9 ed ff ff    	jne    1b6a <rfb_new_conn+0x1ea>
    2d81:	8b 4d c4             	mov    -0x3c(%ebp),%ecx
    2d84:	a1 84 71 00 00       	mov    0x7184,%eax
    2d89:	89 0d 80 71 00 00    	mov    %ecx,0x7180
    2d8f:	e9 68 fb ff ff       	jmp    28fc <rfb_new_conn+0xf7c>
    2d94:	66 c1 45 dc 08       	rolw   $0x8,-0x24(%ebp)
    2d99:	66 c1 45 de 08       	rolw   $0x8,-0x22(%ebp)
    2d9e:	50                   	push   %eax
    2d9f:	68 10 4f 00 00       	push   $0x4f10
    2da4:	66 c1 45 e0 08       	rolw   $0x8,-0x20(%ebp)
    2da9:	6a 05                	push   $0x5
    2dab:	6a ff                	push   $0xffffffff
    2dad:	e8 2e 27 00 00       	call   54e0 <log_msg@plt>
    2db2:	58                   	pop    %eax
    2db3:	8b 85 54 ff ff ff    	mov    -0xac(%ebp),%eax
    2db9:	50                   	push   %eax
    2dba:	e8 e1 28 00 00       	call   56a0 <fibril_mutex_lock@plt>
    2dbf:	8b 45 d8             	mov    -0x28(%ebp),%eax
    2dc2:	83 c4 10             	add    $0x10,%esp
    2dc5:	89 47 04             	mov    %eax,0x4(%edi)
    2dc8:	8b 45 dc             	mov    -0x24(%ebp),%eax
    2dcb:	89 47 08             	mov    %eax,0x8(%edi)
    2dce:	8b 45 e0             	mov    -0x20(%ebp),%eax
    2dd1:	89 47 0c             	mov    %eax,0xc(%edi)
    2dd4:	8b 45 e4             	mov    -0x1c(%ebp),%eax
    2dd7:	89 47 10             	mov    %eax,0x10(%edi)
    2dda:	80 7f 07 00          	cmpb   $0x0,0x7(%edi)
    2dde:	0f 85 ac 0c 00 00    	jne    3a90 <rfb_new_conn+0x2110>
    2de4:	8b 4f 4c             	mov    0x4c(%edi),%ecx
    2de7:	85 c9                	test   %ecx,%ecx
    2de9:	0f 84 69 0c 00 00    	je     3a58 <rfb_new_conn+0x20d8>
    2def:	31 c0                	xor    %eax,%eax
    2df1:	8a 45 d9             	mov    -0x27(%ebp),%al
    2df4:	50                   	push   %eax
    2df5:	68 74 4f 00 00       	push   $0x4f74
    2dfa:	6a 04                	push   $0x4
    2dfc:	6a ff                	push   $0xffffffff
    2dfe:	e8 dd 26 00 00       	call   54e0 <log_msg@plt>
    2e03:	83 c4 10             	add    $0x10,%esp
    2e06:	83 ec 0c             	sub    $0xc,%esp
    2e09:	8b 95 54 ff ff ff    	mov    -0xac(%ebp),%edx
    2e0f:	52                   	push   %edx
    2e10:	e8 2b 27 00 00       	call   5540 <fibril_mutex_unlock@plt>
    2e15:	a1 84 71 00 00       	mov    0x7184,%eax
    2e1a:	8b 0d 80 71 00 00    	mov    0x7180,%ecx
    2e20:	83 c4 10             	add    $0x10,%esp
    2e23:	e9 09 f2 ff ff       	jmp    2031 <rfb_new_conn+0x6b1>
    2e28:	8d 45 d4             	lea    -0x2c(%ebp),%eax
    2e2b:	8b 55 0c             	mov    0xc(%ebp),%edx
    2e2e:	50                   	push   %eax
    2e2f:	c7 05 84 71 00 00 00 	movl   $0x0,0x7184
    2e36:	00 00 00 
    2e39:	68 00 04 00 00       	push   $0x400
    2e3e:	c7 05 80 71 00 00 00 	movl   $0x0,0x7180
    2e45:	00 00 00 
    2e48:	68 a0 71 00 00       	push   $0x71a0
    2e4d:	52                   	push   %edx
    2e4e:	e8 2d 28 00 00       	call   5680 <tcp_conn_recv_wait@plt>
    2e53:	83 c4 10             	add    $0x10,%esp
    2e56:	85 c0                	test   %eax,%eax
    2e58:	75 63                	jne    2ebd <rfb_new_conn+0x153d>
    2e5a:	8b 45 d4             	mov    -0x2c(%ebp),%eax
    2e5d:	a3 80 71 00 00       	mov    %eax,0x7180
    2e62:	a1 84 71 00 00       	mov    0x7184,%eax
    2e67:	e9 cd f1 ff ff       	jmp    2039 <rfb_new_conn+0x6b9>
    2e6c:	8b 07                	mov    (%edi),%eax
    2e6e:	c7 47 2c 00 00 00 00 	movl   $0x0,0x2c(%edi)
    2e75:	8b 37                	mov    (%edi),%esi
    2e77:	66 8b 5f 02          	mov    0x2(%edi),%bx
    2e7b:	89 47 30             	mov    %eax,0x30(%edi)
    2e7e:	e9 c8 f5 ff ff       	jmp    244b <rfb_new_conn+0xacb>
    2e83:	a1 84 71 00 00       	mov    0x7184,%eax
    2e88:	8b 0d 80 71 00 00    	mov    0x7180,%ecx
    2e8e:	e9 9e f1 ff ff       	jmp    2031 <rfb_new_conn+0x6b1>
    2e93:	c7 45 98 00 00 00 00 	movl   $0x0,-0x68(%ebp)
    2e9a:	c7 45 9c 00 00 00 00 	movl   $0x0,-0x64(%ebp)
    2ea1:	e9 eb fc ff ff       	jmp    2b91 <rfb_new_conn+0x1211>
    2ea6:	8b b5 74 ff ff ff    	mov    -0x8c(%ebp),%esi
    2eac:	81 e6 ff ff 00 00    	and    $0xffff,%esi
    2eb2:	89 b5 68 ff ff ff    	mov    %esi,-0x98(%ebp)
    2eb8:	e9 9b fb ff ff       	jmp    2a58 <rfb_new_conn+0x10d8>
    2ebd:	57                   	push   %edi
    2ebe:	68 7c 50 00 00       	push   $0x507c
    2ec3:	6a 02                	push   $0x2
    2ec5:	6a ff                	push   $0xffffffff
    2ec7:	e8 14 26 00 00       	call   54e0 <log_msg@plt>
    2ecc:	83 c4 10             	add    $0x10,%esp
    2ecf:	e9 96 ec ff ff       	jmp    1b6a <rfb_new_conn+0x1ea>
    2ed4:	8b b5 7c ff ff ff    	mov    -0x84(%ebp),%esi
    2eda:	c7 46 0c 00 00 00 00 	movl   $0x0,0xc(%esi)
    2ee1:	8a 47 04             	mov    0x4(%edi),%al
    2ee4:	c0 e8 03             	shr    $0x3,%al
    2ee7:	88 c3                	mov    %al,%bl
    2ee9:	89 f0                	mov    %esi,%eax
    2eeb:	81 e3 ff 00 00 00    	and    $0xff,%ebx
    2ef1:	66 8b 76 0a          	mov    0xa(%esi),%si
    2ef5:	89 5d 90             	mov    %ebx,-0x70(%ebp)
    2ef8:	66 89 b5 74 ff ff ff 	mov    %si,-0x8c(%ebp)
    2eff:	66 85 f6             	test   %si,%si
    2f02:	0f 84 6d 0c 00 00    	je     3b75 <rfb_new_conn+0x21f5>
    2f08:	8d 5f 04             	lea    0x4(%edi),%ebx
    2f0b:	66 8b 40 08          	mov    0x8(%eax),%ax
    2f0f:	66 c7 45 80 00 00    	movw   $0x0,-0x80(%ebp)
    2f15:	89 5d 88             	mov    %ebx,-0x78(%ebp)
    2f18:	89 7d 94             	mov    %edi,-0x6c(%ebp)
    2f1b:	89 f2                	mov    %esi,%edx
    2f1d:	66 85 c0             	test   %ax,%ax
    2f20:	0f 84 01 01 00 00    	je     3027 <rfb_new_conn+0x16a7>
    2f26:	8b 45 80             	mov    -0x80(%ebp),%eax
    2f29:	66 c7 45 98 00 00    	movw   $0x0,-0x68(%ebp)
    2f2f:	25 ff ff 00 00       	and    $0xffff,%eax
    2f34:	89 45 8c             	mov    %eax,-0x74(%ebp)
    2f37:	90                   	nop
    2f38:	8b bd 7c ff ff ff    	mov    -0x84(%ebp),%edi
    2f3e:	31 d2                	xor    %edx,%edx
    2f40:	31 c0                	xor    %eax,%eax
    2f42:	8b 75 94             	mov    -0x6c(%ebp),%esi
    2f45:	66 8b 57 04          	mov    0x4(%edi),%dx
    2f49:	66 8b 45 98          	mov    -0x68(%ebp),%ax
    2f4d:	01 d0                	add    %edx,%eax
    2f4f:	8b 4e 20             	mov    0x20(%esi),%ecx
    2f52:	c7 45 9c 00 00 00 00 	movl   $0x0,-0x64(%ebp)
    2f59:	39 c8                	cmp    %ecx,%eax
    2f5b:	73 24                	jae    2f81 <rfb_new_conn+0x1601>
    2f5d:	31 d2                	xor    %edx,%edx
    2f5f:	8b 5d 8c             	mov    -0x74(%ebp),%ebx
    2f62:	66 8b 57 06          	mov    0x6(%edi),%dx
    2f66:	01 da                	add    %ebx,%edx
    2f68:	3b 56 24             	cmp    0x24(%esi),%edx
    2f6b:	73 14                	jae    2f81 <rfb_new_conn+0x1601>
    2f6d:	0f af d1             	imul   %ecx,%edx
    2f70:	01 d0                	add    %edx,%eax
    2f72:	8b 56 28             	mov    0x28(%esi),%edx
    2f75:	8d 04 82             	lea    (%edx,%eax,4),%eax
    2f78:	85 c0                	test   %eax,%eax
    2f7a:	74 05                	je     2f81 <rfb_new_conn+0x1601>
    2f7c:	8b 00                	mov    (%eax),%eax
    2f7e:	89 45 9c             	mov    %eax,-0x64(%ebp)
    2f81:	8b 45 94             	mov    -0x6c(%ebp),%eax
    2f84:	80 78 07 00          	cmpb   $0x0,0x7(%eax)
    2f88:	0f 85 fc 00 00 00    	jne    308a <rfb_new_conn+0x170a>
    2f8e:	8b 75 9c             	mov    -0x64(%ebp),%esi
    2f91:	8b 78 4c             	mov    0x4c(%eax),%edi
    2f94:	89 f0                	mov    %esi,%eax
    2f96:	c1 e8 10             	shr    $0x10,%eax
    2f99:	89 45 a4             	mov    %eax,-0x5c(%ebp)
    2f9c:	89 f0                	mov    %esi,%eax
    2f9e:	c1 e8 08             	shr    $0x8,%eax
    2fa1:	83 ce ff             	or     $0xffffffff,%esi
    2fa4:	89 45 a0             	mov    %eax,-0x60(%ebp)
    2fa7:	31 c0                	xor    %eax,%eax
    2fa9:	eb 18                	jmp    2fc3 <rfb_new_conn+0x1643>
    2fab:	90                   	nop
    2fac:	8d 74 26 00          	lea    0x0(%esi,%eiz,1),%esi
    2fb0:	83 fe ff             	cmp    $0xffffffff,%esi
    2fb3:	75 18                	jne    2fcd <rfb_new_conn+0x164d>
    2fb5:	89 c6                	mov    %eax,%esi
    2fb7:	40                   	inc    %eax
    2fb8:	3d 00 01 00 00       	cmp    $0x100,%eax
    2fbd:	0f 84 95 00 00 00    	je     3058 <rfb_new_conn+0x16d8>
    2fc3:	8b 14 87             	mov    (%edi,%eax,4),%edx
    2fc6:	89 d1                	mov    %edx,%ecx
    2fc8:	c1 e9 18             	shr    $0x18,%ecx
    2fcb:	74 e3                	je     2fb0 <rfb_new_conn+0x1630>
    2fcd:	85 c9                	test   %ecx,%ecx
    2fcf:	74 e6                	je     2fb7 <rfb_new_conn+0x1637>
    2fd1:	89 d1                	mov    %edx,%ecx
    2fd3:	8b 5d a4             	mov    -0x5c(%ebp),%ebx
    2fd6:	c1 e9 10             	shr    $0x10,%ecx
    2fd9:	31 d9                	xor    %ebx,%ecx
    2fdb:	89 d3                	mov    %edx,%ebx
    2fdd:	c1 eb 08             	shr    $0x8,%ebx
    2fe0:	33 5d a0             	xor    -0x60(%ebp),%ebx
    2fe3:	09 d9                	or     %ebx,%ecx
    2fe5:	84 c9                	test   %cl,%cl
    2fe7:	75 ce                	jne    2fb7 <rfb_new_conn+0x1637>
    2fe9:	8b 4d 9c             	mov    -0x64(%ebp),%ecx
    2fec:	31 ca                	xor    %ecx,%edx
    2fee:	84 d2                	test   %dl,%dl
    2ff0:	75 c5                	jne    2fb7 <rfb_new_conn+0x1637>
    2ff2:	8b 75 84             	mov    -0x7c(%ebp),%esi
    2ff5:	88 06                	mov    %al,(%esi)
    2ff7:	90                   	nop
    2ff8:	8b 45 84             	mov    -0x7c(%ebp),%eax
    2ffb:	8b 75 90             	mov    -0x70(%ebp),%esi
    2ffe:	66 ff 45 98          	incw   -0x68(%ebp)
    3002:	01 f0                	add    %esi,%eax
    3004:	89 45 84             	mov    %eax,-0x7c(%ebp)
    3007:	8b 85 7c ff ff ff    	mov    -0x84(%ebp),%eax
    300d:	8b 7d 98             	mov    -0x68(%ebp),%edi
    3010:	66 8b 40 08          	mov    0x8(%eax),%ax
    3014:	66 39 c7             	cmp    %ax,%di
    3017:	0f 82 1b ff ff ff    	jb     2f38 <rfb_new_conn+0x15b8>
    301d:	8b b5 7c ff ff ff    	mov    -0x84(%ebp),%esi
    3023:	66 8b 56 0a          	mov    0xa(%esi),%dx
    3027:	66 ff 45 80          	incw   -0x80(%ebp)
    302b:	8b 75 80             	mov    -0x80(%ebp),%esi
    302e:	66 39 d6             	cmp    %dx,%si
    3031:	0f 82 e6 fe ff ff    	jb     2f1d <rfb_new_conn+0x159d>
    3037:	89 d6                	mov    %edx,%esi
    3039:	8b 7d 94             	mov    -0x6c(%ebp),%edi
    303c:	81 e6 ff ff 00 00    	and    $0xffff,%esi
    3042:	66 89 95 74 ff ff ff 	mov    %dx,-0x8c(%ebp)
    3049:	89 b5 68 ff ff ff    	mov    %esi,-0x98(%ebp)
    304f:	e9 20 fa ff ff       	jmp    2a74 <rfb_new_conn+0x10f4>
    3054:	8d 74 26 00          	lea    0x0(%esi,%eiz,1),%esi
    3058:	83 fe ff             	cmp    $0xffffffff,%esi
    305b:	74 40                	je     309d <rfb_new_conn+0x171d>
    305d:	8b 4d 9c             	mov    -0x64(%ebp),%ecx
    3060:	8b 45 94             	mov    -0x6c(%ebp),%eax
    3063:	81 c9 00 00 00 ff    	or     $0xff000000,%ecx
    3069:	89 0c b7             	mov    %ecx,(%edi,%esi,4)
    306c:	8b 50 50             	mov    0x50(%eax),%edx
    306f:	8d 46 01             	lea    0x1(%esi),%eax
    3072:	39 d0                	cmp    %edx,%eax
    3074:	73 02                	jae    3078 <rfb_new_conn+0x16f8>
    3076:	89 d0                	mov    %edx,%eax
    3078:	8b 7d 94             	mov    -0x6c(%ebp),%edi
    307b:	89 47 50             	mov    %eax,0x50(%edi)
    307e:	8b 7d 84             	mov    -0x7c(%ebp),%edi
    3081:	89 f0                	mov    %esi,%eax
    3083:	88 07                	mov    %al,(%edi)
    3085:	e9 6e ff ff ff       	jmp    2ff8 <rfb_new_conn+0x1678>
    308a:	8b 4d 9c             	mov    -0x64(%ebp),%ecx
    308d:	8b 55 84             	mov    -0x7c(%ebp),%edx
    3090:	8b 45 88             	mov    -0x78(%ebp),%eax
    3093:	e8 08 e7 ff ff       	call   17a0 <rfb_encode_true_color>
    3098:	e9 5b ff ff ff       	jmp    2ff8 <rfb_new_conn+0x1678>
    309d:	8b 45 84             	mov    -0x7c(%ebp),%eax
    30a0:	c6 00 00             	movb   $0x0,(%eax)
    30a3:	e9 50 ff ff ff       	jmp    2ff8 <rfb_new_conn+0x1678>
    30a8:	50                   	push   %eax
    30a9:	68 f0 4e 00 00       	push   $0x4ef0
    30ae:	6a 02                	push   $0x2
    30b0:	6a ff                	push   $0xffffffff
    30b2:	e8 29 24 00 00       	call   54e0 <log_msg@plt>
    30b7:	83 c4 10             	add    $0x10,%esp
    30ba:	e9 ab ea ff ff       	jmp    1b6a <rfb_new_conn+0x1ea>
    30bf:	8d 45 d4             	lea    -0x2c(%ebp),%eax
    30c2:	8b 5d 0c             	mov    0xc(%ebp),%ebx
    30c5:	50                   	push   %eax
    30c6:	c7 05 84 71 00 00 00 	movl   $0x0,0x7184
    30cd:	00 00 00 
    30d0:	68 00 04 00 00       	push   $0x400
    30d5:	c7 05 80 71 00 00 00 	movl   $0x0,0x7180
    30dc:	00 00 00 
    30df:	68 a0 71 00 00       	push   $0x71a0
    30e4:	53                   	push   %ebx
    30e5:	e8 96 25 00 00       	call   5680 <tcp_conn_recv_wait@plt>
    30ea:	83 c4 10             	add    $0x10,%esp
    30ed:	85 c0                	test   %eax,%eax
    30ef:	75 12                	jne    3103 <rfb_new_conn+0x1783>
    30f1:	8b 45 d4             	mov    -0x2c(%ebp),%eax
    30f4:	a3 80 71 00 00       	mov    %eax,0x7180
    30f9:	a1 84 71 00 00       	mov    0x7184,%eax
    30fe:	e9 45 ee ff ff       	jmp    1f48 <rfb_new_conn+0x5c8>
    3103:	50                   	push   %eax
    3104:	68 58 50 00 00       	push   $0x5058
    3109:	6a 02                	push   $0x2
    310b:	6a ff                	push   $0xffffffff
    310d:	e8 ce 23 00 00       	call   54e0 <log_msg@plt>
    3112:	83 c4 10             	add    $0x10,%esp
    3115:	e9 50 ea ff ff       	jmp    1b6a <rfb_new_conn+0x1ea>
    311a:	50                   	push   %eax
    311b:	68 c8 4e 00 00       	push   $0x4ec8
    3120:	6a 02                	push   $0x2
    3122:	6a ff                	push   $0xffffffff
    3124:	e8 b7 23 00 00       	call   54e0 <log_msg@plt>
    3129:	58                   	pop    %eax
    312a:	8b 85 54 ff ff ff    	mov    -0xac(%ebp),%eax
    3130:	50                   	push   %eax
    3131:	e8 0a 24 00 00       	call   5540 <fibril_mutex_unlock@plt>
    3136:	83 c4 10             	add    $0x10,%esp
    3139:	e9 2c ea ff ff       	jmp    1b6a <rfb_new_conn+0x1ea>
    313e:	8d 45 c4             	lea    -0x3c(%ebp),%eax
    3141:	c7 05 84 71 00 00 00 	movl   $0x0,0x7184
    3148:	00 00 00 
    314b:	50                   	push   %eax
    314c:	8b 45 0c             	mov    0xc(%ebp),%eax
    314f:	68 00 04 00 00       	push   $0x400
    3154:	c7 05 80 71 00 00 00 	movl   $0x0,0x7180
    315b:	00 00 00 
    315e:	68 a0 71 00 00       	push   $0x71a0
    3163:	50                   	push   %eax
    3164:	e8 17 25 00 00       	call   5680 <tcp_conn_recv_wait@plt>
    3169:	83 c4 10             	add    $0x10,%esp
    316c:	85 c0                	test   %eax,%eax
    316e:	0f 85 8f f1 ff ff    	jne    2303 <rfb_new_conn+0x983>
    3174:	8b 45 c4             	mov    -0x3c(%ebp),%eax
    3177:	8b 0d 84 71 00 00    	mov    0x7184,%ecx
    317d:	a3 80 71 00 00       	mov    %eax,0x7180
    3182:	e9 2f f1 ff ff       	jmp    22b6 <rfb_new_conn+0x936>
    3187:	90                   	nop
    3188:	8d 45 c4             	lea    -0x3c(%ebp),%eax
    318b:	c7 05 84 71 00 00 00 	movl   $0x0,0x7184
    3192:	00 00 00 
    3195:	50                   	push   %eax
    3196:	8b 45 0c             	mov    0xc(%ebp),%eax
    3199:	68 00 04 00 00       	push   $0x400
    319e:	c7 05 80 71 00 00 00 	movl   $0x0,0x7180
    31a5:	00 00 00 
    31a8:	68 a0 71 00 00       	push   $0x71a0
    31ad:	50                   	push   %eax
    31ae:	e8 cd 24 00 00       	call   5680 <tcp_conn_recv_wait@plt>
    31b3:	83 c4 10             	add    $0x10,%esp
    31b6:	85 c0                	test   %eax,%eax
    31b8:	0f 85 45 f1 ff ff    	jne    2303 <rfb_new_conn+0x983>
    31be:	8b 45 c4             	mov    -0x3c(%ebp),%eax
    31c1:	8b 15 84 71 00 00    	mov    0x7184,%edx
    31c7:	a3 80 71 00 00       	mov    %eax,0x7180
    31cc:	e9 d1 f0 ff ff       	jmp    22a2 <rfb_new_conn+0x922>
    31d1:	8d b4 26 00 00 00 00 	lea    0x0(%esi,%eiz,1),%esi
    31d8:	8d 45 c4             	lea    -0x3c(%ebp),%eax
    31db:	c7 05 84 71 00 00 00 	movl   $0x0,0x7184
    31e2:	00 00 00 
    31e5:	50                   	push   %eax
    31e6:	8b 45 0c             	mov    0xc(%ebp),%eax
    31e9:	68 00 04 00 00       	push   $0x400
    31ee:	c7 05 80 71 00 00 00 	movl   $0x0,0x7180
    31f5:	00 00 00 
    31f8:	68 a0 71 00 00       	push   $0x71a0
    31fd:	50                   	push   %eax
    31fe:	e8 7d 24 00 00       	call   5680 <tcp_conn_recv_wait@plt>
    3203:	83 c4 10             	add    $0x10,%esp
    3206:	85 c0                	test   %eax,%eax
    3208:	0f 85 f5 f0 ff ff    	jne    2303 <rfb_new_conn+0x983>
    320e:	8b 45 c4             	mov    -0x3c(%ebp),%eax
    3211:	8b 0d 84 71 00 00    	mov    0x7184,%ecx
    3217:	a3 80 71 00 00       	mov    %eax,0x7180
    321c:	e9 6d f0 ff ff       	jmp    228e <rfb_new_conn+0x90e>
    3221:	8d b4 26 00 00 00 00 	lea    0x0(%esi,%eiz,1),%esi
    3228:	8d 45 c4             	lea    -0x3c(%ebp),%eax
    322b:	c7 05 84 71 00 00 00 	movl   $0x0,0x7184
    3232:	00 00 00 
    3235:	50                   	push   %eax
    3236:	8b 45 0c             	mov    0xc(%ebp),%eax
    3239:	68 00 04 00 00       	push   $0x400
    323e:	c7 05 80 71 00 00 00 	movl   $0x0,0x7180
    3245:	00 00 00 
    3248:	68 a0 71 00 00       	push   $0x71a0
    324d:	50                   	push   %eax
    324e:	e8 2d 24 00 00       	call   5680 <tcp_conn_recv_wait@plt>
    3253:	83 c4 10             	add    $0x10,%esp
    3256:	85 c0                	test   %eax,%eax
    3258:	0f 85 a5 f0 ff ff    	jne    2303 <rfb_new_conn+0x983>
    325e:	8b 45 c4             	mov    -0x3c(%ebp),%eax
    3261:	8b 15 84 71 00 00    	mov    0x7184,%edx
    3267:	a3 80 71 00 00       	mov    %eax,0x7180
    326c:	e9 09 f0 ff ff       	jmp    227a <rfb_new_conn+0x8fa>
    3271:	8d b4 26 00 00 00 00 	lea    0x0(%esi,%eiz,1),%esi
    3278:	8d 45 c4             	lea    -0x3c(%ebp),%eax
    327b:	8b 5d 0c             	mov    0xc(%ebp),%ebx
    327e:	50                   	push   %eax
    327f:	c7 05 84 71 00 00 00 	movl   $0x0,0x7184
    3286:	00 00 00 
    3289:	68 00 04 00 00       	push   $0x400
    328e:	c7 05 80 71 00 00 00 	movl   $0x0,0x7180
    3295:	00 00 00 
    3298:	68 a0 71 00 00       	push   $0x71a0
    329d:	53                   	push   %ebx
    329e:	e8 dd 23 00 00       	call   5680 <tcp_conn_recv_wait@plt>
    32a3:	83 c4 10             	add    $0x10,%esp
    32a6:	85 c0                	test   %eax,%eax
    32a8:	0f 85 55 f0 ff ff    	jne    2303 <rfb_new_conn+0x983>
    32ae:	8b 45 c4             	mov    -0x3c(%ebp),%eax
    32b1:	8b 0d 84 71 00 00    	mov    0x7184,%ecx
    32b7:	a3 80 71 00 00       	mov    %eax,0x7180
    32bc:	e9 1d f0 ff ff       	jmp    22de <rfb_new_conn+0x95e>
    32c1:	8d b4 26 00 00 00 00 	lea    0x0(%esi,%eiz,1),%esi
    32c8:	8d 45 c4             	lea    -0x3c(%ebp),%eax
    32cb:	8b 75 0c             	mov    0xc(%ebp),%esi
    32ce:	50                   	push   %eax
    32cf:	c7 05 84 71 00 00 00 	movl   $0x0,0x7184
    32d6:	00 00 00 
    32d9:	68 00 04 00 00       	push   $0x400
    32de:	c7 05 80 71 00 00 00 	movl   $0x0,0x7180
    32e5:	00 00 00 
    32e8:	68 a0 71 00 00       	push   $0x71a0
    32ed:	56                   	push   %esi
    32ee:	e8 8d 23 00 00       	call   5680 <tcp_conn_recv_wait@plt>
    32f3:	83 c4 10             	add    $0x10,%esp
    32f6:	85 c0                	test   %eax,%eax
    32f8:	0f 85 05 f0 ff ff    	jne    2303 <rfb_new_conn+0x983>
    32fe:	8b 45 c4             	mov    -0x3c(%ebp),%eax
    3301:	8b 15 84 71 00 00    	mov    0x7184,%edx
    3307:	a3 80 71 00 00       	mov    %eax,0x7180
    330c:	e9 b9 ef ff ff       	jmp    22ca <rfb_new_conn+0x94a>
    3311:	8d b4 26 00 00 00 00 	lea    0x0(%esi,%eiz,1),%esi
    3318:	8d 45 c4             	lea    -0x3c(%ebp),%eax
    331b:	8b 4d 0c             	mov    0xc(%ebp),%ecx
    331e:	50                   	push   %eax
    331f:	c7 05 84 71 00 00 00 	movl   $0x0,0x7184
    3326:	00 00 00 
    3329:	68 00 04 00 00       	push   $0x400
    332e:	c7 05 80 71 00 00 00 	movl   $0x0,0x7180
    3335:	00 00 00 
    3338:	68 a0 71 00 00       	push   $0x71a0
    333d:	51                   	push   %ecx
    333e:	e8 3d 23 00 00       	call   5680 <tcp_conn_recv_wait@plt>
    3343:	83 c4 10             	add    $0x10,%esp
    3346:	85 c0                	test   %eax,%eax
    3348:	0f 85 b5 ef ff ff    	jne    2303 <rfb_new_conn+0x983>
    334e:	8b 45 c4             	mov    -0x3c(%ebp),%eax
    3351:	8b 15 84 71 00 00    	mov    0x7184,%edx
    3357:	a3 80 71 00 00       	mov    %eax,0x7180
    335c:	e9 91 ef ff ff       	jmp    22f2 <rfb_new_conn+0x972>
    3361:	8d b4 26 00 00 00 00 	lea    0x0(%esi,%eiz,1),%esi
    3368:	8d 45 c4             	lea    -0x3c(%ebp),%eax
    336b:	c7 05 84 71 00 00 00 	movl   $0x0,0x7184
    3372:	00 00 00 
    3375:	50                   	push   %eax
    3376:	8b 45 0c             	mov    0xc(%ebp),%eax
    3379:	68 00 04 00 00       	push   $0x400
    337e:	c7 05 80 71 00 00 00 	movl   $0x0,0x7180
    3385:	00 00 00 
    3388:	68 a0 71 00 00       	push   $0x71a0
    338d:	50                   	push   %eax
    338e:	e8 ed 22 00 00       	call   5680 <tcp_conn_recv_wait@plt>
    3393:	83 c4 10             	add    $0x10,%esp
    3396:	85 c0                	test   %eax,%eax
    3398:	0f 85 73 ed ff ff    	jne    2111 <rfb_new_conn+0x791>
    339e:	8b 45 c4             	mov    -0x3c(%ebp),%eax
    33a1:	8b 15 84 71 00 00    	mov    0x7184,%edx
    33a7:	a3 80 71 00 00       	mov    %eax,0x7180
    33ac:	e9 4f ed ff ff       	jmp    2100 <rfb_new_conn+0x780>
    33b1:	8d b4 26 00 00 00 00 	lea    0x0(%esi,%eiz,1),%esi
    33b8:	8d 45 c4             	lea    -0x3c(%ebp),%eax
    33bb:	c7 05 84 71 00 00 00 	movl   $0x0,0x7184
    33c2:	00 00 00 
    33c5:	50                   	push   %eax
    33c6:	8b 45 0c             	mov    0xc(%ebp),%eax
    33c9:	68 00 04 00 00       	push   $0x400
    33ce:	c7 05 80 71 00 00 00 	movl   $0x0,0x7180
    33d5:	00 00 00 
    33d8:	68 a0 71 00 00       	push   $0x71a0
    33dd:	50                   	push   %eax
    33de:	e8 9d 22 00 00       	call   5680 <tcp_conn_recv_wait@plt>
    33e3:	83 c4 10             	add    $0x10,%esp
    33e6:	85 c0                	test   %eax,%eax
    33e8:	0f 85 23 ed ff ff    	jne    2111 <rfb_new_conn+0x791>
    33ee:	8b 45 c4             	mov    -0x3c(%ebp),%eax
    33f1:	8b 0d 84 71 00 00    	mov    0x7184,%ecx
    33f7:	a3 80 71 00 00       	mov    %eax,0x7180
    33fc:	e9 eb ec ff ff       	jmp    20ec <rfb_new_conn+0x76c>
    3401:	8d b4 26 00 00 00 00 	lea    0x0(%esi,%eiz,1),%esi
    3408:	8d 45 c4             	lea    -0x3c(%ebp),%eax
    340b:	c7 05 84 71 00 00 00 	movl   $0x0,0x7184
    3412:	00 00 00 
    3415:	50                   	push   %eax
    3416:	8b 45 0c             	mov    0xc(%ebp),%eax
    3419:	68 00 04 00 00       	push   $0x400
    341e:	c7 05 80 71 00 00 00 	movl   $0x0,0x7180
    3425:	00 00 00 
    3428:	68 a0 71 00 00       	push   $0x71a0
    342d:	50                   	push   %eax
    342e:	e8 4d 22 00 00       	call   5680 <tcp_conn_recv_wait@plt>
    3433:	83 c4 10             	add    $0x10,%esp
    3436:	85 c0                	test   %eax,%eax
    3438:	0f 85 d3 ec ff ff    	jne    2111 <rfb_new_conn+0x791>
    343e:	8b 45 c4             	mov    -0x3c(%ebp),%eax
    3441:	8b 15 84 71 00 00    	mov    0x7184,%edx
    3447:	a3 80 71 00 00       	mov    %eax,0x7180
    344c:	e9 87 ec ff ff       	jmp    20d8 <rfb_new_conn+0x758>
    3451:	8d b4 26 00 00 00 00 	lea    0x0(%esi,%eiz,1),%esi
    3458:	8d 45 c4             	lea    -0x3c(%ebp),%eax
    345b:	8b 55 0c             	mov    0xc(%ebp),%edx
    345e:	50                   	push   %eax
    345f:	c7 05 84 71 00 00 00 	movl   $0x0,0x7184
    3466:	00 00 00 
    3469:	68 00 04 00 00       	push   $0x400
    346e:	c7 05 80 71 00 00 00 	movl   $0x0,0x7180
    3475:	00 00 00 
    3478:	68 a0 71 00 00       	push   $0x71a0
    347d:	52                   	push   %edx
    347e:	e8 fd 21 00 00       	call   5680 <tcp_conn_recv_wait@plt>
    3483:	83 c4 10             	add    $0x10,%esp
    3486:	85 c0                	test   %eax,%eax
    3488:	0f 85 83 ec ff ff    	jne    2111 <rfb_new_conn+0x791>
    348e:	8b 45 c4             	mov    -0x3c(%ebp),%eax
    3491:	8b 0d 84 71 00 00    	mov    0x7184,%ecx
    3497:	a3 80 71 00 00       	mov    %eax,0x7180
    349c:	e9 23 ec ff ff       	jmp    20c4 <rfb_new_conn+0x744>
    34a1:	8d b4 26 00 00 00 00 	lea    0x0(%esi,%eiz,1),%esi
    34a8:	8d 45 c4             	lea    -0x3c(%ebp),%eax
    34ab:	8b 4d 0c             	mov    0xc(%ebp),%ecx
    34ae:	50                   	push   %eax
    34af:	c7 05 84 71 00 00 00 	movl   $0x0,0x7184
    34b6:	00 00 00 
    34b9:	68 00 04 00 00       	push   $0x400
    34be:	c7 05 80 71 00 00 00 	movl   $0x0,0x7180
    34c5:	00 00 00 
    34c8:	68 a0 71 00 00       	push   $0x71a0
    34cd:	51                   	push   %ecx
    34ce:	e8 ad 21 00 00       	call   5680 <tcp_conn_recv_wait@plt>
    34d3:	83 c4 10             	add    $0x10,%esp
    34d6:	85 c0                	test   %eax,%eax
    34d8:	0f 85 33 ec ff ff    	jne    2111 <rfb_new_conn+0x791>
    34de:	8b 45 c4             	mov    -0x3c(%ebp),%eax
    34e1:	8b 15 84 71 00 00    	mov    0x7184,%edx
    34e7:	a3 80 71 00 00       	mov    %eax,0x7180
    34ec:	e9 bf eb ff ff       	jmp    20b0 <rfb_new_conn+0x730>
    34f1:	8d b4 26 00 00 00 00 	lea    0x0(%esi,%eiz,1),%esi
    34f8:	8d 45 c4             	lea    -0x3c(%ebp),%eax
    34fb:	8b 4d 0c             	mov    0xc(%ebp),%ecx
    34fe:	50                   	push   %eax
    34ff:	c7 05 84 71 00 00 00 	movl   $0x0,0x7184
    3506:	00 00 00 
    3509:	68 00 04 00 00       	push   $0x400
    350e:	c7 05 80 71 00 00 00 	movl   $0x0,0x7180
    3515:	00 00 00 
    3518:	68 a0 71 00 00       	push   $0x71a0
    351d:	51                   	push   %ecx
    351e:	e8 5d 21 00 00       	call   5680 <tcp_conn_recv_wait@plt>
    3523:	83 c4 10             	add    $0x10,%esp
    3526:	85 c0                	test   %eax,%eax
    3528:	0f 85 72 f3 ff ff    	jne    28a0 <rfb_new_conn+0xf20>
    352e:	8b 45 c4             	mov    -0x3c(%ebp),%eax
    3531:	8b 15 84 71 00 00    	mov    0x7184,%edx
    3537:	a3 80 71 00 00       	mov    %eax,0x7180
    353c:	e9 4e f3 ff ff       	jmp    288f <rfb_new_conn+0xf0f>
    3541:	8d b4 26 00 00 00 00 	lea    0x0(%esi,%eiz,1),%esi
    3548:	8d 45 c4             	lea    -0x3c(%ebp),%eax
    354b:	c7 05 84 71 00 00 00 	movl   $0x0,0x7184
    3552:	00 00 00 
    3555:	50                   	push   %eax
    3556:	8b 45 0c             	mov    0xc(%ebp),%eax
    3559:	68 00 04 00 00       	push   $0x400
    355e:	c7 05 80 71 00 00 00 	movl   $0x0,0x7180
    3565:	00 00 00 
    3568:	68 a0 71 00 00       	push   $0x71a0
    356d:	50                   	push   %eax
    356e:	e8 0d 21 00 00       	call   5680 <tcp_conn_recv_wait@plt>
    3573:	83 c4 10             	add    $0x10,%esp
    3576:	85 c0                	test   %eax,%eax
    3578:	0f 85 73 ee ff ff    	jne    23f1 <rfb_new_conn+0xa71>
    357e:	8b 45 c4             	mov    -0x3c(%ebp),%eax
    3581:	8b 0d 84 71 00 00    	mov    0x7184,%ecx
    3587:	a3 80 71 00 00       	mov    %eax,0x7180
    358c:	e9 c3 ed ff ff       	jmp    2354 <rfb_new_conn+0x9d4>
    3591:	8d b4 26 00 00 00 00 	lea    0x0(%esi,%eiz,1),%esi
    3598:	8d 45 c4             	lea    -0x3c(%ebp),%eax
    359b:	c7 05 84 71 00 00 00 	movl   $0x0,0x7184
    35a2:	00 00 00 
    35a5:	50                   	push   %eax
    35a6:	8b 45 0c             	mov    0xc(%ebp),%eax
    35a9:	68 00 04 00 00       	push   $0x400
    35ae:	c7 05 80 71 00 00 00 	movl   $0x0,0x7180
    35b5:	00 00 00 
    35b8:	68 a0 71 00 00       	push   $0x71a0
    35bd:	50                   	push   %eax
    35be:	e8 bd 20 00 00       	call   5680 <tcp_conn_recv_wait@plt>
    35c3:	83 c4 10             	add    $0x10,%esp
    35c6:	85 c0                	test   %eax,%eax
    35c8:	0f 85 23 ee ff ff    	jne    23f1 <rfb_new_conn+0xa71>
    35ce:	8b 45 c4             	mov    -0x3c(%ebp),%eax
    35d1:	8b 15 84 71 00 00    	mov    0x7184,%edx
    35d7:	a3 80 71 00 00       	mov    %eax,0x7180
    35dc:	e9 5f ed ff ff       	jmp    2340 <rfb_new_conn+0x9c0>
    35e1:	8d b4 26 00 00 00 00 	lea    0x0(%esi,%eiz,1),%esi
    35e8:	8d 45 c4             	lea    -0x3c(%ebp),%eax
    35eb:	8b 5d 0c             	mov    0xc(%ebp),%ebx
    35ee:	50                   	push   %eax
    35ef:	c7 05 84 71 00 00 00 	movl   $0x0,0x7184
    35f6:	00 00 00 
    35f9:	68 00 04 00 00       	push   $0x400
    35fe:	c7 05 80 71 00 00 00 	movl   $0x0,0x7180
    3605:	00 00 00 
    3608:	68 a0 71 00 00       	push   $0x71a0
    360d:	53                   	push   %ebx
    360e:	e8 6d 20 00 00       	call   5680 <tcp_conn_recv_wait@plt>
    3613:	83 c4 10             	add    $0x10,%esp
    3616:	85 c0                	test   %eax,%eax
    3618:	0f 85 d3 ed ff ff    	jne    23f1 <rfb_new_conn+0xa71>
    361e:	8b 45 c4             	mov    -0x3c(%ebp),%eax
    3621:	8b 0d 84 71 00 00    	mov    0x7184,%ecx
    3627:	a3 80 71 00 00       	mov    %eax,0x7180
    362c:	e9 73 ed ff ff       	jmp    23a4 <rfb_new_conn+0xa24>
    3631:	8d b4 26 00 00 00 00 	lea    0x0(%esi,%eiz,1),%esi
    3638:	8d 45 c4             	lea    -0x3c(%ebp),%eax
    363b:	8b 75 0c             	mov    0xc(%ebp),%esi
    363e:	50                   	push   %eax
    363f:	c7 05 84 71 00 00 00 	movl   $0x0,0x7184
    3646:	00 00 00 
    3649:	68 00 04 00 00       	push   $0x400
    364e:	c7 05 80 71 00 00 00 	movl   $0x0,0x7180
    3655:	00 00 00 
    3658:	68 a0 71 00 00       	push   $0x71a0
    365d:	56                   	push   %esi
    365e:	e8 1d 20 00 00       	call   5680 <tcp_conn_recv_wait@plt>
    3663:	83 c4 10             	add    $0x10,%esp
    3666:	85 c0                	test   %eax,%eax
    3668:	0f 85 83 ed ff ff    	jne    23f1 <rfb_new_conn+0xa71>
    366e:	8b 45 c4             	mov    -0x3c(%ebp),%eax
    3671:	8b 15 84 71 00 00    	mov    0x7184,%edx
    3677:	a3 80 71 00 00       	mov    %eax,0x7180
    367c:	e9 0f ed ff ff       	jmp    2390 <rfb_new_conn+0xa10>
    3681:	8d b4 26 00 00 00 00 	lea    0x0(%esi,%eiz,1),%esi
    3688:	8d 45 c4             	lea    -0x3c(%ebp),%eax
    368b:	c7 05 84 71 00 00 00 	movl   $0x0,0x7184
    3692:	00 00 00 
    3695:	50                   	push   %eax
    3696:	8b 45 0c             	mov    0xc(%ebp),%eax
    3699:	68 00 04 00 00       	push   $0x400
    369e:	c7 05 80 71 00 00 00 	movl   $0x0,0x7180
    36a5:	00 00 00 
    36a8:	68 a0 71 00 00       	push   $0x71a0
    36ad:	50                   	push   %eax
    36ae:	e8 cd 1f 00 00       	call   5680 <tcp_conn_recv_wait@plt>
    36b3:	83 c4 10             	add    $0x10,%esp
    36b6:	85 c0                	test   %eax,%eax
    36b8:	0f 85 33 ed ff ff    	jne    23f1 <rfb_new_conn+0xa71>
    36be:	8b 45 c4             	mov    -0x3c(%ebp),%eax
    36c1:	8b 0d 84 71 00 00    	mov    0x7184,%ecx
    36c7:	a3 80 71 00 00       	mov    %eax,0x7180
    36cc:	e9 ab ec ff ff       	jmp    237c <rfb_new_conn+0x9fc>
    36d1:	8d b4 26 00 00 00 00 	lea    0x0(%esi,%eiz,1),%esi
    36d8:	8d 45 c4             	lea    -0x3c(%ebp),%eax
    36db:	c7 05 84 71 00 00 00 	movl   $0x0,0x7184
    36e2:	00 00 00 
    36e5:	50                   	push   %eax
    36e6:	8b 45 0c             	mov    0xc(%ebp),%eax
    36e9:	68 00 04 00 00       	push   $0x400
    36ee:	c7 05 80 71 00 00 00 	movl   $0x0,0x7180
    36f5:	00 00 00 
    36f8:	68 a0 71 00 00       	push   $0x71a0
    36fd:	50                   	push   %eax
    36fe:	e8 7d 1f 00 00       	call   5680 <tcp_conn_recv_wait@plt>
    3703:	83 c4 10             	add    $0x10,%esp
    3706:	85 c0                	test   %eax,%eax
    3708:	0f 85 e3 ec ff ff    	jne    23f1 <rfb_new_conn+0xa71>
    370e:	8b 45 c4             	mov    -0x3c(%ebp),%eax
    3711:	8b 15 84 71 00 00    	mov    0x7184,%edx
    3717:	a3 80 71 00 00       	mov    %eax,0x7180
    371c:	e9 47 ec ff ff       	jmp    2368 <rfb_new_conn+0x9e8>
    3721:	8d b4 26 00 00 00 00 	lea    0x0(%esi,%eiz,1),%esi
    3728:	80 7f 05 18          	cmpb   $0x18,0x5(%edi)
    372c:	0f 87 c3 ed ff ff    	ja     24f5 <rfb_new_conn+0xb75>
    3732:	31 c0                	xor    %eax,%eax
    3734:	8a 4f 0e             	mov    0xe(%edi),%cl
    3737:	66 8b 47 08          	mov    0x8(%edi),%ax
    373b:	31 d2                	xor    %edx,%edx
    373d:	d3 e0                	shl    %cl,%eax
    373f:	66 8b 57 0a          	mov    0xa(%edi),%dx
    3743:	8a 4f 0f             	mov    0xf(%edi),%cl
    3746:	d3 e2                	shl    %cl,%edx
    3748:	09 d0                	or     %edx,%eax
    374a:	31 d2                	xor    %edx,%edx
    374c:	66 8b 57 0c          	mov    0xc(%edi),%dx
    3750:	8a 4f 10             	mov    0x10(%edi),%cl
    3753:	d3 e2                	shl    %cl,%edx
    3755:	09 d0                	or     %edx,%eax
    3757:	89 45 c4             	mov    %eax,-0x3c(%ebp)
    375a:	80 7f 06 00          	cmpb   $0x0,0x6(%edi)
    375e:	74 05                	je     3765 <rfb_new_conn+0x1de5>
    3760:	0f c8                	bswap  %eax
    3762:	89 45 c4             	mov    %eax,-0x3c(%ebp)
    3765:	80 7d c4 00          	cmpb   $0x0,-0x3c(%ebp)
    3769:	0f 84 80 03 00 00    	je     3aef <rfb_new_conn+0x216f>
    376f:	80 7d c7 00          	cmpb   $0x0,-0x39(%ebp)
    3773:	0f 84 89 03 00 00    	je     3b02 <rfb_new_conn+0x2182>
    3779:	c7 45 9c 00 00 00 00 	movl   $0x0,-0x64(%ebp)
    3780:	e9 70 ed ff ff       	jmp    24f5 <rfb_new_conn+0xb75>
    3785:	8d 76 00             	lea    0x0(%esi),%esi
    3788:	8d 45 c4             	lea    -0x3c(%ebp),%eax
    378b:	8b 55 0c             	mov    0xc(%ebp),%edx
    378e:	50                   	push   %eax
    378f:	c7 05 84 71 00 00 00 	movl   $0x0,0x7184
    3796:	00 00 00 
    3799:	68 00 04 00 00       	push   $0x400
    379e:	c7 05 80 71 00 00 00 	movl   $0x0,0x7180
    37a5:	00 00 00 
    37a8:	68 a0 71 00 00       	push   $0x71a0
    37ad:	52                   	push   %edx
    37ae:	e8 cd 1e 00 00       	call   5680 <tcp_conn_recv_wait@plt>
    37b3:	83 c4 10             	add    $0x10,%esp
    37b6:	85 c0                	test   %eax,%eax
    37b8:	0f 85 33 ec ff ff    	jne    23f1 <rfb_new_conn+0xa71>
    37be:	8b 45 c4             	mov    -0x3c(%ebp),%eax
    37c1:	8b 0d 84 71 00 00    	mov    0x7184,%ecx
    37c7:	a3 80 71 00 00       	mov    %eax,0x7180
    37cc:	e9 fb eb ff ff       	jmp    23cc <rfb_new_conn+0xa4c>
    37d1:	8d b4 26 00 00 00 00 	lea    0x0(%esi,%eiz,1),%esi
    37d8:	8d 45 c4             	lea    -0x3c(%ebp),%eax
    37db:	8b 4d 0c             	mov    0xc(%ebp),%ecx
    37de:	50                   	push   %eax
    37df:	c7 05 84 71 00 00 00 	movl   $0x0,0x7184
    37e6:	00 00 00 
    37e9:	68 00 04 00 00       	push   $0x400
    37ee:	c7 05 80 71 00 00 00 	movl   $0x0,0x7180
    37f5:	00 00 00 
    37f8:	68 a0 71 00 00       	push   $0x71a0
    37fd:	51                   	push   %ecx
    37fe:	e8 7d 1e 00 00       	call   5680 <tcp_conn_recv_wait@plt>
    3803:	83 c4 10             	add    $0x10,%esp
    3806:	85 c0                	test   %eax,%eax
    3808:	0f 85 e3 eb ff ff    	jne    23f1 <rfb_new_conn+0xa71>
    380e:	8b 45 c4             	mov    -0x3c(%ebp),%eax
    3811:	8b 15 84 71 00 00    	mov    0x7184,%edx
    3817:	a3 80 71 00 00       	mov    %eax,0x7180
    381c:	e9 97 eb ff ff       	jmp    23b8 <rfb_new_conn+0xa38>
    3821:	8d b4 26 00 00 00 00 	lea    0x0(%esi,%eiz,1),%esi
    3828:	8d 45 c4             	lea    -0x3c(%ebp),%eax
    382b:	c7 05 84 71 00 00 00 	movl   $0x0,0x7184
    3832:	00 00 00 
    3835:	50                   	push   %eax
    3836:	8b 45 0c             	mov    0xc(%ebp),%eax
    3839:	68 00 04 00 00       	push   $0x400
    383e:	c7 05 80 71 00 00 00 	movl   $0x0,0x7180
    3845:	00 00 00 
    3848:	68 a0 71 00 00       	push   $0x71a0
    384d:	50                   	push   %eax
    384e:	e8 2d 1e 00 00       	call   5680 <tcp_conn_recv_wait@plt>
    3853:	83 c4 10             	add    $0x10,%esp
    3856:	85 c0                	test   %eax,%eax
    3858:	0f 85 c6 e9 ff ff    	jne    2224 <rfb_new_conn+0x8a4>
    385e:	8b 45 c4             	mov    -0x3c(%ebp),%eax
    3861:	8b 15 84 71 00 00    	mov    0x7184,%edx
    3867:	a3 80 71 00 00       	mov    %eax,0x7180
    386c:	e9 a2 e9 ff ff       	jmp    2213 <rfb_new_conn+0x893>
    3871:	8d b4 26 00 00 00 00 	lea    0x0(%esi,%eiz,1),%esi
    3878:	8d 45 c4             	lea    -0x3c(%ebp),%eax
    387b:	8b 5d 0c             	mov    0xc(%ebp),%ebx
    387e:	50                   	push   %eax
    387f:	c7 05 84 71 00 00 00 	movl   $0x0,0x7184
    3886:	00 00 00 
    3889:	68 00 04 00 00       	push   $0x400
    388e:	c7 05 80 71 00 00 00 	movl   $0x0,0x7180
    3895:	00 00 00 
    3898:	68 a0 71 00 00       	push   $0x71a0
    389d:	53                   	push   %ebx
    389e:	e8 dd 1d 00 00       	call   5680 <tcp_conn_recv_wait@plt>
    38a3:	83 c4 10             	add    $0x10,%esp
    38a6:	85 c0                	test   %eax,%eax
    38a8:	0f 85 f2 ef ff ff    	jne    28a0 <rfb_new_conn+0xf20>
    38ae:	8b 45 c4             	mov    -0x3c(%ebp),%eax
    38b1:	8b 0d 84 71 00 00    	mov    0x7184,%ecx
    38b7:	a3 80 71 00 00       	mov    %eax,0x7180
    38bc:	e9 ba ef ff ff       	jmp    287b <rfb_new_conn+0xefb>
    38c1:	8d b4 26 00 00 00 00 	lea    0x0(%esi,%eiz,1),%esi
    38c8:	8d 45 c4             	lea    -0x3c(%ebp),%eax
    38cb:	8b 75 0c             	mov    0xc(%ebp),%esi
    38ce:	50                   	push   %eax
    38cf:	c7 05 84 71 00 00 00 	movl   $0x0,0x7184
    38d6:	00 00 00 
    38d9:	68 00 04 00 00       	push   $0x400
    38de:	c7 05 80 71 00 00 00 	movl   $0x0,0x7180
    38e5:	00 00 00 
    38e8:	68 a0 71 00 00       	push   $0x71a0
    38ed:	56                   	push   %esi
    38ee:	e8 8d 1d 00 00       	call   5680 <tcp_conn_recv_wait@plt>
    38f3:	83 c4 10             	add    $0x10,%esp
    38f6:	85 c0                	test   %eax,%eax
    38f8:	0f 85 a2 ef ff ff    	jne    28a0 <rfb_new_conn+0xf20>
    38fe:	8b 45 c4             	mov    -0x3c(%ebp),%eax
    3901:	8b 15 84 71 00 00    	mov    0x7184,%edx
    3907:	a3 80 71 00 00       	mov    %eax,0x7180
    390c:	e9 56 ef ff ff       	jmp    2867 <rfb_new_conn+0xee7>
    3911:	8d b4 26 00 00 00 00 	lea    0x0(%esi,%eiz,1),%esi
    3918:	8d 45 c4             	lea    -0x3c(%ebp),%eax
    391b:	c7 05 84 71 00 00 00 	movl   $0x0,0x7184
    3922:	00 00 00 
    3925:	50                   	push   %eax
    3926:	8b 45 0c             	mov    0xc(%ebp),%eax
    3929:	68 00 04 00 00       	push   $0x400
    392e:	c7 05 80 71 00 00 00 	movl   $0x0,0x7180
    3935:	00 00 00 
    3938:	68 a0 71 00 00       	push   $0x71a0
    393d:	50                   	push   %eax
    393e:	e8 3d 1d 00 00       	call   5680 <tcp_conn_recv_wait@plt>
    3943:	83 c4 10             	add    $0x10,%esp
    3946:	85 c0                	test   %eax,%eax
    3948:	0f 85 d6 e8 ff ff    	jne    2224 <rfb_new_conn+0x8a4>
    394e:	8b 45 c4             	mov    -0x3c(%ebp),%eax
    3951:	8b 0d 84 71 00 00    	mov    0x7184,%ecx
    3957:	a3 80 71 00 00       	mov    %eax,0x7180
    395c:	e9 9e e8 ff ff       	jmp    21ff <rfb_new_conn+0x87f>
    3961:	8d b4 26 00 00 00 00 	lea    0x0(%esi,%eiz,1),%esi
    3968:	8d 45 c4             	lea    -0x3c(%ebp),%eax
    396b:	c7 05 84 71 00 00 00 	movl   $0x0,0x7184
    3972:	00 00 00 
    3975:	50                   	push   %eax
    3976:	8b 45 0c             	mov    0xc(%ebp),%eax
    3979:	68 00 04 00 00       	push   $0x400
    397e:	c7 05 80 71 00 00 00 	movl   $0x0,0x7180
    3985:	00 00 00 
    3988:	68 a0 71 00 00       	push   $0x71a0
    398d:	50                   	push   %eax
    398e:	e8 ed 1c 00 00       	call   5680 <tcp_conn_recv_wait@plt>
    3993:	83 c4 10             	add    $0x10,%esp
    3996:	85 c0                	test   %eax,%eax
    3998:	0f 85 86 e8 ff ff    	jne    2224 <rfb_new_conn+0x8a4>
    399e:	8b 45 c4             	mov    -0x3c(%ebp),%eax
    39a1:	8b 15 84 71 00 00    	mov    0x7184,%edx
    39a7:	a3 80 71 00 00       	mov    %eax,0x7180
    39ac:	e9 3a e8 ff ff       	jmp    21eb <rfb_new_conn+0x86b>
    39b1:	8d b4 26 00 00 00 00 	lea    0x0(%esi,%eiz,1),%esi
    39b8:	8d 45 c4             	lea    -0x3c(%ebp),%eax
    39bb:	c7 05 84 71 00 00 00 	movl   $0x0,0x7184
    39c2:	00 00 00 
    39c5:	50                   	push   %eax
    39c6:	8b 45 0c             	mov    0xc(%ebp),%eax
    39c9:	68 00 04 00 00       	push   $0x400
    39ce:	c7 05 80 71 00 00 00 	movl   $0x0,0x7180
    39d5:	00 00 00 
    39d8:	68 a0 71 00 00       	push   $0x71a0
    39dd:	50                   	push   %eax
    39de:	e8 9d 1c 00 00       	call   5680 <tcp_conn_recv_wait@plt>
    39e3:	83 c4 10             	add    $0x10,%esp
    39e6:	85 c0                	test   %eax,%eax
    39e8:	0f 85 36 e8 ff ff    	jne    2224 <rfb_new_conn+0x8a4>
    39ee:	8b 45 c4             	mov    -0x3c(%ebp),%eax
    39f1:	8b 0d 84 71 00 00    	mov    0x7184,%ecx
    39f7:	a3 80 71 00 00       	mov    %eax,0x7180
    39fc:	e9 d6 e7 ff ff       	jmp    21d7 <rfb_new_conn+0x857>
    3a01:	8d b4 26 00 00 00 00 	lea    0x0(%esi,%eiz,1),%esi
    3a08:	8d 45 c4             	lea    -0x3c(%ebp),%eax
    3a0b:	c7 05 84 71 00 00 00 	movl   $0x0,0x7184
    3a12:	00 00 00 
    3a15:	50                   	push   %eax
    3a16:	8b 45 0c             	mov    0xc(%ebp),%eax
    3a19:	68 00 04 00 00       	push   $0x400
    3a1e:	c7 05 80 71 00 00 00 	movl   $0x0,0x7180
    3a25:	00 00 00 
    3a28:	68 a0 71 00 00       	push   $0x71a0
    3a2d:	50                   	push   %eax
    3a2e:	e8 4d 1c 00 00       	call   5680 <tcp_conn_recv_wait@plt>
    3a33:	83 c4 10             	add    $0x10,%esp
    3a36:	85 c0                	test   %eax,%eax
    3a38:	0f 85 e6 e7 ff ff    	jne    2224 <rfb_new_conn+0x8a4>
    3a3e:	8b 45 c4             	mov    -0x3c(%ebp),%eax
    3a41:	8b 15 84 71 00 00    	mov    0x7184,%edx
    3a47:	a3 80 71 00 00       	mov    %eax,0x7180
    3a4c:	e9 72 e7 ff ff       	jmp    21c3 <rfb_new_conn+0x843>
    3a51:	8d b4 26 00 00 00 00 	lea    0x0(%esi,%eiz,1),%esi
    3a58:	83 ec 0c             	sub    $0xc,%esp
    3a5b:	68 00 04 00 00       	push   $0x400
    3a60:	e8 0b 1a 00 00       	call   5470 <malloc@plt>
    3a65:	83 c4 10             	add    $0x10,%esp
    3a68:	89 47 4c             	mov    %eax,0x4c(%edi)
    3a6b:	85 c0                	test   %eax,%eax
    3a6d:	0f 84 eb 00 00 00    	je     3b5e <rfb_new_conn+0x21de>
    3a73:	52                   	push   %edx
    3a74:	68 00 04 00 00       	push   $0x400
    3a79:	6a 00                	push   $0x0
    3a7b:	50                   	push   %eax
    3a7c:	e8 3f 1b 00 00       	call   55c0 <memset@plt>
    3a81:	c7 47 50 00 00 00 00 	movl   $0x0,0x50(%edi)
    3a88:	83 c4 10             	add    $0x10,%esp
    3a8b:	e9 5f f3 ff ff       	jmp    2def <rfb_new_conn+0x146f>
    3a90:	83 ec 0c             	sub    $0xc,%esp
    3a93:	8b 5f 4c             	mov    0x4c(%edi),%ebx
    3a96:	53                   	push   %ebx
    3a97:	e8 f4 1b 00 00       	call   5690 <free@plt>
    3a9c:	c7 47 4c 00 00 00 00 	movl   $0x0,0x4c(%edi)
    3aa3:	c7 47 50 00 00 00 00 	movl   $0x0,0x50(%edi)
    3aaa:	5e                   	pop    %esi
    3aab:	58                   	pop    %eax
    3aac:	31 c0                	xor    %eax,%eax
    3aae:	8a 45 e4             	mov    -0x1c(%ebp),%al
    3ab1:	50                   	push   %eax
    3ab2:	31 c0                	xor    %eax,%eax
    3ab4:	66 8b 45 e0          	mov    -0x20(%ebp),%ax
    3ab8:	50                   	push   %eax
    3ab9:	31 c0                	xor    %eax,%eax
    3abb:	8a 45 e3             	mov    -0x1d(%ebp),%al
    3abe:	50                   	push   %eax
    3abf:	31 c0                	xor    %eax,%eax
    3ac1:	66 8b 45 de          	mov    -0x22(%ebp),%ax
    3ac5:	50                   	push   %eax
    3ac6:	31 c0                	xor    %eax,%eax
    3ac8:	8a 45 e2             	mov    -0x1e(%ebp),%al
    3acb:	50                   	push   %eax
    3acc:	31 c0                	xor    %eax,%eax
    3ace:	66 8b 45 dc          	mov    -0x24(%ebp),%ax
    3ad2:	50                   	push   %eax
    3ad3:	31 c0                	xor    %eax,%eax
    3ad5:	8a 45 d9             	mov    -0x27(%ebp),%al
    3ad8:	50                   	push   %eax
    3ad9:	68 30 4f 00 00       	push   $0x4f30
    3ade:	6a 04                	push   $0x4
    3ae0:	6a ff                	push   $0xffffffff
    3ae2:	e8 f9 19 00 00       	call   54e0 <log_msg@plt>
    3ae7:	83 c4 30             	add    $0x30,%esp
    3aea:	e9 17 f3 ff ff       	jmp    2e06 <rfb_new_conn+0x1486>
    3aef:	c7 45 9c 01 00 00 00 	movl   $0x1,-0x64(%ebp)
    3af6:	c7 45 94 03 00 00 00 	movl   $0x3,-0x6c(%ebp)
    3afd:	e9 f3 e9 ff ff       	jmp    24f5 <rfb_new_conn+0xb75>
    3b02:	c7 45 9c 02 00 00 00 	movl   $0x2,-0x64(%ebp)
    3b09:	c7 45 94 03 00 00 00 	movl   $0x3,-0x6c(%ebp)
    3b10:	e9 e0 e9 ff ff       	jmp    24f5 <rfb_new_conn+0xb75>
    3b15:	8d 45 c4             	lea    -0x3c(%ebp),%eax
    3b18:	c7 05 84 71 00 00 00 	movl   $0x0,0x7184
    3b1f:	00 00 00 
    3b22:	50                   	push   %eax
    3b23:	8b 45 0c             	mov    0xc(%ebp),%eax
    3b26:	68 00 04 00 00       	push   $0x400
    3b2b:	c7 05 80 71 00 00 00 	movl   $0x0,0x7180
    3b32:	00 00 00 
    3b35:	68 a0 71 00 00       	push   $0x71a0
    3b3a:	50                   	push   %eax
    3b3b:	e8 40 1b 00 00       	call   5680 <tcp_conn_recv_wait@plt>
    3b40:	83 c4 10             	add    $0x10,%esp
    3b43:	85 c0                	test   %eax,%eax
    3b45:	0f 85 a6 e8 ff ff    	jne    23f1 <rfb_new_conn+0xa71>
    3b4b:	8b 45 c4             	mov    -0x3c(%ebp),%eax
    3b4e:	8b 15 84 71 00 00    	mov    0x7184,%edx
    3b54:	a3 80 71 00 00       	mov    %eax,0x7180
    3b59:	e9 82 e8 ff ff       	jmp    23e0 <rfb_new_conn+0xa60>
    3b5e:	83 ec 0c             	sub    $0xc,%esp
    3b61:	8b b5 54 ff ff ff    	mov    -0xac(%ebp),%esi
    3b67:	56                   	push   %esi
    3b68:	e8 d3 19 00 00       	call   5540 <fibril_mutex_unlock@plt>
    3b6d:	83 c4 10             	add    $0x10,%esp
    3b70:	e9 f5 df ff ff       	jmp    1b6a <rfb_new_conn+0x1ea>
    3b75:	8b 85 7c ff ff ff    	mov    -0x84(%ebp),%eax
    3b7b:	31 d2                	xor    %edx,%edx
    3b7d:	c7 85 68 ff ff ff 00 	movl   $0x0,-0x98(%ebp)
    3b84:	00 00 00 
    3b87:	8b b5 7c ff ff ff    	mov    -0x84(%ebp),%esi
    3b8d:	66 8b 40 08          	mov    0x8(%eax),%ax
    3b91:	e9 e9 ee ff ff       	jmp    2a7f <rfb_new_conn+0x10ff>
    3b96:	c7 85 68 ff ff ff 00 	movl   $0x0,-0x98(%ebp)
    3b9d:	00 00 00 
    3ba0:	ba 00 00 00 0f       	mov    $0xf000000,%edx
    3ba5:	8b b5 7c ff ff ff    	mov    -0x84(%ebp),%esi
    3bab:	e9 cf ee ff ff       	jmp    2a7f <rfb_new_conn+0x10ff>
    3bb0:	83 ec 0c             	sub    $0xc,%esp
    3bb3:	8b 8d 7c ff ff ff    	mov    -0x84(%ebp),%ecx
    3bb9:	51                   	push   %ecx
    3bba:	e8 d1 1a 00 00       	call   5690 <free@plt>
    3bbf:	5b                   	pop    %ebx
    3bc0:	e9 44 f2 ff ff       	jmp    2e09 <rfb_new_conn+0x1489>
    3bc5:	83 ec 0c             	sub    $0xc,%esp
    3bc8:	8b 9d 7c ff ff ff    	mov    -0x84(%ebp),%ebx
    3bce:	53                   	push   %ebx
    3bcf:	e8 bc 1a 00 00       	call   5690 <free@plt>
    3bd4:	a1 84 71 00 00       	mov    0x7184,%eax
    3bd9:	8b 0d 80 71 00 00    	mov    0x7180,%ecx
    3bdf:	83 c4 10             	add    $0x10,%esp
    3be2:	e9 4a e4 ff ff       	jmp    2031 <rfb_new_conn+0x6b1>
    3be7:	89 f6                	mov    %esi,%esi
    3be9:	8d bc 27 00 00 00 00 	lea    0x0(%edi,%eiz,1),%edi

00003bf0 <rfb_init>:
    3bf0:	55                   	push   %ebp
    3bf1:	89 e5                	mov    %esp,%ebp
    3bf3:	57                   	push   %edi
    3bf4:	56                   	push   %esi
    3bf5:	53                   	push   %ebx
    3bf6:	83 ec 20             	sub    $0x20,%esp
    3bf9:	8b 5d 08             	mov    0x8(%ebp),%ebx
    3bfc:	8b 7d 0c             	mov    0xc(%ebp),%edi
    3bff:	6a 58                	push   $0x58
    3c01:	8b 75 10             	mov    0x10(%ebp),%esi
    3c04:	6a 00                	push   $0x0
    3c06:	53                   	push   %ebx
    3c07:	e8 b4 19 00 00       	call   55c0 <memset@plt>
    3c0c:	8d 43 3c             	lea    0x3c(%ebx),%eax
    3c0f:	89 04 24             	mov    %eax,(%esp)
    3c12:	e8 69 19 00 00       	call   5580 <fibril_mutex_initialize@plt>
    3c17:	c6 43 04 20          	movb   $0x20,0x4(%ebx)
    3c1b:	c6 43 05 18          	movb   $0x18,0x5(%ebx)
    3c1f:	c6 43 06 01          	movb   $0x1,0x6(%ebx)
    3c23:	c6 43 07 01          	movb   $0x1,0x7(%ebx)
    3c27:	66 c7 43 08 ff 00    	movw   $0xff,0x8(%ebx)
    3c2d:	66 c7 43 0a ff 00    	movw   $0xff,0xa(%ebx)
    3c33:	66 c7 43 0c ff 00    	movw   $0xff,0xc(%ebx)
    3c39:	c6 43 0e 00          	movb   $0x0,0xe(%ebx)
    3c3d:	c6 43 0f 08          	movb   $0x8,0xf(%ebx)
    3c41:	c6 43 10 10          	movb   $0x10,0x10(%ebx)
    3c45:	8b 45 14             	mov    0x14(%ebp),%eax
    3c48:	59                   	pop    %ecx
    3c49:	50                   	push   %eax
    3c4a:	e8 11 19 00 00       	call   5560 <str_dup@plt>
    3c4f:	89 f9                	mov    %edi,%ecx
    3c51:	89 43 14             	mov    %eax,0x14(%ebx)
    3c54:	89 f0                	mov    %esi,%eax
    3c56:	81 e1 ff ff 00 00    	and    $0xffff,%ecx
    3c5c:	25 ff ff 00 00       	and    $0xffff,%eax
    3c61:	c6 43 54 00          	movb   $0x0,0x54(%ebx)
    3c65:	89 45 e0             	mov    %eax,-0x20(%ebp)
    3c68:	89 4d dc             	mov    %ecx,-0x24(%ebp)
    3c6b:	0f af c1             	imul   %ecx,%eax
    3c6e:	8d 14 85 00 00 00 00 	lea    0x0(,%eax,4),%edx
    3c75:	89 14 24             	mov    %edx,(%esp)
    3c78:	89 55 e4             	mov    %edx,-0x1c(%ebp)
    3c7b:	e8 f0 17 00 00       	call   5470 <malloc@plt>
    3c80:	83 c4 10             	add    $0x10,%esp
    3c83:	89 45 d8             	mov    %eax,-0x28(%ebp)
    3c86:	85 c0                	test   %eax,%eax
    3c88:	74 46                	je     3cd0 <rfb_init+0xe0>
    3c8a:	83 ec 0c             	sub    $0xc,%esp
    3c8d:	8b 43 28             	mov    0x28(%ebx),%eax
    3c90:	50                   	push   %eax
    3c91:	e8 fa 19 00 00       	call   5690 <free@plt>
    3c96:	83 c4 0c             	add    $0xc,%esp
    3c99:	8b 55 e0             	mov    -0x20(%ebp),%edx
    3c9c:	89 53 24             	mov    %edx,0x24(%ebx)
    3c9f:	8b 45 d8             	mov    -0x28(%ebp),%eax
    3ca2:	8b 4d dc             	mov    -0x24(%ebp),%ecx
    3ca5:	8b 55 e4             	mov    -0x1c(%ebp),%edx
    3ca8:	89 43 28             	mov    %eax,0x28(%ebx)
    3cab:	89 4b 20             	mov    %ecx,0x20(%ebx)
    3cae:	66 89 3b             	mov    %di,(%ebx)
    3cb1:	66 89 73 02          	mov    %si,0x2(%ebx)
    3cb5:	52                   	push   %edx
    3cb6:	68 ff 00 00 00       	push   $0xff
    3cbb:	50                   	push   %eax
    3cbc:	e8 ff 18 00 00       	call   55c0 <memset@plt>
    3cc1:	83 c4 10             	add    $0x10,%esp
    3cc4:	31 c0                	xor    %eax,%eax
    3cc6:	8d 65 f4             	lea    -0xc(%ebp),%esp
    3cc9:	5b                   	pop    %ebx
    3cca:	5e                   	pop    %esi
    3ccb:	5f                   	pop    %edi
    3ccc:	5d                   	pop    %ebp
    3ccd:	c3                   	ret    
    3cce:	66 90                	xchg   %ax,%ax
    3cd0:	b8 fe ff ff ff       	mov    $0xfffffffe,%eax
    3cd5:	eb ef                	jmp    3cc6 <rfb_init+0xd6>
    3cd7:	89 f6                	mov    %esi,%esi
    3cd9:	8d bc 27 00 00 00 00 	lea    0x0(%edi,%eiz,1),%edi

00003ce0 <rfb_set_size>:
    3ce0:	55                   	push   %ebp
    3ce1:	89 e5                	mov    %esp,%ebp
    3ce3:	57                   	push   %edi
    3ce4:	56                   	push   %esi
    3ce5:	53                   	push   %ebx
    3ce6:	83 ec 28             	sub    $0x28,%esp
    3ce9:	8b 4d 0c             	mov    0xc(%ebp),%ecx
    3cec:	8b 7d 10             	mov    0x10(%ebp),%edi
    3cef:	89 c8                	mov    %ecx,%eax
    3cf1:	89 fa                	mov    %edi,%edx
    3cf3:	25 ff ff 00 00       	and    $0xffff,%eax
    3cf8:	81 e2 ff ff 00 00    	and    $0xffff,%edx
    3cfe:	89 c6                	mov    %eax,%esi
    3d00:	8b 5d 08             	mov    0x8(%ebp),%ebx
    3d03:	0f af f2             	imul   %edx,%esi
    3d06:	c1 e6 02             	shl    $0x2,%esi
    3d09:	89 4d d8             	mov    %ecx,-0x28(%ebp)
    3d0c:	56                   	push   %esi
    3d0d:	89 45 e4             	mov    %eax,-0x1c(%ebp)
    3d10:	89 55 e0             	mov    %edx,-0x20(%ebp)
    3d13:	e8 58 17 00 00       	call   5470 <malloc@plt>
    3d18:	83 c4 10             	add    $0x10,%esp
    3d1b:	89 45 dc             	mov    %eax,-0x24(%ebp)
    3d1e:	85 c0                	test   %eax,%eax
    3d20:	74 46                	je     3d68 <rfb_set_size+0x88>
    3d22:	83 ec 0c             	sub    $0xc,%esp
    3d25:	8b 43 28             	mov    0x28(%ebx),%eax
    3d28:	50                   	push   %eax
    3d29:	e8 62 19 00 00       	call   5690 <free@plt>
    3d2e:	83 c4 0c             	add    $0xc,%esp
    3d31:	8b 55 e4             	mov    -0x1c(%ebp),%edx
    3d34:	89 53 20             	mov    %edx,0x20(%ebx)
    3d37:	8b 45 dc             	mov    -0x24(%ebp),%eax
    3d3a:	8b 55 e0             	mov    -0x20(%ebp),%edx
    3d3d:	8b 4d d8             	mov    -0x28(%ebp),%ecx
    3d40:	89 43 28             	mov    %eax,0x28(%ebx)
    3d43:	89 53 24             	mov    %edx,0x24(%ebx)
    3d46:	66 89 0b             	mov    %cx,(%ebx)
    3d49:	66 89 7b 02          	mov    %di,0x2(%ebx)
    3d4d:	56                   	push   %esi
    3d4e:	68 ff 00 00 00       	push   $0xff
    3d53:	50                   	push   %eax
    3d54:	e8 67 18 00 00       	call   55c0 <memset@plt>
    3d59:	83 c4 10             	add    $0x10,%esp
    3d5c:	31 c0                	xor    %eax,%eax
    3d5e:	8d 65 f4             	lea    -0xc(%ebp),%esp
    3d61:	5b                   	pop    %ebx
    3d62:	5e                   	pop    %esi
    3d63:	5f                   	pop    %edi
    3d64:	5d                   	pop    %ebp
    3d65:	c3                   	ret    
    3d66:	66 90                	xchg   %ax,%ax
    3d68:	b8 fe ff ff ff       	mov    $0xfffffffe,%eax
    3d6d:	eb ef                	jmp    3d5e <rfb_set_size+0x7e>
    3d6f:	90                   	nop

00003d70 <rfb_listen>:
    3d70:	55                   	push   %ebp
    3d71:	89 e5                	mov    %esp,%ebp
    3d73:	57                   	push   %edi
    3d74:	56                   	push   %esi
    3d75:	53                   	push   %ebx
    3d76:	83 ec 48             	sub    $0x48,%esp
    3d79:	8d 45 c8             	lea    -0x38(%ebp),%eax
    3d7c:	8b 5d 08             	mov    0x8(%ebp),%ebx
    3d7f:	8b 75 0c             	mov    0xc(%ebp),%esi
    3d82:	50                   	push   %eax
    3d83:	c7 45 c8 00 00 00 00 	movl   $0x0,-0x38(%ebp)
    3d8a:	c7 45 cc 00 00 00 00 	movl   $0x0,-0x34(%ebp)
    3d91:	e8 ca 18 00 00       	call   5660 <tcp_create@plt>
    3d96:	83 c4 10             	add    $0x10,%esp
    3d99:	89 45 c4             	mov    %eax,-0x3c(%ebp)
    3d9c:	85 c0                	test   %eax,%eax
    3d9e:	74 40                	je     3de0 <rfb_listen+0x70>
    3da0:	57                   	push   %edi
    3da1:	68 f7 4d 00 00       	push   $0x4df7
    3da6:	6a 01                	push   $0x1
    3da8:	6a ff                	push   $0xffffffff
    3daa:	e8 31 17 00 00       	call   54e0 <log_msg@plt>
    3daf:	83 c4 10             	add    $0x10,%esp
    3db2:	83 ec 0c             	sub    $0xc,%esp
    3db5:	8b 45 c4             	mov    -0x3c(%ebp),%eax
    3db8:	89 45 c4             	mov    %eax,-0x3c(%ebp)
    3dbb:	8b 45 cc             	mov    -0x34(%ebp),%eax
    3dbe:	50                   	push   %eax
    3dbf:	e8 bc 16 00 00       	call   5480 <tcp_listener_destroy@plt>
    3dc4:	8b 4d c8             	mov    -0x38(%ebp),%ecx
    3dc7:	5a                   	pop    %edx
    3dc8:	51                   	push   %ecx
    3dc9:	e8 c2 17 00 00       	call   5590 <tcp_destroy@plt>
    3dce:	8b 45 c4             	mov    -0x3c(%ebp),%eax
    3dd1:	83 c4 10             	add    $0x10,%esp
    3dd4:	8d 65 f4             	lea    -0xc(%ebp),%esp
    3dd7:	5b                   	pop    %ebx
    3dd8:	5e                   	pop    %esi
    3dd9:	5f                   	pop    %edi
    3dda:	5d                   	pop    %ebp
    3ddb:	c3                   	ret    
    3ddc:	8d 74 26 00          	lea    0x0(%esi,%eiz,1),%esi
    3de0:	83 ec 0c             	sub    $0xc,%esp
    3de3:	8d 7d d0             	lea    -0x30(%ebp),%edi
    3de6:	57                   	push   %edi
    3de7:	e8 24 18 00 00       	call   5610 <inet_ep_init@plt>
    3dec:	83 c4 0c             	add    $0xc,%esp
    3def:	66 89 75 e4          	mov    %si,-0x1c(%ebp)
    3df3:	8d 45 cc             	lea    -0x34(%ebp),%eax
    3df6:	8b 75 c8             	mov    -0x38(%ebp),%esi
    3df9:	50                   	push   %eax
    3dfa:	53                   	push   %ebx
    3dfb:	68 a0 75 00 00       	push   $0x75a0
    3e00:	53                   	push   %ebx
    3e01:	68 a0 6f 00 00       	push   $0x6fa0
    3e06:	57                   	push   %edi
    3e07:	56                   	push   %esi
    3e08:	e8 23 17 00 00       	call   5530 <tcp_listener_create@plt>
    3e0d:	83 c4 20             	add    $0x20,%esp
    3e10:	85 c0                	test   %eax,%eax
    3e12:	75 14                	jne    3e28 <rfb_listen+0xb8>
    3e14:	8b 55 c8             	mov    -0x38(%ebp),%edx
    3e17:	89 53 18             	mov    %edx,0x18(%ebx)
    3e1a:	8b 55 cc             	mov    -0x34(%ebp),%edx
    3e1d:	89 53 1c             	mov    %edx,0x1c(%ebx)
    3e20:	8d 65 f4             	lea    -0xc(%ebp),%esp
    3e23:	5b                   	pop    %ebx
    3e24:	5e                   	pop    %esi
    3e25:	5f                   	pop    %edi
    3e26:	5d                   	pop    %ebp
    3e27:	c3                   	ret    
    3e28:	89 45 c4             	mov    %eax,-0x3c(%ebp)
    3e2b:	53                   	push   %ebx
    3e2c:	68 0f 4e 00 00       	push   $0x4e0f
    3e31:	e9 70 ff ff ff       	jmp    3da6 <rfb_listen+0x36>
    3e36:	66 90                	xchg   %ax,%ax
    3e38:	66 90                	xchg   %ax,%ax
    3e3a:	66 90                	xchg   %ax,%ax
    3e3c:	66 90                	xchg   %ax,%ax
    3e3e:	66 90                	xchg   %ax,%ax

00003e40 <graph_alloc_visualizer>:
    3e40:	55                   	push   %ebp
    3e41:	89 e5                	mov    %esp,%ebp
    3e43:	83 ec 14             	sub    $0x14,%esp
    3e46:	68 88 00 00 00       	push   $0x88
    3e4b:	e8 20 16 00 00       	call   5470 <malloc@plt>
    3e50:	c9                   	leave  
    3e51:	c3                   	ret    
    3e52:	8d b4 26 00 00 00 00 	lea    0x0(%esi,%eiz,1),%esi
    3e59:	8d bc 27 00 00 00 00 	lea    0x0(%edi,%eiz,1),%edi

00003e60 <graph_alloc_renderer>:
    3e60:	55                   	push   %ebp
    3e61:	89 e5                	mov    %esp,%ebp
    3e63:	83 ec 14             	sub    $0x14,%esp
    3e66:	6a 14                	push   $0x14
    3e68:	e8 03 16 00 00       	call   5470 <malloc@plt>
    3e6d:	c9                   	leave  
    3e6e:	c3                   	ret    
    3e6f:	90                   	nop

00003e70 <graph_init_visualizer>:
    3e70:	55                   	push   %ebp
    3e71:	89 e5                	mov    %esp,%ebp
    3e73:	53                   	push   %ebx
    3e74:	83 ec 10             	sub    $0x10,%esp
    3e77:	8b 5d 08             	mov    0x8(%ebp),%ebx
    3e7a:	8d 43 18             	lea    0x18(%ebx),%eax
    3e7d:	c7 03 00 00 00 00    	movl   $0x0,(%ebx)
    3e83:	c7 43 04 00 00 00 00 	movl   $0x0,0x4(%ebx)
    3e8a:	c7 43 08 00 00 00 00 	movl   $0x0,0x8(%ebx)
    3e91:	c7 43 14 00 00 00 00 	movl   $0x0,0x14(%ebx)
    3e98:	50                   	push   %eax
    3e99:	e8 e2 16 00 00       	call   5580 <fibril_mutex_initialize@plt>
    3e9e:	8d 43 28             	lea    0x28(%ebx),%eax
    3ea1:	89 43 28             	mov    %eax,0x28(%ebx)
    3ea4:	89 43 2c             	mov    %eax,0x2c(%ebx)
    3ea7:	c6 43 5c 00          	movb   $0x0,0x5c(%ebx)
    3eab:	c7 83 80 00 00 00 00 	movl   $0x0,0x80(%ebx)
    3eb2:	00 00 00 
    3eb5:	c7 83 84 00 00 00 00 	movl   $0x0,0x84(%ebx)
    3ebc:	00 00 00 
    3ebf:	83 c4 10             	add    $0x10,%esp
    3ec2:	8b 5d fc             	mov    -0x4(%ebp),%ebx
    3ec5:	c9                   	leave  
    3ec6:	c3                   	ret    
    3ec7:	89 f6                	mov    %esi,%esi
    3ec9:	8d bc 27 00 00 00 00 	lea    0x0(%edi,%eiz,1),%edi

00003ed0 <graph_init_renderer>:
    3ed0:	55                   	push   %ebp
    3ed1:	89 e5                	mov    %esp,%ebp
    3ed3:	8b 45 08             	mov    0x8(%ebp),%eax
    3ed6:	c7 00 00 00 00 00    	movl   $0x0,(%eax)
    3edc:	c7 40 04 00 00 00 00 	movl   $0x0,0x4(%eax)
    3ee3:	c7 40 08 00 00 00 00 	movl   $0x0,0x8(%eax)
    3eea:	5d                   	pop    %ebp
    3eeb:	c3                   	ret    
    3eec:	8d 74 26 00          	lea    0x0(%esi,%eiz,1),%esi

00003ef0 <graph_register_visualizer>:
    3ef0:	55                   	push   %ebp
    3ef1:	89 e5                	mov    %esp,%ebp
    3ef3:	56                   	push   %esi
    3ef4:	53                   	push   %ebx
    3ef5:	81 ec 14 01 00 00    	sub    $0x114,%esp
    3efb:	8d b5 f8 fe ff ff    	lea    -0x108(%ebp),%esi
    3f01:	a1 b8 75 00 00       	mov    0x75b8,%eax
    3f06:	50                   	push   %eax
    3f07:	68 e8 50 00 00       	push   $0x50e8
    3f0c:	8d 50 01             	lea    0x1(%eax),%edx
    3f0f:	6a 00                	push   $0x0
    3f11:	68 ec 50 00 00       	push   $0x50ec
    3f16:	68 f5 50 00 00       	push   $0x50f5
    3f1b:	68 ff 00 00 00       	push   $0xff
    3f20:	56                   	push   %esi
    3f21:	89 15 b8 75 00 00    	mov    %edx,0x75b8
    3f27:	e8 c4 14 00 00       	call   53f0 <snprintf@plt>
    3f2c:	83 c4 1c             	add    $0x1c,%esp
    3f2f:	8d 85 f4 fe ff ff    	lea    -0x10c(%ebp),%eax
    3f35:	6a 00                	push   $0x0
    3f37:	50                   	push   %eax
    3f38:	68 c2 4b 00 00       	push   $0x4bc2
    3f3d:	e8 6e 14 00 00       	call   53b0 <loc_category_get_id@plt>
    3f42:	83 c4 10             	add    $0x10,%esp
    3f45:	89 c3                	mov    %eax,%ebx
    3f47:	85 c0                	test   %eax,%eax
    3f49:	74 0d                	je     3f58 <graph_register_visualizer+0x68>
    3f4b:	8d 65 f8             	lea    -0x8(%ebp),%esp
    3f4e:	89 d8                	mov    %ebx,%eax
    3f50:	5b                   	pop    %ebx
    3f51:	5e                   	pop    %esi
    3f52:	5d                   	pop    %ebp
    3f53:	c3                   	ret    
    3f54:	8d 74 26 00          	lea    0x0(%esi,%eiz,1),%esi
    3f58:	50                   	push   %eax
    3f59:	50                   	push   %eax
    3f5a:	8b 45 08             	mov    0x8(%ebp),%eax
    3f5d:	83 c0 0c             	add    $0xc,%eax
    3f60:	50                   	push   %eax
    3f61:	56                   	push   %esi
    3f62:	e8 a9 14 00 00       	call   5410 <loc_service_register@plt>
    3f67:	83 c4 10             	add    $0x10,%esp
    3f6a:	89 c3                	mov    %eax,%ebx
    3f6c:	85 c0                	test   %eax,%eax
    3f6e:	75 db                	jne    3f4b <graph_register_visualizer+0x5b>
    3f70:	8b 8d f4 fe ff ff    	mov    -0x10c(%ebp),%ecx
    3f76:	8b 45 08             	mov    0x8(%ebp),%eax
    3f79:	52                   	push   %edx
    3f7a:	52                   	push   %edx
    3f7b:	51                   	push   %ecx
    3f7c:	8b 58 0c             	mov    0xc(%eax),%ebx
    3f7f:	53                   	push   %ebx
    3f80:	e8 2b 16 00 00       	call   55b0 <loc_service_add_to_cat@plt>
    3f85:	83 c4 10             	add    $0x10,%esp
    3f88:	89 c3                	mov    %eax,%ebx
    3f8a:	85 c0                	test   %eax,%eax
    3f8c:	75 4a                	jne    3fd8 <graph_register_visualizer+0xe8>
    3f8e:	83 ec 0c             	sub    $0xc,%esp
    3f91:	68 b4 6f 00 00       	push   $0x6fb4
    3f96:	e8 05 17 00 00       	call   56a0 <fibril_mutex_lock@plt>
    3f9b:	8b 45 08             	mov    0x8(%ebp),%eax
    3f9e:	8b 4d 08             	mov    0x8(%ebp),%ecx
    3fa1:	c7 40 04 cc 6f 00 00 	movl   $0x6fcc,0x4(%eax)
    3fa8:	a1 cc 6f 00 00       	mov    0x6fcc,%eax
    3fad:	89 01                	mov    %eax,(%ecx)
    3faf:	a1 cc 6f 00 00       	mov    0x6fcc,%eax
    3fb4:	89 0d cc 6f 00 00    	mov    %ecx,0x6fcc
    3fba:	89 48 04             	mov    %ecx,0x4(%eax)
    3fbd:	c7 04 24 b4 6f 00 00 	movl   $0x6fb4,(%esp)
    3fc4:	e8 77 15 00 00       	call   5540 <fibril_mutex_unlock@plt>
    3fc9:	83 c4 10             	add    $0x10,%esp
    3fcc:	e9 7a ff ff ff       	jmp    3f4b <graph_register_visualizer+0x5b>
    3fd1:	8d b4 26 00 00 00 00 	lea    0x0(%esi,%eiz,1),%esi
    3fd8:	8b 45 08             	mov    0x8(%ebp),%eax
    3fdb:	83 ec 0c             	sub    $0xc,%esp
    3fde:	8b 40 0c             	mov    0xc(%eax),%eax
    3fe1:	50                   	push   %eax
    3fe2:	e8 89 15 00 00       	call   5570 <loc_service_unregister@plt>
    3fe7:	83 c4 10             	add    $0x10,%esp
    3fea:	e9 5c ff ff ff       	jmp    3f4b <graph_register_visualizer+0x5b>
    3fef:	90                   	nop

00003ff0 <graph_register_renderer>:
    3ff0:	55                   	push   %ebp
    3ff1:	89 e5                	mov    %esp,%ebp
    3ff3:	56                   	push   %esi
    3ff4:	53                   	push   %ebx
    3ff5:	81 ec 14 01 00 00    	sub    $0x114,%esp
    3ffb:	8d b5 f8 fe ff ff    	lea    -0x108(%ebp),%esi
    4001:	a1 b4 75 00 00       	mov    0x75b4,%eax
    4006:	50                   	push   %eax
    4007:	68 01 51 00 00       	push   $0x5101
    400c:	8d 50 01             	lea    0x1(%eax),%edx
    400f:	6a 00                	push   $0x0
    4011:	68 ec 50 00 00       	push   $0x50ec
    4016:	68 f5 50 00 00       	push   $0x50f5
    401b:	68 ff 00 00 00       	push   $0xff
    4020:	56                   	push   %esi
    4021:	89 15 b4 75 00 00    	mov    %edx,0x75b4
    4027:	e8 c4 13 00 00       	call   53f0 <snprintf@plt>
    402c:	83 c4 1c             	add    $0x1c,%esp
    402f:	8d 85 f4 fe ff ff    	lea    -0x10c(%ebp),%eax
    4035:	6a 00                	push   $0x0
    4037:	50                   	push   %eax
    4038:	68 05 51 00 00       	push   $0x5105
    403d:	e8 6e 13 00 00       	call   53b0 <loc_category_get_id@plt>
    4042:	83 c4 10             	add    $0x10,%esp
    4045:	89 c3                	mov    %eax,%ebx
    4047:	85 c0                	test   %eax,%eax
    4049:	74 0d                	je     4058 <graph_register_renderer+0x68>
    404b:	8d 65 f8             	lea    -0x8(%ebp),%esp
    404e:	89 d8                	mov    %ebx,%eax
    4050:	5b                   	pop    %ebx
    4051:	5e                   	pop    %esi
    4052:	5d                   	pop    %ebp
    4053:	c3                   	ret    
    4054:	8d 74 26 00          	lea    0x0(%esi,%eiz,1),%esi
    4058:	50                   	push   %eax
    4059:	50                   	push   %eax
    405a:	8b 45 08             	mov    0x8(%ebp),%eax
    405d:	83 c0 0c             	add    $0xc,%eax
    4060:	50                   	push   %eax
    4061:	56                   	push   %esi
    4062:	e8 a9 13 00 00       	call   5410 <loc_service_register@plt>
    4067:	83 c4 10             	add    $0x10,%esp
    406a:	89 c3                	mov    %eax,%ebx
    406c:	85 c0                	test   %eax,%eax
    406e:	75 db                	jne    404b <graph_register_renderer+0x5b>
    4070:	8b 8d f4 fe ff ff    	mov    -0x10c(%ebp),%ecx
    4076:	8b 45 08             	mov    0x8(%ebp),%eax
    4079:	52                   	push   %edx
    407a:	52                   	push   %edx
    407b:	51                   	push   %ecx
    407c:	8b 58 0c             	mov    0xc(%eax),%ebx
    407f:	53                   	push   %ebx
    4080:	e8 2b 15 00 00       	call   55b0 <loc_service_add_to_cat@plt>
    4085:	83 c4 10             	add    $0x10,%esp
    4088:	89 c3                	mov    %eax,%ebx
    408a:	85 c0                	test   %eax,%eax
    408c:	75 4a                	jne    40d8 <graph_register_renderer+0xe8>
    408e:	83 ec 0c             	sub    $0xc,%esp
    4091:	68 a4 6f 00 00       	push   $0x6fa4
    4096:	e8 05 16 00 00       	call   56a0 <fibril_mutex_lock@plt>
    409b:	8b 45 08             	mov    0x8(%ebp),%eax
    409e:	8b 4d 08             	mov    0x8(%ebp),%ecx
    40a1:	c7 40 04 c4 6f 00 00 	movl   $0x6fc4,0x4(%eax)
    40a8:	a1 c4 6f 00 00       	mov    0x6fc4,%eax
    40ad:	89 01                	mov    %eax,(%ecx)
    40af:	a1 c4 6f 00 00       	mov    0x6fc4,%eax
    40b4:	89 0d c4 6f 00 00    	mov    %ecx,0x6fc4
    40ba:	89 48 04             	mov    %ecx,0x4(%eax)
    40bd:	c7 04 24 a4 6f 00 00 	movl   $0x6fa4,(%esp)
    40c4:	e8 77 14 00 00       	call   5540 <fibril_mutex_unlock@plt>
    40c9:	83 c4 10             	add    $0x10,%esp
    40cc:	e9 7a ff ff ff       	jmp    404b <graph_register_renderer+0x5b>
    40d1:	8d b4 26 00 00 00 00 	lea    0x0(%esi,%eiz,1),%esi
    40d8:	8b 45 08             	mov    0x8(%ebp),%eax
    40db:	83 ec 0c             	sub    $0xc,%esp
    40de:	8b 40 0c             	mov    0xc(%eax),%eax
    40e1:	50                   	push   %eax
    40e2:	e8 89 14 00 00       	call   5570 <loc_service_unregister@plt>
    40e7:	83 c4 10             	add    $0x10,%esp
    40ea:	e9 5c ff ff ff       	jmp    404b <graph_register_renderer+0x5b>
    40ef:	90                   	nop

000040f0 <graph_get_visualizer>:
    40f0:	55                   	push   %ebp
    40f1:	89 e5                	mov    %esp,%ebp
    40f3:	53                   	push   %ebx
    40f4:	83 ec 10             	sub    $0x10,%esp
    40f7:	8b 5d 08             	mov    0x8(%ebp),%ebx
    40fa:	68 b4 6f 00 00       	push   $0x6fb4
    40ff:	e8 9c 15 00 00       	call   56a0 <fibril_mutex_lock@plt>
    4104:	a1 d0 6f 00 00       	mov    0x6fd0,%eax
    4109:	83 c4 10             	add    $0x10,%esp
    410c:	3d cc 6f 00 00       	cmp    $0x6fcc,%eax
    4111:	74 1c                	je     412f <graph_get_visualizer+0x3f>
    4113:	3b 58 0c             	cmp    0xc(%eax),%ebx
    4116:	75 0d                	jne    4125 <graph_get_visualizer+0x35>
    4118:	eb 2e                	jmp    4148 <graph_get_visualizer+0x58>
    411a:	8d b6 00 00 00 00    	lea    0x0(%esi),%esi
    4120:	39 58 0c             	cmp    %ebx,0xc(%eax)
    4123:	74 23                	je     4148 <graph_get_visualizer+0x58>
    4125:	8b 40 04             	mov    0x4(%eax),%eax
    4128:	3d cc 6f 00 00       	cmp    $0x6fcc,%eax
    412d:	75 f1                	jne    4120 <graph_get_visualizer+0x30>
    412f:	31 db                	xor    %ebx,%ebx
    4131:	83 ec 0c             	sub    $0xc,%esp
    4134:	68 b4 6f 00 00       	push   $0x6fb4
    4139:	e8 02 14 00 00       	call   5540 <fibril_mutex_unlock@plt>
    413e:	89 d8                	mov    %ebx,%eax
    4140:	8b 5d fc             	mov    -0x4(%ebp),%ebx
    4143:	c9                   	leave  
    4144:	c3                   	ret    
    4145:	8d 76 00             	lea    0x0(%esi),%esi
    4148:	89 c3                	mov    %eax,%ebx
    414a:	eb e5                	jmp    4131 <graph_get_visualizer+0x41>
    414c:	8d 74 26 00          	lea    0x0(%esi,%eiz,1),%esi

00004150 <graph_get_renderer>:
    4150:	55                   	push   %ebp
    4151:	89 e5                	mov    %esp,%ebp
    4153:	53                   	push   %ebx
    4154:	83 ec 10             	sub    $0x10,%esp
    4157:	8b 5d 08             	mov    0x8(%ebp),%ebx
    415a:	68 a4 6f 00 00       	push   $0x6fa4
    415f:	e8 3c 15 00 00       	call   56a0 <fibril_mutex_lock@plt>
    4164:	a1 c8 6f 00 00       	mov    0x6fc8,%eax
    4169:	83 c4 10             	add    $0x10,%esp
    416c:	3d c4 6f 00 00       	cmp    $0x6fc4,%eax
    4171:	74 1c                	je     418f <graph_get_renderer+0x3f>
    4173:	3b 58 0c             	cmp    0xc(%eax),%ebx
    4176:	75 0d                	jne    4185 <graph_get_renderer+0x35>
    4178:	eb 2e                	jmp    41a8 <graph_get_renderer+0x58>
    417a:	8d b6 00 00 00 00    	lea    0x0(%esi),%esi
    4180:	39 58 0c             	cmp    %ebx,0xc(%eax)
    4183:	74 23                	je     41a8 <graph_get_renderer+0x58>
    4185:	8b 40 04             	mov    0x4(%eax),%eax
    4188:	3d c4 6f 00 00       	cmp    $0x6fc4,%eax
    418d:	75 f1                	jne    4180 <graph_get_renderer+0x30>
    418f:	31 db                	xor    %ebx,%ebx
    4191:	83 ec 0c             	sub    $0xc,%esp
    4194:	68 a4 6f 00 00       	push   $0x6fa4
    4199:	e8 a2 13 00 00       	call   5540 <fibril_mutex_unlock@plt>
    419e:	89 d8                	mov    %ebx,%eax
    41a0:	8b 5d fc             	mov    -0x4(%ebp),%ebx
    41a3:	c9                   	leave  
    41a4:	c3                   	ret    
    41a5:	8d 76 00             	lea    0x0(%esi),%esi
    41a8:	89 c3                	mov    %eax,%ebx
    41aa:	eb e5                	jmp    4191 <graph_get_renderer+0x41>
    41ac:	8d 74 26 00          	lea    0x0(%esi,%eiz,1),%esi

000041b0 <graph_unregister_visualizer>:
    41b0:	55                   	push   %ebp
    41b1:	89 e5                	mov    %esp,%ebp
    41b3:	53                   	push   %ebx
    41b4:	83 ec 20             	sub    $0x20,%esp
    41b7:	8b 5d 08             	mov    0x8(%ebp),%ebx
    41ba:	68 b4 6f 00 00       	push   $0x6fb4
    41bf:	e8 dc 14 00 00       	call   56a0 <fibril_mutex_lock@plt>
    41c4:	8b 53 0c             	mov    0xc(%ebx),%edx
    41c7:	58                   	pop    %eax
    41c8:	52                   	push   %edx
    41c9:	e8 a2 13 00 00       	call   5570 <loc_service_unregister@plt>
    41ce:	8b 0b                	mov    (%ebx),%ecx
    41d0:	83 c4 10             	add    $0x10,%esp
    41d3:	85 c9                	test   %ecx,%ecx
    41d5:	74 0e                	je     41e5 <graph_unregister_visualizer+0x35>
    41d7:	8b 53 04             	mov    0x4(%ebx),%edx
    41da:	85 d2                	test   %edx,%edx
    41dc:	74 07                	je     41e5 <graph_unregister_visualizer+0x35>
    41de:	89 0a                	mov    %ecx,(%edx)
    41e0:	8b 0b                	mov    (%ebx),%ecx
    41e2:	89 51 04             	mov    %edx,0x4(%ecx)
    41e5:	83 ec 0c             	sub    $0xc,%esp
    41e8:	c7 03 00 00 00 00    	movl   $0x0,(%ebx)
    41ee:	c7 43 04 00 00 00 00 	movl   $0x0,0x4(%ebx)
    41f5:	89 45 f4             	mov    %eax,-0xc(%ebp)
    41f8:	68 b4 6f 00 00       	push   $0x6fb4
    41fd:	e8 3e 13 00 00       	call   5540 <fibril_mutex_unlock@plt>
    4202:	8b 45 f4             	mov    -0xc(%ebp),%eax
    4205:	8b 5d fc             	mov    -0x4(%ebp),%ebx
    4208:	c9                   	leave  
    4209:	c3                   	ret    
    420a:	8d b6 00 00 00 00    	lea    0x0(%esi),%esi

00004210 <graph_unregister_renderer>:
    4210:	55                   	push   %ebp
    4211:	89 e5                	mov    %esp,%ebp
    4213:	53                   	push   %ebx
    4214:	83 ec 20             	sub    $0x20,%esp
    4217:	8b 5d 08             	mov    0x8(%ebp),%ebx
    421a:	68 a4 6f 00 00       	push   $0x6fa4
    421f:	e8 7c 14 00 00       	call   56a0 <fibril_mutex_lock@plt>
    4224:	8b 53 0c             	mov    0xc(%ebx),%edx
    4227:	58                   	pop    %eax
    4228:	52                   	push   %edx
    4229:	e8 42 13 00 00       	call   5570 <loc_service_unregister@plt>
    422e:	8b 0b                	mov    (%ebx),%ecx
    4230:	83 c4 10             	add    $0x10,%esp
    4233:	85 c9                	test   %ecx,%ecx
    4235:	74 0e                	je     4245 <graph_unregister_renderer+0x35>
    4237:	8b 53 04             	mov    0x4(%ebx),%edx
    423a:	85 d2                	test   %edx,%edx
    423c:	74 07                	je     4245 <graph_unregister_renderer+0x35>
    423e:	89 0a                	mov    %ecx,(%edx)
    4240:	8b 0b                	mov    (%ebx),%ecx
    4242:	89 51 04             	mov    %edx,0x4(%ecx)
    4245:	83 ec 0c             	sub    $0xc,%esp
    4248:	c7 03 00 00 00 00    	movl   $0x0,(%ebx)
    424e:	c7 43 04 00 00 00 00 	movl   $0x0,0x4(%ebx)
    4255:	89 45 f4             	mov    %eax,-0xc(%ebp)
    4258:	68 a4 6f 00 00       	push   $0x6fa4
    425d:	e8 de 12 00 00       	call   5540 <fibril_mutex_unlock@plt>
    4262:	8b 45 f4             	mov    -0xc(%ebp),%eax
    4265:	8b 5d fc             	mov    -0x4(%ebp),%ebx
    4268:	c9                   	leave  
    4269:	c3                   	ret    
    426a:	8d b6 00 00 00 00    	lea    0x0(%esi),%esi

00004270 <graph_destroy_visualizer>:
    4270:	55                   	push   %ebp
    4271:	89 e5                	mov    %esp,%ebp
    4273:	53                   	push   %ebx
    4274:	51                   	push   %ecx
    4275:	8b 5d 08             	mov    0x8(%ebp),%ebx
    4278:	8b 43 08             	mov    0x8(%ebx),%eax
    427b:	85 c0                	test   %eax,%eax
    427d:	75 50                	jne    42cf <graph_destroy_visualizer+0x5f>
    427f:	8b 43 14             	mov    0x14(%ebx),%eax
    4282:	85 c0                	test   %eax,%eax
    4284:	0f 85 c3 00 00 00    	jne    434d <graph_destroy_visualizer+0xdd>
    428a:	83 ec 0c             	sub    $0xc,%esp
    428d:	8d 43 18             	lea    0x18(%ebx),%eax
    4290:	50                   	push   %eax
    4291:	e8 8a 11 00 00       	call   5420 <fibril_mutex_is_locked@plt>
    4296:	83 c4 10             	add    $0x10,%esp
    4299:	84 c0                	test   %al,%al
    429b:	0f 85 97 00 00 00    	jne    4338 <graph_destroy_visualizer+0xc8>
    42a1:	8d 43 28             	lea    0x28(%ebx),%eax
    42a4:	39 43 2c             	cmp    %eax,0x2c(%ebx)
    42a7:	75 7a                	jne    4323 <graph_destroy_visualizer+0xb3>
    42a9:	80 7b 5c 00          	cmpb   $0x0,0x5c(%ebx)
    42ad:	75 5f                	jne    430e <graph_destroy_visualizer+0x9e>
    42af:	8b 83 80 00 00 00    	mov    0x80(%ebx),%eax
    42b5:	85 c0                	test   %eax,%eax
    42b7:	75 40                	jne    42f9 <graph_destroy_visualizer+0x89>
    42b9:	8b 93 84 00 00 00    	mov    0x84(%ebx),%edx
    42bf:	85 d2                	test   %edx,%edx
    42c1:	75 21                	jne    42e4 <graph_destroy_visualizer+0x74>
    42c3:	89 5d 08             	mov    %ebx,0x8(%ebp)
    42c6:	8b 5d fc             	mov    -0x4(%ebp),%ebx
    42c9:	c9                   	leave  
    42ca:	e9 c1 13 00 00       	jmp    5690 <free@plt>
    42cf:	52                   	push   %edx
    42d0:	68 ca 00 00 00       	push   $0xca
    42d5:	68 0e 51 00 00       	push   $0x510e
    42da:	68 16 51 00 00       	push   $0x5116
    42df:	e8 1c 12 00 00       	call   5500 <assert_abort@plt>
    42e4:	50                   	push   %eax
    42e5:	68 d0 00 00 00       	push   $0xd0
    42ea:	68 0e 51 00 00       	push   $0x510e
    42ef:	68 8f 51 00 00       	push   $0x518f
    42f4:	e8 07 12 00 00       	call   5500 <assert_abort@plt>
    42f9:	51                   	push   %ecx
    42fa:	68 cf 00 00 00       	push   $0xcf
    42ff:	68 0e 51 00 00       	push   $0x510e
    4304:	68 78 51 00 00       	push   $0x5178
    4309:	e8 f2 11 00 00       	call   5500 <assert_abort@plt>
    430e:	50                   	push   %eax
    430f:	68 ce 00 00 00       	push   $0xce
    4314:	68 0e 51 00 00       	push   $0x510e
    4319:	68 62 51 00 00       	push   $0x5162
    431e:	e8 dd 11 00 00       	call   5500 <assert_abort@plt>
    4323:	50                   	push   %eax
    4324:	68 cd 00 00 00       	push   $0xcd
    4329:	68 0e 51 00 00       	push   $0x510e
    432e:	68 4b 51 00 00       	push   $0x514b
    4333:	e8 c8 11 00 00       	call   5500 <assert_abort@plt>
    4338:	50                   	push   %eax
    4339:	68 cc 00 00 00       	push   $0xcc
    433e:	68 0e 51 00 00       	push   $0x510e
    4343:	68 a4 51 00 00       	push   $0x51a4
    4348:	e8 b3 11 00 00       	call   5500 <assert_abort@plt>
    434d:	50                   	push   %eax
    434e:	68 cb 00 00 00       	push   $0xcb
    4353:	68 0e 51 00 00       	push   $0x510e
    4358:	68 34 51 00 00       	push   $0x5134
    435d:	e8 9e 11 00 00       	call   5500 <assert_abort@plt>
    4362:	8d b4 26 00 00 00 00 	lea    0x0(%esi,%eiz,1),%esi
    4369:	8d bc 27 00 00 00 00 	lea    0x0(%edi,%eiz,1),%edi

00004370 <graph_destroy_renderer>:
    4370:	55                   	push   %ebp
    4371:	89 e5                	mov    %esp,%ebp
    4373:	83 ec 08             	sub    $0x8,%esp
    4376:	8b 45 08             	mov    0x8(%ebp),%eax
    4379:	8b 50 08             	mov    0x8(%eax),%edx
    437c:	85 d2                	test   %edx,%edx
    437e:	75 09                	jne    4389 <graph_destroy_renderer+0x19>
    4380:	89 45 08             	mov    %eax,0x8(%ebp)
    4383:	c9                   	leave  
    4384:	e9 07 13 00 00       	jmp    5690 <free@plt>
    4389:	50                   	push   %eax
    438a:	68 d8 00 00 00       	push   $0xd8
    438f:	68 0e 51 00 00       	push   $0x510e
    4394:	68 cc 51 00 00       	push   $0x51cc
    4399:	e8 62 11 00 00       	call   5500 <assert_abort@plt>
    439e:	66 90                	xchg   %ax,%ax

000043a0 <graph_notify_mode_change>:
    43a0:	55                   	push   %ebp
    43a1:	89 e5                	mov    %esp,%ebp
    43a3:	53                   	push   %ebx
    43a4:	83 ec 20             	sub    $0x20,%esp
    43a7:	8b 45 08             	mov    0x8(%ebp),%eax
    43aa:	50                   	push   %eax
    43ab:	e8 80 12 00 00       	call   5630 <async_exchange_begin@plt>
    43b0:	83 c4 0c             	add    $0xc,%esp
    43b3:	8b 55 10             	mov    0x10(%ebp),%edx
    43b6:	8b 4d 0c             	mov    0xc(%ebp),%ecx
    43b9:	89 c3                	mov    %eax,%ebx
    43bb:	6a 00                	push   $0x0
    43bd:	6a 00                	push   $0x0
    43bf:	6a 00                	push   $0x0
    43c1:	6a 00                	push   $0x0
    43c3:	6a 00                	push   $0x0
    43c5:	6a 00                	push   $0x0
    43c7:	6a 00                	push   $0x0
    43c9:	52                   	push   %edx
    43ca:	51                   	push   %ecx
    43cb:	68 00 04 00 00       	push   $0x400
    43d0:	50                   	push   %eax
    43d1:	e8 da 10 00 00       	call   54b0 <async_req_fast@plt>
    43d6:	83 c4 24             	add    $0x24,%esp
    43d9:	89 45 f4             	mov    %eax,-0xc(%ebp)
    43dc:	53                   	push   %ebx
    43dd:	e8 0e 11 00 00       	call   54f0 <async_exchange_end@plt>
    43e2:	8b 45 f4             	mov    -0xc(%ebp),%eax
    43e5:	8b 5d fc             	mov    -0x4(%ebp),%ebx
    43e8:	c9                   	leave  
    43e9:	c3                   	ret    
    43ea:	8d b6 00 00 00 00    	lea    0x0(%esi),%esi

000043f0 <graph_notify_disconnect>:
    43f0:	55                   	push   %ebp
    43f1:	89 e5                	mov    %esp,%ebp
    43f3:	57                   	push   %edi
    43f4:	56                   	push   %esi
    43f5:	53                   	push   %ebx
    43f6:	83 ec 18             	sub    $0x18,%esp
    43f9:	8b 5d 08             	mov    0x8(%ebp),%ebx
    43fc:	53                   	push   %ebx
    43fd:	e8 2e 12 00 00       	call   5630 <async_exchange_begin@plt>
    4402:	83 c4 0c             	add    $0xc,%esp
    4405:	89 c6                	mov    %eax,%esi
    4407:	8b 45 0c             	mov    0xc(%ebp),%eax
    440a:	6a 00                	push   $0x0
    440c:	6a 00                	push   $0x0
    440e:	6a 00                	push   $0x0
    4410:	6a 00                	push   $0x0
    4412:	6a 00                	push   $0x0
    4414:	6a 00                	push   $0x0
    4416:	6a 00                	push   $0x0
    4418:	6a 00                	push   $0x0
    441a:	50                   	push   %eax
    441b:	68 01 04 00 00       	push   $0x401
    4420:	56                   	push   %esi
    4421:	e8 8a 10 00 00       	call   54b0 <async_req_fast@plt>
    4426:	83 c4 24             	add    $0x24,%esp
    4429:	89 c7                	mov    %eax,%edi
    442b:	56                   	push   %esi
    442c:	e8 bf 10 00 00       	call   54f0 <async_exchange_end@plt>
    4431:	89 1c 24             	mov    %ebx,(%esp)
    4434:	e8 a7 0f 00 00       	call   53e0 <async_hangup@plt>
    4439:	8d 65 f4             	lea    -0xc(%ebp),%esp
    443c:	89 f8                	mov    %edi,%eax
    443e:	5b                   	pop    %ebx
    443f:	5e                   	pop    %esi
    4440:	5f                   	pop    %edi
    4441:	5d                   	pop    %ebp
    4442:	c3                   	ret    
    4443:	8d b6 00 00 00 00    	lea    0x0(%esi),%esi
    4449:	8d bc 27 00 00 00 00 	lea    0x0(%edi,%eiz,1),%edi

00004450 <graph_visualizer_connection>:
    4450:	55                   	push   %ebp
    4451:	31 c0                	xor    %eax,%eax
    4453:	89 e5                	mov    %esp,%ebp
    4455:	53                   	push   %ebx
    4456:	bb 01 00 00 00       	mov    $0x1,%ebx
    445b:	8b 4d 08             	mov    0x8(%ebp),%ecx
    445e:	8b 55 0c             	mov    0xc(%ebp),%edx
    4461:	f0 0f b1 59 08       	lock cmpxchg %ebx,0x8(%ecx)
    4466:	74 11                	je     4479 <graph_visualizer_connection+0x29>
    4468:	c7 45 0c fd ff ff ff 	movl   $0xfffffffd,0xc(%ebp)
    446f:	89 55 08             	mov    %edx,0x8(%ebp)
    4472:	5b                   	pop    %ebx
    4473:	5d                   	pop    %ebp
    4474:	e9 57 10 00 00       	jmp    54d0 <async_answer_0@plt>
    4479:	89 c8                	mov    %ecx,%eax
    447b:	5b                   	pop    %ebx
    447c:	5d                   	pop    %ebp
    447d:	e9 f9 01 00 00       	jmp    467b <graph_visualizer_connection.part.10>
    4482:	8d b4 26 00 00 00 00 	lea    0x0(%esi,%eiz,1),%esi
    4489:	8d bc 27 00 00 00 00 	lea    0x0(%edi,%eiz,1),%edi

00004490 <graph_renderer_connection>:
    4490:	55                   	push   %ebp
    4491:	89 e5                	mov    %esp,%ebp
    4493:	53                   	push   %ebx
    4494:	83 ec 3c             	sub    $0x3c,%esp
    4497:	8b 5d 08             	mov    0x8(%ebp),%ebx
    449a:	f0 ff 43 08          	lock incl 0x8(%ebx)
    449e:	8b 45 0c             	mov    0xc(%ebp),%eax
    44a1:	6a 00                	push   $0x0
    44a3:	50                   	push   %eax
    44a4:	e8 27 10 00 00       	call   54d0 <async_answer_0@plt>
    44a9:	8d 45 d4             	lea    -0x2c(%ebp),%eax
    44ac:	5a                   	pop    %edx
    44ad:	59                   	pop    %ecx
    44ae:	6a 00                	push   $0x0
    44b0:	50                   	push   %eax
    44b1:	e8 4a 11 00 00       	call   5600 <async_get_call_timeout@plt>
    44b6:	5a                   	pop    %edx
    44b7:	59                   	pop    %ecx
    44b8:	6a f2                	push   $0xfffffff2
    44ba:	50                   	push   %eax
    44bb:	e8 10 10 00 00       	call   54d0 <async_answer_0@plt>
    44c0:	f0 ff 4b 08          	lock decl 0x8(%ebx)
    44c4:	83 c4 10             	add    $0x10,%esp
    44c7:	8b 5d fc             	mov    -0x4(%ebp),%ebx
    44ca:	c9                   	leave  
    44cb:	c3                   	ret    
    44cc:	8d 74 26 00          	lea    0x0(%esi,%eiz,1),%esi

000044d0 <graph_client_connection>:
    44d0:	55                   	push   %ebp
    44d1:	89 e5                	mov    %esp,%ebp
    44d3:	57                   	push   %edi
    44d4:	56                   	push   %esi
    44d5:	53                   	push   %ebx
    44d6:	83 ec 48             	sub    $0x48,%esp
    44d9:	8b 5d 0c             	mov    0xc(%ebp),%ebx
    44dc:	8b 7b 08             	mov    0x8(%ebx),%edi
    44df:	68 b4 6f 00 00       	push   $0x6fb4
    44e4:	e8 b7 11 00 00       	call   56a0 <fibril_mutex_lock@plt>
    44e9:	8b 35 d0 6f 00 00    	mov    0x6fd0,%esi
    44ef:	83 c4 10             	add    $0x10,%esp
    44f2:	81 fe cc 6f 00 00    	cmp    $0x6fcc,%esi
    44f8:	75 15                	jne    450f <graph_client_connection+0x3f>
    44fa:	e9 a9 00 00 00       	jmp    45a8 <graph_client_connection+0xd8>
    44ff:	90                   	nop
    4500:	8b 76 04             	mov    0x4(%esi),%esi
    4503:	81 fe cc 6f 00 00    	cmp    $0x6fcc,%esi
    4509:	0f 84 99 00 00 00    	je     45a8 <graph_client_connection+0xd8>
    450f:	3b 7e 0c             	cmp    0xc(%esi),%edi
    4512:	75 ec                	jne    4500 <graph_client_connection+0x30>
    4514:	83 ec 0c             	sub    $0xc,%esp
    4517:	68 b4 6f 00 00       	push   $0x6fb4
    451c:	e8 1f 10 00 00       	call   5540 <fibril_mutex_unlock@plt>
    4521:	8b 7b 08             	mov    0x8(%ebx),%edi
    4524:	c7 04 24 a4 6f 00 00 	movl   $0x6fa4,(%esp)
    452b:	e8 70 11 00 00       	call   56a0 <fibril_mutex_lock@plt>
    4530:	8b 1d c8 6f 00 00    	mov    0x6fc8,%ebx
    4536:	83 c4 10             	add    $0x10,%esp
    4539:	81 fb c4 6f 00 00    	cmp    $0x6fc4,%ebx
    453f:	0f 84 12 01 00 00    	je     4657 <graph_client_connection+0x187>
    4545:	3b 7b 0c             	cmp    0xc(%ebx),%edi
    4548:	75 0f                	jne    4559 <graph_client_connection+0x89>
    454a:	e9 b9 00 00 00       	jmp    4608 <graph_client_connection+0x138>
    454f:	90                   	nop
    4550:	39 7b 0c             	cmp    %edi,0xc(%ebx)
    4553:	0f 84 af 00 00 00    	je     4608 <graph_client_connection+0x138>
    4559:	8b 5b 04             	mov    0x4(%ebx),%ebx
    455c:	81 fb c4 6f 00 00    	cmp    $0x6fc4,%ebx
    4562:	75 ec                	jne    4550 <graph_client_connection+0x80>
    4564:	83 ec 0c             	sub    $0xc,%esp
    4567:	68 a4 6f 00 00       	push   $0x6fa4
    456c:	e8 cf 0f 00 00       	call   5540 <fibril_mutex_unlock@plt>
    4571:	83 c4 10             	add    $0x10,%esp
    4574:	85 f6                	test   %esi,%esi
    4576:	74 73                	je     45eb <graph_client_connection+0x11b>
    4578:	ba 01 00 00 00       	mov    $0x1,%edx
    457d:	31 c0                	xor    %eax,%eax
    457f:	f0 0f b1 56 08       	lock cmpxchg %edx,0x8(%esi)
    4584:	0f 84 e2 00 00 00    	je     466c <graph_client_connection+0x19c>
    458a:	8b 75 08             	mov    0x8(%ebp),%esi
    458d:	53                   	push   %ebx
    458e:	53                   	push   %ebx
    458f:	6a fd                	push   $0xfffffffd
    4591:	56                   	push   %esi
    4592:	e8 39 0f 00 00       	call   54d0 <async_answer_0@plt>
    4597:	83 c4 10             	add    $0x10,%esp
    459a:	8d 65 f4             	lea    -0xc(%ebp),%esp
    459d:	5b                   	pop    %ebx
    459e:	5e                   	pop    %esi
    459f:	5f                   	pop    %edi
    45a0:	5d                   	pop    %ebp
    45a1:	c3                   	ret    
    45a2:	8d b6 00 00 00 00    	lea    0x0(%esi),%esi
    45a8:	83 ec 0c             	sub    $0xc,%esp
    45ab:	31 f6                	xor    %esi,%esi
    45ad:	68 b4 6f 00 00       	push   $0x6fb4
    45b2:	e8 89 0f 00 00       	call   5540 <fibril_mutex_unlock@plt>
    45b7:	8b 7b 08             	mov    0x8(%ebx),%edi
    45ba:	c7 04 24 a4 6f 00 00 	movl   $0x6fa4,(%esp)
    45c1:	e8 da 10 00 00       	call   56a0 <fibril_mutex_lock@plt>
    45c6:	8b 1d c8 6f 00 00    	mov    0x6fc8,%ebx
    45cc:	83 c4 10             	add    $0x10,%esp
    45cf:	81 fb c4 6f 00 00    	cmp    $0x6fc4,%ebx
    45d5:	0f 85 6a ff ff ff    	jne    4545 <graph_client_connection+0x75>
    45db:	83 ec 0c             	sub    $0xc,%esp
    45de:	68 a4 6f 00 00       	push   $0x6fa4
    45e3:	e8 58 0f 00 00       	call   5540 <fibril_mutex_unlock@plt>
    45e8:	83 c4 10             	add    $0x10,%esp
    45eb:	8b 55 08             	mov    0x8(%ebp),%edx
    45ee:	50                   	push   %eax
    45ef:	50                   	push   %eax
    45f0:	6a ff                	push   $0xffffffff
    45f2:	52                   	push   %edx
    45f3:	e8 d8 0e 00 00       	call   54d0 <async_answer_0@plt>
    45f8:	83 c4 10             	add    $0x10,%esp
    45fb:	8d 65 f4             	lea    -0xc(%ebp),%esp
    45fe:	5b                   	pop    %ebx
    45ff:	5e                   	pop    %esi
    4600:	5f                   	pop    %edi
    4601:	5d                   	pop    %ebp
    4602:	c3                   	ret    
    4603:	90                   	nop
    4604:	8d 74 26 00          	lea    0x0(%esi,%eiz,1),%esi
    4608:	83 ec 0c             	sub    $0xc,%esp
    460b:	68 a4 6f 00 00       	push   $0x6fa4
    4610:	e8 2b 0f 00 00       	call   5540 <fibril_mutex_unlock@plt>
    4615:	83 c4 10             	add    $0x10,%esp
    4618:	85 f6                	test   %esi,%esi
    461a:	0f 85 58 ff ff ff    	jne    4578 <graph_client_connection+0xa8>
    4620:	f0 ff 43 08          	lock incl 0x8(%ebx)
    4624:	8b 75 08             	mov    0x8(%ebp),%esi
    4627:	51                   	push   %ecx
    4628:	51                   	push   %ecx
    4629:	6a 00                	push   $0x0
    462b:	56                   	push   %esi
    462c:	e8 9f 0e 00 00       	call   54d0 <async_answer_0@plt>
    4631:	5f                   	pop    %edi
    4632:	58                   	pop    %eax
    4633:	8d 45 c4             	lea    -0x3c(%ebp),%eax
    4636:	6a 00                	push   $0x0
    4638:	50                   	push   %eax
    4639:	e8 c2 0f 00 00       	call   5600 <async_get_call_timeout@plt>
    463e:	5a                   	pop    %edx
    463f:	59                   	pop    %ecx
    4640:	6a f2                	push   $0xfffffff2
    4642:	50                   	push   %eax
    4643:	e8 88 0e 00 00       	call   54d0 <async_answer_0@plt>
    4648:	f0 ff 4b 08          	lock decl 0x8(%ebx)
    464c:	83 c4 10             	add    $0x10,%esp
    464f:	8d 65 f4             	lea    -0xc(%ebp),%esp
    4652:	5b                   	pop    %ebx
    4653:	5e                   	pop    %esi
    4654:	5f                   	pop    %edi
    4655:	5d                   	pop    %ebp
    4656:	c3                   	ret    
    4657:	83 ec 0c             	sub    $0xc,%esp
    465a:	68 a4 6f 00 00       	push   $0x6fa4
    465f:	e8 dc 0e 00 00       	call   5540 <fibril_mutex_unlock@plt>
    4664:	83 c4 10             	add    $0x10,%esp
    4667:	e9 0c ff ff ff       	jmp    4578 <graph_client_connection+0xa8>
    466c:	8b 55 08             	mov    0x8(%ebp),%edx
    466f:	89 f0                	mov    %esi,%eax
    4671:	e8 05 00 00 00       	call   467b <graph_visualizer_connection.part.10>
    4676:	e9 1f ff ff ff       	jmp    459a <graph_client_connection+0xca>

0000467b <graph_visualizer_connection.part.10>:
    467b:	55                   	push   %ebp
    467c:	89 e5                	mov    %esp,%ebp
    467e:	57                   	push   %edi
    467f:	56                   	push   %esi
    4680:	53                   	push   %ebx
    4681:	81 ec 94 00 00 00    	sub    $0x94,%esp
    4687:	8d 75 9c             	lea    -0x64(%ebp),%esi
    468a:	89 c3                	mov    %eax,%ebx
    468c:	6a 00                	push   $0x0
    468e:	52                   	push   %edx
    468f:	e8 3c 0e 00 00       	call   54d0 <async_answer_0@plt>
    4694:	58                   	pop    %eax
    4695:	5a                   	pop    %edx
    4696:	6a 00                	push   $0x0
    4698:	56                   	push   %esi
    4699:	e8 62 0f 00 00       	call   5600 <async_get_call_timeout@plt>
    469e:	59                   	pop    %ecx
    469f:	89 c7                	mov    %eax,%edi
    46a1:	58                   	pop    %eax
    46a2:	56                   	push   %esi
    46a3:	6a 01                	push   $0x1
    46a5:	e8 a6 0e 00 00       	call   5550 <async_callback_receive_start@plt>
    46aa:	83 c4 10             	add    $0x10,%esp
    46ad:	89 43 14             	mov    %eax,0x14(%ebx)
    46b0:	85 c0                	test   %eax,%eax
    46b2:	74 18                	je     46cc <graph_visualizer_connection.part.10+0x51>
    46b4:	50                   	push   %eax
    46b5:	50                   	push   %eax
    46b6:	6a 00                	push   $0x0
    46b8:	57                   	push   %edi
    46b9:	e8 12 0e 00 00       	call   54d0 <async_answer_0@plt>
    46be:	83 c4 10             	add    $0x10,%esp
    46c1:	8d 43 28             	lea    0x28(%ebx),%eax
    46c4:	89 45 80             	mov    %eax,-0x80(%ebp)
    46c7:	e9 84 00 00 00       	jmp    4750 <graph_visualizer_connection.part.10+0xd5>
    46cc:	56                   	push   %esi
    46cd:	56                   	push   %esi
    46ce:	6a fd                	push   $0xfffffffd
    46d0:	57                   	push   %edi
    46d1:	e8 fa 0d 00 00       	call   54d0 <async_answer_0@plt>
    46d6:	83 c4 10             	add    $0x10,%esp
    46d9:	eb e6                	jmp    46c1 <graph_visualizer_connection.part.10+0x46>
    46db:	50                   	push   %eax
    46dc:	50                   	push   %eax
    46dd:	8d 45 c0             	lea    -0x40(%ebp),%eax
    46e0:	50                   	push   %eax
    46e1:	8d 45 98             	lea    -0x68(%ebp),%eax
    46e4:	50                   	push   %eax
    46e5:	e8 e6 0e 00 00       	call   55d0 <async_data_read_receive@plt>
    46ea:	83 c4 10             	add    $0x10,%esp
    46ed:	84 c0                	test   %al,%al
    46ef:	0f 84 b4 01 00 00    	je     48a9 <graph_visualizer_connection.part.10+0x22e>
    46f5:	83 ec 0c             	sub    $0xc,%esp
    46f8:	8d 73 18             	lea    0x18(%ebx),%esi
    46fb:	56                   	push   %esi
    46fc:	e8 9f 0f 00 00       	call   56a0 <fibril_mutex_lock@plt>
    4701:	83 c4 10             	add    $0x10,%esp
    4704:	31 c9                	xor    %ecx,%ecx
    4706:	31 c0                	xor    %eax,%eax
    4708:	85 c9                	test   %ecx,%ecx
    470a:	75 0c                	jne    4718 <graph_visualizer_connection.part.10+0x9d>
    470c:	8b 53 2c             	mov    0x2c(%ebx),%edx
    470f:	3b 55 80             	cmp    -0x80(%ebp),%edx
    4712:	0f 85 22 01 00 00    	jne    483a <graph_visualizer_connection.part.10+0x1bf>
    4718:	85 c0                	test   %eax,%eax
    471a:	0f 85 40 04 00 00    	jne    4b60 <graph_visualizer_connection.part.10+0x4e5>
    4720:	83 ec 0c             	sub    $0xc,%esp
    4723:	56                   	push   %esi
    4724:	e8 17 0e 00 00       	call   5540 <fibril_mutex_unlock@plt>
    4729:	59                   	pop    %ecx
    472a:	5f                   	pop    %edi
    472b:	6a ff                	push   $0xffffffff
    472d:	ff 75 98             	pushl  -0x68(%ebp)
    4730:	e8 9b 0d 00 00       	call   54d0 <async_answer_0@plt>
    4735:	5f                   	pop    %edi
    4736:	58                   	pop    %eax
    4737:	6a ff                	push   $0xffffffff
    4739:	ff 75 84             	pushl  -0x7c(%ebp)
    473c:	e8 8f 0d 00 00       	call   54d0 <async_answer_0@plt>
    4741:	83 c4 10             	add    $0x10,%esp
    4744:	83 ec 0c             	sub    $0xc,%esp
    4747:	56                   	push   %esi
    4748:	e8 f3 0d 00 00       	call   5540 <fibril_mutex_unlock@plt>
    474d:	83 c4 10             	add    $0x10,%esp
    4750:	8d 45 9c             	lea    -0x64(%ebp),%eax
    4753:	51                   	push   %ecx
    4754:	51                   	push   %ecx
    4755:	6a 00                	push   $0x0
    4757:	50                   	push   %eax
    4758:	e8 a3 0e 00 00       	call   5600 <async_get_call_timeout@plt>
    475d:	89 45 84             	mov    %eax,-0x7c(%ebp)
    4760:	8b 45 9c             	mov    -0x64(%ebp),%eax
    4763:	83 c4 10             	add    $0x10,%esp
    4766:	85 c0                	test   %eax,%eax
    4768:	0f 84 c2 03 00 00    	je     4b30 <graph_visualizer_connection.part.10+0x4b5>
    476e:	2d 00 04 00 00       	sub    $0x400,%eax
    4773:	83 f8 09             	cmp    $0x9,%eax
    4776:	0f 87 b4 03 00 00    	ja     4b30 <graph_visualizer_connection.part.10+0x4b5>
    477c:	ff 24 85 c0 50 00 00 	jmp    *0x50c0(,%eax,4)
    4783:	8b 45 a0             	mov    -0x60(%ebp),%eax
    4786:	83 ec 0c             	sub    $0xc,%esp
    4789:	89 43 10             	mov    %eax,0x10(%ebx)
    478c:	53                   	push   %ebx
    478d:	ff 53 60             	call   *0x60(%ebx)
    4790:	e9 88 03 00 00       	jmp    4b1d <graph_visualizer_connection.part.10+0x4a2>
    4795:	80 7b 5c 00          	cmpb   $0x0,0x5c(%ebx)
    4799:	74 20                	je     47bb <graph_visualizer_connection.part.10+0x140>
    479b:	8b 83 80 00 00 00    	mov    0x80(%ebx),%eax
    47a1:	85 c0                	test   %eax,%eax
    47a3:	74 16                	je     47bb <graph_visualizer_connection.part.10+0x140>
    47a5:	83 ec 0c             	sub    $0xc,%esp
    47a8:	50                   	push   %eax
    47a9:	e8 12 0d 00 00       	call   54c0 <as_area_destroy@plt>
    47ae:	c7 83 80 00 00 00 00 	movl   $0x0,0x80(%ebx)
    47b5:	00 00 00 
    47b8:	83 c4 10             	add    $0x10,%esp
    47bb:	83 ec 0c             	sub    $0xc,%esp
    47be:	53                   	push   %ebx
    47bf:	ff 53 64             	call   *0x64(%ebx)
    47c2:	83 c4 10             	add    $0x10,%esp
    47c5:	80 7b 5c 00          	cmpb   $0x0,0x5c(%ebx)
    47c9:	74 04                	je     47cf <graph_visualizer_connection.part.10+0x154>
    47cb:	c6 43 5c 00          	movb   $0x0,0x5c(%ebx)
    47cf:	52                   	push   %edx
    47d0:	52                   	push   %edx
    47d1:	50                   	push   %eax
    47d2:	ff 75 84             	pushl  -0x7c(%ebp)
    47d5:	e8 f6 0c 00 00       	call   54d0 <async_answer_0@plt>
    47da:	83 c4 10             	add    $0x10,%esp
    47dd:	e9 5d 03 00 00       	jmp    4b3f <graph_visualizer_connection.part.10+0x4c4>
    47e2:	50                   	push   %eax
    47e3:	50                   	push   %eax
    47e4:	8d 45 c0             	lea    -0x40(%ebp),%eax
    47e7:	50                   	push   %eax
    47e8:	8d 45 98             	lea    -0x68(%ebp),%eax
    47eb:	50                   	push   %eax
    47ec:	e8 df 0d 00 00       	call   55d0 <async_data_read_receive@plt>
    47f1:	83 c4 10             	add    $0x10,%esp
    47f4:	84 c0                	test   %al,%al
    47f6:	0f 84 ad 00 00 00    	je     48a9 <graph_visualizer_connection.part.10+0x22e>
    47fc:	83 ec 0c             	sub    $0xc,%esp
    47ff:	8d 73 18             	lea    0x18(%ebx),%esi
    4802:	56                   	push   %esi
    4803:	e8 98 0e 00 00       	call   56a0 <fibril_mutex_lock@plt>
    4808:	8b 43 2c             	mov    0x2c(%ebx),%eax
    480b:	83 c4 10             	add    $0x10,%esp
    480e:	31 d2                	xor    %edx,%edx
    4810:	8b 4d a0             	mov    -0x60(%ebp),%ecx
    4813:	3b 45 80             	cmp    -0x80(%ebp),%eax
    4816:	0f 84 d3 00 00 00    	je     48ef <graph_visualizer_connection.part.10+0x274>
    481c:	85 c0                	test   %eax,%eax
    481e:	0f 84 cb 00 00 00    	je     48ef <graph_visualizer_connection.part.10+0x274>
    4824:	39 d1                	cmp    %edx,%ecx
    4826:	0f 84 34 03 00 00    	je     4b60 <graph_visualizer_connection.part.10+0x4e5>
    482c:	8b 40 04             	mov    0x4(%eax),%eax
    482f:	42                   	inc    %edx
    4830:	39 45 80             	cmp    %eax,-0x80(%ebp)
    4833:	75 e7                	jne    481c <graph_visualizer_connection.part.10+0x1a1>
    4835:	e9 b5 00 00 00       	jmp    48ef <graph_visualizer_connection.part.10+0x274>
    483a:	8b 7b 30             	mov    0x30(%ebx),%edi
    483d:	b9 01 00 00 00       	mov    $0x1,%ecx
    4842:	39 7a 08             	cmp    %edi,0x8(%edx)
    4845:	74 08                	je     484f <graph_visualizer_connection.part.10+0x1d4>
    4847:	8b 52 04             	mov    0x4(%edx),%edx
    484a:	e9 c0 fe ff ff       	jmp    470f <graph_visualizer_connection.part.10+0x94>
    484f:	89 d0                	mov    %edx,%eax
    4851:	e9 b2 fe ff ff       	jmp    4708 <graph_visualizer_connection.part.10+0x8d>
    4856:	8d 45 c0             	lea    -0x40(%ebp),%eax
    4859:	52                   	push   %edx
    485a:	52                   	push   %edx
    485b:	50                   	push   %eax
    485c:	8d 45 98             	lea    -0x68(%ebp),%eax
    485f:	50                   	push   %eax
    4860:	e8 6b 0d 00 00       	call   55d0 <async_data_read_receive@plt>
    4865:	83 c4 10             	add    $0x10,%esp
    4868:	84 c0                	test   %al,%al
    486a:	74 3d                	je     48a9 <graph_visualizer_connection.part.10+0x22e>
    486c:	80 7b 5c 00          	cmpb   $0x0,0x5c(%ebx)
    4870:	74 15                	je     4887 <graph_visualizer_connection.part.10+0x20c>
    4872:	50                   	push   %eax
    4873:	8d 43 34             	lea    0x34(%ebx),%eax
    4876:	ff 75 c0             	pushl  -0x40(%ebp)
    4879:	50                   	push   %eax
    487a:	ff 75 98             	pushl  -0x68(%ebp)
    487d:	e8 be 0b 00 00       	call   5440 <async_data_read_finalize@plt>
    4882:	e9 96 02 00 00       	jmp    4b1d <graph_visualizer_connection.part.10+0x4a2>
    4887:	50                   	push   %eax
    4888:	50                   	push   %eax
    4889:	6a ff                	push   $0xffffffff
    488b:	ff 75 98             	pushl  -0x68(%ebp)
    488e:	e9 fa 00 00 00       	jmp    498d <graph_visualizer_connection.part.10+0x312>
    4893:	50                   	push   %eax
    4894:	50                   	push   %eax
    4895:	8d 45 c0             	lea    -0x40(%ebp),%eax
    4898:	50                   	push   %eax
    4899:	8d 45 98             	lea    -0x68(%ebp),%eax
    489c:	50                   	push   %eax
    489d:	e8 2e 0d 00 00       	call   55d0 <async_data_read_receive@plt>
    48a2:	83 c4 10             	add    $0x10,%esp
    48a5:	84 c0                	test   %al,%al
    48a7:	75 09                	jne    48b2 <graph_visualizer_connection.part.10+0x237>
    48a9:	50                   	push   %eax
    48aa:	50                   	push   %eax
    48ab:	6a fc                	push   $0xfffffffc
    48ad:	ff 75 98             	pushl  -0x68(%ebp)
    48b0:	eb 64                	jmp    4916 <graph_visualizer_connection.part.10+0x29b>
    48b2:	83 ec 0c             	sub    $0xc,%esp
    48b5:	8d 73 18             	lea    0x18(%ebx),%esi
    48b8:	8b 7d a0             	mov    -0x60(%ebp),%edi
    48bb:	56                   	push   %esi
    48bc:	e8 df 0d 00 00       	call   56a0 <fibril_mutex_lock@plt>
    48c1:	83 c4 10             	add    $0x10,%esp
    48c4:	31 c9                	xor    %ecx,%ecx
    48c6:	31 c0                	xor    %eax,%eax
    48c8:	85 c9                	test   %ecx,%ecx
    48ca:	75 1b                	jne    48e7 <graph_visualizer_connection.part.10+0x26c>
    48cc:	8b 53 2c             	mov    0x2c(%ebx),%edx
    48cf:	3b 55 80             	cmp    -0x80(%ebp),%edx
    48d2:	74 13                	je     48e7 <graph_visualizer_connection.part.10+0x26c>
    48d4:	b9 01 00 00 00       	mov    $0x1,%ecx
    48d9:	3b 7a 08             	cmp    0x8(%edx),%edi
    48dc:	74 05                	je     48e3 <graph_visualizer_connection.part.10+0x268>
    48de:	8b 52 04             	mov    0x4(%edx),%edx
    48e1:	eb ec                	jmp    48cf <graph_visualizer_connection.part.10+0x254>
    48e3:	89 d0                	mov    %edx,%eax
    48e5:	eb e1                	jmp    48c8 <graph_visualizer_connection.part.10+0x24d>
    48e7:	85 c0                	test   %eax,%eax
    48e9:	0f 85 71 02 00 00    	jne    4b60 <graph_visualizer_connection.part.10+0x4e5>
    48ef:	50                   	push   %eax
    48f0:	50                   	push   %eax
    48f1:	e9 35 fe ff ff       	jmp    472b <graph_visualizer_connection.part.10+0xb0>
    48f6:	8d 45 94             	lea    -0x6c(%ebp),%eax
    48f9:	56                   	push   %esi
    48fa:	50                   	push   %eax
    48fb:	8d 45 90             	lea    -0x70(%ebp),%eax
    48fe:	50                   	push   %eax
    48ff:	8d 45 8c             	lea    -0x74(%ebp),%eax
    4902:	50                   	push   %eax
    4903:	e8 88 0b 00 00       	call   5490 <async_share_out_receive@plt>
    4908:	83 c4 10             	add    $0x10,%esp
    490b:	84 c0                	test   %al,%al
    490d:	75 20                	jne    492f <graph_visualizer_connection.part.10+0x2b4>
    490f:	51                   	push   %ecx
    4910:	51                   	push   %ecx
    4911:	6a fc                	push   $0xfffffffc
    4913:	ff 75 8c             	pushl  -0x74(%ebp)
    4916:	e8 b5 0b 00 00       	call   54d0 <async_answer_0@plt>
    491b:	58                   	pop    %eax
    491c:	5a                   	pop    %edx
    491d:	6a fc                	push   $0xfffffffc
    491f:	ff 75 84             	pushl  -0x7c(%ebp)
    4922:	e8 a9 0b 00 00       	call   54d0 <async_answer_0@plt>
    4927:	83 c4 10             	add    $0x10,%esp
    492a:	e9 21 fe ff ff       	jmp    4750 <graph_visualizer_connection.part.10+0xd5>
    492f:	83 ec 0c             	sub    $0xc,%esp
    4932:	8d 53 18             	lea    0x18(%ebx),%edx
    4935:	8b 45 a4             	mov    -0x5c(%ebp),%eax
    4938:	89 95 78 ff ff ff    	mov    %edx,-0x88(%ebp)
    493e:	52                   	push   %edx
    493f:	89 85 7c ff ff ff    	mov    %eax,-0x84(%ebp)
    4945:	8b 7d a0             	mov    -0x60(%ebp),%edi
    4948:	31 f6                	xor    %esi,%esi
    494a:	e8 51 0d 00 00       	call   56a0 <fibril_mutex_lock@plt>
    494f:	83 c4 10             	add    $0x10,%esp
    4952:	31 c0                	xor    %eax,%eax
    4954:	8b 95 78 ff ff ff    	mov    -0x88(%ebp),%edx
    495a:	85 f6                	test   %esi,%esi
    495c:	75 1b                	jne    4979 <graph_visualizer_connection.part.10+0x2fe>
    495e:	8b 4b 2c             	mov    0x2c(%ebx),%ecx
    4961:	3b 4d 80             	cmp    -0x80(%ebp),%ecx
    4964:	74 13                	je     4979 <graph_visualizer_connection.part.10+0x2fe>
    4966:	be 01 00 00 00       	mov    $0x1,%esi
    496b:	3b 79 08             	cmp    0x8(%ecx),%edi
    496e:	74 05                	je     4975 <graph_visualizer_connection.part.10+0x2fa>
    4970:	8b 49 04             	mov    0x4(%ecx),%ecx
    4973:	eb ec                	jmp    4961 <graph_visualizer_connection.part.10+0x2e6>
    4975:	89 c8                	mov    %ecx,%eax
    4977:	eb e1                	jmp    495a <graph_visualizer_connection.part.10+0x2df>
    4979:	85 c0                	test   %eax,%eax
    497b:	75 29                	jne    49a6 <graph_visualizer_connection.part.10+0x32b>
    497d:	83 ec 0c             	sub    $0xc,%esp
    4980:	52                   	push   %edx
    4981:	e8 ba 0b 00 00       	call   5540 <fibril_mutex_unlock@plt>
    4986:	5f                   	pop    %edi
    4987:	58                   	pop    %eax
    4988:	6a ff                	push   $0xffffffff
    498a:	ff 75 8c             	pushl  -0x74(%ebp)
    498d:	e8 3e 0b 00 00       	call   54d0 <async_answer_0@plt>
    4992:	59                   	pop    %ecx
    4993:	5e                   	pop    %esi
    4994:	6a ff                	push   $0xffffffff
    4996:	ff 75 84             	pushl  -0x7c(%ebp)
    4999:	e8 32 0b 00 00       	call   54d0 <async_answer_0@plt>
    499e:	83 c4 10             	add    $0x10,%esp
    49a1:	e9 aa fd ff ff       	jmp    4750 <graph_visualizer_connection.part.10+0xd5>
    49a6:	8d 70 08             	lea    0x8(%eax),%esi
    49a9:	8d 7d c0             	lea    -0x40(%ebp),%edi
    49ac:	b9 0a 00 00 00       	mov    $0xa,%ecx
    49b1:	83 ec 0c             	sub    $0xc,%esp
    49b4:	f3 a5                	rep movsl %ds:(%esi),%es:(%edi)
    49b6:	8b 70 0c             	mov    0xc(%eax),%esi
    49b9:	8b 78 1c             	mov    0x1c(%eax),%edi
    49bc:	8b 40 20             	mov    0x20(%eax),%eax
    49bf:	52                   	push   %edx
    49c0:	89 bd 74 ff ff ff    	mov    %edi,-0x8c(%ebp)
    49c6:	89 85 78 ff ff ff    	mov    %eax,-0x88(%ebp)
    49cc:	e8 6f 0b 00 00       	call   5540 <fibril_mutex_unlock@plt>
    49d1:	83 c4 10             	add    $0x10,%esp
    49d4:	3b b5 7c ff ff ff    	cmp    -0x84(%ebp),%esi
    49da:	74 20                	je     49fc <graph_visualizer_connection.part.10+0x381>
    49dc:	57                   	push   %edi
    49dd:	57                   	push   %edi
    49de:	6a f2                	push   $0xfffffff2
    49e0:	ff 75 8c             	pushl  -0x74(%ebp)
    49e3:	e8 e8 0a 00 00       	call   54d0 <async_answer_0@plt>
    49e8:	58                   	pop    %eax
    49e9:	5a                   	pop    %edx
    49ea:	6a f2                	push   $0xfffffff2
    49ec:	ff 75 84             	pushl  -0x7c(%ebp)
    49ef:	e8 dc 0a 00 00       	call   54d0 <async_answer_0@plt>
    49f4:	83 c4 10             	add    $0x10,%esp
    49f7:	e9 54 fd ff ff       	jmp    4750 <graph_visualizer_connection.part.10+0xd5>
    49fc:	8d 45 98             	lea    -0x68(%ebp),%eax
    49ff:	56                   	push   %esi
    4a00:	56                   	push   %esi
    4a01:	50                   	push   %eax
    4a02:	ff 75 8c             	pushl  -0x74(%ebp)
    4a05:	e8 06 0b 00 00       	call   5510 <async_share_out_finalize@plt>
    4a0a:	83 c4 10             	add    $0x10,%esp
    4a0d:	85 c0                	test   %eax,%eax
    4a0f:	75 06                	jne    4a17 <graph_visualizer_connection.part.10+0x39c>
    4a11:	83 7d 98 ff          	cmpl   $0xffffffff,-0x68(%ebp)
    4a15:	75 14                	jne    4a2b <graph_visualizer_connection.part.10+0x3b0>
    4a17:	51                   	push   %ecx
    4a18:	51                   	push   %ecx
    4a19:	6a fe                	push   $0xfffffffe
    4a1b:	ff 75 84             	pushl  -0x7c(%ebp)
    4a1e:	e8 ad 0a 00 00       	call   54d0 <async_answer_0@plt>
    4a23:	83 c4 10             	add    $0x10,%esp
    4a26:	e9 25 fd ff ff       	jmp    4750 <graph_visualizer_connection.part.10+0xd5>
    4a2b:	8b 8d 7c ff ff ff    	mov    -0x84(%ebp),%ecx
    4a31:	83 ec 2c             	sub    $0x2c,%esp
    4a34:	8b bd 74 ff ff ff    	mov    -0x8c(%ebp),%edi
    4a3a:	89 4d c4             	mov    %ecx,-0x3c(%ebp)
    4a3d:	8b 8d 78 ff ff ff    	mov    -0x88(%ebp),%ecx
    4a43:	89 7d d4             	mov    %edi,-0x2c(%ebp)
    4a46:	89 4d d8             	mov    %ecx,-0x28(%ebp)
    4a49:	89 e7                	mov    %esp,%edi
    4a4b:	8d 75 c0             	lea    -0x40(%ebp),%esi
    4a4e:	b9 0a 00 00 00       	mov    $0xa,%ecx
    4a53:	8b 43 68             	mov    0x68(%ebx),%eax
    4a56:	f3 a5                	rep movsl %ds:(%esi),%es:(%edi)
    4a58:	53                   	push   %ebx
    4a59:	ff d0                	call   *%eax
    4a5b:	8d 75 c0             	lea    -0x40(%ebp),%esi
    4a5e:	83 c4 30             	add    $0x30,%esp
    4a61:	85 c0                	test   %eax,%eax
    4a63:	74 1f                	je     4a84 <graph_visualizer_connection.part.10+0x409>
    4a65:	83 ec 0c             	sub    $0xc,%esp
    4a68:	ff 75 98             	pushl  -0x68(%ebp)
    4a6b:	e8 50 0a 00 00       	call   54c0 <as_area_destroy@plt>
    4a70:	58                   	pop    %eax
    4a71:	5a                   	pop    %edx
    4a72:	6a fe                	push   $0xfffffffe
    4a74:	ff 75 84             	pushl  -0x7c(%ebp)
    4a77:	e8 54 0a 00 00       	call   54d0 <async_answer_0@plt>
    4a7c:	83 c4 10             	add    $0x10,%esp
    4a7f:	e9 cc fc ff ff       	jmp    4750 <graph_visualizer_connection.part.10+0xd5>
    4a84:	80 7b 5c 00          	cmpb   $0x0,0x5c(%ebx)
    4a88:	74 16                	je     4aa0 <graph_visualizer_connection.part.10+0x425>
    4a8a:	8b 83 80 00 00 00    	mov    0x80(%ebx),%eax
    4a90:	85 c0                	test   %eax,%eax
    4a92:	74 0c                	je     4aa0 <graph_visualizer_connection.part.10+0x425>
    4a94:	83 ec 0c             	sub    $0xc,%esp
    4a97:	50                   	push   %eax
    4a98:	e8 23 0a 00 00       	call   54c0 <as_area_destroy@plt>
    4a9d:	83 c4 10             	add    $0x10,%esp
    4aa0:	8b 85 74 ff ff ff    	mov    -0x8c(%ebp),%eax
    4aa6:	8d 7b 34             	lea    0x34(%ebx),%edi
    4aa9:	89 43 78             	mov    %eax,0x78(%ebx)
    4aac:	8b 85 78 ff ff ff    	mov    -0x88(%ebp),%eax
    4ab2:	89 43 7c             	mov    %eax,0x7c(%ebx)
    4ab5:	b9 0a 00 00 00       	mov    $0xa,%ecx
    4aba:	8b 45 98             	mov    -0x68(%ebp),%eax
    4abd:	89 83 80 00 00 00    	mov    %eax,0x80(%ebx)
    4ac3:	f3 a5                	rep movsl %ds:(%esi),%es:(%edi)
    4ac5:	57                   	push   %edi
    4ac6:	57                   	push   %edi
    4ac7:	6a 00                	push   $0x0
    4ac9:	c6 43 5c 01          	movb   $0x1,0x5c(%ebx)
    4acd:	ff 75 84             	pushl  -0x7c(%ebp)
    4ad0:	e8 fb 09 00 00       	call   54d0 <async_answer_0@plt>
    4ad5:	83 c4 10             	add    $0x10,%esp
    4ad8:	e9 73 fc ff ff       	jmp    4750 <graph_visualizer_connection.part.10+0xd5>
    4add:	8b 45 b0             	mov    -0x50(%ebp),%eax
    4ae0:	56                   	push   %esi
    4ae1:	0f b7 d0             	movzwl %ax,%edx
    4ae4:	c1 e8 10             	shr    $0x10,%eax
    4ae7:	52                   	push   %edx
    4ae8:	50                   	push   %eax
    4ae9:	ff 75 ac             	pushl  -0x54(%ebp)
    4aec:	ff 75 a8             	pushl  -0x58(%ebp)
    4aef:	ff 75 a4             	pushl  -0x5c(%ebp)
    4af2:	ff 75 a0             	pushl  -0x60(%ebp)
    4af5:	53                   	push   %ebx
    4af6:	ff 53 6c             	call   *0x6c(%ebx)
    4af9:	83 c4 18             	add    $0x18,%esp
    4afc:	50                   	push   %eax
    4afd:	ff 75 84             	pushl  -0x7c(%ebp)
    4b00:	e8 cb 09 00 00       	call   54d0 <async_answer_0@plt>
    4b05:	83 c4 10             	add    $0x10,%esp
    4b08:	e9 43 fc ff ff       	jmp    4750 <graph_visualizer_connection.part.10+0xd5>
    4b0d:	83 ec 0c             	sub    $0xc,%esp
    4b10:	53                   	push   %ebx
    4b11:	ff 53 70             	call   *0x70(%ebx)
    4b14:	eb 07                	jmp    4b1d <graph_visualizer_connection.part.10+0x4a2>
    4b16:	83 ec 0c             	sub    $0xc,%esp
    4b19:	53                   	push   %ebx
    4b1a:	ff 53 74             	call   *0x74(%ebx)
    4b1d:	5a                   	pop    %edx
    4b1e:	59                   	pop    %ecx
    4b1f:	50                   	push   %eax
    4b20:	ff 75 84             	pushl  -0x7c(%ebp)
    4b23:	e8 a8 09 00 00       	call   54d0 <async_answer_0@plt>
    4b28:	83 c4 10             	add    $0x10,%esp
    4b2b:	e9 20 fc ff ff       	jmp    4750 <graph_visualizer_connection.part.10+0xd5>
    4b30:	50                   	push   %eax
    4b31:	50                   	push   %eax
    4b32:	6a f2                	push   $0xfffffff2
    4b34:	ff 75 84             	pushl  -0x7c(%ebp)
    4b37:	e8 94 09 00 00       	call   54d0 <async_answer_0@plt>
    4b3c:	83 c4 10             	add    $0x10,%esp
    4b3f:	83 ec 0c             	sub    $0xc,%esp
    4b42:	ff 73 14             	pushl  0x14(%ebx)
    4b45:	e8 96 08 00 00       	call   53e0 <async_hangup@plt>
    4b4a:	c7 43 14 00 00 00 00 	movl   $0x0,0x14(%ebx)
    4b51:	c7 43 08 00 00 00 00 	movl   $0x0,0x8(%ebx)
    4b58:	8d 65 f4             	lea    -0xc(%ebp),%esp
    4b5b:	5b                   	pop    %ebx
    4b5c:	5e                   	pop    %esi
    4b5d:	5f                   	pop    %edi
    4b5e:	5d                   	pop    %ebp
    4b5f:	c3                   	ret    
    4b60:	52                   	push   %edx
    4b61:	83 c0 08             	add    $0x8,%eax
    4b64:	ff 75 c0             	pushl  -0x40(%ebp)
    4b67:	50                   	push   %eax
    4b68:	ff 75 98             	pushl  -0x68(%ebp)
    4b6b:	e8 d0 08 00 00       	call   5440 <async_data_read_finalize@plt>
    4b70:	59                   	pop    %ecx
    4b71:	5f                   	pop    %edi
    4b72:	50                   	push   %eax
    4b73:	ff 75 84             	pushl  -0x7c(%ebp)
    4b76:	e8 55 09 00 00       	call   54d0 <async_answer_0@plt>
    4b7b:	83 c4 10             	add    $0x10,%esp
    4b7e:	e9 c1 fb ff ff       	jmp    4744 <graph_visualizer_connection.part.10+0xc9>
    4b83:	72 66                	jb     4beb <graph_visualizer_connection.part.10+0x570>
    4b85:	62 00                	bound  %eax,(%eax)
    4b87:	49                   	dec    %ecx
    4b88:	6e                   	outsb  %ds:(%esi),(%dx)
    4b89:	76 61                	jbe    4bec <graph_visualizer_connection.part.10+0x571>
    4b8b:	6c                   	insb   (%dx),%es:(%edi)
    4b8c:	69 64 20 77 69 64 74 	imul   $0x68746469,0x77(%eax,%eiz,1),%esp
    4b93:	68 
    4b94:	0a 00                	or     (%eax),%al
    4b96:	49                   	dec    %ecx
    4b97:	6e                   	outsb  %ds:(%esi),(%dx)
    4b98:	76 61                	jbe    4bfb <graph_visualizer_connection.part.10+0x580>
    4b9a:	6c                   	insb   (%dx),%es:(%edi)
    4b9b:	69 64 20 68 65 69 67 	imul   $0x68676965,0x68(%eax,%eiz,1),%esp
    4ba2:	68 
    4ba3:	74 0a                	je     4baf <graph_visualizer_connection.part.10+0x534>
    4ba5:	00 49 6e             	add    %cl,0x6e(%ecx)
    4ba8:	76 61                	jbe    4c0b <graph_visualizer_connection.part.10+0x590>
    4baa:	6c                   	insb   (%dx),%es:(%edi)
    4bab:	69 64 20 70 6f 72 74 	imul   $0x2074726f,0x70(%eax,%eiz,1),%esp
    4bb2:	20 
    4bb3:	6e                   	outsb  %ds:(%esi),(%dx)
    4bb4:	75 6d                	jne    4c23 <graph_visualizer_connection.part.10+0x5a8>
    4bb6:	62 65 72             	bound  %esp,0x72(%ebp)
    4bb9:	0a 00                	or     (%eax),%al
    4bbb:	72 66                	jb     4c23 <graph_visualizer_connection.part.10+0x5a8>
    4bbd:	62 2f                	bound  %ebp,(%edi)
    4bbf:	25 73 00 76 69       	and    $0x69760073,%eax
    4bc4:	73 75                	jae    4c3b <graph_visualizer_connection.part.10+0x5c0>
    4bc6:	61                   	popa   
    4bc7:	6c                   	insb   (%dx),%es:(%edi)
    4bc8:	69 7a 65 72 00 25 73 	imul   $0x73250072,0x65(%edx),%edi
    4bcf:	3a 20                	cmp    (%eax),%ah
    4bd1:	41                   	inc    %ecx
    4bd2:	63 63 65             	arpl   %sp,0x65(%ebx)
    4bd5:	70 74                	jo     4c4b <graph_visualizer_connection.part.10+0x5d0>
    4bd7:	69 6e 67 20 63 6f 6e 	imul   $0x6e6f6320,0x67(%esi),%ebp
    4bde:	6e                   	outsb  %ds:(%esi),(%dx)
    4bdf:	65 63 74 69 6f       	arpl   %si,%gs:0x6f(%ecx,%ebp,2)
    4be4:	6e                   	outsb  %ds:(%esi),(%dx)
    4be5:	73 0a                	jae    4bf1 <graph_visualizer_connection.part.10+0x576>
    4be7:	00 55 73             	add    %dl,0x73(%ebp)
    4bea:	61                   	popa   
    4beb:	67 65 3a 20          	cmp    %gs:(%bx,%si),%ah
    4bef:	25 73 20 3c 6e       	and    $0x6e3c2073,%eax
    4bf4:	61                   	popa   
    4bf5:	6d                   	insl   (%dx),%es:(%edi)
    4bf6:	65 3e 20 3c 77       	gs and %bh,%ds:(%edi,%esi,2)
    4bfb:	69 64 74 68 3e 20 3c 	imul   $0x683c203e,0x68(%esp,%esi,2),%esp
    4c02:	68 
    4c03:	65 69 67 68 74 3e 20 	imul   $0x5b203e74,%gs:0x68(%edi),%esp
    4c0a:	5b 
    4c0b:	70 6f                	jo     4c7c <graph_visualizer_connection.part.10+0x601>
    4c0d:	72 74                	jb     4c83 <graph_visualizer_connection.part.10+0x608>
    4c0f:	5d                   	pop    %ebp
    4c10:	0a 00                	or     (%eax),%al
    4c12:	00 00                	add    %al,(%eax)
    4c14:	46                   	inc    %esi
    4c15:	61                   	popa   
    4c16:	69 6c 65 64 20 61 6c 	imul   $0x6c6c6120,0x64(%ebp,%eiz,2),%ebp
    4c1d:	6c 
    4c1e:	6f                   	outsl  %ds:(%esi),(%dx)
    4c1f:	63 61 74             	arpl   %sp,0x74(%ecx)
    4c22:	69 6e 67 20 76 69 73 	imul   $0x73697620,0x67(%esi),%ebp
    4c29:	75 61                	jne    4c8c <graph_visualizer_connection.part.10+0x611>
    4c2b:	6c                   	insb   (%dx),%es:(%edi)
    4c2c:	69 7a 65 72 20 73 74 	imul   $0x74732072,0x65(%edx),%edi
    4c33:	72 75                	jb     4caa <graph_visualizer_connection.part.10+0x62f>
    4c35:	63 74 0a 00          	arpl   %si,0x0(%edx,%ecx,1)
    4c39:	00 00                	add    %al,(%eax)
    4c3b:	00 25 73 3a 20 55    	add    %ah,0x55203a73
    4c41:	6e                   	outsb  %ds:(%esi),(%dx)
    4c42:	61                   	popa   
    4c43:	62 6c 65 20          	bound  %ebp,0x20(%ebp,%eiz,2)
    4c47:	74 6f                	je     4cb8 <graph_visualizer_connection.part.10+0x63d>
    4c49:	20 72 65             	and    %dh,0x65(%edx)
    4c4c:	67 69 73 74 65 72 20 	imul   $0x73207265,0x74(%bp,%di),%esi
    4c53:	73 
    4c54:	65 72 76             	gs jb  4ccd <graph_visualizer_connection.part.10+0x652>
    4c57:	65 72 2e             	gs jb  4c88 <graph_visualizer_connection.part.10+0x60d>
    4c5a:	0a 00                	or     (%eax),%al
    4c5c:	72 66                	jb     4cc4 <graph_visualizer_connection.part.10+0x649>
    4c5e:	62 3a                	bound  %edi,(%edx)
    4c60:	20 55 6e             	and    %dl,0x6e(%ebp)
    4c63:	61                   	popa   
    4c64:	62 6c 65 20          	bound  %ebp,0x20(%ebp,%eiz,2)
    4c68:	74 6f                	je     4cd9 <graph_visualizer_connection.part.10+0x65e>
    4c6a:	20 63 72             	and    %ah,0x72(%ebx)
    4c6d:	65 61                	gs popa 
    4c6f:	74 65                	je     4cd6 <graph_visualizer_connection.part.10+0x65b>
    4c71:	20 73 65             	and    %dh,0x65(%ebx)
    4c74:	72 76                	jb     4cec <graph_visualizer_connection.part.10+0x671>
    4c76:	69 63 65 20 6e 61 6d 	imul   $0x6d616e20,0x65(%ebx),%esp
    4c7d:	65 0a 00             	or     %gs:(%eax),%al
    4c80:	72 66                	jb     4ce8 <graph_visualizer_connection.part.10+0x66d>
    4c82:	62 3a                	bound  %edi,(%edx)
    4c84:	20 55 6e             	and    %dl,0x6e(%ebp)
    4c87:	61                   	popa   
    4c88:	62 6c 65 20          	bound  %ebp,0x20(%ebp,%eiz,2)
    4c8c:	74 6f                	je     4cfd <graph_visualizer_connection.part.10+0x682>
    4c8e:	20 72 65             	and    %dh,0x65(%edx)
    4c91:	67 69 73 74 65 72 20 	imul   $0x73207265,0x74(%bp,%di),%esi
    4c98:	73 
    4c99:	65 72 76             	gs jb  4d12 <graph_visualizer_connection.part.10+0x697>
    4c9c:	69 63 65 20 25 73 2e 	imul   $0x2e732520,0x65(%ebx),%esp
    4ca3:	0a 00                	or     (%eax),%al
    4ca5:	00 00                	add    %al,(%eax)
    4ca7:	00 72 66             	add    %dh,0x66(%edx)
    4caa:	62 3a                	bound  %edi,(%edx)
    4cac:	20 55 6e             	and    %dl,0x6e(%ebp)
    4caf:	61                   	popa   
    4cb0:	62 6c 65 20          	bound  %ebp,0x20(%ebp,%eiz,2)
    4cb4:	74 6f                	je     4d25 <graph_visualizer_connection.part.10+0x6aa>
    4cb6:	20 67 65             	and    %ah,0x65(%edi)
    4cb9:	74 20                	je     4cdb <graph_visualizer_connection.part.10+0x660>
    4cbb:	76 69                	jbe    4d26 <graph_visualizer_connection.part.10+0x6ab>
    4cbd:	73 75                	jae    4d34 <rfb_ops+0x8>
    4cbf:	61                   	popa   
    4cc0:	6c                   	insb   (%dx),%es:(%edi)
    4cc1:	69 7a 65 72 20 63 61 	imul   $0x61632072,0x65(%edx),%edi
    4cc8:	74 65                	je     4d2f <rfb_ops+0x3>
    4cca:	67 6f                	outsl  %ds:(%si),(%dx)
    4ccc:	72 79                	jb     4d47 <rfb_ops+0x1b>
    4cce:	20 69 64             	and    %ch,0x64(%ecx)
    4cd1:	2e 0a 00             	or     %cs:(%eax),%al
    4cd4:	72 66                	jb     4d3c <rfb_ops+0x10>
    4cd6:	62 3a                	bound  %edi,(%edx)
    4cd8:	20 55 6e             	and    %dl,0x6e(%ebp)
    4cdb:	61                   	popa   
    4cdc:	62 6c 65 20          	bound  %ebp,0x20(%ebp,%eiz,2)
    4ce0:	74 6f                	je     4d51 <rfb_ops+0x25>
    4ce2:	20 61 64             	and    %ah,0x64(%ecx)
    4ce5:	64 20 73 65          	and    %dh,%fs:0x65(%ebx)
    4ce9:	72 76                	jb     4d61 <rfb_ops+0x35>
    4ceb:	69 63 65 20 74 6f 20 	imul   $0x206f7420,0x65(%ebx),%esp
    4cf2:	76 69                	jbe    4d5d <rfb_ops+0x31>
    4cf4:	73 75                	jae    4d6b <rfb_ops+0x3f>
    4cf6:	61                   	popa   
    4cf7:	6c                   	insb   (%dx),%es:(%edi)
    4cf8:	69 7a 65 72 20 63 61 	imul   $0x61632072,0x65(%edx),%edi
    4cff:	74 65                	je     4d66 <rfb_ops+0x3a>
    4d01:	67 6f                	outsl  %ds:(%si),(%dx)
    4d03:	72 79                	jb     4d7e <rfb_ops+0x52>
    4d05:	2e 0a 00             	or     %cs:(%eax),%al
    4d08:	72 66                	jb     4d70 <rfb_ops+0x44>
    4d0a:	62 3a                	bound  %edi,(%edx)
    4d0c:	20 55 6e             	and    %dl,0x6e(%ebp)
    4d0f:	61                   	popa   
    4d10:	62 6c 65 20          	bound  %ebp,0x20(%ebp,%eiz,2)
    4d14:	74 6f                	je     4d85 <rfb_ops+0x59>
    4d16:	20 6c 69 73          	and    %ch,0x73(%ecx,%ebp,2)
    4d1a:	74 65                	je     4d81 <rfb_ops+0x55>
    4d1c:	6e                   	outsb  %ds:(%esi),(%dx)
    4d1d:	20 61 74             	and    %ah,0x74(%ecx)
    4d20:	20 72 66             	and    %dh,0x66(%edx)
    4d23:	62 20                	bound  %esp,(%eax)
    4d25:	70 6f                	jo     4d96 <rfb_ops+0x6a>
    4d27:	72 74                	jb     4d9d <rfb_ops+0x71>
    4d29:	0a 00                	or     (%eax),%al
    4d2b:	90                   	nop

00004d2c <rfb_ops>:
    4d2c:	c0 13 00 00 a0 13 00 00 40 11 00 00 80 11 00 00     ........@.......
    4d3c:	b0 13 00 00 30 11 00 00 43 6f 6e 6e 65 63 74 69     ....0...Connecti
    4d4c:	6f 6e 20 61 63 63 65 70 74 65 64 00 52 46 42 20     on accepted.RFB 
    4d5c:	30 30 33 2e 30 30 38 0a 00 43 6c 69 65 6e 74 20     003.008..Client 
    4d6c:	76 65 72 73 69 6f 6e 20 69 73 20 6e 6f 74 20 52     version is not R
    4d7c:	46 42 20 33 2e 38 00 52 65 63 65 69 76 65 64 20     FB 3.8.Received 
    4d8c:	53 65 74 45 6e 63 6f 64 69 6e 67 73 20 6d 65 73     SetEncodings mes
    4d9c:	73 61 67 65 00 43 6c 69 65 6e 74 20 73 75 70 70     sage.Client supp
    4dac:	6f 72 74 73 20 54 52 4c 45 20 65 6e 63 6f 64 69     orts TRLE encodi
    4dbc:	6e 67 00 52 65 63 65 69 76 65 64 20 4b 65 79 45     ng.Received KeyE
    4dcc:	76 65 6e 74 20 6d 65 73 73 61 67 65 00 52 65 63     vent message.Rec
    4ddc:	65 69 76 65 64 20 50 6f 69 6e 74 65 72 45 76 65     eived PointerEve
    4dec:	6e 74 20 6d 65 73 73 61 67 65 00 45 72 72 6f 72     nt message.Error
    4dfc:	20 69 6e 69 74 69 61 6c 69 7a 69 6e 67 20 54 43      initializing TC
    4e0c:	50 2e 00 45 72 72 6f 72 20 63 72 65 61 74 69 6e     P..Error creatin
    4e1c:	67 20 6c 69 73 74 65 6e 65 72 2e 00 46 61 69 6c     g listener..Fail
    4e2c:	65 64 20 73 65 6e 64 69 6e 67 20 73 65 72 76 65     ed sending serve
    4e3c:	72 20 76 65 72 73 69 6f 6e 20 25 64 00 00 00 00     r version %d....
    4e4c:	46 61 69 6c 65 64 20 73 65 6e 64 69 6e 67 20 73     Failed sending s
    4e5c:	65 63 75 72 69 74 79 20 68 61 6e 64 73 68 61 6b     ecurity handshak
    4e6c:	65 3a 20 25 64 00 00 00 43 6c 69 65 6e 74 20 73     e: %d...Client s
    4e7c:	65 6c 65 63 74 65 64 20 73 65 63 75 72 69 74 79     elected security
    4e8c:	20 74 79 70 65 20 6f 74 68 65 72 20 74 68 61 6e      type other than
    4e9c:	20 6e 6f 6e 65 00 00 00 46 61 69 6c 65 64 20 73      none...Failed s
    4eac:	65 6e 64 69 6e 67 20 73 65 63 75 72 69 74 79 20     ending security 
    4ebc:	72 65 73 75 6c 74 3a 20 25 64 00 00 43 61 6e 6e     result: %d..Cann
    4ecc:	6f 74 20 61 6c 6c 6f 63 61 74 65 20 6d 65 6d 6f     ot allocate memo
    4edc:	72 79 20 66 6f 72 20 73 65 72 76 65 72 20 69 6e     ry for server in
    4eec:	69 74 00 00 46 61 69 6c 65 64 20 73 65 6e 64 69     it..Failed sendi
    4efc:	6e 67 20 73 65 72 76 65 72 20 69 6e 69 74 3a 20     ng server init: 
    4f0c:	25 64 00 00 52 65 63 65 69 76 65 64 20 53 65 74     %d..Received Set
    4f1c:	50 69 78 65 6c 46 6f 72 6d 61 74 20 6d 65 73 73     PixelFormat mess
    4f2c:	61 67 65 00 63 68 61 6e 67 65 64 20 70 69 78 65     age.changed pixe
    4f3c:	6c 20 66 6f 72 6d 61 74 20 74 6f 20 25 64 2d 62     l format to %d-b
    4f4c:	69 74 20 74 72 75 65 20 63 6f 6c 6f 72 20 28 25     it true color (%
    4f5c:	78 3c 3c 25 64 2c 20 25 78 3c 3c 25 64 2c 20 25     x<<%d, %x<<%d, %
    4f6c:	78 3c 3c 25 64 29 00 00 63 68 61 6e 67 65 64 20     x<<%d)..changed 
    4f7c:	70 69 78 65 6c 20 66 6f 72 6d 61 74 20 74 6f 20     pixel format to 
    4f8c:	25 64 2d 62 69 74 20 70 61 6c 65 74 74 65 00 00     %d-bit palette..
    4f9c:	52 65 63 65 69 76 65 64 20 46 72 61 6d 65 62 75     Received Framebu
    4fac:	66 66 65 72 55 70 64 61 74 65 52 65 71 75 65 73     fferUpdateReques
    4fbc:	74 20 6d 65 73 73 61 67 65 00 00 00 52 65 63 65     t message...Rece
    4fcc:	69 76 65 64 20 43 6c 69 65 6e 74 43 75 74 54 65     ived ClientCutTe
    4fdc:	78 74 20 6d 65 73 73 61 67 65 00 00 49 6e 76 61     xt message..Inva
    4fec:	6c 69 64 20 63 6c 69 65 6e 74 20 6d 65 73 73 61     lid client messa
    4ffc:	67 65 20 74 79 70 65 20 65 6e 63 6f 75 6e 74 65     ge type encounte
    500c:	72 65 64 00 46 61 69 6c 65 64 20 72 65 63 65 69     red.Failed recei
    501c:	76 69 6e 67 20 63 6c 69 65 6e 74 20 76 65 72 73     ving client vers
    502c:	69 6f 6e 3a 20 25 64 00 46 61 69 6c 65 64 20 72     ion: %d.Failed r
    503c:	65 63 65 69 76 69 6e 67 20 73 65 63 75 72 69 74     eceiving securit
    504c:	79 20 74 79 70 65 3a 20 25 64 00 00 46 61 69 6c     y type: %d..Fail
    505c:	65 64 20 72 65 63 65 69 76 69 6e 67 20 63 6c 69     ed receiving cli
    506c:	65 6e 74 20 69 6e 69 74 3a 20 25 64 00 00 00 00     ent init: %d....
    507c:	46 61 69 6c 65 64 20 72 65 63 65 69 76 69 6e 67     Failed receiving
    508c:	20 63 6c 69 65 6e 74 20 6d 65 73 73 61 67 65 20      client message 
    509c:	74 79 70 65 00 66 90 90 ac 27 00 00 8e 29 00 00     type.f...'...)..
    50ac:	3d 28 00 00 16 23 00 00 50 22 00 00 99 21 00 00     =(...#..P"...!..
    50bc:	86 20 00 00 83 47 00 00 95 47 00 00 e2 47 00 00     . ...G...G...G..
    50cc:	db 46 00 00 56 48 00 00 93 48 00 00 f6 48 00 00     .F..VH...H...H..
    50dc:	dd 4a 00 00 0d 4b 00 00 16 4b 00 00 76 73 6c 00     .J...K...K..vsl.
    50ec:	67 72 61 70 68 65 6d 75 00 25 73 25 7a 75 2f 25     graphemu.%s%zu/%
    50fc:	73 25 7a 75 00 72 6e 64 00 72 65 6e 64 65 72 65     s%zu.rnd.rendere
    510c:	72 00 67 72 61 70 68 2e 63 00 61 74 6f 6d 69 63     r.graph.c.atomic
    511c:	5f 67 65 74 28 26 76 73 2d 3e 72 65 66 5f 63 6e     _get(&vs->ref_cn
    512c:	74 29 20 3d 3d 20 30 00 76 73 2d 3e 6e 6f 74 69     t) == 0.vs->noti
    513c:	66 5f 73 65 73 73 20 3d 3d 20 4e 55 4c 4c 00 6c     f_sess == NULL.l
    514c:	69 73 74 5f 65 6d 70 74 79 28 26 76 73 2d 3e 6d     ist_empty(&vs->m
    515c:	6f 64 65 73 29 00 76 73 2d 3e 6d 6f 64 65 5f 73     odes).vs->mode_s
    516c:	65 74 20 3d 3d 20 66 61 6c 73 65 00 76 73 2d 3e     et == false.vs->
    517c:	63 65 6c 6c 73 2e 64 61 74 61 20 3d 3d 20 4e 55     cells.data == NU
    518c:	4c 4c 00 76 73 2d 3e 64 65 76 5f 63 74 78 20 3d     LL.vs->dev_ctx =
    519c:	3d 20 4e 55 4c 4c 00 90 21 66 69 62 72 69 6c 5f     = NULL..!fibril_
    51ac:	6d 75 74 65 78 5f 69 73 5f 6c 6f 63 6b 65 64 28     mutex_is_locked(
    51bc:	26 76 73 2d 3e 6d 6f 64 65 5f 6d 74 78 29 00 00     &vs->mode_mtx)..
    51cc:	61 74 6f 6d 69 63 5f 67 65 74 28 26 72 6e 64 2d     atomic_get(&rnd-
    51dc:	3e 72 65 66 5f 63 6e 74 29 20 3d 3d 20 30 00 00     >ref_cnt) == 0..

Disassembly of section .plt:

00005390 <__main@plt-0x10>:
    5390:	ff 35 d8 6f 00 00    	pushl  0x6fd8
    5396:	ff 25 dc 6f 00 00    	jmp    *0x6fdc
    539c:	00 00                	add    %al,(%eax)
	...

000053a0 <__main@plt>:
    53a0:	ff 25 e0 6f 00 00    	jmp    *0x6fe0
    53a6:	68 00 00 00 00       	push   $0x0
    53ab:	e9 e0 ff ff ff       	jmp    5390 <rfb_ops+0x664>

000053b0 <loc_category_get_id@plt>:
    53b0:	ff 25 e4 6f 00 00    	jmp    *0x6fe4
    53b6:	68 08 00 00 00       	push   $0x8
    53bb:	e9 d0 ff ff ff       	jmp    5390 <rfb_ops+0x664>

000053c0 <task_retval@plt>:
    53c0:	ff 25 e8 6f 00 00    	jmp    *0x6fe8
    53c6:	68 10 00 00 00       	push   $0x10
    53cb:	e9 c0 ff ff ff       	jmp    5390 <rfb_ops+0x664>

000053d0 <printf@plt>:
    53d0:	ff 25 ec 6f 00 00    	jmp    *0x6fec
    53d6:	68 18 00 00 00       	push   $0x18
    53db:	e9 b0 ff ff ff       	jmp    5390 <rfb_ops+0x664>

000053e0 <async_hangup@plt>:
    53e0:	ff 25 f0 6f 00 00    	jmp    *0x6ff0
    53e6:	68 20 00 00 00       	push   $0x20
    53eb:	e9 a0 ff ff ff       	jmp    5390 <rfb_ops+0x664>

000053f0 <snprintf@plt>:
    53f0:	ff 25 f4 6f 00 00    	jmp    *0x6ff4
    53f6:	68 28 00 00 00       	push   $0x28
    53fb:	e9 90 ff ff ff       	jmp    5390 <rfb_ops+0x664>

00005400 <log_init@plt>:
    5400:	ff 25 f8 6f 00 00    	jmp    *0x6ff8
    5406:	68 30 00 00 00       	push   $0x30
    540b:	e9 80 ff ff ff       	jmp    5390 <rfb_ops+0x664>

00005410 <loc_service_register@plt>:
    5410:	ff 25 fc 6f 00 00    	jmp    *0x6ffc
    5416:	68 38 00 00 00       	push   $0x38
    541b:	e9 70 ff ff ff       	jmp    5390 <rfb_ops+0x664>

00005420 <fibril_mutex_is_locked@plt>:
    5420:	ff 25 00 70 00 00    	jmp    *0x7000
