
vhc:     file format elf32-i386


Disassembly of section .init:

000010f4 <__entry>:
    10f4:	66 8c d0             	mov    %ss,%ax
    10f7:	8e d8                	mov    %eax,%ds
    10f9:	8e c0                	mov    %eax,%es
    10fb:	8e e0                	mov    %eax,%fs
    10fd:	b8 01 00 00 00       	mov    $0x1,%eax
    1102:	0f a2                	cpuid  
    1104:	0f ba e2 0b          	bt     $0xb,%edx
    1108:	73 0c                	jae    1116 <__entry+0x22>
    110a:	8d 05 c8 65 01 00    	lea    0x165c8,%eax
    1110:	c7 00 30 3f 01 00    	movl   $0x13f30,(%eax)
    1116:	6a 00                	push   $0x0
    1118:	6a 00                	push   $0x0
    111a:	89 e5                	mov    %esp,%ebp
    111c:	57                   	push   %edi
    111d:	e8 ae 28 01 00       	call   139d0 <__main@plt>

Disassembly of section .text:

00001140 <virthub_init>:
    1140:	55                   	push   %ebp
    1141:	89 e5                	mov    %esp,%ebp
    1143:	56                   	push   %esi
    1144:	53                   	push   %ebx
    1145:	8b 5d 08             	mov    0x8(%ebp),%ebx
    1148:	85 db                	test   %ebx,%ebx
    114a:	74 5c                	je     11a8 <virthub_init+0x68>
    114c:	83 ec 0c             	sub    $0xc,%esp
    114f:	c7 43 0c 40 60 01 00 	movl   $0x16040,0xc(%ebx)
    1156:	c7 43 10 c0 5f 01 00 	movl   $0x15fc0,0x10(%ebx)
    115d:	66 c7 43 14 00 00    	movw   $0x0,0x14(%ebx)
    1163:	8b 55 0c             	mov    0xc(%ebp),%edx
    1166:	52                   	push   %edx
    1167:	e8 54 2b 01 00       	call   13cc0 <str_dup@plt>
    116c:	83 c4 10             	add    $0x10,%esp
    116f:	89 43 04             	mov    %eax,0x4(%ebx)
    1172:	85 c0                	test   %eax,%eax
    1174:	74 3a                	je     11b0 <virthub_init+0x70>
    1176:	83 ec 0c             	sub    $0xc,%esp
    1179:	6a 40                	push   $0x40
    117b:	e8 a0 29 01 00       	call   13b20 <malloc@plt>
    1180:	83 c4 10             	add    $0x10,%esp
    1183:	89 c6                	mov    %eax,%esi
    1185:	85 c0                	test   %eax,%eax
    1187:	74 2e                	je     11b7 <virthub_init+0x77>
    1189:	83 ec 0c             	sub    $0xc,%esp
    118c:	50                   	push   %eax
    118d:	e8 5e 02 00 00       	call   13f0 <hub_init>
    1192:	89 73 08             	mov    %esi,0x8(%ebx)
    1195:	83 c4 10             	add    $0x10,%esp
    1198:	31 c0                	xor    %eax,%eax
    119a:	8d 65 f8             	lea    -0x8(%ebp),%esp
    119d:	5b                   	pop    %ebx
    119e:	5e                   	pop    %esi
    119f:	5d                   	pop    %ebp
    11a0:	c3                   	ret    
    11a1:	8d b4 26 00 00 00 00 	lea    0x0(%esi,%eiz,1),%esi
    11a8:	b8 f6 ff ff ff       	mov    $0xfffffff6,%eax
    11ad:	eb eb                	jmp    119a <virthub_init+0x5a>
    11af:	90                   	nop
    11b0:	b8 fe ff ff ff       	mov    $0xfffffffe,%eax
    11b5:	eb e3                	jmp    119a <virthub_init+0x5a>
    11b7:	83 ec 0c             	sub    $0xc,%esp
    11ba:	8b 43 04             	mov    0x4(%ebx),%eax
    11bd:	50                   	push   %eax
    11be:	e8 9d 2d 01 00       	call   13f60 <free@plt>
    11c3:	83 c4 10             	add    $0x10,%esp
    11c6:	b8 fe ff ff ff       	mov    $0xfffffffe,%eax
    11cb:	eb cd                	jmp    119a <virthub_init+0x5a>
    11cd:	8d 76 00             	lea    0x0(%esi),%esi

000011d0 <virthub_connect_device>:
    11d0:	55                   	push   %ebp
    11d1:	89 e5                	mov    %esp,%ebp
    11d3:	56                   	push   %esi
    11d4:	53                   	push   %ebx
    11d5:	83 ec 10             	sub    $0x10,%esp
    11d8:	8b 45 08             	mov    0x8(%ebp),%eax
    11db:	8b 75 0c             	mov    0xc(%ebp),%esi
    11de:	85 c0                	test   %eax,%eax
    11e0:	74 2e                	je     1210 <virthub_connect_device+0x40>
    11e2:	85 f6                	test   %esi,%esi
    11e4:	74 3f                	je     1225 <virthub_connect_device+0x55>
    11e6:	83 ec 0c             	sub    $0xc,%esp
    11e9:	8b 58 08             	mov    0x8(%eax),%ebx
    11ec:	53                   	push   %ebx
    11ed:	e8 ae 03 00 00       	call   15a0 <hub_acquire>
    11f2:	58                   	pop    %eax
    11f3:	5a                   	pop    %edx
    11f4:	56                   	push   %esi
    11f5:	53                   	push   %ebx
    11f6:	e8 55 02 00 00       	call   1450 <hub_connect_device>
    11fb:	89 1c 24             	mov    %ebx,(%esp)
    11fe:	89 45 f4             	mov    %eax,-0xc(%ebp)
    1201:	e8 ba 03 00 00       	call   15c0 <hub_release>
    1206:	8b 45 f4             	mov    -0xc(%ebp),%eax
    1209:	8d 65 f8             	lea    -0x8(%ebp),%esp
    120c:	5b                   	pop    %ebx
    120d:	5e                   	pop    %esi
    120e:	5d                   	pop    %ebp
    120f:	c3                   	ret    
    1210:	53                   	push   %ebx
    1211:	68 b5 00 00 00       	push   $0xb5
    1216:	68 ee 09 01 00       	push   $0x109ee
    121b:	68 e7 1c 01 00       	push   $0x11ce7
    1220:	e8 eb 29 01 00       	call   13c10 <assert_abort@plt>
    1225:	51                   	push   %ecx
    1226:	68 b6 00 00 00       	push   $0xb6
    122b:	68 ee 09 01 00       	push   $0x109ee
    1230:	68 fc 09 01 00       	push   $0x109fc
    1235:	e8 d6 29 01 00       	call   13c10 <assert_abort@plt>
    123a:	8d b6 00 00 00 00    	lea    0x0(%esi),%esi

00001240 <virthub_disconnect_device>:
    1240:	55                   	push   %ebp
    1241:	89 e5                	mov    %esp,%ebp
    1243:	56                   	push   %esi
    1244:	53                   	push   %ebx
    1245:	8b 45 08             	mov    0x8(%ebp),%eax
    1248:	8b 75 0c             	mov    0xc(%ebp),%esi
    124b:	85 c0                	test   %eax,%eax
    124d:	74 2a                	je     1279 <virthub_disconnect_device+0x39>
    124f:	85 f6                	test   %esi,%esi
    1251:	74 3b                	je     128e <virthub_disconnect_device+0x4e>
    1253:	83 ec 0c             	sub    $0xc,%esp
    1256:	8b 58 08             	mov    0x8(%eax),%ebx
    1259:	53                   	push   %ebx
    125a:	e8 41 03 00 00       	call   15a0 <hub_acquire>
    125f:	58                   	pop    %eax
    1260:	5a                   	pop    %edx
    1261:	56                   	push   %esi
    1262:	53                   	push   %ebx
    1263:	e8 78 02 00 00       	call   14e0 <hub_disconnect_device>
    1268:	89 1c 24             	mov    %ebx,(%esp)
    126b:	e8 50 03 00 00       	call   15c0 <hub_release>
    1270:	8d 65 f8             	lea    -0x8(%ebp),%esp
    1273:	31 c0                	xor    %eax,%eax
    1275:	5b                   	pop    %ebx
    1276:	5e                   	pop    %esi
    1277:	5d                   	pop    %ebp
    1278:	c3                   	ret    
    1279:	53                   	push   %ebx
    127a:	68 c9 00 00 00       	push   $0xc9
    127f:	68 ee 09 01 00       	push   $0x109ee
    1284:	68 e7 1c 01 00       	push   $0x11ce7
    1289:	e8 82 29 01 00       	call   13c10 <assert_abort@plt>
    128e:	51                   	push   %ecx
    128f:	68 ca 00 00 00       	push   $0xca
    1294:	68 ee 09 01 00       	push   $0x109ee
    1299:	68 fc 09 01 00       	push   $0x109fc
    129e:	e8 6d 29 01 00       	call   13c10 <assert_abort@plt>
    12a3:	8d b6 00 00 00 00    	lea    0x0(%esi),%esi
    12a9:	8d bc 27 00 00 00 00 	lea    0x0(%edi,%eiz,1),%edi

000012b0 <virthub_is_device_enabled>:
    12b0:	55                   	push   %ebp
    12b1:	89 e5                	mov    %esp,%ebp
    12b3:	56                   	push   %esi
    12b4:	53                   	push   %ebx
    12b5:	8b 45 08             	mov    0x8(%ebp),%eax
    12b8:	8b 75 0c             	mov    0xc(%ebp),%esi
    12bb:	85 c0                	test   %eax,%eax
    12bd:	74 49                	je     1308 <virthub_is_device_enabled+0x58>
    12bf:	85 f6                	test   %esi,%esi
    12c1:	74 5a                	je     131d <virthub_is_device_enabled+0x6d>
    12c3:	83 ec 0c             	sub    $0xc,%esp
    12c6:	8b 58 08             	mov    0x8(%eax),%ebx
    12c9:	53                   	push   %ebx
    12ca:	e8 d1 02 00 00       	call   15a0 <hub_acquire>
    12cf:	59                   	pop    %ecx
    12d0:	58                   	pop    %eax
    12d1:	56                   	push   %esi
    12d2:	53                   	push   %ebx
    12d3:	e8 98 02 00 00       	call   1570 <hub_find_device>
    12d8:	31 f6                	xor    %esi,%esi
    12da:	83 c4 10             	add    $0x10,%esp
    12dd:	83 f8 ff             	cmp    $0xffffffff,%eax
    12e0:	74 14                	je     12f6 <virthub_is_device_enabled+0x46>
    12e2:	52                   	push   %edx
    12e3:	52                   	push   %edx
    12e4:	50                   	push   %eax
    12e5:	53                   	push   %ebx
    12e6:	e8 85 06 00 00       	call   1970 <hub_get_port_state>
    12eb:	83 c4 10             	add    $0x10,%esp
    12ee:	83 f8 06             	cmp    $0x6,%eax
    12f1:	0f 94 c0             	sete   %al
    12f4:	89 c6                	mov    %eax,%esi
    12f6:	83 ec 0c             	sub    $0xc,%esp
    12f9:	53                   	push   %ebx
    12fa:	e8 c1 02 00 00       	call   15c0 <hub_release>
    12ff:	8d 65 f8             	lea    -0x8(%ebp),%esp
    1302:	89 f0                	mov    %esi,%eax
    1304:	5b                   	pop    %ebx
    1305:	5e                   	pop    %esi
    1306:	5d                   	pop    %ebp
    1307:	c3                   	ret    
    1308:	50                   	push   %eax
    1309:	68 dd 00 00 00       	push   $0xdd
    130e:	68 ee 09 01 00       	push   $0x109ee
    1313:	68 e7 1c 01 00       	push   $0x11ce7
    1318:	e8 f3 28 01 00       	call   13c10 <assert_abort@plt>
    131d:	50                   	push   %eax
    131e:	68 de 00 00 00       	push   $0xde
    1323:	68 ee 09 01 00       	push   $0x109ee
    1328:	68 fc 09 01 00       	push   $0x109fc
    132d:	e8 de 28 01 00       	call   13c10 <assert_abort@plt>
    1332:	8d b4 26 00 00 00 00 	lea    0x0(%esi,%eiz,1),%esi
    1339:	8d bc 27 00 00 00 00 	lea    0x0(%edi,%eiz,1),%edi

00001340 <virthub_get_status>:
    1340:	55                   	push   %ebp
    1341:	89 e5                	mov    %esp,%ebp
    1343:	56                   	push   %esi
    1344:	53                   	push   %ebx
    1345:	83 ec 10             	sub    $0x10,%esp
    1348:	8b 45 08             	mov    0x8(%ebp),%eax
    134b:	8b 5d 10             	mov    0x10(%ebp),%ebx
    134e:	85 c0                	test   %eax,%eax
    1350:	74 5c                	je     13ae <virthub_get_status+0x6e>
    1352:	85 db                	test   %ebx,%ebx
    1354:	75 0a                	jne    1360 <virthub_get_status+0x20>
    1356:	8d 65 f8             	lea    -0x8(%ebp),%esp
    1359:	5b                   	pop    %ebx
    135a:	5e                   	pop    %esi
    135b:	5d                   	pop    %ebp
    135c:	c3                   	ret    
    135d:	8d 76 00             	lea    0x0(%esi),%esi
    1360:	8b 70 08             	mov    0x8(%eax),%esi
    1363:	50                   	push   %eax
    1364:	50                   	push   %eax
    1365:	6a 00                	push   $0x0
    1367:	56                   	push   %esi
    1368:	e8 03 06 00 00       	call   1970 <hub_get_port_state>
    136d:	89 04 24             	mov    %eax,(%esp)
    1370:	e8 5b 00 00 00       	call   13d0 <hub_port_state_to_char>
    1375:	5a                   	pop    %edx
    1376:	88 45 f5             	mov    %al,-0xb(%ebp)
    1379:	59                   	pop    %ecx
    137a:	6a 01                	push   $0x1
    137c:	56                   	push   %esi
    137d:	e8 ee 05 00 00       	call   1970 <hub_get_port_state>
    1382:	89 04 24             	mov    %eax,(%esp)
    1385:	e8 46 00 00 00       	call   13d0 <hub_port_state_to_char>
    138a:	88 45 f6             	mov    %al,-0xa(%ebp)
    138d:	8d 45 f5             	lea    -0xb(%ebp),%eax
    1390:	50                   	push   %eax
    1391:	68 09 0a 01 00       	push   $0x10a09
    1396:	53                   	push   %ebx
    1397:	8b 5d 0c             	mov    0xc(%ebp),%ebx
    139a:	53                   	push   %ebx
    139b:	c6 45 f7 00          	movb   $0x0,-0x9(%ebp)
    139f:	e8 ec 26 01 00       	call   13a90 <snprintf@plt>
    13a4:	83 c4 20             	add    $0x20,%esp
    13a7:	8d 65 f8             	lea    -0x8(%ebp),%esp
    13aa:	5b                   	pop    %ebx
    13ab:	5e                   	pop    %esi
    13ac:	5d                   	pop    %ebp
    13ad:	c3                   	ret    
    13ae:	56                   	push   %esi
    13af:	68 f6 00 00 00       	push   $0xf6
    13b4:	68 ee 09 01 00       	push   $0x109ee
    13b9:	68 e7 1c 01 00       	push   $0x11ce7
    13be:	e8 4d 28 01 00       	call   13c10 <assert_abort@plt>
    13c3:	66 90                	xchg   %ax,%ax
    13c5:	66 90                	xchg   %ax,%ax
    13c7:	66 90                	xchg   %ax,%ax
    13c9:	66 90                	xchg   %ax,%ax
    13cb:	66 90                	xchg   %ax,%ax
    13cd:	66 90                	xchg   %ax,%ax
    13cf:	90                   	nop

000013d0 <hub_port_state_to_char>:
    13d0:	55                   	push   %ebp
    13d1:	89 e5                	mov    %esp,%ebp
    13d3:	8b 45 08             	mov    0x8(%ebp),%eax
    13d6:	8d 50 ff             	lea    -0x1(%eax),%edx
    13d9:	b0 3f                	mov    $0x3f,%al
    13db:	83 fa 07             	cmp    $0x7,%edx
    13de:	77 06                	ja     13e6 <hub_port_state_to_char+0x16>
    13e0:	8a 82 94 0a 01 00    	mov    0x10a94(%edx),%al
    13e6:	5d                   	pop    %ebp
    13e7:	c3                   	ret    
    13e8:	90                   	nop
    13e9:	8d b4 26 00 00 00 00 	lea    0x0(%esi,%eiz,1),%esi

000013f0 <hub_init>:
    13f0:	55                   	push   %ebp
    13f1:	89 e5                	mov    %esp,%ebp
    13f3:	8b 45 08             	mov    0x8(%ebp),%eax
    13f6:	c7 00 00 00 00 00    	movl   $0x0,(%eax)
    13fc:	c7 40 04 01 00 00 00 	movl   $0x1,0x4(%eax)
    1403:	c7 40 08 01 00 00 00 	movl   $0x1,0x8(%eax)
    140a:	66 c7 40 0c 00 00    	movw   $0x0,0xc(%eax)
    1410:	89 40 10             	mov    %eax,0x10(%eax)
    1413:	c7 40 14 00 00 00 00 	movl   $0x0,0x14(%eax)
    141a:	c7 40 18 02 00 00 00 	movl   $0x2,0x18(%eax)
    1421:	c7 40 1c 01 00 00 00 	movl   $0x1,0x1c(%eax)
    1428:	66 c7 40 20 00 00    	movw   $0x0,0x20(%eax)
    142e:	89 40 24             	mov    %eax,0x24(%eax)
    1431:	c7 40 28 00 00 00 00 	movl   $0x0,0x28(%eax)
    1438:	c6 40 3c 01          	movb   $0x1,0x3c(%eax)
    143c:	83 c0 2c             	add    $0x2c,%eax
    143f:	89 45 08             	mov    %eax,0x8(%ebp)
    1442:	5d                   	pop    %ebp
    1443:	e9 88 28 01 00       	jmp    13cd0 <fibril_mutex_initialize@plt>
    1448:	90                   	nop
    1449:	8d b4 26 00 00 00 00 	lea    0x0(%esi,%eiz,1),%esi

00001450 <hub_connect_device>:
    1450:	55                   	push   %ebp
    1451:	89 e5                	mov    %esp,%ebp
    1453:	53                   	push   %ebx
    1454:	83 ec 14             	sub    $0x14,%esp
    1457:	8b 55 08             	mov    0x8(%ebp),%edx
    145a:	8b 1a                	mov    (%edx),%ebx
    145c:	85 db                	test   %ebx,%ebx
    145e:	74 68                	je     14c8 <hub_connect_device+0x78>
    1460:	8b 4a 14             	mov    0x14(%edx),%ecx
    1463:	83 c8 ff             	or     $0xffffffff,%eax
    1466:	85 c9                	test   %ecx,%ecx
    1468:	74 06                	je     1470 <hub_connect_device+0x20>
    146a:	8b 5d fc             	mov    -0x4(%ebp),%ebx
    146d:	c9                   	leave  
    146e:	c3                   	ret    
    146f:	90                   	nop
    1470:	8b 45 0c             	mov    0xc(%ebp),%eax
    1473:	8d 5a 14             	lea    0x14(%edx),%ebx
    1476:	89 42 14             	mov    %eax,0x14(%edx)
    1479:	c7 42 1c 04 00 00 00 	movl   $0x4,0x1c(%edx)
    1480:	b8 01 00 00 00       	mov    $0x1,%eax
    1485:	8b 53 0c             	mov    0xc(%ebx),%edx
    1488:	89 45 f4             	mov    %eax,-0xc(%ebp)
    148b:	89 d1                	mov    %edx,%ecx
    148d:	81 e2 ff ff 00 00    	and    $0xffff,%edx
    1493:	83 c9 01             	or     $0x1,%ecx
    1496:	66 89 4b 0c          	mov    %cx,0xc(%ebx)
    149a:	81 e1 ff ff 00 00    	and    $0xffff,%ecx
    14a0:	50                   	push   %eax
    14a1:	50                   	push   %eax
    14a2:	51                   	push   %ecx
    14a3:	52                   	push   %edx
    14a4:	8b 53 04             	mov    0x4(%ebx),%edx
    14a7:	52                   	push   %edx
    14a8:	68 14 0a 01 00       	push   $0x10a14
    14ad:	6a 04                	push   $0x4
    14af:	6a ff                	push   $0xffffffff
    14b1:	e8 0a 27 01 00       	call   13bc0 <log_msg@plt>
    14b6:	8b 53 10             	mov    0x10(%ebx),%edx
    14b9:	83 c4 20             	add    $0x20,%esp
    14bc:	c6 42 3c 01          	movb   $0x1,0x3c(%edx)
    14c0:	8b 45 f4             	mov    -0xc(%ebp),%eax
    14c3:	eb a5                	jmp    146a <hub_connect_device+0x1a>
    14c5:	8d 76 00             	lea    0x0(%esi),%esi
    14c8:	8b 45 0c             	mov    0xc(%ebp),%eax
    14cb:	89 d3                	mov    %edx,%ebx
    14cd:	89 02                	mov    %eax,(%edx)
    14cf:	c7 42 08 04 00 00 00 	movl   $0x4,0x8(%edx)
    14d6:	31 c0                	xor    %eax,%eax
    14d8:	eb ab                	jmp    1485 <hub_connect_device+0x35>
    14da:	8d b6 00 00 00 00    	lea    0x0(%esi),%esi

000014e0 <hub_disconnect_device>:
    14e0:	55                   	push   %ebp
    14e1:	89 e5                	mov    %esp,%ebp
    14e3:	53                   	push   %ebx
    14e4:	50                   	push   %eax
    14e5:	8b 45 08             	mov    0x8(%ebp),%eax
    14e8:	8b 55 0c             	mov    0xc(%ebp),%edx
    14eb:	3b 10                	cmp    (%eax),%edx
    14ed:	74 11                	je     1500 <hub_disconnect_device+0x20>
    14ef:	3b 50 14             	cmp    0x14(%eax),%edx
    14f2:	74 6c                	je     1560 <hub_disconnect_device+0x80>
    14f4:	83 c8 ff             	or     $0xffffffff,%eax
    14f7:	8b 5d fc             	mov    -0x4(%ebp),%ebx
    14fa:	c9                   	leave  
    14fb:	c3                   	ret    
    14fc:	8d 74 26 00          	lea    0x0(%esi,%eiz,1),%esi
    1500:	31 c9                	xor    %ecx,%ecx
    1502:	8d 14 8d 00 00 00 00 	lea    0x0(,%ecx,4),%edx
    1509:	01 ca                	add    %ecx,%edx
    150b:	8d 1c 90             	lea    (%eax,%edx,4),%ebx
    150e:	66 8b 43 0c          	mov    0xc(%ebx),%ax
    1512:	c7 03 00 00 00 00    	movl   $0x0,(%ebx)
    1518:	89 c2                	mov    %eax,%edx
    151a:	25 ff ff 00 00       	and    $0xffff,%eax
    151f:	83 ca 01             	or     $0x1,%edx
    1522:	c7 43 08 03 00 00 00 	movl   $0x3,0x8(%ebx)
    1529:	66 89 53 0c          	mov    %dx,0xc(%ebx)
    152d:	81 e2 ff ff 00 00    	and    $0xffff,%edx
    1533:	51                   	push   %ecx
    1534:	51                   	push   %ecx
    1535:	52                   	push   %edx
    1536:	50                   	push   %eax
    1537:	8b 43 04             	mov    0x4(%ebx),%eax
    153a:	50                   	push   %eax
    153b:	68 14 0a 01 00       	push   $0x10a14
    1540:	6a 04                	push   $0x4
    1542:	6a ff                	push   $0xffffffff
    1544:	e8 77 26 01 00       	call   13bc0 <log_msg@plt>
    1549:	8b 43 10             	mov    0x10(%ebx),%eax
    154c:	c6 40 3c 01          	movb   $0x1,0x3c(%eax)
    1550:	83 c4 20             	add    $0x20,%esp
    1553:	31 c0                	xor    %eax,%eax
    1555:	8b 5d fc             	mov    -0x4(%ebp),%ebx
    1558:	c9                   	leave  
    1559:	c3                   	ret    
    155a:	8d b6 00 00 00 00    	lea    0x0(%esi),%esi
    1560:	b9 01 00 00 00       	mov    $0x1,%ecx
    1565:	eb 9b                	jmp    1502 <hub_disconnect_device+0x22>
    1567:	89 f6                	mov    %esi,%esi
    1569:	8d bc 27 00 00 00 00 	lea    0x0(%edi,%eiz,1),%edi

00001570 <hub_find_device>:
    1570:	55                   	push   %ebp
    1571:	89 e5                	mov    %esp,%ebp
    1573:	8b 45 08             	mov    0x8(%ebp),%eax
    1576:	8b 55 0c             	mov    0xc(%ebp),%edx
    1579:	3b 10                	cmp    (%eax),%edx
    157b:	74 13                	je     1590 <hub_find_device+0x20>
    157d:	3b 50 14             	cmp    0x14(%eax),%edx
    1580:	5d                   	pop    %ebp
    1581:	0f 95 c0             	setne  %al
    1584:	25 ff 00 00 00       	and    $0xff,%eax
    1589:	f7 d8                	neg    %eax
    158b:	83 c8 01             	or     $0x1,%eax
    158e:	c3                   	ret    
    158f:	90                   	nop
    1590:	31 c0                	xor    %eax,%eax
    1592:	5d                   	pop    %ebp
    1593:	c3                   	ret    
    1594:	8d b6 00 00 00 00    	lea    0x0(%esi),%esi
    159a:	8d bf 00 00 00 00    	lea    0x0(%edi),%edi

000015a0 <hub_acquire>:
    15a0:	55                   	push   %ebp
    15a1:	89 e5                	mov    %esp,%ebp
    15a3:	8b 45 08             	mov    0x8(%ebp),%eax
    15a6:	83 c0 2c             	add    $0x2c,%eax
    15a9:	89 45 08             	mov    %eax,0x8(%ebp)
    15ac:	5d                   	pop    %ebp
    15ad:	e9 ce 29 01 00       	jmp    13f80 <fibril_mutex_lock@plt>
    15b2:	8d b4 26 00 00 00 00 	lea    0x0(%esi,%eiz,1),%esi
    15b9:	8d bc 27 00 00 00 00 	lea    0x0(%edi,%eiz,1),%edi

000015c0 <hub_release>:
    15c0:	55                   	push   %ebp
    15c1:	89 e5                	mov    %esp,%ebp
    15c3:	8b 45 08             	mov    0x8(%ebp),%eax
    15c6:	83 c0 2c             	add    $0x2c,%eax
    15c9:	89 45 08             	mov    %eax,0x8(%ebp)
    15cc:	5d                   	pop    %ebp
    15cd:	e9 ce 26 01 00       	jmp    13ca0 <fibril_mutex_unlock@plt>
    15d2:	8d b4 26 00 00 00 00 	lea    0x0(%esi,%eiz,1),%esi
    15d9:	8d bc 27 00 00 00 00 	lea    0x0(%edi,%eiz,1),%edi

000015e0 <hub_set_port_state>:
    15e0:	55                   	push   %ebp
    15e1:	89 e5                	mov    %esp,%ebp
    15e3:	57                   	push   %edi
    15e4:	56                   	push   %esi
    15e5:	53                   	push   %ebx
    15e6:	83 ec 0c             	sub    $0xc,%esp
    15e9:	8b 5d 0c             	mov    0xc(%ebp),%ebx
    15ec:	8b 75 10             	mov    0x10(%ebp),%esi
    15ef:	83 fb 01             	cmp    $0x1,%ebx
    15f2:	76 0c                	jbe    1600 <hub_set_port_state+0x20>
    15f4:	8d 65 f4             	lea    -0xc(%ebp),%esp
    15f7:	5b                   	pop    %ebx
    15f8:	5e                   	pop    %esi
    15f9:	5f                   	pop    %edi
    15fa:	5d                   	pop    %ebp
    15fb:	c3                   	ret    
    15fc:	8d 74 26 00          	lea    0x0(%esi,%eiz,1),%esi
    1600:	8d 04 9b             	lea    (%ebx,%ebx,4),%eax
    1603:	8b 55 08             	mov    0x8(%ebp),%edx
    1606:	8d 3c 82             	lea    (%edx,%eax,4),%edi
    1609:	85 ff                	test   %edi,%edi
    160b:	74 e7                	je     15f4 <hub_set_port_state+0x14>
    160d:	83 ec 0c             	sub    $0xc,%esp
    1610:	56                   	push   %esi
    1611:	53                   	push   %ebx
    1612:	68 44 0a 01 00       	push   $0x10a44
    1617:	6a 04                	push   $0x4
    1619:	6a ff                	push   $0xffffffff
    161b:	e8 a0 25 01 00       	call   13bc0 <log_msg@plt>
    1620:	83 c4 20             	add    $0x20,%esp
    1623:	83 fe 05             	cmp    $0x5,%esi
    1626:	0f 84 dc 00 00 00    	je     1708 <hub_set_port_state+0x128>
    162c:	76 7a                	jbe    16a8 <hub_set_port_state+0xc8>
    162e:	83 fe 06             	cmp    $0x6,%esi
    1631:	0f 84 91 00 00 00    	je     16c8 <hub_set_port_state+0xe8>
    1637:	83 fe 08             	cmp    $0x8,%esi
    163a:	75 57                	jne    1693 <hub_set_port_state+0xb3>
    163c:	83 ec 0c             	sub    $0xc,%esp
    163f:	c7 47 08 08 00 00 00 	movl   $0x8,0x8(%edi)
    1646:	6a 14                	push   $0x14
    1648:	e8 d3 24 01 00       	call   13b20 <malloc@plt>
    164d:	89 c7                	mov    %eax,%edi
    164f:	8b 45 08             	mov    0x8(%ebp),%eax
    1652:	89 47 10             	mov    %eax,0x10(%edi)
    1655:	89 5f 0c             	mov    %ebx,0xc(%edi)
    1658:	c7 07 10 27 00 00    	movl   $0x2710,(%edi)
    165e:	c7 47 04 08 00 00 00 	movl   $0x8,0x4(%edi)
    1665:	83 c4 0c             	add    $0xc,%esp
    1668:	c7 47 08 06 00 00 00 	movl   $0x6,0x8(%edi)
    166f:	6a 00                	push   $0x0
    1671:	57                   	push   %edi
    1672:	68 60 17 00 00       	push   $0x1760
    1677:	e8 64 28 01 00       	call   13ee0 <fibril_create_generic@plt>
    167c:	83 c4 10             	add    $0x10,%esp
    167f:	85 c0                	test   %eax,%eax
    1681:	0f 84 b1 00 00 00    	je     1738 <hub_set_port_state+0x158>
    1687:	83 ec 0c             	sub    $0xc,%esp
    168a:	50                   	push   %eax
    168b:	e8 70 28 01 00       	call   13f00 <fibril_add_ready@plt>
    1690:	83 c4 10             	add    $0x10,%esp
    1693:	8d 04 9b             	lea    (%ebx,%ebx,4),%eax
    1696:	8b 4d 08             	mov    0x8(%ebp),%ecx
    1699:	89 74 81 08          	mov    %esi,0x8(%ecx,%eax,4)
    169d:	8d 65 f4             	lea    -0xc(%ebp),%esp
    16a0:	5b                   	pop    %ebx
    16a1:	5e                   	pop    %esi
    16a2:	5f                   	pop    %edi
    16a3:	5d                   	pop    %ebp
    16a4:	c3                   	ret    
    16a5:	8d 76 00             	lea    0x0(%esi),%esi
    16a8:	83 fe 02             	cmp    $0x2,%esi
    16ab:	75 e6                	jne    1693 <hub_set_port_state+0xb3>
    16ad:	8b 47 10             	mov    0x10(%edi),%eax
    16b0:	8b 4d 08             	mov    0x8(%ebp),%ecx
    16b3:	66 83 67 0c ec       	andw   $0xffec,0xc(%edi)
    16b8:	c6 40 3c 01          	movb   $0x1,0x3c(%eax)
    16bc:	8d 04 9b             	lea    (%ebx,%ebx,4),%eax
    16bf:	89 74 81 08          	mov    %esi,0x8(%ecx,%eax,4)
    16c3:	eb d8                	jmp    169d <hub_set_port_state+0xbd>
    16c5:	8d 76 00             	lea    0x0(%esi),%esi
    16c8:	83 7f 08 05          	cmpl   $0x5,0x8(%edi)
    16cc:	75 c5                	jne    1693 <hub_set_port_state+0xb3>
    16ce:	66 8b 47 0c          	mov    0xc(%edi),%ax
    16d2:	89 c2                	mov    %eax,%edx
    16d4:	25 ff ff 00 00       	and    $0xffff,%eax
    16d9:	83 ca 10             	or     $0x10,%edx
    16dc:	66 89 57 0c          	mov    %dx,0xc(%edi)
    16e0:	81 e2 ff ff 00 00    	and    $0xffff,%edx
    16e6:	51                   	push   %ecx
    16e7:	51                   	push   %ecx
    16e8:	52                   	push   %edx
    16e9:	50                   	push   %eax
    16ea:	8b 47 04             	mov    0x4(%edi),%eax
    16ed:	50                   	push   %eax
    16ee:	68 14 0a 01 00       	push   $0x10a14
    16f3:	6a 04                	push   $0x4
    16f5:	6a ff                	push   $0xffffffff
    16f7:	e8 c4 24 01 00       	call   13bc0 <log_msg@plt>
    16fc:	8b 47 10             	mov    0x10(%edi),%eax
    16ff:	83 c4 20             	add    $0x20,%esp
    1702:	c6 40 3c 01          	movb   $0x1,0x3c(%eax)
    1706:	eb 8b                	jmp    1693 <hub_set_port_state+0xb3>
    1708:	83 ec 0c             	sub    $0xc,%esp
    170b:	c7 47 08 05 00 00 00 	movl   $0x5,0x8(%edi)
    1712:	6a 14                	push   $0x14
    1714:	e8 07 24 01 00       	call   13b20 <malloc@plt>
    1719:	89 c7                	mov    %eax,%edi
    171b:	8b 45 08             	mov    0x8(%ebp),%eax
    171e:	89 47 10             	mov    %eax,0x10(%edi)
    1721:	89 5f 0c             	mov    %ebx,0xc(%edi)
    1724:	c7 07 10 27 00 00    	movl   $0x2710,(%edi)
    172a:	c7 47 04 05 00 00 00 	movl   $0x5,0x4(%edi)
    1731:	e9 2f ff ff ff       	jmp    1665 <hub_set_port_state+0x85>
    1736:	66 90                	xchg   %ax,%ax
    1738:	83 ec 0c             	sub    $0xc,%esp
    173b:	68 63 0a 01 00       	push   $0x10a63
    1740:	e8 eb 22 01 00       	call   13a30 <printf@plt>
    1745:	89 3c 24             	mov    %edi,(%esp)
    1748:	e8 13 28 01 00       	call   13f60 <free@plt>
    174d:	8d 04 9b             	lea    (%ebx,%ebx,4),%eax
    1750:	8b 4d 08             	mov    0x8(%ebp),%ecx
    1753:	83 c4 10             	add    $0x10,%esp
    1756:	89 74 81 08          	mov    %esi,0x8(%ecx,%eax,4)
    175a:	e9 3e ff ff ff       	jmp    169d <hub_set_port_state+0xbd>
    175f:	90                   	nop

00001760 <set_port_state_delayed_fibril>:
    1760:	55                   	push   %ebp
    1761:	89 e5                	mov    %esp,%ebp
    1763:	56                   	push   %esi
    1764:	53                   	push   %ebx
    1765:	8b 5d 08             	mov    0x8(%ebp),%ebx
    1768:	83 ec 0c             	sub    $0xc,%esp
    176b:	8b 03                	mov    (%ebx),%eax
    176d:	50                   	push   %eax
    176e:	e8 4d 26 01 00       	call   13dc0 <async_usleep@plt>
    1773:	8b 43 10             	mov    0x10(%ebx),%eax
    1776:	83 c0 2c             	add    $0x2c,%eax
    1779:	89 04 24             	mov    %eax,(%esp)
    177c:	e8 ff 27 01 00       	call   13f80 <fibril_mutex_lock@plt>
    1781:	8b 53 0c             	mov    0xc(%ebx),%edx
    1784:	83 c4 10             	add    $0x10,%esp
    1787:	83 fa 01             	cmp    $0x1,%edx
    178a:	76 1c                	jbe    17a8 <set_port_state_delayed_fibril+0x48>
    178c:	50                   	push   %eax
    178d:	68 d9 01 00 00       	push   $0x1d9
    1792:	68 7c 0a 01 00       	push   $0x10a7c
    1797:	68 86 0a 01 00       	push   $0x10a86
    179c:	e8 6f 24 01 00       	call   13c10 <assert_abort@plt>
    17a1:	8d b4 26 00 00 00 00 	lea    0x0(%esi,%eiz,1),%esi
    17a8:	8b 43 10             	mov    0x10(%ebx),%eax
    17ab:	8d 0c 92             	lea    (%edx,%edx,4),%ecx
    17ae:	8d 0c 88             	lea    (%eax,%ecx,4),%ecx
    17b1:	85 c9                	test   %ecx,%ecx
    17b3:	74 d7                	je     178c <set_port_state_delayed_fibril+0x2c>
    17b5:	8b 73 04             	mov    0x4(%ebx),%esi
    17b8:	39 71 08             	cmp    %esi,0x8(%ecx)
    17bb:	74 23                	je     17e0 <set_port_state_delayed_fibril+0x80>
    17bd:	83 ec 0c             	sub    $0xc,%esp
    17c0:	83 c0 2c             	add    $0x2c,%eax
    17c3:	50                   	push   %eax
    17c4:	e8 d7 24 01 00       	call   13ca0 <fibril_mutex_unlock@plt>
    17c9:	89 1c 24             	mov    %ebx,(%esp)
    17cc:	e8 8f 27 01 00       	call   13f60 <free@plt>
    17d1:	8d 65 f8             	lea    -0x8(%ebp),%esp
    17d4:	31 c0                	xor    %eax,%eax
    17d6:	5b                   	pop    %ebx
    17d7:	5e                   	pop    %esi
    17d8:	5d                   	pop    %ebp
    17d9:	c3                   	ret    
    17da:	8d b6 00 00 00 00    	lea    0x0(%esi),%esi
    17e0:	51                   	push   %ecx
    17e1:	8b 73 08             	mov    0x8(%ebx),%esi
    17e4:	56                   	push   %esi
    17e5:	52                   	push   %edx
    17e6:	50                   	push   %eax
    17e7:	e8 f4 fd ff ff       	call   15e0 <hub_set_port_state>
    17ec:	8b 43 10             	mov    0x10(%ebx),%eax
    17ef:	83 c4 10             	add    $0x10,%esp
    17f2:	eb c9                	jmp    17bd <set_port_state_delayed_fibril+0x5d>
    17f4:	8d b6 00 00 00 00    	lea    0x0(%esi),%esi
    17fa:	8d bf 00 00 00 00    	lea    0x0(%edi),%edi

00001800 <hub_set_port_state_all>:
    1800:	55                   	push   %ebp
    1801:	89 e5                	mov    %esp,%ebp
    1803:	57                   	push   %edi
    1804:	56                   	push   %esi
    1805:	53                   	push   %ebx
    1806:	83 ec 1c             	sub    $0x1c,%esp
    1809:	31 db                	xor    %ebx,%ebx
    180b:	8b 75 0c             	mov    0xc(%ebp),%esi
    180e:	8b 7d 08             	mov    0x8(%ebp),%edi
    1811:	85 ff                	test   %edi,%edi
    1813:	0f 84 8c 00 00 00    	je     18a5 <hub_set_port_state_all+0xa5>
    1819:	83 ec 0c             	sub    $0xc,%esp
    181c:	56                   	push   %esi
    181d:	53                   	push   %ebx
    181e:	68 44 0a 01 00       	push   $0x10a44
    1823:	6a 04                	push   $0x4
    1825:	6a ff                	push   $0xffffffff
    1827:	e8 94 23 01 00       	call   13bc0 <log_msg@plt>
    182c:	83 c4 20             	add    $0x20,%esp
    182f:	83 fe 05             	cmp    $0x5,%esi
    1832:	0f 84 e0 00 00 00    	je     1918 <hub_set_port_state_all+0x118>
    1838:	0f 86 c2 00 00 00    	jbe    1900 <hub_set_port_state_all+0x100>
    183e:	83 fe 06             	cmp    $0x6,%esi
    1841:	74 7d                	je     18c0 <hub_set_port_state_all+0xc0>
    1843:	83 fe 08             	cmp    $0x8,%esi
    1846:	75 5a                	jne    18a2 <hub_set_port_state_all+0xa2>
    1848:	83 ec 0c             	sub    $0xc,%esp
    184b:	c7 47 08 08 00 00 00 	movl   $0x8,0x8(%edi)
    1852:	6a 14                	push   $0x14
    1854:	e8 c7 22 01 00       	call   13b20 <malloc@plt>
    1859:	89 c1                	mov    %eax,%ecx
    185b:	8b 45 08             	mov    0x8(%ebp),%eax
    185e:	89 41 10             	mov    %eax,0x10(%ecx)
    1861:	89 59 0c             	mov    %ebx,0xc(%ecx)
    1864:	c7 01 10 27 00 00    	movl   $0x2710,(%ecx)
    186a:	c7 41 04 08 00 00 00 	movl   $0x8,0x4(%ecx)
    1871:	83 c4 0c             	add    $0xc,%esp
    1874:	c7 41 08 06 00 00 00 	movl   $0x6,0x8(%ecx)
    187b:	89 4d e4             	mov    %ecx,-0x1c(%ebp)
    187e:	6a 00                	push   $0x0
    1880:	51                   	push   %ecx
    1881:	68 60 17 00 00       	push   $0x1760
    1886:	e8 55 26 01 00       	call   13ee0 <fibril_create_generic@plt>
    188b:	83 c4 10             	add    $0x10,%esp
    188e:	85 c0                	test   %eax,%eax
    1890:	0f 84 b2 00 00 00    	je     1948 <hub_set_port_state_all+0x148>
    1896:	83 ec 0c             	sub    $0xc,%esp
    1899:	50                   	push   %eax
    189a:	e8 61 26 01 00       	call   13f00 <fibril_add_ready@plt>
    189f:	83 c4 10             	add    $0x10,%esp
    18a2:	89 77 08             	mov    %esi,0x8(%edi)
    18a5:	43                   	inc    %ebx
    18a6:	83 c7 14             	add    $0x14,%edi
    18a9:	83 fb 02             	cmp    $0x2,%ebx
    18ac:	0f 85 5f ff ff ff    	jne    1811 <hub_set_port_state_all+0x11>
    18b2:	8d 65 f4             	lea    -0xc(%ebp),%esp
    18b5:	5b                   	pop    %ebx
    18b6:	5e                   	pop    %esi
    18b7:	5f                   	pop    %edi
    18b8:	5d                   	pop    %ebp
    18b9:	c3                   	ret    
    18ba:	8d b6 00 00 00 00    	lea    0x0(%esi),%esi
    18c0:	83 7f 08 05          	cmpl   $0x5,0x8(%edi)
    18c4:	75 dc                	jne    18a2 <hub_set_port_state_all+0xa2>
    18c6:	66 8b 47 0c          	mov    0xc(%edi),%ax
    18ca:	89 c1                	mov    %eax,%ecx
    18cc:	25 ff ff 00 00       	and    $0xffff,%eax
    18d1:	83 c9 10             	or     $0x10,%ecx
    18d4:	66 89 4f 0c          	mov    %cx,0xc(%edi)
    18d8:	81 e1 ff ff 00 00    	and    $0xffff,%ecx
    18de:	52                   	push   %edx
    18df:	52                   	push   %edx
    18e0:	51                   	push   %ecx
    18e1:	50                   	push   %eax
    18e2:	8b 4f 04             	mov    0x4(%edi),%ecx
    18e5:	51                   	push   %ecx
    18e6:	68 14 0a 01 00       	push   $0x10a14
    18eb:	6a 04                	push   $0x4
    18ed:	6a ff                	push   $0xffffffff
    18ef:	e8 cc 22 01 00       	call   13bc0 <log_msg@plt>
    18f4:	8b 47 10             	mov    0x10(%edi),%eax
    18f7:	83 c4 20             	add    $0x20,%esp
    18fa:	c6 40 3c 01          	movb   $0x1,0x3c(%eax)
    18fe:	eb a2                	jmp    18a2 <hub_set_port_state_all+0xa2>
    1900:	83 fe 02             	cmp    $0x2,%esi
    1903:	75 9d                	jne    18a2 <hub_set_port_state_all+0xa2>
    1905:	8b 47 10             	mov    0x10(%edi),%eax
    1908:	66 83 67 0c ec       	andw   $0xffec,0xc(%edi)
    190d:	c6 40 3c 01          	movb   $0x1,0x3c(%eax)
    1911:	eb 8f                	jmp    18a2 <hub_set_port_state_all+0xa2>
    1913:	90                   	nop
    1914:	8d 74 26 00          	lea    0x0(%esi,%eiz,1),%esi
    1918:	83 ec 0c             	sub    $0xc,%esp
    191b:	c7 47 08 05 00 00 00 	movl   $0x5,0x8(%edi)
    1922:	6a 14                	push   $0x14
    1924:	e8 f7 21 01 00       	call   13b20 <malloc@plt>
    1929:	89 c1                	mov    %eax,%ecx
    192b:	8b 45 08             	mov    0x8(%ebp),%eax
    192e:	89 41 10             	mov    %eax,0x10(%ecx)
    1931:	89 59 0c             	mov    %ebx,0xc(%ecx)
    1934:	c7 01 10 27 00 00    	movl   $0x2710,(%ecx)
    193a:	c7 41 04 05 00 00 00 	movl   $0x5,0x4(%ecx)
    1941:	e9 2b ff ff ff       	jmp    1871 <hub_set_port_state_all+0x71>
    1946:	66 90                	xchg   %ax,%ax
    1948:	83 ec 0c             	sub    $0xc,%esp
    194b:	68 63 0a 01 00       	push   $0x10a63
    1950:	e8 db 20 01 00       	call   13a30 <printf@plt>
    1955:	8b 4d e4             	mov    -0x1c(%ebp),%ecx
    1958:	89 0c 24             	mov    %ecx,(%esp)
    195b:	e8 00 26 01 00       	call   13f60 <free@plt>
    1960:	83 c4 10             	add    $0x10,%esp
    1963:	e9 3a ff ff ff       	jmp    18a2 <hub_set_port_state_all+0xa2>
    1968:	90                   	nop
    1969:	8d b4 26 00 00 00 00 	lea    0x0(%esi,%eiz,1),%esi

00001970 <hub_get_port_state>:
    1970:	55                   	push   %ebp
    1971:	31 c0                	xor    %eax,%eax
    1973:	89 e5                	mov    %esp,%ebp
    1975:	8b 55 0c             	mov    0xc(%ebp),%edx
    1978:	83 fa 01             	cmp    $0x1,%edx
    197b:	76 03                	jbe    1980 <hub_get_port_state+0x10>
    197d:	5d                   	pop    %ebp
    197e:	c3                   	ret    
    197f:	90                   	nop
    1980:	8d 0c 92             	lea    (%edx,%edx,4),%ecx
    1983:	8b 55 08             	mov    0x8(%ebp),%edx
    1986:	8d 14 8a             	lea    (%edx,%ecx,4),%edx
    1989:	85 d2                	test   %edx,%edx
    198b:	74 f0                	je     197d <hub_get_port_state+0xd>
    198d:	8b 42 08             	mov    0x8(%edx),%eax
    1990:	5d                   	pop    %ebp
    1991:	c3                   	ret    
    1992:	8d b4 26 00 00 00 00 	lea    0x0(%esi,%eiz,1),%esi
    1999:	8d bc 27 00 00 00 00 	lea    0x0(%edi,%eiz,1),%edi

000019a0 <hub_clear_port_status_change>:
    19a0:	55                   	push   %ebp
    19a1:	89 e5                	mov    %esp,%ebp
    19a3:	8b 45 0c             	mov    0xc(%ebp),%eax
    19a6:	83 f8 01             	cmp    $0x1,%eax
    19a9:	76 05                	jbe    19b0 <hub_clear_port_status_change+0x10>
    19ab:	5d                   	pop    %ebp
    19ac:	c3                   	ret    
    19ad:	8d 76 00             	lea    0x0(%esi),%esi
    19b0:	8d 14 80             	lea    (%eax,%eax,4),%edx
    19b3:	8b 45 08             	mov    0x8(%ebp),%eax
    19b6:	8d 14 90             	lea    (%eax,%edx,4),%edx
    19b9:	85 d2                	test   %edx,%edx
    19bb:	74 ee                	je     19ab <hub_clear_port_status_change+0xb>
    19bd:	8b 45 10             	mov    0x10(%ebp),%eax
    19c0:	83 f0 ff             	xor    $0xffffffff,%eax
    19c3:	66 21 42 0c          	and    %ax,0xc(%edx)
    19c7:	8b 42 10             	mov    0x10(%edx),%eax
    19ca:	c6 40 3c 01          	movb   $0x1,0x3c(%eax)
    19ce:	5d                   	pop    %ebp
    19cf:	c3                   	ret    

000019d0 <hub_get_port_status_change>:
    19d0:	55                   	push   %ebp
    19d1:	31 c0                	xor    %eax,%eax
    19d3:	89 e5                	mov    %esp,%ebp
    19d5:	8b 55 0c             	mov    0xc(%ebp),%edx
    19d8:	83 fa 01             	cmp    $0x1,%edx
    19db:	76 03                	jbe    19e0 <hub_get_port_status_change+0x10>
    19dd:	5d                   	pop    %ebp
    19de:	c3                   	ret    
    19df:	90                   	nop
    19e0:	8d 0c 92             	lea    (%edx,%edx,4),%ecx
    19e3:	8b 55 08             	mov    0x8(%ebp),%edx
    19e6:	8d 14 8a             	lea    (%edx,%ecx,4),%edx
    19e9:	85 d2                	test   %edx,%edx
    19eb:	74 f0                	je     19dd <hub_get_port_status_change+0xd>
    19ed:	8b 42 0c             	mov    0xc(%edx),%eax
    19f0:	5d                   	pop    %ebp
    19f1:	c3                   	ret    
    19f2:	8d b4 26 00 00 00 00 	lea    0x0(%esi,%eiz,1),%esi
    19f9:	8d bc 27 00 00 00 00 	lea    0x0(%edi,%eiz,1),%edi

00001a00 <hub_get_port_status>:
    1a00:	55                   	push   %ebp
    1a01:	31 c0                	xor    %eax,%eax
    1a03:	89 e5                	mov    %esp,%ebp
    1a05:	53                   	push   %ebx
    1a06:	8b 55 0c             	mov    0xc(%ebp),%edx
    1a09:	83 fa 01             	cmp    $0x1,%edx
    1a0c:	76 0a                	jbe    1a18 <hub_get_port_status+0x18>
    1a0e:	5b                   	pop    %ebx
    1a0f:	5d                   	pop    %ebp
    1a10:	c3                   	ret    
    1a11:	8d b4 26 00 00 00 00 	lea    0x0(%esi,%eiz,1),%esi
    1a18:	8d 0c 92             	lea    (%edx,%edx,4),%ecx
    1a1b:	8b 55 08             	mov    0x8(%ebp),%edx
    1a1e:	8d 0c 8a             	lea    (%edx,%ecx,4),%ecx
    1a21:	85 c9                	test   %ecx,%ecx
    1a23:	74 e9                	je     1a0e <hub_get_port_status+0xe>
    1a25:	8b 01                	mov    (%ecx),%eax
    1a27:	31 d2                	xor    %edx,%edx
    1a29:	85 c0                	test   %eax,%eax
    1a2b:	8b 41 08             	mov    0x8(%ecx),%eax
    1a2e:	0f 95 c2             	setne  %dl
    1a31:	83 f8 06             	cmp    $0x6,%eax
    1a34:	74 42                	je     1a78 <hub_get_port_status+0x78>
    1a36:	8d 58 f9             	lea    -0x7(%eax),%ebx
    1a39:	83 fb 01             	cmp    $0x1,%ebx
    1a3c:	76 22                	jbe    1a60 <hub_get_port_status+0x60>
    1a3e:	83 f8 05             	cmp    $0x5,%eax
    1a41:	75 20                	jne    1a63 <hub_get_port_status+0x63>
    1a43:	83 ca 10             	or     $0x10,%edx
    1a46:	b8 00 01 00 00       	mov    $0x100,%eax
    1a4b:	09 c2                	or     %eax,%edx
    1a4d:	31 c0                	xor    %eax,%eax
    1a4f:	66 8b 41 0c          	mov    0xc(%ecx),%ax
    1a53:	5b                   	pop    %ebx
    1a54:	c1 e0 10             	shl    $0x10,%eax
    1a57:	5d                   	pop    %ebp
    1a58:	09 d0                	or     %edx,%eax
    1a5a:	c3                   	ret    
    1a5b:	90                   	nop
    1a5c:	8d 74 26 00          	lea    0x0(%esi,%eiz,1),%esi
    1a60:	83 ca 04             	or     $0x4,%edx
    1a63:	83 f8 02             	cmp    $0x2,%eax
    1a66:	0f 95 c0             	setne  %al
    1a69:	25 ff 00 00 00       	and    $0xff,%eax
    1a6e:	c1 e0 08             	shl    $0x8,%eax
    1a71:	eb d8                	jmp    1a4b <hub_get_port_status+0x4b>
    1a73:	90                   	nop
    1a74:	8d 74 26 00          	lea    0x0(%esi,%eiz,1),%esi
    1a78:	83 ca 02             	or     $0x2,%edx
    1a7b:	b8 00 01 00 00       	mov    $0x100,%eax
    1a80:	eb c9                	jmp    1a4b <hub_get_port_status+0x4b>
    1a82:	8d b4 26 00 00 00 00 	lea    0x0(%esi,%eiz,1),%esi
    1a89:	8d bc 27 00 00 00 00 	lea    0x0(%edi,%eiz,1),%edi

00001a90 <hub_get_status_change_bitmap>:
    1a90:	55                   	push   %ebp
    1a91:	89 e5                	mov    %esp,%ebp
    1a93:	53                   	push   %ebx
    1a94:	8b 55 08             	mov    0x8(%ebp),%edx
    1a97:	66 83 7a 0c 00       	cmpw   $0x0,0xc(%edx)
    1a9c:	74 22                	je     1ac0 <hub_get_status_change_bitmap+0x30>
    1a9e:	8b 4a 04             	mov    0x4(%edx),%ecx
    1aa1:	bb 01 00 00 00       	mov    $0x1,%ebx
    1aa6:	d3 e3                	shl    %cl,%ebx
    1aa8:	88 d8                	mov    %bl,%al
    1aaa:	66 83 7a 20 00       	cmpw   $0x0,0x20(%edx)
    1aaf:	74 0c                	je     1abd <hub_get_status_change_bitmap+0x2d>
    1ab1:	8b 4a 18             	mov    0x18(%edx),%ecx
    1ab4:	b8 01 00 00 00       	mov    $0x1,%eax
    1ab9:	d3 e0                	shl    %cl,%eax
    1abb:	09 d8                	or     %ebx,%eax
    1abd:	5b                   	pop    %ebx
    1abe:	5d                   	pop    %ebp
    1abf:	c3                   	ret    
    1ac0:	31 c0                	xor    %eax,%eax
    1ac2:	31 db                	xor    %ebx,%ebx
    1ac4:	66 83 7a 20 00       	cmpw   $0x0,0x20(%edx)
    1ac9:	74 f2                	je     1abd <hub_get_status_change_bitmap+0x2d>
    1acb:	eb e4                	jmp    1ab1 <hub_get_status_change_bitmap+0x21>
    1acd:	66 90                	xchg   %ax,%ax
    1acf:	90                   	nop

00001ad0 <req_set_hub_feature>:
    1ad0:	55                   	push   %ebp
    1ad1:	b8 f5 ff ff ff       	mov    $0xfffffff5,%eax
    1ad6:	89 e5                	mov    %esp,%ebp
    1ad8:	5d                   	pop    %ebp
    1ad9:	c3                   	ret    
    1ada:	8d b6 00 00 00 00    	lea    0x0(%esi),%esi

00001ae0 <on_state_change>:
    1ae0:	55                   	push   %ebp
    1ae1:	89 e5                	mov    %esp,%ebp
    1ae3:	56                   	push   %esi
    1ae4:	53                   	push   %ebx
    1ae5:	8b 45 08             	mov    0x8(%ebp),%eax
    1ae8:	83 ec 0c             	sub    $0xc,%esp
    1aeb:	8b 75 10             	mov    0x10(%ebp),%esi
    1aee:	8b 58 08             	mov    0x8(%eax),%ebx
    1af1:	53                   	push   %ebx
    1af2:	e8 a9 fa ff ff       	call   15a0 <hub_acquire>
    1af7:	83 c4 10             	add    $0x10,%esp
    1afa:	83 fe 01             	cmp    $0x1,%esi
    1afd:	74 21                	je     1b20 <on_state_change+0x40>
    1aff:	83 fe 02             	cmp    $0x2,%esi
    1b02:	75 0d                	jne    1b11 <on_state_change+0x31>
    1b04:	52                   	push   %edx
    1b05:	52                   	push   %edx
    1b06:	6a 02                	push   $0x2
    1b08:	53                   	push   %ebx
    1b09:	e8 f2 fc ff ff       	call   1800 <hub_set_port_state_all>
    1b0e:	83 c4 10             	add    $0x10,%esp
    1b11:	89 5d 08             	mov    %ebx,0x8(%ebp)
    1b14:	8d 65 f8             	lea    -0x8(%ebp),%esp
    1b17:	5b                   	pop    %ebx
    1b18:	5e                   	pop    %esi
    1b19:	5d                   	pop    %ebp
    1b1a:	e9 a1 fa ff ff       	jmp    15c0 <hub_release>
    1b1f:	90                   	nop
    1b20:	50                   	push   %eax
    1b21:	50                   	push   %eax
    1b22:	6a 01                	push   $0x1
    1b24:	53                   	push   %ebx
    1b25:	e8 d6 fc ff ff       	call   1800 <hub_set_port_state_all>
    1b2a:	89 5d 08             	mov    %ebx,0x8(%ebp)
    1b2d:	83 c4 10             	add    $0x10,%esp
    1b30:	8d 65 f8             	lea    -0x8(%ebp),%esp
    1b33:	5b                   	pop    %ebx
    1b34:	5e                   	pop    %esi
    1b35:	5d                   	pop    %ebp
    1b36:	e9 85 fa ff ff       	jmp    15c0 <hub_release>
    1b3b:	90                   	nop
    1b3c:	8d 74 26 00          	lea    0x0(%esi,%eiz,1),%esi

00001b40 <req_set_port_feature>:
    1b40:	55                   	push   %ebp
    1b41:	89 e5                	mov    %esp,%ebp
    1b43:	57                   	push   %edi
    1b44:	56                   	push   %esi
    1b45:	53                   	push   %ebx
    1b46:	83 ec 18             	sub    $0x18,%esp
    1b49:	31 f6                	xor    %esi,%esi
    1b4b:	8b 45 0c             	mov    0xc(%ebp),%eax
    1b4e:	66 8b 70 04          	mov    0x4(%eax),%si
    1b52:	66 8b 78 02          	mov    0x2(%eax),%di
    1b56:	8b 45 08             	mov    0x8(%ebp),%eax
    1b59:	4e                   	dec    %esi
    1b5a:	8b 58 08             	mov    0x8(%eax),%ebx
    1b5d:	53                   	push   %ebx
    1b5e:	e8 3d fa ff ff       	call   15a0 <hub_acquire>
    1b63:	58                   	pop    %eax
    1b64:	5a                   	pop    %edx
    1b65:	56                   	push   %esi
    1b66:	53                   	push   %ebx
    1b67:	e8 04 fe ff ff       	call   1970 <hub_get_port_state>
    1b6c:	83 c4 10             	add    $0x10,%esp
    1b6f:	66 83 ff 04          	cmp    $0x4,%di
    1b73:	74 5b                	je     1bd0 <req_set_port_feature+0x90>
    1b75:	66 83 ff 08          	cmp    $0x8,%di
    1b79:	74 3d                	je     1bb8 <req_set_port_feature+0x78>
    1b7b:	66 83 ff 02          	cmp    $0x2,%di
    1b7f:	74 1f                	je     1ba0 <req_set_port_feature+0x60>
    1b81:	bf f5 ff ff ff       	mov    $0xfffffff5,%edi
    1b86:	83 ec 0c             	sub    $0xc,%esp
    1b89:	53                   	push   %ebx
    1b8a:	e8 31 fa ff ff       	call   15c0 <hub_release>
    1b8f:	8d 65 f4             	lea    -0xc(%ebp),%esp
    1b92:	89 f8                	mov    %edi,%eax
    1b94:	5b                   	pop    %ebx
    1b95:	5e                   	pop    %esi
    1b96:	5f                   	pop    %edi
    1b97:	5d                   	pop    %ebp
    1b98:	c3                   	ret    
    1b99:	8d b4 26 00 00 00 00 	lea    0x0(%esi,%eiz,1),%esi
    1ba0:	31 ff                	xor    %edi,%edi
    1ba2:	83 f8 06             	cmp    $0x6,%eax
    1ba5:	75 df                	jne    1b86 <req_set_port_feature+0x46>
    1ba7:	52                   	push   %edx
    1ba8:	6a 07                	push   $0x7
    1baa:	56                   	push   %esi
    1bab:	53                   	push   %ebx
    1bac:	e8 2f fa ff ff       	call   15e0 <hub_set_port_state>
    1bb1:	83 c4 10             	add    $0x10,%esp
    1bb4:	eb d0                	jmp    1b86 <req_set_port_feature+0x46>
    1bb6:	66 90                	xchg   %ax,%ax
    1bb8:	31 ff                	xor    %edi,%edi
    1bba:	83 f8 02             	cmp    $0x2,%eax
    1bbd:	75 c7                	jne    1b86 <req_set_port_feature+0x46>
    1bbf:	50                   	push   %eax
    1bc0:	6a 03                	push   $0x3
    1bc2:	56                   	push   %esi
    1bc3:	53                   	push   %ebx
    1bc4:	e8 17 fa ff ff       	call   15e0 <hub_set_port_state>
    1bc9:	83 c4 10             	add    $0x10,%esp
    1bcc:	eb b8                	jmp    1b86 <req_set_port_feature+0x46>
    1bce:	66 90                	xchg   %ax,%ax
    1bd0:	31 ff                	xor    %edi,%edi
    1bd2:	83 f8 02             	cmp    $0x2,%eax
    1bd5:	74 af                	je     1b86 <req_set_port_feature+0x46>
    1bd7:	51                   	push   %ecx
    1bd8:	6a 05                	push   $0x5
    1bda:	56                   	push   %esi
    1bdb:	53                   	push   %ebx
    1bdc:	e8 ff f9 ff ff       	call   15e0 <hub_set_port_state>
    1be1:	83 c4 10             	add    $0x10,%esp
    1be4:	eb a0                	jmp    1b86 <req_set_port_feature+0x46>
    1be6:	8d 76 00             	lea    0x0(%esi),%esi
    1be9:	8d bc 27 00 00 00 00 	lea    0x0(%edi,%eiz,1),%edi

00001bf0 <req_get_hub_status>:
    1bf0:	55                   	push   %ebp
    1bf1:	89 e5                	mov    %esp,%ebp
    1bf3:	83 ec 24             	sub    $0x24,%esp
    1bf6:	8d 45 f4             	lea    -0xc(%ebp),%eax
    1bf9:	6a 04                	push   $0x4
    1bfb:	8b 55 10             	mov    0x10(%ebp),%edx
    1bfe:	50                   	push   %eax
    1bff:	8b 4d 0c             	mov    0xc(%ebp),%ecx
    1c02:	8b 45 14             	mov    0x14(%ebp),%eax
    1c05:	50                   	push   %eax
    1c06:	c7 45 f4 00 00 00 00 	movl   $0x0,-0xc(%ebp)
    1c0d:	52                   	push   %edx
    1c0e:	51                   	push   %ecx
    1c0f:	e8 3c 53 00 00       	call   6f50 <usbvirt_control_reply_helper>
    1c14:	31 c0                	xor    %eax,%eax
    1c16:	c9                   	leave  
    1c17:	c3                   	ret    
    1c18:	90                   	nop
    1c19:	8d b4 26 00 00 00 00 	lea    0x0(%esi,%eiz,1),%esi

00001c20 <req_get_descriptor>:
    1c20:	55                   	push   %ebp
    1c21:	89 e5                	mov    %esp,%ebp
    1c23:	83 ec 08             	sub    $0x8,%esp
    1c26:	8b 45 0c             	mov    0xc(%ebp),%eax
    1c29:	80 78 03 29          	cmpb   $0x29,0x3(%eax)
    1c2d:	75 29                	jne    1c58 <req_get_descriptor+0x38>
    1c2f:	83 ec 0c             	sub    $0xc,%esp
    1c32:	31 d2                	xor    %edx,%edx
    1c34:	8a 15 04 60 01 00    	mov    0x16004,%dl
    1c3a:	8b 4d 10             	mov    0x10(%ebp),%ecx
    1c3d:	52                   	push   %edx
    1c3e:	8b 55 14             	mov    0x14(%ebp),%edx
    1c41:	68 04 60 01 00       	push   $0x16004
    1c46:	52                   	push   %edx
    1c47:	51                   	push   %ecx
    1c48:	50                   	push   %eax
    1c49:	e8 02 53 00 00       	call   6f50 <usbvirt_control_reply_helper>
    1c4e:	83 c4 20             	add    $0x20,%esp
    1c51:	31 c0                	xor    %eax,%eax
    1c53:	c9                   	leave  
    1c54:	c3                   	ret    
    1c55:	8d 76 00             	lea    0x0(%esi),%esi
    1c58:	b8 fb ff ff ff       	mov    $0xfffffffb,%eax
    1c5d:	c9                   	leave  
    1c5e:	c3                   	ret    
    1c5f:	90                   	nop

00001c60 <req_clear_port_feature>:
    1c60:	55                   	push   %ebp
    1c61:	89 e5                	mov    %esp,%ebp
    1c63:	57                   	push   %edi
    1c64:	56                   	push   %esi
    1c65:	53                   	push   %ebx
    1c66:	83 ec 18             	sub    $0x18,%esp
    1c69:	31 f6                	xor    %esi,%esi
    1c6b:	8b 45 0c             	mov    0xc(%ebp),%eax
    1c6e:	66 8b 70 04          	mov    0x4(%eax),%si
    1c72:	66 8b 58 02          	mov    0x2(%eax),%bx
    1c76:	8b 45 08             	mov    0x8(%ebp),%eax
    1c79:	4e                   	dec    %esi
    1c7a:	8b 78 08             	mov    0x8(%eax),%edi
    1c7d:	57                   	push   %edi
    1c7e:	e8 1d f9 ff ff       	call   15a0 <hub_acquire>
    1c83:	58                   	pop    %eax
    1c84:	5a                   	pop    %edx
    1c85:	56                   	push   %esi
    1c86:	57                   	push   %edi
    1c87:	e8 e4 fc ff ff       	call   1970 <hub_get_port_state>
    1c8c:	83 c4 10             	add    $0x10,%esp
    1c8f:	66 83 fb 14          	cmp    $0x14,%bx
    1c93:	0f 87 9f 00 00 00    	ja     1d38 <req_clear_port_feature+0xd8>
    1c99:	81 e3 ff ff 00 00    	and    $0xffff,%ebx
    1c9f:	ff 24 9d 9c 0a 01 00 	jmp    *0x10a9c(,%ebx,4)
    1ca6:	66 90                	xchg   %ax,%ax
    1ca8:	50                   	push   %eax
    1ca9:	6a 10                	push   $0x10
    1cab:	56                   	push   %esi
    1cac:	57                   	push   %edi
    1cad:	31 db                	xor    %ebx,%ebx
    1caf:	e8 ec fc ff ff       	call   19a0 <hub_clear_port_status_change>
    1cb4:	83 c4 10             	add    $0x10,%esp
    1cb7:	83 ec 0c             	sub    $0xc,%esp
    1cba:	57                   	push   %edi
    1cbb:	e8 00 f9 ff ff       	call   15c0 <hub_release>
    1cc0:	8d 65 f4             	lea    -0xc(%ebp),%esp
    1cc3:	89 d8                	mov    %ebx,%eax
    1cc5:	5b                   	pop    %ebx
    1cc6:	5e                   	pop    %esi
    1cc7:	5f                   	pop    %edi
    1cc8:	5d                   	pop    %ebp
    1cc9:	c3                   	ret    
    1cca:	8d b6 00 00 00 00    	lea    0x0(%esi),%esi
    1cd0:	48                   	dec    %eax
    1cd1:	31 db                	xor    %ebx,%ebx
    1cd3:	83 f8 01             	cmp    $0x1,%eax
    1cd6:	76 df                	jbe    1cb7 <req_clear_port_feature+0x57>
    1cd8:	50                   	push   %eax
    1cd9:	6a 04                	push   $0x4
    1cdb:	56                   	push   %esi
    1cdc:	57                   	push   %edi
    1cdd:	e8 fe f8 ff ff       	call   15e0 <hub_set_port_state>
    1ce2:	83 c4 10             	add    $0x10,%esp
    1ce5:	eb d0                	jmp    1cb7 <req_clear_port_feature+0x57>
    1ce7:	90                   	nop
    1ce8:	31 db                	xor    %ebx,%ebx
    1cea:	83 f8 07             	cmp    $0x7,%eax
    1ced:	75 c8                	jne    1cb7 <req_clear_port_feature+0x57>
    1cef:	50                   	push   %eax
    1cf0:	6a 08                	push   $0x8
    1cf2:	56                   	push   %esi
    1cf3:	57                   	push   %edi
    1cf4:	e8 e7 f8 ff ff       	call   15e0 <hub_set_port_state>
    1cf9:	83 c4 10             	add    $0x10,%esp
    1cfc:	eb b9                	jmp    1cb7 <req_clear_port_feature+0x57>
    1cfe:	66 90                	xchg   %ax,%ax
    1d00:	31 db                	xor    %ebx,%ebx
    1d02:	48                   	dec    %eax
    1d03:	74 b2                	je     1cb7 <req_clear_port_feature+0x57>
    1d05:	50                   	push   %eax
    1d06:	6a 02                	push   $0x2
    1d08:	56                   	push   %esi
    1d09:	57                   	push   %edi
    1d0a:	e8 d1 f8 ff ff       	call   15e0 <hub_set_port_state>
    1d0f:	83 c4 10             	add    $0x10,%esp
    1d12:	eb a3                	jmp    1cb7 <req_clear_port_feature+0x57>
    1d14:	8d 74 26 00          	lea    0x0(%esi,%eiz,1),%esi
    1d18:	50                   	push   %eax
    1d19:	6a 01                	push   $0x1
    1d1b:	eb 8e                	jmp    1cab <req_clear_port_feature+0x4b>
    1d1d:	8d 76 00             	lea    0x0(%esi),%esi
    1d20:	53                   	push   %ebx
    1d21:	6a 02                	push   $0x2
    1d23:	eb 86                	jmp    1cab <req_clear_port_feature+0x4b>
    1d25:	8d 76 00             	lea    0x0(%esi),%esi
    1d28:	51                   	push   %ecx
    1d29:	6a 04                	push   $0x4
    1d2b:	e9 7b ff ff ff       	jmp    1cab <req_clear_port_feature+0x4b>
    1d30:	52                   	push   %edx
    1d31:	6a 08                	push   $0x8
    1d33:	e9 73 ff ff ff       	jmp    1cab <req_clear_port_feature+0x4b>
    1d38:	bb f5 ff ff ff       	mov    $0xfffffff5,%ebx
    1d3d:	e9 75 ff ff ff       	jmp    1cb7 <req_clear_port_feature+0x57>
    1d42:	8d b4 26 00 00 00 00 	lea    0x0(%esi,%eiz,1),%esi
    1d49:	8d bc 27 00 00 00 00 	lea    0x0(%edi,%eiz,1),%edi

00001d50 <req_get_port_status>:
    1d50:	55                   	push   %ebp
    1d51:	89 e5                	mov    %esp,%ebp
    1d53:	56                   	push   %esi
    1d54:	53                   	push   %ebx
    1d55:	83 ec 1c             	sub    $0x1c,%esp
    1d58:	8b 45 08             	mov    0x8(%ebp),%eax
    1d5b:	8b 75 0c             	mov    0xc(%ebp),%esi
    1d5e:	8b 58 08             	mov    0x8(%eax),%ebx
    1d61:	53                   	push   %ebx
    1d62:	e8 39 f8 ff ff       	call   15a0 <hub_acquire>
    1d67:	58                   	pop    %eax
    1d68:	31 c0                	xor    %eax,%eax
    1d6a:	66 8b 46 04          	mov    0x4(%esi),%ax
    1d6e:	5a                   	pop    %edx
    1d6f:	48                   	dec    %eax
    1d70:	50                   	push   %eax
    1d71:	53                   	push   %ebx
    1d72:	e8 89 fc ff ff       	call   1a00 <hub_get_port_status>
    1d77:	89 1c 24             	mov    %ebx,(%esp)
    1d7a:	89 45 f4             	mov    %eax,-0xc(%ebp)
    1d7d:	e8 3e f8 ff ff       	call   15c0 <hub_release>
    1d82:	8d 45 f4             	lea    -0xc(%ebp),%eax
    1d85:	8b 5d 10             	mov    0x10(%ebp),%ebx
    1d88:	8b 4d 14             	mov    0x14(%ebp),%ecx
    1d8b:	c7 04 24 04 00 00 00 	movl   $0x4,(%esp)
    1d92:	50                   	push   %eax
    1d93:	51                   	push   %ecx
    1d94:	53                   	push   %ebx
    1d95:	56                   	push   %esi
    1d96:	e8 b5 51 00 00       	call   6f50 <usbvirt_control_reply_helper>
    1d9b:	8d 65 f8             	lea    -0x8(%ebp),%esp
    1d9e:	31 c0                	xor    %eax,%eax
    1da0:	5b                   	pop    %ebx
    1da1:	5e                   	pop    %esi
    1da2:	5d                   	pop    %ebp
    1da3:	c3                   	ret    
    1da4:	8d b6 00 00 00 00    	lea    0x0(%esi),%esi
    1daa:	8d bf 00 00 00 00    	lea    0x0(%edi),%edi

00001db0 <req_on_status_change_pipe>:
    1db0:	55                   	push   %ebp
    1db1:	89 e5                	mov    %esp,%ebp
    1db3:	53                   	push   %ebx
    1db4:	51                   	push   %ecx
    1db5:	8b 45 0c             	mov    0xc(%ebp),%eax
    1db8:	83 7d 10 03          	cmpl   $0x3,0x10(%ebp)
    1dbc:	75 62                	jne    1e20 <req_on_status_change_pipe+0x70>
    1dbe:	66 48                	dec    %ax
    1dc0:	75 5e                	jne    1e20 <req_on_status_change_pipe+0x70>
    1dc2:	8b 45 08             	mov    0x8(%ebp),%eax
    1dc5:	83 ec 0c             	sub    $0xc,%esp
    1dc8:	8b 58 08             	mov    0x8(%eax),%ebx
    1dcb:	53                   	push   %ebx
    1dcc:	e8 cf f7 ff ff       	call   15a0 <hub_acquire>
    1dd1:	83 c4 10             	add    $0x10,%esp
    1dd4:	80 7b 3c 00          	cmpb   $0x0,0x3c(%ebx)
    1dd8:	74 56                	je     1e30 <req_on_status_change_pipe+0x80>
    1dda:	83 ec 0c             	sub    $0xc,%esp
    1ddd:	53                   	push   %ebx
    1dde:	e8 ad fc ff ff       	call   1a90 <hub_get_status_change_bitmap>
    1de3:	8b 55 18             	mov    0x18(%ebp),%edx
    1de6:	83 c4 10             	add    $0x10,%esp
    1de9:	85 d2                	test   %edx,%edx
    1deb:	75 23                	jne    1e10 <req_on_status_change_pipe+0x60>
    1ded:	8b 45 1c             	mov    0x1c(%ebp),%eax
    1df0:	c7 00 00 00 00 00    	movl   $0x0,(%eax)
    1df6:	83 ec 0c             	sub    $0xc,%esp
    1df9:	c6 43 3c 00          	movb   $0x0,0x3c(%ebx)
    1dfd:	53                   	push   %ebx
    1dfe:	e8 bd f7 ff ff       	call   15c0 <hub_release>
    1e03:	83 c4 10             	add    $0x10,%esp
    1e06:	31 c0                	xor    %eax,%eax
    1e08:	8b 5d fc             	mov    -0x4(%ebp),%ebx
    1e0b:	c9                   	leave  
    1e0c:	c3                   	ret    
    1e0d:	8d 76 00             	lea    0x0(%esi),%esi
    1e10:	8b 55 14             	mov    0x14(%ebp),%edx
    1e13:	88 02                	mov    %al,(%edx)
    1e15:	8b 45 1c             	mov    0x1c(%ebp),%eax
    1e18:	c7 00 01 00 00 00    	movl   $0x1,(%eax)
    1e1e:	eb d6                	jmp    1df6 <req_on_status_change_pipe+0x46>
    1e20:	b8 d3 fe ff ff       	mov    $0xfffffed3,%eax
    1e25:	8b 5d fc             	mov    -0x4(%ebp),%ebx
    1e28:	c9                   	leave  
    1e29:	c3                   	ret    
    1e2a:	8d b6 00 00 00 00    	lea    0x0(%esi),%esi
    1e30:	83 ec 0c             	sub    $0xc,%esp
    1e33:	53                   	push   %ebx
    1e34:	e8 87 f7 ff ff       	call   15c0 <hub_release>
    1e39:	83 c4 10             	add    $0x10,%esp
    1e3c:	b8 d1 fe ff ff       	mov    $0xfffffed1,%eax
    1e41:	eb c5                	jmp    1e08 <req_on_status_change_pipe+0x58>
    1e43:	8d b6 00 00 00 00    	lea    0x0(%esi),%esi
    1e49:	8d bc 27 00 00 00 00 	lea    0x0(%edi,%eiz,1),%edi

00001e50 <req_clear_hub_feature>:
    1e50:	55                   	push   %ebp
    1e51:	b8 f5 ff ff ff       	mov    $0xfffffff5,%eax
    1e56:	89 e5                	mov    %esp,%ebp
    1e58:	5d                   	pop    %ebp
    1e59:	c3                   	ret    
    1e5a:	8d b6 00 00 00 00    	lea    0x0(%esi),%esi

00001e60 <req_get_bus_state>:
    1e60:	55                   	push   %ebp
    1e61:	b8 f5 ff ff ff       	mov    $0xfffffff5,%eax
    1e66:	89 e5                	mov    %esp,%ebp
    1e68:	5d                   	pop    %ebp
    1e69:	c3                   	ret    
    1e6a:	66 90                	xchg   %ax,%ax
    1e6c:	66 90                	xchg   %ax,%ax
    1e6e:	66 90                	xchg   %ax,%ax

00001e70 <default_connection_handler>:
    1e70:	55                   	push   %ebp
    1e71:	89 e5                	mov    %esp,%ebp
    1e73:	57                   	push   %edi
    1e74:	56                   	push   %esi
    1e75:	53                   	push   %ebx
    1e76:	83 ec 58             	sub    $0x58,%esp
    1e79:	8b 7d 08             	mov    0x8(%ebp),%edi
    1e7c:	57                   	push   %edi
    1e7d:	e8 ee 62 00 00       	call   8170 <ddf_fun_data_get>
    1e82:	8b 4d 10             	mov    0x10(%ebp),%ecx
    1e85:	89 c7                	mov    %eax,%edi
    1e87:	58                   	pop    %eax
    1e88:	5a                   	pop    %edx
    1e89:	51                   	push   %ecx
    1e8a:	6a 01                	push   $0x1
    1e8c:	e8 1f 1e 01 00       	call   13cb0 <async_callback_receive_start@plt>
    1e91:	83 c4 10             	add    $0x10,%esp
    1e94:	85 c0                	test   %eax,%eax
    1e96:	0f 84 3c 01 00 00    	je     1fd8 <default_connection_handler+0x168>
    1e9c:	56                   	push   %esi
    1e9d:	65 8b 35 00 00 00 00 	mov    %gs:0x0,%esi
    1ea4:	89 c3                	mov    %eax,%ebx
    1ea6:	8d 86 18 fe ff ff    	lea    -0x1e8(%esi),%eax
    1eac:	50                   	push   %eax
    1ead:	53                   	push   %ebx
    1eae:	57                   	push   %edi
    1eaf:	e8 9c 01 00 00       	call   2050 <vhc_virtdev_plug>
    1eb4:	83 c4 10             	add    $0x10,%esp
    1eb7:	85 c0                	test   %eax,%eax
    1eb9:	75 75                	jne    1f30 <default_connection_handler+0xc0>
    1ebb:	50                   	push   %eax
    1ebc:	50                   	push   %eax
    1ebd:	8b 45 0c             	mov    0xc(%ebp),%eax
    1ec0:	6a 00                	push   $0x0
    1ec2:	50                   	push   %eax
    1ec3:	e8 c8 1c 01 00       	call   13b90 <async_answer_0@plt>
    1ec8:	89 1c 24             	mov    %ebx,(%esp)
    1ecb:	e8 70 1f 01 00       	call   13e40 <async_exchange_begin@plt>
    1ed0:	83 c4 0c             	add    $0xc,%esp
    1ed3:	89 c3                	mov    %eax,%ebx
    1ed5:	6a 00                	push   $0x0
    1ed7:	6a 00                	push   $0x0
    1ed9:	6a 00                	push   $0x0
    1edb:	6a 00                	push   $0x0
    1edd:	6a 00                	push   $0x0
    1edf:	68 50 04 00 00       	push   $0x450
    1ee4:	50                   	push   %eax
    1ee5:	e8 c6 1c 01 00       	call   13bb0 <async_send_fast@plt>
    1eea:	83 c4 20             	add    $0x20,%esp
    1eed:	89 c7                	mov    %eax,%edi
    1eef:	85 c0                	test   %eax,%eax
    1ef1:	75 5d                	jne    1f50 <default_connection_handler+0xe0>
    1ef3:	83 ec 0c             	sub    $0xc,%esp
    1ef6:	53                   	push   %ebx
    1ef7:	e8 04 1d 01 00       	call   13c00 <async_exchange_end@plt>
    1efc:	83 c4 10             	add    $0x10,%esp
    1eff:	83 ec 0c             	sub    $0xc,%esp
    1f02:	8b 8e 18 fe ff ff    	mov    -0x1e8(%esi),%ecx
    1f08:	81 c6 14 fd ff ff    	add    $0xfffffd14,%esi
    1f0e:	51                   	push   %ecx
    1f0f:	56                   	push   %esi
    1f10:	68 8c 0b 01 00       	push   $0x10b8c
    1f15:	6a 03                	push   $0x3
    1f17:	6a ff                	push   $0xffffffff
    1f19:	e8 a2 1c 01 00       	call   13bc0 <log_msg@plt>
    1f1e:	83 c4 20             	add    $0x20,%esp
    1f21:	8d 65 f4             	lea    -0xc(%ebp),%esp
    1f24:	5b                   	pop    %ebx
    1f25:	5e                   	pop    %esi
    1f26:	5f                   	pop    %edi
    1f27:	5d                   	pop    %ebp
    1f28:	c3                   	ret    
    1f29:	8d b4 26 00 00 00 00 	lea    0x0(%esi,%eiz,1),%esi
    1f30:	8b 4d 0c             	mov    0xc(%ebp),%ecx
    1f33:	52                   	push   %edx
    1f34:	52                   	push   %edx
    1f35:	50                   	push   %eax
    1f36:	51                   	push   %ecx
    1f37:	e8 54 1c 01 00       	call   13b90 <async_answer_0@plt>
    1f3c:	89 1c 24             	mov    %ebx,(%esp)
    1f3f:	e8 fc 1a 01 00       	call   13a40 <async_hangup@plt>
    1f44:	83 c4 10             	add    $0x10,%esp
    1f47:	8d 65 f4             	lea    -0xc(%ebp),%esp
    1f4a:	5b                   	pop    %ebx
    1f4b:	5e                   	pop    %esi
    1f4c:	5f                   	pop    %edi
    1f4d:	5d                   	pop    %ebp
    1f4e:	c3                   	ret    
    1f4f:	90                   	nop
    1f50:	8d 45 c4             	lea    -0x3c(%ebp),%eax
    1f53:	50                   	push   %eax
    1f54:	8d 86 14 fd ff ff    	lea    -0x2ec(%esi),%eax
    1f5a:	68 00 01 00 00       	push   $0x100
    1f5f:	89 45 b0             	mov    %eax,-0x50(%ebp)
    1f62:	50                   	push   %eax
    1f63:	53                   	push   %ebx
    1f64:	e8 67 1c 01 00       	call   13bd0 <async_data_read@plt>
    1f69:	89 1c 24             	mov    %ebx,(%esp)
    1f6c:	89 45 b4             	mov    %eax,-0x4c(%ebp)
    1f6f:	e8 8c 1c 01 00       	call   13c00 <async_exchange_end@plt>
    1f74:	8b 45 b4             	mov    -0x4c(%ebp),%eax
    1f77:	83 c4 10             	add    $0x10,%esp
    1f7a:	85 c0                	test   %eax,%eax
    1f7c:	74 42                	je     1fc0 <default_connection_handler+0x150>
    1f7e:	8d 4d bc             	lea    -0x44(%ebp),%ecx
    1f81:	52                   	push   %edx
    1f82:	52                   	push   %edx
    1f83:	51                   	push   %ecx
    1f84:	50                   	push   %eax
    1f85:	e8 d6 1a 01 00       	call   13a60 <async_wait_for@plt>
    1f8a:	8d 45 c0             	lea    -0x40(%ebp),%eax
    1f8d:	59                   	pop    %ecx
    1f8e:	5b                   	pop    %ebx
    1f8f:	50                   	push   %eax
    1f90:	57                   	push   %edi
    1f91:	e8 ca 1a 01 00       	call   13a60 <async_wait_for@plt>
    1f96:	8b 7d bc             	mov    -0x44(%ebp),%edi
    1f99:	83 c4 10             	add    $0x10,%esp
    1f9c:	85 ff                	test   %edi,%edi
    1f9e:	0f 85 5b ff ff ff    	jne    1eff <default_connection_handler+0x8f>
    1fa4:	8b 7d c0             	mov    -0x40(%ebp),%edi
    1fa7:	85 ff                	test   %edi,%edi
    1fa9:	0f 85 50 ff ff ff    	jne    1eff <default_connection_handler+0x8f>
    1faf:	8b 7d b0             	mov    -0x50(%ebp),%edi
    1fb2:	8b 5d cc             	mov    -0x34(%ebp),%ebx
    1fb5:	01 df                	add    %ebx,%edi
    1fb7:	c6 07 00             	movb   $0x0,(%edi)
    1fba:	e9 40 ff ff ff       	jmp    1eff <default_connection_handler+0x8f>
    1fbf:	90                   	nop
    1fc0:	83 ec 0c             	sub    $0xc,%esp
    1fc3:	57                   	push   %edi
    1fc4:	e8 07 1f 01 00       	call   13ed0 <async_forget@plt>
    1fc9:	83 c4 10             	add    $0x10,%esp
    1fcc:	e9 2e ff ff ff       	jmp    1eff <default_connection_handler+0x8f>
    1fd1:	8d b4 26 00 00 00 00 	lea    0x0(%esi,%eiz,1),%esi
    1fd8:	8b 55 0c             	mov    0xc(%ebp),%edx
    1fdb:	50                   	push   %eax
    1fdc:	50                   	push   %eax
    1fdd:	6a f2                	push   $0xfffffff2
    1fdf:	52                   	push   %edx
    1fe0:	e8 ab 1b 01 00       	call   13b90 <async_answer_0@plt>
    1fe5:	83 c4 10             	add    $0x10,%esp
    1fe8:	8d 65 f4             	lea    -0xc(%ebp),%esp
    1feb:	5b                   	pop    %ebx
    1fec:	5e                   	pop    %esi
    1fed:	5f                   	pop    %edi
    1fee:	5d                   	pop    %ebp
    1fef:	c3                   	ret    

00001ff0 <on_client_close>:
    1ff0:	55                   	push   %ebp
    1ff1:	89 e5                	mov    %esp,%ebp
    1ff3:	53                   	push   %ebx
    1ff4:	83 ec 20             	sub    $0x20,%esp
    1ff7:	65 8b 1d 00 00 00 00 	mov    %gs:0x0,%ebx
    1ffe:	8b 55 08             	mov    0x8(%ebp),%edx
    2001:	52                   	push   %edx
    2002:	e8 69 61 00 00       	call   8170 <ddf_fun_data_get>
    2007:	8b 93 18 fe ff ff    	mov    -0x1e8(%ebx),%edx
    200d:	83 c4 10             	add    $0x10,%esp
    2010:	85 d2                	test   %edx,%edx
    2012:	74 32                	je     2046 <on_client_close+0x56>
    2014:	83 ec 0c             	sub    $0xc,%esp
    2017:	89 45 f4             	mov    %eax,-0xc(%ebp)
    201a:	52                   	push   %edx
    201b:	8d 93 14 fd ff ff    	lea    -0x2ec(%ebx),%edx
    2021:	52                   	push   %edx
    2022:	68 b0 0b 01 00       	push   $0x10bb0
    2027:	6a 03                	push   $0x3
    2029:	6a ff                	push   $0xffffffff
    202b:	e8 90 1b 01 00       	call   13bc0 <log_msg@plt>
    2030:	83 c4 18             	add    $0x18,%esp
    2033:	8b 83 18 fe ff ff    	mov    -0x1e8(%ebx),%eax
    2039:	50                   	push   %eax
    203a:	8b 45 f4             	mov    -0xc(%ebp),%eax
    203d:	50                   	push   %eax
    203e:	e8 0d 03 00 00       	call   2350 <vhc_virtdev_unplug>
    2043:	83 c4 10             	add    $0x10,%esp
    2046:	8b 5d fc             	mov    -0x4(%ebp),%ebx
    2049:	c9                   	leave  
    204a:	c3                   	ret    
    204b:	66 90                	xchg   %ax,%ax
    204d:	66 90                	xchg   %ax,%ax
    204f:	90                   	nop

00002050 <vhc_virtdev_plug>:
    2050:	55                   	push   %ebp
    2051:	89 e5                	mov    %esp,%ebp
    2053:	57                   	push   %edi
    2054:	56                   	push   %esi
    2055:	53                   	push   %ebx
    2056:	83 ec 18             	sub    $0x18,%esp
    2059:	8b 75 08             	mov    0x8(%ebp),%esi
    205c:	6a 2c                	push   $0x2c
    205e:	e8 bd 1a 01 00       	call   13b20 <malloc@plt>
    2063:	83 c4 10             	add    $0x10,%esp
    2066:	85 c0                	test   %eax,%eax
    2068:	0f 84 c2 00 00 00    	je     2130 <vhc_virtdev_plug+0xe0>
    206e:	89 c3                	mov    %eax,%ebx
    2070:	83 ec 0c             	sub    $0xc,%esp
    2073:	66 c7 40 12 00 00    	movw   $0x0,0x12(%eax)
    2079:	c7 40 08 00 00 00 00 	movl   $0x0,0x8(%eax)
    2080:	c7 40 0c 00 00 00 00 	movl   $0x0,0xc(%eax)
    2087:	c6 40 10 01          	movb   $0x1,0x10(%eax)
    208b:	c7 00 00 00 00 00    	movl   $0x0,(%eax)
    2091:	c7 40 04 00 00 00 00 	movl   $0x0,0x4(%eax)
    2098:	8d 40 14             	lea    0x14(%eax),%eax
    209b:	8d 7e 0c             	lea    0xc(%esi),%edi
    209e:	50                   	push   %eax
    209f:	e8 2c 1c 01 00       	call   13cd0 <fibril_mutex_initialize@plt>
    20a4:	8d 43 24             	lea    0x24(%ebx),%eax
    20a7:	c7 43 0c 00 00 00 00 	movl   $0x0,0xc(%ebx)
    20ae:	89 43 24             	mov    %eax,0x24(%ebx)
    20b1:	89 43 28             	mov    %eax,0x28(%ebx)
    20b4:	8b 45 0c             	mov    0xc(%ebp),%eax
    20b7:	66 c7 43 12 00 00    	movw   $0x0,0x12(%ebx)
    20bd:	89 43 08             	mov    %eax,0x8(%ebx)
    20c0:	89 3c 24             	mov    %edi,(%esp)
    20c3:	e8 b8 1e 01 00       	call   13f80 <fibril_mutex_lock@plt>
    20c8:	8d 56 04             	lea    0x4(%esi),%edx
    20cb:	89 53 04             	mov    %edx,0x4(%ebx)
    20ce:	8b 56 04             	mov    0x4(%esi),%edx
    20d1:	89 13                	mov    %edx,(%ebx)
    20d3:	89 5a 04             	mov    %ebx,0x4(%edx)
    20d6:	89 5e 04             	mov    %ebx,0x4(%esi)
    20d9:	89 3c 24             	mov    %edi,(%esp)
    20dc:	e8 bf 1b 01 00       	call   13ca0 <fibril_mutex_unlock@plt>
    20e1:	83 c4 0c             	add    $0xc,%esp
    20e4:	6a 00                	push   $0x0
    20e6:	53                   	push   %ebx
    20e7:	68 f0 27 00 00       	push   $0x27f0
    20ec:	e8 ef 1d 01 00       	call   13ee0 <fibril_create_generic@plt>
    20f1:	83 c4 10             	add    $0x10,%esp
    20f4:	85 c0                	test   %eax,%eax
    20f6:	74 40                	je     2138 <vhc_virtdev_plug+0xe8>
    20f8:	83 ec 0c             	sub    $0xc,%esp
    20fb:	50                   	push   %eax
    20fc:	e8 ff 1d 01 00       	call   13f00 <fibril_add_ready@plt>
    2101:	8b 55 10             	mov    0x10(%ebp),%edx
    2104:	83 c4 10             	add    $0x10,%esp
    2107:	85 d2                	test   %edx,%edx
    2109:	74 05                	je     2110 <vhc_virtdev_plug+0xc0>
    210b:	8b 45 10             	mov    0x10(%ebp),%eax
    210e:	89 18                	mov    %ebx,(%eax)
    2110:	83 c6 1c             	add    $0x1c,%esi
    2113:	50                   	push   %eax
    2114:	50                   	push   %eax
    2115:	53                   	push   %ebx
    2116:	56                   	push   %esi
    2117:	e8 b4 f0 ff ff       	call   11d0 <virthub_connect_device>
    211c:	83 c4 10             	add    $0x10,%esp
    211f:	31 c0                	xor    %eax,%eax
    2121:	8d 65 f4             	lea    -0xc(%ebp),%esp
    2124:	5b                   	pop    %ebx
    2125:	5e                   	pop    %esi
    2126:	5f                   	pop    %edi
    2127:	5d                   	pop    %ebp
    2128:	c3                   	ret    
    2129:	8d b4 26 00 00 00 00 	lea    0x0(%esi,%eiz,1),%esi
    2130:	b8 fe ff ff ff       	mov    $0xfffffffe,%eax
    2135:	eb ea                	jmp    2121 <vhc_virtdev_plug+0xd1>
    2137:	90                   	nop
    2138:	83 ec 0c             	sub    $0xc,%esp
    213b:	53                   	push   %ebx
    213c:	e8 1f 1e 01 00       	call   13f60 <free@plt>
    2141:	83 c4 10             	add    $0x10,%esp
    2144:	b8 fe ff ff ff       	mov    $0xfffffffe,%eax
    2149:	eb d6                	jmp    2121 <vhc_virtdev_plug+0xd1>
    214b:	90                   	nop
    214c:	8d 74 26 00          	lea    0x0(%esi,%eiz,1),%esi

00002150 <vhc_virtdev_plug_local>:
    2150:	55                   	push   %ebp
    2151:	89 e5                	mov    %esp,%ebp
    2153:	57                   	push   %edi
    2154:	56                   	push   %esi
    2155:	53                   	push   %ebx
    2156:	83 ec 18             	sub    $0x18,%esp
    2159:	8b 75 08             	mov    0x8(%ebp),%esi
    215c:	6a 2c                	push   $0x2c
    215e:	e8 bd 19 01 00       	call   13b20 <malloc@plt>
    2163:	83 c4 10             	add    $0x10,%esp
    2166:	85 c0                	test   %eax,%eax
    2168:	0f 84 c2 00 00 00    	je     2230 <vhc_virtdev_plug_local+0xe0>
    216e:	89 c3                	mov    %eax,%ebx
    2170:	83 ec 0c             	sub    $0xc,%esp
    2173:	66 c7 40 12 00 00    	movw   $0x0,0x12(%eax)
    2179:	c7 40 08 00 00 00 00 	movl   $0x0,0x8(%eax)
    2180:	c7 40 0c 00 00 00 00 	movl   $0x0,0xc(%eax)
    2187:	c6 40 10 01          	movb   $0x1,0x10(%eax)
    218b:	c7 00 00 00 00 00    	movl   $0x0,(%eax)
    2191:	c7 40 04 00 00 00 00 	movl   $0x0,0x4(%eax)
    2198:	8d 40 14             	lea    0x14(%eax),%eax
    219b:	8d 7e 0c             	lea    0xc(%esi),%edi
    219e:	50                   	push   %eax
    219f:	e8 2c 1b 01 00       	call   13cd0 <fibril_mutex_initialize@plt>
    21a4:	8d 43 24             	lea    0x24(%ebx),%eax
    21a7:	c7 43 08 00 00 00 00 	movl   $0x0,0x8(%ebx)
    21ae:	89 43 24             	mov    %eax,0x24(%ebx)
    21b1:	89 43 28             	mov    %eax,0x28(%ebx)
    21b4:	8b 45 0c             	mov    0xc(%ebp),%eax
    21b7:	66 c7 43 12 00 00    	movw   $0x0,0x12(%ebx)
    21bd:	89 43 0c             	mov    %eax,0xc(%ebx)
    21c0:	89 3c 24             	mov    %edi,(%esp)
    21c3:	e8 b8 1d 01 00       	call   13f80 <fibril_mutex_lock@plt>
    21c8:	8d 56 04             	lea    0x4(%esi),%edx
    21cb:	89 53 04             	mov    %edx,0x4(%ebx)
    21ce:	8b 56 04             	mov    0x4(%esi),%edx
    21d1:	89 13                	mov    %edx,(%ebx)
    21d3:	89 5a 04             	mov    %ebx,0x4(%edx)
    21d6:	89 5e 04             	mov    %ebx,0x4(%esi)
    21d9:	89 3c 24             	mov    %edi,(%esp)
    21dc:	e8 bf 1a 01 00       	call   13ca0 <fibril_mutex_unlock@plt>
    21e1:	83 c4 0c             	add    $0xc,%esp
    21e4:	6a 00                	push   $0x0
    21e6:	53                   	push   %ebx
    21e7:	68 f0 27 00 00       	push   $0x27f0
    21ec:	e8 ef 1c 01 00       	call   13ee0 <fibril_create_generic@plt>
    21f1:	83 c4 10             	add    $0x10,%esp
    21f4:	85 c0                	test   %eax,%eax
    21f6:	74 40                	je     2238 <vhc_virtdev_plug_local+0xe8>
    21f8:	83 ec 0c             	sub    $0xc,%esp
    21fb:	50                   	push   %eax
    21fc:	e8 ff 1c 01 00       	call   13f00 <fibril_add_ready@plt>
    2201:	8b 55 10             	mov    0x10(%ebp),%edx
    2204:	83 c4 10             	add    $0x10,%esp
    2207:	85 d2                	test   %edx,%edx
    2209:	74 05                	je     2210 <vhc_virtdev_plug_local+0xc0>
    220b:	8b 45 10             	mov    0x10(%ebp),%eax
    220e:	89 18                	mov    %ebx,(%eax)
    2210:	83 c6 1c             	add    $0x1c,%esi
    2213:	50                   	push   %eax
    2214:	50                   	push   %eax
    2215:	53                   	push   %ebx
    2216:	56                   	push   %esi
    2217:	e8 b4 ef ff ff       	call   11d0 <virthub_connect_device>
    221c:	83 c4 10             	add    $0x10,%esp
    221f:	31 c0                	xor    %eax,%eax
    2221:	8d 65 f4             	lea    -0xc(%ebp),%esp
    2224:	5b                   	pop    %ebx
    2225:	5e                   	pop    %esi
    2226:	5f                   	pop    %edi
    2227:	5d                   	pop    %ebp
    2228:	c3                   	ret    
    2229:	8d b4 26 00 00 00 00 	lea    0x0(%esi,%eiz,1),%esi
    2230:	b8 fe ff ff ff       	mov    $0xfffffffe,%eax
    2235:	eb ea                	jmp    2221 <vhc_virtdev_plug_local+0xd1>
    2237:	90                   	nop
    2238:	83 ec 0c             	sub    $0xc,%esp
    223b:	53                   	push   %ebx
    223c:	e8 1f 1d 01 00       	call   13f60 <free@plt>
    2241:	83 c4 10             	add    $0x10,%esp
    2244:	b8 fe ff ff ff       	mov    $0xfffffffe,%eax
    2249:	eb d6                	jmp    2221 <vhc_virtdev_plug_local+0xd1>
    224b:	90                   	nop
    224c:	8d 74 26 00          	lea    0x0(%esi,%eiz,1),%esi

00002250 <vhc_virtdev_plug_hub>:
    2250:	55                   	push   %ebp
    2251:	89 e5                	mov    %esp,%ebp
    2253:	57                   	push   %edi
    2254:	56                   	push   %esi
    2255:	53                   	push   %ebx
    2256:	83 ec 18             	sub    $0x18,%esp
    2259:	8b 5d 08             	mov    0x8(%ebp),%ebx
    225c:	8b 7d 14             	mov    0x14(%ebp),%edi
    225f:	6a 2c                	push   $0x2c
    2261:	e8 ba 18 01 00       	call   13b20 <malloc@plt>
    2266:	83 c4 10             	add    $0x10,%esp
    2269:	85 c0                	test   %eax,%eax
    226b:	0f 84 bf 00 00 00    	je     2330 <vhc_virtdev_plug_hub+0xe0>
    2271:	89 c6                	mov    %eax,%esi
    2273:	83 ec 0c             	sub    $0xc,%esp
    2276:	66 c7 40 12 00 00    	movw   $0x0,0x12(%eax)
    227c:	c7 40 08 00 00 00 00 	movl   $0x0,0x8(%eax)
    2283:	c7 40 0c 00 00 00 00 	movl   $0x0,0xc(%eax)
    228a:	c6 40 10 01          	movb   $0x1,0x10(%eax)
    228e:	c7 00 00 00 00 00    	movl   $0x0,(%eax)
    2294:	c7 40 04 00 00 00 00 	movl   $0x0,0x4(%eax)
    229b:	8d 40 14             	lea    0x14(%eax),%eax
    229e:	50                   	push   %eax
    229f:	e8 2c 1a 01 00       	call   13cd0 <fibril_mutex_initialize@plt>
    22a4:	8d 46 24             	lea    0x24(%esi),%eax
    22a7:	66 89 7e 12          	mov    %di,0x12(%esi)
    22ab:	89 46 24             	mov    %eax,0x24(%esi)
    22ae:	89 46 28             	mov    %eax,0x28(%esi)
    22b1:	8b 45 0c             	mov    0xc(%ebp),%eax
    22b4:	c7 46 08 00 00 00 00 	movl   $0x0,0x8(%esi)
    22bb:	89 46 0c             	mov    %eax,0xc(%esi)
    22be:	8d 7b 0c             	lea    0xc(%ebx),%edi
    22c1:	89 3c 24             	mov    %edi,(%esp)
    22c4:	e8 b7 1c 01 00       	call   13f80 <fibril_mutex_lock@plt>
    22c9:	8d 43 04             	lea    0x4(%ebx),%eax
    22cc:	89 46 04             	mov    %eax,0x4(%esi)
    22cf:	8b 43 04             	mov    0x4(%ebx),%eax
    22d2:	89 06                	mov    %eax,(%esi)
    22d4:	89 70 04             	mov    %esi,0x4(%eax)
    22d7:	89 73 04             	mov    %esi,0x4(%ebx)
    22da:	89 3c 24             	mov    %edi,(%esp)
    22dd:	e8 be 19 01 00       	call   13ca0 <fibril_mutex_unlock@plt>
    22e2:	83 c4 0c             	add    $0xc,%esp
    22e5:	6a 00                	push   $0x0
    22e7:	56                   	push   %esi
    22e8:	68 f0 27 00 00       	push   $0x27f0
    22ed:	e8 ee 1b 01 00       	call   13ee0 <fibril_create_generic@plt>
    22f2:	83 c4 10             	add    $0x10,%esp
    22f5:	85 c0                	test   %eax,%eax
    22f7:	74 3f                	je     2338 <vhc_virtdev_plug_hub+0xe8>
    22f9:	83 ec 0c             	sub    $0xc,%esp
    22fc:	50                   	push   %eax
    22fd:	e8 fe 1b 01 00       	call   13f00 <fibril_add_ready@plt>
    2302:	8b 45 10             	mov    0x10(%ebp),%eax
    2305:	83 c4 10             	add    $0x10,%esp
    2308:	85 c0                	test   %eax,%eax
    230a:	74 14                	je     2320 <vhc_virtdev_plug_hub+0xd0>
    230c:	8b 45 10             	mov    0x10(%ebp),%eax
    230f:	89 30                	mov    %esi,(%eax)
    2311:	31 c0                	xor    %eax,%eax
    2313:	8d 65 f4             	lea    -0xc(%ebp),%esp
    2316:	5b                   	pop    %ebx
    2317:	5e                   	pop    %esi
    2318:	5f                   	pop    %edi
    2319:	5d                   	pop    %ebp
    231a:	c3                   	ret    
    231b:	90                   	nop
    231c:	8d 74 26 00          	lea    0x0(%esi,%eiz,1),%esi
    2320:	8d 65 f4             	lea    -0xc(%ebp),%esp
    2323:	31 c0                	xor    %eax,%eax
    2325:	5b                   	pop    %ebx
    2326:	5e                   	pop    %esi
    2327:	5f                   	pop    %edi
    2328:	5d                   	pop    %ebp
    2329:	c3                   	ret    
    232a:	8d b6 00 00 00 00    	lea    0x0(%esi),%esi
    2330:	b8 fe ff ff ff       	mov    $0xfffffffe,%eax
    2335:	eb dc                	jmp    2313 <vhc_virtdev_plug_hub+0xc3>
    2337:	90                   	nop
    2338:	83 ec 0c             	sub    $0xc,%esp
    233b:	56                   	push   %esi
    233c:	e8 1f 1c 01 00       	call   13f60 <free@plt>
    2341:	83 c4 10             	add    $0x10,%esp
    2344:	b8 fe ff ff ff       	mov    $0xfffffffe,%eax
    2349:	eb c8                	jmp    2313 <vhc_virtdev_plug_hub+0xc3>
    234b:	90                   	nop
    234c:	8d 74 26 00          	lea    0x0(%esi,%eiz,1),%esi

00002350 <vhc_virtdev_unplug>:
    2350:	55                   	push   %ebp
    2351:	89 e5                	mov    %esp,%ebp
    2353:	57                   	push   %edi
    2354:	56                   	push   %esi
    2355:	53                   	push   %ebx
    2356:	83 ec 14             	sub    $0x14,%esp
    2359:	8b 75 08             	mov    0x8(%ebp),%esi
    235c:	8b 5d 0c             	mov    0xc(%ebp),%ebx
    235f:	53                   	push   %ebx
    2360:	8d 46 1c             	lea    0x1c(%esi),%eax
    2363:	8d 7b 14             	lea    0x14(%ebx),%edi
    2366:	50                   	push   %eax
    2367:	83 c6 0c             	add    $0xc,%esi
    236a:	e8 d1 ee ff ff       	call   1240 <virthub_disconnect_device>
    236f:	89 34 24             	mov    %esi,(%esp)
    2372:	e8 09 1c 01 00       	call   13f80 <fibril_mutex_lock@plt>
    2377:	89 3c 24             	mov    %edi,(%esp)
    237a:	e8 01 1c 01 00       	call   13f80 <fibril_mutex_lock@plt>
    237f:	8b 13                	mov    (%ebx),%edx
    2381:	83 c4 10             	add    $0x10,%esp
    2384:	c6 43 10 00          	movb   $0x0,0x10(%ebx)
    2388:	85 d2                	test   %edx,%edx
    238a:	74 0e                	je     239a <vhc_virtdev_unplug+0x4a>
    238c:	8b 43 04             	mov    0x4(%ebx),%eax
    238f:	85 c0                	test   %eax,%eax
    2391:	74 07                	je     239a <vhc_virtdev_unplug+0x4a>
    2393:	89 10                	mov    %edx,(%eax)
    2395:	8b 13                	mov    (%ebx),%edx
    2397:	89 42 04             	mov    %eax,0x4(%edx)
    239a:	83 ec 0c             	sub    $0xc,%esp
    239d:	c7 03 00 00 00 00    	movl   $0x0,(%ebx)
    23a3:	c7 43 04 00 00 00 00 	movl   $0x0,0x4(%ebx)
    23aa:	57                   	push   %edi
    23ab:	e8 f0 18 01 00       	call   13ca0 <fibril_mutex_unlock@plt>
    23b0:	89 75 08             	mov    %esi,0x8(%ebp)
    23b3:	83 c4 10             	add    $0x10,%esp
    23b6:	8d 65 f4             	lea    -0xc(%ebp),%esp
    23b9:	5b                   	pop    %ebx
    23ba:	5e                   	pop    %esi
    23bb:	5f                   	pop    %edi
    23bc:	5d                   	pop    %ebp
    23bd:	e9 de 18 01 00       	jmp    13ca0 <fibril_mutex_unlock@plt>
    23c2:	66 90                	xchg   %ax,%ax
    23c4:	66 90                	xchg   %ax,%ax
    23c6:	66 90                	xchg   %ax,%ax
    23c8:	66 90                	xchg   %ax,%ax
    23ca:	66 90                	xchg   %ax,%ax
    23cc:	66 90                	xchg   %ax,%ax
    23ce:	66 90                	xchg   %ax,%ax

000023d0 <vhc_dev_add>:
    23d0:	55                   	push   %ebp
    23d1:	89 e5                	mov    %esp,%ebp
    23d3:	57                   	push   %edi
    23d4:	56                   	push   %esi
    23d5:	53                   	push   %ebx
    23d6:	83 ec 1c             	sub    $0x1c,%esp
    23d9:	8b 75 08             	mov    0x8(%ebp),%esi
    23dc:	85 f6                	test   %esi,%esi
    23de:	0f 84 c3 01 00 00    	je     25a7 <vhc_dev_add+0x1d7>
    23e4:	50                   	push   %eax
    23e5:	68 e3 0b 01 00       	push   $0x10be3
    23ea:	6a 02                	push   $0x2
    23ec:	56                   	push   %esi
    23ed:	e8 0e 5c 00 00       	call   8000 <ddf_fun_create>
    23f2:	83 c4 10             	add    $0x10,%esp
    23f5:	89 c3                	mov    %eax,%ebx
    23f7:	85 c0                	test   %eax,%eax
    23f9:	0f 84 a1 01 00 00    	je     25a0 <vhc_dev_add+0x1d0>
    23ff:	57                   	push   %edi
    2400:	57                   	push   %edi
    2401:	6a 3c                	push   $0x3c
    2403:	50                   	push   %eax
    2404:	e8 07 5d 00 00       	call   8110 <ddf_fun_data_alloc>
    2409:	83 c4 10             	add    $0x10,%esp
    240c:	89 c7                	mov    %eax,%edi
    240e:	85 c0                	test   %eax,%eax
    2410:	0f 84 72 01 00 00    	je     2588 <vhc_dev_add+0x1b8>
    2416:	51                   	push   %ecx
    2417:	51                   	push   %ecx
    2418:	68 c0 61 01 00       	push   $0x161c0
    241d:	53                   	push   %ebx
    241e:	e8 8d 61 00 00       	call   85b0 <ddf_fun_set_ops>
    2423:	89 1c 24             	mov    %ebx,(%esp)
    2426:	e8 95 5e 00 00       	call   82c0 <ddf_fun_bind>
    242b:	83 c4 10             	add    $0x10,%esp
    242e:	85 c0                	test   %eax,%eax
    2430:	0f 85 0a 01 00 00    	jne    2540 <vhc_dev_add+0x170>
    2436:	83 ec 0c             	sub    $0xc,%esp
    2439:	57                   	push   %edi
    243a:	e8 d1 01 00 00       	call   2610 <vhc_init>
    243f:	89 1c 24             	mov    %ebx,(%esp)
    2442:	e8 29 5d 00 00       	call   8170 <ddf_fun_data_get>
    2447:	68 b0 53 00 00       	push   $0x53b0
    244c:	89 45 e4             	mov    %eax,-0x1c(%ebp)
    244f:	68 70 99 14 00       	push   $0x149970
    2454:	6a 01                	push   $0x1
    2456:	56                   	push   %esi
    2457:	e8 04 1e 00 00       	call   4260 <hcd_ddf_setup_hc>
    245c:	83 c4 20             	add    $0x20,%esp
    245f:	89 c7                	mov    %eax,%edi
    2461:	85 c0                	test   %eax,%eax
    2463:	0f 85 a7 00 00 00    	jne    2510 <vhc_dev_add+0x140>
    2469:	83 ec 0c             	sub    $0xc,%esp
    246c:	56                   	push   %esi
    246d:	e8 1e 1d 00 00       	call   4190 <dev_to_hcd>
    2472:	83 c4 10             	add    $0x10,%esp
    2475:	85 c0                	test   %eax,%eax
    2477:	0f 84 3c 01 00 00    	je     25b9 <vhc_dev_add+0x1e9>
    247d:	8b 15 9c 61 01 00    	mov    0x1619c,%edx
    2483:	8b 4d e4             	mov    -0x1c(%ebp),%ecx
    2486:	89 90 24 08 00 00    	mov    %edx,0x824(%eax)
    248c:	8b 15 a0 61 01 00    	mov    0x161a0,%edx
    2492:	89 90 28 08 00 00    	mov    %edx,0x828(%eax)
    2498:	8b 15 a4 61 01 00    	mov    0x161a4,%edx
    249e:	89 90 2c 08 00 00    	mov    %edx,0x82c(%eax)
    24a4:	8b 15 a8 61 01 00    	mov    0x161a8,%edx
    24aa:	89 90 30 08 00 00    	mov    %edx,0x830(%eax)
    24b0:	8b 15 ac 61 01 00    	mov    0x161ac,%edx
    24b6:	89 88 38 08 00 00    	mov    %ecx,0x838(%eax)
    24bc:	89 90 34 08 00 00    	mov    %edx,0x834(%eax)
    24c2:	8d 41 1c             	lea    0x1c(%ecx),%eax
    24c5:	6a 00                	push   $0x0
    24c7:	6a 00                	push   $0x0
    24c9:	50                   	push   %eax
    24ca:	51                   	push   %ecx
    24cb:	e8 80 fd ff ff       	call   2250 <vhc_virtdev_plug_hub>
    24d0:	83 c4 10             	add    $0x10,%esp
    24d3:	89 c7                	mov    %eax,%edi
    24d5:	85 c0                	test   %eax,%eax
    24d7:	0f 85 93 00 00 00    	jne    2570 <vhc_dev_add+0x1a0>
    24dd:	83 ec 0c             	sub    $0xc,%esp
    24e0:	56                   	push   %esi
    24e1:	e8 ea 1c 00 00       	call   41d0 <hcd_ddf_setup_root_hub>
    24e6:	83 c4 10             	add    $0x10,%esp
    24e9:	89 c7                	mov    %eax,%edi
    24eb:	85 c0                	test   %eax,%eax
    24ed:	74 45                	je     2534 <vhc_dev_add+0x164>
    24ef:	83 ec 0c             	sub    $0xc,%esp
    24f2:	50                   	push   %eax
    24f3:	e8 58 19 01 00       	call   13e50 <str_error@plt>
    24f8:	50                   	push   %eax
    24f9:	68 68 0c 01 00       	push   $0x10c68
    24fe:	6a 01                	push   $0x1
    2500:	6a ff                	push   $0xffffffff
    2502:	e8 b9 16 01 00       	call   13bc0 <log_msg@plt>
    2507:	83 c4 20             	add    $0x20,%esp
    250a:	eb 28                	jmp    2534 <vhc_dev_add+0x164>
    250c:	8d 74 26 00          	lea    0x0(%esi,%eiz,1),%esi
    2510:	83 ec 0c             	sub    $0xc,%esp
    2513:	50                   	push   %eax
    2514:	e8 37 19 01 00       	call   13e50 <str_error@plt>
    2519:	50                   	push   %eax
    251a:	68 14 0c 01 00       	push   $0x10c14
    251f:	6a 01                	push   $0x1
    2521:	6a ff                	push   $0xffffffff
    2523:	e8 98 16 01 00       	call   13bc0 <log_msg@plt>
    2528:	83 c4 14             	add    $0x14,%esp
    252b:	53                   	push   %ebx
    252c:	e8 5f 5c 00 00       	call   8190 <ddf_fun_destroy>
    2531:	83 c4 10             	add    $0x10,%esp
    2534:	8d 65 f4             	lea    -0xc(%ebp),%esp
    2537:	89 f8                	mov    %edi,%eax
    2539:	5b                   	pop    %ebx
    253a:	5e                   	pop    %esi
    253b:	5f                   	pop    %edi
    253c:	5d                   	pop    %ebp
    253d:	c3                   	ret    
    253e:	66 90                	xchg   %ax,%ax
    2540:	83 ec 0c             	sub    $0xc,%esp
    2543:	89 45 e4             	mov    %eax,-0x1c(%ebp)
    2546:	53                   	push   %ebx
    2547:	e8 44 5c 00 00       	call   8190 <ddf_fun_destroy>
    254c:	8b 45 e4             	mov    -0x1c(%ebp),%eax
    254f:	83 c4 10             	add    $0x10,%esp
    2552:	89 c7                	mov    %eax,%edi
    2554:	50                   	push   %eax
    2555:	68 8c 0c 01 00       	push   $0x10c8c
    255a:	6a 01                	push   $0x1
    255c:	6a ff                	push   $0xffffffff
    255e:	e8 5d 16 01 00       	call   13bc0 <log_msg@plt>
    2563:	83 c4 10             	add    $0x10,%esp
    2566:	8d 65 f4             	lea    -0xc(%ebp),%esp
    2569:	89 f8                	mov    %edi,%eax
    256b:	5b                   	pop    %ebx
    256c:	5e                   	pop    %esi
    256d:	5f                   	pop    %edi
    256e:	5d                   	pop    %ebp
    256f:	c3                   	ret    
    2570:	83 ec 0c             	sub    $0xc,%esp
    2573:	50                   	push   %eax
    2574:	e8 d7 18 01 00       	call   13e50 <str_error@plt>
    2579:	50                   	push   %eax
    257a:	68 ef 0b 01 00       	push   $0x10bef
    257f:	eb 9e                	jmp    251f <vhc_dev_add+0x14f>
    2581:	8d b4 26 00 00 00 00 	lea    0x0(%esi,%eiz,1),%esi
    2588:	83 ec 0c             	sub    $0xc,%esp
    258b:	53                   	push   %ebx
    258c:	e8 ff 5b 00 00       	call   8190 <ddf_fun_destroy>
    2591:	83 c4 10             	add    $0x10,%esp
    2594:	e9 7d fe ff ff       	jmp    2416 <vhc_dev_add+0x46>
    2599:	8d b4 26 00 00 00 00 	lea    0x0(%esi,%eiz,1),%esi
    25a0:	bf fe ff ff ff       	mov    $0xfffffffe,%edi
    25a5:	eb ad                	jmp    2554 <vhc_dev_add+0x184>
    25a7:	50                   	push   %eax
    25a8:	6a 35                	push   $0x35
    25aa:	68 dc 0b 01 00       	push   $0x10bdc
    25af:	68 66 0f 01 00       	push   $0x10f66
    25b4:	e8 57 16 01 00       	call   13c10 <assert_abort@plt>
    25b9:	52                   	push   %edx
    25ba:	6a 58                	push   $0x58
    25bc:	68 38 0c 01 00       	push   $0x10c38
    25c1:	68 eb 0b 01 00       	push   $0x10beb
    25c6:	e8 45 16 01 00       	call   13c10 <assert_abort@plt>
    25cb:	66 90                	xchg   %ax,%ax
    25cd:	66 90                	xchg   %ax,%ax
    25cf:	90                   	nop

000025d0 <main>:
    25d0:	8d 4c 24 04          	lea    0x4(%esp),%ecx
    25d4:	83 e4 f0             	and    $0xfffffff0,%esp
    25d7:	ff 71 fc             	pushl  -0x4(%ecx)
    25da:	55                   	push   %ebp
    25db:	89 e5                	mov    %esp,%ebp
    25dd:	51                   	push   %ecx
    25de:	83 ec 10             	sub    $0x10,%esp
    25e1:	68 0d 0c 01 00       	push   $0x10c0d
    25e6:	e8 b5 14 01 00       	call   13aa0 <log_init@plt>
    25eb:	c7 04 24 ac 0c 01 00 	movl   $0x10cac,(%esp)
    25f2:	e8 39 14 01 00       	call   13a30 <printf@plt>
    25f7:	c7 04 24 80 61 01 00 	movl   $0x16180,(%esp)
    25fe:	e8 5d 60 00 00       	call   8660 <ddf_driver_main>
    2603:	8b 4d fc             	mov    -0x4(%ebp),%ecx
    2606:	c9                   	leave  
    2607:	8d 61 fc             	lea    -0x4(%ecx),%esp
    260a:	c3                   	ret    
    260b:	66 90                	xchg   %ax,%ax
    260d:	66 90                	xchg   %ax,%ax
    260f:	90                   	nop

00002610 <vhc_init>:
    2610:	55                   	push   %ebp
    2611:	89 e5                	mov    %esp,%ebp
    2613:	53                   	push   %ebx
    2614:	53                   	push   %ebx
    2615:	8b 5d 08             	mov    0x8(%ebp),%ebx
    2618:	85 db                	test   %ebx,%ebx
    261a:	74 31                	je     264d <vhc_init+0x3d>
    261c:	83 ec 0c             	sub    $0xc,%esp
    261f:	8d 43 04             	lea    0x4(%ebx),%eax
    2622:	89 43 04             	mov    %eax,0x4(%ebx)
    2625:	89 43 08             	mov    %eax,0x8(%ebx)
    2628:	8d 43 0c             	lea    0xc(%ebx),%eax
    262b:	83 c3 1c             	add    $0x1c,%ebx
    262e:	50                   	push   %eax
    262f:	e8 9c 16 01 00       	call   13cd0 <fibril_mutex_initialize@plt>
    2634:	c7 43 e4 ef be ad de 	movl   $0xdeadbeef,-0x1c(%ebx)
    263b:	58                   	pop    %eax
    263c:	5a                   	pop    %edx
    263d:	68 df 0c 01 00       	push   $0x10cdf
    2642:	53                   	push   %ebx
    2643:	e8 f8 ea ff ff       	call   1140 <virthub_init>
    2648:	8b 5d fc             	mov    -0x4(%ebp),%ebx
    264b:	c9                   	leave  
    264c:	c3                   	ret    
    264d:	51                   	push   %ecx
    264e:	68 9e 00 00 00       	push   $0x9e
    2653:	68 63 1a 01 00       	push   $0x11a63
    2658:	68 d6 0c 01 00       	push   $0x10cd6
    265d:	e8 ae 15 01 00       	call   13c10 <assert_abort@plt>
    2662:	8d b4 26 00 00 00 00 	lea    0x0(%esi,%eiz,1),%esi
    2669:	8d bc 27 00 00 00 00 	lea    0x0(%edi,%eiz,1),%edi

00002670 <vhc_schedule>:
    2670:	55                   	push   %ebp
    2671:	89 e5                	mov    %esp,%ebp
    2673:	57                   	push   %edi
    2674:	56                   	push   %esi
    2675:	53                   	push   %ebx
    2676:	83 ec 1c             	sub    $0x1c,%esp
    2679:	8b 45 08             	mov    0x8(%ebp),%eax
    267c:	8b 7d 0c             	mov    0xc(%ebp),%edi
    267f:	85 c0                	test   %eax,%eax
    2681:	0f 84 53 01 00 00    	je     27da <vhc_schedule+0x16a>
    2687:	85 ff                	test   %edi,%edi
    2689:	0f 84 36 01 00 00    	je     27c5 <vhc_schedule+0x155>
    268f:	8b b0 38 08 00 00    	mov    0x838(%eax),%esi
    2695:	85 f6                	test   %esi,%esi
    2697:	0f 84 13 01 00 00    	je     27b0 <vhc_schedule+0x140>
    269d:	83 ec 0c             	sub    $0xc,%esp
    26a0:	6a 0c                	push   $0xc
    26a2:	e8 79 14 01 00       	call   13b20 <malloc@plt>
    26a7:	83 c4 10             	add    $0x10,%esp
    26aa:	89 c3                	mov    %eax,%ebx
    26ac:	85 c0                	test   %eax,%eax
    26ae:	0f 84 f5 00 00 00    	je     27a9 <vhc_schedule+0x139>
    26b4:	83 ec 0c             	sub    $0xc,%esp
    26b7:	89 78 08             	mov    %edi,0x8(%eax)
    26ba:	c7 00 00 00 00 00    	movl   $0x0,(%eax)
    26c0:	c7 40 04 00 00 00 00 	movl   $0x0,0x4(%eax)
    26c7:	8d 46 0c             	lea    0xc(%esi),%eax
    26ca:	50                   	push   %eax
    26cb:	89 45 dc             	mov    %eax,-0x24(%ebp)
    26ce:	e8 ad 18 01 00       	call   13f80 <fibril_mutex_lock@plt>
    26d3:	8d 46 04             	lea    0x4(%esi),%eax
    26d6:	8b 7e 08             	mov    0x8(%esi),%edi
    26d9:	83 c4 10             	add    $0x10,%esp
    26dc:	89 45 e4             	mov    %eax,-0x1c(%ebp)
    26df:	39 f8                	cmp    %edi,%eax
    26e1:	0f 84 ae 00 00 00    	je     2795 <vhc_schedule+0x125>
    26e7:	c7 45 e0 00 00 00 00 	movl   $0x0,-0x20(%ebp)
    26ee:	eb 14                	jmp    2704 <vhc_schedule+0x94>
    26f0:	83 ec 0c             	sub    $0xc,%esp
    26f3:	56                   	push   %esi
    26f4:	e8 a7 15 01 00       	call   13ca0 <fibril_mutex_unlock@plt>
    26f9:	8b 7f 04             	mov    0x4(%edi),%edi
    26fc:	83 c4 10             	add    $0x10,%esp
    26ff:	39 7d e4             	cmp    %edi,-0x1c(%ebp)
    2702:	74 44                	je     2748 <vhc_schedule+0xd8>
    2704:	83 ec 0c             	sub    $0xc,%esp
    2707:	8d 77 14             	lea    0x14(%edi),%esi
    270a:	56                   	push   %esi
    270b:	e8 70 18 01 00       	call   13f80 <fibril_mutex_lock@plt>
    2710:	8b 4b 08             	mov    0x8(%ebx),%ecx
    2713:	83 c4 10             	add    $0x10,%esp
    2716:	8b 09                	mov    (%ecx),%ecx
    2718:	8b 41 0c             	mov    0xc(%ecx),%eax
    271b:	66 39 47 12          	cmp    %ax,0x12(%edi)
    271f:	75 cf                	jne    26f0 <vhc_schedule+0x80>
    2721:	8b 45 e0             	mov    -0x20(%ebp),%eax
    2724:	85 c0                	test   %eax,%eax
    2726:	75 14                	jne    273c <vhc_schedule+0xcc>
    2728:	8d 4f 24             	lea    0x24(%edi),%ecx
    272b:	89 4b 04             	mov    %ecx,0x4(%ebx)
    272e:	8b 4f 24             	mov    0x24(%edi),%ecx
    2731:	89 0b                	mov    %ecx,(%ebx)
    2733:	8b 4f 24             	mov    0x24(%edi),%ecx
    2736:	89 59 04             	mov    %ebx,0x4(%ecx)
    2739:	89 5f 24             	mov    %ebx,0x24(%edi)
    273c:	8b 45 e0             	mov    -0x20(%ebp),%eax
    273f:	40                   	inc    %eax
    2740:	89 45 e0             	mov    %eax,-0x20(%ebp)
    2743:	eb ab                	jmp    26f0 <vhc_schedule+0x80>
    2745:	8d 76 00             	lea    0x0(%esi),%esi
    2748:	83 ec 0c             	sub    $0xc,%esp
    274b:	8b 4d dc             	mov    -0x24(%ebp),%ecx
    274e:	51                   	push   %ecx
    274f:	e8 4c 15 01 00       	call   13ca0 <fibril_mutex_unlock@plt>
    2754:	83 c4 10             	add    $0x10,%esp
    2757:	83 7d e0 01          	cmpl   $0x1,-0x20(%ebp)
    275b:	7e 23                	jle    2780 <vhc_schedule+0x110>
    275d:	52                   	push   %edx
    275e:	68 2c 0d 01 00       	push   $0x10d2c
    2763:	6a 02                	push   $0x2
    2765:	6a ff                	push   $0xffffffff
    2767:	31 ff                	xor    %edi,%edi
    2769:	e8 52 14 01 00       	call   13bc0 <log_msg@plt>
    276e:	83 c4 10             	add    $0x10,%esp
    2771:	8d 65 f4             	lea    -0xc(%ebp),%esp
    2774:	89 f8                	mov    %edi,%eax
    2776:	5b                   	pop    %ebx
    2777:	5e                   	pop    %esi
    2778:	5f                   	pop    %edi
    2779:	5d                   	pop    %ebp
    277a:	c3                   	ret    
    277b:	90                   	nop
    277c:	8d 74 26 00          	lea    0x0(%esi,%eiz,1),%esi
    2780:	8b 7d e0             	mov    -0x20(%ebp),%edi
    2783:	8d 65 f4             	lea    -0xc(%ebp),%esp
    2786:	83 f7 01             	xor    $0x1,%edi
    2789:	83 e7 01             	and    $0x1,%edi
    278c:	5b                   	pop    %ebx
    278d:	f7 df                	neg    %edi
    278f:	89 f8                	mov    %edi,%eax
    2791:	5e                   	pop    %esi
    2792:	5f                   	pop    %edi
    2793:	5d                   	pop    %ebp
    2794:	c3                   	ret    
    2795:	83 ec 0c             	sub    $0xc,%esp
    2798:	8b 45 dc             	mov    -0x24(%ebp),%eax
    279b:	83 cf ff             	or     $0xffffffff,%edi
    279e:	50                   	push   %eax
    279f:	e8 fc 14 01 00       	call   13ca0 <fibril_mutex_unlock@plt>
    27a4:	83 c4 10             	add    $0x10,%esp
    27a7:	eb c8                	jmp    2771 <vhc_schedule+0x101>
    27a9:	bf fe ff ff ff       	mov    $0xfffffffe,%edi
    27ae:	eb c1                	jmp    2771 <vhc_schedule+0x101>
    27b0:	50                   	push   %eax
    27b1:	68 aa 00 00 00       	push   $0xaa
    27b6:	68 63 1a 01 00       	push   $0x11a63
    27bb:	68 0d 0c 01 00       	push   $0x10c0d
    27c0:	e8 4b 14 01 00       	call   13c10 <assert_abort@plt>
    27c5:	50                   	push   %eax
    27c6:	68 a8 00 00 00       	push   $0xa8
    27cb:	68 63 1a 01 00       	push   $0x11a63
    27d0:	68 25 0d 01 00       	push   $0x10d25
    27d5:	e8 36 14 01 00       	call   13c10 <assert_abort@plt>
    27da:	50                   	push   %eax
    27db:	68 a7 00 00 00       	push   $0xa7
    27e0:	68 63 1a 01 00       	push   $0x11a63
    27e5:	68 eb 0b 01 00       	push   $0x10beb
    27ea:	e8 21 14 01 00       	call   13c10 <assert_abort@plt>
    27ef:	90                   	nop

000027f0 <vhc_transfer_queue_processor>:
    27f0:	55                   	push   %ebp
    27f1:	89 e5                	mov    %esp,%ebp
    27f3:	57                   	push   %edi
    27f4:	56                   	push   %esi
    27f5:	53                   	push   %ebx
    27f6:	83 ec 38             	sub    $0x38,%esp
    27f9:	8b 75 08             	mov    0x8(%ebp),%esi
    27fc:	8d 46 14             	lea    0x14(%esi),%eax
    27ff:	50                   	push   %eax
    2800:	89 45 d4             	mov    %eax,-0x2c(%ebp)
    2803:	e8 78 17 01 00       	call   13f80 <fibril_mutex_lock@plt>
    2808:	8d 46 24             	lea    0x24(%esi),%eax
    280b:	89 45 d0             	mov    %eax,-0x30(%ebp)
    280e:	83 c4 10             	add    $0x10,%esp
    2811:	8b 45 d0             	mov    -0x30(%ebp),%eax
    2814:	80 7e 10 00          	cmpb   $0x0,0x10(%esi)
    2818:	0f 84 75 01 00 00    	je     2993 <vhc_transfer_queue_processor+0x1a3>
    281e:	39 46 28             	cmp    %eax,0x28(%esi)
    2821:	0f 84 f1 02 00 00    	je     2b18 <vhc_transfer_queue_processor+0x328>
    2827:	83 ec 0c             	sub    $0xc,%esp
    282a:	8b 45 d4             	mov    -0x2c(%ebp),%eax
    282d:	50                   	push   %eax
    282e:	e8 8d 12 01 00       	call   13ac0 <fibril_mutex_is_locked@plt>
    2833:	83 c4 10             	add    $0x10,%esp
    2836:	84 c0                	test   %al,%al
    2838:	0f 84 fb 04 00 00    	je     2d39 <vhc_transfer_queue_processor+0x549>
    283e:	8b 5e 28             	mov    0x28(%esi),%ebx
    2841:	39 5d d0             	cmp    %ebx,-0x30(%ebp)
    2844:	0f 84 da 04 00 00    	je     2d24 <vhc_transfer_queue_processor+0x534>
    284a:	8b 13                	mov    (%ebx),%edx
    284c:	85 d2                	test   %edx,%edx
    284e:	74 0e                	je     285e <vhc_transfer_queue_processor+0x6e>
    2850:	8b 43 04             	mov    0x4(%ebx),%eax
    2853:	85 c0                	test   %eax,%eax
    2855:	74 07                	je     285e <vhc_transfer_queue_processor+0x6e>
    2857:	89 10                	mov    %edx,(%eax)
    2859:	8b 13                	mov    (%ebx),%edx
    285b:	89 42 04             	mov    %eax,0x4(%edx)
    285e:	83 ec 0c             	sub    $0xc,%esp
    2861:	c7 03 00 00 00 00    	movl   $0x0,(%ebx)
    2867:	c7 43 04 00 00 00 00 	movl   $0x0,0x4(%ebx)
    286e:	8b 45 d4             	mov    -0x2c(%ebp),%eax
    2871:	50                   	push   %eax
    2872:	e8 29 14 01 00       	call   13ca0 <fibril_mutex_unlock@plt>
    2877:	8b 56 08             	mov    0x8(%esi),%edx
    287a:	83 c4 10             	add    $0x10,%esp
    287d:	c7 45 e4 00 00 00 00 	movl   $0x0,-0x1c(%ebp)
    2884:	85 d2                	test   %edx,%edx
    2886:	0f 84 a4 01 00 00    	je     2a30 <vhc_transfer_queue_processor+0x240>
    288c:	8b 43 08             	mov    0x8(%ebx),%eax
    288f:	85 c0                	test   %eax,%eax
    2891:	0f 84 cc 04 00 00    	je     2d63 <vhc_transfer_queue_processor+0x573>
    2897:	8b 78 04             	mov    0x4(%eax),%edi
    289a:	85 ff                	test   %edi,%edi
    289c:	0f 84 9e 02 00 00    	je     2b40 <vhc_transfer_queue_processor+0x350>
    28a2:	8b 48 08             	mov    0x8(%eax),%ecx
    28a5:	85 c9                	test   %ecx,%ecx
    28a7:	0f 85 2c 02 00 00    	jne    2ad9 <vhc_transfer_queue_processor+0x2e9>
    28ad:	8b 08                	mov    (%eax),%ecx
    28af:	85 c9                	test   %ecx,%ecx
    28b1:	0f 84 f9 02 00 00    	je     2bb0 <vhc_transfer_queue_processor+0x3c0>
    28b7:	8b 79 14             	mov    0x14(%ecx),%edi
    28ba:	89 7d cc             	mov    %edi,-0x34(%ebp)
    28bd:	85 ff                	test   %edi,%edi
    28bf:	0f 84 03 03 00 00    	je     2bc8 <vhc_transfer_queue_processor+0x3d8>
    28c5:	8b 79 10             	mov    0x10(%ecx),%edi
    28c8:	85 ff                	test   %edi,%edi
    28ca:	0f 85 a8 04 00 00    	jne    2d78 <vhc_transfer_queue_processor+0x588>
    28d0:	57                   	push   %edi
    28d1:	57                   	push   %edi
    28d2:	8d 7d e4             	lea    -0x1c(%ebp),%edi
    28d5:	57                   	push   %edi
    28d6:	8b 78 14             	mov    0x14(%eax),%edi
    28d9:	8b 40 10             	mov    0x10(%eax),%eax
    28dc:	57                   	push   %edi
    28dd:	50                   	push   %eax
    28de:	8b 45 cc             	mov    -0x34(%ebp),%eax
    28e1:	50                   	push   %eax
    28e2:	0f bf 41 0e          	movswl 0xe(%ecx),%eax
    28e6:	50                   	push   %eax
    28e7:	52                   	push   %edx
    28e8:	e8 63 41 00 00       	call   6a50 <usbvirt_ipc_send_data_in>
    28ed:	83 c4 20             	add    $0x20,%esp
    28f0:	89 c7                	mov    %eax,%edi
    28f2:	83 ec 0c             	sub    $0xc,%esp
    28f5:	57                   	push   %edi
    28f6:	e8 55 15 01 00       	call   13e50 <str_error@plt>
    28fb:	89 04 24             	mov    %eax,(%esp)
    28fe:	53                   	push   %ebx
    28ff:	68 e8 0c 01 00       	push   $0x10ce8
    2904:	6a 05                	push   $0x5
    2906:	6a ff                	push   $0xffffffff
    2908:	e8 b3 12 01 00       	call   13bc0 <log_msg@plt>
    290d:	83 c4 14             	add    $0x14,%esp
    2910:	8b 45 d4             	mov    -0x2c(%ebp),%eax
    2913:	50                   	push   %eax
    2914:	e8 67 16 01 00       	call   13f80 <fibril_mutex_lock@plt>
    2919:	83 c4 10             	add    $0x10,%esp
    291c:	85 ff                	test   %edi,%edi
    291e:	0f 84 84 01 00 00    	je     2aa8 <vhc_transfer_queue_processor+0x2b8>
    2924:	81 ff d1 fe ff ff    	cmp    $0xfffffed1,%edi
    292a:	0f 84 c0 01 00 00    	je     2af0 <vhc_transfer_queue_processor+0x300>
    2930:	83 ec 0c             	sub    $0xc,%esp
    2933:	8b 45 d4             	mov    -0x2c(%ebp),%eax
    2936:	50                   	push   %eax
    2937:	e8 64 13 01 00       	call   13ca0 <fibril_mutex_unlock@plt>
    293c:	8b 43 08             	mov    0x8(%ebx),%eax
    293f:	83 c4 10             	add    $0x10,%esp
    2942:	85 c0                	test   %eax,%eax
    2944:	0f 84 04 04 00 00    	je     2d4e <vhc_transfer_queue_processor+0x55e>
    294a:	57                   	push   %edi
    294b:	8b 7d e4             	mov    -0x1c(%ebp),%edi
    294e:	57                   	push   %edi
    294f:	6a 00                	push   $0x0
    2951:	50                   	push   %eax
    2952:	e8 f9 38 00 00       	call   6250 <usb_transfer_batch_finish_error>
    2957:	58                   	pop    %eax
    2958:	8b 43 08             	mov    0x8(%ebx),%eax
    295b:	50                   	push   %eax
    295c:	e8 4f 38 00 00       	call   61b0 <usb_transfer_batch_destroy>
    2961:	89 1c 24             	mov    %ebx,(%esp)
    2964:	e8 f7 15 01 00       	call   13f60 <free@plt>
    2969:	83 c4 10             	add    $0x10,%esp
    296c:	83 ec 0c             	sub    $0xc,%esp
    296f:	68 a0 86 01 00       	push   $0x186a0
    2974:	e8 47 14 01 00       	call   13dc0 <async_usleep@plt>
    2979:	8b 4d d4             	mov    -0x2c(%ebp),%ecx
    297c:	5a                   	pop    %edx
    297d:	51                   	push   %ecx
    297e:	e8 fd 15 01 00       	call   13f80 <fibril_mutex_lock@plt>
    2983:	83 c4 10             	add    $0x10,%esp
    2986:	8b 45 d0             	mov    -0x30(%ebp),%eax
    2989:	80 7e 10 00          	cmpb   $0x0,0x10(%esi)
    298d:	0f 85 8b fe ff ff    	jne    281e <vhc_transfer_queue_processor+0x2e>
    2993:	3b 46 28             	cmp    0x28(%esi),%eax
    2996:	74 7f                	je     2a17 <vhc_transfer_queue_processor+0x227>
    2998:	89 c3                	mov    %eax,%ebx
    299a:	8d b6 00 00 00 00    	lea    0x0(%esi),%esi
    29a0:	83 ec 0c             	sub    $0xc,%esp
    29a3:	8b 45 d4             	mov    -0x2c(%ebp),%eax
    29a6:	50                   	push   %eax
    29a7:	e8 14 11 01 00       	call   13ac0 <fibril_mutex_is_locked@plt>
    29ac:	83 c4 10             	add    $0x10,%esp
    29af:	84 c0                	test   %al,%al
    29b1:	0f 84 82 03 00 00    	je     2d39 <vhc_transfer_queue_processor+0x549>
    29b7:	8b 7e 28             	mov    0x28(%esi),%edi
    29ba:	39 fb                	cmp    %edi,%ebx
    29bc:	0f 84 62 03 00 00    	je     2d24 <vhc_transfer_queue_processor+0x534>
    29c2:	8b 0f                	mov    (%edi),%ecx
    29c4:	85 c9                	test   %ecx,%ecx
    29c6:	74 0e                	je     29d6 <vhc_transfer_queue_processor+0x1e6>
    29c8:	8b 57 04             	mov    0x4(%edi),%edx
    29cb:	85 d2                	test   %edx,%edx
    29cd:	74 07                	je     29d6 <vhc_transfer_queue_processor+0x1e6>
    29cf:	89 0a                	mov    %ecx,(%edx)
    29d1:	8b 0f                	mov    (%edi),%ecx
    29d3:	89 51 04             	mov    %edx,0x4(%ecx)
    29d6:	8b 57 08             	mov    0x8(%edi),%edx
    29d9:	c7 07 00 00 00 00    	movl   $0x0,(%edi)
    29df:	c7 47 04 00 00 00 00 	movl   $0x0,0x4(%edi)
    29e6:	85 d2                	test   %edx,%edx
    29e8:	0f 84 60 03 00 00    	je     2d4e <vhc_transfer_queue_processor+0x55e>
    29ee:	68 d4 fe ff ff       	push   $0xfffffed4
    29f3:	6a 00                	push   $0x0
    29f5:	6a 00                	push   $0x0
    29f7:	52                   	push   %edx
    29f8:	e8 53 38 00 00       	call   6250 <usb_transfer_batch_finish_error>
    29fd:	58                   	pop    %eax
    29fe:	8b 47 08             	mov    0x8(%edi),%eax
    2a01:	50                   	push   %eax
    2a02:	e8 a9 37 00 00       	call   61b0 <usb_transfer_batch_destroy>
    2a07:	89 3c 24             	mov    %edi,(%esp)
    2a0a:	e8 51 15 01 00       	call   13f60 <free@plt>
    2a0f:	83 c4 10             	add    $0x10,%esp
    2a12:	39 5e 28             	cmp    %ebx,0x28(%esi)
    2a15:	75 89                	jne    29a0 <vhc_transfer_queue_processor+0x1b0>
    2a17:	83 ec 0c             	sub    $0xc,%esp
    2a1a:	8b 45 d4             	mov    -0x2c(%ebp),%eax
    2a1d:	50                   	push   %eax
    2a1e:	e8 7d 12 01 00       	call   13ca0 <fibril_mutex_unlock@plt>
    2a23:	8d 65 f4             	lea    -0xc(%ebp),%esp
    2a26:	31 c0                	xor    %eax,%eax
    2a28:	5b                   	pop    %ebx
    2a29:	5e                   	pop    %esi
    2a2a:	5f                   	pop    %edi
    2a2b:	5d                   	pop    %ebp
    2a2c:	c3                   	ret    
    2a2d:	8d 76 00             	lea    0x0(%esi),%esi
    2a30:	8b 56 0c             	mov    0xc(%esi),%edx
    2a33:	85 d2                	test   %edx,%edx
    2a35:	0f 84 b5 01 00 00    	je     2bf0 <vhc_transfer_queue_processor+0x400>
    2a3b:	8b 43 08             	mov    0x8(%ebx),%eax
    2a3e:	85 c0                	test   %eax,%eax
    2a40:	0f 84 1d 03 00 00    	je     2d63 <vhc_transfer_queue_processor+0x573>
    2a46:	8b 78 04             	mov    0x4(%eax),%edi
    2a49:	85 ff                	test   %edi,%edi
    2a4b:	0f 84 e7 01 00 00    	je     2c38 <vhc_transfer_queue_processor+0x448>
    2a51:	8b 48 08             	mov    0x8(%eax),%ecx
    2a54:	85 c9                	test   %ecx,%ecx
    2a56:	0f 85 7d 00 00 00    	jne    2ad9 <vhc_transfer_queue_processor+0x2e9>
    2a5c:	8b 08                	mov    (%eax),%ecx
    2a5e:	85 c9                	test   %ecx,%ecx
    2a60:	0f 84 42 02 00 00    	je     2ca8 <vhc_transfer_queue_processor+0x4b8>
    2a66:	8b 79 14             	mov    0x14(%ecx),%edi
    2a69:	89 7d cc             	mov    %edi,-0x34(%ebp)
    2a6c:	85 ff                	test   %edi,%edi
    2a6e:	0f 84 4c 02 00 00    	je     2cc0 <vhc_transfer_queue_processor+0x4d0>
    2a74:	8b 79 10             	mov    0x10(%ecx),%edi
    2a77:	85 ff                	test   %edi,%edi
    2a79:	0f 85 f9 02 00 00    	jne    2d78 <vhc_transfer_queue_processor+0x588>
    2a7f:	57                   	push   %edi
    2a80:	57                   	push   %edi
    2a81:	8d 7d e4             	lea    -0x1c(%ebp),%edi
    2a84:	57                   	push   %edi
    2a85:	8b 78 14             	mov    0x14(%eax),%edi
    2a88:	8b 40 10             	mov    0x10(%eax),%eax
    2a8b:	57                   	push   %edi
    2a8c:	50                   	push   %eax
    2a8d:	0f bf 41 0e          	movswl 0xe(%ecx),%eax
    2a91:	50                   	push   %eax
    2a92:	8b 45 cc             	mov    -0x34(%ebp),%eax
    2a95:	50                   	push   %eax
    2a96:	52                   	push   %edx
    2a97:	e8 44 47 00 00       	call   71e0 <usbvirt_data_in>
    2a9c:	83 c4 20             	add    $0x20,%esp
    2a9f:	89 c7                	mov    %eax,%edi
    2aa1:	e9 4c fe ff ff       	jmp    28f2 <vhc_transfer_queue_processor+0x102>
    2aa6:	66 90                	xchg   %ax,%ax
    2aa8:	8b 43 08             	mov    0x8(%ebx),%eax
    2aab:	8b 10                	mov    (%eax),%edx
    2aad:	66 83 7a 0e 00       	cmpw   $0x0,0xe(%edx)
    2ab2:	0f 85 78 fe ff ff    	jne    2930 <vhc_transfer_queue_processor+0x140>
    2ab8:	8b 4a 14             	mov    0x14(%edx),%ecx
    2abb:	85 c9                	test   %ecx,%ecx
    2abd:	0f 85 6d fe ff ff    	jne    2930 <vhc_transfer_queue_processor+0x140>
    2ac3:	8b 50 04             	mov    0x4(%eax),%edx
    2ac6:	85 d2                	test   %edx,%edx
    2ac8:	0f 84 18 02 00 00    	je     2ce6 <vhc_transfer_queue_processor+0x4f6>
    2ace:	8b 48 08             	mov    0x8(%eax),%ecx
    2ad1:	85 c9                	test   %ecx,%ecx
    2ad3:	0f 84 57 fe ff ff    	je     2930 <vhc_transfer_queue_processor+0x140>
    2ad9:	50                   	push   %eax
    2ada:	68 86 00 00 00       	push   $0x86
    2adf:	68 a4 0d 01 00       	push   $0x10da4
    2ae4:	68 e4 0d 01 00       	push   $0x10de4
    2ae9:	e8 22 11 01 00       	call   13c10 <assert_abort@plt>
    2aee:	66 90                	xchg   %ax,%ax
    2af0:	8b 45 d0             	mov    -0x30(%ebp),%eax
    2af3:	83 ec 0c             	sub    $0xc,%esp
    2af6:	89 43 04             	mov    %eax,0x4(%ebx)
    2af9:	8b 46 24             	mov    0x24(%esi),%eax
    2afc:	89 03                	mov    %eax,(%ebx)
    2afe:	8b 46 24             	mov    0x24(%esi),%eax
    2b01:	89 58 04             	mov    %ebx,0x4(%eax)
    2b04:	8b 45 d4             	mov    -0x2c(%ebp),%eax
    2b07:	89 5e 24             	mov    %ebx,0x24(%esi)
    2b0a:	50                   	push   %eax
    2b0b:	e8 90 11 01 00       	call   13ca0 <fibril_mutex_unlock@plt>
    2b10:	83 c4 10             	add    $0x10,%esp
    2b13:	e9 54 fe ff ff       	jmp    296c <vhc_transfer_queue_processor+0x17c>
    2b18:	83 ec 0c             	sub    $0xc,%esp
    2b1b:	8b 5d d4             	mov    -0x2c(%ebp),%ebx
    2b1e:	53                   	push   %ebx
    2b1f:	e8 7c 11 01 00       	call   13ca0 <fibril_mutex_unlock@plt>
    2b24:	c7 04 24 10 27 00 00 	movl   $0x2710,(%esp)
    2b2b:	e8 90 12 01 00       	call   13dc0 <async_usleep@plt>
    2b30:	89 1c 24             	mov    %ebx,(%esp)
    2b33:	e8 48 14 01 00       	call   13f80 <fibril_mutex_lock@plt>
    2b38:	83 c4 10             	add    $0x10,%esp
    2b3b:	e9 d1 fc ff ff       	jmp    2811 <vhc_transfer_queue_processor+0x21>
    2b40:	8b 78 08             	mov    0x8(%eax),%edi
    2b43:	85 ff                	test   %edi,%edi
    2b45:	0f 84 42 02 00 00    	je     2d8d <vhc_transfer_queue_processor+0x59d>
    2b4b:	8b 08                	mov    (%eax),%ecx
    2b4d:	85 c9                	test   %ecx,%ecx
    2b4f:	74 31                	je     2b82 <vhc_transfer_queue_processor+0x392>
    2b51:	8b 79 14             	mov    0x14(%ecx),%edi
    2b54:	85 ff                	test   %edi,%edi
    2b56:	74 34                	je     2b8c <vhc_transfer_queue_processor+0x39c>
    2b58:	83 79 10 01          	cmpl   $0x1,0x10(%ecx)
    2b5c:	0f 85 40 02 00 00    	jne    2da2 <vhc_transfer_queue_processor+0x5b2>
    2b62:	83 ec 0c             	sub    $0xc,%esp
    2b65:	ff 70 14             	pushl  0x14(%eax)
    2b68:	8b 40 10             	mov    0x10(%eax),%eax
    2b6b:	50                   	push   %eax
    2b6c:	57                   	push   %edi
    2b6d:	0f bf 41 0e          	movswl 0xe(%ecx),%eax
    2b71:	50                   	push   %eax
    2b72:	52                   	push   %edx
    2b73:	e8 38 40 00 00       	call   6bb0 <usbvirt_ipc_send_data_out>
    2b78:	83 c4 20             	add    $0x20,%esp
    2b7b:	89 c7                	mov    %eax,%edi
    2b7d:	e9 70 fd ff ff       	jmp    28f2 <vhc_transfer_queue_processor+0x102>
    2b82:	8b 3d 14 00 00 00    	mov    0x14,%edi
    2b88:	85 ff                	test   %edi,%edi
    2b8a:	75 d6                	jne    2b62 <vhc_transfer_queue_processor+0x372>
    2b8c:	83 ec 0c             	sub    $0xc,%esp
    2b8f:	8b 48 14             	mov    0x14(%eax),%ecx
    2b92:	8b 78 10             	mov    0x10(%eax),%edi
    2b95:	83 c0 18             	add    $0x18,%eax
    2b98:	51                   	push   %ecx
    2b99:	57                   	push   %edi
    2b9a:	8b 48 08             	mov    0x8(%eax),%ecx
    2b9d:	51                   	push   %ecx
    2b9e:	50                   	push   %eax
    2b9f:	52                   	push   %edx
    2ba0:	e8 9b 3d 00 00       	call   6940 <usbvirt_ipc_send_control_write>
    2ba5:	83 c4 20             	add    $0x20,%esp
    2ba8:	89 c7                	mov    %eax,%edi
    2baa:	e9 43 fd ff ff       	jmp    28f2 <vhc_transfer_queue_processor+0x102>
    2baf:	90                   	nop
    2bb0:	8b 3d 14 00 00 00    	mov    0x14,%edi
    2bb6:	89 7d cc             	mov    %edi,-0x34(%ebp)
    2bb9:	85 ff                	test   %edi,%edi
    2bbb:	0f 85 0f fd ff ff    	jne    28d0 <vhc_transfer_queue_processor+0xe0>
    2bc1:	8d b4 26 00 00 00 00 	lea    0x0(%esi,%eiz,1),%esi
    2bc8:	8d 4d e4             	lea    -0x1c(%ebp),%ecx
    2bcb:	57                   	push   %edi
    2bcc:	57                   	push   %edi
    2bcd:	51                   	push   %ecx
    2bce:	8b 48 14             	mov    0x14(%eax),%ecx
    2bd1:	8b 78 10             	mov    0x10(%eax),%edi
    2bd4:	51                   	push   %ecx
    2bd5:	83 c0 18             	add    $0x18,%eax
    2bd8:	8b 48 08             	mov    0x8(%eax),%ecx
    2bdb:	57                   	push   %edi
    2bdc:	51                   	push   %ecx
    2bdd:	50                   	push   %eax
    2bde:	52                   	push   %edx
    2bdf:	e8 ec 3b 00 00       	call   67d0 <usbvirt_ipc_send_control_read>
    2be4:	83 c4 20             	add    $0x20,%esp
    2be7:	89 c7                	mov    %eax,%edi
    2be9:	e9 04 fd ff ff       	jmp    28f2 <vhc_transfer_queue_processor+0x102>
    2bee:	66 90                	xchg   %ax,%ax
    2bf0:	50                   	push   %eax
    2bf1:	68 fc 0e 01 00       	push   $0x10efc
    2bf6:	6a 02                	push   $0x2
    2bf8:	6a ff                	push   $0xffffffff
    2bfa:	e8 c1 0f 01 00       	call   13bc0 <log_msg@plt>
    2bff:	c7 04 24 d3 fe ff ff 	movl   $0xfffffed3,(%esp)
    2c06:	e8 45 12 01 00       	call   13e50 <str_error@plt>
    2c0b:	bf d3 fe ff ff       	mov    $0xfffffed3,%edi
    2c10:	89 04 24             	mov    %eax,(%esp)
    2c13:	53                   	push   %ebx
    2c14:	68 e8 0c 01 00       	push   $0x10ce8
    2c19:	6a 05                	push   $0x5
    2c1b:	6a ff                	push   $0xffffffff
    2c1d:	e8 9e 0f 01 00       	call   13bc0 <log_msg@plt>
    2c22:	83 c4 14             	add    $0x14,%esp
    2c25:	8b 45 d4             	mov    -0x2c(%ebp),%eax
    2c28:	50                   	push   %eax
    2c29:	e8 52 13 01 00       	call   13f80 <fibril_mutex_lock@plt>
    2c2e:	83 c4 10             	add    $0x10,%esp
    2c31:	e9 fa fc ff ff       	jmp    2930 <vhc_transfer_queue_processor+0x140>
    2c36:	66 90                	xchg   %ax,%ax
    2c38:	8b 78 08             	mov    0x8(%eax),%edi
    2c3b:	85 ff                	test   %edi,%edi
    2c3d:	0f 84 4a 01 00 00    	je     2d8d <vhc_transfer_queue_processor+0x59d>
    2c43:	8b 08                	mov    (%eax),%ecx
    2c45:	85 c9                	test   %ecx,%ecx
    2c47:	74 31                	je     2c7a <vhc_transfer_queue_processor+0x48a>
    2c49:	8b 79 14             	mov    0x14(%ecx),%edi
    2c4c:	85 ff                	test   %edi,%edi
    2c4e:	74 34                	je     2c84 <vhc_transfer_queue_processor+0x494>
    2c50:	83 79 10 01          	cmpl   $0x1,0x10(%ecx)
    2c54:	0f 85 48 01 00 00    	jne    2da2 <vhc_transfer_queue_processor+0x5b2>
    2c5a:	83 ec 0c             	sub    $0xc,%esp
    2c5d:	ff 70 14             	pushl  0x14(%eax)
    2c60:	8b 40 10             	mov    0x10(%eax),%eax
    2c63:	50                   	push   %eax
    2c64:	0f bf 41 0e          	movswl 0xe(%ecx),%eax
    2c68:	50                   	push   %eax
    2c69:	57                   	push   %edi
    2c6a:	52                   	push   %edx
    2c6b:	e8 20 45 00 00       	call   7190 <usbvirt_data_out>
    2c70:	83 c4 20             	add    $0x20,%esp
    2c73:	89 c7                	mov    %eax,%edi
    2c75:	e9 78 fc ff ff       	jmp    28f2 <vhc_transfer_queue_processor+0x102>
    2c7a:	8b 3d 14 00 00 00    	mov    0x14,%edi
    2c80:	85 ff                	test   %edi,%edi
    2c82:	75 d6                	jne    2c5a <vhc_transfer_queue_processor+0x46a>
    2c84:	83 ec 0c             	sub    $0xc,%esp
    2c87:	8b 48 14             	mov    0x14(%eax),%ecx
    2c8a:	8b 78 10             	mov    0x10(%eax),%edi
    2c8d:	83 c0 18             	add    $0x18,%eax
    2c90:	51                   	push   %ecx
    2c91:	57                   	push   %edi
    2c92:	8b 48 08             	mov    0x8(%eax),%ecx
    2c95:	51                   	push   %ecx
    2c96:	50                   	push   %eax
    2c97:	52                   	push   %edx
    2c98:	e8 03 43 00 00       	call   6fa0 <usbvirt_control_write>
    2c9d:	83 c4 20             	add    $0x20,%esp
    2ca0:	89 c7                	mov    %eax,%edi
    2ca2:	e9 4b fc ff ff       	jmp    28f2 <vhc_transfer_queue_processor+0x102>
    2ca7:	90                   	nop
    2ca8:	8b 3d 14 00 00 00    	mov    0x14,%edi
    2cae:	89 7d cc             	mov    %edi,-0x34(%ebp)
    2cb1:	85 ff                	test   %edi,%edi
    2cb3:	0f 85 c6 fd ff ff    	jne    2a7f <vhc_transfer_queue_processor+0x28f>
    2cb9:	8d b4 26 00 00 00 00 	lea    0x0(%esi,%eiz,1),%esi
    2cc0:	8d 4d e4             	lea    -0x1c(%ebp),%ecx
    2cc3:	57                   	push   %edi
    2cc4:	57                   	push   %edi
    2cc5:	51                   	push   %ecx
    2cc6:	8b 48 14             	mov    0x14(%eax),%ecx
    2cc9:	8b 78 10             	mov    0x10(%eax),%edi
    2ccc:	51                   	push   %ecx
    2ccd:	83 c0 18             	add    $0x18,%eax
    2cd0:	8b 48 08             	mov    0x8(%eax),%ecx
    2cd3:	57                   	push   %edi
    2cd4:	51                   	push   %ecx
    2cd5:	50                   	push   %eax
    2cd6:	52                   	push   %edx
    2cd7:	e8 b4 43 00 00       	call   7090 <usbvirt_control_read>
    2cdc:	83 c4 20             	add    $0x20,%esp
    2cdf:	89 c7                	mov    %eax,%edi
    2ce1:	e9 0c fc ff ff       	jmp    28f2 <vhc_transfer_queue_processor+0x102>
    2ce6:	8b 50 08             	mov    0x8(%eax),%edx
    2ce9:	85 d2                	test   %edx,%edx
    2ceb:	0f 84 9c 00 00 00    	je     2d8d <vhc_transfer_queue_processor+0x59d>
    2cf1:	80 78 18 00          	cmpb   $0x0,0x18(%eax)
    2cf5:	0f 85 35 fc ff ff    	jne    2930 <vhc_transfer_queue_processor+0x140>
    2cfb:	80 78 19 05          	cmpb   $0x5,0x19(%eax)
    2cff:	0f 85 2b fc ff ff    	jne    2930 <vhc_transfer_queue_processor+0x140>
    2d05:	0f bf 40 1a          	movswl 0x1a(%eax),%eax
    2d09:	66 89 46 12          	mov    %ax,0x12(%esi)
    2d0d:	50                   	push   %eax
    2d0e:	68 04 0d 01 00       	push   $0x10d04
    2d13:	6a 05                	push   $0x5
    2d15:	6a ff                	push   $0xffffffff
    2d17:	e8 a4 0e 01 00       	call   13bc0 <log_msg@plt>
    2d1c:	83 c4 10             	add    $0x10,%esp
    2d1f:	e9 0c fc ff ff       	jmp    2930 <vhc_transfer_queue_processor+0x140>
    2d24:	50                   	push   %eax
    2d25:	68 87 00 00 00       	push   $0x87
    2d2a:	68 63 1a 01 00       	push   $0x11a63
    2d2f:	68 80 0d 01 00       	push   $0x10d80
    2d34:	e8 d7 0e 01 00       	call   13c10 <assert_abort@plt>
    2d39:	50                   	push   %eax
    2d3a:	68 86 00 00 00       	push   $0x86
    2d3f:	68 63 1a 01 00       	push   $0x11a63
    2d44:	68 5c 0d 01 00       	push   $0x10d5c
    2d49:	e8 c2 0e 01 00       	call   13c10 <assert_abort@plt>
    2d4e:	50                   	push   %eax
    2d4f:	68 95 00 00 00       	push   $0x95
    2d54:	68 63 1a 01 00       	push   $0x11a63
    2d59:	68 1b 0d 01 00       	push   $0x10d1b
    2d5e:	e8 ad 0e 01 00       	call   13c10 <assert_abort@plt>
    2d63:	50                   	push   %eax
    2d64:	68 84 00 00 00       	push   $0x84
    2d69:	68 a4 0d 01 00       	push   $0x10da4
    2d6e:	68 d6 0c 01 00       	push   $0x10cd6
    2d73:	e8 98 0e 01 00       	call   13c10 <assert_abort@plt>
    2d78:	50                   	push   %eax
    2d79:	68 89 00 00 00       	push   $0x89
    2d7e:	68 a4 0d 01 00       	push   $0x10da4
    2d83:	68 04 0e 01 00       	push   $0x10e04
    2d88:	e8 83 0e 01 00       	call   13c10 <assert_abort@plt>
    2d8d:	53                   	push   %ebx
    2d8e:	68 93 00 00 00       	push   $0x93
    2d93:	68 a4 0d 01 00       	push   $0x10da4
    2d98:	68 b1 1c 01 00       	push   $0x11cb1
    2d9d:	e8 6e 0e 01 00       	call   13c10 <assert_abort@plt>
    2da2:	56                   	push   %esi
    2da3:	68 90 00 00 00       	push   $0x90
    2da8:	68 a4 0d 01 00       	push   $0x10da4
    2dad:	68 80 0e 01 00       	push   $0x10e80
    2db2:	e8 59 0e 01 00       	call   13c10 <assert_abort@plt>
    2db7:	66 90                	xchg   %ax,%ax
    2db9:	66 90                	xchg   %ax,%ax
    2dbb:	66 90                	xchg   %ax,%ax
    2dbd:	66 90                	xchg   %ax,%ax
    2dbf:	90                   	nop

00002dc0 <get_my_device_handle>:
    2dc0:	55                   	push   %ebp
    2dc1:	89 e5                	mov    %esp,%ebp
    2dc3:	53                   	push   %ebx
    2dc4:	52                   	push   %edx
    2dc5:	8b 45 08             	mov    0x8(%ebp),%eax
    2dc8:	8b 5d 0c             	mov    0xc(%ebp),%ebx
    2dcb:	85 c0                	test   %eax,%eax
    2dcd:	74 19                	je     2de8 <get_my_device_handle+0x28>
    2dcf:	85 db                	test   %ebx,%ebx
    2dd1:	74 0e                	je     2de1 <get_my_device_handle+0x21>
    2dd3:	83 ec 0c             	sub    $0xc,%esp
    2dd6:	50                   	push   %eax
    2dd7:	e8 14 52 00 00       	call   7ff0 <ddf_fun_get_handle>
    2ddc:	83 c4 10             	add    $0x10,%esp
    2ddf:	89 03                	mov    %eax,(%ebx)
    2de1:	31 c0                	xor    %eax,%eax
    2de3:	8b 5d fc             	mov    -0x4(%ebp),%ebx
    2de6:	c9                   	leave  
    2de7:	c3                   	ret    
    2de8:	50                   	push   %eax
    2de9:	68 d3 00 00 00       	push   $0xd3
    2dee:	68 28 0f 01 00       	push   $0x10f28
    2df3:	68 3a 0f 01 00       	push   $0x10f3a
    2df8:	e8 13 0e 01 00       	call   13c10 <assert_abort@plt>
    2dfd:	8d 76 00             	lea    0x0(%esi),%esi

00002e00 <interrupt_polling>:
    2e00:	55                   	push   %ebp
    2e01:	89 e5                	mov    %esp,%ebp
    2e03:	56                   	push   %esi
    2e04:	53                   	push   %ebx
    2e05:	83 ec 10             	sub    $0x10,%esp
    2e08:	8b 5d 08             	mov    0x8(%ebp),%ebx
    2e0b:	85 db                	test   %ebx,%ebx
    2e0d:	74 67                	je     2e76 <interrupt_polling+0x76>
    2e0f:	8b 83 34 08 00 00    	mov    0x834(%ebx),%eax
    2e15:	85 c0                	test   %eax,%eax
    2e17:	74 56                	je     2e6f <interrupt_polling+0x6f>
    2e19:	8b 93 30 08 00 00    	mov    0x830(%ebx),%edx
    2e1f:	85 d2                	test   %edx,%edx
    2e21:	74 4c                	je     2e6f <interrupt_polling+0x6f>
    2e23:	c7 45 f4 00 00 00 00 	movl   $0x0,-0xc(%ebp)
    2e2a:	8d 75 f4             	lea    -0xc(%ebp),%esi
    2e2d:	eb 2a                	jmp    2e59 <interrupt_polling+0x59>
    2e2f:	90                   	nop
    2e30:	8b 45 f4             	mov    -0xc(%ebp),%eax
    2e33:	51                   	push   %ecx
    2e34:	51                   	push   %ecx
    2e35:	50                   	push   %eax
    2e36:	53                   	push   %ebx
    2e37:	ff 93 30 08 00 00    	call   *0x830(%ebx)
    2e3d:	c7 04 24 10 27 00 00 	movl   $0x2710,(%esp)
    2e44:	c7 45 f4 00 00 00 00 	movl   $0x0,-0xc(%ebp)
    2e4b:	e8 70 0f 01 00       	call   13dc0 <async_usleep@plt>
    2e50:	8b 83 34 08 00 00    	mov    0x834(%ebx),%eax
    2e56:	83 c4 10             	add    $0x10,%esp
    2e59:	52                   	push   %edx
    2e5a:	52                   	push   %edx
    2e5b:	56                   	push   %esi
    2e5c:	53                   	push   %ebx
    2e5d:	ff d0                	call   *%eax
    2e5f:	83 c4 10             	add    $0x10,%esp
    2e62:	85 c0                	test   %eax,%eax
    2e64:	74 ca                	je     2e30 <interrupt_polling+0x30>
    2e66:	31 c0                	xor    %eax,%eax
    2e68:	8d 65 f8             	lea    -0x8(%ebp),%esp
    2e6b:	5b                   	pop    %ebx
    2e6c:	5e                   	pop    %esi
    2e6d:	5d                   	pop    %ebp
    2e6e:	c3                   	ret    
    2e6f:	b8 f5 ff ff ff       	mov    $0xfffffff5,%eax
    2e74:	eb f2                	jmp    2e68 <interrupt_polling+0x68>
    2e76:	51                   	push   %ecx
    2e77:	68 2d 03 00 00       	push   $0x32d
    2e7c:	68 28 0f 01 00       	push   $0x10f28
    2e81:	68 eb 0b 01 00       	push   $0x10beb
    2e86:	e8 85 0d 01 00       	call   13c10 <assert_abort@plt>
    2e8b:	90                   	nop
    2e8c:	8d 74 26 00          	lea    0x0(%esi,%eiz,1),%esi

00002e90 <clean_match_ids>:
    2e90:	55                   	push   %ebp
    2e91:	89 e5                	mov    %esp,%ebp
    2e93:	56                   	push   %esi
    2e94:	53                   	push   %ebx
    2e95:	8b 58 04             	mov    0x4(%eax),%ebx
    2e98:	39 d8                	cmp    %ebx,%eax
    2e9a:	74 4b                	je     2ee7 <clean_match_ids+0x57>
    2e9c:	89 c6                	mov    %eax,%esi
    2e9e:	66 90                	xchg   %ax,%ax
    2ea0:	8b 13                	mov    (%ebx),%edx
    2ea2:	85 d2                	test   %edx,%edx
    2ea4:	74 0e                	je     2eb4 <clean_match_ids+0x24>
    2ea6:	8b 43 04             	mov    0x4(%ebx),%eax
    2ea9:	85 c0                	test   %eax,%eax
    2eab:	74 07                	je     2eb4 <clean_match_ids+0x24>
    2ead:	89 10                	mov    %edx,(%eax)
    2eaf:	8b 13                	mov    (%ebx),%edx
    2eb1:	89 42 04             	mov    %eax,0x4(%edx)
    2eb4:	8b 43 08             	mov    0x8(%ebx),%eax
    2eb7:	c7 03 00 00 00 00    	movl   $0x0,(%ebx)
    2ebd:	c7 43 04 00 00 00 00 	movl   $0x0,0x4(%ebx)
    2ec4:	85 c0                	test   %eax,%eax
    2ec6:	74 0c                	je     2ed4 <clean_match_ids+0x44>
    2ec8:	83 ec 0c             	sub    $0xc,%esp
    2ecb:	50                   	push   %eax
    2ecc:	e8 8f 10 01 00       	call   13f60 <free@plt>
    2ed1:	83 c4 10             	add    $0x10,%esp
    2ed4:	83 ec 0c             	sub    $0xc,%esp
    2ed7:	53                   	push   %ebx
    2ed8:	e8 83 10 01 00       	call   13f60 <free@plt>
    2edd:	8b 5e 04             	mov    0x4(%esi),%ebx
    2ee0:	83 c4 10             	add    $0x10,%esp
    2ee3:	39 de                	cmp    %ebx,%esi
    2ee5:	75 b9                	jne    2ea0 <clean_match_ids+0x10>
    2ee7:	8d 65 f8             	lea    -0x8(%ebp),%esp
    2eea:	5b                   	pop    %ebx
    2eeb:	5e                   	pop    %esi
    2eec:	5d                   	pop    %ebp
    2eed:	c3                   	ret    
    2eee:	66 90                	xchg   %ax,%ax

00002ef0 <ddf_hcd_gen_irq_handler>:
    2ef0:	55                   	push   %ebp
    2ef1:	89 e5                	mov    %esp,%ebp
    2ef3:	53                   	push   %ebx
    2ef4:	51                   	push   %ecx
    2ef5:	8b 45 10             	mov    0x10(%ebp),%eax
    2ef8:	8b 5d 0c             	mov    0xc(%ebp),%ebx
    2efb:	85 c0                	test   %eax,%eax
    2efd:	74 61                	je     2f60 <ddf_hcd_gen_irq_handler+0x70>
    2eff:	83 ec 0c             	sub    $0xc,%esp
    2f02:	50                   	push   %eax
    2f03:	e8 08 50 00 00       	call   7f10 <ddf_dev_data_get>
    2f08:	83 c4 10             	add    $0x10,%esp
    2f0b:	85 c0                	test   %eax,%eax
    2f0d:	74 21                	je     2f30 <ddf_hcd_gen_irq_handler+0x40>
    2f0f:	8d 50 04             	lea    0x4(%eax),%edx
    2f12:	8b 80 34 08 00 00    	mov    0x834(%eax),%eax
    2f18:	85 c0                	test   %eax,%eax
    2f1a:	74 26                	je     2f42 <ddf_hcd_gen_irq_handler+0x52>
    2f1c:	8b 4b 04             	mov    0x4(%ebx),%ecx
    2f1f:	89 55 08             	mov    %edx,0x8(%ebp)
    2f22:	89 4d 0c             	mov    %ecx,0xc(%ebp)
    2f25:	8b 5d fc             	mov    -0x4(%ebp),%ebx
    2f28:	c9                   	leave  
    2f29:	ff e0                	jmp    *%eax
    2f2b:	90                   	nop
    2f2c:	8d 74 26 00          	lea    0x0(%esi,%eiz,1),%esi
    2f30:	50                   	push   %eax
    2f31:	68 3e 0f 01 00       	push   $0x10f3e
    2f36:	6a 01                	push   $0x1
    2f38:	6a ff                	push   $0xffffffff
    2f3a:	e8 81 0c 01 00       	call   13bc0 <log_msg@plt>
    2f3f:	83 c4 10             	add    $0x10,%esp
    2f42:	8b 5d fc             	mov    -0x4(%ebp),%ebx
    2f45:	c7 45 10 a0 10 01 00 	movl   $0x110a0,0x10(%ebp)
    2f4c:	c7 45 0c 01 00 00 00 	movl   $0x1,0xc(%ebp)
    2f53:	c7 45 08 ff ff ff ff 	movl   $0xffffffff,0x8(%ebp)
    2f5a:	c9                   	leave  
    2f5b:	e9 60 0c 01 00       	jmp    13bc0 <log_msg@plt>
    2f60:	52                   	push   %edx
    2f61:	68 20 03 00 00       	push   $0x320
    2f66:	68 28 0f 01 00       	push   $0x10f28
    2f6b:	68 66 0f 01 00       	push   $0x10f66
    2f70:	e8 9b 0c 01 00       	call   13c10 <assert_abort@plt>
    2f75:	8d 74 26 00          	lea    0x0(%esi,%eiz,1),%esi
    2f79:	8d bc 27 00 00 00 00 	lea    0x0(%edi,%eiz,1),%edi

00002f80 <device_remove>:
    2f80:	55                   	push   %ebp
    2f81:	89 e5                	mov    %esp,%ebp
    2f83:	57                   	push   %edi
    2f84:	56                   	push   %esi
    2f85:	53                   	push   %ebx
    2f86:	83 ec 1c             	sub    $0x1c,%esp
    2f89:	8b 45 08             	mov    0x8(%ebp),%eax
    2f8c:	8b 75 0c             	mov    0xc(%ebp),%esi
    2f8f:	85 c0                	test   %eax,%eax
    2f91:	0f 84 b1 01 00 00    	je     3148 <device_remove+0x1c8>
    2f97:	83 ec 0c             	sub    $0xc,%esp
    2f9a:	8b 4d 08             	mov    0x8(%ebp),%ecx
    2f9d:	51                   	push   %ecx
    2f9e:	e8 3d 50 00 00       	call   7fe0 <ddf_fun_get_dev>
    2fa3:	89 c7                	mov    %eax,%edi
    2fa5:	8b 45 08             	mov    0x8(%ebp),%eax
    2fa8:	5b                   	pop    %ebx
    2fa9:	50                   	push   %eax
    2faa:	e8 c1 51 00 00       	call   8170 <ddf_fun_data_get>
    2faf:	83 c4 10             	add    $0x10,%esp
    2fb2:	89 c3                	mov    %eax,%ebx
    2fb4:	85 ff                	test   %edi,%edi
    2fb6:	0f 84 77 01 00 00    	je     3133 <device_remove+0x1b3>
    2fbc:	85 c0                	test   %eax,%eax
    2fbe:	0f 84 5a 01 00 00    	je     311e <device_remove+0x19e>
    2fc4:	83 ec 0c             	sub    $0xc,%esp
    2fc7:	8b 45 08             	mov    0x8(%ebp),%eax
    2fca:	50                   	push   %eax
    2fcb:	e8 b0 51 00 00       	call   8180 <ddf_fun_get_name>
    2fd0:	89 34 24             	mov    %esi,(%esp)
    2fd3:	50                   	push   %eax
    2fd4:	68 cc 10 01 00       	push   $0x110cc
    2fd9:	6a 04                	push   $0x4
    2fdb:	6a ff                	push   $0xffffffff
    2fdd:	e8 de 0b 01 00       	call   13bc0 <log_msg@plt>
    2fe2:	83 c4 14             	add    $0x14,%esp
    2fe5:	57                   	push   %edi
    2fe6:	e8 25 4f 00 00       	call   7f10 <ddf_dev_data_get>
    2feb:	83 c4 10             	add    $0x10,%esp
    2fee:	89 45 e0             	mov    %eax,-0x20(%ebp)
    2ff1:	85 c0                	test   %eax,%eax
    2ff3:	0f 84 ea 00 00 00    	je     30e3 <device_remove+0x163>
    2ff9:	83 ec 0c             	sub    $0xc,%esp
    2ffc:	57                   	push   %edi
    2ffd:	e8 0e 4f 00 00       	call   7f10 <ddf_dev_data_get>
    3002:	83 c4 10             	add    $0x10,%esp
    3005:	85 c0                	test   %eax,%eax
    3007:	0f 84 fc 00 00 00    	je     3109 <device_remove+0x189>
    300d:	83 ec 0c             	sub    $0xc,%esp
    3010:	8d 43 10             	lea    0x10(%ebx),%eax
    3013:	89 45 e4             	mov    %eax,-0x1c(%ebp)
    3016:	83 c3 08             	add    $0x8,%ebx
    3019:	50                   	push   %eax
    301a:	e8 61 0f 01 00       	call   13f80 <fibril_mutex_lock@plt>
    301f:	8b 7b 04             	mov    0x4(%ebx),%edi
    3022:	83 c4 10             	add    $0x10,%esp
    3025:	8b 45 e4             	mov    -0x1c(%ebp),%eax
    3028:	39 df                	cmp    %ebx,%edi
    302a:	75 17                	jne    3043 <device_remove+0xc3>
    302c:	e9 2f 01 00 00       	jmp    3160 <device_remove+0x1e0>
    3031:	8d b4 26 00 00 00 00 	lea    0x0(%esi,%eiz,1),%esi
    3038:	8b 7f 04             	mov    0x4(%edi),%edi
    303b:	39 df                	cmp    %ebx,%edi
    303d:	0f 84 1d 01 00 00    	je     3160 <device_remove+0x1e0>
    3043:	3b 77 30             	cmp    0x30(%edi),%esi
    3046:	75 f0                	jne    3038 <device_remove+0xb8>
    3048:	8b 0f                	mov    (%edi),%ecx
    304a:	85 c9                	test   %ecx,%ecx
    304c:	74 0e                	je     305c <device_remove+0xdc>
    304e:	8b 57 04             	mov    0x4(%edi),%edx
    3051:	85 d2                	test   %edx,%edx
    3053:	74 07                	je     305c <device_remove+0xdc>
    3055:	89 0a                	mov    %ecx,(%edx)
    3057:	8b 0f                	mov    (%edi),%ecx
    3059:	89 51 04             	mov    %edx,0x4(%ecx)
    305c:	83 ec 0c             	sub    $0xc,%esp
    305f:	c7 07 00 00 00 00    	movl   $0x0,(%edi)
    3065:	c7 47 04 00 00 00 00 	movl   $0x0,0x4(%edi)
    306c:	50                   	push   %eax
    306d:	e8 2e 0c 01 00       	call   13ca0 <fibril_mutex_unlock@plt>
    3072:	58                   	pop    %eax
    3073:	8b 47 20             	mov    0x20(%edi),%eax
    3076:	50                   	push   %eax
    3077:	e8 74 53 00 00       	call   83f0 <ddf_fun_unbind>
    307c:	83 c4 10             	add    $0x10,%esp
    307f:	85 c0                	test   %eax,%eax
    3081:	75 2c                	jne    30af <device_remove+0x12f>
    3083:	83 ec 0c             	sub    $0xc,%esp
    3086:	8b 4f 20             	mov    0x20(%edi),%ecx
    3089:	0f bf 5f 24          	movswl 0x24(%edi),%ebx
    308d:	51                   	push   %ecx
    308e:	e8 fd 50 00 00       	call   8190 <ddf_fun_destroy>
    3093:	5e                   	pop    %esi
    3094:	8b 75 e0             	mov    -0x20(%ebp),%esi
    3097:	83 c6 04             	add    $0x4,%esi
    309a:	5f                   	pop    %edi
    309b:	53                   	push   %ebx
    309c:	56                   	push   %esi
    309d:	e8 fe 1d 00 00       	call   4ea0 <hcd_release_address>
    30a2:	83 c4 10             	add    $0x10,%esp
    30a5:	31 c0                	xor    %eax,%eax
    30a7:	8d 65 f4             	lea    -0xc(%ebp),%esp
    30aa:	5b                   	pop    %ebx
    30ab:	5e                   	pop    %esi
    30ac:	5f                   	pop    %edi
    30ad:	5d                   	pop    %ebp
    30ae:	c3                   	ret    
    30af:	83 ec 0c             	sub    $0xc,%esp
    30b2:	50                   	push   %eax
    30b3:	e8 98 0d 01 00       	call   13e50 <str_error@plt>
    30b8:	8b 57 20             	mov    0x20(%edi),%edx
    30bb:	89 c3                	mov    %eax,%ebx
    30bd:	58                   	pop    %eax
    30be:	52                   	push   %edx
    30bf:	e8 bc 50 00 00       	call   8180 <ddf_fun_get_name>
    30c4:	89 1c 24             	mov    %ebx,(%esp)
    30c7:	50                   	push   %eax
    30c8:	68 fc 10 01 00       	push   $0x110fc
    30cd:	6a 02                	push   $0x2
    30cf:	6a ff                	push   $0xffffffff
    30d1:	e8 ea 0a 01 00       	call   13bc0 <log_msg@plt>
    30d6:	83 c4 20             	add    $0x20,%esp
    30d9:	8d 65 f4             	lea    -0xc(%ebp),%esp
    30dc:	31 c0                	xor    %eax,%eax
    30de:	5b                   	pop    %ebx
    30df:	5e                   	pop    %esi
    30e0:	5f                   	pop    %edi
    30e1:	5d                   	pop    %ebp
    30e2:	c3                   	ret    
    30e3:	50                   	push   %eax
    30e4:	68 3e 0f 01 00       	push   $0x10f3e
    30e9:	6a 01                	push   $0x1
    30eb:	6a ff                	push   $0xffffffff
    30ed:	e8 ce 0a 01 00       	call   13bc0 <log_msg@plt>
    30f2:	83 c4 0c             	add    $0xc,%esp
    30f5:	68 ab 01 00 00       	push   $0x1ab
    30fa:	68 28 0f 01 00       	push   $0x10f28
    30ff:	68 eb 0b 01 00       	push   $0x10beb
    3104:	e8 07 0b 01 00       	call   13c10 <assert_abort@plt>
    3109:	50                   	push   %eax
    310a:	68 ae 01 00 00       	push   $0x1ae
    310f:	68 28 0f 01 00       	push   $0x10f28
    3114:	68 5b 0f 01 00       	push   $0x10f5b
    3119:	e8 f2 0a 01 00       	call   13c10 <assert_abort@plt>
    311e:	50                   	push   %eax
    311f:	68 c5 00 00 00       	push   $0xc5
    3124:	68 28 0f 01 00       	push   $0x10f28
    3129:	68 66 0f 01 00       	push   $0x10f66
    312e:	e8 dd 0a 01 00       	call   13c10 <assert_abort@plt>
    3133:	52                   	push   %edx
    3134:	68 c4 00 00 00       	push   $0xc4
    3139:	68 28 0f 01 00       	push   $0x10f28
    313e:	68 53 0f 01 00       	push   $0x10f53
    3143:	e8 c8 0a 01 00       	call   13c10 <assert_abort@plt>
    3148:	50                   	push   %eax
    3149:	68 c1 00 00 00       	push   $0xc1
    314e:	68 28 0f 01 00       	push   $0x10f28
    3153:	68 3a 0f 01 00       	push   $0x10f3a
    3158:	e8 b3 0a 01 00       	call   13c10 <assert_abort@plt>
    315d:	8d 76 00             	lea    0x0(%esi),%esi
    3160:	83 ec 0c             	sub    $0xc,%esp
    3163:	50                   	push   %eax
    3164:	e8 37 0b 01 00       	call   13ca0 <fibril_mutex_unlock@plt>
    3169:	83 c4 10             	add    $0x10,%esp
    316c:	83 c8 ff             	or     $0xffffffff,%eax
    316f:	e9 33 ff ff ff       	jmp    30a7 <device_remove+0x127>
    3174:	8d b6 00 00 00 00    	lea    0x0(%esi),%esi
    317a:	8d bf 00 00 00 00    	lea    0x0(%edi),%edi

00003180 <release_default_address>:
    3180:	55                   	push   %ebp
    3181:	89 e5                	mov    %esp,%ebp
    3183:	56                   	push   %esi
    3184:	53                   	push   %ebx
    3185:	8b 75 08             	mov    0x8(%ebp),%esi
    3188:	85 f6                	test   %esi,%esi
    318a:	0f 84 93 00 00 00    	je     3223 <release_default_address+0xa3>
    3190:	83 ec 0c             	sub    $0xc,%esp
    3193:	56                   	push   %esi
    3194:	e8 47 4e 00 00       	call   7fe0 <ddf_fun_get_dev>
    3199:	89 04 24             	mov    %eax,(%esp)
    319c:	e8 6f 4d 00 00       	call   7f10 <ddf_dev_data_get>
    31a1:	83 c4 10             	add    $0x10,%esp
    31a4:	85 c0                	test   %eax,%eax
    31a6:	74 38                	je     31e0 <release_default_address+0x60>
    31a8:	83 ec 0c             	sub    $0xc,%esp
    31ab:	8d 58 04             	lea    0x4(%eax),%ebx
    31ae:	56                   	push   %esi
    31af:	e8 bc 4f 00 00       	call   8170 <ddf_fun_data_get>
    31b4:	83 c4 10             	add    $0x10,%esp
    31b7:	85 c0                	test   %eax,%eax
    31b9:	74 53                	je     320e <release_default_address+0x8e>
    31bb:	0f bf 40 24          	movswl 0x24(%eax),%eax
    31bf:	50                   	push   %eax
    31c0:	68 20 11 01 00       	push   $0x11120
    31c5:	6a 04                	push   $0x4
    31c7:	6a ff                	push   $0xffffffff
    31c9:	e8 f2 09 01 00       	call   13bc0 <log_msg@plt>
    31ce:	58                   	pop    %eax
    31cf:	5a                   	pop    %edx
    31d0:	6a 00                	push   $0x0
    31d2:	53                   	push   %ebx
    31d3:	e8 c8 1c 00 00       	call   4ea0 <hcd_release_address>
    31d8:	8d 65 f8             	lea    -0x8(%ebp),%esp
    31db:	5b                   	pop    %ebx
    31dc:	5e                   	pop    %esi
    31dd:	5d                   	pop    %ebp
    31de:	c3                   	ret    
    31df:	90                   	nop
    31e0:	53                   	push   %ebx
    31e1:	68 3e 0f 01 00       	push   $0x10f3e
    31e6:	6a 01                	push   $0x1
    31e8:	6a ff                	push   $0xffffffff
    31ea:	e8 d1 09 01 00       	call   13bc0 <log_msg@plt>
    31ef:	89 34 24             	mov    %esi,(%esp)
    31f2:	e8 79 4f 00 00       	call   8170 <ddf_fun_data_get>
    31f7:	83 c4 0c             	add    $0xc,%esp
    31fa:	68 ac 00 00 00       	push   $0xac
    31ff:	68 28 0f 01 00       	push   $0x10f28
    3204:	68 eb 0b 01 00       	push   $0x10beb
    3209:	e8 02 0a 01 00       	call   13c10 <assert_abort@plt>
    320e:	51                   	push   %ecx
    320f:	68 ad 00 00 00       	push   $0xad
    3214:	68 28 0f 01 00       	push   $0x10f28
    3219:	68 66 0f 01 00       	push   $0x10f66
    321e:	e8 ed 09 01 00       	call   13c10 <assert_abort@plt>
    3223:	56                   	push   %esi
    3224:	68 a9 00 00 00       	push   $0xa9
    3229:	68 28 0f 01 00       	push   $0x10f28
    322e:	68 3a 0f 01 00       	push   $0x10f3a
    3233:	e8 d8 09 01 00       	call   13c10 <assert_abort@plt>
    3238:	90                   	nop
    3239:	8d b4 26 00 00 00 00 	lea    0x0(%esi,%eiz,1),%esi

00003240 <reserve_default_address>:
    3240:	55                   	push   %ebp
    3241:	89 e5                	mov    %esp,%ebp
    3243:	57                   	push   %edi
    3244:	56                   	push   %esi
    3245:	53                   	push   %ebx
    3246:	83 ec 0c             	sub    $0xc,%esp
    3249:	8b 5d 08             	mov    0x8(%ebp),%ebx
    324c:	8b 75 0c             	mov    0xc(%ebp),%esi
    324f:	85 db                	test   %ebx,%ebx
    3251:	0f 84 a4 00 00 00    	je     32fb <reserve_default_address+0xbb>
    3257:	83 ec 0c             	sub    $0xc,%esp
    325a:	53                   	push   %ebx
    325b:	e8 80 4d 00 00       	call   7fe0 <ddf_fun_get_dev>
    3260:	89 04 24             	mov    %eax,(%esp)
    3263:	e8 a8 4c 00 00       	call   7f10 <ddf_dev_data_get>
    3268:	83 c4 10             	add    $0x10,%esp
    326b:	85 c0                	test   %eax,%eax
    326d:	74 49                	je     32b8 <reserve_default_address+0x78>
    326f:	83 ec 0c             	sub    $0xc,%esp
    3272:	8d 78 04             	lea    0x4(%eax),%edi
    3275:	53                   	push   %ebx
    3276:	e8 f5 4e 00 00       	call   8170 <ddf_fun_data_get>
    327b:	83 c4 10             	add    $0x10,%esp
    327e:	89 c3                	mov    %eax,%ebx
    3280:	85 c0                	test   %eax,%eax
    3282:	74 62                	je     32e6 <reserve_default_address+0xa6>
    3284:	83 ec 0c             	sub    $0xc,%esp
    3287:	56                   	push   %esi
    3288:	e8 b3 42 00 00       	call   7540 <usb_str_speed>
    328d:	89 04 24             	mov    %eax,(%esp)
    3290:	0f bf 43 24          	movswl 0x24(%ebx),%eax
    3294:	50                   	push   %eax
    3295:	68 44 11 01 00       	push   $0x11144
    329a:	6a 04                	push   $0x4
    329c:	6a ff                	push   $0xffffffff
    329e:	e8 1d 09 01 00       	call   13bc0 <log_msg@plt>
    32a3:	89 75 0c             	mov    %esi,0xc(%ebp)
    32a6:	89 7d 08             	mov    %edi,0x8(%ebp)
    32a9:	83 c4 20             	add    $0x20,%esp
    32ac:	8d 65 f4             	lea    -0xc(%ebp),%esp
    32af:	5b                   	pop    %ebx
    32b0:	5e                   	pop    %esi
    32b1:	5f                   	pop    %edi
    32b2:	5d                   	pop    %ebp
    32b3:	e9 28 1c 00 00       	jmp    4ee0 <hcd_reserve_default_address>
    32b8:	52                   	push   %edx
    32b9:	68 3e 0f 01 00       	push   $0x10f3e
    32be:	6a 01                	push   $0x1
    32c0:	6a ff                	push   $0xffffffff
    32c2:	e8 f9 08 01 00       	call   13bc0 <log_msg@plt>
    32c7:	89 1c 24             	mov    %ebx,(%esp)
    32ca:	e8 a1 4e 00 00       	call   8170 <ddf_fun_data_get>
    32cf:	83 c4 0c             	add    $0xc,%esp
    32d2:	68 9f 00 00 00       	push   $0x9f
    32d7:	68 28 0f 01 00       	push   $0x10f28
    32dc:	68 eb 0b 01 00       	push   $0x10beb
    32e1:	e8 2a 09 01 00       	call   13c10 <assert_abort@plt>
    32e6:	50                   	push   %eax
    32e7:	68 a0 00 00 00       	push   $0xa0
    32ec:	68 28 0f 01 00       	push   $0x10f28
    32f1:	68 66 0f 01 00       	push   $0x10f66
    32f6:	e8 15 09 01 00       	call   13c10 <assert_abort@plt>
    32fb:	51                   	push   %ecx
    32fc:	68 9c 00 00 00       	push   $0x9c
    3301:	68 28 0f 01 00       	push   $0x10f28
    3306:	68 3a 0f 01 00       	push   $0x10f3a
    330b:	e8 00 09 01 00       	call   13c10 <assert_abort@plt>

00003310 <unregister_endpoint>:
    3310:	55                   	push   %ebp
    3311:	89 e5                	mov    %esp,%ebp
    3313:	57                   	push   %edi
    3314:	56                   	push   %esi
    3315:	53                   	push   %ebx
    3316:	83 ec 1c             	sub    $0x1c,%esp
    3319:	8b 7d 08             	mov    0x8(%ebp),%edi
    331c:	8b 75 0c             	mov    0xc(%ebp),%esi
    331f:	85 ff                	test   %edi,%edi
    3321:	0f 84 c4 00 00 00    	je     33eb <unregister_endpoint+0xdb>
    3327:	83 ec 0c             	sub    $0xc,%esp
    332a:	57                   	push   %edi
    332b:	e8 b0 4c 00 00       	call   7fe0 <ddf_fun_get_dev>
    3330:	89 04 24             	mov    %eax,(%esp)
    3333:	e8 d8 4b 00 00       	call   7f10 <ddf_dev_data_get>
    3338:	83 c4 10             	add    $0x10,%esp
    333b:	85 c0                	test   %eax,%eax
    333d:	74 69                	je     33a8 <unregister_endpoint+0x98>
    333f:	83 ec 0c             	sub    $0xc,%esp
    3342:	83 c0 04             	add    $0x4,%eax
    3345:	89 45 e4             	mov    %eax,-0x1c(%ebp)
    3348:	57                   	push   %edi
    3349:	e8 22 4e 00 00       	call   8170 <ddf_fun_data_get>
    334e:	83 c4 10             	add    $0x10,%esp
    3351:	89 c3                	mov    %eax,%ebx
    3353:	85 c0                	test   %eax,%eax
    3355:	74 7f                	je     33d6 <unregister_endpoint+0xc6>
    3357:	89 f0                	mov    %esi,%eax
    3359:	31 ff                	xor    %edi,%edi
    335b:	83 ec 0c             	sub    $0xc,%esp
    335e:	66 8b 7b 24          	mov    0x24(%ebx),%di
    3362:	c1 e0 10             	shl    $0x10,%eax
    3365:	09 c7                	or     %eax,%edi
    3367:	8b 45 10             	mov    0x10(%ebp),%eax
    336a:	50                   	push   %eax
    336b:	e8 b0 41 00 00       	call   7520 <usb_str_direction>
    3370:	5a                   	pop    %edx
    3371:	59                   	pop    %ecx
    3372:	50                   	push   %eax
    3373:	0f bf 43 24          	movswl 0x24(%ebx),%eax
    3377:	0f bf f6             	movswl %si,%esi
    337a:	56                   	push   %esi
    337b:	50                   	push   %eax
    337c:	68 78 11 01 00       	push   $0x11178
    3381:	6a 04                	push   $0x4
    3383:	6a ff                	push   $0xffffffff
    3385:	e8 36 08 01 00       	call   13bc0 <log_msg@plt>
    338a:	83 c4 1c             	add    $0x1c,%esp
    338d:	8b 5d 10             	mov    0x10(%ebp),%ebx
    3390:	8b 75 e4             	mov    -0x1c(%ebp),%esi
    3393:	53                   	push   %ebx
    3394:	57                   	push   %edi
    3395:	56                   	push   %esi
    3396:	e8 e5 1b 00 00       	call   4f80 <hcd_remove_ep>
    339b:	8d 65 f4             	lea    -0xc(%ebp),%esp
    339e:	5b                   	pop    %ebx
    339f:	5e                   	pop    %esi
    33a0:	5f                   	pop    %edi
    33a1:	5d                   	pop    %ebp
    33a2:	c3                   	ret    
    33a3:	90                   	nop
    33a4:	8d 74 26 00          	lea    0x0(%esi,%eiz,1),%esi
    33a8:	50                   	push   %eax
    33a9:	68 3e 0f 01 00       	push   $0x10f3e
    33ae:	6a 01                	push   $0x1
    33b0:	6a ff                	push   $0xffffffff
    33b2:	e8 09 08 01 00       	call   13bc0 <log_msg@plt>
    33b7:	89 3c 24             	mov    %edi,(%esp)
    33ba:	e8 b1 4d 00 00       	call   8170 <ddf_fun_data_get>
    33bf:	83 c4 0c             	add    $0xc,%esp
    33c2:	68 91 00 00 00       	push   $0x91
    33c7:	68 28 0f 01 00       	push   $0x10f28
    33cc:	68 eb 0b 01 00       	push   $0x10beb
    33d1:	e8 3a 08 01 00       	call   13c10 <assert_abort@plt>
    33d6:	57                   	push   %edi
    33d7:	68 92 00 00 00       	push   $0x92
    33dc:	68 28 0f 01 00       	push   $0x10f28
    33e1:	68 66 0f 01 00       	push   $0x10f66
    33e6:	e8 25 08 01 00       	call   13c10 <assert_abort@plt>
    33eb:	50                   	push   %eax
    33ec:	68 8e 00 00 00       	push   $0x8e
    33f1:	68 28 0f 01 00       	push   $0x10f28
    33f6:	68 3a 0f 01 00       	push   $0x10f3a
    33fb:	e8 10 08 01 00       	call   13c10 <assert_abort@plt>

00003400 <register_endpoint>:
    3400:	55                   	push   %ebp
    3401:	89 e5                	mov    %esp,%ebp
    3403:	57                   	push   %edi
    3404:	56                   	push   %esi
    3405:	53                   	push   %ebx
    3406:	83 ec 1c             	sub    $0x1c,%esp
    3409:	8b 75 08             	mov    0x8(%ebp),%esi
    340c:	8b 5d 0c             	mov    0xc(%ebp),%ebx
    340f:	85 f6                	test   %esi,%esi
    3411:	0f 84 f6 00 00 00    	je     350d <register_endpoint+0x10d>
    3417:	83 ec 0c             	sub    $0xc,%esp
    341a:	56                   	push   %esi
    341b:	e8 c0 4b 00 00       	call   7fe0 <ddf_fun_get_dev>
    3420:	89 04 24             	mov    %eax,(%esp)
    3423:	e8 e8 4a 00 00       	call   7f10 <ddf_dev_data_get>
    3428:	83 c4 10             	add    $0x10,%esp
    342b:	85 c0                	test   %eax,%eax
    342d:	0f 84 9d 00 00 00    	je     34d0 <register_endpoint+0xd0>
    3433:	83 ec 0c             	sub    $0xc,%esp
    3436:	83 c0 04             	add    $0x4,%eax
    3439:	89 45 e4             	mov    %eax,-0x1c(%ebp)
    343c:	56                   	push   %esi
    343d:	e8 2e 4d 00 00       	call   8170 <ddf_fun_data_get>
    3442:	83 c4 10             	add    $0x10,%esp
    3445:	89 c7                	mov    %eax,%edi
    3447:	85 c0                	test   %eax,%eax
    3449:	0f 84 ac 00 00 00    	je     34fb <register_endpoint+0xfb>
    344f:	89 d8                	mov    %ebx,%eax
    3451:	31 f6                	xor    %esi,%esi
    3453:	83 ec 0c             	sub    $0xc,%esp
    3456:	66 8b 77 24          	mov    0x24(%edi),%si
    345a:	c1 e0 10             	shl    $0x10,%eax
    345d:	09 c6                	or     %eax,%esi
    345f:	8b 45 14             	mov    0x14(%ebp),%eax
    3462:	50                   	push   %eax
    3463:	e8 b8 40 00 00       	call   7520 <usb_str_direction>
    3468:	8b 4d 10             	mov    0x10(%ebp),%ecx
    346b:	5a                   	pop    %edx
    346c:	89 45 e0             	mov    %eax,-0x20(%ebp)
    346f:	51                   	push   %ecx
    3470:	e8 6b 40 00 00       	call   74e0 <usb_str_transfer_type>
    3475:	8b 4d 20             	mov    0x20(%ebp),%ecx
    3478:	5a                   	pop    %edx
    3479:	8b 55 18             	mov    0x18(%ebp),%edx
    347c:	51                   	push   %ecx
    347d:	8b 4d e0             	mov    -0x20(%ebp),%ecx
    3480:	52                   	push   %edx
    3481:	51                   	push   %ecx
    3482:	50                   	push   %eax
    3483:	0f bf 47 24          	movswl 0x24(%edi),%eax
    3487:	0f bf db             	movswl %bx,%ebx
    348a:	53                   	push   %ebx
    348b:	50                   	push   %eax
    348c:	68 98 11 01 00       	push   $0x11198
    3491:	6a 04                	push   $0x4
    3493:	6a ff                	push   $0xffffffff
    3495:	e8 26 07 01 00       	call   13bc0 <log_msg@plt>
    349a:	83 c4 24             	add    $0x24,%esp
    349d:	8b 4f 30             	mov    0x30(%edi),%ecx
    34a0:	0f bf 47 2c          	movswl 0x2c(%edi),%eax
    34a4:	51                   	push   %ecx
    34a5:	8b 5d 18             	mov    0x18(%ebp),%ebx
    34a8:	50                   	push   %eax
    34a9:	8b 7d 1c             	mov    0x1c(%ebp),%edi
    34ac:	8b 45 18             	mov    0x18(%ebp),%eax
    34af:	53                   	push   %ebx
    34b0:	57                   	push   %edi
    34b1:	50                   	push   %eax
    34b2:	8b 45 10             	mov    0x10(%ebp),%eax
    34b5:	50                   	push   %eax
    34b6:	8b 45 14             	mov    0x14(%ebp),%eax
    34b9:	50                   	push   %eax
    34ba:	8b 45 e4             	mov    -0x1c(%ebp),%eax
    34bd:	56                   	push   %esi
    34be:	50                   	push   %eax
    34bf:	e8 5c 1a 00 00       	call   4f20 <hcd_add_ep>
    34c4:	8d 65 f4             	lea    -0xc(%ebp),%esp
    34c7:	5b                   	pop    %ebx
    34c8:	5e                   	pop    %esi
    34c9:	5f                   	pop    %edi
    34ca:	5d                   	pop    %ebp
    34cb:	c3                   	ret    
    34cc:	8d 74 26 00          	lea    0x0(%esi,%eiz,1),%esi
    34d0:	50                   	push   %eax
    34d1:	68 3e 0f 01 00       	push   $0x10f3e
    34d6:	6a 01                	push   $0x1
    34d8:	6a ff                	push   $0xffffffff
    34da:	e8 e1 06 01 00       	call   13bc0 <log_msg@plt>
    34df:	89 34 24             	mov    %esi,(%esp)
    34e2:	e8 89 4c 00 00       	call   8170 <ddf_fun_data_get>
    34e7:	83 c4 0c             	add    $0xc,%esp
    34ea:	6a 76                	push   $0x76
    34ec:	68 28 0f 01 00       	push   $0x10f28
    34f1:	68 eb 0b 01 00       	push   $0x10beb
    34f6:	e8 15 07 01 00       	call   13c10 <assert_abort@plt>
    34fb:	50                   	push   %eax
    34fc:	6a 77                	push   $0x77
    34fe:	68 28 0f 01 00       	push   $0x10f28
    3503:	68 66 0f 01 00       	push   $0x10f66
    3508:	e8 03 07 01 00       	call   13c10 <assert_abort@plt>
    350d:	52                   	push   %edx
    350e:	6a 73                	push   $0x73
    3510:	68 28 0f 01 00       	push   $0x10f28
    3515:	68 3a 0f 01 00       	push   $0x10f3a
    351a:	e8 f1 06 01 00       	call   13c10 <assert_abort@plt>
    351f:	90                   	nop

00003520 <dev_write>:
    3520:	55                   	push   %ebp
    3521:	89 e5                	mov    %esp,%ebp
    3523:	57                   	push   %edi
    3524:	56                   	push   %esi
    3525:	53                   	push   %ebx
    3526:	83 ec 1c             	sub    $0x1c,%esp
    3529:	8b 55 08             	mov    0x8(%ebp),%edx
    352c:	8b 5d 0c             	mov    0xc(%ebp),%ebx
    352f:	8b 75 10             	mov    0x10(%ebp),%esi
    3532:	8b 7d 14             	mov    0x14(%ebp),%edi
    3535:	85 d2                	test   %edx,%edx
    3537:	0f 84 96 00 00 00    	je     35d3 <dev_write+0xb3>
    353d:	83 ec 0c             	sub    $0xc,%esp
    3540:	89 55 e4             	mov    %edx,-0x1c(%ebp)
    3543:	52                   	push   %edx
    3544:	e8 27 4c 00 00       	call   8170 <ddf_fun_data_get>
    3549:	83 c4 10             	add    $0x10,%esp
    354c:	8b 55 e4             	mov    -0x1c(%ebp),%edx
    354f:	85 c0                	test   %eax,%eax
    3551:	74 6b                	je     35be <dev_write+0x9e>
    3553:	83 ec 0c             	sub    $0xc,%esp
    3556:	8b 48 24             	mov    0x24(%eax),%ecx
    3559:	c1 e3 10             	shl    $0x10,%ebx
    355c:	81 e1 ff ff 00 00    	and    $0xffff,%ecx
    3562:	52                   	push   %edx
    3563:	09 cb                	or     %ecx,%ebx
    3565:	e8 76 4a 00 00       	call   7fe0 <ddf_fun_get_dev>
    356a:	89 04 24             	mov    %eax,(%esp)
    356d:	e8 9e 49 00 00       	call   7f10 <ddf_dev_data_get>
    3572:	83 c4 10             	add    $0x10,%esp
    3575:	85 c0                	test   %eax,%eax
    3577:	8d 50 04             	lea    0x4(%eax),%edx
    357a:	74 2c                	je     35a8 <dev_write+0x88>
    357c:	8b 4d 24             	mov    0x24(%ebp),%ecx
    357f:	50                   	push   %eax
    3580:	8b 45 20             	mov    0x20(%ebp),%eax
    3583:	68 6a 0f 01 00       	push   $0x10f6a
    3588:	51                   	push   %ecx
    3589:	50                   	push   %eax
    358a:	8b 45 1c             	mov    0x1c(%ebp),%eax
    358d:	6a 00                	push   $0x0
    358f:	57                   	push   %edi
    3590:	56                   	push   %esi
    3591:	50                   	push   %eax
    3592:	8b 45 18             	mov    0x18(%ebp),%eax
    3595:	50                   	push   %eax
    3596:	6a 01                	push   $0x1
    3598:	53                   	push   %ebx
    3599:	52                   	push   %edx
    359a:	e8 31 1a 00 00       	call   4fd0 <hcd_send_batch>
    359f:	8d 65 f4             	lea    -0xc(%ebp),%esp
    35a2:	5b                   	pop    %ebx
    35a3:	5e                   	pop    %esi
    35a4:	5f                   	pop    %edi
    35a5:	5d                   	pop    %ebp
    35a6:	c3                   	ret    
    35a7:	90                   	nop
    35a8:	50                   	push   %eax
    35a9:	68 3e 0f 01 00       	push   $0x10f3e
    35ae:	6a 01                	push   $0x1
    35b0:	6a ff                	push   $0xffffffff
    35b2:	e8 09 06 01 00       	call   13bc0 <log_msg@plt>
    35b7:	83 c4 10             	add    $0x10,%esp
    35ba:	31 d2                	xor    %edx,%edx
    35bc:	eb be                	jmp    357c <dev_write+0x5c>
    35be:	50                   	push   %eax
    35bf:	68 03 01 00 00       	push   $0x103
    35c4:	68 28 0f 01 00       	push   $0x10f28
    35c9:	68 62 0f 01 00       	push   $0x10f62
    35ce:	e8 3d 06 01 00       	call   13c10 <assert_abort@plt>
    35d3:	50                   	push   %eax
    35d4:	68 01 01 00 00       	push   $0x101
    35d9:	68 28 0f 01 00       	push   $0x10f28
    35de:	68 3a 0f 01 00       	push   $0x10f3a
    35e3:	e8 28 06 01 00       	call   13c10 <assert_abort@plt>
    35e8:	90                   	nop
    35e9:	8d b4 26 00 00 00 00 	lea    0x0(%esi,%eiz,1),%esi

000035f0 <dev_read>:
    35f0:	55                   	push   %ebp
    35f1:	89 e5                	mov    %esp,%ebp
    35f3:	57                   	push   %edi
    35f4:	56                   	push   %esi
    35f5:	53                   	push   %ebx
    35f6:	83 ec 1c             	sub    $0x1c,%esp
    35f9:	8b 55 08             	mov    0x8(%ebp),%edx
    35fc:	8b 5d 0c             	mov    0xc(%ebp),%ebx
    35ff:	8b 75 10             	mov    0x10(%ebp),%esi
    3602:	8b 7d 14             	mov    0x14(%ebp),%edi
    3605:	85 d2                	test   %edx,%edx
    3607:	0f 84 96 00 00 00    	je     36a3 <dev_read+0xb3>
    360d:	83 ec 0c             	sub    $0xc,%esp
    3610:	89 55 e4             	mov    %edx,-0x1c(%ebp)
    3613:	52                   	push   %edx
    3614:	e8 57 4b 00 00       	call   8170 <ddf_fun_data_get>
    3619:	83 c4 10             	add    $0x10,%esp
    361c:	8b 55 e4             	mov    -0x1c(%ebp),%edx
    361f:	85 c0                	test   %eax,%eax
    3621:	74 6b                	je     368e <dev_read+0x9e>
    3623:	83 ec 0c             	sub    $0xc,%esp
    3626:	8b 48 24             	mov    0x24(%eax),%ecx
    3629:	c1 e3 10             	shl    $0x10,%ebx
    362c:	81 e1 ff ff 00 00    	and    $0xffff,%ecx
    3632:	52                   	push   %edx
    3633:	09 cb                	or     %ecx,%ebx
    3635:	e8 a6 49 00 00       	call   7fe0 <ddf_fun_get_dev>
    363a:	89 04 24             	mov    %eax,(%esp)
    363d:	e8 ce 48 00 00       	call   7f10 <ddf_dev_data_get>
    3642:	83 c4 10             	add    $0x10,%esp
    3645:	85 c0                	test   %eax,%eax
    3647:	8d 50 04             	lea    0x4(%eax),%edx
    364a:	74 2c                	je     3678 <dev_read+0x88>
    364c:	8b 4d 24             	mov    0x24(%ebp),%ecx
    364f:	50                   	push   %eax
    3650:	8b 45 20             	mov    0x20(%ebp),%eax
    3653:	68 70 0f 01 00       	push   $0x10f70
    3658:	51                   	push   %ecx
    3659:	6a 00                	push   $0x0
    365b:	50                   	push   %eax
    365c:	8b 45 1c             	mov    0x1c(%ebp),%eax
    365f:	57                   	push   %edi
    3660:	56                   	push   %esi
    3661:	50                   	push   %eax
    3662:	8b 45 18             	mov    0x18(%ebp),%eax
    3665:	50                   	push   %eax
    3666:	6a 00                	push   $0x0
    3668:	53                   	push   %ebx
    3669:	52                   	push   %edx
    366a:	e8 61 19 00 00       	call   4fd0 <hcd_send_batch>
    366f:	8d 65 f4             	lea    -0xc(%ebp),%esp
    3672:	5b                   	pop    %ebx
    3673:	5e                   	pop    %esi
    3674:	5f                   	pop    %edi
    3675:	5d                   	pop    %ebp
    3676:	c3                   	ret    
    3677:	90                   	nop
    3678:	50                   	push   %eax
    3679:	68 3e 0f 01 00       	push   $0x10f3e
    367e:	6a 01                	push   $0x1
    3680:	6a ff                	push   $0xffffffff
    3682:	e8 39 05 01 00       	call   13bc0 <log_msg@plt>
    3687:	83 c4 10             	add    $0x10,%esp
    368a:	31 d2                	xor    %edx,%edx
    368c:	eb be                	jmp    364c <dev_read+0x5c>
    368e:	50                   	push   %eax
    368f:	68 e9 00 00 00       	push   $0xe9
    3694:	68 28 0f 01 00       	push   $0x10f28
    3699:	68 62 0f 01 00       	push   $0x10f62
    369e:	e8 6d 05 01 00       	call   13c10 <assert_abort@plt>
    36a3:	50                   	push   %eax
    36a4:	68 e7 00 00 00       	push   $0xe7
    36a9:	68 28 0f 01 00       	push   $0x10f28
    36ae:	68 3a 0f 01 00       	push   $0x10f3a
    36b3:	e8 58 05 01 00       	call   13c10 <assert_abort@plt>
    36b8:	90                   	nop
    36b9:	8d b4 26 00 00 00 00 	lea    0x0(%esi,%eiz,1),%esi

000036c0 <hcd_ddf_new_device>:
    36c0:	55                   	push   %ebp
    36c1:	89 e5                	mov    %esp,%ebp
    36c3:	57                   	push   %edi
    36c4:	56                   	push   %esi
    36c5:	53                   	push   %ebx
    36c6:	83 ec 7c             	sub    $0x7c,%esp
    36c9:	89 45 b4             	mov    %eax,-0x4c(%ebp)
    36cc:	89 55 a8             	mov    %edx,-0x58(%ebp)
    36cf:	89 4d ac             	mov    %ecx,-0x54(%ebp)
    36d2:	85 c0                	test   %eax,%eax
    36d4:	0f 84 a2 09 00 00    	je     407c <hcd_ddf_new_device+0x9bc>
    36da:	83 ec 0c             	sub    $0xc,%esp
    36dd:	8b 45 b4             	mov    -0x4c(%ebp),%eax
    36e0:	50                   	push   %eax
    36e1:	e8 2a 48 00 00       	call   7f10 <ddf_dev_data_get>
    36e6:	83 c4 10             	add    $0x10,%esp
    36e9:	85 c0                	test   %eax,%eax
    36eb:	0f 84 37 02 00 00    	je     3928 <hcd_ddf_new_device+0x268>
    36f1:	8d 58 04             	lea    0x4(%eax),%ebx
    36f4:	8d 45 c0             	lea    -0x40(%ebp),%eax
    36f7:	c7 45 c0 03 00 00 00 	movl   $0x3,-0x40(%ebp)
    36fe:	57                   	push   %edi
    36ff:	50                   	push   %eax
    3700:	6a 00                	push   $0x0
    3702:	53                   	push   %ebx
    3703:	e8 18 29 00 00       	call   6020 <usb_bus_get_speed>
    3708:	83 c4 10             	add    $0x10,%esp
    370b:	89 c6                	mov    %eax,%esi
    370d:	85 c0                	test   %eax,%eax
    370f:	0f 85 83 01 00 00    	jne    3898 <hcd_ddf_new_device+0x1d8>
    3715:	83 ec 0c             	sub    $0xc,%esp
    3718:	8b 4d c0             	mov    -0x40(%ebp),%ecx
    371b:	51                   	push   %ecx
    371c:	e8 1f 3e 00 00       	call   7540 <usb_str_speed>
    3721:	50                   	push   %eax
    3722:	68 c4 11 01 00       	push   $0x111c4
    3727:	6a 04                	push   $0x4
    3729:	6a ff                	push   $0xffffffff
    372b:	e8 90 04 01 00       	call   13bc0 <log_msg@plt>
    3730:	83 c4 18             	add    $0x18,%esp
    3733:	8b 75 c0             	mov    -0x40(%ebp),%esi
    3736:	56                   	push   %esi
    3737:	53                   	push   %ebx
    3738:	e8 13 17 00 00       	call   4e50 <hcd_request_address>
    373d:	83 c4 10             	add    $0x10,%esp
    3740:	66 85 c0             	test   %ax,%ax
    3743:	66 89 45 98          	mov    %ax,-0x68(%ebp)
    3747:	0f 88 73 01 00 00    	js     38c0 <hcd_ddf_new_device+0x200>
    374d:	0f bf 45 98          	movswl -0x68(%ebp),%eax
    3751:	50                   	push   %eax
    3752:	89 45 b0             	mov    %eax,-0x50(%ebp)
    3755:	68 98 0f 01 00       	push   $0x10f98
    375a:	6a 04                	push   $0x4
    375c:	6a ff                	push   $0xffffffff
    375e:	e8 5d 04 01 00       	call   13bc0 <log_msg@plt>
    3763:	8b 45 a8             	mov    -0x58(%ebp),%eax
    3766:	83 c4 10             	add    $0x10,%esp
    3769:	c7 45 94 00 00 00 00 	movl   $0x0,-0x6c(%ebp)
    3770:	85 c0                	test   %eax,%eax
    3772:	0f 84 a8 01 00 00    	je     3920 <hcd_ddf_new_device+0x260>
    3778:	8b 70 2c             	mov    0x2c(%eax),%esi
    377b:	0f bf c6             	movswl %si,%eax
    377e:	89 c6                	mov    %eax,%esi
    3780:	89 45 90             	mov    %eax,-0x70(%ebp)
    3783:	8b 45 b0             	mov    -0x50(%ebp),%eax
    3786:	50                   	push   %eax
    3787:	68 08 12 01 00       	push   $0x11208
    378c:	6a 04                	push   $0x4
    378e:	6a ff                	push   $0xffffffff
    3790:	e8 2b 04 01 00       	call   13bc0 <log_msg@plt>
    3795:	58                   	pop    %eax
    3796:	8b 15 00 17 01 00    	mov    0x11700,%edx
    379c:	8b 45 ac             	mov    -0x54(%ebp),%eax
    379f:	50                   	push   %eax
    37a0:	56                   	push   %esi
    37a1:	6a 01                	push   $0x1
    37a3:	6a 08                	push   $0x8
    37a5:	6a 08                	push   $0x8
    37a7:	6a 00                	push   $0x0
    37a9:	6a 02                	push   $0x2
    37ab:	52                   	push   %edx
    37ac:	53                   	push   %ebx
    37ad:	e8 6e 17 00 00       	call   4f20 <hcd_add_ep>
    37b2:	83 c4 30             	add    $0x30,%esp
    37b5:	89 c6                	mov    %eax,%esi
    37b7:	85 c0                	test   %eax,%eax
    37b9:	0f 85 29 01 00 00    	jne    38e8 <hcd_ddf_new_device+0x228>
    37bf:	b8 80 06 00 00       	mov    $0x680,%eax
    37c4:	31 c9                	xor    %ecx,%ecx
    37c6:	66 89 c1             	mov    %ax,%cx
    37c9:	31 d2                	xor    %edx,%edx
    37cb:	81 c9 00 00 00 01    	or     $0x1000000,%ecx
    37d1:	c7 45 d6 00 00 00 00 	movl   $0x0,-0x2a(%ebp)
    37d8:	66 31 d2             	xor    %dx,%dx
    37db:	89 c8                	mov    %ecx,%eax
    37dd:	31 c9                	xor    %ecx,%ecx
    37df:	89 45 88             	mov    %eax,-0x78(%ebp)
    37e2:	66 89 d1             	mov    %dx,%cx
    37e5:	8b 45 b0             	mov    -0x50(%ebp),%eax
    37e8:	81 c9 00 00 08 00    	or     $0x80000,%ecx
    37ee:	50                   	push   %eax
    37ef:	89 4d 8c             	mov    %ecx,-0x74(%ebp)
    37f2:	68 60 12 01 00       	push   $0x11260
    37f7:	c7 45 da 00 00 00 00 	movl   $0x0,-0x26(%ebp)
    37fe:	6a 04                	push   $0x4
    3800:	c7 45 de 00 00 00 00 	movl   $0x0,-0x22(%ebp)
    3807:	6a ff                	push   $0xffffffff
    3809:	c7 45 e2 00 00 00 00 	movl   $0x0,-0x1e(%ebp)
    3810:	66 c7 45 e6 00 00    	movw   $0x0,-0x1a(%ebp)
    3816:	e8 a5 03 01 00       	call   13bc0 <log_msg@plt>
    381b:	8b 45 88             	mov    -0x78(%ebp),%eax
    381e:	8b 55 8c             	mov    -0x74(%ebp),%edx
    3821:	68 98 12 01 00       	push   $0x11298
    3826:	52                   	push   %edx
    3827:	50                   	push   %eax
    3828:	8d 45 d6             	lea    -0x2a(%ebp),%eax
    382b:	6a 08                	push   $0x8
    382d:	50                   	push   %eax
    382e:	a1 00 17 01 00       	mov    0x11700,%eax
    3833:	6a 00                	push   $0x0
    3835:	50                   	push   %eax
    3836:	53                   	push   %ebx
    3837:	e8 b4 19 00 00       	call   51f0 <hcd_send_batch_sync>
    383c:	83 c4 30             	add    $0x30,%esp
    383f:	89 c6                	mov    %eax,%esi
    3841:	83 f8 08             	cmp    $0x8,%eax
    3844:	0f 84 06 01 00 00    	je     3950 <hcd_ddf_new_device+0x290>
    384a:	85 c0                	test   %eax,%eax
    384c:	78 05                	js     3853 <hcd_ddf_new_device+0x193>
    384e:	be f0 ff ff ff       	mov    $0xfffffff0,%esi
    3853:	83 ec 0c             	sub    $0xc,%esp
    3856:	56                   	push   %esi
    3857:	e8 f4 05 01 00       	call   13e50 <str_error@plt>
    385c:	8b 7d b0             	mov    -0x50(%ebp),%edi
    385f:	89 04 24             	mov    %eax,(%esp)
    3862:	57                   	push   %edi
    3863:	68 c0 12 01 00       	push   $0x112c0
    3868:	6a 01                	push   $0x1
    386a:	6a ff                	push   $0xffffffff
    386c:	e8 4f 03 01 00       	call   13bc0 <log_msg@plt>
    3871:	83 c4 1c             	add    $0x1c,%esp
    3874:	a1 00 17 01 00       	mov    0x11700,%eax
    3879:	6a 02                	push   $0x2
    387b:	50                   	push   %eax
    387c:	53                   	push   %ebx
    387d:	e8 fe 16 00 00       	call   4f80 <hcd_remove_ep>
    3882:	58                   	pop    %eax
    3883:	5a                   	pop    %edx
    3884:	57                   	push   %edi
    3885:	53                   	push   %ebx
    3886:	e8 15 16 00 00       	call   4ea0 <hcd_release_address>
    388b:	83 c4 10             	add    $0x10,%esp
    388e:	8d 65 f4             	lea    -0xc(%ebp),%esp
    3891:	89 f0                	mov    %esi,%eax
    3893:	5b                   	pop    %ebx
    3894:	5e                   	pop    %esi
    3895:	5f                   	pop    %edi
    3896:	5d                   	pop    %ebp
    3897:	c3                   	ret    
    3898:	83 ec 0c             	sub    $0xc,%esp
    389b:	50                   	push   %eax
    389c:	e8 af 05 01 00       	call   13e50 <str_error@plt>
    38a1:	50                   	push   %eax
    38a2:	68 7c 0f 01 00       	push   $0x10f7c
    38a7:	6a 01                	push   $0x1
    38a9:	6a ff                	push   $0xffffffff
    38ab:	e8 10 03 01 00       	call   13bc0 <log_msg@plt>
    38b0:	83 c4 20             	add    $0x20,%esp
    38b3:	8d 65 f4             	lea    -0xc(%ebp),%esp
    38b6:	89 f0                	mov    %esi,%eax
    38b8:	5b                   	pop    %ebx
    38b9:	5e                   	pop    %esi
    38ba:	5f                   	pop    %edi
    38bb:	5d                   	pop    %ebp
    38bc:	c3                   	ret    
    38bd:	8d 76 00             	lea    0x0(%esi),%esi
    38c0:	83 ec 0c             	sub    $0xc,%esp
    38c3:	0f bf f0             	movswl %ax,%esi
    38c6:	56                   	push   %esi
    38c7:	e8 84 05 01 00       	call   13e50 <str_error@plt>
    38cc:	50                   	push   %eax
    38cd:	68 e4 11 01 00       	push   $0x111e4
    38d2:	6a 01                	push   $0x1
    38d4:	6a ff                	push   $0xffffffff
    38d6:	e8 e5 02 01 00       	call   13bc0 <log_msg@plt>
    38db:	83 c4 20             	add    $0x20,%esp
    38de:	8d 65 f4             	lea    -0xc(%ebp),%esp
    38e1:	89 f0                	mov    %esi,%eax
    38e3:	5b                   	pop    %ebx
    38e4:	5e                   	pop    %esi
    38e5:	5f                   	pop    %edi
    38e6:	5d                   	pop    %ebp
    38e7:	c3                   	ret    
    38e8:	83 ec 0c             	sub    $0xc,%esp
    38eb:	50                   	push   %eax
    38ec:	e8 5f 05 01 00       	call   13e50 <str_error@plt>
    38f1:	8b 7d b0             	mov    -0x50(%ebp),%edi
    38f4:	89 04 24             	mov    %eax,(%esp)
    38f7:	57                   	push   %edi
    38f8:	68 30 12 01 00       	push   $0x11230
    38fd:	6a 01                	push   $0x1
    38ff:	6a ff                	push   $0xffffffff
    3901:	e8 ba 02 01 00       	call   13bc0 <log_msg@plt>
    3906:	83 c4 18             	add    $0x18,%esp
    3909:	57                   	push   %edi
    390a:	53                   	push   %ebx
    390b:	e8 90 15 00 00       	call   4ea0 <hcd_release_address>
    3910:	83 c4 10             	add    $0x10,%esp
    3913:	8d 65 f4             	lea    -0xc(%ebp),%esp
    3916:	89 f0                	mov    %esi,%eax
    3918:	5b                   	pop    %ebx
    3919:	5e                   	pop    %esi
    391a:	5f                   	pop    %edi
    391b:	5d                   	pop    %ebp
    391c:	c3                   	ret    
    391d:	8d 76 00             	lea    0x0(%esi),%esi
    3920:	83 ce ff             	or     $0xffffffff,%esi
    3923:	e9 53 fe ff ff       	jmp    377b <hcd_ddf_new_device+0xbb>
    3928:	50                   	push   %eax
    3929:	68 3e 0f 01 00       	push   $0x10f3e
    392e:	6a 01                	push   $0x1
    3930:	6a ff                	push   $0xffffffff
    3932:	e8 89 02 01 00       	call   13bc0 <log_msg@plt>
    3937:	83 c4 0c             	add    $0xc,%esp
    393a:	68 d2 01 00 00       	push   $0x1d2
    393f:	68 28 0f 01 00       	push   $0x10f28
    3944:	68 eb 0b 01 00       	push   $0x10beb
    3949:	e8 c2 02 01 00       	call   13c10 <assert_abort@plt>
    394e:	66 90                	xchg   %ax,%ax
    3950:	8b 45 b0             	mov    -0x50(%ebp),%eax
    3953:	50                   	push   %eax
    3954:	68 f0 12 01 00       	push   $0x112f0
    3959:	6a 04                	push   $0x4
    395b:	6a ff                	push   $0xffffffff
    395d:	e8 5e 02 01 00       	call   13bc0 <log_msg@plt>
    3962:	8b 55 98             	mov    -0x68(%ebp),%edx
    3965:	66 89 55 94          	mov    %dx,-0x6c(%ebp)
    3969:	31 c0                	xor    %eax,%eax
    396b:	8a 45 dd             	mov    -0x23(%ebp),%al
    396e:	8b 75 90             	mov    -0x70(%ebp),%esi
    3971:	8b 4d ac             	mov    -0x54(%ebp),%ecx
    3974:	8b 7d 94             	mov    -0x6c(%ebp),%edi
    3977:	5a                   	pop    %edx
    3978:	51                   	push   %ecx
    3979:	56                   	push   %esi
    397a:	50                   	push   %eax
    397b:	6a 01                	push   $0x1
    397d:	50                   	push   %eax
    397e:	6a 00                	push   $0x0
    3980:	6a 02                	push   $0x2
    3982:	57                   	push   %edi
    3983:	53                   	push   %ebx
    3984:	e8 97 15 00 00       	call   4f20 <hcd_add_ep>
    3989:	83 c4 30             	add    $0x30,%esp
    398c:	89 c6                	mov    %eax,%esi
    398e:	85 c0                	test   %eax,%eax
    3990:	0f 85 a2 05 00 00    	jne    3f38 <hcd_ddf_new_device+0x878>
    3996:	8b 45 98             	mov    -0x68(%ebp),%eax
    3999:	ba 00 05 00 00       	mov    $0x500,%edx
    399e:	c1 e0 10             	shl    $0x10,%eax
    39a1:	89 55 88             	mov    %edx,-0x78(%ebp)
    39a4:	31 c9                	xor    %ecx,%ecx
    39a6:	89 c7                	mov    %eax,%edi
    39a8:	66 31 c9             	xor    %cx,%cx
    39ab:	31 c0                	xor    %eax,%eax
    39ad:	66 8b 45 88          	mov    -0x78(%ebp),%ax
    39b1:	09 c7                	or     %eax,%edi
    39b3:	89 c8                	mov    %ecx,%eax
    39b5:	31 c9                	xor    %ecx,%ecx
    39b7:	89 7d 88             	mov    %edi,-0x78(%ebp)
    39ba:	66 89 c1             	mov    %ax,%cx
    39bd:	8b 7d b0             	mov    -0x50(%ebp),%edi
    39c0:	57                   	push   %edi
    39c1:	89 4d 8c             	mov    %ecx,-0x74(%ebp)
    39c4:	68 3c 13 01 00       	push   $0x1133c
    39c9:	6a 04                	push   $0x4
    39cb:	6a ff                	push   $0xffffffff
    39cd:	e8 ee 01 01 00       	call   13bc0 <log_msg@plt>
    39d2:	8b 55 88             	mov    -0x78(%ebp),%edx
    39d5:	8b 4d 8c             	mov    -0x74(%ebp),%ecx
    39d8:	a1 00 17 01 00       	mov    0x11700,%eax
    39dd:	68 b2 0f 01 00       	push   $0x10fb2
    39e2:	51                   	push   %ecx
    39e3:	52                   	push   %edx
    39e4:	6a 00                	push   $0x0
    39e6:	6a 00                	push   $0x0
    39e8:	6a 01                	push   $0x1
    39ea:	50                   	push   %eax
    39eb:	53                   	push   %ebx
    39ec:	e8 ff 17 00 00       	call   51f0 <hcd_send_batch_sync>
    39f1:	83 c4 30             	add    $0x30,%esp
    39f4:	89 c7                	mov    %eax,%edi
    39f6:	8b 45 b0             	mov    -0x50(%ebp),%eax
    39f9:	50                   	push   %eax
    39fa:	68 60 13 01 00       	push   $0x11360
    39ff:	6a 04                	push   $0x4
    3a01:	6a ff                	push   $0xffffffff
    3a03:	e8 b8 01 01 00       	call   13bc0 <log_msg@plt>
    3a08:	83 c4 0c             	add    $0xc,%esp
    3a0b:	a1 00 17 01 00       	mov    0x11700,%eax
    3a10:	6a 02                	push   $0x2
    3a12:	50                   	push   %eax
    3a13:	53                   	push   %ebx
    3a14:	e8 67 15 00 00       	call   4f80 <hcd_remove_ep>
    3a19:	83 c4 10             	add    $0x10,%esp
    3a1c:	85 ff                	test   %edi,%edi
    3a1e:	0f 85 51 05 00 00    	jne    3f75 <hcd_ddf_new_device+0x8b5>
    3a24:	ba 80 06 00 00       	mov    $0x680,%edx
    3a29:	31 c0                	xor    %eax,%eax
    3a2b:	66 89 d0             	mov    %dx,%ax
    3a2e:	31 c9                	xor    %ecx,%ecx
    3a30:	0d 00 00 00 01       	or     $0x1000000,%eax
    3a35:	8b 7d b0             	mov    -0x50(%ebp),%edi
    3a38:	89 c2                	mov    %eax,%edx
    3a3a:	31 c0                	xor    %eax,%eax
    3a3c:	66 31 c9             	xor    %cx,%cx
    3a3f:	57                   	push   %edi
    3a40:	66 89 c8             	mov    %cx,%ax
    3a43:	68 b4 13 01 00       	push   $0x113b4
    3a48:	0d 00 00 12 00       	or     $0x120000,%eax
    3a4d:	6a 04                	push   $0x4
    3a4f:	89 55 88             	mov    %edx,-0x78(%ebp)
    3a52:	6a ff                	push   $0xffffffff
    3a54:	89 45 8c             	mov    %eax,-0x74(%ebp)
    3a57:	e8 64 01 01 00       	call   13bc0 <log_msg@plt>
    3a5c:	8b 4d 8c             	mov    -0x74(%ebp),%ecx
    3a5f:	68 be 0f 01 00       	push   $0x10fbe
    3a64:	8b 55 88             	mov    -0x78(%ebp),%edx
    3a67:	51                   	push   %ecx
    3a68:	8d 45 d6             	lea    -0x2a(%ebp),%eax
    3a6b:	8b 4d 94             	mov    -0x6c(%ebp),%ecx
    3a6e:	52                   	push   %edx
    3a6f:	6a 12                	push   $0x12
    3a71:	50                   	push   %eax
    3a72:	6a 00                	push   $0x0
    3a74:	51                   	push   %ecx
    3a75:	53                   	push   %ebx
    3a76:	e8 75 17 00 00       	call   51f0 <hcd_send_batch_sync>
    3a7b:	83 c4 30             	add    $0x30,%esp
    3a7e:	8d 45 c4             	lea    -0x3c(%ebp),%eax
    3a81:	57                   	push   %edi
    3a82:	68 e4 13 01 00       	push   $0x113e4
    3a87:	6a 04                	push   $0x4
    3a89:	6a ff                	push   $0xffffffff
    3a8b:	89 45 c4             	mov    %eax,-0x3c(%ebp)
    3a8e:	89 45 c8             	mov    %eax,-0x38(%ebp)
    3a91:	e8 2a 01 01 00       	call   13bc0 <log_msg@plt>
    3a96:	83 c4 10             	add    $0x10,%esp
    3a99:	66 83 7d de 00       	cmpw   $0x0,-0x22(%ebp)
    3a9e:	0f 84 36 01 00 00    	je     3bda <hcd_ddf_new_device+0x51a>
    3aa4:	83 ec 0c             	sub    $0xc,%esp
    3aa7:	6a 10                	push   $0x10
    3aa9:	e8 72 00 01 00       	call   13b20 <malloc@plt>
    3aae:	83 c4 10             	add    $0x10,%esp
    3ab1:	85 c0                	test   %eax,%eax
    3ab3:	0f 84 77 05 00 00    	je     4030 <hcd_ddf_new_device+0x970>
    3ab9:	89 45 90             	mov    %eax,-0x70(%ebp)
    3abc:	31 c9                	xor    %ecx,%ecx
    3abe:	66 8b 45 e2          	mov    -0x1e(%ebp),%ax
    3ac2:	52                   	push   %edx
    3ac3:	88 c1                	mov    %al,%cl
    3ac5:	52                   	push   %edx
    3ac6:	0f b6 c4             	movzbl %ah,%eax
    3ac9:	51                   	push   %ecx
    3aca:	50                   	push   %eax
    3acb:	31 c0                	xor    %eax,%eax
    3acd:	c7 45 cc 00 00 00 00 	movl   $0x0,-0x34(%ebp)
    3ad4:	66 8b 45 e0          	mov    -0x20(%ebp),%ax
    3ad8:	50                   	push   %eax
    3ad9:	31 c0                	xor    %eax,%eax
    3adb:	66 8b 45 de          	mov    -0x22(%ebp),%ax
    3adf:	50                   	push   %eax
    3ae0:	8d 45 cc             	lea    -0x34(%ebp),%eax
    3ae3:	68 04 14 01 00       	push   $0x11404
    3ae8:	89 45 88             	mov    %eax,-0x78(%ebp)
    3aeb:	50                   	push   %eax
    3aec:	e8 df 02 01 00       	call   13dd0 <asprintf@plt>
    3af1:	83 c4 20             	add    $0x20,%esp
    3af4:	8b 55 90             	mov    -0x70(%ebp),%edx
    3af7:	85 c0                	test   %eax,%eax
    3af9:	0f 88 9c 05 00 00    	js     409b <hcd_ddf_new_device+0x9db>
    3aff:	8b 45 cc             	mov    -0x34(%ebp),%eax
    3b02:	8d 7d c4             	lea    -0x3c(%ebp),%edi
    3b05:	89 42 08             	mov    %eax,0x8(%edx)
    3b08:	8b 45 c8             	mov    -0x38(%ebp),%eax
    3b0b:	c7 42 0c 64 00 00 00 	movl   $0x64,0xc(%edx)
    3b12:	39 f8                	cmp    %edi,%eax
    3b14:	74 26                	je     3b3c <hcd_ddf_new_device+0x47c>
    3b16:	8b 7d 98             	mov    -0x68(%ebp),%edi
    3b19:	83 78 0c 63          	cmpl   $0x63,0xc(%eax)
    3b1d:	77 0f                	ja     3b2e <hcd_ddf_new_device+0x46e>
    3b1f:	eb 1b                	jmp    3b3c <hcd_ddf_new_device+0x47c>
    3b21:	8d b4 26 00 00 00 00 	lea    0x0(%esi,%eiz,1),%esi
    3b28:	83 78 0c 63          	cmpl   $0x63,0xc(%eax)
    3b2c:	76 0a                	jbe    3b38 <hcd_ddf_new_device+0x478>
    3b2e:	8b 40 04             	mov    0x4(%eax),%eax
    3b31:	8d 4d c4             	lea    -0x3c(%ebp),%ecx
    3b34:	39 c8                	cmp    %ecx,%eax
    3b36:	75 f0                	jne    3b28 <hcd_ddf_new_device+0x468>
    3b38:	66 89 7d 98          	mov    %di,-0x68(%ebp)
    3b3c:	8b 08                	mov    (%eax),%ecx
    3b3e:	83 ec 0c             	sub    $0xc,%esp
    3b41:	89 0a                	mov    %ecx,(%edx)
    3b43:	89 42 04             	mov    %eax,0x4(%edx)
    3b46:	8b 08                	mov    (%eax),%ecx
    3b48:	89 51 04             	mov    %edx,0x4(%ecx)
    3b4b:	89 10                	mov    %edx,(%eax)
    3b4d:	6a 10                	push   $0x10
    3b4f:	e8 cc ff 00 00       	call   13b20 <malloc@plt>
    3b54:	83 c4 10             	add    $0x10,%esp
    3b57:	85 c0                	test   %eax,%eax
    3b59:	0f 84 d1 04 00 00    	je     4030 <hcd_ddf_new_device+0x970>
    3b5f:	89 45 90             	mov    %eax,-0x70(%ebp)
    3b62:	31 c0                	xor    %eax,%eax
    3b64:	66 8b 45 e0          	mov    -0x20(%ebp),%ax
    3b68:	c7 45 cc 00 00 00 00 	movl   $0x0,-0x34(%ebp)
    3b6f:	50                   	push   %eax
    3b70:	31 c0                	xor    %eax,%eax
    3b72:	66 8b 45 de          	mov    -0x22(%ebp),%ax
    3b76:	50                   	push   %eax
    3b77:	8b 45 88             	mov    -0x78(%ebp),%eax
    3b7a:	68 34 14 01 00       	push   $0x11434
    3b7f:	50                   	push   %eax
    3b80:	e8 4b 02 01 00       	call   13dd0 <asprintf@plt>
    3b85:	83 c4 10             	add    $0x10,%esp
    3b88:	8b 55 90             	mov    -0x70(%ebp),%edx
    3b8b:	85 c0                	test   %eax,%eax
    3b8d:	0f 88 08 05 00 00    	js     409b <hcd_ddf_new_device+0x9db>
    3b93:	8b 45 cc             	mov    -0x34(%ebp),%eax
    3b96:	8d 7d c4             	lea    -0x3c(%ebp),%edi
    3b99:	89 42 08             	mov    %eax,0x8(%edx)
    3b9c:	8b 45 c8             	mov    -0x38(%ebp),%eax
    3b9f:	c7 42 0c 5a 00 00 00 	movl   $0x5a,0xc(%edx)
    3ba6:	39 f8                	cmp    %edi,%eax
    3ba8:	74 22                	je     3bcc <hcd_ddf_new_device+0x50c>
    3baa:	8b 7d 98             	mov    -0x68(%ebp),%edi
    3bad:	83 78 0c 59          	cmpl   $0x59,0xc(%eax)
    3bb1:	77 0b                	ja     3bbe <hcd_ddf_new_device+0x4fe>
    3bb3:	eb 17                	jmp    3bcc <hcd_ddf_new_device+0x50c>
    3bb5:	8d 76 00             	lea    0x0(%esi),%esi
    3bb8:	83 78 0c 59          	cmpl   $0x59,0xc(%eax)
    3bbc:	76 0a                	jbe    3bc8 <hcd_ddf_new_device+0x508>
    3bbe:	8b 40 04             	mov    0x4(%eax),%eax
    3bc1:	8d 4d c4             	lea    -0x3c(%ebp),%ecx
    3bc4:	39 c8                	cmp    %ecx,%eax
    3bc6:	75 f0                	jne    3bb8 <hcd_ddf_new_device+0x4f8>
    3bc8:	66 89 7d 98          	mov    %di,-0x68(%ebp)
    3bcc:	8b 08                	mov    (%eax),%ecx
    3bce:	89 42 04             	mov    %eax,0x4(%edx)
    3bd1:	89 0a                	mov    %ecx,(%edx)
    3bd3:	8b 08                	mov    (%eax),%ecx
    3bd5:	89 51 04             	mov    %edx,0x4(%ecx)
    3bd8:	89 10                	mov    %edx,(%eax)
    3bda:	83 ec 0c             	sub    $0xc,%esp
    3bdd:	6a 10                	push   $0x10
    3bdf:	e8 3c ff 00 00       	call   13b20 <malloc@plt>
    3be4:	83 c4 10             	add    $0x10,%esp
    3be7:	85 c0                	test   %eax,%eax
    3be9:	0f 84 41 04 00 00    	je     4030 <hcd_ddf_new_device+0x970>
    3bef:	83 ec 0c             	sub    $0xc,%esp
    3bf2:	89 45 90             	mov    %eax,-0x70(%ebp)
    3bf5:	31 c0                	xor    %eax,%eax
    3bf7:	c7 45 cc 00 00 00 00 	movl   $0x0,-0x34(%ebp)
    3bfe:	8a 45 da             	mov    -0x26(%ebp),%al
    3c01:	50                   	push   %eax
    3c02:	e8 09 37 00 00       	call   7310 <usb_str_class>
    3c07:	83 c4 0c             	add    $0xc,%esp
    3c0a:	50                   	push   %eax
    3c0b:	8d 45 cc             	lea    -0x34(%ebp),%eax
    3c0e:	68 d5 0f 01 00       	push   $0x10fd5
    3c13:	89 45 88             	mov    %eax,-0x78(%ebp)
    3c16:	50                   	push   %eax
    3c17:	e8 b4 01 01 00       	call   13dd0 <asprintf@plt>
    3c1c:	83 c4 10             	add    $0x10,%esp
    3c1f:	8b 55 90             	mov    -0x70(%ebp),%edx
    3c22:	85 c0                	test   %eax,%eax
    3c24:	0f 88 71 04 00 00    	js     409b <hcd_ddf_new_device+0x9db>
    3c2a:	8b 45 cc             	mov    -0x34(%ebp),%eax
    3c2d:	8d 7d c4             	lea    -0x3c(%ebp),%edi
    3c30:	89 42 08             	mov    %eax,0x8(%edx)
    3c33:	8b 45 c8             	mov    -0x38(%ebp),%eax
    3c36:	c7 42 0c 32 00 00 00 	movl   $0x32,0xc(%edx)
    3c3d:	39 f8                	cmp    %edi,%eax
    3c3f:	74 23                	je     3c64 <hcd_ddf_new_device+0x5a4>
    3c41:	8b 7d 98             	mov    -0x68(%ebp),%edi
    3c44:	83 78 0c 31          	cmpl   $0x31,0xc(%eax)
    3c48:	77 0c                	ja     3c56 <hcd_ddf_new_device+0x596>
    3c4a:	eb 18                	jmp    3c64 <hcd_ddf_new_device+0x5a4>
    3c4c:	8d 74 26 00          	lea    0x0(%esi,%eiz,1),%esi
    3c50:	83 78 0c 31          	cmpl   $0x31,0xc(%eax)
    3c54:	76 0a                	jbe    3c60 <hcd_ddf_new_device+0x5a0>
    3c56:	8b 40 04             	mov    0x4(%eax),%eax
    3c59:	8d 4d c4             	lea    -0x3c(%ebp),%ecx
    3c5c:	39 c8                	cmp    %ecx,%eax
    3c5e:	75 f0                	jne    3c50 <hcd_ddf_new_device+0x590>
    3c60:	66 89 7d 98          	mov    %di,-0x68(%ebp)
    3c64:	8b 08                	mov    (%eax),%ecx
    3c66:	83 ec 0c             	sub    $0xc,%esp
    3c69:	89 0a                	mov    %ecx,(%edx)
    3c6b:	89 42 04             	mov    %eax,0x4(%edx)
    3c6e:	8b 08                	mov    (%eax),%ecx
    3c70:	89 51 04             	mov    %edx,0x4(%ecx)
    3c73:	89 10                	mov    %edx,(%eax)
    3c75:	6a 10                	push   $0x10
    3c77:	e8 a4 fe 00 00       	call   13b20 <malloc@plt>
    3c7c:	83 c4 10             	add    $0x10,%esp
    3c7f:	85 c0                	test   %eax,%eax
    3c81:	0f 84 a9 03 00 00    	je     4030 <hcd_ddf_new_device+0x970>
    3c87:	89 45 90             	mov    %eax,-0x70(%ebp)
    3c8a:	8b 45 88             	mov    -0x78(%ebp),%eax
    3c8d:	c7 45 cc 00 00 00 00 	movl   $0x0,-0x34(%ebp)
    3c94:	57                   	push   %edi
    3c95:	57                   	push   %edi
    3c96:	68 e2 0f 01 00       	push   $0x10fe2
    3c9b:	50                   	push   %eax
    3c9c:	e8 2f 01 01 00       	call   13dd0 <asprintf@plt>
    3ca1:	83 c4 10             	add    $0x10,%esp
    3ca4:	8b 55 90             	mov    -0x70(%ebp),%edx
    3ca7:	85 c0                	test   %eax,%eax
    3ca9:	0f 88 ec 03 00 00    	js     409b <hcd_ddf_new_device+0x9db>
    3caf:	8b 45 cc             	mov    -0x34(%ebp),%eax
    3cb2:	8d 7d c4             	lea    -0x3c(%ebp),%edi
    3cb5:	89 42 08             	mov    %eax,0x8(%edx)
    3cb8:	8b 45 c8             	mov    -0x38(%ebp),%eax
    3cbb:	c7 42 0c 0a 00 00 00 	movl   $0xa,0xc(%edx)
    3cc2:	39 f8                	cmp    %edi,%eax
    3cc4:	74 26                	je     3cec <hcd_ddf_new_device+0x62c>
    3cc6:	8b 7d 98             	mov    -0x68(%ebp),%edi
    3cc9:	83 78 0c 09          	cmpl   $0x9,0xc(%eax)
    3ccd:	77 0f                	ja     3cde <hcd_ddf_new_device+0x61e>
    3ccf:	eb 1b                	jmp    3cec <hcd_ddf_new_device+0x62c>
    3cd1:	8d b4 26 00 00 00 00 	lea    0x0(%esi,%eiz,1),%esi
    3cd8:	83 78 0c 09          	cmpl   $0x9,0xc(%eax)
    3cdc:	76 0a                	jbe    3ce8 <hcd_ddf_new_device+0x628>
    3cde:	8b 40 04             	mov    0x4(%eax),%eax
    3ce1:	8d 4d c4             	lea    -0x3c(%ebp),%ecx
    3ce4:	39 c8                	cmp    %ecx,%eax
    3ce6:	75 f0                	jne    3cd8 <hcd_ddf_new_device+0x618>
    3ce8:	66 89 7d 98          	mov    %di,-0x68(%ebp)
    3cec:	8b 08                	mov    (%eax),%ecx
    3cee:	89 42 04             	mov    %eax,0x4(%edx)
    3cf1:	89 0a                	mov    %ecx,(%edx)
    3cf3:	8b 7d b0             	mov    -0x50(%ebp),%edi
    3cf6:	8b 08                	mov    (%eax),%ecx
    3cf8:	89 51 04             	mov    %edx,0x4(%ecx)
    3cfb:	89 10                	mov    %edx,(%eax)
    3cfd:	57                   	push   %edi
    3cfe:	68 54 14 01 00       	push   $0x11454
    3d03:	6a 04                	push   $0x4
    3d05:	6a ff                	push   $0xffffffff
    3d07:	e8 b4 fe 00 00       	call   13bc0 <log_msg@plt>
    3d0c:	8b 45 c0             	mov    -0x40(%ebp),%eax
    3d0f:	89 04 24             	mov    %eax,(%esp)
    3d12:	89 45 84             	mov    %eax,-0x7c(%ebp)
    3d15:	c7 45 cc 00 00 00 00 	movl   $0x0,-0x34(%ebp)
    3d1c:	c7 45 d0 00 00 00 00 	movl   $0x0,-0x30(%ebp)
    3d23:	66 c7 45 d4 00 00    	movw   $0x0,-0x2c(%ebp)
    3d29:	e8 12 38 00 00       	call   7540 <usb_str_speed>
    3d2e:	0f be 00             	movsbl (%eax),%eax
    3d31:	89 04 24             	mov    %eax,(%esp)
    3d34:	57                   	push   %edi
    3d35:	8b 7d 88             	mov    -0x78(%ebp),%edi
    3d38:	68 ef 0f 01 00       	push   $0x10fef
    3d3d:	6a 09                	push   $0x9
    3d3f:	57                   	push   %edi
    3d40:	e8 4b fd 00 00       	call   13a90 <snprintf@plt>
    3d45:	83 c4 1c             	add    $0x1c,%esp
    3d48:	8b 4d b4             	mov    -0x4c(%ebp),%ecx
    3d4b:	57                   	push   %edi
    3d4c:	6a 01                	push   $0x1
    3d4e:	51                   	push   %ecx
    3d4f:	e8 ac 42 00 00       	call   8000 <ddf_fun_create>
    3d54:	83 c4 10             	add    $0x10,%esp
    3d57:	89 45 88             	mov    %eax,-0x78(%ebp)
    3d5a:	85 c0                	test   %eax,%eax
    3d5c:	0f 84 2f 03 00 00    	je     4091 <hcd_ddf_new_device+0x9d1>
    3d62:	52                   	push   %edx
    3d63:	52                   	push   %edx
    3d64:	6a 34                	push   $0x34
    3d66:	50                   	push   %eax
    3d67:	e8 a4 43 00 00       	call   8110 <ddf_fun_data_alloc>
    3d6c:	83 c4 10             	add    $0x10,%esp
    3d6f:	89 45 90             	mov    %eax,-0x70(%ebp)
    3d72:	85 c0                	test   %eax,%eax
    3d74:	0f 84 3d 03 00 00    	je     40b7 <hcd_ddf_new_device+0x9f7>
    3d7a:	8b 55 98             	mov    -0x68(%ebp),%edx
    3d7d:	8b 7d 88             	mov    -0x78(%ebp),%edi
    3d80:	66 89 50 24          	mov    %dx,0x24(%eax)
    3d84:	89 78 20             	mov    %edi,0x20(%eax)
    3d87:	8b 55 84             	mov    -0x7c(%ebp),%edx
    3d8a:	8b 7d ac             	mov    -0x54(%ebp),%edi
    3d8d:	89 50 28             	mov    %edx,0x28(%eax)
    3d90:	89 78 30             	mov    %edi,0x30(%eax)
    3d93:	89 c2                	mov    %eax,%edx
    3d95:	8b 45 a8             	mov    -0x58(%ebp),%eax
    3d98:	85 c0                	test   %eax,%eax
    3d9a:	0f 84 4d 02 00 00    	je     3fed <hcd_ddf_new_device+0x92d>
    3da0:	8b 40 2c             	mov    0x2c(%eax),%eax
    3da3:	83 ec 0c             	sub    $0xc,%esp
    3da6:	66 89 42 2c          	mov    %ax,0x2c(%edx)
    3daa:	89 d0                	mov    %edx,%eax
    3dac:	83 c0 08             	add    $0x8,%eax
    3daf:	c7 02 00 00 00 00    	movl   $0x0,(%edx)
    3db5:	89 42 08             	mov    %eax,0x8(%edx)
    3db8:	89 42 0c             	mov    %eax,0xc(%edx)
    3dbb:	89 d0                	mov    %edx,%eax
    3dbd:	c7 42 04 00 00 00 00 	movl   $0x0,0x4(%edx)
    3dc4:	83 c0 10             	add    $0x10,%eax
    3dc7:	89 d7                	mov    %edx,%edi
    3dc9:	50                   	push   %eax
    3dca:	e8 01 ff 00 00       	call   13cd0 <fibril_mutex_initialize@plt>
    3dcf:	8b 45 a8             	mov    -0x58(%ebp),%eax
    3dd2:	83 c4 10             	add    $0x10,%esp
    3dd5:	83 78 28 02          	cmpl   $0x2,0x28(%eax)
    3dd9:	75 0a                	jne    3de5 <hcd_ddf_new_device+0x725>
    3ddb:	83 7d 84 01          	cmpl   $0x1,-0x7c(%ebp)
    3ddf:	0f 86 3f 02 00 00    	jbe    4024 <hcd_ddf_new_device+0x964>
    3de5:	50                   	push   %eax
    3de6:	50                   	push   %eax
    3de7:	8b 45 88             	mov    -0x78(%ebp),%eax
    3dea:	68 20 62 01 00       	push   $0x16220
    3def:	50                   	push   %eax
    3df0:	e8 bb 47 00 00       	call   85b0 <ddf_fun_set_ops>
    3df5:	8b 7d c8             	mov    -0x38(%ebp),%edi
    3df8:	8d 45 c4             	lea    -0x3c(%ebp),%eax
    3dfb:	83 c4 10             	add    $0x10,%esp
    3dfe:	39 c7                	cmp    %eax,%edi
    3e00:	74 2d                	je     3e2f <hcd_ddf_new_device+0x76f>
    3e02:	89 5d ac             	mov    %ebx,-0x54(%ebp)
    3e05:	89 fb                	mov    %edi,%ebx
    3e07:	8b 7d 88             	mov    -0x78(%ebp),%edi
    3e0a:	8d b6 00 00 00 00    	lea    0x0(%esi),%esi
    3e10:	50                   	push   %eax
    3e11:	8b 43 0c             	mov    0xc(%ebx),%eax
    3e14:	50                   	push   %eax
    3e15:	8b 43 08             	mov    0x8(%ebx),%eax
    3e18:	50                   	push   %eax
    3e19:	57                   	push   %edi
    3e1a:	e8 d1 46 00 00       	call   84f0 <ddf_fun_add_match_id>
    3e1f:	8b 5b 04             	mov    0x4(%ebx),%ebx
    3e22:	8d 45 c4             	lea    -0x3c(%ebp),%eax
    3e25:	83 c4 10             	add    $0x10,%esp
    3e28:	39 c3                	cmp    %eax,%ebx
    3e2a:	75 e4                	jne    3e10 <hcd_ddf_new_device+0x750>
    3e2c:	8b 5d ac             	mov    -0x54(%ebp),%ebx
    3e2f:	83 ec 0c             	sub    $0xc,%esp
    3e32:	8b 45 88             	mov    -0x78(%ebp),%eax
    3e35:	50                   	push   %eax
    3e36:	e8 85 44 00 00       	call   82c0 <ddf_fun_bind>
    3e3b:	83 c4 10             	add    $0x10,%esp
    3e3e:	89 c7                	mov    %eax,%edi
    3e40:	85 c0                	test   %eax,%eax
    3e42:	0f 85 58 01 00 00    	jne    3fa0 <hcd_ddf_new_device+0x8e0>
    3e48:	8b 45 a8             	mov    -0x58(%ebp),%eax
    3e4b:	85 c0                	test   %eax,%eax
    3e4d:	0f 84 6f 01 00 00    	je     3fc2 <hcd_ddf_new_device+0x902>
    3e53:	83 ec 0c             	sub    $0xc,%esp
    3e56:	8d 50 10             	lea    0x10(%eax),%edx
    3e59:	89 55 b4             	mov    %edx,-0x4c(%ebp)
    3e5c:	52                   	push   %edx
    3e5d:	e8 1e 01 01 00       	call   13f80 <fibril_mutex_lock@plt>
    3e62:	8b 55 a8             	mov    -0x58(%ebp),%edx
    3e65:	8b 4d 90             	mov    -0x70(%ebp),%ecx
    3e68:	89 d0                	mov    %edx,%eax
    3e6a:	83 c0 08             	add    $0x8,%eax
    3e6d:	89 41 04             	mov    %eax,0x4(%ecx)
    3e70:	8b 42 08             	mov    0x8(%edx),%eax
    3e73:	89 01                	mov    %eax,(%ecx)
    3e75:	8b 42 08             	mov    0x8(%edx),%eax
    3e78:	89 48 04             	mov    %ecx,0x4(%eax)
    3e7b:	89 4a 08             	mov    %ecx,0x8(%edx)
    3e7e:	8b 55 b4             	mov    -0x4c(%ebp),%edx
    3e81:	89 14 24             	mov    %edx,(%esp)
    3e84:	e8 17 fe 00 00       	call   13ca0 <fibril_mutex_unlock@plt>
    3e89:	83 c4 10             	add    $0x10,%esp
    3e8c:	8b 55 c8             	mov    -0x38(%ebp),%edx
    3e8f:	8d 45 c4             	lea    -0x3c(%ebp),%eax
    3e92:	39 c2                	cmp    %eax,%edx
    3e94:	0f 84 f4 f9 ff ff    	je     388e <hcd_ddf_new_device+0x1ce>
    3e9a:	89 5d b4             	mov    %ebx,-0x4c(%ebp)
    3e9d:	89 d3                	mov    %edx,%ebx
    3e9f:	90                   	nop
    3ea0:	8b 0b                	mov    (%ebx),%ecx
    3ea2:	85 c9                	test   %ecx,%ecx
    3ea4:	74 0e                	je     3eb4 <hcd_ddf_new_device+0x7f4>
    3ea6:	8b 43 04             	mov    0x4(%ebx),%eax
    3ea9:	85 c0                	test   %eax,%eax
    3eab:	74 07                	je     3eb4 <hcd_ddf_new_device+0x7f4>
    3ead:	89 08                	mov    %ecx,(%eax)
    3eaf:	8b 0b                	mov    (%ebx),%ecx
    3eb1:	89 41 04             	mov    %eax,0x4(%ecx)
    3eb4:	8b 43 08             	mov    0x8(%ebx),%eax
    3eb7:	c7 03 00 00 00 00    	movl   $0x0,(%ebx)
    3ebd:	c7 43 04 00 00 00 00 	movl   $0x0,0x4(%ebx)
    3ec4:	85 c0                	test   %eax,%eax
    3ec6:	74 0c                	je     3ed4 <hcd_ddf_new_device+0x814>
    3ec8:	83 ec 0c             	sub    $0xc,%esp
    3ecb:	50                   	push   %eax
    3ecc:	e8 8f 00 01 00       	call   13f60 <free@plt>
    3ed1:	83 c4 10             	add    $0x10,%esp
    3ed4:	83 ec 0c             	sub    $0xc,%esp
    3ed7:	53                   	push   %ebx
    3ed8:	e8 83 00 01 00       	call   13f60 <free@plt>
    3edd:	8b 5d c8             	mov    -0x38(%ebp),%ebx
    3ee0:	8d 45 c4             	lea    -0x3c(%ebp),%eax
    3ee3:	83 c4 10             	add    $0x10,%esp
    3ee6:	39 c3                	cmp    %eax,%ebx
    3ee8:	75 b6                	jne    3ea0 <hcd_ddf_new_device+0x7e0>
    3eea:	8b 5d b4             	mov    -0x4c(%ebp),%ebx
    3eed:	85 ff                	test   %edi,%edi
    3eef:	0f 84 99 f9 ff ff    	je     388e <hcd_ddf_new_device+0x1ce>
    3ef5:	83 ec 0c             	sub    $0xc,%esp
    3ef8:	57                   	push   %edi
    3ef9:	e8 52 ff 00 00       	call   13e50 <str_error@plt>
    3efe:	8b 75 b0             	mov    -0x50(%ebp),%esi
    3f01:	89 04 24             	mov    %eax,(%esp)
    3f04:	56                   	push   %esi
    3f05:	68 78 14 01 00       	push   $0x11478
    3f0a:	6a 01                	push   $0x1
    3f0c:	6a ff                	push   $0xffffffff
    3f0e:	e8 ad fc 00 00       	call   13bc0 <log_msg@plt>
    3f13:	83 c4 1c             	add    $0x1c,%esp
    3f16:	8b 45 94             	mov    -0x6c(%ebp),%eax
    3f19:	6a 02                	push   $0x2
    3f1b:	50                   	push   %eax
    3f1c:	53                   	push   %ebx
    3f1d:	e8 5e 10 00 00       	call   4f80 <hcd_remove_ep>
    3f22:	58                   	pop    %eax
    3f23:	5a                   	pop    %edx
    3f24:	56                   	push   %esi
    3f25:	53                   	push   %ebx
    3f26:	89 fe                	mov    %edi,%esi
    3f28:	e8 73 0f 00 00       	call   4ea0 <hcd_release_address>
    3f2d:	83 c4 10             	add    $0x10,%esp
    3f30:	e9 59 f9 ff ff       	jmp    388e <hcd_ddf_new_device+0x1ce>
    3f35:	8d 76 00             	lea    0x0(%esi),%esi
    3f38:	83 ec 0c             	sub    $0xc,%esp
    3f3b:	50                   	push   %eax
    3f3c:	e8 0f ff 00 00       	call   13e50 <str_error@plt>
    3f41:	8b 7d b0             	mov    -0x50(%ebp),%edi
    3f44:	89 04 24             	mov    %eax,(%esp)
    3f47:	57                   	push   %edi
    3f48:	68 14 13 01 00       	push   $0x11314
    3f4d:	6a 01                	push   $0x1
    3f4f:	6a ff                	push   $0xffffffff
    3f51:	e8 6a fc 00 00       	call   13bc0 <log_msg@plt>
    3f56:	83 c4 1c             	add    $0x1c,%esp
    3f59:	a1 00 17 01 00       	mov    0x11700,%eax
    3f5e:	6a 02                	push   $0x2
    3f60:	50                   	push   %eax
    3f61:	53                   	push   %ebx
    3f62:	e8 19 10 00 00       	call   4f80 <hcd_remove_ep>
    3f67:	83 c4 0c             	add    $0xc,%esp
    3f6a:	8b 4d 94             	mov    -0x6c(%ebp),%ecx
    3f6d:	6a 02                	push   $0x2
    3f6f:	51                   	push   %ecx
    3f70:	e9 07 f9 ff ff       	jmp    387c <hcd_ddf_new_device+0x1bc>
    3f75:	83 ec 0c             	sub    $0xc,%esp
    3f78:	89 fe                	mov    %edi,%esi
    3f7a:	57                   	push   %edi
    3f7b:	e8 d0 fe 00 00       	call   13e50 <str_error@plt>
    3f80:	8b 7d b0             	mov    -0x50(%ebp),%edi
    3f83:	89 04 24             	mov    %eax,(%esp)
    3f86:	57                   	push   %edi
    3f87:	68 88 13 01 00       	push   $0x11388
    3f8c:	6a 01                	push   $0x1
    3f8e:	6a ff                	push   $0xffffffff
    3f90:	e8 2b fc 00 00       	call   13bc0 <log_msg@plt>
    3f95:	83 c4 1c             	add    $0x1c,%esp
    3f98:	eb d0                	jmp    3f6a <hcd_ddf_new_device+0x8aa>
    3f9a:	8d b6 00 00 00 00    	lea    0x0(%esi),%esi
    3fa0:	83 ec 0c             	sub    $0xc,%esp
    3fa3:	8b 4d 88             	mov    -0x78(%ebp),%ecx
    3fa6:	51                   	push   %ecx
    3fa7:	e8 e4 41 00 00       	call   8190 <ddf_fun_destroy>
    3fac:	83 c4 10             	add    $0x10,%esp
    3faf:	8b 55 c8             	mov    -0x38(%ebp),%edx
    3fb2:	8d 45 c4             	lea    -0x3c(%ebp),%eax
    3fb5:	39 c2                	cmp    %eax,%edx
    3fb7:	0f 85 dd fe ff ff    	jne    3e9a <hcd_ddf_new_device+0x7da>
    3fbd:	e9 33 ff ff ff       	jmp    3ef5 <hcd_ddf_new_device+0x835>
    3fc2:	83 ec 0c             	sub    $0xc,%esp
    3fc5:	8b 45 b4             	mov    -0x4c(%ebp),%eax
    3fc8:	50                   	push   %eax
    3fc9:	e8 42 3f 00 00       	call   7f10 <ddf_dev_data_get>
    3fce:	83 c4 10             	add    $0x10,%esp
    3fd1:	8b 90 40 08 00 00    	mov    0x840(%eax),%edx
    3fd7:	85 d2                	test   %edx,%edx
    3fd9:	0f 85 f0 00 00 00    	jne    40cf <hcd_ddf_new_device+0xa0f>
    3fdf:	8b 55 90             	mov    -0x70(%ebp),%edx
    3fe2:	89 90 40 08 00 00    	mov    %edx,0x840(%eax)
    3fe8:	e9 9f fe ff ff       	jmp    3e8c <hcd_ddf_new_device+0x7cc>
    3fed:	8b 55 90             	mov    -0x70(%ebp),%edx
    3ff0:	83 ec 0c             	sub    $0xc,%esp
    3ff3:	89 d0                	mov    %edx,%eax
    3ff5:	83 c0 08             	add    $0x8,%eax
    3ff8:	66 c7 42 2c ff ff    	movw   $0xffff,0x2c(%edx)
    3ffe:	89 42 08             	mov    %eax,0x8(%edx)
    4001:	89 42 0c             	mov    %eax,0xc(%edx)
    4004:	89 d0                	mov    %edx,%eax
    4006:	c7 02 00 00 00 00    	movl   $0x0,(%edx)
    400c:	83 c0 10             	add    $0x10,%eax
    400f:	c7 42 04 00 00 00 00 	movl   $0x0,0x4(%edx)
    4016:	50                   	push   %eax
    4017:	e8 b4 fc 00 00       	call   13cd0 <fibril_mutex_initialize@plt>
    401c:	83 c4 10             	add    $0x10,%esp
    401f:	e9 c1 fd ff ff       	jmp    3de5 <hcd_ddf_new_device+0x725>
    4024:	8b 40 24             	mov    0x24(%eax),%eax
    4027:	66 89 47 2c          	mov    %ax,0x2c(%edi)
    402b:	e9 b5 fd ff ff       	jmp    3de5 <hcd_ddf_new_device+0x725>
    4030:	8d 45 c4             	lea    -0x3c(%ebp),%eax
    4033:	e8 58 ee ff ff       	call   2e90 <clean_match_ids>
    4038:	83 ec 0c             	sub    $0xc,%esp
    403b:	be fe ff ff ff       	mov    $0xfffffffe,%esi
    4040:	6a fe                	push   $0xfffffffe
    4042:	e8 09 fe 00 00       	call   13e50 <str_error@plt>
    4047:	8b 7d b0             	mov    -0x50(%ebp),%edi
    404a:	89 04 24             	mov    %eax,(%esp)
    404d:	57                   	push   %edi
    404e:	68 9c 14 01 00       	push   $0x1149c
    4053:	6a 01                	push   $0x1
    4055:	6a ff                	push   $0xffffffff
    4057:	e8 64 fb 00 00       	call   13bc0 <log_msg@plt>
    405c:	83 c4 1c             	add    $0x1c,%esp
    405f:	8b 45 94             	mov    -0x6c(%ebp),%eax
    4062:	6a 02                	push   $0x2
    4064:	50                   	push   %eax
    4065:	53                   	push   %ebx
    4066:	e8 15 0f 00 00       	call   4f80 <hcd_remove_ep>
    406b:	5a                   	pop    %edx
    406c:	59                   	pop    %ecx
    406d:	57                   	push   %edi
    406e:	53                   	push   %ebx
    406f:	e8 2c 0e 00 00       	call   4ea0 <hcd_release_address>
    4074:	83 c4 10             	add    $0x10,%esp
    4077:	e9 12 f8 ff ff       	jmp    388e <hcd_ddf_new_device+0x1ce>
    407c:	50                   	push   %eax
    407d:	68 cf 01 00 00       	push   $0x1cf
    4082:	68 28 0f 01 00       	push   $0x10f28
    4087:	68 75 0f 01 00       	push   $0x10f75
    408c:	e8 7f fb 00 00       	call   13c10 <assert_abort@plt>
    4091:	bf fe ff ff ff       	mov    $0xfffffffe,%edi
    4096:	e9 14 ff ff ff       	jmp    3faf <hcd_ddf_new_device+0x8ef>
    409b:	8d 45 c4             	lea    -0x3c(%ebp),%eax
    409e:	89 55 b4             	mov    %edx,-0x4c(%ebp)
    40a1:	e8 ea ed ff ff       	call   2e90 <clean_match_ids>
    40a6:	83 ec 0c             	sub    $0xc,%esp
    40a9:	8b 55 b4             	mov    -0x4c(%ebp),%edx
    40ac:	52                   	push   %edx
    40ad:	e8 ae fe 00 00       	call   13f60 <free@plt>
    40b2:	83 c4 10             	add    $0x10,%esp
    40b5:	eb 81                	jmp    4038 <hcd_ddf_new_device+0x978>
    40b7:	83 ec 0c             	sub    $0xc,%esp
    40ba:	bf fe ff ff ff       	mov    $0xfffffffe,%edi
    40bf:	ff 75 88             	pushl  -0x78(%ebp)
    40c2:	e8 c9 40 00 00       	call   8190 <ddf_fun_destroy>
    40c7:	83 c4 10             	add    $0x10,%esp
    40ca:	e9 e0 fe ff ff       	jmp    3faf <hcd_ddf_new_device+0x8ef>
    40cf:	51                   	push   %ecx
    40d0:	68 6e 01 00 00       	push   $0x16e
    40d5:	68 28 0f 01 00       	push   $0x10f28
    40da:	68 f9 0f 01 00       	push   $0x10ff9
    40df:	e8 2c fb 00 00       	call   13c10 <assert_abort@plt>
    40e4:	8d b6 00 00 00 00    	lea    0x0(%esi),%esi
    40ea:	8d bf 00 00 00 00    	lea    0x0(%edi),%edi

000040f0 <device_enumerate>:
    40f0:	55                   	push   %ebp
    40f1:	89 e5                	mov    %esp,%ebp
    40f3:	57                   	push   %edi
    40f4:	56                   	push   %esi
    40f5:	53                   	push   %ebx
    40f6:	83 ec 0c             	sub    $0xc,%esp
    40f9:	8b 5d 08             	mov    0x8(%ebp),%ebx
    40fc:	8b 7d 0c             	mov    0xc(%ebp),%edi
    40ff:	85 db                	test   %ebx,%ebx
    4101:	74 4c                	je     414f <device_enumerate+0x5f>
    4103:	83 ec 0c             	sub    $0xc,%esp
    4106:	53                   	push   %ebx
    4107:	e8 d4 3e 00 00       	call   7fe0 <ddf_fun_get_dev>
    410c:	89 1c 24             	mov    %ebx,(%esp)
    410f:	89 c6                	mov    %eax,%esi
    4111:	e8 5a 40 00 00       	call   8170 <ddf_fun_data_get>
    4116:	83 c4 10             	add    $0x10,%esp
    4119:	89 c3                	mov    %eax,%ebx
    411b:	85 f6                	test   %esi,%esi
    411d:	74 5a                	je     4179 <device_enumerate+0x89>
    411f:	85 c0                	test   %eax,%eax
    4121:	74 41                	je     4164 <device_enumerate+0x74>
    4123:	83 ec 0c             	sub    $0xc,%esp
    4126:	57                   	push   %edi
    4127:	0f bf 40 24          	movswl 0x24(%eax),%eax
    412b:	50                   	push   %eax
    412c:	68 c8 14 01 00       	push   $0x114c8
    4131:	6a 04                	push   $0x4
    4133:	6a ff                	push   $0xffffffff
    4135:	e8 86 fa 00 00       	call   13bc0 <log_msg@plt>
    413a:	83 c4 20             	add    $0x20,%esp
    413d:	8d 65 f4             	lea    -0xc(%ebp),%esp
    4140:	89 f9                	mov    %edi,%ecx
    4142:	89 da                	mov    %ebx,%edx
    4144:	89 f0                	mov    %esi,%eax
    4146:	5b                   	pop    %ebx
    4147:	5e                   	pop    %esi
    4148:	5f                   	pop    %edi
    4149:	5d                   	pop    %ebp
    414a:	e9 71 f5 ff ff       	jmp    36c0 <hcd_ddf_new_device>
    414f:	51                   	push   %ecx
    4150:	68 b5 00 00 00       	push   $0xb5
    4155:	68 28 0f 01 00       	push   $0x10f28
    415a:	68 3a 0f 01 00       	push   $0x10f3a
    415f:	e8 ac fa 00 00       	call   13c10 <assert_abort@plt>
    4164:	50                   	push   %eax
    4165:	68 b9 00 00 00       	push   $0xb9
    416a:	68 28 0f 01 00       	push   $0x10f28
    416f:	68 66 0f 01 00       	push   $0x10f66
    4174:	e8 97 fa 00 00       	call   13c10 <assert_abort@plt>
    4179:	52                   	push   %edx
    417a:	68 b8 00 00 00       	push   $0xb8
    417f:	68 28 0f 01 00       	push   $0x10f28
    4184:	68 53 0f 01 00       	push   $0x10f53
    4189:	e8 82 fa 00 00       	call   13c10 <assert_abort@plt>
    418e:	66 90                	xchg   %ax,%ax

00004190 <dev_to_hcd>:
    4190:	55                   	push   %ebp
    4191:	89 e5                	mov    %esp,%ebp
    4193:	83 ec 14             	sub    $0x14,%esp
    4196:	8b 55 08             	mov    0x8(%ebp),%edx
    4199:	52                   	push   %edx
    419a:	e8 71 3d 00 00       	call   7f10 <ddf_dev_data_get>
    419f:	83 c4 10             	add    $0x10,%esp
    41a2:	85 c0                	test   %eax,%eax
    41a4:	74 05                	je     41ab <dev_to_hcd+0x1b>
    41a6:	83 c0 04             	add    $0x4,%eax
    41a9:	c9                   	leave  
    41aa:	c3                   	ret    
    41ab:	50                   	push   %eax
    41ac:	68 3e 0f 01 00       	push   $0x10f3e
    41b1:	6a 01                	push   $0x1
    41b3:	6a ff                	push   $0xffffffff
    41b5:	e8 06 fa 00 00       	call   13bc0 <log_msg@plt>
    41ba:	83 c4 10             	add    $0x10,%esp
    41bd:	31 c0                	xor    %eax,%eax
    41bf:	c9                   	leave  
    41c0:	c3                   	ret    
    41c1:	eb 0d                	jmp    41d0 <hcd_ddf_setup_root_hub>
    41c3:	90                   	nop
    41c4:	90                   	nop
    41c5:	90                   	nop
    41c6:	90                   	nop
    41c7:	90                   	nop
    41c8:	90                   	nop
    41c9:	90                   	nop
    41ca:	90                   	nop
    41cb:	90                   	nop
    41cc:	90                   	nop
    41cd:	90                   	nop
    41ce:	90                   	nop
    41cf:	90                   	nop

000041d0 <hcd_ddf_setup_root_hub>:
    41d0:	55                   	push   %ebp
    41d1:	89 e5                	mov    %esp,%ebp
    41d3:	56                   	push   %esi
    41d4:	53                   	push   %ebx
    41d5:	8b 5d 08             	mov    0x8(%ebp),%ebx
    41d8:	85 db                	test   %ebx,%ebx
    41da:	74 6a                	je     4246 <hcd_ddf_setup_root_hub+0x76>
    41dc:	83 ec 0c             	sub    $0xc,%esp
    41df:	53                   	push   %ebx
    41e0:	e8 2b 3d 00 00       	call   7f10 <ddf_dev_data_get>
    41e5:	83 c4 10             	add    $0x10,%esp
    41e8:	85 c0                	test   %eax,%eax
    41ea:	74 34                	je     4220 <hcd_ddf_setup_root_hub+0x50>
    41ec:	52                   	push   %edx
    41ed:	52                   	push   %edx
    41ee:	8d 70 04             	lea    0x4(%eax),%esi
    41f1:	8b 88 1c 08 00 00    	mov    0x81c(%eax),%ecx
    41f7:	51                   	push   %ecx
    41f8:	56                   	push   %esi
    41f9:	e8 e2 0c 00 00       	call   4ee0 <hcd_reserve_default_address>
    41fe:	31 c9                	xor    %ecx,%ecx
    4200:	31 d2                	xor    %edx,%edx
    4202:	89 d8                	mov    %ebx,%eax
    4204:	e8 b7 f4 ff ff       	call   36c0 <hcd_ddf_new_device>
    4209:	89 c3                	mov    %eax,%ebx
    420b:	58                   	pop    %eax
    420c:	5a                   	pop    %edx
    420d:	6a 00                	push   $0x0
    420f:	56                   	push   %esi
    4210:	e8 8b 0c 00 00       	call   4ea0 <hcd_release_address>
    4215:	8d 65 f8             	lea    -0x8(%ebp),%esp
    4218:	89 d8                	mov    %ebx,%eax
    421a:	5b                   	pop    %ebx
    421b:	5e                   	pop    %esi
    421c:	5d                   	pop    %ebp
    421d:	c3                   	ret    
    421e:	66 90                	xchg   %ax,%ax
    4220:	51                   	push   %ecx
    4221:	68 3e 0f 01 00       	push   $0x10f3e
    4226:	6a 01                	push   $0x1
    4228:	6a ff                	push   $0xffffffff
    422a:	e8 91 f9 00 00       	call   13bc0 <log_msg@plt>
    422f:	83 c4 0c             	add    $0xc,%esp
    4232:	68 6f 02 00 00       	push   $0x26f
    4237:	68 28 0f 01 00       	push   $0x10f28
    423c:	68 eb 0b 01 00       	push   $0x10beb
    4241:	e8 ca f9 00 00       	call   13c10 <assert_abort@plt>
    4246:	53                   	push   %ebx
    4247:	68 6d 02 00 00       	push   $0x26d
    424c:	68 28 0f 01 00       	push   $0x10f28
    4251:	68 75 0f 01 00       	push   $0x10f75
    4256:	e8 b5 f9 00 00       	call   13c10 <assert_abort@plt>
    425b:	90                   	nop
    425c:	8d 74 26 00          	lea    0x0(%esi,%eiz,1),%esi

00004260 <hcd_ddf_setup_hc>:
    4260:	55                   	push   %ebp
    4261:	89 e5                	mov    %esp,%ebp
    4263:	56                   	push   %esi
    4264:	53                   	push   %ebx
    4265:	8b 75 08             	mov    0x8(%ebp),%esi
    4268:	85 f6                	test   %esi,%esi
    426a:	0f 84 25 01 00 00    	je     4395 <hcd_ddf_setup_hc+0x135>
    4270:	50                   	push   %eax
    4271:	50                   	push   %eax
    4272:	68 44 08 00 00       	push   $0x844
    4277:	56                   	push   %esi
    4278:	e8 53 3c 00 00       	call   7ed0 <ddf_dev_data_alloc>
    427d:	83 c4 10             	add    $0x10,%esp
    4280:	89 c3                	mov    %eax,%ebx
    4282:	85 c0                	test   %eax,%eax
    4284:	0f 84 f2 00 00 00    	je     437c <hcd_ddf_setup_hc+0x11c>
    428a:	c7 80 40 08 00 00 00 	movl   $0x0,0x840(%eax)
    4291:	00 00 00 
    4294:	8b 45 14             	mov    0x14(%ebp),%eax
    4297:	50                   	push   %eax
    4298:	8b 45 10             	mov    0x10(%ebp),%eax
    429b:	50                   	push   %eax
    429c:	8b 45 0c             	mov    0xc(%ebp),%eax
    429f:	50                   	push   %eax
    42a0:	8d 43 04             	lea    0x4(%ebx),%eax
    42a3:	50                   	push   %eax
    42a4:	e8 47 0b 00 00       	call   4df0 <hcd_init>
    42a9:	83 c4 0c             	add    $0xc,%esp
    42ac:	68 12 10 01 00       	push   $0x11012
    42b1:	6a 02                	push   $0x2
    42b3:	56                   	push   %esi
    42b4:	e8 47 3d 00 00       	call   8000 <ddf_fun_create>
    42b9:	83 c4 10             	add    $0x10,%esp
    42bc:	89 03                	mov    %eax,(%ebx)
    42be:	85 c0                	test   %eax,%eax
    42c0:	0f 84 9a 00 00 00    	je     4360 <hcd_ddf_setup_hc+0x100>
    42c6:	83 ec 0c             	sub    $0xc,%esp
    42c9:	50                   	push   %eax
    42ca:	e8 f1 3f 00 00       	call   82c0 <ddf_fun_bind>
    42cf:	83 c4 10             	add    $0x10,%esp
    42d2:	89 c6                	mov    %eax,%esi
    42d4:	85 c0                	test   %eax,%eax
    42d6:	74 38                	je     4310 <hcd_ddf_setup_hc+0xb0>
    42d8:	83 ec 0c             	sub    $0xc,%esp
    42db:	50                   	push   %eax
    42dc:	e8 6f fb 00 00       	call   13e50 <str_error@plt>
    42e1:	50                   	push   %eax
    42e2:	68 16 10 01 00       	push   $0x11016
    42e7:	6a 01                	push   $0x1
    42e9:	6a ff                	push   $0xffffffff
    42eb:	e8 d0 f8 00 00       	call   13bc0 <log_msg@plt>
    42f0:	83 c4 20             	add    $0x20,%esp
    42f3:	83 ec 0c             	sub    $0xc,%esp
    42f6:	8b 03                	mov    (%ebx),%eax
    42f8:	50                   	push   %eax
    42f9:	e8 92 3e 00 00       	call   8190 <ddf_fun_destroy>
    42fe:	c7 03 00 00 00 00    	movl   $0x0,(%ebx)
    4304:	83 c4 10             	add    $0x10,%esp
    4307:	8d 65 f8             	lea    -0x8(%ebp),%esp
    430a:	89 f0                	mov    %esi,%eax
    430c:	5b                   	pop    %ebx
    430d:	5e                   	pop    %esi
    430e:	5d                   	pop    %ebp
    430f:	c3                   	ret    
    4310:	51                   	push   %ecx
    4311:	51                   	push   %ecx
    4312:	8b 33                	mov    (%ebx),%esi
    4314:	68 33 10 01 00       	push   $0x11033
    4319:	56                   	push   %esi
    431a:	e8 f1 42 00 00       	call   8610 <ddf_fun_add_to_category>
    431f:	83 c4 10             	add    $0x10,%esp
    4322:	89 c6                	mov    %eax,%esi
    4324:	85 c0                	test   %eax,%eax
    4326:	75 10                	jne    4338 <hcd_ddf_setup_hc+0xd8>
    4328:	8d 65 f8             	lea    -0x8(%ebp),%esp
    432b:	89 f0                	mov    %esi,%eax
    432d:	5b                   	pop    %ebx
    432e:	5e                   	pop    %esi
    432f:	5d                   	pop    %ebp
    4330:	c3                   	ret    
    4331:	8d b4 26 00 00 00 00 	lea    0x0(%esi,%eiz,1),%esi
    4338:	83 ec 0c             	sub    $0xc,%esp
    433b:	50                   	push   %eax
    433c:	e8 0f fb 00 00       	call   13e50 <str_error@plt>
    4341:	50                   	push   %eax
    4342:	68 40 15 01 00       	push   $0x11540
    4347:	6a 01                	push   $0x1
    4349:	6a ff                	push   $0xffffffff
    434b:	e8 70 f8 00 00       	call   13bc0 <log_msg@plt>
    4350:	83 c4 14             	add    $0x14,%esp
    4353:	8b 13                	mov    (%ebx),%edx
    4355:	52                   	push   %edx
    4356:	e8 95 40 00 00       	call   83f0 <ddf_fun_unbind>
    435b:	83 c4 10             	add    $0x10,%esp
    435e:	eb 93                	jmp    42f3 <hcd_ddf_setup_hc+0x93>
    4360:	50                   	push   %eax
    4361:	68 20 15 01 00       	push   $0x11520
    4366:	6a 01                	push   $0x1
    4368:	6a ff                	push   $0xffffffff
    436a:	be fe ff ff ff       	mov    $0xfffffffe,%esi
    436f:	e8 4c f8 00 00       	call   13bc0 <log_msg@plt>
    4374:	83 c4 10             	add    $0x10,%esp
    4377:	e9 77 ff ff ff       	jmp    42f3 <hcd_ddf_setup_hc+0x93>
    437c:	50                   	push   %eax
    437d:	68 f8 14 01 00       	push   $0x114f8
    4382:	6a 01                	push   $0x1
    4384:	6a ff                	push   $0xffffffff
    4386:	be fe ff ff ff       	mov    $0xfffffffe,%esi
    438b:	e8 30 f8 00 00       	call   13bc0 <log_msg@plt>
    4390:	83 c4 10             	add    $0x10,%esp
    4393:	eb 93                	jmp    4328 <hcd_ddf_setup_hc+0xc8>
    4395:	52                   	push   %edx
    4396:	68 84 02 00 00       	push   $0x284
    439b:	68 28 0f 01 00       	push   $0x10f28
    43a0:	68 75 0f 01 00       	push   $0x10f75
    43a5:	e8 66 f8 00 00       	call   13c10 <assert_abort@plt>
    43aa:	8d b6 00 00 00 00    	lea    0x0(%esi),%esi

000043b0 <hcd_ddf_clean_hc>:
    43b0:	55                   	push   %ebp
    43b1:	89 e5                	mov    %esp,%ebp
    43b3:	53                   	push   %ebx
    43b4:	53                   	push   %ebx
    43b5:	8b 45 08             	mov    0x8(%ebp),%eax
    43b8:	85 c0                	test   %eax,%eax
    43ba:	74 4f                	je     440b <hcd_ddf_clean_hc+0x5b>
    43bc:	83 ec 0c             	sub    $0xc,%esp
    43bf:	50                   	push   %eax
    43c0:	e8 4b 3b 00 00       	call   7f10 <ddf_dev_data_get>
    43c5:	83 c4 10             	add    $0x10,%esp
    43c8:	89 c3                	mov    %eax,%ebx
    43ca:	85 c0                	test   %eax,%eax
    43cc:	74 28                	je     43f6 <hcd_ddf_clean_hc+0x46>
    43ce:	83 ec 0c             	sub    $0xc,%esp
    43d1:	8b 00                	mov    (%eax),%eax
    43d3:	50                   	push   %eax
    43d4:	e8 17 40 00 00       	call   83f0 <ddf_fun_unbind>
    43d9:	83 c4 10             	add    $0x10,%esp
    43dc:	85 c0                	test   %eax,%eax
    43de:	74 08                	je     43e8 <hcd_ddf_clean_hc+0x38>
    43e0:	8b 5d fc             	mov    -0x4(%ebp),%ebx
    43e3:	c9                   	leave  
    43e4:	c3                   	ret    
    43e5:	8d 76 00             	lea    0x0(%esi),%esi
    43e8:	8b 03                	mov    (%ebx),%eax
    43ea:	8b 5d fc             	mov    -0x4(%ebp),%ebx
    43ed:	89 45 08             	mov    %eax,0x8(%ebp)
    43f0:	c9                   	leave  
    43f1:	e9 9a 3d 00 00       	jmp    8190 <ddf_fun_destroy>
    43f6:	52                   	push   %edx
    43f7:	68 b0 02 00 00       	push   $0x2b0
    43fc:	68 28 0f 01 00       	push   $0x10f28
    4401:	68 36 10 01 00       	push   $0x11036
    4406:	e8 05 f8 00 00       	call   13c10 <assert_abort@plt>
    440b:	51                   	push   %ecx
    440c:	68 ae 02 00 00       	push   $0x2ae
    4411:	68 28 0f 01 00       	push   $0x10f28
    4416:	68 75 0f 01 00       	push   $0x10f75
    441b:	e8 f0 f7 00 00       	call   13c10 <assert_abort@plt>

00004420 <hcd_ddf_enable_interrupts>:
    4420:	55                   	push   %ebp
    4421:	89 e5                	mov    %esp,%ebp
    4423:	56                   	push   %esi
    4424:	53                   	push   %ebx
    4425:	8b 45 08             	mov    0x8(%ebp),%eax
    4428:	85 c0                	test   %eax,%eax
    442a:	74 3c                	je     4468 <hcd_ddf_enable_interrupts+0x48>
    442c:	83 ec 0c             	sub    $0xc,%esp
    442f:	50                   	push   %eax
    4430:	e8 eb 3a 00 00       	call   7f20 <ddf_dev_get_handle>
    4435:	5a                   	pop    %edx
    4436:	59                   	pop    %ecx
    4437:	6a 01                	push   $0x1
    4439:	50                   	push   %eax
    443a:	e8 41 f6 00 00       	call   13a80 <devman_parent_device_connect@plt>
    443f:	89 c3                	mov    %eax,%ebx
    4441:	89 04 24             	mov    %eax,(%esp)
    4444:	e8 07 f6 00 00       	call   13a50 <hw_res_enable_interrupt@plt>
    4449:	89 1c 24             	mov    %ebx,(%esp)
    444c:	89 c6                	mov    %eax,%esi
    444e:	e8 ed f5 00 00       	call   13a40 <async_hangup@plt>
    4453:	89 f0                	mov    %esi,%eax
    4455:	83 c4 10             	add    $0x10,%esp
    4458:	3c 01                	cmp    $0x1,%al
    445a:	19 c0                	sbb    %eax,%eax
    445c:	8d 65 f8             	lea    -0x8(%ebp),%esp
    445f:	25 f6 fe ff ff       	and    $0xfffffef6,%eax
    4464:	5b                   	pop    %ebx
    4465:	5e                   	pop    %esi
    4466:	5d                   	pop    %ebp
    4467:	c3                   	ret    
    4468:	53                   	push   %ebx
    4469:	68 be 02 00 00       	push   $0x2be
    446e:	68 28 0f 01 00       	push   $0x10f28
    4473:	68 75 0f 01 00       	push   $0x10f75
    4478:	e8 93 f7 00 00       	call   13c10 <assert_abort@plt>
    447d:	8d 76 00             	lea    0x0(%esi),%esi

00004480 <hcd_ddf_get_registers>:
    4480:	55                   	push   %ebp
    4481:	89 e5                	mov    %esp,%ebp
    4483:	57                   	push   %edi
    4484:	56                   	push   %esi
    4485:	53                   	push   %ebx
    4486:	83 ec 0c             	sub    $0xc,%esp
    4489:	8b 45 08             	mov    0x8(%ebp),%eax
    448c:	8b 5d 0c             	mov    0xc(%ebp),%ebx
    448f:	85 c0                	test   %eax,%eax
    4491:	0f 84 a0 00 00 00    	je     4537 <hcd_ddf_get_registers+0xb7>
    4497:	85 db                	test   %ebx,%ebx
    4499:	0f 84 83 00 00 00    	je     4522 <hcd_ddf_get_registers+0xa2>
    449f:	83 ec 0c             	sub    $0xc,%esp
    44a2:	50                   	push   %eax
    44a3:	e8 78 3a 00 00       	call   7f20 <ddf_dev_get_handle>
    44a8:	5a                   	pop    %edx
    44a9:	59                   	pop    %ecx
    44aa:	6a 01                	push   $0x1
    44ac:	50                   	push   %eax
    44ad:	e8 ce f5 00 00       	call   13a80 <devman_parent_device_connect@plt>
    44b2:	83 c4 0c             	add    $0xc,%esp
    44b5:	6a 20                	push   $0x20
    44b7:	6a 00                	push   $0x0
    44b9:	53                   	push   %ebx
    44ba:	89 c7                	mov    %eax,%edi
    44bc:	e8 9f f8 00 00       	call   13d60 <memset@plt>
    44c1:	83 c4 0c             	add    $0xc,%esp
    44c4:	6a 00                	push   $0x0
    44c6:	53                   	push   %ebx
    44c7:	57                   	push   %edi
    44c8:	e8 23 fa 00 00       	call   13ef0 <hw_res_get_list_parsed@plt>
    44cd:	89 c6                	mov    %eax,%esi
    44cf:	89 3c 24             	mov    %edi,(%esp)
    44d2:	e8 69 f5 00 00       	call   13a40 <async_hangup@plt>
    44d7:	83 c4 10             	add    $0x10,%esp
    44da:	85 f6                	test   %esi,%esi
    44dc:	74 3a                	je     4518 <hcd_ddf_get_registers+0x98>
    44de:	83 ec 0c             	sub    $0xc,%esp
    44e1:	8b 43 04             	mov    0x4(%ebx),%eax
    44e4:	50                   	push   %eax
    44e5:	e8 76 fa 00 00       	call   13f60 <free@plt>
    44ea:	8b 4b 1c             	mov    0x1c(%ebx),%ecx
    44ed:	5a                   	pop    %edx
    44ee:	51                   	push   %ecx
    44ef:	e8 6c fa 00 00       	call   13f60 <free@plt>
    44f4:	8b 43 14             	mov    0x14(%ebx),%eax
    44f7:	5f                   	pop    %edi
    44f8:	50                   	push   %eax
    44f9:	e8 62 fa 00 00       	call   13f60 <free@plt>
    44fe:	58                   	pop    %eax
    44ff:	8b 43 0c             	mov    0xc(%ebx),%eax
    4502:	50                   	push   %eax
    4503:	e8 58 fa 00 00       	call   13f60 <free@plt>
    4508:	83 c4 0c             	add    $0xc,%esp
    450b:	6a 20                	push   $0x20
    450d:	6a 00                	push   $0x0
    450f:	53                   	push   %ebx
    4510:	e8 4b f8 00 00       	call   13d60 <memset@plt>
    4515:	83 c4 10             	add    $0x10,%esp
    4518:	8d 65 f4             	lea    -0xc(%ebp),%esp
    451b:	89 f0                	mov    %esi,%eax
    451d:	5b                   	pop    %ebx
    451e:	5e                   	pop    %esi
    451f:	5f                   	pop    %edi
    4520:	5d                   	pop    %ebp
    4521:	c3                   	ret    
    4522:	53                   	push   %ebx
    4523:	68 cc 02 00 00       	push   $0x2cc
    4528:	68 28 0f 01 00       	push   $0x10f28
    452d:	68 39 10 01 00       	push   $0x11039
    4532:	e8 d9 f6 00 00       	call   13c10 <assert_abort@plt>
    4537:	56                   	push   %esi
    4538:	68 cb 02 00 00       	push   $0x2cb
    453d:	68 28 0f 01 00       	push   $0x10f28
    4542:	68 75 0f 01 00       	push   $0x10f75
    4547:	e8 c4 f6 00 00       	call   13c10 <assert_abort@plt>
    454c:	8d 74 26 00          	lea    0x0(%esi,%eiz,1),%esi

00004550 <hcd_ddf_setup_interrupts>:
    4550:	55                   	push   %ebp
    4551:	89 e5                	mov    %esp,%ebp
    4553:	57                   	push   %edi
    4554:	56                   	push   %esi
    4555:	53                   	push   %ebx
    4556:	83 ec 2c             	sub    $0x2c,%esp
    4559:	8b 7d 08             	mov    0x8(%ebp),%edi
    455c:	8b 45 14             	mov    0x14(%ebp),%eax
    455f:	85 ff                	test   %edi,%edi
    4561:	0f 84 6b 01 00 00    	je     46d2 <hcd_ddf_setup_interrupts+0x182>
    4567:	8b 5d 10             	mov    0x10(%ebp),%ebx
    456a:	85 db                	test   %ebx,%ebx
    456c:	0f 84 56 01 00 00    	je     46c8 <hcd_ddf_setup_interrupts+0x178>
    4572:	85 c0                	test   %eax,%eax
    4574:	0f 84 4e 01 00 00    	je     46c8 <hcd_ddf_setup_interrupts+0x178>
    457a:	8b 4d 0c             	mov    0xc(%ebp),%ecx
    457d:	8d 75 d8             	lea    -0x28(%ebp),%esi
    4580:	c7 45 d8 00 00 00 00 	movl   $0x0,-0x28(%ebp)
    4587:	52                   	push   %edx
    4588:	c7 45 dc 00 00 00 00 	movl   $0x0,-0x24(%ebp)
    458f:	52                   	push   %edx
    4590:	c7 45 e0 00 00 00 00 	movl   $0x0,-0x20(%ebp)
    4597:	51                   	push   %ecx
    4598:	c7 45 e4 00 00 00 00 	movl   $0x0,-0x1c(%ebp)
    459f:	56                   	push   %esi
    45a0:	ff d0                	call   *%eax
    45a2:	83 c4 10             	add    $0x10,%esp
    45a5:	89 c3                	mov    %eax,%ebx
    45a7:	85 c0                	test   %eax,%eax
    45a9:	0f 88 b9 00 00 00    	js     4668 <hcd_ddf_setup_interrupts+0x118>
    45af:	56                   	push   %esi
    45b0:	8b 75 10             	mov    0x10(%ebp),%esi
    45b3:	56                   	push   %esi
    45b4:	50                   	push   %eax
    45b5:	57                   	push   %edi
    45b6:	e8 05 42 00 00       	call   87c0 <register_interrupt_handler>
    45bb:	89 c6                	mov    %eax,%esi
    45bd:	58                   	pop    %eax
    45be:	8b 45 dc             	mov    -0x24(%ebp),%eax
    45c1:	50                   	push   %eax
    45c2:	e8 99 f9 00 00       	call   13f60 <free@plt>
    45c7:	58                   	pop    %eax
    45c8:	8b 45 e4             	mov    -0x1c(%ebp),%eax
    45cb:	50                   	push   %eax
    45cc:	e8 8f f9 00 00       	call   13f60 <free@plt>
    45d1:	83 c4 10             	add    $0x10,%esp
    45d4:	c7 45 dc 00 00 00 00 	movl   $0x0,-0x24(%ebp)
    45db:	c7 45 e4 00 00 00 00 	movl   $0x0,-0x1c(%ebp)
    45e2:	c7 45 d8 00 00 00 00 	movl   $0x0,-0x28(%ebp)
    45e9:	c7 45 e0 00 00 00 00 	movl   $0x0,-0x20(%ebp)
    45f0:	85 f6                	test   %esi,%esi
    45f2:	75 4c                	jne    4640 <hcd_ddf_setup_interrupts+0xf0>
    45f4:	83 ec 0c             	sub    $0xc,%esp
    45f7:	57                   	push   %edi
    45f8:	e8 23 39 00 00       	call   7f20 <ddf_dev_get_handle>
    45fd:	5a                   	pop    %edx
    45fe:	59                   	pop    %ecx
    45ff:	6a 01                	push   $0x1
    4601:	50                   	push   %eax
    4602:	e8 79 f4 00 00       	call   13a80 <devman_parent_device_connect@plt>
    4607:	89 04 24             	mov    %eax,(%esp)
    460a:	89 c6                	mov    %eax,%esi
    460c:	e8 3f f4 00 00       	call   13a50 <hw_res_enable_interrupt@plt>
    4611:	89 34 24             	mov    %esi,(%esp)
    4614:	88 45 d7             	mov    %al,-0x29(%ebp)
    4617:	e8 24 f4 00 00       	call   13a40 <async_hangup@plt>
    461c:	8a 55 d7             	mov    -0x29(%ebp),%dl
    461f:	83 c4 10             	add    $0x10,%esp
    4622:	84 d2                	test   %dl,%dl
    4624:	74 6a                	je     4690 <hcd_ddf_setup_interrupts+0x140>
    4626:	85 db                	test   %ebx,%ebx
    4628:	0f 84 b9 00 00 00    	je     46e7 <hcd_ddf_setup_interrupts+0x197>
    462e:	89 de                	mov    %ebx,%esi
    4630:	8d 65 f4             	lea    -0xc(%ebp),%esp
    4633:	89 f0                	mov    %esi,%eax
    4635:	5b                   	pop    %ebx
    4636:	5e                   	pop    %esi
    4637:	5f                   	pop    %edi
    4638:	5d                   	pop    %ebp
    4639:	c3                   	ret    
    463a:	8d b6 00 00 00 00    	lea    0x0(%esi),%esi
    4640:	83 ec 0c             	sub    $0xc,%esp
    4643:	56                   	push   %esi
    4644:	e8 07 f8 00 00       	call   13e50 <str_error@plt>
    4649:	50                   	push   %eax
    464a:	68 88 15 01 00       	push   $0x11588
    464f:	6a 01                	push   $0x1
    4651:	6a ff                	push   $0xffffffff
    4653:	e8 68 f5 00 00       	call   13bc0 <log_msg@plt>
    4658:	83 c4 20             	add    $0x20,%esp
    465b:	8d 65 f4             	lea    -0xc(%ebp),%esp
    465e:	89 f0                	mov    %esi,%eax
    4660:	5b                   	pop    %ebx
    4661:	5e                   	pop    %esi
    4662:	5f                   	pop    %edi
    4663:	5d                   	pop    %ebp
    4664:	c3                   	ret    
    4665:	8d 76 00             	lea    0x0(%esi),%esi
    4668:	83 ec 0c             	sub    $0xc,%esp
    466b:	89 de                	mov    %ebx,%esi
    466d:	50                   	push   %eax
    466e:	e8 dd f7 00 00       	call   13e50 <str_error@plt>
    4673:	50                   	push   %eax
    4674:	68 64 15 01 00       	push   $0x11564
    4679:	6a 01                	push   $0x1
    467b:	6a ff                	push   $0xffffffff
    467d:	e8 3e f5 00 00       	call   13bc0 <log_msg@plt>
    4682:	83 c4 20             	add    $0x20,%esp
    4685:	8d 65 f4             	lea    -0xc(%ebp),%esp
    4688:	89 f0                	mov    %esi,%eax
    468a:	5b                   	pop    %ebx
    468b:	5e                   	pop    %esi
    468c:	5f                   	pop    %edi
    468d:	5d                   	pop    %ebp
    468e:	c3                   	ret    
    468f:	90                   	nop
    4690:	83 ec 0c             	sub    $0xc,%esp
    4693:	be f6 fe ff ff       	mov    $0xfffffef6,%esi
    4698:	68 f6 fe ff ff       	push   $0xfffffef6
    469d:	e8 ae f7 00 00       	call   13e50 <str_error@plt>
    46a2:	50                   	push   %eax
    46a3:	68 88 15 01 00       	push   $0x11588
    46a8:	6a 01                	push   $0x1
    46aa:	6a ff                	push   $0xffffffff
    46ac:	e8 0f f5 00 00       	call   13bc0 <log_msg@plt>
    46b1:	83 c4 18             	add    $0x18,%esp
    46b4:	53                   	push   %ebx
    46b5:	57                   	push   %edi
    46b6:	e8 25 41 00 00       	call   87e0 <unregister_interrupt_handler>
    46bb:	83 c4 10             	add    $0x10,%esp
    46be:	e9 6d ff ff ff       	jmp    4630 <hcd_ddf_setup_interrupts+0xe0>
    46c3:	90                   	nop
    46c4:	8d 74 26 00          	lea    0x0(%esi,%eiz,1),%esi
    46c8:	be f5 ff ff ff       	mov    $0xfffffff5,%esi
    46cd:	e9 5e ff ff ff       	jmp    4630 <hcd_ddf_setup_interrupts+0xe0>
    46d2:	56                   	push   %esi
    46d3:	68 f6 02 00 00       	push   $0x2f6
    46d8:	68 28 0f 01 00       	push   $0x10f28
    46dd:	68 75 0f 01 00       	push   $0x10f75
    46e2:	e8 29 f5 00 00       	call   13c10 <assert_abort@plt>
    46e7:	50                   	push   %eax
    46e8:	68 14 03 00 00       	push   $0x314
    46ed:	68 28 0f 01 00       	push   $0x10f28
    46f2:	68 40 10 01 00       	push   $0x11040
    46f7:	e8 14 f5 00 00       	call   13c10 <assert_abort@plt>
    46fc:	8d 74 26 00          	lea    0x0(%esi,%eiz,1),%esi

00004700 <hcd_ddf_add_hc>:
    4700:	55                   	push   %ebp
    4701:	89 e5                	mov    %esp,%ebp
    4703:	57                   	push   %edi
    4704:	56                   	push   %esi
    4705:	53                   	push   %ebx
    4706:	83 ec 3c             	sub    $0x3c,%esp
