
rtl8139:     file format elf32-i386


Disassembly of section .init:

000010f4 <__entry>:
    10f4:	66 8c d0             	mov    %ss,%ax
    10f7:	8e d8                	mov    %eax,%ds
    10f9:	8e c0                	mov    %eax,%es
    10fb:	8e e0                	mov    %eax,%fs
    10fd:	b8 01 00 00 00       	mov    $0x1,%eax
    1102:	0f a2                	cpuid  
    1104:	0f ba e2 0b          	bt     $0xb,%edx
    1108:	73 0c                	jae    1116 <__entry+0x22>
    110a:	8d 05 00 64 01 00    	lea    0x16400,%eax
    1110:	c7 00 70 3c 01 00    	movl   $0x13c70,(%eax)
    1116:	6a 00                	push   $0x0
    1118:	6a 00                	push   $0x0
    111a:	89 e5                	mov    %esp,%ebp
    111c:	57                   	push   %edi
    111d:	e8 0e 25 01 00       	call   13630 <__main@plt>

Disassembly of section .text:

00001140 <rtl8139_get_operation_mode>:
    1140:	55                   	push   %ebp
    1141:	89 e5                	mov    %esp,%ebp
    1143:	57                   	push   %edi
    1144:	56                   	push   %esi
    1145:	53                   	push   %ebx
    1146:	83 ec 0c             	sub    $0xc,%esp
    1149:	8b 45 08             	mov    0x8(%ebp),%eax
    114c:	8b 75 10             	mov    0x10(%ebp),%esi
    114f:	85 c0                	test   %eax,%eax
    1151:	0f 84 8d 00 00 00    	je     11e4 <rtl8139_get_operation_mode+0xa4>
    1157:	8b 7d 0c             	mov    0xc(%ebp),%edi
    115a:	85 ff                	test   %edi,%edi
    115c:	0f 84 d6 00 00 00    	je     1238 <rtl8139_get_operation_mode+0xf8>
    1162:	85 f6                	test   %esi,%esi
    1164:	0f 84 b9 00 00 00    	je     1223 <rtl8139_get_operation_mode+0xe3>
    116a:	8b 4d 14             	mov    0x14(%ebp),%ecx
    116d:	85 c9                	test   %ecx,%ecx
    116f:	0f 84 99 00 00 00    	je     120e <rtl8139_get_operation_mode+0xce>
    1175:	83 ec 0c             	sub    $0xc,%esp
    1178:	50                   	push   %eax
    1179:	e8 92 d6 00 00       	call   e810 <nic_get_from_ddf_fun>
    117e:	89 04 24             	mov    %eax,(%esp)
    1181:	e8 0a d6 00 00       	call   e790 <nic_get_specific>
    1186:	83 c4 10             	add    $0x10,%esp
    1189:	89 c3                	mov    %eax,%ebx
    118b:	85 c0                	test   %eax,%eax
    118d:	74 6a                	je     11f9 <rtl8139_get_operation_mode+0xb9>
    118f:	83 ec 0c             	sub    $0xc,%esp
    1192:	8b 40 04             	mov    0x4(%eax),%eax
    1195:	83 c0 62             	add    $0x62,%eax
    1198:	50                   	push   %eax
    1199:	e8 62 28 01 00       	call   13a00 <pio_read_16@plt>
    119e:	89 c7                	mov    %eax,%edi
    11a0:	8b 43 04             	mov    0x4(%ebx),%eax
    11a3:	83 c0 58             	add    $0x58,%eax
    11a6:	89 04 24             	mov    %eax,(%esp)
    11a9:	e8 d2 26 01 00       	call   13880 <pio_read_8@plt>
    11ae:	31 d2                	xor    %edx,%edx
    11b0:	83 c4 10             	add    $0x10,%esp
    11b3:	81 e7 00 01 00 00    	and    $0x100,%edi
    11b9:	8b 4d 0c             	mov    0xc(%ebp),%ecx
    11bc:	0f 94 c2             	sete   %dl
    11bf:	83 e0 08             	and    $0x8,%eax
    11c2:	42                   	inc    %edx
    11c3:	3c 01                	cmp    $0x1,%al
    11c5:	89 16                	mov    %edx,(%esi)
    11c7:	19 c0                	sbb    %eax,%eax
    11c9:	83 e0 5a             	and    $0x5a,%eax
    11cc:	83 c0 0a             	add    $0xa,%eax
    11cf:	89 01                	mov    %eax,(%ecx)
    11d1:	8b 45 14             	mov    0x14(%ebp),%eax
    11d4:	c7 00 00 00 00 00    	movl   $0x0,(%eax)
    11da:	8d 65 f4             	lea    -0xc(%ebp),%esp
    11dd:	31 c0                	xor    %eax,%eax
    11df:	5b                   	pop    %ebx
    11e0:	5e                   	pop    %esi
    11e1:	5f                   	pop    %edi
    11e2:	5d                   	pop    %ebp
    11e3:	c3                   	ret    
    11e4:	50                   	push   %eax
    11e5:	68 b4 05 00 00       	push   $0x5b4
    11ea:	68 d1 15 01 00       	push   $0x115d1
    11ef:	68 39 0e 01 00       	push   $0x10e39
    11f4:	e8 a7 26 01 00       	call   138a0 <assert_abort@plt>
    11f9:	50                   	push   %eax
    11fa:	68 ba 05 00 00       	push   $0x5ba
    11ff:	68 d1 15 01 00       	push   $0x115d1
    1204:	68 4f 0e 01 00       	push   $0x10e4f
    1209:	e8 92 26 01 00       	call   138a0 <assert_abort@plt>
    120e:	52                   	push   %edx
    120f:	68 b7 05 00 00       	push   $0x5b7
    1214:	68 d1 15 01 00       	push   $0x115d1
    1219:	68 4a 0e 01 00       	push   $0x10e4a
    121e:	e8 7d 26 01 00       	call   138a0 <assert_abort@plt>
    1223:	53                   	push   %ebx
    1224:	68 b6 05 00 00       	push   $0x5b6
    1229:	68 d1 15 01 00       	push   $0x115d1
    122e:	68 43 0e 01 00       	push   $0x10e43
    1233:	e8 68 26 01 00       	call   138a0 <assert_abort@plt>
    1238:	56                   	push   %esi
    1239:	68 b5 05 00 00       	push   $0x5b5
    123e:	68 d1 15 01 00       	push   $0x115d1
    1243:	68 3d 0e 01 00       	push   $0x10e3d
    1248:	e8 53 26 01 00       	call   138a0 <assert_abort@plt>
    124d:	8d 76 00             	lea    0x0(%esi),%esi

00001250 <rtl8139_autoneg_enable>:
    1250:	55                   	push   %ebp
    1251:	89 e5                	mov    %esp,%ebp
    1253:	57                   	push   %edi
    1254:	56                   	push   %esi
    1255:	53                   	push   %ebx
    1256:	83 ec 1c             	sub    $0x1c,%esp
    1259:	8b 45 08             	mov    0x8(%ebp),%eax
    125c:	8b 5d 0c             	mov    0xc(%ebp),%ebx
    125f:	85 c0                	test   %eax,%eax
    1261:	0f 84 20 01 00 00    	je     1387 <rtl8139_autoneg_enable+0x137>
    1267:	83 ec 0c             	sub    $0xc,%esp
    126a:	50                   	push   %eax
    126b:	e8 a0 d5 00 00       	call   e810 <nic_get_from_ddf_fun>
    1270:	89 04 24             	mov    %eax,(%esp)
    1273:	e8 18 d5 00 00       	call   e790 <nic_get_specific>
    1278:	83 c4 10             	add    $0x10,%esp
    127b:	89 c6                	mov    %eax,%esi
    127d:	85 c0                	test   %eax,%eax
    127f:	0f 84 17 01 00 00    	je     139c <rtl8139_autoneg_enable+0x14c>
    1285:	85 db                	test   %ebx,%ebx
    1287:	0f 84 d3 00 00 00    	je     1360 <rtl8139_autoneg_enable+0x110>
    128d:	89 d8                	mov    %ebx,%eax
    128f:	0d 27 00 00 10       	or     $0x10000027,%eax
    1294:	3d 27 00 00 10       	cmp    $0x10000027,%eax
    1299:	0f 85 e1 00 00 00    	jne    1380 <rtl8139_autoneg_enable+0x130>
    129f:	89 d8                	mov    %ebx,%eax
    12a1:	89 da                	mov    %ebx,%edx
    12a3:	83 e0 20             	and    $0x20,%eax
    12a6:	83 e2 01             	and    $0x1,%edx
    12a9:	89 c7                	mov    %eax,%edi
    12ab:	89 d8                	mov    %ebx,%eax
    12ad:	83 e0 04             	and    $0x4,%eax
    12b0:	f6 c3 02             	test   $0x2,%bl
    12b3:	0f 85 f8 00 00 00    	jne    13b1 <rtl8139_autoneg_enable+0x161>
    12b9:	81 e3 00 00 00 10    	and    $0x10000000,%ebx
    12bf:	b9 21 00 00 00       	mov    $0x21,%ecx
    12c4:	66 c7 45 e6 01 00    	movw   $0x1,-0x1a(%ebp)
    12ca:	85 d2                	test   %edx,%edx
    12cc:	0f 85 f5 00 00 00    	jne    13c7 <rtl8139_autoneg_enable+0x177>
    12d2:	85 ff                	test   %edi,%edi
    12d4:	0f 85 96 00 00 00    	jne    1370 <rtl8139_autoneg_enable+0x120>
    12da:	85 c0                	test   %eax,%eax
    12dc:	74 06                	je     12e4 <rtl8139_autoneg_enable+0x94>
    12de:	66 81 4d e6 80 00    	orw    $0x80,-0x1a(%ebp)
    12e4:	85 db                	test   %ebx,%ebx
    12e6:	74 06                	je     12ee <rtl8139_autoneg_enable+0x9e>
    12e8:	66 81 4d e6 00 04    	orw    $0x400,-0x1a(%ebp)
    12ee:	83 ec 0c             	sub    $0xc,%esp
    12f1:	8b 46 04             	mov    0x4(%esi),%eax
    12f4:	83 c0 62             	add    $0x62,%eax
    12f7:	31 ff                	xor    %edi,%edi
    12f9:	50                   	push   %eax
    12fa:	e8 01 27 01 00       	call   13a00 <pio_read_16@plt>
    12ff:	89 c3                	mov    %eax,%ebx
    1301:	58                   	pop    %eax
    1302:	8b 46 04             	mov    0x4(%esi),%eax
    1305:	66 8b 7d e6          	mov    -0x1a(%ebp),%di
    1309:	83 c0 66             	add    $0x66,%eax
    130c:	5a                   	pop    %edx
    130d:	57                   	push   %edi
    130e:	50                   	push   %eax
    130f:	e8 bc 25 01 00       	call   138d0 <pio_write_16@plt>
    1314:	8b 46 04             	mov    0x4(%esi),%eax
    1317:	83 c0 50             	add    $0x50,%eax
    131a:	59                   	pop    %ecx
    131b:	5f                   	pop    %edi
    131c:	68 c0 00 00 00       	push   $0xc0
    1321:	50                   	push   %eax
    1322:	e8 e9 25 01 00       	call   13910 <pio_write_8@plt>
    1327:	58                   	pop    %eax
    1328:	89 d8                	mov    %ebx,%eax
    132a:	80 cc 10             	or     $0x10,%ah
    132d:	31 db                	xor    %ebx,%ebx
    132f:	66 89 c3             	mov    %ax,%bx
    1332:	8b 46 04             	mov    0x4(%esi),%eax
    1335:	83 c0 62             	add    $0x62,%eax
    1338:	5a                   	pop    %edx
    1339:	53                   	push   %ebx
    133a:	50                   	push   %eax
    133b:	e8 90 25 01 00       	call   138d0 <pio_write_16@plt>
    1340:	8b 46 04             	mov    0x4(%esi),%eax
    1343:	83 c0 50             	add    $0x50,%eax
    1346:	59                   	pop    %ecx
    1347:	5b                   	pop    %ebx
    1348:	6a 00                	push   $0x0
    134a:	50                   	push   %eax
    134b:	e8 c0 25 01 00       	call   13910 <pio_write_8@plt>
    1350:	83 c4 10             	add    $0x10,%esp
    1353:	31 c0                	xor    %eax,%eax
    1355:	8d 65 f4             	lea    -0xc(%ebp),%esp
    1358:	5b                   	pop    %ebx
    1359:	5e                   	pop    %esi
    135a:	5f                   	pop    %edi
    135b:	5d                   	pop    %ebp
    135c:	c3                   	ret    
    135d:	8d 76 00             	lea    0x0(%esi),%esi
    1360:	b8 04 00 00 00       	mov    $0x4,%eax
    1365:	bb 00 00 00 10       	mov    $0x10000000,%ebx
    136a:	66 c7 45 e6 61 00    	movw   $0x61,-0x1a(%ebp)
    1370:	66 81 4d e6 00 01    	orw    $0x100,-0x1a(%ebp)
    1376:	e9 5f ff ff ff       	jmp    12da <rtl8139_autoneg_enable+0x8a>
    137b:	90                   	nop
    137c:	8d 74 26 00          	lea    0x0(%esi,%eiz,1),%esi
    1380:	b8 f2 ff ff ff       	mov    $0xfffffff2,%eax
    1385:	eb ce                	jmp    1355 <rtl8139_autoneg_enable+0x105>
    1387:	57                   	push   %edi
    1388:	68 6d 06 00 00       	push   $0x66d
    138d:	68 d1 15 01 00       	push   $0x115d1
    1392:	68 39 0e 01 00       	push   $0x10e39
    1397:	e8 04 25 01 00       	call   138a0 <assert_abort@plt>
    139c:	56                   	push   %esi
    139d:	68 70 06 00 00       	push   $0x670
    13a2:	68 d1 15 01 00       	push   $0x115d1
    13a7:	68 4f 0e 01 00       	push   $0x10e4f
    13ac:	e8 ef 24 01 00       	call   138a0 <assert_abort@plt>
    13b1:	81 e3 00 00 00 10    	and    $0x10000000,%ebx
    13b7:	b9 61 00 00 00       	mov    $0x61,%ecx
    13bc:	66 c7 45 e6 41 00    	movw   $0x41,-0x1a(%ebp)
    13c2:	e9 03 ff ff ff       	jmp    12ca <rtl8139_autoneg_enable+0x7a>
    13c7:	66 89 4d e6          	mov    %cx,-0x1a(%ebp)
    13cb:	e9 02 ff ff ff       	jmp    12d2 <rtl8139_autoneg_enable+0x82>

000013d0 <rtl8139_set_operation_mode>:
    13d0:	55                   	push   %ebp
    13d1:	89 e5                	mov    %esp,%ebp
    13d3:	57                   	push   %edi
    13d4:	56                   	push   %esi
    13d5:	53                   	push   %ebx
    13d6:	83 ec 0c             	sub    $0xc,%esp
    13d9:	8b 45 08             	mov    0x8(%ebp),%eax
    13dc:	8b 75 0c             	mov    0xc(%ebp),%esi
    13df:	8b 7d 10             	mov    0x10(%ebp),%edi
    13e2:	85 c0                	test   %eax,%eax
    13e4:	0f 84 d5 00 00 00    	je     14bf <rtl8139_set_operation_mode+0xef>
    13ea:	83 ec 0c             	sub    $0xc,%esp
    13ed:	50                   	push   %eax
    13ee:	e8 1d d4 00 00       	call   e810 <nic_get_from_ddf_fun>
    13f3:	89 04 24             	mov    %eax,(%esp)
    13f6:	e8 95 d3 00 00       	call   e790 <nic_get_specific>
    13fb:	83 c4 10             	add    $0x10,%esp
    13fe:	89 c3                	mov    %eax,%ebx
    1400:	85 c0                	test   %eax,%eax
    1402:	0f 84 a2 00 00 00    	je     14aa <rtl8139_set_operation_mode+0xda>
    1408:	83 fe 0a             	cmp    $0xa,%esi
    140b:	74 05                	je     1412 <rtl8139_set_operation_mode+0x42>
    140d:	83 fe 64             	cmp    $0x64,%esi
    1410:	75 76                	jne    1488 <rtl8139_set_operation_mode+0xb8>
    1412:	8d 47 ff             	lea    -0x1(%edi),%eax
    1415:	83 f8 01             	cmp    $0x1,%eax
    1418:	77 6e                	ja     1488 <rtl8139_set_operation_mode+0xb8>
    141a:	83 ec 0c             	sub    $0xc,%esp
    141d:	8b 43 04             	mov    0x4(%ebx),%eax
    1420:	83 c0 62             	add    $0x62,%eax
    1423:	50                   	push   %eax
    1424:	e8 d7 25 01 00       	call   13a00 <pio_read_16@plt>
    1429:	89 c2                	mov    %eax,%edx
    142b:	83 c4 10             	add    $0x10,%esp
    142e:	80 e6 ee             	and    $0xee,%dh
    1431:	4f                   	dec    %edi
    1432:	74 6c                	je     14a0 <rtl8139_set_operation_mode+0xd0>
    1434:	89 d7                	mov    %edx,%edi
    1436:	81 e7 ff df ff ff    	and    $0xffffdfff,%edi
    143c:	83 fe 64             	cmp    $0x64,%esi
    143f:	74 57                	je     1498 <rtl8139_set_operation_mode+0xc8>
    1441:	50                   	push   %eax
    1442:	50                   	push   %eax
    1443:	8b 43 04             	mov    0x4(%ebx),%eax
    1446:	68 c0 00 00 00       	push   $0xc0
    144b:	83 c0 50             	add    $0x50,%eax
    144e:	50                   	push   %eax
    144f:	e8 bc 24 01 00       	call   13910 <pio_write_8@plt>
    1454:	89 f8                	mov    %edi,%eax
    1456:	31 ff                	xor    %edi,%edi
    1458:	66 89 c7             	mov    %ax,%di
    145b:	8b 43 04             	mov    0x4(%ebx),%eax
    145e:	83 c0 62             	add    $0x62,%eax
    1461:	5a                   	pop    %edx
    1462:	59                   	pop    %ecx
    1463:	57                   	push   %edi
    1464:	50                   	push   %eax
    1465:	e8 66 24 01 00       	call   138d0 <pio_write_16@plt>
    146a:	8b 43 04             	mov    0x4(%ebx),%eax
    146d:	5e                   	pop    %esi
    146e:	83 c0 50             	add    $0x50,%eax
    1471:	5f                   	pop    %edi
    1472:	6a 00                	push   $0x0
    1474:	50                   	push   %eax
    1475:	e8 96 24 01 00       	call   13910 <pio_write_8@plt>
    147a:	83 c4 10             	add    $0x10,%esp
    147d:	8d 65 f4             	lea    -0xc(%ebp),%esp
    1480:	31 c0                	xor    %eax,%eax
    1482:	5b                   	pop    %ebx
    1483:	5e                   	pop    %esi
    1484:	5f                   	pop    %edi
    1485:	5d                   	pop    %ebp
    1486:	c3                   	ret    
    1487:	90                   	nop
    1488:	8d 65 f4             	lea    -0xc(%ebp),%esp
    148b:	b8 f2 ff ff ff       	mov    $0xfffffff2,%eax
    1490:	5b                   	pop    %ebx
    1491:	5e                   	pop    %esi
    1492:	5f                   	pop    %edi
    1493:	5d                   	pop    %ebp
    1494:	c3                   	ret    
    1495:	8d 76 00             	lea    0x0(%esi),%esi
    1498:	80 ce 20             	or     $0x20,%dh
    149b:	89 d7                	mov    %edx,%edi
    149d:	eb a2                	jmp    1441 <rtl8139_set_operation_mode+0x71>
    149f:	90                   	nop
    14a0:	80 e4 ef             	and    $0xef,%ah
    14a3:	80 cc 01             	or     $0x1,%ah
    14a6:	89 c2                	mov    %eax,%edx
    14a8:	eb 8a                	jmp    1434 <rtl8139_set_operation_mode+0x64>
    14aa:	50                   	push   %eax
    14ab:	68 45 06 00 00       	push   $0x645
    14b0:	68 d1 15 01 00       	push   $0x115d1
    14b5:	68 4f 0e 01 00       	push   $0x10e4f
    14ba:	e8 e1 23 01 00       	call   138a0 <assert_abort@plt>
    14bf:	50                   	push   %eax
    14c0:	68 42 06 00 00       	push   $0x642
    14c5:	68 d1 15 01 00       	push   $0x115d1
    14ca:	68 39 0e 01 00       	push   $0x10e39
    14cf:	e8 cc 23 01 00       	call   138a0 <assert_abort@plt>
    14d4:	8d b6 00 00 00 00    	lea    0x0(%esi),%esi
    14da:	8d bf 00 00 00 00    	lea    0x0(%edi),%edi

000014e0 <rtl8139_get_device_info>:
    14e0:	55                   	push   %ebp
    14e1:	89 e5                	mov    %esp,%ebp
    14e3:	56                   	push   %esi
    14e4:	53                   	push   %ebx
    14e5:	8b 45 08             	mov    0x8(%ebp),%eax
    14e8:	8b 5d 0c             	mov    0xc(%ebp),%ebx
    14eb:	85 c0                	test   %eax,%eax
    14ed:	0f 84 d7 00 00 00    	je     15ca <rtl8139_get_device_info+0xea>
    14f3:	85 db                	test   %ebx,%ebx
    14f5:	0f 84 ba 00 00 00    	je     15b5 <rtl8139_get_device_info+0xd5>
    14fb:	83 ec 0c             	sub    $0xc,%esp
    14fe:	50                   	push   %eax
    14ff:	e8 0c d3 00 00       	call   e810 <nic_get_from_ddf_fun>
    1504:	83 c4 10             	add    $0x10,%esp
    1507:	85 c0                	test   %eax,%eax
    1509:	0f 84 91 00 00 00    	je     15a0 <rtl8139_get_device_info+0xc0>
    150f:	83 ec 0c             	sub    $0xc,%esp
    1512:	50                   	push   %eax
    1513:	e8 78 d2 00 00       	call   e790 <nic_get_specific>
    1518:	83 c4 10             	add    $0x10,%esp
    151b:	89 c6                	mov    %eax,%esi
    151d:	85 c0                	test   %eax,%eax
    151f:	74 6a                	je     158b <rtl8139_get_device_info+0xab>
    1521:	66 c7 83 00 01 00 00 	movw   $0x10ec,0x100(%ebx)
    1528:	ec 10 
    152a:	50                   	push   %eax
    152b:	68 60 0e 01 00       	push   $0x10e60
    1530:	6a 40                	push   $0x40
    1532:	53                   	push   %ebx
    1533:	e8 88 25 01 00       	call   13ac0 <str_cpy@plt>
    1538:	8b 46 7c             	mov    0x7c(%esi),%eax
    153b:	83 c4 10             	add    $0x10,%esp
    153e:	83 f8 09             	cmp    $0x9,%eax
    1541:	76 3d                	jbe    1580 <rtl8139_get_device_info+0xa0>
    1543:	50                   	push   %eax
    1544:	68 68 0e 01 00       	push   $0x10e68
    1549:	8d 43 40             	lea    0x40(%ebx),%eax
    154c:	6a 40                	push   $0x40
    154e:	50                   	push   %eax
    154f:	e8 6c 25 01 00       	call   13ac0 <str_cpy@plt>
    1554:	66 c7 83 0a 01 00 00 	movw   $0x20,0x10a(%ebx)
    155b:	20 00 
    155d:	66 c7 83 0c 01 00 00 	movw   $0x1,0x10c(%ebx)
    1564:	01 00 
    1566:	c7 83 18 01 00 00 27 	movl   $0x10000027,0x118(%ebx)
    156d:	00 00 10 
    1570:	83 c4 10             	add    $0x10,%esp
    1573:	8d 65 f8             	lea    -0x8(%ebp),%esp
    1576:	31 c0                	xor    %eax,%eax
    1578:	5b                   	pop    %ebx
    1579:	5e                   	pop    %esi
    157a:	5d                   	pop    %ebp
    157b:	c3                   	ret    
    157c:	8d 74 26 00          	lea    0x0(%esi,%eiz,1),%esi
    1580:	8b 0c 85 c0 61 01 00 	mov    0x161c0(,%eax,4),%ecx
    1587:	52                   	push   %edx
    1588:	51                   	push   %ecx
    1589:	eb be                	jmp    1549 <rtl8139_get_device_info+0x69>
    158b:	50                   	push   %eax
    158c:	68 83 05 00 00       	push   $0x583
    1591:	68 d1 15 01 00       	push   $0x115d1
    1596:	68 4f 0e 01 00       	push   $0x10e4f
    159b:	e8 00 23 01 00       	call   138a0 <assert_abort@plt>
    15a0:	50                   	push   %eax
    15a1:	68 81 05 00 00       	push   $0x581
    15a6:	68 d1 15 01 00       	push   $0x115d1
    15ab:	68 57 0e 01 00       	push   $0x10e57
    15b0:	e8 eb 22 01 00       	call   138a0 <assert_abort@plt>
    15b5:	50                   	push   %eax
    15b6:	68 7e 05 00 00       	push   $0x57e
    15bb:	68 d1 15 01 00       	push   $0x115d1
    15c0:	68 d8 2c 01 00       	push   $0x12cd8
    15c5:	e8 d6 22 01 00       	call   138a0 <assert_abort@plt>
    15ca:	50                   	push   %eax
    15cb:	68 7d 05 00 00       	push   $0x57d
    15d0:	68 d1 15 01 00       	push   $0x115d1
    15d5:	68 39 0e 01 00       	push   $0x10e39
    15da:	e8 c1 22 01 00       	call   138a0 <assert_abort@plt>
    15df:	90                   	nop

000015e0 <rtl8139_poll_mode_change>:
    15e0:	55                   	push   %ebp
    15e1:	89 e5                	mov    %esp,%ebp
    15e3:	57                   	push   %edi
    15e4:	56                   	push   %esi
    15e5:	53                   	push   %ebx
    15e6:	83 ec 2c             	sub    $0x2c,%esp
    15e9:	8b 45 08             	mov    0x8(%ebp),%eax
    15ec:	85 c0                	test   %eax,%eax
    15ee:	0f 84 4d 01 00 00    	je     1741 <rtl8139_poll_mode_change+0x161>
    15f4:	83 ec 0c             	sub    $0xc,%esp
    15f7:	50                   	push   %eax
    15f8:	e8 93 d1 00 00       	call   e790 <nic_get_specific>
    15fd:	83 c4 10             	add    $0x10,%esp
    1600:	89 c3                	mov    %eax,%ebx
    1602:	85 c0                	test   %eax,%eax
    1604:	0f 84 22 01 00 00    	je     172c <rtl8139_poll_mode_change+0x14c>
    160a:	83 ec 0c             	sub    $0xc,%esp
    160d:	8d 70 44             	lea    0x44(%eax),%esi
    1610:	56                   	push   %esi
    1611:	e8 da 26 01 00       	call   13cf0 <fibril_mutex_lock@plt>
    1616:	83 c4 10             	add    $0x10,%esp
    1619:	83 7d 0c 01          	cmpl   $0x1,0xc(%ebp)
    161d:	74 49                	je     1668 <rtl8139_poll_mode_change+0x88>
    161f:	72 37                	jb     1658 <rtl8139_poll_mode_change+0x78>
    1621:	83 7d 0c 02          	cmpl   $0x2,0xc(%ebp)
    1625:	74 51                	je     1678 <rtl8139_poll_mode_change+0x98>
    1627:	31 c0                	xor    %eax,%eax
    1629:	bf f5 ff ff ff       	mov    $0xfffffff5,%edi
    162e:	66 8b 43 0c          	mov    0xc(%ebx),%ax
    1632:	52                   	push   %edx
    1633:	52                   	push   %edx
    1634:	8b 53 04             	mov    0x4(%ebx),%edx
    1637:	50                   	push   %eax
    1638:	83 c2 3c             	add    $0x3c,%edx
    163b:	52                   	push   %edx
    163c:	e8 8f 22 01 00       	call   138d0 <pio_write_16@plt>
    1641:	89 34 24             	mov    %esi,(%esp)
    1644:	e8 07 23 01 00       	call   13950 <fibril_mutex_unlock@plt>
    1649:	8d 65 f4             	lea    -0xc(%ebp),%esp
    164c:	89 f8                	mov    %edi,%eax
    164e:	5b                   	pop    %ebx
    164f:	5e                   	pop    %esi
    1650:	5f                   	pop    %edi
    1651:	5d                   	pop    %ebp
    1652:	c3                   	ret    
    1653:	90                   	nop
    1654:	8d 74 26 00          	lea    0x0(%esi,%eiz,1),%esi
    1658:	66 c7 43 0c ff ff    	movw   $0xffff,0xc(%ebx)
    165e:	b8 ff ff 00 00       	mov    $0xffff,%eax
    1663:	31 ff                	xor    %edi,%edi
    1665:	eb cb                	jmp    1632 <rtl8139_poll_mode_change+0x52>
    1667:	90                   	nop
    1668:	66 c7 43 0c 00 00    	movw   $0x0,0xc(%ebx)
    166e:	31 c0                	xor    %eax,%eax
    1670:	31 ff                	xor    %edi,%edi
    1672:	eb be                	jmp    1632 <rtl8139_poll_mode_change+0x52>
    1674:	8d 74 26 00          	lea    0x0(%esi,%eiz,1),%esi
    1678:	8b 4d 10             	mov    0x10(%ebp),%ecx
    167b:	85 c9                	test   %ecx,%ecx
    167d:	0f 84 d3 00 00 00    	je     1756 <rtl8139_poll_mode_change+0x176>
    1683:	50                   	push   %eax
    1684:	8b 45 10             	mov    0x10(%ebp),%eax
    1687:	50                   	push   %eax
    1688:	8d 45 d4             	lea    -0x2c(%ebp),%eax
    168b:	68 e8 80 00 00       	push   $0x80e8
    1690:	50                   	push   %eax
    1691:	e8 8a 2b 00 00       	call   4220 <rtl8139_timer_act_init>
    1696:	83 c4 10             	add    $0x10,%esp
    1699:	89 c7                	mov    %eax,%edi
    169b:	85 c0                	test   %eax,%eax
    169d:	74 09                	je     16a8 <rtl8139_poll_mode_change+0xc8>
    169f:	31 c0                	xor    %eax,%eax
    16a1:	66 8b 43 0c          	mov    0xc(%ebx),%ax
    16a5:	eb 8b                	jmp    1632 <rtl8139_poll_mode_change+0x52>
    16a7:	90                   	nop
    16a8:	66 c7 43 0c 00 00    	movw   $0x0,0xc(%ebx)
    16ae:	51                   	push   %ecx
    16af:	51                   	push   %ecx
    16b0:	6a 00                	push   $0x0
    16b2:	8b 43 04             	mov    0x4(%ebx),%eax
    16b5:	83 c0 3c             	add    $0x3c,%eax
    16b8:	50                   	push   %eax
    16b9:	e8 12 22 01 00       	call   138d0 <pio_write_16@plt>
    16be:	8b 45 d4             	mov    -0x2c(%ebp),%eax
    16c1:	89 43 64             	mov    %eax,0x64(%ebx)
    16c4:	8b 45 d8             	mov    -0x28(%ebp),%eax
    16c7:	89 43 68             	mov    %eax,0x68(%ebx)
    16ca:	8b 45 dc             	mov    -0x24(%ebp),%eax
    16cd:	89 43 6c             	mov    %eax,0x6c(%ebx)
    16d0:	8b 45 e0             	mov    -0x20(%ebp),%eax
    16d3:	89 43 70             	mov    %eax,0x70(%ebx)
    16d6:	8b 45 e4             	mov    -0x1c(%ebp),%eax
    16d9:	89 43 74             	mov    %eax,0x74(%ebx)
    16dc:	66 c7 43 0c 00 40    	movw   $0x4000,0xc(%ebx)
    16e2:	58                   	pop    %eax
    16e3:	8b 43 04             	mov    0x4(%ebx),%eax
    16e6:	83 c0 54             	add    $0x54,%eax
    16e9:	5a                   	pop    %edx
    16ea:	6a 0a                	push   $0xa
    16ec:	50                   	push   %eax
    16ed:	e8 ce 22 01 00       	call   139c0 <pio_write_32@plt>
    16f2:	59                   	pop    %ecx
    16f3:	58                   	pop    %eax
    16f4:	8b 43 04             	mov    0x4(%ebx),%eax
    16f7:	83 c0 48             	add    $0x48,%eax
    16fa:	6a 00                	push   $0x0
    16fc:	50                   	push   %eax
    16fd:	e8 be 22 01 00       	call   139c0 <pio_write_32@plt>
    1702:	58                   	pop    %eax
    1703:	8b 43 64             	mov    0x64(%ebx),%eax
    1706:	50                   	push   %eax
    1707:	8b 43 6c             	mov    0x6c(%ebx),%eax
    170a:	50                   	push   %eax
    170b:	31 c0                	xor    %eax,%eax
    170d:	66 8b 43 0c          	mov    0xc(%ebx),%ax
    1711:	50                   	push   %eax
    1712:	68 04 10 01 00       	push   $0x11004
    1717:	6a 04                	push   $0x4
    1719:	e8 a2 3e 00 00       	call   55c0 <ddf_msg>
    171e:	31 c0                	xor    %eax,%eax
    1720:	83 c4 20             	add    $0x20,%esp
    1723:	66 8b 43 0c          	mov    0xc(%ebx),%ax
    1727:	e9 06 ff ff ff       	jmp    1632 <rtl8139_poll_mode_change+0x52>
    172c:	53                   	push   %ebx
    172d:	68 31 08 00 00       	push   $0x831
    1732:	68 d1 15 01 00       	push   $0x115d1
    1737:	68 4f 0e 01 00       	push   $0x10e4f
    173c:	e8 5f 21 01 00       	call   138a0 <assert_abort@plt>
    1741:	56                   	push   %esi
    1742:	68 2d 08 00 00       	push   $0x82d
    1747:	68 d1 15 01 00       	push   $0x115d1
    174c:	68 57 0e 01 00       	push   $0x10e57
    1751:	e8 4a 21 01 00       	call   138a0 <assert_abort@plt>
    1756:	52                   	push   %edx
    1757:	68 3d 08 00 00       	push   $0x83d
    175c:	68 d1 15 01 00       	push   $0x115d1
    1761:	68 70 0e 01 00       	push   $0x10e70
    1766:	e8 35 21 01 00       	call   138a0 <assert_abort@plt>
    176b:	90                   	nop
    176c:	8d 74 26 00          	lea    0x0(%esi,%eiz,1),%esi

00001770 <rtl8139_send_frame>:
    1770:	55                   	push   %ebp
    1771:	89 e5                	mov    %esp,%ebp
    1773:	57                   	push   %edi
    1774:	56                   	push   %esi
    1775:	53                   	push   %ebx
    1776:	83 ec 1c             	sub    $0x1c,%esp
    1779:	8b 75 08             	mov    0x8(%ebp),%esi
    177c:	8b 45 0c             	mov    0xc(%ebp),%eax
    177f:	89 45 e4             	mov    %eax,-0x1c(%ebp)
    1782:	8b 5d 10             	mov    0x10(%ebp),%ebx
    1785:	85 f6                	test   %esi,%esi
    1787:	0f 84 43 01 00 00    	je     18d0 <rtl8139_send_frame+0x160>
    178d:	83 ec 0c             	sub    $0xc,%esp
    1790:	56                   	push   %esi
    1791:	e8 fa cf 00 00       	call   e790 <nic_get_specific>
    1796:	83 c4 10             	add    $0x10,%esp
    1799:	89 c7                	mov    %eax,%edi
    179b:	85 c0                	test   %eax,%eax
    179d:	0f 84 42 01 00 00    	je     18e5 <rtl8139_send_frame+0x175>
    17a3:	50                   	push   %eax
    17a4:	50                   	push   %eax
    17a5:	68 77 0e 01 00       	push   $0x10e77
    17aa:	6a 04                	push   $0x4
    17ac:	e8 0f 3e 00 00       	call   55c0 <ddf_msg>
    17b1:	83 c4 10             	add    $0x10,%esp
    17b4:	81 fb 00 07 00 00    	cmp    $0x700,%ebx
    17ba:	0f 87 a0 00 00 00    	ja     1860 <rtl8139_send_frame+0xf0>
    17c0:	83 ec 0c             	sub    $0xc,%esp
    17c3:	8d 4f 54             	lea    0x54(%edi),%ecx
    17c6:	89 4d e0             	mov    %ecx,-0x20(%ebp)
    17c9:	51                   	push   %ecx
    17ca:	e8 21 25 01 00       	call   13cf0 <fibril_mutex_lock@plt>
    17cf:	8b 57 28             	mov    0x28(%edi),%edx
    17d2:	83 c4 10             	add    $0x10,%esp
    17d5:	8b 4d e0             	mov    -0x20(%ebp),%ecx
    17d8:	8d 42 fc             	lea    -0x4(%edx),%eax
    17db:	3b 47 2c             	cmp    0x2c(%edi),%eax
    17de:	0f 84 b4 00 00 00    	je     1898 <rtl8139_send_frame+0x128>
    17e4:	8d 72 01             	lea    0x1(%edx),%esi
    17e7:	83 e2 03             	and    $0x3,%edx
    17ea:	83 ec 0c             	sub    $0xc,%esp
    17ed:	89 77 28             	mov    %esi,0x28(%edi)
    17f0:	89 d6                	mov    %edx,%esi
    17f2:	51                   	push   %ecx
    17f3:	e8 58 21 01 00       	call   13950 <fibril_mutex_unlock@plt>
    17f8:	8b 4f 04             	mov    0x4(%edi),%ecx
    17fb:	8d 56 04             	lea    0x4(%esi),%edx
    17fe:	8d 34 91             	lea    (%ecx,%edx,4),%esi
    1801:	8b 54 97 08          	mov    0x8(%edi,%edx,4),%edx
    1805:	89 55 e0             	mov    %edx,-0x20(%ebp)
    1808:	89 34 24             	mov    %esi,(%esp)
    180b:	e8 c0 1f 01 00       	call   137d0 <pio_read_32@plt>
    1810:	83 c4 10             	add    $0x10,%esp
    1813:	8b 55 e0             	mov    -0x20(%ebp),%edx
    1816:	f6 c4 20             	test   $0x20,%ah
    1819:	0f 84 db 00 00 00    	je     18fa <rtl8139_send_frame+0x18a>
    181f:	8b 4d e4             	mov    -0x1c(%ebp),%ecx
    1822:	50                   	push   %eax
    1823:	53                   	push   %ebx
    1824:	51                   	push   %ecx
    1825:	52                   	push   %edx
    1826:	e8 95 1f 01 00       	call   137c0 <memcpy@plt>
    182b:	89 34 24             	mov    %esi,(%esp)
    182e:	e8 9d 1f 01 00       	call   137d0 <pio_read_32@plt>
    1833:	25 00 e0 ff ff       	and    $0xffffe000,%eax
    1838:	5f                   	pop    %edi
    1839:	09 c3                	or     %eax,%ebx
    183b:	58                   	pop    %eax
    183c:	53                   	push   %ebx
    183d:	56                   	push   %esi
    183e:	e8 7d 21 01 00       	call   139c0 <pio_write_32@plt>
    1843:	80 e7 df             	and    $0xdf,%bh
    1846:	89 75 08             	mov    %esi,0x8(%ebp)
    1849:	89 5d 0c             	mov    %ebx,0xc(%ebp)
    184c:	83 c4 10             	add    $0x10,%esp
    184f:	8d 65 f4             	lea    -0xc(%ebp),%esp
    1852:	5b                   	pop    %ebx
    1853:	5e                   	pop    %esi
    1854:	5f                   	pop    %edi
    1855:	5d                   	pop    %ebp
    1856:	e9 65 21 01 00       	jmp    139c0 <pio_write_32@plt>
    185b:	90                   	nop
    185c:	8d 74 26 00          	lea    0x0(%esi,%eiz,1),%esi
    1860:	50                   	push   %eax
    1861:	53                   	push   %ebx
    1862:	68 4c 10 01 00       	push   $0x1104c
    1867:	6a 01                	push   $0x1
    1869:	e8 52 3d 00 00       	call   55c0 <ddf_msg>
    186e:	c7 45 10 01 00 00 00 	movl   $0x1,0x10(%ebp)
    1875:	c7 45 0c 06 00 00 00 	movl   $0x6,0xc(%ebp)
    187c:	83 c4 10             	add    $0x10,%esp
    187f:	8b 47 78             	mov    0x78(%edi),%eax
    1882:	89 45 08             	mov    %eax,0x8(%ebp)
    1885:	8d 65 f4             	lea    -0xc(%ebp),%esp
    1888:	5b                   	pop    %ebx
    1889:	5e                   	pop    %esi
    188a:	5f                   	pop    %edi
    188b:	5d                   	pop    %ebp
    188c:	e9 ef cf 00 00       	jmp    e880 <nic_report_send_error>
    1891:	8d b4 26 00 00 00 00 	lea    0x0(%esi,%eiz,1),%esi
    1898:	89 4d e4             	mov    %ecx,-0x1c(%ebp)
    189b:	50                   	push   %eax
    189c:	50                   	push   %eax
    189d:	6a 01                	push   $0x1
    189f:	56                   	push   %esi
    18a0:	e8 2b c7 00 00       	call   dfd0 <nic_set_tx_busy>
    18a5:	8b 4d e4             	mov    -0x1c(%ebp),%ecx
    18a8:	89 0c 24             	mov    %ecx,(%esp)
    18ab:	e8 a0 20 01 00       	call   13950 <fibril_mutex_unlock@plt>
    18b0:	89 75 08             	mov    %esi,0x8(%ebp)
    18b3:	c7 45 10 01 00 00 00 	movl   $0x1,0x10(%ebp)
    18ba:	c7 45 0c 00 00 00 00 	movl   $0x0,0xc(%ebp)
    18c1:	83 c4 10             	add    $0x10,%esp
    18c4:	8d 65 f4             	lea    -0xc(%ebp),%esp
    18c7:	5b                   	pop    %ebx
    18c8:	5e                   	pop    %esi
    18c9:	5f                   	pop    %edi
    18ca:	5d                   	pop    %ebp
    18cb:	e9 b0 cf 00 00       	jmp    e880 <nic_report_send_error>
    18d0:	52                   	push   %edx
    18d1:	68 95 01 00 00       	push   $0x195
    18d6:	68 d1 15 01 00       	push   $0x115d1
    18db:	68 57 0e 01 00       	push   $0x10e57
    18e0:	e8 bb 1f 01 00       	call   138a0 <assert_abort@plt>
    18e5:	50                   	push   %eax
    18e6:	68 98 01 00 00       	push   $0x198
    18eb:	68 d1 15 01 00       	push   $0x115d1
    18f0:	68 4f 0e 01 00       	push   $0x10e4f
    18f5:	e8 a6 1f 01 00       	call   138a0 <assert_abort@plt>
    18fa:	50                   	push   %eax
    18fb:	68 b9 01 00 00       	push   $0x1b9
    1900:	68 d1 15 01 00       	push   $0x115d1
    1905:	68 85 0e 01 00       	push   $0x10e85
    190a:	e8 91 1f 01 00       	call   138a0 <assert_abort@plt>
    190f:	90                   	nop

00001910 <rtl8139_defective_get_mode>:
    1910:	55                   	push   %ebp
    1911:	89 e5                	mov    %esp,%ebp
    1913:	53                   	push   %ebx
    1914:	53                   	push   %ebx
    1915:	8b 45 08             	mov    0x8(%ebp),%eax
    1918:	8b 5d 0c             	mov    0xc(%ebp),%ebx
    191b:	85 c0                	test   %eax,%eax
    191d:	74 4f                	je     196e <rtl8139_defective_get_mode+0x5e>
    191f:	85 db                	test   %ebx,%ebx
    1921:	74 75                	je     1998 <rtl8139_defective_get_mode+0x88>
    1923:	83 ec 0c             	sub    $0xc,%esp
    1926:	50                   	push   %eax
    1927:	e8 e4 ce 00 00       	call   e810 <nic_get_from_ddf_fun>
    192c:	89 04 24             	mov    %eax,(%esp)
    192f:	e8 5c ce 00 00       	call   e790 <nic_get_specific>
    1934:	83 c4 10             	add    $0x10,%esp
    1937:	85 c0                	test   %eax,%eax
    1939:	74 48                	je     1983 <rtl8139_defective_get_mode+0x73>
    193b:	c7 03 00 00 00 00    	movl   $0x0,(%ebx)
    1941:	8a 50 3f             	mov    0x3f(%eax),%dl
    1944:	83 e2 20             	and    $0x20,%edx
    1947:	80 fa 01             	cmp    $0x1,%dl
    194a:	19 c9                	sbb    %ecx,%ecx
    194c:	83 e1 f0             	and    $0xfffffff0,%ecx
    194f:	83 c1 12             	add    $0x12,%ecx
    1952:	80 fa 01             	cmp    $0x1,%dl
    1955:	19 d2                	sbb    %edx,%edx
    1957:	83 f2 ff             	xor    $0xffffffff,%edx
    195a:	83 e2 10             	and    $0x10,%edx
    195d:	89 13                	mov    %edx,(%ebx)
    195f:	f6 40 3f 10          	testb  $0x10,0x3f(%eax)
    1963:	74 02                	je     1967 <rtl8139_defective_get_mode+0x57>
    1965:	89 0b                	mov    %ecx,(%ebx)
    1967:	31 c0                	xor    %eax,%eax
    1969:	8b 5d fc             	mov    -0x4(%ebp),%ebx
    196c:	c9                   	leave  
    196d:	c3                   	ret    
    196e:	51                   	push   %ecx
    196f:	68 a4 07 00 00       	push   $0x7a4
    1974:	68 d1 15 01 00       	push   $0x115d1
    1979:	68 39 0e 01 00       	push   $0x10e39
    197e:	e8 1d 1f 01 00       	call   138a0 <assert_abort@plt>
    1983:	50                   	push   %eax
    1984:	68 a8 07 00 00       	push   $0x7a8
    1989:	68 d1 15 01 00       	push   $0x115d1
    198e:	68 4f 0e 01 00       	push   $0x10e4f
    1993:	e8 08 1f 01 00       	call   138a0 <assert_abort@plt>
    1998:	52                   	push   %edx
    1999:	68 a5 07 00 00       	push   $0x7a5
    199e:	68 d1 15 01 00       	push   $0x115d1
    19a3:	68 9d 0e 01 00       	push   $0x10e9d
    19a8:	e8 f3 1e 01 00       	call   138a0 <assert_abort@plt>
    19ad:	8d 76 00             	lea    0x0(%esi),%esi

000019b0 <rtl8139_pause_get>:
    19b0:	55                   	push   %ebp
    19b1:	89 e5                	mov    %esp,%ebp
    19b3:	57                   	push   %edi
    19b4:	56                   	push   %esi
    19b5:	53                   	push   %ebx
    19b6:	83 ec 0c             	sub    $0xc,%esp
    19b9:	8b 45 08             	mov    0x8(%ebp),%eax
    19bc:	8b 75 0c             	mov    0xc(%ebp),%esi
    19bf:	8b 5d 10             	mov    0x10(%ebp),%ebx
    19c2:	85 c0                	test   %eax,%eax
    19c4:	0f 84 b2 00 00 00    	je     1a7c <rtl8139_pause_get+0xcc>
    19ca:	85 f6                	test   %esi,%esi
    19cc:	0f 84 e9 00 00 00    	je     1abb <rtl8139_pause_get+0x10b>
    19d2:	85 db                	test   %ebx,%ebx
    19d4:	0f 84 cc 00 00 00    	je     1aa6 <rtl8139_pause_get+0xf6>
    19da:	83 ec 0c             	sub    $0xc,%esp
    19dd:	50                   	push   %eax
    19de:	e8 2d ce 00 00       	call   e810 <nic_get_from_ddf_fun>
    19e3:	89 04 24             	mov    %eax,(%esp)
    19e6:	e8 a5 cd 00 00       	call   e790 <nic_get_specific>
    19eb:	83 c4 10             	add    $0x10,%esp
    19ee:	89 c7                	mov    %eax,%edi
    19f0:	85 c0                	test   %eax,%eax
    19f2:	0f 84 99 00 00 00    	je     1a91 <rtl8139_pause_get+0xe1>
    19f8:	83 ec 0c             	sub    $0xc,%esp
    19fb:	8b 40 04             	mov    0x4(%eax),%eax
    19fe:	83 c0 62             	add    $0x62,%eax
    1a01:	50                   	push   %eax
    1a02:	e8 f9 1f 01 00       	call   13a00 <pio_read_16@plt>
    1a07:	83 c4 10             	add    $0x10,%esp
    1a0a:	f6 c4 11             	test   $0x11,%ah
    1a0d:	74 39                	je     1a48 <rtl8139_pause_get+0x98>
    1a0f:	f6 c4 10             	test   $0x10,%ah
    1a12:	75 54                	jne    1a68 <rtl8139_pause_get+0xb8>
    1a14:	8b 47 04             	mov    0x4(%edi),%eax
    1a17:	83 ec 0c             	sub    $0xc,%esp
    1a1a:	83 c0 58             	add    $0x58,%eax
    1a1d:	50                   	push   %eax
    1a1e:	e8 5d 1e 01 00       	call   13880 <pio_read_8@plt>
    1a23:	0f be d0             	movsbl %al,%edx
    1a26:	c0 e8 06             	shr    $0x6,%al
    1a29:	83 c4 10             	add    $0x10,%esp
    1a2c:	c1 ea 1f             	shr    $0x1f,%edx
    1a2f:	83 e0 01             	and    $0x1,%eax
    1a32:	89 16                	mov    %edx,(%esi)
    1a34:	89 03                	mov    %eax,(%ebx)
    1a36:	8b 45 14             	mov    0x14(%ebp),%eax
    1a39:	66 c7 00 ff ff       	movw   $0xffff,(%eax)
    1a3e:	8d 65 f4             	lea    -0xc(%ebp),%esp
    1a41:	31 c0                	xor    %eax,%eax
    1a43:	5b                   	pop    %ebx
    1a44:	5e                   	pop    %esi
    1a45:	5f                   	pop    %edi
    1a46:	5d                   	pop    %ebp
    1a47:	c3                   	ret    
    1a48:	8b 45 14             	mov    0x14(%ebp),%eax
    1a4b:	c7 06 03 00 00 00    	movl   $0x3,(%esi)
    1a51:	c7 03 03 00 00 00    	movl   $0x3,(%ebx)
    1a57:	66 c7 00 00 00       	movw   $0x0,(%eax)
    1a5c:	8d 65 f4             	lea    -0xc(%ebp),%esp
    1a5f:	31 c0                	xor    %eax,%eax
    1a61:	5b                   	pop    %ebx
    1a62:	5e                   	pop    %esi
    1a63:	5f                   	pop    %edi
    1a64:	5d                   	pop    %ebp
    1a65:	c3                   	ret    
    1a66:	66 90                	xchg   %ax,%ax
    1a68:	83 ec 0c             	sub    $0xc,%esp
    1a6b:	8b 47 04             	mov    0x4(%edi),%eax
    1a6e:	83 c0 68             	add    $0x68,%eax
    1a71:	50                   	push   %eax
    1a72:	e8 89 1f 01 00       	call   13a00 <pio_read_16@plt>
    1a77:	83 c4 10             	add    $0x10,%esp
    1a7a:	eb 98                	jmp    1a14 <rtl8139_pause_get+0x64>
    1a7c:	53                   	push   %ebx
    1a7d:	68 01 06 00 00       	push   $0x601
    1a82:	68 d1 15 01 00       	push   $0x115d1
    1a87:	68 39 0e 01 00       	push   $0x10e39
    1a8c:	e8 0f 1e 01 00       	call   138a0 <assert_abort@plt>
    1a91:	50                   	push   %eax
    1a92:	68 06 06 00 00       	push   $0x606
    1a97:	68 d1 15 01 00       	push   $0x115d1
    1a9c:	68 4f 0e 01 00       	push   $0x10e4f
    1aa1:	e8 fa 1d 01 00       	call   138a0 <assert_abort@plt>
    1aa6:	52                   	push   %edx
    1aa7:	68 03 06 00 00       	push   $0x603
    1aac:	68 d1 15 01 00       	push   $0x115d1
    1ab1:	68 aa 0e 01 00       	push   $0x10eaa
    1ab6:	e8 e5 1d 01 00       	call   138a0 <assert_abort@plt>
    1abb:	51                   	push   %ecx
    1abc:	68 02 06 00 00       	push   $0x602
    1ac1:	68 d1 15 01 00       	push   $0x115d1
    1ac6:	68 a2 0e 01 00       	push   $0x10ea2
    1acb:	e8 d0 1d 01 00       	call   138a0 <assert_abort@plt>

00001ad0 <rtl8139_get_cable_state>:
    1ad0:	55                   	push   %ebp
    1ad1:	89 e5                	mov    %esp,%ebp
    1ad3:	53                   	push   %ebx
    1ad4:	53                   	push   %ebx
    1ad5:	8b 45 08             	mov    0x8(%ebp),%eax
    1ad8:	8b 5d 0c             	mov    0xc(%ebp),%ebx
    1adb:	85 c0                	test   %eax,%eax
    1add:	74 42                	je     1b21 <rtl8139_get_cable_state+0x51>
    1adf:	85 db                	test   %ebx,%ebx
    1ae1:	74 68                	je     1b4b <rtl8139_get_cable_state+0x7b>
    1ae3:	83 ec 0c             	sub    $0xc,%esp
    1ae6:	50                   	push   %eax
    1ae7:	e8 24 cd 00 00       	call   e810 <nic_get_from_ddf_fun>
    1aec:	89 04 24             	mov    %eax,(%esp)
    1aef:	e8 9c cc 00 00       	call   e790 <nic_get_specific>
    1af4:	83 c4 10             	add    $0x10,%esp
    1af7:	85 c0                	test   %eax,%eax
    1af9:	74 3b                	je     1b36 <rtl8139_get_cable_state+0x66>
    1afb:	83 ec 0c             	sub    $0xc,%esp
    1afe:	8b 40 04             	mov    0x4(%eax),%eax
    1b01:	83 c0 74             	add    $0x74,%eax
    1b04:	50                   	push   %eax
    1b05:	e8 f6 1e 01 00       	call   13a00 <pio_read_16@plt>
    1b0a:	83 c4 10             	add    $0x10,%esp
    1b0d:	a8 08                	test   $0x8,%al
    1b0f:	0f 94 c0             	sete   %al
    1b12:	25 ff 00 00 00       	and    $0xff,%eax
    1b17:	40                   	inc    %eax
    1b18:	89 03                	mov    %eax,(%ebx)
    1b1a:	31 c0                	xor    %eax,%eax
    1b1c:	8b 5d fc             	mov    -0x4(%ebp),%ebx
    1b1f:	c9                   	leave  
    1b20:	c3                   	ret    
    1b21:	51                   	push   %ecx
    1b22:	68 a0 05 00 00       	push   $0x5a0
    1b27:	68 d1 15 01 00       	push   $0x115d1
    1b2c:	68 39 0e 01 00       	push   $0x10e39
    1b31:	e8 6a 1d 01 00       	call   138a0 <assert_abort@plt>
    1b36:	50                   	push   %eax
    1b37:	68 a4 05 00 00       	push   $0x5a4
    1b3c:	68 d1 15 01 00       	push   $0x115d1
    1b41:	68 4f 0e 01 00       	push   $0x10e4f
    1b46:	e8 55 1d 01 00       	call   138a0 <assert_abort@plt>
    1b4b:	52                   	push   %edx
    1b4c:	68 a1 05 00 00       	push   $0x5a1
    1b51:	68 d1 15 01 00       	push   $0x115d1
    1b56:	68 e3 2c 01 00       	push   $0x12ce3
    1b5b:	e8 40 1d 01 00       	call   138a0 <assert_abort@plt>

00001b60 <rtl8139_autoneg_restart>:
    1b60:	55                   	push   %ebp
    1b61:	89 e5                	mov    %esp,%ebp
    1b63:	57                   	push   %edi
    1b64:	56                   	push   %esi
    1b65:	53                   	push   %ebx
    1b66:	83 ec 0c             	sub    $0xc,%esp
    1b69:	8b 45 08             	mov    0x8(%ebp),%eax
    1b6c:	85 c0                	test   %eax,%eax
    1b6e:	74 68                	je     1bd8 <rtl8139_autoneg_restart+0x78>
    1b70:	83 ec 0c             	sub    $0xc,%esp
    1b73:	50                   	push   %eax
    1b74:	e8 97 cc 00 00       	call   e810 <nic_get_from_ddf_fun>
    1b79:	89 04 24             	mov    %eax,(%esp)
    1b7c:	e8 0f cc 00 00       	call   e790 <nic_get_specific>
    1b81:	83 c4 10             	add    $0x10,%esp
    1b84:	89 c6                	mov    %eax,%esi
    1b86:	85 c0                	test   %eax,%eax
    1b88:	74 63                	je     1bed <rtl8139_autoneg_restart+0x8d>
    1b8a:	83 ec 0c             	sub    $0xc,%esp
    1b8d:	8b 40 04             	mov    0x4(%eax),%eax
    1b90:	83 c0 62             	add    $0x62,%eax
    1b93:	8d 7e 50             	lea    0x50(%esi),%edi
    1b96:	50                   	push   %eax
    1b97:	e8 64 1e 01 00       	call   13a00 <pio_read_16@plt>
    1b9c:	89 c3                	mov    %eax,%ebx
    1b9e:	58                   	pop    %eax
    1b9f:	5a                   	pop    %edx
    1ba0:	68 c0 00 00 00       	push   $0xc0
    1ba5:	57                   	push   %edi
    1ba6:	e8 65 1d 01 00       	call   13910 <pio_write_8@plt>
    1bab:	59                   	pop    %ecx
    1bac:	58                   	pop    %eax
    1bad:	89 d8                	mov    %ebx,%eax
    1baf:	31 db                	xor    %ebx,%ebx
    1bb1:	80 cc 12             	or     $0x12,%ah
    1bb4:	66 89 c3             	mov    %ax,%bx
    1bb7:	8b 46 04             	mov    0x4(%esi),%eax
    1bba:	83 c0 62             	add    $0x62,%eax
    1bbd:	53                   	push   %ebx
    1bbe:	50                   	push   %eax
    1bbf:	e8 0c 1d 01 00       	call   138d0 <pio_write_16@plt>
    1bc4:	58                   	pop    %eax
    1bc5:	5a                   	pop    %edx
    1bc6:	6a 00                	push   $0x0
    1bc8:	57                   	push   %edi
    1bc9:	e8 42 1d 01 00       	call   13910 <pio_write_8@plt>
    1bce:	8d 65 f4             	lea    -0xc(%ebp),%esp
    1bd1:	31 c0                	xor    %eax,%eax
    1bd3:	5b                   	pop    %ebx
    1bd4:	5e                   	pop    %esi
    1bd5:	5f                   	pop    %edi
    1bd6:	5d                   	pop    %ebp
    1bd7:	c3                   	ret    
    1bd8:	53                   	push   %ebx
    1bd9:	68 f3 06 00 00       	push   $0x6f3
    1bde:	68 d1 15 01 00       	push   $0x115d1
    1be3:	68 39 0e 01 00       	push   $0x10e39
    1be8:	e8 b3 1c 01 00       	call   138a0 <assert_abort@plt>
    1bed:	51                   	push   %ecx
    1bee:	68 f6 06 00 00       	push   $0x6f6
    1bf3:	68 d1 15 01 00       	push   $0x115d1
    1bf8:	68 4f 0e 01 00       	push   $0x10e4f
    1bfd:	e8 9e 1c 01 00       	call   138a0 <assert_abort@plt>
    1c02:	8d b4 26 00 00 00 00 	lea    0x0(%esi,%eiz,1),%esi
    1c09:	8d bc 27 00 00 00 00 	lea    0x0(%edi,%eiz,1),%edi

00001c10 <rtl8139_autoneg_disable>:
    1c10:	55                   	push   %ebp
    1c11:	89 e5                	mov    %esp,%ebp
    1c13:	56                   	push   %esi
    1c14:	53                   	push   %ebx
    1c15:	8b 45 08             	mov    0x8(%ebp),%eax
    1c18:	85 c0                	test   %eax,%eax
    1c1a:	74 6c                	je     1c88 <rtl8139_autoneg_disable+0x78>
    1c1c:	83 ec 0c             	sub    $0xc,%esp
    1c1f:	50                   	push   %eax
    1c20:	e8 eb cb 00 00       	call   e810 <nic_get_from_ddf_fun>
    1c25:	89 04 24             	mov    %eax,(%esp)
    1c28:	e8 63 cb 00 00       	call   e790 <nic_get_specific>
    1c2d:	83 c4 10             	add    $0x10,%esp
    1c30:	89 c3                	mov    %eax,%ebx
    1c32:	85 c0                	test   %eax,%eax
    1c34:	74 67                	je     1c9d <rtl8139_autoneg_disable+0x8d>
    1c36:	83 ec 0c             	sub    $0xc,%esp
    1c39:	8b 40 04             	mov    0x4(%eax),%eax
    1c3c:	83 c0 62             	add    $0x62,%eax
    1c3f:	50                   	push   %eax
    1c40:	e8 bb 1d 01 00       	call   13a00 <pio_read_16@plt>
    1c45:	89 c6                	mov    %eax,%esi
    1c47:	58                   	pop    %eax
    1c48:	8b 43 04             	mov    0x4(%ebx),%eax
    1c4b:	5a                   	pop    %edx
    1c4c:	83 c0 50             	add    $0x50,%eax
    1c4f:	68 c0 00 00 00       	push   $0xc0
    1c54:	50                   	push   %eax
    1c55:	e8 b6 1c 01 00       	call   13910 <pio_write_8@plt>
    1c5a:	59                   	pop    %ecx
    1c5b:	58                   	pop    %eax
    1c5c:	8b 43 04             	mov    0x4(%ebx),%eax
    1c5f:	81 e6 ff ef 00 00    	and    $0xefff,%esi
    1c65:	83 c0 62             	add    $0x62,%eax
    1c68:	56                   	push   %esi
    1c69:	50                   	push   %eax
    1c6a:	e8 61 1c 01 00       	call   138d0 <pio_write_16@plt>
    1c6f:	58                   	pop    %eax
    1c70:	8b 43 04             	mov    0x4(%ebx),%eax
    1c73:	83 c0 50             	add    $0x50,%eax
    1c76:	5a                   	pop    %edx
    1c77:	6a 00                	push   $0x0
    1c79:	50                   	push   %eax
    1c7a:	e8 91 1c 01 00       	call   13910 <pio_write_8@plt>
    1c7f:	8d 65 f8             	lea    -0x8(%ebp),%esp
    1c82:	31 c0                	xor    %eax,%eax
    1c84:	5b                   	pop    %ebx
    1c85:	5e                   	pop    %esi
    1c86:	5d                   	pop    %ebp
    1c87:	c3                   	ret    
    1c88:	53                   	push   %ebx
    1c89:	68 9b 06 00 00       	push   $0x69b
    1c8e:	68 d1 15 01 00       	push   $0x115d1
    1c93:	68 39 0e 01 00       	push   $0x10e39
    1c98:	e8 03 1c 01 00       	call   138a0 <assert_abort@plt>
    1c9d:	51                   	push   %ecx
    1c9e:	68 9e 06 00 00       	push   $0x69e
    1ca3:	68 d1 15 01 00       	push   $0x115d1
    1ca8:	68 4f 0e 01 00       	push   $0x10e4f
    1cad:	e8 ee 1b 01 00       	call   138a0 <assert_abort@plt>
    1cb2:	8d b4 26 00 00 00 00 	lea    0x0(%esi,%eiz,1),%esi
    1cb9:	8d bc 27 00 00 00 00 	lea    0x0(%edi,%eiz,1),%edi

00001cc0 <rtl8139_interrupt_impl>:
    1cc0:	55                   	push   %ebp
    1cc1:	89 e5                	mov    %esp,%ebp
    1cc3:	57                   	push   %edi
    1cc4:	56                   	push   %esi
    1cc5:	53                   	push   %ebx
    1cc6:	83 ec 4c             	sub    $0x4c,%esp
    1cc9:	89 45 d4             	mov    %eax,-0x2c(%ebp)
    1ccc:	89 55 c8             	mov    %edx,-0x38(%ebp)
    1ccf:	85 c0                	test   %eax,%eax
    1cd1:	0f 84 a1 06 00 00    	je     2378 <rtl8139_interrupt_impl+0x6b8>
    1cd7:	50                   	push   %eax
    1cd8:	50                   	push   %eax
    1cd9:	8b 45 d4             	mov    -0x2c(%ebp),%eax
    1cdc:	6a 00                	push   $0x0
    1cde:	50                   	push   %eax
    1cdf:	e8 cc c0 00 00       	call   ddb0 <nic_query_poll_mode>
    1ce4:	83 c4 10             	add    $0x10,%esp
    1ce7:	83 f8 02             	cmp    $0x2,%eax
    1cea:	74 3c                	je     1d28 <rtl8139_interrupt_impl+0x68>
    1cec:	f6 45 c8 0c          	testb  $0xc,-0x38(%ebp)
    1cf0:	0f 85 ba 00 00 00    	jne    1db0 <rtl8139_interrupt_impl+0xf0>
    1cf6:	f6 45 c8 01          	testb  $0x1,-0x38(%ebp)
    1cfa:	0f 85 c9 01 00 00    	jne    1ec9 <rtl8139_interrupt_impl+0x209>
    1d00:	8b 45 c8             	mov    -0x38(%ebp),%eax
    1d03:	a8 52                	test   $0x52,%al
    1d05:	74 12                	je     1d19 <rtl8139_interrupt_impl+0x59>
    1d07:	a8 40                	test   $0x40,%al
    1d09:	0f 85 91 04 00 00    	jne    21a0 <rtl8139_interrupt_impl+0x4e0>
    1d0f:	f6 45 c8 10          	testb  $0x10,-0x38(%ebp)
    1d13:	0f 85 27 04 00 00    	jne    2140 <rtl8139_interrupt_impl+0x480>
    1d19:	8d 65 f4             	lea    -0xc(%ebp),%esp
    1d1c:	5b                   	pop    %ebx
    1d1d:	5e                   	pop    %esi
    1d1e:	5f                   	pop    %edi
    1d1f:	5d                   	pop    %ebp
    1d20:	c3                   	ret    
    1d21:	8d b4 26 00 00 00 00 	lea    0x0(%esi,%eiz,1),%esi
    1d28:	f7 45 c8 00 40 00 00 	testl  $0x4000,-0x38(%ebp)
    1d2f:	74 e8                	je     1d19 <rtl8139_interrupt_impl+0x59>
    1d31:	83 ec 0c             	sub    $0xc,%esp
    1d34:	8b 45 d4             	mov    -0x2c(%ebp),%eax
    1d37:	50                   	push   %eax
    1d38:	e8 53 ca 00 00       	call   e790 <nic_get_specific>
    1d3d:	83 c4 10             	add    $0x10,%esp
    1d40:	89 c3                	mov    %eax,%ebx
    1d42:	85 c0                	test   %eax,%eax
    1d44:	0f 84 58 06 00 00    	je     23a2 <rtl8139_interrupt_impl+0x6e2>
    1d4a:	8d 45 e4             	lea    -0x1c(%ebp),%eax
    1d4d:	56                   	push   %esi
    1d4e:	56                   	push   %esi
    1d4f:	50                   	push   %eax
    1d50:	8d 43 64             	lea    0x64(%ebx),%eax
    1d53:	50                   	push   %eax
    1d54:	e8 c7 25 00 00       	call   4320 <rtl8139_timer_act_step>
    1d59:	89 c6                	mov    %eax,%esi
    1d5b:	8b 45 e4             	mov    -0x1c(%ebp),%eax
    1d5e:	83 c4 10             	add    $0x10,%esp
    1d61:	85 c0                	test   %eax,%eax
    1d63:	0f 84 24 06 00 00    	je     238d <rtl8139_interrupt_impl+0x6cd>
    1d69:	57                   	push   %edi
    1d6a:	57                   	push   %edi
    1d6b:	50                   	push   %eax
    1d6c:	8b 43 04             	mov    0x4(%ebx),%eax
    1d6f:	83 c0 54             	add    $0x54,%eax
    1d72:	50                   	push   %eax
    1d73:	e8 48 1c 01 00       	call   139c0 <pio_write_32@plt>
    1d78:	58                   	pop    %eax
    1d79:	8b 43 04             	mov    0x4(%ebx),%eax
    1d7c:	83 c0 48             	add    $0x48,%eax
    1d7f:	5a                   	pop    %edx
    1d80:	6a 00                	push   $0x0
    1d82:	50                   	push   %eax
    1d83:	e8 38 1c 01 00       	call   139c0 <pio_write_32@plt>
    1d88:	8b 4d e4             	mov    -0x1c(%ebp),%ecx
    1d8b:	56                   	push   %esi
    1d8c:	51                   	push   %ecx
    1d8d:	68 bf 0e 01 00       	push   $0x10ebf
    1d92:	6a 04                	push   $0x4
    1d94:	e8 27 38 00 00       	call   55c0 <ddf_msg>
    1d99:	83 c4 20             	add    $0x20,%esp
    1d9c:	85 f6                	test   %esi,%esi
    1d9e:	0f 85 48 ff ff ff    	jne    1cec <rtl8139_interrupt_impl+0x2c>
    1da4:	e9 70 ff ff ff       	jmp    1d19 <rtl8139_interrupt_impl+0x59>
    1da9:	8d b4 26 00 00 00 00 	lea    0x0(%esi,%eiz,1),%esi
    1db0:	83 ec 0c             	sub    $0xc,%esp
    1db3:	8b 4d d4             	mov    -0x2c(%ebp),%ecx
    1db6:	51                   	push   %ecx
    1db7:	e8 d4 c9 00 00       	call   e790 <nic_get_specific>
    1dbc:	89 c6                	mov    %eax,%esi
    1dbe:	8d 40 54             	lea    0x54(%eax),%eax
    1dc1:	89 04 24             	mov    %eax,(%esp)
    1dc4:	89 45 c4             	mov    %eax,-0x3c(%ebp)
    1dc7:	e8 24 1f 01 00       	call   13cf0 <fibril_mutex_lock@plt>
    1dcc:	8b 7e 28             	mov    0x28(%esi),%edi
    1dcf:	8b 5e 2c             	mov    0x2c(%esi),%ebx
    1dd2:	83 c4 10             	add    $0x10,%esp
    1dd5:	39 df                	cmp    %ebx,%edi
    1dd7:	0f 84 d3 00 00 00    	je     1eb0 <rtl8139_interrupt_impl+0x1f0>
    1ddd:	89 7d d0             	mov    %edi,-0x30(%ebp)
    1de0:	8b 7d d4             	mov    -0x2c(%ebp),%edi
    1de3:	eb 40                	jmp    1e25 <rtl8139_interrupt_impl+0x165>
    1de5:	8d 76 00             	lea    0x0(%esi),%esi
    1de8:	85 c0                	test   %eax,%eax
    1dea:	0f 88 10 03 00 00    	js     2100 <rtl8139_interrupt_impl+0x440>
    1df0:	a9 00 00 00 20       	test   $0x20000000,%eax
    1df5:	0f 85 c5 02 00 00    	jne    20c0 <rtl8139_interrupt_impl+0x400>
    1dfb:	a9 00 00 00 40       	test   $0x40000000,%eax
    1e00:	0f 85 da 02 00 00    	jne    20e0 <rtl8139_interrupt_impl+0x420>
    1e06:	a9 00 00 00 10       	test   $0x10000000,%eax
    1e0b:	0f 85 0f 03 00 00    	jne    2120 <rtl8139_interrupt_impl+0x460>
    1e11:	89 c2                	mov    %eax,%edx
    1e13:	c1 ea 18             	shr    $0x18,%edx
    1e16:	83 e2 0f             	and    $0xf,%edx
    1e19:	75 52                	jne    1e6d <rtl8139_interrupt_impl+0x1ad>
    1e1b:	f6 c4 40             	test   $0x40,%ah
    1e1e:	75 64                	jne    1e84 <rtl8139_interrupt_impl+0x1c4>
    1e20:	39 5d d0             	cmp    %ebx,-0x30(%ebp)
    1e23:	74 73                	je     1e98 <rtl8139_interrupt_impl+0x1d8>
    1e25:	89 da                	mov    %ebx,%edx
    1e27:	8b 46 04             	mov    0x4(%esi),%eax
    1e2a:	83 e2 03             	and    $0x3,%edx
    1e2d:	83 ec 0c             	sub    $0xc,%esp
    1e30:	8d 44 90 10          	lea    0x10(%eax,%edx,4),%eax
    1e34:	50                   	push   %eax
    1e35:	e8 96 19 01 00       	call   137d0 <pio_read_32@plt>
    1e3a:	83 c4 10             	add    $0x10,%esp
    1e3d:	f6 c4 20             	test   $0x20,%ah
    1e40:	74 56                	je     1e98 <rtl8139_interrupt_impl+0x1d8>
    1e42:	43                   	inc    %ebx
    1e43:	f6 c4 80             	test   $0x80,%ah
    1e46:	74 a0                	je     1de8 <rtl8139_interrupt_impl+0x128>
    1e48:	52                   	push   %edx
    1e49:	89 c2                	mov    %eax,%edx
    1e4b:	81 e2 ff 1f 00 00    	and    $0x1fff,%edx
    1e51:	89 45 cc             	mov    %eax,-0x34(%ebp)
    1e54:	52                   	push   %edx
    1e55:	6a 01                	push   $0x1
    1e57:	57                   	push   %edi
    1e58:	e8 d3 c9 00 00       	call   e830 <nic_report_send_ok>
    1e5d:	8b 45 cc             	mov    -0x34(%ebp),%eax
    1e60:	83 c4 10             	add    $0x10,%esp
    1e63:	89 c2                	mov    %eax,%edx
    1e65:	c1 ea 18             	shr    $0x18,%edx
    1e68:	83 e2 0f             	and    $0xf,%edx
    1e6b:	74 ae                	je     1e1b <rtl8139_interrupt_impl+0x15b>
    1e6d:	89 45 cc             	mov    %eax,-0x34(%ebp)
    1e70:	50                   	push   %eax
    1e71:	50                   	push   %eax
    1e72:	52                   	push   %edx
    1e73:	57                   	push   %edi
    1e74:	e8 c7 cb 00 00       	call   ea40 <nic_report_collisions>
    1e79:	8b 45 cc             	mov    -0x34(%ebp),%eax
    1e7c:	83 c4 10             	add    $0x10,%esp
    1e7f:	f6 c4 40             	test   $0x40,%ah
    1e82:	74 9c                	je     1e20 <rtl8139_interrupt_impl+0x160>
    1e84:	50                   	push   %eax
    1e85:	6a 01                	push   $0x1
    1e87:	6a 03                	push   $0x3
    1e89:	57                   	push   %edi
    1e8a:	e8 f1 c9 00 00       	call   e880 <nic_report_send_error>
    1e8f:	83 c4 10             	add    $0x10,%esp
    1e92:	39 5d d0             	cmp    %ebx,-0x30(%ebp)
    1e95:	75 8e                	jne    1e25 <rtl8139_interrupt_impl+0x165>
    1e97:	90                   	nop
    1e98:	39 5e 2c             	cmp    %ebx,0x2c(%esi)
    1e9b:	74 13                	je     1eb0 <rtl8139_interrupt_impl+0x1f0>
    1e9d:	89 5e 2c             	mov    %ebx,0x2c(%esi)
    1ea0:	50                   	push   %eax
    1ea1:	50                   	push   %eax
    1ea2:	8b 45 d4             	mov    -0x2c(%ebp),%eax
    1ea5:	6a 00                	push   $0x0
    1ea7:	50                   	push   %eax
    1ea8:	e8 23 c1 00 00       	call   dfd0 <nic_set_tx_busy>
    1ead:	83 c4 10             	add    $0x10,%esp
    1eb0:	83 ec 0c             	sub    $0xc,%esp
    1eb3:	8b 7d c4             	mov    -0x3c(%ebp),%edi
    1eb6:	57                   	push   %edi
    1eb7:	e8 94 1a 01 00       	call   13950 <fibril_mutex_unlock@plt>
    1ebc:	83 c4 10             	add    $0x10,%esp
    1ebf:	f6 45 c8 01          	testb  $0x1,-0x38(%ebp)
    1ec3:	0f 84 37 fe ff ff    	je     1d00 <rtl8139_interrupt_impl+0x40>
    1ec9:	83 ec 0c             	sub    $0xc,%esp
    1ecc:	8b 75 d4             	mov    -0x2c(%ebp),%esi
    1ecf:	56                   	push   %esi
    1ed0:	e8 bb c8 00 00       	call   e790 <nic_get_specific>
    1ed5:	83 c4 10             	add    $0x10,%esp
    1ed8:	85 c0                	test   %eax,%eax
    1eda:	0f 84 ec 04 00 00    	je     23cc <rtl8139_interrupt_impl+0x70c>
    1ee0:	83 ec 0c             	sub    $0xc,%esp
    1ee3:	83 c0 44             	add    $0x44,%eax
    1ee6:	89 45 b4             	mov    %eax,-0x4c(%ebp)
    1ee9:	50                   	push   %eax
    1eea:	e8 01 1e 01 00       	call   13cf0 <fibril_mutex_lock@plt>
    1eef:	8b 4d d4             	mov    -0x2c(%ebp),%ecx
    1ef2:	5a                   	pop    %edx
    1ef3:	51                   	push   %ecx
    1ef4:	e8 97 c8 00 00       	call   e790 <nic_get_specific>
    1ef9:	89 45 d0             	mov    %eax,-0x30(%ebp)
    1efc:	8b 40 04             	mov    0x4(%eax),%eax
    1eff:	89 45 cc             	mov    %eax,-0x34(%ebp)
    1f02:	83 c0 37             	add    $0x37,%eax
    1f05:	89 04 24             	mov    %eax,(%esp)
    1f08:	e8 f3 1a 01 00       	call   13a00 <pio_read_16@plt>
    1f0d:	83 c4 10             	add    $0x10,%esp
    1f10:	a8 01                	test   $0x1,%al
    1f12:	0f 85 b8 02 00 00    	jne    21d0 <rtl8139_interrupt_impl+0x510>
    1f18:	e8 b3 bd 00 00       	call   dcd0 <nic_alloc_frame_list>
    1f1d:	89 45 c4             	mov    %eax,-0x3c(%ebp)
    1f20:	85 c0                	test   %eax,%eax
    1f22:	0f 84 bc 02 00 00    	je     21e4 <rtl8139_interrupt_impl+0x524>
    1f28:	8b 45 d0             	mov    -0x30(%ebp),%eax
    1f2b:	83 ec 0c             	sub    $0xc,%esp
    1f2e:	8b 78 34             	mov    0x34(%eax),%edi
    1f31:	89 7d c0             	mov    %edi,-0x40(%ebp)
    1f34:	89 c7                	mov    %eax,%edi
    1f36:	8b 40 04             	mov    0x4(%eax),%eax
    1f39:	89 45 cc             	mov    %eax,-0x34(%ebp)
    1f3c:	83 c0 38             	add    $0x38,%eax
    1f3f:	50                   	push   %eax
    1f40:	e8 bb 1a 01 00       	call   13a00 <pio_read_16@plt>
    1f45:	8d 70 10             	lea    0x10(%eax),%esi
    1f48:	8b 47 04             	mov    0x4(%edi),%eax
    1f4b:	89 45 cc             	mov    %eax,-0x34(%ebp)
    1f4e:	83 c0 3a             	add    $0x3a,%eax
    1f51:	89 04 24             	mov    %eax,(%esp)
    1f54:	e8 a7 1a 01 00       	call   13a00 <pio_read_16@plt>
    1f59:	81 e6 ff 3f 00 00    	and    $0x3fff,%esi
    1f5f:	25 ff 3f 00 00       	and    $0x3fff,%eax
    1f64:	89 f1                	mov    %esi,%ecx
    1f66:	89 c7                	mov    %eax,%edi
    1f68:	29 cf                	sub    %ecx,%edi
    1f6a:	83 c4 10             	add    $0x10,%esp
    1f6d:	66 39 f0             	cmp    %si,%ax
    1f70:	66 89 7d ba          	mov    %di,-0x46(%ebp)
    1f74:	0f 82 46 02 00 00    	jb     21c0 <rtl8139_interrupt_impl+0x500>
    1f7a:	0f ae f0             	mfence 
    1f7d:	31 ff                	xor    %edi,%edi
    1f7f:	89 ce                	mov    %ecx,%esi
    1f81:	e9 eb 00 00 00       	jmp    2071 <rtl8139_interrupt_impl+0x3b1>
    1f86:	66 90                	xchg   %ax,%ax
    1f88:	89 f0                	mov    %esi,%eax
    1f8a:	8b 4d c0             	mov    -0x40(%ebp),%ecx
    1f8d:	25 ff 3f 00 00       	and    $0x3fff,%eax
    1f92:	8b 04 01             	mov    (%ecx,%eax,1),%eax
    1f95:	89 c3                	mov    %eax,%ebx
    1f97:	c1 eb 10             	shr    $0x10,%ebx
    1f9a:	81 fb f0 ff 00 00    	cmp    $0xfff0,%ebx
    1fa0:	0f 84 5a 02 00 00    	je     2200 <rtl8139_interrupt_impl+0x540>
    1fa6:	8d 53 ff             	lea    -0x1(%ebx),%edx
    1fa9:	66 81 fa ff 06       	cmp    $0x6ff,%dx
    1fae:	0f 87 64 02 00 00    	ja     2218 <rtl8139_interrupt_impl+0x558>
    1fb4:	66 83 fb 3f          	cmp    $0x3f,%bx
    1fb8:	77 08                	ja     1fc2 <rtl8139_interrupt_impl+0x302>
    1fba:	a8 10                	test   $0x10,%al
    1fbc:	0f 84 8c 03 00 00    	je     234e <rtl8139_interrupt_impl+0x68e>
    1fc2:	8d 7c 1f 04          	lea    0x4(%edi,%ebx,1),%edi
    1fc6:	66 3b 7d ba          	cmp    -0x46(%ebp),%di
    1fca:	0f 87 c1 00 00 00    	ja     2091 <rtl8139_interrupt_impl+0x3d1>
    1fd0:	8b 45 c4             	mov    -0x3c(%ebp),%eax
    1fd3:	85 c0                	test   %eax,%eax
    1fd5:	74 70                	je     2047 <rtl8139_interrupt_impl+0x387>
    1fd7:	8d 53 fc             	lea    -0x4(%ebx),%edx
    1fda:	89 d0                	mov    %edx,%eax
    1fdc:	25 ff ff 00 00       	and    $0xffff,%eax
    1fe1:	89 c1                	mov    %eax,%ecx
    1fe3:	89 45 cc             	mov    %eax,-0x34(%ebp)
    1fe6:	31 c0                	xor    %eax,%eax
    1fe8:	66 89 f0             	mov    %si,%ax
    1feb:	83 c0 04             	add    $0x4,%eax
    1fee:	89 45 bc             	mov    %eax,-0x44(%ebp)
    1ff1:	50                   	push   %eax
    1ff2:	50                   	push   %eax
    1ff3:	8b 45 d4             	mov    -0x2c(%ebp),%eax
    1ff6:	51                   	push   %ecx
    1ff7:	50                   	push   %eax
    1ff8:	e8 43 bb 00 00       	call   db40 <nic_alloc_frame>
    1ffd:	83 c4 10             	add    $0x10,%esp
    2000:	89 c1                	mov    %eax,%ecx
    2002:	85 c0                	test   %eax,%eax
    2004:	0f 84 2e 03 00 00    	je     2338 <rtl8139_interrupt_impl+0x678>
    200a:	83 ec 0c             	sub    $0xc,%esp
    200d:	8b 45 cc             	mov    -0x34(%ebp),%eax
    2010:	89 4d cc             	mov    %ecx,-0x34(%ebp)
    2013:	50                   	push   %eax
    2014:	8b 45 bc             	mov    -0x44(%ebp),%eax
    2017:	68 00 40 00 00       	push   $0x4000
    201c:	50                   	push   %eax
    201d:	8b 45 c0             	mov    -0x40(%ebp),%eax
    2020:	50                   	push   %eax
    2021:	8b 41 08             	mov    0x8(%ecx),%eax
    2024:	50                   	push   %eax
    2025:	e8 66 21 00 00       	call   4190 <rtl8139_memcpy_wrapped>
    202a:	83 c4 20             	add    $0x20,%esp
    202d:	8b 4d cc             	mov    -0x34(%ebp),%ecx
    2030:	85 c0                	test   %eax,%eax
    2032:	0f 84 2c 03 00 00    	je     2364 <rtl8139_interrupt_impl+0x6a4>
    2038:	52                   	push   %edx
    2039:	52                   	push   %edx
    203a:	51                   	push   %ecx
    203b:	8b 4d c4             	mov    -0x3c(%ebp),%ecx
    203e:	51                   	push   %ecx
    203f:	e8 2c bd 00 00       	call   dd70 <nic_frame_list_append>
    2044:	83 c4 10             	add    $0x10,%esp
    2047:	8d 74 1e 07          	lea    0x7(%esi,%ebx,1),%esi
    204b:	31 c0                	xor    %eax,%eax
    204d:	83 e6 fc             	and    $0xfffffffc,%esi
    2050:	53                   	push   %ebx
    2051:	53                   	push   %ebx
    2052:	8d 4e f0             	lea    -0x10(%esi),%ecx
    2055:	66 89 c8             	mov    %cx,%ax
    2058:	50                   	push   %eax
    2059:	8b 45 d0             	mov    -0x30(%ebp),%eax
    205c:	8b 40 04             	mov    0x4(%eax),%eax
    205f:	89 45 cc             	mov    %eax,-0x34(%ebp)
    2062:	83 c0 38             	add    $0x38,%eax
    2065:	50                   	push   %eax
    2066:	e8 65 18 01 00       	call   138d0 <pio_write_16@plt>
    206b:	0f ae f0             	mfence 
    206e:	83 c4 10             	add    $0x10,%esp
    2071:	8b 45 d0             	mov    -0x30(%ebp),%eax
    2074:	83 ec 0c             	sub    $0xc,%esp
    2077:	8b 40 04             	mov    0x4(%eax),%eax
    207a:	89 45 cc             	mov    %eax,-0x34(%ebp)
    207d:	83 c0 37             	add    $0x37,%eax
    2080:	50                   	push   %eax
    2081:	e8 7a 19 01 00       	call   13a00 <pio_read_16@plt>
    2086:	83 c4 10             	add    $0x10,%esp
    2089:	a8 01                	test   $0x1,%al
    208b:	0f 84 f7 fe ff ff    	je     1f88 <rtl8139_interrupt_impl+0x2c8>
    2091:	83 ec 0c             	sub    $0xc,%esp
    2094:	8b 5d b4             	mov    -0x4c(%ebp),%ebx
    2097:	53                   	push   %ebx
    2098:	e8 b3 18 01 00       	call   13950 <fibril_mutex_unlock@plt>
    209d:	8b 45 c4             	mov    -0x3c(%ebp),%eax
    20a0:	83 c4 10             	add    $0x10,%esp
    20a3:	85 c0                	test   %eax,%eax
    20a5:	0f 84 55 fc ff ff    	je     1d00 <rtl8139_interrupt_impl+0x40>
    20ab:	8b 4d d4             	mov    -0x2c(%ebp),%ecx
    20ae:	52                   	push   %edx
    20af:	52                   	push   %edx
    20b0:	50                   	push   %eax
    20b1:	51                   	push   %ecx
    20b2:	e8 e9 c0 00 00       	call   e1a0 <nic_received_frame_list>
    20b7:	83 c4 10             	add    $0x10,%esp
    20ba:	e9 41 fc ff ff       	jmp    1d00 <rtl8139_interrupt_impl+0x40>
    20bf:	90                   	nop
    20c0:	52                   	push   %edx
    20c1:	6a 01                	push   $0x1
    20c3:	6a 05                	push   $0x5
    20c5:	57                   	push   %edi
    20c6:	89 45 cc             	mov    %eax,-0x34(%ebp)
    20c9:	e8 b2 c7 00 00       	call   e880 <nic_report_send_error>
    20ce:	83 c4 10             	add    $0x10,%esp
    20d1:	8b 45 cc             	mov    -0x34(%ebp),%eax
    20d4:	e9 38 fd ff ff       	jmp    1e11 <rtl8139_interrupt_impl+0x151>
    20d9:	8d b4 26 00 00 00 00 	lea    0x0(%esi,%eiz,1),%esi
    20e0:	89 45 cc             	mov    %eax,-0x34(%ebp)
    20e3:	50                   	push   %eax
    20e4:	6a 01                	push   $0x1
    20e6:	6a 01                	push   $0x1
    20e8:	57                   	push   %edi
    20e9:	e8 92 c7 00 00       	call   e880 <nic_report_send_error>
    20ee:	83 c4 10             	add    $0x10,%esp
    20f1:	8b 45 cc             	mov    -0x34(%ebp),%eax
    20f4:	e9 18 fd ff ff       	jmp    1e11 <rtl8139_interrupt_impl+0x151>
    20f9:	8d b4 26 00 00 00 00 	lea    0x0(%esi,%eiz,1),%esi
    2100:	51                   	push   %ecx
    2101:	6a 01                	push   $0x1
    2103:	6a 02                	push   $0x2
    2105:	57                   	push   %edi
    2106:	89 45 cc             	mov    %eax,-0x34(%ebp)
    2109:	e8 72 c7 00 00       	call   e880 <nic_report_send_error>
    210e:	83 c4 10             	add    $0x10,%esp
    2111:	8b 45 cc             	mov    -0x34(%ebp),%eax
    2114:	e9 f8 fc ff ff       	jmp    1e11 <rtl8139_interrupt_impl+0x151>
    2119:	8d b4 26 00 00 00 00 	lea    0x0(%esi,%eiz,1),%esi
    2120:	89 45 cc             	mov    %eax,-0x34(%ebp)
    2123:	50                   	push   %eax
    2124:	6a 01                	push   $0x1
    2126:	6a 04                	push   $0x4
    2128:	57                   	push   %edi
    2129:	e8 52 c7 00 00       	call   e880 <nic_report_send_error>
    212e:	83 c4 10             	add    $0x10,%esp
    2131:	8b 45 cc             	mov    -0x34(%ebp),%eax
    2134:	e9 d8 fc ff ff       	jmp    1e11 <rtl8139_interrupt_impl+0x151>
    2139:	8d b4 26 00 00 00 00 	lea    0x0(%esi,%eiz,1),%esi
    2140:	83 ec 0c             	sub    $0xc,%esp
    2143:	8b 45 d4             	mov    -0x2c(%ebp),%eax
    2146:	50                   	push   %eax
    2147:	e8 44 c6 00 00       	call   e790 <nic_get_specific>
    214c:	83 c4 10             	add    $0x10,%esp
    214f:	89 c6                	mov    %eax,%esi
    2151:	85 c0                	test   %eax,%eax
    2153:	0f 84 5e 02 00 00    	je     23b7 <rtl8139_interrupt_impl+0x6f7>
    2159:	83 ec 0c             	sub    $0xc,%esp
    215c:	8b 40 04             	mov    0x4(%eax),%eax
    215f:	83 c0 4c             	add    $0x4c,%eax
    2162:	50                   	push   %eax
    2163:	e8 68 16 01 00       	call   137d0 <pio_read_32@plt>
    2168:	5f                   	pop    %edi
    2169:	89 c3                	mov    %eax,%ebx
    216b:	58                   	pop    %eax
    216c:	8b 46 04             	mov    0x4(%esi),%eax
    216f:	83 c0 4c             	add    $0x4c,%eax
    2172:	6a 00                	push   $0x0
    2174:	50                   	push   %eax
    2175:	e8 46 18 01 00       	call   139c0 <pio_write_32@plt>
    217a:	83 c4 0c             	add    $0xc,%esp
    217d:	8b 45 d4             	mov    -0x2c(%ebp),%eax
    2180:	81 e3 ff ff ff 00    	and    $0xffffff,%ebx
    2186:	53                   	push   %ebx
    2187:	6a 02                	push   $0x2
    2189:	50                   	push   %eax
    218a:	e8 b1 c7 00 00       	call   e940 <nic_report_receive_error>
    218f:	83 c4 10             	add    $0x10,%esp
    2192:	8d 65 f4             	lea    -0xc(%ebp),%esp
    2195:	5b                   	pop    %ebx
    2196:	5e                   	pop    %esi
    2197:	5f                   	pop    %edi
    2198:	5d                   	pop    %ebp
    2199:	c3                   	ret    
    219a:	8d b6 00 00 00 00    	lea    0x0(%esi),%esi
    21a0:	50                   	push   %eax
    21a1:	8b 45 d4             	mov    -0x2c(%ebp),%eax
    21a4:	6a 01                	push   $0x1
    21a6:	6a 05                	push   $0x5
    21a8:	50                   	push   %eax
    21a9:	e8 92 c7 00 00       	call   e940 <nic_report_receive_error>
    21ae:	83 c4 10             	add    $0x10,%esp
    21b1:	8d 65 f4             	lea    -0xc(%ebp),%esp
    21b4:	5b                   	pop    %ebx
    21b5:	5e                   	pop    %esi
    21b6:	5f                   	pop    %edi
    21b7:	5d                   	pop    %ebp
    21b8:	c3                   	ret    
    21b9:	8d b4 26 00 00 00 00 	lea    0x0(%esi,%eiz,1),%esi
    21c0:	05 00 40 00 00       	add    $0x4000,%eax
    21c5:	29 c8                	sub    %ecx,%eax
    21c7:	66 89 45 ba          	mov    %ax,-0x46(%ebp)
    21cb:	e9 aa fd ff ff       	jmp    1f7a <rtl8139_interrupt_impl+0x2ba>
    21d0:	83 ec 0c             	sub    $0xc,%esp
    21d3:	8b 45 b4             	mov    -0x4c(%ebp),%eax
    21d6:	50                   	push   %eax
    21d7:	e8 74 17 01 00       	call   13950 <fibril_mutex_unlock@plt>
    21dc:	83 c4 10             	add    $0x10,%esp
    21df:	e9 1c fb ff ff       	jmp    1d00 <rtl8139_interrupt_impl+0x40>
    21e4:	50                   	push   %eax
    21e5:	50                   	push   %eax
    21e6:	68 74 10 01 00       	push   $0x11074
    21eb:	6a 01                	push   $0x1
    21ed:	e8 ce 33 00 00       	call   55c0 <ddf_msg>
    21f2:	83 c4 10             	add    $0x10,%esp
    21f5:	e9 2e fd ff ff       	jmp    1f28 <rtl8139_interrupt_impl+0x268>
    21fa:	8d b6 00 00 00 00    	lea    0x0(%esi),%esi
    2200:	50                   	push   %eax
    2201:	50                   	push   %eax
    2202:	68 a8 10 01 00       	push   $0x110a8
    2207:	6a 04                	push   $0x4
    2209:	e8 b2 33 00 00       	call   55c0 <ddf_msg>
    220e:	83 c4 10             	add    $0x10,%esp
    2211:	e9 7b fe ff ff       	jmp    2091 <rtl8139_interrupt_impl+0x3d1>
    2216:	66 90                	xchg   %ax,%ax
    2218:	83 ec 0c             	sub    $0xc,%esp
    221b:	89 f1                	mov    %esi,%ecx
    221d:	31 f6                	xor    %esi,%esi
    221f:	66 89 ce             	mov    %cx,%si
    2222:	56                   	push   %esi
    2223:	50                   	push   %eax
    2224:	53                   	push   %ebx
    2225:	68 d8 10 01 00       	push   $0x110d8
    222a:	6a 01                	push   $0x1
    222c:	e8 8f 33 00 00       	call   55c0 <ddf_msg>
    2231:	83 c4 20             	add    $0x20,%esp
    2234:	8b 75 d0             	mov    -0x30(%ebp),%esi
    2237:	83 ec 0c             	sub    $0xc,%esp
    223a:	8b 46 04             	mov    0x4(%esi),%eax
    223d:	8d 7e 50             	lea    0x50(%esi),%edi
    2240:	89 45 d0             	mov    %eax,-0x30(%ebp)
    2243:	83 c0 37             	add    $0x37,%eax
    2246:	50                   	push   %eax
    2247:	e8 34 16 01 00       	call   13880 <pio_read_8@plt>
    224c:	88 c3                	mov    %al,%bl
    224e:	58                   	pop    %eax
    224f:	5a                   	pop    %edx
    2250:	68 c0 00 00 00       	push   $0xc0
    2255:	57                   	push   %edi
    2256:	e8 b5 16 01 00       	call   13910 <pio_write_8@plt>
    225b:	59                   	pop    %ecx
    225c:	58                   	pop    %eax
    225d:	89 d8                	mov    %ebx,%eax
    225f:	88 5d d0             	mov    %bl,-0x30(%ebp)
    2262:	25 f7 00 00 00       	and    $0xf7,%eax
    2267:	50                   	push   %eax
    2268:	8b 46 04             	mov    0x4(%esi),%eax
    226b:	89 45 cc             	mov    %eax,-0x34(%ebp)
    226e:	83 c0 37             	add    $0x37,%eax
    2271:	50                   	push   %eax
    2272:	e8 99 16 01 00       	call   13910 <pio_write_8@plt>
    2277:	58                   	pop    %eax
    2278:	8b 46 04             	mov    0x4(%esi),%eax
    227b:	89 45 cc             	mov    %eax,-0x34(%ebp)
    227e:	83 c0 38             	add    $0x38,%eax
    2281:	5a                   	pop    %edx
    2282:	6a 00                	push   $0x0
    2284:	50                   	push   %eax
    2285:	e8 36 17 01 00       	call   139c0 <pio_write_32@plt>
    228a:	8b 46 04             	mov    0x4(%esi),%eax
    228d:	8b 56 30             	mov    0x30(%esi),%edx
    2290:	89 45 cc             	mov    %eax,-0x34(%ebp)
    2293:	83 c0 30             	add    $0x30,%eax
    2296:	59                   	pop    %ecx
    2297:	5b                   	pop    %ebx
    2298:	52                   	push   %edx
    2299:	50                   	push   %eax
    229a:	e8 21 17 01 00       	call   139c0 <pio_write_32@plt>
    229f:	8b 46 38             	mov    0x38(%esi),%eax
    22a2:	89 c3                	mov    %eax,%ebx
    22a4:	31 c0                	xor    %eax,%eax
    22a6:	8a 46 3c             	mov    0x3c(%esi),%al
    22a9:	80 cf 08             	or     $0x8,%bh
    22ac:	09 c3                	or     %eax,%ebx
    22ae:	31 c0                	xor    %eax,%eax
    22b0:	8a 46 3d             	mov    0x3d(%esi),%al
    22b3:	09 c3                	or     %eax,%ebx
    22b5:	31 c0                	xor    %eax,%eax
    22b7:	8a 46 3e             	mov    0x3e(%esi),%al
    22ba:	09 c3                	or     %eax,%ebx
    22bc:	31 c0                	xor    %eax,%eax
    22be:	8a 46 3f             	mov    0x3f(%esi),%al
    22c1:	09 c3                	or     %eax,%ebx
    22c3:	8b 46 04             	mov    0x4(%esi),%eax
    22c6:	89 45 cc             	mov    %eax,-0x34(%ebp)
    22c9:	83 c0 44             	add    $0x44,%eax
    22cc:	89 04 24             	mov    %eax,(%esp)
    22cf:	e8 fc 14 01 00       	call   137d0 <pio_read_32@plt>
    22d4:	53                   	push   %ebx
    22d5:	50                   	push   %eax
    22d6:	68 dd 0e 01 00       	push   $0x10edd
    22db:	6a 04                	push   $0x4
    22dd:	e8 de 32 00 00       	call   55c0 <ddf_msg>
    22e2:	83 c4 18             	add    $0x18,%esp
    22e5:	8b 46 04             	mov    0x4(%esi),%eax
    22e8:	53                   	push   %ebx
    22e9:	89 45 cc             	mov    %eax,-0x34(%ebp)
    22ec:	89 f3                	mov    %esi,%ebx
    22ee:	83 c0 44             	add    $0x44,%eax
    22f1:	50                   	push   %eax
    22f2:	e8 c9 16 01 00       	call   139c0 <pio_write_32@plt>
    22f7:	59                   	pop    %ecx
    22f8:	5e                   	pop    %esi
    22f9:	0f b6 75 d0          	movzbl -0x30(%ebp),%esi
    22fd:	8b 43 04             	mov    0x4(%ebx),%eax
    2300:	81 e6 ff 00 00 00    	and    $0xff,%esi
    2306:	89 45 d0             	mov    %eax,-0x30(%ebp)
    2309:	83 c0 37             	add    $0x37,%eax
    230c:	56                   	push   %esi
    230d:	50                   	push   %eax
    230e:	e8 fd 15 01 00       	call   13910 <pio_write_8@plt>
    2313:	58                   	pop    %eax
    2314:	5a                   	pop    %edx
    2315:	6a 00                	push   $0x0
    2317:	57                   	push   %edi
    2318:	e8 f3 15 01 00       	call   13910 <pio_write_8@plt>
    231d:	83 c4 0c             	add    $0xc,%esp
    2320:	8b 4b 78             	mov    0x78(%ebx),%ecx
    2323:	6a 01                	push   $0x1
    2325:	6a 07                	push   $0x7
    2327:	51                   	push   %ecx
    2328:	e8 13 c6 00 00       	call   e940 <nic_report_receive_error>
    232d:	83 c4 10             	add    $0x10,%esp
    2330:	e9 5c fd ff ff       	jmp    2091 <rtl8139_interrupt_impl+0x3d1>
    2335:	8d 76 00             	lea    0x0(%esi),%esi
    2338:	52                   	push   %edx
    2339:	52                   	push   %edx
    233a:	68 4c 11 01 00       	push   $0x1114c
    233f:	6a 01                	push   $0x1
    2341:	e8 7a 32 00 00       	call   55c0 <ddf_msg>
    2346:	83 c4 10             	add    $0x10,%esp
    2349:	e9 f9 fc ff ff       	jmp    2047 <rtl8139_interrupt_impl+0x387>
    234e:	50                   	push   %eax
    234f:	53                   	push   %ebx
    2350:	68 24 11 01 00       	push   $0x11124
    2355:	6a 01                	push   $0x1
    2357:	e8 64 32 00 00       	call   55c0 <ddf_msg>
    235c:	83 c4 10             	add    $0x10,%esp
    235f:	e9 d0 fe ff ff       	jmp    2234 <rtl8139_interrupt_impl+0x574>
    2364:	50                   	push   %eax
    2365:	50                   	push   %eax
    2366:	8b 45 d4             	mov    -0x2c(%ebp),%eax
    2369:	51                   	push   %ecx
    236a:	50                   	push   %eax
    236b:	e8 b0 b8 00 00       	call   dc20 <nic_release_frame>
    2370:	83 c4 10             	add    $0x10,%esp
    2373:	e9 cf fc ff ff       	jmp    2047 <rtl8139_interrupt_impl+0x387>
    2378:	50                   	push   %eax
    2379:	68 2c 03 00 00       	push   $0x32c
    237e:	68 d1 15 01 00       	push   $0x115d1
    2383:	68 57 0e 01 00       	push   $0x10e57
    2388:	e8 13 15 01 00       	call   138a0 <assert_abort@plt>
    238d:	53                   	push   %ebx
    238e:	68 18 03 00 00       	push   $0x318
    2393:	68 d1 15 01 00       	push   $0x115d1
    2398:	68 b5 0e 01 00       	push   $0x10eb5
    239d:	e8 fe 14 01 00       	call   138a0 <assert_abort@plt>
    23a2:	57                   	push   %edi
    23a3:	68 13 03 00 00       	push   $0x313
    23a8:	68 d1 15 01 00       	push   $0x115d1
    23ad:	68 4f 0e 01 00       	push   $0x10e4f
    23b2:	e8 e9 14 01 00       	call   138a0 <assert_abort@plt>
    23b7:	50                   	push   %eax
    23b8:	68 4b 03 00 00       	push   $0x34b
    23bd:	68 d1 15 01 00       	push   $0x115d1
    23c2:	68 4f 0e 01 00       	push   $0x10e4f
    23c7:	e8 d4 14 01 00       	call   138a0 <assert_abort@plt>
    23cc:	53                   	push   %ebx
    23cd:	68 ff 02 00 00       	push   $0x2ff
    23d2:	68 d1 15 01 00       	push   $0x115d1
    23d7:	68 4f 0e 01 00       	push   $0x10e4f
    23dc:	e8 bf 14 01 00       	call   138a0 <assert_abort@plt>
    23e1:	eb 0d                	jmp    23f0 <rtl8139_poll>
    23e3:	90                   	nop
    23e4:	90                   	nop
    23e5:	90                   	nop
    23e6:	90                   	nop
    23e7:	90                   	nop
    23e8:	90                   	nop
    23e9:	90                   	nop
    23ea:	90                   	nop
    23eb:	90                   	nop
    23ec:	90                   	nop
    23ed:	90                   	nop
    23ee:	90                   	nop
    23ef:	90                   	nop

000023f0 <rtl8139_poll>:
    23f0:	55                   	push   %ebp
    23f1:	89 e5                	mov    %esp,%ebp
    23f3:	57                   	push   %edi
    23f4:	56                   	push   %esi
    23f5:	53                   	push   %ebx
    23f6:	83 ec 0c             	sub    $0xc,%esp
    23f9:	8b 5d 08             	mov    0x8(%ebp),%ebx
    23fc:	85 db                	test   %ebx,%ebx
    23fe:	74 49                	je     2449 <rtl8139_poll+0x59>
    2400:	83 ec 0c             	sub    $0xc,%esp
    2403:	53                   	push   %ebx
    2404:	e8 87 c3 00 00       	call   e790 <nic_get_specific>
    2409:	83 c4 10             	add    $0x10,%esp
    240c:	89 c7                	mov    %eax,%edi
    240e:	85 c0                	test   %eax,%eax
    2410:	74 4c                	je     245e <rtl8139_poll+0x6e>
    2412:	83 ec 0c             	sub    $0xc,%esp
    2415:	8b 40 04             	mov    0x4(%eax),%eax
    2418:	83 c0 3e             	add    $0x3e,%eax
    241b:	50                   	push   %eax
    241c:	e8 df 15 01 00       	call   13a00 <pio_read_16@plt>
    2421:	89 c6                	mov    %eax,%esi
    2423:	58                   	pop    %eax
    2424:	5a                   	pop    %edx
    2425:	6a 00                	push   $0x0
    2427:	8b 47 04             	mov    0x4(%edi),%eax
    242a:	83 c0 3e             	add    $0x3e,%eax
    242d:	50                   	push   %eax
    242e:	e8 9d 14 01 00       	call   138d0 <pio_write_16@plt>
    2433:	83 c4 10             	add    $0x10,%esp
    2436:	31 d2                	xor    %edx,%edx
    2438:	8d 65 f4             	lea    -0xc(%ebp),%esp
    243b:	66 89 f2             	mov    %si,%dx
    243e:	89 d8                	mov    %ebx,%eax
    2440:	5b                   	pop    %ebx
    2441:	5e                   	pop    %esi
    2442:	5f                   	pop    %edi
    2443:	5d                   	pop    %ebp
    2444:	e9 77 f8 ff ff       	jmp    1cc0 <rtl8139_interrupt_impl>
    2449:	53                   	push   %ebx
    244a:	68 6a 08 00 00       	push   $0x86a
    244f:	68 d1 15 01 00       	push   $0x115d1
    2454:	68 57 0e 01 00       	push   $0x10e57
    2459:	e8 42 14 01 00       	call   138a0 <assert_abort@plt>
    245e:	51                   	push   %ecx
    245f:	68 6d 08 00 00       	push   $0x86d
    2464:	68 d1 15 01 00       	push   $0x115d1
    2469:	68 4f 0e 01 00       	push   $0x10e4f
    246e:	e8 2d 14 01 00       	call   138a0 <assert_abort@plt>
    2473:	8d b6 00 00 00 00    	lea    0x0(%esi),%esi
    2479:	8d bc 27 00 00 00 00 	lea    0x0(%edi,%eiz,1),%edi

00002480 <rtl8139_interrupt_handler>:
    2480:	55                   	push   %ebp
    2481:	89 e5                	mov    %esp,%ebp
    2483:	57                   	push   %edi
    2484:	56                   	push   %esi
    2485:	53                   	push   %ebx
    2486:	83 ec 0c             	sub    $0xc,%esp
    2489:	8b 45 10             	mov    0x10(%ebp),%eax
    248c:	8b 55 0c             	mov    0xc(%ebp),%edx
    248f:	85 c0                	test   %eax,%eax
    2491:	74 49                	je     24dc <rtl8139_interrupt_handler+0x5c>
    2493:	85 d2                	test   %edx,%edx
    2495:	74 5a                	je     24f1 <rtl8139_interrupt_handler+0x71>
    2497:	83 ec 0c             	sub    $0xc,%esp
    249a:	8b 5a 08             	mov    0x8(%edx),%ebx
    249d:	50                   	push   %eax
    249e:	e8 5d c3 00 00       	call   e800 <nic_get_from_ddf_dev>
    24a3:	89 c7                	mov    %eax,%edi
    24a5:	89 04 24             	mov    %eax,(%esp)
    24a8:	e8 e3 c2 00 00       	call   e790 <nic_get_specific>
    24ad:	31 d2                	xor    %edx,%edx
    24af:	89 c6                	mov    %eax,%esi
    24b1:	66 89 da             	mov    %bx,%dx
    24b4:	89 f8                	mov    %edi,%eax
    24b6:	e8 05 f8 ff ff       	call   1cc0 <rtl8139_interrupt_impl>
    24bb:	31 c0                	xor    %eax,%eax
    24bd:	66 8b 46 0c          	mov    0xc(%esi),%ax
    24c1:	83 c4 10             	add    $0x10,%esp
    24c4:	89 45 0c             	mov    %eax,0xc(%ebp)
    24c7:	8b 46 04             	mov    0x4(%esi),%eax
    24ca:	83 c0 3c             	add    $0x3c,%eax
    24cd:	89 45 08             	mov    %eax,0x8(%ebp)
    24d0:	8d 65 f4             	lea    -0xc(%ebp),%esp
    24d3:	5b                   	pop    %ebx
    24d4:	5e                   	pop    %esi
    24d5:	5f                   	pop    %edi
    24d6:	5d                   	pop    %ebp
    24d7:	e9 f4 13 01 00       	jmp    138d0 <pio_write_16@plt>
    24dc:	52                   	push   %edx
    24dd:	68 5e 03 00 00       	push   $0x35e
    24e2:	68 d1 15 01 00       	push   $0x115d1
    24e7:	68 f5 0e 01 00       	push   $0x10ef5
    24ec:	e8 af 13 01 00       	call   138a0 <assert_abort@plt>
    24f1:	50                   	push   %eax
    24f2:	68 5f 03 00 00       	push   $0x35f
    24f7:	68 d1 15 01 00       	push   $0x115d1
    24fc:	68 f9 0e 01 00       	push   $0x10ef9
    2501:	e8 9a 13 01 00       	call   138a0 <assert_abort@plt>
    2506:	8d 76 00             	lea    0x0(%esi),%esi
    2509:	8d bc 27 00 00 00 00 	lea    0x0(%edi,%eiz,1),%edi

00002510 <rtl8139_wol_virtue_add>:
    2510:	55                   	push   %ebp
    2511:	89 e5                	mov    %esp,%ebp
    2513:	57                   	push   %edi
    2514:	56                   	push   %esi
    2515:	53                   	push   %ebx
    2516:	83 ec 2c             	sub    $0x2c,%esp
    2519:	8b 45 08             	mov    0x8(%ebp),%eax
    251c:	8b 75 0c             	mov    0xc(%ebp),%esi
    251f:	85 c0                	test   %eax,%eax
    2521:	0f 84 f4 01 00 00    	je     271b <rtl8139_wol_virtue_add+0x20b>
    2527:	85 f6                	test   %esi,%esi
    2529:	0f 84 d7 01 00 00    	je     2706 <rtl8139_wol_virtue_add+0x1f6>
    252f:	83 ec 0c             	sub    $0xc,%esp
    2532:	50                   	push   %eax
    2533:	e8 58 c2 00 00       	call   e790 <nic_get_specific>
    2538:	83 c4 10             	add    $0x10,%esp
    253b:	89 c3                	mov    %eax,%ebx
    253d:	85 c0                	test   %eax,%eax
    253f:	0f 84 ac 01 00 00    	je     26f1 <rtl8139_wol_virtue_add+0x1e1>
    2545:	8b 46 0c             	mov    0xc(%esi),%eax
    2548:	83 f8 02             	cmp    $0x2,%eax
    254b:	0f 84 67 01 00 00    	je     26b8 <rtl8139_wol_virtue_add+0x1a8>
    2551:	83 f8 04             	cmp    $0x4,%eax
    2554:	74 1a                	je     2570 <rtl8139_wol_virtue_add+0x60>
    2556:	48                   	dec    %eax
    2557:	0f 84 03 01 00 00    	je     2660 <rtl8139_wol_virtue_add+0x150>
    255d:	8d 65 f4             	lea    -0xc(%ebp),%esp
    2560:	be f2 ff ff ff       	mov    $0xfffffff2,%esi
    2565:	89 f0                	mov    %esi,%eax
    2567:	5b                   	pop    %ebx
    2568:	5e                   	pop    %esi
    2569:	5f                   	pop    %edi
    256a:	5d                   	pop    %ebp
    256b:	c3                   	ret    
    256c:	8d 74 26 00          	lea    0x0(%esi,%eiz,1),%esi
    2570:	83 ec 0c             	sub    $0xc,%esp
    2573:	8b 43 04             	mov    0x4(%ebx),%eax
    2576:	05 d8 00 00 00       	add    $0xd8,%eax
    257b:	50                   	push   %eax
    257c:	e8 ff 12 01 00       	call   13880 <pio_read_8@plt>
    2581:	83 c8 40             	or     $0x40,%eax
    2584:	5e                   	pop    %esi
    2585:	88 c1                	mov    %al,%cl
    2587:	31 c0                	xor    %eax,%eax
    2589:	88 c8                	mov    %cl,%al
    258b:	5f                   	pop    %edi
    258c:	50                   	push   %eax
    258d:	8b 43 04             	mov    0x4(%ebx),%eax
    2590:	05 d8 00 00 00       	add    $0xd8,%eax
    2595:	50                   	push   %eax
    2596:	e8 75 13 01 00       	call   13910 <pio_write_8@plt>
    259b:	83 c4 10             	add    $0x10,%esp
    259e:	8b 73 40             	mov    0x40(%ebx),%esi
    25a1:	85 f6                	test   %esi,%esi
    25a3:	8d 46 01             	lea    0x1(%esi),%eax
    25a6:	89 43 40             	mov    %eax,0x40(%ebx)
    25a9:	74 0d                	je     25b8 <rtl8139_wol_virtue_add+0xa8>
    25ab:	8d 65 f4             	lea    -0xc(%ebp),%esp
    25ae:	31 f6                	xor    %esi,%esi
    25b0:	89 f0                	mov    %esi,%eax
    25b2:	5b                   	pop    %ebx
    25b3:	5e                   	pop    %esi
    25b4:	5f                   	pop    %edi
    25b5:	5d                   	pop    %ebp
    25b6:	c3                   	ret    
    25b7:	90                   	nop
    25b8:	83 ec 0c             	sub    $0xc,%esp
    25bb:	8b 43 04             	mov    0x4(%ebx),%eax
    25be:	83 c0 52             	add    $0x52,%eax
    25c1:	50                   	push   %eax
    25c2:	e8 b9 12 01 00       	call   13880 <pio_read_8@plt>
    25c7:	89 c7                	mov    %eax,%edi
    25c9:	83 c4 10             	add    $0x10,%esp
    25cc:	83 cf 01             	or     $0x1,%edi
    25cf:	89 f9                	mov    %edi,%ecx
    25d1:	88 4d d7             	mov    %cl,-0x29(%ebp)
    25d4:	38 c8                	cmp    %cl,%al
    25d6:	74 d3                	je     25ab <rtl8139_wol_virtue_add+0x9b>
    25d8:	50                   	push   %eax
    25d9:	50                   	push   %eax
    25da:	8b 43 04             	mov    0x4(%ebx),%eax
    25dd:	68 c0 00 00 00       	push   $0xc0
    25e2:	83 c0 50             	add    $0x50,%eax
    25e5:	50                   	push   %eax
    25e6:	e8 25 13 01 00       	call   13910 <pio_write_8@plt>
    25eb:	0f b6 7d d7          	movzbl -0x29(%ebp),%edi
    25ef:	8b 43 04             	mov    0x4(%ebx),%eax
    25f2:	81 e7 ff 00 00 00    	and    $0xff,%edi
    25f8:	83 c0 52             	add    $0x52,%eax
    25fb:	5a                   	pop    %edx
    25fc:	59                   	pop    %ecx
    25fd:	57                   	push   %edi
    25fe:	50                   	push   %eax
    25ff:	e8 0c 13 01 00       	call   13910 <pio_write_8@plt>
    2604:	5f                   	pop    %edi
    2605:	58                   	pop    %eax
    2606:	8b 43 04             	mov    0x4(%ebx),%eax
    2609:	6a 00                	push   $0x0
    260b:	83 c0 50             	add    $0x50,%eax
    260e:	50                   	push   %eax
    260f:	e8 fc 12 01 00       	call   13910 <pio_write_8@plt>
    2614:	58                   	pop    %eax
    2615:	8b 43 78             	mov    0x78(%ebx),%eax
    2618:	50                   	push   %eax
    2619:	e8 b2 c1 00 00       	call   e7d0 <nic_get_ddf_dev>
    261e:	89 04 24             	mov    %eax,(%esp)
    2621:	e8 0a 27 00 00       	call   4d30 <ddf_dev_parent_sess_get>
    2626:	83 c4 0c             	add    $0xc,%esp
    2629:	89 c3                	mov    %eax,%ebx
    262b:	8d 45 e7             	lea    -0x19(%ebp),%eax
    262e:	50                   	push   %eax
    262f:	6a 55                	push   $0x55
    2631:	53                   	push   %ebx
    2632:	e8 99 96 00 00       	call   bcd0 <pci_config_space_read_8>
    2637:	8a 45 e7             	mov    -0x19(%ebp),%al
    263a:	83 c4 0c             	add    $0xc,%esp
    263d:	83 c8 81             	or     $0xffffff81,%eax
    2640:	88 c2                	mov    %al,%dl
    2642:	31 c0                	xor    %eax,%eax
    2644:	88 d0                	mov    %dl,%al
    2646:	50                   	push   %eax
    2647:	6a 55                	push   $0x55
    2649:	53                   	push   %ebx
    264a:	e8 a1 97 00 00       	call   bdf0 <pci_config_space_write_8>
    264f:	83 c4 10             	add    $0x10,%esp
    2652:	8d 65 f4             	lea    -0xc(%ebp),%esp
    2655:	89 f0                	mov    %esi,%eax
    2657:	5b                   	pop    %ebx
    2658:	5e                   	pop    %esi
    2659:	5f                   	pop    %edi
    265a:	5d                   	pop    %ebp
    265b:	c3                   	ret    
    265c:	8d 74 26 00          	lea    0x0(%esi,%eiz,1),%esi
    2660:	50                   	push   %eax
    2661:	50                   	push   %eax
    2662:	8b 43 04             	mov    0x4(%ebx),%eax
    2665:	68 c0 00 00 00       	push   $0xc0
    266a:	83 c0 50             	add    $0x50,%eax
    266d:	50                   	push   %eax
    266e:	e8 9d 12 01 00       	call   13910 <pio_write_8@plt>
    2673:	8b 43 04             	mov    0x4(%ebx),%eax
    2676:	83 c0 59             	add    $0x59,%eax
    2679:	89 04 24             	mov    %eax,(%esp)
    267c:	e8 ff 11 01 00       	call   13880 <pio_read_8@plt>
    2681:	83 c8 10             	or     $0x10,%eax
    2684:	5a                   	pop    %edx
    2685:	59                   	pop    %ecx
    2686:	88 c1                	mov    %al,%cl
    2688:	31 c0                	xor    %eax,%eax
    268a:	88 c8                	mov    %cl,%al
    268c:	50                   	push   %eax
    268d:	8b 43 04             	mov    0x4(%ebx),%eax
    2690:	83 c0 59             	add    $0x59,%eax
    2693:	50                   	push   %eax
    2694:	e8 77 12 01 00       	call   13910 <pio_write_8@plt>
    2699:	58                   	pop    %eax
    269a:	8b 43 04             	mov    0x4(%ebx),%eax
    269d:	83 c0 50             	add    $0x50,%eax
    26a0:	5a                   	pop    %edx
    26a1:	6a 00                	push   $0x0
    26a3:	50                   	push   %eax
    26a4:	e8 67 12 01 00       	call   13910 <pio_write_8@plt>
    26a9:	83 c4 10             	add    $0x10,%esp
    26ac:	e9 ed fe ff ff       	jmp    259e <rtl8139_wol_virtue_add+0x8e>
    26b1:	8d b4 26 00 00 00 00 	lea    0x0(%esi,%eiz,1),%esi
    26b8:	8b 46 10             	mov    0x10(%esi),%eax
    26bb:	85 c0                	test   %eax,%eax
    26bd:	0f 85 9a fe ff ff    	jne    255d <rtl8139_wol_virtue_add+0x4d>
    26c3:	51                   	push   %ecx
    26c4:	51                   	push   %ecx
    26c5:	8b 43 04             	mov    0x4(%ebx),%eax
    26c8:	68 c0 00 00 00       	push   $0xc0
    26cd:	83 c0 50             	add    $0x50,%eax
    26d0:	50                   	push   %eax
    26d1:	e8 3a 12 01 00       	call   13910 <pio_write_8@plt>
    26d6:	8b 43 04             	mov    0x4(%ebx),%eax
    26d9:	83 c0 59             	add    $0x59,%eax
    26dc:	89 04 24             	mov    %eax,(%esp)
    26df:	e8 9c 11 01 00       	call   13880 <pio_read_8@plt>
    26e4:	83 c8 20             	or     $0x20,%eax
    26e7:	5e                   	pop    %esi
    26e8:	88 c2                	mov    %al,%dl
    26ea:	31 c0                	xor    %eax,%eax
    26ec:	5f                   	pop    %edi
    26ed:	88 d0                	mov    %dl,%al
    26ef:	eb 9b                	jmp    268c <rtl8139_wol_virtue_add+0x17c>
    26f1:	50                   	push   %eax
    26f2:	68 e2 07 00 00       	push   $0x7e2
    26f7:	68 d1 15 01 00       	push   $0x115d1
    26fc:	68 4f 0e 01 00       	push   $0x10e4f
    2701:	e8 9a 11 01 00       	call   138a0 <assert_abort@plt>
    2706:	50                   	push   %eax
    2707:	68 df 07 00 00       	push   $0x7df
    270c:	68 d1 15 01 00       	push   $0x115d1
    2711:	68 ff 0e 01 00       	push   $0x10eff
    2716:	e8 85 11 01 00       	call   138a0 <assert_abort@plt>
    271b:	50                   	push   %eax
    271c:	68 de 07 00 00       	push   $0x7de
    2721:	68 d1 15 01 00       	push   $0x115d1
    2726:	68 57 0e 01 00       	push   $0x10e57
    272b:	e8 70 11 01 00       	call   138a0 <assert_abort@plt>

00002730 <rtl8139_set_addr>:
    2730:	55                   	push   %ebp
    2731:	89 e5                	mov    %esp,%ebp
    2733:	57                   	push   %edi
    2734:	56                   	push   %esi
    2735:	53                   	push   %ebx
    2736:	83 ec 1c             	sub    $0x1c,%esp
    2739:	8b 45 08             	mov    0x8(%ebp),%eax
    273c:	85 c0                	test   %eax,%eax
    273e:	0f 84 fc 00 00 00    	je     2840 <rtl8139_set_addr+0x110>
    2744:	8b 7d 0c             	mov    0xc(%ebp),%edi
    2747:	85 ff                	test   %edi,%edi
    2749:	0f 84 dc 00 00 00    	je     282b <rtl8139_set_addr+0xfb>
    274f:	83 ec 0c             	sub    $0xc,%esp
    2752:	50                   	push   %eax
    2753:	e8 b8 c0 00 00       	call   e810 <nic_get_from_ddf_fun>
    2758:	89 04 24             	mov    %eax,(%esp)
    275b:	89 c3                	mov    %eax,%ebx
    275d:	e8 2e c0 00 00       	call   e790 <nic_get_specific>
    2762:	83 c4 10             	add    $0x10,%esp
    2765:	89 c6                	mov    %eax,%esi
    2767:	85 c0                	test   %eax,%eax
    2769:	0f 84 a7 00 00 00    	je     2816 <rtl8139_set_addr+0xe6>
    276f:	83 ec 0c             	sub    $0xc,%esp
    2772:	8d 40 54             	lea    0x54(%eax),%eax
    2775:	8d 7e 44             	lea    0x44(%esi),%edi
    2778:	89 45 e4             	mov    %eax,-0x1c(%ebp)
    277b:	50                   	push   %eax
    277c:	e8 6f 15 01 00       	call   13cf0 <fibril_mutex_lock@plt>
    2781:	89 3c 24             	mov    %edi,(%esp)
    2784:	e8 67 15 01 00       	call   13cf0 <fibril_mutex_lock@plt>
    2789:	8b 4d 0c             	mov    0xc(%ebp),%ecx
    278c:	58                   	pop    %eax
    278d:	5a                   	pop    %edx
    278e:	51                   	push   %ecx
    278f:	53                   	push   %ebx
    2790:	e8 bb b6 00 00       	call   de50 <nic_report_address>
    2795:	83 c4 10             	add    $0x10,%esp
    2798:	89 45 e0             	mov    %eax,-0x20(%ebp)
    279b:	85 c0                	test   %eax,%eax
    279d:	75 71                	jne    2810 <rtl8139_set_addr+0xe0>
    279f:	51                   	push   %ecx
    27a0:	51                   	push   %ecx
    27a1:	8b 46 04             	mov    0x4(%esi),%eax
    27a4:	68 c0 00 00 00       	push   $0xc0
    27a9:	8d 48 50             	lea    0x50(%eax),%ecx
    27ac:	51                   	push   %ecx
    27ad:	e8 5e 11 01 00       	call   13910 <pio_write_8@plt>
    27b2:	5b                   	pop    %ebx
    27b3:	58                   	pop    %eax
    27b4:	8b 45 0c             	mov    0xc(%ebp),%eax
    27b7:	8b 00                	mov    (%eax),%eax
    27b9:	50                   	push   %eax
    27ba:	8b 46 04             	mov    0x4(%esi),%eax
    27bd:	50                   	push   %eax
    27be:	e8 fd 11 01 00       	call   139c0 <pio_write_32@plt>
    27c3:	58                   	pop    %eax
    27c4:	8b 45 0c             	mov    0xc(%ebp),%eax
    27c7:	31 c9                	xor    %ecx,%ecx
    27c9:	5a                   	pop    %edx
    27ca:	66 8b 48 04          	mov    0x4(%eax),%cx
    27ce:	8b 46 04             	mov    0x4(%esi),%eax
    27d1:	51                   	push   %ecx
    27d2:	8d 48 04             	lea    0x4(%eax),%ecx
    27d5:	51                   	push   %ecx
    27d6:	e8 e5 11 01 00       	call   139c0 <pio_write_32@plt>
    27db:	8b 56 04             	mov    0x4(%esi),%edx
    27de:	59                   	pop    %ecx
    27df:	83 c2 50             	add    $0x50,%edx
    27e2:	5b                   	pop    %ebx
    27e3:	6a 00                	push   $0x0
    27e5:	52                   	push   %edx
    27e6:	e8 25 11 01 00       	call   13910 <pio_write_8@plt>
    27eb:	89 3c 24             	mov    %edi,(%esp)
    27ee:	e8 5d 11 01 00       	call   13950 <fibril_mutex_unlock@plt>
    27f3:	8b 55 e4             	mov    -0x1c(%ebp),%edx
    27f6:	58                   	pop    %eax
    27f7:	52                   	push   %edx
    27f8:	e8 53 11 01 00       	call   13950 <fibril_mutex_unlock@plt>
    27fd:	8b 45 e0             	mov    -0x20(%ebp),%eax
    2800:	83 c4 10             	add    $0x10,%esp
    2803:	8d 65 f4             	lea    -0xc(%ebp),%esp
    2806:	5b                   	pop    %ebx
    2807:	5e                   	pop    %esi
    2808:	5f                   	pop    %edi
    2809:	5d                   	pop    %ebp
    280a:	c3                   	ret    
    280b:	90                   	nop
    280c:	8d 74 26 00          	lea    0x0(%esi,%eiz,1),%esi
    2810:	83 ec 0c             	sub    $0xc,%esp
    2813:	57                   	push   %edi
    2814:	eb d8                	jmp    27ee <rtl8139_set_addr+0xbe>
    2816:	53                   	push   %ebx
    2817:	68 64 05 00 00       	push   $0x564
    281c:	68 d1 15 01 00       	push   $0x115d1
    2821:	68 4f 0e 01 00       	push   $0x10e4f
    2826:	e8 75 10 01 00       	call   138a0 <assert_abort@plt>
    282b:	56                   	push   %esi
    282c:	68 60 05 00 00       	push   $0x560
    2831:	68 d1 15 01 00       	push   $0x115d1
    2836:	68 87 32 01 00       	push   $0x13287
    283b:	e8 60 10 01 00       	call   138a0 <assert_abort@plt>
    2840:	50                   	push   %eax
    2841:	68 5f 05 00 00       	push   $0x55f
    2846:	68 d1 15 01 00       	push   $0x115d1
    284b:	68 39 0e 01 00       	push   $0x10e39
    2850:	e8 4b 10 01 00       	call   138a0 <assert_abort@plt>
    2855:	8d 74 26 00          	lea    0x0(%esi,%eiz,1),%esi
    2859:	8d bc 27 00 00 00 00 	lea    0x0(%edi,%eiz,1),%edi

00002860 <rtl8139_dev_add>:
    2860:	55                   	push   %ebp
    2861:	89 e5                	mov    %esp,%ebp
    2863:	57                   	push   %edi
    2864:	56                   	push   %esi
    2865:	53                   	push   %ebx
    2866:	83 ec 3c             	sub    $0x3c,%esp
    2869:	8b 7d 08             	mov    0x8(%ebp),%edi
    286c:	85 ff                	test   %edi,%edi
    286e:	0f 84 af 09 00 00    	je     3223 <rtl8139_dev_add+0x9c3>
    2874:	83 ec 0c             	sub    $0xc,%esp
    2877:	57                   	push   %edi
    2878:	e8 53 24 00 00       	call   4cd0 <ddf_dev_get_handle>
    287d:	89 3c 24             	mov    %edi,(%esp)
    2880:	89 c3                	mov    %eax,%ebx
    2882:	e8 59 24 00 00       	call   4ce0 <ddf_dev_get_name>
    2887:	53                   	push   %ebx
    2888:	50                   	push   %eax
    2889:	68 78 11 01 00       	push   $0x11178
    288e:	6a 03                	push   $0x3
    2890:	e8 2b 2d 00 00       	call   55c0 <ddf_msg>
    2895:	83 c4 14             	add    $0x14,%esp
    2898:	57                   	push   %edi
    2899:	e8 42 24 00 00       	call   4ce0 <ddf_dev_get_name>
    289e:	83 c4 0c             	add    $0xc,%esp
    28a1:	50                   	push   %eax
    28a2:	68 06 0f 01 00       	push   $0x10f06
    28a7:	6a 04                	push   $0x4
    28a9:	e8 12 2d 00 00       	call   55c0 <ddf_msg>
    28ae:	5b                   	pop    %ebx
    28af:	5e                   	pop    %esi
    28b0:	68 20 0f 01 00       	push   $0x10f20
    28b5:	6a 04                	push   $0x4
    28b7:	e8 04 2d 00 00       	call   55c0 <ddf_msg>
    28bc:	89 3c 24             	mov    %edi,(%esp)
    28bf:	e8 3c bf 00 00       	call   e800 <nic_get_from_ddf_dev>
    28c4:	83 c4 10             	add    $0x10,%esp
    28c7:	85 c0                	test   %eax,%eax
    28c9:	0f 85 3f 09 00 00    	jne    320e <rtl8139_dev_add+0x9ae>
    28cf:	83 ec 0c             	sub    $0xc,%esp
    28d2:	57                   	push   %edi
    28d3:	e8 58 bb 00 00       	call   e430 <nic_create_and_bind>
    28d8:	83 c4 10             	add    $0x10,%esp
    28db:	89 c6                	mov    %eax,%esi
    28dd:	85 c0                	test   %eax,%eax
    28df:	0f 84 2f 06 00 00    	je     2f14 <rtl8139_dev_add+0x6b4>
    28e5:	83 ec 0c             	sub    $0xc,%esp
    28e8:	68 80 00 00 00       	push   $0x80
    28ed:	e8 ee 0e 01 00       	call   137e0 <malloc@plt>
    28f2:	83 c4 10             	add    $0x10,%esp
    28f5:	89 c3                	mov    %eax,%ebx
    28f7:	85 c0                	test   %eax,%eax
    28f9:	0f 84 09 06 00 00    	je     2f08 <rtl8139_dev_add+0x6a8>
    28ff:	50                   	push   %eax
    2900:	68 80 00 00 00       	push   $0x80
    2905:	6a 00                	push   $0x0
    2907:	53                   	push   %ebx
    2908:	e8 63 11 01 00       	call   13a70 <memset@plt>
    290d:	89 73 78             	mov    %esi,0x78(%ebx)
    2910:	58                   	pop    %eax
    2911:	5a                   	pop    %edx
    2912:	53                   	push   %ebx
    2913:	56                   	push   %esi
    2914:	e8 87 be 00 00       	call   e7a0 <nic_set_specific>
    2919:	59                   	pop    %ecx
    291a:	58                   	pop    %eax
    291b:	68 70 17 00 00       	push   $0x1770
    2920:	56                   	push   %esi
    2921:	e8 ea b0 00 00       	call   da10 <nic_set_send_frame_handler>
    2926:	68 80 38 00 00       	push   $0x3880
    292b:	6a 00                	push   $0x0
    292d:	68 20 3a 00 00       	push   $0x3a20
    2932:	56                   	push   %esi
    2933:	e8 f8 b0 00 00       	call   da30 <nic_set_state_change_handlers>
    2938:	83 c4 18             	add    $0x18,%esp
    293b:	6a 00                	push   $0x0
    293d:	6a 00                	push   $0x0
    293f:	68 60 3c 00 00       	push   $0x3c60
    2944:	68 20 3f 00 00       	push   $0x3f20
    2949:	68 60 3d 00 00       	push   $0x3d60
    294e:	56                   	push   %esi
    294f:	e8 0c b1 00 00       	call   da60 <nic_set_filtering_change_handlers>
    2954:	83 c4 1c             	add    $0x1c,%esp
    2957:	68 30 35 00 00       	push   $0x3530
    295c:	68 10 25 00 00       	push   $0x2510
    2961:	56                   	push   %esi
    2962:	e8 39 b1 00 00       	call   daa0 <nic_set_wol_virtue_change_handlers>
    2967:	83 c4 0c             	add    $0xc,%esp
    296a:	68 f0 23 00 00       	push   $0x23f0
    296f:	68 e0 15 00 00       	push   $0x15e0
    2974:	56                   	push   %esi
    2975:	e8 66 b1 00 00       	call   dae0 <nic_set_poll_handlers>
    297a:	8d 43 44             	lea    0x44(%ebx),%eax
    297d:	89 04 24             	mov    %eax,(%esp)
    2980:	e8 fb 0f 01 00       	call   13980 <fibril_mutex_initialize@plt>
    2985:	8d 43 54             	lea    0x54(%ebx),%eax
    2988:	89 04 24             	mov    %eax,(%esp)
    298b:	e8 f0 0f 01 00       	call   13980 <fibril_mutex_initialize@plt>
    2990:	83 c4 0c             	add    $0xc,%esp
    2993:	6a 01                	push   $0x1
    2995:	6a 04                	push   $0x4
    2997:	56                   	push   %esi
    2998:	e8 d3 bd 00 00       	call   e770 <nic_set_wol_max_caps>
    299d:	83 c4 0c             	add    $0xc,%esp
    29a0:	6a 01                	push   $0x1
    29a2:	6a 01                	push   $0x1
    29a4:	56                   	push   %esi
    29a5:	e8 c6 bd 00 00       	call   e770 <nic_set_wol_max_caps>
    29aa:	83 c4 0c             	add    $0xc,%esp
    29ad:	6a 01                	push   $0x1
    29af:	6a 02                	push   $0x2
    29b1:	56                   	push   %esi
    29b2:	e8 b9 bd 00 00       	call   e770 <nic_set_wol_max_caps>
    29b7:	58                   	pop    %eax
    29b8:	5a                   	pop    %edx
    29b9:	68 59 0f 01 00       	push   $0x10f59
    29be:	6a 04                	push   $0x4
    29c0:	e8 fb 2b 00 00       	call   55c0 <ddf_msg>
    29c5:	89 3c 24             	mov    %edi,(%esp)
    29c8:	e8 33 be 00 00       	call   e800 <nic_get_from_ddf_dev>
    29cd:	83 c4 10             	add    $0x10,%esp
    29d0:	89 c6                	mov    %eax,%esi
    29d2:	85 c0                	test   %eax,%eax
    29d4:	0f 84 1f 08 00 00    	je     31f9 <rtl8139_dev_add+0x999>
    29da:	50                   	push   %eax
    29db:	8d 45 c8             	lea    -0x38(%ebp),%eax
    29de:	6a 20                	push   $0x20
    29e0:	6a 00                	push   $0x0
    29e2:	50                   	push   %eax
    29e3:	e8 88 10 01 00       	call   13a70 <memset@plt>
    29e8:	58                   	pop    %eax
    29e9:	8d 45 c8             	lea    -0x38(%ebp),%eax
    29ec:	5a                   	pop    %edx
    29ed:	50                   	push   %eax
    29ee:	56                   	push   %esi
    29ef:	e8 0c b1 00 00       	call   db00 <nic_get_resources>
    29f4:	83 c4 10             	add    $0x10,%esp
    29f7:	89 c6                	mov    %eax,%esi
    29f9:	85 c0                	test   %eax,%eax
    29fb:	74 4b                	je     2a48 <rtl8139_dev_add+0x1e8>
    29fd:	53                   	push   %ebx
    29fe:	53                   	push   %ebx
    29ff:	68 5c 12 01 00       	push   $0x1125c
    2a04:	6a 01                	push   $0x1
    2a06:	e8 b5 2b 00 00       	call   55c0 <ddf_msg>
    2a0b:	83 c4 10             	add    $0x10,%esp
    2a0e:	50                   	push   %eax
    2a0f:	50                   	push   %eax
    2a10:	68 44 13 01 00       	push   $0x11344
    2a15:	6a 01                	push   $0x1
    2a17:	e8 a4 2b 00 00       	call   55c0 <ddf_msg>
    2a1c:	89 3c 24             	mov    %edi,(%esp)
    2a1f:	e8 9c 22 00 00       	call   4cc0 <ddf_dev_data_get>
    2a24:	83 c4 10             	add    $0x10,%esp
    2a27:	85 c0                	test   %eax,%eax
    2a29:	74 0c                	je     2a37 <rtl8139_dev_add+0x1d7>
    2a2b:	83 ec 0c             	sub    $0xc,%esp
    2a2e:	57                   	push   %edi
    2a2f:	e8 3c bb 00 00       	call   e570 <nic_unbind_and_destroy>
    2a34:	83 c4 10             	add    $0x10,%esp
    2a37:	8d 65 f4             	lea    -0xc(%ebp),%esp
    2a3a:	89 f0                	mov    %esi,%eax
    2a3c:	5b                   	pop    %ebx
    2a3d:	5e                   	pop    %esi
    2a3e:	5f                   	pop    %edi
    2a3f:	5d                   	pop    %ebp
    2a40:	c3                   	ret    
    2a41:	8d b4 26 00 00 00 00 	lea    0x0(%esi,%eiz,1),%esi
    2a48:	83 ec 0c             	sub    $0xc,%esp
    2a4b:	57                   	push   %edi
    2a4c:	e8 af bd 00 00       	call   e800 <nic_get_from_ddf_dev>
    2a51:	89 04 24             	mov    %eax,(%esp)
    2a54:	e8 37 bd 00 00       	call   e790 <nic_get_specific>
    2a59:	83 c4 10             	add    $0x10,%esp
    2a5c:	89 c6                	mov    %eax,%esi
    2a5e:	85 c0                	test   %eax,%eax
    2a60:	0f 84 d2 07 00 00    	je     3238 <rtl8139_dev_add+0x9d8>
    2a66:	83 7d c8 01          	cmpl   $0x1,-0x38(%ebp)
    2a6a:	0f 85 88 05 00 00    	jne    2ff8 <rtl8139_dev_add+0x798>
    2a70:	83 7d e0 01          	cmpl   $0x1,-0x20(%ebp)
    2a74:	0f 85 16 05 00 00    	jne    2f90 <rtl8139_dev_add+0x730>
    2a7a:	8b 45 cc             	mov    -0x34(%ebp),%eax
    2a7d:	83 ec 0c             	sub    $0xc,%esp
    2a80:	8b 10                	mov    (%eax),%edx
    2a82:	89 56 08             	mov    %edx,0x8(%esi)
    2a85:	89 55 c4             	mov    %edx,-0x3c(%ebp)
    2a88:	57                   	push   %edi
    2a89:	e8 52 22 00 00       	call   4ce0 <ddf_dev_get_name>
    2a8e:	8b 55 c4             	mov    -0x3c(%ebp),%edx
    2a91:	52                   	push   %edx
    2a92:	50                   	push   %eax
    2a93:	68 73 0f 01 00       	push   $0x10f73
    2a98:	6a 04                	push   $0x4
    2a9a:	e8 21 2b 00 00       	call   55c0 <ddf_msg>
    2a9f:	8b 45 e4             	mov    -0x1c(%ebp),%eax
    2aa2:	8b 10                	mov    (%eax),%edx
    2aa4:	83 c4 20             	add    $0x20,%esp
    2aa7:	89 16                	mov    %edx,(%esi)
    2aa9:	81 78 10 ff 00 00 00 	cmpl   $0xff,0x10(%eax)
    2ab0:	0f 86 62 05 00 00    	jbe    3018 <rtl8139_dev_add+0x7b8>
    2ab6:	83 ec 0c             	sub    $0xc,%esp
    2ab9:	89 55 c4             	mov    %edx,-0x3c(%ebp)
    2abc:	57                   	push   %edi
    2abd:	e8 1e 22 00 00       	call   4ce0 <ddf_dev_get_name>
    2ac2:	8b 55 c4             	mov    -0x3c(%ebp),%edx
    2ac5:	52                   	push   %edx
    2ac6:	50                   	push   %eax
    2ac7:	68 18 12 01 00       	push   $0x11218
    2acc:	6a 04                	push   $0x4
    2ace:	e8 ed 2a 00 00       	call   55c0 <ddf_msg>
    2ad3:	83 c4 14             	add    $0x14,%esp
    2ad6:	8b 75 cc             	mov    -0x34(%ebp),%esi
    2ad9:	56                   	push   %esi
    2ada:	e8 f1 11 01 00       	call   13cd0 <free@plt>
    2adf:	58                   	pop    %eax
    2ae0:	8b 45 e4             	mov    -0x1c(%ebp),%eax
    2ae3:	50                   	push   %eax
    2ae4:	e8 e7 11 01 00       	call   13cd0 <free@plt>
    2ae9:	58                   	pop    %eax
    2aea:	8b 45 dc             	mov    -0x24(%ebp),%eax
    2aed:	50                   	push   %eax
    2aee:	e8 dd 11 01 00       	call   13cd0 <free@plt>
    2af3:	58                   	pop    %eax
    2af4:	8b 45 d4             	mov    -0x2c(%ebp),%eax
    2af7:	50                   	push   %eax
    2af8:	e8 d3 11 01 00       	call   13cd0 <free@plt>
    2afd:	83 c4 0c             	add    $0xc,%esp
    2b00:	8d 45 c8             	lea    -0x38(%ebp),%eax
    2b03:	6a 20                	push   $0x20
    2b05:	6a 00                	push   $0x0
    2b07:	50                   	push   %eax
    2b08:	e8 63 0f 01 00       	call   13a70 <memset@plt>
    2b0d:	5a                   	pop    %edx
    2b0e:	59                   	pop    %ecx
    2b0f:	68 3c 12 01 00       	push   $0x1123c
    2b14:	6a 04                	push   $0x4
    2b16:	e8 a5 2a 00 00       	call   55c0 <ddf_msg>
    2b1b:	5e                   	pop    %esi
    2b1c:	58                   	pop    %eax
    2b1d:	68 90 0f 01 00       	push   $0x10f90
    2b22:	6a 04                	push   $0x4
    2b24:	e8 97 2a 00 00       	call   55c0 <ddf_msg>
    2b29:	c7 43 14 ff ff ff ff 	movl   $0xffffffff,0x14(%ebx)
    2b30:	8d 43 14             	lea    0x14(%ebx),%eax
    2b33:	5a                   	pop    %edx
    2b34:	89 45 c4             	mov    %eax,-0x3c(%ebp)
    2b37:	59                   	pop    %ecx
    2b38:	50                   	push   %eax
    2b39:	8d 43 10             	lea    0x10(%ebx),%eax
    2b3c:	50                   	push   %eax
    2b3d:	6a 00                	push   $0x0
    2b3f:	6a 02                	push   $0x2
    2b41:	6a 00                	push   $0x0
    2b43:	68 00 20 00 00       	push   $0x2000
    2b48:	e8 53 0f 01 00       	call   13aa0 <dmamem_map_anonymous@plt>
    2b4d:	83 c4 20             	add    $0x20,%esp
    2b50:	89 c6                	mov    %eax,%esi
    2b52:	85 c0                	test   %eax,%eax
    2b54:	0f 85 96 03 00 00    	jne    2ef0 <rtl8139_dev_add+0x690>
    2b5a:	8b 43 14             	mov    0x14(%ebx),%eax
    2b5d:	89 43 18             	mov    %eax,0x18(%ebx)
    2b60:	8d 90 00 08 00 00    	lea    0x800(%eax),%edx
    2b66:	89 53 1c             	mov    %edx,0x1c(%ebx)
    2b69:	8d 90 00 10 00 00    	lea    0x1000(%eax),%edx
    2b6f:	05 00 18 00 00       	add    $0x1800,%eax
    2b74:	89 53 20             	mov    %edx,0x20(%ebx)
    2b77:	89 43 24             	mov    %eax,0x24(%ebx)
    2b7a:	50                   	push   %eax
    2b7b:	50                   	push   %eax
    2b7c:	68 ac 12 01 00       	push   $0x112ac
    2b81:	6a 04                	push   $0x4
    2b83:	e8 38 2a 00 00       	call   55c0 <ddf_msg>
    2b88:	83 c4 0c             	add    $0xc,%esp
    2b8b:	c7 43 28 00 00 00 00 	movl   $0x0,0x28(%ebx)
    2b92:	c7 43 2c 00 00 00 00 	movl   $0x0,0x2c(%ebx)
    2b99:	68 10 40 00 00       	push   $0x4010
    2b9e:	68 d0 12 01 00       	push   $0x112d0
    2ba3:	6a 04                	push   $0x4
    2ba5:	e8 16 2a 00 00       	call   55c0 <ddf_msg>
    2baa:	c7 43 34 ff ff ff ff 	movl   $0xffffffff,0x34(%ebx)
    2bb1:	58                   	pop    %eax
    2bb2:	8d 43 34             	lea    0x34(%ebx),%eax
    2bb5:	5a                   	pop    %edx
    2bb6:	50                   	push   %eax
    2bb7:	8d 43 30             	lea    0x30(%ebx),%eax
    2bba:	50                   	push   %eax
    2bbb:	6a 00                	push   $0x0
    2bbd:	6a 01                	push   $0x1
    2bbf:	6a 00                	push   $0x0
    2bc1:	68 10 40 00 00       	push   $0x4010
    2bc6:	e8 d5 0e 01 00       	call   13aa0 <dmamem_map_anonymous@plt>
    2bcb:	83 c4 20             	add    $0x20,%esp
    2bce:	89 c6                	mov    %eax,%esi
    2bd0:	85 c0                	test   %eax,%eax
    2bd2:	0f 85 f8 02 00 00    	jne    2ed0 <rtl8139_dev_add+0x670>
    2bd8:	50                   	push   %eax
    2bd9:	50                   	push   %eax
    2bda:	68 a1 0f 01 00       	push   $0x10fa1
    2bdf:	6a 04                	push   $0x4
    2be1:	e8 da 29 00 00       	call   55c0 <ddf_msg>
    2be6:	c7 43 3c 02 00 08 00 	movl   $0x80002,0x3c(%ebx)
    2bed:	c7 43 38 00 00 00 08 	movl   $0x8000000,0x38(%ebx)
    2bf4:	5a                   	pop    %edx
    2bf5:	59                   	pop    %ecx
    2bf6:	68 b5 0f 01 00       	push   $0x10fb5
    2bfb:	6a 04                	push   $0x4
    2bfd:	e8 be 29 00 00       	call   55c0 <ddf_msg>
    2c02:	89 3c 24             	mov    %edi,(%esp)
    2c05:	e8 d6 20 00 00       	call   4ce0 <ddf_dev_get_name>
    2c0a:	83 c4 0c             	add    $0xc,%esp
    2c0d:	50                   	push   %eax
    2c0e:	68 24 13 01 00       	push   $0x11324
    2c13:	6a 04                	push   $0x4
    2c15:	e8 a6 29 00 00       	call   55c0 <ddf_msg>
    2c1a:	89 3c 24             	mov    %edi,(%esp)
    2c1d:	e8 de bb 00 00       	call   e800 <nic_get_from_ddf_dev>
    2c22:	89 04 24             	mov    %eax,(%esp)
    2c25:	e8 66 bb 00 00       	call   e790 <nic_get_specific>
    2c2a:	83 c4 0c             	add    $0xc,%esp
    2c2d:	89 c3                	mov    %eax,%ebx
    2c2f:	8d 40 04             	lea    0x4(%eax),%eax
    2c32:	50                   	push   %eax
    2c33:	68 00 01 00 00       	push   $0x100
    2c38:	8b 33                	mov    (%ebx),%esi
    2c3a:	56                   	push   %esi
    2c3b:	e8 e0 09 01 00       	call   13620 <pio_enable@plt>
    2c40:	83 c4 10             	add    $0x10,%esp
    2c43:	85 c0                	test   %eax,%eax
    2c45:	0f 85 55 04 00 00    	jne    30a0 <rtl8139_dev_add+0x840>
    2c4b:	83 ec 0c             	sub    $0xc,%esp
    2c4e:	57                   	push   %edi
    2c4f:	e8 ac bb 00 00       	call   e800 <nic_get_from_ddf_dev>
    2c54:	89 04 24             	mov    %eax,(%esp)
    2c57:	89 45 c4             	mov    %eax,-0x3c(%ebp)
    2c5a:	e8 31 bb 00 00       	call   e790 <nic_get_specific>
    2c5f:	83 c4 10             	add    $0x10,%esp
    2c62:	89 c3                	mov    %eax,%ebx
    2c64:	85 c0                	test   %eax,%eax
    2c66:	0f 84 e1 05 00 00    	je     324d <rtl8139_dev_add+0x9ed>
    2c6c:	83 ec 0c             	sub    $0xc,%esp
    2c6f:	8b 4b 04             	mov    0x4(%ebx),%ecx
    2c72:	51                   	push   %ecx
    2c73:	e8 58 0b 01 00       	call   137d0 <pio_read_32@plt>
    2c78:	89 45 c8             	mov    %eax,-0x38(%ebp)
    2c7b:	8b 43 04             	mov    0x4(%ebx),%eax
    2c7e:	83 c0 04             	add    $0x4,%eax
    2c81:	89 04 24             	mov    %eax,(%esp)
    2c84:	e8 77 0d 01 00       	call   13a00 <pio_read_16@plt>
    2c89:	5e                   	pop    %esi
    2c8a:	66 89 45 cc          	mov    %ax,-0x34(%ebp)
    2c8e:	58                   	pop    %eax
    2c8f:	8d 45 c8             	lea    -0x38(%ebp),%eax
    2c92:	50                   	push   %eax
    2c93:	8b 45 c4             	mov    -0x3c(%ebp),%eax
    2c96:	50                   	push   %eax
    2c97:	e8 b4 b1 00 00       	call   de50 <nic_report_address>
    2c9c:	83 c4 10             	add    $0x10,%esp
    2c9f:	89 c6                	mov    %eax,%esi
    2ca1:	85 c0                	test   %eax,%eax
    2ca3:	74 1b                	je     2cc0 <rtl8139_dev_add+0x460>
    2ca5:	83 ec 0c             	sub    $0xc,%esp
    2ca8:	57                   	push   %edi
    2ca9:	e8 12 20 00 00       	call   4cc0 <ddf_dev_data_get>
    2cae:	83 c4 10             	add    $0x10,%esp
    2cb1:	85 c0                	test   %eax,%eax
    2cb3:	0f 85 72 fd ff ff    	jne    2a2b <rtl8139_dev_add+0x1cb>
    2cb9:	e9 79 fd ff ff       	jmp    2a37 <rtl8139_dev_add+0x1d7>
    2cbe:	66 90                	xchg   %ax,%ax
    2cc0:	83 ec 0c             	sub    $0xc,%esp
    2cc3:	8b 43 04             	mov    0x4(%ebx),%eax
    2cc6:	83 c0 40             	add    $0x40,%eax
    2cc9:	50                   	push   %eax
    2cca:	e8 01 0b 01 00       	call   137d0 <pio_read_32@plt>
    2ccf:	89 c6                	mov    %eax,%esi
    2cd1:	83 c4 10             	add    $0x10,%esp
    2cd4:	c1 ee 18             	shr    $0x18,%esi
    2cd7:	c7 43 7c 0a 00 00 00 	movl   $0xa,0x7c(%ebx)
    2cde:	c1 e8 16             	shr    $0x16,%eax
    2ce1:	89 f1                	mov    %esi,%ecx
    2ce3:	89 c6                	mov    %eax,%esi
    2ce5:	83 e1 7c             	and    $0x7c,%ecx
    2ce8:	83 e6 03             	and    $0x3,%esi
    2ceb:	a1 20 15 01 00       	mov    0x11520,%eax
    2cf0:	09 ce                	or     %ecx,%esi
    2cf2:	85 c0                	test   %eax,%eax
    2cf4:	0f 84 ce 00 00 00    	je     2dc8 <rtl8139_dev_add+0x568>
    2cfa:	39 c6                	cmp    %eax,%esi
    2cfc:	0f 84 38 02 00 00    	je     2f3a <rtl8139_dev_add+0x6da>
    2d02:	a1 28 15 01 00       	mov    0x11528,%eax
    2d07:	85 c0                	test   %eax,%eax
    2d09:	0f 84 b9 00 00 00    	je     2dc8 <rtl8139_dev_add+0x568>
    2d0f:	39 f0                	cmp    %esi,%eax
    2d11:	0f 84 4d 02 00 00    	je     2f64 <rtl8139_dev_add+0x704>
    2d17:	a1 30 15 01 00       	mov    0x11530,%eax
    2d1c:	85 c0                	test   %eax,%eax
    2d1e:	0f 84 a4 00 00 00    	je     2dc8 <rtl8139_dev_add+0x568>
    2d24:	39 c6                	cmp    %eax,%esi
    2d26:	0f 84 4a 03 00 00    	je     3076 <rtl8139_dev_add+0x816>
    2d2c:	a1 38 15 01 00       	mov    0x11538,%eax
    2d31:	85 c0                	test   %eax,%eax
    2d33:	0f 84 8f 00 00 00    	je     2dc8 <rtl8139_dev_add+0x568>
    2d39:	39 c6                	cmp    %eax,%esi
    2d3b:	0f 84 85 03 00 00    	je     30c6 <rtl8139_dev_add+0x866>
    2d41:	a1 40 15 01 00       	mov    0x11540,%eax
    2d46:	85 c0                	test   %eax,%eax
    2d48:	74 7e                	je     2dc8 <rtl8139_dev_add+0x568>
    2d4a:	39 c6                	cmp    %eax,%esi
    2d4c:	0f 84 9e 03 00 00    	je     30f0 <rtl8139_dev_add+0x890>
    2d52:	a1 48 15 01 00       	mov    0x11548,%eax
    2d57:	85 c0                	test   %eax,%eax
    2d59:	74 6d                	je     2dc8 <rtl8139_dev_add+0x568>
    2d5b:	39 f0                	cmp    %esi,%eax
    2d5d:	0f 84 b7 03 00 00    	je     311a <rtl8139_dev_add+0x8ba>
    2d63:	a1 50 15 01 00       	mov    0x11550,%eax
    2d68:	85 c0                	test   %eax,%eax
    2d6a:	74 5c                	je     2dc8 <rtl8139_dev_add+0x568>
    2d6c:	39 c6                	cmp    %eax,%esi
    2d6e:	0f 84 d0 03 00 00    	je     3144 <rtl8139_dev_add+0x8e4>
    2d74:	a1 58 15 01 00       	mov    0x11558,%eax
    2d79:	85 c0                	test   %eax,%eax
    2d7b:	74 4b                	je     2dc8 <rtl8139_dev_add+0x568>
    2d7d:	39 c6                	cmp    %eax,%esi
    2d7f:	0f 84 e9 03 00 00    	je     316e <rtl8139_dev_add+0x90e>
    2d85:	a1 60 15 01 00       	mov    0x11560,%eax
    2d8a:	85 c0                	test   %eax,%eax
    2d8c:	74 3a                	je     2dc8 <rtl8139_dev_add+0x568>
    2d8e:	39 c6                	cmp    %eax,%esi
    2d90:	0f 84 02 04 00 00    	je     3198 <rtl8139_dev_add+0x938>
    2d96:	a1 68 15 01 00       	mov    0x11568,%eax
    2d9b:	85 c0                	test   %eax,%eax
    2d9d:	74 29                	je     2dc8 <rtl8139_dev_add+0x568>
    2d9f:	39 c6                	cmp    %eax,%esi
    2da1:	75 25                	jne    2dc8 <rtl8139_dev_add+0x568>
    2da3:	a1 6c 15 01 00       	mov    0x1156c,%eax
    2da8:	83 ec 0c             	sub    $0xc,%esp
    2dab:	89 43 7c             	mov    %eax,0x7c(%ebx)
    2dae:	8b 14 85 c0 61 01 00 	mov    0x161c0(,%eax,4),%edx
    2db5:	52                   	push   %edx
    2db6:	50                   	push   %eax
    2db7:	6a 09                	push   $0x9
    2db9:	68 90 13 01 00       	push   $0x11390
    2dbe:	6a 03                	push   $0x3
    2dc0:	e8 fb 27 00 00       	call   55c0 <ddf_msg>
    2dc5:	83 c4 20             	add    $0x20,%esp
    2dc8:	83 ec 0c             	sub    $0xc,%esp
    2dcb:	8b 4d c4             	mov    -0x3c(%ebp),%ecx
    2dce:	51                   	push   %ecx
    2dcf:	e8 bc b9 00 00       	call   e790 <nic_get_specific>
    2dd4:	c7 04 24 a4 61 01 00 	movl   $0x161a4,(%esp)
    2ddb:	89 45 c0             	mov    %eax,-0x40(%ebp)
    2dde:	e8 0d 0f 01 00       	call   13cf0 <fibril_mutex_lock@plt>
    2de3:	8b 55 c0             	mov    -0x40(%ebp),%edx
    2de6:	8b 0d 44 60 01 00    	mov    0x16044,%ecx
    2dec:	8b 02                	mov    (%edx),%eax
    2dee:	89 01                	mov    %eax,(%ecx)
    2df0:	8b 0d 4c 60 01 00    	mov    0x1604c,%ecx
    2df6:	8d 70 3e             	lea    0x3e(%eax),%esi
    2df9:	83 c0 3c             	add    $0x3c,%eax
    2dfc:	89 71 04             	mov    %esi,0x4(%ecx)
    2dff:	89 71 2c             	mov    %esi,0x2c(%ecx)
    2e02:	89 41 40             	mov    %eax,0x40(%ecx)
    2e05:	8b 72 08             	mov    0x8(%edx),%esi
    2e08:	58                   	pop    %eax
    2e09:	8b 45 c4             	mov    -0x3c(%ebp),%eax
    2e0c:	50                   	push   %eax
    2e0d:	e8 be b9 00 00       	call   e7d0 <nic_get_ddf_dev>
    2e12:	68 40 60 01 00       	push   $0x16040
    2e17:	68 80 24 00 00       	push   $0x2480
    2e1c:	56                   	push   %esi
    2e1d:	50                   	push   %eax
    2e1e:	e8 4d 27 00 00       	call   5570 <register_interrupt_handler>
    2e23:	83 c4 14             	add    $0x14,%esp
    2e26:	89 c6                	mov    %eax,%esi
    2e28:	68 a4 61 01 00       	push   $0x161a4
    2e2d:	e8 1e 0b 01 00       	call   13950 <fibril_mutex_unlock@plt>
    2e32:	83 c4 10             	add    $0x10,%esp
    2e35:	85 f6                	test   %esi,%esi
    2e37:	0f 85 68 fe ff ff    	jne    2ca5 <rtl8139_dev_add+0x445>
    2e3d:	83 ec 0c             	sub    $0xc,%esp
    2e40:	8b 45 c4             	mov    -0x3c(%ebp),%eax
    2e43:	50                   	push   %eax
    2e44:	e8 87 b9 00 00       	call   e7d0 <nic_get_ddf_dev>
    2e49:	83 c4 0c             	add    $0xc,%esp
    2e4c:	68 cf 0f 01 00       	push   $0x10fcf
    2e51:	6a 02                	push   $0x2
    2e53:	50                   	push   %eax
    2e54:	e8 57 1f 00 00       	call   4db0 <ddf_fun_create>
    2e59:	83 c4 10             	add    $0x10,%esp
    2e5c:	89 45 c0             	mov    %eax,-0x40(%ebp)
    2e5f:	85 c0                	test   %eax,%eax
    2e61:	0f 84 7c 03 00 00    	je     31e3 <rtl8139_dev_add+0x983>
    2e67:	89 c6                	mov    %eax,%esi
    2e69:	50                   	push   %eax
    2e6a:	50                   	push   %eax
    2e6b:	8b 45 c4             	mov    -0x3c(%ebp),%eax
    2e6e:	56                   	push   %esi
    2e6f:	50                   	push   %eax
    2e70:	e8 7b b9 00 00       	call   e7f0 <nic_set_ddf_fun>
    2e75:	58                   	pop    %eax
    2e76:	5a                   	pop    %edx
    2e77:	68 60 64 01 00       	push   $0x16460
    2e7c:	56                   	push   %esi
    2e7d:	e8 de 24 00 00       	call   5360 <ddf_fun_set_ops>
    2e82:	89 34 24             	mov    %esi,(%esp)
    2e85:	e8 e6 21 00 00       	call   5070 <ddf_fun_bind>
    2e8a:	83 c4 10             	add    $0x10,%esp
    2e8d:	89 c6                	mov    %eax,%esi
    2e8f:	85 c0                	test   %eax,%eax
    2e91:	0f 84 a2 01 00 00    	je     3039 <rtl8139_dev_add+0x7d9>
    2e97:	50                   	push   %eax
    2e98:	50                   	push   %eax
    2e99:	68 dc 13 01 00       	push   $0x113dc
    2e9e:	6a 01                	push   $0x1
    2ea0:	e8 1b 27 00 00       	call   55c0 <ddf_msg>
    2ea5:	83 c4 10             	add    $0x10,%esp
    2ea8:	83 ec 0c             	sub    $0xc,%esp
    2eab:	8b 45 c0             	mov    -0x40(%ebp),%eax
    2eae:	50                   	push   %eax
    2eaf:	e8 8c 20 00 00       	call   4f40 <ddf_fun_destroy>
    2eb4:	83 c4 10             	add    $0x10,%esp
    2eb7:	50                   	push   %eax
    2eb8:	50                   	push   %eax
    2eb9:	8b 43 08             	mov    0x8(%ebx),%eax
    2ebc:	50                   	push   %eax
    2ebd:	57                   	push   %edi
    2ebe:	e8 cd 26 00 00       	call   5590 <unregister_interrupt_handler>
    2ec3:	83 c4 10             	add    $0x10,%esp
    2ec6:	e9 da fd ff ff       	jmp    2ca5 <rtl8139_dev_add+0x445>
    2ecb:	90                   	nop
    2ecc:	8d 74 26 00          	lea    0x0(%esi,%eiz,1),%esi
    2ed0:	50                   	push   %eax
    2ed1:	50                   	push   %eax
    2ed2:	68 00 13 01 00       	push   $0x11300
    2ed7:	6a 01                	push   $0x1
    2ed9:	e8 e2 26 00 00       	call   55c0 <ddf_msg>
    2ede:	58                   	pop    %eax
    2edf:	8b 45 c4             	mov    -0x3c(%ebp),%eax
    2ee2:	50                   	push   %eax
    2ee3:	e8 08 0a 01 00       	call   138f0 <dmamem_unmap_anonymous@plt>
    2ee8:	83 c4 10             	add    $0x10,%esp
    2eeb:	e9 1e fb ff ff       	jmp    2a0e <rtl8139_dev_add+0x1ae>
    2ef0:	51                   	push   %ecx
    2ef1:	51                   	push   %ecx
    2ef2:	68 84 12 01 00       	push   $0x11284
    2ef7:	6a 01                	push   $0x1
    2ef9:	e8 c2 26 00 00       	call   55c0 <ddf_msg>
    2efe:	83 c4 10             	add    $0x10,%esp
    2f01:	e9 08 fb ff ff       	jmp    2a0e <rtl8139_dev_add+0x1ae>
    2f06:	66 90                	xchg   %ax,%ax
    2f08:	83 ec 0c             	sub    $0xc,%esp
    2f0b:	57                   	push   %edi
    2f0c:	e8 5f b6 00 00       	call   e570 <nic_unbind_and_destroy>
    2f11:	83 c4 10             	add    $0x10,%esp
    2f14:	83 ec 0c             	sub    $0xc,%esp
    2f17:	be fe ff ff ff       	mov    $0xfffffffe,%esi
    2f1c:	57                   	push   %edi
    2f1d:	e8 be 1d 00 00       	call   4ce0 <ddf_dev_get_name>
    2f22:	83 c4 0c             	add    $0xc,%esp
    2f25:	50                   	push   %eax
    2f26:	68 54 14 01 00       	push   $0x11454
    2f2b:	6a 01                	push   $0x1
    2f2d:	e8 8e 26 00 00       	call   55c0 <ddf_msg>
    2f32:	83 c4 10             	add    $0x10,%esp
    2f35:	e9 fd fa ff ff       	jmp    2a37 <rtl8139_dev_add+0x1d7>
    2f3a:	a1 24 15 01 00       	mov    0x11524,%eax
    2f3f:	83 ec 0c             	sub    $0xc,%esp
    2f42:	89 43 7c             	mov    %eax,0x7c(%ebx)
    2f45:	8b 14 85 c0 61 01 00 	mov    0x161c0(,%eax,4),%edx
    2f4c:	52                   	push   %edx
    2f4d:	50                   	push   %eax
    2f4e:	6a 00                	push   $0x0
    2f50:	68 90 13 01 00       	push   $0x11390
    2f55:	6a 03                	push   $0x3
    2f57:	e8 64 26 00 00       	call   55c0 <ddf_msg>
    2f5c:	83 c4 20             	add    $0x20,%esp
    2f5f:	e9 9e fd ff ff       	jmp    2d02 <rtl8139_dev_add+0x4a2>
    2f64:	a1 2c 15 01 00       	mov    0x1152c,%eax
    2f69:	83 ec 0c             	sub    $0xc,%esp
    2f6c:	89 43 7c             	mov    %eax,0x7c(%ebx)
    2f6f:	8b 0c 85 c0 61 01 00 	mov    0x161c0(,%eax,4),%ecx
    2f76:	51                   	push   %ecx
    2f77:	50                   	push   %eax
    2f78:	6a 01                	push   $0x1
    2f7a:	68 90 13 01 00       	push   $0x11390
    2f7f:	6a 03                	push   $0x3
    2f81:	e8 3a 26 00 00       	call   55c0 <ddf_msg>
    2f86:	83 c4 20             	add    $0x20,%esp
    2f89:	e9 89 fd ff ff       	jmp    2d17 <rtl8139_dev_add+0x4b7>
    2f8e:	66 90                	xchg   %ax,%ax
    2f90:	83 ec 0c             	sub    $0xc,%esp
    2f93:	57                   	push   %edi
    2f94:	e8 47 1d 00 00       	call   4ce0 <ddf_dev_get_name>
    2f99:	83 c4 0c             	add    $0xc,%esp
    2f9c:	50                   	push   %eax
    2f9d:	68 bc 11 01 00       	push   $0x111bc
    2fa2:	6a 01                	push   $0x1
    2fa4:	e8 17 26 00 00       	call   55c0 <ddf_msg>
    2fa9:	83 c4 10             	add    $0x10,%esp
    2fac:	83 ec 0c             	sub    $0xc,%esp
    2faf:	8b 45 cc             	mov    -0x34(%ebp),%eax
    2fb2:	50                   	push   %eax
    2fb3:	e8 18 0d 01 00       	call   13cd0 <free@plt>
    2fb8:	8b 4d e4             	mov    -0x1c(%ebp),%ecx
    2fbb:	5a                   	pop    %edx
    2fbc:	51                   	push   %ecx
    2fbd:	e8 0e 0d 01 00       	call   13cd0 <free@plt>
    2fc2:	8b 75 dc             	mov    -0x24(%ebp),%esi
    2fc5:	5b                   	pop    %ebx
    2fc6:	56                   	push   %esi
    2fc7:	e8 04 0d 01 00       	call   13cd0 <free@plt>
    2fcc:	58                   	pop    %eax
    2fcd:	8b 45 d4             	mov    -0x2c(%ebp),%eax
    2fd0:	50                   	push   %eax
    2fd1:	e8 fa 0c 01 00       	call   13cd0 <free@plt>
    2fd6:	83 c4 0c             	add    $0xc,%esp
    2fd9:	8d 45 c8             	lea    -0x38(%ebp),%eax
    2fdc:	be f2 ff ff ff       	mov    $0xfffffff2,%esi
    2fe1:	6a 20                	push   $0x20
    2fe3:	6a 00                	push   $0x0
    2fe5:	50                   	push   %eax
    2fe6:	e8 85 0a 01 00       	call   13a70 <memset@plt>
    2feb:	83 c4 10             	add    $0x10,%esp
    2fee:	e9 0a fa ff ff       	jmp    29fd <rtl8139_dev_add+0x19d>
    2ff3:	90                   	nop
    2ff4:	8d 74 26 00          	lea    0x0(%esi,%eiz,1),%esi
    2ff8:	83 ec 0c             	sub    $0xc,%esp
    2ffb:	57                   	push   %edi
    2ffc:	e8 df 1c 00 00       	call   4ce0 <ddf_dev_get_name>
    3001:	83 c4 0c             	add    $0xc,%esp
    3004:	50                   	push   %eax
    3005:	68 9c 11 01 00       	push   $0x1119c
    300a:	6a 01                	push   $0x1
    300c:	e8 af 25 00 00       	call   55c0 <ddf_msg>
    3011:	83 c4 10             	add    $0x10,%esp
    3014:	eb 96                	jmp    2fac <rtl8139_dev_add+0x74c>
    3016:	66 90                	xchg   %ax,%ax
    3018:	83 ec 0c             	sub    $0xc,%esp
    301b:	57                   	push   %edi
    301c:	e8 bf 1c 00 00       	call   4ce0 <ddf_dev_get_name>
    3021:	83 c4 0c             	add    $0xc,%esp
    3024:	50                   	push   %eax
    3025:	68 e4 11 01 00       	push   $0x111e4
    302a:	6a 01                	push   $0x1
    302c:	e8 8f 25 00 00       	call   55c0 <ddf_msg>
    3031:	83 c4 10             	add    $0x10,%esp
    3034:	e9 73 ff ff ff       	jmp    2fac <rtl8139_dev_add+0x74c>
    3039:	8b 45 c0             	mov    -0x40(%ebp),%eax
    303c:	56                   	push   %esi
    303d:	56                   	push   %esi
    303e:	68 d5 0f 01 00       	push   $0x10fd5
    3043:	50                   	push   %eax
    3044:	e8 77 23 00 00       	call   53c0 <ddf_fun_add_to_category>
    3049:	83 c4 10             	add    $0x10,%esp
    304c:	89 c6                	mov    %eax,%esi
    304e:	85 c0                	test   %eax,%eax
    3050:	0f 84 6c 01 00 00    	je     31c2 <rtl8139_dev_add+0x962>
    3056:	50                   	push   %eax
    3057:	50                   	push   %eax
    3058:	68 fc 13 01 00       	push   $0x113fc
    305d:	6a 01                	push   $0x1
    305f:	e8 5c 25 00 00       	call   55c0 <ddf_msg>
    3064:	8b 4d c0             	mov    -0x40(%ebp),%ecx
    3067:	5a                   	pop    %edx
    3068:	51                   	push   %ecx
    3069:	e8 32 21 00 00       	call   51a0 <ddf_fun_unbind>
    306e:	83 c4 10             	add    $0x10,%esp
    3071:	e9 32 fe ff ff       	jmp    2ea8 <rtl8139_dev_add+0x648>
    3076:	a1 34 15 01 00       	mov    0x11534,%eax
    307b:	83 ec 0c             	sub    $0xc,%esp
    307e:	89 43 7c             	mov    %eax,0x7c(%ebx)
    3081:	8b 14 85 c0 61 01 00 	mov    0x161c0(,%eax,4),%edx
    3088:	52                   	push   %edx
    3089:	50                   	push   %eax
    308a:	6a 02                	push   $0x2
    308c:	68 90 13 01 00       	push   $0x11390
    3091:	6a 03                	push   $0x3
    3093:	e8 28 25 00 00       	call   55c0 <ddf_msg>
    3098:	83 c4 20             	add    $0x20,%esp
    309b:	e9 8c fc ff ff       	jmp    2d2c <rtl8139_dev_add+0x4cc>
    30a0:	83 ec 0c             	sub    $0xc,%esp
    30a3:	be f4 ff ff ff       	mov    $0xfffffff4,%esi
    30a8:	57                   	push   %edi
    30a9:	e8 32 1c 00 00       	call   4ce0 <ddf_dev_get_name>
    30ae:	50                   	push   %eax
    30af:	8b 03                	mov    (%ebx),%eax
    30b1:	50                   	push   %eax
    30b2:	68 68 13 01 00       	push   $0x11368
    30b7:	6a 01                	push   $0x1
    30b9:	e8 02 25 00 00       	call   55c0 <ddf_msg>
    30be:	83 c4 20             	add    $0x20,%esp
    30c1:	e9 df fb ff ff       	jmp    2ca5 <rtl8139_dev_add+0x445>
    30c6:	a1 3c 15 01 00       	mov    0x1153c,%eax
    30cb:	83 ec 0c             	sub    $0xc,%esp
    30ce:	89 43 7c             	mov    %eax,0x7c(%ebx)
    30d1:	8b 0c 85 c0 61 01 00 	mov    0x161c0(,%eax,4),%ecx
    30d8:	51                   	push   %ecx
    30d9:	50                   	push   %eax
    30da:	6a 03                	push   $0x3
    30dc:	68 90 13 01 00       	push   $0x11390
    30e1:	6a 03                	push   $0x3
    30e3:	e8 d8 24 00 00       	call   55c0 <ddf_msg>
    30e8:	83 c4 20             	add    $0x20,%esp
    30eb:	e9 51 fc ff ff       	jmp    2d41 <rtl8139_dev_add+0x4e1>
    30f0:	a1 44 15 01 00       	mov    0x11544,%eax
    30f5:	83 ec 0c             	sub    $0xc,%esp
    30f8:	89 43 7c             	mov    %eax,0x7c(%ebx)
    30fb:	8b 14 85 c0 61 01 00 	mov    0x161c0(,%eax,4),%edx
    3102:	52                   	push   %edx
    3103:	50                   	push   %eax
    3104:	6a 04                	push   $0x4
    3106:	68 90 13 01 00       	push   $0x11390
    310b:	6a 03                	push   $0x3
    310d:	e8 ae 24 00 00       	call   55c0 <ddf_msg>
    3112:	83 c4 20             	add    $0x20,%esp
    3115:	e9 38 fc ff ff       	jmp    2d52 <rtl8139_dev_add+0x4f2>
    311a:	a1 4c 15 01 00       	mov    0x1154c,%eax
    311f:	83 ec 0c             	sub    $0xc,%esp
    3122:	89 43 7c             	mov    %eax,0x7c(%ebx)
    3125:	8b 0c 85 c0 61 01 00 	mov    0x161c0(,%eax,4),%ecx
    312c:	51                   	push   %ecx
    312d:	50                   	push   %eax
    312e:	6a 05                	push   $0x5
    3130:	68 90 13 01 00       	push   $0x11390
    3135:	6a 03                	push   $0x3
    3137:	e8 84 24 00 00       	call   55c0 <ddf_msg>
    313c:	83 c4 20             	add    $0x20,%esp
    313f:	e9 1f fc ff ff       	jmp    2d63 <rtl8139_dev_add+0x503>
    3144:	a1 54 15 01 00       	mov    0x11554,%eax
    3149:	83 ec 0c             	sub    $0xc,%esp
    314c:	89 43 7c             	mov    %eax,0x7c(%ebx)
    314f:	8b 14 85 c0 61 01 00 	mov    0x161c0(,%eax,4),%edx
    3156:	52                   	push   %edx
    3157:	50                   	push   %eax
    3158:	6a 06                	push   $0x6
    315a:	68 90 13 01 00       	push   $0x11390
    315f:	6a 03                	push   $0x3
    3161:	e8 5a 24 00 00       	call   55c0 <ddf_msg>
    3166:	83 c4 20             	add    $0x20,%esp
    3169:	e9 06 fc ff ff       	jmp    2d74 <rtl8139_dev_add+0x514>
    316e:	a1 5c 15 01 00       	mov    0x1155c,%eax
    3173:	83 ec 0c             	sub    $0xc,%esp
    3176:	89 43 7c             	mov    %eax,0x7c(%ebx)
    3179:	8b 0c 85 c0 61 01 00 	mov    0x161c0(,%eax,4),%ecx
    3180:	51                   	push   %ecx
    3181:	50                   	push   %eax
    3182:	6a 07                	push   $0x7
    3184:	68 90 13 01 00       	push   $0x11390
    3189:	6a 03                	push   $0x3
    318b:	e8 30 24 00 00       	call   55c0 <ddf_msg>
    3190:	83 c4 20             	add    $0x20,%esp
    3193:	e9 ed fb ff ff       	jmp    2d85 <rtl8139_dev_add+0x525>
    3198:	a1 64 15 01 00       	mov    0x11564,%eax
    319d:	83 ec 0c             	sub    $0xc,%esp
    31a0:	89 43 7c             	mov    %eax,0x7c(%ebx)
    31a3:	8b 14 85 c0 61 01 00 	mov    0x161c0(,%eax,4),%edx
    31aa:	52                   	push   %edx
    31ab:	50                   	push   %eax
    31ac:	6a 08                	push   $0x8
    31ae:	68 90 13 01 00       	push   $0x11390
    31b3:	6a 03                	push   $0x3
    31b5:	e8 06 24 00 00       	call   55c0 <ddf_msg>
    31ba:	83 c4 20             	add    $0x20,%esp
    31bd:	e9 d4 fb ff ff       	jmp    2d96 <rtl8139_dev_add+0x536>
    31c2:	83 ec 0c             	sub    $0xc,%esp
    31c5:	57                   	push   %edi
    31c6:	e8 15 1b 00 00       	call   4ce0 <ddf_dev_get_name>
    31cb:	83 c4 0c             	add    $0xc,%esp
    31ce:	50                   	push   %eax
    31cf:	68 20 14 01 00       	push   $0x11420
    31d4:	6a 03                	push   $0x3
    31d6:	e8 e5 23 00 00       	call   55c0 <ddf_msg>
    31db:	83 c4 10             	add    $0x10,%esp
    31de:	e9 54 f8 ff ff       	jmp    2a37 <rtl8139_dev_add+0x1d7>
    31e3:	51                   	push   %ecx
    31e4:	51                   	push   %ecx
    31e5:	68 bc 13 01 00       	push   $0x113bc
    31ea:	6a 01                	push   $0x1
    31ec:	e8 cf 23 00 00       	call   55c0 <ddf_msg>
    31f1:	83 c4 10             	add    $0x10,%esp
    31f4:	e9 be fc ff ff       	jmp    2eb7 <rtl8139_dev_add+0x657>
    31f9:	51                   	push   %ecx
    31fa:	68 56 04 00 00       	push   $0x456
    31ff:	68 d1 15 01 00       	push   $0x115d1
    3204:	68 57 0e 01 00       	push   $0x10e57
    3209:	e8 92 06 01 00       	call   138a0 <assert_abort@plt>
    320e:	51                   	push   %ecx
    320f:	68 ef 03 00 00       	push   $0x3ef
    3214:	68 d1 15 01 00       	push   $0x115d1
    3219:	68 3e 0f 01 00       	push   $0x10f3e
    321e:	e8 7d 06 01 00       	call   138a0 <assert_abort@plt>
    3223:	57                   	push   %edi
    3224:	68 0f 05 00 00       	push   $0x50f
    3229:	68 d1 15 01 00       	push   $0x115d1
    322e:	68 f5 0e 01 00       	push   $0x10ef5
    3233:	e8 68 06 01 00       	call   138a0 <assert_abort@plt>
    3238:	53                   	push   %ebx
    3239:	68 30 04 00 00       	push   $0x430
    323e:	68 d1 15 01 00       	push   $0x115d1
    3243:	68 4f 0e 01 00       	push   $0x10e4f
    3248:	e8 53 06 01 00       	call   138a0 <assert_abort@plt>
    324d:	50                   	push   %eax
    324e:	68 e7 00 00 00       	push   $0xe7
    3253:	68 d1 15 01 00       	push   $0x115d1
    3258:	68 4f 0e 01 00       	push   $0x10e4f
    325d:	e8 3e 06 01 00       	call   138a0 <assert_abort@plt>
    3262:	8d b4 26 00 00 00 00 	lea    0x0(%esi,%eiz,1),%esi
    3269:	8d bc 27 00 00 00 00 	lea    0x0(%edi,%eiz,1),%edi

00003270 <rtl8139_pause_set>:
    3270:	55                   	push   %ebp
    3271:	89 e5                	mov    %esp,%ebp
    3273:	56                   	push   %esi
    3274:	53                   	push   %ebx
    3275:	8b 45 08             	mov    0x8(%ebp),%eax
    3278:	8b 5d 14             	mov    0x14(%ebp),%ebx
    327b:	85 c0                	test   %eax,%eax
    327d:	0f 84 ec 00 00 00    	je     336f <rtl8139_pause_set+0xff>
    3283:	83 ec 0c             	sub    $0xc,%esp
    3286:	50                   	push   %eax
    3287:	e8 84 b5 00 00       	call   e810 <nic_get_from_ddf_fun>
    328c:	89 04 24             	mov    %eax,(%esp)
    328f:	e8 fc b4 00 00       	call   e790 <nic_get_specific>
    3294:	83 c4 10             	add    $0x10,%esp
    3297:	89 c6                	mov    %eax,%esi
    3299:	85 c0                	test   %eax,%eax
    329b:	0f 84 e3 00 00 00    	je     3384 <rtl8139_pause_set+0x114>
    32a1:	83 ec 0c             	sub    $0xc,%esp
    32a4:	8b 40 04             	mov    0x4(%eax),%eax
    32a7:	83 c0 62             	add    $0x62,%eax
    32aa:	50                   	push   %eax
    32ab:	e8 50 07 01 00       	call   13a00 <pio_read_16@plt>
    32b0:	83 c4 10             	add    $0x10,%esp
    32b3:	f6 c4 11             	test   $0x11,%ah
    32b6:	0f 84 a7 00 00 00    	je     3363 <rtl8139_pause_set+0xf3>
    32bc:	f6 c4 10             	test   $0x10,%ah
    32bf:	0f 85 83 00 00 00    	jne    3348 <rtl8139_pause_set+0xd8>
    32c5:	83 ec 0c             	sub    $0xc,%esp
    32c8:	8b 46 04             	mov    0x4(%esi),%eax
    32cb:	83 c0 58             	add    $0x58,%eax
    32ce:	50                   	push   %eax
    32cf:	e8 ac 05 01 00       	call   13880 <pio_read_8@plt>
    32d4:	8b 4d 10             	mov    0x10(%ebp),%ecx
    32d7:	83 e0 3f             	and    $0x3f,%eax
    32da:	83 c4 10             	add    $0x10,%esp
    32dd:	88 c2                	mov    %al,%dl
    32df:	85 c9                	test   %ecx,%ecx
    32e1:	74 03                	je     32e6 <rtl8139_pause_set+0x76>
    32e3:	83 ca 40             	or     $0x40,%edx
    32e6:	8b 45 0c             	mov    0xc(%ebp),%eax
    32e9:	85 c0                	test   %eax,%eax
    32eb:	74 3b                	je     3328 <rtl8139_pause_set+0xb8>
    32ed:	88 d1                	mov    %dl,%cl
    32ef:	50                   	push   %eax
    32f0:	83 c9 80             	or     $0xffffff80,%ecx
    32f3:	50                   	push   %eax
    32f4:	31 c0                	xor    %eax,%eax
    32f6:	88 c8                	mov    %cl,%al
    32f8:	50                   	push   %eax
    32f9:	8b 46 04             	mov    0x4(%esi),%eax
    32fc:	83 c0 58             	add    $0x58,%eax
    32ff:	50                   	push   %eax
    3300:	e8 0b 06 01 00       	call   13910 <pio_write_8@plt>
    3305:	83 c4 10             	add    $0x10,%esp
    3308:	66 85 db             	test   %bx,%bx
    330b:	74 31                	je     333e <rtl8139_pause_set+0xce>
    330d:	53                   	push   %ebx
    330e:	53                   	push   %ebx
    330f:	68 7c 14 01 00       	push   $0x1147c
    3314:	6a 02                	push   $0x2
    3316:	e8 a5 22 00 00       	call   55c0 <ddf_msg>
    331b:	83 c4 10             	add    $0x10,%esp
    331e:	8d 65 f8             	lea    -0x8(%ebp),%esp
    3321:	31 c0                	xor    %eax,%eax
    3323:	5b                   	pop    %ebx
    3324:	5e                   	pop    %esi
    3325:	5d                   	pop    %ebp
    3326:	c3                   	ret    
    3327:	90                   	nop
    3328:	50                   	push   %eax
    3329:	50                   	push   %eax
    332a:	31 c0                	xor    %eax,%eax
    332c:	88 d0                	mov    %dl,%al
    332e:	50                   	push   %eax
    332f:	8b 46 04             	mov    0x4(%esi),%eax
    3332:	83 c0 58             	add    $0x58,%eax
    3335:	50                   	push   %eax
    3336:	e8 d5 05 01 00       	call   13910 <pio_write_8@plt>
    333b:	83 c4 10             	add    $0x10,%esp
    333e:	8d 65 f8             	lea    -0x8(%ebp),%esp
    3341:	31 c0                	xor    %eax,%eax
    3343:	5b                   	pop    %ebx
    3344:	5e                   	pop    %esi
    3345:	5d                   	pop    %ebp
    3346:	c3                   	ret    
    3347:	90                   	nop
    3348:	83 ec 0c             	sub    $0xc,%esp
    334b:	8b 46 04             	mov    0x4(%esi),%eax
    334e:	83 c0 68             	add    $0x68,%eax
    3351:	50                   	push   %eax
    3352:	e8 a9 06 01 00       	call   13a00 <pio_read_16@plt>
    3357:	83 c4 10             	add    $0x10,%esp
    335a:	f6 c4 04             	test   $0x4,%ah
    335d:	0f 84 62 ff ff ff    	je     32c5 <rtl8139_pause_set+0x55>
    3363:	8d 65 f8             	lea    -0x8(%ebp),%esp
    3366:	b8 f2 ff ff ff       	mov    $0xfffffff2,%eax
    336b:	5b                   	pop    %ebx
    336c:	5e                   	pop    %esi
    336d:	5d                   	pop    %ebp
    336e:	c3                   	ret    
    336f:	50                   	push   %eax
    3370:	68 24 06 00 00       	push   $0x624
    3375:	68 d1 15 01 00       	push   $0x115d1
    337a:	68 39 0e 01 00       	push   $0x10e39
    337f:	e8 1c 05 01 00       	call   138a0 <assert_abort@plt>
    3384:	50                   	push   %eax
    3385:	68 27 06 00 00       	push   $0x627
    338a:	68 d1 15 01 00       	push   $0x115d1
    338f:	68 4f 0e 01 00       	push   $0x10e4f
    3394:	e8 07 05 01 00       	call   138a0 <assert_abort@plt>
    3399:	8d b4 26 00 00 00 00 	lea    0x0(%esi,%eiz,1),%esi

000033a0 <rtl8139_autoneg_probe>:
    33a0:	55                   	push   %ebp
    33a1:	89 e5                	mov    %esp,%ebp
    33a3:	57                   	push   %edi
    33a4:	56                   	push   %esi
    33a5:	53                   	push   %ebx
    33a6:	83 ec 1c             	sub    $0x1c,%esp
    33a9:	8b 45 08             	mov    0x8(%ebp),%eax
    33ac:	85 c0                	test   %eax,%eax
    33ae:	0f 84 5b 01 00 00    	je     350f <rtl8139_autoneg_probe+0x16f>
    33b4:	83 ec 0c             	sub    $0xc,%esp
    33b7:	50                   	push   %eax
    33b8:	e8 53 b4 00 00       	call   e810 <nic_get_from_ddf_fun>
    33bd:	89 04 24             	mov    %eax,(%esp)
    33c0:	e8 cb b3 00 00       	call   e790 <nic_get_specific>
    33c5:	83 c4 10             	add    $0x10,%esp
    33c8:	89 c7                	mov    %eax,%edi
    33ca:	85 c0                	test   %eax,%eax
    33cc:	0f 84 28 01 00 00    	je     34fa <rtl8139_autoneg_probe+0x15a>
    33d2:	83 ec 0c             	sub    $0xc,%esp
    33d5:	8b 40 04             	mov    0x4(%eax),%eax
    33d8:	83 c0 62             	add    $0x62,%eax
    33db:	50                   	push   %eax
    33dc:	e8 1f 06 01 00       	call   13a00 <pio_read_16@plt>
    33e1:	8b 57 04             	mov    0x4(%edi),%edx
    33e4:	66 89 45 e6          	mov    %ax,-0x1a(%ebp)
    33e8:	8d 42 66             	lea    0x66(%edx),%eax
    33eb:	89 04 24             	mov    %eax,(%esp)
    33ee:	e8 0d 06 01 00       	call   13a00 <pio_read_16@plt>
    33f3:	8b 57 04             	mov    0x4(%edi),%edx
    33f6:	89 c6                	mov    %eax,%esi
    33f8:	8d 42 68             	lea    0x68(%edx),%eax
    33fb:	89 04 24             	mov    %eax,(%esp)
    33fe:	e8 fd 05 01 00       	call   13a00 <pio_read_16@plt>
    3403:	89 c3                	mov    %eax,%ebx
    3405:	8b 47 04             	mov    0x4(%edi),%eax
    3408:	83 c0 6a             	add    $0x6a,%eax
    340b:	89 04 24             	mov    %eax,(%esp)
    340e:	e8 ed 05 01 00       	call   13a00 <pio_read_16@plt>
    3413:	66 8b 7d e6          	mov    -0x1a(%ebp),%di
    3417:	8b 4d 14             	mov    0x14(%ebp),%ecx
    341a:	66 c1 ef 0c          	shr    $0xc,%di
    341e:	83 e0 01             	and    $0x1,%eax
    3421:	83 e7 01             	and    $0x1,%edi
    3424:	83 c4 10             	add    $0x10,%esp
    3427:	89 39                	mov    %edi,(%ecx)
    3429:	8b 4d 18             	mov    0x18(%ebp),%ecx
    342c:	89 01                	mov    %eax,(%ecx)
    342e:	89 f0                	mov    %esi,%eax
    3430:	66 c1 e8 05          	shr    $0x5,%ax
    3434:	83 e0 01             	and    $0x1,%eax
    3437:	f7 c6 40 00 00 00    	test   $0x40,%esi
    343d:	0f 85 9d 00 00 00    	jne    34e0 <rtl8139_autoneg_probe+0x140>
    3443:	8b 55 0c             	mov    0xc(%ebp),%edx
    3446:	89 02                	mov    %eax,(%edx)
    3448:	f7 c6 80 00 00 00    	test   $0x80,%esi
    344e:	74 08                	je     3458 <rtl8139_autoneg_probe+0xb8>
    3450:	8b 55 0c             	mov    0xc(%ebp),%edx
    3453:	83 c8 04             	or     $0x4,%eax
    3456:	89 02                	mov    %eax,(%edx)
    3458:	f7 c6 00 01 00 00    	test   $0x100,%esi
    345e:	74 08                	je     3468 <rtl8139_autoneg_probe+0xc8>
    3460:	8b 4d 0c             	mov    0xc(%ebp),%ecx
    3463:	83 c8 20             	or     $0x20,%eax
    3466:	89 01                	mov    %eax,(%ecx)
    3468:	f7 c6 00 02 00 00    	test   $0x200,%esi
    346e:	74 08                	je     3478 <rtl8139_autoneg_probe+0xd8>
    3470:	8b 55 0c             	mov    0xc(%ebp),%edx
    3473:	83 c8 08             	or     $0x8,%eax
    3476:	89 02                	mov    %eax,(%edx)
    3478:	81 e6 00 04 00 00    	and    $0x400,%esi
    347e:	74 0a                	je     348a <rtl8139_autoneg_probe+0xea>
    3480:	8b 55 0c             	mov    0xc(%ebp),%edx
    3483:	0d 00 00 00 10       	or     $0x10000000,%eax
    3488:	89 02                	mov    %eax,(%edx)
    348a:	89 d8                	mov    %ebx,%eax
    348c:	66 c1 e8 05          	shr    $0x5,%ax
    3490:	83 e0 01             	and    $0x1,%eax
    3493:	f6 c3 40             	test   $0x40,%bl
    3496:	75 58                	jne    34f0 <rtl8139_autoneg_probe+0x150>
    3498:	8b 75 10             	mov    0x10(%ebp),%esi
    349b:	89 06                	mov    %eax,(%esi)
    349d:	f6 c3 80             	test   $0x80,%bl
    34a0:	74 08                	je     34aa <rtl8139_autoneg_probe+0x10a>
    34a2:	8b 75 10             	mov    0x10(%ebp),%esi
    34a5:	83 c8 04             	or     $0x4,%eax
    34a8:	89 06                	mov    %eax,(%esi)
    34aa:	f6 c7 01             	test   $0x1,%bh
    34ad:	74 08                	je     34b7 <rtl8139_autoneg_probe+0x117>
    34af:	8b 55 10             	mov    0x10(%ebp),%edx
    34b2:	83 c8 20             	or     $0x20,%eax
    34b5:	89 02                	mov    %eax,(%edx)
    34b7:	f6 c7 02             	test   $0x2,%bh
    34ba:	74 08                	je     34c4 <rtl8139_autoneg_probe+0x124>
    34bc:	8b 4d 10             	mov    0x10(%ebp),%ecx
    34bf:	83 c8 08             	or     $0x8,%eax
    34c2:	89 01                	mov    %eax,(%ecx)
    34c4:	80 e7 04             	and    $0x4,%bh
    34c7:	74 0a                	je     34d3 <rtl8139_autoneg_probe+0x133>
    34c9:	8b 4d 10             	mov    0x10(%ebp),%ecx
    34cc:	0d 00 00 00 10       	or     $0x10000000,%eax
    34d1:	89 01                	mov    %eax,(%ecx)
    34d3:	8d 65 f4             	lea    -0xc(%ebp),%esp
    34d6:	31 c0                	xor    %eax,%eax
    34d8:	5b                   	pop    %ebx
    34d9:	5e                   	pop    %esi
    34da:	5f                   	pop    %edi
    34db:	5d                   	pop    %ebp
    34dc:	c3                   	ret    
    34dd:	8d 76 00             	lea    0x0(%esi),%esi
    34e0:	8b 4d 0c             	mov    0xc(%ebp),%ecx
    34e3:	83 c8 02             	or     $0x2,%eax
    34e6:	89 01                	mov    %eax,(%ecx)
    34e8:	e9 5b ff ff ff       	jmp    3448 <rtl8139_autoneg_probe+0xa8>
    34ed:	8d 76 00             	lea    0x0(%esi),%esi
    34f0:	8b 4d 10             	mov    0x10(%ebp),%ecx
    34f3:	83 c8 02             	or     $0x2,%eax
    34f6:	89 01                	mov    %eax,(%ecx)
    34f8:	eb a3                	jmp    349d <rtl8139_autoneg_probe+0xfd>
    34fa:	50                   	push   %eax
    34fb:	68 d2 06 00 00       	push   $0x6d2
    3500:	68 d1 15 01 00       	push   $0x115d1
    3505:	68 4f 0e 01 00       	push   $0x10e4f
    350a:	e8 91 03 01 00       	call   138a0 <assert_abort@plt>
    350f:	52                   	push   %edx
    3510:	68 cf 06 00 00       	push   $0x6cf
    3515:	68 d1 15 01 00       	push   $0x115d1
    351a:	68 39 0e 01 00       	push   $0x10e39
    351f:	e8 7c 03 01 00       	call   138a0 <assert_abort@plt>
    3524:	8d b6 00 00 00 00    	lea    0x0(%esi),%esi
    352a:	8d bf 00 00 00 00    	lea    0x0(%edi),%edi

00003530 <rtl8139_wol_virtue_rem>:
    3530:	55                   	push   %ebp
    3531:	89 e5                	mov    %esp,%ebp
    3533:	57                   	push   %edi
    3534:	56                   	push   %esi
    3535:	53                   	push   %ebx
    3536:	83 ec 1c             	sub    $0x1c,%esp
    3539:	8b 45 08             	mov    0x8(%ebp),%eax
    353c:	8b 75 0c             	mov    0xc(%ebp),%esi
    353f:	85 c0                	test   %eax,%eax
    3541:	0f 84 8b 01 00 00    	je     36d2 <rtl8139_wol_virtue_rem+0x1a2>
    3547:	85 f6                	test   %esi,%esi
    3549:	0f 84 ad 01 00 00    	je     36fc <rtl8139_wol_virtue_rem+0x1cc>
    354f:	83 ec 0c             	sub    $0xc,%esp
    3552:	50                   	push   %eax
    3553:	e8 38 b2 00 00       	call   e790 <nic_get_specific>
    3558:	83 c4 10             	add    $0x10,%esp
    355b:	89 c3                	mov    %eax,%ebx
    355d:	85 c0                	test   %eax,%eax
    355f:	0f 84 82 01 00 00    	je     36e7 <rtl8139_wol_virtue_rem+0x1b7>
    3565:	8b 46 0c             	mov    0xc(%esi),%eax
    3568:	83 f8 02             	cmp    $0x2,%eax
    356b:	0f 84 37 01 00 00    	je     36a8 <rtl8139_wol_virtue_rem+0x178>
    3571:	83 f8 04             	cmp    $0x4,%eax
    3574:	74 12                	je     3588 <rtl8139_wol_virtue_rem+0x58>
    3576:	48                   	dec    %eax
    3577:	0f 84 db 00 00 00    	je     3658 <rtl8139_wol_virtue_rem+0x128>
    357d:	8d 65 f4             	lea    -0xc(%ebp),%esp
    3580:	5b                   	pop    %ebx
    3581:	5e                   	pop    %esi
    3582:	5f                   	pop    %edi
    3583:	5d                   	pop    %ebp
    3584:	c3                   	ret    
    3585:	8d 76 00             	lea    0x0(%esi),%esi
    3588:	83 ec 0c             	sub    $0xc,%esp
    358b:	8b 43 04             	mov    0x4(%ebx),%eax
    358e:	05 d8 00 00 00       	add    $0xd8,%eax
    3593:	50                   	push   %eax
    3594:	e8 e7 02 01 00       	call   13880 <pio_read_8@plt>
    3599:	25 bf 00 00 00       	and    $0xbf,%eax
    359e:	5e                   	pop    %esi
    359f:	5f                   	pop    %edi
    35a0:	50                   	push   %eax
    35a1:	8b 43 04             	mov    0x4(%ebx),%eax
    35a4:	05 d8 00 00 00       	add    $0xd8,%eax
    35a9:	50                   	push   %eax
    35aa:	e8 61 03 01 00       	call   13910 <pio_write_8@plt>
    35af:	83 c4 10             	add    $0x10,%esp
    35b2:	8b 43 40             	mov    0x40(%ebx),%eax
    35b5:	48                   	dec    %eax
    35b6:	89 43 40             	mov    %eax,0x40(%ebx)
    35b9:	85 c0                	test   %eax,%eax
    35bb:	75 c0                	jne    357d <rtl8139_wol_virtue_rem+0x4d>
    35bd:	83 ec 0c             	sub    $0xc,%esp
    35c0:	8b 43 04             	mov    0x4(%ebx),%eax
    35c3:	83 c0 52             	add    $0x52,%eax
    35c6:	50                   	push   %eax
    35c7:	e8 b4 02 01 00       	call   13880 <pio_read_8@plt>
    35cc:	89 c6                	mov    %eax,%esi
    35ce:	83 c4 10             	add    $0x10,%esp
    35d1:	83 e6 fe             	and    $0xfffffffe,%esi
    35d4:	89 f2                	mov    %esi,%edx
    35d6:	38 d0                	cmp    %dl,%al
    35d8:	74 a3                	je     357d <rtl8139_wol_virtue_rem+0x4d>
    35da:	50                   	push   %eax
    35db:	50                   	push   %eax
    35dc:	8b 43 04             	mov    0x4(%ebx),%eax
    35df:	68 c0 00 00 00       	push   $0xc0
    35e4:	83 c0 50             	add    $0x50,%eax
    35e7:	81 e6 ff 00 00 00    	and    $0xff,%esi
    35ed:	50                   	push   %eax
    35ee:	e8 1d 03 01 00       	call   13910 <pio_write_8@plt>
    35f3:	8b 43 04             	mov    0x4(%ebx),%eax
    35f6:	5a                   	pop    %edx
    35f7:	83 c0 52             	add    $0x52,%eax
    35fa:	59                   	pop    %ecx
    35fb:	56                   	push   %esi
    35fc:	50                   	push   %eax
    35fd:	e8 0e 03 01 00       	call   13910 <pio_write_8@plt>
    3602:	8b 43 04             	mov    0x4(%ebx),%eax
    3605:	83 c0 50             	add    $0x50,%eax
    3608:	5e                   	pop    %esi
    3609:	5f                   	pop    %edi
    360a:	6a 00                	push   $0x0
    360c:	50                   	push   %eax
    360d:	e8 fe 02 01 00       	call   13910 <pio_write_8@plt>
    3612:	58                   	pop    %eax
    3613:	8b 43 78             	mov    0x78(%ebx),%eax
    3616:	50                   	push   %eax
    3617:	e8 b4 b1 00 00       	call   e7d0 <nic_get_ddf_dev>
    361c:	89 04 24             	mov    %eax,(%esp)
    361f:	e8 0c 17 00 00       	call   4d30 <ddf_dev_parent_sess_get>
    3624:	83 c4 0c             	add    $0xc,%esp
    3627:	89 c3                	mov    %eax,%ebx
    3629:	8d 45 e7             	lea    -0x19(%ebp),%eax
    362c:	50                   	push   %eax
    362d:	6a 55                	push   $0x55
    362f:	53                   	push   %ebx
    3630:	e8 9b 86 00 00       	call   bcd0 <pci_config_space_read_8>
    3635:	83 c4 0c             	add    $0xc,%esp
    3638:	8a 45 e7             	mov    -0x19(%ebp),%al
    363b:	83 e0 7e             	and    $0x7e,%eax
    363e:	50                   	push   %eax
    363f:	6a 55                	push   $0x55
    3641:	53                   	push   %ebx
    3642:	e8 a9 87 00 00       	call   bdf0 <pci_config_space_write_8>
    3647:	83 c4 10             	add    $0x10,%esp
    364a:	8d 65 f4             	lea    -0xc(%ebp),%esp
    364d:	5b                   	pop    %ebx
    364e:	5e                   	pop    %esi
    364f:	5f                   	pop    %edi
    3650:	5d                   	pop    %ebp
    3651:	c3                   	ret    
    3652:	8d b6 00 00 00 00    	lea    0x0(%esi),%esi
    3658:	50                   	push   %eax
    3659:	50                   	push   %eax
    365a:	8b 43 04             	mov    0x4(%ebx),%eax
    365d:	68 c0 00 00 00       	push   $0xc0
    3662:	83 c0 50             	add    $0x50,%eax
    3665:	50                   	push   %eax
    3666:	e8 a5 02 01 00       	call   13910 <pio_write_8@plt>
    366b:	8b 43 04             	mov    0x4(%ebx),%eax
    366e:	83 c0 59             	add    $0x59,%eax
    3671:	89 04 24             	mov    %eax,(%esp)
    3674:	e8 07 02 01 00       	call   13880 <pio_read_8@plt>
    3679:	5a                   	pop    %edx
    367a:	25 ef 00 00 00       	and    $0xef,%eax
    367f:	59                   	pop    %ecx
    3680:	50                   	push   %eax
    3681:	8b 43 04             	mov    0x4(%ebx),%eax
    3684:	83 c0 59             	add    $0x59,%eax
    3687:	50                   	push   %eax
    3688:	e8 83 02 01 00       	call   13910 <pio_write_8@plt>
    368d:	58                   	pop    %eax
    368e:	8b 43 04             	mov    0x4(%ebx),%eax
    3691:	83 c0 50             	add    $0x50,%eax
    3694:	5a                   	pop    %edx
    3695:	6a 00                	push   $0x0
    3697:	50                   	push   %eax
    3698:	e8 73 02 01 00       	call   13910 <pio_write_8@plt>
    369d:	83 c4 10             	add    $0x10,%esp
    36a0:	e9 0d ff ff ff       	jmp    35b2 <rtl8139_wol_virtue_rem+0x82>
    36a5:	8d 76 00             	lea    0x0(%esi),%esi
    36a8:	51                   	push   %ecx
    36a9:	51                   	push   %ecx
    36aa:	8b 43 04             	mov    0x4(%ebx),%eax
    36ad:	68 c0 00 00 00       	push   $0xc0
    36b2:	83 c0 50             	add    $0x50,%eax
    36b5:	50                   	push   %eax
    36b6:	e8 55 02 01 00       	call   13910 <pio_write_8@plt>
    36bb:	8b 43 04             	mov    0x4(%ebx),%eax
    36be:	83 c0 59             	add    $0x59,%eax
    36c1:	89 04 24             	mov    %eax,(%esp)
    36c4:	e8 b7 01 01 00       	call   13880 <pio_read_8@plt>
    36c9:	5e                   	pop    %esi
    36ca:	25 df 00 00 00       	and    $0xdf,%eax
    36cf:	5f                   	pop    %edi
    36d0:	eb ae                	jmp    3680 <rtl8139_wol_virtue_rem+0x150>
    36d2:	50                   	push   %eax
    36d3:	68 04 08 00 00       	push   $0x804
    36d8:	68 d1 15 01 00       	push   $0x115d1
    36dd:	68 57 0e 01 00       	push   $0x10e57
    36e2:	e8 b9 01 01 00       	call   138a0 <assert_abort@plt>
    36e7:	50                   	push   %eax
    36e8:	68 08 08 00 00       	push   $0x808
    36ed:	68 d1 15 01 00       	push   $0x115d1
    36f2:	68 4f 0e 01 00       	push   $0x10e4f
    36f7:	e8 a4 01 01 00       	call   138a0 <assert_abort@plt>
    36fc:	50                   	push   %eax
    36fd:	68 05 08 00 00       	push   $0x805
    3702:	68 d1 15 01 00       	push   $0x115d1
    3707:	68 ff 0e 01 00       	push   $0x10eff
    370c:	e8 8f 01 01 00       	call   138a0 <assert_abort@plt>
    3711:	eb 0d                	jmp    3720 <rtl8139_soft_reset>
    3713:	90                   	nop
    3714:	90                   	nop
    3715:	90                   	nop
    3716:	90                   	nop
    3717:	90                   	nop
    3718:	90                   	nop
    3719:	90                   	nop
    371a:	90                   	nop
    371b:	90                   	nop
    371c:	90                   	nop
    371d:	90                   	nop
    371e:	90                   	nop
    371f:	90                   	nop

00003720 <rtl8139_soft_reset>:
    3720:	55                   	push   %ebp
    3721:	89 e5                	mov    %esp,%ebp
    3723:	56                   	push   %esi
    3724:	53                   	push   %ebx
    3725:	83 ec 10             	sub    $0x10,%esp
    3728:	85 c0                	test   %eax,%eax
    372a:	0f 84 34 01 00 00    	je     3864 <rtl8139_soft_reset+0x144>
    3730:	89 c3                	mov    %eax,%ebx
    3732:	8b 40 04             	mov    0x4(%eax),%eax
    3735:	8d 70 37             	lea    0x37(%eax),%esi
    3738:	50                   	push   %eax
    3739:	50                   	push   %eax
    373a:	6a 10                	push   $0x10
    373c:	56                   	push   %esi
    373d:	e8 ce 01 01 00       	call   13910 <pio_write_8@plt>
    3742:	0f ae f0             	mfence 
    3745:	83 c4 10             	add    $0x10,%esp
    3748:	eb 16                	jmp    3760 <rtl8139_soft_reset+0x40>
    374a:	8d b6 00 00 00 00    	lea    0x0(%esi),%esi
    3750:	83 ec 0c             	sub    $0xc,%esp
    3753:	6a 01                	push   $0x1
    3755:	e8 26 00 01 00       	call   13780 <usleep@plt>
    375a:	0f ae e8             	lfence 
    375d:	83 c4 10             	add    $0x10,%esp
    3760:	83 ec 0c             	sub    $0xc,%esp
    3763:	56                   	push   %esi
    3764:	e8 17 01 01 00       	call   13880 <pio_read_8@plt>
    3769:	83 c4 10             	add    $0x10,%esp
    376c:	a8 10                	test   $0x10,%al
    376e:	75 e0                	jne    3750 <rtl8139_soft_reset+0x30>
    3770:	8b 73 78             	mov    0x78(%ebx),%esi
    3773:	50                   	push   %eax
    3774:	50                   	push   %eax
    3775:	8d 45 f2             	lea    -0xe(%ebp),%eax
    3778:	50                   	push   %eax
    3779:	56                   	push   %esi
    377a:	e8 21 a8 00 00       	call   dfa0 <nic_query_address>
    377f:	8b 43 04             	mov    0x4(%ebx),%eax
    3782:	83 c0 50             	add    $0x50,%eax
    3785:	5a                   	pop    %edx
    3786:	59                   	pop    %ecx
    3787:	68 c0 00 00 00       	push   $0xc0
    378c:	50                   	push   %eax
    378d:	e8 7e 01 01 00       	call   13910 <pio_write_8@plt>
    3792:	58                   	pop    %eax
    3793:	8b 4d f2             	mov    -0xe(%ebp),%ecx
    3796:	8b 43 04             	mov    0x4(%ebx),%eax
    3799:	5a                   	pop    %edx
    379a:	51                   	push   %ecx
    379b:	50                   	push   %eax
    379c:	e8 1f 02 01 00       	call   139c0 <pio_write_32@plt>
    37a1:	58                   	pop    %eax
    37a2:	31 c0                	xor    %eax,%eax
    37a4:	5a                   	pop    %edx
    37a5:	66 8b 45 f6          	mov    -0xa(%ebp),%ax
    37a9:	50                   	push   %eax
    37aa:	8b 43 04             	mov    0x4(%ebx),%eax
    37ad:	83 c0 04             	add    $0x4,%eax
    37b0:	50                   	push   %eax
    37b1:	e8 0a 02 01 00       	call   139c0 <pio_write_32@plt>
    37b6:	59                   	pop    %ecx
    37b7:	58                   	pop    %eax
    37b8:	8b 43 04             	mov    0x4(%ebx),%eax
    37bb:	6a 00                	push   $0x0
    37bd:	83 c0 50             	add    $0x50,%eax
    37c0:	50                   	push   %eax
    37c1:	e8 4a 01 01 00       	call   13910 <pio_write_8@plt>
    37c6:	89 34 24             	mov    %esi,(%esp)
    37c9:	e8 02 ae 00 00       	call   e5d0 <nic_query_mcast_hash>
    37ce:	89 d6                	mov    %edx,%esi
    37d0:	5a                   	pop    %edx
    37d1:	59                   	pop    %ecx
    37d2:	50                   	push   %eax
    37d3:	8b 43 04             	mov    0x4(%ebx),%eax
    37d6:	83 c0 08             	add    $0x8,%eax
    37d9:	50                   	push   %eax
    37da:	e8 e1 01 01 00       	call   139c0 <pio_write_32@plt>
    37df:	58                   	pop    %eax
    37e0:	8b 43 04             	mov    0x4(%ebx),%eax
    37e3:	83 c0 0c             	add    $0xc,%eax
    37e6:	5a                   	pop    %edx
    37e7:	56                   	push   %esi
    37e8:	50                   	push   %eax
    37e9:	e8 d2 01 01 00       	call   139c0 <pio_write_32@plt>
    37ee:	8b 73 38             	mov    0x38(%ebx),%esi
    37f1:	31 c0                	xor    %eax,%eax
    37f3:	81 ce 00 08 00 00    	or     $0x800,%esi
    37f9:	8a 43 3c             	mov    0x3c(%ebx),%al
    37fc:	09 c6                	or     %eax,%esi
    37fe:	31 c0                	xor    %eax,%eax
    3800:	8a 43 3d             	mov    0x3d(%ebx),%al
    3803:	09 c6                	or     %eax,%esi
    3805:	31 c0                	xor    %eax,%eax
    3807:	8a 43 3e             	mov    0x3e(%ebx),%al
    380a:	09 c6                	or     %eax,%esi
    380c:	31 c0                	xor    %eax,%eax
    380e:	8a 43 3f             	mov    0x3f(%ebx),%al
    3811:	09 c6                	or     %eax,%esi
    3813:	8b 43 04             	mov    0x4(%ebx),%eax
    3816:	83 c0 44             	add    $0x44,%eax
    3819:	89 04 24             	mov    %eax,(%esp)
    381c:	e8 af ff 00 00       	call   137d0 <pio_read_32@plt>
    3821:	56                   	push   %esi
    3822:	50                   	push   %eax
    3823:	68 dd 0e 01 00       	push   $0x10edd
    3828:	6a 04                	push   $0x4
    382a:	e8 91 1d 00 00       	call   55c0 <ddf_msg>
    382f:	83 c4 18             	add    $0x18,%esp
    3832:	8b 43 04             	mov    0x4(%ebx),%eax
    3835:	56                   	push   %esi
    3836:	83 c0 44             	add    $0x44,%eax
    3839:	50                   	push   %eax
    383a:	e8 81 01 01 00       	call   139c0 <pio_write_32@plt>
    383f:	c7 43 2c 00 00 00 00 	movl   $0x0,0x2c(%ebx)
    3846:	c7 43 28 00 00 00 00 	movl   $0x0,0x28(%ebx)
    384d:	8b 43 78             	mov    0x78(%ebx),%eax
    3850:	59                   	pop    %ecx
    3851:	5e                   	pop    %esi
    3852:	6a 00                	push   $0x0
    3854:	50                   	push   %eax
    3855:	e8 76 a7 00 00       	call   dfd0 <nic_set_tx_busy>
    385a:	83 c4 10             	add    $0x10,%esp
    385d:	8d 65 f8             	lea    -0x8(%ebp),%esp
    3860:	5b                   	pop    %ebx
    3861:	5e                   	pop    %esi
    3862:	5d                   	pop    %ebp
    3863:	c3                   	ret    
    3864:	50                   	push   %eax
    3865:	68 e5 01 00 00       	push   $0x1e5
    386a:	68 d1 15 01 00       	push   $0x115d1
    386f:	68 4f 0e 01 00       	push   $0x10e4f
    3874:	e8 27 00 01 00       	call   138a0 <assert_abort@plt>
    3879:	8d b4 26 00 00 00 00 	lea    0x0(%esi,%eiz,1),%esi

00003880 <rtl8139_on_stopped>:
    3880:	55                   	push   %ebp
    3881:	89 e5                	mov    %esp,%ebp
    3883:	57                   	push   %edi
    3884:	56                   	push   %esi
    3885:	53                   	push   %ebx
    3886:	83 ec 0c             	sub    $0xc,%esp
    3889:	8b 45 08             	mov    0x8(%ebp),%eax
    388c:	85 c0                	test   %eax,%eax
    388e:	74 51                	je     38e1 <rtl8139_on_stopped+0x61>
    3890:	83 ec 0c             	sub    $0xc,%esp
    3893:	50                   	push   %eax
    3894:	e8 f7 ae 00 00       	call   e790 <nic_get_specific>
    3899:	83 c4 10             	add    $0x10,%esp
    389c:	89 c3                	mov    %eax,%ebx
    389e:	85 c0                	test   %eax,%eax
    38a0:	74 54                	je     38f6 <rtl8139_on_stopped+0x76>
    38a2:	83 ec 0c             	sub    $0xc,%esp
    38a5:	8d 70 54             	lea    0x54(%eax),%esi
    38a8:	c7 40 3c 02 00 08 00 	movl   $0x80002,0x3c(%eax)
    38af:	8d 7b 44             	lea    0x44(%ebx),%edi
    38b2:	56                   	push   %esi
    38b3:	e8 38 04 01 00       	call   13cf0 <fibril_mutex_lock@plt>
    38b8:	89 3c 24             	mov    %edi,(%esp)
    38bb:	e8 30 04 01 00       	call   13cf0 <fibril_mutex_lock@plt>
    38c0:	89 d8                	mov    %ebx,%eax
    38c2:	e8 59 fe ff ff       	call   3720 <rtl8139_soft_reset>
    38c7:	89 3c 24             	mov    %edi,(%esp)
    38ca:	e8 81 00 01 00       	call   13950 <fibril_mutex_unlock@plt>
    38cf:	89 34 24             	mov    %esi,(%esp)
    38d2:	e8 79 00 01 00       	call   13950 <fibril_mutex_unlock@plt>
    38d7:	8d 65 f4             	lea    -0xc(%ebp),%esp
    38da:	31 c0                	xor    %eax,%eax
    38dc:	5b                   	pop    %ebx
    38dd:	5e                   	pop    %esi
    38de:	5f                   	pop    %edi
    38df:	5d                   	pop    %ebp
    38e0:	c3                   	ret    
    38e1:	52                   	push   %edx
    38e2:	68 cf 03 00 00       	push   $0x3cf
    38e7:	68 d1 15 01 00       	push   $0x115d1
    38ec:	68 57 0e 01 00       	push   $0x10e57
    38f1:	e8 aa ff 00 00       	call   138a0 <assert_abort@plt>
    38f6:	50                   	push   %eax
    38f7:	68 d2 03 00 00       	push   $0x3d2
    38fc:	68 d1 15 01 00       	push   $0x115d1
    3901:	68 4f 0e 01 00       	push   $0x10e4f
    3906:	e8 95 ff 00 00       	call   138a0 <assert_abort@plt>
    390b:	90                   	nop
    390c:	8d 74 26 00          	lea    0x0(%esi,%eiz,1),%esi

00003910 <rtl8139_defective_set_mode>:
    3910:	55                   	push   %ebp
    3911:	89 e5                	mov    %esp,%ebp
    3913:	57                   	push   %edi
    3914:	56                   	push   %esi
    3915:	53                   	push   %ebx
    3916:	83 ec 0c             	sub    $0xc,%esp
    3919:	8b 45 08             	mov    0x8(%ebp),%eax
    391c:	8b 5d 0c             	mov    0xc(%ebp),%ebx
    391f:	85 c0                	test   %eax,%eax
    3921:	0f 84 c8 00 00 00    	je     39ef <rtl8139_defective_set_mode+0xdf>
    3927:	83 ec 0c             	sub    $0xc,%esp
    392a:	50                   	push   %eax
    392b:	e8 e0 ae 00 00       	call   e810 <nic_get_from_ddf_fun>
    3930:	89 04 24             	mov    %eax,(%esp)
    3933:	e8 58 ae 00 00       	call   e790 <nic_get_specific>
    3938:	83 c4 10             	add    $0x10,%esp
    393b:	89 c6                	mov    %eax,%esi
    393d:	85 c0                	test   %eax,%eax
    393f:	0f 84 bf 00 00 00    	je     3a04 <rtl8139_defective_set_mode+0xf4>
    3945:	f7 c3 ed ff ff ff    	test   $0xffffffed,%ebx
    394b:	0f 85 97 00 00 00    	jne    39e8 <rtl8139_defective_set_mode+0xd8>
    3951:	f6 c3 02             	test   $0x2,%bl
    3954:	0f 85 7e 00 00 00    	jne    39d8 <rtl8139_defective_set_mode+0xc8>
    395a:	c6 40 3f 00          	movb   $0x0,0x3f(%eax)
    395e:	b0 20                	mov    $0x20,%al
    3960:	83 e3 10             	and    $0x10,%ebx
    3963:	74 03                	je     3968 <rtl8139_defective_set_mode+0x58>
    3965:	88 46 3f             	mov    %al,0x3f(%esi)
    3968:	83 ec 0c             	sub    $0xc,%esp
    396b:	8d 7e 44             	lea    0x44(%esi),%edi
    396e:	57                   	push   %edi
    396f:	e8 7c 03 01 00       	call   13cf0 <fibril_mutex_lock@plt>
    3974:	8b 5e 38             	mov    0x38(%esi),%ebx
    3977:	31 c0                	xor    %eax,%eax
    3979:	8a 46 3c             	mov    0x3c(%esi),%al
    397c:	80 cf 08             	or     $0x8,%bh
    397f:	09 c3                	or     %eax,%ebx
    3981:	31 c0                	xor    %eax,%eax
    3983:	8a 46 3d             	mov    0x3d(%esi),%al
    3986:	09 c3                	or     %eax,%ebx
    3988:	31 c0                	xor    %eax,%eax
    398a:	8a 46 3e             	mov    0x3e(%esi),%al
    398d:	09 c3                	or     %eax,%ebx
    398f:	31 c0                	xor    %eax,%eax
    3991:	8a 46 3f             	mov    0x3f(%esi),%al
    3994:	09 c3                	or     %eax,%ebx
    3996:	8b 46 04             	mov    0x4(%esi),%eax
    3999:	83 c0 44             	add    $0x44,%eax
    399c:	89 04 24             	mov    %eax,(%esp)
    399f:	e8 2c fe 00 00       	call   137d0 <pio_read_32@plt>
    39a4:	53                   	push   %ebx
    39a5:	50                   	push   %eax
    39a6:	68 dd 0e 01 00       	push   $0x10edd
    39ab:	6a 04                	push   $0x4
    39ad:	e8 0e 1c 00 00       	call   55c0 <ddf_msg>
    39b2:	83 c4 18             	add    $0x18,%esp
    39b5:	8b 46 04             	mov    0x4(%esi),%eax
    39b8:	53                   	push   %ebx
    39b9:	83 c0 44             	add    $0x44,%eax
    39bc:	50                   	push   %eax
    39bd:	e8 fe ff 00 00       	call   139c0 <pio_write_32@plt>
    39c2:	89 3c 24             	mov    %edi,(%esp)
    39c5:	e8 86 ff 00 00       	call   13950 <fibril_mutex_unlock@plt>
    39ca:	83 c4 10             	add    $0x10,%esp
    39cd:	31 c0                	xor    %eax,%eax
    39cf:	8d 65 f4             	lea    -0xc(%ebp),%esp
    39d2:	5b                   	pop    %ebx
    39d3:	5e                   	pop    %esi
    39d4:	5f                   	pop    %edi
    39d5:	5d                   	pop    %ebp
    39d6:	c3                   	ret    
    39d7:	90                   	nop
    39d8:	c6 40 3f 10          	movb   $0x10,0x3f(%eax)
    39dc:	b0 30                	mov    $0x30,%al
    39de:	e9 7d ff ff ff       	jmp    3960 <rtl8139_defective_set_mode+0x50>
    39e3:	90                   	nop
    39e4:	8d 74 26 00          	lea    0x0(%esi,%eiz,1),%esi
    39e8:	b8 f5 ff ff ff       	mov    $0xfffffff5,%eax
    39ed:	eb e0                	jmp    39cf <rtl8139_defective_set_mode+0xbf>
    39ef:	52                   	push   %edx
    39f0:	68 bd 07 00 00       	push   $0x7bd
    39f5:	68 d1 15 01 00       	push   $0x115d1
    39fa:	68 39 0e 01 00       	push   $0x10e39
    39ff:	e8 9c fe 00 00       	call   138a0 <assert_abort@plt>
    3a04:	50                   	push   %eax
    3a05:	68 c0 07 00 00       	push   $0x7c0
    3a0a:	68 d1 15 01 00       	push   $0x115d1
    3a0f:	68 4f 0e 01 00       	push   $0x10e4f
    3a14:	e8 87 fe 00 00       	call   138a0 <assert_abort@plt>
    3a19:	8d b4 26 00 00 00 00 	lea    0x0(%esi,%eiz,1),%esi

00003a20 <rtl8139_on_activated>:
    3a20:	55                   	push   %ebp
    3a21:	89 e5                	mov    %esp,%ebp
    3a23:	57                   	push   %edi
    3a24:	56                   	push   %esi
    3a25:	53                   	push   %ebx
    3a26:	83 ec 1c             	sub    $0x1c,%esp
    3a29:	8b 45 08             	mov    0x8(%ebp),%eax
    3a2c:	85 c0                	test   %eax,%eax
    3a2e:	0f 84 f6 01 00 00    	je     3c2a <rtl8139_on_activated+0x20a>
    3a34:	56                   	push   %esi
    3a35:	56                   	push   %esi
    3a36:	68 d9 0f 01 00       	push   $0x10fd9
    3a3b:	6a 03                	push   $0x3
    3a3d:	e8 7e 1b 00 00       	call   55c0 <ddf_msg>
    3a42:	8b 45 08             	mov    0x8(%ebp),%eax
    3a45:	5f                   	pop    %edi
    3a46:	50                   	push   %eax
    3a47:	e8 44 ad 00 00       	call   e790 <nic_get_specific>
    3a4c:	83 c4 10             	add    $0x10,%esp
    3a4f:	89 c3                	mov    %eax,%ebx
    3a51:	85 c0                	test   %eax,%eax
    3a53:	0f 84 bc 01 00 00    	je     3c15 <rtl8139_on_activated+0x1f5>
    3a59:	83 ec 0c             	sub    $0xc,%esp
    3a5c:	8d 40 54             	lea    0x54(%eax),%eax
    3a5f:	89 45 e0             	mov    %eax,-0x20(%ebp)
    3a62:	50                   	push   %eax
    3a63:	e8 88 02 01 00       	call   13cf0 <fibril_mutex_lock@plt>
    3a68:	8d 43 44             	lea    0x44(%ebx),%eax
    3a6b:	89 04 24             	mov    %eax,(%esp)
    3a6e:	89 45 dc             	mov    %eax,-0x24(%ebp)
    3a71:	e8 7a 02 01 00       	call   13cf0 <fibril_mutex_lock@plt>
    3a76:	8b 43 04             	mov    0x4(%ebx),%eax
    3a79:	89 c7                	mov    %eax,%edi
    3a7b:	89 45 e4             	mov    %eax,-0x1c(%ebp)
    3a7e:	83 c0 52             	add    $0x52,%eax
    3a81:	5a                   	pop    %edx
    3a82:	59                   	pop    %ecx
    3a83:	6a 00                	push   $0x0
    3a85:	50                   	push   %eax
    3a86:	e8 85 fe 00 00       	call   13910 <pio_write_8@plt>
    3a8b:	89 d8                	mov    %ebx,%eax
    3a8d:	8d 77 20             	lea    0x20(%edi),%esi
    3a90:	e8 8b fc ff ff       	call   3720 <rtl8139_soft_reset>
    3a95:	31 ff                	xor    %edi,%edi
    3a97:	83 c4 10             	add    $0x10,%esp
    3a9a:	50                   	push   %eax
    3a9b:	50                   	push   %eax
    3a9c:	8b 43 10             	mov    0x10(%ebx),%eax
    3a9f:	01 f8                	add    %edi,%eax
    3aa1:	81 c7 00 08 00 00    	add    $0x800,%edi
    3aa7:	50                   	push   %eax
    3aa8:	56                   	push   %esi
    3aa9:	83 c6 04             	add    $0x4,%esi
    3aac:	e8 0f ff 00 00       	call   139c0 <pio_write_32@plt>
    3ab1:	83 c4 10             	add    $0x10,%esp
    3ab4:	81 ff 00 20 00 00    	cmp    $0x2000,%edi
    3aba:	75 de                	jne    3a9a <rtl8139_on_activated+0x7a>
    3abc:	c7 43 28 00 00 00 00 	movl   $0x0,0x28(%ebx)
    3ac3:	c7 43 2c 00 00 00 00 	movl   $0x0,0x2c(%ebx)
    3aca:	56                   	push   %esi
    3acb:	56                   	push   %esi
    3acc:	8b 7b 78             	mov    0x78(%ebx),%edi
    3acf:	6a 00                	push   $0x0
    3ad1:	57                   	push   %edi
    3ad2:	e8 f9 a4 00 00       	call   dfd0 <nic_set_tx_busy>
    3ad7:	8b 7d e4             	mov    -0x1c(%ebp),%edi
    3ada:	58                   	pop    %eax
    3adb:	89 f8                	mov    %edi,%eax
    3add:	8b 4b 30             	mov    0x30(%ebx),%ecx
    3ae0:	83 c0 30             	add    $0x30,%eax
    3ae3:	5a                   	pop    %edx
    3ae4:	8d 77 37             	lea    0x37(%edi),%esi
    3ae7:	51                   	push   %ecx
    3ae8:	50                   	push   %eax
    3ae9:	e8 d2 fe 00 00       	call   139c0 <pio_write_32@plt>
    3aee:	89 34 24             	mov    %esi,(%esp)
    3af1:	e8 8a fd 00 00       	call   13880 <pio_read_8@plt>
    3af6:	83 c8 0c             	or     $0xc,%eax
    3af9:	5f                   	pop    %edi
    3afa:	88 c1                	mov    %al,%cl
    3afc:	31 c0                	xor    %eax,%eax
    3afe:	88 c8                	mov    %cl,%al
    3b00:	5a                   	pop    %edx
    3b01:	50                   	push   %eax
    3b02:	56                   	push   %esi
    3b03:	e8 08 fe 00 00       	call   13910 <pio_write_8@plt>
    3b08:	8b 73 38             	mov    0x38(%ebx),%esi
    3b0b:	31 c0                	xor    %eax,%eax
    3b0d:	81 ce 00 08 00 00    	or     $0x800,%esi
    3b13:	8a 43 3c             	mov    0x3c(%ebx),%al
    3b16:	09 c6                	or     %eax,%esi
    3b18:	31 c0                	xor    %eax,%eax
    3b1a:	8a 43 3d             	mov    0x3d(%ebx),%al
    3b1d:	09 c6                	or     %eax,%esi
    3b1f:	31 c0                	xor    %eax,%eax
    3b21:	8a 43 3e             	mov    0x3e(%ebx),%al
    3b24:	09 c6                	or     %eax,%esi
    3b26:	31 c0                	xor    %eax,%eax
    3b28:	8a 43 3f             	mov    0x3f(%ebx),%al
    3b2b:	09 c6                	or     %eax,%esi
    3b2d:	8b 43 04             	mov    0x4(%ebx),%eax
    3b30:	83 c0 44             	add    $0x44,%eax
    3b33:	89 04 24             	mov    %eax,(%esp)
    3b36:	e8 95 fc 00 00       	call   137d0 <pio_read_32@plt>
    3b3b:	56                   	push   %esi
    3b3c:	50                   	push   %eax
    3b3d:	68 dd 0e 01 00       	push   $0x10edd
    3b42:	6a 04                	push   $0x4
    3b44:	e8 77 1a 00 00       	call   55c0 <ddf_msg>
    3b49:	83 c4 18             	add    $0x18,%esp
    3b4c:	8b 43 04             	mov    0x4(%ebx),%eax
    3b4f:	56                   	push   %esi
    3b50:	83 c0 44             	add    $0x44,%eax
    3b53:	50                   	push   %eax
    3b54:	e8 67 fe 00 00       	call   139c0 <pio_write_32@plt>
    3b59:	8b 75 dc             	mov    -0x24(%ebp),%esi
    3b5c:	59                   	pop    %ecx
    3b5d:	56                   	push   %esi
    3b5e:	e8 ed fd 00 00       	call   13950 <fibril_mutex_unlock@plt>
    3b63:	8b 45 e0             	mov    -0x20(%ebp),%eax
    3b66:	5f                   	pop    %edi
    3b67:	50                   	push   %eax
    3b68:	e8 e3 fd 00 00       	call   13950 <fibril_mutex_unlock@plt>
    3b6d:	66 c7 43 0c ff ff    	movw   $0xffff,0xc(%ebx)
    3b73:	58                   	pop    %eax
    3b74:	8b 43 04             	mov    0x4(%ebx),%eax
    3b77:	83 c0 3c             	add    $0x3c,%eax
    3b7a:	5a                   	pop    %edx
    3b7b:	68 ff ff 00 00       	push   $0xffff
    3b80:	50                   	push   %eax
    3b81:	e8 4a fd 00 00       	call   138d0 <pio_write_16@plt>
    3b86:	8b 73 08             	mov    0x8(%ebx),%esi
    3b89:	59                   	pop    %ecx
    3b8a:	56                   	push   %esi
    3b8b:	e8 d0 fb 00 00       	call   13760 <irc_enable_interrupt@plt>
    3b90:	83 c4 10             	add    $0x10,%esp
    3b93:	89 c6                	mov    %eax,%esi
    3b95:	85 c0                	test   %eax,%eax
    3b97:	75 1f                	jne    3bb8 <rtl8139_on_activated+0x198>
    3b99:	50                   	push   %eax
    3b9a:	8b 53 08             	mov    0x8(%ebx),%edx
    3b9d:	52                   	push   %edx
    3b9e:	68 b0 14 01 00       	push   $0x114b0
    3ba3:	6a 04                	push   $0x4
    3ba5:	e8 16 1a 00 00       	call   55c0 <ddf_msg>
    3baa:	83 c4 10             	add    $0x10,%esp
    3bad:	8d 65 f4             	lea    -0xc(%ebp),%esp
    3bb0:	89 f0                	mov    %esi,%eax
    3bb2:	5b                   	pop    %ebx
    3bb3:	5e                   	pop    %esi
    3bb4:	5f                   	pop    %edi
    3bb5:	5d                   	pop    %ebp
    3bb6:	c3                   	ret    
    3bb7:	90                   	nop
    3bb8:	83 ec 0c             	sub    $0xc,%esp
    3bbb:	8b 5d 08             	mov    0x8(%ebp),%ebx
    3bbe:	53                   	push   %ebx
    3bbf:	e8 cc ab 00 00       	call   e790 <nic_get_specific>
    3bc4:	83 c4 10             	add    $0x10,%esp
    3bc7:	89 c3                	mov    %eax,%ebx
    3bc9:	85 c0                	test   %eax,%eax
    3bcb:	74 72                	je     3c3f <rtl8139_on_activated+0x21f>
    3bcd:	83 ec 0c             	sub    $0xc,%esp
    3bd0:	8d 78 54             	lea    0x54(%eax),%edi
    3bd3:	c7 40 3c 02 00 08 00 	movl   $0x80002,0x3c(%eax)
    3bda:	57                   	push   %edi
    3bdb:	e8 10 01 01 00       	call   13cf0 <fibril_mutex_lock@plt>
    3be0:	8d 53 44             	lea    0x44(%ebx),%edx
    3be3:	89 14 24             	mov    %edx,(%esp)
    3be6:	89 55 e4             	mov    %edx,-0x1c(%ebp)
    3be9:	e8 02 01 01 00       	call   13cf0 <fibril_mutex_lock@plt>
    3bee:	89 d8                	mov    %ebx,%eax
    3bf0:	e8 2b fb ff ff       	call   3720 <rtl8139_soft_reset>
    3bf5:	8b 55 e4             	mov    -0x1c(%ebp),%edx
    3bf8:	89 14 24             	mov    %edx,(%esp)
    3bfb:	e8 50 fd 00 00       	call   13950 <fibril_mutex_unlock@plt>
    3c00:	89 3c 24             	mov    %edi,(%esp)
    3c03:	e8 48 fd 00 00       	call   13950 <fibril_mutex_unlock@plt>
    3c08:	83 c4 10             	add    $0x10,%esp
    3c0b:	8d 65 f4             	lea    -0xc(%ebp),%esp
    3c0e:	89 f0                	mov    %esi,%eax
    3c10:	5b                   	pop    %ebx
    3c11:	5e                   	pop    %esi
    3c12:	5f                   	pop    %edi
    3c13:	5d                   	pop    %ebp
    3c14:	c3                   	ret    
    3c15:	53                   	push   %ebx
    3c16:	68 b4 03 00 00       	push   $0x3b4
    3c1b:	68 d1 15 01 00       	push   $0x115d1
    3c20:	68 4f 0e 01 00       	push   $0x10e4f
    3c25:	e8 76 fc 00 00       	call   138a0 <assert_abort@plt>
    3c2a:	50                   	push   %eax
    3c2b:	68 b0 03 00 00       	push   $0x3b0
    3c30:	68 d1 15 01 00       	push   $0x115d1
    3c35:	68 57 0e 01 00       	push   $0x10e57
    3c3a:	e8 61 fc 00 00       	call   138a0 <assert_abort@plt>
    3c3f:	51                   	push   %ecx
    3c40:	68 d2 03 00 00       	push   $0x3d2
    3c45:	68 d1 15 01 00       	push   $0x115d1
    3c4a:	68 4f 0e 01 00       	push   $0x10e4f
    3c4f:	e8 4c fc 00 00       	call   138a0 <assert_abort@plt>
    3c54:	8d b6 00 00 00 00    	lea    0x0(%esi),%esi
    3c5a:	8d bf 00 00 00 00    	lea    0x0(%edi),%edi

00003c60 <rtl8139_broadcast_set>:
    3c60:	55                   	push   %ebp
    3c61:	89 e5                	mov    %esp,%ebp
    3c63:	57                   	push   %edi
    3c64:	56                   	push   %esi
    3c65:	53                   	push   %ebx
    3c66:	83 ec 0c             	sub    $0xc,%esp
    3c69:	8b 45 08             	mov    0x8(%ebp),%eax
    3c6c:	85 c0                	test   %eax,%eax
    3c6e:	0f 84 ca 00 00 00    	je     3d3e <rtl8139_broadcast_set+0xde>
    3c74:	83 ec 0c             	sub    $0xc,%esp
    3c77:	50                   	push   %eax
    3c78:	e8 13 ab 00 00       	call   e790 <nic_get_specific>
    3c7d:	83 c4 10             	add    $0x10,%esp
    3c80:	89 c6                	mov    %eax,%esi
    3c82:	85 c0                	test   %eax,%eax
    3c84:	0f 84 9f 00 00 00    	je     3d29 <rtl8139_broadcast_set+0xc9>
    3c8a:	83 7d 0c 01          	cmpl   $0x1,0xc(%ebp)
    3c8e:	0f 84 8c 00 00 00    	je     3d20 <rtl8139_broadcast_set+0xc0>
    3c94:	83 7d 0c 02          	cmpl   $0x2,0xc(%ebp)
    3c98:	75 76                	jne    3d10 <rtl8139_broadcast_set+0xb0>
    3c9a:	c6 40 3e 08          	movb   $0x8,0x3e(%eax)
    3c9e:	83 ec 0c             	sub    $0xc,%esp
    3ca1:	8d 7e 44             	lea    0x44(%esi),%edi
    3ca4:	57                   	push   %edi
    3ca5:	e8 46 00 01 00       	call   13cf0 <fibril_mutex_lock@plt>
    3caa:	8b 5e 38             	mov    0x38(%esi),%ebx
    3cad:	31 c0                	xor    %eax,%eax
    3caf:	8a 46 3c             	mov    0x3c(%esi),%al
    3cb2:	80 cf 08             	or     $0x8,%bh
    3cb5:	09 c3                	or     %eax,%ebx
    3cb7:	31 c0                	xor    %eax,%eax
    3cb9:	8a 46 3d             	mov    0x3d(%esi),%al
    3cbc:	09 c3                	or     %eax,%ebx
    3cbe:	31 c0                	xor    %eax,%eax
    3cc0:	8a 46 3e             	mov    0x3e(%esi),%al
    3cc3:	09 c3                	or     %eax,%ebx
    3cc5:	31 c0                	xor    %eax,%eax
    3cc7:	8a 46 3f             	mov    0x3f(%esi),%al
    3cca:	09 c3                	or     %eax,%ebx
    3ccc:	8b 46 04             	mov    0x4(%esi),%eax
    3ccf:	83 c0 44             	add    $0x44,%eax
    3cd2:	89 04 24             	mov    %eax,(%esp)
    3cd5:	e8 f6 fa 00 00       	call   137d0 <pio_read_32@plt>
    3cda:	53                   	push   %ebx
    3cdb:	50                   	push   %eax
    3cdc:	68 dd 0e 01 00       	push   $0x10edd
    3ce1:	6a 04                	push   $0x4
    3ce3:	e8 d8 18 00 00       	call   55c0 <ddf_msg>
    3ce8:	83 c4 18             	add    $0x18,%esp
    3ceb:	8b 46 04             	mov    0x4(%esi),%eax
    3cee:	53                   	push   %ebx
    3cef:	83 c0 44             	add    $0x44,%eax
    3cf2:	50                   	push   %eax
    3cf3:	e8 c8 fc 00 00       	call   139c0 <pio_write_32@plt>
    3cf8:	89 3c 24             	mov    %edi,(%esp)
    3cfb:	e8 50 fc 00 00       	call   13950 <fibril_mutex_unlock@plt>
    3d00:	83 c4 10             	add    $0x10,%esp
    3d03:	8d 65 f4             	lea    -0xc(%ebp),%esp
    3d06:	31 c0                	xor    %eax,%eax
    3d08:	5b                   	pop    %ebx
    3d09:	5e                   	pop    %esi
    3d0a:	5f                   	pop    %edi
    3d0b:	5d                   	pop    %ebp
    3d0c:	c3                   	ret    
    3d0d:	8d 76 00             	lea    0x0(%esi),%esi
    3d10:	8d 65 f4             	lea    -0xc(%ebp),%esp
    3d13:	b8 f5 ff ff ff       	mov    $0xfffffff5,%eax
    3d18:	5b                   	pop    %ebx
    3d19:	5e                   	pop    %esi
    3d1a:	5f                   	pop    %edi
    3d1b:	5d                   	pop    %ebp
    3d1c:	c3                   	ret    
    3d1d:	8d 76 00             	lea    0x0(%esi),%esi
    3d20:	c6 40 3e 00          	movb   $0x0,0x3e(%eax)
    3d24:	e9 75 ff ff ff       	jmp    3c9e <rtl8139_broadcast_set+0x3e>
    3d29:	50                   	push   %eax
    3d2a:	68 8b 07 00 00       	push   $0x78b
    3d2f:	68 d1 15 01 00       	push   $0x115d1
    3d34:	68 4f 0e 01 00       	push   $0x10e4f
    3d39:	e8 62 fb 00 00       	call   138a0 <assert_abort@plt>
    3d3e:	52                   	push   %edx
    3d3f:	68 88 07 00 00       	push   $0x788
    3d44:	68 d1 15 01 00       	push   $0x115d1
    3d49:	68 57 0e 01 00       	push   $0x10e57
    3d4e:	e8 4d fb 00 00       	call   138a0 <assert_abort@plt>
    3d53:	8d b6 00 00 00 00    	lea    0x0(%esi),%esi
    3d59:	8d bc 27 00 00 00 00 	lea    0x0(%edi,%eiz,1),%edi

00003d60 <rtl8139_unicast_set>:
    3d60:	55                   	push   %ebp
    3d61:	89 e5                	mov    %esp,%ebp
    3d63:	57                   	push   %edi
    3d64:	56                   	push   %esi
    3d65:	53                   	push   %ebx
    3d66:	83 ec 1c             	sub    $0x1c,%esp
    3d69:	8b 75 08             	mov    0x8(%ebp),%esi
    3d6c:	85 f6                	test   %esi,%esi
    3d6e:	0f 84 8d 01 00 00    	je     3f01 <rtl8139_unicast_set+0x1a1>
    3d74:	83 ec 0c             	sub    $0xc,%esp
    3d77:	56                   	push   %esi
    3d78:	e8 13 aa 00 00       	call   e790 <nic_get_specific>
    3d7d:	83 c4 10             	add    $0x10,%esp
    3d80:	89 c7                	mov    %eax,%edi
    3d82:	85 c0                	test   %eax,%eax
    3d84:	0f 84 62 01 00 00    	je     3eec <rtl8139_unicast_set+0x18c>
    3d8a:	83 ec 0c             	sub    $0xc,%esp
    3d8d:	8a 58 3c             	mov    0x3c(%eax),%bl
    3d90:	8d 45 e4             	lea    -0x1c(%ebp),%eax
    3d93:	83 e3 01             	and    $0x1,%ebx
    3d96:	6a 00                	push   $0x0
    3d98:	6a 00                	push   $0x0
    3d9a:	6a 00                	push   $0x0
    3d9c:	50                   	push   %eax
    3d9d:	56                   	push   %esi
    3d9e:	e8 bd a8 00 00       	call   e660 <nic_query_multicast>
    3da3:	83 c4 20             	add    $0x20,%esp
    3da6:	83 7d 0c 02          	cmpl   $0x2,0xc(%ebp)
    3daa:	0f 84 08 01 00 00    	je     3eb8 <rtl8139_unicast_set+0x158>
    3db0:	76 36                	jbe    3de8 <rtl8139_unicast_set+0x88>
    3db2:	83 7d 0c 03          	cmpl   $0x3,0xc(%ebp)
    3db6:	0f 84 dc 00 00 00    	je     3e98 <rtl8139_unicast_set+0x138>
    3dbc:	83 7d 0c 04          	cmpl   $0x4,0xc(%ebp)
    3dc0:	0f 85 c2 00 00 00    	jne    3e88 <rtl8139_unicast_set+0x128>
    3dc6:	c6 47 3c 03          	movb   $0x3,0x3c(%edi)
    3dca:	83 7d e4 03          	cmpl   $0x3,-0x1c(%ebp)
    3dce:	74 34                	je     3e04 <rtl8139_unicast_set+0xa4>
    3dd0:	6a ff                	push   $0xffffffff
    3dd2:	6a 00                	push   $0x0
    3dd4:	6a 01                	push   $0x1
    3dd6:	56                   	push   %esi
    3dd7:	e8 c4 a7 00 00       	call   e5a0 <nic_report_hw_filtering>
    3ddc:	83 c4 10             	add    $0x10,%esp
    3ddf:	eb 32                	jmp    3e13 <rtl8139_unicast_set+0xb3>
    3de1:	8d b4 26 00 00 00 00 	lea    0x0(%esi,%eiz,1),%esi
    3de8:	83 7d 0c 01          	cmpl   $0x1,0xc(%ebp)
    3dec:	0f 85 96 00 00 00    	jne    3e88 <rtl8139_unicast_set+0x128>
    3df2:	c6 47 3c 00          	movb   $0x0,0x3c(%edi)
    3df6:	84 db                	test   %bl,%bl
    3df8:	0f 84 c6 00 00 00    	je     3ec4 <rtl8139_unicast_set+0x164>
    3dfe:	83 7d e4 02          	cmpl   $0x2,-0x1c(%ebp)
    3e02:	74 cc                	je     3dd0 <rtl8139_unicast_set+0x70>
    3e04:	6a ff                	push   $0xffffffff
    3e06:	6a 01                	push   $0x1
    3e08:	6a 01                	push   $0x1
    3e0a:	56                   	push   %esi
    3e0b:	e8 90 a7 00 00       	call   e5a0 <nic_report_hw_filtering>
    3e10:	83 c4 10             	add    $0x10,%esp
    3e13:	83 ec 0c             	sub    $0xc,%esp
    3e16:	8d 77 44             	lea    0x44(%edi),%esi
    3e19:	56                   	push   %esi
    3e1a:	e8 d1 fe 00 00       	call   13cf0 <fibril_mutex_lock@plt>
    3e1f:	8b 5f 38             	mov    0x38(%edi),%ebx
    3e22:	31 c0                	xor    %eax,%eax
    3e24:	8a 47 3c             	mov    0x3c(%edi),%al
    3e27:	80 cf 08             	or     $0x8,%bh
    3e2a:	09 c3                	or     %eax,%ebx
    3e2c:	31 c0                	xor    %eax,%eax
    3e2e:	8a 47 3d             	mov    0x3d(%edi),%al
    3e31:	09 c3                	or     %eax,%ebx
    3e33:	31 c0                	xor    %eax,%eax
    3e35:	8a 47 3e             	mov    0x3e(%edi),%al
    3e38:	09 c3                	or     %eax,%ebx
    3e3a:	31 c0                	xor    %eax,%eax
    3e3c:	8a 47 3f             	mov    0x3f(%edi),%al
    3e3f:	09 c3                	or     %eax,%ebx
    3e41:	8b 47 04             	mov    0x4(%edi),%eax
    3e44:	83 c0 44             	add    $0x44,%eax
    3e47:	89 04 24             	mov    %eax,(%esp)
    3e4a:	e8 81 f9 00 00       	call   137d0 <pio_read_32@plt>
    3e4f:	53                   	push   %ebx
    3e50:	50                   	push   %eax
    3e51:	68 dd 0e 01 00       	push   $0x10edd
    3e56:	6a 04                	push   $0x4
    3e58:	e8 63 17 00 00       	call   55c0 <ddf_msg>
    3e5d:	83 c4 18             	add    $0x18,%esp
    3e60:	8b 47 04             	mov    0x4(%edi),%eax
    3e63:	53                   	push   %ebx
    3e64:	83 c0 44             	add    $0x44,%eax
    3e67:	50                   	push   %eax
    3e68:	e8 53 fb 00 00       	call   139c0 <pio_write_32@plt>
    3e6d:	89 34 24             	mov    %esi,(%esp)
    3e70:	e8 db fa 00 00       	call   13950 <fibril_mutex_unlock@plt>
    3e75:	83 c4 10             	add    $0x10,%esp
    3e78:	8d 65 f4             	lea    -0xc(%ebp),%esp
    3e7b:	31 c0                	xor    %eax,%eax
    3e7d:	5b                   	pop    %ebx
    3e7e:	5e                   	pop    %esi
    3e7f:	5f                   	pop    %edi
    3e80:	5d                   	pop    %ebp
    3e81:	c3                   	ret    
    3e82:	8d b6 00 00 00 00    	lea    0x0(%esi),%esi
    3e88:	8d 65 f4             	lea    -0xc(%ebp),%esp
    3e8b:	b8 f5 ff ff ff       	mov    $0xfffffff5,%eax
    3e90:	5b                   	pop    %ebx
    3e91:	5e                   	pop    %esi
    3e92:	5f                   	pop    %edi
    3e93:	5d                   	pop    %ebp
    3e94:	c3                   	ret    
    3e95:	8d 76 00             	lea    0x0(%esi),%esi
    3e98:	c6 47 3c 03          	movb   $0x3,0x3c(%edi)
    3e9c:	83 7d e4 03          	cmpl   $0x3,-0x1c(%ebp)
    3ea0:	74 36                	je     3ed8 <rtl8139_unicast_set+0x178>
    3ea2:	6a ff                	push   $0xffffffff
    3ea4:	6a 00                	push   $0x0
    3ea6:	6a 00                	push   $0x0
    3ea8:	56                   	push   %esi
    3ea9:	e8 f2 a6 00 00       	call   e5a0 <nic_report_hw_filtering>
    3eae:	83 c4 10             	add    $0x10,%esp
    3eb1:	e9 5d ff ff ff       	jmp    3e13 <rtl8139_unicast_set+0xb3>
    3eb6:	66 90                	xchg   %ax,%ax
    3eb8:	c6 47 3c 02          	movb   $0x2,0x3c(%edi)
    3ebc:	84 db                	test   %bl,%bl
    3ebe:	0f 85 3a ff ff ff    	jne    3dfe <rtl8139_unicast_set+0x9e>
    3ec4:	6a ff                	push   $0xffffffff
    3ec6:	6a ff                	push   $0xffffffff
    3ec8:	6a 01                	push   $0x1
    3eca:	56                   	push   %esi
    3ecb:	e8 d0 a6 00 00       	call   e5a0 <nic_report_hw_filtering>
    3ed0:	83 c4 10             	add    $0x10,%esp
    3ed3:	e9 3b ff ff ff       	jmp    3e13 <rtl8139_unicast_set+0xb3>
    3ed8:	6a ff                	push   $0xffffffff
    3eda:	6a 01                	push   $0x1
    3edc:	6a 00                	push   $0x0
    3ede:	56                   	push   %esi
    3edf:	e8 bc a6 00 00       	call   e5a0 <nic_report_hw_filtering>
    3ee4:	83 c4 10             	add    $0x10,%esp
    3ee7:	e9 27 ff ff ff       	jmp    3e13 <rtl8139_unicast_set+0xb3>
    3eec:	50                   	push   %eax
    3eed:	68 27 07 00 00       	push   $0x727
    3ef2:	68 d1 15 01 00       	push   $0x115d1
    3ef7:	68 4f 0e 01 00       	push   $0x10e4f
    3efc:	e8 9f f9 00 00       	call   138a0 <assert_abort@plt>
    3f01:	52                   	push   %edx
    3f02:	68 24 07 00 00       	push   $0x724
    3f07:	68 d1 15 01 00       	push   $0x115d1
    3f0c:	68 57 0e 01 00       	push   $0x10e57
    3f11:	e8 8a f9 00 00       	call   138a0 <assert_abort@plt>
    3f16:	8d 76 00             	lea    0x0(%esi),%esi
    3f19:	8d bc 27 00 00 00 00 	lea    0x0(%edi,%eiz,1),%edi

00003f20 <rtl8139_multicast_set>:
    3f20:	55                   	push   %ebp
    3f21:	89 e5                	mov    %esp,%ebp
    3f23:	57                   	push   %edi
    3f24:	56                   	push   %esi
    3f25:	53                   	push   %ebx
    3f26:	83 ec 0c             	sub    $0xc,%esp
    3f29:	8b 5d 08             	mov    0x8(%ebp),%ebx
    3f2c:	8b 75 14             	mov    0x14(%ebp),%esi
    3f2f:	85 db                	test   %ebx,%ebx
    3f31:	0f 84 8a 01 00 00    	je     40c1 <rtl8139_multicast_set+0x1a1>
    3f37:	85 f6                	test   %esi,%esi
    3f39:	74 0b                	je     3f46 <rtl8139_multicast_set+0x26>
    3f3b:	8b 7d 10             	mov    0x10(%ebp),%edi
    3f3e:	85 ff                	test   %edi,%edi
    3f40:	0f 84 66 01 00 00    	je     40ac <rtl8139_multicast_set+0x18c>
    3f46:	83 ec 0c             	sub    $0xc,%esp
    3f49:	53                   	push   %ebx
    3f4a:	e8 41 a8 00 00       	call   e790 <nic_get_specific>
    3f4f:	83 c4 10             	add    $0x10,%esp
    3f52:	89 c7                	mov    %eax,%edi
    3f54:	85 c0                	test   %eax,%eax
    3f56:	0f 84 7a 01 00 00    	je     40d6 <rtl8139_multicast_set+0x1b6>
    3f5c:	83 7d 0c 02          	cmpl   $0x2,0xc(%ebp)
    3f60:	0f 84 ea 00 00 00    	je     4050 <rtl8139_multicast_set+0x130>
    3f66:	83 7d 0c 03          	cmpl   $0x3,0xc(%ebp)
    3f6a:	74 1c                	je     3f88 <rtl8139_multicast_set+0x68>
    3f6c:	b8 f5 ff ff ff       	mov    $0xfffffff5,%eax
    3f71:	83 7d 0c 01          	cmpl   $0x1,0xc(%ebp)
    3f75:	0f 84 b5 00 00 00    	je     4030 <rtl8139_multicast_set+0x110>
    3f7b:	8d 65 f4             	lea    -0xc(%ebp),%esp
    3f7e:	5b                   	pop    %ebx
    3f7f:	5e                   	pop    %esi
    3f80:	5f                   	pop    %edi
    3f81:	5d                   	pop    %ebp
    3f82:	c3                   	ret    
    3f83:	90                   	nop
    3f84:	8d 74 26 00          	lea    0x0(%esi,%eiz,1),%esi
    3f88:	50                   	push   %eax
    3f89:	50                   	push   %eax
    3f8a:	8b 47 04             	mov    0x4(%edi),%eax
    3f8d:	6a ff                	push   $0xffffffff
    3f8f:	83 c0 08             	add    $0x8,%eax
    3f92:	50                   	push   %eax
    3f93:	e8 28 fa 00 00       	call   139c0 <pio_write_32@plt>
    3f98:	8b 47 04             	mov    0x4(%edi),%eax
    3f9b:	5a                   	pop    %edx
    3f9c:	83 c0 0c             	add    $0xc,%eax
    3f9f:	59                   	pop    %ecx
    3fa0:	6a ff                	push   $0xffffffff
    3fa2:	50                   	push   %eax
    3fa3:	e8 18 fa 00 00       	call   139c0 <pio_write_32@plt>
    3fa8:	c6 47 3d 04          	movb   $0x4,0x3d(%edi)
    3fac:	6a ff                	push   $0xffffffff
    3fae:	6a 01                	push   $0x1
    3fb0:	6a ff                	push   $0xffffffff
    3fb2:	53                   	push   %ebx
    3fb3:	e8 e8 a5 00 00       	call   e5a0 <nic_report_hw_filtering>
    3fb8:	83 c4 20             	add    $0x20,%esp
    3fbb:	83 ec 0c             	sub    $0xc,%esp
    3fbe:	8d 77 44             	lea    0x44(%edi),%esi
    3fc1:	56                   	push   %esi
    3fc2:	e8 29 fd 00 00       	call   13cf0 <fibril_mutex_lock@plt>
    3fc7:	8b 5f 38             	mov    0x38(%edi),%ebx
    3fca:	31 c0                	xor    %eax,%eax
    3fcc:	8a 47 3c             	mov    0x3c(%edi),%al
    3fcf:	80 cf 08             	or     $0x8,%bh
    3fd2:	09 c3                	or     %eax,%ebx
    3fd4:	31 c0                	xor    %eax,%eax
    3fd6:	8a 47 3d             	mov    0x3d(%edi),%al
    3fd9:	09 c3                	or     %eax,%ebx
    3fdb:	31 c0                	xor    %eax,%eax
    3fdd:	8a 47 3e             	mov    0x3e(%edi),%al
    3fe0:	09 c3                	or     %eax,%ebx
    3fe2:	31 c0                	xor    %eax,%eax
    3fe4:	8a 47 3f             	mov    0x3f(%edi),%al
    3fe7:	09 c3                	or     %eax,%ebx
    3fe9:	8b 47 04             	mov    0x4(%edi),%eax
    3fec:	83 c0 44             	add    $0x44,%eax
    3fef:	89 04 24             	mov    %eax,(%esp)
    3ff2:	e8 d9 f7 00 00       	call   137d0 <pio_read_32@plt>
    3ff7:	53                   	push   %ebx
    3ff8:	50                   	push   %eax
    3ff9:	68 dd 0e 01 00       	push   $0x10edd
    3ffe:	6a 04                	push   $0x4
    4000:	e8 bb 15 00 00       	call   55c0 <ddf_msg>
    4005:	83 c4 18             	add    $0x18,%esp
    4008:	8b 47 04             	mov    0x4(%edi),%eax
    400b:	53                   	push   %ebx
    400c:	83 c0 44             	add    $0x44,%eax
    400f:	50                   	push   %eax
    4010:	e8 ab f9 00 00       	call   139c0 <pio_write_32@plt>
    4015:	89 34 24             	mov    %esi,(%esp)
    4018:	e8 33 f9 00 00       	call   13950 <fibril_mutex_unlock@plt>
    401d:	83 c4 10             	add    $0x10,%esp
    4020:	8d 65 f4             	lea    -0xc(%ebp),%esp
    4023:	31 c0                	xor    %eax,%eax
    4025:	5b                   	pop    %ebx
    4026:	5e                   	pop    %esi
    4027:	5f                   	pop    %edi
    4028:	5d                   	pop    %ebp
    4029:	c3                   	ret    
    402a:	8d b6 00 00 00 00    	lea    0x0(%esi),%esi
    4030:	c6 47 3d 00          	movb   $0x0,0x3d(%edi)
    4034:	f6 47 3c 01          	testb  $0x1,0x3c(%edi)
    4038:	74 5e                	je     4098 <rtl8139_multicast_set+0x178>
    403a:	6a ff                	push   $0xffffffff
    403c:	6a 00                	push   $0x0
    403e:	6a ff                	push   $0xffffffff
    4040:	53                   	push   %ebx
    4041:	e8 5a a5 00 00       	call   e5a0 <nic_report_hw_filtering>
    4046:	83 c4 10             	add    $0x10,%esp
    4049:	e9 6d ff ff ff       	jmp    3fbb <rtl8139_multicast_set+0x9b>
    404e:	66 90                	xchg   %ax,%ax
    4050:	50                   	push   %eax
    4051:	50                   	push   %eax
    4052:	8b 45 10             	mov    0x10(%ebp),%eax
    4055:	56                   	push   %esi
    4056:	50                   	push   %eax
    4057:	e8 64 a5 00 00       	call   e5c0 <nic_mcast_hash>
    405c:	89 d6                	mov    %edx,%esi
    405e:	5a                   	pop    %edx
    405f:	59                   	pop    %ecx
    4060:	50                   	push   %eax
    4061:	8b 47 04             	mov    0x4(%edi),%eax
    4064:	83 c0 08             	add    $0x8,%eax
    4067:	50                   	push   %eax
    4068:	e8 53 f9 00 00       	call   139c0 <pio_write_32@plt>
    406d:	58                   	pop    %eax
    406e:	8b 47 04             	mov    0x4(%edi),%eax
    4071:	83 c0 0c             	add    $0xc,%eax
    4074:	5a                   	pop    %edx
    4075:	56                   	push   %esi
    4076:	50                   	push   %eax
    4077:	e8 44 f9 00 00       	call   139c0 <pio_write_32@plt>
    407c:	c6 47 3d 04          	movb   $0x4,0x3d(%edi)
    4080:	6a ff                	push   $0xffffffff
    4082:	6a 00                	push   $0x0
    4084:	6a ff                	push   $0xffffffff
    4086:	53                   	push   %ebx
    4087:	e8 14 a5 00 00       	call   e5a0 <nic_report_hw_filtering>
    408c:	83 c4 20             	add    $0x20,%esp
    408f:	e9 27 ff ff ff       	jmp    3fbb <rtl8139_multicast_set+0x9b>
    4094:	8d 74 26 00          	lea    0x0(%esi,%eiz,1),%esi
    4098:	6a ff                	push   $0xffffffff
    409a:	6a 01                	push   $0x1
    409c:	6a ff                	push   $0xffffffff
    409e:	53                   	push   %ebx
    409f:	e8 fc a4 00 00       	call   e5a0 <nic_report_hw_filtering>
    40a4:	83 c4 10             	add    $0x10,%esp
    40a7:	e9 0f ff ff ff       	jmp    3fbb <rtl8139_multicast_set+0x9b>
    40ac:	53                   	push   %ebx
    40ad:	68 5f 07 00 00       	push   $0x75f
    40b2:	68 d1 15 01 00       	push   $0x115d1
    40b7:	68 eb 0f 01 00       	push   $0x10feb
    40bc:	e8 df f7 00 00       	call   138a0 <assert_abort@plt>
    40c1:	50                   	push   %eax
    40c2:	68 5e 07 00 00       	push   $0x75e
    40c7:	68 d1 15 01 00       	push   $0x115d1
    40cc:	68 57 0e 01 00       	push   $0x10e57
    40d1:	e8 ca f7 00 00       	call   138a0 <assert_abort@plt>
    40d6:	51                   	push   %ecx
    40d7:	68 62 07 00 00       	push   $0x762
    40dc:	68 d1 15 01 00       	push   $0x115d1
    40e1:	68 4f 0e 01 00       	push   $0x10e4f
    40e6:	e8 b5 f7 00 00       	call   138a0 <assert_abort@plt>

000040eb <rtl8139_lock_all.part.1>:
    40eb:	55                   	push   %ebp
    40ec:	89 e5                	mov    %esp,%ebp
    40ee:	83 ec 0c             	sub    $0xc,%esp
    40f1:	6a 4d                	push   $0x4d
    40f3:	68 d1 15 01 00       	push   $0x115d1
    40f8:	68 4f 0e 01 00       	push   $0x10e4f
    40fd:	e8 9e f7 00 00       	call   138a0 <assert_abort@plt>

00004102 <rtl8139_unlock_all.part.2>:
    4102:	55                   	push   %ebp
    4103:	89 e5                	mov    %esp,%ebp
    4105:	83 ec 0c             	sub    $0xc,%esp
    4108:	6a 59                	push   $0x59
    410a:	68 d1 15 01 00       	push   $0x115d1
    410f:	68 4f 0e 01 00       	push   $0x10e4f
    4114:	e8 87 f7 00 00       	call   138a0 <assert_abort@plt>
    4119:	66 90                	xchg   %ax,%ax
    411b:	66 90                	xchg   %ax,%ax
    411d:	66 90                	xchg   %ax,%ax
    411f:	90                   	nop

00004120 <main>:
    4120:	8d 4c 24 04          	lea    0x4(%esp),%ecx
    4124:	83 e4 f0             	and    $0xfffffff0,%esp
    4127:	ff 71 fc             	pushl  -0x4(%ecx)
    412a:	55                   	push   %ebp
    412b:	89 e5                	mov    %esp,%ebp
    412d:	51                   	push   %ecx
    412e:	83 ec 0c             	sub    $0xc,%esp
    4131:	68 4f 0e 01 00       	push   $0x10e4f
    4136:	68 dc 14 01 00       	push   $0x114dc
    413b:	e8 60 f5 00 00       	call   136a0 <printf@plt>
    4140:	c7 04 24 4f 0e 01 00 	movl   $0x10e4f,(%esp)
    4147:	e8 84 94 00 00       	call   d5d0 <nic_driver_init>
    414c:	83 c4 10             	add    $0x10,%esp
    414f:	85 c0                	test   %eax,%eax
    4151:	75 30                	jne    4183 <main+0x63>
    4153:	50                   	push   %eax
    4154:	68 00 61 01 00       	push   $0x16100
    4159:	68 60 64 01 00       	push   $0x16460
    415e:	68 d4 60 01 00       	push   $0x160d4
    4163:	e8 d8 94 00 00       	call   d640 <nic_driver_implement>
    4168:	c7 04 24 4f 0e 01 00 	movl   $0x10e4f,(%esp)
    416f:	e8 3c 14 00 00       	call   55b0 <ddf_log_init>
    4174:	c7 04 24 cc 60 01 00 	movl   $0x160cc,(%esp)
    417b:	e8 90 12 00 00       	call   5410 <ddf_driver_main>
    4180:	83 c4 10             	add    $0x10,%esp
    4183:	8b 4d fc             	mov    -0x4(%ebp),%ecx
    4186:	c9                   	leave  
    4187:	8d 61 fc             	lea    -0x4(%ecx),%esp
    418a:	c3                   	ret    
    418b:	66 90                	xchg   %ax,%ax
    418d:	66 90                	xchg   %ax,%ax
    418f:	90                   	nop

00004190 <rtl8139_memcpy_wrapped>:
    4190:	55                   	push   %ebp
    4191:	31 d2                	xor    %edx,%edx
    4193:	89 e5                	mov    %esp,%ebp
    4195:	57                   	push   %edi
    4196:	56                   	push   %esi
    4197:	53                   	push   %ebx
    4198:	83 ec 1c             	sub    $0x1c,%esp
    419b:	8b 4d 14             	mov    0x14(%ebp),%ecx
    419e:	8b 45 10             	mov    0x10(%ebp),%eax
    41a1:	8b 5d 18             	mov    0x18(%ebp),%ebx
    41a4:	8b 7d 08             	mov    0x8(%ebp),%edi
    41a7:	f7 f1                	div    %ecx
    41a9:	8b 75 0c             	mov    0xc(%ebp),%esi
    41ac:	39 d9                	cmp    %ebx,%ecx
    41ae:	72 58                	jb     4208 <rtl8139_memcpy_wrapped+0x78>
    41b0:	29 d1                	sub    %edx,%ecx
    41b2:	39 cb                	cmp    %ecx,%ebx
    41b4:	76 3a                	jbe    41f0 <rtl8139_memcpy_wrapped+0x60>
    41b6:	29 cb                	sub    %ecx,%ebx
    41b8:	50                   	push   %eax
    41b9:	8d 04 0f             	lea    (%edi,%ecx,1),%eax
    41bc:	53                   	push   %ebx
    41bd:	89 55 e0             	mov    %edx,-0x20(%ebp)
    41c0:	56                   	push   %esi
    41c1:	89 4d e4             	mov    %ecx,-0x1c(%ebp)
    41c4:	50                   	push   %eax
    41c5:	e8 f6 f5 00 00       	call   137c0 <memcpy@plt>
    41ca:	8b 55 e0             	mov    -0x20(%ebp),%edx
    41cd:	8b 4d e4             	mov    -0x1c(%ebp),%ecx
    41d0:	01 d6                	add    %edx,%esi
    41d2:	89 75 0c             	mov    %esi,0xc(%ebp)
    41d5:	89 7d 08             	mov    %edi,0x8(%ebp)
    41d8:	89 4d 10             	mov    %ecx,0x10(%ebp)
    41db:	83 c4 10             	add    $0x10,%esp
    41de:	8d 65 f4             	lea    -0xc(%ebp),%esp
    41e1:	5b                   	pop    %ebx
    41e2:	5e                   	pop    %esi
    41e3:	5f                   	pop    %edi
    41e4:	5d                   	pop    %ebp
    41e5:	e9 d6 f5 00 00       	jmp    137c0 <memcpy@plt>
    41ea:	8d b6 00 00 00 00    	lea    0x0(%esi),%esi
    41f0:	01 d6                	add    %edx,%esi
    41f2:	89 5d 10             	mov    %ebx,0x10(%ebp)
    41f5:	89 75 0c             	mov    %esi,0xc(%ebp)
    41f8:	8d 65 f4             	lea    -0xc(%ebp),%esp
    41fb:	5b                   	pop    %ebx
    41fc:	5e                   	pop    %esi
    41fd:	5f                   	pop    %edi
    41fe:	5d                   	pop    %ebp
    41ff:	e9 bc f5 00 00       	jmp    137c0 <memcpy@plt>
    4204:	8d 74 26 00          	lea    0x0(%esi,%eiz,1),%esi
    4208:	8d 65 f4             	lea    -0xc(%ebp),%esp
    420b:	31 c0                	xor    %eax,%eax
    420d:	5b                   	pop    %ebx
    420e:	5e                   	pop    %esi
    420f:	5f                   	pop    %edi
    4210:	5d                   	pop    %ebp
    4211:	c3                   	ret    
    4212:	8d b4 26 00 00 00 00 	lea    0x0(%esi,%eiz,1),%esi
    4219:	8d bc 27 00 00 00 00 	lea    0x0(%edi,%eiz,1),%edi

00004220 <rtl8139_timer_act_init>:
    4220:	55                   	push   %ebp
    4221:	89 e5                	mov    %esp,%ebp
    4223:	57                   	push   %edi
    4224:	56                   	push   %esi
    4225:	53                   	push   %ebx
    4226:	83 ec 1c             	sub    $0x1c,%esp
    4229:	8b 75 0c             	mov    0xc(%ebp),%esi
    422c:	8b 7d 10             	mov    0x10(%ebp),%edi
    422f:	85 f6                	test   %esi,%esi
    4231:	8b 5d 08             	mov    0x8(%ebp),%ebx
    4234:	0f 94 c2             	sete   %dl
    4237:	85 ff                	test   %edi,%edi
    4239:	0f 94 c0             	sete   %al
    423c:	08 c2                	or     %al,%dl
    423e:	0f 85 d4 00 00 00    	jne    4318 <rtl8139_timer_act_init+0xf8>
    4244:	85 db                	test   %ebx,%ebx
    4246:	0f 84 cc 00 00 00    	je     4318 <rtl8139_timer_act_init+0xf8>
    424c:	50                   	push   %eax
    424d:	6a 14                	push   $0x14
    424f:	6a 00                	push   $0x0
    4251:	53                   	push   %ebx
    4252:	e8 19 f8 00 00       	call   13a70 <memset@plt>
    4257:	8d 04 b6             	lea    (%esi,%esi,4),%eax
    425a:	8d 04 80             	lea    (%eax,%eax,4),%eax
    425d:	31 d2                	xor    %edx,%edx
    425f:	83 c4 10             	add    $0x10,%esp
    4262:	8d 0c 80             	lea    (%eax,%eax,4),%ecx
    4265:	83 c8 ff             	or     $0xffffffff,%eax
    4268:	c1 e1 03             	shl    $0x3,%ecx
    426b:	f7 f1                	div    %ecx
    426d:	0f af c8             	imul   %eax,%ecx
    4270:	89 c2                	mov    %eax,%edx
    4272:	89 45 e4             	mov    %eax,-0x1c(%ebp)
    4275:	89 4b 04             	mov    %ecx,0x4(%ebx)
    4278:	8b 07                	mov    (%edi),%eax
    427a:	8b 4f 04             	mov    0x4(%edi),%ecx
    427d:	89 d7                	mov    %edx,%edi
    427f:	31 d2                	xor    %edx,%edx
    4281:	f7 f7                	div    %edi
    4283:	89 d7                	mov    %edx,%edi
    4285:	89 45 e0             	mov    %eax,-0x20(%ebp)
    4288:	81 f9 40 42 0f 00    	cmp    $0xf4240,%ecx
    428e:	7f 40                	jg     42d0 <rtl8139_timer_act_init+0xb0>
    4290:	89 43 08             	mov    %eax,0x8(%ebx)
    4293:	8d 04 bf             	lea    (%edi,%edi,4),%eax
    4296:	ba d3 4d 62 10       	mov    $0x10624dd3,%edx
    429b:	c7 43 0c 00 00 00 00 	movl   $0x0,0xc(%ebx)
    42a2:	c7 43 10 01 00 00 00 	movl   $0x1,0x10(%ebx)
    42a9:	8d 04 80             	lea    (%eax,%eax,4),%eax
    42ac:	8d 3c 80             	lea    (%eax,%eax,4),%edi
    42af:	89 c8                	mov    %ecx,%eax
    42b1:	f7 ea                	imul   %edx
    42b3:	c1 f9 1f             	sar    $0x1f,%ecx
    42b6:	c1 fa 06             	sar    $0x6,%edx
    42b9:	29 ca                	sub    %ecx,%edx
    42bb:	8d 04 fa             	lea    (%edx,%edi,8),%eax
    42be:	0f af f0             	imul   %eax,%esi
    42c1:	31 c0                	xor    %eax,%eax
    42c3:	89 33                	mov    %esi,(%ebx)
    42c5:	8d 65 f4             	lea    -0xc(%ebp),%esp
    42c8:	5b                   	pop    %ebx
    42c9:	5e                   	pop    %esi
    42ca:	5f                   	pop    %edi
    42cb:	5d                   	pop    %ebp
    42cc:	c3                   	ret    
    42cd:	8d 76 00             	lea    0x0(%esi),%esi
    42d0:	89 c8                	mov    %ecx,%eax
    42d2:	ba 83 de 1b 43       	mov    $0x431bde83,%edx
    42d7:	f7 ea                	imul   %edx
    42d9:	c1 fa 12             	sar    $0x12,%edx
    42dc:	89 c8                	mov    %ecx,%eax
    42de:	c1 f8 1f             	sar    $0x1f,%eax
    42e1:	29 c2                	sub    %eax,%edx
    42e3:	8d 04 3a             	lea    (%edx,%edi,1),%eax
    42e6:	89 45 dc             	mov    %eax,-0x24(%ebp)
    42e9:	89 d0                	mov    %edx,%eax
    42eb:	c1 e0 05             	shl    $0x5,%eax
    42ee:	29 d0                	sub    %edx,%eax
    42f0:	89 c7                	mov    %eax,%edi
    42f2:	c1 e7 06             	shl    $0x6,%edi
    42f5:	29 c7                	sub    %eax,%edi
    42f7:	8d 04 fa             	lea    (%edx,%edi,8),%eax
    42fa:	31 d2                	xor    %edx,%edx
    42fc:	c1 e0 06             	shl    $0x6,%eax
    42ff:	8b 7d e0             	mov    -0x20(%ebp),%edi
    4302:	29 c1                	sub    %eax,%ecx
    4304:	8b 45 dc             	mov    -0x24(%ebp),%eax
    4307:	f7 75 e4             	divl   -0x1c(%ebp)
    430a:	01 f8                	add    %edi,%eax
    430c:	89 d7                	mov    %edx,%edi
    430e:	89 43 08             	mov    %eax,0x8(%ebx)
    4311:	eb 80                	jmp    4293 <rtl8139_timer_act_init+0x73>
    4313:	90                   	nop
    4314:	8d 74 26 00          	lea    0x0(%esi,%eiz,1),%esi
    4318:	b8 f2 ff ff ff       	mov    $0xfffffff2,%eax
    431d:	eb a6                	jmp    42c5 <rtl8139_timer_act_init+0xa5>
    431f:	90                   	nop

00004320 <rtl8139_timer_act_step>:
    4320:	55                   	push   %ebp
    4321:	89 e5                	mov    %esp,%ebp
    4323:	56                   	push   %esi
    4324:	53                   	push   %ebx
    4325:	8b 55 08             	mov    0x8(%ebp),%edx
    4328:	8b 5d 0c             	mov    0xc(%ebp),%ebx
    432b:	8b 42 10             	mov    0x10(%edx),%eax
    432e:	85 c0                	test   %eax,%eax
    4330:	75 2a                	jne    435c <rtl8139_timer_act_step+0x3c>
    4332:	8b 0a                	mov    (%edx),%ecx
    4334:	85 c9                	test   %ecx,%ecx
    4336:	8b 4a 0c             	mov    0xc(%edx),%ecx
    4339:	74 1d                	je     4358 <rtl8139_timer_act_step+0x38>
    433b:	85 c9                	test   %ecx,%ecx
    433d:	75 33                	jne    4372 <rtl8139_timer_act_step+0x52>
    433f:	8b 32                	mov    (%edx),%esi
    4341:	c7 42 10 01 00 00 00 	movl   $0x1,0x10(%edx)
    4348:	85 db                	test   %ebx,%ebx
    434a:	74 02                	je     434e <rtl8139_timer_act_step+0x2e>
    434c:	89 33                	mov    %esi,(%ebx)
    434e:	5b                   	pop    %ebx
    434f:	5e                   	pop    %esi
    4350:	5d                   	pop    %ebp
    4351:	c3                   	ret    
    4352:	8d b6 00 00 00 00    	lea    0x0(%esi),%esi
    4358:	85 c9                	test   %ecx,%ecx
    435a:	75 16                	jne    4372 <rtl8139_timer_act_step+0x52>
    435c:	8b 4a 08             	mov    0x8(%edx),%ecx
    435f:	c7 42 10 00 00 00 00 	movl   $0x0,0x10(%edx)
    4366:	89 4a 0c             	mov    %ecx,0xc(%edx)
    4369:	b8 01 00 00 00       	mov    $0x1,%eax
    436e:	85 c9                	test   %ecx,%ecx
    4370:	74 cd                	je     433f <rtl8139_timer_act_step+0x1f>
    4372:	49                   	dec    %ecx
    4373:	8b 72 04             	mov    0x4(%edx),%esi
    4376:	89 4a 0c             	mov    %ecx,0xc(%edx)
    4379:	eb cd                	jmp    4348 <rtl8139_timer_act_step+0x28>
    437b:	66 90                	xchg   %ax,%ax
    437d:	66 90                	xchg   %ax,%ax
    437f:	90                   	nop

00004380 <fun_del_ref>:
    4380:	55                   	push   %ebp
    4381:	83 ca ff             	or     $0xffffffff,%edx
    4384:	89 e5                	mov    %esp,%ebp
    4386:	57                   	push   %edi
    4387:	56                   	push   %esi
    4388:	53                   	push   %ebx
    4389:	83 ec 1c             	sub    $0x1c,%esp
    438c:	8b 70 0c             	mov    0xc(%eax),%esi
    438f:	f0 0f c1 50 08       	lock xadd %edx,0x8(%eax)
    4394:	4a                   	dec    %edx
    4395:	74 69                	je     4400 <fun_del_ref+0x80>
    4397:	83 c8 ff             	or     $0xffffffff,%eax
    439a:	f0 0f c1 46 04       	lock xadd %eax,0x4(%esi)
    439f:	48                   	dec    %eax
    43a0:	74 0e                	je     43b0 <fun_del_ref+0x30>
    43a2:	8d 65 f4             	lea    -0xc(%ebp),%esp
    43a5:	5b                   	pop    %ebx
    43a6:	5e                   	pop    %esi
    43a7:	5f                   	pop    %edi
    43a8:	5d                   	pop    %ebp
    43a9:	c3                   	ret    
    43aa:	8d b6 00 00 00 00    	lea    0x0(%esi),%esi
    43b0:	8b 46 08             	mov    0x8(%esi),%eax
    43b3:	85 c0                	test   %eax,%eax
    43b5:	74 0c                	je     43c3 <fun_del_ref+0x43>
    43b7:	83 ec 0c             	sub    $0xc,%esp
    43ba:	50                   	push   %eax
    43bb:	e8 f0 f2 00 00       	call   136b0 <async_hangup@plt>
    43c0:	83 c4 10             	add    $0x10,%esp
    43c3:	8b 46 10             	mov    0x10(%esi),%eax
    43c6:	85 c0                	test   %eax,%eax
    43c8:	74 0c                	je     43d6 <fun_del_ref+0x56>
    43ca:	83 ec 0c             	sub    $0xc,%esp
    43cd:	50                   	push   %eax
    43ce:	e8 fd f8 00 00       	call   13cd0 <free@plt>
    43d3:	83 c4 10             	add    $0x10,%esp
    43d6:	8b 46 0c             	mov    0xc(%esi),%eax
    43d9:	85 c0                	test   %eax,%eax
    43db:	74 0c                	je     43e9 <fun_del_ref+0x69>
    43dd:	83 ec 0c             	sub    $0xc,%esp
    43e0:	50                   	push   %eax
    43e1:	e8 ea f8 00 00       	call   13cd0 <free@plt>
    43e6:	83 c4 10             	add    $0x10,%esp
    43e9:	83 ec 0c             	sub    $0xc,%esp
    43ec:	56                   	push   %esi
    43ed:	e8 de f8 00 00       	call   13cd0 <free@plt>
    43f2:	83 c4 10             	add    $0x10,%esp
    43f5:	8d 65 f4             	lea    -0xc(%ebp),%esp
    43f8:	5b                   	pop    %ebx
    43f9:	5e                   	pop    %esi
    43fa:	5f                   	pop    %edi
    43fb:	5d                   	pop    %ebp
    43fc:	c3                   	ret    
    43fd:	8d 76 00             	lea    0x0(%esi),%esi
    4400:	8b 58 1c             	mov    0x1c(%eax),%ebx
    4403:	89 c7                	mov    %eax,%edi
    4405:	8d 40 18             	lea    0x18(%eax),%eax
    4408:	89 45 e4             	mov    %eax,-0x1c(%ebp)
    440b:	39 d8                	cmp    %ebx,%eax
    440d:	74 49                	je     4458 <fun_del_ref+0xd8>
    440f:	90                   	nop
    4410:	8b 0b                	mov    (%ebx),%ecx
    4412:	85 c9                	test   %ecx,%ecx
    4414:	74 0e                	je     4424 <fun_del_ref+0xa4>
    4416:	8b 53 04             	mov    0x4(%ebx),%edx
    4419:	85 d2                	test   %edx,%edx
    441b:	74 07                	je     4424 <fun_del_ref+0xa4>
    441d:	89 0a                	mov    %ecx,(%edx)
    441f:	8b 0b                	mov    (%ebx),%ecx
    4421:	89 51 04             	mov    %edx,0x4(%ecx)
    4424:	8b 53 08             	mov    0x8(%ebx),%edx
    4427:	c7 03 00 00 00 00    	movl   $0x0,(%ebx)
    442d:	c7 43 04 00 00 00 00 	movl   $0x0,0x4(%ebx)
    4434:	85 d2                	test   %edx,%edx
    4436:	74 0c                	je     4444 <fun_del_ref+0xc4>
    4438:	83 ec 0c             	sub    $0xc,%esp
    443b:	52                   	push   %edx
    443c:	e8 8f f8 00 00       	call   13cd0 <free@plt>
    4441:	83 c4 10             	add    $0x10,%esp
    4444:	83 ec 0c             	sub    $0xc,%esp
    4447:	53                   	push   %ebx
    4448:	e8 83 f8 00 00       	call   13cd0 <free@plt>
    444d:	8b 5f 1c             	mov    0x1c(%edi),%ebx
    4450:	83 c4 10             	add    $0x10,%esp
    4453:	3b 5d e4             	cmp    -0x1c(%ebp),%ebx
    4456:	75 b8                	jne    4410 <fun_del_ref+0x90>
    4458:	8b 57 20             	mov    0x20(%edi),%edx
    445b:	85 d2                	test   %edx,%edx
    445d:	74 0c                	je     446b <fun_del_ref+0xeb>
    445f:	83 ec 0c             	sub    $0xc,%esp
    4462:	52                   	push   %edx
    4463:	e8 68 f8 00 00       	call   13cd0 <free@plt>
    4468:	83 c4 10             	add    $0x10,%esp
    446b:	8b 57 14             	mov    0x14(%edi),%edx
    446e:	85 d2                	test   %edx,%edx
    4470:	74 0c                	je     447e <fun_del_ref+0xfe>
    4472:	83 ec 0c             	sub    $0xc,%esp
    4475:	52                   	push   %edx
    4476:	e8 55 f8 00 00       	call   13cd0 <free@plt>
    447b:	83 c4 10             	add    $0x10,%esp
    447e:	83 ec 0c             	sub    $0xc,%esp
    4481:	57                   	push   %edi
    4482:	e8 49 f8 00 00       	call   13cd0 <free@plt>
    4487:	83 c4 10             	add    $0x10,%esp
    448a:	e9 08 ff ff ff       	jmp    4397 <fun_del_ref+0x17>
    448f:	90                   	nop

00004490 <driver_connection_gen.constprop.7>:
    4490:	55                   	push   %ebp
    4491:	89 e5                	mov    %esp,%ebp
    4493:	57                   	push   %edi
    4494:	56                   	push   %esi
    4495:	53                   	push   %ebx
    4496:	83 ec 58             	sub    $0x58,%esp
    4499:	89 d3                	mov    %edx,%ebx
    449b:	8b 72 08             	mov    0x8(%edx),%esi
    449e:	89 45 b4             	mov    %eax,-0x4c(%ebp)
    44a1:	68 e8 61 01 00       	push   $0x161e8
    44a6:	e8 45 f8 00 00       	call   13cf0 <fibril_mutex_lock@plt>
    44ab:	c7 04 24 e8 61 01 00 	movl   $0x161e8,(%esp)
    44b2:	e8 99 f2 00 00       	call   13750 <fibril_mutex_is_locked@plt>
    44b7:	83 c4 10             	add    $0x10,%esp
    44ba:	84 c0                	test   %al,%al
    44bc:	0f 84 71 02 00 00    	je     4733 <driver_connection_gen.constprop.7+0x2a3>
    44c2:	a1 fc 61 01 00       	mov    0x161fc,%eax
    44c7:	3d f8 61 01 00       	cmp    $0x161f8,%eax
    44cc:	8d 78 d4             	lea    -0x2c(%eax),%edi
    44cf:	75 18                	jne    44e9 <driver_connection_gen.constprop.7+0x59>
    44d1:	e9 22 02 00 00       	jmp    46f8 <driver_connection_gen.constprop.7+0x268>
    44d6:	66 90                	xchg   %ax,%ax
    44d8:	8b 40 04             	mov    0x4(%eax),%eax
    44db:	3d f8 61 01 00       	cmp    $0x161f8,%eax
    44e0:	8d 78 d4             	lea    -0x2c(%eax),%edi
    44e3:	0f 84 0f 02 00 00    	je     46f8 <driver_connection_gen.constprop.7+0x268>
    44e9:	3b 77 04             	cmp    0x4(%edi),%esi
    44ec:	75 ea                	jne    44d8 <driver_connection_gen.constprop.7+0x48>
    44ee:	8b 47 0c             	mov    0xc(%edi),%eax
    44f1:	f0 ff 40 04          	lock incl 0x4(%eax)
    44f5:	f0 ff 47 08          	lock incl 0x8(%edi)
    44f9:	83 ec 0c             	sub    $0xc,%esp
    44fc:	68 e8 61 01 00       	push   $0x161e8
    4501:	e8 4a f4 00 00       	call   13950 <fibril_mutex_unlock@plt>
    4506:	8b 47 28             	mov    0x28(%edi),%eax
    4509:	83 c4 10             	add    $0x10,%esp
    450c:	85 c0                	test   %eax,%eax
    450e:	74 20                	je     4530 <driver_connection_gen.constprop.7+0xa0>
    4510:	8b 55 b4             	mov    -0x4c(%ebp),%edx
    4513:	56                   	push   %esi
    4514:	57                   	push   %edi
    4515:	53                   	push   %ebx
    4516:	52                   	push   %edx
    4517:	ff d0                	call   *%eax
    4519:	89 f8                	mov    %edi,%eax
    451b:	e8 60 fe ff ff       	call   4380 <fun_del_ref>
    4520:	83 c4 10             	add    $0x10,%esp
    4523:	8d 65 f4             	lea    -0xc(%ebp),%esp
    4526:	5b                   	pop    %ebx
    4527:	5e                   	pop    %esi
    4528:	5f                   	pop    %edi
    4529:	5d                   	pop    %ebp
    452a:	c3                   	ret    
    452b:	90                   	nop
    452c:	8d 74 26 00          	lea    0x0(%esi,%eiz,1),%esi
    4530:	8b 47 24             	mov    0x24(%edi),%eax
    4533:	85 c0                	test   %eax,%eax
    4535:	0f 84 a5 01 00 00    	je     46e0 <driver_connection_gen.constprop.7+0x250>
    453b:	8b 00                	mov    (%eax),%eax
    453d:	85 c0                	test   %eax,%eax
    453f:	0f 84 9b 01 00 00    	je     46e0 <driver_connection_gen.constprop.7+0x250>
    4545:	83 ec 0c             	sub    $0xc,%esp
    4548:	57                   	push   %edi
    4549:	ff d0                	call   *%eax
    454b:	8b 4d b4             	mov    -0x4c(%ebp),%ecx
    454e:	89 c3                	mov    %eax,%ebx
    4550:	58                   	pop    %eax
    4551:	5a                   	pop    %edx
    4552:	53                   	push   %ebx
    4553:	51                   	push   %ecx
    4554:	e8 d7 f2 00 00       	call   13830 <async_answer_0@plt>
    4559:	83 c4 10             	add    $0x10,%esp
    455c:	85 db                	test   %ebx,%ebx
    455e:	0f 85 70 01 00 00    	jne    46d4 <driver_connection_gen.constprop.7+0x244>
    4564:	8d 74 26 00          	lea    0x0(%esi,%eiz,1),%esi
    4568:	50                   	push   %eax
    4569:	50                   	push   %eax
    456a:	8d 45 c4             	lea    -0x3c(%ebp),%eax
    456d:	6a 00                	push   $0x0
    456f:	50                   	push   %eax
    4570:	e8 8b f5 00 00       	call   13b00 <async_get_call_timeout@plt>
    4575:	8b 5d c4             	mov    -0x3c(%ebp),%ebx
    4578:	83 c4 10             	add    $0x10,%esp
    457b:	89 45 b4             	mov    %eax,-0x4c(%ebp)
    457e:	85 db                	test   %ebx,%ebx
    4580:	0f 84 e2 00 00 00    	je     4668 <driver_connection_gen.constprop.7+0x1d8>
    4586:	83 ec 0c             	sub    $0xc,%esp
    4589:	81 eb 00 04 00 00    	sub    $0x400,%ebx
    458f:	53                   	push   %ebx
    4590:	e8 cb 0f 00 00       	call   5560 <is_valid_iface_idx>
    4595:	83 c4 10             	add    $0x10,%esp
    4598:	84 c0                	test   %al,%al
    459a:	75 2c                	jne    45c8 <driver_connection_gen.constprop.7+0x138>
    459c:	8b 47 24             	mov    0x24(%edi),%eax
    459f:	85 c0                	test   %eax,%eax
    45a1:	0f 84 91 00 00 00    	je     4638 <driver_connection_gen.constprop.7+0x1a8>
    45a7:	8b 40 44             	mov    0x44(%eax),%eax
    45aa:	85 c0                	test   %eax,%eax
    45ac:	0f 84 86 00 00 00    	je     4638 <driver_connection_gen.constprop.7+0x1a8>
    45b2:	8d 4d c4             	lea    -0x3c(%ebp),%ecx
    45b5:	52                   	push   %edx
    45b6:	51                   	push   %ecx
    45b7:	8b 4d b4             	mov    -0x4c(%ebp),%ecx
    45ba:	51                   	push   %ecx
    45bb:	57                   	push   %edi
    45bc:	ff d0                	call   *%eax
    45be:	83 c4 10             	add    $0x10,%esp
    45c1:	eb a5                	jmp    4568 <driver_connection_gen.constprop.7+0xd8>
    45c3:	90                   	nop
    45c4:	8d 74 26 00          	lea    0x0(%esi,%eiz,1),%esi
    45c8:	83 ec 0c             	sub    $0xc,%esp
    45cb:	53                   	push   %ebx
    45cc:	e8 8f 0f 00 00       	call   5560 <is_valid_iface_idx>
    45d1:	83 c4 10             	add    $0x10,%esp
    45d4:	84 c0                	test   %al,%al
    45d6:	0f 84 69 01 00 00    	je     4745 <driver_connection_gen.constprop.7+0x2b5>
    45dc:	8b 47 24             	mov    0x24(%edi),%eax
    45df:	85 c0                	test   %eax,%eax
    45e1:	0f 84 b9 00 00 00    	je     46a0 <driver_connection_gen.constprop.7+0x210>
    45e7:	8b 44 98 08          	mov    0x8(%eax,%ebx,4),%eax
    45eb:	89 45 b0             	mov    %eax,-0x50(%ebp)
    45ee:	85 c0                	test   %eax,%eax
    45f0:	0f 84 aa 00 00 00    	je     46a0 <driver_connection_gen.constprop.7+0x210>
    45f6:	83 ec 0c             	sub    $0xc,%esp
    45f9:	53                   	push   %ebx
    45fa:	e8 11 0f 00 00       	call   5510 <get_remote_iface>
    45ff:	83 c4 10             	add    $0x10,%esp
    4602:	85 c0                	test   %eax,%eax
    4604:	0f 84 50 01 00 00    	je     475a <driver_connection_gen.constprop.7+0x2ca>
    460a:	8b 4d c8             	mov    -0x38(%ebp),%ecx
    460d:	52                   	push   %edx
    460e:	52                   	push   %edx
    460f:	51                   	push   %ecx
    4610:	50                   	push   %eax
    4611:	e8 2a 0f 00 00       	call   5540 <get_remote_method>
    4616:	83 c4 10             	add    $0x10,%esp
    4619:	85 c0                	test   %eax,%eax
    461b:	0f 84 9f 00 00 00    	je     46c0 <driver_connection_gen.constprop.7+0x230>
    4621:	8d 55 c4             	lea    -0x3c(%ebp),%edx
    4624:	8b 4d b0             	mov    -0x50(%ebp),%ecx
    4627:	52                   	push   %edx
    4628:	8b 55 b4             	mov    -0x4c(%ebp),%edx
    462b:	52                   	push   %edx
    462c:	51                   	push   %ecx
    462d:	57                   	push   %edi
    462e:	ff d0                	call   *%eax
    4630:	83 c4 10             	add    $0x10,%esp
    4633:	e9 30 ff ff ff       	jmp    4568 <driver_connection_gen.constprop.7+0xd8>
    4638:	50                   	push   %eax
    4639:	a1 a8 64 01 00       	mov    0x164a8,%eax
    463e:	53                   	push   %ebx
    463f:	8b 00                	mov    (%eax),%eax
    4641:	50                   	push   %eax
    4642:	68 4c 17 01 00       	push   $0x1174c
    4647:	e8 54 f0 00 00       	call   136a0 <printf@plt>
    464c:	5b                   	pop    %ebx
    464d:	58                   	pop    %eax
    464e:	8b 45 b4             	mov    -0x4c(%ebp),%eax
    4651:	6a f5                	push   $0xfffffff5
    4653:	50                   	push   %eax
    4654:	e8 d7 f1 00 00       	call   13830 <async_answer_0@plt>
    4659:	83 c4 10             	add    $0x10,%esp
    465c:	e9 07 ff ff ff       	jmp    4568 <driver_connection_gen.constprop.7+0xd8>
    4661:	8d b4 26 00 00 00 00 	lea    0x0(%esi,%eiz,1),%esi
    4668:	8b 47 24             	mov    0x24(%edi),%eax
    466b:	85 c0                	test   %eax,%eax
    466d:	74 10                	je     467f <driver_connection_gen.constprop.7+0x1ef>
    466f:	8b 40 04             	mov    0x4(%eax),%eax
    4672:	85 c0                	test   %eax,%eax
    4674:	74 09                	je     467f <driver_connection_gen.constprop.7+0x1ef>
    4676:	83 ec 0c             	sub    $0xc,%esp
    4679:	57                   	push   %edi
    467a:	ff d0                	call   *%eax
    467c:	83 c4 10             	add    $0x10,%esp
    467f:	8b 75 b4             	mov    -0x4c(%ebp),%esi
    4682:	53                   	push   %ebx
    4683:	53                   	push   %ebx
    4684:	6a 00                	push   $0x0
    4686:	56                   	push   %esi
    4687:	e8 a4 f1 00 00       	call   13830 <async_answer_0@plt>
    468c:	89 f8                	mov    %edi,%eax
    468e:	e8 ed fc ff ff       	call   4380 <fun_del_ref>
    4693:	83 c4 10             	add    $0x10,%esp
    4696:	8d 65 f4             	lea    -0xc(%ebp),%esp
    4699:	5b                   	pop    %ebx
    469a:	5e                   	pop    %esi
    469b:	5f                   	pop    %edi
    469c:	5d                   	pop    %ebp
    469d:	c3                   	ret    
    469e:	66 90                	xchg   %ax,%ax
    46a0:	50                   	push   %eax
    46a1:	50                   	push   %eax
    46a2:	a1 a8 64 01 00       	mov    0x164a8,%eax
    46a7:	8b 00                	mov    (%eax),%eax
    46a9:	50                   	push   %eax
    46aa:	68 88 17 01 00       	push   $0x11788
    46af:	e8 ec ef 00 00       	call   136a0 <printf@plt>
    46b4:	83 c4 0c             	add    $0xc,%esp
    46b7:	53                   	push   %ebx
    46b8:	56                   	push   %esi
    46b9:	68 ac 17 01 00       	push   $0x117ac
    46be:	eb 87                	jmp    4647 <driver_connection_gen.constprop.7+0x1b7>
    46c0:	50                   	push   %eax
    46c1:	50                   	push   %eax
    46c2:	a1 a8 64 01 00       	mov    0x164a8,%eax
    46c7:	8b 00                	mov    (%eax),%eax
    46c9:	50                   	push   %eax
    46ca:	68 e4 17 01 00       	push   $0x117e4
    46cf:	e9 73 ff ff ff       	jmp    4647 <driver_connection_gen.constprop.7+0x1b7>
    46d4:	89 f8                	mov    %edi,%eax
    46d6:	e8 a5 fc ff ff       	call   4380 <fun_del_ref>
    46db:	e9 43 fe ff ff       	jmp    4523 <driver_connection_gen.constprop.7+0x93>
    46e0:	8b 55 b4             	mov    -0x4c(%ebp),%edx
    46e3:	50                   	push   %eax
    46e4:	50                   	push   %eax
    46e5:	6a 00                	push   $0x0
    46e7:	52                   	push   %edx
    46e8:	e8 43 f1 00 00       	call   13830 <async_answer_0@plt>
    46ed:	83 c4 10             	add    $0x10,%esp
    46f0:	e9 73 fe ff ff       	jmp    4568 <driver_connection_gen.constprop.7+0xd8>
    46f5:	8d 76 00             	lea    0x0(%esi),%esi
    46f8:	83 ec 0c             	sub    $0xc,%esp
    46fb:	68 e8 61 01 00       	push   $0x161e8
    4700:	e8 4b f2 00 00       	call   13950 <fibril_mutex_unlock@plt>
    4705:	a1 a8 64 01 00       	mov    0x164a8,%eax
    470a:	83 c4 0c             	add    $0xc,%esp
    470d:	8b 08                	mov    (%eax),%ecx
    470f:	56                   	push   %esi
    4710:	51                   	push   %ecx
    4711:	68 20 18 01 00       	push   $0x11820
    4716:	e8 85 ef 00 00       	call   136a0 <printf@plt>
    471b:	8b 7d b4             	mov    -0x4c(%ebp),%edi
    471e:	5b                   	pop    %ebx
    471f:	5e                   	pop    %esi
    4720:	6a ff                	push   $0xffffffff
    4722:	57                   	push   %edi
    4723:	e8 08 f1 00 00       	call   13830 <async_answer_0@plt>
    4728:	83 c4 10             	add    $0x10,%esp
    472b:	8d 65 f4             	lea    -0xc(%ebp),%esp
    472e:	5b                   	pop    %ebx
    472f:	5e                   	pop    %esi
    4730:	5f                   	pop    %edi
    4731:	5d                   	pop    %ebp
    4732:	c3                   	ret    
    4733:	51                   	push   %ecx
    4734:	6a 6b                	push   $0x6b
    4736:	68 c9 15 01 00       	push   $0x115c9
    473b:	68 20 17 01 00       	push   $0x11720
    4740:	e8 5b f1 00 00       	call   138a0 <assert_abort@plt>
    4745:	50                   	push   %eax
    4746:	68 fb 02 00 00       	push   $0x2fb
    474b:	68 c9 15 01 00       	push   $0x115c9
    4750:	68 da 15 01 00       	push   $0x115da
    4755:	e8 46 f1 00 00       	call   138a0 <assert_abort@plt>
    475a:	53                   	push   %ebx
    475b:	68 aa 01 00 00       	push   $0x1aa
    4760:	68 c9 15 01 00       	push   $0x115c9
    4765:	68 f2 15 01 00       	push   $0x115f2
    476a:	e8 31 f1 00 00       	call   138a0 <assert_abort@plt>
    476f:	90                   	nop

00004770 <driver_connection_driver>:
    4770:	55                   	push   %ebp
    4771:	89 e5                	mov    %esp,%ebp
    4773:	8b 55 0c             	mov    0xc(%ebp),%edx
    4776:	8b 45 08             	mov    0x8(%ebp),%eax
    4779:	5d                   	pop    %ebp
    477a:	e9 11 fd ff ff       	jmp    4490 <driver_connection_gen.constprop.7>
    477f:	90                   	nop

00004780 <driver_connection_client>:
    4780:	55                   	push   %ebp
    4781:	89 e5                	mov    %esp,%ebp
    4783:	8b 55 0c             	mov    0xc(%ebp),%edx
    4786:	8b 45 08             	mov    0x8(%ebp),%eax
    4789:	5d                   	pop    %ebp
    478a:	e9 01 fd ff ff       	jmp    4490 <driver_connection_gen.constprop.7>
    478f:	90                   	nop

00004790 <driver_connection_devman>:
    4790:	55                   	push   %ebp
    4791:	89 e5                	mov    %esp,%ebp
    4793:	57                   	push   %edi
    4794:	56                   	push   %esi
    4795:	53                   	push   %ebx
    4796:	83 ec 54             	sub    $0x54,%esp
    4799:	8d 75 c4             	lea    -0x3c(%ebp),%esi
    479c:	8b 45 08             	mov    0x8(%ebp),%eax
    479f:	6a 00                	push   $0x0
    47a1:	50                   	push   %eax
    47a2:	e8 89 f0 00 00       	call   13830 <async_answer_0@plt>
    47a7:	83 c4 10             	add    $0x10,%esp
    47aa:	8d b6 00 00 00 00    	lea    0x0(%esi),%esi
    47b0:	50                   	push   %eax
    47b1:	50                   	push   %eax
    47b2:	6a 00                	push   $0x0
    47b4:	56                   	push   %esi
    47b5:	e8 46 f3 00 00       	call   13b00 <async_get_call_timeout@plt>
    47ba:	83 c4 10             	add    $0x10,%esp
    47bd:	89 c3                	mov    %eax,%ebx
