
kfb:     file format elf32-i386


Disassembly of section .init:

000010f4 <__entry>:
    10f4:	66 8c d0             	mov    %ss,%ax
    10f7:	8e d8                	mov    %eax,%ds
    10f9:	8e c0                	mov    %eax,%es
    10fb:	8e e0                	mov    %eax,%fs
    10fd:	b8 01 00 00 00       	mov    $0x1,%eax
    1102:	0f a2                	cpuid  
    1104:	0f ba e2 0b          	bt     $0xb,%edx
    1108:	73 0c                	jae    1116 <__entry+0x22>
    110a:	8d 05 e0 04 01 00    	lea    0x104e0,%eax
    1110:	c7 00 d0 e3 00 00    	movl   $0xe3d0,(%eax)
    1116:	6a 00                	push   $0x0
    1118:	6a 00                	push   $0x0
    111a:	89 e5                	mov    %esp,%ebp
    111c:	57                   	push   %edi
    111d:	e8 de cd 00 00       	call   df00 <__main@plt>

Disassembly of section .text:

00001140 <kfb_yield>:
    1140:	55                   	push   %ebp
    1141:	89 e5                	mov    %esp,%ebp
    1143:	8b 45 08             	mov    0x8(%ebp),%eax
    1146:	80 78 5c 00          	cmpb   $0x0,0x5c(%eax)
    114a:	74 07                	je     1153 <kfb_yield+0x13>
    114c:	c7 40 6c 00 00 00 00 	movl   $0x0,0x6c(%eax)
    1153:	31 c0                	xor    %eax,%eax
    1155:	5d                   	pop    %ebp
    1156:	c3                   	ret    
    1157:	89 f6                	mov    %esi,%esi
    1159:	8d bc 27 00 00 00 00 	lea    0x0(%edi,%eiz,1),%edi

00001160 <kfb_handle_damage_pixels>:
    1160:	55                   	push   %ebp
    1161:	89 e5                	mov    %esp,%ebp
    1163:	57                   	push   %edi
    1164:	56                   	push   %esi
    1165:	53                   	push   %ebx
    1166:	83 ec 1c             	sub    $0x1c,%esp
    1169:	8b 75 1c             	mov    0x1c(%ebp),%esi
    116c:	8b 7d 08             	mov    0x8(%ebp),%edi
    116f:	89 f0                	mov    %esi,%eax
    1171:	0b 45 20             	or     0x20(%ebp),%eax
    1174:	8b 45 10             	mov    0x10(%ebp),%eax
    1177:	0f 84 a1 00 00 00    	je     121e <kfb_handle_damage_pixels+0xbe>
    117d:	8b 55 18             	mov    0x18(%ebp),%edx
    1180:	01 d0                	add    %edx,%eax
    1182:	89 45 dc             	mov    %eax,-0x24(%ebp)
    1185:	39 45 10             	cmp    %eax,0x10(%ebp)
    1188:	0f 83 86 00 00 00    	jae    1214 <kfb_handle_damage_pixels+0xb4>
    118e:	8b 45 0c             	mov    0xc(%ebp),%eax
    1191:	8b 5d 14             	mov    0x14(%ebp),%ebx
    1194:	01 d8                	add    %ebx,%eax
    1196:	89 45 e0             	mov    %eax,-0x20(%ebp)
    1199:	39 45 0c             	cmp    %eax,0xc(%ebp)
    119c:	73 76                	jae    1214 <kfb_handle_damage_pixels+0xb4>
    119e:	66 90                	xchg   %ax,%ax
    11a0:	8b 45 20             	mov    0x20(%ebp),%eax
    11a3:	8b 55 10             	mov    0x10(%ebp),%edx
    11a6:	01 d0                	add    %edx,%eax
    11a8:	8b 5d 0c             	mov    0xc(%ebp),%ebx
    11ab:	89 45 e4             	mov    %eax,-0x1c(%ebp)
    11ae:	66 90                	xchg   %ax,%ax
    11b0:	31 d2                	xor    %edx,%edx
    11b2:	50                   	push   %eax
    11b3:	50                   	push   %eax
    11b4:	8b 45 e4             	mov    -0x1c(%ebp),%eax
    11b7:	f7 77 7c             	divl   0x7c(%edi)
    11ba:	8b 47 78             	mov    0x78(%edi),%eax
    11bd:	0f af d0             	imul   %eax,%edx
    11c0:	8d 04 1e             	lea    (%esi,%ebx,1),%eax
    11c3:	89 d1                	mov    %edx,%ecx
    11c5:	31 d2                	xor    %edx,%edx
    11c7:	f7 77 78             	divl   0x78(%edi)
    11ca:	01 d1                	add    %edx,%ecx
    11cc:	8b 87 80 00 00 00    	mov    0x80(%edi),%eax
    11d2:	8b 15 4c 05 01 00    	mov    0x1054c,%edx
    11d8:	8b 04 88             	mov    (%eax,%ecx,4),%eax
    11db:	8b 0d 68 05 01 00    	mov    0x10568,%ecx
    11e1:	50                   	push   %eax
    11e2:	8b 45 10             	mov    0x10(%ebp),%eax
    11e5:	0f af c2             	imul   %edx,%eax
    11e8:	8b 15 60 05 01 00    	mov    0x10560,%edx
    11ee:	0f af d3             	imul   %ebx,%edx
    11f1:	01 d0                	add    %edx,%eax
    11f3:	43                   	inc    %ebx
    11f4:	01 c8                	add    %ecx,%eax
    11f6:	50                   	push   %eax
    11f7:	ff 15 54 05 01 00    	call   *0x10554
    11fd:	83 c4 10             	add    $0x10,%esp
    1200:	3b 5d e0             	cmp    -0x20(%ebp),%ebx
    1203:	75 ab                	jne    11b0 <kfb_handle_damage_pixels+0x50>
    1205:	8b 4d 10             	mov    0x10(%ebp),%ecx
    1208:	8b 45 dc             	mov    -0x24(%ebp),%eax
    120b:	41                   	inc    %ecx
    120c:	89 4d 10             	mov    %ecx,0x10(%ebp)
    120f:	39 45 10             	cmp    %eax,0x10(%ebp)
    1212:	75 8c                	jne    11a0 <kfb_handle_damage_pixels+0x40>
    1214:	8d 65 f4             	lea    -0xc(%ebp),%esp
    1217:	31 c0                	xor    %eax,%eax
    1219:	5b                   	pop    %ebx
    121a:	5e                   	pop    %esi
    121b:	5f                   	pop    %edi
    121c:	5d                   	pop    %ebp
    121d:	c3                   	ret    
    121e:	8b 4d 18             	mov    0x18(%ebp),%ecx
    1221:	01 c8                	add    %ecx,%eax
    1223:	89 45 e0             	mov    %eax,-0x20(%ebp)
    1226:	39 45 10             	cmp    %eax,0x10(%ebp)
    1229:	73 e9                	jae    1214 <kfb_handle_damage_pixels+0xb4>
    122b:	8b 45 0c             	mov    0xc(%ebp),%eax
    122e:	8b 55 14             	mov    0x14(%ebp),%edx
    1231:	01 d0                	add    %edx,%eax
    1233:	89 7d 08             	mov    %edi,0x8(%ebp)
    1236:	89 45 e4             	mov    %eax,-0x1c(%ebp)
    1239:	8b 45 0c             	mov    0xc(%ebp),%eax
    123c:	f7 d8                	neg    %eax
    123e:	c1 e0 02             	shl    $0x2,%eax
    1241:	8b 5d 10             	mov    0x10(%ebp),%ebx
    1244:	89 45 dc             	mov    %eax,-0x24(%ebp)
    1247:	90                   	nop
    1248:	8b 45 08             	mov    0x8(%ebp),%eax
    124b:	31 f6                	xor    %esi,%esi
    124d:	8b 40 78             	mov    0x78(%eax),%eax
    1250:	39 45 0c             	cmp    %eax,0xc(%ebp)
    1253:	73 19                	jae    126e <kfb_handle_damage_pixels+0x10e>
    1255:	8b 7d 08             	mov    0x8(%ebp),%edi
    1258:	39 5f 7c             	cmp    %ebx,0x7c(%edi)
    125b:	76 11                	jbe    126e <kfb_handle_damage_pixels+0x10e>
    125d:	0f af c3             	imul   %ebx,%eax
    1260:	8b 75 0c             	mov    0xc(%ebp),%esi
    1263:	8b 97 80 00 00 00    	mov    0x80(%edi),%edx
    1269:	01 f0                	add    %esi,%eax
    126b:	8d 34 82             	lea    (%edx,%eax,4),%esi
    126e:	8b 4d dc             	mov    -0x24(%ebp),%ecx
    1271:	8b 7d 0c             	mov    0xc(%ebp),%edi
    1274:	8b 45 e4             	mov    -0x1c(%ebp),%eax
    1277:	01 ce                	add    %ecx,%esi
    1279:	39 c7                	cmp    %eax,%edi
    127b:	73 34                	jae    12b1 <kfb_handle_damage_pixels+0x151>
    127d:	8d 76 00             	lea    0x0(%esi),%esi
    1280:	50                   	push   %eax
    1281:	50                   	push   %eax
    1282:	8b 04 be             	mov    (%esi,%edi,4),%eax
    1285:	8b 0d 60 05 01 00    	mov    0x10560,%ecx
    128b:	50                   	push   %eax
    128c:	a1 4c 05 01 00       	mov    0x1054c,%eax
    1291:	0f af cf             	imul   %edi,%ecx
    1294:	0f af c3             	imul   %ebx,%eax
    1297:	8b 15 68 05 01 00    	mov    0x10568,%edx
    129d:	01 c8                	add    %ecx,%eax
    129f:	01 d0                	add    %edx,%eax
    12a1:	47                   	inc    %edi
    12a2:	50                   	push   %eax
    12a3:	ff 15 54 05 01 00    	call   *0x10554
    12a9:	83 c4 10             	add    $0x10,%esp
    12ac:	3b 7d e4             	cmp    -0x1c(%ebp),%edi
    12af:	75 cf                	jne    1280 <kfb_handle_damage_pixels+0x120>
    12b1:	43                   	inc    %ebx
    12b2:	3b 5d e0             	cmp    -0x20(%ebp),%ebx
    12b5:	75 91                	jne    1248 <kfb_handle_damage_pixels+0xe8>
    12b7:	8d 65 f4             	lea    -0xc(%ebp),%esp
    12ba:	31 c0                	xor    %eax,%eax
    12bc:	5b                   	pop    %ebx
    12bd:	5e                   	pop    %esi
    12be:	5f                   	pop    %edi
    12bf:	5d                   	pop    %ebp
    12c0:	c3                   	ret    
    12c1:	eb 0d                	jmp    12d0 <kfb_change_mode>
    12c3:	90                   	nop
    12c4:	90                   	nop
    12c5:	90                   	nop
    12c6:	90                   	nop
    12c7:	90                   	nop
    12c8:	90                   	nop
    12c9:	90                   	nop
    12ca:	90                   	nop
    12cb:	90                   	nop
    12cc:	90                   	nop
    12cd:	90                   	nop
    12ce:	90                   	nop
    12cf:	90                   	nop

000012d0 <kfb_change_mode>:
    12d0:	55                   	push   %ebp
    12d1:	89 e5                	mov    %esp,%ebp
    12d3:	8b 45 08             	mov    0x8(%ebp),%eax
    12d6:	c7 40 6c 60 11 00 00 	movl   $0x1160,0x6c(%eax)
    12dd:	31 c0                	xor    %eax,%eax
    12df:	5d                   	pop    %ebp
    12e0:	c3                   	ret    
    12e1:	eb 0d                	jmp    12f0 <kfb_wakeup>
    12e3:	90                   	nop
    12e4:	90                   	nop
    12e5:	90                   	nop
    12e6:	90                   	nop
    12e7:	90                   	nop
    12e8:	90                   	nop
    12e9:	90                   	nop
    12ea:	90                   	nop
    12eb:	90                   	nop
    12ec:	90                   	nop
    12ed:	90                   	nop
    12ee:	90                   	nop
    12ef:	90                   	nop

000012f0 <kfb_wakeup>:
    12f0:	55                   	push   %ebp
    12f1:	31 c0                	xor    %eax,%eax
    12f3:	89 e5                	mov    %esp,%ebp
    12f5:	5d                   	pop    %ebp
    12f6:	c3                   	ret    
    12f7:	89 f6                	mov    %esi,%esi
    12f9:	8d bc 27 00 00 00 00 	lea    0x0(%edi,%eiz,1),%edi

00001300 <graph_vsl_connection>:
    1300:	55                   	push   %ebp
    1301:	89 e5                	mov    %esp,%ebp
    1303:	83 ec 14             	sub    $0x14,%esp
    1306:	8b 45 10             	mov    0x10(%ebp),%eax
    1309:	50                   	push   %eax
    130a:	e8 41 11 00 00       	call   2450 <ddf_fun_data_get>
    130f:	8b 55 0c             	mov    0xc(%ebp),%edx
    1312:	8b 4d 08             	mov    0x8(%ebp),%ecx
    1315:	6a 00                	push   $0x0
    1317:	52                   	push   %edx
    1318:	51                   	push   %ecx
    1319:	50                   	push   %eax
    131a:	e8 b1 9c 00 00       	call   afd0 <graph_visualizer_connection>
    131f:	83 c4 20             	add    $0x20,%esp
    1322:	c9                   	leave  
    1323:	c3                   	ret    
    1324:	8d b6 00 00 00 00    	lea    0x0(%esi),%esi
    132a:	8d bf 00 00 00 00    	lea    0x0(%edi),%edi

00001330 <kfb_claim>:
    1330:	55                   	push   %ebp
    1331:	31 c0                	xor    %eax,%eax
    1333:	89 e5                	mov    %esp,%ebp
    1335:	5d                   	pop    %ebp
    1336:	c3                   	ret    
    1337:	89 f6                	mov    %esi,%esi
    1339:	8d bc 27 00 00 00 00 	lea    0x0(%edi,%eiz,1),%edi

00001340 <kfb_suspend>:
    1340:	55                   	push   %ebp
    1341:	31 c0                	xor    %eax,%eax
    1343:	89 e5                	mov    %esp,%ebp
    1345:	5d                   	pop    %ebp
    1346:	c3                   	ret    
    1347:	89 f6                	mov    %esi,%esi
    1349:	8d bc 27 00 00 00 00 	lea    0x0(%edi,%eiz,1),%edi

00001350 <port_init>:
    1350:	55                   	push   %ebp
    1351:	89 e5                	mov    %esp,%ebp
    1353:	57                   	push   %edi
    1354:	56                   	push   %esi
    1355:	53                   	push   %ebx
    1356:	83 ec 44             	sub    $0x44,%esp
    1359:	8d 45 c8             	lea    -0x38(%ebp),%eax
    135c:	83 ce ff             	or     $0xffffffff,%esi
    135f:	50                   	push   %eax
    1360:	68 71 c0 00 00       	push   $0xc071
    1365:	e8 b6 cb 00 00       	call   df20 <sysinfo_get_value@plt>
    136a:	83 c4 10             	add    $0x10,%esp
    136d:	85 c0                	test   %eax,%eax
    136f:	75 79                	jne    13ea <port_init+0x9a>
    1371:	8b 55 c8             	mov    -0x38(%ebp),%edx
    1374:	85 d2                	test   %edx,%edx
    1376:	74 72                	je     13ea <port_init+0x9a>
    1378:	50                   	push   %eax
    1379:	50                   	push   %eax
    137a:	8d 45 cc             	lea    -0x34(%ebp),%eax
    137d:	be f2 ff ff ff       	mov    $0xfffffff2,%esi
    1382:	50                   	push   %eax
    1383:	68 c0 bf 00 00       	push   $0xbfc0
    1388:	e8 93 cb 00 00       	call   df20 <sysinfo_get_value@plt>
    138d:	83 c4 10             	add    $0x10,%esp
    1390:	85 c0                	test   %eax,%eax
    1392:	75 56                	jne    13ea <port_init+0x9a>
    1394:	83 7d cc 01          	cmpl   $0x1,-0x34(%ebp)
    1398:	75 50                	jne    13ea <port_init+0x9a>
    139a:	50                   	push   %eax
    139b:	50                   	push   %eax
    139c:	8d 45 d0             	lea    -0x30(%ebp),%eax
    139f:	50                   	push   %eax
    13a0:	68 c8 bf 00 00       	push   $0xbfc8
    13a5:	e8 76 cb 00 00       	call   df20 <sysinfo_get_value@plt>
    13aa:	83 c4 10             	add    $0x10,%esp
    13ad:	89 c6                	mov    %eax,%esi
    13af:	85 c0                	test   %eax,%eax
    13b1:	75 37                	jne    13ea <port_init+0x9a>
    13b3:	50                   	push   %eax
    13b4:	50                   	push   %eax
    13b5:	8d 45 d4             	lea    -0x2c(%ebp),%eax
    13b8:	50                   	push   %eax
    13b9:	68 dc bf 00 00       	push   $0xbfdc
    13be:	e8 5d cb 00 00       	call   df20 <sysinfo_get_value@plt>
    13c3:	83 c4 10             	add    $0x10,%esp
    13c6:	85 c0                	test   %eax,%eax
    13c8:	74 07                	je     13d1 <port_init+0x81>
    13ca:	c7 45 d4 00 00 00 00 	movl   $0x0,-0x2c(%ebp)
    13d1:	50                   	push   %eax
    13d2:	50                   	push   %eax
    13d3:	8d 45 d8             	lea    -0x28(%ebp),%eax
    13d6:	50                   	push   %eax
    13d7:	68 e6 bf 00 00       	push   $0xbfe6
    13dc:	e8 3f cb 00 00       	call   df20 <sysinfo_get_value@plt>
    13e1:	83 c4 10             	add    $0x10,%esp
    13e4:	89 c6                	mov    %eax,%esi
    13e6:	85 c0                	test   %eax,%eax
    13e8:	74 0e                	je     13f8 <port_init+0xa8>
    13ea:	8d 65 f4             	lea    -0xc(%ebp),%esp
    13ed:	89 f0                	mov    %esi,%eax
    13ef:	5b                   	pop    %ebx
    13f0:	5e                   	pop    %esi
    13f1:	5f                   	pop    %edi
    13f2:	5d                   	pop    %ebp
    13f3:	c3                   	ret    
    13f4:	8d 74 26 00          	lea    0x0(%esi,%eiz,1),%esi
    13f8:	50                   	push   %eax
    13f9:	50                   	push   %eax
    13fa:	8d 45 dc             	lea    -0x24(%ebp),%eax
    13fd:	50                   	push   %eax
    13fe:	68 ef bf 00 00       	push   $0xbfef
    1403:	e8 18 cb 00 00       	call   df20 <sysinfo_get_value@plt>
    1408:	83 c4 10             	add    $0x10,%esp
    140b:	89 c6                	mov    %eax,%esi
    140d:	85 c0                	test   %eax,%eax
    140f:	75 d9                	jne    13ea <port_init+0x9a>
    1411:	50                   	push   %eax
    1412:	50                   	push   %eax
    1413:	8d 45 e0             	lea    -0x20(%ebp),%eax
    1416:	50                   	push   %eax
    1417:	68 f9 bf 00 00       	push   $0xbff9
    141c:	e8 ff ca 00 00       	call   df20 <sysinfo_get_value@plt>
    1421:	83 c4 10             	add    $0x10,%esp
    1424:	89 c6                	mov    %eax,%esi
    1426:	85 c0                	test   %eax,%eax
    1428:	75 c0                	jne    13ea <port_init+0x9a>
    142a:	8d 45 e4             	lea    -0x1c(%ebp),%eax
    142d:	57                   	push   %edi
    142e:	57                   	push   %edi
    142f:	50                   	push   %eax
    1430:	68 05 c0 00 00       	push   $0xc005
    1435:	e8 e6 ca 00 00       	call   df20 <sysinfo_get_value@plt>
    143a:	83 c4 10             	add    $0x10,%esp
    143d:	89 c6                	mov    %eax,%esi
    143f:	85 c0                	test   %eax,%eax
    1441:	75 a7                	jne    13ea <port_init+0x9a>
    1443:	8b 45 d8             	mov    -0x28(%ebp),%eax
    1446:	8b 4d e4             	mov    -0x1c(%ebp),%ecx
    1449:	a3 40 05 01 00       	mov    %eax,0x10540
    144e:	8b 55 d4             	mov    -0x2c(%ebp),%edx
    1451:	8b 45 dc             	mov    -0x24(%ebp),%eax
    1454:	8b 5d e0             	mov    -0x20(%ebp),%ebx
    1457:	a3 44 05 01 00       	mov    %eax,0x10544
    145c:	89 15 48 05 01 00    	mov    %edx,0x10548
    1462:	89 1d 4c 05 01 00    	mov    %ebx,0x1054c
    1468:	89 0d 50 05 01 00    	mov    %ecx,0x10550
    146e:	83 f9 0d             	cmp    $0xd,%ecx
    1471:	0f 87 7a 03 00 00    	ja     17f1 <port_init+0x4a1>
    1477:	ff 24 8d 20 c0 00 00 	jmp    *0xc020(,%ecx,4)
    147e:	c7 05 54 05 01 00 40 	movl   $0xb840,0x10554
    1485:	b8 00 00 
    1488:	c7 05 58 05 01 00 b0 	movl   $0xbdb0,0x10558
    148f:	bd 00 00 
    1492:	c7 05 5c 05 01 00 50 	movl   $0xbb50,0x1055c
    1499:	bb 00 00 
    149c:	c7 05 60 05 01 00 04 	movl   $0x4,0x10560
    14a3:	00 00 00 
    14a6:	0f af c3             	imul   %ebx,%eax
    14a9:	8b 75 d0             	mov    -0x30(%ebp),%esi
    14ac:	a3 64 05 01 00       	mov    %eax,0x10564
    14b1:	05 ff 0f 00 00       	add    $0xfff,%eax
    14b6:	01 f2                	add    %esi,%edx
    14b8:	c1 f8 0c             	sar    $0xc,%eax
    14bb:	68 68 05 01 00       	push   $0x10568
    14c0:	c7 05 68 05 01 00 ff 	movl   $0xffffffff,0x10568
    14c7:	ff ff ff 
    14ca:	6a 03                	push   $0x3
    14cc:	50                   	push   %eax
    14cd:	52                   	push   %edx
    14ce:	e8 8d ca 00 00       	call   df60 <physmem_map@plt>
    14d3:	83 c4 10             	add    $0x10,%esp
    14d6:	89 c6                	mov    %eax,%esi
    14d8:	85 c0                	test   %eax,%eax
    14da:	0f 85 0a ff ff ff    	jne    13ea <port_init+0x9a>
    14e0:	8b 5d 08             	mov    0x8(%ebp),%ebx
    14e3:	51                   	push   %ecx
    14e4:	68 0f c0 00 00       	push   $0xc00f
    14e9:	6a 02                	push   $0x2
    14eb:	53                   	push   %ebx
    14ec:	e8 ef 0d 00 00       	call   22e0 <ddf_fun_create>
    14f1:	83 c4 10             	add    $0x10,%esp
    14f4:	89 45 c4             	mov    %eax,-0x3c(%ebp)
    14f7:	85 c0                	test   %eax,%eax
    14f9:	0f 84 20 03 00 00    	je     181f <port_init+0x4cf>
    14ff:	89 c7                	mov    %eax,%edi
    1501:	50                   	push   %eax
    1502:	50                   	push   %eax
    1503:	68 00 13 00 00       	push   $0x1300
    1508:	57                   	push   %edi
    1509:	e8 b2 13 00 00       	call   28c0 <ddf_fun_set_conn_handler>
    150e:	58                   	pop    %eax
    150f:	5a                   	pop    %edx
    1510:	68 88 00 00 00       	push   $0x88
    1515:	57                   	push   %edi
    1516:	e8 d5 0e 00 00       	call   23f0 <ddf_fun_data_alloc>
    151b:	83 c4 10             	add    $0x10,%esp
    151e:	89 c3                	mov    %eax,%ebx
    1520:	85 c0                	test   %eax,%eax
    1522:	0f 84 f7 02 00 00    	je     181f <port_init+0x4cf>
    1528:	83 ec 0c             	sub    $0xc,%esp
    152b:	8d 7b 60             	lea    0x60(%ebx),%edi
    152e:	be 58 c0 00 00       	mov    $0xc058,%esi
    1533:	50                   	push   %eax
    1534:	e8 b7 94 00 00       	call   a9f0 <graph_init_visualizer>
    1539:	8b 45 dc             	mov    -0x24(%ebp),%eax
    153c:	8b 55 d8             	mov    -0x28(%ebp),%edx
    153f:	a3 18 05 01 00       	mov    %eax,0x10518
    1544:	a3 20 05 01 00       	mov    %eax,0x10520
    1549:	8b 45 e4             	mov    -0x1c(%ebp),%eax
    154c:	b9 06 00 00 00       	mov    $0x6,%ecx
    1551:	a3 2c 05 01 00       	mov    %eax,0x1052c
    1556:	8d 43 28             	lea    0x28(%ebx),%eax
    1559:	a3 04 05 01 00       	mov    %eax,0x10504
    155e:	8b 43 28             	mov    0x28(%ebx),%eax
    1561:	c7 05 28 05 01 00 01 	movl   $0x1,0x10528
    1568:	00 00 00 
    156b:	c7 05 08 05 01 00 00 	movl   $0x0,0x10508
    1572:	00 00 00 
    1575:	c7 05 0c 05 01 00 00 	movl   $0x0,0x1050c
    157c:	00 00 00 
    157f:	c7 05 10 05 01 00 00 	movl   $0x0,0x10510
    1586:	00 00 00 
    1589:	89 15 14 05 01 00    	mov    %edx,0x10514
    158f:	89 15 1c 05 01 00    	mov    %edx,0x1051c
    1595:	c7 05 24 05 01 00 01 	movl   $0x1,0x10524
    159c:	00 00 00 
    159f:	c7 40 04 00 05 01 00 	movl   $0x10500,0x4(%eax)
    15a6:	c7 43 28 00 05 01 00 	movl   $0x10500,0x28(%ebx)
    15ad:	c7 43 30 00 00 00 00 	movl   $0x0,0x30(%ebx)
    15b4:	f3 a5                	rep movsl %ds:(%esi),%es:(%edi)
    15b6:	c7 83 84 00 00 00 00 	movl   $0x0,0x84(%ebx)
    15bd:	00 00 00 
    15c0:	a3 00 05 01 00       	mov    %eax,0x10500
    15c5:	58                   	pop    %eax
    15c6:	8b 45 c4             	mov    -0x3c(%ebp),%eax
    15c9:	50                   	push   %eax
    15ca:	e8 d1 0f 00 00       	call   25a0 <ddf_fun_bind>
    15cf:	83 c4 10             	add    $0x10,%esp
    15d2:	89 c6                	mov    %eax,%esi
    15d4:	85 c0                	test   %eax,%eax
    15d6:	0f 84 1f 02 00 00    	je     17fb <port_init+0x4ab>
    15dc:	8b 15 00 05 01 00    	mov    0x10500,%edx
    15e2:	85 d2                	test   %edx,%edx
    15e4:	74 14                	je     15fa <port_init+0x2aa>
    15e6:	a1 04 05 01 00       	mov    0x10504,%eax
    15eb:	85 c0                	test   %eax,%eax
    15ed:	74 0b                	je     15fa <port_init+0x2aa>
    15ef:	89 10                	mov    %edx,(%eax)
    15f1:	8b 15 00 05 01 00    	mov    0x10500,%edx
    15f7:	89 42 04             	mov    %eax,0x4(%edx)
    15fa:	83 ec 0c             	sub    $0xc,%esp
    15fd:	8b 4d c4             	mov    -0x3c(%ebp),%ecx
    1600:	c7 05 00 05 01 00 00 	movl   $0x0,0x10500
    1607:	00 00 00 
    160a:	c7 05 04 05 01 00 00 	movl   $0x0,0x10504
    1611:	00 00 00 
    1614:	51                   	push   %ecx
    1615:	e8 56 0e 00 00       	call   2470 <ddf_fun_destroy>
    161a:	8b 3d 68 05 01 00    	mov    0x10568,%edi
    1620:	5b                   	pop    %ebx
    1621:	57                   	push   %edi
    1622:	e8 79 ca 00 00       	call   e0a0 <as_area_destroy@plt>
    1627:	83 c4 10             	add    $0x10,%esp
    162a:	e9 bb fd ff ff       	jmp    13ea <port_init+0x9a>
    162f:	c7 05 54 05 01 00 c0 	movl   $0xb7c0,0x10554
    1636:	b7 00 00 
    1639:	c7 05 58 05 01 00 40 	movl   $0xbd40,0x10558
    1640:	bd 00 00 
    1643:	c7 05 5c 05 01 00 10 	movl   $0xbb10,0x1055c
    164a:	bb 00 00 
    164d:	c7 05 60 05 01 00 04 	movl   $0x4,0x10560
    1654:	00 00 00 
    1657:	e9 4a fe ff ff       	jmp    14a6 <port_init+0x156>
    165c:	c7 05 54 05 01 00 e0 	movl   $0xb8e0,0x10554
    1663:	b8 00 00 
    1666:	c7 05 58 05 01 00 00 	movl   $0xbe00,0x10558
    166d:	be 00 00 
    1670:	c7 05 5c 05 01 00 a0 	movl   $0xbba0,0x1055c
    1677:	bb 00 00 
    167a:	c7 05 60 05 01 00 03 	movl   $0x3,0x10560
    1681:	00 00 00 
    1684:	e9 1d fe ff ff       	jmp    14a6 <port_init+0x156>
    1689:	c7 05 54 05 01 00 90 	movl   $0xb890,0x10554
    1690:	b8 00 00 
    1693:	c7 05 58 05 01 00 d0 	movl   $0xbdd0,0x10558
    169a:	bd 00 00 
    169d:	c7 05 5c 05 01 00 50 	movl   $0xbb50,0x1055c
    16a4:	bb 00 00 
    16a7:	c7 05 60 05 01 00 04 	movl   $0x4,0x10560
    16ae:	00 00 00 
    16b1:	e9 f0 fd ff ff       	jmp    14a6 <port_init+0x156>
    16b6:	c7 05 54 05 01 00 f0 	movl   $0xb7f0,0x10554
    16bd:	b7 00 00 
    16c0:	c7 05 58 05 01 00 70 	movl   $0xbd70,0x10558
    16c7:	bd 00 00 
    16ca:	c7 05 5c 05 01 00 10 	movl   $0xbb10,0x1055c
    16d1:	bb 00 00 
    16d4:	c7 05 60 05 01 00 04 	movl   $0x4,0x10560
    16db:	00 00 00 
    16de:	e9 c3 fd ff ff       	jmp    14a6 <port_init+0x156>
    16e3:	c7 05 54 05 01 00 00 	movl   $0xb900,0x10554
    16ea:	b9 00 00 
    16ed:	c7 05 58 05 01 00 30 	movl   $0xbe30,0x10558
    16f4:	be 00 00 
    16f7:	c7 05 5c 05 01 00 a0 	movl   $0xbba0,0x1055c
    16fe:	bb 00 00 
    1701:	c7 05 60 05 01 00 03 	movl   $0x3,0x10560
    1708:	00 00 00 
    170b:	e9 96 fd ff ff       	jmp    14a6 <port_init+0x156>
    1710:	c7 05 54 05 01 00 a0 	movl   $0xb9a0,0x10554
    1717:	b9 00 00 
    171a:	c7 05 58 05 01 00 e0 	movl   $0xbee0,0x10558
    1721:	be 00 00 
    1724:	c7 05 5c 05 01 00 f0 	movl   $0xbbf0,0x1055c
    172b:	bb 00 00 
    172e:	c7 05 60 05 01 00 02 	movl   $0x2,0x10560
    1735:	00 00 00 
    1738:	e9 69 fd ff ff       	jmp    14a6 <port_init+0x156>
    173d:	c7 05 54 05 01 00 e0 	movl   $0xb9e0,0x10554
    1744:	b9 00 00 
    1747:	c7 05 58 05 01 00 20 	movl   $0xbf20,0x10558
    174e:	bf 00 00 
    1751:	c7 05 5c 05 01 00 f0 	movl   $0xbbf0,0x1055c
    1758:	bb 00 00 
    175b:	c7 05 60 05 01 00 02 	movl   $0x2,0x10560
    1762:	00 00 00 
    1765:	e9 3c fd ff ff       	jmp    14a6 <port_init+0x156>
    176a:	c7 05 54 05 01 00 20 	movl   $0xb920,0x10554
    1771:	b9 00 00 
    1774:	c7 05 58 05 01 00 60 	movl   $0xbe60,0x10558
    177b:	be 00 00 
    177e:	c7 05 5c 05 01 00 c0 	movl   $0xbbc0,0x1055c
    1785:	bb 00 00 
    1788:	c7 05 60 05 01 00 02 	movl   $0x2,0x10560
    178f:	00 00 00 
    1792:	e9 0f fd ff ff       	jmp    14a6 <port_init+0x156>
    1797:	c7 05 54 05 01 00 60 	movl   $0xb960,0x10554
    179e:	b9 00 00 
    17a1:	c7 05 58 05 01 00 a0 	movl   $0xbea0,0x10558
    17a8:	be 00 00 
    17ab:	c7 05 5c 05 01 00 c0 	movl   $0xbbc0,0x1055c
    17b2:	bb 00 00 
    17b5:	c7 05 60 05 01 00 02 	movl   $0x2,0x10560
    17bc:	00 00 00 
    17bf:	e9 e2 fc ff ff       	jmp    14a6 <port_init+0x156>
    17c4:	c7 05 54 05 01 00 10 	movl   $0xba10,0x10554
    17cb:	ba 00 00 
    17ce:	c7 05 58 05 01 00 60 	movl   $0xbf60,0x10558
    17d5:	bf 00 00 
    17d8:	c7 05 5c 05 01 00 20 	movl   $0xbc20,0x1055c
    17df:	bc 00 00 
    17e2:	c7 05 60 05 01 00 01 	movl   $0x1,0x10560
    17e9:	00 00 00 
    17ec:	e9 b5 fc ff ff       	jmp    14a6 <port_init+0x156>
    17f1:	be f2 ff ff ff       	mov    $0xfffffff2,%esi
    17f6:	e9 ef fb ff ff       	jmp    13ea <port_init+0x9a>
    17fb:	83 ec 0c             	sub    $0xc,%esp
    17fe:	8b 7d c4             	mov    -0x3c(%ebp),%edi
    1801:	57                   	push   %edi
    1802:	e8 c9 0a 00 00       	call   22d0 <ddf_fun_get_handle>
    1807:	89 43 0c             	mov    %eax,0xc(%ebx)
    180a:	58                   	pop    %eax
    180b:	5a                   	pop    %edx
    180c:	68 14 c0 00 00       	push   $0xc014
    1811:	57                   	push   %edi
    1812:	e8 d9 10 00 00       	call   28f0 <ddf_fun_add_to_category>
    1817:	83 c4 10             	add    $0x10,%esp
    181a:	e9 cb fb ff ff       	jmp    13ea <port_init+0x9a>
    181f:	83 ec 0c             	sub    $0xc,%esp
    1822:	be fe ff ff ff       	mov    $0xfffffffe,%esi
    1827:	ff 35 68 05 01 00    	pushl  0x10568
    182d:	e8 6e c8 00 00       	call   e0a0 <as_area_destroy@plt>
    1832:	83 c4 10             	add    $0x10,%esp
    1835:	e9 b0 fb ff ff       	jmp    13ea <port_init+0x9a>
    183a:	66 90                	xchg   %ax,%ax
    183c:	66 90                	xchg   %ax,%ax
    183e:	66 90                	xchg   %ax,%ax

00001840 <kgraph_dev_add>:
    1840:	55                   	push   %ebp
    1841:	89 e5                	mov    %esp,%ebp
    1843:	83 ec 14             	sub    $0x14,%esp
    1846:	8b 45 08             	mov    0x8(%ebp),%eax
    1849:	50                   	push   %eax
    184a:	e8 01 fb ff ff       	call   1350 <port_init>
    184f:	5a                   	pop    %edx
    1850:	59                   	pop    %ecx
    1851:	68 70 c0 00 00       	push   $0xc070
    1856:	68 74 c0 00 00       	push   $0xc074
    185b:	e8 20 c7 00 00       	call   df80 <printf@plt>
    1860:	31 c0                	xor    %eax,%eax
    1862:	c9                   	leave  
    1863:	c3                   	ret    
    1864:	66 90                	xchg   %ax,%ax
    1866:	66 90                	xchg   %ax,%ax
    1868:	66 90                	xchg   %ax,%ax
    186a:	66 90                	xchg   %ax,%ax
    186c:	66 90                	xchg   %ax,%ax
    186e:	66 90                	xchg   %ax,%ax

00001870 <main>:
    1870:	8d 4c 24 04          	lea    0x4(%esp),%ecx
    1874:	83 e4 f0             	and    $0xfffffff0,%esp
    1877:	ff 71 fc             	pushl  -0x4(%ecx)
    187a:	55                   	push   %ebp
    187b:	89 e5                	mov    %esp,%ebp
    187d:	51                   	push   %ecx
    187e:	83 ec 0c             	sub    $0xc,%esp
    1881:	68 70 c0 00 00       	push   $0xc070
    1886:	68 90 c0 00 00       	push   $0xc090
    188b:	e8 f0 c6 00 00       	call   df80 <printf@plt>
    1890:	c7 04 24 00 03 01 00 	movl   $0x10300,(%esp)
    1897:	e8 a4 10 00 00       	call   2940 <ddf_driver_main>
    189c:	8b 4d fc             	mov    -0x4(%ebp),%ecx
    189f:	c9                   	leave  
    18a0:	8d 61 fc             	lea    -0x4(%ecx),%esp
    18a3:	c3                   	ret    
    18a4:	66 90                	xchg   %ax,%ax
    18a6:	66 90                	xchg   %ax,%ax
    18a8:	66 90                	xchg   %ax,%ax
    18aa:	66 90                	xchg   %ax,%ax
    18ac:	66 90                	xchg   %ax,%ax
    18ae:	66 90                	xchg   %ax,%ax

000018b0 <fun_del_ref>:
    18b0:	55                   	push   %ebp
    18b1:	83 ca ff             	or     $0xffffffff,%edx
    18b4:	89 e5                	mov    %esp,%ebp
    18b6:	57                   	push   %edi
    18b7:	56                   	push   %esi
    18b8:	53                   	push   %ebx
    18b9:	83 ec 1c             	sub    $0x1c,%esp
    18bc:	8b 70 0c             	mov    0xc(%eax),%esi
    18bf:	f0 0f c1 50 08       	lock xadd %edx,0x8(%eax)
    18c4:	4a                   	dec    %edx
    18c5:	74 69                	je     1930 <fun_del_ref+0x80>
    18c7:	83 c8 ff             	or     $0xffffffff,%eax
    18ca:	f0 0f c1 46 04       	lock xadd %eax,0x4(%esi)
    18cf:	48                   	dec    %eax
    18d0:	74 0e                	je     18e0 <fun_del_ref+0x30>
    18d2:	8d 65 f4             	lea    -0xc(%ebp),%esp
    18d5:	5b                   	pop    %ebx
    18d6:	5e                   	pop    %esi
    18d7:	5f                   	pop    %edi
    18d8:	5d                   	pop    %ebp
    18d9:	c3                   	ret    
    18da:	8d b6 00 00 00 00    	lea    0x0(%esi),%esi
    18e0:	8b 46 08             	mov    0x8(%esi),%eax
    18e3:	85 c0                	test   %eax,%eax
    18e5:	74 0c                	je     18f3 <fun_del_ref+0x43>
    18e7:	83 ec 0c             	sub    $0xc,%esp
    18ea:	50                   	push   %eax
    18eb:	e8 a0 c6 00 00       	call   df90 <async_hangup@plt>
    18f0:	83 c4 10             	add    $0x10,%esp
    18f3:	8b 46 10             	mov    0x10(%esi),%eax
    18f6:	85 c0                	test   %eax,%eax
    18f8:	74 0c                	je     1906 <fun_del_ref+0x56>
    18fa:	83 ec 0c             	sub    $0xc,%esp
    18fd:	50                   	push   %eax
    18fe:	e8 fd ca 00 00       	call   e400 <free@plt>
    1903:	83 c4 10             	add    $0x10,%esp
    1906:	8b 46 0c             	mov    0xc(%esi),%eax
    1909:	85 c0                	test   %eax,%eax
    190b:	74 0c                	je     1919 <fun_del_ref+0x69>
    190d:	83 ec 0c             	sub    $0xc,%esp
    1910:	50                   	push   %eax
    1911:	e8 ea ca 00 00       	call   e400 <free@plt>
    1916:	83 c4 10             	add    $0x10,%esp
    1919:	83 ec 0c             	sub    $0xc,%esp
    191c:	56                   	push   %esi
    191d:	e8 de ca 00 00       	call   e400 <free@plt>
    1922:	83 c4 10             	add    $0x10,%esp
    1925:	8d 65 f4             	lea    -0xc(%ebp),%esp
    1928:	5b                   	pop    %ebx
    1929:	5e                   	pop    %esi
    192a:	5f                   	pop    %edi
    192b:	5d                   	pop    %ebp
    192c:	c3                   	ret    
    192d:	8d 76 00             	lea    0x0(%esi),%esi
    1930:	8b 58 1c             	mov    0x1c(%eax),%ebx
    1933:	89 c7                	mov    %eax,%edi
    1935:	8d 40 18             	lea    0x18(%eax),%eax
    1938:	89 45 e4             	mov    %eax,-0x1c(%ebp)
    193b:	39 d8                	cmp    %ebx,%eax
    193d:	74 49                	je     1988 <fun_del_ref+0xd8>
    193f:	90                   	nop
    1940:	8b 0b                	mov    (%ebx),%ecx
    1942:	85 c9                	test   %ecx,%ecx
    1944:	74 0e                	je     1954 <fun_del_ref+0xa4>
    1946:	8b 53 04             	mov    0x4(%ebx),%edx
    1949:	85 d2                	test   %edx,%edx
    194b:	74 07                	je     1954 <fun_del_ref+0xa4>
    194d:	89 0a                	mov    %ecx,(%edx)
    194f:	8b 0b                	mov    (%ebx),%ecx
    1951:	89 51 04             	mov    %edx,0x4(%ecx)
    1954:	8b 53 08             	mov    0x8(%ebx),%edx
    1957:	c7 03 00 00 00 00    	movl   $0x0,(%ebx)
    195d:	c7 43 04 00 00 00 00 	movl   $0x0,0x4(%ebx)
    1964:	85 d2                	test   %edx,%edx
    1966:	74 0c                	je     1974 <fun_del_ref+0xc4>
    1968:	83 ec 0c             	sub    $0xc,%esp
    196b:	52                   	push   %edx
    196c:	e8 8f ca 00 00       	call   e400 <free@plt>
    1971:	83 c4 10             	add    $0x10,%esp
    1974:	83 ec 0c             	sub    $0xc,%esp
    1977:	53                   	push   %ebx
    1978:	e8 83 ca 00 00       	call   e400 <free@plt>
    197d:	8b 5f 1c             	mov    0x1c(%edi),%ebx
    1980:	83 c4 10             	add    $0x10,%esp
    1983:	3b 5d e4             	cmp    -0x1c(%ebp),%ebx
    1986:	75 b8                	jne    1940 <fun_del_ref+0x90>
    1988:	8b 57 20             	mov    0x20(%edi),%edx
    198b:	85 d2                	test   %edx,%edx
    198d:	74 0c                	je     199b <fun_del_ref+0xeb>
    198f:	83 ec 0c             	sub    $0xc,%esp
    1992:	52                   	push   %edx
    1993:	e8 68 ca 00 00       	call   e400 <free@plt>
    1998:	83 c4 10             	add    $0x10,%esp
    199b:	8b 57 14             	mov    0x14(%edi),%edx
    199e:	85 d2                	test   %edx,%edx
    19a0:	74 0c                	je     19ae <fun_del_ref+0xfe>
    19a2:	83 ec 0c             	sub    $0xc,%esp
    19a5:	52                   	push   %edx
    19a6:	e8 55 ca 00 00       	call   e400 <free@plt>
    19ab:	83 c4 10             	add    $0x10,%esp
    19ae:	83 ec 0c             	sub    $0xc,%esp
    19b1:	57                   	push   %edi
    19b2:	e8 49 ca 00 00       	call   e400 <free@plt>
    19b7:	83 c4 10             	add    $0x10,%esp
    19ba:	e9 08 ff ff ff       	jmp    18c7 <fun_del_ref+0x17>
    19bf:	90                   	nop

000019c0 <driver_connection_gen.constprop.7>:
    19c0:	55                   	push   %ebp
    19c1:	89 e5                	mov    %esp,%ebp
    19c3:	57                   	push   %edi
    19c4:	56                   	push   %esi
    19c5:	53                   	push   %ebx
    19c6:	83 ec 58             	sub    $0x58,%esp
    19c9:	89 d3                	mov    %edx,%ebx
    19cb:	8b 72 08             	mov    0x8(%edx),%esi
    19ce:	89 45 b4             	mov    %eax,-0x4c(%ebp)
    19d1:	68 1c 03 01 00       	push   $0x1031c
    19d6:	e8 45 ca 00 00       	call   e420 <fibril_mutex_lock@plt>
    19db:	c7 04 24 1c 03 01 00 	movl   $0x1031c,(%esp)
    19e2:	e8 29 c6 00 00       	call   e010 <fibril_mutex_is_locked@plt>
    19e7:	83 c4 10             	add    $0x10,%esp
    19ea:	84 c0                	test   %al,%al
    19ec:	0f 84 71 02 00 00    	je     1c63 <driver_connection_gen.constprop.7+0x2a3>
    19f2:	a1 30 03 01 00       	mov    0x10330,%eax
    19f7:	3d 2c 03 01 00       	cmp    $0x1032c,%eax
    19fc:	8d 78 d4             	lea    -0x2c(%eax),%edi
    19ff:	75 18                	jne    1a19 <driver_connection_gen.constprop.7+0x59>
    1a01:	e9 22 02 00 00       	jmp    1c28 <driver_connection_gen.constprop.7+0x268>
    1a06:	66 90                	xchg   %ax,%ax
    1a08:	8b 40 04             	mov    0x4(%eax),%eax
    1a0b:	3d 2c 03 01 00       	cmp    $0x1032c,%eax
    1a10:	8d 78 d4             	lea    -0x2c(%eax),%edi
    1a13:	0f 84 0f 02 00 00    	je     1c28 <driver_connection_gen.constprop.7+0x268>
    1a19:	3b 77 04             	cmp    0x4(%edi),%esi
    1a1c:	75 ea                	jne    1a08 <driver_connection_gen.constprop.7+0x48>
    1a1e:	8b 47 0c             	mov    0xc(%edi),%eax
    1a21:	f0 ff 40 04          	lock incl 0x4(%eax)
    1a25:	f0 ff 47 08          	lock incl 0x8(%edi)
    1a29:	83 ec 0c             	sub    $0xc,%esp
    1a2c:	68 1c 03 01 00       	push   $0x1031c
    1a31:	e8 5a c7 00 00       	call   e190 <fibril_mutex_unlock@plt>
    1a36:	8b 47 28             	mov    0x28(%edi),%eax
    1a39:	83 c4 10             	add    $0x10,%esp
    1a3c:	85 c0                	test   %eax,%eax
    1a3e:	74 20                	je     1a60 <driver_connection_gen.constprop.7+0xa0>
    1a40:	8b 55 b4             	mov    -0x4c(%ebp),%edx
    1a43:	56                   	push   %esi
    1a44:	57                   	push   %edi
    1a45:	53                   	push   %ebx
    1a46:	52                   	push   %edx
    1a47:	ff d0                	call   *%eax
    1a49:	89 f8                	mov    %edi,%eax
    1a4b:	e8 60 fe ff ff       	call   18b0 <fun_del_ref>
    1a50:	83 c4 10             	add    $0x10,%esp
    1a53:	8d 65 f4             	lea    -0xc(%ebp),%esp
    1a56:	5b                   	pop    %ebx
    1a57:	5e                   	pop    %esi
    1a58:	5f                   	pop    %edi
    1a59:	5d                   	pop    %ebp
    1a5a:	c3                   	ret    
    1a5b:	90                   	nop
    1a5c:	8d 74 26 00          	lea    0x0(%esi,%eiz,1),%esi
    1a60:	8b 47 24             	mov    0x24(%edi),%eax
    1a63:	85 c0                	test   %eax,%eax
    1a65:	0f 84 a5 01 00 00    	je     1c10 <driver_connection_gen.constprop.7+0x250>
    1a6b:	8b 00                	mov    (%eax),%eax
    1a6d:	85 c0                	test   %eax,%eax
    1a6f:	0f 84 9b 01 00 00    	je     1c10 <driver_connection_gen.constprop.7+0x250>
    1a75:	83 ec 0c             	sub    $0xc,%esp
    1a78:	57                   	push   %edi
    1a79:	ff d0                	call   *%eax
    1a7b:	8b 4d b4             	mov    -0x4c(%ebp),%ecx
    1a7e:	89 c3                	mov    %eax,%ebx
    1a80:	58                   	pop    %eax
    1a81:	5a                   	pop    %edx
    1a82:	53                   	push   %ebx
    1a83:	51                   	push   %ecx
    1a84:	e8 27 c6 00 00       	call   e0b0 <async_answer_0@plt>
    1a89:	83 c4 10             	add    $0x10,%esp
    1a8c:	85 db                	test   %ebx,%ebx
    1a8e:	0f 85 70 01 00 00    	jne    1c04 <driver_connection_gen.constprop.7+0x244>
    1a94:	8d 74 26 00          	lea    0x0(%esi,%eiz,1),%esi
    1a98:	50                   	push   %eax
    1a99:	50                   	push   %eax
    1a9a:	8d 45 c4             	lea    -0x3c(%ebp),%eax
    1a9d:	6a 00                	push   $0x0
    1a9f:	50                   	push   %eax
    1aa0:	e8 2b c8 00 00       	call   e2d0 <async_get_call_timeout@plt>
    1aa5:	8b 5d c4             	mov    -0x3c(%ebp),%ebx
    1aa8:	83 c4 10             	add    $0x10,%esp
    1aab:	89 45 b4             	mov    %eax,-0x4c(%ebp)
    1aae:	85 db                	test   %ebx,%ebx
    1ab0:	0f 84 e2 00 00 00    	je     1b98 <driver_connection_gen.constprop.7+0x1d8>
    1ab6:	83 ec 0c             	sub    $0xc,%esp
    1ab9:	81 eb 00 04 00 00    	sub    $0x400,%ebx
    1abf:	53                   	push   %ebx
    1ac0:	e8 cb 0f 00 00       	call   2a90 <is_valid_iface_idx>
    1ac5:	83 c4 10             	add    $0x10,%esp
    1ac8:	84 c0                	test   %al,%al
    1aca:	75 2c                	jne    1af8 <driver_connection_gen.constprop.7+0x138>
    1acc:	8b 47 24             	mov    0x24(%edi),%eax
    1acf:	85 c0                	test   %eax,%eax
    1ad1:	0f 84 91 00 00 00    	je     1b68 <driver_connection_gen.constprop.7+0x1a8>
    1ad7:	8b 40 44             	mov    0x44(%eax),%eax
    1ada:	85 c0                	test   %eax,%eax
    1adc:	0f 84 86 00 00 00    	je     1b68 <driver_connection_gen.constprop.7+0x1a8>
    1ae2:	8d 4d c4             	lea    -0x3c(%ebp),%ecx
    1ae5:	52                   	push   %edx
    1ae6:	51                   	push   %ecx
    1ae7:	8b 4d b4             	mov    -0x4c(%ebp),%ecx
    1aea:	51                   	push   %ecx
    1aeb:	57                   	push   %edi
    1aec:	ff d0                	call   *%eax
    1aee:	83 c4 10             	add    $0x10,%esp
    1af1:	eb a5                	jmp    1a98 <driver_connection_gen.constprop.7+0xd8>
    1af3:	90                   	nop
    1af4:	8d 74 26 00          	lea    0x0(%esi,%eiz,1),%esi
    1af8:	83 ec 0c             	sub    $0xc,%esp
    1afb:	53                   	push   %ebx
    1afc:	e8 8f 0f 00 00       	call   2a90 <is_valid_iface_idx>
    1b01:	83 c4 10             	add    $0x10,%esp
    1b04:	84 c0                	test   %al,%al
    1b06:	0f 84 69 01 00 00    	je     1c75 <driver_connection_gen.constprop.7+0x2b5>
    1b0c:	8b 47 24             	mov    0x24(%edi),%eax
    1b0f:	85 c0                	test   %eax,%eax
    1b11:	0f 84 b9 00 00 00    	je     1bd0 <driver_connection_gen.constprop.7+0x210>
    1b17:	8b 44 98 08          	mov    0x8(%eax,%ebx,4),%eax
    1b1b:	89 45 b0             	mov    %eax,-0x50(%ebp)
    1b1e:	85 c0                	test   %eax,%eax
    1b20:	0f 84 aa 00 00 00    	je     1bd0 <driver_connection_gen.constprop.7+0x210>
    1b26:	83 ec 0c             	sub    $0xc,%esp
    1b29:	53                   	push   %ebx
    1b2a:	e8 11 0f 00 00       	call   2a40 <get_remote_iface>
    1b2f:	83 c4 10             	add    $0x10,%esp
    1b32:	85 c0                	test   %eax,%eax
    1b34:	0f 84 50 01 00 00    	je     1c8a <driver_connection_gen.constprop.7+0x2ca>
    1b3a:	8b 4d c8             	mov    -0x38(%ebp),%ecx
    1b3d:	52                   	push   %edx
    1b3e:	52                   	push   %edx
    1b3f:	51                   	push   %ecx
    1b40:	50                   	push   %eax
    1b41:	e8 2a 0f 00 00       	call   2a70 <get_remote_method>
    1b46:	83 c4 10             	add    $0x10,%esp
    1b49:	85 c0                	test   %eax,%eax
    1b4b:	0f 84 9f 00 00 00    	je     1bf0 <driver_connection_gen.constprop.7+0x230>
    1b51:	8d 55 c4             	lea    -0x3c(%ebp),%edx
    1b54:	8b 4d b0             	mov    -0x50(%ebp),%ecx
    1b57:	52                   	push   %edx
    1b58:	8b 55 b4             	mov    -0x4c(%ebp),%edx
    1b5b:	52                   	push   %edx
    1b5c:	51                   	push   %ecx
    1b5d:	57                   	push   %edi
    1b5e:	ff d0                	call   *%eax
    1b60:	83 c4 10             	add    $0x10,%esp
    1b63:	e9 30 ff ff ff       	jmp    1a98 <driver_connection_gen.constprop.7+0xd8>
    1b68:	50                   	push   %eax
    1b69:	a1 6c 05 01 00       	mov    0x1056c,%eax
    1b6e:	53                   	push   %ebx
    1b6f:	8b 00                	mov    (%eax),%eax
    1b71:	50                   	push   %eax
    1b72:	68 3c c2 00 00       	push   $0xc23c
    1b77:	e8 04 c4 00 00       	call   df80 <printf@plt>
    1b7c:	5b                   	pop    %ebx
    1b7d:	58                   	pop    %eax
    1b7e:	8b 45 b4             	mov    -0x4c(%ebp),%eax
    1b81:	6a f5                	push   $0xfffffff5
    1b83:	50                   	push   %eax
    1b84:	e8 27 c5 00 00       	call   e0b0 <async_answer_0@plt>
    1b89:	83 c4 10             	add    $0x10,%esp
    1b8c:	e9 07 ff ff ff       	jmp    1a98 <driver_connection_gen.constprop.7+0xd8>
    1b91:	8d b4 26 00 00 00 00 	lea    0x0(%esi,%eiz,1),%esi
    1b98:	8b 47 24             	mov    0x24(%edi),%eax
    1b9b:	85 c0                	test   %eax,%eax
    1b9d:	74 10                	je     1baf <driver_connection_gen.constprop.7+0x1ef>
    1b9f:	8b 40 04             	mov    0x4(%eax),%eax
    1ba2:	85 c0                	test   %eax,%eax
    1ba4:	74 09                	je     1baf <driver_connection_gen.constprop.7+0x1ef>
    1ba6:	83 ec 0c             	sub    $0xc,%esp
    1ba9:	57                   	push   %edi
    1baa:	ff d0                	call   *%eax
    1bac:	83 c4 10             	add    $0x10,%esp
    1baf:	8b 75 b4             	mov    -0x4c(%ebp),%esi
    1bb2:	53                   	push   %ebx
    1bb3:	53                   	push   %ebx
    1bb4:	6a 00                	push   $0x0
    1bb6:	56                   	push   %esi
    1bb7:	e8 f4 c4 00 00       	call   e0b0 <async_answer_0@plt>
    1bbc:	89 f8                	mov    %edi,%eax
    1bbe:	e8 ed fc ff ff       	call   18b0 <fun_del_ref>
    1bc3:	83 c4 10             	add    $0x10,%esp
    1bc6:	8d 65 f4             	lea    -0xc(%ebp),%esp
    1bc9:	5b                   	pop    %ebx
    1bca:	5e                   	pop    %esi
    1bcb:	5f                   	pop    %edi
    1bcc:	5d                   	pop    %ebp
    1bcd:	c3                   	ret    
    1bce:	66 90                	xchg   %ax,%ax
    1bd0:	50                   	push   %eax
    1bd1:	50                   	push   %eax
    1bd2:	a1 6c 05 01 00       	mov    0x1056c,%eax
    1bd7:	8b 00                	mov    (%eax),%eax
    1bd9:	50                   	push   %eax
    1bda:	68 78 c2 00 00       	push   $0xc278
    1bdf:	e8 9c c3 00 00       	call   df80 <printf@plt>
    1be4:	83 c4 0c             	add    $0xc,%esp
    1be7:	53                   	push   %ebx
    1be8:	56                   	push   %esi
    1be9:	68 9c c2 00 00       	push   $0xc29c
    1bee:	eb 87                	jmp    1b77 <driver_connection_gen.constprop.7+0x1b7>
    1bf0:	50                   	push   %eax
    1bf1:	50                   	push   %eax
    1bf2:	a1 6c 05 01 00       	mov    0x1056c,%eax
    1bf7:	8b 00                	mov    (%eax),%eax
    1bf9:	50                   	push   %eax
    1bfa:	68 d4 c2 00 00       	push   $0xc2d4
    1bff:	e9 73 ff ff ff       	jmp    1b77 <driver_connection_gen.constprop.7+0x1b7>
    1c04:	89 f8                	mov    %edi,%eax
    1c06:	e8 a5 fc ff ff       	call   18b0 <fun_del_ref>
    1c0b:	e9 43 fe ff ff       	jmp    1a53 <driver_connection_gen.constprop.7+0x93>
    1c10:	8b 55 b4             	mov    -0x4c(%ebp),%edx
    1c13:	50                   	push   %eax
    1c14:	50                   	push   %eax
    1c15:	6a 00                	push   $0x0
    1c17:	52                   	push   %edx
    1c18:	e8 93 c4 00 00       	call   e0b0 <async_answer_0@plt>
    1c1d:	83 c4 10             	add    $0x10,%esp
    1c20:	e9 73 fe ff ff       	jmp    1a98 <driver_connection_gen.constprop.7+0xd8>
    1c25:	8d 76 00             	lea    0x0(%esi),%esi
    1c28:	83 ec 0c             	sub    $0xc,%esp
    1c2b:	68 1c 03 01 00       	push   $0x1031c
    1c30:	e8 5b c5 00 00       	call   e190 <fibril_mutex_unlock@plt>
    1c35:	a1 6c 05 01 00       	mov    0x1056c,%eax
    1c3a:	83 c4 0c             	add    $0xc,%esp
    1c3d:	8b 08                	mov    (%eax),%ecx
    1c3f:	56                   	push   %esi
    1c40:	51                   	push   %ecx
    1c41:	68 10 c3 00 00       	push   $0xc310
    1c46:	e8 35 c3 00 00       	call   df80 <printf@plt>
    1c4b:	8b 7d b4             	mov    -0x4c(%ebp),%edi
    1c4e:	5b                   	pop    %ebx
    1c4f:	5e                   	pop    %esi
    1c50:	6a ff                	push   $0xffffffff
    1c52:	57                   	push   %edi
    1c53:	e8 58 c4 00 00       	call   e0b0 <async_answer_0@plt>
    1c58:	83 c4 10             	add    $0x10,%esp
    1c5b:	8d 65 f4             	lea    -0xc(%ebp),%esp
    1c5e:	5b                   	pop    %ebx
    1c5f:	5e                   	pop    %esi
    1c60:	5f                   	pop    %edi
    1c61:	5d                   	pop    %ebp
    1c62:	c3                   	ret    
    1c63:	51                   	push   %ecx
    1c64:	6a 6b                	push   $0x6b
    1c66:	68 b7 c0 00 00       	push   $0xc0b7
    1c6b:	68 10 c2 00 00       	push   $0xc210
    1c70:	e8 9b c4 00 00       	call   e110 <assert_abort@plt>
    1c75:	50                   	push   %eax
    1c76:	68 fb 02 00 00       	push   $0x2fb
    1c7b:	68 b7 c0 00 00       	push   $0xc0b7
    1c80:	68 c8 c0 00 00       	push   $0xc0c8
    1c85:	e8 86 c4 00 00       	call   e110 <assert_abort@plt>
    1c8a:	53                   	push   %ebx
    1c8b:	68 aa 01 00 00       	push   $0x1aa
    1c90:	68 b7 c0 00 00       	push   $0xc0b7
    1c95:	68 e0 c0 00 00       	push   $0xc0e0
    1c9a:	e8 71 c4 00 00       	call   e110 <assert_abort@plt>
    1c9f:	90                   	nop

00001ca0 <driver_connection_driver>:
    1ca0:	55                   	push   %ebp
    1ca1:	89 e5                	mov    %esp,%ebp
    1ca3:	8b 55 0c             	mov    0xc(%ebp),%edx
    1ca6:	8b 45 08             	mov    0x8(%ebp),%eax
    1ca9:	5d                   	pop    %ebp
    1caa:	e9 11 fd ff ff       	jmp    19c0 <driver_connection_gen.constprop.7>
    1caf:	90                   	nop

00001cb0 <driver_connection_client>:
    1cb0:	55                   	push   %ebp
    1cb1:	89 e5                	mov    %esp,%ebp
    1cb3:	8b 55 0c             	mov    0xc(%ebp),%edx
    1cb6:	8b 45 08             	mov    0x8(%ebp),%eax
    1cb9:	5d                   	pop    %ebp
    1cba:	e9 01 fd ff ff       	jmp    19c0 <driver_connection_gen.constprop.7>
    1cbf:	90                   	nop

00001cc0 <driver_connection_devman>:
    1cc0:	55                   	push   %ebp
    1cc1:	89 e5                	mov    %esp,%ebp
    1cc3:	57                   	push   %edi
    1cc4:	56                   	push   %esi
    1cc5:	53                   	push   %ebx
    1cc6:	83 ec 54             	sub    $0x54,%esp
    1cc9:	8d 75 c4             	lea    -0x3c(%ebp),%esi
    1ccc:	8b 45 08             	mov    0x8(%ebp),%eax
    1ccf:	6a 00                	push   $0x0
    1cd1:	50                   	push   %eax
    1cd2:	e8 d9 c3 00 00       	call   e0b0 <async_answer_0@plt>
    1cd7:	83 c4 10             	add    $0x10,%esp
    1cda:	8d b6 00 00 00 00    	lea    0x0(%esi),%esi
    1ce0:	50                   	push   %eax
    1ce1:	50                   	push   %eax
    1ce2:	6a 00                	push   $0x0
    1ce4:	56                   	push   %esi
    1ce5:	e8 e6 c5 00 00       	call   e2d0 <async_get_call_timeout@plt>
    1cea:	83 c4 10             	add    $0x10,%esp
    1ced:	89 c3                	mov    %eax,%ebx
    1cef:	8b 45 c4             	mov    -0x3c(%ebp),%eax
    1cf2:	85 c0                	test   %eax,%eax
    1cf4:	0f 84 de 03 00 00    	je     20d8 <driver_connection_devman+0x418>
    1cfa:	2d 00 04 00 00       	sub    $0x400,%eax
    1cff:	83 f8 04             	cmp    $0x4,%eax
    1d02:	0f 87 b8 03 00 00    	ja     20c0 <driver_connection_devman+0x400>
    1d08:	8b 7d c8             	mov    -0x38(%ebp),%edi
    1d0b:	ff 24 85 c0 c3 00 00 	jmp    *0xc3c0(,%eax,4)
    1d12:	8d b6 00 00 00 00    	lea    0x0(%esi),%esi
    1d18:	83 ec 0c             	sub    $0xc,%esp
    1d1b:	68 1c 03 01 00       	push   $0x1031c
    1d20:	e8 fb c6 00 00       	call   e420 <fibril_mutex_lock@plt>
    1d25:	c7 04 24 1c 03 01 00 	movl   $0x1031c,(%esp)
    1d2c:	e8 df c2 00 00       	call   e010 <fibril_mutex_is_locked@plt>
    1d31:	83 c4 10             	add    $0x10,%esp
    1d34:	84 c0                	test   %al,%al
    1d36:	0f 84 5a 04 00 00    	je     2196 <driver_connection_devman+0x4d6>
    1d3c:	a1 30 03 01 00       	mov    0x10330,%eax
    1d41:	3d 2c 03 01 00       	cmp    $0x1032c,%eax
    1d46:	8d 50 d4             	lea    -0x2c(%eax),%edx
    1d49:	75 16                	jne    1d61 <driver_connection_devman+0xa1>
    1d4b:	e9 90 03 00 00       	jmp    20e0 <driver_connection_devman+0x420>
    1d50:	8b 40 04             	mov    0x4(%eax),%eax
    1d53:	3d 2c 03 01 00       	cmp    $0x1032c,%eax
    1d58:	8d 50 d4             	lea    -0x2c(%eax),%edx
    1d5b:	0f 84 7f 03 00 00    	je     20e0 <driver_connection_devman+0x420>
    1d61:	3b 7a 04             	cmp    0x4(%edx),%edi
    1d64:	75 ea                	jne    1d50 <driver_connection_devman+0x90>
    1d66:	8b 42 0c             	mov    0xc(%edx),%eax
    1d69:	f0 ff 40 04          	lock incl 0x4(%eax)
    1d6d:	f0 ff 42 08          	lock incl 0x8(%edx)
    1d71:	83 ec 0c             	sub    $0xc,%esp
    1d74:	89 55 b4             	mov    %edx,-0x4c(%ebp)
    1d77:	68 1c 03 01 00       	push   $0x1031c
    1d7c:	e8 0f c4 00 00       	call   e190 <fibril_mutex_unlock@plt>
    1d81:	a1 6c 05 01 00       	mov    0x1056c,%eax
    1d86:	83 c4 10             	add    $0x10,%esp
    1d89:	8b 55 b4             	mov    -0x4c(%ebp),%edx
    1d8c:	8b 40 04             	mov    0x4(%eax),%eax
    1d8f:	8b 40 0c             	mov    0xc(%eax),%eax
    1d92:	85 c0                	test   %eax,%eax
    1d94:	0f 84 76 03 00 00    	je     2110 <driver_connection_devman+0x450>
    1d9a:	83 ec 0c             	sub    $0xc,%esp
    1d9d:	52                   	push   %edx
    1d9e:	ff d0                	call   *%eax
    1da0:	83 c4 10             	add    $0x10,%esp
    1da3:	89 c7                	mov    %eax,%edi
    1da5:	8b 55 b4             	mov    -0x4c(%ebp),%edx
    1da8:	89 d0                	mov    %edx,%eax
    1daa:	e8 01 fb ff ff       	call   18b0 <fun_del_ref>
    1daf:	51                   	push   %ecx
    1db0:	51                   	push   %ecx
    1db1:	57                   	push   %edi
    1db2:	53                   	push   %ebx
    1db3:	e8 f8 c2 00 00       	call   e0b0 <async_answer_0@plt>
    1db8:	83 c4 10             	add    $0x10,%esp
    1dbb:	e9 20 ff ff ff       	jmp    1ce0 <driver_connection_devman+0x20>
    1dc0:	83 ec 0c             	sub    $0xc,%esp
    1dc3:	68 34 03 01 00       	push   $0x10334
    1dc8:	e8 53 c6 00 00       	call   e420 <fibril_mutex_lock@plt>
    1dcd:	c7 04 24 34 03 01 00 	movl   $0x10334,(%esp)
    1dd4:	e8 37 c2 00 00       	call   e010 <fibril_mutex_is_locked@plt>
    1dd9:	83 c4 10             	add    $0x10,%esp
    1ddc:	84 c0                	test   %al,%al
    1dde:	0f 84 a0 03 00 00    	je     2184 <driver_connection_devman+0x4c4>
    1de4:	a1 48 03 01 00       	mov    0x10348,%eax
    1de9:	3d 44 03 01 00       	cmp    $0x10344,%eax
    1dee:	8d 50 ec             	lea    -0x14(%eax),%edx
    1df1:	75 16                	jne    1e09 <driver_connection_devman+0x149>
    1df3:	e9 08 03 00 00       	jmp    2100 <driver_connection_devman+0x440>
    1df8:	8b 40 04             	mov    0x4(%eax),%eax
    1dfb:	3d 44 03 01 00       	cmp    $0x10344,%eax
    1e00:	8d 50 ec             	lea    -0x14(%eax),%edx
    1e03:	0f 84 f7 02 00 00    	je     2100 <driver_connection_devman+0x440>
    1e09:	3b 78 ec             	cmp    -0x14(%eax),%edi
    1e0c:	75 ea                	jne    1df8 <driver_connection_devman+0x138>
    1e0e:	8d 7a 04             	lea    0x4(%edx),%edi
    1e11:	f0 ff 42 04          	lock incl 0x4(%edx)
    1e15:	83 ec 0c             	sub    $0xc,%esp
    1e18:	89 55 b4             	mov    %edx,-0x4c(%ebp)
    1e1b:	68 34 03 01 00       	push   $0x10334
    1e20:	e8 6b c3 00 00       	call   e190 <fibril_mutex_unlock@plt>
    1e25:	a1 6c 05 01 00       	mov    0x1056c,%eax
    1e2a:	83 c4 10             	add    $0x10,%esp
    1e2d:	8b 40 04             	mov    0x4(%eax),%eax
    1e30:	8b 40 08             	mov    0x8(%eax),%eax
    1e33:	85 c0                	test   %eax,%eax
    1e35:	0f 85 88 00 00 00    	jne    1ec3 <driver_connection_devman+0x203>
    1e3b:	b8 f5 ff ff ff       	mov    $0xfffffff5,%eax
    1e40:	e9 63 02 00 00       	jmp    20a8 <driver_connection_devman+0x3e8>
    1e45:	8d 76 00             	lea    0x0(%esi),%esi
    1e48:	83 ec 0c             	sub    $0xc,%esp
    1e4b:	68 34 03 01 00       	push   $0x10334
    1e50:	e8 cb c5 00 00       	call   e420 <fibril_mutex_lock@plt>
    1e55:	c7 04 24 34 03 01 00 	movl   $0x10334,(%esp)
    1e5c:	e8 af c1 00 00       	call   e010 <fibril_mutex_is_locked@plt>
    1e61:	83 c4 10             	add    $0x10,%esp
    1e64:	84 c0                	test   %al,%al
    1e66:	0f 84 18 03 00 00    	je     2184 <driver_connection_devman+0x4c4>
    1e6c:	a1 48 03 01 00       	mov    0x10348,%eax
    1e71:	3d 44 03 01 00       	cmp    $0x10344,%eax
    1e76:	8d 50 ec             	lea    -0x14(%eax),%edx
    1e79:	75 16                	jne    1e91 <driver_connection_devman+0x1d1>
    1e7b:	e9 80 02 00 00       	jmp    2100 <driver_connection_devman+0x440>
    1e80:	8b 40 04             	mov    0x4(%eax),%eax
    1e83:	3d 44 03 01 00       	cmp    $0x10344,%eax
    1e88:	8d 50 ec             	lea    -0x14(%eax),%edx
    1e8b:	0f 84 6f 02 00 00    	je     2100 <driver_connection_devman+0x440>
    1e91:	3b 78 ec             	cmp    -0x14(%eax),%edi
    1e94:	75 ea                	jne    1e80 <driver_connection_devman+0x1c0>
    1e96:	8d 7a 04             	lea    0x4(%edx),%edi
    1e99:	f0 ff 42 04          	lock incl 0x4(%edx)
    1e9d:	83 ec 0c             	sub    $0xc,%esp
    1ea0:	89 55 b4             	mov    %edx,-0x4c(%ebp)
    1ea3:	68 34 03 01 00       	push   $0x10334
    1ea8:	e8 e3 c2 00 00       	call   e190 <fibril_mutex_unlock@plt>
    1ead:	a1 6c 05 01 00       	mov    0x1056c,%eax
    1eb2:	83 c4 10             	add    $0x10,%esp
    1eb5:	8b 40 04             	mov    0x4(%eax),%eax
    1eb8:	8b 40 04             	mov    0x4(%eax),%eax
    1ebb:	85 c0                	test   %eax,%eax
    1ebd:	0f 84 78 ff ff ff    	je     1e3b <driver_connection_devman+0x17b>
    1ec3:	83 ec 0c             	sub    $0xc,%esp
    1ec6:	8b 55 b4             	mov    -0x4c(%ebp),%edx
    1ec9:	52                   	push   %edx
    1eca:	ff d0                	call   *%eax
    1ecc:	83 c4 10             	add    $0x10,%esp
    1ecf:	8b 55 b4             	mov    -0x4c(%ebp),%edx
    1ed2:	85 c0                	test   %eax,%eax
    1ed4:	0f 85 ce 01 00 00    	jne    20a8 <driver_connection_devman+0x3e8>
    1eda:	83 c9 ff             	or     $0xffffffff,%ecx
    1edd:	f0 0f c1 0f          	lock xadd %ecx,(%edi)
    1ee1:	49                   	dec    %ecx
    1ee2:	0f 85 c0 01 00 00    	jne    20a8 <driver_connection_devman+0x3e8>
    1ee8:	8b 42 08             	mov    0x8(%edx),%eax
    1eeb:	85 c0                	test   %eax,%eax
    1eed:	74 0f                	je     1efe <driver_connection_devman+0x23e>
    1eef:	83 ec 0c             	sub    $0xc,%esp
    1ef2:	50                   	push   %eax
    1ef3:	e8 98 c0 00 00       	call   df90 <async_hangup@plt>
    1ef8:	83 c4 10             	add    $0x10,%esp
    1efb:	8b 55 b4             	mov    -0x4c(%ebp),%edx
    1efe:	8b 42 10             	mov    0x10(%edx),%eax
    1f01:	85 c0                	test   %eax,%eax
    1f03:	74 12                	je     1f17 <driver_connection_devman+0x257>
    1f05:	83 ec 0c             	sub    $0xc,%esp
    1f08:	89 55 b4             	mov    %edx,-0x4c(%ebp)
    1f0b:	50                   	push   %eax
    1f0c:	e8 ef c4 00 00       	call   e400 <free@plt>
    1f11:	83 c4 10             	add    $0x10,%esp
    1f14:	8b 55 b4             	mov    -0x4c(%ebp),%edx
    1f17:	8b 42 0c             	mov    0xc(%edx),%eax
    1f1a:	85 c0                	test   %eax,%eax
    1f1c:	74 12                	je     1f30 <driver_connection_devman+0x270>
    1f1e:	83 ec 0c             	sub    $0xc,%esp
    1f21:	89 55 b4             	mov    %edx,-0x4c(%ebp)
    1f24:	50                   	push   %eax
    1f25:	e8 d6 c4 00 00       	call   e400 <free@plt>
    1f2a:	83 c4 10             	add    $0x10,%esp
    1f2d:	8b 55 b4             	mov    -0x4c(%ebp),%edx
    1f30:	83 ec 0c             	sub    $0xc,%esp
    1f33:	52                   	push   %edx
    1f34:	e8 c7 c4 00 00       	call   e400 <free@plt>
    1f39:	83 c4 10             	add    $0x10,%esp
    1f3c:	31 c0                	xor    %eax,%eax
    1f3e:	e9 65 01 00 00       	jmp    20a8 <driver_connection_devman+0x3e8>
    1f43:	90                   	nop
    1f44:	8d 74 26 00          	lea    0x0(%esi,%eiz,1),%esi
    1f48:	50                   	push   %eax
    1f49:	50                   	push   %eax
    1f4a:	8d 45 c0             	lea    -0x40(%ebp),%eax
    1f4d:	6a 00                	push   $0x0
    1f4f:	c7 45 c0 00 00 00 00 	movl   $0x0,-0x40(%ebp)
    1f56:	6a 00                	push   $0x0
    1f58:	6a 00                	push   $0x0
    1f5a:	6a 00                	push   $0x0
    1f5c:	6a 01                	push   $0x1
    1f5e:	50                   	push   %eax
    1f5f:	e8 2c c4 00 00       	call   e390 <async_data_write_accept@plt>
    1f64:	83 c4 20             	add    $0x20,%esp
    1f67:	85 c0                	test   %eax,%eax
    1f69:	0f 85 39 01 00 00    	jne    20a8 <driver_connection_devman+0x3e8>
    1f6f:	50                   	push   %eax
    1f70:	50                   	push   %eax
    1f71:	6a 1c                	push   $0x1c
    1f73:	6a 01                	push   $0x1
    1f75:	e8 b6 c1 00 00       	call   e130 <calloc@plt>
    1f7a:	83 c4 10             	add    $0x10,%esp
    1f7d:	89 c2                	mov    %eax,%edx
    1f7f:	85 c0                	test   %eax,%eax
    1f81:	0f 84 df 01 00 00    	je     2166 <driver_connection_devman+0x4a6>
    1f87:	f0 ff 40 04          	lock incl 0x4(%eax)
    1f8b:	89 38                	mov    %edi,(%eax)
    1f8d:	8b 45 c0             	mov    -0x40(%ebp),%eax
    1f90:	89 42 0c             	mov    %eax,0xc(%edx)
    1f93:	a1 6c 05 01 00       	mov    0x1056c,%eax
    1f98:	83 ec 0c             	sub    $0xc,%esp
    1f9b:	89 55 b4             	mov    %edx,-0x4c(%ebp)
    1f9e:	8b 40 04             	mov    0x4(%eax),%eax
    1fa1:	52                   	push   %edx
    1fa2:	ff 10                	call   *(%eax)
    1fa4:	83 c4 10             	add    $0x10,%esp
    1fa7:	89 c7                	mov    %eax,%edi
    1fa9:	85 c0                	test   %eax,%eax
    1fab:	8b 55 b4             	mov    -0x4c(%ebp),%edx
    1fae:	0f 84 66 01 00 00    	je     211a <driver_connection_devman+0x45a>
    1fb4:	83 c8 ff             	or     $0xffffffff,%eax
    1fb7:	f0 0f c1 42 04       	lock xadd %eax,0x4(%edx)
    1fbc:	48                   	dec    %eax
    1fbd:	0f 85 ec fd ff ff    	jne    1daf <driver_connection_devman+0xef>
    1fc3:	8b 42 08             	mov    0x8(%edx),%eax
    1fc6:	85 c0                	test   %eax,%eax
    1fc8:	74 12                	je     1fdc <driver_connection_devman+0x31c>
    1fca:	83 ec 0c             	sub    $0xc,%esp
    1fcd:	89 55 b4             	mov    %edx,-0x4c(%ebp)
    1fd0:	50                   	push   %eax
    1fd1:	e8 ba bf 00 00       	call   df90 <async_hangup@plt>
    1fd6:	83 c4 10             	add    $0x10,%esp
    1fd9:	8b 55 b4             	mov    -0x4c(%ebp),%edx
    1fdc:	8b 42 10             	mov    0x10(%edx),%eax
    1fdf:	85 c0                	test   %eax,%eax
    1fe1:	74 12                	je     1ff5 <driver_connection_devman+0x335>
    1fe3:	83 ec 0c             	sub    $0xc,%esp
    1fe6:	89 55 b4             	mov    %edx,-0x4c(%ebp)
    1fe9:	50                   	push   %eax
    1fea:	e8 11 c4 00 00       	call   e400 <free@plt>
    1fef:	83 c4 10             	add    $0x10,%esp
    1ff2:	8b 55 b4             	mov    -0x4c(%ebp),%edx
    1ff5:	8b 42 0c             	mov    0xc(%edx),%eax
    1ff8:	85 c0                	test   %eax,%eax
    1ffa:	74 12                	je     200e <driver_connection_devman+0x34e>
    1ffc:	83 ec 0c             	sub    $0xc,%esp
    1fff:	89 55 b4             	mov    %edx,-0x4c(%ebp)
    2002:	50                   	push   %eax
    2003:	e8 f8 c3 00 00       	call   e400 <free@plt>
    2008:	83 c4 10             	add    $0x10,%esp
    200b:	8b 55 b4             	mov    -0x4c(%ebp),%edx
    200e:	83 ec 0c             	sub    $0xc,%esp
    2011:	52                   	push   %edx
    2012:	e8 e9 c3 00 00       	call   e400 <free@plt>
    2017:	83 c4 10             	add    $0x10,%esp
    201a:	e9 90 fd ff ff       	jmp    1daf <driver_connection_devman+0xef>
    201f:	90                   	nop
    2020:	83 ec 0c             	sub    $0xc,%esp
    2023:	68 1c 03 01 00       	push   $0x1031c
    2028:	e8 f3 c3 00 00       	call   e420 <fibril_mutex_lock@plt>
    202d:	c7 04 24 1c 03 01 00 	movl   $0x1031c,(%esp)
    2034:	e8 d7 bf 00 00       	call   e010 <fibril_mutex_is_locked@plt>
    2039:	83 c4 10             	add    $0x10,%esp
    203c:	84 c0                	test   %al,%al
    203e:	0f 84 52 01 00 00    	je     2196 <driver_connection_devman+0x4d6>
    2044:	a1 30 03 01 00       	mov    0x10330,%eax
    2049:	3d 2c 03 01 00       	cmp    $0x1032c,%eax
    204e:	8d 50 d4             	lea    -0x2c(%eax),%edx
    2051:	75 12                	jne    2065 <driver_connection_devman+0x3a5>
    2053:	e9 88 00 00 00       	jmp    20e0 <driver_connection_devman+0x420>
    2058:	8b 40 04             	mov    0x4(%eax),%eax
    205b:	3d 2c 03 01 00       	cmp    $0x1032c,%eax
    2060:	8d 50 d4             	lea    -0x2c(%eax),%edx
    2063:	74 7b                	je     20e0 <driver_connection_devman+0x420>
    2065:	3b 7a 04             	cmp    0x4(%edx),%edi
    2068:	75 ee                	jne    2058 <driver_connection_devman+0x398>
    206a:	8b 42 0c             	mov    0xc(%edx),%eax
    206d:	f0 ff 40 04          	lock incl 0x4(%eax)
    2071:	f0 ff 42 08          	lock incl 0x8(%edx)
    2075:	83 ec 0c             	sub    $0xc,%esp
    2078:	89 55 b4             	mov    %edx,-0x4c(%ebp)
    207b:	68 1c 03 01 00       	push   $0x1031c
    2080:	e8 0b c1 00 00       	call   e190 <fibril_mutex_unlock@plt>
    2085:	a1 6c 05 01 00       	mov    0x1056c,%eax
    208a:	83 c4 10             	add    $0x10,%esp
    208d:	8b 40 04             	mov    0x4(%eax),%eax
    2090:	8b 40 10             	mov    0x10(%eax),%eax
    2093:	85 c0                	test   %eax,%eax
    2095:	0f 84 a0 fd ff ff    	je     1e3b <driver_connection_devman+0x17b>
    209b:	83 ec 0c             	sub    $0xc,%esp
    209e:	8b 55 b4             	mov    -0x4c(%ebp),%edx
    20a1:	52                   	push   %edx
    20a2:	ff d0                	call   *%eax
    20a4:	83 c4 10             	add    $0x10,%esp
    20a7:	90                   	nop
    20a8:	52                   	push   %edx
    20a9:	52                   	push   %edx
    20aa:	50                   	push   %eax
    20ab:	53                   	push   %ebx
    20ac:	e8 ff bf 00 00       	call   e0b0 <async_answer_0@plt>
    20b1:	83 c4 10             	add    $0x10,%esp
    20b4:	e9 27 fc ff ff       	jmp    1ce0 <driver_connection_devman+0x20>
    20b9:	8d b4 26 00 00 00 00 	lea    0x0(%esi,%eiz,1),%esi
    20c0:	50                   	push   %eax
    20c1:	50                   	push   %eax
    20c2:	6a f5                	push   $0xfffffff5
    20c4:	53                   	push   %ebx
    20c5:	e8 e6 bf 00 00       	call   e0b0 <async_answer_0@plt>
    20ca:	83 c4 10             	add    $0x10,%esp
    20cd:	e9 0e fc ff ff       	jmp    1ce0 <driver_connection_devman+0x20>
    20d2:	8d b6 00 00 00 00    	lea    0x0(%esi),%esi
    20d8:	8d 65 f4             	lea    -0xc(%ebp),%esp
    20db:	5b                   	pop    %ebx
    20dc:	5e                   	pop    %esi
    20dd:	5f                   	pop    %edi
    20de:	5d                   	pop    %ebp
    20df:	c3                   	ret    
    20e0:	83 ec 0c             	sub    $0xc,%esp
    20e3:	68 1c 03 01 00       	push   $0x1031c
    20e8:	e8 a3 c0 00 00       	call   e190 <fibril_mutex_unlock@plt>
    20ed:	58                   	pop    %eax
    20ee:	5a                   	pop    %edx
    20ef:	6a ff                	push   $0xffffffff
    20f1:	53                   	push   %ebx
    20f2:	e8 b9 bf 00 00       	call   e0b0 <async_answer_0@plt>
    20f7:	83 c4 10             	add    $0x10,%esp
    20fa:	e9 e1 fb ff ff       	jmp    1ce0 <driver_connection_devman+0x20>
    20ff:	90                   	nop
    2100:	83 ec 0c             	sub    $0xc,%esp
    2103:	68 34 03 01 00       	push   $0x10334
    2108:	eb de                	jmp    20e8 <driver_connection_devman+0x428>
    210a:	8d b6 00 00 00 00    	lea    0x0(%esi),%esi
    2110:	bf f5 ff ff ff       	mov    $0xfffffff5,%edi
    2115:	e9 8e fc ff ff       	jmp    1da8 <driver_connection_devman+0xe8>
    211a:	83 ec 0c             	sub    $0xc,%esp
    211d:	89 55 b4             	mov    %edx,-0x4c(%ebp)
    2120:	68 34 03 01 00       	push   $0x10334
    2125:	e8 f6 c2 00 00       	call   e420 <fibril_mutex_lock@plt>
    212a:	8b 55 b4             	mov    -0x4c(%ebp),%edx
    212d:	8b 0d 44 03 01 00    	mov    0x10344,%ecx
    2133:	8d 42 14             	lea    0x14(%edx),%eax
    2136:	c7 42 18 44 03 01 00 	movl   $0x10344,0x18(%edx)
    213d:	89 4a 14             	mov    %ecx,0x14(%edx)
    2140:	89 41 04             	mov    %eax,0x4(%ecx)
    2143:	a3 44 03 01 00       	mov    %eax,0x10344
    2148:	c7 04 24 34 03 01 00 	movl   $0x10334,(%esp)
    214f:	e8 3c c0 00 00       	call   e190 <fibril_mutex_unlock@plt>
    2154:	5f                   	pop    %edi
    2155:	58                   	pop    %eax
    2156:	6a 00                	push   $0x0
    2158:	53                   	push   %ebx
    2159:	e8 52 bf 00 00       	call   e0b0 <async_answer_0@plt>
    215e:	83 c4 10             	add    $0x10,%esp
    2161:	e9 7a fb ff ff       	jmp    1ce0 <driver_connection_devman+0x20>
    2166:	83 ec 0c             	sub    $0xc,%esp
    2169:	8b 4d c0             	mov    -0x40(%ebp),%ecx
    216c:	51                   	push   %ecx
    216d:	e8 8e c2 00 00       	call   e400 <free@plt>
    2172:	5f                   	pop    %edi
    2173:	58                   	pop    %eax
    2174:	6a fe                	push   $0xfffffffe
    2176:	53                   	push   %ebx
    2177:	e8 34 bf 00 00       	call   e0b0 <async_answer_0@plt>
    217c:	83 c4 10             	add    $0x10,%esp
    217f:	e9 5c fb ff ff       	jmp    1ce0 <driver_connection_devman+0x20>
    2184:	56                   	push   %esi
    2185:	6a 5f                	push   $0x5f
    2187:	68 b7 c0 00 00       	push   $0xc0b7
    218c:	68 5c c3 00 00       	push   $0xc35c
    2191:	e8 7a bf 00 00       	call   e110 <assert_abort@plt>
    2196:	53                   	push   %ebx
    2197:	6a 6b                	push   $0x6b
    2199:	68 b7 c0 00 00       	push   $0xc0b7
    219e:	68 10 c2 00 00       	push   $0xc210
    21a3:	e8 68 bf 00 00       	call   e110 <assert_abort@plt>
    21a8:	90                   	nop
    21a9:	8d b4 26 00 00 00 00 	lea    0x0(%esi,%eiz,1),%esi

000021b0 <ddf_dev_data_alloc>:
    21b0:	55                   	push   %ebp
    21b1:	89 e5                	mov    %esp,%ebp
    21b3:	53                   	push   %ebx
    21b4:	53                   	push   %ebx
    21b5:	8b 5d 08             	mov    0x8(%ebp),%ebx
    21b8:	8b 43 10             	mov    0x10(%ebx),%eax
    21bb:	85 c0                	test   %eax,%eax
    21bd:	75 1c                	jne    21db <ddf_dev_data_alloc+0x2b>
    21bf:	8b 55 0c             	mov    0xc(%ebp),%edx
    21c2:	50                   	push   %eax
    21c3:	50                   	push   %eax
    21c4:	52                   	push   %edx
    21c5:	6a 01                	push   $0x1
    21c7:	e8 64 bf 00 00       	call   e130 <calloc@plt>
    21cc:	83 c4 10             	add    $0x10,%esp
    21cf:	85 c0                	test   %eax,%eax
    21d1:	74 03                	je     21d6 <ddf_dev_data_alloc+0x26>
    21d3:	89 43 10             	mov    %eax,0x10(%ebx)
    21d6:	8b 5d fc             	mov    -0x4(%ebp),%ebx
    21d9:	c9                   	leave  
    21da:	c3                   	ret    
    21db:	51                   	push   %ecx
    21dc:	68 39 02 00 00       	push   $0x239
    21e1:	68 b7 c0 00 00       	push   $0xc0b7
    21e6:	68 f2 c0 00 00       	push   $0xc0f2
    21eb:	e8 20 bf 00 00       	call   e110 <assert_abort@plt>

000021f0 <ddf_dev_data_get>:
    21f0:	55                   	push   %ebp
    21f1:	89 e5                	mov    %esp,%ebp
    21f3:	8b 45 08             	mov    0x8(%ebp),%eax
    21f6:	5d                   	pop    %ebp
    21f7:	8b 40 10             	mov    0x10(%eax),%eax
    21fa:	c3                   	ret    
    21fb:	90                   	nop
    21fc:	8d 74 26 00          	lea    0x0(%esi,%eiz,1),%esi

00002200 <ddf_dev_get_handle>:
    2200:	55                   	push   %ebp
    2201:	89 e5                	mov    %esp,%ebp
    2203:	8b 45 08             	mov    0x8(%ebp),%eax
    2206:	5d                   	pop    %ebp
    2207:	8b 00                	mov    (%eax),%eax
    2209:	c3                   	ret    
    220a:	8d b6 00 00 00 00    	lea    0x0(%esi),%esi

00002210 <ddf_dev_get_name>:
    2210:	55                   	push   %ebp
    2211:	89 e5                	mov    %esp,%ebp
    2213:	8b 45 08             	mov    0x8(%ebp),%eax
    2216:	5d                   	pop    %ebp
    2217:	8b 40 0c             	mov    0xc(%eax),%eax
    221a:	c3                   	ret    
    221b:	90                   	nop
    221c:	8d 74 26 00          	lea    0x0(%esi,%eiz,1),%esi

00002220 <ddf_dev_parent_sess_create>:
    2220:	55                   	push   %ebp
    2221:	89 e5                	mov    %esp,%ebp
    2223:	53                   	push   %ebx
    2224:	53                   	push   %ebx
    2225:	8b 5d 08             	mov    0x8(%ebp),%ebx
    2228:	8b 43 08             	mov    0x8(%ebx),%eax
    222b:	85 c0                	test   %eax,%eax
    222d:	75 14                	jne    2243 <ddf_dev_parent_sess_create+0x23>
    222f:	50                   	push   %eax
    2230:	50                   	push   %eax
    2231:	6a 01                	push   $0x1
    2233:	8b 13                	mov    (%ebx),%edx
    2235:	52                   	push   %edx
    2236:	e8 85 bd 00 00       	call   dfc0 <devman_parent_device_connect@plt>
    223b:	89 43 08             	mov    %eax,0x8(%ebx)
    223e:	8b 5d fc             	mov    -0x4(%ebp),%ebx
    2241:	c9                   	leave  
    2242:	c3                   	ret    
    2243:	51                   	push   %ecx
    2244:	68 64 02 00 00       	push   $0x264
    2249:	68 b7 c0 00 00       	push   $0xc0b7
    224e:	68 0b c1 00 00       	push   $0xc10b
    2253:	e8 b8 be 00 00       	call   e110 <assert_abort@plt>
    2258:	90                   	nop
    2259:	8d b4 26 00 00 00 00 	lea    0x0(%esi,%eiz,1),%esi

00002260 <ddf_dev_parent_sess_get>:
    2260:	55                   	push   %ebp
    2261:	89 e5                	mov    %esp,%ebp
    2263:	8b 45 08             	mov    0x8(%ebp),%eax
    2266:	5d                   	pop    %ebp
    2267:	8b 40 08             	mov    0x8(%eax),%eax
    226a:	c3                   	ret    
    226b:	90                   	nop
    226c:	8d 74 26 00          	lea    0x0(%esi,%eiz,1),%esi

00002270 <ddf_fun_set_name>:
    2270:	55                   	push   %ebp
    2271:	89 e5                	mov    %esp,%ebp
    2273:	53                   	push   %ebx
    2274:	51                   	push   %ecx
    2275:	8b 5d 08             	mov    0x8(%ebp),%ebx
    2278:	8b 43 14             	mov    0x14(%ebx),%eax
    227b:	85 c0                	test   %eax,%eax
    227d:	75 23                	jne    22a2 <ddf_fun_set_name+0x32>
    227f:	83 ec 0c             	sub    $0xc,%esp
    2282:	8b 45 0c             	mov    0xc(%ebp),%eax
    2285:	50                   	push   %eax
    2286:	e8 25 bf 00 00       	call   e1b0 <str_dup@plt>
    228b:	83 c4 10             	add    $0x10,%esp
    228e:	89 43 14             	mov    %eax,0x14(%ebx)
    2291:	85 c0                	test   %eax,%eax
    2293:	8b 5d fc             	mov    -0x4(%ebp),%ebx
    2296:	0f 94 c0             	sete   %al
    2299:	25 ff 00 00 00       	and    $0xff,%eax
    229e:	c9                   	leave  
    229f:	f7 d8                	neg    %eax
    22a1:	c3                   	ret    
    22a2:	52                   	push   %edx
    22a3:	68 7d 02 00 00       	push   $0x27d
    22a8:	68 b7 c0 00 00       	push   $0xc0b7
    22ad:	68 24 c1 00 00       	push   $0xc124
    22b2:	e8 59 be 00 00       	call   e110 <assert_abort@plt>
    22b7:	89 f6                	mov    %esi,%esi
    22b9:	8d bc 27 00 00 00 00 	lea    0x0(%edi,%eiz,1),%edi

000022c0 <ddf_fun_get_dev>:
    22c0:	55                   	push   %ebp
    22c1:	89 e5                	mov    %esp,%ebp
    22c3:	8b 45 08             	mov    0x8(%ebp),%eax
    22c6:	5d                   	pop    %ebp
    22c7:	8b 40 0c             	mov    0xc(%eax),%eax
    22ca:	c3                   	ret    
    22cb:	90                   	nop
    22cc:	8d 74 26 00          	lea    0x0(%esi,%eiz,1),%esi

000022d0 <ddf_fun_get_handle>:
    22d0:	55                   	push   %ebp
    22d1:	89 e5                	mov    %esp,%ebp
    22d3:	8b 45 08             	mov    0x8(%ebp),%eax
    22d6:	5d                   	pop    %ebp
    22d7:	8b 40 04             	mov    0x4(%eax),%eax
    22da:	c3                   	ret    
    22db:	90                   	nop
    22dc:	8d 74 26 00          	lea    0x0(%esi,%eiz,1),%esi

000022e0 <ddf_fun_create>:
    22e0:	55                   	push   %ebp
    22e1:	89 e5                	mov    %esp,%ebp
    22e3:	57                   	push   %edi
    22e4:	56                   	push   %esi
    22e5:	53                   	push   %ebx
    22e6:	83 ec 14             	sub    $0x14,%esp
    22e9:	8b 75 08             	mov    0x8(%ebp),%esi
    22ec:	6a 34                	push   $0x34
    22ee:	6a 01                	push   $0x1
    22f0:	e8 3b be 00 00       	call   e130 <calloc@plt>
    22f5:	83 c4 10             	add    $0x10,%esp
    22f8:	89 c3                	mov    %eax,%ebx
    22fa:	85 c0                	test   %eax,%eax
    22fc:	74 48                	je     2346 <ddf_fun_create+0x66>
    22fe:	8d 78 18             	lea    0x18(%eax),%edi
    2301:	c7 40 2c 00 00 00 00 	movl   $0x0,0x2c(%eax)
    2308:	89 78 18             	mov    %edi,0x18(%eax)
    230b:	89 78 1c             	mov    %edi,0x1c(%eax)
    230e:	c7 40 30 00 00 00 00 	movl   $0x0,0x30(%eax)
    2315:	89 70 0c             	mov    %esi,0xc(%eax)
    2318:	f0 ff 46 04          	lock incl 0x4(%esi)
    231c:	f0 ff 40 08          	lock incl 0x8(%eax)
    2320:	c6 00 00             	movb   $0x0,(%eax)
    2323:	8b 55 10             	mov    0x10(%ebp),%edx
    2326:	8b 45 0c             	mov    0xc(%ebp),%eax
    2329:	85 d2                	test   %edx,%edx
    232b:	89 43 10             	mov    %eax,0x10(%ebx)
    232e:	74 16                	je     2346 <ddf_fun_create+0x66>
    2330:	83 ec 0c             	sub    $0xc,%esp
    2333:	8b 45 10             	mov    0x10(%ebp),%eax
    2336:	50                   	push   %eax
    2337:	e8 74 be 00 00       	call   e1b0 <str_dup@plt>
    233c:	83 c4 10             	add    $0x10,%esp
    233f:	89 43 14             	mov    %eax,0x14(%ebx)
    2342:	85 c0                	test   %eax,%eax
    2344:	74 0a                	je     2350 <ddf_fun_create+0x70>
    2346:	8d 65 f4             	lea    -0xc(%ebp),%esp
    2349:	89 d8                	mov    %ebx,%eax
    234b:	5b                   	pop    %ebx
    234c:	5e                   	pop    %esi
    234d:	5f                   	pop    %edi
    234e:	5d                   	pop    %ebp
    234f:	c3                   	ret    
    2350:	8b 73 1c             	mov    0x1c(%ebx),%esi
    2353:	39 f7                	cmp    %esi,%edi
    2355:	0f 84 85 00 00 00    	je     23e0 <ddf_fun_create+0x100>
    235b:	90                   	nop
    235c:	8d 74 26 00          	lea    0x0(%esi,%eiz,1),%esi
    2360:	8b 0e                	mov    (%esi),%ecx
    2362:	85 c9                	test   %ecx,%ecx
    2364:	74 0e                	je     2374 <ddf_fun_create+0x94>
    2366:	8b 46 04             	mov    0x4(%esi),%eax
    2369:	85 c0                	test   %eax,%eax
    236b:	74 07                	je     2374 <ddf_fun_create+0x94>
    236d:	89 08                	mov    %ecx,(%eax)
    236f:	8b 0e                	mov    (%esi),%ecx
    2371:	89 41 04             	mov    %eax,0x4(%ecx)
    2374:	8b 46 08             	mov    0x8(%esi),%eax
    2377:	c7 06 00 00 00 00    	movl   $0x0,(%esi)
    237d:	c7 46 04 00 00 00 00 	movl   $0x0,0x4(%esi)
    2384:	85 c0                	test   %eax,%eax
    2386:	74 0c                	je     2394 <ddf_fun_create+0xb4>
    2388:	83 ec 0c             	sub    $0xc,%esp
    238b:	50                   	push   %eax
    238c:	e8 6f c0 00 00       	call   e400 <free@plt>
    2391:	83 c4 10             	add    $0x10,%esp
    2394:	83 ec 0c             	sub    $0xc,%esp
    2397:	56                   	push   %esi
    2398:	e8 63 c0 00 00       	call   e400 <free@plt>
    239d:	8b 73 1c             	mov    0x1c(%ebx),%esi
    23a0:	83 c4 10             	add    $0x10,%esp
    23a3:	39 f7                	cmp    %esi,%edi
    23a5:	75 b9                	jne    2360 <ddf_fun_create+0x80>
    23a7:	8b 43 20             	mov    0x20(%ebx),%eax
    23aa:	85 c0                	test   %eax,%eax
    23ac:	74 0c                	je     23ba <ddf_fun_create+0xda>
    23ae:	83 ec 0c             	sub    $0xc,%esp
    23b1:	50                   	push   %eax
    23b2:	e8 49 c0 00 00       	call   e400 <free@plt>
    23b7:	83 c4 10             	add    $0x10,%esp
    23ba:	8b 43 14             	mov    0x14(%ebx),%eax
    23bd:	85 c0                	test   %eax,%eax
    23bf:	74 0c                	je     23cd <ddf_fun_create+0xed>
    23c1:	83 ec 0c             	sub    $0xc,%esp
    23c4:	50                   	push   %eax
    23c5:	e8 36 c0 00 00       	call   e400 <free@plt>
    23ca:	83 c4 10             	add    $0x10,%esp
    23cd:	83 ec 0c             	sub    $0xc,%esp
    23d0:	53                   	push   %ebx
    23d1:	31 db                	xor    %ebx,%ebx
    23d3:	e8 28 c0 00 00       	call   e400 <free@plt>
    23d8:	83 c4 10             	add    $0x10,%esp
    23db:	e9 66 ff ff ff       	jmp    2346 <ddf_fun_create+0x66>
    23e0:	8b 43 20             	mov    0x20(%ebx),%eax
    23e3:	85 c0                	test   %eax,%eax
    23e5:	75 c7                	jne    23ae <ddf_fun_create+0xce>
    23e7:	eb e4                	jmp    23cd <ddf_fun_create+0xed>
    23e9:	8d b4 26 00 00 00 00 	lea    0x0(%esi,%eiz,1),%esi

000023f0 <ddf_fun_data_alloc>:
    23f0:	55                   	push   %ebp
    23f1:	89 e5                	mov    %esp,%ebp
    23f3:	53                   	push   %ebx
    23f4:	50                   	push   %eax
    23f5:	8b 5d 08             	mov    0x8(%ebp),%ebx
    23f8:	80 3b 00             	cmpb   $0x0,(%ebx)
    23fb:	75 23                	jne    2420 <ddf_fun_data_alloc+0x30>
    23fd:	8b 43 20             	mov    0x20(%ebx),%eax
    2400:	85 c0                	test   %eax,%eax
    2402:	75 31                	jne    2435 <ddf_fun_data_alloc+0x45>
    2404:	8b 55 0c             	mov    0xc(%ebp),%edx
    2407:	50                   	push   %eax
    2408:	50                   	push   %eax
    2409:	52                   	push   %edx
    240a:	6a 01                	push   $0x1
    240c:	e8 1f bd 00 00       	call   e130 <calloc@plt>
    2411:	83 c4 10             	add    $0x10,%esp
    2414:	85 c0                	test   %eax,%eax
    2416:	74 03                	je     241b <ddf_fun_data_alloc+0x2b>
    2418:	89 43 20             	mov    %eax,0x20(%ebx)
    241b:	8b 5d fc             	mov    -0x4(%ebp),%ebx
    241e:	c9                   	leave  
    241f:	c3                   	ret    
    2420:	50                   	push   %eax
    2421:	68 c9 02 00 00       	push   $0x2c9
    2426:	68 b7 c0 00 00       	push   $0xc0b7
    242b:	68 36 c1 00 00       	push   $0xc136
    2430:	e8 db bc 00 00       	call   e110 <assert_abort@plt>
    2435:	51                   	push   %ecx
    2436:	68 ca 02 00 00       	push   $0x2ca
    243b:	68 b7 c0 00 00       	push   $0xc0b7
    2440:	68 4a c1 00 00       	push   $0xc14a
    2445:	e8 c6 bc 00 00       	call   e110 <assert_abort@plt>
    244a:	8d b6 00 00 00 00    	lea    0x0(%esi),%esi

00002450 <ddf_fun_data_get>:
    2450:	55                   	push   %ebp
    2451:	89 e5                	mov    %esp,%ebp
    2453:	8b 45 08             	mov    0x8(%ebp),%eax
    2456:	5d                   	pop    %ebp
    2457:	8b 40 20             	mov    0x20(%eax),%eax
    245a:	c3                   	ret    
    245b:	90                   	nop
    245c:	8d 74 26 00          	lea    0x0(%esi,%eiz,1),%esi

00002460 <ddf_fun_get_name>:
    2460:	55                   	push   %ebp
    2461:	89 e5                	mov    %esp,%ebp
    2463:	8b 45 08             	mov    0x8(%ebp),%eax
    2466:	5d                   	pop    %ebp
    2467:	8b 40 14             	mov    0x14(%eax),%eax
    246a:	c3                   	ret    
    246b:	90                   	nop
    246c:	8d 74 26 00          	lea    0x0(%esi,%eiz,1),%esi

00002470 <ddf_fun_destroy>:
    2470:	55                   	push   %ebp
    2471:	89 e5                	mov    %esp,%ebp
    2473:	57                   	push   %edi
    2474:	56                   	push   %esi
    2475:	53                   	push   %ebx
    2476:	83 ec 1c             	sub    $0x1c,%esp
    2479:	8b 7d 08             	mov    0x8(%ebp),%edi
    247c:	80 3f 00             	cmpb   $0x0,(%edi)
    247f:	0f 85 fa 00 00 00    	jne    257f <ddf_fun_destroy+0x10f>
    2485:	8b 77 0c             	mov    0xc(%edi),%esi
    2488:	83 ca ff             	or     $0xffffffff,%edx
    248b:	f0 0f c1 57 08       	lock xadd %edx,0x8(%edi)
    2490:	4a                   	dec    %edx
    2491:	74 5d                	je     24f0 <ddf_fun_destroy+0x80>
    2493:	83 c8 ff             	or     $0xffffffff,%eax
    2496:	f0 0f c1 46 04       	lock xadd %eax,0x4(%esi)
    249b:	48                   	dec    %eax
    249c:	74 0a                	je     24a8 <ddf_fun_destroy+0x38>
    249e:	8d 65 f4             	lea    -0xc(%ebp),%esp
    24a1:	5b                   	pop    %ebx
    24a2:	5e                   	pop    %esi
    24a3:	5f                   	pop    %edi
    24a4:	5d                   	pop    %ebp
    24a5:	c3                   	ret    
    24a6:	66 90                	xchg   %ax,%ax
    24a8:	8b 46 08             	mov    0x8(%esi),%eax
    24ab:	85 c0                	test   %eax,%eax
    24ad:	74 0c                	je     24bb <ddf_fun_destroy+0x4b>
    24af:	83 ec 0c             	sub    $0xc,%esp
    24b2:	50                   	push   %eax
    24b3:	e8 d8 ba 00 00       	call   df90 <async_hangup@plt>
    24b8:	83 c4 10             	add    $0x10,%esp
    24bb:	8b 46 10             	mov    0x10(%esi),%eax
    24be:	85 c0                	test   %eax,%eax
    24c0:	74 0c                	je     24ce <ddf_fun_destroy+0x5e>
    24c2:	83 ec 0c             	sub    $0xc,%esp
    24c5:	50                   	push   %eax
    24c6:	e8 35 bf 00 00       	call   e400 <free@plt>
    24cb:	83 c4 10             	add    $0x10,%esp
    24ce:	8b 46 0c             	mov    0xc(%esi),%eax
    24d1:	85 c0                	test   %eax,%eax
    24d3:	74 0c                	je     24e1 <ddf_fun_destroy+0x71>
    24d5:	83 ec 0c             	sub    $0xc,%esp
    24d8:	50                   	push   %eax
    24d9:	e8 22 bf 00 00       	call   e400 <free@plt>
    24de:	83 c4 10             	add    $0x10,%esp
    24e1:	89 75 08             	mov    %esi,0x8(%ebp)
    24e4:	8d 65 f4             	lea    -0xc(%ebp),%esp
    24e7:	5b                   	pop    %ebx
    24e8:	5e                   	pop    %esi
    24e9:	5f                   	pop    %edi
    24ea:	5d                   	pop    %ebp
    24eb:	e9 10 bf 00 00       	jmp    e400 <free@plt>
    24f0:	8d 47 18             	lea    0x18(%edi),%eax
    24f3:	8b 5f 1c             	mov    0x1c(%edi),%ebx
    24f6:	89 45 e4             	mov    %eax,-0x1c(%ebp)
    24f9:	39 d8                	cmp    %ebx,%eax
    24fb:	74 4b                	je     2548 <ddf_fun_destroy+0xd8>
    24fd:	8d 76 00             	lea    0x0(%esi),%esi
    2500:	8b 0b                	mov    (%ebx),%ecx
    2502:	85 c9                	test   %ecx,%ecx
    2504:	74 0e                	je     2514 <ddf_fun_destroy+0xa4>
    2506:	8b 53 04             	mov    0x4(%ebx),%edx
    2509:	85 d2                	test   %edx,%edx
    250b:	74 07                	je     2514 <ddf_fun_destroy+0xa4>
    250d:	89 0a                	mov    %ecx,(%edx)
    250f:	8b 0b                	mov    (%ebx),%ecx
    2511:	89 51 04             	mov    %edx,0x4(%ecx)
    2514:	8b 53 08             	mov    0x8(%ebx),%edx
    2517:	c7 03 00 00 00 00    	movl   $0x0,(%ebx)
    251d:	c7 43 04 00 00 00 00 	movl   $0x0,0x4(%ebx)
    2524:	85 d2                	test   %edx,%edx
    2526:	74 0c                	je     2534 <ddf_fun_destroy+0xc4>
    2528:	83 ec 0c             	sub    $0xc,%esp
    252b:	52                   	push   %edx
    252c:	e8 cf be 00 00       	call   e400 <free@plt>
    2531:	83 c4 10             	add    $0x10,%esp
    2534:	83 ec 0c             	sub    $0xc,%esp
    2537:	53                   	push   %ebx
    2538:	e8 c3 be 00 00       	call   e400 <free@plt>
    253d:	8b 5f 1c             	mov    0x1c(%edi),%ebx
    2540:	83 c4 10             	add    $0x10,%esp
    2543:	3b 5d e4             	cmp    -0x1c(%ebp),%ebx
    2546:	75 b8                	jne    2500 <ddf_fun_destroy+0x90>
    2548:	8b 57 20             	mov    0x20(%edi),%edx
    254b:	85 d2                	test   %edx,%edx
    254d:	74 0c                	je     255b <ddf_fun_destroy+0xeb>
    254f:	83 ec 0c             	sub    $0xc,%esp
    2552:	52                   	push   %edx
    2553:	e8 a8 be 00 00       	call   e400 <free@plt>
    2558:	83 c4 10             	add    $0x10,%esp
    255b:	8b 57 14             	mov    0x14(%edi),%edx
    255e:	85 d2                	test   %edx,%edx
    2560:	74 0c                	je     256e <ddf_fun_destroy+0xfe>
    2562:	83 ec 0c             	sub    $0xc,%esp
    2565:	52                   	push   %edx
    2566:	e8 95 be 00 00       	call   e400 <free@plt>
    256b:	83 c4 10             	add    $0x10,%esp
    256e:	83 ec 0c             	sub    $0xc,%esp
    2571:	57                   	push   %edi
    2572:	e8 89 be 00 00       	call   e400 <free@plt>
    2577:	83 c4 10             	add    $0x10,%esp
    257a:	e9 14 ff ff ff       	jmp    2493 <ddf_fun_destroy+0x23>
    257f:	50                   	push   %eax
    2580:	68 ee 02 00 00       	push   $0x2ee
    2585:	68 b7 c0 00 00       	push   $0xc0b7
    258a:	68 36 c1 00 00       	push   $0xc136
    258f:	e8 7c bb 00 00       	call   e110 <assert_abort@plt>
    2594:	8d b6 00 00 00 00    	lea    0x0(%esi),%esi
    259a:	8d bf 00 00 00 00    	lea    0x0(%edi),%edi

000025a0 <ddf_fun_bind>:
    25a0:	55                   	push   %ebp
    25a1:	89 e5                	mov    %esp,%ebp
    25a3:	53                   	push   %ebx
    25a4:	83 ec 14             	sub    $0x14,%esp
    25a7:	8b 5d 08             	mov    0x8(%ebp),%ebx
    25aa:	80 3b 00             	cmpb   $0x0,(%ebx)
    25ad:	0f 85 d2 00 00 00    	jne    2685 <ddf_fun_bind+0xe5>
    25b3:	8b 43 14             	mov    0x14(%ebx),%eax
    25b6:	85 c0                	test   %eax,%eax
    25b8:	0f 84 f1 00 00 00    	je     26af <ddf_fun_bind+0x10f>
    25be:	8b 43 0c             	mov    0xc(%ebx),%eax
    25c1:	85 c0                	test   %eax,%eax
    25c3:	0f 84 d1 00 00 00    	je     269a <ddf_fun_bind+0xfa>
    25c9:	83 ec 0c             	sub    $0xc,%esp
    25cc:	68 1c 03 01 00       	push   $0x1031c
    25d1:	e8 4a be 00 00       	call   e420 <fibril_mutex_lock@plt>
    25d6:	8b 15 2c 03 01 00    	mov    0x1032c,%edx
    25dc:	8d 43 2c             	lea    0x2c(%ebx),%eax
    25df:	89 53 2c             	mov    %edx,0x2c(%ebx)
    25e2:	c7 43 30 2c 03 01 00 	movl   $0x1032c,0x30(%ebx)
    25e9:	89 42 04             	mov    %eax,0x4(%edx)
    25ec:	a3 2c 03 01 00       	mov    %eax,0x1032c
    25f1:	c7 04 24 1c 03 01 00 	movl   $0x1031c,(%esp)
    25f8:	e8 93 bb 00 00       	call   e190 <fibril_mutex_unlock@plt>
    25fd:	8d 43 04             	lea    0x4(%ebx),%eax
    2600:	8b 53 10             	mov    0x10(%ebx),%edx
    2603:	89 04 24             	mov    %eax,(%esp)
    2606:	8b 43 0c             	mov    0xc(%ebx),%eax
    2609:	8b 4b 14             	mov    0x14(%ebx),%ecx
    260c:	8b 00                	mov    (%eax),%eax
    260e:	50                   	push   %eax
    260f:	8d 43 18             	lea    0x18(%ebx),%eax
    2612:	50                   	push   %eax
    2613:	52                   	push   %edx
    2614:	51                   	push   %ecx
    2615:	e8 d6 ba 00 00       	call   e0f0 <devman_add_function@plt>
    261a:	83 c4 20             	add    $0x20,%esp
    261d:	85 c0                	test   %eax,%eax
    261f:	75 0f                	jne    2630 <ddf_fun_bind+0x90>
    2621:	c6 03 01             	movb   $0x1,(%ebx)
    2624:	8b 5d fc             	mov    -0x4(%ebp),%ebx
    2627:	c9                   	leave  
    2628:	c3                   	ret    
    2629:	8d b4 26 00 00 00 00 	lea    0x0(%esi,%eiz,1),%esi
    2630:	83 ec 0c             	sub    $0xc,%esp
    2633:	89 45 f4             	mov    %eax,-0xc(%ebp)
    2636:	68 1c 03 01 00       	push   $0x1031c
    263b:	e8 e0 bd 00 00       	call   e420 <fibril_mutex_lock@plt>
    2640:	8b 4b 2c             	mov    0x2c(%ebx),%ecx
    2643:	83 c4 10             	add    $0x10,%esp
    2646:	8b 45 f4             	mov    -0xc(%ebp),%eax
    2649:	85 c9                	test   %ecx,%ecx
    264b:	74 0f                	je     265c <ddf_fun_bind+0xbc>
    264d:	8b 53 30             	mov    0x30(%ebx),%edx
    2650:	85 d2                	test   %edx,%edx
    2652:	74 08                	je     265c <ddf_fun_bind+0xbc>
    2654:	89 0a                	mov    %ecx,(%edx)
    2656:	8b 4b 2c             	mov    0x2c(%ebx),%ecx
    2659:	89 51 04             	mov    %edx,0x4(%ecx)
    265c:	83 ec 0c             	sub    $0xc,%esp
    265f:	c7 43 2c 00 00 00 00 	movl   $0x0,0x2c(%ebx)
    2666:	c7 43 30 00 00 00 00 	movl   $0x0,0x30(%ebx)
    266d:	89 45 f4             	mov    %eax,-0xc(%ebp)
    2670:	68 1c 03 01 00       	push   $0x1031c
    2675:	e8 16 bb 00 00       	call   e190 <fibril_mutex_unlock@plt>
    267a:	8b 45 f4             	mov    -0xc(%ebp),%eax
    267d:	83 c4 10             	add    $0x10,%esp
    2680:	8b 5d fc             	mov    -0x4(%ebp),%ebx
    2683:	c9                   	leave  
    2684:	c3                   	ret    
    2685:	50                   	push   %eax
    2686:	68 12 03 00 00       	push   $0x312
    268b:	68 b7 c0 00 00       	push   $0xc0b7
    2690:	68 36 c1 00 00       	push   $0xc136
    2695:	e8 76 ba 00 00       	call   e110 <assert_abort@plt>
    269a:	53                   	push   %ebx
    269b:	68 14 03 00 00       	push   $0x314
    26a0:	68 b7 c0 00 00       	push   $0xc0b7
    26a5:	68 75 c1 00 00       	push   $0xc175
    26aa:	e8 61 ba 00 00       	call   e110 <assert_abort@plt>
    26af:	50                   	push   %eax
    26b0:	68 13 03 00 00       	push   $0x313
    26b5:	68 b7 c0 00 00       	push   $0xc0b7
    26ba:	68 63 c1 00 00       	push   $0xc163
    26bf:	e8 4c ba 00 00       	call   e110 <assert_abort@plt>
    26c4:	8d b6 00 00 00 00    	lea    0x0(%esi),%esi
    26ca:	8d bf 00 00 00 00    	lea    0x0(%edi),%edi

000026d0 <ddf_fun_unbind>:
    26d0:	55                   	push   %ebp
    26d1:	89 e5                	mov    %esp,%ebp
    26d3:	53                   	push   %ebx
    26d4:	83 ec 14             	sub    $0x14,%esp
    26d7:	8b 5d 08             	mov    0x8(%ebp),%ebx
    26da:	80 3b 00             	cmpb   $0x0,(%ebx)
    26dd:	74 71                	je     2750 <ddf_fun_unbind+0x80>
    26df:	83 ec 0c             	sub    $0xc,%esp
    26e2:	8b 43 04             	mov    0x4(%ebx),%eax
    26e5:	50                   	push   %eax
    26e6:	e8 65 ba 00 00       	call   e150 <devman_remove_function@plt>
    26eb:	83 c4 10             	add    $0x10,%esp
    26ee:	85 c0                	test   %eax,%eax
    26f0:	74 06                	je     26f8 <ddf_fun_unbind+0x28>
    26f2:	8b 5d fc             	mov    -0x4(%ebp),%ebx
    26f5:	c9                   	leave  
    26f6:	c3                   	ret    
    26f7:	90                   	nop
    26f8:	83 ec 0c             	sub    $0xc,%esp
    26fb:	89 45 f4             	mov    %eax,-0xc(%ebp)
    26fe:	68 1c 03 01 00       	push   $0x1031c
    2703:	e8 18 bd 00 00       	call   e420 <fibril_mutex_lock@plt>
    2708:	8b 4b 2c             	mov    0x2c(%ebx),%ecx
    270b:	83 c4 10             	add    $0x10,%esp
    270e:	8b 45 f4             	mov    -0xc(%ebp),%eax
    2711:	85 c9                	test   %ecx,%ecx
    2713:	74 0f                	je     2724 <ddf_fun_unbind+0x54>
    2715:	8b 53 30             	mov    0x30(%ebx),%edx
    2718:	85 d2                	test   %edx,%edx
    271a:	74 08                	je     2724 <ddf_fun_unbind+0x54>
    271c:	89 0a                	mov    %ecx,(%edx)
    271e:	8b 4b 2c             	mov    0x2c(%ebx),%ecx
    2721:	89 51 04             	mov    %edx,0x4(%ecx)
    2724:	83 ec 0c             	sub    $0xc,%esp
    2727:	c7 43 2c 00 00 00 00 	movl   $0x0,0x2c(%ebx)
    272e:	c7 43 30 00 00 00 00 	movl   $0x0,0x30(%ebx)
    2735:	89 45 f4             	mov    %eax,-0xc(%ebp)
    2738:	68 1c 03 01 00       	push   $0x1031c
    273d:	e8 4e ba 00 00       	call   e190 <fibril_mutex_unlock@plt>
    2742:	c6 03 00             	movb   $0x0,(%ebx)
    2745:	8b 45 f4             	mov    -0xc(%ebp),%eax
    2748:	83 c4 10             	add    $0x10,%esp
    274b:	8b 5d fc             	mov    -0x4(%ebp),%ebx
    274e:	c9                   	leave  
    274f:	c3                   	ret    
    2750:	52                   	push   %edx
    2751:	68 2e 03 00 00       	push   $0x32e
    2756:	68 b7 c0 00 00       	push   $0xc0b7
    275b:	68 86 c1 00 00       	push   $0xc186
    2760:	e8 ab b9 00 00       	call   e110 <assert_abort@plt>
    2765:	8d 74 26 00          	lea    0x0(%esi,%eiz,1),%esi
    2769:	8d bc 27 00 00 00 00 	lea    0x0(%edi,%eiz,1),%edi

00002770 <ddf_fun_online>:
    2770:	55                   	push   %ebp
    2771:	89 e5                	mov    %esp,%ebp
    2773:	83 ec 08             	sub    $0x8,%esp
    2776:	8b 45 08             	mov    0x8(%ebp),%eax
    2779:	80 38 00             	cmpb   $0x0,(%eax)
    277c:	74 0c                	je     278a <ddf_fun_online+0x1a>
    277e:	8b 40 04             	mov    0x4(%eax),%eax
    2781:	89 45 08             	mov    %eax,0x8(%ebp)
    2784:	c9                   	leave  
    2785:	e9 96 b8 00 00       	jmp    e020 <devman_drv_fun_online@plt>
    278a:	50                   	push   %eax
    278b:	68 43 03 00 00       	push   $0x343
    2790:	68 b7 c0 00 00       	push   $0xc0b7
    2795:	68 86 c1 00 00       	push   $0xc186
    279a:	e8 71 b9 00 00       	call   e110 <assert_abort@plt>
    279f:	90                   	nop

000027a0 <ddf_fun_offline>:
    27a0:	55                   	push   %ebp
    27a1:	89 e5                	mov    %esp,%ebp
    27a3:	83 ec 08             	sub    $0x8,%esp
    27a6:	8b 45 08             	mov    0x8(%ebp),%eax
    27a9:	80 38 00             	cmpb   $0x0,(%eax)
    27ac:	74 0c                	je     27ba <ddf_fun_offline+0x1a>
    27ae:	8b 40 04             	mov    0x4(%eax),%eax
    27b1:	89 45 08             	mov    %eax,0x8(%ebp)
    27b4:	c9                   	leave  
    27b5:	e9 66 ba 00 00       	jmp    e220 <devman_drv_fun_offline@plt>
    27ba:	50                   	push   %eax
    27bb:	68 55 03 00 00       	push   $0x355
    27c0:	68 b7 c0 00 00       	push   $0xc0b7
    27c5:	68 86 c1 00 00       	push   $0xc186
    27ca:	e8 41 b9 00 00       	call   e110 <assert_abort@plt>
    27cf:	90                   	nop

000027d0 <ddf_fun_add_match_id>:
    27d0:	55                   	push   %ebp
    27d1:	89 e5                	mov    %esp,%ebp
    27d3:	57                   	push   %edi
    27d4:	56                   	push   %esi
    27d5:	53                   	push   %ebx
    27d6:	83 ec 0c             	sub    $0xc,%esp
    27d9:	8b 5d 08             	mov    0x8(%ebp),%ebx
    27dc:	8b 75 10             	mov    0x10(%ebp),%esi
    27df:	80 3b 00             	cmpb   $0x0,(%ebx)
    27e2:	0f 85 89 00 00 00    	jne    2871 <ddf_fun_add_match_id+0xa1>
    27e8:	83 7b 10 01          	cmpl   $0x1,0x10(%ebx)
    27ec:	75 6e                	jne    285c <ddf_fun_add_match_id+0x8c>
    27ee:	83 ec 0c             	sub    $0xc,%esp
    27f1:	6a 10                	push   $0x10
    27f3:	e8 68 b8 00 00       	call   e060 <malloc@plt>
    27f8:	83 c4 0c             	add    $0xc,%esp
    27fb:	89 c7                	mov    %eax,%edi
    27fd:	6a 10                	push   $0x10
    27ff:	6a 00                	push   $0x0
    2801:	50                   	push   %eax
    2802:	e8 69 ba 00 00       	call   e270 <memset@plt>
    2807:	8b 55 0c             	mov    0xc(%ebp),%edx
    280a:	58                   	pop    %eax
    280b:	52                   	push   %edx
    280c:	e8 9f b9 00 00       	call   e1b0 <str_dup@plt>
    2811:	8d 53 18             	lea    0x18(%ebx),%edx
    2814:	89 47 08             	mov    %eax,0x8(%edi)
    2817:	8b 43 1c             	mov    0x1c(%ebx),%eax
    281a:	83 c4 10             	add    $0x10,%esp
    281d:	89 77 0c             	mov    %esi,0xc(%edi)
    2820:	39 c2                	cmp    %eax,%edx
    2822:	74 18                	je     283c <ddf_fun_add_match_id+0x6c>
    2824:	39 70 0c             	cmp    %esi,0xc(%eax)
    2827:	73 0c                	jae    2835 <ddf_fun_add_match_id+0x65>
    2829:	eb 2d                	jmp    2858 <ddf_fun_add_match_id+0x88>
    282b:	90                   	nop
    282c:	8d 74 26 00          	lea    0x0(%esi,%eiz,1),%esi
    2830:	3b 70 0c             	cmp    0xc(%eax),%esi
    2833:	77 23                	ja     2858 <ddf_fun_add_match_id+0x88>
    2835:	8b 40 04             	mov    0x4(%eax),%eax
    2838:	39 c2                	cmp    %eax,%edx
    283a:	75 f4                	jne    2830 <ddf_fun_add_match_id+0x60>
    283c:	8b 02                	mov    (%edx),%eax
    283e:	89 57 04             	mov    %edx,0x4(%edi)
    2841:	89 07                	mov    %eax,(%edi)
    2843:	8b 02                	mov    (%edx),%eax
    2845:	89 78 04             	mov    %edi,0x4(%eax)
    2848:	89 3a                	mov    %edi,(%edx)
    284a:	8d 65 f4             	lea    -0xc(%ebp),%esp
    284d:	31 c0                	xor    %eax,%eax
    284f:	5b                   	pop    %ebx
    2850:	5e                   	pop    %esi
    2851:	5f                   	pop    %edi
    2852:	5d                   	pop    %ebp
    2853:	c3                   	ret    
    2854:	8d 74 26 00          	lea    0x0(%esi,%eiz,1),%esi
    2858:	89 c2                	mov    %eax,%edx
    285a:	eb e0                	jmp    283c <ddf_fun_add_match_id+0x6c>
    285c:	51                   	push   %ecx
    285d:	68 6f 03 00 00       	push   $0x36f
    2862:	68 b7 c0 00 00       	push   $0xc0b7
    2867:	68 99 c1 00 00       	push   $0xc199
    286c:	e8 9f b8 00 00       	call   e110 <assert_abort@plt>
    2871:	53                   	push   %ebx
    2872:	68 6e 03 00 00       	push   $0x36e
    2877:	68 b7 c0 00 00       	push   $0xc0b7
    287c:	68 36 c1 00 00       	push   $0xc136
    2881:	e8 8a b8 00 00       	call   e110 <assert_abort@plt>
    2886:	8d 76 00             	lea    0x0(%esi),%esi
    2889:	8d bc 27 00 00 00 00 	lea    0x0(%edi,%eiz,1),%edi

00002890 <ddf_fun_set_ops>:
    2890:	55                   	push   %ebp
    2891:	89 e5                	mov    %esp,%ebp
    2893:	83 ec 08             	sub    $0x8,%esp
    2896:	8b 45 08             	mov    0x8(%ebp),%eax
    2899:	8b 48 28             	mov    0x28(%eax),%ecx
    289c:	85 c9                	test   %ecx,%ecx
    289e:	75 08                	jne    28a8 <ddf_fun_set_ops+0x18>
    28a0:	8b 55 0c             	mov    0xc(%ebp),%edx
    28a3:	89 50 24             	mov    %edx,0x24(%eax)
    28a6:	c9                   	leave  
    28a7:	c3                   	ret    
    28a8:	50                   	push   %eax
    28a9:	68 7f 03 00 00       	push   $0x37f
    28ae:	68 b7 c0 00 00       	push   $0xc0b7
    28b3:	68 b1 c1 00 00       	push   $0xc1b1
    28b8:	e8 53 b8 00 00       	call   e110 <assert_abort@plt>
    28bd:	8d 76 00             	lea    0x0(%esi),%esi

000028c0 <ddf_fun_set_conn_handler>:
    28c0:	55                   	push   %ebp
    28c1:	89 e5                	mov    %esp,%ebp
    28c3:	83 ec 08             	sub    $0x8,%esp
    28c6:	8b 45 08             	mov    0x8(%ebp),%eax
    28c9:	8b 48 24             	mov    0x24(%eax),%ecx
    28cc:	85 c9                	test   %ecx,%ecx
    28ce:	75 08                	jne    28d8 <ddf_fun_set_conn_handler+0x18>
    28d0:	8b 55 0c             	mov    0xc(%ebp),%edx
    28d3:	89 50 28             	mov    %edx,0x28(%eax)
    28d6:	c9                   	leave  
    28d7:	c3                   	ret    
    28d8:	50                   	push   %eax
    28d9:	68 89 03 00 00       	push   $0x389
    28de:	68 b7 c0 00 00       	push   $0xc0b7
    28e3:	68 cb c1 00 00       	push   $0xc1cb
    28e8:	e8 23 b8 00 00       	call   e110 <assert_abort@plt>
    28ed:	8d 76 00             	lea    0x0(%esi),%esi

000028f0 <ddf_fun_add_to_category>:
    28f0:	55                   	push   %ebp
    28f1:	89 e5                	mov    %esp,%ebp
    28f3:	83 ec 08             	sub    $0x8,%esp
    28f6:	8b 45 08             	mov    0x8(%ebp),%eax
    28f9:	8b 55 0c             	mov    0xc(%ebp),%edx
    28fc:	80 38 00             	cmpb   $0x0,(%eax)
    28ff:	74 15                	je     2916 <ddf_fun_add_to_category+0x26>
    2901:	83 78 10 02          	cmpl   $0x2,0x10(%eax)
    2905:	75 24                	jne    292b <ddf_fun_add_to_category+0x3b>
    2907:	89 55 0c             	mov    %edx,0xc(%ebp)
    290a:	8b 40 04             	mov    0x4(%eax),%eax
    290d:	89 45 08             	mov    %eax,0x8(%ebp)
    2910:	c9                   	leave  
    2911:	e9 5a b7 00 00       	jmp    e070 <devman_add_device_to_category@plt>
    2916:	52                   	push   %edx
    2917:	68 9c 03 00 00       	push   $0x39c
    291c:	68 b7 c0 00 00       	push   $0xc0b7
    2921:	68 86 c1 00 00       	push   $0xc186
    2926:	e8 e5 b7 00 00       	call   e110 <assert_abort@plt>
    292b:	50                   	push   %eax
    292c:	68 9d 03 00 00       	push   $0x39d
    2931:	68 b7 c0 00 00       	push   $0xc0b7
    2936:	68 dc c1 00 00       	push   $0xc1dc
    293b:	e8 d0 b7 00 00       	call   e110 <assert_abort@plt>

00002940 <ddf_driver_main>:
    2940:	55                   	push   %ebp
    2941:	89 e5                	mov    %esp,%ebp
    2943:	56                   	push   %esi
    2944:	53                   	push   %ebx
    2945:	83 ec 10             	sub    $0x10,%esp
    2948:	8d 75 f4             	lea    -0xc(%ebp),%esi
    294b:	8b 45 08             	mov    0x8(%ebp),%eax
    294e:	56                   	push   %esi
    294f:	a3 6c 05 01 00       	mov    %eax,0x1056c
    2954:	6a 00                	push   $0x0
    2956:	68 a0 1c 00 00       	push   $0x1ca0
    295b:	68 41 26 9b c9       	push   $0xc99b2641
    2960:	e8 0b ba 00 00       	call   e370 <async_create_port@plt>
    2965:	83 c4 10             	add    $0x10,%esp
    2968:	89 c3                	mov    %eax,%ebx
    296a:	85 c0                	test   %eax,%eax
    296c:	74 0a                	je     2978 <ddf_driver_main+0x38>
    296e:	8d 65 f8             	lea    -0x8(%ebp),%esp
    2971:	89 d8                	mov    %ebx,%eax
    2973:	5b                   	pop    %ebx
    2974:	5e                   	pop    %esi
    2975:	5d                   	pop    %ebp
    2976:	c3                   	ret    
    2977:	90                   	nop
    2978:	56                   	push   %esi
    2979:	6a 00                	push   $0x0
    297b:	68 c0 1c 00 00       	push   $0x1cc0
    2980:	68 41 26 9b db       	push   $0xdb9b2641
    2985:	e8 e6 b9 00 00       	call   e370 <async_create_port@plt>
    298a:	83 c4 10             	add    $0x10,%esp
    298d:	89 c3                	mov    %eax,%ebx
    298f:	85 c0                	test   %eax,%eax
    2991:	75 db                	jne    296e <ddf_driver_main+0x2e>
    2993:	51                   	push   %ecx
    2994:	51                   	push   %ecx
    2995:	6a 00                	push   $0x0
    2997:	68 b0 1c 00 00       	push   $0x1cb0
    299c:	e8 3f ba 00 00       	call   e3e0 <async_set_fallback_port_handler@plt>
    29a1:	a1 6c 05 01 00       	mov    0x1056c,%eax
    29a6:	8b 30                	mov    (%eax),%esi
    29a8:	5b                   	pop    %ebx
    29a9:	56                   	push   %esi
    29aa:	e8 b1 b8 00 00       	call   e260 <devman_driver_register@plt>
    29af:	83 c4 10             	add    $0x10,%esp
    29b2:	89 c3                	mov    %eax,%ebx
    29b4:	85 c0                	test   %eax,%eax
    29b6:	74 30                	je     29e8 <ddf_driver_main+0xa8>
    29b8:	b8 f6 c1 00 00       	mov    $0xc1f6,%eax
    29bd:	83 fb f7             	cmp    $0xfffffff7,%ebx
    29c0:	74 0c                	je     29ce <ddf_driver_main+0x8e>
    29c2:	83 ec 0c             	sub    $0xc,%esp
    29c5:	53                   	push   %ebx
    29c6:	e8 55 b9 00 00       	call   e320 <str_error@plt>
    29cb:	83 c4 10             	add    $0x10,%esp
    29ce:	52                   	push   %edx
    29cf:	52                   	push   %edx
    29d0:	50                   	push   %eax
    29d1:	68 84 c3 00 00       	push   $0xc384
    29d6:	e8 a5 b5 00 00       	call   df80 <printf@plt>
    29db:	83 c4 10             	add    $0x10,%esp
    29de:	8d 65 f8             	lea    -0x8(%ebp),%esp
    29e1:	89 d8                	mov    %ebx,%eax
    29e3:	5b                   	pop    %ebx
    29e4:	5e                   	pop    %esi
    29e5:	5d                   	pop    %ebp
    29e6:	c3                   	ret    
    29e7:	90                   	nop
    29e8:	83 ec 0c             	sub    $0xc,%esp
    29eb:	6a 00                	push   $0x0
    29ed:	e8 4e b5 00 00       	call   df40 <task_retval@plt>
    29f2:	83 c4 10             	add    $0x10,%esp
    29f5:	89 c3                	mov    %eax,%ebx
    29f7:	85 c0                	test   %eax,%eax
    29f9:	0f 85 6f ff ff ff    	jne    296e <ddf_driver_main+0x2e>
    29ff:	83 c8 ff             	or     $0xffffffff,%eax
    2a02:	f0 0f c1 05 e4 04 01 	lock xadd %eax,0x104e4
    2a09:	00 
    2a0a:	48                   	dec    %eax
    2a0b:	78 12                	js     2a1f <ddf_driver_main+0xdf>
    2a0d:	83 ec 0c             	sub    $0xc,%esp
    2a10:	6a 03                	push   $0x3
    2a12:	e8 99 b9 00 00       	call   e3b0 <fibril_switch@plt>
    2a17:	83 c4 10             	add    $0x10,%esp
    2a1a:	e9 4f ff ff ff       	jmp    296e <ddf_driver_main+0x2e>
    2a1f:	50                   	push   %eax
    2a20:	6a 0b                	push   $0xb
    2a22:	6a 00                	push   $0x0
    2a24:	6a 00                	push   $0x0
    2a26:	6a 00                	push   $0x0
    2a28:	6a 00                	push   $0x0
    2a2a:	6a 00                	push   $0x0
    2a2c:	68 e4 04 01 00       	push   $0x104e4
    2a31:	ff 15 e0 04 01 00    	call   *0x104e0
    2a37:	83 c4 20             	add    $0x20,%esp
    2a3a:	eb d1                	jmp    2a0d <ddf_driver_main+0xcd>
    2a3c:	66 90                	xchg   %ax,%ax
    2a3e:	66 90                	xchg   %ax,%ax

00002a40 <get_remote_iface>:
    2a40:	55                   	push   %ebp
    2a41:	89 e5                	mov    %esp,%ebp
    2a43:	83 ec 08             	sub    $0x8,%esp
    2a46:	8b 45 08             	mov    0x8(%ebp),%eax
    2a49:	83 f8 0e             	cmp    $0xe,%eax
    2a4c:	77 09                	ja     2a57 <get_remote_iface+0x17>
    2a4e:	8b 04 85 00 c4 00 00 	mov    0xc400(,%eax,4),%eax
    2a55:	c9                   	leave  
    2a56:	c3                   	ret    
    2a57:	50                   	push   %eax
    2a58:	6a 4f                	push   $0x4f
    2a5a:	68 d4 c3 00 00       	push   $0xc3d4
    2a5f:	68 c8 c0 00 00       	push   $0xc0c8
    2a64:	e8 a7 b6 00 00       	call   e110 <assert_abort@plt>
    2a69:	8d b4 26 00 00 00 00 	lea    0x0(%esi,%eiz,1),%esi

00002a70 <get_remote_method>:
    2a70:	55                   	push   %ebp
    2a71:	89 e5                	mov    %esp,%ebp
    2a73:	8b 55 08             	mov    0x8(%ebp),%edx
    2a76:	8b 45 0c             	mov    0xc(%ebp),%eax
    2a79:	39 02                	cmp    %eax,(%edx)
    2a7b:	76 0b                	jbe    2a88 <get_remote_method+0x18>
    2a7d:	8b 52 04             	mov    0x4(%edx),%edx
    2a80:	5d                   	pop    %ebp
    2a81:	8b 04 82             	mov    (%edx,%eax,4),%eax
    2a84:	c3                   	ret    
    2a85:	8d 76 00             	lea    0x0(%esi),%esi
    2a88:	31 c0                	xor    %eax,%eax
    2a8a:	5d                   	pop    %ebp
    2a8b:	c3                   	ret    
    2a8c:	8d 74 26 00          	lea    0x0(%esi,%eiz,1),%esi

00002a90 <is_valid_iface_idx>:
    2a90:	55                   	push   %ebp
    2a91:	89 e5                	mov    %esp,%ebp
    2a93:	83 7d 08 0e          	cmpl   $0xe,0x8(%ebp)
    2a97:	5d                   	pop    %ebp
    2a98:	0f 96 c0             	setbe  %al
    2a9b:	c3                   	ret    
    2a9c:	66 90                	xchg   %ax,%ax
    2a9e:	66 90                	xchg   %ax,%ax

00002aa0 <remote_audio_mixer_set_item_level>:
    2aa0:	55                   	push   %ebp
    2aa1:	89 e5                	mov    %esp,%ebp
    2aa3:	53                   	push   %ebx
    2aa4:	51                   	push   %ecx
    2aa5:	8b 45 0c             	mov    0xc(%ebp),%eax
    2aa8:	8b 4d 08             	mov    0x8(%ebp),%ecx
    2aab:	8b 5d 10             	mov    0x10(%ebp),%ebx
    2aae:	8b 55 14             	mov    0x14(%ebp),%edx
    2ab1:	8b 40 0c             	mov    0xc(%eax),%eax
    2ab4:	85 c0                	test   %eax,%eax
    2ab6:	74 20                	je     2ad8 <remote_audio_mixer_set_item_level+0x38>
    2ab8:	83 ec 04             	sub    $0x4,%esp
    2abb:	ff 72 0c             	pushl  0xc(%edx)
    2abe:	8b 52 08             	mov    0x8(%edx),%edx
    2ac1:	52                   	push   %edx
    2ac2:	51                   	push   %ecx
    2ac3:	ff d0                	call   *%eax
    2ac5:	89 5d 08             	mov    %ebx,0x8(%ebp)
    2ac8:	83 c4 10             	add    $0x10,%esp
    2acb:	8b 5d fc             	mov    -0x4(%ebp),%ebx
    2ace:	89 45 0c             	mov    %eax,0xc(%ebp)
    2ad1:	c9                   	leave  
    2ad2:	e9 d9 b5 00 00       	jmp    e0b0 <async_answer_0@plt>
    2ad7:	90                   	nop
    2ad8:	89 5d 08             	mov    %ebx,0x8(%ebp)
    2adb:	8b 5d fc             	mov    -0x4(%ebp),%ebx
    2ade:	c7 45 0c f5 ff ff ff 	movl   $0xfffffff5,0xc(%ebp)
    2ae5:	c9                   	leave  
    2ae6:	e9 c5 b5 00 00       	jmp    e0b0 <async_answer_0@plt>
    2aeb:	90                   	nop
    2aec:	8d 74 26 00          	lea    0x0(%esi,%eiz,1),%esi

00002af0 <remote_audio_mixer_get_item_level>:
    2af0:	55                   	push   %ebp
    2af1:	89 e5                	mov    %esp,%ebp
    2af3:	83 ec 18             	sub    $0x18,%esp
    2af6:	8b 45 0c             	mov    0xc(%ebp),%eax
    2af9:	8b 40 08             	mov    0x8(%eax),%eax
    2afc:	85 c0                	test   %eax,%eax
    2afe:	74 30                	je     2b30 <remote_audio_mixer_get_item_level+0x40>
    2b00:	8b 55 14             	mov    0x14(%ebp),%edx
    2b03:	c7 45 f4 00 00 00 00 	movl   $0x0,-0xc(%ebp)
    2b0a:	8b 52 08             	mov    0x8(%edx),%edx
    2b0d:	51                   	push   %ecx
    2b0e:	8d 4d f4             	lea    -0xc(%ebp),%ecx
    2b11:	51                   	push   %ecx
    2b12:	52                   	push   %edx
    2b13:	8b 55 08             	mov    0x8(%ebp),%edx
    2b16:	52                   	push   %edx
    2b17:	ff d0                	call   *%eax
    2b19:	83 c4 0c             	add    $0xc,%esp
    2b1c:	8b 4d f4             	mov    -0xc(%ebp),%ecx
    2b1f:	51                   	push   %ecx
    2b20:	50                   	push   %eax
    2b21:	8b 45 10             	mov    0x10(%ebp),%eax
    2b24:	50                   	push   %eax
    2b25:	e8 d6 b7 00 00       	call   e300 <async_answer_1@plt>
    2b2a:	83 c4 10             	add    $0x10,%esp
    2b2d:	c9                   	leave  
    2b2e:	c3                   	ret    
    2b2f:	90                   	nop
    2b30:	50                   	push   %eax
    2b31:	50                   	push   %eax
    2b32:	8b 45 10             	mov    0x10(%ebp),%eax
    2b35:	6a f5                	push   $0xfffffff5
    2b37:	50                   	push   %eax
    2b38:	e8 73 b5 00 00       	call   e0b0 <async_answer_0@plt>
    2b3d:	83 c4 10             	add    $0x10,%esp
    2b40:	c9                   	leave  
    2b41:	c3                   	ret    
    2b42:	8d b4 26 00 00 00 00 	lea    0x0(%esi,%eiz,1),%esi
    2b49:	8d bc 27 00 00 00 00 	lea    0x0(%edi,%eiz,1),%edi

00002b50 <remote_audio_mixer_get_item_info>:
    2b50:	55                   	push   %ebp
    2b51:	89 e5                	mov    %esp,%ebp
    2b53:	56                   	push   %esi
    2b54:	53                   	push   %ebx
    2b55:	83 ec 10             	sub    $0x10,%esp
    2b58:	8b 45 0c             	mov    0xc(%ebp),%eax
    2b5b:	8b 40 04             	mov    0x4(%eax),%eax
    2b5e:	85 c0                	test   %eax,%eax
    2b60:	0f 84 c2 00 00 00    	je     2c28 <remote_audio_mixer_get_item_info+0xd8>
    2b66:	8b 55 14             	mov    0x14(%ebp),%edx
    2b69:	8d 4d ec             	lea    -0x14(%ebp),%ecx
    2b6c:	c7 45 e8 00 00 00 00 	movl   $0x0,-0x18(%ebp)
    2b73:	c7 45 ec 00 00 00 00 	movl   $0x0,-0x14(%ebp)
    2b7a:	8b 52 08             	mov    0x8(%edx),%edx
    2b7d:	51                   	push   %ecx
    2b7e:	8d 4d e8             	lea    -0x18(%ebp),%ecx
    2b81:	51                   	push   %ecx
    2b82:	8b 4d 08             	mov    0x8(%ebp),%ecx
    2b85:	52                   	push   %edx
    2b86:	51                   	push   %ecx
    2b87:	ff d0                	call   *%eax
    2b89:	83 c4 10             	add    $0x10,%esp
    2b8c:	89 c6                	mov    %eax,%esi
    2b8e:	8b 45 e8             	mov    -0x18(%ebp),%eax
    2b91:	85 c0                	test   %eax,%eax
    2b93:	74 5b                	je     2bf0 <remote_audio_mixer_get_item_info+0xa0>
    2b95:	83 ec 0c             	sub    $0xc,%esp
    2b98:	50                   	push   %eax
    2b99:	e8 42 b7 00 00       	call   e2e0 <str_size@plt>
    2b9e:	8b 55 10             	mov    0x10(%ebp),%edx
    2ba1:	8d 58 01             	lea    0x1(%eax),%ebx
    2ba4:	8b 45 ec             	mov    -0x14(%ebp),%eax
    2ba7:	50                   	push   %eax
    2ba8:	53                   	push   %ebx
    2ba9:	56                   	push   %esi
    2baa:	52                   	push   %edx
    2bab:	e8 d0 b5 00 00       	call   e180 <async_answer_2@plt>
    2bb0:	83 c4 20             	add    $0x20,%esp
    2bb3:	85 f6                	test   %esi,%esi
    2bb5:	75 2f                	jne    2be6 <remote_audio_mixer_get_item_info+0x96>
    2bb7:	85 db                	test   %ebx,%ebx
    2bb9:	74 2b                	je     2be6 <remote_audio_mixer_get_item_info+0x96>
    2bbb:	50                   	push   %eax
    2bbc:	50                   	push   %eax
    2bbd:	8d 45 f0             	lea    -0x10(%ebp),%eax
    2bc0:	50                   	push   %eax
    2bc1:	8d 45 f4             	lea    -0xc(%ebp),%eax
    2bc4:	50                   	push   %eax
    2bc5:	e8 b6 b6 00 00       	call   e280 <async_data_read_receive@plt>
    2bca:	83 c4 10             	add    $0x10,%esp
    2bcd:	84 c0                	test   %al,%al
    2bcf:	74 6f                	je     2c40 <remote_audio_mixer_get_item_info+0xf0>
    2bd1:	3b 5d f0             	cmp    -0x10(%ebp),%ebx
    2bd4:	74 3a                	je     2c10 <remote_audio_mixer_get_item_info+0xc0>
    2bd6:	50                   	push   %eax
    2bd7:	50                   	push   %eax
    2bd8:	8b 45 f4             	mov    -0xc(%ebp),%eax
    2bdb:	6a fd                	push   $0xfffffffd
    2bdd:	50                   	push   %eax
    2bde:	e8 cd b4 00 00       	call   e0b0 <async_answer_0@plt>
    2be3:	83 c4 10             	add    $0x10,%esp
    2be6:	8d 65 f8             	lea    -0x8(%ebp),%esp
    2be9:	5b                   	pop    %ebx
    2bea:	5e                   	pop    %esi
    2beb:	5d                   	pop    %ebp
    2bec:	c3                   	ret    
    2bed:	8d 76 00             	lea    0x0(%esi),%esi
    2bf0:	8b 45 ec             	mov    -0x14(%ebp),%eax
    2bf3:	8b 55 10             	mov    0x10(%ebp),%edx
    2bf6:	50                   	push   %eax
    2bf7:	6a 00                	push   $0x0
    2bf9:	56                   	push   %esi
    2bfa:	52                   	push   %edx
    2bfb:	e8 80 b5 00 00       	call   e180 <async_answer_2@plt>
    2c00:	83 c4 10             	add    $0x10,%esp
    2c03:	8d 65 f8             	lea    -0x8(%ebp),%esp
    2c06:	5b                   	pop    %ebx
    2c07:	5e                   	pop    %esi
    2c08:	5d                   	pop    %ebp
    2c09:	c3                   	ret    
    2c0a:	8d b6 00 00 00 00    	lea    0x0(%esi),%esi
    2c10:	8b 75 f4             	mov    -0xc(%ebp),%esi
    2c13:	51                   	push   %ecx
    2c14:	53                   	push   %ebx
    2c15:	8b 5d e8             	mov    -0x18(%ebp),%ebx
    2c18:	53                   	push   %ebx
    2c19:	56                   	push   %esi
    2c1a:	e8 11 b4 00 00       	call   e030 <async_data_read_finalize@plt>
    2c1f:	83 c4 10             	add    $0x10,%esp
    2c22:	eb c2                	jmp    2be6 <remote_audio_mixer_get_item_info+0x96>
    2c24:	8d 74 26 00          	lea    0x0(%esi,%eiz,1),%esi
    2c28:	8b 75 10             	mov    0x10(%ebp),%esi
    2c2b:	53                   	push   %ebx
    2c2c:	53                   	push   %ebx
    2c2d:	6a f5                	push   $0xfffffff5
    2c2f:	56                   	push   %esi
    2c30:	e8 7b b4 00 00       	call   e0b0 <async_answer_0@plt>
    2c35:	83 c4 10             	add    $0x10,%esp
    2c38:	8d 65 f8             	lea    -0x8(%ebp),%esp
    2c3b:	5b                   	pop    %ebx
    2c3c:	5e                   	pop    %esi
    2c3d:	5d                   	pop    %ebp
    2c3e:	c3                   	ret    
    2c3f:	90                   	nop
    2c40:	50                   	push   %eax
    2c41:	50                   	push   %eax
    2c42:	8b 45 f4             	mov    -0xc(%ebp),%eax
    2c45:	6a f8                	push   $0xfffffff8
    2c47:	50                   	push   %eax
    2c48:	e8 63 b4 00 00       	call   e0b0 <async_answer_0@plt>
    2c4d:	83 c4 10             	add    $0x10,%esp
    2c50:	eb 94                	jmp    2be6 <remote_audio_mixer_get_item_info+0x96>
    2c52:	8d b4 26 00 00 00 00 	lea    0x0(%esi,%eiz,1),%esi
    2c59:	8d bc 27 00 00 00 00 	lea    0x0(%edi,%eiz,1),%edi

00002c60 <remote_audio_mixer_get_info>:
    2c60:	55                   	push   %ebp
    2c61:	89 e5                	mov    %esp,%ebp
    2c63:	56                   	push   %esi
    2c64:	53                   	push   %ebx
    2c65:	83 ec 10             	sub    $0x10,%esp
    2c68:	8b 45 0c             	mov    0xc(%ebp),%eax
    2c6b:	8b 00                	mov    (%eax),%eax
    2c6d:	85 c0                	test   %eax,%eax
    2c6f:	0f 84 bb 00 00 00    	je     2d30 <remote_audio_mixer_get_info+0xd0>
    2c75:	8d 55 ec             	lea    -0x14(%ebp),%edx
    2c78:	8b 5d 08             	mov    0x8(%ebp),%ebx
    2c7b:	c7 45 e8 00 00 00 00 	movl   $0x0,-0x18(%ebp)
    2c82:	c7 45 ec 00 00 00 00 	movl   $0x0,-0x14(%ebp)
    2c89:	51                   	push   %ecx
    2c8a:	52                   	push   %edx
    2c8b:	8d 55 e8             	lea    -0x18(%ebp),%edx
    2c8e:	52                   	push   %edx
    2c8f:	53                   	push   %ebx
    2c90:	ff d0                	call   *%eax
    2c92:	83 c4 10             	add    $0x10,%esp
    2c95:	89 c6                	mov    %eax,%esi
    2c97:	8b 45 e8             	mov    -0x18(%ebp),%eax
    2c9a:	85 c0                	test   %eax,%eax
    2c9c:	74 5a                	je     2cf8 <remote_audio_mixer_get_info+0x98>
    2c9e:	83 ec 0c             	sub    $0xc,%esp
    2ca1:	50                   	push   %eax
    2ca2:	e8 39 b6 00 00       	call   e2e0 <str_size@plt>
    2ca7:	8b 55 10             	mov    0x10(%ebp),%edx
    2caa:	8d 58 01             	lea    0x1(%eax),%ebx
    2cad:	8b 45 ec             	mov    -0x14(%ebp),%eax
    2cb0:	50                   	push   %eax
    2cb1:	53                   	push   %ebx
    2cb2:	56                   	push   %esi
    2cb3:	52                   	push   %edx
    2cb4:	e8 c7 b4 00 00       	call   e180 <async_answer_2@plt>
    2cb9:	83 c4 20             	add    $0x20,%esp
    2cbc:	85 f6                	test   %esi,%esi
    2cbe:	75 2f                	jne    2cef <remote_audio_mixer_get_info+0x8f>
    2cc0:	85 db                	test   %ebx,%ebx
    2cc2:	74 2b                	je     2cef <remote_audio_mixer_get_info+0x8f>
    2cc4:	50                   	push   %eax
    2cc5:	50                   	push   %eax
    2cc6:	8d 45 f0             	lea    -0x10(%ebp),%eax
    2cc9:	50                   	push   %eax
    2cca:	8d 45 f4             	lea    -0xc(%ebp),%eax
    2ccd:	50                   	push   %eax
    2cce:	e8 ad b5 00 00       	call   e280 <async_data_read_receive@plt>
    2cd3:	83 c4 10             	add    $0x10,%esp
    2cd6:	84 c0                	test   %al,%al
    2cd8:	74 6e                	je     2d48 <remote_audio_mixer_get_info+0xe8>
    2cda:	3b 5d f0             	cmp    -0x10(%ebp),%ebx
    2cdd:	74 39                	je     2d18 <remote_audio_mixer_get_info+0xb8>
    2cdf:	50                   	push   %eax
    2ce0:	50                   	push   %eax
    2ce1:	8b 45 f4             	mov    -0xc(%ebp),%eax
    2ce4:	6a fd                	push   $0xfffffffd
    2ce6:	50                   	push   %eax
    2ce7:	e8 c4 b3 00 00       	call   e0b0 <async_answer_0@plt>
    2cec:	83 c4 10             	add    $0x10,%esp
    2cef:	8d 65 f8             	lea    -0x8(%ebp),%esp
    2cf2:	5b                   	pop    %ebx
    2cf3:	5e                   	pop    %esi
    2cf4:	5d                   	pop    %ebp
    2cf5:	c3                   	ret    
    2cf6:	66 90                	xchg   %ax,%ax
    2cf8:	8b 45 ec             	mov    -0x14(%ebp),%eax
    2cfb:	8b 55 10             	mov    0x10(%ebp),%edx
    2cfe:	50                   	push   %eax
    2cff:	6a 00                	push   $0x0
    2d01:	56                   	push   %esi
    2d02:	52                   	push   %edx
    2d03:	e8 78 b4 00 00       	call   e180 <async_answer_2@plt>
    2d08:	83 c4 10             	add    $0x10,%esp
    2d0b:	8d 65 f8             	lea    -0x8(%ebp),%esp
    2d0e:	5b                   	pop    %ebx
    2d0f:	5e                   	pop    %esi
    2d10:	5d                   	pop    %ebp
    2d11:	c3                   	ret    
    2d12:	8d b6 00 00 00 00    	lea    0x0(%esi),%esi
    2d18:	8b 75 f4             	mov    -0xc(%ebp),%esi
    2d1b:	51                   	push   %ecx
    2d1c:	53                   	push   %ebx
    2d1d:	8b 5d e8             	mov    -0x18(%ebp),%ebx
    2d20:	53                   	push   %ebx
    2d21:	56                   	push   %esi
    2d22:	e8 09 b3 00 00       	call   e030 <async_data_read_finalize@plt>
    2d27:	83 c4 10             	add    $0x10,%esp
    2d2a:	eb c3                	jmp    2cef <remote_audio_mixer_get_info+0x8f>
    2d2c:	8d 74 26 00          	lea    0x0(%esi,%eiz,1),%esi
    2d30:	8b 45 10             	mov    0x10(%ebp),%eax
    2d33:	56                   	push   %esi
    2d34:	56                   	push   %esi
    2d35:	6a f5                	push   $0xfffffff5
    2d37:	50                   	push   %eax
    2d38:	e8 73 b3 00 00       	call   e0b0 <async_answer_0@plt>
    2d3d:	83 c4 10             	add    $0x10,%esp
    2d40:	8d 65 f8             	lea    -0x8(%ebp),%esp
    2d43:	5b                   	pop    %ebx
    2d44:	5e                   	pop    %esi
    2d45:	5d                   	pop    %ebp
    2d46:	c3                   	ret    
    2d47:	90                   	nop
    2d48:	50                   	push   %eax
    2d49:	50                   	push   %eax
    2d4a:	8b 45 f4             	mov    -0xc(%ebp),%eax
    2d4d:	6a f8                	push   $0xfffffff8
    2d4f:	50                   	push   %eax
    2d50:	e8 5b b3 00 00       	call   e0b0 <async_answer_0@plt>
    2d55:	83 c4 10             	add    $0x10,%esp
    2d58:	eb 95                	jmp    2cef <remote_audio_mixer_get_info+0x8f>
    2d5a:	8d b6 00 00 00 00    	lea    0x0(%esi),%esi

00002d60 <audio_mixer_get_info>:
    2d60:	55                   	push   %ebp
    2d61:	89 e5                	mov    %esp,%ebp
    2d63:	57                   	push   %edi
    2d64:	56                   	push   %esi
    2d65:	53                   	push   %ebx
    2d66:	83 ec 2c             	sub    $0x2c,%esp
    2d69:	8b 75 08             	mov    0x8(%ebp),%esi
    2d6c:	85 f6                	test   %esi,%esi
    2d6e:	0f 84 bc 00 00 00    	je     2e30 <audio_mixer_get_info+0xd0>
    2d74:	50                   	push   %eax
    2d75:	8d 45 e4             	lea    -0x1c(%ebp),%eax
    2d78:	6a 00                	push   $0x0
    2d7a:	6a 00                	push   $0x0
    2d7c:	6a 00                	push   $0x0
    2d7e:	50                   	push   %eax
    2d7f:	8d 45 e0             	lea    -0x20(%ebp),%eax
    2d82:	50                   	push   %eax
    2d83:	6a 00                	push   $0x0
    2d85:	6a 00                	push   $0x0
    2d87:	6a 00                	push   $0x0
    2d89:	6a 00                	push   $0x0
    2d8b:	68 03 04 00 00       	push   $0x403
    2d90:	56                   	push   %esi
    2d91:	e8 fa b2 00 00       	call   e090 <async_req_fast@plt>
    2d96:	83 c4 30             	add    $0x30,%esp
    2d99:	89 c3                	mov    %eax,%ebx
    2d9b:	85 c0                	test   %eax,%eax
    2d9d:	8b 45 0c             	mov    0xc(%ebp),%eax
    2da0:	0f 94 c2             	sete   %dl
    2da3:	85 c0                	test   %eax,%eax
    2da5:	74 04                	je     2dab <audio_mixer_get_info+0x4b>
    2da7:	84 d2                	test   %dl,%dl
    2da9:	75 1d                	jne    2dc8 <audio_mixer_get_info+0x68>
    2dab:	8b 45 10             	mov    0x10(%ebp),%eax
    2dae:	85 c0                	test   %eax,%eax
    2db0:	74 57                	je     2e09 <audio_mixer_get_info+0xa9>
    2db2:	84 d2                	test   %dl,%dl
    2db4:	74 53                	je     2e09 <audio_mixer_get_info+0xa9>
    2db6:	8b 4d 10             	mov    0x10(%ebp),%ecx
    2db9:	8b 45 e4             	mov    -0x1c(%ebp),%eax
    2dbc:	89 01                	mov    %eax,(%ecx)
    2dbe:	89 d8                	mov    %ebx,%eax
    2dc0:	8d 65 f4             	lea    -0xc(%ebp),%esp
    2dc3:	5b                   	pop    %ebx
    2dc4:	5e                   	pop    %esi
    2dc5:	5f                   	pop    %edi
    2dc6:	5d                   	pop    %ebp
    2dc7:	c3                   	ret    
    2dc8:	8b 45 e0             	mov    -0x20(%ebp),%eax
    2dcb:	88 55 d4             	mov    %dl,-0x2c(%ebp)
    2dce:	57                   	push   %edi
    2dcf:	57                   	push   %edi
    2dd0:	50                   	push   %eax
    2dd1:	6a 01                	push   $0x1
    2dd3:	e8 58 b3 00 00       	call   e130 <calloc@plt>
    2dd8:	83 c4 10             	add    $0x10,%esp
    2ddb:	89 c7                	mov    %eax,%edi
    2ddd:	85 c0                	test   %eax,%eax
    2ddf:	8a 55 d4             	mov    -0x2c(%ebp),%dl
    2de2:	74 53                	je     2e37 <audio_mixer_get_info+0xd7>
    2de4:	8b 4d e0             	mov    -0x20(%ebp),%ecx
    2de7:	88 55 d4             	mov    %dl,-0x2c(%ebp)
    2dea:	52                   	push   %edx
    2deb:	51                   	push   %ecx
    2dec:	50                   	push   %eax
    2ded:	56                   	push   %esi
    2dee:	e8 9d b4 00 00       	call   e290 <async_data_read_start@plt>
    2df3:	83 c4 10             	add    $0x10,%esp
    2df6:	8a 55 d4             	mov    -0x2c(%ebp),%dl
    2df9:	85 c0                	test   %eax,%eax
    2dfb:	75 1b                	jne    2e18 <audio_mixer_get_info+0xb8>
    2dfd:	8b 45 0c             	mov    0xc(%ebp),%eax
    2e00:	89 38                	mov    %edi,(%eax)
    2e02:	8b 45 10             	mov    0x10(%ebp),%eax
    2e05:	85 c0                	test   %eax,%eax
    2e07:	75 a9                	jne    2db2 <audio_mixer_get_info+0x52>
    2e09:	8d 65 f4             	lea    -0xc(%ebp),%esp
    2e0c:	89 d8                	mov    %ebx,%eax
    2e0e:	5b                   	pop    %ebx
    2e0f:	5e                   	pop    %esi
    2e10:	5f                   	pop    %edi
    2e11:	5d                   	pop    %ebp
    2e12:	c3                   	ret    
    2e13:	90                   	nop
    2e14:	8d 74 26 00          	lea    0x0(%esi,%eiz,1),%esi
    2e18:	83 ec 0c             	sub    $0xc,%esp
    2e1b:	89 45 d4             	mov    %eax,-0x2c(%ebp)
    2e1e:	57                   	push   %edi
    2e1f:	e8 dc b5 00 00       	call   e400 <free@plt>
    2e24:	83 c4 10             	add    $0x10,%esp
    2e27:	8b 45 d4             	mov    -0x2c(%ebp),%eax
    2e2a:	eb 94                	jmp    2dc0 <audio_mixer_get_info+0x60>
    2e2c:	8d 74 26 00          	lea    0x0(%esi,%eiz,1),%esi
    2e30:	b8 f2 ff ff ff       	mov    $0xfffffff2,%eax
    2e35:	eb 89                	jmp    2dc0 <audio_mixer_get_info+0x60>
    2e37:	53                   	push   %ebx
    2e38:	6a 00                	push   $0x0
    2e3a:	6a ff                	push   $0xffffffff
    2e3c:	56                   	push   %esi
    2e3d:	e8 4e b4 00 00       	call   e290 <async_data_read_start@plt>
    2e42:	83 c4 10             	add    $0x10,%esp
    2e45:	b8 fe ff ff ff       	mov    $0xfffffffe,%eax
    2e4a:	e9 71 ff ff ff       	jmp    2dc0 <audio_mixer_get_info+0x60>
    2e4f:	90                   	nop

00002e50 <audio_mixer_get_item_info>:
    2e50:	55                   	push   %ebp
    2e51:	89 e5                	mov    %esp,%ebp
    2e53:	57                   	push   %edi
    2e54:	56                   	push   %esi
    2e55:	53                   	push   %ebx
    2e56:	83 ec 2c             	sub    $0x2c,%esp
    2e59:	8b 75 08             	mov    0x8(%ebp),%esi
    2e5c:	85 f6                	test   %esi,%esi
    2e5e:	0f 84 c4 00 00 00    	je     2f28 <audio_mixer_get_item_info+0xd8>
    2e64:	50                   	push   %eax
    2e65:	8d 45 e4             	lea    -0x1c(%ebp),%eax
    2e68:	6a 00                	push   $0x0
    2e6a:	6a 00                	push   $0x0
    2e6c:	6a 00                	push   $0x0
    2e6e:	50                   	push   %eax
    2e6f:	8d 45 e0             	lea    -0x20(%ebp),%eax
    2e72:	50                   	push   %eax
    2e73:	8b 45 0c             	mov    0xc(%ebp),%eax
    2e76:	6a 00                	push   $0x0
    2e78:	6a 00                	push   $0x0
    2e7a:	50                   	push   %eax
    2e7b:	6a 01                	push   $0x1
    2e7d:	68 03 04 00 00       	push   $0x403
    2e82:	56                   	push   %esi
    2e83:	e8 08 b2 00 00       	call   e090 <async_req_fast@plt>
    2e88:	83 c4 30             	add    $0x30,%esp
    2e8b:	89 c3                	mov    %eax,%ebx
    2e8d:	85 c0                	test   %eax,%eax
    2e8f:	8b 45 10             	mov    0x10(%ebp),%eax
    2e92:	0f 94 c2             	sete   %dl
    2e95:	85 c0                	test   %eax,%eax
    2e97:	74 04                	je     2e9d <audio_mixer_get_item_info+0x4d>
    2e99:	84 d2                	test   %dl,%dl
    2e9b:	75 23                	jne    2ec0 <audio_mixer_get_item_info+0x70>
    2e9d:	8b 45 14             	mov    0x14(%ebp),%eax
    2ea0:	85 c0                	test   %eax,%eax
    2ea2:	74 5d                	je     2f01 <audio_mixer_get_item_info+0xb1>
    2ea4:	84 d2                	test   %dl,%dl
    2ea6:	74 59                	je     2f01 <audio_mixer_get_item_info+0xb1>
    2ea8:	8b 4d 14             	mov    0x14(%ebp),%ecx
    2eab:	8b 45 e4             	mov    -0x1c(%ebp),%eax
    2eae:	89 01                	mov    %eax,(%ecx)
    2eb0:	89 d8                	mov    %ebx,%eax
    2eb2:	8d 65 f4             	lea    -0xc(%ebp),%esp
    2eb5:	5b                   	pop    %ebx
    2eb6:	5e                   	pop    %esi
    2eb7:	5f                   	pop    %edi
    2eb8:	5d                   	pop    %ebp
    2eb9:	c3                   	ret    
    2eba:	8d b6 00 00 00 00    	lea    0x0(%esi),%esi
    2ec0:	8b 45 e0             	mov    -0x20(%ebp),%eax
    2ec3:	88 55 d4             	mov    %dl,-0x2c(%ebp)
    2ec6:	57                   	push   %edi
    2ec7:	57                   	push   %edi
    2ec8:	50                   	push   %eax
    2ec9:	6a 01                	push   $0x1
    2ecb:	e8 60 b2 00 00       	call   e130 <calloc@plt>
    2ed0:	83 c4 10             	add    $0x10,%esp
    2ed3:	89 c7                	mov    %eax,%edi
    2ed5:	85 c0                	test   %eax,%eax
    2ed7:	8a 55 d4             	mov    -0x2c(%ebp),%dl
    2eda:	74 53                	je     2f2f <audio_mixer_get_item_info+0xdf>
    2edc:	8b 4d e0             	mov    -0x20(%ebp),%ecx
    2edf:	88 55 d4             	mov    %dl,-0x2c(%ebp)
    2ee2:	52                   	push   %edx
    2ee3:	51                   	push   %ecx
    2ee4:	50                   	push   %eax
    2ee5:	56                   	push   %esi
    2ee6:	e8 a5 b3 00 00       	call   e290 <async_data_read_start@plt>
    2eeb:	83 c4 10             	add    $0x10,%esp
    2eee:	8a 55 d4             	mov    -0x2c(%ebp),%dl
    2ef1:	85 c0                	test   %eax,%eax
    2ef3:	75 1b                	jne    2f10 <audio_mixer_get_item_info+0xc0>
    2ef5:	8b 45 10             	mov    0x10(%ebp),%eax
    2ef8:	89 38                	mov    %edi,(%eax)
    2efa:	8b 45 14             	mov    0x14(%ebp),%eax
    2efd:	85 c0                	test   %eax,%eax
    2eff:	75 a3                	jne    2ea4 <audio_mixer_get_item_info+0x54>
    2f01:	8d 65 f4             	lea    -0xc(%ebp),%esp
    2f04:	89 d8                	mov    %ebx,%eax
    2f06:	5b                   	pop    %ebx
    2f07:	5e                   	pop    %esi
    2f08:	5f                   	pop    %edi
    2f09:	5d                   	pop    %ebp
    2f0a:	c3                   	ret    
    2f0b:	90                   	nop
    2f0c:	8d 74 26 00          	lea    0x0(%esi,%eiz,1),%esi
    2f10:	83 ec 0c             	sub    $0xc,%esp
    2f13:	89 45 d4             	mov    %eax,-0x2c(%ebp)
    2f16:	57                   	push   %edi
    2f17:	e8 e4 b4 00 00       	call   e400 <free@plt>
    2f1c:	83 c4 10             	add    $0x10,%esp
    2f1f:	8b 45 d4             	mov    -0x2c(%ebp),%eax
    2f22:	eb 8e                	jmp    2eb2 <audio_mixer_get_item_info+0x62>
    2f24:	8d 74 26 00          	lea    0x0(%esi,%eiz,1),%esi
    2f28:	b8 f2 ff ff ff       	mov    $0xfffffff2,%eax
    2f2d:	eb 83                	jmp    2eb2 <audio_mixer_get_item_info+0x62>
    2f2f:	53                   	push   %ebx
    2f30:	6a 00                	push   $0x0
    2f32:	6a ff                	push   $0xffffffff
    2f34:	56                   	push   %esi
    2f35:	e8 56 b3 00 00       	call   e290 <async_data_read_start@plt>
    2f3a:	83 c4 10             	add    $0x10,%esp
    2f3d:	b8 fe ff ff ff       	mov    $0xfffffffe,%eax
    2f42:	e9 6b ff ff ff       	jmp    2eb2 <audio_mixer_get_item_info+0x62>
    2f47:	89 f6                	mov    %esi,%esi
    2f49:	8d bc 27 00 00 00 00 	lea    0x0(%edi,%eiz,1),%edi

00002f50 <audio_mixer_set_item_level>:
    2f50:	55                   	push   %ebp
    2f51:	89 e5                	mov    %esp,%ebp
    2f53:	83 ec 08             	sub    $0x8,%esp
    2f56:	8b 45 08             	mov    0x8(%ebp),%eax
    2f59:	85 c0                	test   %eax,%eax
    2f5b:	74 2b                	je     2f88 <audio_mixer_set_item_level+0x38>
    2f5d:	8b 4d 10             	mov    0x10(%ebp),%ecx
    2f60:	52                   	push   %edx
    2f61:	8b 55 0c             	mov    0xc(%ebp),%edx
    2f64:	6a 00                	push   $0x0
    2f66:	6a 00                	push   $0x0
    2f68:	6a 00                	push   $0x0
    2f6a:	6a 00                	push   $0x0
    2f6c:	6a 00                	push   $0x0
    2f6e:	6a 00                	push   $0x0
    2f70:	51                   	push   %ecx
    2f71:	52                   	push   %edx
    2f72:	6a 02                	push   $0x2
    2f74:	68 03 04 00 00       	push   $0x403
    2f79:	50                   	push   %eax
    2f7a:	e8 11 b1 00 00       	call   e090 <async_req_fast@plt>
    2f7f:	83 c4 30             	add    $0x30,%esp
    2f82:	c9                   	leave  
    2f83:	c3                   	ret    
    2f84:	8d 74 26 00          	lea    0x0(%esi,%eiz,1),%esi
    2f88:	b8 f2 ff ff ff       	mov    $0xfffffff2,%eax
    2f8d:	c9                   	leave  
    2f8e:	c3                   	ret    
    2f8f:	90                   	nop

00002f90 <audio_mixer_get_item_level>:
    2f90:	55                   	push   %ebp
    2f91:	89 e5                	mov    %esp,%ebp
    2f93:	53                   	push   %ebx
    2f94:	83 ec 14             	sub    $0x14,%esp
    2f97:	8b 45 08             	mov    0x8(%ebp),%eax
    2f9a:	8b 5d 10             	mov    0x10(%ebp),%ebx
    2f9d:	85 c0                	test   %eax,%eax
    2f9f:	74 37                	je     2fd8 <audio_mixer_get_item_level+0x48>
    2fa1:	8b 4d 0c             	mov    0xc(%ebp),%ecx
    2fa4:	52                   	push   %edx
    2fa5:	8d 55 f4             	lea    -0xc(%ebp),%edx
    2fa8:	6a 00                	push   $0x0
    2faa:	6a 00                	push   $0x0
    2fac:	6a 00                	push   $0x0
    2fae:	6a 00                	push   $0x0
    2fb0:	52                   	push   %edx
    2fb1:	6a 00                	push   $0x0
    2fb3:	6a 00                	push   $0x0
    2fb5:	51                   	push   %ecx
    2fb6:	6a 03                	push   $0x3
    2fb8:	68 03 04 00 00       	push   $0x403
    2fbd:	50                   	push   %eax
    2fbe:	e8 cd b0 00 00       	call   e090 <async_req_fast@plt>
    2fc3:	83 c4 30             	add    $0x30,%esp
    2fc6:	85 c0                	test   %eax,%eax
    2fc8:	75 09                	jne    2fd3 <audio_mixer_get_item_level+0x43>
    2fca:	85 db                	test   %ebx,%ebx
    2fcc:	74 05                	je     2fd3 <audio_mixer_get_item_level+0x43>
    2fce:	8b 55 f4             	mov    -0xc(%ebp),%edx
    2fd1:	89 13                	mov    %edx,(%ebx)
    2fd3:	8b 5d fc             	mov    -0x4(%ebp),%ebx
    2fd6:	c9                   	leave  
    2fd7:	c3                   	ret    
    2fd8:	b8 f2 ff ff ff       	mov    $0xfffffff2,%eax
    2fdd:	eb f4                	jmp    2fd3 <audio_mixer_get_item_level+0x43>
    2fdf:	90                   	nop

00002fe0 <remote_audio_pcm_stop_capture>:
    2fe0:	55                   	push   %ebp
    2fe1:	89 e5                	mov    %esp,%ebp
    2fe3:	53                   	push   %ebx
    2fe4:	50                   	push   %eax
    2fe5:	8b 45 14             	mov    0x14(%ebp),%eax
    2fe8:	8b 4d 08             	mov    0x8(%ebp),%ecx
    2feb:	8b 5d 10             	mov    0x10(%ebp),%ebx
    2fee:	8b 50 08             	mov    0x8(%eax),%edx
    2ff1:	85 d2                	test   %edx,%edx
    2ff3:	8b 55 0c             	mov    0xc(%ebp),%edx
    2ff6:	0f 95 c0             	setne  %al
    2ff9:	8b 52 2c             	mov    0x2c(%edx),%edx
    2ffc:	85 d2                	test   %edx,%edx
    2ffe:	74 20                	je     3020 <remote_audio_pcm_stop_capture+0x40>
    3000:	83 ec 08             	sub    $0x8,%esp
    3003:	25 ff 00 00 00       	and    $0xff,%eax
    3008:	50                   	push   %eax
    3009:	51                   	push   %ecx
    300a:	ff d2                	call   *%edx
    300c:	89 5d 08             	mov    %ebx,0x8(%ebp)
    300f:	83 c4 10             	add    $0x10,%esp
    3012:	8b 5d fc             	mov    -0x4(%ebp),%ebx
    3015:	89 45 0c             	mov    %eax,0xc(%ebp)
    3018:	c9                   	leave  
    3019:	e9 92 b0 00 00       	jmp    e0b0 <async_answer_0@plt>
    301e:	66 90                	xchg   %ax,%ax
    3020:	89 5d 08             	mov    %ebx,0x8(%ebp)
    3023:	b8 f5 ff ff ff       	mov    $0xfffffff5,%eax
    3028:	8b 5d fc             	mov    -0x4(%ebp),%ebx
    302b:	89 45 0c             	mov    %eax,0xc(%ebp)
    302e:	c9                   	leave  
    302f:	e9 7c b0 00 00       	jmp    e0b0 <async_answer_0@plt>
    3034:	8d b6 00 00 00 00    	lea    0x0(%esi),%esi
    303a:	8d bf 00 00 00 00    	lea    0x0(%edi),%edi

00003040 <remote_audio_pcm_start_capture>:
    3040:	55                   	push   %ebp
    3041:	89 e5                	mov    %esp,%ebp
    3043:	57                   	push   %edi
    3044:	56                   	push   %esi
    3045:	53                   	push   %ebx
    3046:	83 ec 0c             	sub    $0xc,%esp
    3049:	8b 55 14             	mov    0x14(%ebp),%edx
    304c:	8b 7d 0c             	mov    0xc(%ebp),%edi
    304f:	8b 4d 08             	mov    0x8(%ebp),%ecx
    3052:	8b 5d 10             	mov    0x10(%ebp),%ebx
    3055:	8b 42 10             	mov    0x10(%edx),%eax
    3058:	8b 7f 28             	mov    0x28(%edi),%edi
    305b:	89 c6                	mov    %eax,%esi
    305d:	25 ff ff 00 00       	and    $0xffff,%eax
    3062:	c1 ee 10             	shr    $0x10,%esi
    3065:	85 ff                	test   %edi,%edi
    3067:	74 27                	je     3090 <remote_audio_pcm_start_capture+0x50>
    3069:	83 ec 0c             	sub    $0xc,%esp
    306c:	50                   	push   %eax
    306d:	8b 42 0c             	mov    0xc(%edx),%eax
    3070:	50                   	push   %eax
    3071:	56                   	push   %esi
    3072:	8b 52 08             	mov    0x8(%edx),%edx
    3075:	52                   	push   %edx
    3076:	51                   	push   %ecx
    3077:	ff d7                	call   *%edi
    3079:	83 c4 20             	add    $0x20,%esp
    307c:	89 5d 08             	mov    %ebx,0x8(%ebp)
    307f:	89 45 0c             	mov    %eax,0xc(%ebp)
    3082:	8d 65 f4             	lea    -0xc(%ebp),%esp
    3085:	5b                   	pop    %ebx
    3086:	5e                   	pop    %esi
    3087:	5f                   	pop    %edi
    3088:	5d                   	pop    %ebp
    3089:	e9 22 b0 00 00       	jmp    e0b0 <async_answer_0@plt>
    308e:	66 90                	xchg   %ax,%ax
    3090:	b8 f5 ff ff ff       	mov    $0xfffffff5,%eax
    3095:	eb e5                	jmp    307c <remote_audio_pcm_start_capture+0x3c>
    3097:	89 f6                	mov    %esi,%esi
    3099:	8d bc 27 00 00 00 00 	lea    0x0(%edi,%eiz,1),%edi

000030a0 <remote_audio_pcm_stop_playback>:
    30a0:	55                   	push   %ebp
    30a1:	89 e5                	mov    %esp,%ebp
    30a3:	53                   	push   %ebx
    30a4:	50                   	push   %eax
    30a5:	8b 45 14             	mov    0x14(%ebp),%eax
    30a8:	8b 4d 08             	mov    0x8(%ebp),%ecx
    30ab:	8b 5d 10             	mov    0x10(%ebp),%ebx
    30ae:	8b 50 08             	mov    0x8(%eax),%edx
    30b1:	85 d2                	test   %edx,%edx
    30b3:	8b 55 0c             	mov    0xc(%ebp),%edx
    30b6:	0f 95 c0             	setne  %al
    30b9:	8b 52 24             	mov    0x24(%edx),%edx
    30bc:	85 d2                	test   %edx,%edx
    30be:	74 20                	je     30e0 <remote_audio_pcm_stop_playback+0x40>
    30c0:	83 ec 08             	sub    $0x8,%esp
    30c3:	25 ff 00 00 00       	and    $0xff,%eax
    30c8:	50                   	push   %eax
    30c9:	51                   	push   %ecx
    30ca:	ff d2                	call   *%edx
    30cc:	89 5d 08             	mov    %ebx,0x8(%ebp)
    30cf:	83 c4 10             	add    $0x10,%esp
    30d2:	8b 5d fc             	mov    -0x4(%ebp),%ebx
    30d5:	89 45 0c             	mov    %eax,0xc(%ebp)
    30d8:	c9                   	leave  
    30d9:	e9 d2 af 00 00       	jmp    e0b0 <async_answer_0@plt>
    30de:	66 90                	xchg   %ax,%ax
    30e0:	89 5d 08             	mov    %ebx,0x8(%ebp)
    30e3:	b8 f5 ff ff ff       	mov    $0xfffffff5,%eax
    30e8:	8b 5d fc             	mov    -0x4(%ebp),%ebx
    30eb:	89 45 0c             	mov    %eax,0xc(%ebp)
    30ee:	c9                   	leave  
    30ef:	e9 bc af 00 00       	jmp    e0b0 <async_answer_0@plt>
    30f4:	8d b6 00 00 00 00    	lea    0x0(%esi),%esi
    30fa:	8d bf 00 00 00 00    	lea    0x0(%edi),%edi

00003100 <remote_audio_pcm_start_playback>:
    3100:	55                   	push   %ebp
    3101:	89 e5                	mov    %esp,%ebp
    3103:	57                   	push   %edi
    3104:	56                   	push   %esi
    3105:	53                   	push   %ebx
    3106:	83 ec 0c             	sub    $0xc,%esp
    3109:	8b 4d 14             	mov    0x14(%ebp),%ecx
    310c:	8b 7d 0c             	mov    0xc(%ebp),%edi
    310f:	8b 75 08             	mov    0x8(%ebp),%esi
    3112:	8b 5d 10             	mov    0x10(%ebp),%ebx
    3115:	8b 41 10             	mov    0x10(%ecx),%eax
    3118:	8b 7f 20             	mov    0x20(%edi),%edi
    311b:	89 c2                	mov    %eax,%edx
    311d:	25 ff ff 00 00       	and    $0xffff,%eax
    3122:	c1 ea 10             	shr    $0x10,%edx
    3125:	81 e2 ff 00 00 00    	and    $0xff,%edx
    312b:	85 ff                	test   %edi,%edi
    312d:	74 29                	je     3158 <remote_audio_pcm_start_playback+0x58>
    312f:	83 ec 0c             	sub    $0xc,%esp
    3132:	50                   	push   %eax
    3133:	8b 41 0c             	mov    0xc(%ecx),%eax
    3136:	50                   	push   %eax
    3137:	52                   	push   %edx
    3138:	8b 51 08             	mov    0x8(%ecx),%edx
    313b:	52                   	push   %edx
    313c:	56                   	push   %esi
    313d:	ff d7                	call   *%edi
    313f:	83 c4 20             	add    $0x20,%esp
    3142:	89 5d 08             	mov    %ebx,0x8(%ebp)
    3145:	89 45 0c             	mov    %eax,0xc(%ebp)
    3148:	8d 65 f4             	lea    -0xc(%ebp),%esp
    314b:	5b                   	pop    %ebx
    314c:	5e                   	pop    %esi
    314d:	5f                   	pop    %edi
    314e:	5d                   	pop    %ebp
    314f:	e9 5c af 00 00       	jmp    e0b0 <async_answer_0@plt>
    3154:	8d 74 26 00          	lea    0x0(%esi,%eiz,1),%esi
    3158:	b8 f5 ff ff ff       	mov    $0xfffffff5,%eax
    315d:	eb e3                	jmp    3142 <remote_audio_pcm_start_playback+0x42>
    315f:	90                   	nop

00003160 <remote_audio_pcm_release_buffer>:
    3160:	55                   	push   %ebp
    3161:	89 e5                	mov    %esp,%ebp
    3163:	53                   	push   %ebx
    3164:	50                   	push   %eax
    3165:	8b 45 0c             	mov    0xc(%ebp),%eax
    3168:	8b 55 08             	mov    0x8(%ebp),%edx
    316b:	8b 5d 10             	mov    0x10(%ebp),%ebx
    316e:	8b 40 14             	mov    0x14(%eax),%eax
    3171:	85 c0                	test   %eax,%eax
    3173:	74 1b                	je     3190 <remote_audio_pcm_release_buffer+0x30>
    3175:	83 ec 0c             	sub    $0xc,%esp
    3178:	52                   	push   %edx
    3179:	ff d0                	call   *%eax
    317b:	89 5d 08             	mov    %ebx,0x8(%ebp)
    317e:	83 c4 10             	add    $0x10,%esp
    3181:	8b 5d fc             	mov    -0x4(%ebp),%ebx
    3184:	89 45 0c             	mov    %eax,0xc(%ebp)
    3187:	c9                   	leave  
    3188:	e9 23 af 00 00       	jmp    e0b0 <async_answer_0@plt>
    318d:	8d 76 00             	lea    0x0(%esi),%esi
    3190:	89 5d 08             	mov    %ebx,0x8(%ebp)
    3193:	b8 f5 ff ff ff       	mov    $0xfffffff5,%eax
    3198:	8b 5d fc             	mov    -0x4(%ebp),%ebx
    319b:	89 45 0c             	mov    %eax,0xc(%ebp)
    319e:	c9                   	leave  
    319f:	e9 0c af 00 00       	jmp    e0b0 <async_answer_0@plt>
    31a4:	8d b6 00 00 00 00    	lea    0x0(%esi),%esi
    31aa:	8d bf 00 00 00 00    	lea    0x0(%edi),%edi

000031b0 <remote_audio_pcm_events_unregister>:
    31b0:	55                   	push   %ebp
    31b1:	89 e5                	mov    %esp,%ebp
    31b3:	57                   	push   %edi
    31b4:	56                   	push   %esi
    31b5:	53                   	push   %ebx
    31b6:	83 ec 0c             	sub    $0xc,%esp
    31b9:	8b 5d 0c             	mov    0xc(%ebp),%ebx
    31bc:	8b 75 08             	mov    0x8(%ebp),%esi
    31bf:	8b 7d 10             	mov    0x10(%ebp),%edi
    31c2:	8b 43 1c             	mov    0x1c(%ebx),%eax
    31c5:	85 c0                	test   %eax,%eax
    31c7:	74 3f                	je     3208 <remote_audio_pcm_events_unregister+0x58>
    31c9:	8b 4b 18             	mov    0x18(%ebx),%ecx
    31cc:	85 c9                	test   %ecx,%ecx
    31ce:	74 38                	je     3208 <remote_audio_pcm_events_unregister+0x58>
    31d0:	83 ec 0c             	sub    $0xc,%esp
    31d3:	56                   	push   %esi
    31d4:	ff d0                	call   *%eax
    31d6:	83 c4 10             	add    $0x10,%esp
    31d9:	85 c0                	test   %eax,%eax
    31db:	74 14                	je     31f1 <remote_audio_pcm_events_unregister+0x41>
    31dd:	83 ec 0c             	sub    $0xc,%esp
    31e0:	50                   	push   %eax
    31e1:	e8 aa ad 00 00       	call   df90 <async_hangup@plt>
    31e6:	58                   	pop    %eax
    31e7:	5a                   	pop    %edx
    31e8:	6a 00                	push   $0x0
    31ea:	56                   	push   %esi
    31eb:	ff 53 18             	call   *0x18(%ebx)
    31ee:	83 c4 10             	add    $0x10,%esp
    31f1:	89 7d 08             	mov    %edi,0x8(%ebp)
    31f4:	c7 45 0c 00 00 00 00 	movl   $0x0,0xc(%ebp)
    31fb:	8d 65 f4             	lea    -0xc(%ebp),%esp
    31fe:	5b                   	pop    %ebx
    31ff:	5e                   	pop    %esi
    3200:	5f                   	pop    %edi
    3201:	5d                   	pop    %ebp
    3202:	e9 a9 ae 00 00       	jmp    e0b0 <async_answer_0@plt>
    3207:	90                   	nop
    3208:	89 7d 08             	mov    %edi,0x8(%ebp)
    320b:	c7 45 0c f5 ff ff ff 	movl   $0xfffffff5,0xc(%ebp)
    3212:	8d 65 f4             	lea    -0xc(%ebp),%esp
    3215:	5b                   	pop    %ebx
    3216:	5e                   	pop    %esi
    3217:	5f                   	pop    %edi
    3218:	5d                   	pop    %ebp
    3219:	e9 92 ae 00 00       	jmp    e0b0 <async_answer_0@plt>
    321e:	66 90                	xchg   %ax,%ax

00003220 <remote_audio_pcm_get_buffer_pos>:
    3220:	55                   	push   %ebp
    3221:	89 e5                	mov    %esp,%ebp
    3223:	83 ec 18             	sub    $0x18,%esp
    3226:	8b 45 0c             	mov    0xc(%ebp),%eax
    3229:	c7 45 f4 00 00 00 00 	movl   $0x0,-0xc(%ebp)
    3230:	8b 40 0c             	mov    0xc(%eax),%eax
    3233:	85 c0                	test   %eax,%eax
    3235:	74 29                	je     3260 <remote_audio_pcm_get_buffer_pos+0x40>
    3237:	8b 4d 08             	mov    0x8(%ebp),%ecx
    323a:	52                   	push   %edx
    323b:	52                   	push   %edx
    323c:	8d 55 f4             	lea    -0xc(%ebp),%edx
    323f:	52                   	push   %edx
    3240:	51                   	push   %ecx
    3241:	ff d0                	call   *%eax
    3243:	8b 55 f4             	mov    -0xc(%ebp),%edx
    3246:	83 c4 10             	add    $0x10,%esp
    3249:	51                   	push   %ecx
    324a:	52                   	push   %edx
    324b:	50                   	push   %eax
    324c:	8b 45 10             	mov    0x10(%ebp),%eax
    324f:	50                   	push   %eax
    3250:	e8 ab b0 00 00       	call   e300 <async_answer_1@plt>
    3255:	83 c4 10             	add    $0x10,%esp
    3258:	c9                   	leave  
    3259:	c3                   	ret    
    325a:	8d b6 00 00 00 00    	lea    0x0(%esi),%esi
    3260:	b8 f5 ff ff ff       	mov    $0xfffffff5,%eax
    3265:	31 d2                	xor    %edx,%edx
    3267:	eb e0                	jmp    3249 <remote_audio_pcm_get_buffer_pos+0x29>
    3269:	8d b4 26 00 00 00 00 	lea    0x0(%esi,%eiz,1),%esi

00003270 <remote_audio_pcm_query_caps>:
    3270:	55                   	push   %ebp
    3271:	89 e5                	mov    %esp,%ebp
    3273:	53                   	push   %ebx
    3274:	53                   	push   %ebx
    3275:	8b 45 0c             	mov    0xc(%ebp),%eax
    3278:	8b 55 08             	mov    0x8(%ebp),%edx
    327b:	8b 5d 10             	mov    0x10(%ebp),%ebx
    327e:	8b 4d 14             	mov    0x14(%ebp),%ecx
    3281:	8b 40 08             	mov    0x8(%eax),%eax
    3284:	85 c0                	test   %eax,%eax
    3286:	74 28                	je     32b0 <remote_audio_pcm_query_caps+0x40>
    3288:	83 ec 08             	sub    $0x8,%esp
    328b:	8b 49 08             	mov    0x8(%ecx),%ecx
    328e:	51                   	push   %ecx
    328f:	52                   	push   %edx
    3290:	ff d0                	call   *%eax
    3292:	89 5d 08             	mov    %ebx,0x8(%ebp)
    3295:	83 c4 10             	add    $0x10,%esp
    3298:	8b 5d fc             	mov    -0x4(%ebp),%ebx
    329b:	89 45 10             	mov    %eax,0x10(%ebp)
    329e:	c7 45 0c 00 00 00 00 	movl   $0x0,0xc(%ebp)
    32a5:	c9                   	leave  
    32a6:	e9 55 b0 00 00       	jmp    e300 <async_answer_1@plt>
    32ab:	90                   	nop
    32ac:	8d 74 26 00          	lea    0x0(%esi,%eiz,1),%esi
    32b0:	89 5d 08             	mov    %ebx,0x8(%ebp)
    32b3:	8b 5d fc             	mov    -0x4(%ebp),%ebx
    32b6:	c7 45 0c f5 ff ff ff 	movl   $0xfffffff5,0xc(%ebp)
    32bd:	c9                   	leave  
    32be:	e9 ed ad 00 00       	jmp    e0b0 <async_answer_0@plt>
    32c3:	8d b6 00 00 00 00    	lea    0x0(%esi),%esi
    32c9:	8d bc 27 00 00 00 00 	lea    0x0(%edi,%eiz,1),%edi

000032d0 <remote_audio_pcm_get_buffer>:
    32d0:	55                   	push   %ebp
    32d1:	89 e5                	mov    %esp,%ebp
    32d3:	56                   	push   %esi
    32d4:	53                   	push   %ebx
    32d5:	83 ec 10             	sub    $0x10,%esp
    32d8:	8b 5d 0c             	mov    0xc(%ebp),%ebx
    32db:	8b 43 10             	mov    0x10(%ebx),%eax
    32de:	85 c0                	test   %eax,%eax
    32e0:	0f 84 d2 00 00 00    	je     33b8 <remote_audio_pcm_get_buffer+0xe8>
    32e6:	8b 53 14             	mov    0x14(%ebx),%edx
    32e9:	85 d2                	test   %edx,%edx
    32eb:	0f 84 c7 00 00 00    	je     33b8 <remote_audio_pcm_get_buffer+0xe8>
    32f1:	8b 55 14             	mov    0x14(%ebp),%edx
    32f4:	c7 45 e8 00 00 00 00 	movl   $0x0,-0x18(%ebp)
    32fb:	8b 52 08             	mov    0x8(%edx),%edx
    32fe:	56                   	push   %esi
    32ff:	89 55 ec             	mov    %edx,-0x14(%ebp)
    3302:	8d 55 ec             	lea    -0x14(%ebp),%edx
    3305:	52                   	push   %edx
    3306:	8d 55 e8             	lea    -0x18(%ebp),%edx
    3309:	52                   	push   %edx
    330a:	8b 55 08             	mov    0x8(%ebp),%edx
    330d:	52                   	push   %edx
    330e:	ff d0                	call   *%eax
    3310:	83 c4 0c             	add    $0xc,%esp
    3313:	8b 4d ec             	mov    -0x14(%ebp),%ecx
    3316:	89 c6                	mov    %eax,%esi
    3318:	51                   	push   %ecx
    3319:	50                   	push   %eax
    331a:	8b 45 10             	mov    0x10(%ebp),%eax
    331d:	50                   	push   %eax
    331e:	e8 dd af 00 00       	call   e300 <async_answer_1@plt>
    3323:	83 c4 10             	add    $0x10,%esp
    3326:	85 f6                	test   %esi,%esi
    3328:	74 0e                	je     3338 <remote_audio_pcm_get_buffer+0x68>
    332a:	8d 65 f8             	lea    -0x8(%ebp),%esp
    332d:	5b                   	pop    %ebx
    332e:	5e                   	pop    %esi
    332f:	5d                   	pop    %ebp
    3330:	c3                   	ret    
    3331:	8d b4 26 00 00 00 00 	lea    0x0(%esi,%eiz,1),%esi
    3338:	8b 4d ec             	mov    -0x14(%ebp),%ecx
    333b:	85 c9                	test   %ecx,%ecx
    333d:	74 eb                	je     332a <remote_audio_pcm_get_buffer+0x5a>
    333f:	c7 45 f0 00 00 00 00 	movl   $0x0,-0x10(%ebp)
    3346:	56                   	push   %esi
    3347:	c7 45 f4 00 00 00 00 	movl   $0x0,-0xc(%ebp)
    334e:	56                   	push   %esi
    334f:	68 54 c4 00 00       	push   $0xc454
    3354:	6a 05                	push   $0x5
    3356:	e8 45 76 00 00       	call   a9a0 <ddf_msg>
    335b:	58                   	pop    %eax
    335c:	8d 45 f0             	lea    -0x10(%ebp),%eax
    335f:	5a                   	pop    %edx
    3360:	50                   	push   %eax
    3361:	8d 45 f4             	lea    -0xc(%ebp),%eax
    3364:	50                   	push   %eax
    3365:	e8 36 af 00 00       	call   e2a0 <async_share_in_receive@plt>
    336a:	83 c4 10             	add    $0x10,%esp
    336d:	84 c0                	test   %al,%al
    336f:	74 5f                	je     33d0 <remote_audio_pcm_get_buffer+0x100>
    3371:	50                   	push   %eax
    3372:	50                   	push   %eax
    3373:	68 18 c6 00 00       	push   $0xc618
    3378:	6a 05                	push   $0x5
    337a:	e8 21 76 00 00       	call   a9a0 <ddf_msg>
    337f:	8b 45 ec             	mov    -0x14(%ebp),%eax
    3382:	83 c4 10             	add    $0x10,%esp
    3385:	39 45 f0             	cmp    %eax,-0x10(%ebp)
    3388:	74 76                	je     3400 <remote_audio_pcm_get_buffer+0x130>
    338a:	50                   	push   %eax
    338b:	50                   	push   %eax
    338c:	68 38 c6 00 00       	push   $0xc638
    3391:	6a 04                	push   $0x4
    3393:	e8 08 76 00 00       	call   a9a0 <ddf_msg>
    3398:	8b 55 08             	mov    0x8(%ebp),%edx
    339b:	58                   	pop    %eax
    339c:	52                   	push   %edx
    339d:	ff 53 14             	call   *0x14(%ebx)
    33a0:	8b 75 f4             	mov    -0xc(%ebp),%esi
    33a3:	59                   	pop    %ecx
    33a4:	5b                   	pop    %ebx
    33a5:	6a fd                	push   $0xfffffffd
    33a7:	56                   	push   %esi
    33a8:	e8 03 ad 00 00       	call   e0b0 <async_answer_0@plt>
    33ad:	83 c4 10             	add    $0x10,%esp
    33b0:	e9 75 ff ff ff       	jmp    332a <remote_audio_pcm_get_buffer+0x5a>
    33b5:	8d 76 00             	lea    0x0(%esi),%esi
    33b8:	50                   	push   %eax
    33b9:	50                   	push   %eax
    33ba:	8b 45 10             	mov    0x10(%ebp),%eax
    33bd:	6a f5                	push   $0xfffffff5
    33bf:	50                   	push   %eax
    33c0:	e8 eb ac 00 00       	call   e0b0 <async_answer_0@plt>
    33c5:	83 c4 10             	add    $0x10,%esp
    33c8:	8d 65 f8             	lea    -0x8(%ebp),%esp
    33cb:	5b                   	pop    %ebx
    33cc:	5e                   	pop    %esi
    33cd:	5d                   	pop    %ebp
    33ce:	c3                   	ret    
    33cf:	90                   	nop
    33d0:	50                   	push   %eax
    33d1:	50                   	push   %eax
    33d2:	68 6d c4 00 00       	push   $0xc46d
    33d7:	6a 04                	push   $0x4
    33d9:	e8 c2 75 00 00       	call   a9a0 <ddf_msg>
    33de:	58                   	pop    %eax
    33df:	8b 45 08             	mov    0x8(%ebp),%eax
    33e2:	50                   	push   %eax
    33e3:	ff 53 14             	call   *0x14(%ebx)
    33e6:	8b 4d f4             	mov    -0xc(%ebp),%ecx
    33e9:	58                   	pop    %eax
    33ea:	5a                   	pop    %edx
    33eb:	6a f8                	push   $0xfffffff8
    33ed:	51                   	push   %ecx
    33ee:	e8 bd ac 00 00       	call   e0b0 <async_answer_0@plt>
    33f3:	83 c4 10             	add    $0x10,%esp
    33f6:	e9 2f ff ff ff       	jmp    332a <remote_audio_pcm_get_buffer+0x5a>
    33fb:	90                   	nop
    33fc:	8d 74 26 00          	lea    0x0(%esi,%eiz,1),%esi
    3400:	50                   	push   %eax
    3401:	50                   	push   %eax
    3402:	68 89 c4 00 00       	push   $0xc489
    3407:	6a 05                	push   $0x5
    3409:	e8 92 75 00 00       	call   a9a0 <ddf_msg>
    340e:	83 c4 0c             	add    $0xc,%esp
    3411:	8b 45 e8             	mov    -0x18(%ebp),%eax
    3414:	6a 03                	push   $0x3
    3416:	50                   	push   %eax
    3417:	8b 45 f4             	mov    -0xc(%ebp),%eax
    341a:	50                   	push   %eax
    341b:	e8 20 af 00 00       	call   e340 <async_share_in_finalize@plt>
    3420:	83 c4 10             	add    $0x10,%esp
    3423:	85 c0                	test   %eax,%eax
    3425:	74 1e                	je     3445 <remote_audio_pcm_get_buffer+0x175>
    3427:	51                   	push   %ecx
    3428:	51                   	push   %ecx
    3429:	68 a1 c4 00 00       	push   $0xc4a1
    342e:	6a 04                	push   $0x4
    3430:	e8 6b 75 00 00       	call   a9a0 <ddf_msg>
    3435:	8b 45 08             	mov    0x8(%ebp),%eax
    3438:	5e                   	pop    %esi
    3439:	50                   	push   %eax
    343a:	ff 53 14             	call   *0x14(%ebx)
    343d:	83 c4 10             	add    $0x10,%esp
    3440:	e9 e5 fe ff ff       	jmp    332a <remote_audio_pcm_get_buffer+0x5a>
    3445:	8b 55 f0             	mov    -0x10(%ebp),%edx
    3448:	50                   	push   %eax
    3449:	52                   	push   %edx
    344a:	68 b9 c4 00 00       	push   $0xc4b9
    344f:	6a 05                	push   $0x5
    3451:	e8 4a 75 00 00       	call   a9a0 <ddf_msg>
    3456:	83 c4 10             	add    $0x10,%esp
    3459:	e9 cc fe ff ff       	jmp    332a <remote_audio_pcm_get_buffer+0x5a>
    345e:	66 90                	xchg   %ax,%ax

00003460 <remote_audio_pcm_test_format>:
    3460:	55                   	push   %ebp
    3461:	89 e5                	mov    %esp,%ebp
    3463:	53                   	push   %ebx
    3464:	83 ec 14             	sub    $0x14,%esp
    3467:	8b 45 14             	mov    0x14(%ebp),%eax
    346a:	8b 55 0c             	mov    0xc(%ebp),%edx
    346d:	8b 48 08             	mov    0x8(%eax),%ecx
    3470:	8b 58 0c             	mov    0xc(%eax),%ebx
    3473:	8b 52 04             	mov    0x4(%edx),%edx
    3476:	8b 40 10             	mov    0x10(%eax),%eax
    3479:	89 4d ec             	mov    %ecx,-0x14(%ebp)
    347c:	89 5d f0             	mov    %ebx,-0x10(%ebp)
    347f:	89 45 f4             	mov    %eax,-0xc(%ebp)
    3482:	85 d2                	test   %edx,%edx
    3484:	74 3a                	je     34c0 <remote_audio_pcm_test_format+0x60>
    3486:	8d 45 f4             	lea    -0xc(%ebp),%eax
    3489:	8b 4d 08             	mov    0x8(%ebp),%ecx
    348c:	50                   	push   %eax
    348d:	8d 45 f0             	lea    -0x10(%ebp),%eax
    3490:	50                   	push   %eax
    3491:	8d 45 ec             	lea    -0x14(%ebp),%eax
    3494:	50                   	push   %eax
    3495:	51                   	push   %ecx
    3496:	ff d2                	call   *%edx
    3498:	8b 55 f4             	mov    -0xc(%ebp),%edx
    349b:	8b 5d f0             	mov    -0x10(%ebp),%ebx
    349e:	8b 4d ec             	mov    -0x14(%ebp),%ecx
    34a1:	83 c4 10             	add    $0x10,%esp
    34a4:	83 ec 0c             	sub    $0xc,%esp
    34a7:	52                   	push   %edx
    34a8:	53                   	push   %ebx
    34a9:	51                   	push   %ecx
    34aa:	50                   	push   %eax
    34ab:	8b 45 10             	mov    0x10(%ebp),%eax
    34ae:	50                   	push   %eax
    34af:	e8 9c ae 00 00       	call   e350 <async_answer_3@plt>
    34b4:	83 c4 20             	add    $0x20,%esp
    34b7:	8b 5d fc             	mov    -0x4(%ebp),%ebx
    34ba:	c9                   	leave  
    34bb:	c3                   	ret    
    34bc:	8d 74 26 00          	lea    0x0(%esi,%eiz,1),%esi
    34c0:	89 c2                	mov    %eax,%edx
    34c2:	b8 f5 ff ff ff       	mov    $0xfffffff5,%eax
    34c7:	eb db                	jmp    34a4 <remote_audio_pcm_test_format+0x44>
    34c9:	8d b4 26 00 00 00 00 	lea    0x0(%esi,%eiz,1),%esi

000034d0 <remote_audio_pcm_events_register>:
    34d0:	55                   	push   %ebp
    34d1:	89 e5                	mov    %esp,%ebp
    34d3:	57                   	push   %edi
    34d4:	56                   	push   %esi
    34d5:	53                   	push   %ebx
    34d6:	83 ec 3c             	sub    $0x3c,%esp
    34d9:	8b 5d 0c             	mov    0xc(%ebp),%ebx
    34dc:	8b 7b 1c             	mov    0x1c(%ebx),%edi
    34df:	85 ff                	test   %edi,%edi
    34e1:	0f 84 91 00 00 00    	je     3578 <remote_audio_pcm_events_register+0xa8>
    34e7:	8b 73 18             	mov    0x18(%ebx),%esi
    34ea:	85 f6                	test   %esi,%esi
    34ec:	0f 84 86 00 00 00    	je     3578 <remote_audio_pcm_events_register+0xa8>
    34f2:	8b 75 10             	mov    0x10(%ebp),%esi
    34f5:	51                   	push   %ecx
    34f6:	51                   	push   %ecx
    34f7:	6a 00                	push   $0x0
    34f9:	56                   	push   %esi
    34fa:	8d 75 c4             	lea    -0x3c(%ebp),%esi
    34fd:	e8 ae ab 00 00       	call   e0b0 <async_answer_0@plt>
    3502:	5f                   	pop    %edi
    3503:	58                   	pop    %eax
    3504:	6a 00                	push   $0x0
    3506:	56                   	push   %esi
    3507:	e8 c4 ad 00 00       	call   e2d0 <async_get_call_timeout@plt>
    350c:	89 c7                	mov    %eax,%edi
    350e:	58                   	pop    %eax
    350f:	5a                   	pop    %edx
    3510:	56                   	push   %esi
    3511:	6a 00                	push   $0x0
    3513:	e8 88 ac 00 00       	call   e1a0 <async_callback_receive_start@plt>
    3518:	83 c4 10             	add    $0x10,%esp
    351b:	89 c6                	mov    %eax,%esi
    351d:	85 c0                	test   %eax,%eax
    351f:	74 6f                	je     3590 <remote_audio_pcm_events_register+0xc0>
    3521:	50                   	push   %eax
    3522:	50                   	push   %eax
    3523:	8b 45 08             	mov    0x8(%ebp),%eax
    3526:	56                   	push   %esi
    3527:	50                   	push   %eax
    3528:	ff 53 18             	call   *0x18(%ebx)
    352b:	83 c4 10             	add    $0x10,%esp
    352e:	89 c3                	mov    %eax,%ebx
    3530:	85 c0                	test   %eax,%eax
    3532:	74 2c                	je     3560 <remote_audio_pcm_events_register+0x90>
    3534:	52                   	push   %edx
    3535:	52                   	push   %edx
    3536:	68 d6 c4 00 00       	push   $0xc4d6
    353b:	6a 04                	push   $0x4
    353d:	e8 5e 74 00 00       	call   a9a0 <ddf_msg>
    3542:	89 34 24             	mov    %esi,(%esp)
    3545:	e8 46 aa 00 00       	call   df90 <async_hangup@plt>
    354a:	59                   	pop    %ecx
    354b:	5e                   	pop    %esi
    354c:	53                   	push   %ebx
    354d:	57                   	push   %edi
    354e:	e8 5d ab 00 00       	call   e0b0 <async_answer_0@plt>
    3553:	83 c4 10             	add    $0x10,%esp
    3556:	8d 65 f4             	lea    -0xc(%ebp),%esp
    3559:	5b                   	pop    %ebx
    355a:	5e                   	pop    %esi
    355b:	5f                   	pop    %edi
    355c:	5d                   	pop    %ebp
    355d:	c3                   	ret    
    355e:	66 90                	xchg   %ax,%ax
    3560:	50                   	push   %eax
    3561:	50                   	push   %eax
    3562:	6a 00                	push   $0x0
    3564:	57                   	push   %edi
    3565:	e8 46 ab 00 00       	call   e0b0 <async_answer_0@plt>
    356a:	83 c4 10             	add    $0x10,%esp
    356d:	8d 65 f4             	lea    -0xc(%ebp),%esp
    3570:	5b                   	pop    %ebx
    3571:	5e                   	pop    %esi
    3572:	5f                   	pop    %edi
    3573:	5d                   	pop    %ebp
    3574:	c3                   	ret    
    3575:	8d 76 00             	lea    0x0(%esi),%esi
    3578:	8b 5d 10             	mov    0x10(%ebp),%ebx
    357b:	51                   	push   %ecx
    357c:	51                   	push   %ecx
    357d:	6a f5                	push   $0xfffffff5
    357f:	53                   	push   %ebx
    3580:	e8 2b ab 00 00       	call   e0b0 <async_answer_0@plt>
    3585:	83 c4 10             	add    $0x10,%esp
    3588:	8d 65 f4             	lea    -0xc(%ebp),%esp
    358b:	5b                   	pop    %ebx
    358c:	5e                   	pop    %esi
    358d:	5f                   	pop    %edi
    358e:	5d                   	pop    %ebp
    358f:	c3                   	ret    
    3590:	50                   	push   %eax
    3591:	50                   	push   %eax
    3592:	68 60 c6 00 00       	push   $0xc660
    3597:	6a 04                	push   $0x4
    3599:	e8 02 74 00 00       	call   a9a0 <ddf_msg>
    359e:	58                   	pop    %eax
    359f:	5a                   	pop    %edx
    35a0:	68 06 d5 ff ff       	push   $0xffffd506
    35a5:	57                   	push   %edi
    35a6:	e8 05 ab 00 00       	call   e0b0 <async_answer_0@plt>
    35ab:	83 c4 10             	add    $0x10,%esp
    35ae:	eb a6                	jmp    3556 <remote_audio_pcm_events_register+0x86>

000035b0 <remote_audio_pcm_get_info_str>:
    35b0:	55                   	push   %ebp
    35b1:	89 e5                	mov    %esp,%ebp
    35b3:	56                   	push   %esi
    35b4:	53                   	push   %ebx
    35b5:	83 ec 10             	sub    $0x10,%esp
    35b8:	8b 45 0c             	mov    0xc(%ebp),%eax
    35bb:	8b 00                	mov    (%eax),%eax
    35bd:	85 c0                	test   %eax,%eax
    35bf:	0f 84 ab 00 00 00    	je     3670 <remote_audio_pcm_get_info_str+0xc0>
    35c5:	8b 4d 08             	mov    0x8(%ebp),%ecx
    35c8:	52                   	push   %edx
    35c9:	c7 45 ec 00 00 00 00 	movl   $0x0,-0x14(%ebp)
    35d0:	52                   	push   %edx
    35d1:	8d 55 ec             	lea    -0x14(%ebp),%edx
    35d4:	52                   	push   %edx
    35d5:	51                   	push   %ecx
    35d6:	ff d0                	call   *%eax
    35d8:	83 c4 10             	add    $0x10,%esp
    35db:	89 c6                	mov    %eax,%esi
    35dd:	8b 45 ec             	mov    -0x14(%ebp),%eax
    35e0:	85 c0                	test   %eax,%eax
    35e2:	74 5c                	je     3640 <remote_audio_pcm_get_info_str+0x90>
    35e4:	83 ec 0c             	sub    $0xc,%esp
    35e7:	50                   	push   %eax
    35e8:	e8 f3 ac 00 00       	call   e2e0 <str_size@plt>
    35ed:	83 c4 0c             	add    $0xc,%esp
    35f0:	8d 58 01             	lea    0x1(%eax),%ebx
    35f3:	8b 45 10             	mov    0x10(%ebp),%eax
    35f6:	53                   	push   %ebx
    35f7:	56                   	push   %esi
    35f8:	50                   	push   %eax
    35f9:	e8 02 ad 00 00       	call   e300 <async_answer_1@plt>
    35fe:	83 c4 10             	add    $0x10,%esp
    3601:	85 f6                	test   %esi,%esi
    3603:	75 2f                	jne    3634 <remote_audio_pcm_get_info_str+0x84>
    3605:	85 db                	test   %ebx,%ebx
    3607:	74 2b                	je     3634 <remote_audio_pcm_get_info_str+0x84>
    3609:	50                   	push   %eax
    360a:	50                   	push   %eax
    360b:	8d 45 f0             	lea    -0x10(%ebp),%eax
    360e:	50                   	push   %eax
    360f:	8d 45 f4             	lea    -0xc(%ebp),%eax
    3612:	50                   	push   %eax
    3613:	e8 68 ac 00 00       	call   e280 <async_data_read_receive@plt>
    3618:	83 c4 10             	add    $0x10,%esp
    361b:	84 c0                	test   %al,%al
    361d:	74 69                	je     3688 <remote_audio_pcm_get_info_str+0xd8>
    361f:	3b 5d f0             	cmp    -0x10(%ebp),%ebx
    3622:	74 34                	je     3658 <remote_audio_pcm_get_info_str+0xa8>
    3624:	50                   	push   %eax
    3625:	50                   	push   %eax
    3626:	8b 45 f4             	mov    -0xc(%ebp),%eax
    3629:	6a fd                	push   $0xfffffffd
    362b:	50                   	push   %eax
    362c:	e8 7f aa 00 00       	call   e0b0 <async_answer_0@plt>
    3631:	83 c4 10             	add    $0x10,%esp
    3634:	8d 65 f8             	lea    -0x8(%ebp),%esp
    3637:	5b                   	pop    %ebx
    3638:	5e                   	pop    %esi
    3639:	5d                   	pop    %ebp
    363a:	c3                   	ret    
    363b:	90                   	nop
    363c:	8d 74 26 00          	lea    0x0(%esi,%eiz,1),%esi
    3640:	8b 55 10             	mov    0x10(%ebp),%edx
    3643:	50                   	push   %eax
    3644:	6a 00                	push   $0x0
    3646:	56                   	push   %esi
    3647:	52                   	push   %edx
    3648:	e8 b3 ac 00 00       	call   e300 <async_answer_1@plt>
    364d:	83 c4 10             	add    $0x10,%esp
    3650:	8d 65 f8             	lea    -0x8(%ebp),%esp
    3653:	5b                   	pop    %ebx
    3654:	5e                   	pop    %esi
    3655:	5d                   	pop    %ebp
    3656:	c3                   	ret    
    3657:	90                   	nop
    3658:	8b 75 f4             	mov    -0xc(%ebp),%esi
    365b:	51                   	push   %ecx
    365c:	53                   	push   %ebx
    365d:	8b 5d ec             	mov    -0x14(%ebp),%ebx
    3660:	53                   	push   %ebx
    3661:	56                   	push   %esi
    3662:	e8 c9 a9 00 00       	call   e030 <async_data_read_finalize@plt>
    3667:	83 c4 10             	add    $0x10,%esp
    366a:	eb c8                	jmp    3634 <remote_audio_pcm_get_info_str+0x84>
    366c:	8d 74 26 00          	lea    0x0(%esi,%eiz,1),%esi
    3670:	8b 75 10             	mov    0x10(%ebp),%esi
    3673:	53                   	push   %ebx
    3674:	53                   	push   %ebx
    3675:	6a f5                	push   $0xfffffff5
    3677:	56                   	push   %esi
    3678:	e8 33 aa 00 00       	call   e0b0 <async_answer_0@plt>
    367d:	83 c4 10             	add    $0x10,%esp
    3680:	8d 65 f8             	lea    -0x8(%ebp),%esp
    3683:	5b                   	pop    %ebx
    3684:	5e                   	pop    %esi
    3685:	5d                   	pop    %ebp
    3686:	c3                   	ret    
    3687:	90                   	nop
    3688:	50                   	push   %eax
    3689:	50                   	push   %eax
    368a:	8b 45 f4             	mov    -0xc(%ebp),%eax
    368d:	6a f8                	push   $0xfffffff8
    368f:	50                   	push   %eax
    3690:	e8 1b aa 00 00       	call   e0b0 <async_answer_0@plt>
    3695:	83 c4 10             	add    $0x10,%esp
    3698:	eb 9a                	jmp    3634 <remote_audio_pcm_get_info_str+0x84>
    369a:	8d b6 00 00 00 00    	lea    0x0(%esi),%esi

000036a0 <audio_pcm_cap_str>:
    36a0:	55                   	push   %ebp
    36a1:	b8 f4 c4 00 00       	mov    $0xc4f4,%eax
    36a6:	89 e5                	mov    %esp,%ebp
    36a8:	8b 55 08             	mov    0x8(%ebp),%edx
    36ab:	83 fa 06             	cmp    $0x6,%edx
    36ae:	77 07                	ja     36b7 <audio_pcm_cap_str+0x17>
    36b0:	8b 04 95 b8 d6 00 00 	mov    0xd6b8(,%edx,4),%eax
    36b7:	5d                   	pop    %ebp
    36b8:	c3                   	ret    
    36b9:	8d b4 26 00 00 00 00 	lea    0x0(%esi,%eiz,1),%esi

000036c0 <audio_pcm_event_str>:
    36c0:	55                   	push   %ebp
    36c1:	b8 00 c5 00 00       	mov    $0xc500,%eax
    36c6:	89 e5                	mov    %esp,%ebp
    36c8:	8b 55 08             	mov    0x8(%ebp),%edx
    36cb:	81 fa 05 04 00 00    	cmp    $0x405,%edx
    36d1:	77 07                	ja     36da <audio_pcm_event_str+0x1a>
    36d3:	8b 04 95 a0 c6 00 00 	mov    0xc6a0(,%edx,4),%eax
    36da:	5d                   	pop    %ebp
    36db:	c3                   	ret    
    36dc:	8d 74 26 00          	lea    0x0(%esi,%eiz,1),%esi

000036e0 <audio_pcm_open_default>:
    36e0:	55                   	push   %ebp
    36e1:	89 e5                	mov    %esp,%ebp
    36e3:	83 ec 28             	sub    $0x28,%esp
    36e6:	80 3d 74 05 01 00 00 	cmpb   $0x0,0x10574
    36ed:	75 20                	jne    370f <audio_pcm_open_default+0x2f>
    36ef:	50                   	push   %eax
    36f0:	6a 01                	push   $0x1
    36f2:	68 70 05 01 00       	push   $0x10570
    36f7:	68 0e c5 00 00       	push   $0xc50e
    36fc:	e8 0f a8 00 00       	call   df10 <loc_category_get_id@plt>
    3701:	83 c4 10             	add    $0x10,%esp
    3704:	85 c0                	test   %eax,%eax
    3706:	75 68                	jne    3770 <audio_pcm_open_default+0x90>
    3708:	c6 05 74 05 01 00 01 	movb   $0x1,0x10574
    370f:	8d 45 f4             	lea    -0xc(%ebp),%eax
    3712:	51                   	push   %ecx
    3713:	50                   	push   %eax
    3714:	8d 45 f0             	lea    -0x10(%ebp),%eax
    3717:	50                   	push   %eax
    3718:	a1 70 05 01 00       	mov    0x10570,%eax
    371d:	50                   	push   %eax
    371e:	c7 45 f0 00 00 00 00 	movl   $0x0,-0x10(%ebp)
    3725:	c7 45 f4 00 00 00 00 	movl   $0x0,-0xc(%ebp)
    372c:	e8 8f ab 00 00       	call   e2c0 <loc_category_get_svcs@plt>
    3731:	83 c4 10             	add    $0x10,%esp
    3734:	85 c0                	test   %eax,%eax
    3736:	75 38                	jne    3770 <audio_pcm_open_default+0x90>
    3738:	8b 55 f4             	mov    -0xc(%ebp),%edx
    373b:	85 d2                	test   %edx,%edx
    373d:	75 19                	jne    3758 <audio_pcm_open_default+0x78>
    373f:	83 ec 0c             	sub    $0xc,%esp
    3742:	89 45 e4             	mov    %eax,-0x1c(%ebp)
    3745:	8b 45 f0             	mov    -0x10(%ebp),%eax
    3748:	50                   	push   %eax
    3749:	e8 b2 ac 00 00       	call   e400 <free@plt>
    374e:	8b 45 e4             	mov    -0x1c(%ebp),%eax
    3751:	83 c4 10             	add    $0x10,%esp
    3754:	c9                   	leave  
    3755:	c3                   	ret    
    3756:	66 90                	xchg   %ax,%ax
    3758:	8b 45 f0             	mov    -0x10(%ebp),%eax
    375b:	52                   	push   %edx
    375c:	6a 01                	push   $0x1
    375e:	68 41 26 9b 41       	push   $0x419b2641
    3763:	8b 08                	mov    (%eax),%ecx
    3765:	51                   	push   %ecx
    3766:	e8 e5 a7 00 00       	call   df50 <loc_service_connect@plt>
    376b:	83 c4 10             	add    $0x10,%esp
    376e:	eb cf                	jmp    373f <audio_pcm_open_default+0x5f>
    3770:	31 c0                	xor    %eax,%eax
    3772:	c9                   	leave  
    3773:	c3                   	ret    
    3774:	8d b6 00 00 00 00    	lea    0x0(%esi),%esi
    377a:	8d bf 00 00 00 00    	lea    0x0(%edi),%edi

00003780 <audio_pcm_open>:
    3780:	55                   	push   %ebp
    3781:	89 e5                	mov    %esp,%ebp
    3783:	83 ec 1c             	sub    $0x1c,%esp
    3786:	8d 45 f4             	lea    -0xc(%ebp),%eax
    3789:	8b 4d 08             	mov    0x8(%ebp),%ecx
    378c:	6a 00                	push   $0x0
    378e:	c7 45 f4 00 00 00 00 	movl   $0x0,-0xc(%ebp)
    3795:	50                   	push   %eax
    3796:	51                   	push   %ecx
    3797:	e8 94 ab 00 00       	call   e330 <devman_fun_get_handle@plt>
    379c:	83 c4 10             	add    $0x10,%esp
    379f:	85 c0                	test   %eax,%eax
    37a1:	75 15                	jne    37b8 <audio_pcm_open+0x38>
    37a3:	8b 55 f4             	mov    -0xc(%ebp),%edx
    37a6:	50                   	push   %eax
    37a7:	50                   	push   %eax
    37a8:	6a 01                	push   $0x1
    37aa:	52                   	push   %edx
    37ab:	e8 80 a7 00 00       	call   df30 <devman_device_connect@plt>
    37b0:	83 c4 10             	add    $0x10,%esp
    37b3:	c9                   	leave  
    37b4:	c3                   	ret    
    37b5:	8d 76 00             	lea    0x0(%esi),%esi
    37b8:	31 c0                	xor    %eax,%eax
    37ba:	c9                   	leave  
    37bb:	c3                   	ret    
    37bc:	8d 74 26 00          	lea    0x0(%esi,%eiz,1),%esi

000037c0 <audio_pcm_open_service>:
    37c0:	55                   	push   %ebp
    37c1:	89 e5                	mov    %esp,%ebp
    37c3:	83 ec 0c             	sub    $0xc,%esp
    37c6:	8b 45 08             	mov    0x8(%ebp),%eax
    37c9:	6a 01                	push   $0x1
    37cb:	68 41 26 9b 41       	push   $0x419b2641
    37d0:	50                   	push   %eax
    37d1:	e8 7a a7 00 00       	call   df50 <loc_service_connect@plt>
    37d6:	c9                   	leave  
    37d7:	c3                   	ret    
    37d8:	90                   	nop
    37d9:	8d b4 26 00 00 00 00 	lea    0x0(%esi,%eiz,1),%esi

000037e0 <audio_pcm_close>:
    37e0:	55                   	push   %ebp
    37e1:	89 e5                	mov    %esp,%ebp
    37e3:	8b 45 08             	mov    0x8(%ebp),%eax
    37e6:	85 c0                	test   %eax,%eax
    37e8:	74 06                	je     37f0 <audio_pcm_close+0x10>
    37ea:	5d                   	pop    %ebp
    37eb:	e9 a0 a7 00 00       	jmp    df90 <async_hangup@plt>
    37f0:	5d                   	pop    %ebp
    37f1:	c3                   	ret    
    37f2:	8d b4 26 00 00 00 00 	lea    0x0(%esi,%eiz,1),%esi
    37f9:	8d bc 27 00 00 00 00 	lea    0x0(%edi,%eiz,1),%edi

00003800 <audio_pcm_get_info_str>:
    3800:	55                   	push   %ebp
    3801:	89 e5                	mov    %esp,%ebp
    3803:	57                   	push   %edi
    3804:	56                   	push   %esi
    3805:	53                   	push   %ebx
    3806:	83 ec 2c             	sub    $0x2c,%esp
    3809:	8b 45 0c             	mov    0xc(%ebp),%eax
    380c:	85 c0                	test   %eax,%eax
    380e:	0f 84 ac 00 00 00    	je     38c0 <audio_pcm_get_info_str+0xc0>
    3814:	83 ec 0c             	sub    $0xc,%esp
    3817:	8b 45 08             	mov    0x8(%ebp),%eax
    381a:	50                   	push   %eax
    381b:	e8 f0 aa 00 00       	call   e310 <async_exchange_begin@plt>
    3820:	83 c4 0c             	add    $0xc,%esp
    3823:	89 c6                	mov    %eax,%esi
    3825:	8d 45 e4             	lea    -0x1c(%ebp),%eax
    3828:	6a 00                	push   $0x0
    382a:	6a 00                	push   $0x0
    382c:	6a 00                	push   $0x0
    382e:	6a 00                	push   $0x0
    3830:	50                   	push   %eax
    3831:	6a 00                	push   $0x0
    3833:	6a 00                	push   $0x0
    3835:	6a 00                	push   $0x0
    3837:	6a 00                	push   $0x0
    3839:	68 04 04 00 00       	push   $0x404
    383e:	56                   	push   %esi
    383f:	e8 4c a8 00 00       	call   e090 <async_req_fast@plt>
    3844:	83 c4 30             	add    $0x30,%esp
    3847:	89 c3                	mov    %eax,%ebx
    3849:	85 c0                	test   %eax,%eax
    384b:	75 2e                	jne    387b <audio_pcm_get_info_str+0x7b>
    384d:	8b 45 e4             	mov    -0x1c(%ebp),%eax
    3850:	57                   	push   %edi
    3851:	57                   	push   %edi
    3852:	50                   	push   %eax
    3853:	6a 01                	push   $0x1
    3855:	e8 d6 a8 00 00       	call   e130 <calloc@plt>
    385a:	83 c4 10             	add    $0x10,%esp
    385d:	89 c7                	mov    %eax,%edi
    385f:	85 c0                	test   %eax,%eax
    3861:	74 64                	je     38c7 <audio_pcm_get_info_str+0xc7>
    3863:	8b 55 e4             	mov    -0x1c(%ebp),%edx
    3866:	50                   	push   %eax
    3867:	52                   	push   %edx
    3868:	57                   	push   %edi
    3869:	56                   	push   %esi
    386a:	e8 21 aa 00 00       	call   e290 <async_data_read_start@plt>
    386f:	83 c4 10             	add    $0x10,%esp
    3872:	85 c0                	test   %eax,%eax
    3874:	75 22                	jne    3898 <audio_pcm_get_info_str+0x98>
    3876:	8b 45 0c             	mov    0xc(%ebp),%eax
    3879:	89 38                	mov    %edi,(%eax)
    387b:	83 ec 0c             	sub    $0xc,%esp
    387e:	56                   	push   %esi
    387f:	e8 7c a8 00 00       	call   e100 <async_exchange_end@plt>
    3884:	83 c4 10             	add    $0x10,%esp
    3887:	89 d8                	mov    %ebx,%eax
    3889:	8d 65 f4             	lea    -0xc(%ebp),%esp
    388c:	5b                   	pop    %ebx
    388d:	5e                   	pop    %esi
    388e:	5f                   	pop    %edi
    388f:	5d                   	pop    %ebp
    3890:	c3                   	ret    
    3891:	8d b4 26 00 00 00 00 	lea    0x0(%esi,%eiz,1),%esi
    3898:	83 ec 0c             	sub    $0xc,%esp
    389b:	89 45 d4             	mov    %eax,-0x2c(%ebp)
    389e:	57                   	push   %edi
    389f:	e8 5c ab 00 00       	call   e400 <free@plt>
    38a4:	89 34 24             	mov    %esi,(%esp)
    38a7:	e8 54 a8 00 00       	call   e100 <async_exchange_end@plt>
    38ac:	8b 45 d4             	mov    -0x2c(%ebp),%eax
    38af:	83 c4 10             	add    $0x10,%esp
    38b2:	8d 65 f4             	lea    -0xc(%ebp),%esp
    38b5:	5b                   	pop    %ebx
    38b6:	5e                   	pop    %esi
    38b7:	5f                   	pop    %edi
    38b8:	5d                   	pop    %ebp
    38b9:	c3                   	ret    
    38ba:	8d b6 00 00 00 00    	lea    0x0(%esi),%esi
    38c0:	b8 f2 ff ff ff       	mov    $0xfffffff2,%eax
    38c5:	eb c2                	jmp    3889 <audio_pcm_get_info_str+0x89>
    38c7:	51                   	push   %ecx
    38c8:	6a 00                	push   $0x0
    38ca:	6a ff                	push   $0xffffffff
    38cc:	56                   	push   %esi
    38cd:	e8 be a9 00 00       	call   e290 <async_data_read_start@plt>
    38d2:	89 34 24             	mov    %esi,(%esp)
    38d5:	e8 26 a8 00 00       	call   e100 <async_exchange_end@plt>
    38da:	83 c4 10             	add    $0x10,%esp
    38dd:	b8 fe ff ff ff       	mov    $0xfffffffe,%eax
    38e2:	eb a5                	jmp    3889 <audio_pcm_get_info_str+0x89>
    38e4:	8d b6 00 00 00 00    	lea    0x0(%esi),%esi
    38ea:	8d bf 00 00 00 00    	lea    0x0(%edi),%edi

000038f0 <audio_pcm_query_cap>:
    38f0:	55                   	push   %ebp
    38f1:	89 e5                	mov    %esp,%ebp
    38f3:	53                   	push   %ebx
    38f4:	83 ec 30             	sub    $0x30,%esp
    38f7:	8b 45 08             	mov    0x8(%ebp),%eax
    38fa:	50                   	push   %eax
    38fb:	e8 10 aa 00 00       	call   e310 <async_exchange_begin@plt>
    3900:	83 c4 0c             	add    $0xc,%esp
    3903:	89 c3                	mov    %eax,%ebx
    3905:	8b 55 0c             	mov    0xc(%ebp),%edx
    3908:	8d 45 f4             	lea    -0xc(%ebp),%eax
    390b:	6a 00                	push   $0x0
    390d:	c7 45 f4 00 00 00 00 	movl   $0x0,-0xc(%ebp)
    3914:	6a 00                	push   $0x0
    3916:	6a 00                	push   $0x0
    3918:	6a 00                	push   $0x0
    391a:	50                   	push   %eax
    391b:	6a 00                	push   $0x0
    391d:	6a 00                	push   $0x0
    391f:	52                   	push   %edx
    3920:	6a 01                	push   $0x1
    3922:	68 04 04 00 00       	push   $0x404
    3927:	53                   	push   %ebx
    3928:	e8 63 a7 00 00       	call   e090 <async_req_fast@plt>
    392d:	83 c4 24             	add    $0x24,%esp
    3930:	89 45 e4             	mov    %eax,-0x1c(%ebp)
    3933:	53                   	push   %ebx
    3934:	e8 c7 a7 00 00       	call   e100 <async_exchange_end@plt>
    3939:	8b 45 e4             	mov    -0x1c(%ebp),%eax
    393c:	83 c4 10             	add    $0x10,%esp
    393f:	85 c0                	test   %eax,%eax
    3941:	75 03                	jne    3946 <audio_pcm_query_cap+0x56>
    3943:	8b 45 f4             	mov    -0xc(%ebp),%eax
    3946:	8b 5d fc             	mov    -0x4(%ebp),%ebx
    3949:	c9                   	leave  
    394a:	c3                   	ret    
    394b:	90                   	nop
    394c:	8d 74 26 00          	lea    0x0(%esi,%eiz,1),%esi

00003950 <audio_pcm_get_buffer_pos>:
    3950:	55                   	push   %ebp
    3951:	89 e5                	mov    %esp,%ebp
    3953:	56                   	push   %esi
    3954:	53                   	push   %ebx
    3955:	83 ec 20             	sub    $0x20,%esp
    3958:	8b 75 0c             	mov    0xc(%ebp),%esi
    395b:	85 f6                	test   %esi,%esi
    395d:	74 61                	je     39c0 <audio_pcm_get_buffer_pos+0x70>
    395f:	83 ec 0c             	sub    $0xc,%esp
    3962:	8b 45 08             	mov    0x8(%ebp),%eax
    3965:	50                   	push   %eax
    3966:	e8 a5 a9 00 00       	call   e310 <async_exchange_begin@plt>
    396b:	83 c4 0c             	add    $0xc,%esp
    396e:	89 c3                	mov    %eax,%ebx
    3970:	8d 45 f4             	lea    -0xc(%ebp),%eax
    3973:	c7 45 f4 00 00 00 00 	movl   $0x0,-0xc(%ebp)
    397a:	6a 00                	push   $0x0
    397c:	6a 00                	push   $0x0
    397e:	6a 00                	push   $0x0
    3980:	6a 00                	push   $0x0
    3982:	50                   	push   %eax
    3983:	6a 00                	push   $0x0
    3985:	6a 00                	push   $0x0
    3987:	6a 00                	push   $0x0
    3989:	6a 07                	push   $0x7
    398b:	68 04 04 00 00       	push   $0x404
    3990:	53                   	push   %ebx
    3991:	e8 fa a6 00 00       	call   e090 <async_req_fast@plt>
    3996:	83 c4 30             	add    $0x30,%esp
    3999:	85 c0                	test   %eax,%eax
    399b:	74 1b                	je     39b8 <audio_pcm_get_buffer_pos+0x68>
    399d:	83 ec 0c             	sub    $0xc,%esp
    39a0:	89 45 e4             	mov    %eax,-0x1c(%ebp)
    39a3:	53                   	push   %ebx
    39a4:	e8 57 a7 00 00       	call   e100 <async_exchange_end@plt>
    39a9:	83 c4 10             	add    $0x10,%esp
    39ac:	8b 45 e4             	mov    -0x1c(%ebp),%eax
    39af:	8d 65 f8             	lea    -0x8(%ebp),%esp
    39b2:	5b                   	pop    %ebx
    39b3:	5e                   	pop    %esi
    39b4:	5d                   	pop    %ebp
    39b5:	c3                   	ret    
    39b6:	66 90                	xchg   %ax,%ax
    39b8:	8b 55 f4             	mov    -0xc(%ebp),%edx
    39bb:	89 16                	mov    %edx,(%esi)
    39bd:	eb de                	jmp    399d <audio_pcm_get_buffer_pos+0x4d>
    39bf:	90                   	nop
    39c0:	b8 f2 ff ff ff       	mov    $0xfffffff2,%eax
    39c5:	eb e8                	jmp    39af <audio_pcm_get_buffer_pos+0x5f>
    39c7:	89 f6                	mov    %esi,%esi
    39c9:	8d bc 27 00 00 00 00 	lea    0x0(%edi,%eiz,1),%edi

000039d0 <audio_pcm_test_format>:
    39d0:	55                   	push   %ebp
    39d1:	89 e5                	mov    %esp,%ebp
    39d3:	57                   	push   %edi
    39d4:	56                   	push   %esi
    39d5:	53                   	push   %ebx
    39d6:	83 ec 38             	sub    $0x38,%esp
    39d9:	8b 45 08             	mov    0x8(%ebp),%eax
    39dc:	8b 5d 0c             	mov    0xc(%ebp),%ebx
    39df:	50                   	push   %eax
    39e0:	e8 2b a9 00 00       	call   e310 <async_exchange_begin@plt>
    39e5:	83 c4 10             	add    $0x10,%esp
    39e8:	89 c6                	mov    %eax,%esi
    39ea:	85 db                	test   %ebx,%ebx
    39ec:	0f 84 be 00 00 00    	je     3ab0 <audio_pcm_test_format+0xe0>
    39f2:	8b 03                	mov    (%ebx),%eax
    39f4:	8b 7d 10             	mov    0x10(%ebp),%edi
    39f7:	89 45 dc             	mov    %eax,-0x24(%ebp)
    39fa:	85 ff                	test   %edi,%edi
    39fc:	0f 84 be 00 00 00    	je     3ac0 <audio_pcm_test_format+0xf0>
    3a02:	8b 4d 10             	mov    0x10(%ebp),%ecx
    3a05:	8b 11                	mov    (%ecx),%edx
    3a07:	8b 4d 14             	mov    0x14(%ebp),%ecx
    3a0a:	89 55 e0             	mov    %edx,-0x20(%ebp)
    3a0d:	85 c9                	test   %ecx,%ecx
    3a0f:	0f 84 bb 00 00 00    	je     3ad0 <audio_pcm_test_format+0x100>
    3a15:	8b 7d 14             	mov    0x14(%ebp),%edi
    3a18:	8b 0f                	mov    (%edi),%ecx
    3a1a:	57                   	push   %edi
    3a1b:	8d 7d e4             	lea    -0x1c(%ebp),%edi
    3a1e:	6a 00                	push   $0x0
    3a20:	6a 00                	push   $0x0
    3a22:	57                   	push   %edi
    3a23:	8d 7d e0             	lea    -0x20(%ebp),%edi
    3a26:	57                   	push   %edi
    3a27:	8d 7d dc             	lea    -0x24(%ebp),%edi
    3a2a:	57                   	push   %edi
    3a2b:	89 4d e4             	mov    %ecx,-0x1c(%ebp)
    3a2e:	51                   	push   %ecx
    3a2f:	52                   	push   %edx
    3a30:	50                   	push   %eax
    3a31:	6a 04                	push   $0x4
    3a33:	68 04 04 00 00       	push   $0x404
    3a38:	56                   	push   %esi
    3a39:	e8 52 a6 00 00       	call   e090 <async_req_fast@plt>
    3a3e:	83 c4 24             	add    $0x24,%esp
    3a41:	89 45 d4             	mov    %eax,-0x2c(%ebp)
    3a44:	56                   	push   %esi
    3a45:	e8 b6 a6 00 00       	call   e100 <async_exchange_end@plt>
    3a4a:	8b 45 d4             	mov    -0x2c(%ebp),%eax
    3a4d:	83 c4 10             	add    $0x10,%esp
    3a50:	85 c0                	test   %eax,%eax
    3a52:	74 34                	je     3a88 <audio_pcm_test_format+0xb8>
    3a54:	83 f8 fd             	cmp    $0xfffffffd,%eax
    3a57:	74 2f                	je     3a88 <audio_pcm_test_format+0xb8>
    3a59:	85 db                	test   %ebx,%ebx
    3a5b:	74 05                	je     3a62 <audio_pcm_test_format+0x92>
    3a5d:	8b 55 dc             	mov    -0x24(%ebp),%edx
    3a60:	89 13                	mov    %edx,(%ebx)
    3a62:	8b 4d 10             	mov    0x10(%ebp),%ecx
    3a65:	85 c9                	test   %ecx,%ecx
    3a67:	74 08                	je     3a71 <audio_pcm_test_format+0xa1>
    3a69:	8b 55 e0             	mov    -0x20(%ebp),%edx
    3a6c:	8b 75 10             	mov    0x10(%ebp),%esi
    3a6f:	89 16                	mov    %edx,(%esi)
    3a71:	8b 55 14             	mov    0x14(%ebp),%edx
    3a74:	85 d2                	test   %edx,%edx
    3a76:	74 08                	je     3a80 <audio_pcm_test_format+0xb0>
    3a78:	8b 4d 14             	mov    0x14(%ebp),%ecx
    3a7b:	8b 55 e4             	mov    -0x1c(%ebp),%edx
    3a7e:	89 11                	mov    %edx,(%ecx)
    3a80:	8d 65 f4             	lea    -0xc(%ebp),%esp
    3a83:	5b                   	pop    %ebx
    3a84:	5e                   	pop    %esi
    3a85:	5f                   	pop    %edi
    3a86:	5d                   	pop    %ebp
    3a87:	c3                   	ret    
    3a88:	85 db                	test   %ebx,%ebx
    3a8a:	74 07                	je     3a93 <audio_pcm_test_format+0xc3>
    3a8c:	8b 55 dc             	mov    -0x24(%ebp),%edx
    3a8f:	39 13                	cmp    %edx,(%ebx)
    3a91:	75 cd                	jne    3a60 <audio_pcm_test_format+0x90>
    3a93:	8b 7d 10             	mov    0x10(%ebp),%edi
    3a96:	85 ff                	test   %edi,%edi
    3a98:	74 3e                	je     3ad8 <audio_pcm_test_format+0x108>
    3a9a:	8b 75 10             	mov    0x10(%ebp),%esi
    3a9d:	8b 55 e0             	mov    -0x20(%ebp),%edx
    3aa0:	39 16                	cmp    %edx,(%esi)
    3aa2:	74 34                	je     3ad8 <audio_pcm_test_format+0x108>
    3aa4:	85 db                	test   %ebx,%ebx
    3aa6:	75 b5                	jne    3a5d <audio_pcm_test_format+0x8d>
    3aa8:	eb c5                	jmp    3a6f <audio_pcm_test_format+0x9f>
    3aaa:	8d b6 00 00 00 00    	lea    0x0(%esi),%esi
    3ab0:	31 c0                	xor    %eax,%eax
    3ab2:	8b 7d 10             	mov    0x10(%ebp),%edi
    3ab5:	89 45 dc             	mov    %eax,-0x24(%ebp)
    3ab8:	85 ff                	test   %edi,%edi
    3aba:	0f 85 42 ff ff ff    	jne    3a02 <audio_pcm_test_format+0x32>
    3ac0:	31 d2                	xor    %edx,%edx
    3ac2:	8b 4d 14             	mov    0x14(%ebp),%ecx
    3ac5:	89 55 e0             	mov    %edx,-0x20(%ebp)
    3ac8:	85 c9                	test   %ecx,%ecx
    3aca:	0f 85 45 ff ff ff    	jne    3a15 <audio_pcm_test_format+0x45>
    3ad0:	31 c9                	xor    %ecx,%ecx
    3ad2:	e9 43 ff ff ff       	jmp    3a1a <audio_pcm_test_format+0x4a>
    3ad7:	90                   	nop
    3ad8:	8b 75 14             	mov    0x14(%ebp),%esi
    3adb:	85 f6                	test   %esi,%esi
    3add:	74 0e                	je     3aed <audio_pcm_test_format+0x11d>
    3adf:	8b 75 14             	mov    0x14(%ebp),%esi
    3ae2:	8b 4d e4             	mov    -0x1c(%ebp),%ecx
    3ae5:	39 0e                	cmp    %ecx,(%esi)
    3ae7:	0f 85 6c ff ff ff    	jne    3a59 <audio_pcm_test_format+0x89>
    3aed:	31 c0                	xor    %eax,%eax
    3aef:	eb 8f                	jmp    3a80 <audio_pcm_test_format+0xb0>
    3af1:	eb 0d                	jmp    3b00 <audio_pcm_register_event_callback>
    3af3:	90                   	nop
    3af4:	90                   	nop
    3af5:	90                   	nop
    3af6:	90                   	nop
    3af7:	90                   	nop
    3af8:	90                   	nop
    3af9:	90                   	nop
    3afa:	90                   	nop
    3afb:	90                   	nop
    3afc:	90                   	nop
    3afd:	90                   	nop
    3afe:	90                   	nop
    3aff:	90                   	nop

00003b00 <audio_pcm_register_event_callback>:
    3b00:	55                   	push   %ebp
    3b01:	89 e5                	mov    %esp,%ebp
    3b03:	56                   	push   %esi
    3b04:	53                   	push   %ebx
    3b05:	83 ec 20             	sub    $0x20,%esp
    3b08:	8b 75 0c             	mov    0xc(%ebp),%esi
    3b0b:	85 f6                	test   %esi,%esi
    3b0d:	74 71                	je     3b80 <audio_pcm_register_event_callback+0x80>
    3b0f:	83 ec 0c             	sub    $0xc,%esp
    3b12:	8b 4d 08             	mov    0x8(%ebp),%ecx
    3b15:	51                   	push   %ecx
    3b16:	e8 f5 a7 00 00       	call   e310 <async_exchange_begin@plt>
    3b1b:	83 c4 0c             	add    $0xc,%esp
    3b1e:	89 c3                	mov    %eax,%ebx
    3b20:	6a 00                	push   $0x0
    3b22:	6a 00                	push   $0x0
    3b24:	6a 00                	push   $0x0
    3b26:	6a 00                	push   $0x0
    3b28:	6a 00                	push   $0x0
    3b2a:	6a 00                	push   $0x0
    3b2c:	6a 00                	push   $0x0
    3b2e:	6a 00                	push   $0x0
    3b30:	6a 02                	push   $0x2
    3b32:	68 04 04 00 00       	push   $0x404
    3b37:	50                   	push   %eax
    3b38:	e8 53 a5 00 00       	call   e090 <async_req_fast@plt>
    3b3d:	83 c4 30             	add    $0x30,%esp
    3b40:	85 c0                	test   %eax,%eax
    3b42:	74 1c                	je     3b60 <audio_pcm_register_event_callback+0x60>
    3b44:	83 ec 0c             	sub    $0xc,%esp
    3b47:	89 45 e4             	mov    %eax,-0x1c(%ebp)
    3b4a:	53                   	push   %ebx
    3b4b:	e8 b0 a5 00 00       	call   e100 <async_exchange_end@plt>
    3b50:	83 c4 10             	add    $0x10,%esp
    3b53:	8b 45 e4             	mov    -0x1c(%ebp),%eax
    3b56:	8d 65 f8             	lea    -0x8(%ebp),%esp
    3b59:	5b                   	pop    %ebx
    3b5a:	5e                   	pop    %esi
    3b5b:	5d                   	pop    %ebp
    3b5c:	c3                   	ret    
    3b5d:	8d 76 00             	lea    0x0(%esi),%esi
    3b60:	8b 55 10             	mov    0x10(%ebp),%edx
    3b63:	50                   	push   %eax
    3b64:	8d 45 f4             	lea    -0xc(%ebp),%eax
    3b67:	50                   	push   %eax
    3b68:	52                   	push   %edx
    3b69:	56                   	push   %esi
    3b6a:	6a 00                	push   $0x0
    3b6c:	6a 00                	push   $0x0
    3b6e:	68 16 86 8f db       	push   $0xdb8f8616
    3b73:	53                   	push   %ebx
    3b74:	e8 c7 a6 00 00       	call   e240 <async_create_callback_port@plt>
    3b79:	83 c4 20             	add    $0x20,%esp
    3b7c:	eb c6                	jmp    3b44 <audio_pcm_register_event_callback+0x44>
    3b7e:	66 90                	xchg   %ax,%ax
    3b80:	b8 f2 ff ff ff       	mov    $0xfffffff2,%eax
    3b85:	eb cf                	jmp    3b56 <audio_pcm_register_event_callback+0x56>
    3b87:	89 f6                	mov    %esi,%esi
    3b89:	8d bc 27 00 00 00 00 	lea    0x0(%edi,%eiz,1),%edi

00003b90 <audio_pcm_unregister_event_callback>:
    3b90:	55                   	push   %ebp
    3b91:	89 e5                	mov    %esp,%ebp
    3b93:	53                   	push   %ebx
    3b94:	83 ec 20             	sub    $0x20,%esp
    3b97:	8b 45 08             	mov    0x8(%ebp),%eax
    3b9a:	50                   	push   %eax
    3b9b:	e8 70 a7 00 00       	call   e310 <async_exchange_begin@plt>
    3ba0:	83 c4 0c             	add    $0xc,%esp
    3ba3:	89 c3                	mov    %eax,%ebx
    3ba5:	6a 00                	push   $0x0
    3ba7:	6a 00                	push   $0x0
    3ba9:	6a 00                	push   $0x0
    3bab:	6a 00                	push   $0x0
    3bad:	6a 00                	push   $0x0
    3baf:	6a 00                	push   $0x0
    3bb1:	6a 00                	push   $0x0
    3bb3:	6a 00                	push   $0x0
    3bb5:	6a 03                	push   $0x3
    3bb7:	68 04 04 00 00       	push   $0x404
    3bbc:	50                   	push   %eax
    3bbd:	e8 ce a4 00 00       	call   e090 <async_req_fast@plt>
    3bc2:	83 c4 24             	add    $0x24,%esp
    3bc5:	89 45 f4             	mov    %eax,-0xc(%ebp)
    3bc8:	53                   	push   %ebx
    3bc9:	e8 32 a5 00 00       	call   e100 <async_exchange_end@plt>
    3bce:	8b 45 f4             	mov    -0xc(%ebp),%eax
    3bd1:	8b 5d fc             	mov    -0x4(%ebp),%ebx
    3bd4:	c9                   	leave  
    3bd5:	c3                   	ret    
    3bd6:	8d 76 00             	lea    0x0(%esi),%esi
    3bd9:	8d bc 27 00 00 00 00 	lea    0x0(%edi,%eiz,1),%edi

00003be0 <audio_pcm_get_buffer>:
    3be0:	55                   	push   %ebp
    3be1:	89 e5                	mov    %esp,%ebp
    3be3:	57                   	push   %edi
    3be4:	56                   	push   %esi
    3be5:	53                   	push   %ebx
    3be6:	83 ec 2c             	sub    $0x2c,%esp
    3be9:	8b 75 0c             	mov    0xc(%ebp),%esi
    3bec:	8b 5d 10             	mov    0x10(%ebp),%ebx
    3bef:	85 f6                	test   %esi,%esi
    3bf1:	0f 84 91 00 00 00    	je     3c88 <audio_pcm_get_buffer+0xa8>
    3bf7:	85 db                	test   %ebx,%ebx
    3bf9:	0f 84 89 00 00 00    	je     3c88 <audio_pcm_get_buffer+0xa8>
    3bff:	83 ec 0c             	sub    $0xc,%esp
    3c02:	8b 55 08             	mov    0x8(%ebp),%edx
    3c05:	52                   	push   %edx
    3c06:	e8 05 a7 00 00       	call   e310 <async_exchange_begin@plt>
    3c0b:	83 c4 0c             	add    $0xc,%esp
    3c0e:	89 c7                	mov    %eax,%edi
    3c10:	8d 55 e0             	lea    -0x20(%ebp),%edx
    3c13:	8b 03                	mov    (%ebx),%eax
    3c15:	89 45 e0             	mov    %eax,-0x20(%ebp)
    3c18:	6a 00                	push   $0x0
    3c1a:	6a 00                	push   $0x0
    3c1c:	6a 00                	push   $0x0
    3c1e:	6a 00                	push   $0x0
    3c20:	52                   	push   %edx
    3c21:	6a 00                	push   $0x0
    3c23:	6a 00                	push   $0x0
    3c25:	50                   	push   %eax
    3c26:	6a 05                	push   $0x5
    3c28:	68 04 04 00 00       	push   $0x404
    3c2d:	57                   	push   %edi
    3c2e:	e8 5d a4 00 00       	call   e090 <async_req_fast@plt>
    3c33:	83 c4 30             	add    $0x30,%esp
    3c36:	85 c0                	test   %eax,%eax
    3c38:	75 2d                	jne    3c67 <audio_pcm_get_buffer+0x87>
    3c3a:	83 ec 0c             	sub    $0xc,%esp
    3c3d:	8d 45 e4             	lea    -0x1c(%ebp),%eax
    3c40:	c7 45 e4 00 00 00 00 	movl   $0x0,-0x1c(%ebp)
    3c47:	50                   	push   %eax
    3c48:	8b 45 e0             	mov    -0x20(%ebp),%eax
    3c4b:	6a 00                	push   $0x0
    3c4d:	6a 00                	push   $0x0
    3c4f:	50                   	push   %eax
    3c50:	57                   	push   %edi
    3c51:	e8 ea a3 00 00       	call   e040 <async_share_in_start@plt>
    3c56:	83 c4 20             	add    $0x20,%esp
    3c59:	85 c0                	test   %eax,%eax
    3c5b:	75 0a                	jne    3c67 <audio_pcm_get_buffer+0x87>
    3c5d:	8b 55 e4             	mov    -0x1c(%ebp),%edx
    3c60:	89 16                	mov    %edx,(%esi)
    3c62:	8b 55 e0             	mov    -0x20(%ebp),%edx
    3c65:	89 13                	mov    %edx,(%ebx)
    3c67:	83 ec 0c             	sub    $0xc,%esp
    3c6a:	89 45 d4             	mov    %eax,-0x2c(%ebp)
    3c6d:	57                   	push   %edi
    3c6e:	e8 8d a4 00 00       	call   e100 <async_exchange_end@plt>
    3c73:	83 c4 10             	add    $0x10,%esp
    3c76:	8b 45 d4             	mov    -0x2c(%ebp),%eax
    3c79:	8d 65 f4             	lea    -0xc(%ebp),%esp
    3c7c:	5b                   	pop    %ebx
    3c7d:	5e                   	pop    %esi
    3c7e:	5f                   	pop    %edi
    3c7f:	5d                   	pop    %ebp
    3c80:	c3                   	ret    
    3c81:	8d b4 26 00 00 00 00 	lea    0x0(%esi,%eiz,1),%esi
    3c88:	b8 f2 ff ff ff       	mov    $0xfffffff2,%eax
    3c8d:	eb ea                	jmp    3c79 <audio_pcm_get_buffer+0x99>
    3c8f:	90                   	nop

00003c90 <audio_pcm_release_buffer>:
    3c90:	55                   	push   %ebp
    3c91:	89 e5                	mov    %esp,%ebp
    3c93:	53                   	push   %ebx
    3c94:	83 ec 20             	sub    $0x20,%esp
    3c97:	8b 45 08             	mov    0x8(%ebp),%eax
    3c9a:	50                   	push   %eax
    3c9b:	e8 70 a6 00 00       	call   e310 <async_exchange_begin@plt>
    3ca0:	83 c4 0c             	add    $0xc,%esp
    3ca3:	89 c3                	mov    %eax,%ebx
    3ca5:	6a 00                	push   $0x0
    3ca7:	6a 00                	push   $0x0
    3ca9:	6a 00                	push   $0x0
    3cab:	6a 00                	push   $0x0
    3cad:	6a 00                	push   $0x0
    3caf:	6a 00                	push   $0x0
    3cb1:	6a 00                	push   $0x0
    3cb3:	6a 00                	push   $0x0
    3cb5:	6a 06                	push   $0x6
    3cb7:	68 04 04 00 00       	push   $0x404
    3cbc:	50                   	push   %eax
    3cbd:	e8 ce a3 00 00       	call   e090 <async_req_fast@plt>
    3cc2:	83 c4 24             	add    $0x24,%esp
    3cc5:	89 45 f4             	mov    %eax,-0xc(%ebp)
    3cc8:	53                   	push   %ebx
    3cc9:	e8 32 a4 00 00       	call   e100 <async_exchange_end@plt>
    3cce:	8b 45 f4             	mov    -0xc(%ebp),%eax
    3cd1:	8b 5d fc             	mov    -0x4(%ebp),%ebx
    3cd4:	c9                   	leave  
    3cd5:	c3                   	ret    
    3cd6:	8d 76 00             	lea    0x0(%esi),%esi
    3cd9:	8d bc 27 00 00 00 00 	lea    0x0(%edi,%eiz,1),%edi

00003ce0 <audio_pcm_start_playback_fragment>:
    3ce0:	55                   	push   %ebp
    3ce1:	89 e5                	mov    %esp,%ebp
    3ce3:	56                   	push   %esi
    3ce4:	53                   	push   %ebx
    3ce5:	83 ec 10             	sub    $0x10,%esp
    3ce8:	81 7d 10 ff ff 00 00 	cmpl   $0xffff,0x10(%ebp)
    3cef:	77 5f                	ja     3d50 <audio_pcm_start_playback_fragment+0x70>
    3cf1:	f7 45 18 00 00 ff ff 	testl  $0xffff0000,0x18(%ebp)
    3cf8:	75 5d                	jne    3d57 <audio_pcm_start_playback_fragment+0x77>
    3cfa:	83 ec 0c             	sub    $0xc,%esp
    3cfd:	8b 5d 10             	mov    0x10(%ebp),%ebx
    3d00:	8b 55 08             	mov    0x8(%ebp),%edx
    3d03:	8b 45 18             	mov    0x18(%ebp),%eax
    3d06:	c1 e3 10             	shl    $0x10,%ebx
    3d09:	52                   	push   %edx
    3d0a:	09 c3                	or     %eax,%ebx
    3d0c:	e8 ff a5 00 00       	call   e310 <async_exchange_begin@plt>
    3d11:	83 c4 0c             	add    $0xc,%esp
    3d14:	8b 4d 14             	mov    0x14(%ebp),%ecx
    3d17:	89 c6                	mov    %eax,%esi
    3d19:	6a 00                	push   $0x0
    3d1b:	6a 00                	push   $0x0
    3d1d:	6a 00                	push   $0x0
    3d1f:	6a 00                	push   $0x0
    3d21:	6a 00                	push   $0x0
    3d23:	53                   	push   %ebx
    3d24:	8b 5d 0c             	mov    0xc(%ebp),%ebx
    3d27:	51                   	push   %ecx
    3d28:	53                   	push   %ebx
    3d29:	6a 08                	push   $0x8
    3d2b:	68 04 04 00 00       	push   $0x404
    3d30:	50                   	push   %eax
    3d31:	e8 5a a3 00 00       	call   e090 <async_req_fast@plt>
    3d36:	83 c4 24             	add    $0x24,%esp
    3d39:	56                   	push   %esi
    3d3a:	89 45 f4             	mov    %eax,-0xc(%ebp)
    3d3d:	e8 be a3 00 00       	call   e100 <async_exchange_end@plt>
    3d42:	83 c4 10             	add    $0x10,%esp
    3d45:	8b 45 f4             	mov    -0xc(%ebp),%eax
    3d48:	8d 65 f8             	lea    -0x8(%ebp),%esp
    3d4b:	5b                   	pop    %ebx
    3d4c:	5e                   	pop    %esi
    3d4d:	5d                   	pop    %ebp
    3d4e:	c3                   	ret    
    3d4f:	90                   	nop
    3d50:	b8 f2 ff ff ff       	mov    $0xfffffff2,%eax
    3d55:	eb f1                	jmp    3d48 <audio_pcm_start_playback_fragment+0x68>
    3d57:	56                   	push   %esi
    3d58:	68 a6 01 00 00       	push   $0x1a6
    3d5d:	68 18 c5 00 00       	push   $0xc518
    3d62:	68 80 c6 00 00       	push   $0xc680
    3d67:	e8 a4 a3 00 00       	call   e110 <assert_abort@plt>
    3d6c:	8d 74 26 00          	lea    0x0(%esi,%eiz,1),%esi

00003d70 <audio_pcm_last_playback_fragment>:
    3d70:	55                   	push   %ebp
    3d71:	89 e5                	mov    %esp,%ebp
    3d73:	53                   	push   %ebx
    3d74:	83 ec 20             	sub    $0x20,%esp
    3d77:	8b 45 08             	mov    0x8(%ebp),%eax
    3d7a:	50                   	push   %eax
    3d7b:	e8 90 a5 00 00       	call   e310 <async_exchange_begin@plt>
    3d80:	83 c4 0c             	add    $0xc,%esp
    3d83:	89 c3                	mov    %eax,%ebx
    3d85:	6a 00                	push   $0x0
    3d87:	6a 00                	push   $0x0
    3d89:	6a 00                	push   $0x0
    3d8b:	6a 00                	push   $0x0
    3d8d:	6a 00                	push   $0x0
    3d8f:	6a 00                	push   $0x0
    3d91:	6a 00                	push   $0x0
    3d93:	6a 00                	push   $0x0
    3d95:	6a 09                	push   $0x9
    3d97:	68 04 04 00 00       	push   $0x404
    3d9c:	50                   	push   %eax
    3d9d:	e8 ee a2 00 00       	call   e090 <async_req_fast@plt>
    3da2:	83 c4 24             	add    $0x24,%esp
    3da5:	89 45 f4             	mov    %eax,-0xc(%ebp)
    3da8:	53                   	push   %ebx
    3da9:	e8 52 a3 00 00       	call   e100 <async_exchange_end@plt>
    3dae:	8b 45 f4             	mov    -0xc(%ebp),%eax
    3db1:	8b 5d fc             	mov    -0x4(%ebp),%ebx
    3db4:	c9                   	leave  
    3db5:	c3                   	ret    
    3db6:	8d 76 00             	lea    0x0(%esi),%esi
    3db9:	8d bc 27 00 00 00 00 	lea    0x0(%edi,%eiz,1),%edi

00003dc0 <audio_pcm_start_playback>:
    3dc0:	55                   	push   %ebp
    3dc1:	89 e5                	mov    %esp,%ebp
    3dc3:	56                   	push   %esi
    3dc4:	53                   	push   %ebx
    3dc5:	83 ec 10             	sub    $0x10,%esp
    3dc8:	81 7d 0c ff ff 00 00 	cmpl   $0xffff,0xc(%ebp)
    3dcf:	77 5f                	ja     3e30 <audio_pcm_start_playback+0x70>
    3dd1:	f7 45 14 00 00 ff ff 	testl  $0xffff0000,0x14(%ebp)
    3dd8:	75 5d                	jne    3e37 <audio_pcm_start_playback+0x77>
    3dda:	83 ec 0c             	sub    $0xc,%esp
    3ddd:	8b 5d 0c             	mov    0xc(%ebp),%ebx
    3de0:	8b 55 08             	mov    0x8(%ebp),%edx
    3de3:	8b 45 14             	mov    0x14(%ebp),%eax
    3de6:	c1 e3 10             	shl    $0x10,%ebx
    3de9:	52                   	push   %edx
    3dea:	09 c3                	or     %eax,%ebx
    3dec:	e8 1f a5 00 00       	call   e310 <async_exchange_begin@plt>
    3df1:	83 c4 0c             	add    $0xc,%esp
    3df4:	8b 4d 10             	mov    0x10(%ebp),%ecx
    3df7:	89 c6                	mov    %eax,%esi
    3df9:	6a 00                	push   $0x0
    3dfb:	6a 00                	push   $0x0
    3dfd:	6a 00                	push   $0x0
    3dff:	6a 00                	push   $0x0
    3e01:	6a 00                	push   $0x0
    3e03:	53                   	push   %ebx
    3e04:	51                   	push   %ecx
    3e05:	6a 00                	push   $0x0
    3e07:	6a 08                	push   $0x8
    3e09:	68 04 04 00 00       	push   $0x404
    3e0e:	50                   	push   %eax
    3e0f:	e8 7c a2 00 00       	call   e090 <async_req_fast@plt>
    3e14:	83 c4 24             	add    $0x24,%esp
    3e17:	89 45 f4             	mov    %eax,-0xc(%ebp)
    3e1a:	56                   	push   %esi
    3e1b:	e8 e0 a2 00 00       	call   e100 <async_exchange_end@plt>
    3e20:	83 c4 10             	add    $0x10,%esp
    3e23:	8b 45 f4             	mov    -0xc(%ebp),%eax
    3e26:	8d 65 f8             	lea    -0x8(%ebp),%esp
    3e29:	5b                   	pop    %ebx
    3e2a:	5e                   	pop    %esi
    3e2b:	5d                   	pop    %ebp
    3e2c:	c3                   	ret    
    3e2d:	8d 76 00             	lea    0x0(%esi),%esi
    3e30:	b8 f2 ff ff ff       	mov    $0xfffffff2,%eax
    3e35:	eb ef                	jmp    3e26 <audio_pcm_start_playback+0x66>
    3e37:	53                   	push   %ebx
    3e38:	68 a6 01 00 00       	push   $0x1a6
    3e3d:	68 18 c5 00 00       	push   $0xc518
    3e42:	68 80 c6 00 00       	push   $0xc680
    3e47:	e8 c4 a2 00 00       	call   e110 <assert_abort@plt>
    3e4c:	8d 74 26 00          	lea    0x0(%esi,%eiz,1),%esi

00003e50 <audio_pcm_stop_playback_immediate>:
    3e50:	55                   	push   %ebp
    3e51:	89 e5                	mov    %esp,%ebp
    3e53:	53                   	push   %ebx
    3e54:	83 ec 20             	sub    $0x20,%esp
    3e57:	8b 45 08             	mov    0x8(%ebp),%eax
    3e5a:	50                   	push   %eax
    3e5b:	e8 b0 a4 00 00       	call   e310 <async_exchange_begin@plt>
    3e60:	83 c4 0c             	add    $0xc,%esp
    3e63:	89 c3                	mov    %eax,%ebx
    3e65:	6a 00                	push   $0x0
    3e67:	6a 00                	push   $0x0
    3e69:	6a 00                	push   $0x0
    3e6b:	6a 00                	push   $0x0
    3e6d:	6a 00                	push   $0x0
    3e6f:	6a 00                	push   $0x0
    3e71:	6a 00                	push   $0x0
    3e73:	6a 01                	push   $0x1
    3e75:	6a 09                	push   $0x9
    3e77:	68 04 04 00 00       	push   $0x404
    3e7c:	50                   	push   %eax
    3e7d:	e8 0e a2 00 00       	call   e090 <async_req_fast@plt>
    3e82:	83 c4 24             	add    $0x24,%esp
    3e85:	89 45 f4             	mov    %eax,-0xc(%ebp)
    3e88:	53                   	push   %ebx
    3e89:	e8 72 a2 00 00       	call   e100 <async_exchange_end@plt>
    3e8e:	8b 45 f4             	mov    -0xc(%ebp),%eax
    3e91:	8b 5d fc             	mov    -0x4(%ebp),%ebx
    3e94:	c9                   	leave  
    3e95:	c3                   	ret    
    3e96:	8d 76 00             	lea    0x0(%esi),%esi
    3e99:	8d bc 27 00 00 00 00 	lea    0x0(%edi,%eiz,1),%edi

00003ea0 <audio_pcm_stop_playback>:
    3ea0:	55                   	push   %ebp
    3ea1:	89 e5                	mov    %esp,%ebp
    3ea3:	53                   	push   %ebx
    3ea4:	83 ec 20             	sub    $0x20,%esp
    3ea7:	8b 45 08             	mov    0x8(%ebp),%eax
    3eaa:	50                   	push   %eax
    3eab:	e8 60 a4 00 00       	call   e310 <async_exchange_begin@plt>
    3eb0:	83 c4 0c             	add    $0xc,%esp
    3eb3:	89 c3                	mov    %eax,%ebx
    3eb5:	6a 00                	push   $0x0
    3eb7:	6a 00                	push   $0x0
    3eb9:	6a 00                	push   $0x0
    3ebb:	6a 00                	push   $0x0
    3ebd:	6a 00                	push   $0x0
    3ebf:	6a 00                	push   $0x0
    3ec1:	6a 00                	push   $0x0
    3ec3:	6a 00                	push   $0x0
    3ec5:	6a 09                	push   $0x9
    3ec7:	68 04 04 00 00       	push   $0x404
    3ecc:	50                   	push   %eax
    3ecd:	e8 be a1 00 00       	call   e090 <async_req_fast@plt>
    3ed2:	83 c4 24             	add    $0x24,%esp
    3ed5:	89 45 f4             	mov    %eax,-0xc(%ebp)
    3ed8:	53                   	push   %ebx
    3ed9:	e8 22 a2 00 00       	call   e100 <async_exchange_end@plt>
    3ede:	8b 45 f4             	mov    -0xc(%ebp),%eax
    3ee1:	8b 5d fc             	mov    -0x4(%ebp),%ebx
    3ee4:	c9                   	leave  
    3ee5:	c3                   	ret    
    3ee6:	8d 76 00             	lea    0x0(%esi),%esi
    3ee9:	8d bc 27 00 00 00 00 	lea    0x0(%edi,%eiz,1),%edi

00003ef0 <audio_pcm_start_capture_fragment>:
    3ef0:	55                   	push   %ebp
    3ef1:	89 e5                	mov    %esp,%ebp
    3ef3:	56                   	push   %esi
    3ef4:	53                   	push   %ebx
    3ef5:	83 ec 10             	sub    $0x10,%esp
    3ef8:	81 7d 10 ff ff 00 00 	cmpl   $0xffff,0x10(%ebp)
    3eff:	77 5f                	ja     3f60 <audio_pcm_start_capture_fragment+0x70>
    3f01:	f7 45 18 00 00 ff ff 	testl  $0xffff0000,0x18(%ebp)
    3f08:	75 5d                	jne    3f67 <audio_pcm_start_capture_fragment+0x77>
    3f0a:	83 ec 0c             	sub    $0xc,%esp
    3f0d:	8b 5d 10             	mov    0x10(%ebp),%ebx
    3f10:	8b 55 08             	mov    0x8(%ebp),%edx
    3f13:	8b 45 18             	mov    0x18(%ebp),%eax
    3f16:	c1 e3 10             	shl    $0x10,%ebx
    3f19:	52                   	push   %edx
    3f1a:	09 c3                	or     %eax,%ebx
    3f1c:	e8 ef a3 00 00       	call   e310 <async_exchange_begin@plt>
    3f21:	83 c4 0c             	add    $0xc,%esp
    3f24:	8b 4d 14             	mov    0x14(%ebp),%ecx
    3f27:	89 c6                	mov    %eax,%esi
    3f29:	6a 00                	push   $0x0
    3f2b:	6a 00                	push   $0x0
    3f2d:	6a 00                	push   $0x0
    3f2f:	6a 00                	push   $0x0
    3f31:	6a 00                	push   $0x0
    3f33:	53                   	push   %ebx
    3f34:	8b 5d 0c             	mov    0xc(%ebp),%ebx
    3f37:	51                   	push   %ecx
    3f38:	53                   	push   %ebx
    3f39:	6a 0a                	push   $0xa
    3f3b:	68 04 04 00 00       	push   $0x404
    3f40:	50                   	push   %eax
    3f41:	e8 4a a1 00 00       	call   e090 <async_req_fast@plt>
    3f46:	83 c4 24             	add    $0x24,%esp
    3f49:	56                   	push   %esi
    3f4a:	89 45 f4             	mov    %eax,-0xc(%ebp)
    3f4d:	e8 ae a1 00 00       	call   e100 <async_exchange_end@plt>
    3f52:	83 c4 10             	add    $0x10,%esp
    3f55:	8b 45 f4             	mov    -0xc(%ebp),%eax
    3f58:	8d 65 f8             	lea    -0x8(%ebp),%esp
    3f5b:	5b                   	pop    %ebx
    3f5c:	5e                   	pop    %esi
    3f5d:	5d                   	pop    %ebp
    3f5e:	c3                   	ret    
    3f5f:	90                   	nop
    3f60:	b8 f2 ff ff ff       	mov    $0xfffffff2,%eax
    3f65:	eb f1                	jmp    3f58 <audio_pcm_start_capture_fragment+0x68>
    3f67:	56                   	push   %esi
    3f68:	68 07 02 00 00       	push   $0x207
    3f6d:	68 18 c5 00 00       	push   $0xc518
    3f72:	68 80 c6 00 00       	push   $0xc680
    3f77:	e8 94 a1 00 00       	call   e110 <assert_abort@plt>
    3f7c:	8d 74 26 00          	lea    0x0(%esi,%eiz,1),%esi

00003f80 <audio_pcm_start_capture>:
    3f80:	55                   	push   %ebp
    3f81:	89 e5                	mov    %esp,%ebp
    3f83:	56                   	push   %esi
    3f84:	53                   	push   %ebx
    3f85:	83 ec 10             	sub    $0x10,%esp
    3f88:	81 7d 0c ff ff 00 00 	cmpl   $0xffff,0xc(%ebp)
    3f8f:	77 5f                	ja     3ff0 <audio_pcm_start_capture+0x70>
    3f91:	f7 45 14 00 00 ff ff 	testl  $0xffff0000,0x14(%ebp)
    3f98:	75 5d                	jne    3ff7 <audio_pcm_start_capture+0x77>
    3f9a:	83 ec 0c             	sub    $0xc,%esp
    3f9d:	8b 5d 0c             	mov    0xc(%ebp),%ebx
    3fa0:	8b 55 08             	mov    0x8(%ebp),%edx
    3fa3:	8b 45 14             	mov    0x14(%ebp),%eax
    3fa6:	c1 e3 10             	shl    $0x10,%ebx
    3fa9:	52                   	push   %edx
    3faa:	09 c3                	or     %eax,%ebx
    3fac:	e8 5f a3 00 00       	call   e310 <async_exchange_begin@plt>
    3fb1:	83 c4 0c             	add    $0xc,%esp
    3fb4:	8b 4d 10             	mov    0x10(%ebp),%ecx
    3fb7:	89 c6                	mov    %eax,%esi
    3fb9:	6a 00                	push   $0x0
    3fbb:	6a 00                	push   $0x0
    3fbd:	6a 00                	push   $0x0
    3fbf:	6a 00                	push   $0x0
    3fc1:	6a 00                	push   $0x0
    3fc3:	53                   	push   %ebx
    3fc4:	51                   	push   %ecx
    3fc5:	6a 00                	push   $0x0
    3fc7:	6a 0a                	push   $0xa
    3fc9:	68 04 04 00 00       	push   $0x404
    3fce:	50                   	push   %eax
    3fcf:	e8 bc a0 00 00       	call   e090 <async_req_fast@plt>
    3fd4:	83 c4 24             	add    $0x24,%esp
    3fd7:	89 45 f4             	mov    %eax,-0xc(%ebp)
    3fda:	56                   	push   %esi
    3fdb:	e8 20 a1 00 00       	call   e100 <async_exchange_end@plt>
    3fe0:	83 c4 10             	add    $0x10,%esp
    3fe3:	8b 45 f4             	mov    -0xc(%ebp),%eax
    3fe6:	8d 65 f8             	lea    -0x8(%ebp),%esp
    3fe9:	5b                   	pop    %ebx
    3fea:	5e                   	pop    %esi
    3feb:	5d                   	pop    %ebp
    3fec:	c3                   	ret    
    3fed:	8d 76 00             	lea    0x0(%esi),%esi
    3ff0:	b8 f2 ff ff ff       	mov    $0xfffffff2,%eax
    3ff5:	eb ef                	jmp    3fe6 <audio_pcm_start_capture+0x66>
    3ff7:	53                   	push   %ebx
    3ff8:	68 07 02 00 00       	push   $0x207
    3ffd:	68 18 c5 00 00       	push   $0xc518
    4002:	68 80 c6 00 00       	push   $0xc680
    4007:	e8 04 a1 00 00       	call   e110 <assert_abort@plt>
    400c:	8d 74 26 00          	lea    0x0(%esi,%eiz,1),%esi

00004010 <audio_pcm_last_capture_fragment>:
    4010:	55                   	push   %ebp
    4011:	89 e5                	mov    %esp,%ebp
    4013:	53                   	push   %ebx
    4014:	83 ec 20             	sub    $0x20,%esp
    4017:	8b 45 08             	mov    0x8(%ebp),%eax
    401a:	50                   	push   %eax
    401b:	e8 f0 a2 00 00       	call   e310 <async_exchange_begin@plt>
    4020:	83 c4 0c             	add    $0xc,%esp
    4023:	89 c3                	mov    %eax,%ebx
    4025:	6a 00                	push   $0x0
    4027:	6a 00                	push   $0x0
    4029:	6a 00                	push   $0x0
    402b:	6a 00                	push   $0x0
    402d:	6a 00                	push   $0x0
    402f:	6a 00                	push   $0x0
    4031:	6a 00                	push   $0x0
    4033:	6a 00                	push   $0x0
    4035:	6a 0b                	push   $0xb
    4037:	68 04 04 00 00       	push   $0x404
    403c:	50                   	push   %eax
    403d:	e8 4e a0 00 00       	call   e090 <async_req_fast@plt>
    4042:	83 c4 24             	add    $0x24,%esp
    4045:	89 45 f4             	mov    %eax,-0xc(%ebp)
    4048:	53                   	push   %ebx
    4049:	e8 b2 a0 00 00       	call   e100 <async_exchange_end@plt>
    404e:	8b 45 f4             	mov    -0xc(%ebp),%eax
    4051:	8b 5d fc             	mov    -0x4(%ebp),%ebx
    4054:	c9                   	leave  
    4055:	c3                   	ret    
    4056:	8d 76 00             	lea    0x0(%esi),%esi
    4059:	8d bc 27 00 00 00 00 	lea    0x0(%edi,%eiz,1),%edi

00004060 <audio_pcm_stop_capture_immediate>:
    4060:	55                   	push   %ebp
    4061:	89 e5                	mov    %esp,%ebp
    4063:	53                   	push   %ebx
    4064:	83 ec 20             	sub    $0x20,%esp
    4067:	8b 45 08             	mov    0x8(%ebp),%eax
    406a:	50                   	push   %eax
    406b:	e8 a0 a2 00 00       	call   e310 <async_exchange_begin@plt>
    4070:	83 c4 0c             	add    $0xc,%esp
    4073:	89 c3                	mov    %eax,%ebx
    4075:	6a 00                	push   $0x0
    4077:	6a 00                	push   $0x0
    4079:	6a 00                	push   $0x0
    407b:	6a 00                	push   $0x0
    407d:	6a 00                	push   $0x0
    407f:	6a 00                	push   $0x0
    4081:	6a 00                	push   $0x0
    4083:	6a 01                	push   $0x1
    4085:	6a 0b                	push   $0xb
    4087:	68 04 04 00 00       	push   $0x404
    408c:	50                   	push   %eax
    408d:	e8 fe 9f 00 00       	call   e090 <async_req_fast@plt>
    4092:	83 c4 24             	add    $0x24,%esp
    4095:	89 45 f4             	mov    %eax,-0xc(%ebp)
    4098:	53                   	push   %ebx
    4099:	e8 62 a0 00 00       	call   e100 <async_exchange_end@plt>
    409e:	8b 45 f4             	mov    -0xc(%ebp),%eax
    40a1:	8b 5d fc             	mov    -0x4(%ebp),%ebx
    40a4:	c9                   	leave  
    40a5:	c3                   	ret    
    40a6:	8d 76 00             	lea    0x0(%esi),%esi
    40a9:	8d bc 27 00 00 00 00 	lea    0x0(%edi,%eiz,1),%edi

000040b0 <audio_pcm_stop_capture>:
    40b0:	55                   	push   %ebp
    40b1:	89 e5                	mov    %esp,%ebp
    40b3:	53                   	push   %ebx
    40b4:	83 ec 20             	sub    $0x20,%esp
    40b7:	8b 45 08             	mov    0x8(%ebp),%eax
    40ba:	50                   	push   %eax
    40bb:	e8 50 a2 00 00       	call   e310 <async_exchange_begin@plt>
    40c0:	83 c4 0c             	add    $0xc,%esp
    40c3:	89 c3                	mov    %eax,%ebx
    40c5:	6a 00                	push   $0x0
    40c7:	6a 00                	push   $0x0
    40c9:	6a 00                	push   $0x0
    40cb:	6a 00                	push   $0x0
    40cd:	6a 00                	push   $0x0
    40cf:	6a 00                	push   $0x0
    40d1:	6a 00                	push   $0x0
    40d3:	6a 00                	push   $0x0
    40d5:	6a 0b                	push   $0xb
    40d7:	68 04 04 00 00       	push   $0x404
    40dc:	50                   	push   %eax
    40dd:	e8 ae 9f 00 00       	call   e090 <async_req_fast@plt>
    40e2:	83 c4 24             	add    $0x24,%esp
    40e5:	89 45 f4             	mov    %eax,-0xc(%ebp)
    40e8:	53                   	push   %ebx
    40e9:	e8 12 a0 00 00       	call   e100 <async_exchange_end@plt>
    40ee:	8b 45 f4             	mov    -0xc(%ebp),%eax
    40f1:	8b 5d fc             	mov    -0x4(%ebp),%ebx
    40f4:	c9                   	leave  
    40f5:	c3                   	ret    
    40f6:	66 90                	xchg   %ax,%ax
    40f8:	66 90                	xchg   %ax,%ax
    40fa:	66 90                	xchg   %ax,%ax
    40fc:	66 90                	xchg   %ax,%ax
    40fe:	66 90                	xchg   %ax,%ax

00004100 <remote_hw_res_dma_channel_setup>:
    4100:	55                   	push   %ebp
    4101:	89 e5                	mov    %esp,%ebp
    4103:	57                   	push   %edi
    4104:	56                   	push   %esi
    4105:	53                   	push   %ebx
    4106:	83 ec 0c             	sub    $0xc,%esp
    4109:	8b 45 0c             	mov    0xc(%ebp),%eax
    410c:	8b 75 08             	mov    0x8(%ebp),%esi
    410f:	8b 5d 10             	mov    0x10(%ebp),%ebx
    4112:	8b 55 14             	mov    0x14(%ebp),%edx
    4115:	8b 48 08             	mov    0x8(%eax),%ecx
    4118:	85 c9                	test   %ecx,%ecx
    411a:	74 3c                	je     4158 <remote_hw_res_dma_channel_setup+0x58>
    411c:	8b 42 08             	mov    0x8(%edx),%eax
    411f:	83 ec 0c             	sub    $0xc,%esp
    4122:	89 c7                	mov    %eax,%edi
    4124:	25 ff ff 00 00       	and    $0xffff,%eax
    4129:	c1 ef 10             	shr    $0x10,%edi
    412c:	81 e7 ff 00 00 00    	and    $0xff,%edi
    4132:	57                   	push   %edi
    4133:	8b 7a 10             	mov    0x10(%edx),%edi
    4136:	57                   	push   %edi
    4137:	8b 52 0c             	mov    0xc(%edx),%edx
    413a:	52                   	push   %edx
    413b:	50                   	push   %eax
    413c:	56                   	push   %esi
    413d:	ff d1                	call   *%ecx
    413f:	89 5d 08             	mov    %ebx,0x8(%ebp)
    4142:	89 45 0c             	mov    %eax,0xc(%ebp)
    4145:	83 c4 20             	add    $0x20,%esp
    4148:	8d 65 f4             	lea    -0xc(%ebp),%esp
    414b:	5b                   	pop    %ebx
    414c:	5e                   	pop    %esi
    414d:	5f                   	pop    %edi
    414e:	5d                   	pop    %ebp
    414f:	e9 5c 9f 00 00       	jmp    e0b0 <async_answer_0@plt>
    4154:	8d 74 26 00          	lea    0x0(%esi,%eiz,1),%esi
    4158:	89 5d 08             	mov    %ebx,0x8(%ebp)
    415b:	c7 45 0c f5 ff ff ff 	movl   $0xfffffff5,0xc(%ebp)
    4162:	8d 65 f4             	lea    -0xc(%ebp),%esp
    4165:	5b                   	pop    %ebx
    4166:	5e                   	pop    %esi
    4167:	5f                   	pop    %edi
    4168:	5d                   	pop    %ebp
    4169:	e9 42 9f 00 00       	jmp    e0b0 <async_answer_0@plt>
    416e:	66 90                	xchg   %ax,%ax

00004170 <remote_hw_res_enable_interrupt>:
    4170:	55                   	push   %ebp
    4171:	89 e5                	mov    %esp,%ebp
    4173:	53                   	push   %ebx
    4174:	50                   	push   %eax
    4175:	8b 45 0c             	mov    0xc(%ebp),%eax
    4178:	8b 55 08             	mov    0x8(%ebp),%edx
    417b:	8b 5d 10             	mov    0x10(%ebp),%ebx
    417e:	8b 40 04             	mov    0x4(%eax),%eax
    4181:	85 c0                	test   %eax,%eax
    4183:	74 3b                	je     41c0 <remote_hw_res_enable_interrupt+0x50>
    4185:	83 ec 0c             	sub    $0xc,%esp
    4188:	52                   	push   %edx
    4189:	ff d0                	call   *%eax
    418b:	83 c4 10             	add    $0x10,%esp
    418e:	84 c0                	test   %al,%al
    4190:	75 16                	jne    41a8 <remote_hw_res_enable_interrupt+0x38>
    4192:	89 5d 08             	mov    %ebx,0x8(%ebp)
    4195:	8b 5d fc             	mov    -0x4(%ebp),%ebx
    4198:	c7 45 0c fc ff ff ff 	movl   $0xfffffffc,0xc(%ebp)
    419f:	c9                   	leave  
    41a0:	e9 0b 9f 00 00       	jmp    e0b0 <async_answer_0@plt>
    41a5:	8d 76 00             	lea    0x0(%esi),%esi
    41a8:	89 5d 08             	mov    %ebx,0x8(%ebp)
    41ab:	8b 5d fc             	mov    -0x4(%ebp),%ebx
    41ae:	c7 45 0c 00 00 00 00 	movl   $0x0,0xc(%ebp)
    41b5:	c9                   	leave  
    41b6:	e9 f5 9e 00 00       	jmp    e0b0 <async_answer_0@plt>
    41bb:	90                   	nop
    41bc:	8d 74 26 00          	lea    0x0(%esi,%eiz,1),%esi
    41c0:	89 5d 08             	mov    %ebx,0x8(%ebp)
    41c3:	8b 5d fc             	mov    -0x4(%ebp),%ebx
    41c6:	c7 45 0c f5 ff ff ff 	movl   $0xfffffff5,0xc(%ebp)
    41cd:	c9                   	leave  
    41ce:	e9 dd 9e 00 00       	jmp    e0b0 <async_answer_0@plt>
    41d3:	8d b6 00 00 00 00    	lea    0x0(%esi),%esi
    41d9:	8d bc 27 00 00 00 00 	lea    0x0(%edi,%eiz,1),%edi

000041e0 <remote_hw_res_dma_channel_remain>:
    41e0:	55                   	push   %ebp
    41e1:	89 e5                	mov    %esp,%ebp
    41e3:	83 ec 18             	sub    $0x18,%esp
    41e6:	8b 45 0c             	mov    0xc(%ebp),%eax
    41e9:	8b 50 08             	mov    0x8(%eax),%edx
    41ec:	85 d2                	test   %edx,%edx
    41ee:	74 30                	je     4220 <remote_hw_res_dma_channel_remain+0x40>
    41f0:	8b 55 14             	mov    0x14(%ebp),%edx
    41f3:	c7 45 f4 00 00 00 00 	movl   $0x0,-0xc(%ebp)
    41fa:	8b 52 08             	mov    0x8(%edx),%edx
    41fd:	51                   	push   %ecx
    41fe:	8d 4d f4             	lea    -0xc(%ebp),%ecx
    4201:	51                   	push   %ecx
    4202:	52                   	push   %edx
    4203:	8b 55 08             	mov    0x8(%ebp),%edx
    4206:	52                   	push   %edx
    4207:	ff 50 0c             	call   *0xc(%eax)
    420a:	83 c4 0c             	add    $0xc,%esp
    420d:	8b 4d f4             	mov    -0xc(%ebp),%ecx
    4210:	51                   	push   %ecx
    4211:	50                   	push   %eax
    4212:	8b 45 10             	mov    0x10(%ebp),%eax
    4215:	50                   	push   %eax
    4216:	e8 e5 a0 00 00       	call   e300 <async_answer_1@plt>
    421b:	83 c4 10             	add    $0x10,%esp
    421e:	c9                   	leave  
    421f:	c3                   	ret    
    4220:	50                   	push   %eax
    4221:	50                   	push   %eax
    4222:	8b 45 10             	mov    0x10(%ebp),%eax
    4225:	6a f5                	push   $0xfffffff5
    4227:	50                   	push   %eax
    4228:	e8 83 9e 00 00       	call   e0b0 <async_answer_0@plt>
    422d:	83 c4 10             	add    $0x10,%esp
    4230:	c9                   	leave  
    4231:	c3                   	ret    
    4232:	8d b4 26 00 00 00 00 	lea    0x0(%esi,%eiz,1),%esi
    4239:	8d bc 27 00 00 00 00 	lea    0x0(%edi,%eiz,1),%edi

00004240 <remote_hw_res_get_resource_list>:
    4240:	55                   	push   %ebp
    4241:	89 e5                	mov    %esp,%ebp
    4243:	53                   	push   %ebx
    4244:	83 ec 14             	sub    $0x14,%esp
    4247:	8b 45 0c             	mov    0xc(%ebp),%eax
    424a:	8b 00                	mov    (%eax),%eax
    424c:	85 c0                	test   %eax,%eax
    424e:	74 40                	je     4290 <remote_hw_res_get_resource_list+0x50>
    4250:	83 ec 0c             	sub    $0xc,%esp
    4253:	8b 55 08             	mov    0x8(%ebp),%edx
    4256:	52                   	push   %edx
    4257:	ff d0                	call   *%eax
    4259:	83 c4 10             	add    $0x10,%esp
    425c:	89 c3                	mov    %eax,%ebx
    425e:	85 c0                	test   %eax,%eax
    4260:	74 66                	je     42c8 <remote_hw_res_get_resource_list+0x88>
    4262:	50                   	push   %eax
    4263:	8b 03                	mov    (%ebx),%eax
    4265:	50                   	push   %eax
    4266:	8b 45 10             	mov    0x10(%ebp),%eax
    4269:	6a 00                	push   $0x0
    426b:	50                   	push   %eax
    426c:	e8 8f a0 00 00       	call   e300 <async_answer_1@plt>
    4271:	58                   	pop    %eax
    4272:	8d 45 f4             	lea    -0xc(%ebp),%eax
    4275:	5a                   	pop    %edx
    4276:	50                   	push   %eax
    4277:	8d 45 10             	lea    0x10(%ebp),%eax
    427a:	50                   	push   %eax
    427b:	e8 00 a0 00 00       	call   e280 <async_data_read_receive@plt>
    4280:	83 c4 10             	add    $0x10,%esp
    4283:	84 c0                	test   %al,%al
    4285:	75 21                	jne    42a8 <remote_hw_res_get_resource_list+0x68>
    4287:	8b 5d fc             	mov    -0x4(%ebp),%ebx
    428a:	c9                   	leave  
    428b:	c3                   	ret    
    428c:	8d 74 26 00          	lea    0x0(%esi,%eiz,1),%esi
    4290:	8b 5d 10             	mov    0x10(%ebp),%ebx
    4293:	51                   	push   %ecx
    4294:	51                   	push   %ecx
    4295:	6a f5                	push   $0xfffffff5
    4297:	53                   	push   %ebx
    4298:	e8 13 9e 00 00       	call   e0b0 <async_answer_0@plt>
    429d:	83 c4 10             	add    $0x10,%esp
    42a0:	8b 5d fc             	mov    -0x4(%ebp),%ebx
    42a3:	c9                   	leave  
    42a4:	c3                   	ret    
    42a5:	8d 76 00             	lea    0x0(%esi),%esi
    42a8:	50                   	push   %eax
    42a9:	8b 55 f4             	mov    -0xc(%ebp),%edx
    42ac:	8b 4b 04             	mov    0x4(%ebx),%ecx
    42af:	8b 5d 10             	mov    0x10(%ebp),%ebx
    42b2:	52                   	push   %edx
    42b3:	51                   	push   %ecx
    42b4:	53                   	push   %ebx
    42b5:	e8 76 9d 00 00       	call   e030 <async_data_read_finalize@plt>
    42ba:	83 c4 10             	add    $0x10,%esp
    42bd:	8b 5d fc             	mov    -0x4(%ebp),%ebx
    42c0:	c9                   	leave  
    42c1:	c3                   	ret    
    42c2:	8d b6 00 00 00 00    	lea    0x0(%esi),%esi
    42c8:	8b 5d 10             	mov    0x10(%ebp),%ebx
    42cb:	51                   	push   %ecx
    42cc:	51                   	push   %ecx
    42cd:	6a ff                	push   $0xffffffff
    42cf:	53                   	push   %ebx
    42d0:	e8 db 9d 00 00       	call   e0b0 <async_answer_0@plt>
    42d5:	83 c4 10             	add    $0x10,%esp
    42d8:	8b 5d fc             	mov    -0x4(%ebp),%ebx
    42db:	c9                   	leave  
    42dc:	c3                   	ret    
    42dd:	66 90                	xchg   %ax,%ax
    42df:	90                   	nop

000042e0 <remote_pio_window_get>:
    42e0:	55                   	push   %ebp
    42e1:	89 e5                	mov    %esp,%ebp
    42e3:	53                   	push   %ebx
    42e4:	83 ec 14             	sub    $0x14,%esp
    42e7:	8b 45 0c             	mov    0xc(%ebp),%eax
    42ea:	8b 00                	mov    (%eax),%eax
    42ec:	85 c0                	test   %eax,%eax
    42ee:	74 40                	je     4330 <remote_pio_window_get+0x50>
    42f0:	83 ec 0c             	sub    $0xc,%esp
    42f3:	8b 55 08             	mov    0x8(%ebp),%edx
    42f6:	52                   	push   %edx
    42f7:	ff d0                	call   *%eax
    42f9:	83 c4 10             	add    $0x10,%esp
    42fc:	89 c3                	mov    %eax,%ebx
    42fe:	85 c0                	test   %eax,%eax
    4300:	74 5e                	je     4360 <remote_pio_window_get+0x80>
    4302:	50                   	push   %eax
    4303:	50                   	push   %eax
    4304:	8b 45 10             	mov    0x10(%ebp),%eax
    4307:	6a 00                	push   $0x0
    4309:	50                   	push   %eax
    430a:	e8 a1 9d 00 00       	call   e0b0 <async_answer_0@plt>
    430f:	58                   	pop    %eax
    4310:	8d 45 f4             	lea    -0xc(%ebp),%eax
    4313:	5a                   	pop    %edx
    4314:	50                   	push   %eax
    4315:	8d 45 10             	lea    0x10(%ebp),%eax
    4318:	50                   	push   %eax
    4319:	e8 62 9f 00 00       	call   e280 <async_data_read_receive@plt>
    431e:	83 c4 10             	add    $0x10,%esp
    4321:	84 c0                	test   %al,%al
    4323:	75 23                	jne    4348 <remote_pio_window_get+0x68>
    4325:	8b 5d fc             	mov    -0x4(%ebp),%ebx
    4328:	c9                   	leave  
    4329:	c3                   	ret    
    432a:	8d b6 00 00 00 00    	lea    0x0(%esi),%esi
    4330:	8b 5d 10             	mov    0x10(%ebp),%ebx
    4333:	51                   	push   %ecx
    4334:	51                   	push   %ecx
    4335:	6a f5                	push   $0xfffffff5
    4337:	53                   	push   %ebx
    4338:	e8 73 9d 00 00       	call   e0b0 <async_answer_0@plt>
    433d:	83 c4 10             	add    $0x10,%esp
    4340:	8b 5d fc             	mov    -0x4(%ebp),%ebx
    4343:	c9                   	leave  
    4344:	c3                   	ret    
    4345:	8d 76 00             	lea    0x0(%esi),%esi
    4348:	8b 55 f4             	mov    -0xc(%ebp),%edx
    434b:	8b 4d 10             	mov    0x10(%ebp),%ecx
    434e:	50                   	push   %eax
    434f:	52                   	push   %edx
    4350:	53                   	push   %ebx
    4351:	51                   	push   %ecx
    4352:	e8 d9 9c 00 00       	call   e030 <async_data_read_finalize@plt>
    4357:	83 c4 10             	add    $0x10,%esp
    435a:	8b 5d fc             	mov    -0x4(%ebp),%ebx
    435d:	c9                   	leave  
    435e:	c3                   	ret    
    435f:	90                   	nop
    4360:	8b 5d 10             	mov    0x10(%ebp),%ebx
    4363:	51                   	push   %ecx
    4364:	51                   	push   %ecx
    4365:	6a ff                	push   $0xffffffff
    4367:	53                   	push   %ebx
    4368:	e8 43 9d 00 00       	call   e0b0 <async_answer_0@plt>
    436d:	83 c4 10             	add    $0x10,%esp
    4370:	8b 5d fc             	mov    -0x4(%ebp),%ebx
    4373:	c9                   	leave  
    4374:	c3                   	ret    
    4375:	66 90                	xchg   %ax,%ax
    4377:	66 90                	xchg   %ax,%ax
    4379:	66 90                	xchg   %ax,%ax
    437b:	66 90                	xchg   %ax,%ax
    437d:	66 90                	xchg   %ax,%ax
    437f:	90                   	nop

00004380 <remote_char_write>:
    4380:	55                   	push   %ebp
    4381:	89 e5                	mov    %esp,%ebp
    4383:	56                   	push   %esi
    4384:	53                   	push   %ebx
    4385:	81 ec 18 01 00 00    	sub    $0x118,%esp
    438b:	8d 85 f4 fe ff ff    	lea    -0x10c(%ebp),%eax
    4391:	8b 5d 0c             	mov    0xc(%ebp),%ebx
    4394:	50                   	push   %eax
    4395:	8d 85 f0 fe ff ff    	lea    -0x110(%ebp),%eax
    439b:	50                   	push   %eax
    439c:	e8 4f a0 00 00       	call   e3f0 <async_data_write_receive@plt>
    43a1:	83 c4 10             	add    $0x10,%esp
    43a4:	84 c0                	test   %al,%al
    43a6:	74 70                	je     4418 <remote_char_write+0x98>
    43a8:	8b 73 04             	mov    0x4(%ebx),%esi
    43ab:	85 f6                	test   %esi,%esi
    43ad:	0f 84 95 00 00 00    	je     4448 <remote_char_write+0xc8>
    43b3:	8b 85 f4 fe ff ff    	mov    -0x10c(%ebp),%eax
    43b9:	3d 00 01 00 00       	cmp    $0x100,%eax
    43be:	76 0f                	jbe    43cf <remote_char_write+0x4f>
    43c0:	c7 85 f4 fe ff ff 00 	movl   $0x100,-0x10c(%ebp)
    43c7:	01 00 00 
    43ca:	b8 00 01 00 00       	mov    $0x100,%eax
    43cf:	8b 8d f0 fe ff ff    	mov    -0x110(%ebp),%ecx
    43d5:	8d b5 f8 fe ff ff    	lea    -0x108(%ebp),%esi
    43db:	52                   	push   %edx
    43dc:	50                   	push   %eax
    43dd:	56                   	push   %esi
    43de:	51                   	push   %ecx
    43df:	e8 9c 9f 00 00       	call   e380 <async_data_write_finalize@plt>
    43e4:	83 c4 0c             	add    $0xc,%esp
    43e7:	8b 85 f4 fe ff ff    	mov    -0x10c(%ebp),%eax
    43ed:	50                   	push   %eax
    43ee:	8b 45 08             	mov    0x8(%ebp),%eax
    43f1:	56                   	push   %esi
    43f2:	50                   	push   %eax
    43f3:	ff 53 04             	call   *0x4(%ebx)
    43f6:	83 c4 10             	add    $0x10,%esp
    43f9:	85 c0                	test   %eax,%eax
    43fb:	78 33                	js     4430 <remote_char_write+0xb0>
    43fd:	8b 4d 10             	mov    0x10(%ebp),%ecx
    4400:	52                   	push   %edx
    4401:	50                   	push   %eax
    4402:	6a 00                	push   $0x0
    4404:	51                   	push   %ecx
    4405:	e8 f6 9e 00 00       	call   e300 <async_answer_1@plt>
    440a:	83 c4 10             	add    $0x10,%esp
