
isa:     file format elf32-i386


Disassembly of section .init:

000010f4 <__entry>:
    10f4:	66 8c d0             	mov    %ss,%ax
    10f7:	8e d8                	mov    %eax,%ds
    10f9:	8e c0                	mov    %eax,%es
    10fb:	8e e0                	mov    %eax,%fs
    10fd:	b8 01 00 00 00       	mov    $0x1,%eax
    1102:	0f a2                	cpuid  
    1104:	0f ba e2 0b          	bt     $0xb,%edx
    1108:	73 0c                	jae    1116 <__entry+0x22>
    110a:	8d 05 b8 00 01 00    	lea    0x100b8,%eax
    1110:	c7 00 10 de 00 00    	movl   $0xde10,(%eax)
    1116:	6a 00                	push   $0x0
    1118:	6a 00                	push   $0x0
    111a:	89 e5                	mov    %esp,%ebp
    111c:	57                   	push   %edi
    111d:	e8 fe c7 00 00       	call   d920 <__main@plt>

Disassembly of section .text:

00001140 <dma_channel_setup>:
    1140:	55                   	push   %ebp
    1141:	83 c8 ff             	or     $0xffffffff,%eax
    1144:	89 e5                	mov    %esp,%ebp
    1146:	57                   	push   %edi
    1147:	56                   	push   %esi
    1148:	53                   	push   %ebx
    1149:	83 ec 2c             	sub    $0x2c,%esp
    114c:	8b 75 08             	mov    0x8(%ebp),%esi
    114f:	8b 5d 0c             	mov    0xc(%ebp),%ebx
    1152:	8b 7d 14             	mov    0x14(%ebp),%edi
    1155:	83 fe 07             	cmp    $0x7,%esi
    1158:	0f 87 1c 02 00 00    	ja     137a <dma_channel_setup+0x23a>
    115e:	f7 c6 fb ff ff ff    	test   $0xfffffffb,%esi
    1164:	0f 84 d6 02 00 00    	je     1440 <dma_channel_setup+0x300>
    116a:	81 fb ff ff ff 00    	cmp    $0xffffff,%ebx
    1170:	0f 87 ba 02 00 00    	ja     1430 <dma_channel_setup+0x2f0>
    1176:	81 fb ff ff 0f 00    	cmp    $0xfffff,%ebx
    117c:	76 09                	jbe    1187 <dma_channel_setup+0x47>
    117e:	83 fe 03             	cmp    $0x3,%esi
    1181:	0f 86 a9 02 00 00    	jbe    1430 <dma_channel_setup+0x2f0>
    1187:	8b 45 10             	mov    0x10(%ebp),%eax
    118a:	48                   	dec    %eax
    118b:	89 45 d4             	mov    %eax,-0x2c(%ebp)
    118e:	01 d8                	add    %ebx,%eax
    1190:	31 d8                	xor    %ebx,%eax
    1192:	a9 00 00 ff ff       	test   $0xffff0000,%eax
    1197:	0f 85 93 02 00 00    	jne    1430 <dma_channel_setup+0x2f0>
    119d:	83 ec 0c             	sub    $0xc,%esp
    11a0:	68 90 fe 00 00       	push   $0xfe90
    11a5:	e8 d6 cc 00 00       	call   de80 <fibril_mutex_lock@plt>
    11aa:	83 c4 10             	add    $0x10,%esp
    11ad:	80 3d 8c fe 00 00 00 	cmpb   $0x0,0xfe8c
    11b4:	0f 84 ce 01 00 00    	je     1388 <dma_channel_setup+0x248>
    11ba:	8b 45 10             	mov    0x10(%ebp),%eax
    11bd:	50                   	push   %eax
    11be:	53                   	push   %ebx
    11bf:	68 a0 b6 00 00       	push   $0xb6a0
    11c4:	6a 04                	push   $0x4
    11c6:	e8 c5 25 00 00       	call   3790 <ddf_msg>
    11cb:	8d 46 fc             	lea    -0x4(%esi),%eax
    11ce:	83 c4 10             	add    $0x10,%esp
    11d1:	83 f8 03             	cmp    $0x3,%eax
    11d4:	77 2a                	ja     1200 <dma_channel_setup+0xc0>
    11d6:	f6 45 10 01          	testb  $0x1,0x10(%ebp)
    11da:	0f 85 6a 02 00 00    	jne    144a <dma_channel_setup+0x30a>
    11e0:	8b 45 10             	mov    0x10(%ebp),%eax
    11e3:	d1 e8                	shr    %eax
    11e5:	89 45 10             	mov    %eax,0x10(%ebp)
    11e8:	89 d8                	mov    %ebx,%eax
    11ea:	d1 e8                	shr    %eax
    11ec:	81 e3 00 00 ff 00    	and    $0xff0000,%ebx
    11f2:	25 ff 7f 00 00       	and    $0x7fff,%eax
    11f7:	09 c3                	or     %eax,%ebx
    11f9:	8b 45 10             	mov    0x10(%ebp),%eax
    11fc:	48                   	dec    %eax
    11fd:	89 45 d4             	mov    %eax,-0x2c(%ebp)
    1200:	8d 14 76             	lea    (%esi,%esi,2),%edx
    1203:	c1 e2 03             	shl    $0x3,%edx
    1206:	8d 82 c0 fd 00 00    	lea    0xfdc0(%edx),%eax
    120c:	8b 8a c0 fd 00 00    	mov    0xfdc0(%edx),%ecx
    1212:	89 4d e4             	mov    %ecx,-0x1c(%ebp)
    1215:	8b 92 c4 fd 00 00    	mov    0xfdc4(%edx),%edx
    121b:	8b 48 08             	mov    0x8(%eax),%ecx
    121e:	89 55 d0             	mov    %edx,-0x30(%ebp)
    1221:	89 4d cc             	mov    %ecx,-0x34(%ebp)
    1224:	8b 50 0c             	mov    0xc(%eax),%edx
    1227:	8b 48 10             	mov    0x10(%eax),%ecx
    122a:	8b 40 14             	mov    0x14(%eax),%eax
    122d:	89 45 d8             	mov    %eax,-0x28(%ebp)
    1230:	50                   	push   %eax
    1231:	50                   	push   %eax
    1232:	89 f8                	mov    %edi,%eax
    1234:	25 ff 00 00 00       	and    $0xff,%eax
    1239:	89 55 e0             	mov    %edx,-0x20(%ebp)
    123c:	8b 55 10             	mov    0x10(%ebp),%edx
    123f:	50                   	push   %eax
    1240:	52                   	push   %edx
    1241:	53                   	push   %ebx
    1242:	56                   	push   %esi
    1243:	83 e6 03             	and    $0x3,%esi
    1246:	68 c4 b6 00 00       	push   $0xb6c4
    124b:	89 4d dc             	mov    %ecx,-0x24(%ebp)
    124e:	6a 04                	push   $0x4
    1250:	e8 3b 25 00 00       	call   3790 <ddf_msg>
    1255:	89 f0                	mov    %esi,%eax
    1257:	83 c4 18             	add    $0x18,%esp
    125a:	83 c8 04             	or     $0x4,%eax
    125d:	8b 4d e0             	mov    -0x20(%ebp),%ecx
    1260:	25 ff 00 00 00       	and    $0xff,%eax
    1265:	09 f7                	or     %esi,%edi
    1267:	50                   	push   %eax
    1268:	81 e7 ff 00 00 00    	and    $0xff,%edi
    126e:	51                   	push   %ecx
    126f:	e8 0c c9 00 00       	call   db80 <pio_write_8@plt>
    1274:	8b 45 dc             	mov    -0x24(%ebp),%eax
    1277:	57                   	push   %edi
    1278:	50                   	push   %eax
    1279:	68 ad b7 00 00       	push   $0xb7ad
    127e:	6a 05                	push   $0x5
    1280:	e8 0b 25 00 00       	call   3790 <ddf_msg>
    1285:	83 c4 18             	add    $0x18,%esp
    1288:	8b 45 dc             	mov    -0x24(%ebp),%eax
    128b:	57                   	push   %edi
    128c:	50                   	push   %eax
    128d:	e8 ee c8 00 00       	call   db80 <pio_write_8@plt>
    1292:	8b 4d d8             	mov    -0x28(%ebp),%ecx
    1295:	58                   	pop    %eax
    1296:	5a                   	pop    %edx
    1297:	6a 00                	push   $0x0
    1299:	51                   	push   %ecx
    129a:	e8 e1 c8 00 00       	call   db80 <pio_write_8@plt>
    129f:	88 d8                	mov    %bl,%al
    12a1:	25 ff 00 00 00       	and    $0xff,%eax
    12a6:	50                   	push   %eax
    12a7:	89 c7                	mov    %eax,%edi
    12a9:	8b 45 e4             	mov    -0x1c(%ebp),%eax
    12ac:	50                   	push   %eax
    12ad:	68 00 b7 00 00       	push   $0xb700
    12b2:	6a 05                	push   $0x5
    12b4:	e8 d7 24 00 00       	call   3790 <ddf_msg>
    12b9:	83 c4 18             	add    $0x18,%esp
    12bc:	8b 45 e4             	mov    -0x1c(%ebp),%eax
    12bf:	57                   	push   %edi
    12c0:	50                   	push   %eax
    12c1:	0f b6 ff             	movzbl %bh,%edi
    12c4:	c1 eb 10             	shr    $0x10,%ebx
    12c7:	e8 b4 c8 00 00       	call   db80 <pio_write_8@plt>
    12cc:	8b 45 e4             	mov    -0x1c(%ebp),%eax
    12cf:	57                   	push   %edi
    12d0:	50                   	push   %eax
    12d1:	68 24 b7 00 00       	push   $0xb724
    12d6:	6a 05                	push   $0x5
    12d8:	e8 b3 24 00 00       	call   3790 <ddf_msg>
    12dd:	83 c4 18             	add    $0x18,%esp
    12e0:	8b 45 e4             	mov    -0x1c(%ebp),%eax
    12e3:	57                   	push   %edi
    12e4:	50                   	push   %eax
    12e5:	e8 96 c8 00 00       	call   db80 <pio_write_8@plt>
    12ea:	8b 7d cc             	mov    -0x34(%ebp),%edi
    12ed:	53                   	push   %ebx
    12ee:	57                   	push   %edi
    12ef:	68 48 b7 00 00       	push   $0xb748
    12f4:	6a 05                	push   $0x5
    12f6:	e8 95 24 00 00       	call   3790 <ddf_msg>
    12fb:	83 c4 18             	add    $0x18,%esp
    12fe:	53                   	push   %ebx
    12ff:	57                   	push   %edi
    1300:	e8 7b c8 00 00       	call   db80 <pio_write_8@plt>
    1305:	8b 4d d8             	mov    -0x28(%ebp),%ecx
    1308:	58                   	pop    %eax
    1309:	5a                   	pop    %edx
    130a:	6a 00                	push   $0x0
    130c:	51                   	push   %ecx
    130d:	e8 6e c8 00 00       	call   db80 <pio_write_8@plt>
    1312:	8a 45 10             	mov    0x10(%ebp),%al
    1315:	8d 58 ff             	lea    -0x1(%eax),%ebx
    1318:	8b 7d d0             	mov    -0x30(%ebp),%edi
    131b:	81 e3 ff 00 00 00    	and    $0xff,%ebx
    1321:	53                   	push   %ebx
    1322:	57                   	push   %edi
    1323:	68 6c b7 00 00       	push   $0xb76c
    1328:	6a 05                	push   $0x5
    132a:	e8 61 24 00 00       	call   3790 <ddf_msg>
    132f:	83 c4 18             	add    $0x18,%esp
    1332:	53                   	push   %ebx
    1333:	57                   	push   %edi
    1334:	e8 47 c8 00 00       	call   db80 <pio_write_8@plt>
    1339:	8b 45 d4             	mov    -0x2c(%ebp),%eax
    133c:	0f b6 dc             	movzbl %ah,%ebx
    133f:	53                   	push   %ebx
    1340:	57                   	push   %edi
    1341:	68 8c b7 00 00       	push   $0xb78c
    1346:	6a 05                	push   $0x5
    1348:	e8 43 24 00 00       	call   3790 <ddf_msg>
    134d:	83 c4 18             	add    $0x18,%esp
    1350:	53                   	push   %ebx
    1351:	57                   	push   %edi
    1352:	e8 29 c8 00 00       	call   db80 <pio_write_8@plt>
    1357:	8b 45 e0             	mov    -0x20(%ebp),%eax
    135a:	81 e6 ff 00 00 00    	and    $0xff,%esi
    1360:	5b                   	pop    %ebx
    1361:	5f                   	pop    %edi
    1362:	56                   	push   %esi
    1363:	50                   	push   %eax
    1364:	e8 17 c8 00 00       	call   db80 <pio_write_8@plt>
    1369:	c7 04 24 90 fe 00 00 	movl   $0xfe90,(%esp)
    1370:	e8 4b c8 00 00       	call   dbc0 <fibril_mutex_unlock@plt>
    1375:	83 c4 10             	add    $0x10,%esp
    1378:	31 c0                	xor    %eax,%eax
    137a:	8d 65 f4             	lea    -0xc(%ebp),%esp
    137d:	5b                   	pop    %ebx
    137e:	5e                   	pop    %esi
    137f:	5f                   	pop    %edi
    1380:	5d                   	pop    %ebp
    1381:	c3                   	ret    
    1382:	8d b6 00 00 00 00    	lea    0x0(%esi),%esi
    1388:	50                   	push   %eax
    1389:	68 80 fe 00 00       	push   $0xfe80
    138e:	6a 0f                	push   $0xf
    1390:	68 81 00 00 00       	push   $0x81
    1395:	e8 76 c5 00 00       	call   d910 <pio_enable@plt>
    139a:	83 c4 10             	add    $0x10,%esp
    139d:	85 c0                	test   %eax,%eax
    139f:	75 63                	jne    1404 <dma_channel_setup+0x2c4>
    13a1:	50                   	push   %eax
    13a2:	68 84 fe 00 00       	push   $0xfe84
    13a7:	6a 10                	push   $0x10
    13a9:	6a 00                	push   $0x0
    13ab:	e8 60 c5 00 00       	call   d910 <pio_enable@plt>
    13b0:	83 c4 10             	add    $0x10,%esp
    13b3:	85 c0                	test   %eax,%eax
    13b5:	75 4d                	jne    1404 <dma_channel_setup+0x2c4>
    13b7:	51                   	push   %ecx
    13b8:	68 88 fe 00 00       	push   $0xfe88
    13bd:	6a 1c                	push   $0x1c
    13bf:	68 c0 00 00 00       	push   $0xc0
    13c4:	e8 47 c5 00 00       	call   d910 <pio_enable@plt>
    13c9:	83 c4 10             	add    $0x10,%esp
    13cc:	85 c0                	test   %eax,%eax
    13ce:	75 34                	jne    1404 <dma_channel_setup+0x2c4>
    13d0:	50                   	push   %eax
    13d1:	50                   	push   %eax
    13d2:	a1 88 fe 00 00       	mov    0xfe88,%eax
    13d7:	68 ff 00 00 00       	push   $0xff
    13dc:	83 c0 19             	add    $0x19,%eax
    13df:	c6 05 8c fe 00 00 01 	movb   $0x1,0xfe8c
    13e6:	50                   	push   %eax
    13e7:	e8 94 c7 00 00       	call   db80 <pio_write_8@plt>
    13ec:	58                   	pop    %eax
    13ed:	a1 84 fe 00 00       	mov    0xfe84,%eax
    13f2:	83 c0 0d             	add    $0xd,%eax
    13f5:	5a                   	pop    %edx
    13f6:	68 ff 00 00 00       	push   $0xff
    13fb:	50                   	push   %eax
    13fc:	e8 7f c7 00 00       	call   db80 <pio_write_8@plt>
    1401:	83 c4 10             	add    $0x10,%esp
    1404:	80 3d 8c fe 00 00 00 	cmpb   $0x0,0xfe8c
    140b:	0f 85 a9 fd ff ff    	jne    11ba <dma_channel_setup+0x7a>
    1411:	83 ec 0c             	sub    $0xc,%esp
    1414:	68 90 fe 00 00       	push   $0xfe90
    1419:	e8 a2 c7 00 00       	call   dbc0 <fibril_mutex_unlock@plt>
    141e:	83 c4 10             	add    $0x10,%esp
    1421:	b8 f6 fe ff ff       	mov    $0xfffffef6,%eax
    1426:	e9 4f ff ff ff       	jmp    137a <dma_channel_setup+0x23a>
    142b:	90                   	nop
    142c:	8d 74 26 00          	lea    0x0(%esi,%eiz,1),%esi
    1430:	8d 65 f4             	lea    -0xc(%ebp),%esp
    1433:	b8 f2 ff ff ff       	mov    $0xfffffff2,%eax
    1438:	5b                   	pop    %ebx
    1439:	5e                   	pop    %esi
    143a:	5f                   	pop    %edi
    143b:	5d                   	pop    %ebp
    143c:	c3                   	ret    
    143d:	8d 76 00             	lea    0x0(%esi),%esi
    1440:	b8 f5 ff ff ff       	mov    $0xfffffff5,%eax
    1445:	e9 30 ff ff ff       	jmp    137a <dma_channel_setup+0x23a>
    144a:	83 ec 0c             	sub    $0xc,%esp
    144d:	68 90 fe 00 00       	push   $0xfe90
    1452:	e8 69 c7 00 00       	call   dbc0 <fibril_mutex_unlock@plt>
    1457:	83 c4 10             	add    $0x10,%esp
    145a:	b8 f2 ff ff ff       	mov    $0xfffffff2,%eax
    145f:	e9 16 ff ff ff       	jmp    137a <dma_channel_setup+0x23a>
    1464:	8d b6 00 00 00 00    	lea    0x0(%esi),%esi
    146a:	8d bf 00 00 00 00    	lea    0x0(%edi),%edi

00001470 <dma_channel_remain>:
    1470:	55                   	push   %ebp
    1471:	89 e5                	mov    %esp,%ebp
    1473:	57                   	push   %edi
    1474:	56                   	push   %esi
    1475:	53                   	push   %ebx
    1476:	83 ec 1c             	sub    $0x1c,%esp
    1479:	8b 75 0c             	mov    0xc(%ebp),%esi
    147c:	8b 5d 08             	mov    0x8(%ebp),%ebx
    147f:	85 f6                	test   %esi,%esi
    1481:	0f 84 f8 00 00 00    	je     157f <dma_channel_remain+0x10f>
    1487:	83 c8 ff             	or     $0xffffffff,%eax
    148a:	83 fb 07             	cmp    $0x7,%ebx
    148d:	0f 87 b5 00 00 00    	ja     1548 <dma_channel_remain+0xd8>
    1493:	f7 c3 fb ff ff ff    	test   $0xfffffffb,%ebx
    1499:	0f 84 c1 00 00 00    	je     1560 <dma_channel_remain+0xf0>
    149f:	83 ec 0c             	sub    $0xc,%esp
    14a2:	68 90 fe 00 00       	push   $0xfe90
    14a7:	e8 d4 c9 00 00       	call   de80 <fibril_mutex_lock@plt>
    14ac:	83 c4 10             	add    $0x10,%esp
    14af:	80 3d 8c fe 00 00 00 	cmpb   $0x0,0xfe8c
    14b6:	0f 84 ac 00 00 00    	je     1568 <dma_channel_remain+0xf8>
    14bc:	8d 04 5b             	lea    (%ebx,%ebx,2),%eax
    14bf:	83 eb 04             	sub    $0x4,%ebx
    14c2:	8d 04 c5 c0 fd 00 00 	lea    0xfdc0(,%eax,8),%eax
    14c9:	8b 70 04             	mov    0x4(%eax),%esi
    14cc:	52                   	push   %edx
    14cd:	52                   	push   %edx
    14ce:	6a 00                	push   $0x0
    14d0:	8b 48 14             	mov    0x14(%eax),%ecx
    14d3:	51                   	push   %ecx
    14d4:	e8 a7 c6 00 00       	call   db80 <pio_write_8@plt>
    14d9:	89 34 24             	mov    %esi,(%esp)
    14dc:	e8 2f c6 00 00       	call   db10 <pio_read_8@plt>
    14e1:	89 c7                	mov    %eax,%edi
    14e3:	25 ff 00 00 00       	and    $0xff,%eax
    14e8:	50                   	push   %eax
    14e9:	56                   	push   %esi
    14ea:	68 d6 b7 00 00       	push   $0xb7d6
    14ef:	6a 05                	push   $0x5
    14f1:	e8 9a 22 00 00       	call   3790 <ddf_msg>
    14f6:	83 c4 14             	add    $0x14,%esp
    14f9:	56                   	push   %esi
    14fa:	e8 11 c6 00 00       	call   db10 <pio_read_8@plt>
    14ff:	25 ff 00 00 00       	and    $0xff,%eax
    1504:	50                   	push   %eax
    1505:	56                   	push   %esi
    1506:	68 f1 b7 00 00       	push   $0xb7f1
    150b:	6a 05                	push   $0x5
    150d:	89 45 e4             	mov    %eax,-0x1c(%ebp)
    1510:	e8 7b 22 00 00       	call   3790 <ddf_msg>
    1515:	83 c4 14             	add    $0x14,%esp
    1518:	68 90 fe 00 00       	push   $0xfe90
    151d:	e8 9e c6 00 00       	call   dbc0 <fibril_mutex_unlock@plt>
    1522:	8b 45 e4             	mov    -0x1c(%ebp),%eax
    1525:	89 fa                	mov    %edi,%edx
    1527:	c1 e0 08             	shl    $0x8,%eax
    152a:	81 e2 ff 00 00 00    	and    $0xff,%edx
    1530:	09 c2                	or     %eax,%edx
    1532:	83 c4 10             	add    $0x10,%esp
    1535:	83 fb 03             	cmp    $0x3,%ebx
    1538:	76 16                	jbe    1550 <dma_channel_remain+0xe0>
    153a:	81 e2 ff ff 00 00    	and    $0xffff,%edx
    1540:	42                   	inc    %edx
    1541:	8b 45 0c             	mov    0xc(%ebp),%eax
    1544:	89 10                	mov    %edx,(%eax)
    1546:	31 c0                	xor    %eax,%eax
    1548:	8d 65 f4             	lea    -0xc(%ebp),%esp
    154b:	5b                   	pop    %ebx
    154c:	5e                   	pop    %esi
    154d:	5f                   	pop    %edi
    154e:	5d                   	pop    %ebp
    154f:	c3                   	ret    
    1550:	01 d2                	add    %edx,%edx
    1552:	81 e2 ff ff 00 00    	and    $0xffff,%edx
    1558:	83 c2 02             	add    $0x2,%edx
    155b:	eb e4                	jmp    1541 <dma_channel_remain+0xd1>
    155d:	8d 76 00             	lea    0x0(%esi),%esi
    1560:	b8 f5 ff ff ff       	mov    $0xfffffff5,%eax
    1565:	eb e1                	jmp    1548 <dma_channel_remain+0xd8>
    1567:	90                   	nop
    1568:	83 ec 0c             	sub    $0xc,%esp
    156b:	68 90 fe 00 00       	push   $0xfe90
    1570:	e8 4b c6 00 00       	call   dbc0 <fibril_mutex_unlock@plt>
    1575:	83 c4 10             	add    $0x10,%esp
    1578:	b8 f6 fe ff ff       	mov    $0xfffffef6,%eax
    157d:	eb c9                	jmp    1548 <dma_channel_remain+0xd8>
    157f:	53                   	push   %ebx
    1580:	68 ca 01 00 00       	push   $0x1ca
    1585:	68 c9 b7 00 00       	push   $0xb7c9
    158a:	68 d1 b7 00 00       	push   $0xb7d1
    158f:	e8 9c c5 00 00       	call   db30 <assert_abort@plt>
    1594:	66 90                	xchg   %ax,%ax
    1596:	66 90                	xchg   %ax,%ax
    1598:	66 90                	xchg   %ax,%ax
    159a:	66 90                	xchg   %ax,%ax
    159c:	66 90                	xchg   %ax,%ax
    159e:	66 90                	xchg   %ax,%ax

000015a0 <isa_fun_offline>:
    15a0:	55                   	push   %ebp
    15a1:	89 e5                	mov    %esp,%ebp
    15a3:	53                   	push   %ebx
    15a4:	83 ec 0c             	sub    $0xc,%esp
    15a7:	8b 5d 08             	mov    0x8(%ebp),%ebx
    15aa:	68 0d b8 00 00       	push   $0xb80d
    15af:	6a 04                	push   $0x4
    15b1:	e8 da 21 00 00       	call   3790 <ddf_msg>
    15b6:	89 5d 08             	mov    %ebx,0x8(%ebp)
    15b9:	83 c4 10             	add    $0x10,%esp
    15bc:	8b 5d fc             	mov    -0x4(%ebp),%ebx
    15bf:	c9                   	leave  
    15c0:	e9 bb 1e 00 00       	jmp    3480 <ddf_fun_offline>
    15c5:	8d 74 26 00          	lea    0x0(%esi,%eiz,1),%esi
    15c9:	8d bc 27 00 00 00 00 	lea    0x0(%edi,%eiz,1),%edi

000015d0 <isa_fun_online>:
    15d0:	55                   	push   %ebp
    15d1:	89 e5                	mov    %esp,%ebp
    15d3:	53                   	push   %ebx
    15d4:	83 ec 0c             	sub    $0xc,%esp
    15d7:	8b 5d 08             	mov    0x8(%ebp),%ebx
    15da:	68 1f b8 00 00       	push   $0xb81f
    15df:	6a 04                	push   $0x4
    15e1:	e8 aa 21 00 00       	call   3790 <ddf_msg>
    15e6:	89 5d 08             	mov    %ebx,0x8(%ebp)
    15e9:	83 c4 10             	add    $0x10,%esp
    15ec:	8b 5d fc             	mov    -0x4(%ebp),%ebx
    15ef:	c9                   	leave  
    15f0:	e9 5b 1e 00 00       	jmp    3450 <ddf_fun_online>
    15f5:	8d 74 26 00          	lea    0x0(%esi,%eiz,1),%esi
    15f9:	8d bc 27 00 00 00 00 	lea    0x0(%edi,%eiz,1),%edi

00001600 <isa_dev_remove>:
    1600:	55                   	push   %ebp
    1601:	89 e5                	mov    %esp,%ebp
    1603:	57                   	push   %edi
    1604:	56                   	push   %esi
    1605:	53                   	push   %ebx
    1606:	83 ec 28             	sub    $0x28,%esp
    1609:	8b 45 08             	mov    0x8(%ebp),%eax
    160c:	50                   	push   %eax
    160d:	e8 be 18 00 00       	call   2ed0 <ddf_dev_data_get>
    1612:	89 c6                	mov    %eax,%esi
    1614:	89 04 24             	mov    %eax,(%esp)
    1617:	e8 64 c8 00 00       	call   de80 <fibril_mutex_lock@plt>
    161c:	83 c4 10             	add    $0x10,%esp
    161f:	8b 5e 34             	mov    0x34(%esi),%ebx
    1622:	8d 7e 30             	lea    0x30(%esi),%edi
    1625:	39 df                	cmp    %ebx,%edi
    1627:	75 67                	jne    1690 <isa_dev_remove+0x90>
    1629:	e9 b2 00 00 00       	jmp    16e0 <isa_dev_remove+0xe0>
    162e:	66 90                	xchg   %ax,%ax
    1630:	83 ec 0c             	sub    $0xc,%esp
    1633:	8b 43 10             	mov    0x10(%ebx),%eax
    1636:	50                   	push   %eax
    1637:	e8 74 1d 00 00       	call   33b0 <ddf_fun_unbind>
    163c:	83 c4 10             	add    $0x10,%esp
    163f:	85 c0                	test   %eax,%eax
    1641:	0f 85 c9 00 00 00    	jne    1710 <isa_dev_remove+0x110>
    1647:	8b 93 94 00 00 00    	mov    0x94(%ebx),%edx
    164d:	85 d2                	test   %edx,%edx
    164f:	74 15                	je     1666 <isa_dev_remove+0x66>
    1651:	8b 83 98 00 00 00    	mov    0x98(%ebx),%eax
    1657:	85 c0                	test   %eax,%eax
    1659:	74 0b                	je     1666 <isa_dev_remove+0x66>
    165b:	89 10                	mov    %edx,(%eax)
    165d:	8b 93 94 00 00 00    	mov    0x94(%ebx),%edx
    1663:	89 42 04             	mov    %eax,0x4(%edx)
    1666:	83 ec 0c             	sub    $0xc,%esp
    1669:	c7 83 94 00 00 00 00 	movl   $0x0,0x94(%ebx)
    1670:	00 00 00 
    1673:	c7 83 98 00 00 00 00 	movl   $0x0,0x98(%ebx)
    167a:	00 00 00 
    167d:	8b 4b 10             	mov    0x10(%ebx),%ecx
    1680:	51                   	push   %ecx
    1681:	e8 ca 1a 00 00       	call   3150 <ddf_fun_destroy>
    1686:	8b 5e 34             	mov    0x34(%esi),%ebx
    1689:	83 c4 10             	add    $0x10,%esp
    168c:	39 df                	cmp    %ebx,%edi
    168e:	74 50                	je     16e0 <isa_dev_remove+0xe0>
    1690:	81 eb 94 00 00 00    	sub    $0x94,%ebx
    1696:	83 ec 0c             	sub    $0xc,%esp
    1699:	8b 43 10             	mov    0x10(%ebx),%eax
    169c:	50                   	push   %eax
    169d:	e8 de 1d 00 00       	call   3480 <ddf_fun_offline>
    16a2:	83 c4 10             	add    $0x10,%esp
    16a5:	85 c0                	test   %eax,%eax
    16a7:	74 87                	je     1630 <isa_dev_remove+0x30>
    16a9:	83 ec 0c             	sub    $0xc,%esp
    16ac:	89 45 e4             	mov    %eax,-0x1c(%ebp)
    16af:	56                   	push   %esi
    16b0:	e8 0b c5 00 00       	call   dbc0 <fibril_mutex_unlock@plt>
    16b5:	58                   	pop    %eax
    16b6:	8b 43 10             	mov    0x10(%ebx),%eax
    16b9:	50                   	push   %eax
    16ba:	e8 81 1a 00 00       	call   3140 <ddf_fun_get_name>
    16bf:	83 c4 0c             	add    $0xc,%esp
    16c2:	50                   	push   %eax
    16c3:	68 30 b8 00 00       	push   $0xb830
    16c8:	6a 01                	push   $0x1
    16ca:	e8 c1 20 00 00       	call   3790 <ddf_msg>
    16cf:	83 c4 10             	add    $0x10,%esp
    16d2:	8b 55 e4             	mov    -0x1c(%ebp),%edx
    16d5:	8d 65 f4             	lea    -0xc(%ebp),%esp
    16d8:	89 d0                	mov    %edx,%eax
    16da:	5b                   	pop    %ebx
    16db:	5e                   	pop    %esi
    16dc:	5f                   	pop    %edi
    16dd:	5d                   	pop    %ebp
    16de:	c3                   	ret    
    16df:	90                   	nop
    16e0:	83 ec 0c             	sub    $0xc,%esp
    16e3:	8b 46 1c             	mov    0x1c(%esi),%eax
    16e6:	50                   	push   %eax
    16e7:	e8 c4 1c 00 00       	call   33b0 <ddf_fun_unbind>
    16ec:	83 c4 10             	add    $0x10,%esp
    16ef:	85 c0                	test   %eax,%eax
    16f1:	75 53                	jne    1746 <isa_dev_remove+0x146>
    16f3:	83 ec 0c             	sub    $0xc,%esp
    16f6:	89 45 e4             	mov    %eax,-0x1c(%ebp)
    16f9:	56                   	push   %esi
    16fa:	e8 c1 c4 00 00       	call   dbc0 <fibril_mutex_unlock@plt>
    16ff:	8b 55 e4             	mov    -0x1c(%ebp),%edx
    1702:	83 c4 10             	add    $0x10,%esp
    1705:	8d 65 f4             	lea    -0xc(%ebp),%esp
    1708:	89 d0                	mov    %edx,%eax
    170a:	5b                   	pop    %ebx
    170b:	5e                   	pop    %esi
    170c:	5f                   	pop    %edi
    170d:	5d                   	pop    %ebp
    170e:	c3                   	ret    
    170f:	90                   	nop
    1710:	83 ec 0c             	sub    $0xc,%esp
    1713:	89 45 e4             	mov    %eax,-0x1c(%ebp)
    1716:	56                   	push   %esi
    1717:	e8 a4 c4 00 00       	call   dbc0 <fibril_mutex_unlock@plt>
    171c:	8b 7b 10             	mov    0x10(%ebx),%edi
    171f:	5e                   	pop    %esi
    1720:	57                   	push   %edi
    1721:	e8 1a 1a 00 00       	call   3140 <ddf_fun_get_name>
    1726:	83 c4 0c             	add    $0xc,%esp
    1729:	50                   	push   %eax
    172a:	68 44 b8 00 00       	push   $0xb844
    172f:	6a 01                	push   $0x1
    1731:	e8 5a 20 00 00       	call   3790 <ddf_msg>
    1736:	8b 55 e4             	mov    -0x1c(%ebp),%edx
    1739:	83 c4 10             	add    $0x10,%esp
    173c:	8d 65 f4             	lea    -0xc(%ebp),%esp
    173f:	89 d0                	mov    %edx,%eax
    1741:	5b                   	pop    %ebx
    1742:	5e                   	pop    %esi
    1743:	5f                   	pop    %edi
    1744:	5d                   	pop    %ebp
    1745:	c3                   	ret    
    1746:	83 ec 0c             	sub    $0xc,%esp
    1749:	56                   	push   %esi
    174a:	e8 71 c4 00 00       	call   dbc0 <fibril_mutex_unlock@plt>
    174f:	58                   	pop    %eax
    1750:	5a                   	pop    %edx
    1751:	68 94 b9 00 00       	push   $0xb994
    1756:	6a 01                	push   $0x1
    1758:	e8 33 20 00 00       	call   3790 <ddf_msg>
    175d:	83 c4 10             	add    $0x10,%esp
    1760:	ba f7 fe ff ff       	mov    $0xfffffef7,%edx
    1765:	e9 6b ff ff ff       	jmp    16d5 <isa_dev_remove+0xd5>
    176a:	8d b6 00 00 00 00    	lea    0x0(%esi),%esi

00001770 <isa_fun_remain_dma>:
    1770:	55                   	push   %ebp
    1771:	89 e5                	mov    %esp,%ebp
    1773:	57                   	push   %edi
    1774:	56                   	push   %esi
    1775:	53                   	push   %ebx
    1776:	83 ec 0c             	sub    $0xc,%esp
    1779:	8b 75 10             	mov    0x10(%ebp),%esi
    177c:	8b 45 08             	mov    0x8(%ebp),%eax
    177f:	8b 5d 0c             	mov    0xc(%ebp),%ebx
    1782:	85 f6                	test   %esi,%esi
    1784:	0f 84 a9 00 00 00    	je     1833 <isa_fun_remain_dma+0xc3>
    178a:	85 c0                	test   %eax,%eax
    178c:	0f 84 8c 00 00 00    	je     181e <isa_fun_remain_dma+0xae>
    1792:	83 ec 0c             	sub    $0xc,%esp
    1795:	50                   	push   %eax
    1796:	e8 95 19 00 00       	call   3130 <ddf_fun_data_get>
    179b:	83 c4 10             	add    $0x10,%esp
    179e:	85 c0                	test   %eax,%eax
    17a0:	74 67                	je     1809 <isa_fun_remain_dma+0x99>
    17a2:	8b 88 8c 00 00 00    	mov    0x8c(%eax),%ecx
    17a8:	85 c9                	test   %ecx,%ecx
    17aa:	74 50                	je     17fc <isa_fun_remain_dma+0x8c>
    17ac:	8b 80 90 00 00 00    	mov    0x90(%eax),%eax
    17b2:	31 d2                	xor    %edx,%edx
    17b4:	83 c0 04             	add    $0x4,%eax
    17b7:	eb 14                	jmp    17cd <isa_fun_remain_dma+0x5d>
    17b9:	8d b4 26 00 00 00 00 	lea    0x0(%esi,%eiz,1),%esi
    17c0:	83 ff 03             	cmp    $0x3,%edi
    17c3:	74 2b                	je     17f0 <isa_fun_remain_dma+0x80>
    17c5:	42                   	inc    %edx
    17c6:	83 c0 18             	add    $0x18,%eax
    17c9:	39 ca                	cmp    %ecx,%edx
    17cb:	74 2f                	je     17fc <isa_fun_remain_dma+0x8c>
    17cd:	8b 78 fc             	mov    -0x4(%eax),%edi
    17d0:	83 ff 04             	cmp    $0x4,%edi
    17d3:	75 eb                	jne    17c0 <isa_fun_remain_dma+0x50>
    17d5:	3b 18                	cmp    (%eax),%ebx
    17d7:	75 ec                	jne    17c5 <isa_fun_remain_dma+0x55>
    17d9:	89 75 0c             	mov    %esi,0xc(%ebp)
    17dc:	89 5d 08             	mov    %ebx,0x8(%ebp)
    17df:	8d 65 f4             	lea    -0xc(%ebp),%esp
    17e2:	5b                   	pop    %ebx
    17e3:	5e                   	pop    %esi
    17e4:	5f                   	pop    %edi
    17e5:	5d                   	pop    %ebp
    17e6:	e9 85 fc ff ff       	jmp    1470 <dma_channel_remain>
    17eb:	90                   	nop
    17ec:	8d 74 26 00          	lea    0x0(%esi,%eiz,1),%esi
    17f0:	39 18                	cmp    %ebx,(%eax)
    17f2:	74 e5                	je     17d9 <isa_fun_remain_dma+0x69>
    17f4:	42                   	inc    %edx
    17f5:	83 c0 18             	add    $0x18,%eax
    17f8:	39 ca                	cmp    %ecx,%edx
    17fa:	75 d1                	jne    17cd <isa_fun_remain_dma+0x5d>
    17fc:	8d 65 f4             	lea    -0xc(%ebp),%esp
    17ff:	b8 f2 ff ff ff       	mov    $0xfffffff2,%eax
    1804:	5b                   	pop    %ebx
    1805:	5e                   	pop    %esi
    1806:	5f                   	pop    %edi
    1807:	5d                   	pop    %ebp
    1808:	c3                   	ret    
    1809:	50                   	push   %eax
    180a:	68 a8 00 00 00       	push   $0xa8
    180f:	68 58 b8 00 00       	push   $0xb858
    1814:	68 64 b8 00 00       	push   $0xb864
    1819:	e8 12 c3 00 00       	call   db30 <assert_abort@plt>
    181e:	52                   	push   %edx
    181f:	68 a6 00 00 00       	push   $0xa6
    1824:	68 58 b8 00 00       	push   $0xb858
    1829:	68 5e b8 00 00       	push   $0xb85e
    182e:	e8 fd c2 00 00       	call   db30 <assert_abort@plt>
    1833:	51                   	push   %ecx
    1834:	68 a5 00 00 00       	push   $0xa5
    1839:	68 58 b8 00 00       	push   $0xb858
    183e:	68 d1 b7 00 00       	push   $0xb7d1
    1843:	e8 e8 c2 00 00       	call   db30 <assert_abort@plt>
    1848:	90                   	nop
    1849:	8d b4 26 00 00 00 00 	lea    0x0(%esi,%eiz,1),%esi

00001850 <isa_fun_setup_dma>:
    1850:	55                   	push   %ebp
    1851:	89 e5                	mov    %esp,%ebp
    1853:	57                   	push   %edi
    1854:	56                   	push   %esi
    1855:	53                   	push   %ebx
    1856:	83 ec 1c             	sub    $0x1c,%esp
    1859:	8b 5d 10             	mov    0x10(%ebp),%ebx
    185c:	8b 45 08             	mov    0x8(%ebp),%eax
    185f:	89 5d e4             	mov    %ebx,-0x1c(%ebp)
    1862:	8b 5d 14             	mov    0x14(%ebp),%ebx
    1865:	89 5d e0             	mov    %ebx,-0x20(%ebp)
    1868:	8b 75 0c             	mov    0xc(%ebp),%esi
    186b:	8b 5d 18             	mov    0x18(%ebp),%ebx
    186e:	85 c0                	test   %eax,%eax
    1870:	0f 84 98 00 00 00    	je     190e <isa_fun_setup_dma+0xbe>
    1876:	83 ec 0c             	sub    $0xc,%esp
    1879:	50                   	push   %eax
    187a:	e8 b1 18 00 00       	call   3130 <ddf_fun_data_get>
    187f:	83 c4 10             	add    $0x10,%esp
    1882:	85 c0                	test   %eax,%eax
    1884:	74 73                	je     18f9 <isa_fun_setup_dma+0xa9>
    1886:	8b b8 8c 00 00 00    	mov    0x8c(%eax),%edi
    188c:	85 ff                	test   %edi,%edi
    188e:	74 5c                	je     18ec <isa_fun_setup_dma+0x9c>
    1890:	8b 80 90 00 00 00    	mov    0x90(%eax),%eax
    1896:	31 d2                	xor    %edx,%edx
    1898:	83 c0 04             	add    $0x4,%eax
    189b:	eb 10                	jmp    18ad <isa_fun_setup_dma+0x5d>
    189d:	8d 76 00             	lea    0x0(%esi),%esi
    18a0:	83 f9 03             	cmp    $0x3,%ecx
    18a3:	74 3b                	je     18e0 <isa_fun_setup_dma+0x90>
    18a5:	42                   	inc    %edx
    18a6:	83 c0 18             	add    $0x18,%eax
    18a9:	39 fa                	cmp    %edi,%edx
    18ab:	74 3f                	je     18ec <isa_fun_setup_dma+0x9c>
    18ad:	8b 48 fc             	mov    -0x4(%eax),%ecx
    18b0:	83 f9 04             	cmp    $0x4,%ecx
    18b3:	75 eb                	jne    18a0 <isa_fun_setup_dma+0x50>
    18b5:	3b 30                	cmp    (%eax),%esi
    18b7:	75 ec                	jne    18a5 <isa_fun_setup_dma+0x55>
    18b9:	8b 45 e0             	mov    -0x20(%ebp),%eax
    18bc:	81 e3 ff 00 00 00    	and    $0xff,%ebx
    18c2:	89 45 10             	mov    %eax,0x10(%ebp)
    18c5:	8b 45 e4             	mov    -0x1c(%ebp),%eax
    18c8:	89 5d 14             	mov    %ebx,0x14(%ebp)
    18cb:	89 75 08             	mov    %esi,0x8(%ebp)
    18ce:	89 45 0c             	mov    %eax,0xc(%ebp)
    18d1:	8d 65 f4             	lea    -0xc(%ebp),%esp
    18d4:	5b                   	pop    %ebx
    18d5:	5e                   	pop    %esi
    18d6:	5f                   	pop    %edi
    18d7:	5d                   	pop    %ebp
    18d8:	e9 63 f8 ff ff       	jmp    1140 <dma_channel_setup>
    18dd:	8d 76 00             	lea    0x0(%esi),%esi
    18e0:	39 30                	cmp    %esi,(%eax)
    18e2:	74 d5                	je     18b9 <isa_fun_setup_dma+0x69>
    18e4:	42                   	inc    %edx
    18e5:	83 c0 18             	add    $0x18,%eax
    18e8:	39 fa                	cmp    %edi,%edx
    18ea:	75 c1                	jne    18ad <isa_fun_setup_dma+0x5d>
    18ec:	8d 65 f4             	lea    -0xc(%ebp),%esp
    18ef:	b8 f2 ff ff ff       	mov    $0xfffffff2,%eax
    18f4:	5b                   	pop    %ebx
    18f5:	5e                   	pop    %esi
    18f6:	5f                   	pop    %edi
    18f7:	5d                   	pop    %ebp
    18f8:	c3                   	ret    
    18f9:	50                   	push   %eax
    18fa:	68 91 00 00 00       	push   $0x91
    18ff:	68 58 b8 00 00       	push   $0xb858
    1904:	68 64 b8 00 00       	push   $0xb864
    1909:	e8 22 c2 00 00       	call   db30 <assert_abort@plt>
    190e:	52                   	push   %edx
    190f:	68 8f 00 00 00       	push   $0x8f
    1914:	68 58 b8 00 00       	push   $0xb858
    1919:	68 5e b8 00 00       	push   $0xb85e
    191e:	e8 0d c2 00 00       	call   db30 <assert_abort@plt>
    1923:	8d b6 00 00 00 00    	lea    0x0(%esi),%esi
    1929:	8d bc 27 00 00 00 00 	lea    0x0(%edi,%eiz,1),%edi

00001930 <isa_fun_get_pio_window>:
    1930:	55                   	push   %ebp
    1931:	89 e5                	mov    %esp,%ebp
    1933:	83 ec 14             	sub    $0x14,%esp
    1936:	8b 55 08             	mov    0x8(%ebp),%edx
    1939:	52                   	push   %edx
    193a:	e8 61 16 00 00       	call   2fa0 <ddf_fun_get_dev>
    193f:	89 04 24             	mov    %eax,(%esp)
    1942:	e8 89 15 00 00       	call   2ed0 <ddf_dev_data_get>
    1947:	83 c4 10             	add    $0x10,%esp
    194a:	85 c0                	test   %eax,%eax
    194c:	74 05                	je     1953 <isa_fun_get_pio_window+0x23>
    194e:	83 c0 20             	add    $0x20,%eax
    1951:	c9                   	leave  
    1952:	c3                   	ret    
    1953:	50                   	push   %eax
    1954:	68 c4 00 00 00       	push   $0xc4
    1959:	68 58 b8 00 00       	push   $0xb858
    195e:	68 68 b8 00 00       	push   $0xb868
    1963:	e8 c8 c1 00 00       	call   db30 <assert_abort@plt>
    1968:	90                   	nop
    1969:	8d b4 26 00 00 00 00 	lea    0x0(%esi,%eiz,1),%esi

00001970 <isa_fun_get_resources>:
    1970:	55                   	push   %ebp
    1971:	89 e5                	mov    %esp,%ebp
    1973:	83 ec 14             	sub    $0x14,%esp
    1976:	8b 55 08             	mov    0x8(%ebp),%edx
    1979:	52                   	push   %edx
    197a:	e8 b1 17 00 00       	call   3130 <ddf_fun_data_get>
    197f:	83 c4 10             	add    $0x10,%esp
    1982:	85 c0                	test   %eax,%eax
    1984:	74 07                	je     198d <isa_fun_get_resources+0x1d>
    1986:	05 8c 00 00 00       	add    $0x8c,%eax
    198b:	c9                   	leave  
    198c:	c3                   	ret    
    198d:	50                   	push   %eax
    198e:	6a 71                	push   $0x71
    1990:	68 58 b8 00 00       	push   $0xb858
    1995:	68 64 b8 00 00       	push   $0xb864
    199a:	e8 91 c1 00 00       	call   db30 <assert_abort@plt>
    199f:	90                   	nop

000019a0 <isa_fun_enable_interrupt>:
    19a0:	55                   	push   %ebp
    19a1:	89 e5                	mov    %esp,%ebp
    19a3:	56                   	push   %esi
    19a4:	53                   	push   %ebx
    19a5:	8b 45 08             	mov    0x8(%ebp),%eax
    19a8:	85 c0                	test   %eax,%eax
    19aa:	74 7f                	je     1a2b <isa_fun_enable_interrupt+0x8b>
    19ac:	83 ec 0c             	sub    $0xc,%esp
    19af:	50                   	push   %eax
    19b0:	e8 7b 17 00 00       	call   3130 <ddf_fun_data_get>
    19b5:	83 c4 10             	add    $0x10,%esp
    19b8:	89 c6                	mov    %eax,%esi
    19ba:	85 c0                	test   %eax,%eax
    19bc:	74 5b                	je     1a19 <isa_fun_enable_interrupt+0x79>
    19be:	8b 90 8c 00 00 00    	mov    0x8c(%eax),%edx
    19c4:	31 db                	xor    %ebx,%ebx
    19c6:	85 d2                	test   %edx,%edx
    19c8:	75 0b                	jne    19d5 <isa_fun_enable_interrupt+0x35>
    19ca:	eb 39                	jmp    1a05 <isa_fun_enable_interrupt+0x65>
    19cc:	8d 74 26 00          	lea    0x0(%esi,%eiz,1),%esi
    19d0:	43                   	inc    %ebx
    19d1:	39 d3                	cmp    %edx,%ebx
    19d3:	73 30                	jae    1a05 <isa_fun_enable_interrupt+0x65>
    19d5:	8b 8e 90 00 00 00    	mov    0x90(%esi),%ecx
    19db:	8d 04 5b             	lea    (%ebx,%ebx,2),%eax
    19de:	8d 04 c1             	lea    (%ecx,%eax,8),%eax
    19e1:	8b 08                	mov    (%eax),%ecx
    19e3:	85 c9                	test   %ecx,%ecx
    19e5:	75 e9                	jne    19d0 <isa_fun_enable_interrupt+0x30>
    19e7:	83 ec 0c             	sub    $0xc,%esp
    19ea:	8b 40 04             	mov    0x4(%eax),%eax
    19ed:	50                   	push   %eax
    19ee:	e8 0d c0 00 00       	call   da00 <irc_enable_interrupt@plt>
    19f3:	83 c4 10             	add    $0x10,%esp
    19f6:	85 c0                	test   %eax,%eax
    19f8:	75 16                	jne    1a10 <isa_fun_enable_interrupt+0x70>
    19fa:	8b 96 8c 00 00 00    	mov    0x8c(%esi),%edx
    1a00:	43                   	inc    %ebx
    1a01:	39 d3                	cmp    %edx,%ebx
    1a03:	72 d0                	jb     19d5 <isa_fun_enable_interrupt+0x35>
    1a05:	8d 65 f8             	lea    -0x8(%ebp),%esp
    1a08:	b0 01                	mov    $0x1,%al
    1a0a:	5b                   	pop    %ebx
    1a0b:	5e                   	pop    %esi
    1a0c:	5d                   	pop    %ebp
    1a0d:	c3                   	ret    
    1a0e:	66 90                	xchg   %ax,%ax
    1a10:	8d 65 f8             	lea    -0x8(%ebp),%esp
    1a13:	31 c0                	xor    %eax,%eax
    1a15:	5b                   	pop    %ebx
    1a16:	5e                   	pop    %esi
    1a17:	5d                   	pop    %ebp
    1a18:	c3                   	ret    
    1a19:	53                   	push   %ebx
    1a1a:	6a 7b                	push   $0x7b
    1a1c:	68 58 b8 00 00       	push   $0xb858
    1a21:	68 64 b8 00 00       	push   $0xb864
    1a26:	e8 05 c1 00 00       	call   db30 <assert_abort@plt>
    1a2b:	56                   	push   %esi
    1a2c:	6a 79                	push   $0x79
    1a2e:	68 58 b8 00 00       	push   $0xb858
    1a33:	68 5e b8 00 00       	push   $0xb85e
    1a38:	e8 f3 c0 00 00       	call   db30 <assert_abort@plt>
    1a3d:	8d 76 00             	lea    0x0(%esi),%esi

00001a40 <isa_dev_add>:
    1a40:	55                   	push   %ebp
    1a41:	89 e5                	mov    %esp,%ebp
    1a43:	57                   	push   %edi
    1a44:	56                   	push   %esi
    1a45:	53                   	push   %ebx
    1a46:	83 ec 48             	sub    $0x48,%esp
    1a49:	8b 7d 08             	mov    0x8(%ebp),%edi
    1a4c:	57                   	push   %edi
    1a4d:	e8 8e 14 00 00       	call   2ee0 <ddf_dev_get_handle>
    1a52:	83 c4 0c             	add    $0xc,%esp
    1a55:	50                   	push   %eax
    1a56:	68 b8 b9 00 00       	push   $0xb9b8
    1a5b:	6a 04                	push   $0x4
    1a5d:	e8 2e 1d 00 00       	call   3790 <ddf_msg>
    1a62:	5e                   	pop    %esi
    1a63:	58                   	pop    %eax
    1a64:	6a 38                	push   $0x38
    1a66:	57                   	push   %edi
    1a67:	e8 24 14 00 00       	call   2e90 <ddf_dev_data_alloc>
    1a6c:	83 c4 10             	add    $0x10,%esp
    1a6f:	85 c0                	test   %eax,%eax
    1a71:	0f 84 cb 08 00 00    	je     2342 <isa_dev_add+0x902>
    1a77:	83 ec 0c             	sub    $0xc,%esp
    1a7a:	89 c3                	mov    %eax,%ebx
    1a7c:	50                   	push   %eax
    1a7d:	e8 6e c1 00 00       	call   dbf0 <fibril_mutex_initialize@plt>
    1a82:	8d 43 30             	lea    0x30(%ebx),%eax
    1a85:	89 7b 18             	mov    %edi,0x18(%ebx)
    1a88:	89 43 30             	mov    %eax,0x30(%ebx)
    1a8b:	89 43 34             	mov    %eax,0x34(%ebx)
    1a8e:	89 45 d0             	mov    %eax,-0x30(%ebp)
    1a91:	89 3c 24             	mov    %edi,(%esp)
    1a94:	e8 67 14 00 00       	call   2f00 <ddf_dev_parent_sess_create>
    1a99:	83 c4 10             	add    $0x10,%esp
    1a9c:	89 c6                	mov    %eax,%esi
    1a9e:	85 c0                	test   %eax,%eax
    1aa0:	0f 84 1f 09 00 00    	je     23c5 <isa_dev_add+0x985>
    1aa6:	8d 43 10             	lea    0x10(%ebx),%eax
    1aa9:	51                   	push   %ecx
    1aaa:	50                   	push   %eax
    1aab:	6a 00                	push   $0x0
    1aad:	56                   	push   %esi
    1aae:	e8 4d 84 00 00       	call   9f00 <pci_config_space_read_16>
    1ab3:	83 c4 10             	add    $0x10,%esp
    1ab6:	89 45 d4             	mov    %eax,-0x2c(%ebp)
    1ab9:	85 c0                	test   %eax,%eax
    1abb:	74 0b                	je     1ac8 <isa_dev_add+0x88>
    1abd:	8d 65 f4             	lea    -0xc(%ebp),%esp
    1ac0:	5b                   	pop    %ebx
    1ac1:	5e                   	pop    %esi
    1ac2:	5f                   	pop    %edi
    1ac3:	5d                   	pop    %ebp
    1ac4:	c3                   	ret    
    1ac5:	8d 76 00             	lea    0x0(%esi),%esi
    1ac8:	8d 43 12             	lea    0x12(%ebx),%eax
    1acb:	52                   	push   %edx
    1acc:	50                   	push   %eax
    1acd:	6a 02                	push   $0x2
    1acf:	56                   	push   %esi
    1ad0:	e8 2b 84 00 00       	call   9f00 <pci_config_space_read_16>
    1ad5:	83 c4 10             	add    $0x10,%esp
    1ad8:	89 45 d4             	mov    %eax,-0x2c(%ebp)
    1adb:	85 c0                	test   %eax,%eax
    1add:	75 de                	jne    1abd <isa_dev_add+0x7d>
    1adf:	50                   	push   %eax
    1ae0:	8d 43 14             	lea    0x14(%ebx),%eax
    1ae3:	50                   	push   %eax
    1ae4:	6a 0b                	push   $0xb
    1ae6:	56                   	push   %esi
    1ae7:	e8 b4 83 00 00       	call   9ea0 <pci_config_space_read_8>
    1aec:	83 c4 10             	add    $0x10,%esp
    1aef:	89 45 d4             	mov    %eax,-0x2c(%ebp)
    1af2:	85 c0                	test   %eax,%eax
    1af4:	75 c7                	jne    1abd <isa_dev_add+0x7d>
    1af6:	50                   	push   %eax
    1af7:	8d 43 15             	lea    0x15(%ebx),%eax
    1afa:	50                   	push   %eax
    1afb:	6a 0a                	push   $0xa
    1afd:	56                   	push   %esi
    1afe:	e8 9d 83 00 00       	call   9ea0 <pci_config_space_read_8>
    1b03:	83 c4 10             	add    $0x10,%esp
    1b06:	89 45 d4             	mov    %eax,-0x2c(%ebp)
    1b09:	85 c0                	test   %eax,%eax
    1b0b:	75 b0                	jne    1abd <isa_dev_add+0x7d>
    1b0d:	50                   	push   %eax
    1b0e:	50                   	push   %eax
    1b0f:	8d 43 20             	lea    0x20(%ebx),%eax
    1b12:	50                   	push   %eax
    1b13:	56                   	push   %esi
    1b14:	e8 37 bf 00 00       	call   da50 <pio_window_get@plt>
    1b19:	83 c4 10             	add    $0x10,%esp
    1b1c:	89 45 d4             	mov    %eax,-0x2c(%ebp)
    1b1f:	85 c0                	test   %eax,%eax
    1b21:	0f 85 42 08 00 00    	jne    2369 <isa_dev_add+0x929>
    1b27:	50                   	push   %eax
    1b28:	50                   	push   %eax
    1b29:	68 8f b8 00 00       	push   $0xb88f
    1b2e:	6a 04                	push   $0x4
    1b30:	e8 5b 1c 00 00       	call   3790 <ddf_msg>
    1b35:	89 1c 24             	mov    %ebx,(%esp)
    1b38:	e8 43 c3 00 00       	call   de80 <fibril_mutex_lock@plt>
    1b3d:	83 c4 0c             	add    $0xc,%esp
    1b40:	68 a7 b8 00 00       	push   $0xb8a7
    1b45:	6a 02                	push   $0x2
    1b47:	57                   	push   %edi
    1b48:	e8 73 14 00 00       	call   2fc0 <ddf_fun_create>
    1b4d:	83 c4 10             	add    $0x10,%esp
    1b50:	89 43 1c             	mov    %eax,0x1c(%ebx)
    1b53:	85 c0                	test   %eax,%eax
    1b55:	0f 84 a3 09 00 00    	je     24fe <isa_dev_add+0xabe>
    1b5b:	83 ec 0c             	sub    $0xc,%esp
    1b5e:	50                   	push   %eax
    1b5f:	e8 1c 17 00 00       	call   3280 <ddf_fun_bind>
    1b64:	83 c4 10             	add    $0x10,%esp
    1b67:	89 45 d4             	mov    %eax,-0x2c(%ebp)
    1b6a:	85 c0                	test   %eax,%eax
    1b6c:	0f 85 60 09 00 00    	jne    24d2 <isa_dev_add+0xa92>
    1b72:	8b 43 10             	mov    0x10(%ebx),%eax
    1b75:	66 81 7b 14 06 01    	cmpw   $0x106,0x14(%ebx)
    1b7b:	0f 84 0a 09 00 00    	je     248b <isa_dev_add+0xa4b>
    1b81:	3d 8e 10 00 10       	cmp    $0x1000108e,%eax
    1b86:	0f 84 f5 08 00 00    	je     2481 <isa_dev_add+0xa41>
    1b8c:	31 ff                	xor    %edi,%edi
    1b8e:	51                   	push   %ecx
    1b8f:	51                   	push   %ecx
    1b90:	6a 10                	push   $0x10
    1b92:	57                   	push   %edi
    1b93:	e8 88 c2 00 00       	call   de20 <open@plt>
    1b98:	83 c4 10             	add    $0x10,%esp
    1b9b:	89 c6                	mov    %eax,%esi
    1b9d:	85 c0                	test   %eax,%eax
    1b9f:	0f 88 c6 08 00 00    	js     246b <isa_dev_add+0xa2b>
    1ba5:	6a 02                	push   $0x2
    1ba7:	6a 00                	push   $0x0
    1ba9:	6a 00                	push   $0x0
    1bab:	50                   	push   %eax
    1bac:	e8 0f bf 00 00       	call   dac0 <lseek@plt>
    1bb1:	6a 00                	push   $0x0
    1bb3:	89 45 c8             	mov    %eax,-0x38(%ebp)
    1bb6:	6a 00                	push   $0x0
    1bb8:	6a 00                	push   $0x0
    1bba:	56                   	push   %esi
    1bbb:	e8 00 bf 00 00       	call   dac0 <lseek@plt>
    1bc0:	8b 45 c8             	mov    -0x38(%ebp),%eax
    1bc3:	83 c4 20             	add    $0x20,%esp
    1bc6:	85 c0                	test   %eax,%eax
    1bc8:	0f 85 30 08 00 00    	jne    23fe <isa_dev_add+0x9be>
    1bce:	50                   	push   %eax
    1bcf:	57                   	push   %edi
    1bd0:	68 8c ba 00 00       	push   $0xba8c
    1bd5:	6a 01                	push   $0x1
    1bd7:	e8 b4 1b 00 00       	call   3790 <ddf_msg>
    1bdc:	83 c4 10             	add    $0x10,%esp
    1bdf:	c7 45 cc 00 00 00 00 	movl   $0x0,-0x34(%ebp)
    1be6:	83 ec 0c             	sub    $0xc,%esp
    1be9:	56                   	push   %esi
    1bea:	e8 61 c2 00 00       	call   de50 <close@plt>
    1bef:	83 c4 10             	add    $0x10,%esp
    1bf2:	89 5d c0             	mov    %ebx,-0x40(%ebp)
    1bf5:	8b 7d cc             	mov    -0x34(%ebp),%edi
    1bf8:	85 ff                	test   %edi,%edi
    1bfa:	0f 84 9d 04 00 00    	je     209d <isa_dev_add+0x65d>
    1c00:	8a 07                	mov    (%edi),%al
    1c02:	84 c0                	test   %al,%al
    1c04:	0f 84 db 07 00 00    	je     23e5 <isa_dev_add+0x9a5>
    1c0a:	8d b6 00 00 00 00    	lea    0x0(%esi),%esi
    1c10:	89 fa                	mov    %edi,%edx
    1c12:	3c 0a                	cmp    $0xa,%al
    1c14:	74 15                	je     1c2b <isa_dev_add+0x1eb>
    1c16:	84 c0                	test   %al,%al
    1c18:	75 0a                	jne    1c24 <isa_dev_add+0x1e4>
    1c1a:	eb 0f                	jmp    1c2b <isa_dev_add+0x1eb>
    1c1c:	8d 74 26 00          	lea    0x0(%esi,%eiz,1),%esi
    1c20:	3c 0a                	cmp    $0xa,%al
    1c22:	74 07                	je     1c2b <isa_dev_add+0x1eb>
    1c24:	42                   	inc    %edx
    1c25:	8a 02                	mov    (%edx),%al
    1c27:	84 c0                	test   %al,%al
    1c29:	75 f5                	jne    1c20 <isa_dev_add+0x1e0>
    1c2b:	31 db                	xor    %ebx,%ebx
    1c2d:	84 c0                	test   %al,%al
    1c2f:	74 03                	je     1c34 <isa_dev_add+0x1f4>
    1c31:	8d 5a 01             	lea    0x1(%edx),%ebx
    1c34:	c6 02 00             	movb   $0x0,(%edx)
    1c37:	89 fa                	mov    %edi,%edx
    1c39:	8a 02                	mov    (%edx),%al
    1c3b:	84 c0                	test   %al,%al
    1c3d:	0f 84 ed 02 00 00    	je     1f30 <isa_dev_add+0x4f0>
    1c43:	3c 09                	cmp    $0x9,%al
    1c45:	7c 10                	jl     1c57 <isa_dev_add+0x217>
    1c47:	3c 0d                	cmp    $0xd,%al
    1c49:	0f 8e d9 02 00 00    	jle    1f28 <isa_dev_add+0x4e8>
    1c4f:	3c 20                	cmp    $0x20,%al
    1c51:	0f 84 d1 02 00 00    	je     1f28 <isa_dev_add+0x4e8>
    1c57:	8a 07                	mov    (%edi),%al
    1c59:	84 c0                	test   %al,%al
    1c5b:	74 1b                	je     1c78 <isa_dev_add+0x238>
    1c5d:	3c 09                	cmp    $0x9,%al
    1c5f:	7c 17                	jl     1c78 <isa_dev_add+0x238>
    1c61:	3c 0d                	cmp    $0xd,%al
    1c63:	0f 8e 2e 04 00 00    	jle    2097 <isa_dev_add+0x657>
    1c69:	3c 20                	cmp    $0x20,%al
    1c6b:	0f 84 26 04 00 00    	je     2097 <isa_dev_add+0x657>
    1c71:	8d b4 26 00 00 00 00 	lea    0x0(%esi,%eiz,1),%esi
    1c78:	50                   	push   %eax
    1c79:	6a 00                	push   $0x0
    1c7b:	68 f1 b8 00 00       	push   $0xb8f1
    1c80:	57                   	push   %edi
    1c81:	e8 da bf 00 00       	call   dc60 <str_tok@plt>
    1c86:	8b 45 c0             	mov    -0x40(%ebp),%eax
    1c89:	83 c4 0c             	add    $0xc,%esp
    1c8c:	8b 40 18             	mov    0x18(%eax),%eax
    1c8f:	57                   	push   %edi
    1c90:	6a 01                	push   $0x1
    1c92:	50                   	push   %eax
    1c93:	e8 28 13 00 00       	call   2fc0 <ddf_fun_create>
    1c98:	83 c4 10             	add    $0x10,%esp
    1c9b:	89 c7                	mov    %eax,%edi
    1c9d:	85 c0                	test   %eax,%eax
    1c9f:	0f 84 f8 03 00 00    	je     209d <isa_dev_add+0x65d>
    1ca5:	50                   	push   %eax
    1ca6:	50                   	push   %eax
    1ca7:	68 9c 00 00 00       	push   $0x9c
    1cac:	57                   	push   %edi
    1cad:	e8 1e 14 00 00       	call   30d0 <ddf_fun_data_alloc>
    1cb2:	83 c4 10             	add    $0x10,%esp
    1cb5:	89 45 cc             	mov    %eax,-0x34(%ebp)
    1cb8:	85 c0                	test   %eax,%eax
    1cba:	0f 84 fe 07 00 00    	je     24be <isa_dev_add+0xa7e>
    1cc0:	83 ec 0c             	sub    $0xc,%esp
    1cc3:	89 c6                	mov    %eax,%esi
    1cc5:	50                   	push   %eax
    1cc6:	e8 25 bf 00 00       	call   dbf0 <fibril_mutex_initialize@plt>
    1ccb:	89 f0                	mov    %esi,%eax
    1ccd:	83 c4 10             	add    $0x10,%esp
    1cd0:	83 c0 14             	add    $0x14,%eax
    1cd3:	89 7e 10             	mov    %edi,0x10(%esi)
    1cd6:	89 86 90 00 00 00    	mov    %eax,0x90(%esi)
    1cdc:	85 db                	test   %ebx,%ebx
    1cde:	0f 84 5d 01 00 00    	je     1e41 <isa_dev_add+0x401>
    1ce4:	8d 74 26 00          	lea    0x0(%esi,%eiz,1),%esi
    1ce8:	8a 03                	mov    (%ebx),%al
    1cea:	89 da                	mov    %ebx,%edx
    1cec:	84 c0                	test   %al,%al
    1cee:	75 0f                	jne    1cff <isa_dev_add+0x2bf>
    1cf0:	eb 11                	jmp    1d03 <isa_dev_add+0x2c3>
    1cf2:	8d b6 00 00 00 00    	lea    0x0(%esi),%esi
    1cf8:	42                   	inc    %edx
    1cf9:	8a 02                	mov    (%edx),%al
    1cfb:	84 c0                	test   %al,%al
    1cfd:	74 04                	je     1d03 <isa_dev_add+0x2c3>
    1cff:	3c 0a                	cmp    $0xa,%al
    1d01:	75 f5                	jne    1cf8 <isa_dev_add+0x2b8>
    1d03:	31 ff                	xor    %edi,%edi
    1d05:	84 c0                	test   %al,%al
    1d07:	74 03                	je     1d0c <isa_dev_add+0x2cc>
    1d09:	8d 7a 01             	lea    0x1(%edx),%edi
    1d0c:	c6 02 00             	movb   $0x0,(%edx)
    1d0f:	8a 13                	mov    (%ebx),%dl
    1d11:	84 d2                	test   %dl,%dl
    1d13:	0f 84 a4 01 00 00    	je     1ebd <isa_dev_add+0x47d>
    1d19:	89 d9                	mov    %ebx,%ecx
    1d1b:	88 d0                	mov    %dl,%al
    1d1d:	8d 76 00             	lea    0x0(%esi),%esi
    1d20:	3c 09                	cmp    $0x9,%al
    1d22:	7c 10                	jl     1d34 <isa_dev_add+0x2f4>
    1d24:	3c 0d                	cmp    $0xd,%al
    1d26:	0f 8e 84 01 00 00    	jle    1eb0 <isa_dev_add+0x470>
    1d2c:	3c 20                	cmp    $0x20,%al
    1d2e:	0f 84 7c 01 00 00    	je     1eb0 <isa_dev_add+0x470>
    1d34:	80 fa 09             	cmp    $0x9,%dl
    1d37:	7c 12                	jl     1d4b <isa_dev_add+0x30b>
    1d39:	80 fa 0d             	cmp    $0xd,%dl
    1d3c:	0f 8e 06 02 00 00    	jle    1f48 <isa_dev_add+0x508>
    1d42:	80 fa 20             	cmp    $0x20,%dl
    1d45:	0f 84 fd 01 00 00    	je     1f48 <isa_dev_add+0x508>
    1d4b:	83 ec 0c             	sub    $0xc,%esp
    1d4e:	68 f3 b8 00 00       	push   $0xb8f3
    1d53:	e8 c8 bf 00 00       	call   dd20 <str_size@plt>
    1d58:	83 c4 0c             	add    $0xc,%esp
    1d5b:	89 c6                	mov    %eax,%esi
    1d5d:	50                   	push   %eax
    1d5e:	68 f3 b8 00 00       	push   $0xb8f3
    1d63:	53                   	push   %ebx
    1d64:	e8 c7 bf 00 00       	call   dd30 <str_lcmp@plt>
    1d69:	83 c4 10             	add    $0x10,%esp
    1d6c:	85 c0                	test   %eax,%eax
    1d6e:	0f 85 1c 02 00 00    	jne    1f90 <isa_dev_add+0x550>
    1d74:	01 de                	add    %ebx,%esi
    1d76:	8a 06                	mov    (%esi),%al
    1d78:	84 c0                	test   %al,%al
    1d7a:	0f 84 e3 01 00 00    	je     1f63 <isa_dev_add+0x523>
    1d80:	3c 09                	cmp    $0x9,%al
    1d82:	7c 10                	jl     1d94 <isa_dev_add+0x354>
    1d84:	3c 0d                	cmp    $0xd,%al
    1d86:	0f 8e cc 01 00 00    	jle    1f58 <isa_dev_add+0x518>
    1d8c:	3c 20                	cmp    $0x20,%al
    1d8e:	0f 84 c4 01 00 00    	je     1f58 <isa_dev_add+0x518>
    1d94:	c7 45 e4 00 00 00 00 	movl   $0x0,-0x1c(%ebp)
    1d9b:	8a 06                	mov    (%esi),%al
    1d9d:	84 c0                	test   %al,%al
    1d9f:	74 1f                	je     1dc0 <isa_dev_add+0x380>
    1da1:	8d b4 26 00 00 00 00 	lea    0x0(%esi,%eiz,1),%esi
    1da8:	3c 09                	cmp    $0x9,%al
    1daa:	7c 14                	jl     1dc0 <isa_dev_add+0x380>
    1dac:	3c 0d                	cmp    $0xd,%al
    1dae:	0f 8e bc 01 00 00    	jle    1f70 <isa_dev_add+0x530>
    1db4:	3c 20                	cmp    $0x20,%al
    1db6:	0f 84 b4 01 00 00    	je     1f70 <isa_dev_add+0x530>
    1dbc:	8d 74 26 00          	lea    0x0(%esi,%eiz,1),%esi
    1dc0:	50                   	push   %eax
    1dc1:	8d 45 e4             	lea    -0x1c(%ebp),%eax
    1dc4:	6a 10                	push   $0x10
    1dc6:	50                   	push   %eax
    1dc7:	56                   	push   %esi
    1dc8:	e8 13 bd 00 00       	call   dae0 <strtol@plt>
    1dcd:	8b 5d e4             	mov    -0x1c(%ebp),%ebx
    1dd0:	83 c4 10             	add    $0x10,%esp
    1dd3:	89 45 c8             	mov    %eax,-0x38(%ebp)
    1dd6:	39 f3                	cmp    %esi,%ebx
    1dd8:	74 5d                	je     1e37 <isa_dev_add+0x3f7>
    1dda:	8a 03                	mov    (%ebx),%al
    1ddc:	84 c0                	test   %al,%al
    1dde:	74 14                	je     1df4 <isa_dev_add+0x3b4>
    1de0:	3c 09                	cmp    $0x9,%al
    1de2:	7c 10                	jl     1df4 <isa_dev_add+0x3b4>
    1de4:	3c 0d                	cmp    $0xd,%al
    1de6:	0f 8e 94 01 00 00    	jle    1f80 <isa_dev_add+0x540>
    1dec:	3c 20                	cmp    $0x20,%al
    1dee:	0f 84 8c 01 00 00    	je     1f80 <isa_dev_add+0x540>
    1df4:	50                   	push   %eax
    1df5:	8d 45 e4             	lea    -0x1c(%ebp),%eax
    1df8:	6a 10                	push   $0x10
    1dfa:	50                   	push   %eax
    1dfb:	53                   	push   %ebx
    1dfc:	e8 df bc 00 00       	call   dae0 <strtol@plt>
    1e01:	83 c4 10             	add    $0x10,%esp
    1e04:	89 45 c4             	mov    %eax,-0x3c(%ebp)
    1e07:	39 5d e4             	cmp    %ebx,-0x1c(%ebp)
    1e0a:	74 2b                	je     1e37 <isa_dev_add+0x3f7>
    1e0c:	8b 45 cc             	mov    -0x34(%ebp),%eax
    1e0f:	83 ec 0c             	sub    $0xc,%esp
    1e12:	8b b0 8c 00 00 00    	mov    0x8c(%eax),%esi
    1e18:	8b 98 90 00 00 00    	mov    0x90(%eax),%ebx
    1e1e:	8b 40 10             	mov    0x10(%eax),%eax
    1e21:	50                   	push   %eax
    1e22:	e8 79 11 00 00       	call   2fa0 <ddf_fun_get_dev>
    1e27:	89 04 24             	mov    %eax,(%esp)
    1e2a:	e8 a1 10 00 00       	call   2ed0 <ddf_dev_data_get>
    1e2f:	83 c4 10             	add    $0x10,%esp
    1e32:	83 fe 04             	cmp    $0x4,%esi
    1e35:	76 0e                	jbe    1e45 <isa_dev_add+0x405>
    1e37:	89 fb                	mov    %edi,%ebx
    1e39:	85 db                	test   %ebx,%ebx
    1e3b:	0f 85 a7 fe ff ff    	jne    1ce8 <isa_dev_add+0x2a8>
    1e41:	31 ff                	xor    %edi,%edi
    1e43:	eb 78                	jmp    1ebd <isa_dev_add+0x47d>
    1e45:	8d 14 76             	lea    (%esi,%esi,2),%edx
    1e48:	8b 40 28             	mov    0x28(%eax),%eax
    1e4b:	8b 4d c8             	mov    -0x38(%ebp),%ecx
    1e4e:	8d 34 d3             	lea    (%ebx,%edx,8),%esi
    1e51:	31 db                	xor    %ebx,%ebx
    1e53:	31 d2                	xor    %edx,%edx
    1e55:	01 c8                	add    %ecx,%eax
    1e57:	11 da                	adc    %ebx,%edx
    1e59:	89 46 04             	mov    %eax,0x4(%esi)
    1e5c:	8b 5d c4             	mov    -0x3c(%ebp),%ebx
    1e5f:	8b 45 cc             	mov    -0x34(%ebp),%eax
    1e62:	89 5e 0c             	mov    %ebx,0xc(%esi)
    1e65:	89 56 08             	mov    %edx,0x8(%esi)
    1e68:	c6 46 10 00          	movb   $0x0,0x10(%esi)
    1e6c:	c7 46 14 00 00 00 00 	movl   $0x0,0x14(%esi)
    1e73:	8b 90 8c 00 00 00    	mov    0x8c(%eax),%edx
    1e79:	83 ec 0c             	sub    $0xc,%esp
    1e7c:	42                   	inc    %edx
    1e7d:	c7 06 01 00 00 00    	movl   $0x1,(%esi)
    1e83:	8b 48 10             	mov    0x10(%eax),%ecx
    1e86:	89 90 8c 00 00 00    	mov    %edx,0x8c(%eax)
    1e8c:	51                   	push   %ecx
    1e8d:	e8 ae 12 00 00       	call   3140 <ddf_fun_get_name>
    1e92:	89 04 24             	mov    %eax,(%esp)
    1e95:	53                   	push   %ebx
    1e96:	8b 5d c8             	mov    -0x38(%ebp),%ebx
    1e99:	53                   	push   %ebx
    1e9a:	68 b0 ba 00 00       	push   $0xbab0
    1e9f:	6a 03                	push   $0x3
    1ea1:	89 fb                	mov    %edi,%ebx
    1ea3:	e8 e8 18 00 00       	call   3790 <ddf_msg>
    1ea8:	83 c4 20             	add    $0x20,%esp
    1eab:	eb 8c                	jmp    1e39 <isa_dev_add+0x3f9>
    1ead:	8d 76 00             	lea    0x0(%esi),%esi
    1eb0:	41                   	inc    %ecx
    1eb1:	74 0a                	je     1ebd <isa_dev_add+0x47d>
    1eb3:	8a 01                	mov    (%ecx),%al
    1eb5:	84 c0                	test   %al,%al
    1eb7:	0f 85 63 fe ff ff    	jne    1d20 <isa_dev_add+0x2e0>
    1ebd:	8b 75 cc             	mov    -0x34(%ebp),%esi
    1ec0:	50                   	push   %eax
    1ec1:	50                   	push   %eax
    1ec2:	68 c0 fe 00 00       	push   $0xfec0
    1ec7:	8b 46 10             	mov    0x10(%esi),%eax
    1eca:	50                   	push   %eax
    1ecb:	e8 a0 16 00 00       	call   3570 <ddf_fun_set_ops>
    1ed0:	58                   	pop    %eax
    1ed1:	8b 46 10             	mov    0x10(%esi),%eax
    1ed4:	50                   	push   %eax
    1ed5:	e8 66 12 00 00       	call   3140 <ddf_fun_get_name>
    1eda:	83 c4 0c             	add    $0xc,%esp
    1edd:	50                   	push   %eax
    1ede:	68 53 b9 00 00       	push   $0xb953
    1ee3:	6a 04                	push   $0x4
    1ee5:	e8 a6 18 00 00       	call   3790 <ddf_msg>
    1eea:	58                   	pop    %eax
    1eeb:	8b 46 10             	mov    0x10(%esi),%eax
    1eee:	50                   	push   %eax
    1eef:	e8 8c 13 00 00       	call   3280 <ddf_fun_bind>
    1ef4:	8b 4d d0             	mov    -0x30(%ebp),%ecx
    1ef7:	89 f0                	mov    %esi,%eax
    1ef9:	89 8e 98 00 00 00    	mov    %ecx,0x98(%esi)
    1eff:	8b 4d c0             	mov    -0x40(%ebp),%ecx
    1f02:	05 94 00 00 00       	add    $0x94,%eax
    1f07:	83 c4 10             	add    $0x10,%esp
    1f0a:	8b 51 30             	mov    0x30(%ecx),%edx
    1f0d:	89 96 94 00 00 00    	mov    %edx,0x94(%esi)
    1f13:	8b 51 30             	mov    0x30(%ecx),%edx
    1f16:	89 42 04             	mov    %eax,0x4(%edx)
    1f19:	89 41 30             	mov    %eax,0x30(%ecx)
    1f1c:	e9 d7 fc ff ff       	jmp    1bf8 <isa_dev_add+0x1b8>
    1f21:	8d b4 26 00 00 00 00 	lea    0x0(%esi,%eiz,1),%esi
    1f28:	42                   	inc    %edx
    1f29:	0f 85 0a fd ff ff    	jne    1c39 <isa_dev_add+0x1f9>
    1f2f:	90                   	nop
    1f30:	85 db                	test   %ebx,%ebx
    1f32:	0f 84 65 01 00 00    	je     209d <isa_dev_add+0x65d>
    1f38:	8a 03                	mov    (%ebx),%al
    1f3a:	89 df                	mov    %ebx,%edi
    1f3c:	e9 cf fc ff ff       	jmp    1c10 <isa_dev_add+0x1d0>
    1f41:	8d b4 26 00 00 00 00 	lea    0x0(%esi,%eiz,1),%esi
    1f48:	43                   	inc    %ebx
    1f49:	8a 13                	mov    (%ebx),%dl
    1f4b:	84 d2                	test   %dl,%dl
    1f4d:	0f 85 e1 fd ff ff    	jne    1d34 <isa_dev_add+0x2f4>
    1f53:	e9 f3 fd ff ff       	jmp    1d4b <isa_dev_add+0x30b>
    1f58:	46                   	inc    %esi
    1f59:	8a 06                	mov    (%esi),%al
    1f5b:	84 c0                	test   %al,%al
    1f5d:	0f 85 1d fe ff ff    	jne    1d80 <isa_dev_add+0x340>
    1f63:	c7 45 e4 00 00 00 00 	movl   $0x0,-0x1c(%ebp)
    1f6a:	e9 51 fe ff ff       	jmp    1dc0 <isa_dev_add+0x380>
    1f6f:	90                   	nop
    1f70:	46                   	inc    %esi
    1f71:	8a 06                	mov    (%esi),%al
    1f73:	84 c0                	test   %al,%al
    1f75:	0f 85 2d fe ff ff    	jne    1da8 <isa_dev_add+0x368>
    1f7b:	e9 40 fe ff ff       	jmp    1dc0 <isa_dev_add+0x380>
    1f80:	43                   	inc    %ebx
    1f81:	8a 03                	mov    (%ebx),%al
    1f83:	84 c0                	test   %al,%al
    1f85:	0f 85 55 fe ff ff    	jne    1de0 <isa_dev_add+0x3a0>
    1f8b:	e9 64 fe ff ff       	jmp    1df4 <isa_dev_add+0x3b4>
    1f90:	83 ec 0c             	sub    $0xc,%esp
    1f93:	68 68 b9 00 00       	push   $0xb968
    1f98:	e8 83 bd 00 00       	call   dd20 <str_size@plt>
    1f9d:	83 c4 0c             	add    $0xc,%esp
    1fa0:	89 c6                	mov    %eax,%esi
    1fa2:	50                   	push   %eax
    1fa3:	68 68 b9 00 00       	push   $0xb968
    1fa8:	53                   	push   %ebx
    1fa9:	e8 82 bd 00 00       	call   dd30 <str_lcmp@plt>
    1fae:	83 c4 10             	add    $0x10,%esp
    1fb1:	85 c0                	test   %eax,%eax
    1fb3:	0f 85 1b 01 00 00    	jne    20d4 <isa_dev_add+0x694>
    1fb9:	01 f3                	add    %esi,%ebx
    1fbb:	8a 03                	mov    (%ebx),%al
    1fbd:	84 c0                	test   %al,%al
    1fbf:	0f 84 c6 00 00 00    	je     208b <isa_dev_add+0x64b>
    1fc5:	3c 09                	cmp    $0x9,%al
    1fc7:	7c 10                	jl     1fd9 <isa_dev_add+0x599>
    1fc9:	3c 0d                	cmp    $0xd,%al
    1fcb:	0f 8e af 00 00 00    	jle    2080 <isa_dev_add+0x640>
    1fd1:	3c 20                	cmp    $0x20,%al
    1fd3:	0f 84 a7 00 00 00    	je     2080 <isa_dev_add+0x640>
    1fd9:	c7 45 e4 00 00 00 00 	movl   $0x0,-0x1c(%ebp)
    1fe0:	8a 03                	mov    (%ebx),%al
    1fe2:	84 c0                	test   %al,%al
    1fe4:	74 12                	je     1ff8 <isa_dev_add+0x5b8>
    1fe6:	66 90                	xchg   %ax,%ax
    1fe8:	3c 09                	cmp    $0x9,%al
    1fea:	7c 0c                	jl     1ff8 <isa_dev_add+0x5b8>
    1fec:	3c 0d                	cmp    $0xd,%al
    1fee:	0f 8e 7c 00 00 00    	jle    2070 <isa_dev_add+0x630>
    1ff4:	3c 20                	cmp    $0x20,%al
    1ff6:	74 78                	je     2070 <isa_dev_add+0x630>
    1ff8:	8d 45 e4             	lea    -0x1c(%ebp),%eax
    1ffb:	56                   	push   %esi
    1ffc:	6a 0a                	push   $0xa
    1ffe:	50                   	push   %eax
    1fff:	53                   	push   %ebx
    2000:	e8 db ba 00 00       	call   dae0 <strtol@plt>
    2005:	83 c4 10             	add    $0x10,%esp
    2008:	89 c6                	mov    %eax,%esi
    200a:	39 5d e4             	cmp    %ebx,-0x1c(%ebp)
    200d:	0f 84 24 fe ff ff    	je     1e37 <isa_dev_add+0x3f7>
    2013:	8b 45 cc             	mov    -0x34(%ebp),%eax
    2016:	8b 80 8c 00 00 00    	mov    0x8c(%eax),%eax
    201c:	83 f8 04             	cmp    $0x4,%eax
    201f:	0f 87 12 fe ff ff    	ja     1e37 <isa_dev_add+0x3f7>
    2025:	8b 4d cc             	mov    -0x34(%ebp),%ecx
    2028:	8d 14 40             	lea    (%eax,%eax,2),%edx
    202b:	83 ec 0c             	sub    $0xc,%esp
    202e:	89 fb                	mov    %edi,%ebx
    2030:	8b 81 90 00 00 00    	mov    0x90(%ecx),%eax
    2036:	8d 04 d0             	lea    (%eax,%edx,8),%eax
    2039:	89 70 04             	mov    %esi,0x4(%eax)
    203c:	c7 00 00 00 00 00    	movl   $0x0,(%eax)
    2042:	8b 91 8c 00 00 00    	mov    0x8c(%ecx),%edx
    2048:	42                   	inc    %edx
    2049:	89 91 8c 00 00 00    	mov    %edx,0x8c(%ecx)
    204f:	8b 49 10             	mov    0x10(%ecx),%ecx
    2052:	51                   	push   %ecx
    2053:	e8 e8 10 00 00       	call   3140 <ddf_fun_get_name>
    2058:	50                   	push   %eax
    2059:	56                   	push   %esi
    205a:	68 fc b8 00 00       	push   $0xb8fc
    205f:	6a 03                	push   $0x3
    2061:	e8 2a 17 00 00       	call   3790 <ddf_msg>
    2066:	83 c4 20             	add    $0x20,%esp
    2069:	e9 cb fd ff ff       	jmp    1e39 <isa_dev_add+0x3f9>
    206e:	66 90                	xchg   %ax,%ax
    2070:	43                   	inc    %ebx
    2071:	8a 03                	mov    (%ebx),%al
    2073:	84 c0                	test   %al,%al
    2075:	0f 85 6d ff ff ff    	jne    1fe8 <isa_dev_add+0x5a8>
    207b:	e9 78 ff ff ff       	jmp    1ff8 <isa_dev_add+0x5b8>
    2080:	43                   	inc    %ebx
    2081:	8a 03                	mov    (%ebx),%al
    2083:	84 c0                	test   %al,%al
    2085:	0f 85 3a ff ff ff    	jne    1fc5 <isa_dev_add+0x585>
    208b:	c7 45 e4 00 00 00 00 	movl   $0x0,-0x1c(%ebp)
    2092:	e9 61 ff ff ff       	jmp    1ff8 <isa_dev_add+0x5b8>
    2097:	47                   	inc    %edi
    2098:	e9 ba fb ff ff       	jmp    1c57 <isa_dev_add+0x217>
    209d:	8b 5d c0             	mov    -0x40(%ebp),%ebx
    20a0:	c7 45 cc 00 00 00 00 	movl   $0x0,-0x34(%ebp)
    20a7:	83 ec 0c             	sub    $0xc,%esp
    20aa:	8b 55 cc             	mov    -0x34(%ebp),%edx
    20ad:	52                   	push   %edx
    20ae:	e8 ad bd 00 00       	call   de60 <free@plt>
    20b3:	59                   	pop    %ecx
    20b4:	5e                   	pop    %esi
    20b5:	68 94 bb 00 00       	push   $0xbb94
    20ba:	6a 03                	push   $0x3
    20bc:	e8 cf 16 00 00       	call   3790 <ddf_msg>
    20c1:	89 1c 24             	mov    %ebx,(%esp)
    20c4:	e8 f7 ba 00 00       	call   dbc0 <fibril_mutex_unlock@plt>
    20c9:	83 c4 10             	add    $0x10,%esp
    20cc:	8b 45 d4             	mov    -0x2c(%ebp),%eax
    20cf:	e9 e9 f9 ff ff       	jmp    1abd <isa_dev_add+0x7d>
    20d4:	83 ec 0c             	sub    $0xc,%esp
    20d7:	68 6c b9 00 00       	push   $0xb96c
    20dc:	e8 3f bc 00 00       	call   dd20 <str_size@plt>
    20e1:	83 c4 0c             	add    $0xc,%esp
    20e4:	89 c6                	mov    %eax,%esi
    20e6:	50                   	push   %eax
    20e7:	68 6c b9 00 00       	push   $0xb96c
    20ec:	53                   	push   %ebx
    20ed:	e8 3e bc 00 00       	call   dd30 <str_lcmp@plt>
    20f2:	83 c4 10             	add    $0x10,%esp
    20f5:	85 c0                	test   %eax,%eax
    20f7:	0f 85 d1 00 00 00    	jne    21ce <isa_dev_add+0x78e>
    20fd:	01 f3                	add    %esi,%ebx
    20ff:	8a 03                	mov    (%ebx),%al
    2101:	84 c0                	test   %al,%al
    2103:	0f 84 b9 00 00 00    	je     21c2 <isa_dev_add+0x782>
    2109:	3c 09                	cmp    $0x9,%al
    210b:	7c 10                	jl     211d <isa_dev_add+0x6dd>
    210d:	3c 0d                	cmp    $0xd,%al
    210f:	0f 8e a2 00 00 00    	jle    21b7 <isa_dev_add+0x777>
    2115:	3c 20                	cmp    $0x20,%al
    2117:	0f 84 9a 00 00 00    	je     21b7 <isa_dev_add+0x777>
    211d:	c7 45 e4 00 00 00 00 	movl   $0x0,-0x1c(%ebp)
    2124:	8a 03                	mov    (%ebx),%al
    2126:	84 c0                	test   %al,%al
    2128:	74 0e                	je     2138 <isa_dev_add+0x6f8>
    212a:	3c 09                	cmp    $0x9,%al
    212c:	7c 0a                	jl     2138 <isa_dev_add+0x6f8>
    212e:	3c 0d                	cmp    $0xd,%al
    2130:	7e 78                	jle    21aa <isa_dev_add+0x76a>
    2132:	3c 20                	cmp    $0x20,%al
    2134:	74 74                	je     21aa <isa_dev_add+0x76a>
    2136:	66 90                	xchg   %ax,%ax
    2138:	8d 45 e4             	lea    -0x1c(%ebp),%eax
    213b:	56                   	push   %esi
    213c:	6a 0a                	push   $0xa
    213e:	50                   	push   %eax
    213f:	53                   	push   %ebx
    2140:	e8 9b b9 00 00       	call   dae0 <strtol@plt>
    2145:	83 c4 10             	add    $0x10,%esp
    2148:	89 c6                	mov    %eax,%esi
    214a:	39 5d e4             	cmp    %ebx,-0x1c(%ebp)
    214d:	0f 84 e4 fc ff ff    	je     1e37 <isa_dev_add+0x3f7>
    2153:	8b 4d cc             	mov    -0x34(%ebp),%ecx
    2156:	8b 81 8c 00 00 00    	mov    0x8c(%ecx),%eax
    215c:	83 f8 04             	cmp    $0x4,%eax
    215f:	0f 87 d2 fc ff ff    	ja     1e37 <isa_dev_add+0x3f7>
    2165:	8b 91 90 00 00 00    	mov    0x90(%ecx),%edx
    216b:	8d 4e ff             	lea    -0x1(%esi),%ecx
    216e:	83 f9 02             	cmp    $0x2,%ecx
    2171:	0f 86 79 02 00 00    	jbe    23f0 <isa_dev_add+0x9b0>
    2177:	8d 4e fb             	lea    -0x5(%esi),%ecx
    217a:	83 f9 02             	cmp    $0x2,%ecx
    217d:	0f 86 ff 01 00 00    	jbe    2382 <isa_dev_add+0x942>
    2183:	8b 45 cc             	mov    -0x34(%ebp),%eax
    2186:	83 ec 0c             	sub    $0xc,%esp
    2189:	89 fb                	mov    %edi,%ebx
    218b:	8b 40 10             	mov    0x10(%eax),%eax
    218e:	50                   	push   %eax
    218f:	e8 ac 0f 00 00       	call   3140 <ddf_fun_get_name>
    2194:	50                   	push   %eax
    2195:	56                   	push   %esi
    2196:	68 e8 ba 00 00       	push   $0xbae8
    219b:	6a 02                	push   $0x2
    219d:	e8 ee 15 00 00       	call   3790 <ddf_msg>
    21a2:	83 c4 20             	add    $0x20,%esp
    21a5:	e9 8f fc ff ff       	jmp    1e39 <isa_dev_add+0x3f9>
    21aa:	43                   	inc    %ebx
    21ab:	8a 03                	mov    (%ebx),%al
    21ad:	84 c0                	test   %al,%al
    21af:	0f 85 75 ff ff ff    	jne    212a <isa_dev_add+0x6ea>
    21b5:	eb 81                	jmp    2138 <isa_dev_add+0x6f8>
    21b7:	43                   	inc    %ebx
    21b8:	8a 03                	mov    (%ebx),%al
    21ba:	84 c0                	test   %al,%al
    21bc:	0f 85 47 ff ff ff    	jne    2109 <isa_dev_add+0x6c9>
    21c2:	c7 45 e4 00 00 00 00 	movl   $0x0,-0x1c(%ebp)
    21c9:	e9 6a ff ff ff       	jmp    2138 <isa_dev_add+0x6f8>
    21ce:	83 ec 0c             	sub    $0xc,%esp
    21d1:	68 70 b9 00 00       	push   $0xb970
    21d6:	e8 45 bb 00 00       	call   dd20 <str_size@plt>
    21db:	83 c4 0c             	add    $0xc,%esp
    21de:	89 c6                	mov    %eax,%esi
    21e0:	50                   	push   %eax
    21e1:	68 70 b9 00 00       	push   $0xb970
    21e6:	53                   	push   %ebx
    21e7:	e8 44 bb 00 00       	call   dd30 <str_lcmp@plt>
    21ec:	83 c4 10             	add    $0x10,%esp
    21ef:	85 c0                	test   %eax,%eax
    21f1:	0f 85 5a 01 00 00    	jne    2351 <isa_dev_add+0x911>
    21f7:	01 f3                	add    %esi,%ebx
    21f9:	8a 03                	mov    (%ebx),%al
    21fb:	84 c0                	test   %al,%al
    21fd:	0f 84 33 01 00 00    	je     2336 <isa_dev_add+0x8f6>
    2203:	3c 09                	cmp    $0x9,%al
    2205:	7c 10                	jl     2217 <isa_dev_add+0x7d7>
    2207:	3c 0d                	cmp    $0xd,%al
    2209:	0f 8e 1c 01 00 00    	jle    232b <isa_dev_add+0x8eb>
    220f:	3c 20                	cmp    $0x20,%al
    2211:	0f 84 14 01 00 00    	je     232b <isa_dev_add+0x8eb>
    2217:	c7 45 e4 00 00 00 00 	movl   $0x0,-0x1c(%ebp)
    221e:	8a 03                	mov    (%ebx),%al
    2220:	84 c0                	test   %al,%al
    2222:	74 14                	je     2238 <isa_dev_add+0x7f8>
    2224:	3c 09                	cmp    $0x9,%al
    2226:	7c 10                	jl     2238 <isa_dev_add+0x7f8>
    2228:	3c 0d                	cmp    $0xd,%al
    222a:	0f 8e eb 00 00 00    	jle    231b <isa_dev_add+0x8db>
    2230:	3c 20                	cmp    $0x20,%al
    2232:	0f 84 e3 00 00 00    	je     231b <isa_dev_add+0x8db>
    2238:	50                   	push   %eax
    2239:	8d 45 e4             	lea    -0x1c(%ebp),%eax
    223c:	6a 0a                	push   $0xa
    223e:	50                   	push   %eax
    223f:	53                   	push   %ebx
    2240:	e8 9b b8 00 00       	call   dae0 <strtol@plt>
    2245:	8b 4d e4             	mov    -0x1c(%ebp),%ecx
    2248:	83 c4 10             	add    $0x10,%esp
    224b:	89 c6                	mov    %eax,%esi
    224d:	39 d9                	cmp    %ebx,%ecx
    224f:	0f 84 40 02 00 00    	je     2495 <isa_dev_add+0xa55>
    2255:	8a 01                	mov    (%ecx),%al
    2257:	84 c0                	test   %al,%al
    2259:	74 0c                	je     2267 <isa_dev_add+0x827>
    225b:	3c 09                	cmp    $0x9,%al
    225d:	7c 08                	jl     2267 <isa_dev_add+0x827>
    225f:	3c 0d                	cmp    $0xd,%al
    2261:	7e 1e                	jle    2281 <isa_dev_add+0x841>
    2263:	3c 20                	cmp    $0x20,%al
    2265:	74 1a                	je     2281 <isa_dev_add+0x841>
    2267:	89 ca                	mov    %ecx,%edx
    2269:	8d b4 26 00 00 00 00 	lea    0x0(%esi,%eiz,1),%esi
    2270:	8a 02                	mov    (%edx),%al
    2272:	3c 09                	cmp    $0x9,%al
    2274:	7c 08                	jl     227e <isa_dev_add+0x83e>
    2276:	3c 0d                	cmp    $0xd,%al
    2278:	7e 0a                	jle    2284 <isa_dev_add+0x844>
    227a:	3c 20                	cmp    $0x20,%al
    227c:	74 06                	je     2284 <isa_dev_add+0x844>
    227e:	42                   	inc    %edx
    227f:	eb ef                	jmp    2270 <isa_dev_add+0x830>
    2281:	41                   	inc    %ecx
    2282:	eb d1                	jmp    2255 <isa_dev_add+0x815>
    2284:	29 ca                	sub    %ecx,%edx
    2286:	83 ec 0c             	sub    $0xc,%esp
    2289:	42                   	inc    %edx
    228a:	89 4d c4             	mov    %ecx,-0x3c(%ebp)
    228d:	52                   	push   %edx
    228e:	89 55 c8             	mov    %edx,-0x38(%ebp)
    2291:	e8 ca b7 00 00       	call   da60 <malloc@plt>
    2296:	83 c4 0c             	add    $0xc,%esp
    2299:	8b 4d c4             	mov    -0x3c(%ebp),%ecx
    229c:	8b 55 c8             	mov    -0x38(%ebp),%edx
    229f:	51                   	push   %ecx
    22a0:	89 c3                	mov    %eax,%ebx
    22a2:	52                   	push   %edx
    22a3:	50                   	push   %eax
    22a4:	e8 37 ba 00 00       	call   dce0 <str_cpy@plt>
    22a9:	83 c4 10             	add    $0x10,%esp
    22ac:	85 db                	test   %ebx,%ebx
    22ae:	0f 84 8e 01 00 00    	je     2442 <isa_dev_add+0xa02>
    22b4:	8b 45 cc             	mov    -0x34(%ebp),%eax
    22b7:	83 ec 0c             	sub    $0xc,%esp
    22ba:	8b 50 10             	mov    0x10(%eax),%edx
    22bd:	52                   	push   %edx
    22be:	e8 7d 0e 00 00       	call   3140 <ddf_fun_get_name>
    22c3:	89 04 24             	mov    %eax,(%esp)
    22c6:	56                   	push   %esi
    22c7:	53                   	push   %ebx
    22c8:	68 60 bb 00 00       	push   $0xbb60
    22cd:	6a 04                	push   $0x4
    22cf:	e8 bc 14 00 00       	call   3790 <ddf_msg>
    22d4:	83 c4 1c             	add    $0x1c,%esp
    22d7:	8b 45 cc             	mov    -0x34(%ebp),%eax
    22da:	56                   	push   %esi
    22db:	53                   	push   %ebx
    22dc:	8b 48 10             	mov    0x10(%eax),%ecx
    22df:	51                   	push   %ecx
    22e0:	e8 cb 11 00 00       	call   34b0 <ddf_fun_add_match_id>
    22e5:	83 c4 10             	add    $0x10,%esp
    22e8:	85 c0                	test   %eax,%eax
    22ea:	74 1c                	je     2308 <isa_dev_add+0x8c8>
    22ec:	83 ec 0c             	sub    $0xc,%esp
    22ef:	50                   	push   %eax
    22f0:	e8 6b ba 00 00       	call   dd60 <str_error@plt>
    22f5:	83 c4 0c             	add    $0xc,%esp
    22f8:	50                   	push   %eax
    22f9:	68 38 b9 00 00       	push   $0xb938
    22fe:	6a 01                	push   $0x1
    2300:	e8 8b 14 00 00       	call   3790 <ddf_msg>
    2305:	83 c4 10             	add    $0x10,%esp
    2308:	83 ec 0c             	sub    $0xc,%esp
    230b:	53                   	push   %ebx
    230c:	89 fb                	mov    %edi,%ebx
    230e:	e8 4d bb 00 00       	call   de60 <free@plt>
    2313:	83 c4 10             	add    $0x10,%esp
    2316:	e9 1e fb ff ff       	jmp    1e39 <isa_dev_add+0x3f9>
    231b:	43                   	inc    %ebx
    231c:	8a 03                	mov    (%ebx),%al
    231e:	84 c0                	test   %al,%al
    2320:	0f 85 fe fe ff ff    	jne    2224 <isa_dev_add+0x7e4>
    2326:	e9 0d ff ff ff       	jmp    2238 <isa_dev_add+0x7f8>
    232b:	43                   	inc    %ebx
    232c:	8a 03                	mov    (%ebx),%al
    232e:	84 c0                	test   %al,%al
    2330:	0f 85 cd fe ff ff    	jne    2203 <isa_dev_add+0x7c3>
    2336:	c7 45 e4 00 00 00 00 	movl   $0x0,-0x1c(%ebp)
    233d:	e9 f6 fe ff ff       	jmp    2238 <isa_dev_add+0x7f8>
    2342:	c7 45 d4 fe ff ff ff 	movl   $0xfffffffe,-0x2c(%ebp)
    2349:	8b 45 d4             	mov    -0x2c(%ebp),%eax
    234c:	e9 6c f7 ff ff       	jmp    1abd <isa_dev_add+0x7d>
    2351:	50                   	push   %eax
    2352:	53                   	push   %ebx
    2353:	68 bc bb 00 00       	push   $0xbbbc
    2358:	6a 01                	push   $0x1
    235a:	89 fb                	mov    %edi,%ebx
    235c:	e8 2f 14 00 00       	call   3790 <ddf_msg>
    2361:	83 c4 10             	add    $0x10,%esp
    2364:	e9 d0 fa ff ff       	jmp    1e39 <isa_dev_add+0x3f9>
    2369:	50                   	push   %eax
    236a:	50                   	push   %eax
    236b:	68 0c ba 00 00       	push   $0xba0c
    2370:	6a 01                	push   $0x1
    2372:	e8 19 14 00 00       	call   3790 <ddf_msg>
    2377:	83 c4 10             	add    $0x10,%esp
    237a:	8b 45 d4             	mov    -0x2c(%ebp),%eax
    237d:	e9 3b f7 ff ff       	jmp    1abd <isa_dev_add+0x7d>
    2382:	8d 04 40             	lea    (%eax,%eax,2),%eax
    2385:	8d 04 c2             	lea    (%edx,%eax,8),%eax
    2388:	c7 00 04 00 00 00    	movl   $0x4,(%eax)
    238e:	89 70 04             	mov    %esi,0x4(%eax)
    2391:	83 ec 0c             	sub    $0xc,%esp
    2394:	8b 45 cc             	mov    -0x34(%ebp),%eax
    2397:	89 fb                	mov    %edi,%ebx
    2399:	8b 90 8c 00 00 00    	mov    0x8c(%eax),%edx
    239f:	8b 48 10             	mov    0x10(%eax),%ecx
    23a2:	42                   	inc    %edx
    23a3:	89 90 8c 00 00 00    	mov    %edx,0x8c(%eax)
    23a9:	51                   	push   %ecx
    23aa:	e8 91 0d 00 00       	call   3140 <ddf_fun_get_name>
    23af:	50                   	push   %eax
    23b0:	56                   	push   %esi
    23b1:	68 1a b9 00 00       	push   $0xb91a
    23b6:	6a 03                	push   $0x3
    23b8:	e8 d3 13 00 00       	call   3790 <ddf_msg>
    23bd:	83 c4 20             	add    $0x20,%esp
    23c0:	e9 74 fa ff ff       	jmp    1e39 <isa_dev_add+0x3f9>
    23c5:	53                   	push   %ebx
    23c6:	53                   	push   %ebx
    23c7:	68 d8 b9 00 00       	push   $0xb9d8
    23cc:	6a 01                	push   $0x1
    23ce:	e8 bd 13 00 00       	call   3790 <ddf_msg>
    23d3:	c7 45 d4 ff ff ff ff 	movl   $0xffffffff,-0x2c(%ebp)
    23da:	83 c4 10             	add    $0x10,%esp
    23dd:	8b 45 d4             	mov    -0x2c(%ebp),%eax
    23e0:	e9 d8 f6 ff ff       	jmp    1abd <isa_dev_add+0x7d>
    23e5:	8b 5d c0             	mov    -0x40(%ebp),%ebx
    23e8:	89 7d cc             	mov    %edi,-0x34(%ebp)
    23eb:	e9 b7 fc ff ff       	jmp    20a7 <isa_dev_add+0x667>
    23f0:	8d 04 40             	lea    (%eax,%eax,2),%eax
    23f3:	8d 04 c2             	lea    (%edx,%eax,8),%eax
    23f6:	c7 00 03 00 00 00    	movl   $0x3,(%eax)
    23fc:	eb 90                	jmp    238e <isa_dev_add+0x94e>
    23fe:	83 ec 0c             	sub    $0xc,%esp
    2401:	8b 45 c8             	mov    -0x38(%ebp),%eax
    2404:	40                   	inc    %eax
    2405:	50                   	push   %eax
    2406:	e8 55 b6 00 00       	call   da60 <malloc@plt>
    240b:	83 c4 10             	add    $0x10,%esp
    240e:	89 45 cc             	mov    %eax,-0x34(%ebp)
    2411:	85 c0                	test   %eax,%eax
    2413:	0f 84 15 01 00 00    	je     252e <isa_dev_add+0xaee>
    2419:	50                   	push   %eax
    241a:	8b 45 c8             	mov    -0x38(%ebp),%eax
    241d:	50                   	push   %eax
    241e:	8b 45 cc             	mov    -0x34(%ebp),%eax
    2421:	50                   	push   %eax
    2422:	56                   	push   %esi
    2423:	e8 f8 b7 00 00       	call   dc20 <read@plt>
    2428:	83 c4 10             	add    $0x10,%esp
    242b:	85 c0                	test   %eax,%eax
    242d:	0f 88 d4 00 00 00    	js     2507 <isa_dev_add+0xac7>
    2433:	8b 45 cc             	mov    -0x34(%ebp),%eax
    2436:	8b 4d c8             	mov    -0x38(%ebp),%ecx
    2439:	c6 04 08 00          	movb   $0x0,(%eax,%ecx,1)
    243d:	e9 a4 f7 ff ff       	jmp    1be6 <isa_dev_add+0x1a6>
    2442:	8b 45 cc             	mov    -0x34(%ebp),%eax
    2445:	83 ec 0c             	sub    $0xc,%esp
    2448:	8b 58 10             	mov    0x10(%eax),%ebx
    244b:	53                   	push   %ebx
    244c:	e8 ef 0c 00 00       	call   3140 <ddf_fun_get_name>
    2451:	83 c4 0c             	add    $0xc,%esp
    2454:	89 fb                	mov    %edi,%ebx
    2456:	50                   	push   %eax
    2457:	68 38 bb 00 00       	push   $0xbb38
    245c:	6a 01                	push   $0x1
    245e:	e8 2d 13 00 00       	call   3790 <ddf_msg>
    2463:	83 c4 10             	add    $0x10,%esp
    2466:	e9 ce f9 ff ff       	jmp    1e39 <isa_dev_add+0x3f9>
    246b:	52                   	push   %edx
    246c:	57                   	push   %edi
    246d:	68 ab b8 00 00       	push   $0xb8ab
    2472:	6a 01                	push   $0x1
    2474:	e8 17 13 00 00       	call   3790 <ddf_msg>
    2479:	83 c4 10             	add    $0x10,%esp
    247c:	e9 1f fc ff ff       	jmp    20a0 <isa_dev_add+0x660>
    2481:	bf 7d b8 00 00       	mov    $0xb87d,%edi
    2486:	e9 03 f7 ff ff       	jmp    1b8e <isa_dev_add+0x14e>
    248b:	bf 6c b8 00 00       	mov    $0xb86c,%edi
    2490:	e9 f9 f6 ff ff       	jmp    1b8e <isa_dev_add+0x14e>
    2495:	8b 45 cc             	mov    -0x34(%ebp),%eax
    2498:	83 ec 0c             	sub    $0xc,%esp
    249b:	89 fb                	mov    %edi,%ebx
    249d:	8b 70 10             	mov    0x10(%eax),%esi
    24a0:	56                   	push   %esi
    24a1:	e8 9a 0c 00 00       	call   3140 <ddf_fun_get_name>
    24a6:	83 c4 0c             	add    $0xc,%esp
    24a9:	50                   	push   %eax
    24aa:	68 0c bb 00 00       	push   $0xbb0c
    24af:	6a 01                	push   $0x1
    24b1:	e8 da 12 00 00       	call   3790 <ddf_msg>
    24b6:	83 c4 10             	add    $0x10,%esp
    24b9:	e9 7b f9 ff ff       	jmp    1e39 <isa_dev_add+0x3f9>
    24be:	83 ec 0c             	sub    $0xc,%esp
    24c1:	8b 5d c0             	mov    -0x40(%ebp),%ebx
    24c4:	57                   	push   %edi
    24c5:	e8 86 0c 00 00       	call   3150 <ddf_fun_destroy>
    24ca:	83 c4 10             	add    $0x10,%esp
    24cd:	e9 ce fb ff ff       	jmp    20a0 <isa_dev_add+0x660>
    24d2:	83 ec 0c             	sub    $0xc,%esp
    24d5:	8b 5b 1c             	mov    0x1c(%ebx),%ebx
    24d8:	53                   	push   %ebx
    24d9:	e8 72 0c 00 00       	call   3150 <ddf_fun_destroy>
    24de:	5e                   	pop    %esi
    24df:	5f                   	pop    %edi
    24e0:	68 68 ba 00 00       	push   $0xba68
    24e5:	6a 01                	push   $0x1
    24e7:	e8 a4 12 00 00       	call   3790 <ddf_msg>
    24ec:	c7 45 d4 f7 fe ff ff 	movl   $0xfffffef7,-0x2c(%ebp)
    24f3:	83 c4 10             	add    $0x10,%esp
    24f6:	8b 45 d4             	mov    -0x2c(%ebp),%eax
    24f9:	e9 bf f5 ff ff       	jmp    1abd <isa_dev_add+0x7d>
    24fe:	50                   	push   %eax
    24ff:	50                   	push   %eax
    2500:	68 44 ba 00 00       	push   $0xba44
    2505:	eb de                	jmp    24e5 <isa_dev_add+0xaa5>
    2507:	52                   	push   %edx
    2508:	57                   	push   %edi
    2509:	68 d7 b8 00 00       	push   $0xb8d7
    250e:	6a 01                	push   $0x1
    2510:	e8 7b 12 00 00       	call   3790 <ddf_msg>
    2515:	8b 7d cc             	mov    -0x34(%ebp),%edi
    2518:	59                   	pop    %ecx
    2519:	57                   	push   %edi
    251a:	e8 41 b9 00 00       	call   de60 <free@plt>
    251f:	83 c4 10             	add    $0x10,%esp
    2522:	c7 45 cc 00 00 00 00 	movl   $0x0,-0x34(%ebp)
    2529:	e9 b8 f6 ff ff       	jmp    1be6 <isa_dev_add+0x1a6>
    252e:	50                   	push   %eax
    252f:	50                   	push   %eax
    2530:	68 bd b8 00 00       	push   $0xb8bd
    2535:	6a 01                	push   $0x1
    2537:	e8 54 12 00 00       	call   3790 <ddf_msg>
    253c:	83 c4 10             	add    $0x10,%esp
    253f:	e9 a2 f6 ff ff       	jmp    1be6 <isa_dev_add+0x1a6>
    2544:	66 90                	xchg   %ax,%ax
    2546:	66 90                	xchg   %ax,%ax
    2548:	66 90                	xchg   %ax,%ax
    254a:	66 90                	xchg   %ax,%ax
    254c:	66 90                	xchg   %ax,%ax
    254e:	66 90                	xchg   %ax,%ax

00002550 <main>:
    2550:	8d 4c 24 04          	lea    0x4(%esp),%ecx
    2554:	83 e4 f0             	and    $0xfffffff0,%esp
    2557:	ff 71 fc             	pushl  -0x4(%ecx)
    255a:	55                   	push   %ebp
    255b:	89 e5                	mov    %esp,%ebp
    255d:	51                   	push   %ecx
    255e:	83 ec 10             	sub    $0x10,%esp
    2561:	68 76 b9 00 00       	push   $0xb976
    2566:	e8 15 b4 00 00       	call   d980 <printf@plt>
    256b:	c7 04 24 68 b8 00 00 	movl   $0xb868,(%esp)
    2572:	e8 09 12 00 00       	call   3780 <ddf_log_init>
    2577:	c7 04 24 a0 fe 00 00 	movl   $0xfea0,(%esp)
    257e:	e8 9d 10 00 00       	call   3620 <ddf_driver_main>
    2583:	8b 4d fc             	mov    -0x4(%ebp),%ecx
    2586:	c9                   	leave  
    2587:	8d 61 fc             	lea    -0x4(%ecx),%esp
    258a:	c3                   	ret    
    258b:	66 90                	xchg   %ax,%ax
    258d:	66 90                	xchg   %ax,%ax
    258f:	90                   	nop

00002590 <fun_del_ref>:
    2590:	55                   	push   %ebp
    2591:	83 ca ff             	or     $0xffffffff,%edx
    2594:	89 e5                	mov    %esp,%ebp
    2596:	57                   	push   %edi
    2597:	56                   	push   %esi
    2598:	53                   	push   %ebx
    2599:	83 ec 1c             	sub    $0x1c,%esp
    259c:	8b 70 0c             	mov    0xc(%eax),%esi
    259f:	f0 0f c1 50 08       	lock xadd %edx,0x8(%eax)
    25a4:	4a                   	dec    %edx
    25a5:	74 69                	je     2610 <fun_del_ref+0x80>
    25a7:	83 c8 ff             	or     $0xffffffff,%eax
    25aa:	f0 0f c1 46 04       	lock xadd %eax,0x4(%esi)
    25af:	48                   	dec    %eax
    25b0:	74 0e                	je     25c0 <fun_del_ref+0x30>
    25b2:	8d 65 f4             	lea    -0xc(%ebp),%esp
    25b5:	5b                   	pop    %ebx
    25b6:	5e                   	pop    %esi
    25b7:	5f                   	pop    %edi
    25b8:	5d                   	pop    %ebp
    25b9:	c3                   	ret    
    25ba:	8d b6 00 00 00 00    	lea    0x0(%esi),%esi
    25c0:	8b 46 08             	mov    0x8(%esi),%eax
    25c3:	85 c0                	test   %eax,%eax
    25c5:	74 0c                	je     25d3 <fun_del_ref+0x43>
    25c7:	83 ec 0c             	sub    $0xc,%esp
    25ca:	50                   	push   %eax
    25cb:	e8 c0 b3 00 00       	call   d990 <async_hangup@plt>
    25d0:	83 c4 10             	add    $0x10,%esp
    25d3:	8b 46 10             	mov    0x10(%esi),%eax
    25d6:	85 c0                	test   %eax,%eax
    25d8:	74 0c                	je     25e6 <fun_del_ref+0x56>
    25da:	83 ec 0c             	sub    $0xc,%esp
    25dd:	50                   	push   %eax
    25de:	e8 7d b8 00 00       	call   de60 <free@plt>
    25e3:	83 c4 10             	add    $0x10,%esp
    25e6:	8b 46 0c             	mov    0xc(%esi),%eax
    25e9:	85 c0                	test   %eax,%eax
    25eb:	74 0c                	je     25f9 <fun_del_ref+0x69>
    25ed:	83 ec 0c             	sub    $0xc,%esp
    25f0:	50                   	push   %eax
    25f1:	e8 6a b8 00 00       	call   de60 <free@plt>
    25f6:	83 c4 10             	add    $0x10,%esp
    25f9:	83 ec 0c             	sub    $0xc,%esp
    25fc:	56                   	push   %esi
    25fd:	e8 5e b8 00 00       	call   de60 <free@plt>
    2602:	83 c4 10             	add    $0x10,%esp
    2605:	8d 65 f4             	lea    -0xc(%ebp),%esp
    2608:	5b                   	pop    %ebx
    2609:	5e                   	pop    %esi
    260a:	5f                   	pop    %edi
    260b:	5d                   	pop    %ebp
    260c:	c3                   	ret    
    260d:	8d 76 00             	lea    0x0(%esi),%esi
    2610:	8b 58 1c             	mov    0x1c(%eax),%ebx
    2613:	89 c7                	mov    %eax,%edi
    2615:	8d 40 18             	lea    0x18(%eax),%eax
    2618:	89 45 e4             	mov    %eax,-0x1c(%ebp)
    261b:	39 d8                	cmp    %ebx,%eax
    261d:	74 49                	je     2668 <fun_del_ref+0xd8>
    261f:	90                   	nop
    2620:	8b 0b                	mov    (%ebx),%ecx
    2622:	85 c9                	test   %ecx,%ecx
    2624:	74 0e                	je     2634 <fun_del_ref+0xa4>
    2626:	8b 53 04             	mov    0x4(%ebx),%edx
    2629:	85 d2                	test   %edx,%edx
    262b:	74 07                	je     2634 <fun_del_ref+0xa4>
    262d:	89 0a                	mov    %ecx,(%edx)
    262f:	8b 0b                	mov    (%ebx),%ecx
    2631:	89 51 04             	mov    %edx,0x4(%ecx)
    2634:	8b 53 08             	mov    0x8(%ebx),%edx
    2637:	c7 03 00 00 00 00    	movl   $0x0,(%ebx)
    263d:	c7 43 04 00 00 00 00 	movl   $0x0,0x4(%ebx)
    2644:	85 d2                	test   %edx,%edx
    2646:	74 0c                	je     2654 <fun_del_ref+0xc4>
    2648:	83 ec 0c             	sub    $0xc,%esp
    264b:	52                   	push   %edx
    264c:	e8 0f b8 00 00       	call   de60 <free@plt>
    2651:	83 c4 10             	add    $0x10,%esp
    2654:	83 ec 0c             	sub    $0xc,%esp
    2657:	53                   	push   %ebx
    2658:	e8 03 b8 00 00       	call   de60 <free@plt>
    265d:	8b 5f 1c             	mov    0x1c(%edi),%ebx
    2660:	83 c4 10             	add    $0x10,%esp
    2663:	3b 5d e4             	cmp    -0x1c(%ebp),%ebx
    2666:	75 b8                	jne    2620 <fun_del_ref+0x90>
    2668:	8b 57 20             	mov    0x20(%edi),%edx
    266b:	85 d2                	test   %edx,%edx
    266d:	74 0c                	je     267b <fun_del_ref+0xeb>
    266f:	83 ec 0c             	sub    $0xc,%esp
    2672:	52                   	push   %edx
    2673:	e8 e8 b7 00 00       	call   de60 <free@plt>
    2678:	83 c4 10             	add    $0x10,%esp
    267b:	8b 57 14             	mov    0x14(%edi),%edx
    267e:	85 d2                	test   %edx,%edx
    2680:	74 0c                	je     268e <fun_del_ref+0xfe>
    2682:	83 ec 0c             	sub    $0xc,%esp
    2685:	52                   	push   %edx
    2686:	e8 d5 b7 00 00       	call   de60 <free@plt>
    268b:	83 c4 10             	add    $0x10,%esp
    268e:	83 ec 0c             	sub    $0xc,%esp
    2691:	57                   	push   %edi
    2692:	e8 c9 b7 00 00       	call   de60 <free@plt>
    2697:	83 c4 10             	add    $0x10,%esp
    269a:	e9 08 ff ff ff       	jmp    25a7 <fun_del_ref+0x17>
    269f:	90                   	nop

000026a0 <driver_connection_gen.constprop.7>:
    26a0:	55                   	push   %ebp
    26a1:	89 e5                	mov    %esp,%ebp
    26a3:	57                   	push   %edi
    26a4:	56                   	push   %esi
    26a5:	53                   	push   %ebx
    26a6:	83 ec 58             	sub    $0x58,%esp
    26a9:	89 d3                	mov    %edx,%ebx
    26ab:	8b 72 08             	mov    0x8(%edx),%esi
    26ae:	89 45 b4             	mov    %eax,-0x4c(%ebp)
    26b1:	68 1c ff 00 00       	push   $0xff1c
    26b6:	e8 c5 b7 00 00       	call   de80 <fibril_mutex_lock@plt>
    26bb:	c7 04 24 1c ff 00 00 	movl   $0xff1c,(%esp)
    26c2:	e8 29 b3 00 00       	call   d9f0 <fibril_mutex_is_locked@plt>
    26c7:	83 c4 10             	add    $0x10,%esp
    26ca:	84 c0                	test   %al,%al
    26cc:	0f 84 71 02 00 00    	je     2943 <driver_connection_gen.constprop.7+0x2a3>
    26d2:	a1 30 ff 00 00       	mov    0xff30,%eax
    26d7:	3d 2c ff 00 00       	cmp    $0xff2c,%eax
    26dc:	8d 78 d4             	lea    -0x2c(%eax),%edi
    26df:	75 18                	jne    26f9 <driver_connection_gen.constprop.7+0x59>
    26e1:	e9 22 02 00 00       	jmp    2908 <driver_connection_gen.constprop.7+0x268>
    26e6:	66 90                	xchg   %ax,%ax
    26e8:	8b 40 04             	mov    0x4(%eax),%eax
    26eb:	3d 2c ff 00 00       	cmp    $0xff2c,%eax
    26f0:	8d 78 d4             	lea    -0x2c(%eax),%edi
    26f3:	0f 84 0f 02 00 00    	je     2908 <driver_connection_gen.constprop.7+0x268>
    26f9:	3b 77 04             	cmp    0x4(%edi),%esi
    26fc:	75 ea                	jne    26e8 <driver_connection_gen.constprop.7+0x48>
    26fe:	8b 47 0c             	mov    0xc(%edi),%eax
    2701:	f0 ff 40 04          	lock incl 0x4(%eax)
    2705:	f0 ff 47 08          	lock incl 0x8(%edi)
    2709:	83 ec 0c             	sub    $0xc,%esp
    270c:	68 1c ff 00 00       	push   $0xff1c
    2711:	e8 aa b4 00 00       	call   dbc0 <fibril_mutex_unlock@plt>
    2716:	8b 47 28             	mov    0x28(%edi),%eax
    2719:	83 c4 10             	add    $0x10,%esp
    271c:	85 c0                	test   %eax,%eax
    271e:	74 20                	je     2740 <driver_connection_gen.constprop.7+0xa0>
    2720:	8b 55 b4             	mov    -0x4c(%ebp),%edx
    2723:	56                   	push   %esi
    2724:	57                   	push   %edi
    2725:	53                   	push   %ebx
    2726:	52                   	push   %edx
    2727:	ff d0                	call   *%eax
    2729:	89 f8                	mov    %edi,%eax
    272b:	e8 60 fe ff ff       	call   2590 <fun_del_ref>
    2730:	83 c4 10             	add    $0x10,%esp
    2733:	8d 65 f4             	lea    -0xc(%ebp),%esp
    2736:	5b                   	pop    %ebx
    2737:	5e                   	pop    %esi
    2738:	5f                   	pop    %edi
    2739:	5d                   	pop    %ebp
    273a:	c3                   	ret    
    273b:	90                   	nop
    273c:	8d 74 26 00          	lea    0x0(%esi,%eiz,1),%esi
    2740:	8b 47 24             	mov    0x24(%edi),%eax
    2743:	85 c0                	test   %eax,%eax
    2745:	0f 84 a5 01 00 00    	je     28f0 <driver_connection_gen.constprop.7+0x250>
    274b:	8b 00                	mov    (%eax),%eax
    274d:	85 c0                	test   %eax,%eax
    274f:	0f 84 9b 01 00 00    	je     28f0 <driver_connection_gen.constprop.7+0x250>
    2755:	83 ec 0c             	sub    $0xc,%esp
    2758:	57                   	push   %edi
    2759:	ff d0                	call   *%eax
    275b:	8b 4d b4             	mov    -0x4c(%ebp),%ecx
    275e:	89 c3                	mov    %eax,%ebx
    2760:	58                   	pop    %eax
    2761:	5a                   	pop    %edx
    2762:	53                   	push   %ebx
    2763:	51                   	push   %ecx
    2764:	e8 37 b3 00 00       	call   daa0 <async_answer_0@plt>
    2769:	83 c4 10             	add    $0x10,%esp
    276c:	85 db                	test   %ebx,%ebx
    276e:	0f 85 70 01 00 00    	jne    28e4 <driver_connection_gen.constprop.7+0x244>
    2774:	8d 74 26 00          	lea    0x0(%esi,%eiz,1),%esi
    2778:	50                   	push   %eax
    2779:	50                   	push   %eax
    277a:	8d 45 c4             	lea    -0x3c(%ebp),%eax
    277d:	6a 00                	push   $0x0
    277f:	50                   	push   %eax
    2780:	e8 8b b5 00 00       	call   dd10 <async_get_call_timeout@plt>
    2785:	8b 5d c4             	mov    -0x3c(%ebp),%ebx
    2788:	83 c4 10             	add    $0x10,%esp
    278b:	89 45 b4             	mov    %eax,-0x4c(%ebp)
    278e:	85 db                	test   %ebx,%ebx
    2790:	0f 84 e2 00 00 00    	je     2878 <driver_connection_gen.constprop.7+0x1d8>
    2796:	83 ec 0c             	sub    $0xc,%esp
    2799:	81 eb 00 04 00 00    	sub    $0x400,%ebx
    279f:	53                   	push   %ebx
    27a0:	e8 cb 0f 00 00       	call   3770 <is_valid_iface_idx>
    27a5:	83 c4 10             	add    $0x10,%esp
    27a8:	84 c0                	test   %al,%al
    27aa:	75 2c                	jne    27d8 <driver_connection_gen.constprop.7+0x138>
    27ac:	8b 47 24             	mov    0x24(%edi),%eax
    27af:	85 c0                	test   %eax,%eax
    27b1:	0f 84 91 00 00 00    	je     2848 <driver_connection_gen.constprop.7+0x1a8>
    27b7:	8b 40 44             	mov    0x44(%eax),%eax
    27ba:	85 c0                	test   %eax,%eax
    27bc:	0f 84 86 00 00 00    	je     2848 <driver_connection_gen.constprop.7+0x1a8>
    27c2:	8d 4d c4             	lea    -0x3c(%ebp),%ecx
    27c5:	52                   	push   %edx
    27c6:	51                   	push   %ecx
    27c7:	8b 4d b4             	mov    -0x4c(%ebp),%ecx
    27ca:	51                   	push   %ecx
    27cb:	57                   	push   %edi
    27cc:	ff d0                	call   *%eax
    27ce:	83 c4 10             	add    $0x10,%esp
    27d1:	eb a5                	jmp    2778 <driver_connection_gen.constprop.7+0xd8>
    27d3:	90                   	nop
    27d4:	8d 74 26 00          	lea    0x0(%esi,%eiz,1),%esi
    27d8:	83 ec 0c             	sub    $0xc,%esp
    27db:	53                   	push   %ebx
    27dc:	e8 8f 0f 00 00       	call   3770 <is_valid_iface_idx>
    27e1:	83 c4 10             	add    $0x10,%esp
    27e4:	84 c0                	test   %al,%al
    27e6:	0f 84 69 01 00 00    	je     2955 <driver_connection_gen.constprop.7+0x2b5>
    27ec:	8b 47 24             	mov    0x24(%edi),%eax
    27ef:	85 c0                	test   %eax,%eax
    27f1:	0f 84 b9 00 00 00    	je     28b0 <driver_connection_gen.constprop.7+0x210>
    27f7:	8b 44 98 08          	mov    0x8(%eax,%ebx,4),%eax
    27fb:	89 45 b0             	mov    %eax,-0x50(%ebp)
    27fe:	85 c0                	test   %eax,%eax
    2800:	0f 84 aa 00 00 00    	je     28b0 <driver_connection_gen.constprop.7+0x210>
    2806:	83 ec 0c             	sub    $0xc,%esp
    2809:	53                   	push   %ebx
    280a:	e8 11 0f 00 00       	call   3720 <get_remote_iface>
    280f:	83 c4 10             	add    $0x10,%esp
    2812:	85 c0                	test   %eax,%eax
    2814:	0f 84 50 01 00 00    	je     296a <driver_connection_gen.constprop.7+0x2ca>
    281a:	8b 4d c8             	mov    -0x38(%ebp),%ecx
    281d:	52                   	push   %edx
    281e:	52                   	push   %edx
    281f:	51                   	push   %ecx
    2820:	50                   	push   %eax
    2821:	e8 2a 0f 00 00       	call   3750 <get_remote_method>
    2826:	83 c4 10             	add    $0x10,%esp
    2829:	85 c0                	test   %eax,%eax
    282b:	0f 84 9f 00 00 00    	je     28d0 <driver_connection_gen.constprop.7+0x230>
    2831:	8d 55 c4             	lea    -0x3c(%ebp),%edx
    2834:	8b 4d b0             	mov    -0x50(%ebp),%ecx
    2837:	52                   	push   %edx
    2838:	8b 55 b4             	mov    -0x4c(%ebp),%edx
    283b:	52                   	push   %edx
    283c:	51                   	push   %ecx
    283d:	57                   	push   %edi
    283e:	ff d0                	call   *%eax
    2840:	83 c4 10             	add    $0x10,%esp
    2843:	e9 30 ff ff ff       	jmp    2778 <driver_connection_gen.constprop.7+0xd8>
    2848:	50                   	push   %eax
    2849:	a1 c4 00 01 00       	mov    0x100c4,%eax
    284e:	53                   	push   %ebx
    284f:	8b 00                	mov    (%eax),%eax
    2851:	50                   	push   %eax
    2852:	68 68 bd 00 00       	push   $0xbd68
    2857:	e8 24 b1 00 00       	call   d980 <printf@plt>
    285c:	5b                   	pop    %ebx
    285d:	58                   	pop    %eax
    285e:	8b 45 b4             	mov    -0x4c(%ebp),%eax
    2861:	6a f5                	push   $0xfffffff5
    2863:	50                   	push   %eax
    2864:	e8 37 b2 00 00       	call   daa0 <async_answer_0@plt>
    2869:	83 c4 10             	add    $0x10,%esp
    286c:	e9 07 ff ff ff       	jmp    2778 <driver_connection_gen.constprop.7+0xd8>
    2871:	8d b4 26 00 00 00 00 	lea    0x0(%esi,%eiz,1),%esi
    2878:	8b 47 24             	mov    0x24(%edi),%eax
    287b:	85 c0                	test   %eax,%eax
    287d:	74 10                	je     288f <driver_connection_gen.constprop.7+0x1ef>
    287f:	8b 40 04             	mov    0x4(%eax),%eax
    2882:	85 c0                	test   %eax,%eax
    2884:	74 09                	je     288f <driver_connection_gen.constprop.7+0x1ef>
    2886:	83 ec 0c             	sub    $0xc,%esp
    2889:	57                   	push   %edi
    288a:	ff d0                	call   *%eax
    288c:	83 c4 10             	add    $0x10,%esp
    288f:	8b 75 b4             	mov    -0x4c(%ebp),%esi
    2892:	53                   	push   %ebx
    2893:	53                   	push   %ebx
    2894:	6a 00                	push   $0x0
    2896:	56                   	push   %esi
    2897:	e8 04 b2 00 00       	call   daa0 <async_answer_0@plt>
    289c:	89 f8                	mov    %edi,%eax
    289e:	e8 ed fc ff ff       	call   2590 <fun_del_ref>
    28a3:	83 c4 10             	add    $0x10,%esp
    28a6:	8d 65 f4             	lea    -0xc(%ebp),%esp
    28a9:	5b                   	pop    %ebx
    28aa:	5e                   	pop    %esi
    28ab:	5f                   	pop    %edi
    28ac:	5d                   	pop    %ebp
    28ad:	c3                   	ret    
    28ae:	66 90                	xchg   %ax,%ax
    28b0:	50                   	push   %eax
    28b1:	50                   	push   %eax
    28b2:	a1 c4 00 01 00       	mov    0x100c4,%eax
    28b7:	8b 00                	mov    (%eax),%eax
    28b9:	50                   	push   %eax
    28ba:	68 a4 bd 00 00       	push   $0xbda4
    28bf:	e8 bc b0 00 00       	call   d980 <printf@plt>
    28c4:	83 c4 0c             	add    $0xc,%esp
    28c7:	53                   	push   %ebx
    28c8:	56                   	push   %esi
    28c9:	68 c8 bd 00 00       	push   $0xbdc8
    28ce:	eb 87                	jmp    2857 <driver_connection_gen.constprop.7+0x1b7>
    28d0:	50                   	push   %eax
    28d1:	50                   	push   %eax
    28d2:	a1 c4 00 01 00       	mov    0x100c4,%eax
    28d7:	8b 00                	mov    (%eax),%eax
    28d9:	50                   	push   %eax
    28da:	68 00 be 00 00       	push   $0xbe00
    28df:	e9 73 ff ff ff       	jmp    2857 <driver_connection_gen.constprop.7+0x1b7>
    28e4:	89 f8                	mov    %edi,%eax
    28e6:	e8 a5 fc ff ff       	call   2590 <fun_del_ref>
    28eb:	e9 43 fe ff ff       	jmp    2733 <driver_connection_gen.constprop.7+0x93>
    28f0:	8b 55 b4             	mov    -0x4c(%ebp),%edx
    28f3:	50                   	push   %eax
    28f4:	50                   	push   %eax
    28f5:	6a 00                	push   $0x0
    28f7:	52                   	push   %edx
    28f8:	e8 a3 b1 00 00       	call   daa0 <async_answer_0@plt>
    28fd:	83 c4 10             	add    $0x10,%esp
    2900:	e9 73 fe ff ff       	jmp    2778 <driver_connection_gen.constprop.7+0xd8>
    2905:	8d 76 00             	lea    0x0(%esi),%esi
    2908:	83 ec 0c             	sub    $0xc,%esp
    290b:	68 1c ff 00 00       	push   $0xff1c
    2910:	e8 ab b2 00 00       	call   dbc0 <fibril_mutex_unlock@plt>
    2915:	a1 c4 00 01 00       	mov    0x100c4,%eax
    291a:	83 c4 0c             	add    $0xc,%esp
    291d:	8b 08                	mov    (%eax),%ecx
    291f:	56                   	push   %esi
    2920:	51                   	push   %ecx
    2921:	68 3c be 00 00       	push   $0xbe3c
    2926:	e8 55 b0 00 00       	call   d980 <printf@plt>
    292b:	8b 7d b4             	mov    -0x4c(%ebp),%edi
    292e:	5b                   	pop    %ebx
    292f:	5e                   	pop    %esi
    2930:	6a ff                	push   $0xffffffff
    2932:	57                   	push   %edi
    2933:	e8 68 b1 00 00       	call   daa0 <async_answer_0@plt>
    2938:	83 c4 10             	add    $0x10,%esp
    293b:	8d 65 f4             	lea    -0xc(%ebp),%esp
    293e:	5b                   	pop    %ebx
    293f:	5e                   	pop    %esi
    2940:	5f                   	pop    %edi
    2941:	5d                   	pop    %ebp
    2942:	c3                   	ret    
    2943:	51                   	push   %ecx
    2944:	6a 6b                	push   $0x6b
    2946:	68 e3 bb 00 00       	push   $0xbbe3
    294b:	68 3c bd 00 00       	push   $0xbd3c
    2950:	e8 db b1 00 00       	call   db30 <assert_abort@plt>
    2955:	50                   	push   %eax
    2956:	68 fb 02 00 00       	push   $0x2fb
    295b:	68 e3 bb 00 00       	push   $0xbbe3
    2960:	68 f4 bb 00 00       	push   $0xbbf4
    2965:	e8 c6 b1 00 00       	call   db30 <assert_abort@plt>
    296a:	53                   	push   %ebx
    296b:	68 aa 01 00 00       	push   $0x1aa
    2970:	68 e3 bb 00 00       	push   $0xbbe3
    2975:	68 0c bc 00 00       	push   $0xbc0c
    297a:	e8 b1 b1 00 00       	call   db30 <assert_abort@plt>
    297f:	90                   	nop

00002980 <driver_connection_driver>:
    2980:	55                   	push   %ebp
    2981:	89 e5                	mov    %esp,%ebp
    2983:	8b 55 0c             	mov    0xc(%ebp),%edx
    2986:	8b 45 08             	mov    0x8(%ebp),%eax
    2989:	5d                   	pop    %ebp
    298a:	e9 11 fd ff ff       	jmp    26a0 <driver_connection_gen.constprop.7>
    298f:	90                   	nop

00002990 <driver_connection_client>:
    2990:	55                   	push   %ebp
    2991:	89 e5                	mov    %esp,%ebp
    2993:	8b 55 0c             	mov    0xc(%ebp),%edx
    2996:	8b 45 08             	mov    0x8(%ebp),%eax
    2999:	5d                   	pop    %ebp
    299a:	e9 01 fd ff ff       	jmp    26a0 <driver_connection_gen.constprop.7>
    299f:	90                   	nop

000029a0 <driver_connection_devman>:
    29a0:	55                   	push   %ebp
    29a1:	89 e5                	mov    %esp,%ebp
    29a3:	57                   	push   %edi
    29a4:	56                   	push   %esi
    29a5:	53                   	push   %ebx
    29a6:	83 ec 54             	sub    $0x54,%esp
    29a9:	8d 75 c4             	lea    -0x3c(%ebp),%esi
    29ac:	8b 45 08             	mov    0x8(%ebp),%eax
    29af:	6a 00                	push   $0x0
    29b1:	50                   	push   %eax
    29b2:	e8 e9 b0 00 00       	call   daa0 <async_answer_0@plt>
    29b7:	83 c4 10             	add    $0x10,%esp
    29ba:	8d b6 00 00 00 00    	lea    0x0(%esi),%esi
    29c0:	50                   	push   %eax
    29c1:	50                   	push   %eax
    29c2:	6a 00                	push   $0x0
    29c4:	56                   	push   %esi
    29c5:	e8 46 b3 00 00       	call   dd10 <async_get_call_timeout@plt>
    29ca:	83 c4 10             	add    $0x10,%esp
    29cd:	89 c3                	mov    %eax,%ebx
    29cf:	8b 45 c4             	mov    -0x3c(%ebp),%eax
    29d2:	85 c0                	test   %eax,%eax
    29d4:	0f 84 de 03 00 00    	je     2db8 <driver_connection_devman+0x418>
    29da:	2d 00 04 00 00       	sub    $0x400,%eax
    29df:	83 f8 04             	cmp    $0x4,%eax
    29e2:	0f 87 b8 03 00 00    	ja     2da0 <driver_connection_devman+0x400>
    29e8:	8b 7d c8             	mov    -0x38(%ebp),%edi
    29eb:	ff 24 85 ec be 00 00 	jmp    *0xbeec(,%eax,4)
    29f2:	8d b6 00 00 00 00    	lea    0x0(%esi),%esi
    29f8:	83 ec 0c             	sub    $0xc,%esp
    29fb:	68 1c ff 00 00       	push   $0xff1c
    2a00:	e8 7b b4 00 00       	call   de80 <fibril_mutex_lock@plt>
    2a05:	c7 04 24 1c ff 00 00 	movl   $0xff1c,(%esp)
    2a0c:	e8 df af 00 00       	call   d9f0 <fibril_mutex_is_locked@plt>
    2a11:	83 c4 10             	add    $0x10,%esp
    2a14:	84 c0                	test   %al,%al
    2a16:	0f 84 5a 04 00 00    	je     2e76 <driver_connection_devman+0x4d6>
    2a1c:	a1 30 ff 00 00       	mov    0xff30,%eax
    2a21:	3d 2c ff 00 00       	cmp    $0xff2c,%eax
    2a26:	8d 50 d4             	lea    -0x2c(%eax),%edx
    2a29:	75 16                	jne    2a41 <driver_connection_devman+0xa1>
    2a2b:	e9 90 03 00 00       	jmp    2dc0 <driver_connection_devman+0x420>
    2a30:	8b 40 04             	mov    0x4(%eax),%eax
    2a33:	3d 2c ff 00 00       	cmp    $0xff2c,%eax
    2a38:	8d 50 d4             	lea    -0x2c(%eax),%edx
    2a3b:	0f 84 7f 03 00 00    	je     2dc0 <driver_connection_devman+0x420>
    2a41:	3b 7a 04             	cmp    0x4(%edx),%edi
    2a44:	75 ea                	jne    2a30 <driver_connection_devman+0x90>
    2a46:	8b 42 0c             	mov    0xc(%edx),%eax
    2a49:	f0 ff 40 04          	lock incl 0x4(%eax)
    2a4d:	f0 ff 42 08          	lock incl 0x8(%edx)
    2a51:	83 ec 0c             	sub    $0xc,%esp
    2a54:	89 55 b4             	mov    %edx,-0x4c(%ebp)
    2a57:	68 1c ff 00 00       	push   $0xff1c
    2a5c:	e8 5f b1 00 00       	call   dbc0 <fibril_mutex_unlock@plt>
    2a61:	a1 c4 00 01 00       	mov    0x100c4,%eax
    2a66:	83 c4 10             	add    $0x10,%esp
    2a69:	8b 55 b4             	mov    -0x4c(%ebp),%edx
    2a6c:	8b 40 04             	mov    0x4(%eax),%eax
    2a6f:	8b 40 0c             	mov    0xc(%eax),%eax
    2a72:	85 c0                	test   %eax,%eax
    2a74:	0f 84 76 03 00 00    	je     2df0 <driver_connection_devman+0x450>
    2a7a:	83 ec 0c             	sub    $0xc,%esp
    2a7d:	52                   	push   %edx
    2a7e:	ff d0                	call   *%eax
    2a80:	83 c4 10             	add    $0x10,%esp
    2a83:	89 c7                	mov    %eax,%edi
    2a85:	8b 55 b4             	mov    -0x4c(%ebp),%edx
    2a88:	89 d0                	mov    %edx,%eax
    2a8a:	e8 01 fb ff ff       	call   2590 <fun_del_ref>
    2a8f:	51                   	push   %ecx
    2a90:	51                   	push   %ecx
    2a91:	57                   	push   %edi
    2a92:	53                   	push   %ebx
    2a93:	e8 08 b0 00 00       	call   daa0 <async_answer_0@plt>
    2a98:	83 c4 10             	add    $0x10,%esp
    2a9b:	e9 20 ff ff ff       	jmp    29c0 <driver_connection_devman+0x20>
    2aa0:	83 ec 0c             	sub    $0xc,%esp
    2aa3:	68 34 ff 00 00       	push   $0xff34
    2aa8:	e8 d3 b3 00 00       	call   de80 <fibril_mutex_lock@plt>
    2aad:	c7 04 24 34 ff 00 00 	movl   $0xff34,(%esp)
    2ab4:	e8 37 af 00 00       	call   d9f0 <fibril_mutex_is_locked@plt>
    2ab9:	83 c4 10             	add    $0x10,%esp
    2abc:	84 c0                	test   %al,%al
    2abe:	0f 84 a0 03 00 00    	je     2e64 <driver_connection_devman+0x4c4>
    2ac4:	a1 48 ff 00 00       	mov    0xff48,%eax
    2ac9:	3d 44 ff 00 00       	cmp    $0xff44,%eax
    2ace:	8d 50 ec             	lea    -0x14(%eax),%edx
    2ad1:	75 16                	jne    2ae9 <driver_connection_devman+0x149>
    2ad3:	e9 08 03 00 00       	jmp    2de0 <driver_connection_devman+0x440>
    2ad8:	8b 40 04             	mov    0x4(%eax),%eax
    2adb:	3d 44 ff 00 00       	cmp    $0xff44,%eax
    2ae0:	8d 50 ec             	lea    -0x14(%eax),%edx
    2ae3:	0f 84 f7 02 00 00    	je     2de0 <driver_connection_devman+0x440>
    2ae9:	3b 78 ec             	cmp    -0x14(%eax),%edi
    2aec:	75 ea                	jne    2ad8 <driver_connection_devman+0x138>
    2aee:	8d 7a 04             	lea    0x4(%edx),%edi
    2af1:	f0 ff 42 04          	lock incl 0x4(%edx)
    2af5:	83 ec 0c             	sub    $0xc,%esp
    2af8:	89 55 b4             	mov    %edx,-0x4c(%ebp)
    2afb:	68 34 ff 00 00       	push   $0xff34
    2b00:	e8 bb b0 00 00       	call   dbc0 <fibril_mutex_unlock@plt>
    2b05:	a1 c4 00 01 00       	mov    0x100c4,%eax
    2b0a:	83 c4 10             	add    $0x10,%esp
    2b0d:	8b 40 04             	mov    0x4(%eax),%eax
    2b10:	8b 40 08             	mov    0x8(%eax),%eax
    2b13:	85 c0                	test   %eax,%eax
    2b15:	0f 85 88 00 00 00    	jne    2ba3 <driver_connection_devman+0x203>
    2b1b:	b8 f5 ff ff ff       	mov    $0xfffffff5,%eax
    2b20:	e9 63 02 00 00       	jmp    2d88 <driver_connection_devman+0x3e8>
    2b25:	8d 76 00             	lea    0x0(%esi),%esi
    2b28:	83 ec 0c             	sub    $0xc,%esp
    2b2b:	68 34 ff 00 00       	push   $0xff34
    2b30:	e8 4b b3 00 00       	call   de80 <fibril_mutex_lock@plt>
    2b35:	c7 04 24 34 ff 00 00 	movl   $0xff34,(%esp)
    2b3c:	e8 af ae 00 00       	call   d9f0 <fibril_mutex_is_locked@plt>
    2b41:	83 c4 10             	add    $0x10,%esp
    2b44:	84 c0                	test   %al,%al
    2b46:	0f 84 18 03 00 00    	je     2e64 <driver_connection_devman+0x4c4>
    2b4c:	a1 48 ff 00 00       	mov    0xff48,%eax
    2b51:	3d 44 ff 00 00       	cmp    $0xff44,%eax
    2b56:	8d 50 ec             	lea    -0x14(%eax),%edx
    2b59:	75 16                	jne    2b71 <driver_connection_devman+0x1d1>
    2b5b:	e9 80 02 00 00       	jmp    2de0 <driver_connection_devman+0x440>
    2b60:	8b 40 04             	mov    0x4(%eax),%eax
    2b63:	3d 44 ff 00 00       	cmp    $0xff44,%eax
    2b68:	8d 50 ec             	lea    -0x14(%eax),%edx
    2b6b:	0f 84 6f 02 00 00    	je     2de0 <driver_connection_devman+0x440>
    2b71:	3b 78 ec             	cmp    -0x14(%eax),%edi
    2b74:	75 ea                	jne    2b60 <driver_connection_devman+0x1c0>
    2b76:	8d 7a 04             	lea    0x4(%edx),%edi
    2b79:	f0 ff 42 04          	lock incl 0x4(%edx)
    2b7d:	83 ec 0c             	sub    $0xc,%esp
    2b80:	89 55 b4             	mov    %edx,-0x4c(%ebp)
    2b83:	68 34 ff 00 00       	push   $0xff34
    2b88:	e8 33 b0 00 00       	call   dbc0 <fibril_mutex_unlock@plt>
    2b8d:	a1 c4 00 01 00       	mov    0x100c4,%eax
    2b92:	83 c4 10             	add    $0x10,%esp
    2b95:	8b 40 04             	mov    0x4(%eax),%eax
    2b98:	8b 40 04             	mov    0x4(%eax),%eax
    2b9b:	85 c0                	test   %eax,%eax
    2b9d:	0f 84 78 ff ff ff    	je     2b1b <driver_connection_devman+0x17b>
    2ba3:	83 ec 0c             	sub    $0xc,%esp
    2ba6:	8b 55 b4             	mov    -0x4c(%ebp),%edx
    2ba9:	52                   	push   %edx
    2baa:	ff d0                	call   *%eax
    2bac:	83 c4 10             	add    $0x10,%esp
    2baf:	8b 55 b4             	mov    -0x4c(%ebp),%edx
    2bb2:	85 c0                	test   %eax,%eax
    2bb4:	0f 85 ce 01 00 00    	jne    2d88 <driver_connection_devman+0x3e8>
    2bba:	83 c9 ff             	or     $0xffffffff,%ecx
    2bbd:	f0 0f c1 0f          	lock xadd %ecx,(%edi)
    2bc1:	49                   	dec    %ecx
    2bc2:	0f 85 c0 01 00 00    	jne    2d88 <driver_connection_devman+0x3e8>
    2bc8:	8b 42 08             	mov    0x8(%edx),%eax
    2bcb:	85 c0                	test   %eax,%eax
    2bcd:	74 0f                	je     2bde <driver_connection_devman+0x23e>
    2bcf:	83 ec 0c             	sub    $0xc,%esp
    2bd2:	50                   	push   %eax
    2bd3:	e8 b8 ad 00 00       	call   d990 <async_hangup@plt>
    2bd8:	83 c4 10             	add    $0x10,%esp
    2bdb:	8b 55 b4             	mov    -0x4c(%ebp),%edx
    2bde:	8b 42 10             	mov    0x10(%edx),%eax
    2be1:	85 c0                	test   %eax,%eax
    2be3:	74 12                	je     2bf7 <driver_connection_devman+0x257>
    2be5:	83 ec 0c             	sub    $0xc,%esp
    2be8:	89 55 b4             	mov    %edx,-0x4c(%ebp)
    2beb:	50                   	push   %eax
    2bec:	e8 6f b2 00 00       	call   de60 <free@plt>
    2bf1:	83 c4 10             	add    $0x10,%esp
    2bf4:	8b 55 b4             	mov    -0x4c(%ebp),%edx
    2bf7:	8b 42 0c             	mov    0xc(%edx),%eax
    2bfa:	85 c0                	test   %eax,%eax
    2bfc:	74 12                	je     2c10 <driver_connection_devman+0x270>
    2bfe:	83 ec 0c             	sub    $0xc,%esp
    2c01:	89 55 b4             	mov    %edx,-0x4c(%ebp)
    2c04:	50                   	push   %eax
    2c05:	e8 56 b2 00 00       	call   de60 <free@plt>
    2c0a:	83 c4 10             	add    $0x10,%esp
    2c0d:	8b 55 b4             	mov    -0x4c(%ebp),%edx
    2c10:	83 ec 0c             	sub    $0xc,%esp
    2c13:	52                   	push   %edx
    2c14:	e8 47 b2 00 00       	call   de60 <free@plt>
    2c19:	83 c4 10             	add    $0x10,%esp
    2c1c:	31 c0                	xor    %eax,%eax
    2c1e:	e9 65 01 00 00       	jmp    2d88 <driver_connection_devman+0x3e8>
    2c23:	90                   	nop
    2c24:	8d 74 26 00          	lea    0x0(%esi,%eiz,1),%esi
    2c28:	50                   	push   %eax
    2c29:	50                   	push   %eax
    2c2a:	8d 45 c0             	lea    -0x40(%ebp),%eax
    2c2d:	6a 00                	push   $0x0
    2c2f:	c7 45 c0 00 00 00 00 	movl   $0x0,-0x40(%ebp)
    2c36:	6a 00                	push   $0x0
    2c38:	6a 00                	push   $0x0
    2c3a:	6a 00                	push   $0x0
    2c3c:	6a 01                	push   $0x1
    2c3e:	50                   	push   %eax
    2c3f:	e8 8c b1 00 00       	call   ddd0 <async_data_write_accept@plt>
    2c44:	83 c4 20             	add    $0x20,%esp
    2c47:	85 c0                	test   %eax,%eax
    2c49:	0f 85 39 01 00 00    	jne    2d88 <driver_connection_devman+0x3e8>
    2c4f:	50                   	push   %eax
    2c50:	50                   	push   %eax
    2c51:	6a 1c                	push   $0x1c
    2c53:	6a 01                	push   $0x1
    2c55:	e8 f6 ae 00 00       	call   db50 <calloc@plt>
    2c5a:	83 c4 10             	add    $0x10,%esp
    2c5d:	89 c2                	mov    %eax,%edx
    2c5f:	85 c0                	test   %eax,%eax
    2c61:	0f 84 df 01 00 00    	je     2e46 <driver_connection_devman+0x4a6>
    2c67:	f0 ff 40 04          	lock incl 0x4(%eax)
    2c6b:	89 38                	mov    %edi,(%eax)
    2c6d:	8b 45 c0             	mov    -0x40(%ebp),%eax
    2c70:	89 42 0c             	mov    %eax,0xc(%edx)
    2c73:	a1 c4 00 01 00       	mov    0x100c4,%eax
    2c78:	83 ec 0c             	sub    $0xc,%esp
    2c7b:	89 55 b4             	mov    %edx,-0x4c(%ebp)
    2c7e:	8b 40 04             	mov    0x4(%eax),%eax
    2c81:	52                   	push   %edx
    2c82:	ff 10                	call   *(%eax)
    2c84:	83 c4 10             	add    $0x10,%esp
    2c87:	89 c7                	mov    %eax,%edi
    2c89:	85 c0                	test   %eax,%eax
    2c8b:	8b 55 b4             	mov    -0x4c(%ebp),%edx
    2c8e:	0f 84 66 01 00 00    	je     2dfa <driver_connection_devman+0x45a>
    2c94:	83 c8 ff             	or     $0xffffffff,%eax
    2c97:	f0 0f c1 42 04       	lock xadd %eax,0x4(%edx)
    2c9c:	48                   	dec    %eax
    2c9d:	0f 85 ec fd ff ff    	jne    2a8f <driver_connection_devman+0xef>
    2ca3:	8b 42 08             	mov    0x8(%edx),%eax
    2ca6:	85 c0                	test   %eax,%eax
    2ca8:	74 12                	je     2cbc <driver_connection_devman+0x31c>
    2caa:	83 ec 0c             	sub    $0xc,%esp
    2cad:	89 55 b4             	mov    %edx,-0x4c(%ebp)
    2cb0:	50                   	push   %eax
    2cb1:	e8 da ac 00 00       	call   d990 <async_hangup@plt>
    2cb6:	83 c4 10             	add    $0x10,%esp
    2cb9:	8b 55 b4             	mov    -0x4c(%ebp),%edx
    2cbc:	8b 42 10             	mov    0x10(%edx),%eax
    2cbf:	85 c0                	test   %eax,%eax
    2cc1:	74 12                	je     2cd5 <driver_connection_devman+0x335>
    2cc3:	83 ec 0c             	sub    $0xc,%esp
    2cc6:	89 55 b4             	mov    %edx,-0x4c(%ebp)
    2cc9:	50                   	push   %eax
    2cca:	e8 91 b1 00 00       	call   de60 <free@plt>
    2ccf:	83 c4 10             	add    $0x10,%esp
    2cd2:	8b 55 b4             	mov    -0x4c(%ebp),%edx
    2cd5:	8b 42 0c             	mov    0xc(%edx),%eax
    2cd8:	85 c0                	test   %eax,%eax
    2cda:	74 12                	je     2cee <driver_connection_devman+0x34e>
    2cdc:	83 ec 0c             	sub    $0xc,%esp
    2cdf:	89 55 b4             	mov    %edx,-0x4c(%ebp)
    2ce2:	50                   	push   %eax
    2ce3:	e8 78 b1 00 00       	call   de60 <free@plt>
    2ce8:	83 c4 10             	add    $0x10,%esp
    2ceb:	8b 55 b4             	mov    -0x4c(%ebp),%edx
    2cee:	83 ec 0c             	sub    $0xc,%esp
    2cf1:	52                   	push   %edx
    2cf2:	e8 69 b1 00 00       	call   de60 <free@plt>
    2cf7:	83 c4 10             	add    $0x10,%esp
    2cfa:	e9 90 fd ff ff       	jmp    2a8f <driver_connection_devman+0xef>
    2cff:	90                   	nop
    2d00:	83 ec 0c             	sub    $0xc,%esp
    2d03:	68 1c ff 00 00       	push   $0xff1c
    2d08:	e8 73 b1 00 00       	call   de80 <fibril_mutex_lock@plt>
    2d0d:	c7 04 24 1c ff 00 00 	movl   $0xff1c,(%esp)
    2d14:	e8 d7 ac 00 00       	call   d9f0 <fibril_mutex_is_locked@plt>
    2d19:	83 c4 10             	add    $0x10,%esp
    2d1c:	84 c0                	test   %al,%al
    2d1e:	0f 84 52 01 00 00    	je     2e76 <driver_connection_devman+0x4d6>
    2d24:	a1 30 ff 00 00       	mov    0xff30,%eax
    2d29:	3d 2c ff 00 00       	cmp    $0xff2c,%eax
    2d2e:	8d 50 d4             	lea    -0x2c(%eax),%edx
    2d31:	75 12                	jne    2d45 <driver_connection_devman+0x3a5>
    2d33:	e9 88 00 00 00       	jmp    2dc0 <driver_connection_devman+0x420>
    2d38:	8b 40 04             	mov    0x4(%eax),%eax
    2d3b:	3d 2c ff 00 00       	cmp    $0xff2c,%eax
    2d40:	8d 50 d4             	lea    -0x2c(%eax),%edx
    2d43:	74 7b                	je     2dc0 <driver_connection_devman+0x420>
    2d45:	3b 7a 04             	cmp    0x4(%edx),%edi
    2d48:	75 ee                	jne    2d38 <driver_connection_devman+0x398>
    2d4a:	8b 42 0c             	mov    0xc(%edx),%eax
    2d4d:	f0 ff 40 04          	lock incl 0x4(%eax)
    2d51:	f0 ff 42 08          	lock incl 0x8(%edx)
    2d55:	83 ec 0c             	sub    $0xc,%esp
    2d58:	89 55 b4             	mov    %edx,-0x4c(%ebp)
    2d5b:	68 1c ff 00 00       	push   $0xff1c
    2d60:	e8 5b ae 00 00       	call   dbc0 <fibril_mutex_unlock@plt>
    2d65:	a1 c4 00 01 00       	mov    0x100c4,%eax
    2d6a:	83 c4 10             	add    $0x10,%esp
    2d6d:	8b 40 04             	mov    0x4(%eax),%eax
    2d70:	8b 40 10             	mov    0x10(%eax),%eax
    2d73:	85 c0                	test   %eax,%eax
    2d75:	0f 84 a0 fd ff ff    	je     2b1b <driver_connection_devman+0x17b>
    2d7b:	83 ec 0c             	sub    $0xc,%esp
    2d7e:	8b 55 b4             	mov    -0x4c(%ebp),%edx
    2d81:	52                   	push   %edx
    2d82:	ff d0                	call   *%eax
    2d84:	83 c4 10             	add    $0x10,%esp
    2d87:	90                   	nop
    2d88:	52                   	push   %edx
    2d89:	52                   	push   %edx
    2d8a:	50                   	push   %eax
    2d8b:	53                   	push   %ebx
    2d8c:	e8 0f ad 00 00       	call   daa0 <async_answer_0@plt>
    2d91:	83 c4 10             	add    $0x10,%esp
    2d94:	e9 27 fc ff ff       	jmp    29c0 <driver_connection_devman+0x20>
    2d99:	8d b4 26 00 00 00 00 	lea    0x0(%esi,%eiz,1),%esi
    2da0:	50                   	push   %eax
    2da1:	50                   	push   %eax
    2da2:	6a f5                	push   $0xfffffff5
    2da4:	53                   	push   %ebx
    2da5:	e8 f6 ac 00 00       	call   daa0 <async_answer_0@plt>
    2daa:	83 c4 10             	add    $0x10,%esp
    2dad:	e9 0e fc ff ff       	jmp    29c0 <driver_connection_devman+0x20>
    2db2:	8d b6 00 00 00 00    	lea    0x0(%esi),%esi
    2db8:	8d 65 f4             	lea    -0xc(%ebp),%esp
    2dbb:	5b                   	pop    %ebx
    2dbc:	5e                   	pop    %esi
    2dbd:	5f                   	pop    %edi
    2dbe:	5d                   	pop    %ebp
    2dbf:	c3                   	ret    
    2dc0:	83 ec 0c             	sub    $0xc,%esp
    2dc3:	68 1c ff 00 00       	push   $0xff1c
    2dc8:	e8 f3 ad 00 00       	call   dbc0 <fibril_mutex_unlock@plt>
    2dcd:	58                   	pop    %eax
    2dce:	5a                   	pop    %edx
    2dcf:	6a ff                	push   $0xffffffff
    2dd1:	53                   	push   %ebx
    2dd2:	e8 c9 ac 00 00       	call   daa0 <async_answer_0@plt>
    2dd7:	83 c4 10             	add    $0x10,%esp
    2dda:	e9 e1 fb ff ff       	jmp    29c0 <driver_connection_devman+0x20>
    2ddf:	90                   	nop
    2de0:	83 ec 0c             	sub    $0xc,%esp
    2de3:	68 34 ff 00 00       	push   $0xff34
    2de8:	eb de                	jmp    2dc8 <driver_connection_devman+0x428>
    2dea:	8d b6 00 00 00 00    	lea    0x0(%esi),%esi
    2df0:	bf f5 ff ff ff       	mov    $0xfffffff5,%edi
    2df5:	e9 8e fc ff ff       	jmp    2a88 <driver_connection_devman+0xe8>
    2dfa:	83 ec 0c             	sub    $0xc,%esp
    2dfd:	89 55 b4             	mov    %edx,-0x4c(%ebp)
    2e00:	68 34 ff 00 00       	push   $0xff34
    2e05:	e8 76 b0 00 00       	call   de80 <fibril_mutex_lock@plt>
    2e0a:	8b 55 b4             	mov    -0x4c(%ebp),%edx
    2e0d:	8b 0d 44 ff 00 00    	mov    0xff44,%ecx
    2e13:	8d 42 14             	lea    0x14(%edx),%eax
    2e16:	c7 42 18 44 ff 00 00 	movl   $0xff44,0x18(%edx)
    2e1d:	89 4a 14             	mov    %ecx,0x14(%edx)
    2e20:	89 41 04             	mov    %eax,0x4(%ecx)
    2e23:	a3 44 ff 00 00       	mov    %eax,0xff44
    2e28:	c7 04 24 34 ff 00 00 	movl   $0xff34,(%esp)
    2e2f:	e8 8c ad 00 00       	call   dbc0 <fibril_mutex_unlock@plt>
    2e34:	5f                   	pop    %edi
    2e35:	58                   	pop    %eax
    2e36:	6a 00                	push   $0x0
    2e38:	53                   	push   %ebx
    2e39:	e8 62 ac 00 00       	call   daa0 <async_answer_0@plt>
    2e3e:	83 c4 10             	add    $0x10,%esp
    2e41:	e9 7a fb ff ff       	jmp    29c0 <driver_connection_devman+0x20>
    2e46:	83 ec 0c             	sub    $0xc,%esp
    2e49:	8b 4d c0             	mov    -0x40(%ebp),%ecx
    2e4c:	51                   	push   %ecx
    2e4d:	e8 0e b0 00 00       	call   de60 <free@plt>
    2e52:	5f                   	pop    %edi
    2e53:	58                   	pop    %eax
    2e54:	6a fe                	push   $0xfffffffe
    2e56:	53                   	push   %ebx
    2e57:	e8 44 ac 00 00       	call   daa0 <async_answer_0@plt>
    2e5c:	83 c4 10             	add    $0x10,%esp
    2e5f:	e9 5c fb ff ff       	jmp    29c0 <driver_connection_devman+0x20>
    2e64:	56                   	push   %esi
    2e65:	6a 5f                	push   $0x5f
    2e67:	68 e3 bb 00 00       	push   $0xbbe3
    2e6c:	68 88 be 00 00       	push   $0xbe88
    2e71:	e8 ba ac 00 00       	call   db30 <assert_abort@plt>
    2e76:	53                   	push   %ebx
    2e77:	6a 6b                	push   $0x6b
    2e79:	68 e3 bb 00 00       	push   $0xbbe3
    2e7e:	68 3c bd 00 00       	push   $0xbd3c
    2e83:	e8 a8 ac 00 00       	call   db30 <assert_abort@plt>
    2e88:	90                   	nop
    2e89:	8d b4 26 00 00 00 00 	lea    0x0(%esi,%eiz,1),%esi

00002e90 <ddf_dev_data_alloc>:
    2e90:	55                   	push   %ebp
    2e91:	89 e5                	mov    %esp,%ebp
    2e93:	53                   	push   %ebx
    2e94:	53                   	push   %ebx
    2e95:	8b 5d 08             	mov    0x8(%ebp),%ebx
    2e98:	8b 43 10             	mov    0x10(%ebx),%eax
    2e9b:	85 c0                	test   %eax,%eax
    2e9d:	75 1c                	jne    2ebb <ddf_dev_data_alloc+0x2b>
    2e9f:	8b 55 0c             	mov    0xc(%ebp),%edx
    2ea2:	50                   	push   %eax
    2ea3:	50                   	push   %eax
    2ea4:	52                   	push   %edx
    2ea5:	6a 01                	push   $0x1
    2ea7:	e8 a4 ac 00 00       	call   db50 <calloc@plt>
    2eac:	83 c4 10             	add    $0x10,%esp
    2eaf:	85 c0                	test   %eax,%eax
    2eb1:	74 03                	je     2eb6 <ddf_dev_data_alloc+0x26>
    2eb3:	89 43 10             	mov    %eax,0x10(%ebx)
    2eb6:	8b 5d fc             	mov    -0x4(%ebp),%ebx
    2eb9:	c9                   	leave  
    2eba:	c3                   	ret    
    2ebb:	51                   	push   %ecx
    2ebc:	68 39 02 00 00       	push   $0x239
    2ec1:	68 e3 bb 00 00       	push   $0xbbe3
    2ec6:	68 1e bc 00 00       	push   $0xbc1e
    2ecb:	e8 60 ac 00 00       	call   db30 <assert_abort@plt>

00002ed0 <ddf_dev_data_get>:
    2ed0:	55                   	push   %ebp
    2ed1:	89 e5                	mov    %esp,%ebp
    2ed3:	8b 45 08             	mov    0x8(%ebp),%eax
    2ed6:	5d                   	pop    %ebp
    2ed7:	8b 40 10             	mov    0x10(%eax),%eax
    2eda:	c3                   	ret    
    2edb:	90                   	nop
    2edc:	8d 74 26 00          	lea    0x0(%esi,%eiz,1),%esi

00002ee0 <ddf_dev_get_handle>:
    2ee0:	55                   	push   %ebp
    2ee1:	89 e5                	mov    %esp,%ebp
    2ee3:	8b 45 08             	mov    0x8(%ebp),%eax
    2ee6:	5d                   	pop    %ebp
    2ee7:	8b 00                	mov    (%eax),%eax
    2ee9:	c3                   	ret    
    2eea:	8d b6 00 00 00 00    	lea    0x0(%esi),%esi

00002ef0 <ddf_dev_get_name>:
    2ef0:	55                   	push   %ebp
    2ef1:	89 e5                	mov    %esp,%ebp
    2ef3:	8b 45 08             	mov    0x8(%ebp),%eax
    2ef6:	5d                   	pop    %ebp
    2ef7:	8b 40 0c             	mov    0xc(%eax),%eax
    2efa:	c3                   	ret    
    2efb:	90                   	nop
    2efc:	8d 74 26 00          	lea    0x0(%esi,%eiz,1),%esi

00002f00 <ddf_dev_parent_sess_create>:
    2f00:	55                   	push   %ebp
    2f01:	89 e5                	mov    %esp,%ebp
    2f03:	53                   	push   %ebx
    2f04:	53                   	push   %ebx
    2f05:	8b 5d 08             	mov    0x8(%ebp),%ebx
    2f08:	8b 43 08             	mov    0x8(%ebx),%eax
    2f0b:	85 c0                	test   %eax,%eax
    2f0d:	75 14                	jne    2f23 <ddf_dev_parent_sess_create+0x23>
    2f0f:	50                   	push   %eax
    2f10:	50                   	push   %eax
    2f11:	6a 01                	push   $0x1
    2f13:	8b 13                	mov    (%ebx),%edx
    2f15:	52                   	push   %edx
    2f16:	e8 a5 aa 00 00       	call   d9c0 <devman_parent_device_connect@plt>
    2f1b:	89 43 08             	mov    %eax,0x8(%ebx)
    2f1e:	8b 5d fc             	mov    -0x4(%ebp),%ebx
    2f21:	c9                   	leave  
    2f22:	c3                   	ret    
    2f23:	51                   	push   %ecx
    2f24:	68 64 02 00 00       	push   $0x264
    2f29:	68 e3 bb 00 00       	push   $0xbbe3
    2f2e:	68 37 bc 00 00       	push   $0xbc37
    2f33:	e8 f8 ab 00 00       	call   db30 <assert_abort@plt>
    2f38:	90                   	nop
    2f39:	8d b4 26 00 00 00 00 	lea    0x0(%esi,%eiz,1),%esi

00002f40 <ddf_dev_parent_sess_get>:
    2f40:	55                   	push   %ebp
    2f41:	89 e5                	mov    %esp,%ebp
    2f43:	8b 45 08             	mov    0x8(%ebp),%eax
    2f46:	5d                   	pop    %ebp
    2f47:	8b 40 08             	mov    0x8(%eax),%eax
    2f4a:	c3                   	ret    
    2f4b:	90                   	nop
    2f4c:	8d 74 26 00          	lea    0x0(%esi,%eiz,1),%esi

00002f50 <ddf_fun_set_name>:
    2f50:	55                   	push   %ebp
    2f51:	89 e5                	mov    %esp,%ebp
    2f53:	53                   	push   %ebx
    2f54:	51                   	push   %ecx
    2f55:	8b 5d 08             	mov    0x8(%ebp),%ebx
    2f58:	8b 43 14             	mov    0x14(%ebx),%eax
    2f5b:	85 c0                	test   %eax,%eax
    2f5d:	75 23                	jne    2f82 <ddf_fun_set_name+0x32>
    2f5f:	83 ec 0c             	sub    $0xc,%esp
    2f62:	8b 45 0c             	mov    0xc(%ebp),%eax
    2f65:	50                   	push   %eax
    2f66:	e8 75 ac 00 00       	call   dbe0 <str_dup@plt>
    2f6b:	83 c4 10             	add    $0x10,%esp
    2f6e:	89 43 14             	mov    %eax,0x14(%ebx)
    2f71:	85 c0                	test   %eax,%eax
    2f73:	8b 5d fc             	mov    -0x4(%ebp),%ebx
    2f76:	0f 94 c0             	sete   %al
    2f79:	25 ff 00 00 00       	and    $0xff,%eax
    2f7e:	c9                   	leave  
    2f7f:	f7 d8                	neg    %eax
    2f81:	c3                   	ret    
    2f82:	52                   	push   %edx
    2f83:	68 7d 02 00 00       	push   $0x27d
    2f88:	68 e3 bb 00 00       	push   $0xbbe3
    2f8d:	68 50 bc 00 00       	push   $0xbc50
    2f92:	e8 99 ab 00 00       	call   db30 <assert_abort@plt>
    2f97:	89 f6                	mov    %esi,%esi
    2f99:	8d bc 27 00 00 00 00 	lea    0x0(%edi,%eiz,1),%edi

00002fa0 <ddf_fun_get_dev>:
    2fa0:	55                   	push   %ebp
    2fa1:	89 e5                	mov    %esp,%ebp
    2fa3:	8b 45 08             	mov    0x8(%ebp),%eax
    2fa6:	5d                   	pop    %ebp
    2fa7:	8b 40 0c             	mov    0xc(%eax),%eax
    2faa:	c3                   	ret    
    2fab:	90                   	nop
    2fac:	8d 74 26 00          	lea    0x0(%esi,%eiz,1),%esi

00002fb0 <ddf_fun_get_handle>:
    2fb0:	55                   	push   %ebp
    2fb1:	89 e5                	mov    %esp,%ebp
    2fb3:	8b 45 08             	mov    0x8(%ebp),%eax
    2fb6:	5d                   	pop    %ebp
    2fb7:	8b 40 04             	mov    0x4(%eax),%eax
    2fba:	c3                   	ret    
    2fbb:	90                   	nop
    2fbc:	8d 74 26 00          	lea    0x0(%esi,%eiz,1),%esi

00002fc0 <ddf_fun_create>:
    2fc0:	55                   	push   %ebp
    2fc1:	89 e5                	mov    %esp,%ebp
    2fc3:	57                   	push   %edi
    2fc4:	56                   	push   %esi
    2fc5:	53                   	push   %ebx
    2fc6:	83 ec 14             	sub    $0x14,%esp
    2fc9:	8b 75 08             	mov    0x8(%ebp),%esi
    2fcc:	6a 34                	push   $0x34
    2fce:	6a 01                	push   $0x1
    2fd0:	e8 7b ab 00 00       	call   db50 <calloc@plt>
    2fd5:	83 c4 10             	add    $0x10,%esp
    2fd8:	89 c3                	mov    %eax,%ebx
    2fda:	85 c0                	test   %eax,%eax
    2fdc:	74 48                	je     3026 <ddf_fun_create+0x66>
    2fde:	8d 78 18             	lea    0x18(%eax),%edi
    2fe1:	c7 40 2c 00 00 00 00 	movl   $0x0,0x2c(%eax)
    2fe8:	89 78 18             	mov    %edi,0x18(%eax)
    2feb:	89 78 1c             	mov    %edi,0x1c(%eax)
    2fee:	c7 40 30 00 00 00 00 	movl   $0x0,0x30(%eax)
    2ff5:	89 70 0c             	mov    %esi,0xc(%eax)
    2ff8:	f0 ff 46 04          	lock incl 0x4(%esi)
    2ffc:	f0 ff 40 08          	lock incl 0x8(%eax)
    3000:	c6 00 00             	movb   $0x0,(%eax)
    3003:	8b 55 10             	mov    0x10(%ebp),%edx
    3006:	8b 45 0c             	mov    0xc(%ebp),%eax
    3009:	85 d2                	test   %edx,%edx
    300b:	89 43 10             	mov    %eax,0x10(%ebx)
    300e:	74 16                	je     3026 <ddf_fun_create+0x66>
    3010:	83 ec 0c             	sub    $0xc,%esp
    3013:	8b 45 10             	mov    0x10(%ebp),%eax
    3016:	50                   	push   %eax
    3017:	e8 c4 ab 00 00       	call   dbe0 <str_dup@plt>
    301c:	83 c4 10             	add    $0x10,%esp
    301f:	89 43 14             	mov    %eax,0x14(%ebx)
    3022:	85 c0                	test   %eax,%eax
    3024:	74 0a                	je     3030 <ddf_fun_create+0x70>
    3026:	8d 65 f4             	lea    -0xc(%ebp),%esp
    3029:	89 d8                	mov    %ebx,%eax
    302b:	5b                   	pop    %ebx
    302c:	5e                   	pop    %esi
    302d:	5f                   	pop    %edi
    302e:	5d                   	pop    %ebp
    302f:	c3                   	ret    
    3030:	8b 73 1c             	mov    0x1c(%ebx),%esi
    3033:	39 f7                	cmp    %esi,%edi
    3035:	0f 84 85 00 00 00    	je     30c0 <ddf_fun_create+0x100>
    303b:	90                   	nop
    303c:	8d 74 26 00          	lea    0x0(%esi,%eiz,1),%esi
    3040:	8b 0e                	mov    (%esi),%ecx
    3042:	85 c9                	test   %ecx,%ecx
    3044:	74 0e                	je     3054 <ddf_fun_create+0x94>
    3046:	8b 46 04             	mov    0x4(%esi),%eax
    3049:	85 c0                	test   %eax,%eax
    304b:	74 07                	je     3054 <ddf_fun_create+0x94>
    304d:	89 08                	mov    %ecx,(%eax)
    304f:	8b 0e                	mov    (%esi),%ecx
    3051:	89 41 04             	mov    %eax,0x4(%ecx)
    3054:	8b 46 08             	mov    0x8(%esi),%eax
    3057:	c7 06 00 00 00 00    	movl   $0x0,(%esi)
    305d:	c7 46 04 00 00 00 00 	movl   $0x0,0x4(%esi)
    3064:	85 c0                	test   %eax,%eax
    3066:	74 0c                	je     3074 <ddf_fun_create+0xb4>
    3068:	83 ec 0c             	sub    $0xc,%esp
    306b:	50                   	push   %eax
    306c:	e8 ef ad 00 00       	call   de60 <free@plt>
    3071:	83 c4 10             	add    $0x10,%esp
    3074:	83 ec 0c             	sub    $0xc,%esp
    3077:	56                   	push   %esi
    3078:	e8 e3 ad 00 00       	call   de60 <free@plt>
    307d:	8b 73 1c             	mov    0x1c(%ebx),%esi
    3080:	83 c4 10             	add    $0x10,%esp
    3083:	39 f7                	cmp    %esi,%edi
    3085:	75 b9                	jne    3040 <ddf_fun_create+0x80>
    3087:	8b 43 20             	mov    0x20(%ebx),%eax
    308a:	85 c0                	test   %eax,%eax
    308c:	74 0c                	je     309a <ddf_fun_create+0xda>
    308e:	83 ec 0c             	sub    $0xc,%esp
    3091:	50                   	push   %eax
    3092:	e8 c9 ad 00 00       	call   de60 <free@plt>
    3097:	83 c4 10             	add    $0x10,%esp
    309a:	8b 43 14             	mov    0x14(%ebx),%eax
    309d:	85 c0                	test   %eax,%eax
    309f:	74 0c                	je     30ad <ddf_fun_create+0xed>
    30a1:	83 ec 0c             	sub    $0xc,%esp
    30a4:	50                   	push   %eax
    30a5:	e8 b6 ad 00 00       	call   de60 <free@plt>
    30aa:	83 c4 10             	add    $0x10,%esp
    30ad:	83 ec 0c             	sub    $0xc,%esp
    30b0:	53                   	push   %ebx
    30b1:	31 db                	xor    %ebx,%ebx
    30b3:	e8 a8 ad 00 00       	call   de60 <free@plt>
    30b8:	83 c4 10             	add    $0x10,%esp
    30bb:	e9 66 ff ff ff       	jmp    3026 <ddf_fun_create+0x66>
    30c0:	8b 43 20             	mov    0x20(%ebx),%eax
    30c3:	85 c0                	test   %eax,%eax
    30c5:	75 c7                	jne    308e <ddf_fun_create+0xce>
    30c7:	eb e4                	jmp    30ad <ddf_fun_create+0xed>
    30c9:	8d b4 26 00 00 00 00 	lea    0x0(%esi,%eiz,1),%esi

000030d0 <ddf_fun_data_alloc>:
    30d0:	55                   	push   %ebp
    30d1:	89 e5                	mov    %esp,%ebp
    30d3:	53                   	push   %ebx
    30d4:	50                   	push   %eax
    30d5:	8b 5d 08             	mov    0x8(%ebp),%ebx
    30d8:	80 3b 00             	cmpb   $0x0,(%ebx)
    30db:	75 23                	jne    3100 <ddf_fun_data_alloc+0x30>
    30dd:	8b 43 20             	mov    0x20(%ebx),%eax
    30e0:	85 c0                	test   %eax,%eax
    30e2:	75 31                	jne    3115 <ddf_fun_data_alloc+0x45>
    30e4:	8b 55 0c             	mov    0xc(%ebp),%edx
    30e7:	50                   	push   %eax
    30e8:	50                   	push   %eax
    30e9:	52                   	push   %edx
    30ea:	6a 01                	push   $0x1
    30ec:	e8 5f aa 00 00       	call   db50 <calloc@plt>
    30f1:	83 c4 10             	add    $0x10,%esp
    30f4:	85 c0                	test   %eax,%eax
    30f6:	74 03                	je     30fb <ddf_fun_data_alloc+0x2b>
    30f8:	89 43 20             	mov    %eax,0x20(%ebx)
    30fb:	8b 5d fc             	mov    -0x4(%ebp),%ebx
    30fe:	c9                   	leave  
    30ff:	c3                   	ret    
    3100:	50                   	push   %eax
    3101:	68 c9 02 00 00       	push   $0x2c9
    3106:	68 e3 bb 00 00       	push   $0xbbe3
    310b:	68 62 bc 00 00       	push   $0xbc62
    3110:	e8 1b aa 00 00       	call   db30 <assert_abort@plt>
    3115:	51                   	push   %ecx
    3116:	68 ca 02 00 00       	push   $0x2ca
    311b:	68 e3 bb 00 00       	push   $0xbbe3
    3120:	68 76 bc 00 00       	push   $0xbc76
    3125:	e8 06 aa 00 00       	call   db30 <assert_abort@plt>
    312a:	8d b6 00 00 00 00    	lea    0x0(%esi),%esi

00003130 <ddf_fun_data_get>:
    3130:	55                   	push   %ebp
    3131:	89 e5                	mov    %esp,%ebp
    3133:	8b 45 08             	mov    0x8(%ebp),%eax
    3136:	5d                   	pop    %ebp
    3137:	8b 40 20             	mov    0x20(%eax),%eax
    313a:	c3                   	ret    
    313b:	90                   	nop
    313c:	8d 74 26 00          	lea    0x0(%esi,%eiz,1),%esi

00003140 <ddf_fun_get_name>:
    3140:	55                   	push   %ebp
    3141:	89 e5                	mov    %esp,%ebp
    3143:	8b 45 08             	mov    0x8(%ebp),%eax
    3146:	5d                   	pop    %ebp
    3147:	8b 40 14             	mov    0x14(%eax),%eax
    314a:	c3                   	ret    
    314b:	90                   	nop
    314c:	8d 74 26 00          	lea    0x0(%esi,%eiz,1),%esi

00003150 <ddf_fun_destroy>:
    3150:	55                   	push   %ebp
    3151:	89 e5                	mov    %esp,%ebp
    3153:	57                   	push   %edi
    3154:	56                   	push   %esi
    3155:	53                   	push   %ebx
    3156:	83 ec 1c             	sub    $0x1c,%esp
    3159:	8b 7d 08             	mov    0x8(%ebp),%edi
    315c:	80 3f 00             	cmpb   $0x0,(%edi)
    315f:	0f 85 fa 00 00 00    	jne    325f <ddf_fun_destroy+0x10f>
    3165:	8b 77 0c             	mov    0xc(%edi),%esi
    3168:	83 ca ff             	or     $0xffffffff,%edx
    316b:	f0 0f c1 57 08       	lock xadd %edx,0x8(%edi)
    3170:	4a                   	dec    %edx
    3171:	74 5d                	je     31d0 <ddf_fun_destroy+0x80>
    3173:	83 c8 ff             	or     $0xffffffff,%eax
    3176:	f0 0f c1 46 04       	lock xadd %eax,0x4(%esi)
    317b:	48                   	dec    %eax
    317c:	74 0a                	je     3188 <ddf_fun_destroy+0x38>
    317e:	8d 65 f4             	lea    -0xc(%ebp),%esp
    3181:	5b                   	pop    %ebx
    3182:	5e                   	pop    %esi
    3183:	5f                   	pop    %edi
    3184:	5d                   	pop    %ebp
    3185:	c3                   	ret    
    3186:	66 90                	xchg   %ax,%ax
    3188:	8b 46 08             	mov    0x8(%esi),%eax
    318b:	85 c0                	test   %eax,%eax
    318d:	74 0c                	je     319b <ddf_fun_destroy+0x4b>
    318f:	83 ec 0c             	sub    $0xc,%esp
    3192:	50                   	push   %eax
    3193:	e8 f8 a7 00 00       	call   d990 <async_hangup@plt>
    3198:	83 c4 10             	add    $0x10,%esp
    319b:	8b 46 10             	mov    0x10(%esi),%eax
    319e:	85 c0                	test   %eax,%eax
    31a0:	74 0c                	je     31ae <ddf_fun_destroy+0x5e>
    31a2:	83 ec 0c             	sub    $0xc,%esp
    31a5:	50                   	push   %eax
    31a6:	e8 b5 ac 00 00       	call   de60 <free@plt>
    31ab:	83 c4 10             	add    $0x10,%esp
    31ae:	8b 46 0c             	mov    0xc(%esi),%eax
    31b1:	85 c0                	test   %eax,%eax
    31b3:	74 0c                	je     31c1 <ddf_fun_destroy+0x71>
    31b5:	83 ec 0c             	sub    $0xc,%esp
    31b8:	50                   	push   %eax
    31b9:	e8 a2 ac 00 00       	call   de60 <free@plt>
    31be:	83 c4 10             	add    $0x10,%esp
    31c1:	89 75 08             	mov    %esi,0x8(%ebp)
    31c4:	8d 65 f4             	lea    -0xc(%ebp),%esp
    31c7:	5b                   	pop    %ebx
    31c8:	5e                   	pop    %esi
    31c9:	5f                   	pop    %edi
    31ca:	5d                   	pop    %ebp
    31cb:	e9 90 ac 00 00       	jmp    de60 <free@plt>
    31d0:	8d 47 18             	lea    0x18(%edi),%eax
    31d3:	8b 5f 1c             	mov    0x1c(%edi),%ebx
    31d6:	89 45 e4             	mov    %eax,-0x1c(%ebp)
    31d9:	39 d8                	cmp    %ebx,%eax
    31db:	74 4b                	je     3228 <ddf_fun_destroy+0xd8>
    31dd:	8d 76 00             	lea    0x0(%esi),%esi
    31e0:	8b 0b                	mov    (%ebx),%ecx
    31e2:	85 c9                	test   %ecx,%ecx
    31e4:	74 0e                	je     31f4 <ddf_fun_destroy+0xa4>
    31e6:	8b 53 04             	mov    0x4(%ebx),%edx
    31e9:	85 d2                	test   %edx,%edx
    31eb:	74 07                	je     31f4 <ddf_fun_destroy+0xa4>
    31ed:	89 0a                	mov    %ecx,(%edx)
    31ef:	8b 0b                	mov    (%ebx),%ecx
    31f1:	89 51 04             	mov    %edx,0x4(%ecx)
    31f4:	8b 53 08             	mov    0x8(%ebx),%edx
    31f7:	c7 03 00 00 00 00    	movl   $0x0,(%ebx)
    31fd:	c7 43 04 00 00 00 00 	movl   $0x0,0x4(%ebx)
    3204:	85 d2                	test   %edx,%edx
    3206:	74 0c                	je     3214 <ddf_fun_destroy+0xc4>
    3208:	83 ec 0c             	sub    $0xc,%esp
    320b:	52                   	push   %edx
    320c:	e8 4f ac 00 00       	call   de60 <free@plt>
    3211:	83 c4 10             	add    $0x10,%esp
    3214:	83 ec 0c             	sub    $0xc,%esp
    3217:	53                   	push   %ebx
    3218:	e8 43 ac 00 00       	call   de60 <free@plt>
    321d:	8b 5f 1c             	mov    0x1c(%edi),%ebx
    3220:	83 c4 10             	add    $0x10,%esp
    3223:	3b 5d e4             	cmp    -0x1c(%ebp),%ebx
    3226:	75 b8                	jne    31e0 <ddf_fun_destroy+0x90>
    3228:	8b 57 20             	mov    0x20(%edi),%edx
    322b:	85 d2                	test   %edx,%edx
    322d:	74 0c                	je     323b <ddf_fun_destroy+0xeb>
    322f:	83 ec 0c             	sub    $0xc,%esp
    3232:	52                   	push   %edx
    3233:	e8 28 ac 00 00       	call   de60 <free@plt>
    3238:	83 c4 10             	add    $0x10,%esp
    323b:	8b 57 14             	mov    0x14(%edi),%edx
    323e:	85 d2                	test   %edx,%edx
    3240:	74 0c                	je     324e <ddf_fun_destroy+0xfe>
    3242:	83 ec 0c             	sub    $0xc,%esp
    3245:	52                   	push   %edx
    3246:	e8 15 ac 00 00       	call   de60 <free@plt>
    324b:	83 c4 10             	add    $0x10,%esp
    324e:	83 ec 0c             	sub    $0xc,%esp
    3251:	57                   	push   %edi
    3252:	e8 09 ac 00 00       	call   de60 <free@plt>
    3257:	83 c4 10             	add    $0x10,%esp
    325a:	e9 14 ff ff ff       	jmp    3173 <ddf_fun_destroy+0x23>
    325f:	50                   	push   %eax
    3260:	68 ee 02 00 00       	push   $0x2ee
    3265:	68 e3 bb 00 00       	push   $0xbbe3
    326a:	68 62 bc 00 00       	push   $0xbc62
    326f:	e8 bc a8 00 00       	call   db30 <assert_abort@plt>
    3274:	8d b6 00 00 00 00    	lea    0x0(%esi),%esi
    327a:	8d bf 00 00 00 00    	lea    0x0(%edi),%edi

00003280 <ddf_fun_bind>:
    3280:	55                   	push   %ebp
    3281:	89 e5                	mov    %esp,%ebp
    3283:	53                   	push   %ebx
    3284:	83 ec 14             	sub    $0x14,%esp
    3287:	8b 5d 08             	mov    0x8(%ebp),%ebx
    328a:	80 3b 00             	cmpb   $0x0,(%ebx)
    328d:	0f 85 d2 00 00 00    	jne    3365 <ddf_fun_bind+0xe5>
    3293:	8b 43 14             	mov    0x14(%ebx),%eax
    3296:	85 c0                	test   %eax,%eax
    3298:	0f 84 f1 00 00 00    	je     338f <ddf_fun_bind+0x10f>
    329e:	8b 43 0c             	mov    0xc(%ebx),%eax
    32a1:	85 c0                	test   %eax,%eax
    32a3:	0f 84 d1 00 00 00    	je     337a <ddf_fun_bind+0xfa>
    32a9:	83 ec 0c             	sub    $0xc,%esp
    32ac:	68 1c ff 00 00       	push   $0xff1c
    32b1:	e8 ca ab 00 00       	call   de80 <fibril_mutex_lock@plt>
    32b6:	8b 15 2c ff 00 00    	mov    0xff2c,%edx
    32bc:	8d 43 2c             	lea    0x2c(%ebx),%eax
    32bf:	89 53 2c             	mov    %edx,0x2c(%ebx)
    32c2:	c7 43 30 2c ff 00 00 	movl   $0xff2c,0x30(%ebx)
    32c9:	89 42 04             	mov    %eax,0x4(%edx)
    32cc:	a3 2c ff 00 00       	mov    %eax,0xff2c
    32d1:	c7 04 24 1c ff 00 00 	movl   $0xff1c,(%esp)
    32d8:	e8 e3 a8 00 00       	call   dbc0 <fibril_mutex_unlock@plt>
    32dd:	8d 43 04             	lea    0x4(%ebx),%eax
    32e0:	8b 53 10             	mov    0x10(%ebx),%edx
    32e3:	89 04 24             	mov    %eax,(%esp)
    32e6:	8b 43 0c             	mov    0xc(%ebx),%eax
    32e9:	8b 4b 14             	mov    0x14(%ebx),%ecx
    32ec:	8b 00                	mov    (%eax),%eax
    32ee:	50                   	push   %eax
    32ef:	8d 43 18             	lea    0x18(%ebx),%eax
    32f2:	50                   	push   %eax
    32f3:	52                   	push   %edx
    32f4:	51                   	push   %ecx
    32f5:	e8 06 a8 00 00       	call   db00 <devman_add_function@plt>
    32fa:	83 c4 20             	add    $0x20,%esp
    32fd:	85 c0                	test   %eax,%eax
    32ff:	75 0f                	jne    3310 <ddf_fun_bind+0x90>
    3301:	c6 03 01             	movb   $0x1,(%ebx)
    3304:	8b 5d fc             	mov    -0x4(%ebp),%ebx
    3307:	c9                   	leave  
    3308:	c3                   	ret    
    3309:	8d b4 26 00 00 00 00 	lea    0x0(%esi,%eiz,1),%esi
    3310:	83 ec 0c             	sub    $0xc,%esp
    3313:	89 45 f4             	mov    %eax,-0xc(%ebp)
    3316:	68 1c ff 00 00       	push   $0xff1c
    331b:	e8 60 ab 00 00       	call   de80 <fibril_mutex_lock@plt>
    3320:	8b 4b 2c             	mov    0x2c(%ebx),%ecx
    3323:	83 c4 10             	add    $0x10,%esp
    3326:	8b 45 f4             	mov    -0xc(%ebp),%eax
    3329:	85 c9                	test   %ecx,%ecx
    332b:	74 0f                	je     333c <ddf_fun_bind+0xbc>
    332d:	8b 53 30             	mov    0x30(%ebx),%edx
    3330:	85 d2                	test   %edx,%edx
    3332:	74 08                	je     333c <ddf_fun_bind+0xbc>
    3334:	89 0a                	mov    %ecx,(%edx)
    3336:	8b 4b 2c             	mov    0x2c(%ebx),%ecx
    3339:	89 51 04             	mov    %edx,0x4(%ecx)
    333c:	83 ec 0c             	sub    $0xc,%esp
    333f:	c7 43 2c 00 00 00 00 	movl   $0x0,0x2c(%ebx)
    3346:	c7 43 30 00 00 00 00 	movl   $0x0,0x30(%ebx)
    334d:	89 45 f4             	mov    %eax,-0xc(%ebp)
    3350:	68 1c ff 00 00       	push   $0xff1c
    3355:	e8 66 a8 00 00       	call   dbc0 <fibril_mutex_unlock@plt>
    335a:	8b 45 f4             	mov    -0xc(%ebp),%eax
    335d:	83 c4 10             	add    $0x10,%esp
    3360:	8b 5d fc             	mov    -0x4(%ebp),%ebx
    3363:	c9                   	leave  
    3364:	c3                   	ret    
    3365:	50                   	push   %eax
    3366:	68 12 03 00 00       	push   $0x312
    336b:	68 e3 bb 00 00       	push   $0xbbe3
    3370:	68 62 bc 00 00       	push   $0xbc62
    3375:	e8 b6 a7 00 00       	call   db30 <assert_abort@plt>
    337a:	53                   	push   %ebx
    337b:	68 14 03 00 00       	push   $0x314
    3380:	68 e3 bb 00 00       	push   $0xbbe3
    3385:	68 a1 bc 00 00       	push   $0xbca1
    338a:	e8 a1 a7 00 00       	call   db30 <assert_abort@plt>
    338f:	50                   	push   %eax
    3390:	68 13 03 00 00       	push   $0x313
    3395:	68 e3 bb 00 00       	push   $0xbbe3
    339a:	68 8f bc 00 00       	push   $0xbc8f
    339f:	e8 8c a7 00 00       	call   db30 <assert_abort@plt>
    33a4:	8d b6 00 00 00 00    	lea    0x0(%esi),%esi
    33aa:	8d bf 00 00 00 00    	lea    0x0(%edi),%edi

000033b0 <ddf_fun_unbind>:
    33b0:	55                   	push   %ebp
    33b1:	89 e5                	mov    %esp,%ebp
    33b3:	53                   	push   %ebx
    33b4:	83 ec 14             	sub    $0x14,%esp
    33b7:	8b 5d 08             	mov    0x8(%ebp),%ebx
    33ba:	80 3b 00             	cmpb   $0x0,(%ebx)
    33bd:	74 71                	je     3430 <ddf_fun_unbind+0x80>
    33bf:	83 ec 0c             	sub    $0xc,%esp
    33c2:	8b 43 04             	mov    0x4(%ebx),%eax
    33c5:	50                   	push   %eax
    33c6:	e8 a5 a7 00 00       	call   db70 <devman_remove_function@plt>
    33cb:	83 c4 10             	add    $0x10,%esp
    33ce:	85 c0                	test   %eax,%eax
    33d0:	74 06                	je     33d8 <ddf_fun_unbind+0x28>
    33d2:	8b 5d fc             	mov    -0x4(%ebp),%ebx
    33d5:	c9                   	leave  
    33d6:	c3                   	ret    
    33d7:	90                   	nop
    33d8:	83 ec 0c             	sub    $0xc,%esp
    33db:	89 45 f4             	mov    %eax,-0xc(%ebp)
    33de:	68 1c ff 00 00       	push   $0xff1c
    33e3:	e8 98 aa 00 00       	call   de80 <fibril_mutex_lock@plt>
    33e8:	8b 4b 2c             	mov    0x2c(%ebx),%ecx
    33eb:	83 c4 10             	add    $0x10,%esp
    33ee:	8b 45 f4             	mov    -0xc(%ebp),%eax
    33f1:	85 c9                	test   %ecx,%ecx
    33f3:	74 0f                	je     3404 <ddf_fun_unbind+0x54>
    33f5:	8b 53 30             	mov    0x30(%ebx),%edx
    33f8:	85 d2                	test   %edx,%edx
    33fa:	74 08                	je     3404 <ddf_fun_unbind+0x54>
    33fc:	89 0a                	mov    %ecx,(%edx)
    33fe:	8b 4b 2c             	mov    0x2c(%ebx),%ecx
    3401:	89 51 04             	mov    %edx,0x4(%ecx)
    3404:	83 ec 0c             	sub    $0xc,%esp
    3407:	c7 43 2c 00 00 00 00 	movl   $0x0,0x2c(%ebx)
    340e:	c7 43 30 00 00 00 00 	movl   $0x0,0x30(%ebx)
    3415:	89 45 f4             	mov    %eax,-0xc(%ebp)
    3418:	68 1c ff 00 00       	push   $0xff1c
    341d:	e8 9e a7 00 00       	call   dbc0 <fibril_mutex_unlock@plt>
    3422:	c6 03 00             	movb   $0x0,(%ebx)
    3425:	8b 45 f4             	mov    -0xc(%ebp),%eax
    3428:	83 c4 10             	add    $0x10,%esp
    342b:	8b 5d fc             	mov    -0x4(%ebp),%ebx
    342e:	c9                   	leave  
    342f:	c3                   	ret    
    3430:	52                   	push   %edx
    3431:	68 2e 03 00 00       	push   $0x32e
    3436:	68 e3 bb 00 00       	push   $0xbbe3
    343b:	68 b2 bc 00 00       	push   $0xbcb2
    3440:	e8 eb a6 00 00       	call   db30 <assert_abort@plt>
    3445:	8d 74 26 00          	lea    0x0(%esi,%eiz,1),%esi
    3449:	8d bc 27 00 00 00 00 	lea    0x0(%edi,%eiz,1),%edi

00003450 <ddf_fun_online>:
    3450:	55                   	push   %ebp
    3451:	89 e5                	mov    %esp,%ebp
    3453:	83 ec 08             	sub    $0x8,%esp
    3456:	8b 45 08             	mov    0x8(%ebp),%eax
    3459:	80 38 00             	cmpb   $0x0,(%eax)
    345c:	74 0c                	je     346a <ddf_fun_online+0x1a>
    345e:	8b 40 04             	mov    0x4(%eax),%eax
    3461:	89 45 08             	mov    %eax,0x8(%ebp)
    3464:	c9                   	leave  
    3465:	e9 a6 a5 00 00       	jmp    da10 <devman_drv_fun_online@plt>
    346a:	50                   	push   %eax
    346b:	68 43 03 00 00       	push   $0x343
    3470:	68 e3 bb 00 00       	push   $0xbbe3
    3475:	68 b2 bc 00 00       	push   $0xbcb2
    347a:	e8 b1 a6 00 00       	call   db30 <assert_abort@plt>
    347f:	90                   	nop

00003480 <ddf_fun_offline>:
    3480:	55                   	push   %ebp
    3481:	89 e5                	mov    %esp,%ebp
    3483:	83 ec 08             	sub    $0x8,%esp
    3486:	8b 45 08             	mov    0x8(%ebp),%eax
    3489:	80 38 00             	cmpb   $0x0,(%eax)
    348c:	74 0c                	je     349a <ddf_fun_offline+0x1a>
    348e:	8b 40 04             	mov    0x4(%eax),%eax
    3491:	89 45 08             	mov    %eax,0x8(%ebp)
    3494:	c9                   	leave  
    3495:	e9 b6 a7 00 00       	jmp    dc50 <devman_drv_fun_offline@plt>
    349a:	50                   	push   %eax
    349b:	68 55 03 00 00       	push   $0x355
    34a0:	68 e3 bb 00 00       	push   $0xbbe3
    34a5:	68 b2 bc 00 00       	push   $0xbcb2
    34aa:	e8 81 a6 00 00       	call   db30 <assert_abort@plt>
    34af:	90                   	nop

000034b0 <ddf_fun_add_match_id>:
    34b0:	55                   	push   %ebp
    34b1:	89 e5                	mov    %esp,%ebp
    34b3:	57                   	push   %edi
    34b4:	56                   	push   %esi
    34b5:	53                   	push   %ebx
    34b6:	83 ec 0c             	sub    $0xc,%esp
    34b9:	8b 5d 08             	mov    0x8(%ebp),%ebx
    34bc:	8b 75 10             	mov    0x10(%ebp),%esi
    34bf:	80 3b 00             	cmpb   $0x0,(%ebx)
    34c2:	0f 85 89 00 00 00    	jne    3551 <ddf_fun_add_match_id+0xa1>
    34c8:	83 7b 10 01          	cmpl   $0x1,0x10(%ebx)
    34cc:	75 6e                	jne    353c <ddf_fun_add_match_id+0x8c>
    34ce:	83 ec 0c             	sub    $0xc,%esp
    34d1:	6a 10                	push   $0x10
    34d3:	e8 88 a5 00 00       	call   da60 <malloc@plt>
    34d8:	83 c4 0c             	add    $0xc,%esp
    34db:	89 c7                	mov    %eax,%edi
    34dd:	6a 10                	push   $0x10
    34df:	6a 00                	push   $0x0
    34e1:	50                   	push   %eax
    34e2:	e8 b9 a7 00 00       	call   dca0 <memset@plt>
    34e7:	8b 55 0c             	mov    0xc(%ebp),%edx
    34ea:	58                   	pop    %eax
    34eb:	52                   	push   %edx
    34ec:	e8 ef a6 00 00       	call   dbe0 <str_dup@plt>
    34f1:	8d 53 18             	lea    0x18(%ebx),%edx
    34f4:	89 47 08             	mov    %eax,0x8(%edi)
    34f7:	8b 43 1c             	mov    0x1c(%ebx),%eax
    34fa:	83 c4 10             	add    $0x10,%esp
    34fd:	89 77 0c             	mov    %esi,0xc(%edi)
    3500:	39 c2                	cmp    %eax,%edx
    3502:	74 18                	je     351c <ddf_fun_add_match_id+0x6c>
    3504:	39 70 0c             	cmp    %esi,0xc(%eax)
    3507:	73 0c                	jae    3515 <ddf_fun_add_match_id+0x65>
    3509:	eb 2d                	jmp    3538 <ddf_fun_add_match_id+0x88>
    350b:	90                   	nop
    350c:	8d 74 26 00          	lea    0x0(%esi,%eiz,1),%esi
    3510:	3b 70 0c             	cmp    0xc(%eax),%esi
    3513:	77 23                	ja     3538 <ddf_fun_add_match_id+0x88>
    3515:	8b 40 04             	mov    0x4(%eax),%eax
    3518:	39 c2                	cmp    %eax,%edx
    351a:	75 f4                	jne    3510 <ddf_fun_add_match_id+0x60>
    351c:	8b 02                	mov    (%edx),%eax
    351e:	89 57 04             	mov    %edx,0x4(%edi)
    3521:	89 07                	mov    %eax,(%edi)
    3523:	8b 02                	mov    (%edx),%eax
    3525:	89 78 04             	mov    %edi,0x4(%eax)
    3528:	89 3a                	mov    %edi,(%edx)
    352a:	8d 65 f4             	lea    -0xc(%ebp),%esp
    352d:	31 c0                	xor    %eax,%eax
    352f:	5b                   	pop    %ebx
    3530:	5e                   	pop    %esi
    3531:	5f                   	pop    %edi
    3532:	5d                   	pop    %ebp
    3533:	c3                   	ret    
    3534:	8d 74 26 00          	lea    0x0(%esi,%eiz,1),%esi
    3538:	89 c2                	mov    %eax,%edx
    353a:	eb e0                	jmp    351c <ddf_fun_add_match_id+0x6c>
    353c:	51                   	push   %ecx
    353d:	68 6f 03 00 00       	push   $0x36f
    3542:	68 e3 bb 00 00       	push   $0xbbe3
    3547:	68 c5 bc 00 00       	push   $0xbcc5
    354c:	e8 df a5 00 00       	call   db30 <assert_abort@plt>
    3551:	53                   	push   %ebx
    3552:	68 6e 03 00 00       	push   $0x36e
    3557:	68 e3 bb 00 00       	push   $0xbbe3
    355c:	68 62 bc 00 00       	push   $0xbc62
    3561:	e8 ca a5 00 00       	call   db30 <assert_abort@plt>
    3566:	8d 76 00             	lea    0x0(%esi),%esi
    3569:	8d bc 27 00 00 00 00 	lea    0x0(%edi,%eiz,1),%edi

00003570 <ddf_fun_set_ops>:
    3570:	55                   	push   %ebp
    3571:	89 e5                	mov    %esp,%ebp
    3573:	83 ec 08             	sub    $0x8,%esp
    3576:	8b 45 08             	mov    0x8(%ebp),%eax
    3579:	8b 48 28             	mov    0x28(%eax),%ecx
    357c:	85 c9                	test   %ecx,%ecx
    357e:	75 08                	jne    3588 <ddf_fun_set_ops+0x18>
    3580:	8b 55 0c             	mov    0xc(%ebp),%edx
    3583:	89 50 24             	mov    %edx,0x24(%eax)
    3586:	c9                   	leave  
    3587:	c3                   	ret    
    3588:	50                   	push   %eax
    3589:	68 7f 03 00 00       	push   $0x37f
    358e:	68 e3 bb 00 00       	push   $0xbbe3
    3593:	68 dd bc 00 00       	push   $0xbcdd
    3598:	e8 93 a5 00 00       	call   db30 <assert_abort@plt>
    359d:	8d 76 00             	lea    0x0(%esi),%esi

000035a0 <ddf_fun_set_conn_handler>:
    35a0:	55                   	push   %ebp
    35a1:	89 e5                	mov    %esp,%ebp
    35a3:	83 ec 08             	sub    $0x8,%esp
    35a6:	8b 45 08             	mov    0x8(%ebp),%eax
    35a9:	8b 48 24             	mov    0x24(%eax),%ecx
    35ac:	85 c9                	test   %ecx,%ecx
    35ae:	75 08                	jne    35b8 <ddf_fun_set_conn_handler+0x18>
    35b0:	8b 55 0c             	mov    0xc(%ebp),%edx
    35b3:	89 50 28             	mov    %edx,0x28(%eax)
    35b6:	c9                   	leave  
    35b7:	c3                   	ret    
    35b8:	50                   	push   %eax
    35b9:	68 89 03 00 00       	push   $0x389
    35be:	68 e3 bb 00 00       	push   $0xbbe3
    35c3:	68 f7 bc 00 00       	push   $0xbcf7
    35c8:	e8 63 a5 00 00       	call   db30 <assert_abort@plt>
    35cd:	8d 76 00             	lea    0x0(%esi),%esi

000035d0 <ddf_fun_add_to_category>:
    35d0:	55                   	push   %ebp
    35d1:	89 e5                	mov    %esp,%ebp
    35d3:	83 ec 08             	sub    $0x8,%esp
    35d6:	8b 45 08             	mov    0x8(%ebp),%eax
    35d9:	8b 55 0c             	mov    0xc(%ebp),%edx
    35dc:	80 38 00             	cmpb   $0x0,(%eax)
    35df:	74 15                	je     35f6 <ddf_fun_add_to_category+0x26>
    35e1:	83 78 10 02          	cmpl   $0x2,0x10(%eax)
    35e5:	75 24                	jne    360b <ddf_fun_add_to_category+0x3b>
    35e7:	89 55 0c             	mov    %edx,0xc(%ebp)
    35ea:	8b 40 04             	mov    0x4(%eax),%eax
    35ed:	89 45 08             	mov    %eax,0x8(%ebp)
    35f0:	c9                   	leave  
    35f1:	e9 7a a4 00 00       	jmp    da70 <devman_add_device_to_category@plt>
    35f6:	52                   	push   %edx
    35f7:	68 9c 03 00 00       	push   $0x39c
    35fc:	68 e3 bb 00 00       	push   $0xbbe3
    3601:	68 b2 bc 00 00       	push   $0xbcb2
    3606:	e8 25 a5 00 00       	call   db30 <assert_abort@plt>
    360b:	50                   	push   %eax
    360c:	68 9d 03 00 00       	push   $0x39d
    3611:	68 e3 bb 00 00       	push   $0xbbe3
    3616:	68 08 bd 00 00       	push   $0xbd08
    361b:	e8 10 a5 00 00       	call   db30 <assert_abort@plt>

00003620 <ddf_driver_main>:
    3620:	55                   	push   %ebp
    3621:	89 e5                	mov    %esp,%ebp
    3623:	56                   	push   %esi
    3624:	53                   	push   %ebx
    3625:	83 ec 10             	sub    $0x10,%esp
    3628:	8d 75 f4             	lea    -0xc(%ebp),%esi
    362b:	8b 45 08             	mov    0x8(%ebp),%eax
    362e:	56                   	push   %esi
    362f:	a3 c4 00 01 00       	mov    %eax,0x100c4
    3634:	6a 00                	push   $0x0
    3636:	68 80 29 00 00       	push   $0x2980
    363b:	68 41 26 9b c9       	push   $0xc99b2641
    3640:	e8 6b a7 00 00       	call   ddb0 <async_create_port@plt>
    3645:	83 c4 10             	add    $0x10,%esp
    3648:	89 c3                	mov    %eax,%ebx
    364a:	85 c0                	test   %eax,%eax
    364c:	74 0a                	je     3658 <ddf_driver_main+0x38>
    364e:	8d 65 f8             	lea    -0x8(%ebp),%esp
    3651:	89 d8                	mov    %ebx,%eax
    3653:	5b                   	pop    %ebx
    3654:	5e                   	pop    %esi
    3655:	5d                   	pop    %ebp
    3656:	c3                   	ret    
    3657:	90                   	nop
    3658:	56                   	push   %esi
    3659:	6a 00                	push   $0x0
    365b:	68 a0 29 00 00       	push   $0x29a0
    3660:	68 41 26 9b db       	push   $0xdb9b2641
    3665:	e8 46 a7 00 00       	call   ddb0 <async_create_port@plt>
    366a:	83 c4 10             	add    $0x10,%esp
    366d:	89 c3                	mov    %eax,%ebx
    366f:	85 c0                	test   %eax,%eax
    3671:	75 db                	jne    364e <ddf_driver_main+0x2e>
    3673:	51                   	push   %ecx
    3674:	51                   	push   %ecx
    3675:	6a 00                	push   $0x0
    3677:	68 90 29 00 00       	push   $0x2990
    367c:	e8 af a7 00 00       	call   de30 <async_set_fallback_port_handler@plt>
    3681:	a1 c4 00 01 00       	mov    0x100c4,%eax
    3686:	8b 30                	mov    (%eax),%esi
    3688:	5b                   	pop    %ebx
    3689:	56                   	push   %esi
    368a:	e8 01 a6 00 00       	call   dc90 <devman_driver_register@plt>
    368f:	83 c4 10             	add    $0x10,%esp
    3692:	89 c3                	mov    %eax,%ebx
    3694:	85 c0                	test   %eax,%eax
    3696:	74 30                	je     36c8 <ddf_driver_main+0xa8>
    3698:	b8 22 bd 00 00       	mov    $0xbd22,%eax
    369d:	83 fb f7             	cmp    $0xfffffff7,%ebx
    36a0:	74 0c                	je     36ae <ddf_driver_main+0x8e>
    36a2:	83 ec 0c             	sub    $0xc,%esp
    36a5:	53                   	push   %ebx
    36a6:	e8 b5 a6 00 00       	call   dd60 <str_error@plt>
    36ab:	83 c4 10             	add    $0x10,%esp
    36ae:	52                   	push   %edx
    36af:	52                   	push   %edx
    36b0:	50                   	push   %eax
    36b1:	68 b0 be 00 00       	push   $0xbeb0
    36b6:	e8 c5 a2 00 00       	call   d980 <printf@plt>
    36bb:	83 c4 10             	add    $0x10,%esp
    36be:	8d 65 f8             	lea    -0x8(%ebp),%esp
    36c1:	89 d8                	mov    %ebx,%eax
    36c3:	5b                   	pop    %ebx
    36c4:	5e                   	pop    %esi
    36c5:	5d                   	pop    %ebp
    36c6:	c3                   	ret    
    36c7:	90                   	nop
    36c8:	83 ec 0c             	sub    $0xc,%esp
    36cb:	6a 00                	push   $0x0
    36cd:	e8 7e a2 00 00       	call   d950 <task_retval@plt>
    36d2:	83 c4 10             	add    $0x10,%esp
    36d5:	89 c3                	mov    %eax,%ebx
    36d7:	85 c0                	test   %eax,%eax
    36d9:	0f 85 6f ff ff ff    	jne    364e <ddf_driver_main+0x2e>
    36df:	83 c8 ff             	or     $0xffffffff,%eax
    36e2:	f0 0f c1 05 bc 00 01 	lock xadd %eax,0x100bc
    36e9:	00 
    36ea:	48                   	dec    %eax
    36eb:	78 12                	js     36ff <ddf_driver_main+0xdf>
    36ed:	83 ec 0c             	sub    $0xc,%esp
    36f0:	6a 03                	push   $0x3
    36f2:	e8 f9 a6 00 00       	call   ddf0 <fibril_switch@plt>
    36f7:	83 c4 10             	add    $0x10,%esp
    36fa:	e9 4f ff ff ff       	jmp    364e <ddf_driver_main+0x2e>
    36ff:	50                   	push   %eax
    3700:	6a 0b                	push   $0xb
    3702:	6a 00                	push   $0x0
    3704:	6a 00                	push   $0x0
    3706:	6a 00                	push   $0x0
    3708:	6a 00                	push   $0x0
    370a:	6a 00                	push   $0x0
    370c:	68 bc 00 01 00       	push   $0x100bc
    3711:	ff 15 b8 00 01 00    	call   *0x100b8
    3717:	83 c4 20             	add    $0x20,%esp
    371a:	eb d1                	jmp    36ed <ddf_driver_main+0xcd>
    371c:	66 90                	xchg   %ax,%ax
    371e:	66 90                	xchg   %ax,%ax

00003720 <get_remote_iface>:
    3720:	55                   	push   %ebp
    3721:	89 e5                	mov    %esp,%ebp
    3723:	83 ec 08             	sub    $0x8,%esp
    3726:	8b 45 08             	mov    0x8(%ebp),%eax
    3729:	83 f8 0e             	cmp    $0xe,%eax
    372c:	77 09                	ja     3737 <get_remote_iface+0x17>
    372e:	8b 04 85 20 bf 00 00 	mov    0xbf20(,%eax,4),%eax
    3735:	c9                   	leave  
    3736:	c3                   	ret    
    3737:	50                   	push   %eax
    3738:	6a 4f                	push   $0x4f
    373a:	68 00 bf 00 00       	push   $0xbf00
    373f:	68 f4 bb 00 00       	push   $0xbbf4
    3744:	e8 e7 a3 00 00       	call   db30 <assert_abort@plt>
    3749:	8d b4 26 00 00 00 00 	lea    0x0(%esi,%eiz,1),%esi

00003750 <get_remote_method>:
    3750:	55                   	push   %ebp
    3751:	89 e5                	mov    %esp,%ebp
    3753:	8b 55 08             	mov    0x8(%ebp),%edx
    3756:	8b 45 0c             	mov    0xc(%ebp),%eax
    3759:	39 02                	cmp    %eax,(%edx)
    375b:	76 0b                	jbe    3768 <get_remote_method+0x18>
    375d:	8b 52 04             	mov    0x4(%edx),%edx
    3760:	5d                   	pop    %ebp
    3761:	8b 04 82             	mov    (%edx,%eax,4),%eax
    3764:	c3                   	ret    
    3765:	8d 76 00             	lea    0x0(%esi),%esi
    3768:	31 c0                	xor    %eax,%eax
    376a:	5d                   	pop    %ebp
    376b:	c3                   	ret    
    376c:	8d 74 26 00          	lea    0x0(%esi,%eiz,1),%esi

00003770 <is_valid_iface_idx>:
    3770:	55                   	push   %ebp
    3771:	89 e5                	mov    %esp,%ebp
    3773:	83 7d 08 0e          	cmpl   $0xe,0x8(%ebp)
    3777:	5d                   	pop    %ebp
    3778:	0f 96 c0             	setbe  %al
    377b:	c3                   	ret    
    377c:	66 90                	xchg   %ax,%ax
    377e:	66 90                	xchg   %ax,%ax

00003780 <ddf_log_init>:
    3780:	55                   	push   %ebp
    3781:	89 e5                	mov    %esp,%ebp
    3783:	5d                   	pop    %ebp
    3784:	e9 47 a2 00 00       	jmp    d9d0 <log_init@plt>
    3789:	8d b4 26 00 00 00 00 	lea    0x0(%esi,%eiz,1),%esi

00003790 <ddf_msg>:
    3790:	55                   	push   %ebp
    3791:	89 e5                	mov    %esp,%ebp
    3793:	83 ec 08             	sub    $0x8,%esp
    3796:	8d 45 10             	lea    0x10(%ebp),%eax
    3799:	8b 55 0c             	mov    0xc(%ebp),%edx
    379c:	8b 4d 08             	mov    0x8(%ebp),%ecx
    379f:	50                   	push   %eax
    37a0:	52                   	push   %edx
    37a1:	51                   	push   %ecx
    37a2:	6a ff                	push   $0xffffffff
    37a4:	e8 47 a3 00 00       	call   daf0 <log_msgv@plt>
    37a9:	83 c4 10             	add    $0x10,%esp
    37ac:	c9                   	leave  
    37ad:	c3                   	ret    
    37ae:	66 90                	xchg   %ax,%ax

000037b0 <remote_audio_mixer_set_item_level>:
    37b0:	55                   	push   %ebp
    37b1:	89 e5                	mov    %esp,%ebp
    37b3:	53                   	push   %ebx
    37b4:	51                   	push   %ecx
    37b5:	8b 45 0c             	mov    0xc(%ebp),%eax
    37b8:	8b 4d 08             	mov    0x8(%ebp),%ecx
    37bb:	8b 5d 10             	mov    0x10(%ebp),%ebx
    37be:	8b 55 14             	mov    0x14(%ebp),%edx
    37c1:	8b 40 0c             	mov    0xc(%eax),%eax
    37c4:	85 c0                	test   %eax,%eax
    37c6:	74 20                	je     37e8 <remote_audio_mixer_set_item_level+0x38>
    37c8:	83 ec 04             	sub    $0x4,%esp
    37cb:	ff 72 0c             	pushl  0xc(%edx)
    37ce:	8b 52 08             	mov    0x8(%edx),%edx
    37d1:	52                   	push   %edx
    37d2:	51                   	push   %ecx
    37d3:	ff d0                	call   *%eax
    37d5:	89 5d 08             	mov    %ebx,0x8(%ebp)
    37d8:	83 c4 10             	add    $0x10,%esp
    37db:	8b 5d fc             	mov    -0x4(%ebp),%ebx
    37de:	89 45 0c             	mov    %eax,0xc(%ebp)
    37e1:	c9                   	leave  
    37e2:	e9 b9 a2 00 00       	jmp    daa0 <async_answer_0@plt>
    37e7:	90                   	nop
    37e8:	89 5d 08             	mov    %ebx,0x8(%ebp)
    37eb:	8b 5d fc             	mov    -0x4(%ebp),%ebx
    37ee:	c7 45 0c f5 ff ff ff 	movl   $0xfffffff5,0xc(%ebp)
    37f5:	c9                   	leave  
    37f6:	e9 a5 a2 00 00       	jmp    daa0 <async_answer_0@plt>
    37fb:	90                   	nop
    37fc:	8d 74 26 00          	lea    0x0(%esi,%eiz,1),%esi

00003800 <remote_audio_mixer_get_item_level>:
    3800:	55                   	push   %ebp
    3801:	89 e5                	mov    %esp,%ebp
    3803:	83 ec 18             	sub    $0x18,%esp
    3806:	8b 45 0c             	mov    0xc(%ebp),%eax
    3809:	8b 40 08             	mov    0x8(%eax),%eax
    380c:	85 c0                	test   %eax,%eax
    380e:	74 30                	je     3840 <remote_audio_mixer_get_item_level+0x40>
    3810:	8b 55 14             	mov    0x14(%ebp),%edx
    3813:	c7 45 f4 00 00 00 00 	movl   $0x0,-0xc(%ebp)
    381a:	8b 52 08             	mov    0x8(%edx),%edx
    381d:	51                   	push   %ecx
    381e:	8d 4d f4             	lea    -0xc(%ebp),%ecx
    3821:	51                   	push   %ecx
    3822:	52                   	push   %edx
    3823:	8b 55 08             	mov    0x8(%ebp),%edx
    3826:	52                   	push   %edx
    3827:	ff d0                	call   *%eax
    3829:	83 c4 0c             	add    $0xc,%esp
    382c:	8b 4d f4             	mov    -0xc(%ebp),%ecx
    382f:	51                   	push   %ecx
    3830:	50                   	push   %eax
    3831:	8b 45 10             	mov    0x10(%ebp),%eax
    3834:	50                   	push   %eax
    3835:	e8 06 a5 00 00       	call   dd40 <async_answer_1@plt>
    383a:	83 c4 10             	add    $0x10,%esp
    383d:	c9                   	leave  
    383e:	c3                   	ret    
    383f:	90                   	nop
    3840:	50                   	push   %eax
    3841:	50                   	push   %eax
    3842:	8b 45 10             	mov    0x10(%ebp),%eax
    3845:	6a f5                	push   $0xfffffff5
    3847:	50                   	push   %eax
    3848:	e8 53 a2 00 00       	call   daa0 <async_answer_0@plt>
    384d:	83 c4 10             	add    $0x10,%esp
    3850:	c9                   	leave  
    3851:	c3                   	ret    
    3852:	8d b4 26 00 00 00 00 	lea    0x0(%esi,%eiz,1),%esi
    3859:	8d bc 27 00 00 00 00 	lea    0x0(%edi,%eiz,1),%edi

00003860 <remote_audio_mixer_get_item_info>:
    3860:	55                   	push   %ebp
    3861:	89 e5                	mov    %esp,%ebp
    3863:	56                   	push   %esi
    3864:	53                   	push   %ebx
    3865:	83 ec 10             	sub    $0x10,%esp
    3868:	8b 45 0c             	mov    0xc(%ebp),%eax
    386b:	8b 40 04             	mov    0x4(%eax),%eax
    386e:	85 c0                	test   %eax,%eax
    3870:	0f 84 c2 00 00 00    	je     3938 <remote_audio_mixer_get_item_info+0xd8>
    3876:	8b 55 14             	mov    0x14(%ebp),%edx
    3879:	8d 4d ec             	lea    -0x14(%ebp),%ecx
    387c:	c7 45 e8 00 00 00 00 	movl   $0x0,-0x18(%ebp)
    3883:	c7 45 ec 00 00 00 00 	movl   $0x0,-0x14(%ebp)
    388a:	8b 52 08             	mov    0x8(%edx),%edx
    388d:	51                   	push   %ecx
    388e:	8d 4d e8             	lea    -0x18(%ebp),%ecx
    3891:	51                   	push   %ecx
    3892:	8b 4d 08             	mov    0x8(%ebp),%ecx
    3895:	52                   	push   %edx
    3896:	51                   	push   %ecx
    3897:	ff d0                	call   *%eax
    3899:	83 c4 10             	add    $0x10,%esp
    389c:	89 c6                	mov    %eax,%esi
    389e:	8b 45 e8             	mov    -0x18(%ebp),%eax
    38a1:	85 c0                	test   %eax,%eax
    38a3:	74 5b                	je     3900 <remote_audio_mixer_get_item_info+0xa0>
    38a5:	83 ec 0c             	sub    $0xc,%esp
    38a8:	50                   	push   %eax
    38a9:	e8 72 a4 00 00       	call   dd20 <str_size@plt>
    38ae:	8b 55 10             	mov    0x10(%ebp),%edx
    38b1:	8d 58 01             	lea    0x1(%eax),%ebx
    38b4:	8b 45 ec             	mov    -0x14(%ebp),%eax
    38b7:	50                   	push   %eax
    38b8:	53                   	push   %ebx
    38b9:	56                   	push   %esi
    38ba:	52                   	push   %edx
    38bb:	e8 f0 a2 00 00       	call   dbb0 <async_answer_2@plt>
    38c0:	83 c4 20             	add    $0x20,%esp
    38c3:	85 f6                	test   %esi,%esi
    38c5:	75 2f                	jne    38f6 <remote_audio_mixer_get_item_info+0x96>
    38c7:	85 db                	test   %ebx,%ebx
    38c9:	74 2b                	je     38f6 <remote_audio_mixer_get_item_info+0x96>
    38cb:	50                   	push   %eax
    38cc:	50                   	push   %eax
    38cd:	8d 45 f0             	lea    -0x10(%ebp),%eax
    38d0:	50                   	push   %eax
    38d1:	8d 45 f4             	lea    -0xc(%ebp),%eax
    38d4:	50                   	push   %eax
    38d5:	e8 d6 a3 00 00       	call   dcb0 <async_data_read_receive@plt>
    38da:	83 c4 10             	add    $0x10,%esp
    38dd:	84 c0                	test   %al,%al
    38df:	74 6f                	je     3950 <remote_audio_mixer_get_item_info+0xf0>
    38e1:	3b 5d f0             	cmp    -0x10(%ebp),%ebx
    38e4:	74 3a                	je     3920 <remote_audio_mixer_get_item_info+0xc0>
    38e6:	50                   	push   %eax
    38e7:	50                   	push   %eax
    38e8:	8b 45 f4             	mov    -0xc(%ebp),%eax
    38eb:	6a fd                	push   $0xfffffffd
    38ed:	50                   	push   %eax
    38ee:	e8 ad a1 00 00       	call   daa0 <async_answer_0@plt>
    38f3:	83 c4 10             	add    $0x10,%esp
    38f6:	8d 65 f8             	lea    -0x8(%ebp),%esp
    38f9:	5b                   	pop    %ebx
    38fa:	5e                   	pop    %esi
    38fb:	5d                   	pop    %ebp
    38fc:	c3                   	ret    
    38fd:	8d 76 00             	lea    0x0(%esi),%esi
    3900:	8b 45 ec             	mov    -0x14(%ebp),%eax
    3903:	8b 55 10             	mov    0x10(%ebp),%edx
    3906:	50                   	push   %eax
    3907:	6a 00                	push   $0x0
    3909:	56                   	push   %esi
    390a:	52                   	push   %edx
    390b:	e8 a0 a2 00 00       	call   dbb0 <async_answer_2@plt>
    3910:	83 c4 10             	add    $0x10,%esp
    3913:	8d 65 f8             	lea    -0x8(%ebp),%esp
    3916:	5b                   	pop    %ebx
    3917:	5e                   	pop    %esi
    3918:	5d                   	pop    %ebp
    3919:	c3                   	ret    
    391a:	8d b6 00 00 00 00    	lea    0x0(%esi),%esi
    3920:	8b 75 f4             	mov    -0xc(%ebp),%esi
    3923:	51                   	push   %ecx
    3924:	53                   	push   %ebx
    3925:	8b 5d e8             	mov    -0x18(%ebp),%ebx
    3928:	53                   	push   %ebx
    3929:	56                   	push   %esi
    392a:	e8 f1 a0 00 00       	call   da20 <async_data_read_finalize@plt>
    392f:	83 c4 10             	add    $0x10,%esp
    3932:	eb c2                	jmp    38f6 <remote_audio_mixer_get_item_info+0x96>
    3934:	8d 74 26 00          	lea    0x0(%esi,%eiz,1),%esi
    3938:	8b 75 10             	mov    0x10(%ebp),%esi
    393b:	53                   	push   %ebx
    393c:	53                   	push   %ebx
    393d:	6a f5                	push   $0xfffffff5
    393f:	56                   	push   %esi
    3940:	e8 5b a1 00 00       	call   daa0 <async_answer_0@plt>
    3945:	83 c4 10             	add    $0x10,%esp
    3948:	8d 65 f8             	lea    -0x8(%ebp),%esp
    394b:	5b                   	pop    %ebx
    394c:	5e                   	pop    %esi
    394d:	5d                   	pop    %ebp
    394e:	c3                   	ret    
    394f:	90                   	nop
    3950:	50                   	push   %eax
    3951:	50                   	push   %eax
    3952:	8b 45 f4             	mov    -0xc(%ebp),%eax
    3955:	6a f8                	push   $0xfffffff8
    3957:	50                   	push   %eax
    3958:	e8 43 a1 00 00       	call   daa0 <async_answer_0@plt>
    395d:	83 c4 10             	add    $0x10,%esp
    3960:	eb 94                	jmp    38f6 <remote_audio_mixer_get_item_info+0x96>
    3962:	8d b4 26 00 00 00 00 	lea    0x0(%esi,%eiz,1),%esi
    3969:	8d bc 27 00 00 00 00 	lea    0x0(%edi,%eiz,1),%edi

00003970 <remote_audio_mixer_get_info>:
    3970:	55                   	push   %ebp
    3971:	89 e5                	mov    %esp,%ebp
    3973:	56                   	push   %esi
    3974:	53                   	push   %ebx
    3975:	83 ec 10             	sub    $0x10,%esp
    3978:	8b 45 0c             	mov    0xc(%ebp),%eax
    397b:	8b 00                	mov    (%eax),%eax
    397d:	85 c0                	test   %eax,%eax
    397f:	0f 84 bb 00 00 00    	je     3a40 <remote_audio_mixer_get_info+0xd0>
    3985:	8d 55 ec             	lea    -0x14(%ebp),%edx
    3988:	8b 5d 08             	mov    0x8(%ebp),%ebx
    398b:	c7 45 e8 00 00 00 00 	movl   $0x0,-0x18(%ebp)
    3992:	c7 45 ec 00 00 00 00 	movl   $0x0,-0x14(%ebp)
    3999:	51                   	push   %ecx
    399a:	52                   	push   %edx
    399b:	8d 55 e8             	lea    -0x18(%ebp),%edx
    399e:	52                   	push   %edx
    399f:	53                   	push   %ebx
    39a0:	ff d0                	call   *%eax
    39a2:	83 c4 10             	add    $0x10,%esp
    39a5:	89 c6                	mov    %eax,%esi
    39a7:	8b 45 e8             	mov    -0x18(%ebp),%eax
    39aa:	85 c0                	test   %eax,%eax
    39ac:	74 5a                	je     3a08 <remote_audio_mixer_get_info+0x98>
    39ae:	83 ec 0c             	sub    $0xc,%esp
    39b1:	50                   	push   %eax
    39b2:	e8 69 a3 00 00       	call   dd20 <str_size@plt>
    39b7:	8b 55 10             	mov    0x10(%ebp),%edx
    39ba:	8d 58 01             	lea    0x1(%eax),%ebx
    39bd:	8b 45 ec             	mov    -0x14(%ebp),%eax
    39c0:	50                   	push   %eax
    39c1:	53                   	push   %ebx
    39c2:	56                   	push   %esi
    39c3:	52                   	push   %edx
    39c4:	e8 e7 a1 00 00       	call   dbb0 <async_answer_2@plt>
    39c9:	83 c4 20             	add    $0x20,%esp
    39cc:	85 f6                	test   %esi,%esi
    39ce:	75 2f                	jne    39ff <remote_audio_mixer_get_info+0x8f>
    39d0:	85 db                	test   %ebx,%ebx
    39d2:	74 2b                	je     39ff <remote_audio_mixer_get_info+0x8f>
    39d4:	50                   	push   %eax
    39d5:	50                   	push   %eax
    39d6:	8d 45 f0             	lea    -0x10(%ebp),%eax
    39d9:	50                   	push   %eax
    39da:	8d 45 f4             	lea    -0xc(%ebp),%eax
    39dd:	50                   	push   %eax
    39de:	e8 cd a2 00 00       	call   dcb0 <async_data_read_receive@plt>
    39e3:	83 c4 10             	add    $0x10,%esp
    39e6:	84 c0                	test   %al,%al
    39e8:	74 6e                	je     3a58 <remote_audio_mixer_get_info+0xe8>
    39ea:	3b 5d f0             	cmp    -0x10(%ebp),%ebx
    39ed:	74 39                	je     3a28 <remote_audio_mixer_get_info+0xb8>
    39ef:	50                   	push   %eax
    39f0:	50                   	push   %eax
    39f1:	8b 45 f4             	mov    -0xc(%ebp),%eax
    39f4:	6a fd                	push   $0xfffffffd
    39f6:	50                   	push   %eax
    39f7:	e8 a4 a0 00 00       	call   daa0 <async_answer_0@plt>
    39fc:	83 c4 10             	add    $0x10,%esp
    39ff:	8d 65 f8             	lea    -0x8(%ebp),%esp
    3a02:	5b                   	pop    %ebx
    3a03:	5e                   	pop    %esi
    3a04:	5d                   	pop    %ebp
    3a05:	c3                   	ret    
    3a06:	66 90                	xchg   %ax,%ax
    3a08:	8b 45 ec             	mov    -0x14(%ebp),%eax
    3a0b:	8b 55 10             	mov    0x10(%ebp),%edx
    3a0e:	50                   	push   %eax
    3a0f:	6a 00                	push   $0x0
    3a11:	56                   	push   %esi
    3a12:	52                   	push   %edx
    3a13:	e8 98 a1 00 00       	call   dbb0 <async_answer_2@plt>
    3a18:	83 c4 10             	add    $0x10,%esp
    3a1b:	8d 65 f8             	lea    -0x8(%ebp),%esp
    3a1e:	5b                   	pop    %ebx
    3a1f:	5e                   	pop    %esi
    3a20:	5d                   	pop    %ebp
    3a21:	c3                   	ret    
    3a22:	8d b6 00 00 00 00    	lea    0x0(%esi),%esi
    3a28:	8b 75 f4             	mov    -0xc(%ebp),%esi
    3a2b:	51                   	push   %ecx
    3a2c:	53                   	push   %ebx
    3a2d:	8b 5d e8             	mov    -0x18(%ebp),%ebx
    3a30:	53                   	push   %ebx
    3a31:	56                   	push   %esi
    3a32:	e8 e9 9f 00 00       	call   da20 <async_data_read_finalize@plt>
    3a37:	83 c4 10             	add    $0x10,%esp
    3a3a:	eb c3                	jmp    39ff <remote_audio_mixer_get_info+0x8f>
    3a3c:	8d 74 26 00          	lea    0x0(%esi,%eiz,1),%esi
    3a40:	8b 45 10             	mov    0x10(%ebp),%eax
    3a43:	56                   	push   %esi
    3a44:	56                   	push   %esi
    3a45:	6a f5                	push   $0xfffffff5
    3a47:	50                   	push   %eax
    3a48:	e8 53 a0 00 00       	call   daa0 <async_answer_0@plt>
    3a4d:	83 c4 10             	add    $0x10,%esp
    3a50:	8d 65 f8             	lea    -0x8(%ebp),%esp
    3a53:	5b                   	pop    %ebx
    3a54:	5e                   	pop    %esi
    3a55:	5d                   	pop    %ebp
    3a56:	c3                   	ret    
    3a57:	90                   	nop
    3a58:	50                   	push   %eax
    3a59:	50                   	push   %eax
    3a5a:	8b 45 f4             	mov    -0xc(%ebp),%eax
    3a5d:	6a f8                	push   $0xfffffff8
    3a5f:	50                   	push   %eax
    3a60:	e8 3b a0 00 00       	call   daa0 <async_answer_0@plt>
    3a65:	83 c4 10             	add    $0x10,%esp
    3a68:	eb 95                	jmp    39ff <remote_audio_mixer_get_info+0x8f>
    3a6a:	8d b6 00 00 00 00    	lea    0x0(%esi),%esi

00003a70 <audio_mixer_get_info>:
    3a70:	55                   	push   %ebp
    3a71:	89 e5                	mov    %esp,%ebp
    3a73:	57                   	push   %edi
    3a74:	56                   	push   %esi
    3a75:	53                   	push   %ebx
    3a76:	83 ec 2c             	sub    $0x2c,%esp
    3a79:	8b 75 08             	mov    0x8(%ebp),%esi
    3a7c:	85 f6                	test   %esi,%esi
    3a7e:	0f 84 bc 00 00 00    	je     3b40 <audio_mixer_get_info+0xd0>
    3a84:	50                   	push   %eax
    3a85:	8d 45 e4             	lea    -0x1c(%ebp),%eax
    3a88:	6a 00                	push   $0x0
    3a8a:	6a 00                	push   $0x0
    3a8c:	6a 00                	push   $0x0
    3a8e:	50                   	push   %eax
    3a8f:	8d 45 e0             	lea    -0x20(%ebp),%eax
    3a92:	50                   	push   %eax
    3a93:	6a 00                	push   $0x0
    3a95:	6a 00                	push   $0x0
    3a97:	6a 00                	push   $0x0
    3a99:	6a 00                	push   $0x0
    3a9b:	68 03 04 00 00       	push   $0x403
    3aa0:	56                   	push   %esi
    3aa1:	e8 ea 9f 00 00       	call   da90 <async_req_fast@plt>
    3aa6:	83 c4 30             	add    $0x30,%esp
    3aa9:	89 c3                	mov    %eax,%ebx
    3aab:	85 c0                	test   %eax,%eax
    3aad:	8b 45 0c             	mov    0xc(%ebp),%eax
    3ab0:	0f 94 c2             	sete   %dl
    3ab3:	85 c0                	test   %eax,%eax
    3ab5:	74 04                	je     3abb <audio_mixer_get_info+0x4b>
    3ab7:	84 d2                	test   %dl,%dl
    3ab9:	75 1d                	jne    3ad8 <audio_mixer_get_info+0x68>
    3abb:	8b 45 10             	mov    0x10(%ebp),%eax
    3abe:	85 c0                	test   %eax,%eax
    3ac0:	74 57                	je     3b19 <audio_mixer_get_info+0xa9>
    3ac2:	84 d2                	test   %dl,%dl
    3ac4:	74 53                	je     3b19 <audio_mixer_get_info+0xa9>
    3ac6:	8b 4d 10             	mov    0x10(%ebp),%ecx
    3ac9:	8b 45 e4             	mov    -0x1c(%ebp),%eax
    3acc:	89 01                	mov    %eax,(%ecx)
    3ace:	89 d8                	mov    %ebx,%eax
    3ad0:	8d 65 f4             	lea    -0xc(%ebp),%esp
    3ad3:	5b                   	pop    %ebx
    3ad4:	5e                   	pop    %esi
    3ad5:	5f                   	pop    %edi
    3ad6:	5d                   	pop    %ebp
    3ad7:	c3                   	ret    
    3ad8:	8b 45 e0             	mov    -0x20(%ebp),%eax
    3adb:	88 55 d4             	mov    %dl,-0x2c(%ebp)
    3ade:	57                   	push   %edi
    3adf:	57                   	push   %edi
    3ae0:	50                   	push   %eax
    3ae1:	6a 01                	push   $0x1
    3ae3:	e8 68 a0 00 00       	call   db50 <calloc@plt>
    3ae8:	83 c4 10             	add    $0x10,%esp
    3aeb:	89 c7                	mov    %eax,%edi
    3aed:	85 c0                	test   %eax,%eax
    3aef:	8a 55 d4             	mov    -0x2c(%ebp),%dl
    3af2:	74 53                	je     3b47 <audio_mixer_get_info+0xd7>
    3af4:	8b 4d e0             	mov    -0x20(%ebp),%ecx
    3af7:	88 55 d4             	mov    %dl,-0x2c(%ebp)
    3afa:	52                   	push   %edx
    3afb:	51                   	push   %ecx
    3afc:	50                   	push   %eax
    3afd:	56                   	push   %esi
    3afe:	e8 bd a1 00 00       	call   dcc0 <async_data_read_start@plt>
    3b03:	83 c4 10             	add    $0x10,%esp
    3b06:	8a 55 d4             	mov    -0x2c(%ebp),%dl
    3b09:	85 c0                	test   %eax,%eax
    3b0b:	75 1b                	jne    3b28 <audio_mixer_get_info+0xb8>
    3b0d:	8b 45 0c             	mov    0xc(%ebp),%eax
    3b10:	89 38                	mov    %edi,(%eax)
    3b12:	8b 45 10             	mov    0x10(%ebp),%eax
    3b15:	85 c0                	test   %eax,%eax
    3b17:	75 a9                	jne    3ac2 <audio_mixer_get_info+0x52>
    3b19:	8d 65 f4             	lea    -0xc(%ebp),%esp
    3b1c:	89 d8                	mov    %ebx,%eax
    3b1e:	5b                   	pop    %ebx
    3b1f:	5e                   	pop    %esi
    3b20:	5f                   	pop    %edi
    3b21:	5d                   	pop    %ebp
    3b22:	c3                   	ret    
    3b23:	90                   	nop
    3b24:	8d 74 26 00          	lea    0x0(%esi,%eiz,1),%esi
    3b28:	83 ec 0c             	sub    $0xc,%esp
    3b2b:	89 45 d4             	mov    %eax,-0x2c(%ebp)
    3b2e:	57                   	push   %edi
    3b2f:	e8 2c a3 00 00       	call   de60 <free@plt>
    3b34:	83 c4 10             	add    $0x10,%esp
    3b37:	8b 45 d4             	mov    -0x2c(%ebp),%eax
    3b3a:	eb 94                	jmp    3ad0 <audio_mixer_get_info+0x60>
    3b3c:	8d 74 26 00          	lea    0x0(%esi,%eiz,1),%esi
    3b40:	b8 f2 ff ff ff       	mov    $0xfffffff2,%eax
    3b45:	eb 89                	jmp    3ad0 <audio_mixer_get_info+0x60>
    3b47:	53                   	push   %ebx
    3b48:	6a 00                	push   $0x0
    3b4a:	6a ff                	push   $0xffffffff
    3b4c:	56                   	push   %esi
    3b4d:	e8 6e a1 00 00       	call   dcc0 <async_data_read_start@plt>
    3b52:	83 c4 10             	add    $0x10,%esp
    3b55:	b8 fe ff ff ff       	mov    $0xfffffffe,%eax
    3b5a:	e9 71 ff ff ff       	jmp    3ad0 <audio_mixer_get_info+0x60>
    3b5f:	90                   	nop

00003b60 <audio_mixer_get_item_info>:
    3b60:	55                   	push   %ebp
    3b61:	89 e5                	mov    %esp,%ebp
    3b63:	57                   	push   %edi
    3b64:	56                   	push   %esi
    3b65:	53                   	push   %ebx
    3b66:	83 ec 2c             	sub    $0x2c,%esp
    3b69:	8b 75 08             	mov    0x8(%ebp),%esi
    3b6c:	85 f6                	test   %esi,%esi
    3b6e:	0f 84 c4 00 00 00    	je     3c38 <audio_mixer_get_item_info+0xd8>
    3b74:	50                   	push   %eax
    3b75:	8d 45 e4             	lea    -0x1c(%ebp),%eax
    3b78:	6a 00                	push   $0x0
    3b7a:	6a 00                	push   $0x0
    3b7c:	6a 00                	push   $0x0
    3b7e:	50                   	push   %eax
    3b7f:	8d 45 e0             	lea    -0x20(%ebp),%eax
    3b82:	50                   	push   %eax
    3b83:	8b 45 0c             	mov    0xc(%ebp),%eax
    3b86:	6a 00                	push   $0x0
    3b88:	6a 00                	push   $0x0
    3b8a:	50                   	push   %eax
    3b8b:	6a 01                	push   $0x1
    3b8d:	68 03 04 00 00       	push   $0x403
    3b92:	56                   	push   %esi
    3b93:	e8 f8 9e 00 00       	call   da90 <async_req_fast@plt>
    3b98:	83 c4 30             	add    $0x30,%esp
    3b9b:	89 c3                	mov    %eax,%ebx
    3b9d:	85 c0                	test   %eax,%eax
    3b9f:	8b 45 10             	mov    0x10(%ebp),%eax
    3ba2:	0f 94 c2             	sete   %dl
    3ba5:	85 c0                	test   %eax,%eax
    3ba7:	74 04                	je     3bad <audio_mixer_get_item_info+0x4d>
    3ba9:	84 d2                	test   %dl,%dl
    3bab:	75 23                	jne    3bd0 <audio_mixer_get_item_info+0x70>
    3bad:	8b 45 14             	mov    0x14(%ebp),%eax
    3bb0:	85 c0                	test   %eax,%eax
    3bb2:	74 5d                	je     3c11 <audio_mixer_get_item_info+0xb1>
    3bb4:	84 d2                	test   %dl,%dl
    3bb6:	74 59                	je     3c11 <audio_mixer_get_item_info+0xb1>
    3bb8:	8b 4d 14             	mov    0x14(%ebp),%ecx
    3bbb:	8b 45 e4             	mov    -0x1c(%ebp),%eax
    3bbe:	89 01                	mov    %eax,(%ecx)
    3bc0:	89 d8                	mov    %ebx,%eax
    3bc2:	8d 65 f4             	lea    -0xc(%ebp),%esp
    3bc5:	5b                   	pop    %ebx
    3bc6:	5e                   	pop    %esi
    3bc7:	5f                   	pop    %edi
    3bc8:	5d                   	pop    %ebp
    3bc9:	c3                   	ret    
    3bca:	8d b6 00 00 00 00    	lea    0x0(%esi),%esi
    3bd0:	8b 45 e0             	mov    -0x20(%ebp),%eax
    3bd3:	88 55 d4             	mov    %dl,-0x2c(%ebp)
    3bd6:	57                   	push   %edi
    3bd7:	57                   	push   %edi
    3bd8:	50                   	push   %eax
    3bd9:	6a 01                	push   $0x1
    3bdb:	e8 70 9f 00 00       	call   db50 <calloc@plt>
    3be0:	83 c4 10             	add    $0x10,%esp
    3be3:	89 c7                	mov    %eax,%edi
    3be5:	85 c0                	test   %eax,%eax
    3be7:	8a 55 d4             	mov    -0x2c(%ebp),%dl
    3bea:	74 53                	je     3c3f <audio_mixer_get_item_info+0xdf>
    3bec:	8b 4d e0             	mov    -0x20(%ebp),%ecx
    3bef:	88 55 d4             	mov    %dl,-0x2c(%ebp)
    3bf2:	52                   	push   %edx
    3bf3:	51                   	push   %ecx
    3bf4:	50                   	push   %eax
    3bf5:	56                   	push   %esi
    3bf6:	e8 c5 a0 00 00       	call   dcc0 <async_data_read_start@plt>
    3bfb:	83 c4 10             	add    $0x10,%esp
    3bfe:	8a 55 d4             	mov    -0x2c(%ebp),%dl
    3c01:	85 c0                	test   %eax,%eax
    3c03:	75 1b                	jne    3c20 <audio_mixer_get_item_info+0xc0>
    3c05:	8b 45 10             	mov    0x10(%ebp),%eax
    3c08:	89 38                	mov    %edi,(%eax)
    3c0a:	8b 45 14             	mov    0x14(%ebp),%eax
    3c0d:	85 c0                	test   %eax,%eax
    3c0f:	75 a3                	jne    3bb4 <audio_mixer_get_item_info+0x54>
    3c11:	8d 65 f4             	lea    -0xc(%ebp),%esp
    3c14:	89 d8                	mov    %ebx,%eax
    3c16:	5b                   	pop    %ebx
    3c17:	5e                   	pop    %esi
    3c18:	5f                   	pop    %edi
    3c19:	5d                   	pop    %ebp
    3c1a:	c3                   	ret    
    3c1b:	90                   	nop
    3c1c:	8d 74 26 00          	lea    0x0(%esi,%eiz,1),%esi
    3c20:	83 ec 0c             	sub    $0xc,%esp
    3c23:	89 45 d4             	mov    %eax,-0x2c(%ebp)
    3c26:	57                   	push   %edi
    3c27:	e8 34 a2 00 00       	call   de60 <free@plt>
    3c2c:	83 c4 10             	add    $0x10,%esp
    3c2f:	8b 45 d4             	mov    -0x2c(%ebp),%eax
    3c32:	eb 8e                	jmp    3bc2 <audio_mixer_get_item_info+0x62>
    3c34:	8d 74 26 00          	lea    0x0(%esi,%eiz,1),%esi
    3c38:	b8 f2 ff ff ff       	mov    $0xfffffff2,%eax
    3c3d:	eb 83                	jmp    3bc2 <audio_mixer_get_item_info+0x62>
    3c3f:	53                   	push   %ebx
    3c40:	6a 00                	push   $0x0
    3c42:	6a ff                	push   $0xffffffff
    3c44:	56                   	push   %esi
    3c45:	e8 76 a0 00 00       	call   dcc0 <async_data_read_start@plt>
    3c4a:	83 c4 10             	add    $0x10,%esp
    3c4d:	b8 fe ff ff ff       	mov    $0xfffffffe,%eax
    3c52:	e9 6b ff ff ff       	jmp    3bc2 <audio_mixer_get_item_info+0x62>
    3c57:	89 f6                	mov    %esi,%esi
    3c59:	8d bc 27 00 00 00 00 	lea    0x0(%edi,%eiz,1),%edi

00003c60 <audio_mixer_set_item_level>:
    3c60:	55                   	push   %ebp
    3c61:	89 e5                	mov    %esp,%ebp
    3c63:	83 ec 08             	sub    $0x8,%esp
    3c66:	8b 45 08             	mov    0x8(%ebp),%eax
    3c69:	85 c0                	test   %eax,%eax
    3c6b:	74 2b                	je     3c98 <audio_mixer_set_item_level+0x38>
    3c6d:	8b 4d 10             	mov    0x10(%ebp),%ecx
    3c70:	52                   	push   %edx
    3c71:	8b 55 0c             	mov    0xc(%ebp),%edx
    3c74:	6a 00                	push   $0x0
    3c76:	6a 00                	push   $0x0
    3c78:	6a 00                	push   $0x0
    3c7a:	6a 00                	push   $0x0
    3c7c:	6a 00                	push   $0x0
    3c7e:	6a 00                	push   $0x0
    3c80:	51                   	push   %ecx
    3c81:	52                   	push   %edx
    3c82:	6a 02                	push   $0x2
    3c84:	68 03 04 00 00       	push   $0x403
    3c89:	50                   	push   %eax
    3c8a:	e8 01 9e 00 00       	call   da90 <async_req_fast@plt>
    3c8f:	83 c4 30             	add    $0x30,%esp
    3c92:	c9                   	leave  
    3c93:	c3                   	ret    
    3c94:	8d 74 26 00          	lea    0x0(%esi,%eiz,1),%esi
    3c98:	b8 f2 ff ff ff       	mov    $0xfffffff2,%eax
    3c9d:	c9                   	leave  
    3c9e:	c3                   	ret    
    3c9f:	90                   	nop

00003ca0 <audio_mixer_get_item_level>:
    3ca0:	55                   	push   %ebp
    3ca1:	89 e5                	mov    %esp,%ebp
    3ca3:	53                   	push   %ebx
    3ca4:	83 ec 14             	sub    $0x14,%esp
    3ca7:	8b 45 08             	mov    0x8(%ebp),%eax
    3caa:	8b 5d 10             	mov    0x10(%ebp),%ebx
    3cad:	85 c0                	test   %eax,%eax
    3caf:	74 37                	je     3ce8 <audio_mixer_get_item_level+0x48>
    3cb1:	8b 4d 0c             	mov    0xc(%ebp),%ecx
    3cb4:	52                   	push   %edx
    3cb5:	8d 55 f4             	lea    -0xc(%ebp),%edx
    3cb8:	6a 00                	push   $0x0
    3cba:	6a 00                	push   $0x0
    3cbc:	6a 00                	push   $0x0
    3cbe:	6a 00                	push   $0x0
    3cc0:	52                   	push   %edx
    3cc1:	6a 00                	push   $0x0
    3cc3:	6a 00                	push   $0x0
    3cc5:	51                   	push   %ecx
    3cc6:	6a 03                	push   $0x3
    3cc8:	68 03 04 00 00       	push   $0x403
    3ccd:	50                   	push   %eax
    3cce:	e8 bd 9d 00 00       	call   da90 <async_req_fast@plt>
    3cd3:	83 c4 30             	add    $0x30,%esp
    3cd6:	85 c0                	test   %eax,%eax
    3cd8:	75 09                	jne    3ce3 <audio_mixer_get_item_level+0x43>
    3cda:	85 db                	test   %ebx,%ebx
    3cdc:	74 05                	je     3ce3 <audio_mixer_get_item_level+0x43>
    3cde:	8b 55 f4             	mov    -0xc(%ebp),%edx
    3ce1:	89 13                	mov    %edx,(%ebx)
    3ce3:	8b 5d fc             	mov    -0x4(%ebp),%ebx
    3ce6:	c9                   	leave  
    3ce7:	c3                   	ret    
    3ce8:	b8 f2 ff ff ff       	mov    $0xfffffff2,%eax
    3ced:	eb f4                	jmp    3ce3 <audio_mixer_get_item_level+0x43>
    3cef:	90                   	nop

00003cf0 <remote_audio_pcm_stop_capture>:
    3cf0:	55                   	push   %ebp
    3cf1:	89 e5                	mov    %esp,%ebp
    3cf3:	53                   	push   %ebx
    3cf4:	50                   	push   %eax
    3cf5:	8b 45 14             	mov    0x14(%ebp),%eax
    3cf8:	8b 4d 08             	mov    0x8(%ebp),%ecx
    3cfb:	8b 5d 10             	mov    0x10(%ebp),%ebx
    3cfe:	8b 50 08             	mov    0x8(%eax),%edx
    3d01:	85 d2                	test   %edx,%edx
    3d03:	8b 55 0c             	mov    0xc(%ebp),%edx
    3d06:	0f 95 c0             	setne  %al
    3d09:	8b 52 2c             	mov    0x2c(%edx),%edx
    3d0c:	85 d2                	test   %edx,%edx
    3d0e:	74 20                	je     3d30 <remote_audio_pcm_stop_capture+0x40>
    3d10:	83 ec 08             	sub    $0x8,%esp
    3d13:	25 ff 00 00 00       	and    $0xff,%eax
    3d18:	50                   	push   %eax
    3d19:	51                   	push   %ecx
    3d1a:	ff d2                	call   *%edx
    3d1c:	89 5d 08             	mov    %ebx,0x8(%ebp)
    3d1f:	83 c4 10             	add    $0x10,%esp
    3d22:	8b 5d fc             	mov    -0x4(%ebp),%ebx
    3d25:	89 45 0c             	mov    %eax,0xc(%ebp)
    3d28:	c9                   	leave  
    3d29:	e9 72 9d 00 00       	jmp    daa0 <async_answer_0@plt>
    3d2e:	66 90                	xchg   %ax,%ax
    3d30:	89 5d 08             	mov    %ebx,0x8(%ebp)
    3d33:	b8 f5 ff ff ff       	mov    $0xfffffff5,%eax
    3d38:	8b 5d fc             	mov    -0x4(%ebp),%ebx
    3d3b:	89 45 0c             	mov    %eax,0xc(%ebp)
    3d3e:	c9                   	leave  
    3d3f:	e9 5c 9d 00 00       	jmp    daa0 <async_answer_0@plt>
    3d44:	8d b6 00 00 00 00    	lea    0x0(%esi),%esi
    3d4a:	8d bf 00 00 00 00    	lea    0x0(%edi),%edi

00003d50 <remote_audio_pcm_start_capture>:
    3d50:	55                   	push   %ebp
    3d51:	89 e5                	mov    %esp,%ebp
    3d53:	57                   	push   %edi
    3d54:	56                   	push   %esi
    3d55:	53                   	push   %ebx
    3d56:	83 ec 0c             	sub    $0xc,%esp
    3d59:	8b 55 14             	mov    0x14(%ebp),%edx
    3d5c:	8b 7d 0c             	mov    0xc(%ebp),%edi
    3d5f:	8b 4d 08             	mov    0x8(%ebp),%ecx
    3d62:	8b 5d 10             	mov    0x10(%ebp),%ebx
    3d65:	8b 42 10             	mov    0x10(%edx),%eax
    3d68:	8b 7f 28             	mov    0x28(%edi),%edi
    3d6b:	89 c6                	mov    %eax,%esi
    3d6d:	25 ff ff 00 00       	and    $0xffff,%eax
    3d72:	c1 ee 10             	shr    $0x10,%esi
    3d75:	85 ff                	test   %edi,%edi
    3d77:	74 27                	je     3da0 <remote_audio_pcm_start_capture+0x50>
    3d79:	83 ec 0c             	sub    $0xc,%esp
    3d7c:	50                   	push   %eax
    3d7d:	8b 42 0c             	mov    0xc(%edx),%eax
    3d80:	50                   	push   %eax
    3d81:	56                   	push   %esi
    3d82:	8b 52 08             	mov    0x8(%edx),%edx
    3d85:	52                   	push   %edx
    3d86:	51                   	push   %ecx
    3d87:	ff d7                	call   *%edi
    3d89:	83 c4 20             	add    $0x20,%esp
    3d8c:	89 5d 08             	mov    %ebx,0x8(%ebp)
    3d8f:	89 45 0c             	mov    %eax,0xc(%ebp)
    3d92:	8d 65 f4             	lea    -0xc(%ebp),%esp
    3d95:	5b                   	pop    %ebx
    3d96:	5e                   	pop    %esi
    3d97:	5f                   	pop    %edi
    3d98:	5d                   	pop    %ebp
    3d99:	e9 02 9d 00 00       	jmp    daa0 <async_answer_0@plt>
    3d9e:	66 90                	xchg   %ax,%ax
    3da0:	b8 f5 ff ff ff       	mov    $0xfffffff5,%eax
    3da5:	eb e5                	jmp    3d8c <remote_audio_pcm_start_capture+0x3c>
    3da7:	89 f6                	mov    %esi,%esi
    3da9:	8d bc 27 00 00 00 00 	lea    0x0(%edi,%eiz,1),%edi

00003db0 <remote_audio_pcm_stop_playback>:
    3db0:	55                   	push   %ebp
    3db1:	89 e5                	mov    %esp,%ebp
    3db3:	53                   	push   %ebx
    3db4:	50                   	push   %eax
    3db5:	8b 45 14             	mov    0x14(%ebp),%eax
    3db8:	8b 4d 08             	mov    0x8(%ebp),%ecx
    3dbb:	8b 5d 10             	mov    0x10(%ebp),%ebx
    3dbe:	8b 50 08             	mov    0x8(%eax),%edx
    3dc1:	85 d2                	test   %edx,%edx
    3dc3:	8b 55 0c             	mov    0xc(%ebp),%edx
    3dc6:	0f 95 c0             	setne  %al
    3dc9:	8b 52 24             	mov    0x24(%edx),%edx
    3dcc:	85 d2                	test   %edx,%edx
    3dce:	74 20                	je     3df0 <remote_audio_pcm_stop_playback+0x40>
    3dd0:	83 ec 08             	sub    $0x8,%esp
    3dd3:	25 ff 00 00 00       	and    $0xff,%eax
    3dd8:	50                   	push   %eax
    3dd9:	51                   	push   %ecx
    3dda:	ff d2                	call   *%edx
    3ddc:	89 5d 08             	mov    %ebx,0x8(%ebp)
    3ddf:	83 c4 10             	add    $0x10,%esp
    3de2:	8b 5d fc             	mov    -0x4(%ebp),%ebx
    3de5:	89 45 0c             	mov    %eax,0xc(%ebp)
    3de8:	c9                   	leave  
    3de9:	e9 b2 9c 00 00       	jmp    daa0 <async_answer_0@plt>
    3dee:	66 90                	xchg   %ax,%ax
    3df0:	89 5d 08             	mov    %ebx,0x8(%ebp)
    3df3:	b8 f5 ff ff ff       	mov    $0xfffffff5,%eax
    3df8:	8b 5d fc             	mov    -0x4(%ebp),%ebx
    3dfb:	89 45 0c             	mov    %eax,0xc(%ebp)
    3dfe:	c9                   	leave  
    3dff:	e9 9c 9c 00 00       	jmp    daa0 <async_answer_0@plt>
    3e04:	8d b6 00 00 00 00    	lea    0x0(%esi),%esi
    3e0a:	8d bf 00 00 00 00    	lea    0x0(%edi),%edi

00003e10 <remote_audio_pcm_start_playback>:
    3e10:	55                   	push   %ebp
    3e11:	89 e5                	mov    %esp,%ebp
    3e13:	57                   	push   %edi
    3e14:	56                   	push   %esi
    3e15:	53                   	push   %ebx
    3e16:	83 ec 0c             	sub    $0xc,%esp
    3e19:	8b 4d 14             	mov    0x14(%ebp),%ecx
    3e1c:	8b 7d 0c             	mov    0xc(%ebp),%edi
    3e1f:	8b 75 08             	mov    0x8(%ebp),%esi
    3e22:	8b 5d 10             	mov    0x10(%ebp),%ebx
    3e25:	8b 41 10             	mov    0x10(%ecx),%eax
    3e28:	8b 7f 20             	mov    0x20(%edi),%edi
    3e2b:	89 c2                	mov    %eax,%edx
    3e2d:	25 ff ff 00 00       	and    $0xffff,%eax
    3e32:	c1 ea 10             	shr    $0x10,%edx
    3e35:	81 e2 ff 00 00 00    	and    $0xff,%edx
    3e3b:	85 ff                	test   %edi,%edi
    3e3d:	74 29                	je     3e68 <remote_audio_pcm_start_playback+0x58>
    3e3f:	83 ec 0c             	sub    $0xc,%esp
    3e42:	50                   	push   %eax
    3e43:	8b 41 0c             	mov    0xc(%ecx),%eax
    3e46:	50                   	push   %eax
    3e47:	52                   	push   %edx
    3e48:	8b 51 08             	mov    0x8(%ecx),%edx
    3e4b:	52                   	push   %edx
    3e4c:	56                   	push   %esi
    3e4d:	ff d7                	call   *%edi
    3e4f:	83 c4 20             	add    $0x20,%esp
    3e52:	89 5d 08             	mov    %ebx,0x8(%ebp)
    3e55:	89 45 0c             	mov    %eax,0xc(%ebp)
    3e58:	8d 65 f4             	lea    -0xc(%ebp),%esp
    3e5b:	5b                   	pop    %ebx
    3e5c:	5e                   	pop    %esi
    3e5d:	5f                   	pop    %edi
    3e5e:	5d                   	pop    %ebp
    3e5f:	e9 3c 9c 00 00       	jmp    daa0 <async_answer_0@plt>
    3e64:	8d 74 26 00          	lea    0x0(%esi,%eiz,1),%esi
    3e68:	b8 f5 ff ff ff       	mov    $0xfffffff5,%eax
    3e6d:	eb e3                	jmp    3e52 <remote_audio_pcm_start_playback+0x42>
    3e6f:	90                   	nop

00003e70 <remote_audio_pcm_release_buffer>:
    3e70:	55                   	push   %ebp
    3e71:	89 e5                	mov    %esp,%ebp
    3e73:	53                   	push   %ebx
    3e74:	50                   	push   %eax
    3e75:	8b 45 0c             	mov    0xc(%ebp),%eax
    3e78:	8b 55 08             	mov    0x8(%ebp),%edx
    3e7b:	8b 5d 10             	mov    0x10(%ebp),%ebx
    3e7e:	8b 40 14             	mov    0x14(%eax),%eax
    3e81:	85 c0                	test   %eax,%eax
    3e83:	74 1b                	je     3ea0 <remote_audio_pcm_release_buffer+0x30>
    3e85:	83 ec 0c             	sub    $0xc,%esp
    3e88:	52                   	push   %edx
    3e89:	ff d0                	call   *%eax
    3e8b:	89 5d 08             	mov    %ebx,0x8(%ebp)
    3e8e:	83 c4 10             	add    $0x10,%esp
    3e91:	8b 5d fc             	mov    -0x4(%ebp),%ebx
    3e94:	89 45 0c             	mov    %eax,0xc(%ebp)
    3e97:	c9                   	leave  
    3e98:	e9 03 9c 00 00       	jmp    daa0 <async_answer_0@plt>
    3e9d:	8d 76 00             	lea    0x0(%esi),%esi
    3ea0:	89 5d 08             	mov    %ebx,0x8(%ebp)
    3ea3:	b8 f5 ff ff ff       	mov    $0xfffffff5,%eax
    3ea8:	8b 5d fc             	mov    -0x4(%ebp),%ebx
    3eab:	89 45 0c             	mov    %eax,0xc(%ebp)
    3eae:	c9                   	leave  
    3eaf:	e9 ec 9b 00 00       	jmp    daa0 <async_answer_0@plt>
    3eb4:	8d b6 00 00 00 00    	lea    0x0(%esi),%esi
    3eba:	8d bf 00 00 00 00    	lea    0x0(%edi),%edi

00003ec0 <remote_audio_pcm_events_unregister>:
    3ec0:	55                   	push   %ebp
    3ec1:	89 e5                	mov    %esp,%ebp
    3ec3:	57                   	push   %edi
    3ec4:	56                   	push   %esi
    3ec5:	53                   	push   %ebx
    3ec6:	83 ec 0c             	sub    $0xc,%esp
    3ec9:	8b 5d 0c             	mov    0xc(%ebp),%ebx
    3ecc:	8b 75 08             	mov    0x8(%ebp),%esi
    3ecf:	8b 7d 10             	mov    0x10(%ebp),%edi
    3ed2:	8b 43 1c             	mov    0x1c(%ebx),%eax
    3ed5:	85 c0                	test   %eax,%eax
    3ed7:	74 3f                	je     3f18 <remote_audio_pcm_events_unregister+0x58>
    3ed9:	8b 4b 18             	mov    0x18(%ebx),%ecx
    3edc:	85 c9                	test   %ecx,%ecx
    3ede:	74 38                	je     3f18 <remote_audio_pcm_events_unregister+0x58>
    3ee0:	83 ec 0c             	sub    $0xc,%esp
    3ee3:	56                   	push   %esi
    3ee4:	ff d0                	call   *%eax
    3ee6:	83 c4 10             	add    $0x10,%esp
    3ee9:	85 c0                	test   %eax,%eax
    3eeb:	74 14                	je     3f01 <remote_audio_pcm_events_unregister+0x41>
    3eed:	83 ec 0c             	sub    $0xc,%esp
    3ef0:	50                   	push   %eax
    3ef1:	e8 9a 9a 00 00       	call   d990 <async_hangup@plt>
    3ef6:	58                   	pop    %eax
    3ef7:	5a                   	pop    %edx
    3ef8:	6a 00                	push   $0x0
    3efa:	56                   	push   %esi
    3efb:	ff 53 18             	call   *0x18(%ebx)
    3efe:	83 c4 10             	add    $0x10,%esp
    3f01:	89 7d 08             	mov    %edi,0x8(%ebp)
    3f04:	c7 45 0c 00 00 00 00 	movl   $0x0,0xc(%ebp)
    3f0b:	8d 65 f4             	lea    -0xc(%ebp),%esp
    3f0e:	5b                   	pop    %ebx
    3f0f:	5e                   	pop    %esi
    3f10:	5f                   	pop    %edi
    3f11:	5d                   	pop    %ebp
    3f12:	e9 89 9b 00 00       	jmp    daa0 <async_answer_0@plt>
    3f17:	90                   	nop
    3f18:	89 7d 08             	mov    %edi,0x8(%ebp)
    3f1b:	c7 45 0c f5 ff ff ff 	movl   $0xfffffff5,0xc(%ebp)
    3f22:	8d 65 f4             	lea    -0xc(%ebp),%esp
    3f25:	5b                   	pop    %ebx
    3f26:	5e                   	pop    %esi
    3f27:	5f                   	pop    %edi
    3f28:	5d                   	pop    %ebp
    3f29:	e9 72 9b 00 00       	jmp    daa0 <async_answer_0@plt>
    3f2e:	66 90                	xchg   %ax,%ax

00003f30 <remote_audio_pcm_get_buffer_pos>:
    3f30:	55                   	push   %ebp
    3f31:	89 e5                	mov    %esp,%ebp
    3f33:	83 ec 18             	sub    $0x18,%esp
    3f36:	8b 45 0c             	mov    0xc(%ebp),%eax
    3f39:	c7 45 f4 00 00 00 00 	movl   $0x0,-0xc(%ebp)
    3f40:	8b 40 0c             	mov    0xc(%eax),%eax
    3f43:	85 c0                	test   %eax,%eax
    3f45:	74 29                	je     3f70 <remote_audio_pcm_get_buffer_pos+0x40>
    3f47:	8b 4d 08             	mov    0x8(%ebp),%ecx
    3f4a:	52                   	push   %edx
    3f4b:	52                   	push   %edx
    3f4c:	8d 55 f4             	lea    -0xc(%ebp),%edx
    3f4f:	52                   	push   %edx
    3f50:	51                   	push   %ecx
    3f51:	ff d0                	call   *%eax
    3f53:	8b 55 f4             	mov    -0xc(%ebp),%edx
    3f56:	83 c4 10             	add    $0x10,%esp
    3f59:	51                   	push   %ecx
    3f5a:	52                   	push   %edx
    3f5b:	50                   	push   %eax
    3f5c:	8b 45 10             	mov    0x10(%ebp),%eax
    3f5f:	50                   	push   %eax
    3f60:	e8 db 9d 00 00       	call   dd40 <async_answer_1@plt>
    3f65:	83 c4 10             	add    $0x10,%esp
    3f68:	c9                   	leave  
    3f69:	c3                   	ret    
    3f6a:	8d b6 00 00 00 00    	lea    0x0(%esi),%esi
    3f70:	b8 f5 ff ff ff       	mov    $0xfffffff5,%eax
    3f75:	31 d2                	xor    %edx,%edx
    3f77:	eb e0                	jmp    3f59 <remote_audio_pcm_get_buffer_pos+0x29>
    3f79:	8d b4 26 00 00 00 00 	lea    0x0(%esi,%eiz,1),%esi

00003f80 <remote_audio_pcm_query_caps>:
    3f80:	55                   	push   %ebp
    3f81:	89 e5                	mov    %esp,%ebp
    3f83:	53                   	push   %ebx
    3f84:	53                   	push   %ebx
    3f85:	8b 45 0c             	mov    0xc(%ebp),%eax
    3f88:	8b 55 08             	mov    0x8(%ebp),%edx
    3f8b:	8b 5d 10             	mov    0x10(%ebp),%ebx
    3f8e:	8b 4d 14             	mov    0x14(%ebp),%ecx
    3f91:	8b 40 08             	mov    0x8(%eax),%eax
    3f94:	85 c0                	test   %eax,%eax
    3f96:	74 28                	je     3fc0 <remote_audio_pcm_query_caps+0x40>
    3f98:	83 ec 08             	sub    $0x8,%esp
    3f9b:	8b 49 08             	mov    0x8(%ecx),%ecx
    3f9e:	51                   	push   %ecx
    3f9f:	52                   	push   %edx
    3fa0:	ff d0                	call   *%eax
    3fa2:	89 5d 08             	mov    %ebx,0x8(%ebp)
    3fa5:	83 c4 10             	add    $0x10,%esp
    3fa8:	8b 5d fc             	mov    -0x4(%ebp),%ebx
    3fab:	89 45 10             	mov    %eax,0x10(%ebp)
    3fae:	c7 45 0c 00 00 00 00 	movl   $0x0,0xc(%ebp)
    3fb5:	c9                   	leave  
    3fb6:	e9 85 9d 00 00       	jmp    dd40 <async_answer_1@plt>
    3fbb:	90                   	nop
    3fbc:	8d 74 26 00          	lea    0x0(%esi,%eiz,1),%esi
    3fc0:	89 5d 08             	mov    %ebx,0x8(%ebp)
    3fc3:	8b 5d fc             	mov    -0x4(%ebp),%ebx
    3fc6:	c7 45 0c f5 ff ff ff 	movl   $0xfffffff5,0xc(%ebp)
    3fcd:	c9                   	leave  
    3fce:	e9 cd 9a 00 00       	jmp    daa0 <async_answer_0@plt>
    3fd3:	8d b6 00 00 00 00    	lea    0x0(%esi),%esi
    3fd9:	8d bc 27 00 00 00 00 	lea    0x0(%edi,%eiz,1),%edi

00003fe0 <remote_audio_pcm_get_buffer>:
    3fe0:	55                   	push   %ebp
    3fe1:	89 e5                	mov    %esp,%ebp
    3fe3:	56                   	push   %esi
    3fe4:	53                   	push   %ebx
    3fe5:	83 ec 10             	sub    $0x10,%esp
    3fe8:	8b 5d 0c             	mov    0xc(%ebp),%ebx
    3feb:	8b 43 10             	mov    0x10(%ebx),%eax
    3fee:	85 c0                	test   %eax,%eax
    3ff0:	0f 84 d2 00 00 00    	je     40c8 <remote_audio_pcm_get_buffer+0xe8>
    3ff6:	8b 53 14             	mov    0x14(%ebx),%edx
    3ff9:	85 d2                	test   %edx,%edx
    3ffb:	0f 84 c7 00 00 00    	je     40c8 <remote_audio_pcm_get_buffer+0xe8>
    4001:	8b 55 14             	mov    0x14(%ebp),%edx
    4004:	c7 45 e8 00 00 00 00 	movl   $0x0,-0x18(%ebp)
    400b:	8b 52 08             	mov    0x8(%edx),%edx
    400e:	56                   	push   %esi
    400f:	89 55 ec             	mov    %edx,-0x14(%ebp)
    4012:	8d 55 ec             	lea    -0x14(%ebp),%edx
    4015:	52                   	push   %edx
    4016:	8d 55 e8             	lea    -0x18(%ebp),%edx
    4019:	52                   	push   %edx
    401a:	8b 55 08             	mov    0x8(%ebp),%edx
    401d:	52                   	push   %edx
    401e:	ff d0                	call   *%eax
    4020:	83 c4 0c             	add    $0xc,%esp
    4023:	8b 4d ec             	mov    -0x14(%ebp),%ecx
    4026:	89 c6                	mov    %eax,%esi
    4028:	51                   	push   %ecx
    4029:	50                   	push   %eax
    402a:	8b 45 10             	mov    0x10(%ebp),%eax
    402d:	50                   	push   %eax
    402e:	e8 0d 9d 00 00       	call   dd40 <async_answer_1@plt>
    4033:	83 c4 10             	add    $0x10,%esp
    4036:	85 f6                	test   %esi,%esi
    4038:	74 0e                	je     4048 <remote_audio_pcm_get_buffer+0x68>
    403a:	8d 65 f8             	lea    -0x8(%ebp),%esp
    403d:	5b                   	pop    %ebx
    403e:	5e                   	pop    %esi
    403f:	5d                   	pop    %ebp
    4040:	c3                   	ret    
    4041:	8d b4 26 00 00 00 00 	lea    0x0(%esi,%eiz,1),%esi
    4048:	8b 4d ec             	mov    -0x14(%ebp),%ecx
    404b:	85 c9                	test   %ecx,%ecx
    404d:	74 eb                	je     403a <remote_audio_pcm_get_buffer+0x5a>
    404f:	c7 45 f0 00 00 00 00 	movl   $0x0,-0x10(%ebp)
    4056:	56                   	push   %esi
    4057:	c7 45 f4 00 00 00 00 	movl   $0x0,-0xc(%ebp)
    405e:	56                   	push   %esi
    405f:	68 74 bf 00 00       	push   $0xbf74
    4064:	6a 05                	push   $0x5
    4066:	e8 25 f7 ff ff       	call   3790 <ddf_msg>
    406b:	58                   	pop    %eax
    406c:	8d 45 f0             	lea    -0x10(%ebp),%eax
    406f:	5a                   	pop    %edx
    4070:	50                   	push   %eax
    4071:	8d 45 f4             	lea    -0xc(%ebp),%eax
    4074:	50                   	push   %eax
    4075:	e8 56 9c 00 00       	call   dcd0 <async_share_in_receive@plt>
    407a:	83 c4 10             	add    $0x10,%esp
    407d:	84 c0                	test   %al,%al
    407f:	74 5f                	je     40e0 <remote_audio_pcm_get_buffer+0x100>
    4081:	50                   	push   %eax
    4082:	50                   	push   %eax
    4083:	68 38 c1 00 00       	push   $0xc138
    4088:	6a 05                	push   $0x5
    408a:	e8 01 f7 ff ff       	call   3790 <ddf_msg>
    408f:	8b 45 ec             	mov    -0x14(%ebp),%eax
    4092:	83 c4 10             	add    $0x10,%esp
    4095:	39 45 f0             	cmp    %eax,-0x10(%ebp)
    4098:	74 76                	je     4110 <remote_audio_pcm_get_buffer+0x130>
    409a:	50                   	push   %eax
    409b:	50                   	push   %eax
    409c:	68 58 c1 00 00       	push   $0xc158
    40a1:	6a 04                	push   $0x4
    40a3:	e8 e8 f6 ff ff       	call   3790 <ddf_msg>
    40a8:	8b 55 08             	mov    0x8(%ebp),%edx
    40ab:	58                   	pop    %eax
    40ac:	52                   	push   %edx
    40ad:	ff 53 14             	call   *0x14(%ebx)
    40b0:	8b 75 f4             	mov    -0xc(%ebp),%esi
    40b3:	59                   	pop    %ecx
    40b4:	5b                   	pop    %ebx
    40b5:	6a fd                	push   $0xfffffffd
    40b7:	56                   	push   %esi
    40b8:	e8 e3 99 00 00       	call   daa0 <async_answer_0@plt>
    40bd:	83 c4 10             	add    $0x10,%esp
    40c0:	e9 75 ff ff ff       	jmp    403a <remote_audio_pcm_get_buffer+0x5a>
    40c5:	8d 76 00             	lea    0x0(%esi),%esi
    40c8:	50                   	push   %eax
    40c9:	50                   	push   %eax
    40ca:	8b 45 10             	mov    0x10(%ebp),%eax
    40cd:	6a f5                	push   $0xfffffff5
    40cf:	50                   	push   %eax
    40d0:	e8 cb 99 00 00       	call   daa0 <async_answer_0@plt>
    40d5:	83 c4 10             	add    $0x10,%esp
    40d8:	8d 65 f8             	lea    -0x8(%ebp),%esp
    40db:	5b                   	pop    %ebx
    40dc:	5e                   	pop    %esi
    40dd:	5d                   	pop    %ebp
    40de:	c3                   	ret    
    40df:	90                   	nop
    40e0:	50                   	push   %eax
    40e1:	50                   	push   %eax
    40e2:	68 8d bf 00 00       	push   $0xbf8d
    40e7:	6a 04                	push   $0x4
    40e9:	e8 a2 f6 ff ff       	call   3790 <ddf_msg>
    40ee:	58                   	pop    %eax
    40ef:	8b 45 08             	mov    0x8(%ebp),%eax
    40f2:	50                   	push   %eax
    40f3:	ff 53 14             	call   *0x14(%ebx)
    40f6:	8b 4d f4             	mov    -0xc(%ebp),%ecx
    40f9:	58                   	pop    %eax
    40fa:	5a                   	pop    %edx
    40fb:	6a f8                	push   $0xfffffff8
    40fd:	51                   	push   %ecx
    40fe:	e8 9d 99 00 00       	call   daa0 <async_answer_0@plt>
    4103:	83 c4 10             	add    $0x10,%esp
    4106:	e9 2f ff ff ff       	jmp    403a <remote_audio_pcm_get_buffer+0x5a>
    410b:	90                   	nop
    410c:	8d 74 26 00          	lea    0x0(%esi,%eiz,1),%esi
    4110:	50                   	push   %eax
    4111:	50                   	push   %eax
    4112:	68 a9 bf 00 00       	push   $0xbfa9
    4117:	6a 05                	push   $0x5
    4119:	e8 72 f6 ff ff       	call   3790 <ddf_msg>
    411e:	83 c4 0c             	add    $0xc,%esp
    4121:	8b 45 e8             	mov    -0x18(%ebp),%eax
    4124:	6a 03                	push   $0x3
    4126:	50                   	push   %eax
    4127:	8b 45 f4             	mov    -0xc(%ebp),%eax
    412a:	50                   	push   %eax
    412b:	e8 50 9c 00 00       	call   dd80 <async_share_in_finalize@plt>
    4130:	83 c4 10             	add    $0x10,%esp
    4133:	85 c0                	test   %eax,%eax
    4135:	74 1e                	je     4155 <remote_audio_pcm_get_buffer+0x175>
    4137:	51                   	push   %ecx
    4138:	51                   	push   %ecx
    4139:	68 c1 bf 00 00       	push   $0xbfc1
    413e:	6a 04                	push   $0x4
    4140:	e8 4b f6 ff ff       	call   3790 <ddf_msg>
    4145:	8b 45 08             	mov    0x8(%ebp),%eax
    4148:	5e                   	pop    %esi
    4149:	50                   	push   %eax
    414a:	ff 53 14             	call   *0x14(%ebx)
    414d:	83 c4 10             	add    $0x10,%esp
    4150:	e9 e5 fe ff ff       	jmp    403a <remote_audio_pcm_get_buffer+0x5a>
    4155:	8b 55 f0             	mov    -0x10(%ebp),%edx
    4158:	50                   	push   %eax
    4159:	52                   	push   %edx
    415a:	68 d9 bf 00 00       	push   $0xbfd9
    415f:	6a 05                	push   $0x5
    4161:	e8 2a f6 ff ff       	call   3790 <ddf_msg>
    4166:	83 c4 10             	add    $0x10,%esp
    4169:	e9 cc fe ff ff       	jmp    403a <remote_audio_pcm_get_buffer+0x5a>
    416e:	66 90                	xchg   %ax,%ax

00004170 <remote_audio_pcm_test_format>:
    4170:	55                   	push   %ebp
    4171:	89 e5                	mov    %esp,%ebp
    4173:	53                   	push   %ebx
    4174:	83 ec 14             	sub    $0x14,%esp
    4177:	8b 45 14             	mov    0x14(%ebp),%eax
    417a:	8b 55 0c             	mov    0xc(%ebp),%edx
    417d:	8b 48 08             	mov    0x8(%eax),%ecx
    4180:	8b 58 0c             	mov    0xc(%eax),%ebx
    4183:	8b 52 04             	mov    0x4(%edx),%edx
    4186:	8b 40 10             	mov    0x10(%eax),%eax
    4189:	89 4d ec             	mov    %ecx,-0x14(%ebp)
    418c:	89 5d f0             	mov    %ebx,-0x10(%ebp)
    418f:	89 45 f4             	mov    %eax,-0xc(%ebp)
    4192:	85 d2                	test   %edx,%edx
    4194:	74 3a                	je     41d0 <remote_audio_pcm_test_format+0x60>
    4196:	8d 45 f4             	lea    -0xc(%ebp),%eax
    4199:	8b 4d 08             	mov    0x8(%ebp),%ecx
    419c:	50                   	push   %eax
    419d:	8d 45 f0             	lea    -0x10(%ebp),%eax
    41a0:	50                   	push   %eax
    41a1:	8d 45 ec             	lea    -0x14(%ebp),%eax
    41a4:	50                   	push   %eax
    41a5:	51                   	push   %ecx
    41a6:	ff d2                	call   *%edx
    41a8:	8b 55 f4             	mov    -0xc(%ebp),%edx
    41ab:	8b 5d f0             	mov    -0x10(%ebp),%ebx
    41ae:	8b 4d ec             	mov    -0x14(%ebp),%ecx
    41b1:	83 c4 10             	add    $0x10,%esp
    41b4:	83 ec 0c             	sub    $0xc,%esp
    41b7:	52                   	push   %edx
    41b8:	53                   	push   %ebx
    41b9:	51                   	push   %ecx
    41ba:	50                   	push   %eax
    41bb:	8b 45 10             	mov    0x10(%ebp),%eax
    41be:	50                   	push   %eax
    41bf:	e8 cc 9b 00 00       	call   dd90 <async_answer_3@plt>
    41c4:	83 c4 20             	add    $0x20,%esp
    41c7:	8b 5d fc             	mov    -0x4(%ebp),%ebx
    41ca:	c9                   	leave  
    41cb:	c3                   	ret    
    41cc:	8d 74 26 00          	lea    0x0(%esi,%eiz,1),%esi
    41d0:	89 c2                	mov    %eax,%edx
    41d2:	b8 f5 ff ff ff       	mov    $0xfffffff5,%eax
    41d7:	eb db                	jmp    41b4 <remote_audio_pcm_test_format+0x44>
    41d9:	8d b4 26 00 00 00 00 	lea    0x0(%esi,%eiz,1),%esi

000041e0 <remote_audio_pcm_events_register>:
    41e0:	55                   	push   %ebp
    41e1:	89 e5                	mov    %esp,%ebp
    41e3:	57                   	push   %edi
    41e4:	56                   	push   %esi
    41e5:	53                   	push   %ebx
    41e6:	83 ec 3c             	sub    $0x3c,%esp
    41e9:	8b 5d 0c             	mov    0xc(%ebp),%ebx
    41ec:	8b 7b 1c             	mov    0x1c(%ebx),%edi
    41ef:	85 ff                	test   %edi,%edi
    41f1:	0f 84 91 00 00 00    	je     4288 <remote_audio_pcm_events_register+0xa8>
    41f7:	8b 73 18             	mov    0x18(%ebx),%esi
    41fa:	85 f6                	test   %esi,%esi
    41fc:	0f 84 86 00 00 00    	je     4288 <remote_audio_pcm_events_register+0xa8>
    4202:	8b 75 10             	mov    0x10(%ebp),%esi
    4205:	51                   	push   %ecx
    4206:	51                   	push   %ecx
    4207:	6a 00                	push   $0x0
    4209:	56                   	push   %esi
    420a:	8d 75 c4             	lea    -0x3c(%ebp),%esi
    420d:	e8 8e 98 00 00       	call   daa0 <async_answer_0@plt>
    4212:	5f                   	pop    %edi
    4213:	58                   	pop    %eax
    4214:	6a 00                	push   $0x0
    4216:	56                   	push   %esi
    4217:	e8 f4 9a 00 00       	call   dd10 <async_get_call_timeout@plt>
    421c:	89 c7                	mov    %eax,%edi
    421e:	58                   	pop    %eax
    421f:	5a                   	pop    %edx
    4220:	56                   	push   %esi
    4221:	6a 00                	push   $0x0
    4223:	e8 a8 99 00 00       	call   dbd0 <async_callback_receive_start@plt>
    4228:	83 c4 10             	add    $0x10,%esp
    422b:	89 c6                	mov    %eax,%esi
    422d:	85 c0                	test   %eax,%eax
    422f:	74 6f                	je     42a0 <remote_audio_pcm_events_register+0xc0>
    4231:	50                   	push   %eax
    4232:	50                   	push   %eax
    4233:	8b 45 08             	mov    0x8(%ebp),%eax
    4236:	56                   	push   %esi
    4237:	50                   	push   %eax
    4238:	ff 53 18             	call   *0x18(%ebx)
    423b:	83 c4 10             	add    $0x10,%esp
    423e:	89 c3                	mov    %eax,%ebx
    4240:	85 c0                	test   %eax,%eax
    4242:	74 2c                	je     4270 <remote_audio_pcm_events_register+0x90>
    4244:	52                   	push   %edx
    4245:	52                   	push   %edx
    4246:	68 f6 bf 00 00       	push   $0xbff6
    424b:	6a 04                	push   $0x4
    424d:	e8 3e f5 ff ff       	call   3790 <ddf_msg>
    4252:	89 34 24             	mov    %esi,(%esp)
    4255:	e8 36 97 00 00       	call   d990 <async_hangup@plt>
    425a:	59                   	pop    %ecx
    425b:	5e                   	pop    %esi
    425c:	53                   	push   %ebx
    425d:	57                   	push   %edi
    425e:	e8 3d 98 00 00       	call   daa0 <async_answer_0@plt>
    4263:	83 c4 10             	add    $0x10,%esp
    4266:	8d 65 f4             	lea    -0xc(%ebp),%esp
    4269:	5b                   	pop    %ebx
    426a:	5e                   	pop    %esi
    426b:	5f                   	pop    %edi
    426c:	5d                   	pop    %ebp
    426d:	c3                   	ret    
    426e:	66 90                	xchg   %ax,%ax
    4270:	50                   	push   %eax
    4271:	50                   	push   %eax
    4272:	6a 00                	push   $0x0
    4274:	57                   	push   %edi
    4275:	e8 26 98 00 00       	call   daa0 <async_answer_0@plt>
    427a:	83 c4 10             	add    $0x10,%esp
    427d:	8d 65 f4             	lea    -0xc(%ebp),%esp
    4280:	5b                   	pop    %ebx
    4281:	5e                   	pop    %esi
    4282:	5f                   	pop    %edi
    4283:	5d                   	pop    %ebp
    4284:	c3                   	ret    
    4285:	8d 76 00             	lea    0x0(%esi),%esi
    4288:	8b 5d 10             	mov    0x10(%ebp),%ebx
    428b:	51                   	push   %ecx
    428c:	51                   	push   %ecx
    428d:	6a f5                	push   $0xfffffff5
    428f:	53                   	push   %ebx
    4290:	e8 0b 98 00 00       	call   daa0 <async_answer_0@plt>
    4295:	83 c4 10             	add    $0x10,%esp
    4298:	8d 65 f4             	lea    -0xc(%ebp),%esp
    429b:	5b                   	pop    %ebx
    429c:	5e                   	pop    %esi
    429d:	5f                   	pop    %edi
    429e:	5d                   	pop    %ebp
    429f:	c3                   	ret    
    42a0:	50                   	push   %eax
    42a1:	50                   	push   %eax
    42a2:	68 80 c1 00 00       	push   $0xc180
    42a7:	6a 04                	push   $0x4
    42a9:	e8 e2 f4 ff ff       	call   3790 <ddf_msg>
    42ae:	58                   	pop    %eax
    42af:	5a                   	pop    %edx
    42b0:	68 06 d5 ff ff       	push   $0xffffd506
    42b5:	57                   	push   %edi
    42b6:	e8 e5 97 00 00       	call   daa0 <async_answer_0@plt>
    42bb:	83 c4 10             	add    $0x10,%esp
    42be:	eb a6                	jmp    4266 <remote_audio_pcm_events_register+0x86>

000042c0 <remote_audio_pcm_get_info_str>:
    42c0:	55                   	push   %ebp
    42c1:	89 e5                	mov    %esp,%ebp
    42c3:	56                   	push   %esi
    42c4:	53                   	push   %ebx
    42c5:	83 ec 10             	sub    $0x10,%esp
    42c8:	8b 45 0c             	mov    0xc(%ebp),%eax
    42cb:	8b 00                	mov    (%eax),%eax
    42cd:	85 c0                	test   %eax,%eax
    42cf:	0f 84 ab 00 00 00    	je     4380 <remote_audio_pcm_get_info_str+0xc0>
    42d5:	8b 4d 08             	mov    0x8(%ebp),%ecx
    42d8:	52                   	push   %edx
    42d9:	c7 45 ec 00 00 00 00 	movl   $0x0,-0x14(%ebp)
    42e0:	52                   	push   %edx
    42e1:	8d 55 ec             	lea    -0x14(%ebp),%edx
    42e4:	52                   	push   %edx
    42e5:	51                   	push   %ecx
    42e6:	ff d0                	call   *%eax
    42e8:	83 c4 10             	add    $0x10,%esp
    42eb:	89 c6                	mov    %eax,%esi
    42ed:	8b 45 ec             	mov    -0x14(%ebp),%eax
    42f0:	85 c0                	test   %eax,%eax
    42f2:	74 5c                	je     4350 <remote_audio_pcm_get_info_str+0x90>
    42f4:	83 ec 0c             	sub    $0xc,%esp
    42f7:	50                   	push   %eax
    42f8:	e8 23 9a 00 00       	call   dd20 <str_size@plt>
    42fd:	83 c4 0c             	add    $0xc,%esp
    4300:	8d 58 01             	lea    0x1(%eax),%ebx
    4303:	8b 45 10             	mov    0x10(%ebp),%eax
    4306:	53                   	push   %ebx
    4307:	56                   	push   %esi
    4308:	50                   	push   %eax
    4309:	e8 32 9a 00 00       	call   dd40 <async_answer_1@plt>
    430e:	83 c4 10             	add    $0x10,%esp
    4311:	85 f6                	test   %esi,%esi
    4313:	75 2f                	jne    4344 <remote_audio_pcm_get_info_str+0x84>
    4315:	85 db                	test   %ebx,%ebx
    4317:	74 2b                	je     4344 <remote_audio_pcm_get_info_str+0x84>
    4319:	50                   	push   %eax
    431a:	50                   	push   %eax
    431b:	8d 45 f0             	lea    -0x10(%ebp),%eax
    431e:	50                   	push   %eax
    431f:	8d 45 f4             	lea    -0xc(%ebp),%eax
    4322:	50                   	push   %eax
    4323:	e8 88 99 00 00       	call   dcb0 <async_data_read_receive@plt>
    4328:	83 c4 10             	add    $0x10,%esp
    432b:	84 c0                	test   %al,%al
    432d:	74 69                	je     4398 <remote_audio_pcm_get_info_str+0xd8>
    432f:	3b 5d f0             	cmp    -0x10(%ebp),%ebx
    4332:	74 34                	je     4368 <remote_audio_pcm_get_info_str+0xa8>
    4334:	50                   	push   %eax
    4335:	50                   	push   %eax
    4336:	8b 45 f4             	mov    -0xc(%ebp),%eax
    4339:	6a fd                	push   $0xfffffffd
    433b:	50                   	push   %eax
    433c:	e8 5f 97 00 00       	call   daa0 <async_answer_0@plt>
    4341:	83 c4 10             	add    $0x10,%esp
    4344:	8d 65 f8             	lea    -0x8(%ebp),%esp
    4347:	5b                   	pop    %ebx
    4348:	5e                   	pop    %esi
    4349:	5d                   	pop    %ebp
    434a:	c3                   	ret    
    434b:	90                   	nop
    434c:	8d 74 26 00          	lea    0x0(%esi,%eiz,1),%esi
    4350:	8b 55 10             	mov    0x10(%ebp),%edx
    4353:	50                   	push   %eax
    4354:	6a 00                	push   $0x0
    4356:	56                   	push   %esi
    4357:	52                   	push   %edx
    4358:	e8 e3 99 00 00       	call   dd40 <async_answer_1@plt>
    435d:	83 c4 10             	add    $0x10,%esp
    4360:	8d 65 f8             	lea    -0x8(%ebp),%esp
    4363:	5b                   	pop    %ebx
    4364:	5e                   	pop    %esi
    4365:	5d                   	pop    %ebp
    4366:	c3                   	ret    
    4367:	90                   	nop
    4368:	8b 75 f4             	mov    -0xc(%ebp),%esi
    436b:	51                   	push   %ecx
    436c:	53                   	push   %ebx
    436d:	8b 5d ec             	mov    -0x14(%ebp),%ebx
    4370:	53                   	push   %ebx
    4371:	56                   	push   %esi
    4372:	e8 a9 96 00 00       	call   da20 <async_data_read_finalize@plt>
    4377:	83 c4 10             	add    $0x10,%esp
    437a:	eb c8                	jmp    4344 <remote_audio_pcm_get_info_str+0x84>
    437c:	8d 74 26 00          	lea    0x0(%esi,%eiz,1),%esi
    4380:	8b 75 10             	mov    0x10(%ebp),%esi
    4383:	53                   	push   %ebx
    4384:	53                   	push   %ebx
    4385:	6a f5                	push   $0xfffffff5
    4387:	56                   	push   %esi
    4388:	e8 13 97 00 00       	call   daa0 <async_answer_0@plt>
    438d:	83 c4 10             	add    $0x10,%esp
    4390:	8d 65 f8             	lea    -0x8(%ebp),%esp
    4393:	5b                   	pop    %ebx
    4394:	5e                   	pop    %esi
    4395:	5d                   	pop    %ebp
    4396:	c3                   	ret    
    4397:	90                   	nop
    4398:	50                   	push   %eax
    4399:	50                   	push   %eax
    439a:	8b 45 f4             	mov    -0xc(%ebp),%eax
    439d:	6a f8                	push   $0xfffffff8
    439f:	50                   	push   %eax
    43a0:	e8 fb 96 00 00       	call   daa0 <async_answer_0@plt>
    43a5:	83 c4 10             	add    $0x10,%esp
    43a8:	eb 9a                	jmp    4344 <remote_audio_pcm_get_info_str+0x84>
    43aa:	8d b6 00 00 00 00    	lea    0x0(%esi),%esi

000043b0 <audio_pcm_cap_str>:
    43b0:	55                   	push   %ebp
    43b1:	b8 14 c0 00 00       	mov    $0xc014,%eax
    43b6:	89 e5                	mov    %esp,%ebp
    43b8:	8b 55 08             	mov    0x8(%ebp),%edx
    43bb:	83 fa 06             	cmp    $0x6,%edx
    43be:	77 07                	ja     43c7 <audio_pcm_cap_str+0x17>
    43c0:	8b 04 95 d8 d1 00 00 	mov    0xd1d8(,%edx,4),%eax
    43c7:	5d                   	pop    %ebp
    43c8:	c3                   	ret    
    43c9:	8d b4 26 00 00 00 00 	lea    0x0(%esi,%eiz,1),%esi

000043d0 <audio_pcm_event_str>:
    43d0:	55                   	push   %ebp
    43d1:	b8 20 c0 00 00       	mov    $0xc020,%eax
    43d6:	89 e5                	mov    %esp,%ebp
    43d8:	8b 55 08             	mov    0x8(%ebp),%edx
    43db:	81 fa 05 04 00 00    	cmp    $0x405,%edx
    43e1:	77 07                	ja     43ea <audio_pcm_event_str+0x1a>
    43e3:	8b 04 95 c0 c1 00 00 	mov    0xc1c0(,%edx,4),%eax
    43ea:	5d                   	pop    %ebp
    43eb:	c3                   	ret    
    43ec:	8d 74 26 00          	lea    0x0(%esi,%eiz,1),%esi

000043f0 <audio_pcm_open_default>:
    43f0:	55                   	push   %ebp
    43f1:	89 e5                	mov    %esp,%ebp
    43f3:	83 ec 28             	sub    $0x28,%esp
    43f6:	80 3d cc 00 01 00 00 	cmpb   $0x0,0x100cc
    43fd:	75 20                	jne    441f <audio_pcm_open_default+0x2f>
    43ff:	50                   	push   %eax
    4400:	6a 01                	push   $0x1
    4402:	68 c8 00 01 00       	push   $0x100c8
    4407:	68 2e c0 00 00       	push   $0xc02e
    440c:	e8 1f 95 00 00       	call   d930 <loc_category_get_id@plt>
    4411:	83 c4 10             	add    $0x10,%esp
    4414:	85 c0                	test   %eax,%eax
    4416:	75 68                	jne    4480 <audio_pcm_open_default+0x90>
    4418:	c6 05 cc 00 01 00 01 	movb   $0x1,0x100cc
    441f:	8d 45 f4             	lea    -0xc(%ebp),%eax
    4422:	51                   	push   %ecx
    4423:	50                   	push   %eax
    4424:	8d 45 f0             	lea    -0x10(%ebp),%eax
    4427:	50                   	push   %eax
    4428:	a1 c8 00 01 00       	mov    0x100c8,%eax
    442d:	50                   	push   %eax
    442e:	c7 45 f0 00 00 00 00 	movl   $0x0,-0x10(%ebp)
    4435:	c7 45 f4 00 00 00 00 	movl   $0x0,-0xc(%ebp)
    443c:	e8 bf 98 00 00       	call   dd00 <loc_category_get_svcs@plt>
    4441:	83 c4 10             	add    $0x10,%esp
    4444:	85 c0                	test   %eax,%eax
    4446:	75 38                	jne    4480 <audio_pcm_open_default+0x90>
    4448:	8b 55 f4             	mov    -0xc(%ebp),%edx
    444b:	85 d2                	test   %edx,%edx
    444d:	75 19                	jne    4468 <audio_pcm_open_default+0x78>
    444f:	83 ec 0c             	sub    $0xc,%esp
    4452:	89 45 e4             	mov    %eax,-0x1c(%ebp)
    4455:	8b 45 f0             	mov    -0x10(%ebp),%eax
    4458:	50                   	push   %eax
    4459:	e8 02 9a 00 00       	call   de60 <free@plt>
    445e:	8b 45 e4             	mov    -0x1c(%ebp),%eax
    4461:	83 c4 10             	add    $0x10,%esp
    4464:	c9                   	leave  
    4465:	c3                   	ret    
    4466:	66 90                	xchg   %ax,%ax
    4468:	8b 45 f0             	mov    -0x10(%ebp),%eax
    446b:	52                   	push   %edx
    446c:	6a 01                	push   $0x1
    446e:	68 41 26 9b 41       	push   $0x419b2641
    4473:	8b 08                	mov    (%eax),%ecx
    4475:	51                   	push   %ecx
    4476:	e8 e5 94 00 00       	call   d960 <loc_service_connect@plt>
    447b:	83 c4 10             	add    $0x10,%esp
    447e:	eb cf                	jmp    444f <audio_pcm_open_default+0x5f>
    4480:	31 c0                	xor    %eax,%eax
    4482:	c9                   	leave  
    4483:	c3                   	ret    
    4484:	8d b6 00 00 00 00    	lea    0x0(%esi),%esi
    448a:	8d bf 00 00 00 00    	lea    0x0(%edi),%edi

00004490 <audio_pcm_open>:
    4490:	55                   	push   %ebp
    4491:	89 e5                	mov    %esp,%ebp
    4493:	83 ec 1c             	sub    $0x1c,%esp
    4496:	8d 45 f4             	lea    -0xc(%ebp),%eax
    4499:	8b 4d 08             	mov    0x8(%ebp),%ecx
    449c:	6a 00                	push   $0x0
    449e:	c7 45 f4 00 00 00 00 	movl   $0x0,-0xc(%ebp)
    44a5:	50                   	push   %eax
    44a6:	51                   	push   %ecx
    44a7:	e8 c4 98 00 00       	call   dd70 <devman_fun_get_handle@plt>
    44ac:	83 c4 10             	add    $0x10,%esp
    44af:	85 c0                	test   %eax,%eax
    44b1:	75 15                	jne    44c8 <audio_pcm_open+0x38>
    44b3:	8b 55 f4             	mov    -0xc(%ebp),%edx
    44b6:	50                   	push   %eax
    44b7:	50                   	push   %eax
    44b8:	6a 01                	push   $0x1
    44ba:	52                   	push   %edx
    44bb:	e8 80 94 00 00       	call   d940 <devman_device_connect@plt>
    44c0:	83 c4 10             	add    $0x10,%esp
    44c3:	c9                   	leave  
    44c4:	c3                   	ret    
    44c5:	8d 76 00             	lea    0x0(%esi),%esi
    44c8:	31 c0                	xor    %eax,%eax
    44ca:	c9                   	leave  
    44cb:	c3                   	ret    
    44cc:	8d 74 26 00          	lea    0x0(%esi,%eiz,1),%esi

000044d0 <audio_pcm_open_service>:
    44d0:	55                   	push   %ebp
    44d1:	89 e5                	mov    %esp,%ebp
    44d3:	83 ec 0c             	sub    $0xc,%esp
    44d6:	8b 45 08             	mov    0x8(%ebp),%eax
    44d9:	6a 01                	push   $0x1
    44db:	68 41 26 9b 41       	push   $0x419b2641
    44e0:	50                   	push   %eax
    44e1:	e8 7a 94 00 00       	call   d960 <loc_service_connect@plt>
    44e6:	c9                   	leave  
    44e7:	c3                   	ret    
    44e8:	90                   	nop
    44e9:	8d b4 26 00 00 00 00 	lea    0x0(%esi,%eiz,1),%esi

000044f0 <audio_pcm_close>:
    44f0:	55                   	push   %ebp
    44f1:	89 e5                	mov    %esp,%ebp
    44f3:	8b 45 08             	mov    0x8(%ebp),%eax
    44f6:	85 c0                	test   %eax,%eax
    44f8:	74 06                	je     4500 <audio_pcm_close+0x10>
    44fa:	5d                   	pop    %ebp
    44fb:	e9 90 94 00 00       	jmp    d990 <async_hangup@plt>
    4500:	5d                   	pop    %ebp
    4501:	c3                   	ret    
    4502:	8d b4 26 00 00 00 00 	lea    0x0(%esi,%eiz,1),%esi
    4509:	8d bc 27 00 00 00 00 	lea    0x0(%edi,%eiz,1),%edi

00004510 <audio_pcm_get_info_str>:
    4510:	55                   	push   %ebp
    4511:	89 e5                	mov    %esp,%ebp
    4513:	57                   	push   %edi
    4514:	56                   	push   %esi
    4515:	53                   	push   %ebx
    4516:	83 ec 2c             	sub    $0x2c,%esp
    4519:	8b 45 0c             	mov    0xc(%ebp),%eax
    451c:	85 c0                	test   %eax,%eax
    451e:	0f 84 ac 00 00 00    	je     45d0 <audio_pcm_get_info_str+0xc0>
    4524:	83 ec 0c             	sub    $0xc,%esp
    4527:	8b 45 08             	mov    0x8(%ebp),%eax
    452a:	50                   	push   %eax
    452b:	e8 20 98 00 00       	call   dd50 <async_exchange_begin@plt>
    4530:	83 c4 0c             	add    $0xc,%esp
    4533:	89 c6                	mov    %eax,%esi
