
hound:     file format elf32-i386


Disassembly of section .init:

000010f4 <__entry>:
    10f4:	66 8c d0             	mov    %ss,%ax
    10f7:	8e d8                	mov    %eax,%ds
    10f9:	8e c0                	mov    %eax,%es
    10fb:	8e e0                	mov    %eax,%fs
    10fd:	b8 01 00 00 00       	mov    $0x1,%eax
    1102:	0f a2                	cpuid  
    1104:	0f ba e2 0b          	bt     $0xb,%edx
    1108:	73 0c                	jae    1116 <__entry+0x22>
    110a:	8d 05 20 d7 00 00    	lea    0xd720,%eax
    1110:	c7 00 b0 b9 00 00    	movl   $0xb9b0,(%eax)
    1116:	6a 00                	push   $0x0
    1118:	6a 00                	push   $0x0
    111a:	89 e5                	mov    %esp,%ebp
    111c:	57                   	push   %edi
    111d:	e8 ce a4 00 00       	call   b5f0 <__main@plt>

Disassembly of section .text:

00001140 <audio_data_create>:
    1140:	55                   	push   %ebp
    1141:	89 e5                	mov    %esp,%ebp
    1143:	53                   	push   %ebx
    1144:	83 ec 20             	sub    $0x20,%esp
    1147:	6a 18                	push   $0x18
    1149:	e8 92 a5 00 00       	call   b6e0 <malloc@plt>
    114e:	83 c4 10             	add    $0x10,%esp
    1151:	89 c3                	mov    %eax,%ebx
    1153:	85 c0                	test   %eax,%eax
    1155:	74 3b                	je     1192 <audio_data_create+0x52>
    1157:	8b 45 18             	mov    0x18(%ebp),%eax
    115a:	31 c9                	xor    %ecx,%ecx
    115c:	83 f8 12             	cmp    $0x12,%eax
    115f:	76 3f                	jbe    11a0 <audio_data_create+0x60>
    1161:	31 d2                	xor    %edx,%edx
    1163:	8b 45 0c             	mov    0xc(%ebp),%eax
    1166:	f7 f1                	div    %ecx
    1168:	85 d2                	test   %edx,%edx
    116a:	75 4c                	jne    11b8 <audio_data_create+0x78>
    116c:	8b 45 08             	mov    0x8(%ebp),%eax
    116f:	c7 43 14 01 00 00 00 	movl   $0x1,0x14(%ebx)
    1176:	89 03                	mov    %eax,(%ebx)
    1178:	8b 45 0c             	mov    0xc(%ebp),%eax
    117b:	29 d0                	sub    %edx,%eax
    117d:	89 43 04             	mov    %eax,0x4(%ebx)
    1180:	8b 45 10             	mov    0x10(%ebp),%eax
    1183:	89 43 08             	mov    %eax,0x8(%ebx)
    1186:	8b 45 14             	mov    0x14(%ebp),%eax
    1189:	89 43 0c             	mov    %eax,0xc(%ebx)
    118c:	8b 45 18             	mov    0x18(%ebp),%eax
    118f:	89 43 10             	mov    %eax,0x10(%ebx)
    1192:	89 d8                	mov    %ebx,%eax
    1194:	8b 5d fc             	mov    -0x4(%ebp),%ebx
    1197:	c9                   	leave  
    1198:	c3                   	ret    
    1199:	8d b4 26 00 00 00 00 	lea    0x0(%esi,%eiz,1),%esi
    11a0:	8b 14 85 a0 8e 00 00 	mov    0x8ea0(,%eax,4),%edx
    11a7:	8b 4d 10             	mov    0x10(%ebp),%ecx
    11aa:	0f af ca             	imul   %edx,%ecx
    11ad:	8b 45 0c             	mov    0xc(%ebp),%eax
    11b0:	31 d2                	xor    %edx,%edx
    11b2:	f7 f1                	div    %ecx
    11b4:	85 d2                	test   %edx,%edx
    11b6:	74 b4                	je     116c <audio_data_create+0x2c>
    11b8:	50                   	push   %eax
    11b9:	68 d4 8d 00 00       	push   $0x8dd4
    11be:	6a 02                	push   $0x2
    11c0:	6a ff                	push   $0xffffffff
    11c2:	89 55 f4             	mov    %edx,-0xc(%ebp)
    11c5:	e8 a6 a5 00 00       	call   b770 <log_msg@plt>
    11ca:	83 c4 10             	add    $0x10,%esp
    11cd:	8b 55 f4             	mov    -0xc(%ebp),%edx
    11d0:	eb 9a                	jmp    116c <audio_data_create+0x2c>
    11d2:	8d b4 26 00 00 00 00 	lea    0x0(%esi,%eiz,1),%esi
    11d9:	8d bc 27 00 00 00 00 	lea    0x0(%edi,%eiz,1),%edi

000011e0 <audio_data_addref>:
    11e0:	55                   	push   %ebp
    11e1:	89 e5                	mov    %esp,%ebp
    11e3:	83 ec 08             	sub    $0x8,%esp
    11e6:	8b 45 08             	mov    0x8(%ebp),%eax
    11e9:	85 c0                	test   %eax,%eax
    11eb:	74 0d                	je     11fa <audio_data_addref+0x1a>
    11ed:	8b 50 14             	mov    0x14(%eax),%edx
    11f0:	85 d2                	test   %edx,%edx
    11f2:	74 18                	je     120c <audio_data_addref+0x2c>
    11f4:	f0 ff 40 14          	lock incl 0x14(%eax)
    11f8:	c9                   	leave  
    11f9:	c3                   	ret    
    11fa:	52                   	push   %edx
    11fb:	6a 49                	push   $0x49
    11fd:	68 7f 8d 00 00       	push   $0x8d7f
    1202:	68 9e 8d 00 00       	push   $0x8d9e
    1207:	e8 a4 a5 00 00       	call   b7b0 <assert_abort@plt>
    120c:	50                   	push   %eax
    120d:	6a 4a                	push   $0x4a
    120f:	68 7f 8d 00 00       	push   $0x8d7f
    1214:	68 04 8e 00 00       	push   $0x8e04
    1219:	e8 92 a5 00 00       	call   b7b0 <assert_abort@plt>
    121e:	66 90                	xchg   %ax,%ax

00001220 <audio_data_unref>:
    1220:	55                   	push   %ebp
    1221:	89 e5                	mov    %esp,%ebp
    1223:	53                   	push   %ebx
    1224:	53                   	push   %ebx
    1225:	8b 5d 08             	mov    0x8(%ebp),%ebx
    1228:	85 db                	test   %ebx,%ebx
    122a:	74 36                	je     1262 <audio_data_unref+0x42>
    122c:	8b 43 14             	mov    0x14(%ebx),%eax
    122f:	85 c0                	test   %eax,%eax
    1231:	74 41                	je     1274 <audio_data_unref+0x54>
    1233:	83 c8 ff             	or     $0xffffffff,%eax
    1236:	f0 0f c1 43 14       	lock xadd %eax,0x14(%ebx)
    123b:	48                   	dec    %eax
    123c:	74 0a                	je     1248 <audio_data_unref+0x28>
    123e:	8b 5d fc             	mov    -0x4(%ebp),%ebx
    1241:	c9                   	leave  
    1242:	c3                   	ret    
    1243:	90                   	nop
    1244:	8d 74 26 00          	lea    0x0(%esi,%eiz,1),%esi
    1248:	83 ec 0c             	sub    $0xc,%esp
    124b:	8b 03                	mov    (%ebx),%eax
    124d:	50                   	push   %eax
    124e:	e8 7d a7 00 00       	call   b9d0 <free@plt>
    1253:	89 5d 08             	mov    %ebx,0x8(%ebp)
    1256:	83 c4 10             	add    $0x10,%esp
    1259:	8b 5d fc             	mov    -0x4(%ebp),%ebx
    125c:	c9                   	leave  
    125d:	e9 6e a7 00 00       	jmp    b9d0 <free@plt>
    1262:	51                   	push   %ecx
    1263:	6a 54                	push   $0x54
    1265:	68 7f 8d 00 00       	push   $0x8d7f
    126a:	68 9e 8d 00 00       	push   $0x8d9e
    126f:	e8 3c a5 00 00       	call   b7b0 <assert_abort@plt>
    1274:	52                   	push   %edx
    1275:	6a 55                	push   $0x55
    1277:	68 7f 8d 00 00       	push   $0x8d7f
    127c:	68 04 8e 00 00       	push   $0x8e04
    1281:	e8 2a a5 00 00       	call   b7b0 <assert_abort@plt>
    1286:	8d 76 00             	lea    0x0(%esi),%esi
    1289:	8d bc 27 00 00 00 00 	lea    0x0(%edi,%eiz,1),%edi

00001290 <audio_pipe_init>:
    1290:	55                   	push   %ebp
    1291:	89 e5                	mov    %esp,%ebp
    1293:	53                   	push   %ebx
    1294:	52                   	push   %edx
    1295:	8b 5d 08             	mov    0x8(%ebp),%ebx
    1298:	85 db                	test   %ebx,%ebx
    129a:	74 27                	je     12c3 <audio_pipe_init+0x33>
    129c:	83 ec 0c             	sub    $0xc,%esp
    129f:	89 1b                	mov    %ebx,(%ebx)
    12a1:	89 5b 04             	mov    %ebx,0x4(%ebx)
    12a4:	8d 43 10             	lea    0x10(%ebx),%eax
    12a7:	50                   	push   %eax
    12a8:	e8 93 a5 00 00       	call   b840 <fibril_mutex_initialize@plt>
    12ad:	c7 43 0c 00 00 00 00 	movl   $0x0,0xc(%ebx)
    12b4:	c7 43 08 00 00 00 00 	movl   $0x0,0x8(%ebx)
    12bb:	83 c4 10             	add    $0x10,%esp
    12be:	8b 5d fc             	mov    -0x4(%ebp),%ebx
    12c1:	c9                   	leave  
    12c2:	c3                   	ret    
    12c3:	50                   	push   %eax
    12c4:	68 bd 00 00 00       	push   $0xbd
    12c9:	68 7f 8d 00 00       	push   $0x8d7f
    12ce:	68 92 8d 00 00       	push   $0x8d92
    12d3:	e8 d8 a4 00 00       	call   b7b0 <assert_abort@plt>
    12d8:	90                   	nop
    12d9:	8d b4 26 00 00 00 00 	lea    0x0(%esi,%eiz,1),%esi

000012e0 <audio_pipe_fini>:
    12e0:	55                   	push   %ebp
    12e1:	89 e5                	mov    %esp,%ebp
    12e3:	57                   	push   %edi
    12e4:	56                   	push   %esi
    12e5:	53                   	push   %ebx
    12e6:	83 ec 1c             	sub    $0x1c,%esp
    12e9:	8b 7d 08             	mov    0x8(%ebp),%edi
    12ec:	85 ff                	test   %edi,%edi
    12ee:	0f 84 d3 01 00 00    	je     14c7 <audio_pipe_fini+0x1e7>
    12f4:	8d 47 10             	lea    0x10(%edi),%eax
    12f7:	89 45 e4             	mov    %eax,-0x1c(%ebp)
    12fa:	8d b6 00 00 00 00    	lea    0x0(%esi),%esi
    1300:	39 7f 04             	cmp    %edi,0x4(%edi)
    1303:	0f 84 28 01 00 00    	je     1431 <audio_pipe_fini+0x151>
    1309:	83 ec 0c             	sub    $0xc,%esp
    130c:	8b 75 e4             	mov    -0x1c(%ebp),%esi
    130f:	56                   	push   %esi
    1310:	e8 cb a6 00 00       	call   b9e0 <fibril_mutex_lock@plt>
    1315:	8b 77 04             	mov    0x4(%edi),%esi
    1318:	83 c4 10             	add    $0x10,%esp
    131b:	39 fe                	cmp    %edi,%esi
    131d:	0f 84 35 01 00 00    	je     1458 <audio_pipe_fini+0x178>
    1323:	85 f6                	test   %esi,%esi
    1325:	0f 84 2d 01 00 00    	je     1458 <audio_pipe_fini+0x178>
    132b:	8b 16                	mov    (%esi),%edx
    132d:	85 d2                	test   %edx,%edx
    132f:	74 0e                	je     133f <audio_pipe_fini+0x5f>
    1331:	8b 46 04             	mov    0x4(%esi),%eax
    1334:	85 c0                	test   %eax,%eax
    1336:	74 07                	je     133f <audio_pipe_fini+0x5f>
    1338:	89 10                	mov    %edx,(%eax)
    133a:	8b 16                	mov    (%esi),%edx
    133c:	89 42 04             	mov    %eax,0x4(%edx)
    133f:	8b 5e 08             	mov    0x8(%esi),%ebx
    1342:	c7 06 00 00 00 00    	movl   $0x0,(%esi)
    1348:	c7 46 04 00 00 00 00 	movl   $0x0,0x4(%esi)
    134f:	85 db                	test   %ebx,%ebx
    1351:	0f 84 5b 01 00 00    	je     14b2 <audio_pipe_fini+0x1d2>
    1357:	8b 56 0c             	mov    0xc(%esi),%edx
    135a:	8b 43 04             	mov    0x4(%ebx),%eax
    135d:	39 c2                	cmp    %eax,%edx
    135f:	0f 87 38 01 00 00    	ja     149d <audio_pipe_fini+0x1bd>
    1365:	29 d0                	sub    %edx,%eax
    1367:	8b 57 08             	mov    0x8(%edi),%edx
    136a:	29 c2                	sub    %eax,%edx
    136c:	31 c9                	xor    %ecx,%ecx
    136e:	89 57 08             	mov    %edx,0x8(%edi)
    1371:	8b 53 10             	mov    0x10(%ebx),%edx
    1374:	83 fa 12             	cmp    $0x12,%edx
    1377:	77 0b                	ja     1384 <audio_pipe_fini+0xa4>
    1379:	8b 4b 08             	mov    0x8(%ebx),%ecx
    137c:	0f af 0c 95 a0 8e 00 	imul   0x8ea0(,%edx,4),%ecx
    1383:	00 
    1384:	8d 44 08 ff          	lea    -0x1(%eax,%ecx,1),%eax
    1388:	31 d2                	xor    %edx,%edx
    138a:	f7 f1                	div    %ecx
    138c:	8b 4f 0c             	mov    0xc(%edi),%ecx
    138f:	29 c1                	sub    %eax,%ecx
    1391:	8b 43 14             	mov    0x14(%ebx),%eax
    1394:	89 4f 0c             	mov    %ecx,0xc(%edi)
    1397:	85 c0                	test   %eax,%eax
    1399:	0f 84 ec 00 00 00    	je     148b <audio_pipe_fini+0x1ab>
    139f:	f0 ff 43 14          	lock incl 0x14(%ebx)
    13a3:	8b 06                	mov    (%esi),%eax
    13a5:	85 c0                	test   %eax,%eax
    13a7:	74 1f                	je     13c8 <audio_pipe_fini+0xe8>
    13a9:	8b 46 04             	mov    0x4(%esi),%eax
    13ac:	85 c0                	test   %eax,%eax
    13ae:	74 18                	je     13c8 <audio_pipe_fini+0xe8>
    13b0:	52                   	push   %edx
    13b1:	68 89 00 00 00       	push   $0x89
    13b6:	68 7f 8d 00 00       	push   $0x8d7f
    13bb:	68 a4 8d 00 00       	push   $0x8da4
    13c0:	e8 eb a3 00 00       	call   b7b0 <assert_abort@plt>
    13c5:	8d 76 00             	lea    0x0(%esi),%esi
    13c8:	85 db                	test   %ebx,%ebx
    13ca:	0f 84 97 00 00 00    	je     1467 <audio_pipe_fini+0x187>
    13d0:	8b 43 14             	mov    0x14(%ebx),%eax
    13d3:	85 c0                	test   %eax,%eax
    13d5:	0f 84 9e 00 00 00    	je     1479 <audio_pipe_fini+0x199>
    13db:	83 c8 ff             	or     $0xffffffff,%eax
    13de:	f0 0f c1 43 14       	lock xadd %eax,0x14(%ebx)
    13e3:	48                   	dec    %eax
    13e4:	74 5a                	je     1440 <audio_pipe_fini+0x160>
    13e6:	83 ec 0c             	sub    $0xc,%esp
    13e9:	56                   	push   %esi
    13ea:	e8 e1 a5 00 00       	call   b9d0 <free@plt>
    13ef:	8b 45 e4             	mov    -0x1c(%ebp),%eax
    13f2:	5e                   	pop    %esi
    13f3:	50                   	push   %eax
    13f4:	e8 07 a4 00 00       	call   b800 <fibril_mutex_unlock@plt>
    13f9:	8b 43 14             	mov    0x14(%ebx),%eax
    13fc:	83 c4 10             	add    $0x10,%esp
    13ff:	85 c0                	test   %eax,%eax
    1401:	74 76                	je     1479 <audio_pipe_fini+0x199>
    1403:	83 c8 ff             	or     $0xffffffff,%eax
    1406:	f0 0f c1 43 14       	lock xadd %eax,0x14(%ebx)
    140b:	48                   	dec    %eax
    140c:	0f 85 ee fe ff ff    	jne    1300 <audio_pipe_fini+0x20>
    1412:	83 ec 0c             	sub    $0xc,%esp
    1415:	8b 0b                	mov    (%ebx),%ecx
    1417:	51                   	push   %ecx
    1418:	e8 b3 a5 00 00       	call   b9d0 <free@plt>
    141d:	89 1c 24             	mov    %ebx,(%esp)
    1420:	e8 ab a5 00 00       	call   b9d0 <free@plt>
    1425:	83 c4 10             	add    $0x10,%esp
    1428:	39 7f 04             	cmp    %edi,0x4(%edi)
    142b:	0f 85 d8 fe ff ff    	jne    1309 <audio_pipe_fini+0x29>
    1431:	8d 65 f4             	lea    -0xc(%ebp),%esp
    1434:	5b                   	pop    %ebx
    1435:	5e                   	pop    %esi
    1436:	5f                   	pop    %edi
    1437:	5d                   	pop    %ebp
    1438:	c3                   	ret    
    1439:	8d b4 26 00 00 00 00 	lea    0x0(%esi,%eiz,1),%esi
    1440:	83 ec 0c             	sub    $0xc,%esp
    1443:	8b 03                	mov    (%ebx),%eax
    1445:	50                   	push   %eax
    1446:	e8 85 a5 00 00       	call   b9d0 <free@plt>
    144b:	89 1c 24             	mov    %ebx,(%esp)
    144e:	e8 7d a5 00 00       	call   b9d0 <free@plt>
    1453:	83 c4 10             	add    $0x10,%esp
    1456:	eb 8e                	jmp    13e6 <audio_pipe_fini+0x106>
    1458:	83 ec 0c             	sub    $0xc,%esp
    145b:	8b 45 e4             	mov    -0x1c(%ebp),%eax
    145e:	50                   	push   %eax
    145f:	e8 9c a3 00 00       	call   b800 <fibril_mutex_unlock@plt>
    1464:	83 c4 10             	add    $0x10,%esp
    1467:	50                   	push   %eax
    1468:	6a 54                	push   $0x54
    146a:	68 7f 8d 00 00       	push   $0x8d7f
    146f:	68 9e 8d 00 00       	push   $0x8d9e
    1474:	e8 37 a3 00 00       	call   b7b0 <assert_abort@plt>
    1479:	50                   	push   %eax
    147a:	6a 55                	push   $0x55
    147c:	68 7f 8d 00 00       	push   $0x8d7f
    1481:	68 04 8e 00 00       	push   $0x8e04
    1486:	e8 25 a3 00 00       	call   b7b0 <assert_abort@plt>
    148b:	52                   	push   %edx
    148c:	6a 4a                	push   $0x4a
    148e:	68 7f 8d 00 00       	push   $0x8d7f
    1493:	68 04 8e 00 00       	push   $0x8e04
    1498:	e8 13 a3 00 00       	call   b7b0 <assert_abort@plt>
    149d:	51                   	push   %ecx
    149e:	68 a3 00 00 00       	push   $0xa3
    14a3:	68 7f 8d 00 00       	push   $0x8d7f
    14a8:	68 28 8e 00 00       	push   $0x8e28
    14ad:	e8 fe a2 00 00       	call   b7b0 <assert_abort@plt>
    14b2:	53                   	push   %ebx
    14b3:	68 a2 00 00 00       	push   $0xa2
    14b8:	68 7f 8d 00 00       	push   $0x8d7f
    14bd:	68 97 8d 00 00       	push   $0x8d97
    14c2:	e8 e9 a2 00 00       	call   b7b0 <assert_abort@plt>
    14c7:	57                   	push   %edi
    14c8:	68 ca 00 00 00       	push   $0xca
    14cd:	68 7f 8d 00 00       	push   $0x8d7f
    14d2:	68 92 8d 00 00       	push   $0x8d92
    14d7:	e8 d4 a2 00 00       	call   b7b0 <assert_abort@plt>
    14dc:	8d 74 26 00          	lea    0x0(%esi,%eiz,1),%esi

000014e0 <audio_pipe_push>:
    14e0:	55                   	push   %ebp
    14e1:	89 e5                	mov    %esp,%ebp
    14e3:	57                   	push   %edi
    14e4:	56                   	push   %esi
    14e5:	53                   	push   %ebx
    14e6:	83 ec 0c             	sub    $0xc,%esp
    14e9:	8b 75 08             	mov    0x8(%ebp),%esi
    14ec:	8b 7d 0c             	mov    0xc(%ebp),%edi
    14ef:	85 f6                	test   %esi,%esi
    14f1:	0f 84 db 00 00 00    	je     15d2 <audio_pipe_push+0xf2>
    14f7:	85 ff                	test   %edi,%edi
    14f9:	0f 84 be 00 00 00    	je     15bd <audio_pipe_push+0xdd>
    14ff:	83 ec 0c             	sub    $0xc,%esp
    1502:	6a 10                	push   $0x10
    1504:	e8 d7 a1 00 00       	call   b6e0 <malloc@plt>
    1509:	83 c4 10             	add    $0x10,%esp
    150c:	89 c3                	mov    %eax,%ebx
    150e:	85 c0                	test   %eax,%eax
    1510:	0f 84 9a 00 00 00    	je     15b0 <audio_pipe_push+0xd0>
    1516:	8b 47 14             	mov    0x14(%edi),%eax
    1519:	85 c0                	test   %eax,%eax
    151b:	0f 84 f0 00 00 00    	je     1611 <audio_pipe_push+0x131>
    1521:	f0 ff 47 14          	lock incl 0x14(%edi)
    1525:	83 ec 0c             	sub    $0xc,%esp
    1528:	89 7b 08             	mov    %edi,0x8(%ebx)
    152b:	c7 43 0c 00 00 00 00 	movl   $0x0,0xc(%ebx)
    1532:	8d 7e 10             	lea    0x10(%esi),%edi
    1535:	57                   	push   %edi
    1536:	e8 a5 a4 00 00       	call   b9e0 <fibril_mutex_lock@plt>
    153b:	8b 06                	mov    (%esi),%eax
    153d:	8b 4b 08             	mov    0x8(%ebx),%ecx
    1540:	89 73 04             	mov    %esi,0x4(%ebx)
    1543:	89 03                	mov    %eax,(%ebx)
    1545:	83 c4 10             	add    $0x10,%esp
    1548:	89 58 04             	mov    %ebx,0x4(%eax)
    154b:	85 c9                	test   %ecx,%ecx
    154d:	89 1e                	mov    %ebx,(%esi)
    154f:	0f 84 a7 00 00 00    	je     15fc <audio_pipe_push+0x11c>
    1555:	8b 43 0c             	mov    0xc(%ebx),%eax
    1558:	8b 51 04             	mov    0x4(%ecx),%edx
    155b:	39 d0                	cmp    %edx,%eax
    155d:	0f 87 84 00 00 00    	ja     15e7 <audio_pipe_push+0x107>
    1563:	29 c2                	sub    %eax,%edx
    1565:	8b 5e 08             	mov    0x8(%esi),%ebx
    1568:	01 d3                	add    %edx,%ebx
    156a:	8b 41 10             	mov    0x10(%ecx),%eax
    156d:	89 5e 08             	mov    %ebx,0x8(%esi)
    1570:	31 db                	xor    %ebx,%ebx
    1572:	83 f8 12             	cmp    $0x12,%eax
    1575:	77 0d                	ja     1584 <audio_pipe_push+0xa4>
    1577:	8b 59 08             	mov    0x8(%ecx),%ebx
    157a:	8b 0c 85 a0 8e 00 00 	mov    0x8ea0(,%eax,4),%ecx
    1581:	0f af d9             	imul   %ecx,%ebx
    1584:	8d 44 13 ff          	lea    -0x1(%ebx,%edx,1),%eax
    1588:	31 d2                	xor    %edx,%edx
    158a:	f7 f3                	div    %ebx
    158c:	83 ec 0c             	sub    $0xc,%esp
    158f:	8b 56 0c             	mov    0xc(%esi),%edx
    1592:	01 c2                	add    %eax,%edx
    1594:	89 56 0c             	mov    %edx,0xc(%esi)
    1597:	57                   	push   %edi
    1598:	e8 63 a2 00 00       	call   b800 <fibril_mutex_unlock@plt>
    159d:	83 c4 10             	add    $0x10,%esp
    15a0:	8d 65 f4             	lea    -0xc(%ebp),%esp
    15a3:	31 c0                	xor    %eax,%eax
    15a5:	5b                   	pop    %ebx
    15a6:	5e                   	pop    %esi
    15a7:	5f                   	pop    %edi
    15a8:	5d                   	pop    %ebp
    15a9:	c3                   	ret    
    15aa:	8d b6 00 00 00 00    	lea    0x0(%esi),%esi
    15b0:	8d 65 f4             	lea    -0xc(%ebp),%esp
    15b3:	b8 fe ff ff ff       	mov    $0xfffffffe,%eax
    15b8:	5b                   	pop    %ebx
    15b9:	5e                   	pop    %esi
    15ba:	5f                   	pop    %edi
    15bb:	5d                   	pop    %ebp
    15bc:	c3                   	ret    
    15bd:	50                   	push   %eax
    15be:	68 da 00 00 00       	push   $0xda
    15c3:	68 7f 8d 00 00       	push   $0x8d7f
    15c8:	68 28 90 00 00       	push   $0x9028
    15cd:	e8 de a1 00 00       	call   b7b0 <assert_abort@plt>
    15d2:	50                   	push   %eax
    15d3:	68 d9 00 00 00       	push   $0xd9
    15d8:	68 7f 8d 00 00       	push   $0x8d7f
    15dd:	68 92 8d 00 00       	push   $0x8d92
    15e2:	e8 c9 a1 00 00       	call   b7b0 <assert_abort@plt>
    15e7:	56                   	push   %esi
    15e8:	68 a3 00 00 00       	push   $0xa3
    15ed:	68 7f 8d 00 00       	push   $0x8d7f
    15f2:	68 28 8e 00 00       	push   $0x8e28
    15f7:	e8 b4 a1 00 00       	call   b7b0 <assert_abort@plt>
    15fc:	57                   	push   %edi
    15fd:	68 a2 00 00 00       	push   $0xa2
    1602:	68 7f 8d 00 00       	push   $0x8d7f
    1607:	68 97 8d 00 00       	push   $0x8d97
    160c:	e8 9f a1 00 00       	call   b7b0 <assert_abort@plt>
    1611:	50                   	push   %eax
    1612:	6a 4a                	push   $0x4a
    1614:	68 7f 8d 00 00       	push   $0x8d7f
    1619:	68 04 8e 00 00       	push   $0x8e04
    161e:	e8 8d a1 00 00       	call   b7b0 <assert_abort@plt>
    1623:	8d b6 00 00 00 00    	lea    0x0(%esi),%esi
    1629:	8d bc 27 00 00 00 00 	lea    0x0(%edi,%eiz,1),%edi

00001630 <audio_pipe_pop>:
    1630:	55                   	push   %ebp
    1631:	89 e5                	mov    %esp,%ebp
    1633:	57                   	push   %edi
    1634:	56                   	push   %esi
    1635:	53                   	push   %ebx
    1636:	83 ec 1c             	sub    $0x1c,%esp
    1639:	8b 7d 08             	mov    0x8(%ebp),%edi
    163c:	85 ff                	test   %edi,%edi
    163e:	0f 84 1c 01 00 00    	je     1760 <audio_pipe_pop+0x130>
    1644:	83 ec 0c             	sub    $0xc,%esp
    1647:	8d 47 10             	lea    0x10(%edi),%eax
    164a:	89 45 e4             	mov    %eax,-0x1c(%ebp)
    164d:	50                   	push   %eax
    164e:	e8 8d a3 00 00       	call   b9e0 <fibril_mutex_lock@plt>
    1653:	8b 77 04             	mov    0x4(%edi),%esi
    1656:	83 c4 10             	add    $0x10,%esp
    1659:	85 f6                	test   %esi,%esi
    165b:	0f 84 74 01 00 00    	je     17d5 <audio_pipe_pop+0x1a5>
    1661:	39 f7                	cmp    %esi,%edi
    1663:	0f 84 6c 01 00 00    	je     17d5 <audio_pipe_pop+0x1a5>
    1669:	8b 16                	mov    (%esi),%edx
    166b:	85 d2                	test   %edx,%edx
    166d:	74 0e                	je     167d <audio_pipe_pop+0x4d>
    166f:	8b 46 04             	mov    0x4(%esi),%eax
    1672:	85 c0                	test   %eax,%eax
    1674:	74 07                	je     167d <audio_pipe_pop+0x4d>
    1676:	89 10                	mov    %edx,(%eax)
    1678:	8b 16                	mov    (%esi),%edx
    167a:	89 42 04             	mov    %eax,0x4(%edx)
    167d:	8b 5e 08             	mov    0x8(%esi),%ebx
    1680:	c7 06 00 00 00 00    	movl   $0x0,(%esi)
    1686:	c7 46 04 00 00 00 00 	movl   $0x0,0x4(%esi)
    168d:	89 5d e0             	mov    %ebx,-0x20(%ebp)
    1690:	85 db                	test   %ebx,%ebx
    1692:	0f 84 28 01 00 00    	je     17c0 <audio_pipe_pop+0x190>
    1698:	8b 56 0c             	mov    0xc(%esi),%edx
    169b:	8b 43 04             	mov    0x4(%ebx),%eax
    169e:	39 c2                	cmp    %eax,%edx
    16a0:	0f 87 05 01 00 00    	ja     17ab <audio_pipe_pop+0x17b>
    16a6:	29 d0                	sub    %edx,%eax
    16a8:	8b 57 08             	mov    0x8(%edi),%edx
    16ab:	29 c2                	sub    %eax,%edx
    16ad:	31 c9                	xor    %ecx,%ecx
    16af:	89 57 08             	mov    %edx,0x8(%edi)
    16b2:	8b 53 10             	mov    0x10(%ebx),%edx
    16b5:	83 fa 12             	cmp    $0x12,%edx
    16b8:	77 0b                	ja     16c5 <audio_pipe_pop+0x95>
    16ba:	8b 4b 08             	mov    0x8(%ebx),%ecx
    16bd:	0f af 0c 95 a0 8e 00 	imul   0x8ea0(,%edx,4),%ecx
    16c4:	00 
    16c5:	31 d2                	xor    %edx,%edx
    16c7:	8d 44 08 ff          	lea    -0x1(%eax,%ecx,1),%eax
    16cb:	f7 f1                	div    %ecx
    16cd:	8b 57 0c             	mov    0xc(%edi),%edx
    16d0:	29 c2                	sub    %eax,%edx
    16d2:	8b 43 14             	mov    0x14(%ebx),%eax
    16d5:	89 57 0c             	mov    %edx,0xc(%edi)
    16d8:	85 c0                	test   %eax,%eax
    16da:	0f 84 b9 00 00 00    	je     1799 <audio_pipe_pop+0x169>
    16e0:	f0 ff 43 14          	lock incl 0x14(%ebx)
    16e4:	8b 06                	mov    (%esi),%eax
    16e6:	85 c0                	test   %eax,%eax
    16e8:	74 1e                	je     1708 <audio_pipe_pop+0xd8>
    16ea:	8b 7e 04             	mov    0x4(%esi),%edi
    16ed:	85 ff                	test   %edi,%edi
    16ef:	74 17                	je     1708 <audio_pipe_pop+0xd8>
    16f1:	52                   	push   %edx
    16f2:	68 89 00 00 00       	push   $0x89
    16f7:	68 7f 8d 00 00       	push   $0x8d7f
    16fc:	68 a4 8d 00 00       	push   $0x8da4
    1701:	e8 aa a0 00 00       	call   b7b0 <assert_abort@plt>
    1706:	66 90                	xchg   %ax,%ax
    1708:	85 db                	test   %ebx,%ebx
    170a:	74 7b                	je     1787 <audio_pipe_pop+0x157>
    170c:	8b 43 14             	mov    0x14(%ebx),%eax
    170f:	85 c0                	test   %eax,%eax
    1711:	74 62                	je     1775 <audio_pipe_pop+0x145>
    1713:	83 c8 ff             	or     $0xffffffff,%eax
    1716:	f0 0f c1 43 14       	lock xadd %eax,0x14(%ebx)
    171b:	48                   	dec    %eax
    171c:	74 2a                	je     1748 <audio_pipe_pop+0x118>
    171e:	83 ec 0c             	sub    $0xc,%esp
    1721:	56                   	push   %esi
    1722:	e8 a9 a2 00 00       	call   b9d0 <free@plt>
    1727:	83 c4 10             	add    $0x10,%esp
    172a:	83 ec 0c             	sub    $0xc,%esp
    172d:	8b 45 e4             	mov    -0x1c(%ebp),%eax
    1730:	50                   	push   %eax
    1731:	e8 ca a0 00 00       	call   b800 <fibril_mutex_unlock@plt>
    1736:	8b 45 e0             	mov    -0x20(%ebp),%eax
    1739:	8d 65 f4             	lea    -0xc(%ebp),%esp
    173c:	5b                   	pop    %ebx
    173d:	5e                   	pop    %esi
    173e:	5f                   	pop    %edi
    173f:	5d                   	pop    %ebp
    1740:	c3                   	ret    
    1741:	8d b4 26 00 00 00 00 	lea    0x0(%esi,%eiz,1),%esi
    1748:	83 ec 0c             	sub    $0xc,%esp
    174b:	8b 0b                	mov    (%ebx),%ecx
    174d:	51                   	push   %ecx
    174e:	e8 7d a2 00 00       	call   b9d0 <free@plt>
    1753:	89 1c 24             	mov    %ebx,(%esp)
    1756:	e8 75 a2 00 00       	call   b9d0 <free@plt>
    175b:	83 c4 10             	add    $0x10,%esp
    175e:	eb be                	jmp    171e <audio_pipe_pop+0xee>
    1760:	56                   	push   %esi
    1761:	68 ee 00 00 00       	push   $0xee
    1766:	68 7f 8d 00 00       	push   $0x8d7f
    176b:	68 92 8d 00 00       	push   $0x8d92
    1770:	e8 3b a0 00 00       	call   b7b0 <assert_abort@plt>
    1775:	53                   	push   %ebx
    1776:	6a 55                	push   $0x55
    1778:	68 7f 8d 00 00       	push   $0x8d7f
    177d:	68 04 8e 00 00       	push   $0x8e04
    1782:	e8 29 a0 00 00       	call   b7b0 <assert_abort@plt>
    1787:	56                   	push   %esi
    1788:	6a 54                	push   $0x54
    178a:	68 7f 8d 00 00       	push   $0x8d7f
    178f:	68 9e 8d 00 00       	push   $0x8d9e
    1794:	e8 17 a0 00 00       	call   b7b0 <assert_abort@plt>
    1799:	50                   	push   %eax
    179a:	6a 4a                	push   $0x4a
    179c:	68 7f 8d 00 00       	push   $0x8d7f
    17a1:	68 04 8e 00 00       	push   $0x8e04
    17a6:	e8 05 a0 00 00       	call   b7b0 <assert_abort@plt>
    17ab:	51                   	push   %ecx
    17ac:	68 a3 00 00 00       	push   $0xa3
    17b1:	68 7f 8d 00 00       	push   $0x8d7f
    17b6:	68 28 8e 00 00       	push   $0x8e28
    17bb:	e8 f0 9f 00 00       	call   b7b0 <assert_abort@plt>
    17c0:	53                   	push   %ebx
    17c1:	68 a2 00 00 00       	push   $0xa2
    17c6:	68 7f 8d 00 00       	push   $0x8d7f
    17cb:	68 97 8d 00 00       	push   $0x8d97
    17d0:	e8 db 9f 00 00       	call   b7b0 <assert_abort@plt>
    17d5:	c7 45 e0 00 00 00 00 	movl   $0x0,-0x20(%ebp)
    17dc:	e9 49 ff ff ff       	jmp    172a <audio_pipe_pop+0xfa>
    17e1:	eb 0d                	jmp    17f0 <audio_pipe_mix_data>
    17e3:	90                   	nop
    17e4:	90                   	nop
    17e5:	90                   	nop
    17e6:	90                   	nop
    17e7:	90                   	nop
    17e8:	90                   	nop
    17e9:	90                   	nop
    17ea:	90                   	nop
    17eb:	90                   	nop
    17ec:	90                   	nop
    17ed:	90                   	nop
    17ee:	90                   	nop
    17ef:	90                   	nop

000017f0 <audio_pipe_mix_data>:
    17f0:	55                   	push   %ebp
    17f1:	89 e5                	mov    %esp,%ebp
    17f3:	57                   	push   %edi
    17f4:	56                   	push   %esi
    17f5:	53                   	push   %ebx
    17f6:	83 ec 2c             	sub    $0x2c,%esp
    17f9:	8b 45 08             	mov    0x8(%ebp),%eax
    17fc:	85 c0                	test   %eax,%eax
    17fe:	0f 84 81 02 00 00    	je     1a85 <audio_pipe_mix_data+0x295>
    1804:	8b 45 14             	mov    0x14(%ebp),%eax
    1807:	c7 45 d4 00 00 00 00 	movl   $0x0,-0x2c(%ebp)
    180e:	8b 40 08             	mov    0x8(%eax),%eax
    1811:	83 f8 12             	cmp    $0x12,%eax
    1814:	77 12                	ja     1828 <audio_pipe_mix_data+0x38>
    1816:	8b 7d 14             	mov    0x14(%ebp),%edi
    1819:	8b 34 85 a0 8e 00 00 	mov    0x8ea0(,%eax,4),%esi
    1820:	8b 17                	mov    (%edi),%edx
    1822:	0f af d6             	imul   %esi,%edx
    1825:	89 55 d4             	mov    %edx,-0x2c(%ebp)
    1828:	8b 7d d4             	mov    -0x2c(%ebp),%edi
    182b:	8b 45 10             	mov    0x10(%ebp),%eax
    182e:	31 d2                	xor    %edx,%edx
    1830:	83 ec 0c             	sub    $0xc,%esp
    1833:	8d 44 07 ff          	lea    -0x1(%edi,%eax,1),%eax
    1837:	f7 f7                	div    %edi
    1839:	89 c6                	mov    %eax,%esi
    183b:	89 45 e4             	mov    %eax,-0x1c(%ebp)
    183e:	8b 45 08             	mov    0x8(%ebp),%eax
    1841:	8d 78 10             	lea    0x10(%eax),%edi
    1844:	57                   	push   %edi
    1845:	89 7d d0             	mov    %edi,-0x30(%ebp)
    1848:	e8 93 a1 00 00       	call   b9e0 <fibril_mutex_lock@plt>
    184d:	83 c4 10             	add    $0x10,%esp
    1850:	85 f6                	test   %esi,%esi
    1852:	0f 84 c3 01 00 00    	je     1a1b <audio_pipe_mix_data+0x22b>
    1858:	8b 45 08             	mov    0x8(%ebp),%eax
    185b:	c7 45 d8 00 00 00 00 	movl   $0x0,-0x28(%ebp)
    1862:	8b 70 04             	mov    0x4(%eax),%esi
    1865:	89 f7                	mov    %esi,%edi
    1867:	39 c6                	cmp    %eax,%esi
    1869:	0f 85 2a 01 00 00    	jne    1999 <audio_pipe_mix_data+0x1a9>
    186f:	e9 a7 01 00 00       	jmp    1a1b <audio_pipe_mix_data+0x22b>
    1874:	8d 74 26 00          	lea    0x0(%esi,%eiz,1),%esi
    1878:	8b 1c 85 a0 8e 00 00 	mov    0x8ea0(,%eax,4),%ebx
    187f:	8b 47 0c             	mov    0xc(%edi),%eax
    1882:	89 c2                	mov    %eax,%edx
    1884:	8b 4e 08             	mov    0x8(%esi),%ecx
    1887:	89 45 e0             	mov    %eax,-0x20(%ebp)
    188a:	8b 46 04             	mov    0x4(%esi),%eax
    188d:	0f af cb             	imul   %ebx,%ecx
    1890:	39 c2                	cmp    %eax,%edx
    1892:	0f 87 9c 01 00 00    	ja     1a34 <audio_pipe_mix_data+0x244>
    1898:	8b 55 e0             	mov    -0x20(%ebp),%edx
    189b:	29 d0                	sub    %edx,%eax
    189d:	31 d2                	xor    %edx,%edx
    189f:	89 45 dc             	mov    %eax,-0x24(%ebp)
    18a2:	8d 44 01 ff          	lea    -0x1(%ecx,%eax,1),%eax
    18a6:	f7 f1                	div    %ecx
    18a8:	89 c3                	mov    %eax,%ebx
    18aa:	8b 45 e4             	mov    -0x1c(%ebp),%eax
    18ad:	39 c3                	cmp    %eax,%ebx
    18af:	76 02                	jbe    18b3 <audio_pipe_mix_data+0xc3>
    18b1:	89 c3                	mov    %eax,%ebx
    18b3:	0f af cb             	imul   %ebx,%ecx
    18b6:	8b 55 d4             	mov    -0x2c(%ebp),%edx
    18b9:	0f af d3             	imul   %ebx,%edx
    18bc:	3b 4d dc             	cmp    -0x24(%ebp),%ecx
    18bf:	0f 87 99 01 00 00    	ja     1a5e <audio_pipe_mix_data+0x26e>
    18c5:	50                   	push   %eax
    18c6:	50                   	push   %eax
    18c7:	8b 45 14             	mov    0x14(%ebp),%eax
    18ca:	89 4d dc             	mov    %ecx,-0x24(%ebp)
    18cd:	50                   	push   %eax
    18ce:	8d 46 08             	lea    0x8(%esi),%eax
    18d1:	50                   	push   %eax
    18d2:	8b 45 e0             	mov    -0x20(%ebp),%eax
    18d5:	51                   	push   %ecx
    18d6:	8b 0e                	mov    (%esi),%ecx
    18d8:	01 c8                	add    %ecx,%eax
    18da:	8b 75 0c             	mov    0xc(%ebp),%esi
    18dd:	50                   	push   %eax
    18de:	89 55 e0             	mov    %edx,-0x20(%ebp)
    18e1:	52                   	push   %edx
    18e2:	56                   	push   %esi
    18e3:	e8 08 68 00 00       	call   80f0 <pcm_format_convert_and_mix>
    18e8:	8b 45 e4             	mov    -0x1c(%ebp),%eax
    18eb:	29 d8                	sub    %ebx,%eax
    18ed:	8b 55 e0             	mov    -0x20(%ebp),%edx
    18f0:	89 45 e4             	mov    %eax,-0x1c(%ebp)
    18f3:	8b 45 d8             	mov    -0x28(%ebp),%eax
    18f6:	01 d0                	add    %edx,%eax
    18f8:	8b 75 08             	mov    0x8(%ebp),%esi
    18fb:	89 45 d8             	mov    %eax,-0x28(%ebp)
    18fe:	8b 45 0c             	mov    0xc(%ebp),%eax
    1901:	01 d0                	add    %edx,%eax
    1903:	8b 4d dc             	mov    -0x24(%ebp),%ecx
    1906:	8b 56 08             	mov    0x8(%esi),%edx
    1909:	89 45 0c             	mov    %eax,0xc(%ebp)
    190c:	8b 47 0c             	mov    0xc(%edi),%eax
    190f:	29 ca                	sub    %ecx,%edx
    1911:	01 c8                	add    %ecx,%eax
    1913:	8b 4e 0c             	mov    0xc(%esi),%ecx
    1916:	29 d9                	sub    %ebx,%ecx
    1918:	8b 5f 08             	mov    0x8(%edi),%ebx
    191b:	89 47 0c             	mov    %eax,0xc(%edi)
    191e:	83 c4 20             	add    $0x20,%esp
    1921:	89 56 08             	mov    %edx,0x8(%esi)
    1924:	89 4e 0c             	mov    %ecx,0xc(%esi)
    1927:	85 db                	test   %ebx,%ebx
    1929:	0f 84 1a 01 00 00    	je     1a49 <audio_pipe_mix_data+0x259>
    192f:	3b 43 04             	cmp    0x4(%ebx),%eax
    1932:	0f 87 fc 00 00 00    	ja     1a34 <audio_pipe_mix_data+0x244>
    1938:	0f 85 a2 00 00 00    	jne    19e0 <audio_pipe_mix_data+0x1f0>
    193e:	8b 17                	mov    (%edi),%edx
    1940:	85 d2                	test   %edx,%edx
    1942:	74 0e                	je     1952 <audio_pipe_mix_data+0x162>
    1944:	8b 47 04             	mov    0x4(%edi),%eax
    1947:	85 c0                	test   %eax,%eax
    1949:	74 07                	je     1952 <audio_pipe_mix_data+0x162>
    194b:	89 10                	mov    %edx,(%eax)
    194d:	8b 17                	mov    (%edi),%edx
    194f:	89 42 04             	mov    %eax,0x4(%edx)
    1952:	8b 43 14             	mov    0x14(%ebx),%eax
    1955:	c7 07 00 00 00 00    	movl   $0x0,(%edi)
    195b:	c7 47 04 00 00 00 00 	movl   $0x0,0x4(%edi)
    1962:	85 c0                	test   %eax,%eax
    1964:	0f 84 09 01 00 00    	je     1a73 <audio_pipe_mix_data+0x283>
    196a:	83 c8 ff             	or     $0xffffffff,%eax
    196d:	f0 0f c1 43 14       	lock xadd %eax,0x14(%ebx)
    1972:	48                   	dec    %eax
    1973:	0f 84 87 00 00 00    	je     1a00 <audio_pipe_mix_data+0x210>
    1979:	83 ec 0c             	sub    $0xc,%esp
    197c:	57                   	push   %edi
    197d:	e8 4e a0 00 00       	call   b9d0 <free@plt>
    1982:	8b 75 e4             	mov    -0x1c(%ebp),%esi
    1985:	83 c4 10             	add    $0x10,%esp
    1988:	85 f6                	test   %esi,%esi
    198a:	74 5b                	je     19e7 <audio_pipe_mix_data+0x1f7>
    198c:	8b 45 08             	mov    0x8(%ebp),%eax
    198f:	8b 40 04             	mov    0x4(%eax),%eax
    1992:	3b 45 08             	cmp    0x8(%ebp),%eax
    1995:	74 50                	je     19e7 <audio_pipe_mix_data+0x1f7>
    1997:	89 c7                	mov    %eax,%edi
    1999:	8b 77 08             	mov    0x8(%edi),%esi
    199c:	8b 46 10             	mov    0x10(%esi),%eax
    199f:	83 f8 12             	cmp    $0x12,%eax
    19a2:	0f 86 d0 fe ff ff    	jbe    1878 <audio_pipe_mix_data+0x88>
    19a8:	8b 47 0c             	mov    0xc(%edi),%eax
    19ab:	89 c1                	mov    %eax,%ecx
    19ad:	89 45 e0             	mov    %eax,-0x20(%ebp)
    19b0:	8b 46 04             	mov    0x4(%esi),%eax
    19b3:	39 c8                	cmp    %ecx,%eax
    19b5:	72 7d                	jb     1a34 <audio_pipe_mix_data+0x244>
    19b7:	8b 55 e0             	mov    -0x20(%ebp),%edx
    19ba:	31 db                	xor    %ebx,%ebx
    19bc:	29 d0                	sub    %edx,%eax
    19be:	31 d2                	xor    %edx,%edx
    19c0:	48                   	dec    %eax
    19c1:	f7 f3                	div    %ebx
    19c3:	89 c3                	mov    %eax,%ebx
    19c5:	8b 45 e4             	mov    -0x1c(%ebp),%eax
    19c8:	39 c3                	cmp    %eax,%ebx
    19ca:	76 02                	jbe    19ce <audio_pipe_mix_data+0x1de>
    19cc:	89 c3                	mov    %eax,%ebx
    19ce:	8b 55 d4             	mov    -0x2c(%ebp),%edx
    19d1:	31 c9                	xor    %ecx,%ecx
    19d3:	0f af d3             	imul   %ebx,%edx
    19d6:	e9 ea fe ff ff       	jmp    18c5 <audio_pipe_mix_data+0xd5>
    19db:	90                   	nop
    19dc:	8d 74 26 00          	lea    0x0(%esi,%eiz,1),%esi
    19e0:	8b 5d e4             	mov    -0x1c(%ebp),%ebx
    19e3:	85 db                	test   %ebx,%ebx
    19e5:	75 38                	jne    1a1f <audio_pipe_mix_data+0x22f>
    19e7:	8b 5d d8             	mov    -0x28(%ebp),%ebx
    19ea:	83 ec 0c             	sub    $0xc,%esp
    19ed:	8b 45 d0             	mov    -0x30(%ebp),%eax
    19f0:	50                   	push   %eax
    19f1:	e8 0a 9e 00 00       	call   b800 <fibril_mutex_unlock@plt>
    19f6:	8d 65 f4             	lea    -0xc(%ebp),%esp
    19f9:	89 d8                	mov    %ebx,%eax
    19fb:	5b                   	pop    %ebx
    19fc:	5e                   	pop    %esi
    19fd:	5f                   	pop    %edi
    19fe:	5d                   	pop    %ebp
    19ff:	c3                   	ret    
    1a00:	83 ec 0c             	sub    $0xc,%esp
    1a03:	8b 03                	mov    (%ebx),%eax
    1a05:	50                   	push   %eax
    1a06:	e8 c5 9f 00 00       	call   b9d0 <free@plt>
    1a0b:	89 1c 24             	mov    %ebx,(%esp)
    1a0e:	e8 bd 9f 00 00       	call   b9d0 <free@plt>
    1a13:	83 c4 10             	add    $0x10,%esp
    1a16:	e9 5e ff ff ff       	jmp    1979 <audio_pipe_mix_data+0x189>
    1a1b:	31 db                	xor    %ebx,%ebx
    1a1d:	eb cb                	jmp    19ea <audio_pipe_mix_data+0x1fa>
    1a1f:	51                   	push   %ecx
    1a20:	68 32 01 00 00       	push   $0x132
    1a25:	68 7f 8d 00 00       	push   $0x8d7f
    1a2a:	68 be 8d 00 00       	push   $0x8dbe
    1a2f:	e8 7c 9d 00 00       	call   b7b0 <assert_abort@plt>
    1a34:	51                   	push   %ecx
    1a35:	68 a3 00 00 00       	push   $0xa3
    1a3a:	68 7f 8d 00 00       	push   $0x8d7f
    1a3f:	68 28 8e 00 00       	push   $0x8e28
    1a44:	e8 67 9d 00 00       	call   b7b0 <assert_abort@plt>
    1a49:	50                   	push   %eax
    1a4a:	68 a2 00 00 00       	push   $0xa2
    1a4f:	68 7f 8d 00 00       	push   $0x8d7f
    1a54:	68 97 8d 00 00       	push   $0x8d97
    1a59:	e8 52 9d 00 00       	call   b7b0 <assert_abort@plt>
    1a5e:	53                   	push   %ebx
    1a5f:	68 20 01 00 00       	push   $0x120
    1a64:	68 7f 8d 00 00       	push   $0x8d7f
    1a69:	68 50 8e 00 00       	push   $0x8e50
    1a6e:	e8 3d 9d 00 00       	call   b7b0 <assert_abort@plt>
    1a73:	50                   	push   %eax
    1a74:	6a 55                	push   $0x55
    1a76:	68 7f 8d 00 00       	push   $0x8d7f
    1a7b:	68 04 8e 00 00       	push   $0x8e04
    1a80:	e8 2b 9d 00 00       	call   b7b0 <assert_abort@plt>
    1a85:	57                   	push   %edi
    1a86:	68 0b 01 00 00       	push   $0x10b
    1a8b:	68 7f 8d 00 00       	push   $0x8d7f
    1a90:	68 92 8d 00 00       	push   $0x8d92
    1a95:	e8 16 9d 00 00       	call   b7b0 <assert_abort@plt>

00001a9a <audio_data_link_remain_size.part.2>:
    1a9a:	55                   	push   %ebp
    1a9b:	89 e5                	mov    %esp,%ebp
    1a9d:	83 ec 0c             	sub    $0xc,%esp
    1aa0:	68 a1 00 00 00       	push   $0xa1
    1aa5:	68 7f 8d 00 00       	push   $0x8d7f
    1aaa:	68 8c 8d 00 00       	push   $0x8d8c
    1aaf:	e8 fc 9c 00 00       	call   b7b0 <assert_abort@plt>

00001ab4 <audio_data_link_destroy.part.6>:
    1ab4:	55                   	push   %ebp
    1ab5:	89 e5                	mov    %esp,%ebp
    1ab7:	83 ec 0c             	sub    $0xc,%esp
    1aba:	68 88 00 00 00       	push   $0x88
    1abf:	68 7f 8d 00 00       	push   $0x8d7f
    1ac4:	68 8d 8d 00 00       	push   $0x8d8d
    1ac9:	e8 e2 9c 00 00       	call   b7b0 <assert_abort@plt>
    1ace:	66 90                	xchg   %ax,%ax

00001ad0 <device_sink_connection_callback>:
    1ad0:	55                   	push   %ebp
    1ad1:	89 e5                	mov    %esp,%ebp
    1ad3:	57                   	push   %edi
    1ad4:	56                   	push   %esi
    1ad5:	53                   	push   %ebx
    1ad6:	83 ec 1c             	sub    $0x1c,%esp
    1ad9:	8b 5d 08             	mov    0x8(%ebp),%ebx
    1adc:	8b 45 0c             	mov    0xc(%ebp),%eax
    1adf:	85 db                	test   %ebx,%ebx
    1ae1:	0f 84 9b 02 00 00    	je     1d82 <device_sink_connection_callback+0x2b2>
    1ae7:	8b 73 20             	mov    0x20(%ebx),%esi
    1aea:	84 c0                	test   %al,%al
    1aec:	75 62                	jne    1b50 <device_sink_connection_callback+0x80>
    1aee:	83 ec 0c             	sub    $0xc,%esp
    1af1:	8d 43 08             	lea    0x8(%ebx),%eax
    1af4:	50                   	push   %eax
    1af5:	e8 06 9e 00 00       	call   b900 <list_count@plt>
    1afa:	83 c4 10             	add    $0x10,%esp
    1afd:	85 c0                	test   %eax,%eax
    1aff:	75 75                	jne    1b76 <device_sink_connection_callback+0xa6>
    1b01:	8b 43 10             	mov    0x10(%ebx),%eax
    1b04:	50                   	push   %eax
    1b05:	68 fc 90 00 00       	push   $0x90fc
    1b0a:	6a 05                	push   $0x5
    1b0c:	6a ff                	push   $0xffffffff
    1b0e:	e8 5d 9c 00 00       	call   b770 <log_msg@plt>
    1b13:	8b 4e 0c             	mov    0xc(%esi),%ecx
    1b16:	5a                   	pop    %edx
    1b17:	51                   	push   %ecx
    1b18:	e8 d3 47 00 00       	call   62f0 <audio_pcm_stop_playback>
    1b1d:	83 c4 10             	add    $0x10,%esp
    1b20:	89 c3                	mov    %eax,%ebx
    1b22:	85 c0                	test   %eax,%eax
    1b24:	74 1b                	je     1b41 <device_sink_connection_callback+0x71>
    1b26:	83 ec 0c             	sub    $0xc,%esp
    1b29:	50                   	push   %eax
    1b2a:	e8 01 9e 00 00       	call   b930 <str_error@plt>
    1b2f:	50                   	push   %eax
    1b30:	68 98 8f 00 00       	push   $0x8f98
    1b35:	6a 01                	push   $0x1
    1b37:	6a ff                	push   $0xffffffff
    1b39:	e8 32 9c 00 00       	call   b770 <log_msg@plt>
    1b3e:	83 c4 20             	add    $0x20,%esp
    1b41:	8d 65 f4             	lea    -0xc(%ebp),%esp
    1b44:	89 d8                	mov    %ebx,%eax
    1b46:	5b                   	pop    %ebx
    1b47:	5e                   	pop    %esi
    1b48:	5f                   	pop    %edi
    1b49:	5d                   	pop    %ebp
    1b4a:	c3                   	ret    
    1b4b:	90                   	nop
    1b4c:	8d 74 26 00          	lea    0x0(%esi,%eiz,1),%esi
    1b50:	83 ec 0c             	sub    $0xc,%esp
    1b53:	8d 7b 08             	lea    0x8(%ebx),%edi
    1b56:	57                   	push   %edi
    1b57:	e8 a4 9d 00 00       	call   b900 <list_count@plt>
    1b5c:	83 c4 10             	add    $0x10,%esp
    1b5f:	48                   	dec    %eax
    1b60:	74 26                	je     1b88 <device_sink_connection_callback+0xb8>
    1b62:	83 ec 0c             	sub    $0xc,%esp
    1b65:	57                   	push   %edi
    1b66:	e8 95 9d 00 00       	call   b900 <list_count@plt>
    1b6b:	83 c4 10             	add    $0x10,%esp
    1b6e:	85 c0                	test   %eax,%eax
    1b70:	0f 84 ac 01 00 00    	je     1d22 <device_sink_connection_callback+0x252>
    1b76:	8d 65 f4             	lea    -0xc(%ebp),%esp
    1b79:	31 db                	xor    %ebx,%ebx
    1b7b:	89 d8                	mov    %ebx,%eax
    1b7d:	5b                   	pop    %ebx
    1b7e:	5e                   	pop    %esi
    1b7f:	5f                   	pop    %edi
    1b80:	5d                   	pop    %ebp
    1b81:	c3                   	ret    
    1b82:	8d b6 00 00 00 00    	lea    0x0(%esi),%esi
    1b88:	8b 43 10             	mov    0x10(%ebx),%eax
    1b8b:	50                   	push   %eax
    1b8c:	68 68 90 00 00       	push   $0x9068
    1b91:	6a 05                	push   $0x5
    1b93:	6a ff                	push   $0xffffffff
    1b95:	e8 d6 9b 00 00       	call   b770 <log_msg@plt>
    1b9a:	83 c4 10             	add    $0x10,%esp
    1b9d:	85 f6                	test   %esi,%esi
    1b9f:	0f 84 23 02 00 00    	je     1dc8 <device_sink_connection_callback+0x2f8>
    1ba5:	8b 46 0c             	mov    0xc(%esi),%eax
    1ba8:	85 c0                	test   %eax,%eax
    1baa:	0f 84 e7 01 00 00    	je     1d97 <device_sink_connection_callback+0x2c7>
    1bb0:	8b 5e 14             	mov    0x14(%esi),%ebx
    1bb3:	85 db                	test   %ebx,%ebx
    1bb5:	0f 85 7d 01 00 00    	jne    1d38 <device_sink_connection_callback+0x268>
    1bbb:	52                   	push   %edx
    1bbc:	8d 55 e4             	lea    -0x1c(%ebp),%edx
    1bbf:	52                   	push   %edx
    1bc0:	8d 56 14             	lea    0x14(%esi),%edx
    1bc3:	52                   	push   %edx
    1bc4:	c7 45 e4 00 00 00 00 	movl   $0x0,-0x1c(%ebp)
    1bcb:	50                   	push   %eax
    1bcc:	e8 5f 44 00 00       	call   6030 <audio_pcm_get_buffer>
    1bd1:	83 c4 10             	add    $0x10,%esp
    1bd4:	85 c0                	test   %eax,%eax
    1bd6:	0f 85 24 01 00 00    	jne    1d00 <device_sink_connection_callback+0x230>
    1bdc:	8b 45 e4             	mov    -0x1c(%ebp),%eax
    1bdf:	89 46 18             	mov    %eax,0x18(%esi)
    1be2:	c1 e8 04             	shr    $0x4,%eax
    1be5:	89 46 20             	mov    %eax,0x20(%esi)
    1be8:	8b 46 14             	mov    0x14(%esi),%eax
    1beb:	89 46 1c             	mov    %eax,0x1c(%esi)
    1bee:	50                   	push   %eax
    1bef:	8b 46 0c             	mov    0xc(%esi),%eax
    1bf2:	56                   	push   %esi
    1bf3:	68 a0 1e 00 00       	push   $0x1ea0
    1bf8:	50                   	push   %eax
    1bf9:	e8 52 43 00 00       	call   5f50 <audio_pcm_register_event_callback>
    1bfe:	83 c4 0c             	add    $0xc,%esp
    1c01:	8d 46 64             	lea    0x64(%esi),%eax
    1c04:	50                   	push   %eax
    1c05:	8b 46 18             	mov    0x18(%esi),%eax
    1c08:	50                   	push   %eax
    1c09:	8b 46 14             	mov    0x14(%esi),%eax
    1c0c:	50                   	push   %eax
    1c0d:	e8 fe 5c 00 00       	call   7910 <pcm_format_silence>
    1c12:	8b 46 20             	mov    0x20(%esi),%eax
    1c15:	83 c4 0c             	add    $0xc,%esp
    1c18:	8d 1c 00             	lea    (%eax,%eax,1),%ebx
    1c1b:	8b 46 1c             	mov    0x1c(%esi),%eax
    1c1e:	53                   	push   %ebx
    1c1f:	50                   	push   %eax
    1c20:	8d 46 50             	lea    0x50(%esi),%eax
    1c23:	50                   	push   %eax
    1c24:	e8 47 0c 00 00       	call   2870 <audio_sink_mix_inputs>
    1c29:	8b 46 1c             	mov    0x1c(%esi),%eax
    1c2c:	8b 56 14             	mov    0x14(%esi),%edx
    1c2f:	83 c4 10             	add    $0x10,%esp
    1c32:	39 d0                	cmp    %edx,%eax
    1c34:	0f 82 b8 01 00 00    	jb     1df2 <device_sink_connection_callback+0x322>
    1c3a:	8b 4e 18             	mov    0x18(%esi),%ecx
    1c3d:	01 d1                	add    %edx,%ecx
    1c3f:	39 c8                	cmp    %ecx,%eax
    1c41:	0f 83 96 01 00 00    	jae    1ddd <device_sink_connection_callback+0x30d>
    1c47:	01 d8                	add    %ebx,%eax
    1c49:	39 c1                	cmp    %eax,%ecx
    1c4b:	0f 84 00 01 00 00    	je     1d51 <device_sink_connection_callback+0x281>
    1c51:	89 46 1c             	mov    %eax,0x1c(%esi)
    1c54:	8b 56 6c             	mov    0x6c(%esi),%edx
    1c57:	31 c9                	xor    %ecx,%ecx
    1c59:	8b 46 20             	mov    0x20(%esi),%eax
    1c5c:	83 fa 12             	cmp    $0x12,%edx
    1c5f:	77 0d                	ja     1c6e <device_sink_connection_callback+0x19e>
    1c61:	8b 4e 64             	mov    0x64(%esi),%ecx
    1c64:	8b 1c 95 a0 91 00 00 	mov    0x91a0(,%edx,4),%ebx
    1c6b:	0f af cb             	imul   %ebx,%ecx
    1c6e:	31 d2                	xor    %edx,%edx
    1c70:	f7 f1                	div    %ecx
    1c72:	50                   	push   %eax
    1c73:	89 c3                	mov    %eax,%ebx
    1c75:	68 30 8f 00 00       	push   $0x8f30
    1c7a:	6a 05                	push   $0x5
    1c7c:	6a ff                	push   $0xffffffff
    1c7e:	e8 ed 9a 00 00       	call   b770 <log_msg@plt>
    1c83:	58                   	pop    %eax
    1c84:	8b 46 6c             	mov    0x6c(%esi),%eax
    1c87:	50                   	push   %eax
    1c88:	8b 46 68             	mov    0x68(%esi),%eax
    1c8b:	50                   	push   %eax
    1c8c:	8b 4e 0c             	mov    0xc(%esi),%ecx
    1c8f:	8b 56 64             	mov    0x64(%esi),%edx
    1c92:	52                   	push   %edx
    1c93:	53                   	push   %ebx
    1c94:	51                   	push   %ecx
    1c95:	e8 96 44 00 00       	call   6130 <audio_pcm_start_playback_fragment>
    1c9a:	83 c4 20             	add    $0x20,%esp
    1c9d:	89 c3                	mov    %eax,%ebx
    1c9f:	85 c0                	test   %eax,%eax
    1ca1:	0f 84 bb fe ff ff    	je     1b62 <device_sink_connection_callback+0x92>
    1ca7:	83 ec 0c             	sub    $0xc,%esp
    1caa:	50                   	push   %eax
    1cab:	e8 80 9c 00 00       	call   b930 <str_error@plt>
    1cb0:	50                   	push   %eax
    1cb1:	68 48 8f 00 00       	push   $0x8f48
    1cb6:	6a 01                	push   $0x1
    1cb8:	6a ff                	push   $0xffffffff
    1cba:	e8 b1 9a 00 00       	call   b770 <log_msg@plt>
    1cbf:	8b 46 14             	mov    0x14(%esi),%eax
    1cc2:	83 c4 20             	add    $0x20,%esp
    1cc5:	85 c0                	test   %eax,%eax
    1cc7:	0f 84 e6 00 00 00    	je     1db3 <device_sink_connection_callback+0x2e3>
    1ccd:	83 ec 0c             	sub    $0xc,%esp
    1cd0:	8b 46 0c             	mov    0xc(%esi),%eax
    1cd3:	50                   	push   %eax
    1cd4:	e8 07 44 00 00       	call   60e0 <audio_pcm_release_buffer>
    1cd9:	83 c4 10             	add    $0x10,%esp
    1cdc:	85 c0                	test   %eax,%eax
    1cde:	74 79                	je     1d59 <device_sink_connection_callback+0x289>
    1ce0:	83 ec 0c             	sub    $0xc,%esp
    1ce3:	50                   	push   %eax
    1ce4:	e8 47 9c 00 00       	call   b930 <str_error@plt>
    1ce9:	50                   	push   %eax
    1cea:	68 76 8f 00 00       	push   $0x8f76
    1cef:	6a 02                	push   $0x2
    1cf1:	6a ff                	push   $0xffffffff
    1cf3:	e8 78 9a 00 00       	call   b770 <log_msg@plt>
    1cf8:	83 c4 20             	add    $0x20,%esp
    1cfb:	e9 41 fe ff ff       	jmp    1b41 <device_sink_connection_callback+0x71>
    1d00:	89 c3                	mov    %eax,%ebx
    1d02:	83 ec 0c             	sub    $0xc,%esp
    1d05:	53                   	push   %ebx
    1d06:	e8 25 9c 00 00       	call   b930 <str_error@plt>
    1d0b:	50                   	push   %eax
    1d0c:	68 28 91 00 00       	push   $0x9128
    1d11:	6a 01                	push   $0x1
    1d13:	6a ff                	push   $0xffffffff
    1d15:	e8 56 9a 00 00       	call   b770 <log_msg@plt>
    1d1a:	83 c4 20             	add    $0x20,%esp
    1d1d:	e9 1f fe ff ff       	jmp    1b41 <device_sink_connection_callback+0x71>
    1d22:	53                   	push   %ebx
    1d23:	68 bf 00 00 00       	push   $0xbf
    1d28:	68 ec 8e 00 00       	push   $0x8eec
    1d2d:	68 93 8f 00 00       	push   $0x8f93
    1d32:	e8 79 9a 00 00       	call   b7b0 <assert_abort@plt>
    1d37:	90                   	nop
    1d38:	51                   	push   %ecx
    1d39:	68 17 8f 00 00       	push   $0x8f17
    1d3e:	6a 04                	push   $0x4
    1d40:	6a ff                	push   $0xffffffff
    1d42:	bb f1 ff ff ff       	mov    $0xfffffff1,%ebx
    1d47:	e8 24 9a 00 00       	call   b770 <log_msg@plt>
    1d4c:	83 c4 10             	add    $0x10,%esp
    1d4f:	eb b1                	jmp    1d02 <device_sink_connection_callback+0x232>
    1d51:	89 56 1c             	mov    %edx,0x1c(%esi)
    1d54:	e9 fb fe ff ff       	jmp    1c54 <device_sink_connection_callback+0x184>
    1d59:	83 ec 0c             	sub    $0xc,%esp
    1d5c:	8b 7e 14             	mov    0x14(%esi),%edi
    1d5f:	57                   	push   %edi
    1d60:	e8 cb 99 00 00       	call   b730 <as_area_destroy@plt>
    1d65:	c7 46 14 00 00 00 00 	movl   $0x0,0x14(%esi)
    1d6c:	c7 46 18 00 00 00 00 	movl   $0x0,0x18(%esi)
    1d73:	c7 46 1c 00 00 00 00 	movl   $0x0,0x1c(%esi)
    1d7a:	83 c4 10             	add    $0x10,%esp
    1d7d:	e9 bf fd ff ff       	jmp    1b41 <device_sink_connection_callback+0x71>
    1d82:	50                   	push   %eax
    1d83:	68 99 00 00 00       	push   $0x99
    1d88:	68 ec 8e 00 00       	push   $0x8eec
    1d8d:	68 76 95 00 00       	push   $0x9576
    1d92:	e8 19 9a 00 00       	call   b7b0 <assert_abort@plt>
    1d97:	56                   	push   %esi
    1d98:	68 ff 8e 00 00       	push   $0x8eff
    1d9d:	6a 04                	push   $0x4
    1d9f:	6a ff                	push   $0xffffffff
    1da1:	bb f6 fe ff ff       	mov    $0xfffffef6,%ebx
    1da6:	e8 c5 99 00 00       	call   b770 <log_msg@plt>
    1dab:	83 c4 10             	add    $0x10,%esp
    1dae:	e9 4f ff ff ff       	jmp    1d02 <device_sink_connection_callback+0x232>
    1db3:	50                   	push   %eax
    1db4:	68 7b 01 00 00       	push   $0x17b
    1db9:	68 ec 8e 00 00       	push   $0x8eec
    1dbe:	68 65 8f 00 00       	push   $0x8f65
    1dc3:	e8 e8 99 00 00       	call   b7b0 <assert_abort@plt>
    1dc8:	57                   	push   %edi
    1dc9:	68 5b 01 00 00       	push   $0x15b
    1dce:	68 ec 8e 00 00       	push   $0x8eec
    1dd3:	68 fb 8e 00 00       	push   $0x8efb
    1dd8:	e8 d3 99 00 00       	call   b7b0 <assert_abort@plt>
    1ddd:	56                   	push   %esi
    1dde:	68 92 01 00 00       	push   $0x192
    1de3:	68 ec 8e 00 00       	push   $0x8eec
    1de8:	68 bc 90 00 00       	push   $0x90bc
    1ded:	e8 be 99 00 00       	call   b7b0 <assert_abort@plt>
    1df2:	57                   	push   %edi
    1df3:	68 91 01 00 00       	push   $0x191
    1df8:	68 ec 8e 00 00       	push   $0x8eec
    1dfd:	68 90 90 00 00       	push   $0x9090
    1e02:	e8 a9 99 00 00       	call   b7b0 <assert_abort@plt>
    1e07:	89 f6                	mov    %esi,%esi
    1e09:	8d bc 27 00 00 00 00 	lea    0x0(%edi,%eiz,1),%edi

00001e10 <device_check_format>:
    1e10:	55                   	push   %ebp
    1e11:	89 e5                	mov    %esp,%ebp
    1e13:	56                   	push   %esi
    1e14:	53                   	push   %ebx
    1e15:	8b 5d 08             	mov    0x8(%ebp),%ebx
    1e18:	85 db                	test   %ebx,%ebx
    1e1a:	74 65                	je     1e81 <device_check_format+0x71>
    1e1c:	8b 73 20             	mov    0x20(%ebx),%esi
    1e1f:	85 f6                	test   %esi,%esi
    1e21:	74 49                	je     1e6c <device_check_format+0x5c>
    1e23:	8b 4e 14             	mov    0x14(%esi),%ecx
    1e26:	85 c9                	test   %ecx,%ecx
    1e28:	75 36                	jne    1e60 <device_check_format+0x50>
    1e2a:	8b 43 10             	mov    0x10(%ebx),%eax
    1e2d:	50                   	push   %eax
    1e2e:	68 b4 8f 00 00       	push   $0x8fb4
    1e33:	6a 05                	push   $0x5
    1e35:	6a ff                	push   $0xffffffff
    1e37:	e8 34 99 00 00       	call   b770 <log_msg@plt>
    1e3c:	8d 43 1c             	lea    0x1c(%ebx),%eax
    1e3f:	50                   	push   %eax
    1e40:	8d 43 18             	lea    0x18(%ebx),%eax
    1e43:	83 c3 14             	add    $0x14,%ebx
    1e46:	50                   	push   %eax
    1e47:	53                   	push   %ebx
    1e48:	8b 56 0c             	mov    0xc(%esi),%edx
    1e4b:	52                   	push   %edx
    1e4c:	e8 cf 3f 00 00       	call   5e20 <audio_pcm_test_format>
    1e51:	83 c4 20             	add    $0x20,%esp
    1e54:	8d 65 f8             	lea    -0x8(%ebp),%esp
    1e57:	5b                   	pop    %ebx
    1e58:	5e                   	pop    %esi
    1e59:	5d                   	pop    %ebp
    1e5a:	c3                   	ret    
    1e5b:	90                   	nop
    1e5c:	8d 74 26 00          	lea    0x0(%esi,%eiz,1),%esi
    1e60:	8d 65 f8             	lea    -0x8(%ebp),%esp
    1e63:	b8 f1 ff ff ff       	mov    $0xfffffff1,%eax
    1e68:	5b                   	pop    %ebx
    1e69:	5e                   	pop    %esi
    1e6a:	5d                   	pop    %ebp
    1e6b:	c3                   	ret    
    1e6c:	53                   	push   %ebx
    1e6d:	68 4b 01 00 00       	push   $0x14b
    1e72:	68 ec 8e 00 00       	push   $0x8eec
    1e77:	68 fb 8e 00 00       	push   $0x8efb
    1e7c:	e8 2f 99 00 00       	call   b7b0 <assert_abort@plt>
    1e81:	56                   	push   %esi
    1e82:	68 49 01 00 00       	push   $0x149
    1e87:	68 ec 8e 00 00       	push   $0x8eec
    1e8c:	68 76 95 00 00       	push   $0x9576
    1e91:	e8 1a 99 00 00       	call   b7b0 <assert_abort@plt>
    1e96:	8d 76 00             	lea    0x0(%esi),%esi
    1e99:	8d bc 27 00 00 00 00 	lea    0x0(%edi,%eiz,1),%edi

00001ea0 <device_event_callback>:
    1ea0:	55                   	push   %ebp
    1ea1:	89 e5                	mov    %esp,%ebp
    1ea3:	57                   	push   %edi
    1ea4:	56                   	push   %esi
    1ea5:	53                   	push   %ebx
    1ea6:	83 ec 64             	sub    $0x64,%esp
    1ea9:	8b 75 08             	mov    0x8(%ebp),%esi
    1eac:	8b 5d 10             	mov    0x10(%ebp),%ebx
    1eaf:	6a 00                	push   $0x0
    1eb1:	56                   	push   %esi
    1eb2:	e8 89 98 00 00       	call   b740 <async_answer_0@plt>
    1eb7:	83 c4 10             	add    $0x10,%esp
    1eba:	85 db                	test   %ebx,%ebx
    1ebc:	0f 84 b8 02 00 00    	je     217a <device_event_callback+0x2da>
    1ec2:	8d 43 24             	lea    0x24(%ebx),%eax
    1ec5:	8d 7d c4             	lea    -0x3c(%ebp),%edi
    1ec8:	89 45 a4             	mov    %eax,-0x5c(%ebp)
    1ecb:	90                   	nop
    1ecc:	8d 74 26 00          	lea    0x0(%esi,%eiz,1),%esi
    1ed0:	50                   	push   %eax
    1ed1:	50                   	push   %eax
    1ed2:	6a 00                	push   $0x0
    1ed4:	57                   	push   %edi
    1ed5:	e8 06 9a 00 00       	call   b8e0 <async_get_call_timeout@plt>
    1eda:	5a                   	pop    %edx
    1edb:	59                   	pop    %ecx
    1edc:	6a 00                	push   $0x0
    1ede:	50                   	push   %eax
    1edf:	e8 5c 98 00 00       	call   b740 <async_answer_0@plt>
    1ee4:	8b 45 c4             	mov    -0x3c(%ebp),%eax
    1ee7:	83 c4 10             	add    $0x10,%esp
    1eea:	3d 03 04 00 00       	cmp    $0x403,%eax
    1eef:	0f 84 4b 01 00 00    	je     2040 <device_event_callback+0x1a0>
    1ef5:	0f 87 95 00 00 00    	ja     1f90 <device_event_callback+0xf0>
    1efb:	85 c0                	test   %eax,%eax
    1efd:	0f 84 a5 01 00 00    	je     20a8 <device_event_callback+0x208>
    1f03:	3d 02 04 00 00       	cmp    $0x402,%eax
    1f08:	75 c6                	jne    1ed0 <device_event_callback+0x30>
    1f0a:	83 ec 0c             	sub    $0xc,%esp
    1f0d:	8d 75 b4             	lea    -0x4c(%ebp),%esi
    1f10:	56                   	push   %esi
    1f11:	e8 9a 99 00 00       	call   b8b0 <getuptime@plt>
    1f16:	83 c4 0c             	add    $0xc,%esp
    1f19:	8b 4b 20             	mov    0x20(%ebx),%ecx
    1f1c:	8b 43 1c             	mov    0x1c(%ebx),%eax
    1f1f:	51                   	push   %ecx
    1f20:	50                   	push   %eax
    1f21:	8d 43 50             	lea    0x50(%ebx),%eax
    1f24:	50                   	push   %eax
    1f25:	e8 46 09 00 00       	call   2870 <audio_sink_mix_inputs>
    1f2a:	8b 43 20             	mov    0x20(%ebx),%eax
    1f2d:	8b 53 14             	mov    0x14(%ebx),%edx
    1f30:	89 45 a0             	mov    %eax,-0x60(%ebp)
    1f33:	8b 43 1c             	mov    0x1c(%ebx),%eax
    1f36:	83 c4 10             	add    $0x10,%esp
    1f39:	39 d0                	cmp    %edx,%eax
    1f3b:	0f 82 24 02 00 00    	jb     2165 <device_event_callback+0x2c5>
    1f41:	8b 4b 18             	mov    0x18(%ebx),%ecx
    1f44:	01 d1                	add    %edx,%ecx
    1f46:	39 c8                	cmp    %ecx,%eax
    1f48:	0f 83 02 02 00 00    	jae    2150 <device_event_callback+0x2b0>
    1f4e:	03 45 a0             	add    -0x60(%ebp),%eax
    1f51:	39 c1                	cmp    %eax,%ecx
    1f53:	0f 84 ef 01 00 00    	je     2148 <device_event_callback+0x2a8>
    1f59:	89 43 1c             	mov    %eax,0x1c(%ebx)
    1f5c:	83 ec 0c             	sub    $0xc,%esp
    1f5f:	8d 45 bc             	lea    -0x44(%ebp),%eax
    1f62:	89 45 a0             	mov    %eax,-0x60(%ebp)
    1f65:	50                   	push   %eax
    1f66:	e8 45 99 00 00       	call   b8b0 <getuptime@plt>
    1f6b:	58                   	pop    %eax
    1f6c:	8b 45 a0             	mov    -0x60(%ebp),%eax
    1f6f:	5a                   	pop    %edx
    1f70:	56                   	push   %esi
    1f71:	50                   	push   %eax
    1f72:	e8 49 97 00 00       	call   b6c0 <tv_sub_diff@plt>
    1f77:	50                   	push   %eax
    1f78:	68 cf 8f 00 00       	push   $0x8fcf
    1f7d:	6a 05                	push   $0x5
    1f7f:	6a ff                	push   $0xffffffff
    1f81:	e8 ea 97 00 00       	call   b770 <log_msg@plt>
    1f86:	83 c4 20             	add    $0x20,%esp
    1f89:	e9 42 ff ff ff       	jmp    1ed0 <device_event_callback+0x30>
    1f8e:	66 90                	xchg   %ax,%ax
    1f90:	3d 04 04 00 00       	cmp    $0x404,%eax
    1f95:	0f 84 25 01 00 00    	je     20c0 <device_event_callback+0x220>
    1f9b:	3d 05 04 00 00       	cmp    $0x405,%eax
    1fa0:	0f 85 2a ff ff ff    	jne    1ed0 <device_event_callback+0x30>
    1fa6:	52                   	push   %edx
    1fa7:	68 e9 8f 00 00       	push   $0x8fe9
    1fac:	6a 05                	push   $0x5
    1fae:	6a ff                	push   $0xffffffff
    1fb0:	e8 bb 97 00 00       	call   b770 <log_msg@plt>
    1fb5:	a1 6c b3 00 00       	mov    0xb36c,%eax
    1fba:	89 43 38             	mov    %eax,0x38(%ebx)
    1fbd:	a1 70 b3 00 00       	mov    0xb370,%eax
    1fc2:	89 43 3c             	mov    %eax,0x3c(%ebx)
    1fc5:	8b 4b 14             	mov    0x14(%ebx),%ecx
    1fc8:	a1 74 b3 00 00       	mov    0xb374,%eax
    1fcd:	83 c4 10             	add    $0x10,%esp
    1fd0:	89 43 40             	mov    %eax,0x40(%ebx)
    1fd3:	85 c9                	test   %ecx,%ecx
    1fd5:	0f 84 1a 01 00 00    	je     20f5 <device_event_callback+0x255>
    1fdb:	83 ec 0c             	sub    $0xc,%esp
    1fde:	8b 43 0c             	mov    0xc(%ebx),%eax
    1fe1:	50                   	push   %eax
    1fe2:	e8 f9 40 00 00       	call   60e0 <audio_pcm_release_buffer>
    1fe7:	83 c4 10             	add    $0x10,%esp
    1fea:	89 c6                	mov    %eax,%esi
    1fec:	85 c0                	test   %eax,%eax
    1fee:	0f 84 1c 01 00 00    	je     2110 <device_event_callback+0x270>
    1ff4:	83 ec 0c             	sub    $0xc,%esp
    1ff7:	50                   	push   %eax
    1ff8:	e8 33 99 00 00       	call   b930 <str_error@plt>
    1ffd:	50                   	push   %eax
    1ffe:	68 76 8f 00 00       	push   $0x8f76
    2003:	6a 02                	push   $0x2
    2005:	6a ff                	push   $0xffffffff
    2007:	e8 64 97 00 00       	call   b770 <log_msg@plt>
    200c:	83 c4 14             	add    $0x14,%esp
    200f:	56                   	push   %esi
    2010:	e8 1b 99 00 00       	call   b930 <str_error@plt>
    2015:	50                   	push   %eax
    2016:	68 76 8f 00 00       	push   $0x8f76
    201b:	6a 01                	push   $0x1
    201d:	6a ff                	push   $0xffffffff
    201f:	e8 4c 97 00 00       	call   b770 <log_msg@plt>
    2024:	83 c4 20             	add    $0x20,%esp
    2027:	83 ec 0c             	sub    $0xc,%esp
    202a:	8b 43 0c             	mov    0xc(%ebx),%eax
    202d:	50                   	push   %eax
    202e:	e8 ad 3f 00 00       	call   5fe0 <audio_pcm_unregister_event_callback>
    2033:	83 c4 10             	add    $0x10,%esp
    2036:	e9 95 fe ff ff       	jmp    1ed0 <device_event_callback+0x30>
    203b:	90                   	nop
    203c:	8d 74 26 00          	lea    0x0(%esi,%eiz,1),%esi
    2040:	50                   	push   %eax
    2041:	8b 75 a4             	mov    -0x5c(%ebp),%esi
    2044:	8b 53 20             	mov    0x20(%ebx),%edx
    2047:	8b 4b 1c             	mov    0x1c(%ebx),%ecx
    204a:	52                   	push   %edx
    204b:	51                   	push   %ecx
    204c:	56                   	push   %esi
    204d:	e8 3e 0a 00 00       	call   2a90 <audio_source_push_data>
    2052:	8b 4b 20             	mov    0x20(%ebx),%ecx
    2055:	8b 53 1c             	mov    0x1c(%ebx),%edx
    2058:	89 4d a0             	mov    %ecx,-0x60(%ebp)
    205b:	8b 4b 14             	mov    0x14(%ebx),%ecx
    205e:	83 c4 10             	add    $0x10,%esp
    2061:	39 ca                	cmp    %ecx,%edx
    2063:	0f 82 fc 00 00 00    	jb     2165 <device_event_callback+0x2c5>
    2069:	8b 73 18             	mov    0x18(%ebx),%esi
    206c:	01 ce                	add    %ecx,%esi
    206e:	39 f2                	cmp    %esi,%edx
    2070:	0f 83 da 00 00 00    	jae    2150 <device_event_callback+0x2b0>
    2076:	03 55 a0             	add    -0x60(%ebp),%edx
    2079:	39 d6                	cmp    %edx,%esi
    207b:	0f 84 bf 00 00 00    	je     2140 <device_event_callback+0x2a0>
    2081:	89 53 1c             	mov    %edx,0x1c(%ebx)
    2084:	85 c0                	test   %eax,%eax
    2086:	0f 84 44 fe ff ff    	je     1ed0 <device_event_callback+0x30>
    208c:	51                   	push   %ecx
    208d:	68 10 90 00 00       	push   $0x9010
    2092:	6a 02                	push   $0x2
    2094:	6a ff                	push   $0xffffffff
    2096:	e8 d5 96 00 00       	call   b770 <log_msg@plt>
    209b:	83 c4 10             	add    $0x10,%esp
    209e:	e9 2d fe ff ff       	jmp    1ed0 <device_event_callback+0x30>
    20a3:	90                   	nop
    20a4:	8d 74 26 00          	lea    0x0(%esi,%eiz,1),%esi
    20a8:	52                   	push   %edx
    20a9:	68 2d 90 00 00       	push   $0x902d
    20ae:	6a 03                	push   $0x3
    20b0:	6a ff                	push   $0xffffffff
    20b2:	e8 b9 96 00 00       	call   b770 <log_msg@plt>
    20b7:	8d 65 f4             	lea    -0xc(%ebp),%esp
    20ba:	5b                   	pop    %ebx
    20bb:	5e                   	pop    %esi
    20bc:	5f                   	pop    %edi
    20bd:	5d                   	pop    %ebp
    20be:	c3                   	ret    
    20bf:	90                   	nop
    20c0:	50                   	push   %eax
    20c1:	68 fc 8f 00 00       	push   $0x8ffc
    20c6:	6a 05                	push   $0x5
    20c8:	6a ff                	push   $0xffffffff
    20ca:	e8 a1 96 00 00       	call   b770 <log_msg@plt>
    20cf:	a1 6c b3 00 00       	mov    0xb36c,%eax
    20d4:	89 43 64             	mov    %eax,0x64(%ebx)
    20d7:	a1 70 b3 00 00       	mov    0xb370,%eax
    20dc:	89 43 68             	mov    %eax,0x68(%ebx)
    20df:	a1 74 b3 00 00       	mov    0xb374,%eax
    20e4:	89 43 6c             	mov    %eax,0x6c(%ebx)
    20e7:	8b 43 14             	mov    0x14(%ebx),%eax
    20ea:	83 c4 10             	add    $0x10,%esp
    20ed:	85 c0                	test   %eax,%eax
    20ef:	0f 85 e6 fe ff ff    	jne    1fdb <device_event_callback+0x13b>
    20f5:	50                   	push   %eax
    20f6:	68 7b 01 00 00       	push   $0x17b
    20fb:	68 ec 8e 00 00       	push   $0x8eec
    2100:	68 65 8f 00 00       	push   $0x8f65
    2105:	e8 a6 96 00 00       	call   b7b0 <assert_abort@plt>
    210a:	8d b6 00 00 00 00    	lea    0x0(%esi),%esi
    2110:	83 ec 0c             	sub    $0xc,%esp
    2113:	8b 43 14             	mov    0x14(%ebx),%eax
    2116:	50                   	push   %eax
    2117:	e8 14 96 00 00       	call   b730 <as_area_destroy@plt>
    211c:	c7 43 14 00 00 00 00 	movl   $0x0,0x14(%ebx)
    2123:	c7 43 18 00 00 00 00 	movl   $0x0,0x18(%ebx)
    212a:	c7 43 1c 00 00 00 00 	movl   $0x0,0x1c(%ebx)
    2131:	83 c4 10             	add    $0x10,%esp
    2134:	e9 ee fe ff ff       	jmp    2027 <device_event_callback+0x187>
    2139:	8d b4 26 00 00 00 00 	lea    0x0(%esi,%eiz,1),%esi
    2140:	89 4b 1c             	mov    %ecx,0x1c(%ebx)
    2143:	e9 3c ff ff ff       	jmp    2084 <device_event_callback+0x1e4>
    2148:	89 53 1c             	mov    %edx,0x1c(%ebx)
    214b:	e9 0c fe ff ff       	jmp    1f5c <device_event_callback+0xbc>
    2150:	50                   	push   %eax
    2151:	68 92 01 00 00       	push   $0x192
    2156:	68 ec 8e 00 00       	push   $0x8eec
    215b:	68 bc 90 00 00       	push   $0x90bc
    2160:	e8 4b 96 00 00       	call   b7b0 <assert_abort@plt>
    2165:	52                   	push   %edx
    2166:	68 91 01 00 00       	push   $0x191
    216b:	68 ec 8e 00 00       	push   $0x8eec
    2170:	68 90 90 00 00       	push   $0x9090
    2175:	e8 36 96 00 00       	call   b7b0 <assert_abort@plt>
    217a:	50                   	push   %eax
    217b:	68 08 01 00 00       	push   $0x108
    2180:	68 ec 8e 00 00       	push   $0x8eec
    2185:	68 fb 8e 00 00       	push   $0x8efb
    218a:	e8 21 96 00 00       	call   b7b0 <assert_abort@plt>
    218f:	90                   	nop

00002190 <device_source_connection_callback>:
    2190:	55                   	push   %ebp
    2191:	89 e5                	mov    %esp,%ebp
    2193:	57                   	push   %edi
    2194:	56                   	push   %esi
    2195:	53                   	push   %ebx
    2196:	83 ec 1c             	sub    $0x1c,%esp
    2199:	8b 45 08             	mov    0x8(%ebp),%eax
    219c:	8b 55 0c             	mov    0xc(%ebp),%edx
    219f:	85 c0                	test   %eax,%eax
    21a1:	0f 84 0b 02 00 00    	je     23b2 <device_source_connection_callback+0x222>
    21a7:	8b 70 20             	mov    0x20(%eax),%esi
    21aa:	84 d2                	test   %dl,%dl
    21ac:	75 52                	jne    2200 <device_source_connection_callback+0x70>
    21ae:	83 ec 0c             	sub    $0xc,%esp
    21b1:	83 c0 08             	add    $0x8,%eax
    21b4:	50                   	push   %eax
    21b5:	e8 46 97 00 00       	call   b900 <list_count@plt>
    21ba:	83 c4 10             	add    $0x10,%esp
    21bd:	85 c0                	test   %eax,%eax
    21bf:	75 65                	jne    2226 <device_source_connection_callback+0x96>
    21c1:	83 ec 0c             	sub    $0xc,%esp
    21c4:	8b 46 0c             	mov    0xc(%esi),%eax
    21c7:	50                   	push   %eax
    21c8:	e8 e3 42 00 00       	call   64b0 <audio_pcm_stop_capture_immediate>
    21cd:	83 c4 10             	add    $0x10,%esp
    21d0:	89 c7                	mov    %eax,%edi
    21d2:	85 c0                	test   %eax,%eax
    21d4:	74 1b                	je     21f1 <device_source_connection_callback+0x61>
    21d6:	83 ec 0c             	sub    $0xc,%esp
    21d9:	50                   	push   %eax
    21da:	e8 51 97 00 00       	call   b930 <str_error@plt>
    21df:	50                   	push   %eax
    21e0:	68 4a 90 00 00       	push   $0x904a
    21e5:	6a 01                	push   $0x1
    21e7:	6a ff                	push   $0xffffffff
    21e9:	e8 82 95 00 00       	call   b770 <log_msg@plt>
    21ee:	83 c4 20             	add    $0x20,%esp
    21f1:	8d 65 f4             	lea    -0xc(%ebp),%esp
    21f4:	89 f8                	mov    %edi,%eax
    21f6:	5b                   	pop    %ebx
    21f7:	5e                   	pop    %esi
    21f8:	5f                   	pop    %edi
    21f9:	5d                   	pop    %ebp
    21fa:	c3                   	ret    
    21fb:	90                   	nop
    21fc:	8d 74 26 00          	lea    0x0(%esi,%eiz,1),%esi
    2200:	83 ec 0c             	sub    $0xc,%esp
    2203:	8d 58 08             	lea    0x8(%eax),%ebx
    2206:	53                   	push   %ebx
    2207:	e8 f4 96 00 00       	call   b900 <list_count@plt>
    220c:	83 c4 10             	add    $0x10,%esp
    220f:	48                   	dec    %eax
    2210:	74 26                	je     2238 <device_source_connection_callback+0xa8>
    2212:	83 ec 0c             	sub    $0xc,%esp
    2215:	53                   	push   %ebx
    2216:	e8 e5 96 00 00       	call   b900 <list_count@plt>
    221b:	83 c4 10             	add    $0x10,%esp
    221e:	85 c0                	test   %eax,%eax
    2220:	0f 84 34 01 00 00    	je     235a <device_source_connection_callback+0x1ca>
    2226:	8d 65 f4             	lea    -0xc(%ebp),%esp
    2229:	31 ff                	xor    %edi,%edi
    222b:	89 f8                	mov    %edi,%eax
    222d:	5b                   	pop    %ebx
    222e:	5e                   	pop    %esi
    222f:	5f                   	pop    %edi
    2230:	5d                   	pop    %ebp
    2231:	c3                   	ret    
    2232:	8d b6 00 00 00 00    	lea    0x0(%esi),%esi
    2238:	85 f6                	test   %esi,%esi
    223a:	0f 84 a3 01 00 00    	je     23e3 <device_source_connection_callback+0x253>
    2240:	8b 46 0c             	mov    0xc(%esi),%eax
    2243:	85 c0                	test   %eax,%eax
    2245:	0f 84 7c 01 00 00    	je     23c7 <device_source_connection_callback+0x237>
    224b:	8b 7e 14             	mov    0x14(%esi),%edi
    224e:	85 ff                	test   %edi,%edi
    2250:	0f 85 1a 01 00 00    	jne    2370 <device_source_connection_callback+0x1e0>
    2256:	8d 55 e4             	lea    -0x1c(%ebp),%edx
    2259:	51                   	push   %ecx
    225a:	52                   	push   %edx
    225b:	8d 56 14             	lea    0x14(%esi),%edx
    225e:	52                   	push   %edx
    225f:	c7 45 e4 00 00 00 00 	movl   $0x0,-0x1c(%ebp)
    2266:	50                   	push   %eax
    2267:	e8 c4 3d 00 00       	call   6030 <audio_pcm_get_buffer>
    226c:	83 c4 10             	add    $0x10,%esp
    226f:	85 c0                	test   %eax,%eax
    2271:	0f 85 c1 00 00 00    	jne    2338 <device_source_connection_callback+0x1a8>
    2277:	8b 45 e4             	mov    -0x1c(%ebp),%eax
    227a:	8b 56 14             	mov    0x14(%esi),%edx
    227d:	89 46 18             	mov    %eax,0x18(%esi)
    2280:	8b 4e 6c             	mov    0x6c(%esi),%ecx
    2283:	c1 e8 04             	shr    $0x4,%eax
    2286:	31 ff                	xor    %edi,%edi
    2288:	89 46 20             	mov    %eax,0x20(%esi)
    228b:	89 56 1c             	mov    %edx,0x1c(%esi)
    228e:	83 f9 12             	cmp    $0x12,%ecx
    2291:	0f 86 89 00 00 00    	jbe    2320 <device_source_connection_callback+0x190>
    2297:	83 ec 0c             	sub    $0xc,%esp
    229a:	8b 56 40             	mov    0x40(%esi),%edx
    229d:	8b 4e 3c             	mov    0x3c(%esi),%ecx
    22a0:	52                   	push   %edx
    22a1:	51                   	push   %ecx
    22a2:	8b 56 38             	mov    0x38(%esi),%edx
    22a5:	8b 4e 0c             	mov    0xc(%esi),%ecx
    22a8:	52                   	push   %edx
    22a9:	31 d2                	xor    %edx,%edx
    22ab:	f7 f7                	div    %edi
    22ad:	50                   	push   %eax
    22ae:	51                   	push   %ecx
    22af:	e8 8c 40 00 00       	call   6340 <audio_pcm_start_capture_fragment>
    22b4:	83 c4 20             	add    $0x20,%esp
    22b7:	89 c7                	mov    %eax,%edi
    22b9:	85 c0                	test   %eax,%eax
    22bb:	0f 84 51 ff ff ff    	je     2212 <device_source_connection_callback+0x82>
    22c1:	83 ec 0c             	sub    $0xc,%esp
    22c4:	50                   	push   %eax
    22c5:	e8 66 96 00 00       	call   b930 <str_error@plt>
    22ca:	50                   	push   %eax
    22cb:	68 4a 90 00 00       	push   $0x904a
    22d0:	6a 01                	push   $0x1
    22d2:	6a ff                	push   $0xffffffff
    22d4:	e8 97 94 00 00       	call   b770 <log_msg@plt>
    22d9:	8b 46 14             	mov    0x14(%esi),%eax
    22dc:	83 c4 20             	add    $0x20,%esp
    22df:	85 c0                	test   %eax,%eax
    22e1:	0f 84 11 01 00 00    	je     23f8 <device_source_connection_callback+0x268>
    22e7:	83 ec 0c             	sub    $0xc,%esp
    22ea:	8b 5e 0c             	mov    0xc(%esi),%ebx
    22ed:	53                   	push   %ebx
    22ee:	e8 ed 3d 00 00       	call   60e0 <audio_pcm_release_buffer>
    22f3:	83 c4 10             	add    $0x10,%esp
    22f6:	85 c0                	test   %eax,%eax
    22f8:	0f 84 8b 00 00 00    	je     2389 <device_source_connection_callback+0x1f9>
    22fe:	83 ec 0c             	sub    $0xc,%esp
    2301:	50                   	push   %eax
    2302:	e8 29 96 00 00       	call   b930 <str_error@plt>
    2307:	50                   	push   %eax
    2308:	68 76 8f 00 00       	push   $0x8f76
    230d:	6a 02                	push   $0x2
    230f:	6a ff                	push   $0xffffffff
    2311:	e8 5a 94 00 00       	call   b770 <log_msg@plt>
    2316:	83 c4 20             	add    $0x20,%esp
    2319:	e9 d3 fe ff ff       	jmp    21f1 <device_source_connection_callback+0x61>
    231e:	66 90                	xchg   %ax,%ax
    2320:	8b 7e 64             	mov    0x64(%esi),%edi
    2323:	8b 14 8d a0 91 00 00 	mov    0x91a0(,%ecx,4),%edx
    232a:	0f af fa             	imul   %edx,%edi
    232d:	e9 65 ff ff ff       	jmp    2297 <device_source_connection_callback+0x107>
    2332:	8d b6 00 00 00 00    	lea    0x0(%esi),%esi
    2338:	89 c7                	mov    %eax,%edi
    233a:	83 ec 0c             	sub    $0xc,%esp
    233d:	57                   	push   %edi
    233e:	e8 ed 95 00 00       	call   b930 <str_error@plt>
    2343:	50                   	push   %eax
    2344:	68 28 91 00 00       	push   $0x9128
    2349:	6a 01                	push   $0x1
    234b:	6a ff                	push   $0xffffffff
    234d:	e8 1e 94 00 00       	call   b770 <log_msg@plt>
    2352:	83 c4 20             	add    $0x20,%esp
    2355:	e9 97 fe ff ff       	jmp    21f1 <device_source_connection_callback+0x61>
    235a:	52                   	push   %edx
    235b:	68 f1 00 00 00       	push   $0xf1
    2360:	68 ec 8e 00 00       	push   $0x8eec
    2365:	68 93 8f 00 00       	push   $0x8f93
    236a:	e8 41 94 00 00       	call   b7b0 <assert_abort@plt>
    236f:	90                   	nop
    2370:	53                   	push   %ebx
    2371:	68 17 8f 00 00       	push   $0x8f17
    2376:	6a 04                	push   $0x4
    2378:	6a ff                	push   $0xffffffff
    237a:	bf f1 ff ff ff       	mov    $0xfffffff1,%edi
    237f:	e8 ec 93 00 00       	call   b770 <log_msg@plt>
    2384:	83 c4 10             	add    $0x10,%esp
    2387:	eb b1                	jmp    233a <device_source_connection_callback+0x1aa>
    2389:	83 ec 0c             	sub    $0xc,%esp
    238c:	8b 4e 14             	mov    0x14(%esi),%ecx
    238f:	51                   	push   %ecx
    2390:	e8 9b 93 00 00       	call   b730 <as_area_destroy@plt>
    2395:	c7 46 14 00 00 00 00 	movl   $0x0,0x14(%esi)
    239c:	c7 46 18 00 00 00 00 	movl   $0x0,0x18(%esi)
    23a3:	c7 46 1c 00 00 00 00 	movl   $0x0,0x1c(%esi)
    23aa:	83 c4 10             	add    $0x10,%esp
    23ad:	e9 3f fe ff ff       	jmp    21f1 <device_source_connection_callback+0x61>
    23b2:	50                   	push   %eax
    23b3:	68 d7 00 00 00       	push   $0xd7
    23b8:	68 ec 8e 00 00       	push   $0x8eec
    23bd:	68 63 92 00 00       	push   $0x9263
    23c2:	e8 e9 93 00 00       	call   b7b0 <assert_abort@plt>
    23c7:	50                   	push   %eax
    23c8:	68 ff 8e 00 00       	push   $0x8eff
    23cd:	6a 04                	push   $0x4
    23cf:	6a ff                	push   $0xffffffff
    23d1:	bf f6 fe ff ff       	mov    $0xfffffef6,%edi
    23d6:	e8 95 93 00 00       	call   b770 <log_msg@plt>
    23db:	83 c4 10             	add    $0x10,%esp
    23de:	e9 57 ff ff ff       	jmp    233a <device_source_connection_callback+0x1aa>
    23e3:	50                   	push   %eax
    23e4:	68 5b 01 00 00       	push   $0x15b
    23e9:	68 ec 8e 00 00       	push   $0x8eec
    23ee:	68 fb 8e 00 00       	push   $0x8efb
    23f3:	e8 b8 93 00 00       	call   b7b0 <assert_abort@plt>
    23f8:	56                   	push   %esi
    23f9:	68 7b 01 00 00       	push   $0x17b
    23fe:	68 ec 8e 00 00       	push   $0x8eec
    2403:	68 65 8f 00 00       	push   $0x8f65
    2408:	e8 a3 93 00 00       	call   b7b0 <assert_abort@plt>
    240d:	8d 76 00             	lea    0x0(%esi),%esi

00002410 <audio_device_init>:
    2410:	55                   	push   %ebp
    2411:	89 e5                	mov    %esp,%ebp
    2413:	57                   	push   %edi
    2414:	56                   	push   %esi
    2415:	53                   	push   %ebx
    2416:	83 ec 0c             	sub    $0xc,%esp
    2419:	8b 5d 08             	mov    0x8(%ebp),%ebx
    241c:	8b 7d 0c             	mov    0xc(%ebp),%edi
    241f:	8b 75 10             	mov    0x10(%ebp),%esi
    2422:	85 db                	test   %ebx,%ebx
    2424:	0f 84 c1 00 00 00    	je     24eb <audio_device_init+0xdb>
    242a:	83 ec 0c             	sub    $0xc,%esp
    242d:	c7 03 00 00 00 00    	movl   $0x0,(%ebx)
    2433:	c7 43 04 00 00 00 00 	movl   $0x0,0x4(%ebx)
    243a:	89 7b 08             	mov    %edi,0x8(%ebx)
    243d:	56                   	push   %esi
    243e:	e8 dd 93 00 00       	call   b820 <str_dup@plt>
    2443:	89 43 10             	mov    %eax,0x10(%ebx)
    2446:	89 3c 24             	mov    %edi,(%esp)
    2449:	e8 c2 37 00 00       	call   5c10 <audio_pcm_open_service>
    244e:	83 c4 10             	add    $0x10,%esp
    2451:	89 43 0c             	mov    %eax,0xc(%ebx)
    2454:	85 c0                	test   %eax,%eax
    2456:	74 7a                	je     24d2 <audio_device_init+0xc2>
    2458:	50                   	push   %eax
    2459:	8d 43 50             	lea    0x50(%ebx),%eax
    245c:	68 6c b3 00 00       	push   $0xb36c
    2461:	6a 00                	push   $0x0
    2463:	68 10 1e 00 00       	push   $0x1e10
    2468:	68 d0 1a 00 00       	push   $0x1ad0
    246d:	53                   	push   %ebx
    246e:	56                   	push   %esi
    246f:	50                   	push   %eax
    2470:	e8 3b 01 00 00       	call   25b0 <audio_sink_init>
    2475:	83 c4 18             	add    $0x18,%esp
    2478:	8d 43 24             	lea    0x24(%ebx),%eax
    247b:	68 6c b3 00 00       	push   $0xb36c
    2480:	6a 00                	push   $0x0
    2482:	68 90 21 00 00       	push   $0x2190
    2487:	53                   	push   %ebx
    2488:	56                   	push   %esi
    2489:	50                   	push   %eax
    248a:	e8 f1 04 00 00       	call   2980 <audio_source_init>
    248f:	83 c4 18             	add    $0x18,%esp
    2492:	8b 53 08             	mov    0x8(%ebx),%edx
    2495:	8b 4b 10             	mov    0x10(%ebx),%ecx
    2498:	c7 43 14 00 00 00 00 	movl   $0x0,0x14(%ebx)
    249f:	c7 43 1c 00 00 00 00 	movl   $0x0,0x1c(%ebx)
    24a6:	c7 43 18 00 00 00 00 	movl   $0x0,0x18(%ebx)
    24ad:	c7 43 20 00 00 00 00 	movl   $0x0,0x20(%ebx)
    24b4:	52                   	push   %edx
    24b5:	51                   	push   %ecx
    24b6:	53                   	push   %ebx
    24b7:	68 6c 91 00 00       	push   $0x916c
    24bc:	6a 05                	push   $0x5
    24be:	6a ff                	push   $0xffffffff
    24c0:	e8 ab 92 00 00       	call   b770 <log_msg@plt>
    24c5:	83 c4 20             	add    $0x20,%esp
    24c8:	31 c0                	xor    %eax,%eax
    24ca:	8d 65 f4             	lea    -0xc(%ebp),%esp
    24cd:	5b                   	pop    %ebx
    24ce:	5e                   	pop    %esi
    24cf:	5f                   	pop    %edi
    24d0:	5d                   	pop    %ebp
    24d1:	c3                   	ret    
    24d2:	56                   	push   %esi
    24d3:	68 48 91 00 00       	push   $0x9148
    24d8:	6a 04                	push   $0x4
    24da:	6a ff                	push   $0xffffffff
    24dc:	e8 8f 92 00 00       	call   b770 <log_msg@plt>
    24e1:	83 c4 10             	add    $0x10,%esp
    24e4:	b8 fe ff ff ff       	mov    $0xfffffffe,%eax
    24e9:	eb df                	jmp    24ca <audio_device_init+0xba>
    24eb:	53                   	push   %ebx
    24ec:	6a 4c                	push   $0x4c
    24ee:	68 ec 8e 00 00       	push   $0x8eec
    24f3:	68 fb 8e 00 00       	push   $0x8efb
    24f8:	e8 b3 92 00 00       	call   b7b0 <assert_abort@plt>
    24fd:	8d 76 00             	lea    0x0(%esi),%esi

00002500 <audio_device_fini>:
    2500:	55                   	push   %ebp
    2501:	89 e5                	mov    %esp,%ebp
    2503:	5d                   	pop    %ebp
    2504:	c3                   	ret    
    2505:	8d 74 26 00          	lea    0x0(%esi,%eiz,1),%esi
    2509:	8d bc 27 00 00 00 00 	lea    0x0(%edi,%eiz,1),%edi

00002510 <audio_device_get_source>:
    2510:	55                   	push   %ebp
    2511:	89 e5                	mov    %esp,%ebp
    2513:	53                   	push   %ebx
    2514:	53                   	push   %ebx
    2515:	8b 5d 08             	mov    0x8(%ebp),%ebx
    2518:	85 db                	test   %ebx,%ebx
    251a:	74 23                	je     253f <audio_device_get_source+0x2f>
    251c:	50                   	push   %eax
    251d:	50                   	push   %eax
    251e:	8b 53 0c             	mov    0xc(%ebx),%edx
    2521:	6a 00                	push   $0x0
    2523:	52                   	push   %edx
    2524:	e8 17 38 00 00       	call   5d40 <audio_pcm_query_cap>
    2529:	83 c4 10             	add    $0x10,%esp
    252c:	85 c0                	test   %eax,%eax
    252e:	74 08                	je     2538 <audio_device_get_source+0x28>
    2530:	8d 43 24             	lea    0x24(%ebx),%eax
    2533:	8b 5d fc             	mov    -0x4(%ebp),%ebx
    2536:	c9                   	leave  
    2537:	c3                   	ret    
    2538:	31 c0                	xor    %eax,%eax
    253a:	8b 5d fc             	mov    -0x4(%ebp),%ebx
    253d:	c9                   	leave  
    253e:	c3                   	ret    
    253f:	51                   	push   %ecx
    2540:	6a 7a                	push   $0x7a
    2542:	68 ec 8e 00 00       	push   $0x8eec
    2547:	68 fb 8e 00 00       	push   $0x8efb
    254c:	e8 5f 92 00 00       	call   b7b0 <assert_abort@plt>
    2551:	eb 0d                	jmp    2560 <audio_device_get_sink>
    2553:	90                   	nop
    2554:	90                   	nop
    2555:	90                   	nop
    2556:	90                   	nop
    2557:	90                   	nop
    2558:	90                   	nop
    2559:	90                   	nop
    255a:	90                   	nop
    255b:	90                   	nop
    255c:	90                   	nop
    255d:	90                   	nop
    255e:	90                   	nop
    255f:	90                   	nop

00002560 <audio_device_get_sink>:
    2560:	55                   	push   %ebp
    2561:	89 e5                	mov    %esp,%ebp
    2563:	53                   	push   %ebx
    2564:	53                   	push   %ebx
    2565:	8b 5d 08             	mov    0x8(%ebp),%ebx
    2568:	85 db                	test   %ebx,%ebx
    256a:	74 23                	je     258f <audio_device_get_sink+0x2f>
    256c:	50                   	push   %eax
    256d:	50                   	push   %eax
    256e:	8b 53 0c             	mov    0xc(%ebx),%edx
    2571:	6a 01                	push   $0x1
    2573:	52                   	push   %edx
    2574:	e8 c7 37 00 00       	call   5d40 <audio_pcm_query_cap>
    2579:	83 c4 10             	add    $0x10,%esp
    257c:	85 c0                	test   %eax,%eax
    257e:	74 08                	je     2588 <audio_device_get_sink+0x28>
    2580:	8d 43 50             	lea    0x50(%ebx),%eax
    2583:	8b 5d fc             	mov    -0x4(%ebp),%ebx
    2586:	c9                   	leave  
    2587:	c3                   	ret    
    2588:	31 c0                	xor    %eax,%eax
    258a:	8b 5d fc             	mov    -0x4(%ebp),%ebx
    258d:	c9                   	leave  
    258e:	c3                   	ret    
    258f:	51                   	push   %ecx
    2590:	68 88 00 00 00       	push   $0x88
    2595:	68 ec 8e 00 00       	push   $0x8eec
    259a:	68 fb 8e 00 00       	push   $0x8efb
    259f:	e8 0c 92 00 00       	call   b7b0 <assert_abort@plt>
    25a4:	66 90                	xchg   %ax,%ax
    25a6:	66 90                	xchg   %ax,%ax
    25a8:	66 90                	xchg   %ax,%ax
    25aa:	66 90                	xchg   %ax,%ax
    25ac:	66 90                	xchg   %ax,%ax
    25ae:	66 90                	xchg   %ax,%ax

000025b0 <audio_sink_init>:
    25b0:	55                   	push   %ebp
    25b1:	89 e5                	mov    %esp,%ebp
    25b3:	56                   	push   %esi
    25b4:	53                   	push   %ebx
    25b5:	8b 5d 08             	mov    0x8(%ebp),%ebx
    25b8:	8b 45 0c             	mov    0xc(%ebp),%eax
    25bb:	8b 75 20             	mov    0x20(%ebp),%esi
    25be:	85 db                	test   %ebx,%ebx
    25c0:	0f 84 89 00 00 00    	je     264f <audio_sink_init+0x9f>
    25c6:	85 c0                	test   %eax,%eax
    25c8:	74 76                	je     2640 <audio_sink_init+0x90>
    25ca:	83 ec 0c             	sub    $0xc,%esp
    25cd:	8d 53 08             	lea    0x8(%ebx),%edx
    25d0:	c7 03 00 00 00 00    	movl   $0x0,(%ebx)
    25d6:	c7 43 04 00 00 00 00 	movl   $0x0,0x4(%ebx)
    25dd:	89 53 08             	mov    %edx,0x8(%ebx)
    25e0:	89 53 0c             	mov    %edx,0xc(%ebx)
    25e3:	50                   	push   %eax
    25e4:	e8 37 92 00 00       	call   b820 <str_dup@plt>
    25e9:	83 c4 10             	add    $0x10,%esp
    25ec:	89 43 10             	mov    %eax,0x10(%ebx)
    25ef:	85 c0                	test   %eax,%eax
    25f1:	74 55                	je     2648 <audio_sink_init+0x98>
    25f3:	8b 55 10             	mov    0x10(%ebp),%edx
    25f6:	83 ec 0c             	sub    $0xc,%esp
    25f9:	89 53 20             	mov    %edx,0x20(%ebx)
    25fc:	8b 16                	mov    (%esi),%edx
    25fe:	89 53 14             	mov    %edx,0x14(%ebx)
    2601:	8b 56 04             	mov    0x4(%esi),%edx
    2604:	89 53 18             	mov    %edx,0x18(%ebx)
    2607:	8b 56 08             	mov    0x8(%esi),%edx
    260a:	89 53 1c             	mov    %edx,0x1c(%ebx)
    260d:	8b 55 14             	mov    0x14(%ebp),%edx
    2610:	89 53 24             	mov    %edx,0x24(%ebx)
    2613:	8b 55 18             	mov    0x18(%ebp),%edx
    2616:	89 53 28             	mov    %edx,0x28(%ebx)
    2619:	8b 55 1c             	mov    0x1c(%ebp),%edx
    261c:	89 53 2c             	mov    %edx,0x2c(%ebx)
    261f:	50                   	push   %eax
    2620:	53                   	push   %ebx
    2621:	68 f9 91 00 00       	push   $0x91f9
    2626:	6a 05                	push   $0x5
    2628:	6a ff                	push   $0xffffffff
    262a:	e8 41 91 00 00       	call   b770 <log_msg@plt>
    262f:	83 c4 20             	add    $0x20,%esp
    2632:	31 c0                	xor    %eax,%eax
    2634:	8d 65 f8             	lea    -0x8(%ebp),%esp
    2637:	5b                   	pop    %ebx
    2638:	5e                   	pop    %esi
    2639:	5d                   	pop    %ebp
    263a:	c3                   	ret    
    263b:	90                   	nop
    263c:	8d 74 26 00          	lea    0x0(%esi,%eiz,1),%esi
    2640:	b8 f2 ff ff ff       	mov    $0xfffffff2,%eax
    2645:	eb ed                	jmp    2634 <audio_sink_init+0x84>
    2647:	90                   	nop
    2648:	b8 fe ff ff ff       	mov    $0xfffffffe,%eax
    264d:	eb e5                	jmp    2634 <audio_sink_init+0x84>
    264f:	50                   	push   %eax
    2650:	6a 3f                	push   $0x3f
    2652:	68 ec 91 00 00       	push   $0x91ec
    2657:	68 76 95 00 00       	push   $0x9576
    265c:	e8 4f 91 00 00       	call   b7b0 <assert_abort@plt>
    2661:	eb 0d                	jmp    2670 <audio_sink_fini>
    2663:	90                   	nop
    2664:	90                   	nop
    2665:	90                   	nop
    2666:	90                   	nop
    2667:	90                   	nop
    2668:	90                   	nop
    2669:	90                   	nop
    266a:	90                   	nop
    266b:	90                   	nop
    266c:	90                   	nop
    266d:	90                   	nop
    266e:	90                   	nop
    266f:	90                   	nop

00002670 <audio_sink_fini>:
    2670:	55                   	push   %ebp
    2671:	89 e5                	mov    %esp,%ebp
    2673:	53                   	push   %ebx
    2674:	50                   	push   %eax
    2675:	8b 5d 08             	mov    0x8(%ebp),%ebx
    2678:	85 db                	test   %ebx,%ebx
    267a:	74 2a                	je     26a6 <audio_sink_fini+0x36>
    267c:	8d 43 08             	lea    0x8(%ebx),%eax
    267f:	39 43 0c             	cmp    %eax,0xc(%ebx)
    2682:	75 46                	jne    26ca <audio_sink_fini+0x5a>
    2684:	8b 4b 20             	mov    0x20(%ebx),%ecx
    2687:	85 c9                	test   %ecx,%ecx
    2689:	75 2d                	jne    26b8 <audio_sink_fini+0x48>
    268b:	83 ec 0c             	sub    $0xc,%esp
    268e:	8b 43 10             	mov    0x10(%ebx),%eax
    2691:	50                   	push   %eax
    2692:	e8 39 93 00 00       	call   b9d0 <free@plt>
    2697:	c7 43 10 00 00 00 00 	movl   $0x0,0x10(%ebx)
    269e:	83 c4 10             	add    $0x10,%esp
    26a1:	8b 5d fc             	mov    -0x4(%ebp),%ebx
    26a4:	c9                   	leave  
    26a5:	c3                   	ret    
    26a6:	50                   	push   %eax
    26a7:	6a 56                	push   $0x56
    26a9:	68 ec 91 00 00       	push   $0x91ec
    26ae:	68 76 95 00 00       	push   $0x9576
    26b3:	e8 f8 90 00 00       	call   b7b0 <assert_abort@plt>
    26b8:	52                   	push   %edx
    26b9:	6a 58                	push   $0x58
    26bb:	68 ec 91 00 00       	push   $0x91ec
    26c0:	68 14 92 00 00       	push   $0x9214
    26c5:	e8 e6 90 00 00       	call   b7b0 <assert_abort@plt>
    26ca:	53                   	push   %ebx
    26cb:	6a 57                	push   $0x57
    26cd:	68 ec 91 00 00       	push   $0x91ec
    26d2:	68 b0 93 00 00       	push   $0x93b0
    26d7:	e8 d4 90 00 00       	call   b7b0 <assert_abort@plt>
    26dc:	8d 74 26 00          	lea    0x0(%esi,%eiz,1),%esi

000026e0 <audio_sink_set_format>:
    26e0:	55                   	push   %ebp
    26e1:	89 e5                	mov    %esp,%ebp
    26e3:	57                   	push   %edi
    26e4:	56                   	push   %esi
    26e5:	53                   	push   %ebx
    26e6:	83 ec 1c             	sub    $0x1c,%esp
    26e9:	8b 75 08             	mov    0x8(%ebp),%esi
    26ec:	8b 7d 0c             	mov    0xc(%ebp),%edi
    26ef:	85 f6                	test   %esi,%esi
    26f1:	0f 84 5a 01 00 00    	je     2851 <audio_sink_set_format+0x171>
    26f7:	85 ff                	test   %edi,%edi
    26f9:	0f 84 40 01 00 00    	je     283f <audio_sink_set_format+0x15f>
    26ff:	50                   	push   %eax
    2700:	50                   	push   %eax
    2701:	8d 46 14             	lea    0x14(%esi),%eax
    2704:	68 6c b3 00 00       	push   $0xb36c
    2709:	50                   	push   %eax
    270a:	e8 a1 51 00 00       	call   78b0 <pcm_format_same>
    270f:	83 c4 10             	add    $0x10,%esp
    2712:	84 c0                	test   %al,%al
    2714:	0f 84 06 01 00 00    	je     2820 <audio_sink_set_format+0x140>
    271a:	8b 46 14             	mov    0x14(%esi),%eax
    271d:	8b 5e 1c             	mov    0x1c(%esi),%ebx
    2720:	89 45 e0             	mov    %eax,-0x20(%ebp)
    2723:	8b 46 18             	mov    0x18(%esi),%eax
    2726:	89 45 e4             	mov    %eax,-0x1c(%ebp)
    2729:	50                   	push   %eax
    272a:	50                   	push   %eax
    272b:	68 6c b3 00 00       	push   $0xb36c
    2730:	57                   	push   %edi
    2731:	e8 7a 51 00 00       	call   78b0 <pcm_format_same>
    2736:	83 c4 10             	add    $0x10,%esp
    2739:	84 c0                	test   %al,%al
    273b:	75 73                	jne    27b0 <audio_sink_set_format+0xd0>
    273d:	8b 07                	mov    (%edi),%eax
    273f:	89 46 14             	mov    %eax,0x14(%esi)
    2742:	8b 47 04             	mov    0x4(%edi),%eax
    2745:	89 46 18             	mov    %eax,0x18(%esi)
    2748:	8b 47 08             	mov    0x8(%edi),%eax
    274b:	89 46 1c             	mov    %eax,0x1c(%esi)
    274e:	8b 46 28             	mov    0x28(%esi),%eax
    2751:	85 c0                	test   %eax,%eax
    2753:	74 16                	je     276b <audio_sink_set_format+0x8b>
    2755:	83 ec 0c             	sub    $0xc,%esp
    2758:	56                   	push   %esi
    2759:	ff d0                	call   *%eax
    275b:	83 c4 10             	add    $0x10,%esp
    275e:	85 c0                	test   %eax,%eax
    2760:	74 09                	je     276b <audio_sink_set_format+0x8b>
    2762:	83 f8 fd             	cmp    $0xfffffffd,%eax
    2765:	0f 85 7d 00 00 00    	jne    27e8 <audio_sink_set_format+0x108>
    276b:	8b 5f 08             	mov    0x8(%edi),%ebx
    276e:	b8 28 92 00 00       	mov    $0x9228,%eax
    2773:	83 fb 12             	cmp    $0x12,%ebx
    2776:	76 28                	jbe    27a0 <audio_sink_set_format+0xc0>
    2778:	52                   	push   %edx
    2779:	50                   	push   %eax
    277a:	8b 4f 04             	mov    0x4(%edi),%ecx
    277d:	8b 76 10             	mov    0x10(%esi),%esi
    2780:	51                   	push   %ecx
    2781:	8b 1f                	mov    (%edi),%ebx
    2783:	53                   	push   %ebx
    2784:	56                   	push   %esi
    2785:	68 14 94 00 00       	push   $0x9414
    278a:	6a 05                	push   $0x5
    278c:	6a ff                	push   $0xffffffff
    278e:	e8 dd 8f 00 00       	call   b770 <log_msg@plt>
    2793:	83 c4 20             	add    $0x20,%esp
    2796:	31 c0                	xor    %eax,%eax
    2798:	8d 65 f4             	lea    -0xc(%ebp),%esp
    279b:	5b                   	pop    %ebx
    279c:	5e                   	pop    %esi
    279d:	5f                   	pop    %edi
    279e:	5d                   	pop    %ebp
    279f:	c3                   	ret    
    27a0:	8b 04 9d e0 94 00 00 	mov    0x94e0(,%ebx,4),%eax
    27a7:	eb cf                	jmp    2778 <audio_sink_set_format+0x98>
    27a9:	8d b4 26 00 00 00 00 	lea    0x0(%esi,%eiz,1),%esi
    27b0:	8b 46 10             	mov    0x10(%esi),%eax
    27b3:	50                   	push   %eax
    27b4:	68 d0 93 00 00       	push   $0x93d0
    27b9:	6a 05                	push   $0x5
    27bb:	6a ff                	push   $0xffffffff
    27bd:	e8 ae 8f 00 00       	call   b770 <log_msg@plt>
    27c2:	a1 78 b3 00 00       	mov    0xb378,%eax
    27c7:	89 46 14             	mov    %eax,0x14(%esi)
    27ca:	a1 7c b3 00 00       	mov    0xb37c,%eax
    27cf:	89 46 18             	mov    %eax,0x18(%esi)
    27d2:	a1 80 b3 00 00       	mov    0xb380,%eax
    27d7:	89 46 1c             	mov    %eax,0x1c(%esi)
    27da:	83 c4 10             	add    $0x10,%esp
    27dd:	e9 6c ff ff ff       	jmp    274e <audio_sink_set_format+0x6e>
    27e2:	8d b6 00 00 00 00    	lea    0x0(%esi),%esi
    27e8:	8b 7e 10             	mov    0x10(%esi),%edi
    27eb:	89 45 dc             	mov    %eax,-0x24(%ebp)
    27ee:	57                   	push   %edi
    27ef:	68 f4 93 00 00       	push   $0x93f4
    27f4:	6a 04                	push   $0x4
    27f6:	6a ff                	push   $0xffffffff
    27f8:	e8 73 8f 00 00       	call   b770 <log_msg@plt>
    27fd:	8b 45 e0             	mov    -0x20(%ebp),%eax
    2800:	89 46 14             	mov    %eax,0x14(%esi)
    2803:	8b 45 e4             	mov    -0x1c(%ebp),%eax
    2806:	89 46 18             	mov    %eax,0x18(%esi)
    2809:	89 5e 1c             	mov    %ebx,0x1c(%esi)
    280c:	8b 45 dc             	mov    -0x24(%ebp),%eax
    280f:	83 c4 10             	add    $0x10,%esp
    2812:	8d 65 f4             	lea    -0xc(%ebp),%esp
    2815:	5b                   	pop    %ebx
    2816:	5e                   	pop    %esi
    2817:	5f                   	pop    %edi
    2818:	5d                   	pop    %ebp
    2819:	c3                   	ret    
    281a:	8d b6 00 00 00 00    	lea    0x0(%esi),%esi
    2820:	8b 46 10             	mov    0x10(%esi),%eax
    2823:	50                   	push   %eax
    2824:	68 3e 92 00 00       	push   $0x923e
    2829:	6a 04                	push   $0x4
    282b:	6a ff                	push   $0xffffffff
    282d:	e8 3e 8f 00 00       	call   b770 <log_msg@plt>
    2832:	83 c4 10             	add    $0x10,%esp
    2835:	b8 f7 ff ff ff       	mov    $0xfffffff7,%eax
    283a:	e9 59 ff ff ff       	jmp    2798 <audio_sink_set_format+0xb8>
    283f:	50                   	push   %eax
    2840:	6a 66                	push   $0x66
    2842:	68 ec 91 00 00       	push   $0x91ec
    2847:	68 54 92 00 00       	push   $0x9254
    284c:	e8 5f 8f 00 00       	call   b7b0 <assert_abort@plt>
    2851:	50                   	push   %eax
    2852:	6a 65                	push   $0x65
    2854:	68 ec 91 00 00       	push   $0x91ec
    2859:	68 76 95 00 00       	push   $0x9576
    285e:	e8 4d 8f 00 00       	call   b7b0 <assert_abort@plt>
    2863:	8d b6 00 00 00 00    	lea    0x0(%esi),%esi
    2869:	8d bc 27 00 00 00 00 	lea    0x0(%edi,%eiz,1),%edi

00002870 <audio_sink_mix_inputs>:
    2870:	55                   	push   %ebp
    2871:	89 e5                	mov    %esp,%ebp
    2873:	57                   	push   %edi
    2874:	56                   	push   %esi
    2875:	53                   	push   %ebx
    2876:	83 ec 1c             	sub    $0x1c,%esp
    2879:	8b 5d 08             	mov    0x8(%ebp),%ebx
    287c:	85 db                	test   %ebx,%ebx
    287e:	0f 84 e2 00 00 00    	je     2966 <audio_sink_mix_inputs+0xf6>
    2884:	8b 75 0c             	mov    0xc(%ebp),%esi
    2887:	85 f6                	test   %esi,%esi
    2889:	0f 84 c2 00 00 00    	je     2951 <audio_sink_mix_inputs+0xe1>
    288f:	50                   	push   %eax
    2890:	8d 43 14             	lea    0x14(%ebx),%eax
    2893:	50                   	push   %eax
    2894:	8b 55 0c             	mov    0xc(%ebp),%edx
    2897:	8b 45 10             	mov    0x10(%ebp),%eax
    289a:	50                   	push   %eax
    289b:	52                   	push   %edx
    289c:	e8 6f 50 00 00       	call   7910 <pcm_format_silence>
    28a1:	8b 7b 0c             	mov    0xc(%ebx),%edi
    28a4:	8d 43 08             	lea    0x8(%ebx),%eax
    28a7:	83 c4 10             	add    $0x10,%esp
    28aa:	8d 77 f8             	lea    -0x8(%edi),%esi
    28ad:	89 45 e4             	mov    %eax,-0x1c(%ebp)
    28b0:	39 f8                	cmp    %edi,%eax
    28b2:	75 0f                	jne    28c3 <audio_sink_mix_inputs+0x53>
    28b4:	eb 6f                	jmp    2925 <audio_sink_mix_inputs+0xb5>
    28b6:	66 90                	xchg   %ax,%ax
    28b8:	8b 7f 04             	mov    0x4(%edi),%edi
    28bb:	39 7d e4             	cmp    %edi,-0x1c(%ebp)
    28be:	8d 77 f8             	lea    -0x8(%edi),%esi
    28c1:	74 62                	je     2925 <audio_sink_mix_inputs+0xb5>
    28c3:	52                   	push   %edx
    28c4:	52                   	push   %edx
    28c5:	8b 4b 1c             	mov    0x1c(%ebx),%ecx
    28c8:	51                   	push   %ecx
    28c9:	8b 43 18             	mov    0x18(%ebx),%eax
    28cc:	50                   	push   %eax
    28cd:	8b 43 14             	mov    0x14(%ebx),%eax
    28d0:	50                   	push   %eax
    28d1:	8b 45 10             	mov    0x10(%ebp),%eax
    28d4:	50                   	push   %eax
    28d5:	8b 45 0c             	mov    0xc(%ebp),%eax
    28d8:	50                   	push   %eax
    28d9:	56                   	push   %esi
    28da:	e8 b1 04 00 00       	call   2d90 <connection_add_source_data>
    28df:	83 c4 20             	add    $0x20,%esp
    28e2:	85 c0                	test   %eax,%eax
    28e4:	74 d2                	je     28b8 <audio_sink_mix_inputs+0x48>
    28e6:	83 ec 0c             	sub    $0xc,%esp
    28e9:	50                   	push   %eax
    28ea:	e8 41 90 00 00       	call   b930 <str_error@plt>
    28ef:	83 c4 10             	add    $0x10,%esp
    28f2:	85 f6                	test   %esi,%esi
    28f4:	74 49                	je     293f <audio_sink_mix_inputs+0xcf>
    28f6:	8b 4e 3c             	mov    0x3c(%esi),%ecx
    28f9:	85 c9                	test   %ecx,%ecx
    28fb:	74 3b                	je     2938 <audio_sink_mix_inputs+0xc8>
    28fd:	8b 49 10             	mov    0x10(%ecx),%ecx
    2900:	85 c9                	test   %ecx,%ecx
    2902:	74 2c                	je     2930 <audio_sink_mix_inputs+0xc0>
    2904:	83 ec 0c             	sub    $0xc,%esp
    2907:	50                   	push   %eax
    2908:	51                   	push   %ecx
    2909:	68 86 92 00 00       	push   $0x9286
    290e:	6a 02                	push   $0x2
    2910:	6a ff                	push   $0xffffffff
    2912:	e8 59 8e 00 00       	call   b770 <log_msg@plt>
    2917:	8b 7f 04             	mov    0x4(%edi),%edi
    291a:	83 c4 20             	add    $0x20,%esp
    291d:	39 7d e4             	cmp    %edi,-0x1c(%ebp)
    2920:	8d 77 f8             	lea    -0x8(%edi),%esi
    2923:	75 9e                	jne    28c3 <audio_sink_mix_inputs+0x53>
    2925:	8d 65 f4             	lea    -0xc(%ebp),%esp
    2928:	5b                   	pop    %ebx
    2929:	5e                   	pop    %esi
    292a:	5f                   	pop    %edi
    292b:	5d                   	pop    %ebp
    292c:	c3                   	ret    
    292d:	8d 76 00             	lea    0x0(%esi),%esi
    2930:	b9 5b 92 00 00       	mov    $0x925b,%ecx
    2935:	eb cd                	jmp    2904 <audio_sink_mix_inputs+0x94>
    2937:	90                   	nop
    2938:	b9 6a 92 00 00       	mov    $0x926a,%ecx
    293d:	eb c5                	jmp    2904 <audio_sink_mix_inputs+0x94>
    293f:	50                   	push   %eax
    2940:	6a 62                	push   $0x62
    2942:	68 79 92 00 00       	push   $0x9279
    2947:	68 c3 97 00 00       	push   $0x97c3
    294c:	e8 5f 8e 00 00       	call   b7b0 <assert_abort@plt>
    2951:	51                   	push   %ecx
    2952:	68 8b 00 00 00       	push   $0x8b
    2957:	68 ec 91 00 00       	push   $0x91ec
    295c:	68 74 92 00 00       	push   $0x9274
    2961:	e8 4a 8e 00 00       	call   b7b0 <assert_abort@plt>
    2966:	57                   	push   %edi
    2967:	68 8a 00 00 00       	push   $0x8a
    296c:	68 ec 91 00 00       	push   $0x91ec
    2971:	68 76 95 00 00       	push   $0x9576
    2976:	e8 35 8e 00 00       	call   b7b0 <assert_abort@plt>
    297b:	66 90                	xchg   %ax,%ax
    297d:	66 90                	xchg   %ax,%ax
    297f:	90                   	nop

00002980 <audio_source_init>:
    2980:	55                   	push   %ebp
    2981:	89 e5                	mov    %esp,%ebp
    2983:	56                   	push   %esi
    2984:	53                   	push   %ebx
    2985:	8b 5d 08             	mov    0x8(%ebp),%ebx
    2988:	8b 45 0c             	mov    0xc(%ebp),%eax
    298b:	8b 75 1c             	mov    0x1c(%ebp),%esi
    298e:	85 db                	test   %ebx,%ebx
    2990:	0f 84 a1 00 00 00    	je     2a37 <audio_source_init+0xb7>
    2996:	85 c0                	test   %eax,%eax
    2998:	74 76                	je     2a10 <audio_source_init+0x90>
    299a:	85 f6                	test   %esi,%esi
    299c:	74 72                	je     2a10 <audio_source_init+0x90>
    299e:	83 ec 0c             	sub    $0xc,%esp
    29a1:	8d 53 08             	lea    0x8(%ebx),%edx
    29a4:	c7 03 00 00 00 00    	movl   $0x0,(%ebx)
    29aa:	c7 43 04 00 00 00 00 	movl   $0x0,0x4(%ebx)
    29b1:	89 53 08             	mov    %edx,0x8(%ebx)
    29b4:	89 53 0c             	mov    %edx,0xc(%ebx)
    29b7:	50                   	push   %eax
    29b8:	e8 63 8e 00 00       	call   b820 <str_dup@plt>
    29bd:	83 c4 10             	add    $0x10,%esp
    29c0:	89 43 10             	mov    %eax,0x10(%ebx)
    29c3:	85 c0                	test   %eax,%eax
    29c5:	74 69                	je     2a30 <audio_source_init+0xb0>
    29c7:	8b 55 10             	mov    0x10(%ebp),%edx
    29ca:	83 ec 0c             	sub    $0xc,%esp
    29cd:	89 53 20             	mov    %edx,0x20(%ebx)
    29d0:	8b 55 14             	mov    0x14(%ebp),%edx
    29d3:	89 53 24             	mov    %edx,0x24(%ebx)
    29d6:	8b 55 18             	mov    0x18(%ebp),%edx
    29d9:	89 53 28             	mov    %edx,0x28(%ebx)
    29dc:	8b 16                	mov    (%esi),%edx
    29de:	89 53 14             	mov    %edx,0x14(%ebx)
    29e1:	8b 56 04             	mov    0x4(%esi),%edx
    29e4:	89 53 18             	mov    %edx,0x18(%ebx)
    29e7:	8b 56 08             	mov    0x8(%esi),%edx
    29ea:	89 53 1c             	mov    %edx,0x1c(%ebx)
    29ed:	50                   	push   %eax
    29ee:	53                   	push   %ebx
    29ef:	68 51 95 00 00       	push   $0x9551
    29f4:	6a 05                	push   $0x5
    29f6:	6a ff                	push   $0xffffffff
    29f8:	e8 73 8d 00 00       	call   b770 <log_msg@plt>
    29fd:	83 c4 20             	add    $0x20,%esp
    2a00:	31 c0                	xor    %eax,%eax
    2a02:	8d 65 f8             	lea    -0x8(%ebp),%esp
    2a05:	5b                   	pop    %ebx
    2a06:	5e                   	pop    %esi
    2a07:	5d                   	pop    %ebp
    2a08:	c3                   	ret    
    2a09:	8d b4 26 00 00 00 00 	lea    0x0(%esi,%eiz,1),%esi
    2a10:	50                   	push   %eax
    2a11:	68 3b 95 00 00       	push   $0x953b
    2a16:	6a 04                	push   $0x4
    2a18:	6a ff                	push   $0xffffffff
    2a1a:	e8 51 8d 00 00       	call   b770 <log_msg@plt>
    2a1f:	83 c4 10             	add    $0x10,%esp
    2a22:	b8 f2 ff ff ff       	mov    $0xfffffff2,%eax
    2a27:	eb d9                	jmp    2a02 <audio_source_init+0x82>
    2a29:	8d b4 26 00 00 00 00 	lea    0x0(%esi,%eiz,1),%esi
    2a30:	b8 fe ff ff ff       	mov    $0xfffffffe,%eax
    2a35:	eb cb                	jmp    2a02 <audio_source_init+0x82>
    2a37:	52                   	push   %edx
    2a38:	6a 3f                	push   $0x3f
    2a3a:	68 2c 95 00 00       	push   $0x952c
    2a3f:	68 63 92 00 00       	push   $0x9263
    2a44:	e8 67 8d 00 00       	call   b7b0 <assert_abort@plt>
    2a49:	8d b4 26 00 00 00 00 	lea    0x0(%esi,%eiz,1),%esi

00002a50 <audio_source_fini>:
    2a50:	55                   	push   %ebp
    2a51:	89 e5                	mov    %esp,%ebp
    2a53:	53                   	push   %ebx
    2a54:	51                   	push   %ecx
    2a55:	8b 5d 08             	mov    0x8(%ebp),%ebx
    2a58:	85 db                	test   %ebx,%ebx
    2a5a:	74 1b                	je     2a77 <audio_source_fini+0x27>
    2a5c:	83 ec 0c             	sub    $0xc,%esp
    2a5f:	8b 43 10             	mov    0x10(%ebx),%eax
    2a62:	50                   	push   %eax
    2a63:	e8 68 8f 00 00       	call   b9d0 <free@plt>
    2a68:	c7 43 10 00 00 00 00 	movl   $0x0,0x10(%ebx)
    2a6f:	83 c4 10             	add    $0x10,%esp
    2a72:	8b 5d fc             	mov    -0x4(%ebp),%ebx
    2a75:	c9                   	leave  
    2a76:	c3                   	ret    
    2a77:	52                   	push   %edx
    2a78:	6a 57                	push   $0x57
    2a7a:	68 2c 95 00 00       	push   $0x952c
    2a7f:	68 63 92 00 00       	push   $0x9263
    2a84:	e8 27 8d 00 00       	call   b7b0 <assert_abort@plt>
    2a89:	8d b4 26 00 00 00 00 	lea    0x0(%esi,%eiz,1),%esi

00002a90 <audio_source_push_data>:
    2a90:	55                   	push   %ebp
    2a91:	89 e5                	mov    %esp,%ebp
    2a93:	57                   	push   %edi
    2a94:	56                   	push   %esi
    2a95:	53                   	push   %ebx
    2a96:	83 ec 0c             	sub    $0xc,%esp
    2a99:	8b 75 08             	mov    0x8(%ebp),%esi
    2a9c:	8b 45 0c             	mov    0xc(%ebp),%eax
    2a9f:	85 f6                	test   %esi,%esi
    2aa1:	0f 84 e7 00 00 00    	je     2b8e <audio_source_push_data+0xfe>
    2aa7:	85 c0                	test   %eax,%eax
    2aa9:	0f 84 cd 00 00 00    	je     2b7c <audio_source_push_data+0xec>
    2aaf:	83 ec 0c             	sub    $0xc,%esp
    2ab2:	8b 56 1c             	mov    0x1c(%esi),%edx
    2ab5:	8b 7d 10             	mov    0x10(%ebp),%edi
    2ab8:	52                   	push   %edx
    2ab9:	8b 4e 18             	mov    0x18(%esi),%ecx
    2abc:	51                   	push   %ecx
    2abd:	8b 5e 14             	mov    0x14(%esi),%ebx
    2ac0:	53                   	push   %ebx
    2ac1:	57                   	push   %edi
    2ac2:	50                   	push   %eax
    2ac3:	e8 78 e6 ff ff       	call   1140 <audio_data_create>
    2ac8:	83 c4 20             	add    $0x20,%esp
    2acb:	89 c7                	mov    %eax,%edi
    2acd:	85 c0                	test   %eax,%eax
    2acf:	0f 84 8e 00 00 00    	je     2b63 <audio_source_push_data+0xd3>
    2ad5:	8b 5e 0c             	mov    0xc(%esi),%ebx
    2ad8:	83 c6 08             	add    $0x8,%esi
    2adb:	39 f3                	cmp    %esi,%ebx
    2add:	75 10                	jne    2aef <audio_source_push_data+0x5f>
    2adf:	eb 59                	jmp    2b3a <audio_source_push_data+0xaa>
    2ae1:	8d b4 26 00 00 00 00 	lea    0x0(%esi,%eiz,1),%esi
    2ae8:	8b 5b 04             	mov    0x4(%ebx),%ebx
    2aeb:	39 de                	cmp    %ebx,%esi
    2aed:	74 4b                	je     2b3a <audio_source_push_data+0xaa>
    2aef:	50                   	push   %eax
    2af0:	50                   	push   %eax
    2af1:	57                   	push   %edi
    2af2:	53                   	push   %ebx
    2af3:	e8 98 03 00 00       	call   2e90 <connection_push_data>
    2af8:	83 c4 10             	add    $0x10,%esp
    2afb:	85 c0                	test   %eax,%eax
    2afd:	74 e9                	je     2ae8 <audio_source_push_data+0x58>
    2aff:	83 ec 0c             	sub    $0xc,%esp
    2b02:	50                   	push   %eax
    2b03:	e8 28 8e 00 00       	call   b930 <str_error@plt>
    2b08:	83 c4 10             	add    $0x10,%esp
    2b0b:	85 db                	test   %ebx,%ebx
    2b0d:	74 5b                	je     2b6a <audio_source_push_data+0xda>
    2b0f:	8b 53 38             	mov    0x38(%ebx),%edx
    2b12:	85 d2                	test   %edx,%edx
    2b14:	74 3a                	je     2b50 <audio_source_push_data+0xc0>
    2b16:	8b 52 10             	mov    0x10(%edx),%edx
    2b19:	85 d2                	test   %edx,%edx
    2b1b:	74 33                	je     2b50 <audio_source_push_data+0xc0>
    2b1d:	83 ec 0c             	sub    $0xc,%esp
    2b20:	50                   	push   %eax
    2b21:	52                   	push   %edx
    2b22:	68 83 95 00 00       	push   $0x9583
    2b27:	6a 02                	push   $0x2
    2b29:	6a ff                	push   $0xffffffff
    2b2b:	e8 40 8c 00 00       	call   b770 <log_msg@plt>
    2b30:	8b 5b 04             	mov    0x4(%ebx),%ebx
    2b33:	83 c4 20             	add    $0x20,%esp
    2b36:	39 de                	cmp    %ebx,%esi
    2b38:	75 b5                	jne    2aef <audio_source_push_data+0x5f>
    2b3a:	83 ec 0c             	sub    $0xc,%esp
    2b3d:	57                   	push   %edi
    2b3e:	e8 dd e6 ff ff       	call   1220 <audio_data_unref>
    2b43:	83 c4 10             	add    $0x10,%esp
    2b46:	31 c0                	xor    %eax,%eax
    2b48:	8d 65 f4             	lea    -0xc(%ebp),%esp
    2b4b:	5b                   	pop    %ebx
    2b4c:	5e                   	pop    %esi
    2b4d:	5f                   	pop    %edi
    2b4e:	5d                   	pop    %ebp
    2b4f:	c3                   	ret    
    2b50:	8b 4b 3c             	mov    0x3c(%ebx),%ecx
    2b53:	ba 6e 95 00 00       	mov    $0x956e,%edx
    2b58:	85 c9                	test   %ecx,%ecx
    2b5a:	75 c1                	jne    2b1d <audio_source_push_data+0x8d>
    2b5c:	ba 7b 95 00 00       	mov    $0x957b,%edx
    2b61:	eb ba                	jmp    2b1d <audio_source_push_data+0x8d>
    2b63:	b8 fe ff ff ff       	mov    $0xfffffffe,%eax
    2b68:	eb de                	jmp    2b48 <audio_source_push_data+0xb8>
    2b6a:	53                   	push   %ebx
    2b6b:	6a 70                	push   $0x70
    2b6d:	68 79 92 00 00       	push   $0x9279
    2b72:	68 c3 97 00 00       	push   $0x97c3
    2b77:	e8 34 8c 00 00       	call   b7b0 <assert_abort@plt>
    2b7c:	50                   	push   %eax
    2b7d:	6a 66                	push   $0x66
    2b7f:	68 2c 95 00 00       	push   $0x952c
    2b84:	68 28 90 00 00       	push   $0x9028
    2b89:	e8 22 8c 00 00       	call   b7b0 <assert_abort@plt>
    2b8e:	50                   	push   %eax
    2b8f:	6a 65                	push   $0x65
    2b91:	68 2c 95 00 00       	push   $0x952c
    2b96:	68 63 92 00 00       	push   $0x9263
    2b9b:	e8 10 8c 00 00       	call   b7b0 <assert_abort@plt>

00002ba0 <connection_create>:
    2ba0:	55                   	push   %ebp
    2ba1:	89 e5                	mov    %esp,%ebp
    2ba3:	57                   	push   %edi
    2ba4:	56                   	push   %esi
    2ba5:	53                   	push   %ebx
    2ba6:	83 ec 0c             	sub    $0xc,%esp
    2ba9:	8b 75 08             	mov    0x8(%ebp),%esi
    2bac:	8b 7d 0c             	mov    0xc(%ebp),%edi
    2baf:	85 f6                	test   %esi,%esi
    2bb1:	0f 84 bc 00 00 00    	je     2c73 <connection_create+0xd3>
    2bb7:	85 ff                	test   %edi,%edi
    2bb9:	0f 84 c6 00 00 00    	je     2c85 <connection_create+0xe5>
    2bbf:	83 ec 0c             	sub    $0xc,%esp
    2bc2:	6a 40                	push   $0x40
    2bc4:	e8 17 8b 00 00       	call   b6e0 <malloc@plt>
    2bc9:	83 c4 10             	add    $0x10,%esp
    2bcc:	89 c3                	mov    %eax,%ebx
    2bce:	85 c0                	test   %eax,%eax
    2bd0:	0f 84 93 00 00 00    	je     2c69 <connection_create+0xc9>
    2bd6:	83 ec 0c             	sub    $0xc,%esp
    2bd9:	8d 40 18             	lea    0x18(%eax),%eax
    2bdc:	50                   	push   %eax
    2bdd:	e8 ae e6 ff ff       	call   1290 <audio_pipe_init>
    2be2:	8d 56 08             	lea    0x8(%esi),%edx
    2be5:	c7 43 10 00 00 00 00 	movl   $0x0,0x10(%ebx)
    2bec:	89 53 04             	mov    %edx,0x4(%ebx)
    2bef:	8b 56 08             	mov    0x8(%esi),%edx
    2bf2:	89 13                	mov    %edx,(%ebx)
    2bf4:	c7 43 14 00 00 00 00 	movl   $0x0,0x14(%ebx)
    2bfb:	89 7b 38             	mov    %edi,0x38(%ebx)
    2bfe:	89 73 3c             	mov    %esi,0x3c(%ebx)
    2c01:	89 5a 04             	mov    %ebx,0x4(%edx)
    2c04:	89 5e 08             	mov    %ebx,0x8(%esi)
    2c07:	8d 57 08             	lea    0x8(%edi),%edx
    2c0a:	8d 43 08             	lea    0x8(%ebx),%eax
    2c0d:	89 53 0c             	mov    %edx,0xc(%ebx)
    2c10:	8b 57 08             	mov    0x8(%edi),%edx
    2c13:	89 53 08             	mov    %edx,0x8(%ebx)
    2c16:	89 42 04             	mov    %eax,0x4(%edx)
    2c19:	89 47 08             	mov    %eax,0x8(%edi)
    2c1c:	59                   	pop    %ecx
    2c1d:	58                   	pop    %eax
    2c1e:	8d 46 14             	lea    0x14(%esi),%eax
    2c21:	50                   	push   %eax
    2c22:	57                   	push   %edi
    2c23:	e8 b8 fa ff ff       	call   26e0 <audio_sink_set_format>
    2c28:	8b 46 24             	mov    0x24(%esi),%eax
    2c2b:	83 c4 10             	add    $0x10,%esp
    2c2e:	85 c0                	test   %eax,%eax
    2c30:	74 0a                	je     2c3c <connection_create+0x9c>
    2c32:	52                   	push   %edx
    2c33:	52                   	push   %edx
    2c34:	6a 01                	push   $0x1
    2c36:	56                   	push   %esi
    2c37:	ff d0                	call   *%eax
    2c39:	83 c4 10             	add    $0x10,%esp
    2c3c:	8b 47 24             	mov    0x24(%edi),%eax
    2c3f:	85 c0                	test   %eax,%eax
    2c41:	74 0a                	je     2c4d <connection_create+0xad>
    2c43:	51                   	push   %ecx
    2c44:	51                   	push   %ecx
    2c45:	6a 01                	push   $0x1
    2c47:	57                   	push   %edi
    2c48:	ff d0                	call   *%eax
    2c4a:	83 c4 10             	add    $0x10,%esp
    2c4d:	83 ec 0c             	sub    $0xc,%esp
    2c50:	8b 47 10             	mov    0x10(%edi),%eax
    2c53:	50                   	push   %eax
    2c54:	8b 56 10             	mov    0x10(%esi),%edx
    2c57:	52                   	push   %edx
    2c58:	68 ae 95 00 00       	push   $0x95ae
    2c5d:	6a 04                	push   $0x4
    2c5f:	6a ff                	push   $0xffffffff
    2c61:	e8 0a 8b 00 00       	call   b770 <log_msg@plt>
    2c66:	83 c4 20             	add    $0x20,%esp
    2c69:	8d 65 f4             	lea    -0xc(%ebp),%esp
    2c6c:	89 d8                	mov    %ebx,%eax
    2c6e:	5b                   	pop    %ebx
    2c6f:	5e                   	pop    %esi
    2c70:	5f                   	pop    %edi
    2c71:	5d                   	pop    %ebp
    2c72:	c3                   	ret    
    2c73:	50                   	push   %eax
    2c74:	6a 34                	push   $0x34
    2c76:	68 9e 95 00 00       	push   $0x959e
    2c7b:	68 63 92 00 00       	push   $0x9263
    2c80:	e8 2b 8b 00 00       	call   b7b0 <assert_abort@plt>
    2c85:	50                   	push   %eax
    2c86:	6a 35                	push   $0x35
    2c88:	68 9e 95 00 00       	push   $0x959e
    2c8d:	68 76 95 00 00       	push   $0x9576
    2c92:	e8 19 8b 00 00       	call   b7b0 <assert_abort@plt>
    2c97:	89 f6                	mov    %esi,%esi
    2c99:	8d bc 27 00 00 00 00 	lea    0x0(%edi,%eiz,1),%edi

00002ca0 <connection_destroy>:
    2ca0:	55                   	push   %ebp
    2ca1:	89 e5                	mov    %esp,%ebp
    2ca3:	53                   	push   %ebx
    2ca4:	50                   	push   %eax
    2ca5:	8b 5d 08             	mov    0x8(%ebp),%ebx
    2ca8:	85 db                	test   %ebx,%ebx
    2caa:	0f 84 cd 00 00 00    	je     2d7d <connection_destroy+0xdd>
    2cb0:	8b 43 10             	mov    0x10(%ebx),%eax
    2cb3:	85 c0                	test   %eax,%eax
    2cb5:	74 19                	je     2cd0 <connection_destroy+0x30>
    2cb7:	8b 43 14             	mov    0x14(%ebx),%eax
    2cba:	85 c0                	test   %eax,%eax
    2cbc:	74 12                	je     2cd0 <connection_destroy+0x30>
    2cbe:	50                   	push   %eax
    2cbf:	6a 53                	push   $0x53
    2cc1:	68 9e 95 00 00       	push   $0x959e
    2cc6:	68 c4 95 00 00       	push   $0x95c4
    2ccb:	e8 e0 8a 00 00       	call   b7b0 <assert_abort@plt>
    2cd0:	8b 13                	mov    (%ebx),%edx
    2cd2:	85 d2                	test   %edx,%edx
    2cd4:	74 0e                	je     2ce4 <connection_destroy+0x44>
    2cd6:	8b 43 04             	mov    0x4(%ebx),%eax
    2cd9:	85 c0                	test   %eax,%eax
    2cdb:	74 07                	je     2ce4 <connection_destroy+0x44>
    2cdd:	89 10                	mov    %edx,(%eax)
    2cdf:	8b 13                	mov    (%ebx),%edx
    2ce1:	89 42 04             	mov    %eax,0x4(%edx)
    2ce4:	8b 53 08             	mov    0x8(%ebx),%edx
    2ce7:	c7 03 00 00 00 00    	movl   $0x0,(%ebx)
    2ced:	c7 43 04 00 00 00 00 	movl   $0x0,0x4(%ebx)
    2cf4:	85 d2                	test   %edx,%edx
    2cf6:	74 0f                	je     2d07 <connection_destroy+0x67>
    2cf8:	8b 43 0c             	mov    0xc(%ebx),%eax
    2cfb:	85 c0                	test   %eax,%eax
    2cfd:	74 08                	je     2d07 <connection_destroy+0x67>
    2cff:	89 10                	mov    %edx,(%eax)
    2d01:	8b 53 08             	mov    0x8(%ebx),%edx
    2d04:	89 42 04             	mov    %eax,0x4(%edx)
    2d07:	8b 43 38             	mov    0x38(%ebx),%eax
    2d0a:	c7 43 08 00 00 00 00 	movl   $0x0,0x8(%ebx)
    2d11:	c7 43 0c 00 00 00 00 	movl   $0x0,0xc(%ebx)
    2d18:	85 c0                	test   %eax,%eax
    2d1a:	74 11                	je     2d2d <connection_destroy+0x8d>
    2d1c:	8b 50 24             	mov    0x24(%eax),%edx
    2d1f:	85 d2                	test   %edx,%edx
    2d21:	74 0a                	je     2d2d <connection_destroy+0x8d>
    2d23:	51                   	push   %ecx
    2d24:	51                   	push   %ecx
    2d25:	6a 00                	push   $0x0
    2d27:	50                   	push   %eax
    2d28:	ff d2                	call   *%edx
    2d2a:	83 c4 10             	add    $0x10,%esp
    2d2d:	8b 43 3c             	mov    0x3c(%ebx),%eax
    2d30:	85 c0                	test   %eax,%eax
    2d32:	74 11                	je     2d45 <connection_destroy+0xa5>
    2d34:	8b 50 24             	mov    0x24(%eax),%edx
    2d37:	85 d2                	test   %edx,%edx
    2d39:	74 0a                	je     2d45 <connection_destroy+0xa5>
    2d3b:	51                   	push   %ecx
    2d3c:	51                   	push   %ecx
    2d3d:	6a 00                	push   $0x0
    2d3f:	50                   	push   %eax
    2d40:	ff d2                	call   *%edx
    2d42:	83 c4 10             	add    $0x10,%esp
    2d45:	83 ec 0c             	sub    $0xc,%esp
    2d48:	8d 43 18             	lea    0x18(%ebx),%eax
    2d4b:	50                   	push   %eax
    2d4c:	e8 8f e5 ff ff       	call   12e0 <audio_pipe_fini>
    2d51:	8b 43 38             	mov    0x38(%ebx),%eax
    2d54:	5a                   	pop    %edx
    2d55:	8b 48 10             	mov    0x10(%eax),%ecx
    2d58:	51                   	push   %ecx
    2d59:	8b 43 3c             	mov    0x3c(%ebx),%eax
    2d5c:	8b 40 10             	mov    0x10(%eax),%eax
    2d5f:	50                   	push   %eax
    2d60:	68 ab 95 00 00       	push   $0x95ab
    2d65:	6a 04                	push   $0x4
    2d67:	6a ff                	push   $0xffffffff
    2d69:	e8 02 8a 00 00       	call   b770 <log_msg@plt>
    2d6e:	89 5d 08             	mov    %ebx,0x8(%ebp)
    2d71:	83 c4 20             	add    $0x20,%esp
    2d74:	8b 5d fc             	mov    -0x4(%ebp),%ebx
    2d77:	c9                   	leave  
    2d78:	e9 53 8c 00 00       	jmp    b9d0 <free@plt>
    2d7d:	50                   	push   %eax
    2d7e:	6a 52                	push   $0x52
    2d80:	68 9e 95 00 00       	push   $0x959e
    2d85:	68 c3 97 00 00       	push   $0x97c3
    2d8a:	e8 21 8a 00 00       	call   b7b0 <assert_abort@plt>
    2d8f:	90                   	nop

00002d90 <connection_add_source_data>:
    2d90:	55                   	push   %ebp
    2d91:	89 e5                	mov    %esp,%ebp
    2d93:	57                   	push   %edi
    2d94:	56                   	push   %esi
    2d95:	53                   	push   %ebx
    2d96:	83 ec 1c             	sub    $0x1c,%esp
    2d99:	8b 5d 08             	mov    0x8(%ebp),%ebx
    2d9c:	8b 75 10             	mov    0x10(%ebp),%esi
    2d9f:	85 db                	test   %ebx,%ebx
    2da1:	0f 84 c8 00 00 00    	je     2e6f <connection_add_source_data+0xdf>
    2da7:	8b 4d 0c             	mov    0xc(%ebp),%ecx
    2daa:	85 c9                	test   %ecx,%ecx
    2dac:	0f 84 b6 00 00 00    	je     2e68 <connection_add_source_data+0xd8>
    2db2:	8b 45 1c             	mov    0x1c(%ebp),%eax
    2db5:	31 c9                	xor    %ecx,%ecx
    2db7:	83 f8 12             	cmp    $0x12,%eax
    2dba:	76 64                	jbe    2e20 <connection_add_source_data+0x90>
    2dbc:	31 d2                	xor    %edx,%edx
    2dbe:	8d 44 31 ff          	lea    -0x1(%ecx,%esi,1),%eax
    2dc2:	f7 f1                	div    %ecx
    2dc4:	8d 7b 18             	lea    0x18(%ebx),%edi
    2dc7:	39 43 24             	cmp    %eax,0x24(%ebx)
    2dca:	72 71                	jb     2e3d <connection_add_source_data+0xad>
    2dcc:	8b 43 20             	mov    0x20(%ebx),%eax
    2dcf:	50                   	push   %eax
    2dd0:	68 10 96 00 00       	push   $0x9610
    2dd5:	6a 05                	push   $0x5
    2dd7:	6a ff                	push   $0xffffffff
    2dd9:	e8 92 89 00 00       	call   b770 <log_msg@plt>
    2dde:	8d 45 14             	lea    0x14(%ebp),%eax
    2de1:	8b 55 0c             	mov    0xc(%ebp),%edx
    2de4:	50                   	push   %eax
    2de5:	56                   	push   %esi
    2de6:	52                   	push   %edx
    2de7:	57                   	push   %edi
    2de8:	e8 03 ea ff ff       	call   17f0 <audio_pipe_mix_data>
    2ded:	83 c4 20             	add    $0x20,%esp
    2df0:	39 f0                	cmp    %esi,%eax
    2df2:	74 1c                	je     2e10 <connection_add_source_data+0x80>
    2df4:	83 ec 0c             	sub    $0xc,%esp
    2df7:	89 45 e4             	mov    %eax,-0x1c(%ebp)
    2dfa:	56                   	push   %esi
    2dfb:	50                   	push   %eax
    2dfc:	68 34 96 00 00       	push   $0x9634
    2e01:	6a 02                	push   $0x2
    2e03:	6a ff                	push   $0xffffffff
    2e05:	e8 66 89 00 00       	call   b770 <log_msg@plt>
    2e0a:	83 c4 20             	add    $0x20,%esp
    2e0d:	8b 45 e4             	mov    -0x1c(%ebp),%eax
    2e10:	85 c0                	test   %eax,%eax
    2e12:	7e 02                	jle    2e16 <connection_add_source_data+0x86>
    2e14:	31 c0                	xor    %eax,%eax
    2e16:	8d 65 f4             	lea    -0xc(%ebp),%esp
    2e19:	5b                   	pop    %ebx
    2e1a:	5e                   	pop    %esi
    2e1b:	5f                   	pop    %edi
    2e1c:	5d                   	pop    %ebp
    2e1d:	c3                   	ret    
    2e1e:	66 90                	xchg   %ax,%ax
    2e20:	8b 14 85 80 96 00 00 	mov    0x9680(,%eax,4),%edx
    2e27:	8b 4d 14             	mov    0x14(%ebp),%ecx
    2e2a:	0f af ca             	imul   %edx,%ecx
    2e2d:	31 d2                	xor    %edx,%edx
    2e2f:	8d 7b 18             	lea    0x18(%ebx),%edi
    2e32:	8d 44 31 ff          	lea    -0x1(%ecx,%esi,1),%eax
    2e36:	f7 f1                	div    %ecx
    2e38:	39 43 24             	cmp    %eax,0x24(%ebx)
    2e3b:	73 8f                	jae    2dcc <connection_add_source_data+0x3c>
    2e3d:	8b 43 3c             	mov    0x3c(%ebx),%eax
    2e40:	8b 40 28             	mov    0x28(%eax),%eax
    2e43:	85 c0                	test   %eax,%eax
    2e45:	74 85                	je     2dcc <connection_add_source_data+0x3c>
    2e47:	51                   	push   %ecx
    2e48:	68 ec 95 00 00       	push   $0x95ec
    2e4d:	6a 04                	push   $0x4
    2e4f:	6a ff                	push   $0xffffffff
    2e51:	e8 1a 89 00 00       	call   b770 <log_msg@plt>
    2e56:	8b 43 3c             	mov    0x3c(%ebx),%eax
    2e59:	5a                   	pop    %edx
    2e5a:	59                   	pop    %ecx
    2e5b:	56                   	push   %esi
    2e5c:	50                   	push   %eax
    2e5d:	ff 50 28             	call   *0x28(%eax)
    2e60:	83 c4 10             	add    $0x10,%esp
    2e63:	e9 64 ff ff ff       	jmp    2dcc <connection_add_source_data+0x3c>
    2e68:	b8 f6 ff ff ff       	mov    $0xfffffff6,%eax
    2e6d:	eb a7                	jmp    2e16 <connection_add_source_data+0x86>
    2e6f:	53                   	push   %ebx
    2e70:	6a 6a                	push   $0x6a
    2e72:	68 9e 95 00 00       	push   $0x959e
    2e77:	68 c3 97 00 00       	push   $0x97c3
    2e7c:	e8 2f 89 00 00       	call   b7b0 <assert_abort@plt>
    2e81:	eb 0d                	jmp    2e90 <connection_push_data>
    2e83:	90                   	nop
    2e84:	90                   	nop
    2e85:	90                   	nop
    2e86:	90                   	nop
    2e87:	90                   	nop
    2e88:	90                   	nop
    2e89:	90                   	nop
    2e8a:	90                   	nop
    2e8b:	90                   	nop
    2e8c:	90                   	nop
    2e8d:	90                   	nop
    2e8e:	90                   	nop
    2e8f:	90                   	nop

00002e90 <connection_push_data>:
    2e90:	55                   	push   %ebp
    2e91:	89 e5                	mov    %esp,%ebp
    2e93:	56                   	push   %esi
    2e94:	53                   	push   %ebx
    2e95:	8b 5d 08             	mov    0x8(%ebp),%ebx
    2e98:	8b 45 0c             	mov    0xc(%ebp),%eax
    2e9b:	85 db                	test   %ebx,%ebx
    2e9d:	74 4a                	je     2ee9 <connection_push_data+0x59>
    2e9f:	85 c0                	test   %eax,%eax
    2ea1:	74 31                	je     2ed4 <connection_push_data+0x44>
    2ea3:	52                   	push   %edx
    2ea4:	52                   	push   %edx
    2ea5:	50                   	push   %eax
    2ea6:	8d 43 18             	lea    0x18(%ebx),%eax
    2ea9:	50                   	push   %eax
    2eaa:	e8 31 e6 ff ff       	call   14e0 <audio_pipe_push>
    2eaf:	83 c4 10             	add    $0x10,%esp
    2eb2:	89 c6                	mov    %eax,%esi
    2eb4:	85 c0                	test   %eax,%eax
    2eb6:	75 13                	jne    2ecb <connection_push_data+0x3b>
    2eb8:	8b 53 38             	mov    0x38(%ebx),%edx
    2ebb:	8b 42 2c             	mov    0x2c(%edx),%eax
    2ebe:	85 c0                	test   %eax,%eax
    2ec0:	74 09                	je     2ecb <connection_push_data+0x3b>
    2ec2:	83 ec 0c             	sub    $0xc,%esp
    2ec5:	52                   	push   %edx
    2ec6:	ff d0                	call   *%eax
    2ec8:	83 c4 10             	add    $0x10,%esp
    2ecb:	8d 65 f8             	lea    -0x8(%ebp),%esp
    2ece:	89 f0                	mov    %esi,%eax
    2ed0:	5b                   	pop    %ebx
    2ed1:	5e                   	pop    %esi
    2ed2:	5d                   	pop    %ebp
    2ed3:	c3                   	ret    
    2ed4:	51                   	push   %ecx
    2ed5:	68 87 00 00 00       	push   $0x87
    2eda:	68 9e 95 00 00       	push   $0x959e
    2edf:	68 9e 8d 00 00       	push   $0x8d9e
    2ee4:	e8 c7 88 00 00       	call   b7b0 <assert_abort@plt>
    2ee9:	53                   	push   %ebx
    2eea:	68 86 00 00 00       	push   $0x86
    2eef:	68 9e 95 00 00       	push   $0x959e
    2ef4:	68 c3 97 00 00       	push   $0x97c3
    2ef9:	e8 b2 88 00 00       	call   b7b0 <assert_abort@plt>
    2efe:	66 90                	xchg   %ax,%ax

00002f00 <hound_remove_sink_internal>:
    2f00:	55                   	push   %ebp
    2f01:	85 c0                	test   %eax,%eax
    2f03:	89 e5                	mov    %esp,%ebp
    2f05:	56                   	push   %esi
    2f06:	53                   	push   %ebx
    2f07:	0f 84 bd 00 00 00    	je     2fca <hound_remove_sink_internal+0xca>
    2f0d:	89 d3                	mov    %edx,%ebx
    2f0f:	85 d2                	test   %edx,%edx
    2f11:	0f 84 d7 00 00 00    	je     2fee <hound_remove_sink_internal+0xee>
    2f17:	83 ec 0c             	sub    $0xc,%esp
    2f1a:	50                   	push   %eax
    2f1b:	e8 80 87 00 00       	call   b6a0 <fibril_mutex_is_locked@plt>
    2f20:	83 c4 10             	add    $0x10,%esp
    2f23:	84 c0                	test   %al,%al
    2f25:	0f 84 b1 00 00 00    	je     2fdc <hound_remove_sink_internal+0xdc>
    2f2b:	8b 53 10             	mov    0x10(%ebx),%edx
    2f2e:	8d 73 08             	lea    0x8(%ebx),%esi
    2f31:	52                   	push   %edx
    2f32:	68 d4 96 00 00       	push   $0x96d4
    2f37:	6a 05                	push   $0x5
    2f39:	6a ff                	push   $0xffffffff
    2f3b:	e8 30 88 00 00       	call   b770 <log_msg@plt>
    2f40:	83 c4 10             	add    $0x10,%esp
    2f43:	39 73 0c             	cmp    %esi,0xc(%ebx)
    2f46:	74 5a                	je     2fa2 <hound_remove_sink_internal+0xa2>
    2f48:	8b 43 10             	mov    0x10(%ebx),%eax
    2f4b:	50                   	push   %eax
    2f4c:	68 28 98 00 00       	push   $0x9828
    2f51:	6a 02                	push   $0x2
    2f53:	6a ff                	push   $0xffffffff
    2f55:	e8 16 88 00 00       	call   b770 <log_msg@plt>
    2f5a:	8b 43 0c             	mov    0xc(%ebx),%eax
    2f5d:	83 c4 10             	add    $0x10,%esp
    2f60:	39 c6                	cmp    %eax,%esi
    2f62:	74 3e                	je     2fa2 <hound_remove_sink_internal+0xa2>
    2f64:	8d 74 26 00          	lea    0x0(%esi,%eiz,1),%esi
    2f68:	83 e8 08             	sub    $0x8,%eax
    2f6b:	8b 48 10             	mov    0x10(%eax),%ecx
    2f6e:	85 c9                	test   %ecx,%ecx
    2f70:	74 0f                	je     2f81 <hound_remove_sink_internal+0x81>
    2f72:	8b 50 14             	mov    0x14(%eax),%edx
    2f75:	85 d2                	test   %edx,%edx
    2f77:	74 08                	je     2f81 <hound_remove_sink_internal+0x81>
    2f79:	89 0a                	mov    %ecx,(%edx)
    2f7b:	8b 48 10             	mov    0x10(%eax),%ecx
    2f7e:	89 51 04             	mov    %edx,0x4(%ecx)
    2f81:	83 ec 0c             	sub    $0xc,%esp
    2f84:	c7 40 10 00 00 00 00 	movl   $0x0,0x10(%eax)
    2f8b:	c7 40 14 00 00 00 00 	movl   $0x0,0x14(%eax)
    2f92:	50                   	push   %eax
    2f93:	e8 08 fd ff ff       	call   2ca0 <connection_destroy>
    2f98:	8b 43 0c             	mov    0xc(%ebx),%eax
    2f9b:	83 c4 10             	add    $0x10,%esp
    2f9e:	39 c6                	cmp    %eax,%esi
    2fa0:	75 c6                	jne    2f68 <hound_remove_sink_internal+0x68>
    2fa2:	8b 13                	mov    (%ebx),%edx
    2fa4:	85 d2                	test   %edx,%edx
    2fa6:	74 0e                	je     2fb6 <hound_remove_sink_internal+0xb6>
    2fa8:	8b 43 04             	mov    0x4(%ebx),%eax
    2fab:	85 c0                	test   %eax,%eax
    2fad:	74 07                	je     2fb6 <hound_remove_sink_internal+0xb6>
    2faf:	89 10                	mov    %edx,(%eax)
    2fb1:	8b 13                	mov    (%ebx),%edx
    2fb3:	89 42 04             	mov    %eax,0x4(%edx)
    2fb6:	c7 03 00 00 00 00    	movl   $0x0,(%ebx)
    2fbc:	c7 43 04 00 00 00 00 	movl   $0x0,0x4(%ebx)
    2fc3:	8d 65 f8             	lea    -0x8(%ebp),%esp
    2fc6:	5b                   	pop    %ebx
    2fc7:	5e                   	pop    %esi
    2fc8:	5d                   	pop    %ebp
    2fc9:	c3                   	ret    
    2fca:	56                   	push   %esi
    2fcb:	6a 7b                	push   $0x7b
    2fcd:	68 cc 96 00 00       	push   $0x96cc
    2fd2:	68 f4 b1 00 00       	push   $0xb1f4
    2fd7:	e8 d4 87 00 00       	call   b7b0 <assert_abort@plt>
    2fdc:	51                   	push   %ecx
    2fdd:	6a 7d                	push   $0x7d
    2fdf:	68 cc 96 00 00       	push   $0x96cc
    2fe4:	68 fc 97 00 00       	push   $0x97fc
    2fe9:	e8 c2 87 00 00       	call   b7b0 <assert_abort@plt>
    2fee:	53                   	push   %ebx
    2fef:	6a 7c                	push   $0x7c
    2ff1:	68 cc 96 00 00       	push   $0x96cc
    2ff6:	68 76 95 00 00       	push   $0x9576
    2ffb:	e8 b0 87 00 00       	call   b7b0 <assert_abort@plt>

00003000 <hound_init>:
    3000:	55                   	push   %ebp
    3001:	89 e5                	mov    %esp,%ebp
    3003:	53                   	push   %ebx
    3004:	52                   	push   %edx
    3005:	8b 5d 08             	mov    0x8(%ebp),%ebx
    3008:	85 db                	test   %ebx,%ebx
    300a:	74 3d                	je     3049 <hound_init+0x49>
    300c:	83 ec 0c             	sub    $0xc,%esp
    300f:	53                   	push   %ebx
    3010:	e8 2b 88 00 00       	call   b840 <fibril_mutex_initialize@plt>
    3015:	8d 43 10             	lea    0x10(%ebx),%eax
    3018:	89 43 10             	mov    %eax,0x10(%ebx)
    301b:	89 43 14             	mov    %eax,0x14(%ebx)
    301e:	8d 43 18             	lea    0x18(%ebx),%eax
    3021:	89 43 18             	mov    %eax,0x18(%ebx)
    3024:	89 43 1c             	mov    %eax,0x1c(%ebx)
    3027:	8d 43 20             	lea    0x20(%ebx),%eax
    302a:	89 43 20             	mov    %eax,0x20(%ebx)
    302d:	89 43 24             	mov    %eax,0x24(%ebx)
    3030:	8d 43 28             	lea    0x28(%ebx),%eax
    3033:	89 43 28             	mov    %eax,0x28(%ebx)
    3036:	89 43 2c             	mov    %eax,0x2c(%ebx)
    3039:	8d 43 30             	lea    0x30(%ebx),%eax
    303c:	89 43 30             	mov    %eax,0x30(%ebx)
    303f:	89 43 34             	mov    %eax,0x34(%ebx)
    3042:	31 c0                	xor    %eax,%eax
    3044:	8b 5d fc             	mov    -0x4(%ebp),%ebx
    3047:	c9                   	leave  
    3048:	c3                   	ret    
    3049:	50                   	push   %eax
    304a:	68 a6 00 00 00       	push   $0xa6
    304f:	68 cc 96 00 00       	push   $0x96cc
    3054:	68 f4 b1 00 00       	push   $0xb1f4
    3059:	e8 52 87 00 00       	call   b7b0 <assert_abort@plt>
    305e:	66 90                	xchg   %ax,%ax

00003060 <hound_remove_ctx>:
    3060:	55                   	push   %ebp
    3061:	89 e5                	mov    %esp,%ebp
    3063:	57                   	push   %edi
    3064:	56                   	push   %esi
    3065:	53                   	push   %ebx
    3066:	83 ec 0c             	sub    $0xc,%esp
    3069:	8b 7d 08             	mov    0x8(%ebp),%edi
    306c:	8b 75 0c             	mov    0xc(%ebp),%esi
    306f:	85 ff                	test   %edi,%edi
    3071:	0f 84 1d 01 00 00    	je     3194 <hound_remove_ctx+0x134>
    3077:	85 f6                	test   %esi,%esi
    3079:	0f 84 0e 01 00 00    	je     318d <hound_remove_ctx+0x12d>
    307f:	8d 46 08             	lea    0x8(%esi),%eax
    3082:	39 46 0c             	cmp    %eax,0xc(%esi)
    3085:	0f 85 f5 00 00 00    	jne    3180 <hound_remove_ctx+0x120>
    308b:	83 ec 0c             	sub    $0xc,%esp
    308e:	8b 5d 08             	mov    0x8(%ebp),%ebx
    3091:	53                   	push   %ebx
    3092:	e8 49 89 00 00       	call   b9e0 <fibril_mutex_lock@plt>
    3097:	8b 16                	mov    (%esi),%edx
    3099:	83 c4 10             	add    $0x10,%esp
    309c:	85 d2                	test   %edx,%edx
    309e:	74 0e                	je     30ae <hound_remove_ctx+0x4e>
    30a0:	8b 46 04             	mov    0x4(%esi),%eax
    30a3:	85 c0                	test   %eax,%eax
    30a5:	74 07                	je     30ae <hound_remove_ctx+0x4e>
    30a7:	89 10                	mov    %edx,(%eax)
    30a9:	8b 16                	mov    (%esi),%edx
    30ab:	89 42 04             	mov    %eax,0x4(%edx)
    30ae:	8b 5e 10             	mov    0x10(%esi),%ebx
    30b1:	c7 06 00 00 00 00    	movl   $0x0,(%esi)
    30b7:	c7 46 04 00 00 00 00 	movl   $0x0,0x4(%esi)
    30be:	85 db                	test   %ebx,%ebx
    30c0:	0f 84 92 00 00 00    	je     3158 <hound_remove_ctx+0xf8>
    30c6:	8b 4b 10             	mov    0x10(%ebx),%ecx
    30c9:	8d 7b 08             	lea    0x8(%ebx),%edi
    30cc:	51                   	push   %ecx
    30cd:	68 e8 96 00 00       	push   $0x96e8
    30d2:	6a 05                	push   $0x5
    30d4:	6a ff                	push   $0xffffffff
    30d6:	e8 95 86 00 00       	call   b770 <log_msg@plt>
    30db:	83 c4 10             	add    $0x10,%esp
    30de:	39 7b 0c             	cmp    %edi,0xc(%ebx)
    30e1:	74 54                	je     3137 <hound_remove_ctx+0xd7>
    30e3:	8b 53 10             	mov    0x10(%ebx),%edx
    30e6:	52                   	push   %edx
    30e7:	68 54 98 00 00       	push   $0x9854
    30ec:	6a 02                	push   $0x2
    30ee:	6a ff                	push   $0xffffffff
    30f0:	e8 7b 86 00 00       	call   b770 <log_msg@plt>
    30f5:	8b 43 0c             	mov    0xc(%ebx),%eax
    30f8:	83 c4 10             	add    $0x10,%esp
    30fb:	39 c7                	cmp    %eax,%edi
    30fd:	74 38                	je     3137 <hound_remove_ctx+0xd7>
    30ff:	90                   	nop
    3100:	8b 48 10             	mov    0x10(%eax),%ecx
    3103:	85 c9                	test   %ecx,%ecx
    3105:	74 0f                	je     3116 <hound_remove_ctx+0xb6>
    3107:	8b 50 14             	mov    0x14(%eax),%edx
    310a:	85 d2                	test   %edx,%edx
    310c:	74 08                	je     3116 <hound_remove_ctx+0xb6>
    310e:	89 0a                	mov    %ecx,(%edx)
    3110:	8b 48 10             	mov    0x10(%eax),%ecx
    3113:	89 51 04             	mov    %edx,0x4(%ecx)
    3116:	83 ec 0c             	sub    $0xc,%esp
    3119:	c7 40 10 00 00 00 00 	movl   $0x0,0x10(%eax)
    3120:	c7 40 14 00 00 00 00 	movl   $0x0,0x14(%eax)
    3127:	50                   	push   %eax
    3128:	e8 73 fb ff ff       	call   2ca0 <connection_destroy>
    312d:	8b 43 0c             	mov    0xc(%ebx),%eax
    3130:	83 c4 10             	add    $0x10,%esp
    3133:	39 c7                	cmp    %eax,%edi
    3135:	75 c9                	jne    3100 <hound_remove_ctx+0xa0>
    3137:	8b 13                	mov    (%ebx),%edx
    3139:	85 d2                	test   %edx,%edx
    313b:	74 0e                	je     314b <hound_remove_ctx+0xeb>
    313d:	8b 43 04             	mov    0x4(%ebx),%eax
    3140:	85 c0                	test   %eax,%eax
    3142:	74 07                	je     314b <hound_remove_ctx+0xeb>
    3144:	89 10                	mov    %edx,(%eax)
    3146:	8b 13                	mov    (%ebx),%edx
    3148:	89 42 04             	mov    %eax,0x4(%edx)
    314b:	c7 03 00 00 00 00    	movl   $0x0,(%ebx)
    3151:	c7 43 04 00 00 00 00 	movl   $0x0,0x4(%ebx)
    3158:	8b 56 14             	mov    0x14(%esi),%edx
    315b:	85 d2                	test   %edx,%edx
    315d:	74 08                	je     3167 <hound_remove_ctx+0x107>
    315f:	8b 45 08             	mov    0x8(%ebp),%eax
    3162:	e8 99 fd ff ff       	call   2f00 <hound_remove_sink_internal>
    3167:	83 ec 0c             	sub    $0xc,%esp
    316a:	8b 45 08             	mov    0x8(%ebp),%eax
    316d:	50                   	push   %eax
    316e:	e8 8d 86 00 00       	call   b800 <fibril_mutex_unlock@plt>
    3173:	83 c4 10             	add    $0x10,%esp
    3176:	31 c0                	xor    %eax,%eax
    3178:	8d 65 f4             	lea    -0xc(%ebp),%esp
    317b:	5b                   	pop    %ebx
    317c:	5e                   	pop    %esi
    317d:	5f                   	pop    %edi
    317e:	5d                   	pop    %ebp
    317f:	c3                   	ret    
    3180:	8d 65 f4             	lea    -0xc(%ebp),%esp
    3183:	b8 f1 ff ff ff       	mov    $0xfffffff1,%eax
    3188:	5b                   	pop    %ebx
    3189:	5e                   	pop    %esi
    318a:	5f                   	pop    %edi
    318b:	5d                   	pop    %ebp
    318c:	c3                   	ret    
    318d:	b8 f2 ff ff ff       	mov    $0xfffffff2,%eax
    3192:	eb e4                	jmp    3178 <hound_remove_ctx+0x118>
    3194:	56                   	push   %esi
    3195:	68 d4 00 00 00       	push   $0xd4
    319a:	68 cc 96 00 00       	push   $0x96cc
    319f:	68 f4 b1 00 00       	push   $0xb1f4
    31a4:	e8 07 86 00 00       	call   b7b0 <assert_abort@plt>
    31a9:	8d b4 26 00 00 00 00 	lea    0x0(%esi,%eiz,1),%esi

000031b0 <hound_get_ctx_by_id>:
    31b0:	55                   	push   %ebp
    31b1:	89 e5                	mov    %esp,%ebp
    31b3:	57                   	push   %edi
    31b4:	56                   	push   %esi
    31b5:	53                   	push   %ebx
    31b6:	83 ec 1c             	sub    $0x1c,%esp
    31b9:	8b 75 08             	mov    0x8(%ebp),%esi
    31bc:	8b 5d 0c             	mov    0xc(%ebp),%ebx
    31bf:	85 f6                	test   %esi,%esi
    31c1:	74 61                	je     3224 <hound_get_ctx_by_id+0x74>
    31c3:	83 ec 0c             	sub    $0xc,%esp
    31c6:	8b 55 08             	mov    0x8(%ebp),%edx
    31c9:	52                   	push   %edx
    31ca:	e8 11 88 00 00       	call   b9e0 <fibril_mutex_lock@plt>
    31cf:	8b 45 08             	mov    0x8(%ebp),%eax
    31d2:	83 c4 10             	add    $0x10,%esp
    31d5:	8b 78 1c             	mov    0x1c(%eax),%edi
    31d8:	8d 70 18             	lea    0x18(%eax),%esi
    31db:	39 f7                	cmp    %esi,%edi
    31dd:	75 10                	jne    31ef <hound_get_ctx_by_id+0x3f>
    31df:	eb 3f                	jmp    3220 <hound_get_ctx_by_id+0x70>
    31e1:	8d b4 26 00 00 00 00 	lea    0x0(%esi,%eiz,1),%esi
    31e8:	8b 7f 04             	mov    0x4(%edi),%edi
    31eb:	39 f7                	cmp    %esi,%edi
    31ed:	74 31                	je     3220 <hound_get_ctx_by_id+0x70>
    31ef:	83 ec 0c             	sub    $0xc,%esp
    31f2:	57                   	push   %edi
    31f3:	e8 d8 16 00 00       	call   48d0 <hound_ctx_get_id>
    31f8:	83 c4 10             	add    $0x10,%esp
    31fb:	39 d8                	cmp    %ebx,%eax
    31fd:	75 e9                	jne    31e8 <hound_get_ctx_by_id+0x38>
    31ff:	89 fa                	mov    %edi,%edx
    3201:	83 ec 0c             	sub    $0xc,%esp
    3204:	8b 45 08             	mov    0x8(%ebp),%eax
    3207:	89 55 e4             	mov    %edx,-0x1c(%ebp)
    320a:	50                   	push   %eax
    320b:	e8 f0 85 00 00       	call   b800 <fibril_mutex_unlock@plt>
    3210:	8b 55 e4             	mov    -0x1c(%ebp),%edx
    3213:	8d 65 f4             	lea    -0xc(%ebp),%esp
    3216:	89 d0                	mov    %edx,%eax
    3218:	5b                   	pop    %ebx
    3219:	5e                   	pop    %esi
    321a:	5f                   	pop    %edi
    321b:	5d                   	pop    %ebp
    321c:	c3                   	ret    
    321d:	8d 76 00             	lea    0x0(%esi),%esi
    3220:	31 d2                	xor    %edx,%edx
    3222:	eb dd                	jmp    3201 <hound_get_ctx_by_id+0x51>
    3224:	51                   	push   %ecx
    3225:	68 eb 00 00 00       	push   $0xeb
    322a:	68 cc 96 00 00       	push   $0x96cc
    322f:	68 f4 b1 00 00       	push   $0xb1f4
    3234:	e8 77 85 00 00       	call   b7b0 <assert_abort@plt>
    3239:	8d b4 26 00 00 00 00 	lea    0x0(%esi,%eiz,1),%esi

00003240 <hound_add_source>:
    3240:	55                   	push   %ebp
    3241:	89 e5                	mov    %esp,%ebp
    3243:	57                   	push   %edi
    3244:	56                   	push   %esi
    3245:	53                   	push   %ebx
    3246:	83 ec 0c             	sub    $0xc,%esp
    3249:	8b 7d 08             	mov    0x8(%ebp),%edi
    324c:	85 ff                	test   %edi,%edi
    324e:	0f 84 23 01 00 00    	je     3377 <hound_add_source+0x137>
    3254:	8b 5d 0c             	mov    0xc(%ebp),%ebx
    3257:	85 db                	test   %ebx,%ebx
    3259:	0f 84 e7 00 00 00    	je     3346 <hound_add_source+0x106>
    325f:	8b 45 0c             	mov    0xc(%ebp),%eax
    3262:	8b 40 10             	mov    0x10(%eax),%eax
    3265:	85 c0                	test   %eax,%eax
    3267:	0f 84 d9 00 00 00    	je     3346 <hound_add_source+0x106>
    326d:	52                   	push   %edx
    326e:	52                   	push   %edx
    326f:	68 18 97 00 00       	push   $0x9718
    3274:	50                   	push   %eax
    3275:	e8 e6 85 00 00       	call   b860 <str_cmp@plt>
    327a:	83 c4 10             	add    $0x10,%esp
    327d:	85 c0                	test   %eax,%eax
    327f:	0f 84 c1 00 00 00    	je     3346 <hound_add_source+0x106>
    3285:	83 ec 0c             	sub    $0xc,%esp
    3288:	8b 45 08             	mov    0x8(%ebp),%eax
    328b:	50                   	push   %eax
    328c:	e8 4f 87 00 00       	call   b9e0 <fibril_mutex_lock@plt>
    3291:	8b 45 0c             	mov    0xc(%ebp),%eax
    3294:	83 c4 10             	add    $0x10,%esp
    3297:	8b 70 10             	mov    0x10(%eax),%esi
    329a:	8b 45 08             	mov    0x8(%ebp),%eax
    329d:	85 f6                	test   %esi,%esi
    329f:	8d 58 20             	lea    0x20(%eax),%ebx
    32a2:	0f 84 bd 00 00 00    	je     3365 <hound_add_source+0x125>
    32a8:	8b 78 24             	mov    0x24(%eax),%edi
    32ab:	39 fb                	cmp    %edi,%ebx
    32ad:	75 10                	jne    32bf <hound_add_source+0x7f>
    32af:	eb 5f                	jmp    3310 <hound_add_source+0xd0>
    32b1:	8d b4 26 00 00 00 00 	lea    0x0(%esi,%eiz,1),%esi
    32b8:	8b 7f 04             	mov    0x4(%edi),%edi
    32bb:	39 fb                	cmp    %edi,%ebx
    32bd:	74 51                	je     3310 <hound_add_source+0xd0>
    32bf:	51                   	push   %ecx
    32c0:	51                   	push   %ecx
    32c1:	8b 47 10             	mov    0x10(%edi),%eax
    32c4:	50                   	push   %eax
    32c5:	56                   	push   %esi
    32c6:	e8 95 85 00 00       	call   b860 <str_cmp@plt>
    32cb:	83 c4 10             	add    $0x10,%esp
    32ce:	85 c0                	test   %eax,%eax
    32d0:	75 e6                	jne    32b8 <hound_add_source+0x78>
    32d2:	56                   	push   %esi
    32d3:	68 80 98 00 00       	push   $0x9880
    32d8:	6a 04                	push   $0x4
    32da:	6a ff                	push   $0xffffffff
    32dc:	e8 8f 84 00 00       	call   b770 <log_msg@plt>
    32e1:	83 c4 0c             	add    $0xc,%esp
    32e4:	68 a8 98 00 00       	push   $0x98a8
    32e9:	6a 04                	push   $0x4
    32eb:	6a ff                	push   $0xffffffff
    32ed:	e8 7e 84 00 00       	call   b770 <log_msg@plt>
    32f2:	8b 55 08             	mov    0x8(%ebp),%edx
    32f5:	58                   	pop    %eax
    32f6:	52                   	push   %edx
    32f7:	e8 04 85 00 00       	call   b800 <fibril_mutex_unlock@plt>
    32fc:	83 c4 10             	add    $0x10,%esp
    32ff:	8d 65 f4             	lea    -0xc(%ebp),%esp
    3302:	b8 f7 ff ff ff       	mov    $0xfffffff7,%eax
    3307:	5b                   	pop    %ebx
    3308:	5e                   	pop    %esi
    3309:	5f                   	pop    %edi
    330a:	5d                   	pop    %ebp
    330b:	c3                   	ret    
    330c:	8d 74 26 00          	lea    0x0(%esi,%eiz,1),%esi
    3310:	8b 45 0c             	mov    0xc(%ebp),%eax
    3313:	8b 55 0c             	mov    0xc(%ebp),%edx
    3316:	83 ec 0c             	sub    $0xc,%esp
    3319:	89 58 04             	mov    %ebx,0x4(%eax)
    331c:	8b 45 08             	mov    0x8(%ebp),%eax
    331f:	8b 40 20             	mov    0x20(%eax),%eax
    3322:	89 02                	mov    %eax,(%edx)
    3324:	8b 45 08             	mov    0x8(%ebp),%eax
    3327:	8b 40 20             	mov    0x20(%eax),%eax
    332a:	89 50 04             	mov    %edx,0x4(%eax)
    332d:	8b 45 08             	mov    0x8(%ebp),%eax
    3330:	89 50 20             	mov    %edx,0x20(%eax)
    3333:	50                   	push   %eax
    3334:	e8 c7 84 00 00       	call   b800 <fibril_mutex_unlock@plt>
    3339:	83 c4 10             	add    $0x10,%esp
    333c:	8d 65 f4             	lea    -0xc(%ebp),%esp
    333f:	31 c0                	xor    %eax,%eax
    3341:	5b                   	pop    %ebx
    3342:	5e                   	pop    %esi
    3343:	5f                   	pop    %edi
    3344:	5d                   	pop    %ebp
    3345:	c3                   	ret    
    3346:	51                   	push   %ecx
    3347:	68 fe 96 00 00       	push   $0x96fe
    334c:	6a 04                	push   $0x4
    334e:	6a ff                	push   $0xffffffff
    3350:	e8 1b 84 00 00       	call   b770 <log_msg@plt>
    3355:	83 c4 10             	add    $0x10,%esp
    3358:	8d 65 f4             	lea    -0xc(%ebp),%esp
    335b:	b8 f2 ff ff ff       	mov    $0xfffffff2,%eax
    3360:	5b                   	pop    %ebx
    3361:	5e                   	pop    %esi
    3362:	5f                   	pop    %edi
    3363:	5d                   	pop    %ebp
    3364:	c3                   	ret    
    3365:	50                   	push   %eax
    3366:	6a 4e                	push   $0x4e
    3368:	68 cc 96 00 00       	push   $0x96cc
    336d:	68 20 97 00 00       	push   $0x9720
    3372:	e8 39 84 00 00       	call   b7b0 <assert_abort@plt>
    3377:	56                   	push   %esi
    3378:	68 4e 01 00 00       	push   $0x14e
    337d:	68 cc 96 00 00       	push   $0x96cc
    3382:	68 f4 b1 00 00       	push   $0xb1f4
    3387:	e8 24 84 00 00       	call   b7b0 <assert_abort@plt>
    338c:	8d 74 26 00          	lea    0x0(%esi,%eiz,1),%esi

00003390 <hound_add_sink>:
    3390:	55                   	push   %ebp
    3391:	89 e5                	mov    %esp,%ebp
    3393:	57                   	push   %edi
    3394:	56                   	push   %esi
    3395:	53                   	push   %ebx
    3396:	83 ec 0c             	sub    $0xc,%esp
    3399:	8b 7d 08             	mov    0x8(%ebp),%edi
    339c:	85 ff                	test   %edi,%edi
    339e:	0f 84 23 01 00 00    	je     34c7 <hound_add_sink+0x137>
    33a4:	8b 5d 0c             	mov    0xc(%ebp),%ebx
    33a7:	85 db                	test   %ebx,%ebx
    33a9:	0f 84 e7 00 00 00    	je     3496 <hound_add_sink+0x106>
    33af:	8b 45 0c             	mov    0xc(%ebp),%eax
    33b2:	8b 40 10             	mov    0x10(%eax),%eax
    33b5:	85 c0                	test   %eax,%eax
    33b7:	0f 84 d9 00 00 00    	je     3496 <hound_add_sink+0x106>
    33bd:	52                   	push   %edx
    33be:	52                   	push   %edx
    33bf:	68 18 97 00 00       	push   $0x9718
    33c4:	50                   	push   %eax
    33c5:	e8 96 84 00 00       	call   b860 <str_cmp@plt>
    33ca:	83 c4 10             	add    $0x10,%esp
    33cd:	85 c0                	test   %eax,%eax
    33cf:	0f 84 c1 00 00 00    	je     3496 <hound_add_sink+0x106>
    33d5:	83 ec 0c             	sub    $0xc,%esp
    33d8:	8b 45 08             	mov    0x8(%ebp),%eax
    33db:	50                   	push   %eax
    33dc:	e8 ff 85 00 00       	call   b9e0 <fibril_mutex_lock@plt>
    33e1:	8b 45 0c             	mov    0xc(%ebp),%eax
    33e4:	83 c4 10             	add    $0x10,%esp
    33e7:	8b 70 10             	mov    0x10(%eax),%esi
    33ea:	8b 45 08             	mov    0x8(%ebp),%eax
    33ed:	85 f6                	test   %esi,%esi
    33ef:	8d 58 28             	lea    0x28(%eax),%ebx
    33f2:	0f 84 bd 00 00 00    	je     34b5 <hound_add_sink+0x125>
    33f8:	8b 78 2c             	mov    0x2c(%eax),%edi
    33fb:	39 fb                	cmp    %edi,%ebx
    33fd:	75 10                	jne    340f <hound_add_sink+0x7f>
    33ff:	eb 5f                	jmp    3460 <hound_add_sink+0xd0>
    3401:	8d b4 26 00 00 00 00 	lea    0x0(%esi,%eiz,1),%esi
    3408:	8b 7f 04             	mov    0x4(%edi),%edi
    340b:	39 fb                	cmp    %edi,%ebx
    340d:	74 51                	je     3460 <hound_add_sink+0xd0>
    340f:	51                   	push   %ecx
    3410:	51                   	push   %ecx
    3411:	8b 47 10             	mov    0x10(%edi),%eax
    3414:	50                   	push   %eax
    3415:	56                   	push   %esi
    3416:	e8 45 84 00 00       	call   b860 <str_cmp@plt>
    341b:	83 c4 10             	add    $0x10,%esp
    341e:	85 c0                	test   %eax,%eax
    3420:	75 e6                	jne    3408 <hound_add_sink+0x78>
    3422:	56                   	push   %esi
    3423:	68 cc 98 00 00       	push   $0x98cc
    3428:	6a 04                	push   $0x4
    342a:	6a ff                	push   $0xffffffff
    342c:	e8 3f 83 00 00       	call   b770 <log_msg@plt>
    3431:	83 c4 0c             	add    $0xc,%esp
    3434:	68 f0 98 00 00       	push   $0x98f0
    3439:	6a 04                	push   $0x4
    343b:	6a ff                	push   $0xffffffff
    343d:	e8 2e 83 00 00       	call   b770 <log_msg@plt>
    3442:	8b 55 08             	mov    0x8(%ebp),%edx
    3445:	58                   	pop    %eax
    3446:	52                   	push   %edx
    3447:	e8 b4 83 00 00       	call   b800 <fibril_mutex_unlock@plt>
    344c:	83 c4 10             	add    $0x10,%esp
    344f:	8d 65 f4             	lea    -0xc(%ebp),%esp
    3452:	b8 f7 ff ff ff       	mov    $0xfffffff7,%eax
    3457:	5b                   	pop    %ebx
    3458:	5e                   	pop    %esi
    3459:	5f                   	pop    %edi
    345a:	5d                   	pop    %ebp
    345b:	c3                   	ret    
    345c:	8d 74 26 00          	lea    0x0(%esi,%eiz,1),%esi
    3460:	8b 45 0c             	mov    0xc(%ebp),%eax
    3463:	8b 55 0c             	mov    0xc(%ebp),%edx
    3466:	83 ec 0c             	sub    $0xc,%esp
    3469:	89 58 04             	mov    %ebx,0x4(%eax)
    346c:	8b 45 08             	mov    0x8(%ebp),%eax
    346f:	8b 40 28             	mov    0x28(%eax),%eax
    3472:	89 02                	mov    %eax,(%edx)
    3474:	8b 45 08             	mov    0x8(%ebp),%eax
    3477:	8b 40 28             	mov    0x28(%eax),%eax
    347a:	89 50 04             	mov    %edx,0x4(%eax)
    347d:	8b 45 08             	mov    0x8(%ebp),%eax
    3480:	89 50 28             	mov    %edx,0x28(%eax)
    3483:	50                   	push   %eax
    3484:	e8 77 83 00 00       	call   b800 <fibril_mutex_unlock@plt>
    3489:	83 c4 10             	add    $0x10,%esp
    348c:	8d 65 f4             	lea    -0xc(%ebp),%esp
    348f:	31 c0                	xor    %eax,%eax
    3491:	5b                   	pop    %ebx
    3492:	5e                   	pop    %esi
    3493:	5f                   	pop    %edi
    3494:	5d                   	pop    %ebp
    3495:	c3                   	ret    
    3496:	51                   	push   %ecx
    3497:	68 fe 96 00 00       	push   $0x96fe
    349c:	6a 04                	push   $0x4
    349e:	6a ff                	push   $0xffffffff
    34a0:	e8 cb 82 00 00       	call   b770 <log_msg@plt>
    34a5:	83 c4 10             	add    $0x10,%esp
    34a8:	8d 65 f4             	lea    -0xc(%ebp),%esp
    34ab:	b8 f2 ff ff ff       	mov    $0xfffffff2,%eax
    34b0:	5b                   	pop    %ebx
    34b1:	5e                   	pop    %esi
    34b2:	5f                   	pop    %edi
    34b3:	5d                   	pop    %ebp
    34b4:	c3                   	ret    
    34b5:	50                   	push   %eax
    34b6:	6a 63                	push   $0x63
    34b8:	68 cc 96 00 00       	push   $0x96cc
    34bd:	68 20 97 00 00       	push   $0x9720
    34c2:	e8 e9 82 00 00       	call   b7b0 <assert_abort@plt>
    34c7:	56                   	push   %esi
    34c8:	68 66 01 00 00       	push   $0x166
    34cd:	68 cc 96 00 00       	push   $0x96cc
    34d2:	68 f4 b1 00 00       	push   $0xb1f4
    34d7:	e8 d4 82 00 00       	call   b7b0 <assert_abort@plt>
    34dc:	8d 74 26 00          	lea    0x0(%esi,%eiz,1),%esi

000034e0 <hound_add_ctx>:
    34e0:	55                   	push   %ebp
    34e1:	89 e5                	mov    %esp,%ebp
    34e3:	56                   	push   %esi
    34e4:	53                   	push   %ebx
    34e5:	83 ec 10             	sub    $0x10,%esp
    34e8:	8b 5d 0c             	mov    0xc(%ebp),%ebx
    34eb:	8b 75 08             	mov    0x8(%ebp),%esi
    34ee:	53                   	push   %ebx
    34ef:	68 25 97 00 00       	push   $0x9725
    34f4:	6a 03                	push   $0x3
    34f6:	6a ff                	push   $0xffffffff
    34f8:	e8 73 82 00 00       	call   b770 <log_msg@plt>
    34fd:	83 c4 10             	add    $0x10,%esp
    3500:	85 f6                	test   %esi,%esi
    3502:	0f 84 bf 00 00 00    	je     35c7 <hound_add_ctx+0xe7>
    3508:	85 db                	test   %ebx,%ebx
    350a:	0f 84 b0 00 00 00    	je     35c0 <hound_add_ctx+0xe0>
    3510:	83 ec 0c             	sub    $0xc,%esp
    3513:	56                   	push   %esi
    3514:	e8 c7 84 00 00       	call   b9e0 <fibril_mutex_lock@plt>
    3519:	8d 46 18             	lea    0x18(%esi),%eax
    351c:	89 43 04             	mov    %eax,0x4(%ebx)
    351f:	8b 46 18             	mov    0x18(%esi),%eax
    3522:	89 03                	mov    %eax,(%ebx)
    3524:	8b 46 18             	mov    0x18(%esi),%eax
    3527:	89 58 04             	mov    %ebx,0x4(%eax)
    352a:	89 5e 18             	mov    %ebx,0x18(%esi)
    352d:	89 34 24             	mov    %esi,(%esp)
    3530:	e8 cb 82 00 00       	call   b800 <fibril_mutex_unlock@plt>
    3535:	8b 43 10             	mov    0x10(%ebx),%eax
    3538:	83 c4 10             	add    $0x10,%esp
    353b:	85 c0                	test   %eax,%eax
    353d:	74 61                	je     35a0 <hound_add_ctx+0xc0>
    353f:	51                   	push   %ecx
    3540:	51                   	push   %ecx
    3541:	50                   	push   %eax
    3542:	56                   	push   %esi
    3543:	e8 f8 fc ff ff       	call   3240 <hound_add_source>
    3548:	83 c4 10             	add    $0x10,%esp
    354b:	85 c0                	test   %eax,%eax
    354d:	74 51                	je     35a0 <hound_add_ctx+0xc0>
    354f:	83 ec 0c             	sub    $0xc,%esp
    3552:	89 45 f4             	mov    %eax,-0xc(%ebp)
    3555:	56                   	push   %esi
    3556:	e8 85 84 00 00       	call   b9e0 <fibril_mutex_lock@plt>
    355b:	8b 0b                	mov    (%ebx),%ecx
    355d:	83 c4 10             	add    $0x10,%esp
    3560:	8b 45 f4             	mov    -0xc(%ebp),%eax
    3563:	85 c9                	test   %ecx,%ecx
    3565:	74 0e                	je     3575 <hound_add_ctx+0x95>
    3567:	8b 53 04             	mov    0x4(%ebx),%edx
    356a:	85 d2                	test   %edx,%edx
    356c:	74 07                	je     3575 <hound_add_ctx+0x95>
    356e:	89 0a                	mov    %ecx,(%edx)
    3570:	8b 0b                	mov    (%ebx),%ecx
    3572:	89 51 04             	mov    %edx,0x4(%ecx)
    3575:	83 ec 0c             	sub    $0xc,%esp
    3578:	c7 03 00 00 00 00    	movl   $0x0,(%ebx)
    357e:	c7 43 04 00 00 00 00 	movl   $0x0,0x4(%ebx)
    3585:	89 45 f4             	mov    %eax,-0xc(%ebp)
    3588:	56                   	push   %esi
    3589:	e8 72 82 00 00       	call   b800 <fibril_mutex_unlock@plt>
    358e:	83 c4 10             	add    $0x10,%esp
    3591:	8b 45 f4             	mov    -0xc(%ebp),%eax
    3594:	8d 65 f8             	lea    -0x8(%ebp),%esp
    3597:	5b                   	pop    %ebx
    3598:	5e                   	pop    %esi
    3599:	5d                   	pop    %ebp
    359a:	c3                   	ret    
    359b:	90                   	nop
    359c:	8d 74 26 00          	lea    0x0(%esi,%eiz,1),%esi
    35a0:	8b 43 14             	mov    0x14(%ebx),%eax
    35a3:	85 c0                	test   %eax,%eax
    35a5:	74 10                	je     35b7 <hound_add_ctx+0xd7>
    35a7:	52                   	push   %edx
    35a8:	52                   	push   %edx
    35a9:	50                   	push   %eax
    35aa:	56                   	push   %esi
    35ab:	e8 e0 fd ff ff       	call   3390 <hound_add_sink>
    35b0:	83 c4 10             	add    $0x10,%esp
    35b3:	85 c0                	test   %eax,%eax
    35b5:	75 98                	jne    354f <hound_add_ctx+0x6f>
    35b7:	8d 65 f8             	lea    -0x8(%ebp),%esp
    35ba:	31 c0                	xor    %eax,%eax
    35bc:	5b                   	pop    %ebx
    35bd:	5e                   	pop    %esi
    35be:	5d                   	pop    %ebp
    35bf:	c3                   	ret    
    35c0:	b8 f2 ff ff ff       	mov    $0xfffffff2,%eax
    35c5:	eb cd                	jmp    3594 <hound_add_ctx+0xb4>
    35c7:	53                   	push   %ebx
    35c8:	68 b9 00 00 00       	push   $0xb9
    35cd:	68 cc 96 00 00       	push   $0x96cc
    35d2:	68 f4 b1 00 00       	push   $0xb1f4
    35d7:	e8 d4 81 00 00       	call   b7b0 <assert_abort@plt>
    35dc:	8d 74 26 00          	lea    0x0(%esi,%eiz,1),%esi

000035e0 <hound_add_device>:
    35e0:	55                   	push   %ebp
    35e1:	89 e5                	mov    %esp,%ebp
    35e3:	57                   	push   %edi
    35e4:	56                   	push   %esi
    35e5:	53                   	push   %ebx
    35e6:	83 ec 28             	sub    $0x28,%esp
    35e9:	8b 75 0c             	mov    0xc(%ebp),%esi
    35ec:	8b 55 10             	mov    0x10(%ebp),%edx
    35ef:	56                   	push   %esi
    35f0:	52                   	push   %edx
    35f1:	68 14 99 00 00       	push   $0x9914
    35f6:	6a 05                	push   $0x5
    35f8:	6a ff                	push   $0xffffffff
    35fa:	e8 71 81 00 00       	call   b770 <log_msg@plt>
    35ff:	8b 4d 08             	mov    0x8(%ebp),%ecx
    3602:	83 c4 20             	add    $0x20,%esp
    3605:	85 c9                	test   %ecx,%ecx
    3607:	0f 84 af 02 00 00    	je     38bc <hound_add_device+0x2dc>
    360d:	8b 45 10             	mov    0x10(%ebp),%eax
    3610:	85 c0                	test   %eax,%eax
    3612:	0f 84 d8 01 00 00    	je     37f0 <hound_add_device+0x210>
    3618:	85 f6                	test   %esi,%esi
    361a:	0f 84 d0 01 00 00    	je     37f0 <hound_add_device+0x210>
    3620:	8b 45 08             	mov    0x8(%ebp),%eax
    3623:	8b 78 14             	mov    0x14(%eax),%edi
    3626:	8d 58 10             	lea    0x10(%eax),%ebx
    3629:	39 df                	cmp    %ebx,%edi
    362b:	0f 84 8e 00 00 00    	je     36bf <hound_add_device+0xdf>
    3631:	3b 77 08             	cmp    0x8(%edi),%esi
    3634:	74 6a                	je     36a0 <hound_add_device+0xc0>
    3636:	89 f8                	mov    %edi,%eax
    3638:	eb 0b                	jmp    3645 <hound_add_device+0x65>
    363a:	8d b6 00 00 00 00    	lea    0x0(%esi),%esi
    3640:	3b 70 08             	cmp    0x8(%eax),%esi
    3643:	74 5b                	je     36a0 <hound_add_device+0xc0>
    3645:	8b 40 04             	mov    0x4(%eax),%eax
    3648:	39 d8                	cmp    %ebx,%eax
    364a:	75 f4                	jne    3640 <hound_add_device+0x60>
    364c:	eb 09                	jmp    3657 <hound_add_device+0x77>
    364e:	66 90                	xchg   %ax,%ax
    3650:	8b 7f 04             	mov    0x4(%edi),%edi
    3653:	39 df                	cmp    %ebx,%edi
    3655:	74 68                	je     36bf <hound_add_device+0xdf>
    3657:	50                   	push   %eax
    3658:	50                   	push   %eax
    3659:	8b 47 10             	mov    0x10(%edi),%eax
    365c:	50                   	push   %eax
    365d:	8b 45 10             	mov    0x10(%ebp),%eax
    3660:	50                   	push   %eax
    3661:	e8 fa 81 00 00       	call   b860 <str_cmp@plt>
    3666:	83 c4 10             	add    $0x10,%esp
    3669:	85 c0                	test   %eax,%eax
    366b:	75 e3                	jne    3650 <hound_add_device+0x70>
    366d:	8b 55 10             	mov    0x10(%ebp),%edx
    3670:	52                   	push   %edx
    3671:	68 60 99 00 00       	push   $0x9960
    3676:	6a 04                	push   $0x4
    3678:	6a ff                	push   $0xffffffff
    367a:	e8 f1 80 00 00       	call   b770 <log_msg@plt>
    367f:	8b 4d 10             	mov    0x10(%ebp),%ecx
    3682:	51                   	push   %ecx
    3683:	68 88 99 00 00       	push   $0x9988
    3688:	6a 04                	push   $0x4
    368a:	6a ff                	push   $0xffffffff
    368c:	e8 df 80 00 00       	call   b770 <log_msg@plt>
    3691:	83 c4 20             	add    $0x20,%esp
    3694:	b8 f7 ff ff ff       	mov    $0xfffffff7,%eax
    3699:	eb 1c                	jmp    36b7 <hound_add_device+0xd7>
    369b:	90                   	nop
    369c:	8d 74 26 00          	lea    0x0(%esi,%eiz,1),%esi
    36a0:	56                   	push   %esi
    36a1:	68 38 99 00 00       	push   $0x9938
    36a6:	6a 04                	push   $0x4
    36a8:	6a ff                	push   $0xffffffff
    36aa:	e8 c1 80 00 00       	call   b770 <log_msg@plt>
    36af:	83 c4 10             	add    $0x10,%esp
    36b2:	b8 f7 ff ff ff       	mov    $0xfffffff7,%eax
    36b7:	8d 65 f4             	lea    -0xc(%ebp),%esp
    36ba:	5b                   	pop    %ebx
    36bb:	5e                   	pop    %esi
    36bc:	5f                   	pop    %edi
    36bd:	5d                   	pop    %ebp
    36be:	c3                   	ret    
    36bf:	83 ec 0c             	sub    $0xc,%esp
    36c2:	68 80 00 00 00       	push   $0x80
    36c7:	e8 14 80 00 00       	call   b6e0 <malloc@plt>
    36cc:	83 c4 10             	add    $0x10,%esp
    36cf:	89 c1                	mov    %eax,%ecx
    36d1:	85 c0                	test   %eax,%eax
    36d3:	0f 84 c7 01 00 00    	je     38a0 <hound_add_device+0x2c0>
    36d9:	50                   	push   %eax
    36da:	8b 45 10             	mov    0x10(%ebp),%eax
    36dd:	50                   	push   %eax
    36de:	89 4d e4             	mov    %ecx,-0x1c(%ebp)
    36e1:	56                   	push   %esi
    36e2:	51                   	push   %ecx
    36e3:	e8 28 ed ff ff       	call   2410 <audio_device_init>
    36e8:	83 c4 10             	add    $0x10,%esp
    36eb:	89 c6                	mov    %eax,%esi
    36ed:	85 c0                	test   %eax,%eax
    36ef:	8b 4d e4             	mov    -0x1c(%ebp),%ecx
    36f2:	0f 85 ca 00 00 00    	jne    37c2 <hound_add_device+0x1e2>
    36f8:	8b 45 08             	mov    0x8(%ebp),%eax
    36fb:	89 59 04             	mov    %ebx,0x4(%ecx)
    36fe:	89 4d e4             	mov    %ecx,-0x1c(%ebp)
    3701:	8b 40 10             	mov    0x10(%eax),%eax
    3704:	89 01                	mov    %eax,(%ecx)
    3706:	89 48 04             	mov    %ecx,0x4(%eax)
    3709:	8b 45 08             	mov    0x8(%ebp),%eax
    370c:	89 48 10             	mov    %ecx,0x10(%eax)
    370f:	8b 41 10             	mov    0x10(%ecx),%eax
    3712:	50                   	push   %eax
    3713:	68 3e 97 00 00       	push   $0x973e
    3718:	6a 03                	push   $0x3
    371a:	6a ff                	push   $0xffffffff
    371c:	e8 4f 80 00 00       	call   b770 <log_msg@plt>
    3721:	8b 4d e4             	mov    -0x1c(%ebp),%ecx
    3724:	89 0c 24             	mov    %ecx,(%esp)
    3727:	e8 e4 ed ff ff       	call   2510 <audio_device_get_source>
    372c:	83 c4 10             	add    $0x10,%esp
    372f:	89 c6                	mov    %eax,%esi
    3731:	85 c0                	test   %eax,%eax
    3733:	8b 4d e4             	mov    -0x1c(%ebp),%ecx
    3736:	0f 84 2c 01 00 00    	je     3868 <hound_add_device+0x288>
    373c:	50                   	push   %eax
    373d:	50                   	push   %eax
    373e:	8b 45 08             	mov    0x8(%ebp),%eax
    3741:	56                   	push   %esi
    3742:	50                   	push   %eax
    3743:	e8 f8 fa ff ff       	call   3240 <hound_add_source>
    3748:	83 c4 10             	add    $0x10,%esp
    374b:	89 c3                	mov    %eax,%ebx
    374d:	85 c0                	test   %eax,%eax
    374f:	8b 4d e4             	mov    -0x1c(%ebp),%ecx
    3752:	0f 85 b4 00 00 00    	jne    380c <hound_add_device+0x22c>
    3758:	8b 7e 10             	mov    0x10(%esi),%edi
    375b:	89 4d e4             	mov    %ecx,-0x1c(%ebp)
    375e:	57                   	push   %edi
    375f:	68 55 97 00 00       	push   $0x9755
    3764:	6a 05                	push   $0x5
    3766:	6a ff                	push   $0xffffffff
    3768:	e8 03 80 00 00       	call   b770 <log_msg@plt>
    376d:	8b 4d e4             	mov    -0x1c(%ebp),%ecx
    3770:	89 0c 24             	mov    %ecx,(%esp)
    3773:	e8 e8 ed ff ff       	call   2560 <audio_device_get_sink>
    3778:	89 c3                	mov    %eax,%ebx
    377a:	83 c4 10             	add    $0x10,%esp
    377d:	31 c0                	xor    %eax,%eax
    377f:	8b 4d e4             	mov    -0x1c(%ebp),%ecx
    3782:	85 db                	test   %ebx,%ebx
    3784:	0f 84 2d ff ff ff    	je     36b7 <hound_add_device+0xd7>
    378a:	8b 75 08             	mov    0x8(%ebp),%esi
    378d:	89 4d e4             	mov    %ecx,-0x1c(%ebp)
    3790:	51                   	push   %ecx
    3791:	51                   	push   %ecx
    3792:	53                   	push   %ebx
    3793:	56                   	push   %esi
    3794:	e8 f7 fb ff ff       	call   3390 <hound_add_sink>
    3799:	83 c4 10             	add    $0x10,%esp
    379c:	89 c6                	mov    %eax,%esi
    379e:	85 c0                	test   %eax,%eax
    37a0:	0f 85 94 00 00 00    	jne    383a <hound_add_device+0x25a>
    37a6:	8b 53 10             	mov    0x10(%ebx),%edx
    37a9:	52                   	push   %edx
    37aa:	68 87 97 00 00       	push   $0x9787
    37af:	6a 05                	push   $0x5
    37b1:	6a ff                	push   $0xffffffff
    37b3:	e8 b8 7f 00 00       	call   b770 <log_msg@plt>
    37b8:	83 c4 10             	add    $0x10,%esp
    37bb:	31 c0                	xor    %eax,%eax
    37bd:	e9 f5 fe ff ff       	jmp    36b7 <hound_add_device+0xd7>
    37c2:	83 ec 0c             	sub    $0xc,%esp
    37c5:	50                   	push   %eax
    37c6:	e8 65 81 00 00       	call   b930 <str_error@plt>
    37cb:	50                   	push   %eax
    37cc:	68 d4 99 00 00       	push   $0x99d4
    37d1:	6a 04                	push   $0x4
    37d3:	6a ff                	push   $0xffffffff
    37d5:	e8 96 7f 00 00       	call   b770 <log_msg@plt>
    37da:	83 c4 14             	add    $0x14,%esp
    37dd:	8b 4d e4             	mov    -0x1c(%ebp),%ecx
    37e0:	51                   	push   %ecx
    37e1:	e8 ea 81 00 00       	call   b9d0 <free@plt>
    37e6:	83 c4 10             	add    $0x10,%esp
    37e9:	89 f0                	mov    %esi,%eax
    37eb:	e9 c7 fe ff ff       	jmp    36b7 <hound_add_device+0xd7>
    37f0:	50                   	push   %eax
    37f1:	68 3b 95 00 00       	push   $0x953b
    37f6:	6a 04                	push   $0x4
    37f8:	6a ff                	push   $0xffffffff
    37fa:	e8 71 7f 00 00       	call   b770 <log_msg@plt>
    37ff:	83 c4 10             	add    $0x10,%esp
    3802:	b8 f2 ff ff ff       	mov    $0xfffffff2,%eax
    3807:	e9 ab fe ff ff       	jmp    36b7 <hound_add_device+0xd7>
    380c:	83 ec 0c             	sub    $0xc,%esp
    380f:	50                   	push   %eax
    3810:	e8 1b 81 00 00       	call   b930 <str_error@plt>
    3815:	50                   	push   %eax
    3816:	68 00 9a 00 00       	push   $0x9a00
    381b:	6a 04                	push   $0x4
    381d:	6a ff                	push   $0xffffffff
    381f:	e8 4c 7f 00 00       	call   b770 <log_msg@plt>
    3824:	83 c4 14             	add    $0x14,%esp
    3827:	8b 4d e4             	mov    -0x1c(%ebp),%ecx
    382a:	51                   	push   %ecx
    382b:	e8 d0 ec ff ff       	call   2500 <audio_device_fini>
    3830:	83 c4 10             	add    $0x10,%esp
    3833:	89 d8                	mov    %ebx,%eax
    3835:	e9 7d fe ff ff       	jmp    36b7 <hound_add_device+0xd7>
    383a:	83 ec 0c             	sub    $0xc,%esp
    383d:	50                   	push   %eax
    383e:	e8 ed 80 00 00       	call   b930 <str_error@plt>
    3843:	50                   	push   %eax
    3844:	68 69 97 00 00       	push   $0x9769
    3849:	6a 04                	push   $0x4
    384b:	6a ff                	push   $0xffffffff
    384d:	e8 1e 7f 00 00       	call   b770 <log_msg@plt>
    3852:	83 c4 14             	add    $0x14,%esp
    3855:	8b 4d e4             	mov    -0x1c(%ebp),%ecx
    3858:	51                   	push   %ecx
    3859:	e8 a2 ec ff ff       	call   2500 <audio_device_fini>
    385e:	83 c4 10             	add    $0x10,%esp
    3861:	89 f0                	mov    %esi,%eax
    3863:	e9 4f fe ff ff       	jmp    36b7 <hound_add_device+0xd7>
    3868:	83 ec 0c             	sub    $0xc,%esp
    386b:	89 4d e4             	mov    %ecx,-0x1c(%ebp)
    386e:	51                   	push   %ecx
    386f:	e8 ec ec ff ff       	call   2560 <audio_device_get_sink>
    3874:	83 c4 10             	add    $0x10,%esp
    3877:	89 c3                	mov    %eax,%ebx
    3879:	85 c0                	test   %eax,%eax
    387b:	8b 4d e4             	mov    -0x1c(%ebp),%ecx
    387e:	0f 85 06 ff ff ff    	jne    378a <hound_add_device+0x1aa>
    3884:	8b 45 10             	mov    0x10(%ebp),%eax
    3887:	50                   	push   %eax
    3888:	68 20 9a 00 00       	push   $0x9a20
    388d:	6a 02                	push   $0x2
    388f:	6a ff                	push   $0xffffffff
    3891:	e8 da 7e 00 00       	call   b770 <log_msg@plt>
    3896:	83 c4 10             	add    $0x10,%esp
    3899:	31 c0                	xor    %eax,%eax
    389b:	e9 17 fe ff ff       	jmp    36b7 <hound_add_device+0xd7>
    38a0:	50                   	push   %eax
    38a1:	68 b0 99 00 00       	push   $0x99b0
    38a6:	6a 04                	push   $0x4
    38a8:	6a ff                	push   $0xffffffff
    38aa:	e8 c1 7e 00 00       	call   b770 <log_msg@plt>
    38af:	83 c4 10             	add    $0x10,%esp
    38b2:	b8 fe ff ff ff       	mov    $0xfffffffe,%eax
    38b7:	e9 fb fd ff ff       	jmp    36b7 <hound_add_device+0xd7>
    38bc:	50                   	push   %eax
    38bd:	68 04 01 00 00       	push   $0x104
    38c2:	68 cc 96 00 00       	push   $0x96cc
    38c7:	68 f4 b1 00 00       	push   $0xb1f4
    38cc:	e8 df 7e 00 00       	call   b7b0 <assert_abort@plt>
    38d1:	eb 0d                	jmp    38e0 <hound_remove_source>
    38d3:	90                   	nop
    38d4:	90                   	nop
    38d5:	90                   	nop
    38d6:	90                   	nop
    38d7:	90                   	nop
    38d8:	90                   	nop
    38d9:	90                   	nop
    38da:	90                   	nop
    38db:	90                   	nop
    38dc:	90                   	nop
    38dd:	90                   	nop
    38de:	90                   	nop
    38df:	90                   	nop

000038e0 <hound_remove_source>:
    38e0:	55                   	push   %ebp
    38e1:	89 e5                	mov    %esp,%ebp
    38e3:	57                   	push   %edi
    38e4:	56                   	push   %esi
    38e5:	53                   	push   %ebx
    38e6:	83 ec 0c             	sub    $0xc,%esp
    38e9:	8b 7d 08             	mov    0x8(%ebp),%edi
    38ec:	8b 5d 0c             	mov    0xc(%ebp),%ebx
    38ef:	85 ff                	test   %edi,%edi
    38f1:	0f 84 c6 00 00 00    	je     39bd <hound_remove_source+0xdd>
    38f7:	85 db                	test   %ebx,%ebx
    38f9:	0f 84 b7 00 00 00    	je     39b6 <hound_remove_source+0xd6>
    38ff:	83 ec 0c             	sub    $0xc,%esp
    3902:	8d 73 08             	lea    0x8(%ebx),%esi
    3905:	57                   	push   %edi
    3906:	e8 d5 80 00 00       	call   b9e0 <fibril_mutex_lock@plt>
    390b:	8b 53 10             	mov    0x10(%ebx),%edx
    390e:	52                   	push   %edx
    390f:	68 e8 96 00 00       	push   $0x96e8
    3914:	6a 05                	push   $0x5
    3916:	6a ff                	push   $0xffffffff
    3918:	e8 53 7e 00 00       	call   b770 <log_msg@plt>
    391d:	83 c4 20             	add    $0x20,%esp
    3920:	39 73 0c             	cmp    %esi,0xc(%ebx)
    3923:	74 5a                	je     397f <hound_remove_source+0x9f>
    3925:	8b 43 10             	mov    0x10(%ebx),%eax
    3928:	50                   	push   %eax
    3929:	68 54 98 00 00       	push   $0x9854
    392e:	6a 02                	push   $0x2
    3930:	6a ff                	push   $0xffffffff
    3932:	e8 39 7e 00 00       	call   b770 <log_msg@plt>
    3937:	8b 43 0c             	mov    0xc(%ebx),%eax
    393a:	83 c4 10             	add    $0x10,%esp
    393d:	39 c6                	cmp    %eax,%esi
    393f:	74 3e                	je     397f <hound_remove_source+0x9f>
    3941:	8d b4 26 00 00 00 00 	lea    0x0(%esi,%eiz,1),%esi
    3948:	8b 48 10             	mov    0x10(%eax),%ecx
    394b:	85 c9                	test   %ecx,%ecx
    394d:	74 0f                	je     395e <hound_remove_source+0x7e>
    394f:	8b 50 14             	mov    0x14(%eax),%edx
    3952:	85 d2                	test   %edx,%edx
    3954:	74 08                	je     395e <hound_remove_source+0x7e>
    3956:	89 0a                	mov    %ecx,(%edx)
    3958:	8b 48 10             	mov    0x10(%eax),%ecx
    395b:	89 51 04             	mov    %edx,0x4(%ecx)
    395e:	83 ec 0c             	sub    $0xc,%esp
    3961:	c7 40 10 00 00 00 00 	movl   $0x0,0x10(%eax)
    3968:	c7 40 14 00 00 00 00 	movl   $0x0,0x14(%eax)
    396f:	50                   	push   %eax
    3970:	e8 2b f3 ff ff       	call   2ca0 <connection_destroy>
    3975:	8b 43 0c             	mov    0xc(%ebx),%eax
    3978:	83 c4 10             	add    $0x10,%esp
    397b:	39 c6                	cmp    %eax,%esi
    397d:	75 c9                	jne    3948 <hound_remove_source+0x68>
    397f:	8b 13                	mov    (%ebx),%edx
    3981:	85 d2                	test   %edx,%edx
    3983:	74 0e                	je     3993 <hound_remove_source+0xb3>
    3985:	8b 43 04             	mov    0x4(%ebx),%eax
    3988:	85 c0                	test   %eax,%eax
    398a:	74 07                	je     3993 <hound_remove_source+0xb3>
    398c:	89 10                	mov    %edx,(%eax)
    398e:	8b 13                	mov    (%ebx),%edx
    3990:	89 42 04             	mov    %eax,0x4(%edx)
    3993:	83 ec 0c             	sub    $0xc,%esp
    3996:	c7 03 00 00 00 00    	movl   $0x0,(%ebx)
    399c:	c7 43 04 00 00 00 00 	movl   $0x0,0x4(%ebx)
    39a3:	57                   	push   %edi
    39a4:	e8 57 7e 00 00       	call   b800 <fibril_mutex_unlock@plt>
    39a9:	83 c4 10             	add    $0x10,%esp
    39ac:	31 c0                	xor    %eax,%eax
    39ae:	8d 65 f4             	lea    -0xc(%ebp),%esp
    39b1:	5b                   	pop    %ebx
    39b2:	5e                   	pop    %esi
    39b3:	5f                   	pop    %edi
    39b4:	5d                   	pop    %ebp
    39b5:	c3                   	ret    
    39b6:	b8 f2 ff ff ff       	mov    $0xfffffff2,%eax
    39bb:	eb f1                	jmp    39ae <hound_remove_source+0xce>
    39bd:	51                   	push   %ecx
    39be:	68 7e 01 00 00       	push   $0x17e
    39c3:	68 cc 96 00 00       	push   $0x96cc
    39c8:	68 f4 b1 00 00       	push   $0xb1f4
    39cd:	e8 de 7d 00 00       	call   b7b0 <assert_abort@plt>
    39d2:	8d b4 26 00 00 00 00 	lea    0x0(%esi,%eiz,1),%esi
    39d9:	8d bc 27 00 00 00 00 	lea    0x0(%edi,%eiz,1),%edi

000039e0 <hound_remove_sink>:
    39e0:	55                   	push   %ebp
    39e1:	89 e5                	mov    %esp,%ebp
    39e3:	56                   	push   %esi
    39e4:	53                   	push   %ebx
    39e5:	8b 5d 08             	mov    0x8(%ebp),%ebx
    39e8:	8b 75 0c             	mov    0xc(%ebp),%esi
    39eb:	85 db                	test   %ebx,%ebx
    39ed:	74 38                	je     3a27 <hound_remove_sink+0x47>
    39ef:	85 f6                	test   %esi,%esi
    39f1:	74 2d                	je     3a20 <hound_remove_sink+0x40>
    39f3:	83 ec 0c             	sub    $0xc,%esp
    39f6:	53                   	push   %ebx
    39f7:	e8 e4 7f 00 00       	call   b9e0 <fibril_mutex_lock@plt>
    39fc:	89 d8                	mov    %ebx,%eax
    39fe:	89 f2                	mov    %esi,%edx
    3a00:	e8 fb f4 ff ff       	call   2f00 <hound_remove_sink_internal>
    3a05:	89 1c 24             	mov    %ebx,(%esp)
    3a08:	e8 f3 7d 00 00       	call   b800 <fibril_mutex_unlock@plt>
    3a0d:	83 c4 10             	add    $0x10,%esp
    3a10:	31 c0                	xor    %eax,%eax
    3a12:	8d 65 f8             	lea    -0x8(%ebp),%esp
    3a15:	5b                   	pop    %ebx
    3a16:	5e                   	pop    %esi
    3a17:	5d                   	pop    %ebp
    3a18:	c3                   	ret    
    3a19:	8d b4 26 00 00 00 00 	lea    0x0(%esi,%eiz,1),%esi
    3a20:	b8 f2 ff ff ff       	mov    $0xfffffff2,%eax
    3a25:	eb eb                	jmp    3a12 <hound_remove_sink+0x32>
    3a27:	50                   	push   %eax
    3a28:	68 8f 01 00 00       	push   $0x18f
    3a2d:	68 cc 96 00 00       	push   $0x96cc
    3a32:	68 f4 b1 00 00       	push   $0xb1f4
    3a37:	e8 74 7d 00 00       	call   b7b0 <assert_abort@plt>
    3a3c:	8d 74 26 00          	lea    0x0(%esi,%eiz,1),%esi

00003a40 <hound_list_sources>:
    3a40:	55                   	push   %ebp
    3a41:	89 e5                	mov    %esp,%ebp
    3a43:	57                   	push   %edi
    3a44:	56                   	push   %esi
    3a45:	53                   	push   %ebx
    3a46:	83 ec 1c             	sub    $0x1c,%esp
    3a49:	8b 45 08             	mov    0x8(%ebp),%eax
    3a4c:	85 c0                	test   %eax,%eax
    3a4e:	0f 84 47 01 00 00    	je     3b9b <hound_list_sources+0x15b>
    3a54:	8b 45 0c             	mov    0xc(%ebp),%eax
    3a57:	85 c0                	test   %eax,%eax
    3a59:	0f 84 2f 01 00 00    	je     3b8e <hound_list_sources+0x14e>
    3a5f:	8b 45 10             	mov    0x10(%ebp),%eax
    3a62:	85 c0                	test   %eax,%eax
    3a64:	0f 84 24 01 00 00    	je     3b8e <hound_list_sources+0x14e>
    3a6a:	83 ec 0c             	sub    $0xc,%esp
    3a6d:	8b 45 08             	mov    0x8(%ebp),%eax
    3a70:	50                   	push   %eax
    3a71:	e8 6a 7f 00 00       	call   b9e0 <fibril_mutex_lock@plt>
    3a76:	8b 45 08             	mov    0x8(%ebp),%eax
    3a79:	8d 58 20             	lea    0x20(%eax),%ebx
    3a7c:	89 1c 24             	mov    %ebx,(%esp)
    3a7f:	e8 7c 7e 00 00       	call   b900 <list_count@plt>
    3a84:	83 c4 10             	add    $0x10,%esp
    3a87:	89 45 e4             	mov    %eax,-0x1c(%ebp)
    3a8a:	85 c0                	test   %eax,%eax
    3a8c:	0f 84 d1 00 00 00    	je     3b63 <hound_list_sources+0x123>
    3a92:	8b 7d e4             	mov    -0x1c(%ebp),%edi
    3a95:	56                   	push   %esi
    3a96:	56                   	push   %esi
    3a97:	6a 04                	push   $0x4
    3a99:	57                   	push   %edi
    3a9a:	e8 21 7d 00 00       	call   b7c0 <calloc@plt>
    3a9f:	83 c4 10             	add    $0x10,%esp
    3aa2:	89 c6                	mov    %eax,%esi
    3aa4:	85 c0                	test   %eax,%eax
    3aa6:	74 4e                	je     3af6 <hound_list_sources+0xb6>
    3aa8:	31 ff                	xor    %edi,%edi
    3aaa:	8b 45 08             	mov    0x8(%ebp),%eax
    3aad:	8b 40 24             	mov    0x24(%eax),%eax
    3ab0:	39 c3                	cmp    %eax,%ebx
    3ab2:	74 24                	je     3ad8 <hound_list_sources+0x98>
    3ab4:	85 c0                	test   %eax,%eax
    3ab6:	74 20                	je     3ad8 <hound_list_sources+0x98>
    3ab8:	85 ff                	test   %edi,%edi
    3aba:	74 24                	je     3ae0 <hound_list_sources+0xa0>
    3abc:	8b 40 04             	mov    0x4(%eax),%eax
    3abf:	39 c3                	cmp    %eax,%ebx
    3ac1:	74 15                	je     3ad8 <hound_list_sources+0x98>
    3ac3:	ba 01 00 00 00       	mov    $0x1,%edx
    3ac8:	85 c0                	test   %eax,%eax
    3aca:	74 0c                	je     3ad8 <hound_list_sources+0x98>
    3acc:	39 fa                	cmp    %edi,%edx
    3ace:	74 10                	je     3ae0 <hound_list_sources+0xa0>
    3ad0:	8b 40 04             	mov    0x4(%eax),%eax
    3ad3:	42                   	inc    %edx
    3ad4:	39 c3                	cmp    %eax,%ebx
    3ad6:	75 f0                	jne    3ac8 <hound_list_sources+0x88>
    3ad8:	a1 10 00 00 00       	mov    0x10,%eax
    3add:	0f 0b                	ud2    
    3adf:	90                   	nop
    3ae0:	83 ec 0c             	sub    $0xc,%esp
    3ae3:	8b 48 10             	mov    0x10(%eax),%ecx
    3ae6:	51                   	push   %ecx
    3ae7:	e8 34 7d 00 00       	call   b820 <str_dup@plt>
    3aec:	83 c4 10             	add    $0x10,%esp
    3aef:	89 04 be             	mov    %eax,(%esi,%edi,4)
    3af2:	85 c0                	test   %eax,%eax
    3af4:	74 52                	je     3b48 <hound_list_sources+0x108>
    3af6:	31 ff                	xor    %edi,%edi
    3af8:	8b 5d e4             	mov    -0x1c(%ebp),%ebx
    3afb:	90                   	nop
    3afc:	8d 74 26 00          	lea    0x0(%esi,%eiz,1),%esi
    3b00:	83 ec 0c             	sub    $0xc,%esp
    3b03:	8b 14 be             	mov    (%esi,%edi,4),%edx
    3b06:	47                   	inc    %edi
    3b07:	52                   	push   %edx
    3b08:	e8 c3 7e 00 00       	call   b9d0 <free@plt>
    3b0d:	83 c4 10             	add    $0x10,%esp
    3b10:	39 fb                	cmp    %edi,%ebx
    3b12:	75 ec                	jne    3b00 <hound_list_sources+0xc0>
    3b14:	83 ec 0c             	sub    $0xc,%esp
    3b17:	56                   	push   %esi
    3b18:	e8 b3 7e 00 00       	call   b9d0 <free@plt>
    3b1d:	83 c4 10             	add    $0x10,%esp
    3b20:	b8 fe ff ff ff       	mov    $0xfffffffe,%eax
    3b25:	83 ec 0c             	sub    $0xc,%esp
    3b28:	89 45 e4             	mov    %eax,-0x1c(%ebp)
    3b2b:	8b 45 08             	mov    0x8(%ebp),%eax
    3b2e:	50                   	push   %eax
    3b2f:	e8 cc 7c 00 00       	call   b800 <fibril_mutex_unlock@plt>
    3b34:	8b 45 e4             	mov    -0x1c(%ebp),%eax
    3b37:	83 c4 10             	add    $0x10,%esp
    3b3a:	8d 65 f4             	lea    -0xc(%ebp),%esp
    3b3d:	5b                   	pop    %ebx
    3b3e:	5e                   	pop    %esi
    3b3f:	5f                   	pop    %edi
    3b40:	5d                   	pop    %ebp
    3b41:	c3                   	ret    
    3b42:	8d b6 00 00 00 00    	lea    0x0(%esi),%esi
    3b48:	47                   	inc    %edi
    3b49:	39 7d e4             	cmp    %edi,-0x1c(%ebp)
    3b4c:	0f 85 58 ff ff ff    	jne    3aaa <hound_list_sources+0x6a>
    3b52:	8b 45 10             	mov    0x10(%ebp),%eax
    3b55:	8b 4d e4             	mov    -0x1c(%ebp),%ecx
    3b58:	89 08                	mov    %ecx,(%eax)
    3b5a:	8b 45 0c             	mov    0xc(%ebp),%eax
    3b5d:	89 30                	mov    %esi,(%eax)
    3b5f:	31 c0                	xor    %eax,%eax
    3b61:	eb c2                	jmp    3b25 <hound_list_sources+0xe5>
    3b63:	8b 45 0c             	mov    0xc(%ebp),%eax
    3b66:	83 ec 0c             	sub    $0xc,%esp
    3b69:	c7 00 00 00 00 00    	movl   $0x0,(%eax)
    3b6f:	8b 45 10             	mov    0x10(%ebp),%eax
    3b72:	c7 00 00 00 00 00    	movl   $0x0,(%eax)
    3b78:	8b 45 08             	mov    0x8(%ebp),%eax
    3b7b:	50                   	push   %eax
    3b7c:	e8 7f 7c 00 00       	call   b800 <fibril_mutex_unlock@plt>
    3b81:	83 c4 10             	add    $0x10,%esp
    3b84:	8d 65 f4             	lea    -0xc(%ebp),%esp
    3b87:	31 c0                	xor    %eax,%eax
    3b89:	5b                   	pop    %ebx
    3b8a:	5e                   	pop    %esi
    3b8b:	5f                   	pop    %edi
    3b8c:	5d                   	pop    %ebp
    3b8d:	c3                   	ret    
    3b8e:	8d 65 f4             	lea    -0xc(%ebp),%esp
    3b91:	b8 f2 ff ff ff       	mov    $0xfffffff2,%eax
    3b96:	5b                   	pop    %ebx
    3b97:	5e                   	pop    %esi
    3b98:	5f                   	pop    %edi
    3b99:	5d                   	pop    %ebp
    3b9a:	c3                   	ret    
    3b9b:	50                   	push   %eax
    3b9c:	68 a1 01 00 00       	push   $0x1a1
    3ba1:	68 cc 96 00 00       	push   $0x96cc
    3ba6:	68 f4 b1 00 00       	push   $0xb1f4
    3bab:	e8 00 7c 00 00       	call   b7b0 <assert_abort@plt>

00003bb0 <hound_list_sinks>:
    3bb0:	55                   	push   %ebp
    3bb1:	89 e5                	mov    %esp,%ebp
    3bb3:	57                   	push   %edi
    3bb4:	56                   	push   %esi
    3bb5:	53                   	push   %ebx
    3bb6:	83 ec 1c             	sub    $0x1c,%esp
    3bb9:	8b 45 08             	mov    0x8(%ebp),%eax
    3bbc:	85 c0                	test   %eax,%eax
    3bbe:	0f 84 4d 01 00 00    	je     3d11 <hound_list_sinks+0x161>
    3bc4:	8b 45 0c             	mov    0xc(%ebp),%eax
    3bc7:	85 c0                	test   %eax,%eax
    3bc9:	0f 84 35 01 00 00    	je     3d04 <hound_list_sinks+0x154>
    3bcf:	8b 45 10             	mov    0x10(%ebp),%eax
    3bd2:	85 c0                	test   %eax,%eax
    3bd4:	0f 84 2a 01 00 00    	je     3d04 <hound_list_sinks+0x154>
    3bda:	83 ec 0c             	sub    $0xc,%esp
    3bdd:	8b 45 08             	mov    0x8(%ebp),%eax
    3be0:	50                   	push   %eax
    3be1:	e8 fa 7d 00 00       	call   b9e0 <fibril_mutex_lock@plt>
    3be6:	8b 45 08             	mov    0x8(%ebp),%eax
    3be9:	8d 58 28             	lea    0x28(%eax),%ebx
    3bec:	89 1c 24             	mov    %ebx,(%esp)
    3bef:	e8 0c 7d 00 00       	call   b900 <list_count@plt>
    3bf4:	83 c4 10             	add    $0x10,%esp
    3bf7:	89 45 e4             	mov    %eax,-0x1c(%ebp)
    3bfa:	85 c0                	test   %eax,%eax
    3bfc:	0f 84 d7 00 00 00    	je     3cd9 <hound_list_sinks+0x129>
    3c02:	8b 7d e4             	mov    -0x1c(%ebp),%edi
    3c05:	56                   	push   %esi
    3c06:	56                   	push   %esi
    3c07:	6a 04                	push   $0x4
    3c09:	57                   	push   %edi
    3c0a:	e8 b1 7b 00 00       	call   b7c0 <calloc@plt>
    3c0f:	83 c4 10             	add    $0x10,%esp
    3c12:	89 c6                	mov    %eax,%esi
    3c14:	85 c0                	test   %eax,%eax
    3c16:	74 40                	je     3c58 <hound_list_sinks+0xa8>
    3c18:	31 ff                	xor    %edi,%edi
    3c1a:	8d b6 00 00 00 00    	lea    0x0(%esi),%esi
    3c20:	8b 45 08             	mov    0x8(%ebp),%eax
    3c23:	8b 40 2c             	mov    0x2c(%eax),%eax
    3c26:	39 c3                	cmp    %eax,%ebx
    3c28:	74 26                	je     3c50 <hound_list_sinks+0xa0>
    3c2a:	85 c0                	test   %eax,%eax
    3c2c:	74 22                	je     3c50 <hound_list_sinks+0xa0>
    3c2e:	85 ff                	test   %edi,%edi
    3c30:	74 76                	je     3ca8 <hound_list_sinks+0xf8>
    3c32:	8b 40 04             	mov    0x4(%eax),%eax
    3c35:	39 c3                	cmp    %eax,%ebx
    3c37:	74 17                	je     3c50 <hound_list_sinks+0xa0>
    3c39:	b9 01 00 00 00       	mov    $0x1,%ecx
    3c3e:	66 90                	xchg   %ax,%ax
    3c40:	85 c0                	test   %eax,%eax
    3c42:	74 0c                	je     3c50 <hound_list_sinks+0xa0>
    3c44:	39 f9                	cmp    %edi,%ecx
    3c46:	74 60                	je     3ca8 <hound_list_sinks+0xf8>
    3c48:	8b 40 04             	mov    0x4(%eax),%eax
    3c4b:	41                   	inc    %ecx
    3c4c:	39 c3                	cmp    %eax,%ebx
    3c4e:	75 f0                	jne    3c40 <hound_list_sinks+0x90>
    3c50:	a1 10 00 00 00       	mov    0x10,%eax
    3c55:	0f 0b                	ud2    
    3c57:	90                   	nop
    3c58:	31 ff                	xor    %edi,%edi
    3c5a:	8b 5d e4             	mov    -0x1c(%ebp),%ebx
    3c5d:	8d 76 00             	lea    0x0(%esi),%esi
    3c60:	83 ec 0c             	sub    $0xc,%esp
    3c63:	8b 14 be             	mov    (%esi,%edi,4),%edx
    3c66:	47                   	inc    %edi
    3c67:	52                   	push   %edx
    3c68:	e8 63 7d 00 00       	call   b9d0 <free@plt>
    3c6d:	83 c4 10             	add    $0x10,%esp
    3c70:	39 fb                	cmp    %edi,%ebx
    3c72:	75 ec                	jne    3c60 <hound_list_sinks+0xb0>
    3c74:	83 ec 0c             	sub    $0xc,%esp
    3c77:	56                   	push   %esi
    3c78:	e8 53 7d 00 00       	call   b9d0 <free@plt>
    3c7d:	83 c4 10             	add    $0x10,%esp
    3c80:	b8 fe ff ff ff       	mov    $0xfffffffe,%eax
    3c85:	83 ec 0c             	sub    $0xc,%esp
    3c88:	89 45 e4             	mov    %eax,-0x1c(%ebp)
    3c8b:	8b 45 08             	mov    0x8(%ebp),%eax
    3c8e:	50                   	push   %eax
    3c8f:	e8 6c 7b 00 00       	call   b800 <fibril_mutex_unlock@plt>
    3c94:	8b 45 e4             	mov    -0x1c(%ebp),%eax
    3c97:	83 c4 10             	add    $0x10,%esp
    3c9a:	8d 65 f4             	lea    -0xc(%ebp),%esp
    3c9d:	5b                   	pop    %ebx
    3c9e:	5e                   	pop    %esi
    3c9f:	5f                   	pop    %edi
    3ca0:	5d                   	pop    %ebp
    3ca1:	c3                   	ret    
    3ca2:	8d b6 00 00 00 00    	lea    0x0(%esi),%esi
    3ca8:	83 ec 0c             	sub    $0xc,%esp
    3cab:	8b 48 10             	mov    0x10(%eax),%ecx
    3cae:	51                   	push   %ecx
    3caf:	e8 6c 7b 00 00       	call   b820 <str_dup@plt>
    3cb4:	83 c4 10             	add    $0x10,%esp
    3cb7:	89 04 be             	mov    %eax,(%esi,%edi,4)
    3cba:	85 c0                	test   %eax,%eax
    3cbc:	74 9a                	je     3c58 <hound_list_sinks+0xa8>
    3cbe:	47                   	inc    %edi
    3cbf:	39 7d e4             	cmp    %edi,-0x1c(%ebp)
    3cc2:	0f 85 58 ff ff ff    	jne    3c20 <hound_list_sinks+0x70>
    3cc8:	8b 45 10             	mov    0x10(%ebp),%eax
    3ccb:	8b 55 e4             	mov    -0x1c(%ebp),%edx
    3cce:	89 10                	mov    %edx,(%eax)
    3cd0:	8b 45 0c             	mov    0xc(%ebp),%eax
    3cd3:	89 30                	mov    %esi,(%eax)
    3cd5:	31 c0                	xor    %eax,%eax
    3cd7:	eb ac                	jmp    3c85 <hound_list_sinks+0xd5>
    3cd9:	8b 45 0c             	mov    0xc(%ebp),%eax
    3cdc:	83 ec 0c             	sub    $0xc,%esp
    3cdf:	c7 00 00 00 00 00    	movl   $0x0,(%eax)
    3ce5:	8b 45 10             	mov    0x10(%ebp),%eax
    3ce8:	c7 00 00 00 00 00    	movl   $0x0,(%eax)
    3cee:	8b 45 08             	mov    0x8(%ebp),%eax
    3cf1:	50                   	push   %eax
    3cf2:	e8 09 7b 00 00       	call   b800 <fibril_mutex_unlock@plt>
    3cf7:	83 c4 10             	add    $0x10,%esp
    3cfa:	8d 65 f4             	lea    -0xc(%ebp),%esp
    3cfd:	31 c0                	xor    %eax,%eax
    3cff:	5b                   	pop    %ebx
    3d00:	5e                   	pop    %esi
    3d01:	5f                   	pop    %edi
    3d02:	5d                   	pop    %ebp
    3d03:	c3                   	ret    
    3d04:	8d 65 f4             	lea    -0xc(%ebp),%esp
    3d07:	b8 f2 ff ff ff       	mov    $0xfffffff2,%eax
    3d0c:	5b                   	pop    %ebx
    3d0d:	5e                   	pop    %esi
    3d0e:	5f                   	pop    %edi
    3d0f:	5d                   	pop    %ebp
    3d10:	c3                   	ret    
    3d11:	50                   	push   %eax
    3d12:	68 cb 01 00 00       	push   $0x1cb
    3d17:	68 cc 96 00 00       	push   $0x96cc
    3d1c:	68 f4 b1 00 00       	push   $0xb1f4
    3d21:	e8 8a 7a 00 00       	call   b7b0 <assert_abort@plt>
    3d26:	8d 76 00             	lea    0x0(%esi),%esi
    3d29:	8d bc 27 00 00 00 00 	lea    0x0(%edi,%eiz,1),%edi

00003d30 <hound_list_connections>:
    3d30:	55                   	push   %ebp
    3d31:	89 e5                	mov    %esp,%ebp
    3d33:	53                   	push   %ebx
    3d34:	83 ec 10             	sub    $0x10,%esp
    3d37:	8b 5d 08             	mov    0x8(%ebp),%ebx
    3d3a:	53                   	push   %ebx
    3d3b:	e8 a0 7c 00 00       	call   b9e0 <fibril_mutex_lock@plt>
    3d40:	89 1c 24             	mov    %ebx,(%esp)
    3d43:	e8 b8 7a 00 00       	call   b800 <fibril_mutex_unlock@plt>
    3d48:	b8 f5 ff ff ff       	mov    $0xfffffff5,%eax
    3d4d:	8b 5d fc             	mov    -0x4(%ebp),%ebx
    3d50:	c9                   	leave  
    3d51:	c3                   	ret    
    3d52:	8d b4 26 00 00 00 00 	lea    0x0(%esi,%eiz,1),%esi
    3d59:	8d bc 27 00 00 00 00 	lea    0x0(%edi,%eiz,1),%edi

00003d60 <hound_connect>:
    3d60:	55                   	push   %ebp
    3d61:	89 e5                	mov    %esp,%ebp
    3d63:	57                   	push   %edi
    3d64:	56                   	push   %esi
    3d65:	53                   	push   %ebx
    3d66:	83 ec 1c             	sub    $0x1c,%esp
    3d69:	8b 5d 08             	mov    0x8(%ebp),%ebx
    3d6c:	8b 75 0c             	mov    0xc(%ebp),%esi
    3d6f:	85 db                	test   %ebx,%ebx
    3d71:	0f 84 04 02 00 00    	je     3f7b <hound_connect+0x21b>
    3d77:	83 ec 0c             	sub    $0xc,%esp
    3d7a:	8b 4d 10             	mov    0x10(%ebp),%ecx
    3d7d:	51                   	push   %ecx
    3d7e:	56                   	push   %esi
    3d7f:	68 99 97 00 00       	push   $0x9799
    3d84:	6a 05                	push   $0x5
    3d86:	6a ff                	push   $0xffffffff
    3d88:	e8 e3 79 00 00       	call   b770 <log_msg@plt>
    3d8d:	83 c4 14             	add    $0x14,%esp
    3d90:	53                   	push   %ebx
    3d91:	e8 4a 7c 00 00       	call   b9e0 <fibril_mutex_lock@plt>
    3d96:	8b 43 24             	mov    0x24(%ebx),%eax
    3d99:	8d 4b 20             	lea    0x20(%ebx),%ecx
    3d9c:	83 c4 10             	add    $0x10,%esp
    3d9f:	89 4d e4             	mov    %ecx,-0x1c(%ebp)
    3da2:	85 c0                	test   %eax,%eax
    3da4:	0f 84 f8 01 00 00    	je     3fa2 <hound_connect+0x242>
    3daa:	39 c1                	cmp    %eax,%ecx
    3dac:	0f 84 f0 01 00 00    	je     3fa2 <hound_connect+0x242>
    3db2:	89 45 e0             	mov    %eax,-0x20(%ebp)
    3db5:	50                   	push   %eax
    3db6:	50                   	push   %eax
    3db7:	68 18 97 00 00       	push   $0x9718
    3dbc:	56                   	push   %esi
    3dbd:	e8 9e 7a 00 00       	call   b860 <str_cmp@plt>
    3dc2:	83 c4 10             	add    $0x10,%esp
    3dc5:	85 c0                	test   %eax,%eax
    3dc7:	0f 85 83 00 00 00    	jne    3e50 <hound_connect+0xf0>
    3dcd:	8b 7b 2c             	mov    0x2c(%ebx),%edi
    3dd0:	8d 73 28             	lea    0x28(%ebx),%esi
    3dd3:	85 ff                	test   %edi,%edi
    3dd5:	0f 84 c6 00 00 00    	je     3ea1 <hound_connect+0x141>
    3ddb:	39 f7                	cmp    %esi,%edi
    3ddd:	0f 84 be 00 00 00    	je     3ea1 <hound_connect+0x141>
    3de3:	8b 45 10             	mov    0x10(%ebp),%eax
    3de6:	51                   	push   %ecx
    3de7:	51                   	push   %ecx
    3de8:	68 18 97 00 00       	push   $0x9718
    3ded:	50                   	push   %eax
    3dee:	e8 6d 7a 00 00       	call   b860 <str_cmp@plt>
    3df3:	83 c4 10             	add    $0x10,%esp
    3df6:	85 c0                	test   %eax,%eax
    3df8:	0f 85 ba 00 00 00    	jne    3eb8 <hound_connect+0x158>
    3dfe:	89 fa                	mov    %edi,%edx
    3e00:	8b 45 e0             	mov    -0x20(%ebp),%eax
    3e03:	85 c0                	test   %eax,%eax
    3e05:	0f 84 07 01 00 00    	je     3f12 <hound_connect+0x1b2>
    3e0b:	50                   	push   %eax
    3e0c:	50                   	push   %eax
    3e0d:	8b 45 e0             	mov    -0x20(%ebp),%eax
    3e10:	52                   	push   %edx
    3e11:	50                   	push   %eax
    3e12:	e8 89 ed ff ff       	call   2ba0 <connection_create>
    3e17:	83 c4 10             	add    $0x10,%esp
    3e1a:	85 c0                	test   %eax,%eax
    3e1c:	0f 84 32 01 00 00    	je     3f54 <hound_connect+0x1f4>
    3e22:	8d 4b 30             	lea    0x30(%ebx),%ecx
    3e25:	8d 50 10             	lea    0x10(%eax),%edx
    3e28:	89 48 14             	mov    %ecx,0x14(%eax)
    3e2b:	8b 4b 30             	mov    0x30(%ebx),%ecx
    3e2e:	89 48 10             	mov    %ecx,0x10(%eax)
    3e31:	83 ec 0c             	sub    $0xc,%esp
    3e34:	8b 43 30             	mov    0x30(%ebx),%eax
    3e37:	89 50 04             	mov    %edx,0x4(%eax)
    3e3a:	89 53 30             	mov    %edx,0x30(%ebx)
    3e3d:	53                   	push   %ebx
    3e3e:	e8 bd 79 00 00       	call   b800 <fibril_mutex_unlock@plt>
    3e43:	83 c4 10             	add    $0x10,%esp
    3e46:	31 c0                	xor    %eax,%eax
    3e48:	8d 65 f4             	lea    -0xc(%ebp),%esp
    3e4b:	5b                   	pop    %ebx
    3e4c:	5e                   	pop    %esi
    3e4d:	5f                   	pop    %edi
    3e4e:	5d                   	pop    %ebp
    3e4f:	c3                   	ret    
    3e50:	85 f6                	test   %esi,%esi
    3e52:	0f 84 56 01 00 00    	je     3fae <hound_connect+0x24e>
    3e58:	8b 7b 24             	mov    0x24(%ebx),%edi
    3e5b:	39 7d e4             	cmp    %edi,-0x1c(%ebp)
    3e5e:	75 14                	jne    3e74 <hound_connect+0x114>
    3e60:	e9 e3 00 00 00       	jmp    3f48 <hound_connect+0x1e8>
    3e65:	8d 76 00             	lea    0x0(%esi),%esi
    3e68:	8b 7f 04             	mov    0x4(%edi),%edi
    3e6b:	39 7d e4             	cmp    %edi,-0x1c(%ebp)
    3e6e:	0f 84 d4 00 00 00    	je     3f48 <hound_connect+0x1e8>
    3e74:	50                   	push   %eax
    3e75:	50                   	push   %eax
    3e76:	8b 47 10             	mov    0x10(%edi),%eax
    3e79:	50                   	push   %eax
    3e7a:	56                   	push   %esi
    3e7b:	e8 e0 79 00 00       	call   b860 <str_cmp@plt>
    3e80:	83 c4 10             	add    $0x10,%esp
    3e83:	85 c0                	test   %eax,%eax
    3e85:	75 e1                	jne    3e68 <hound_connect+0x108>
    3e87:	56                   	push   %esi
    3e88:	68 80 98 00 00       	push   $0x9880
    3e8d:	6a 04                	push   $0x4
    3e8f:	6a ff                	push   $0xffffffff
    3e91:	e8 da 78 00 00       	call   b770 <log_msg@plt>
    3e96:	83 c4 10             	add    $0x10,%esp
    3e99:	89 7d e0             	mov    %edi,-0x20(%ebp)
    3e9c:	e9 2c ff ff ff       	jmp    3dcd <hound_connect+0x6d>
    3ea1:	8b 55 10             	mov    0x10(%ebp),%edx
    3ea4:	50                   	push   %eax
    3ea5:	50                   	push   %eax
    3ea6:	68 18 97 00 00       	push   $0x9718
    3eab:	52                   	push   %edx
    3eac:	e8 af 79 00 00       	call   b860 <str_cmp@plt>
    3eb1:	83 c4 10             	add    $0x10,%esp
    3eb4:	85 c0                	test   %eax,%eax
    3eb6:	74 58                	je     3f10 <hound_connect+0x1b0>
    3eb8:	8b 45 10             	mov    0x10(%ebp),%eax
    3ebb:	85 c0                	test   %eax,%eax
    3ebd:	0f 84 cd 00 00 00    	je     3f90 <hound_connect+0x230>
    3ec3:	8b 7b 2c             	mov    0x2c(%ebx),%edi
    3ec6:	39 fe                	cmp    %edi,%esi
    3ec8:	75 0d                	jne    3ed7 <hound_connect+0x177>
    3eca:	eb 44                	jmp    3f10 <hound_connect+0x1b0>
    3ecc:	8d 74 26 00          	lea    0x0(%esi,%eiz,1),%esi
    3ed0:	8b 7f 04             	mov    0x4(%edi),%edi
    3ed3:	39 fe                	cmp    %edi,%esi
    3ed5:	74 39                	je     3f10 <hound_connect+0x1b0>
    3ed7:	51                   	push   %ecx
    3ed8:	51                   	push   %ecx
    3ed9:	8b 47 10             	mov    0x10(%edi),%eax
    3edc:	50                   	push   %eax
    3edd:	8b 45 10             	mov    0x10(%ebp),%eax
    3ee0:	50                   	push   %eax
    3ee1:	e8 7a 79 00 00       	call   b860 <str_cmp@plt>
    3ee6:	83 c4 10             	add    $0x10,%esp
    3ee9:	85 c0                	test   %eax,%eax
    3eeb:	75 e3                	jne    3ed0 <hound_connect+0x170>
    3eed:	8b 55 10             	mov    0x10(%ebp),%edx
    3ef0:	52                   	push   %edx
    3ef1:	68 cc 98 00 00       	push   $0x98cc
    3ef6:	6a 04                	push   $0x4
    3ef8:	6a ff                	push   $0xffffffff
    3efa:	e8 71 78 00 00       	call   b770 <log_msg@plt>
    3eff:	83 c4 10             	add    $0x10,%esp
    3f02:	89 fa                	mov    %edi,%edx
    3f04:	e9 f7 fe ff ff       	jmp    3e00 <hound_connect+0xa0>
    3f09:	8d b4 26 00 00 00 00 	lea    0x0(%esi,%eiz,1),%esi
    3f10:	31 d2                	xor    %edx,%edx
    3f12:	83 ec 0c             	sub    $0xc,%esp
    3f15:	89 55 e4             	mov    %edx,-0x1c(%ebp)
    3f18:	53                   	push   %ebx
    3f19:	e8 e2 78 00 00       	call   b800 <fibril_mutex_unlock@plt>
    3f1e:	8b 45 e0             	mov    -0x20(%ebp),%eax
    3f21:	8b 55 e4             	mov    -0x1c(%ebp),%edx
    3f24:	89 14 24             	mov    %edx,(%esp)
    3f27:	50                   	push   %eax
    3f28:	68 48 9a 00 00       	push   $0x9a48
    3f2d:	6a 04                	push   $0x4
    3f2f:	6a ff                	push   $0xffffffff
    3f31:	e8 3a 78 00 00       	call   b770 <log_msg@plt>
    3f36:	83 c4 20             	add    $0x20,%esp
    3f39:	83 c8 ff             	or     $0xffffffff,%eax
    3f3c:	e9 07 ff ff ff       	jmp    3e48 <hound_connect+0xe8>
    3f41:	8d b4 26 00 00 00 00 	lea    0x0(%esi,%eiz,1),%esi
    3f48:	c7 45 e0 00 00 00 00 	movl   $0x0,-0x20(%ebp)
    3f4f:	e9 79 fe ff ff       	jmp    3dcd <hound_connect+0x6d>
    3f54:	83 ec 0c             	sub    $0xc,%esp
    3f57:	53                   	push   %ebx
    3f58:	e8 a3 78 00 00       	call   b800 <fibril_mutex_unlock@plt>
    3f5d:	83 c4 0c             	add    $0xc,%esp
    3f60:	68 b2 97 00 00       	push   $0x97b2
    3f65:	6a 04                	push   $0x4
    3f67:	6a ff                	push   $0xffffffff
    3f69:	e8 02 78 00 00       	call   b770 <log_msg@plt>
    3f6e:	83 c4 10             	add    $0x10,%esp
    3f71:	b8 fe ff ff ff       	mov    $0xfffffffe,%eax
    3f76:	e9 cd fe ff ff       	jmp    3e48 <hound_connect+0xe8>
    3f7b:	53                   	push   %ebx
    3f7c:	68 08 02 00 00       	push   $0x208
    3f81:	68 cc 96 00 00       	push   $0x96cc
    3f86:	68 f4 b1 00 00       	push   $0xb1f4
    3f8b:	e8 20 78 00 00       	call   b7b0 <assert_abort@plt>
    3f90:	50                   	push   %eax
    3f91:	6a 63                	push   $0x63
    3f93:	68 cc 96 00 00       	push   $0x96cc
    3f98:	68 20 97 00 00       	push   $0x9720
    3f9d:	e8 0e 78 00 00       	call   b7b0 <assert_abort@plt>
    3fa2:	c7 45 e0 00 00 00 00 	movl   $0x0,-0x20(%ebp)
    3fa9:	e9 07 fe ff ff       	jmp    3db5 <hound_connect+0x55>
    3fae:	52                   	push   %edx
    3faf:	6a 4e                	push   $0x4e
    3fb1:	68 cc 96 00 00       	push   $0x96cc
    3fb6:	68 20 97 00 00       	push   $0x9720
    3fbb:	e8 f0 77 00 00       	call   b7b0 <assert_abort@plt>

00003fc0 <hound_disconnect>:
    3fc0:	55                   	push   %ebp
    3fc1:	89 e5                	mov    %esp,%ebp
    3fc3:	57                   	push   %edi
    3fc4:	56                   	push   %esi
    3fc5:	53                   	push   %ebx
    3fc6:	83 ec 1c             	sub    $0x1c,%esp
    3fc9:	8b 45 08             	mov    0x8(%ebp),%eax
    3fcc:	85 c0                	test   %eax,%eax
    3fce:	0f 84 fd 01 00 00    	je     41d1 <hound_disconnect+0x211>
    3fd4:	83 ec 0c             	sub    $0xc,%esp
    3fd7:	8b 45 08             	mov    0x8(%ebp),%eax
    3fda:	50                   	push   %eax
    3fdb:	e8 00 7a 00 00       	call   b9e0 <fibril_mutex_lock@plt>
    3fe0:	58                   	pop    %eax
    3fe1:	8b 45 08             	mov    0x8(%ebp),%eax
    3fe4:	50                   	push   %eax
    3fe5:	e8 b6 76 00 00       	call   b6a0 <fibril_mutex_is_locked@plt>
    3fea:	83 c4 10             	add    $0x10,%esp
    3fed:	84 c0                	test   %al,%al
    3fef:	0f 84 c7 01 00 00    	je     41bc <hound_disconnect+0x1fc>
    3ff5:	83 ec 0c             	sub    $0xc,%esp
    3ff8:	8b 7d 0c             	mov    0xc(%ebp),%edi
    3ffb:	8b 75 10             	mov    0x10(%ebp),%esi
    3ffe:	56                   	push   %esi
    3fff:	57                   	push   %edi
    4000:	68 ce 97 00 00       	push   $0x97ce
    4005:	6a 04                	push   $0x4
    4007:	6a ff                	push   $0xffffffff
    4009:	e8 62 77 00 00       	call   b770 <log_msg@plt>
    400e:	8b 45 08             	mov    0x8(%ebp),%eax
    4011:	83 c4 20             	add    $0x20,%esp
    4014:	83 c0 30             	add    $0x30,%eax
    4017:	8b 78 04             	mov    0x4(%eax),%edi
    401a:	89 45 e4             	mov    %eax,-0x1c(%ebp)
    401d:	39 c7                	cmp    %eax,%edi
    401f:	0f 84 53 01 00 00    	je     4178 <hound_disconnect+0x1b8>
    4025:	89 fe                	mov    %edi,%esi
    4027:	83 ee 10             	sub    $0x10,%esi
    402a:	0f 84 7a 01 00 00    	je     41aa <hound_disconnect+0x1ea>
    4030:	8b 46 3c             	mov    0x3c(%esi),%eax
    4033:	8b 5f 04             	mov    0x4(%edi),%ebx
    4036:	85 c0                	test   %eax,%eax
    4038:	0f 84 d8 00 00 00    	je     4116 <hound_disconnect+0x156>
    403e:	66 90                	xchg   %ax,%ax
    4040:	8b 40 10             	mov    0x10(%eax),%eax
    4043:	85 c0                	test   %eax,%eax
    4045:	0f 84 f5 00 00 00    	je     4140 <hound_disconnect+0x180>
    404b:	8b 4d 0c             	mov    0xc(%ebp),%ecx
    404e:	52                   	push   %edx
    404f:	52                   	push   %edx
    4050:	51                   	push   %ecx
    4051:	50                   	push   %eax
    4052:	e8 09 78 00 00       	call   b860 <str_cmp@plt>
    4057:	83 c4 10             	add    $0x10,%esp
    405a:	85 c0                	test   %eax,%eax
    405c:	74 29                	je     4087 <hound_disconnect+0xc7>
    405e:	8b 46 38             	mov    0x38(%esi),%eax
    4061:	85 c0                	test   %eax,%eax
    4063:	0f 84 e7 00 00 00    	je     4150 <hound_disconnect+0x190>
    4069:	8b 40 10             	mov    0x10(%eax),%eax
    406c:	85 c0                	test   %eax,%eax
    406e:	0f 84 dc 00 00 00    	je     4150 <hound_disconnect+0x190>
    4074:	8b 4d 10             	mov    0x10(%ebp),%ecx
    4077:	52                   	push   %edx
    4078:	52                   	push   %edx
    4079:	51                   	push   %ecx
    407a:	50                   	push   %eax
    407b:	e8 e0 77 00 00       	call   b860 <str_cmp@plt>
    4080:	83 c4 10             	add    $0x10,%esp
    4083:	85 c0                	test   %eax,%eax
    4085:	75 6f                	jne    40f6 <hound_disconnect+0x136>
    4087:	8b 46 38             	mov    0x38(%esi),%eax
    408a:	85 c0                	test   %eax,%eax
    408c:	0f 84 8e 00 00 00    	je     4120 <hound_disconnect+0x160>
    4092:	8b 40 10             	mov    0x10(%eax),%eax
    4095:	85 c0                	test   %eax,%eax
    4097:	0f 84 83 00 00 00    	je     4120 <hound_disconnect+0x160>
    409d:	8b 4e 3c             	mov    0x3c(%esi),%ecx
    40a0:	85 c9                	test   %ecx,%ecx
    40a2:	0f 84 e8 00 00 00    	je     4190 <hound_disconnect+0x1d0>
    40a8:	8b 49 10             	mov    0x10(%ecx),%ecx
    40ab:	85 c9                	test   %ecx,%ecx
    40ad:	0f 84 b5 00 00 00    	je     4168 <hound_disconnect+0x1a8>
    40b3:	83 ec 0c             	sub    $0xc,%esp
    40b6:	50                   	push   %eax
    40b7:	51                   	push   %ecx
    40b8:	68 ea 97 00 00       	push   $0x97ea
    40bd:	6a 04                	push   $0x4
    40bf:	6a ff                	push   $0xffffffff
    40c1:	e8 aa 76 00 00       	call   b770 <log_msg@plt>
    40c6:	8b 0f                	mov    (%edi),%ecx
    40c8:	83 c4 20             	add    $0x20,%esp
    40cb:	85 c9                	test   %ecx,%ecx
    40cd:	74 0e                	je     40dd <hound_disconnect+0x11d>
    40cf:	8b 47 04             	mov    0x4(%edi),%eax
    40d2:	85 c0                	test   %eax,%eax
    40d4:	74 07                	je     40dd <hound_disconnect+0x11d>
    40d6:	89 08                	mov    %ecx,(%eax)
    40d8:	8b 0f                	mov    (%edi),%ecx
    40da:	89 41 04             	mov    %eax,0x4(%ecx)
    40dd:	83 ec 0c             	sub    $0xc,%esp
    40e0:	c7 07 00 00 00 00    	movl   $0x0,(%edi)
    40e6:	c7 47 04 00 00 00 00 	movl   $0x0,0x4(%edi)
    40ed:	56                   	push   %esi
    40ee:	e8 ad eb ff ff       	call   2ca0 <connection_destroy>
    40f3:	83 c4 10             	add    $0x10,%esp
    40f6:	39 5d e4             	cmp    %ebx,-0x1c(%ebp)
    40f9:	74 7d                	je     4178 <hound_disconnect+0x1b8>
    40fb:	89 de                	mov    %ebx,%esi
    40fd:	83 ee 10             	sub    $0x10,%esi
    4100:	0f 84 a4 00 00 00    	je     41aa <hound_disconnect+0x1ea>
    4106:	8b 46 3c             	mov    0x3c(%esi),%eax
    4109:	89 df                	mov    %ebx,%edi
    410b:	85 c0                	test   %eax,%eax
    410d:	8b 5b 04             	mov    0x4(%ebx),%ebx
    4110:	0f 85 2a ff ff ff    	jne    4040 <hound_disconnect+0x80>
    4116:	b8 6a 92 00 00       	mov    $0x926a,%eax
    411b:	e9 2b ff ff ff       	jmp    404b <hound_disconnect+0x8b>
    4120:	8b 4e 3c             	mov    0x3c(%esi),%ecx
    4123:	b8 6e 95 00 00       	mov    $0x956e,%eax
    4128:	85 c9                	test   %ecx,%ecx
    412a:	0f 85 78 ff ff ff    	jne    40a8 <hound_disconnect+0xe8>
    4130:	b8 7b 95 00 00       	mov    $0x957b,%eax
    4135:	b9 6a 92 00 00       	mov    $0x926a,%ecx
    413a:	e9 74 ff ff ff       	jmp    40b3 <hound_disconnect+0xf3>
    413f:	90                   	nop
    4140:	b8 5b 92 00 00       	mov    $0x925b,%eax
    4145:	e9 01 ff ff ff       	jmp    404b <hound_disconnect+0x8b>
    414a:	8d b6 00 00 00 00    	lea    0x0(%esi),%esi
    4150:	8b 46 3c             	mov    0x3c(%esi),%eax
    4153:	85 c0                	test   %eax,%eax
    4155:	74 49                	je     41a0 <hound_disconnect+0x1e0>
    4157:	b8 6e 95 00 00       	mov    $0x956e,%eax
    415c:	e9 13 ff ff ff       	jmp    4074 <hound_disconnect+0xb4>
    4161:	8d b4 26 00 00 00 00 	lea    0x0(%esi,%eiz,1),%esi
    4168:	b9 5b 92 00 00       	mov    $0x925b,%ecx
    416d:	e9 41 ff ff ff       	jmp    40b3 <hound_disconnect+0xf3>
    4172:	8d b6 00 00 00 00    	lea    0x0(%esi),%esi
    4178:	83 ec 0c             	sub    $0xc,%esp
    417b:	8b 45 08             	mov    0x8(%ebp),%eax
    417e:	50                   	push   %eax
    417f:	e8 7c 76 00 00       	call   b800 <fibril_mutex_unlock@plt>
    4184:	8d 65 f4             	lea    -0xc(%ebp),%esp
    4187:	31 c0                	xor    %eax,%eax
    4189:	5b                   	pop    %ebx
    418a:	5e                   	pop    %esi
    418b:	5f                   	pop    %edi
    418c:	5d                   	pop    %ebp
    418d:	c3                   	ret    
    418e:	66 90                	xchg   %ax,%ax
    4190:	b9 6a 92 00 00       	mov    $0x926a,%ecx
    4195:	e9 19 ff ff ff       	jmp    40b3 <hound_disconnect+0xf3>
    419a:	8d b6 00 00 00 00    	lea    0x0(%esi),%esi
    41a0:	b8 7b 95 00 00       	mov    $0x957b,%eax
    41a5:	e9 ca fe ff ff       	jmp    4074 <hound_disconnect+0xb4>
    41aa:	53                   	push   %ebx
    41ab:	6a 62                	push   $0x62
    41ad:	68 79 92 00 00       	push   $0x9279
    41b2:	68 c3 97 00 00       	push   $0x97c3
    41b7:	e8 f4 75 00 00       	call   b7b0 <assert_abort@plt>
    41bc:	50                   	push   %eax
    41bd:	68 43 02 00 00       	push   $0x243
    41c2:	68 cc 96 00 00       	push   $0x96cc
    41c7:	68 fc 97 00 00       	push   $0x97fc
    41cc:	e8 df 75 00 00       	call   b7b0 <assert_abort@plt>
    41d1:	50                   	push   %eax
    41d2:	68 2f 02 00 00       	push   $0x22f
    41d7:	68 cc 96 00 00       	push   $0x96cc
    41dc:	68 f4 b1 00 00       	push   $0xb1f4
    41e1:	e8 ca 75 00 00       	call   b7b0 <assert_abort@plt>
    41e6:	66 90                	xchg   %ax,%ax
    41e8:	66 90                	xchg   %ax,%ax
    41ea:	66 90                	xchg   %ax,%ax
    41ec:	66 90                	xchg   %ax,%ax
    41ee:	66 90                	xchg   %ax,%ax

000041f0 <new_data>:
    41f0:	55                   	push   %ebp
    41f1:	89 e5                	mov    %esp,%ebp
    41f3:	57                   	push   %edi
    41f4:	56                   	push   %esi
    41f5:	53                   	push   %ebx
    41f6:	83 ec 2c             	sub    $0x2c,%esp
    41f9:	8b 7d 08             	mov    0x8(%ebp),%edi
    41fc:	85 ff                	test   %edi,%edi
    41fe:	0f 84 98 02 00 00    	je     449c <new_data+0x2ac>
    4204:	8b 47 20             	mov    0x20(%edi),%eax
    4207:	89 45 d8             	mov    %eax,-0x28(%ebp)
    420a:	85 c0                	test   %eax,%eax
    420c:	0f 84 9f 02 00 00    	je     44b1 <new_data+0x2c1>
    4212:	83 ec 0c             	sub    $0xc,%esp
    4215:	83 c0 18             	add    $0x18,%eax
    4218:	89 45 d4             	mov    %eax,-0x2c(%ebp)
    421b:	8d 5f 08             	lea    0x8(%edi),%ebx
    421e:	50                   	push   %eax
    421f:	e8 bc 77 00 00       	call   b9e0 <fibril_mutex_lock@plt>
    4224:	8b 4f 0c             	mov    0xc(%edi),%ecx
    4227:	83 c4 10             	add    $0x10,%esp
    422a:	39 d9                	cmp    %ebx,%ecx
    422c:	0f 84 e3 01 00 00    	je     4415 <new_data+0x225>
    4232:	83 f9 e8             	cmp    $0xffffffe8,%ecx
    4235:	0f 84 f8 01 00 00    	je     4433 <new_data+0x243>
    423b:	83 c8 ff             	or     $0xffffffff,%eax
    423e:	eb 09                	jmp    4249 <new_data+0x59>
    4240:	83 f9 e8             	cmp    $0xffffffe8,%ecx
    4243:	0f 84 ea 01 00 00    	je     4433 <new_data+0x243>
    4249:	8b 51 24             	mov    0x24(%ecx),%edx
    424c:	39 d0                	cmp    %edx,%eax
    424e:	76 02                	jbe    4252 <new_data+0x62>
    4250:	89 d0                	mov    %edx,%eax
    4252:	8b 49 04             	mov    0x4(%ecx),%ecx
    4255:	39 d9                	cmp    %ebx,%ecx
    4257:	75 e7                	jne    4240 <new_data+0x50>
    4259:	8b 4f 1c             	mov    0x1c(%edi),%ecx
    425c:	8b 57 14             	mov    0x14(%edi),%edx
    425f:	c7 45 dc 00 00 00 00 	movl   $0x0,-0x24(%ebp)
    4266:	83 f9 12             	cmp    $0x12,%ecx
    4269:	77 15                	ja     4280 <new_data+0x90>
    426b:	8b 34 8d c0 9c 00 00 	mov    0x9cc0(,%ecx,4),%esi
    4272:	0f af f2             	imul   %edx,%esi
    4275:	0f af f0             	imul   %eax,%esi
    4278:	89 75 dc             	mov    %esi,-0x24(%ebp)
    427b:	90                   	nop
    427c:	8d 74 26 00          	lea    0x0(%esi,%eiz,1),%esi
    4280:	83 ec 0c             	sub    $0xc,%esp
    4283:	8b 45 dc             	mov    -0x24(%ebp),%eax
    4286:	50                   	push   %eax
    4287:	e8 54 74 00 00       	call   b6e0 <malloc@plt>
    428c:	83 c4 10             	add    $0x10,%esp
    428f:	89 45 e4             	mov    %eax,-0x1c(%ebp)
    4292:	85 c0                	test   %eax,%eax
    4294:	0f 84 ab 01 00 00    	je     4445 <new_data+0x255>
    429a:	83 ec 0c             	sub    $0xc,%esp
    429d:	8b 47 1c             	mov    0x1c(%edi),%eax
    42a0:	8b 75 dc             	mov    -0x24(%ebp),%esi
    42a3:	50                   	push   %eax
    42a4:	8b 45 e4             	mov    -0x1c(%ebp),%eax
    42a7:	8b 57 18             	mov    0x18(%edi),%edx
    42aa:	52                   	push   %edx
    42ab:	8b 4f 14             	mov    0x14(%edi),%ecx
    42ae:	51                   	push   %ecx
    42af:	56                   	push   %esi
    42b0:	50                   	push   %eax
    42b1:	e8 8a ce ff ff       	call   1140 <audio_data_create>
    42b6:	83 c4 20             	add    $0x20,%esp
    42b9:	89 45 d0             	mov    %eax,-0x30(%ebp)
    42bc:	85 c0                	test   %eax,%eax
    42be:	0f 84 9d 01 00 00    	je     4461 <new_data+0x271>
    42c4:	8d 47 14             	lea    0x14(%edi),%eax
    42c7:	56                   	push   %esi
    42c8:	50                   	push   %eax
    42c9:	8b 45 dc             	mov    -0x24(%ebp),%eax
    42cc:	50                   	push   %eax
    42cd:	8b 45 e4             	mov    -0x1c(%ebp),%eax
    42d0:	50                   	push   %eax
    42d1:	e8 3a 36 00 00       	call   7910 <pcm_format_silence>
    42d6:	8b 77 0c             	mov    0xc(%edi),%esi
    42d9:	83 c4 10             	add    $0x10,%esp
    42dc:	39 de                	cmp    %ebx,%esi
    42de:	74 4a                	je     432a <new_data+0x13a>
    42e0:	89 7d 08             	mov    %edi,0x8(%ebp)
    42e3:	89 5d e0             	mov    %ebx,-0x20(%ebp)
    42e6:	89 f7                	mov    %esi,%edi
    42e8:	8b 5d dc             	mov    -0x24(%ebp),%ebx
    42eb:	8b 75 08             	mov    0x8(%ebp),%esi
    42ee:	66 90                	xchg   %ax,%ax
    42f0:	50                   	push   %eax
    42f1:	50                   	push   %eax
    42f2:	8b 46 1c             	mov    0x1c(%esi),%eax
    42f5:	8b 4d e4             	mov    -0x1c(%ebp),%ecx
    42f8:	50                   	push   %eax
    42f9:	8b 46 18             	mov    0x18(%esi),%eax
    42fc:	50                   	push   %eax
    42fd:	8b 56 14             	mov    0x14(%esi),%edx
    4300:	52                   	push   %edx
    4301:	53                   	push   %ebx
    4302:	51                   	push   %ecx
    4303:	57                   	push   %edi
    4304:	e8 87 ea ff ff       	call   2d90 <connection_add_source_data>
    4309:	83 c4 20             	add    $0x20,%esp
    430c:	39 c3                	cmp    %eax,%ebx
    430e:	74 12                	je     4322 <new_data+0x132>
    4310:	50                   	push   %eax
    4311:	68 00 9b 00 00       	push   $0x9b00
    4316:	6a 01                	push   $0x1
    4318:	6a ff                	push   $0xffffffff
    431a:	e8 51 74 00 00       	call   b770 <log_msg@plt>
    431f:	83 c4 10             	add    $0x10,%esp
    4322:	8b 7f 04             	mov    0x4(%edi),%edi
    4325:	3b 7d e0             	cmp    -0x20(%ebp),%edi
    4328:	75 c6                	jne    42f0 <new_data+0x100>
    432a:	8b 45 d8             	mov    -0x28(%ebp),%eax
    432d:	8b 70 0c             	mov    0xc(%eax),%esi
    4330:	8d 78 08             	lea    0x8(%eax),%edi
    4333:	39 fe                	cmp    %edi,%esi
    4335:	0f 84 aa 00 00 00    	je     43e5 <new_data+0x1f5>
    433b:	85 f6                	test   %esi,%esi
    433d:	0f 84 44 01 00 00    	je     4487 <new_data+0x297>
    4343:	89 7d e0             	mov    %edi,-0x20(%ebp)
    4346:	89 f7                	mov    %esi,%edi
    4348:	8b 75 d0             	mov    -0x30(%ebp),%esi
    434b:	eb 2e                	jmp    437b <new_data+0x18b>
    434d:	8d 76 00             	lea    0x0(%esi),%esi
    4350:	83 ec 0c             	sub    $0xc,%esp
    4353:	50                   	push   %eax
    4354:	e8 d7 75 00 00       	call   b930 <str_error@plt>
    4359:	50                   	push   %eax
    435a:	68 38 9b 00 00       	push   $0x9b38
    435f:	6a 01                	push   $0x1
    4361:	6a ff                	push   $0xffffffff
    4363:	e8 08 74 00 00       	call   b770 <log_msg@plt>
    4368:	8b 7f 04             	mov    0x4(%edi),%edi
    436b:	83 c4 20             	add    $0x20,%esp
    436e:	3b 7d e0             	cmp    -0x20(%ebp),%edi
    4371:	74 72                	je     43e5 <new_data+0x1f5>
    4373:	85 ff                	test   %edi,%edi
    4375:	0f 84 0c 01 00 00    	je     4487 <new_data+0x297>
    437b:	8b 47 3c             	mov    0x3c(%edi),%eax
    437e:	85 c0                	test   %eax,%eax
    4380:	74 09                	je     438b <new_data+0x19b>
    4382:	3b 46 04             	cmp    0x4(%esi),%eax
    4385:	0f 82 80 00 00 00    	jb     440b <new_data+0x21b>
    438b:	83 ec 0c             	sub    $0xc,%esp
    438e:	8d 5f 40             	lea    0x40(%edi),%ebx
    4391:	53                   	push   %ebx
    4392:	e8 49 76 00 00       	call   b9e0 <fibril_mutex_lock@plt>
    4397:	8b 4f 3c             	mov    0x3c(%edi),%ecx
    439a:	83 c4 10             	add    $0x10,%esp
    439d:	85 c9                	test   %ecx,%ecx
    439f:	74 0c                	je     43ad <new_data+0x1bd>
    43a1:	8b 46 04             	mov    0x4(%esi),%eax
    43a4:	8b 57 10             	mov    0x10(%edi),%edx
    43a7:	01 d0                	add    %edx,%eax
    43a9:	39 c8                	cmp    %ecx,%eax
    43ab:	77 70                	ja     441d <new_data+0x22d>
    43ad:	50                   	push   %eax
    43ae:	50                   	push   %eax
    43af:	8d 47 08             	lea    0x8(%edi),%eax
    43b2:	56                   	push   %esi
    43b3:	50                   	push   %eax
    43b4:	e8 27 d1 ff ff       	call   14e0 <audio_pipe_push>
    43b9:	89 1c 24             	mov    %ebx,(%esp)
    43bc:	89 45 e4             	mov    %eax,-0x1c(%ebp)
    43bf:	e8 3c 74 00 00       	call   b800 <fibril_mutex_unlock@plt>
    43c4:	8b 45 e4             	mov    -0x1c(%ebp),%eax
    43c7:	83 c4 10             	add    $0x10,%esp
    43ca:	85 c0                	test   %eax,%eax
    43cc:	75 82                	jne    4350 <new_data+0x160>
    43ce:	83 ec 0c             	sub    $0xc,%esp
    43d1:	8d 47 50             	lea    0x50(%edi),%eax
    43d4:	50                   	push   %eax
    43d5:	e8 16 73 00 00       	call   b6f0 <fibril_condvar_signal@plt>
    43da:	8b 7f 04             	mov    0x4(%edi),%edi
    43dd:	83 c4 10             	add    $0x10,%esp
    43e0:	3b 7d e0             	cmp    -0x20(%ebp),%edi
    43e3:	75 8e                	jne    4373 <new_data+0x183>
    43e5:	83 ec 0c             	sub    $0xc,%esp
    43e8:	8b 4d d0             	mov    -0x30(%ebp),%ecx
    43eb:	51                   	push   %ecx
    43ec:	e8 2f ce ff ff       	call   1220 <audio_data_unref>
    43f1:	8b 75 d4             	mov    -0x2c(%ebp),%esi
    43f4:	5b                   	pop    %ebx
    43f5:	56                   	push   %esi
    43f6:	e8 05 74 00 00       	call   b800 <fibril_mutex_unlock@plt>
    43fb:	83 c4 10             	add    $0x10,%esp
    43fe:	8d 65 f4             	lea    -0xc(%ebp),%esp
    4401:	b8 f5 ff ff ff       	mov    $0xfffffff5,%eax
    4406:	5b                   	pop    %ebx
    4407:	5e                   	pop    %esi
    4408:	5f                   	pop    %edi
    4409:	5d                   	pop    %ebp
    440a:	c3                   	ret    
    440b:	b8 f2 ff ff ff       	mov    $0xfffffff2,%eax
    4410:	e9 3b ff ff ff       	jmp    4350 <new_data+0x160>
    4415:	83 c8 ff             	or     $0xffffffff,%eax
    4418:	e9 3c fe ff ff       	jmp    4259 <new_data+0x69>
    441d:	83 ec 0c             	sub    $0xc,%esp
    4420:	53                   	push   %ebx
    4421:	e8 da 73 00 00       	call   b800 <fibril_mutex_unlock@plt>
    4426:	83 c4 10             	add    $0x10,%esp
    4429:	b8 f0 ff ff ff       	mov    $0xfffffff0,%eax
    442e:	e9 1d ff ff ff       	jmp    4350 <new_data+0x160>
    4433:	50                   	push   %eax
    4434:	6a 65                	push   $0x65
    4436:	68 78 9a 00 00       	push   $0x9a78
    443b:	68 92 8d 00 00       	push   $0x8d92
    4440:	e8 6b 73 00 00       	call   b7b0 <assert_abort@plt>
    4445:	83 ec 0c             	sub    $0xc,%esp
    4448:	8b 45 d4             	mov    -0x2c(%ebp),%eax
    444b:	50                   	push   %eax
    444c:	e8 af 73 00 00       	call   b800 <fibril_mutex_unlock@plt>
    4451:	83 c4 10             	add    $0x10,%esp
    4454:	8d 65 f4             	lea    -0xc(%ebp),%esp
    4457:	b8 fe ff ff ff       	mov    $0xfffffffe,%eax
    445c:	5b                   	pop    %ebx
    445d:	5e                   	pop    %esi
    445e:	5f                   	pop    %edi
    445f:	5d                   	pop    %ebp
    4460:	c3                   	ret    
    4461:	83 ec 0c             	sub    $0xc,%esp
    4464:	8b 45 d4             	mov    -0x2c(%ebp),%eax
    4467:	50                   	push   %eax
    4468:	e8 93 73 00 00       	call   b800 <fibril_mutex_unlock@plt>
    446d:	58                   	pop    %eax
    446e:	8b 45 e4             	mov    -0x1c(%ebp),%eax
    4471:	50                   	push   %eax
    4472:	e8 59 75 00 00       	call   b9d0 <free@plt>
    4477:	83 c4 10             	add    $0x10,%esp
    447a:	8d 65 f4             	lea    -0xc(%ebp),%esp
    447d:	b8 fe ff ff ff       	mov    $0xfffffffe,%eax
    4482:	5b                   	pop    %ebx
    4483:	5e                   	pop    %esi
    4484:	5f                   	pop    %edi
    4485:	5d                   	pop    %ebp
    4486:	c3                   	ret    
    4487:	50                   	push   %eax
    4488:	68 cb 00 00 00       	push   $0xcb
    448d:	68 6c 9a 00 00       	push   $0x9a6c
    4492:	68 f6 9a 00 00       	push   $0x9af6
    4497:	e8 14 73 00 00       	call   b7b0 <assert_abort@plt>
    449c:	50                   	push   %eax
    449d:	68 ac 01 00 00       	push   $0x1ac
    44a2:	68 6c 9a 00 00       	push   $0x9a6c
    44a7:	68 76 95 00 00       	push   $0x9576
    44ac:	e8 ff 72 00 00       	call   b7b0 <assert_abort@plt>
    44b1:	50                   	push   %eax
    44b2:	68 ad 01 00 00       	push   $0x1ad
    44b7:	68 6c 9a 00 00       	push   $0x9a6c
    44bc:	68 15 92 00 00       	push   $0x9215
    44c1:	e8 ea 72 00 00       	call   b7b0 <assert_abort@plt>
    44c6:	8d 76 00             	lea    0x0(%esi),%esi
    44c9:	8d bc 27 00 00 00 00 	lea    0x0(%edi,%eiz,1),%edi

000044d0 <update_data>:
    44d0:	55                   	push   %ebp
    44d1:	89 e5                	mov    %esp,%ebp
    44d3:	57                   	push   %edi
    44d4:	56                   	push   %esi
    44d5:	53                   	push   %ebx
    44d6:	83 ec 2c             	sub    $0x2c,%esp
    44d9:	8b 45 08             	mov    0x8(%ebp),%eax
    44dc:	8b 75 0c             	mov    0xc(%ebp),%esi
    44df:	85 c0                	test   %eax,%eax
    44e1:	0f 84 be 01 00 00    	je     46a5 <update_data+0x1d5>
    44e7:	8b 45 08             	mov    0x8(%ebp),%eax
    44ea:	8b 40 20             	mov    0x20(%eax),%eax
    44ed:	89 45 d4             	mov    %eax,-0x2c(%ebp)
    44f0:	85 c0                	test   %eax,%eax
    44f2:	0f 84 98 01 00 00    	je     4690 <update_data+0x1c0>
    44f8:	83 ec 0c             	sub    $0xc,%esp
    44fb:	56                   	push   %esi
    44fc:	e8 df 71 00 00       	call   b6e0 <malloc@plt>
    4501:	83 c4 10             	add    $0x10,%esp
    4504:	89 45 dc             	mov    %eax,-0x24(%ebp)
    4507:	85 c0                	test   %eax,%eax
    4509:	0f 84 64 01 00 00    	je     4673 <update_data+0x1a3>
    450f:	8b 55 08             	mov    0x8(%ebp),%edx
    4512:	83 ec 0c             	sub    $0xc,%esp
    4515:	8b 4a 1c             	mov    0x1c(%edx),%ecx
    4518:	51                   	push   %ecx
    4519:	8b 5a 18             	mov    0x18(%edx),%ebx
    451c:	53                   	push   %ebx
    451d:	8b 7a 14             	mov    0x14(%edx),%edi
    4520:	57                   	push   %edi
    4521:	56                   	push   %esi
    4522:	50                   	push   %eax
    4523:	e8 18 cc ff ff       	call   1140 <audio_data_create>
    4528:	83 c4 20             	add    $0x20,%esp
    452b:	89 45 d0             	mov    %eax,-0x30(%ebp)
    452e:	85 c0                	test   %eax,%eax
    4530:	0f 84 44 01 00 00    	je     467a <update_data+0x1aa>
    4536:	8b 7d d4             	mov    -0x2c(%ebp),%edi
    4539:	83 ec 0c             	sub    $0xc,%esp
    453c:	89 f8                	mov    %edi,%eax
    453e:	83 c0 08             	add    $0x8,%eax
    4541:	50                   	push   %eax
    4542:	89 45 e0             	mov    %eax,-0x20(%ebp)
    4545:	e8 b6 73 00 00       	call   b900 <list_count@plt>
    454a:	89 04 24             	mov    %eax,(%esp)
    454d:	57                   	push   %edi
    454e:	68 9a 9a 00 00       	push   $0x9a9a
    4553:	6a 05                	push   $0x5
    4555:	6a ff                	push   $0xffffffff
    4557:	e8 14 72 00 00       	call   b770 <log_msg@plt>
    455c:	83 c4 1c             	add    $0x1c,%esp
    455f:	8b 55 08             	mov    0x8(%ebp),%edx
    4562:	83 c2 14             	add    $0x14,%edx
    4565:	8b 45 dc             	mov    -0x24(%ebp),%eax
    4568:	52                   	push   %edx
    4569:	89 55 d8             	mov    %edx,-0x28(%ebp)
    456c:	56                   	push   %esi
    456d:	50                   	push   %eax
    456e:	e8 9d 33 00 00       	call   7910 <pcm_format_silence>
    4573:	8d 57 18             	lea    0x18(%edi),%edx
    4576:	89 14 24             	mov    %edx,(%esp)
    4579:	89 55 cc             	mov    %edx,-0x34(%ebp)
    457c:	e8 5f 74 00 00       	call   b9e0 <fibril_mutex_lock@plt>
    4581:	8b 5f 0c             	mov    0xc(%edi),%ebx
    4584:	83 c4 10             	add    $0x10,%esp
    4587:	39 5d e0             	cmp    %ebx,-0x20(%ebp)
    458a:	74 65                	je     45f1 <update_data+0x121>
    458c:	8d 74 26 00          	lea    0x0(%esi,%eiz,1),%esi
    4590:	85 db                	test   %ebx,%ebx
    4592:	0f 84 c6 00 00 00    	je     465e <update_data+0x18e>
    4598:	83 ec 0c             	sub    $0xc,%esp
    459b:	8d 7b 40             	lea    0x40(%ebx),%edi
    459e:	57                   	push   %edi
    459f:	e8 3c 74 00 00       	call   b9e0 <fibril_mutex_lock@plt>
    45a4:	8b 45 d8             	mov    -0x28(%ebp),%eax
    45a7:	50                   	push   %eax
    45a8:	8b 45 dc             	mov    -0x24(%ebp),%eax
    45ab:	56                   	push   %esi
    45ac:	50                   	push   %eax
    45ad:	8d 43 08             	lea    0x8(%ebx),%eax
    45b0:	50                   	push   %eax
    45b1:	e8 3a d2 ff ff       	call   17f0 <audio_pipe_mix_data>
    45b6:	83 c4 14             	add    $0x14,%esp
    45b9:	8d 4b 50             	lea    0x50(%ebx),%ecx
    45bc:	89 45 e4             	mov    %eax,-0x1c(%ebp)
    45bf:	51                   	push   %ecx
    45c0:	e8 2b 71 00 00       	call   b6f0 <fibril_condvar_signal@plt>
    45c5:	89 3c 24             	mov    %edi,(%esp)
    45c8:	e8 33 72 00 00       	call   b800 <fibril_mutex_unlock@plt>
    45cd:	8b 45 e4             	mov    -0x1c(%ebp),%eax
    45d0:	83 c4 10             	add    $0x10,%esp
    45d3:	39 c6                	cmp    %eax,%esi
    45d5:	74 12                	je     45e9 <update_data+0x119>
    45d7:	57                   	push   %edi
    45d8:	68 88 9b 00 00       	push   $0x9b88
    45dd:	6a 02                	push   $0x2
    45df:	6a ff                	push   $0xffffffff
    45e1:	e8 8a 71 00 00       	call   b770 <log_msg@plt>
    45e6:	83 c4 10             	add    $0x10,%esp
    45e9:	8b 5b 04             	mov    0x4(%ebx),%ebx
    45ec:	39 5d e0             	cmp    %ebx,-0x20(%ebp)
    45ef:	75 9f                	jne    4590 <update_data+0xc0>
    45f1:	8b 45 08             	mov    0x8(%ebp),%eax
    45f4:	83 ec 0c             	sub    $0xc,%esp
    45f7:	8d 58 08             	lea    0x8(%eax),%ebx
    45fa:	53                   	push   %ebx
    45fb:	e8 00 73 00 00       	call   b900 <list_count@plt>
    4600:	89 04 24             	mov    %eax,(%esp)
    4603:	8b 45 d4             	mov    -0x2c(%ebp),%eax
    4606:	50                   	push   %eax
    4607:	68 5c 9b 00 00       	push   $0x9b5c
    460c:	6a 05                	push   $0x5
    460e:	6a ff                	push   $0xffffffff
    4610:	e8 5b 71 00 00       	call   b770 <log_msg@plt>
    4615:	8b 45 08             	mov    0x8(%ebp),%eax
    4618:	8b 70 0c             	mov    0xc(%eax),%esi
    461b:	83 c4 20             	add    $0x20,%esp
    461e:	8b 7d d0             	mov    -0x30(%ebp),%edi
    4621:	39 f3                	cmp    %esi,%ebx
    4623:	74 16                	je     463b <update_data+0x16b>
    4625:	8d 76 00             	lea    0x0(%esi),%esi
    4628:	50                   	push   %eax
    4629:	50                   	push   %eax
    462a:	57                   	push   %edi
    462b:	56                   	push   %esi
    462c:	e8 5f e8 ff ff       	call   2e90 <connection_push_data>
    4631:	8b 76 04             	mov    0x4(%esi),%esi
    4634:	83 c4 10             	add    $0x10,%esp
    4637:	39 f3                	cmp    %esi,%ebx
    4639:	75 ed                	jne    4628 <update_data+0x158>
    463b:	83 ec 0c             	sub    $0xc,%esp
    463e:	8b 55 d0             	mov    -0x30(%ebp),%edx
    4641:	52                   	push   %edx
    4642:	e8 d9 cb ff ff       	call   1220 <audio_data_unref>
    4647:	8b 5d cc             	mov    -0x34(%ebp),%ebx
    464a:	59                   	pop    %ecx
    464b:	53                   	push   %ebx
    464c:	e8 af 71 00 00       	call   b800 <fibril_mutex_unlock@plt>
    4651:	83 c4 10             	add    $0x10,%esp
    4654:	31 c0                	xor    %eax,%eax
    4656:	8d 65 f4             	lea    -0xc(%ebp),%esp
    4659:	5b                   	pop    %ebx
    465a:	5e                   	pop    %esi
    465b:	5f                   	pop    %edi
    465c:	5d                   	pop    %ebp
    465d:	c3                   	ret    
    465e:	50                   	push   %eax
    465f:	68 6a 01 00 00       	push   $0x16a
    4664:	68 6c 9a 00 00       	push   $0x9a6c
    4669:	68 f6 9a 00 00       	push   $0x9af6
    466e:	e8 3d 71 00 00       	call   b7b0 <assert_abort@plt>
    4673:	b8 fe ff ff ff       	mov    $0xfffffffe,%eax
    4678:	eb dc                	jmp    4656 <update_data+0x186>
    467a:	83 ec 0c             	sub    $0xc,%esp
    467d:	8b 45 dc             	mov    -0x24(%ebp),%eax
    4680:	50                   	push   %eax
    4681:	e8 4a 73 00 00       	call   b9d0 <free@plt>
    4686:	83 c4 10             	add    $0x10,%esp
    4689:	b8 fe ff ff ff       	mov    $0xfffffffe,%eax
    468e:	eb c6                	jmp    4656 <update_data+0x186>
    4690:	50                   	push   %eax
    4691:	68 8b 01 00 00       	push   $0x18b
    4696:	68 6c 9a 00 00       	push   $0x9a6c
    469b:	68 85 9a 00 00       	push   $0x9a85
    46a0:	e8 0b 71 00 00       	call   b7b0 <assert_abort@plt>
    46a5:	50                   	push   %eax
    46a6:	68 8a 01 00 00       	push   $0x18a
    46ab:	68 6c 9a 00 00       	push   $0x9a6c
    46b0:	68 63 92 00 00       	push   $0x9263
    46b5:	e8 f6 70 00 00       	call   b7b0 <assert_abort@plt>
    46ba:	8d b6 00 00 00 00    	lea    0x0(%esi),%esi

000046c0 <hound_record_ctx_get>:
    46c0:	55                   	push   %ebp
    46c1:	89 e5                	mov    %esp,%ebp
    46c3:	53                   	push   %ebx
    46c4:	83 ec 10             	sub    $0x10,%esp
    46c7:	6a 28                	push   $0x28
    46c9:	e8 12 70 00 00       	call   b6e0 <malloc@plt>
    46ce:	83 c4 10             	add    $0x10,%esp
    46d1:	89 c3                	mov    %eax,%ebx
    46d3:	85 c0                	test   %eax,%eax
    46d5:	74 60                	je     4737 <hound_record_ctx_get+0x77>
    46d7:	c7 00 00 00 00 00    	movl   $0x0,(%eax)
    46dd:	c7 40 04 00 00 00 00 	movl   $0x0,0x4(%eax)
    46e4:	83 ec 0c             	sub    $0xc,%esp
    46e7:	8d 40 08             	lea    0x8(%eax),%eax
    46ea:	89 43 08             	mov    %eax,0x8(%ebx)
    46ed:	89 43 0c             	mov    %eax,0xc(%ebx)
    46f0:	8d 43 18             	lea    0x18(%ebx),%eax
    46f3:	50                   	push   %eax
    46f4:	e8 47 71 00 00       	call   b840 <fibril_mutex_initialize@plt>
    46f9:	c7 43 10 00 00 00 00 	movl   $0x0,0x10(%ebx)
    4700:	c7 04 24 30 00 00 00 	movl   $0x30,(%esp)
    4707:	e8 d4 6f 00 00       	call   b6e0 <malloc@plt>
    470c:	83 c4 10             	add    $0x10,%esp
    470f:	89 43 14             	mov    %eax,0x14(%ebx)
    4712:	85 c0                	test   %eax,%eax
    4714:	74 4a                	je     4760 <hound_record_ctx_get+0xa0>
    4716:	8b 4d 08             	mov    0x8(%ebp),%ecx
