Archive member included to satisfy reference by file (symbol)

../../../lib/drv/libdrv.a(remote_audio_pcm.o)
                              audio_device.o (audio_pcm_open_service)
../../../lib/drv/libdrv.a(log.o)
                              ../../../lib/drv/libdrv.a(remote_audio_pcm.o) (ddf_msg)
../../../lib/hound/libhound.a(protocol.o)
                              main.o (hound_service_set_server_iface)
../../../lib/pcm/libpcm.a(format.o)
                              audio_sink.o (pcm_format_same)

Discarded input sections

 .debug_line    0x0000000000000000       0x53 /home/ayyuce/Desktop/HlnOS/HelenOS/uspace/lib/c/arch/ia32/src/entry.o
 .debug_info    0x0000000000000000       0x6c /home/ayyuce/Desktop/HlnOS/HelenOS/uspace/lib/c/arch/ia32/src/entry.o
 .debug_abbrev  0x0000000000000000       0x14 /home/ayyuce/Desktop/HlnOS/HelenOS/uspace/lib/c/arch/ia32/src/entry.o
 .debug_aranges
                0x0000000000000000       0x20 /home/ayyuce/Desktop/HlnOS/HelenOS/uspace/lib/c/arch/ia32/src/entry.o
 .debug_info    0x0000000000000000     0x1900 audio_data.o
 .debug_abbrev  0x0000000000000000      0x31d audio_data.o
 .debug_loc     0x0000000000000000      0xb8b audio_data.o
 .debug_aranges
                0x0000000000000000       0x30 audio_data.o
 .debug_ranges  0x0000000000000000      0x468 audio_data.o
 .debug_line    0x0000000000000000      0x59d audio_data.o
 .debug_str     0x0000000000000000      0xd1c audio_data.o
 .comment       0x0000000000000000       0x12 audio_data.o
 .note.GNU-stack
                0x0000000000000000        0x0 audio_data.o
 .eh_frame      0x0000000000000000      0x1c4 audio_data.o
 .debug_info    0x0000000000000000     0x12db audio_device.o
 .debug_abbrev  0x0000000000000000      0x2ed audio_device.o
 .debug_loc     0x0000000000000000      0x528 audio_device.o
 .debug_aranges
                0x0000000000000000       0x20 audio_device.o
 .debug_ranges  0x0000000000000000      0x238 audio_device.o
 .debug_line    0x0000000000000000      0x4be audio_device.o
 .debug_str     0x0000000000000000      0xf1b audio_device.o
 .comment       0x0000000000000000       0x12 audio_device.o
 .note.GNU-stack
                0x0000000000000000        0x0 audio_device.o
 .eh_frame      0x0000000000000000      0x1b0 audio_device.o
 .debug_info    0x0000000000000000      0xc60 audio_sink.o
 .debug_abbrev  0x0000000000000000      0x231 audio_sink.o
 .debug_loc     0x0000000000000000      0x294 audio_sink.o
 .debug_aranges
                0x0000000000000000       0x20 audio_sink.o
 .debug_ranges  0x0000000000000000       0x98 audio_sink.o
 .debug_line    0x0000000000000000      0x340 audio_sink.o
 .debug_str     0x0000000000000000      0xbbf audio_sink.o
 .comment       0x0000000000000000       0x12 audio_sink.o
 .note.GNU-stack
                0x0000000000000000        0x0 audio_sink.o
 .eh_frame      0x0000000000000000       0xdc audio_sink.o
 .debug_info    0x0000000000000000      0xb59 audio_source.o
 .debug_abbrev  0x0000000000000000      0x201 audio_source.o
 .debug_loc     0x0000000000000000      0x197 audio_source.o
 .debug_aranges
                0x0000000000000000       0x20 audio_source.o
 .debug_ranges  0x0000000000000000       0x80 audio_source.o
 .debug_line    0x0000000000000000      0x2eb audio_source.o
 .debug_str     0x0000000000000000      0xb86 audio_source.o
 .comment       0x0000000000000000       0x12 audio_source.o
 .note.GNU-stack
                0x0000000000000000        0x0 audio_source.o
 .eh_frame      0x0000000000000000       0x9c audio_source.o
 .debug_info    0x0000000000000000      0xe19 connection.o
 .debug_abbrev  0x0000000000000000      0x21d connection.o
 .debug_loc     0x0000000000000000      0x238 connection.o
 .debug_aranges
                0x0000000000000000       0x20 connection.o
 .debug_ranges  0x0000000000000000       0xc0 connection.o
 .debug_line    0x0000000000000000      0x364 connection.o
 .debug_str     0x0000000000000000      0xc8d connection.o
 .comment       0x0000000000000000       0x12 connection.o
 .note.GNU-stack
                0x0000000000000000        0x0 connection.o
 .eh_frame      0x0000000000000000       0xcc connection.o
 .debug_info    0x0000000000000000     0x21f5 hound.o
 .debug_abbrev  0x0000000000000000      0x35d hound.o
 .debug_loc     0x0000000000000000      0xf43 hound.o
 .debug_aranges
                0x0000000000000000       0x20 hound.o
 .debug_ranges  0x0000000000000000      0x460 hound.o
 .debug_line    0x0000000000000000      0x8e8 hound.o
 .debug_str     0x0000000000000000      0xf47 hound.o
 .comment       0x0000000000000000       0x12 hound.o
 .note.GNU-stack
                0x0000000000000000        0x0 hound.o
 .eh_frame      0x0000000000000000      0x354 hound.o
 .debug_info    0x0000000000000000     0x1960 hound_ctx.o
 .debug_abbrev  0x0000000000000000      0x3b2 hound_ctx.o
 .debug_loc     0x0000000000000000      0x8ce hound_ctx.o
 .debug_aranges
                0x0000000000000000       0x20 hound_ctx.o
 .debug_ranges  0x0000000000000000      0x1d8 hound_ctx.o
 .debug_line    0x0000000000000000      0x58d hound_ctx.o
 .debug_str     0x0000000000000000      0xf56 hound_ctx.o
 .comment       0x0000000000000000       0x12 hound_ctx.o
 .note.GNU-stack
                0x0000000000000000        0x0 hound_ctx.o
 .eh_frame      0x0000000000000000      0x27c hound_ctx.o
 .debug_info    0x0000000000000000     0x120c iface.o
 .debug_abbrev  0x0000000000000000      0x25a iface.o
 .debug_loc     0x0000000000000000      0x279 iface.o
 .debug_aranges
                0x0000000000000000       0x20 iface.o
 .debug_line    0x0000000000000000      0x35c iface.o
 .debug_str     0x0000000000000000      0xf17 iface.o
 .comment       0x0000000000000000       0x12 iface.o
 .note.GNU-stack
                0x0000000000000000        0x0 iface.o
 .eh_frame      0x0000000000000000      0x204 iface.o
 .debug_info    0x0000000000000000      0xc00 main.o
 .debug_abbrev  0x0000000000000000      0x23a main.o
 .debug_loc     0x0000000000000000       0xd2 main.o
 .debug_aranges
                0x0000000000000000       0x28 main.o
 .debug_ranges  0x0000000000000000       0x30 main.o
 .debug_line    0x0000000000000000      0x312 main.o
 .debug_str     0x0000000000000000      0xd07 main.o
 .comment       0x0000000000000000       0x12 main.o
 .note.GNU-stack
                0x0000000000000000        0x0 main.o
 .eh_frame      0x0000000000000000       0x90 main.o
 .debug_info    0x0000000000000000     0x2298 ../../../lib/drv/libdrv.a(remote_audio_pcm.o)
 .debug_abbrev  0x0000000000000000      0x3d2 ../../../lib/drv/libdrv.a(remote_audio_pcm.o)
 .debug_loc     0x0000000000000000      0xef5 ../../../lib/drv/libdrv.a(remote_audio_pcm.o)
 .debug_aranges
                0x0000000000000000       0x20 ../../../lib/drv/libdrv.a(remote_audio_pcm.o)
 .debug_ranges  0x0000000000000000       0xb8 ../../../lib/drv/libdrv.a(remote_audio_pcm.o)
 .debug_line    0x0000000000000000      0x647 ../../../lib/drv/libdrv.a(remote_audio_pcm.o)
 .debug_str     0x0000000000000000     0x198d ../../../lib/drv/libdrv.a(remote_audio_pcm.o)
 .comment       0x0000000000000000       0x12 ../../../lib/drv/libdrv.a(remote_audio_pcm.o)
 .note.GNU-stack
                0x0000000000000000        0x0 ../../../lib/drv/libdrv.a(remote_audio_pcm.o)
 .eh_frame      0x0000000000000000      0x63c ../../../lib/drv/libdrv.a(remote_audio_pcm.o)
 .debug_info    0x0000000000000000      0x183 ../../../lib/drv/libdrv.a(log.o)
 .debug_abbrev  0x0000000000000000      0x108 ../../../lib/drv/libdrv.a(log.o)
 .debug_loc     0x0000000000000000       0x20 ../../../lib/drv/libdrv.a(log.o)
 .debug_aranges
                0x0000000000000000       0x20 ../../../lib/drv/libdrv.a(log.o)
 .debug_line    0x0000000000000000       0xe4 ../../../lib/drv/libdrv.a(log.o)
 .debug_str     0x0000000000000000      0x233 ../../../lib/drv/libdrv.a(log.o)
 .comment       0x0000000000000000       0x12 ../../../lib/drv/libdrv.a(log.o)
 .note.GNU-stack
                0x0000000000000000        0x0 ../../../lib/drv/libdrv.a(log.o)
 .eh_frame      0x0000000000000000       0x58 ../../../lib/drv/libdrv.a(log.o)
 .debug_info    0x0000000000000000     0x1b52 ../../../lib/hound/libhound.a(protocol.o)
 .debug_abbrev  0x0000000000000000      0x3aa ../../../lib/hound/libhound.a(protocol.o)
 .debug_loc     0x0000000000000000      0xa27 ../../../lib/hound/libhound.a(protocol.o)
 .debug_aranges
                0x0000000000000000       0x20 ../../../lib/hound/libhound.a(protocol.o)
 .debug_ranges  0x0000000000000000      0x218 ../../../lib/hound/libhound.a(protocol.o)
 .debug_line    0x0000000000000000      0x58e ../../../lib/hound/libhound.a(protocol.o)
 .debug_str     0x0000000000000000     0x156a ../../../lib/hound/libhound.a(protocol.o)
 .comment       0x0000000000000000       0x12 ../../../lib/hound/libhound.a(protocol.o)
 .note.GNU-stack
                0x0000000000000000        0x0 ../../../lib/hound/libhound.a(protocol.o)
 .eh_frame      0x0000000000000000      0x318 ../../../lib/hound/libhound.a(protocol.o)
 .debug_info    0x0000000000000000     0x126d ../../../lib/pcm/libpcm.a(format.o)
 .debug_abbrev  0x0000000000000000      0x289 ../../../lib/pcm/libpcm.a(format.o)
 .debug_loc     0x0000000000000000     0x21d6 ../../../lib/pcm/libpcm.a(format.o)
 .debug_aranges
                0x0000000000000000       0x20 ../../../lib/pcm/libpcm.a(format.o)
 .debug_ranges  0x0000000000000000      0x5b0 ../../../lib/pcm/libpcm.a(format.o)
 .debug_line    0x0000000000000000      0x51b ../../../lib/pcm/libpcm.a(format.o)
 .debug_str     0x0000000000000000      0x565 ../../../lib/pcm/libpcm.a(format.o)
 .comment       0x0000000000000000       0x12 ../../../lib/pcm/libpcm.a(format.o)
 .note.GNU-stack
                0x0000000000000000        0x0 ../../../lib/pcm/libpcm.a(format.o)
 .eh_frame      0x0000000000000000      0x11c ../../../lib/pcm/libpcm.a(format.o)

Memory Configuration

Name             Origin             Length             Attributes
*default*        0x0000000000000000 0xffffffffffffffff

Linker script and memory map

LOAD /home/ayyuce/Desktop/HlnOS/HelenOS/uspace/lib/c/arch/ia32/src/entry.o
                0x00000000000010f4                . = (0x1000 + SIZEOF_HEADERS)

.init           0x00000000000010f4       0x2e
 *(.init)
 .init          0x00000000000010f4       0x2e /home/ayyuce/Desktop/HlnOS/HelenOS/uspace/lib/c/arch/ia32/src/entry.o
                0x00000000000010f4                __entry

.text           0x0000000000001140     0xa284
 *(.text .text.*)
 .text          0x0000000000001140        0x0 /home/ayyuce/Desktop/HlnOS/HelenOS/uspace/lib/c/arch/ia32/src/entry.o
 .text          0x0000000000001140      0x95a audio_data.o
                0x0000000000001140                audio_data_create
                0x00000000000011e0                audio_data_addref
                0x0000000000001220                audio_data_unref
                0x0000000000001290                audio_pipe_init
                0x00000000000012e0                audio_pipe_fini
                0x00000000000014e0                audio_pipe_push
                0x0000000000001630                audio_pipe_pop
                0x00000000000017f0                audio_pipe_mix_data
 .text.unlikely
                0x0000000000001a9a       0x34 audio_data.o
 *fill*         0x0000000000001ace        0x2 
 .text          0x0000000000001ad0      0xad4 audio_device.o
                0x0000000000002410                audio_device_init
                0x0000000000002500                audio_device_fini
                0x0000000000002510                audio_device_get_source
                0x0000000000002560                audio_device_get_sink
 *fill*         0x00000000000025a4        0xc 
 .text          0x00000000000025b0      0x3cb audio_sink.o
                0x00000000000025b0                audio_sink_init
                0x0000000000002670                audio_sink_fini
                0x00000000000026e0                audio_sink_set_format
                0x0000000000002870                audio_sink_mix_inputs
 *fill*         0x000000000000297b        0x5 
 .text          0x0000000000002980      0x220 audio_source.o
                0x0000000000002980                audio_source_init
                0x0000000000002a50                audio_source_fini
                0x0000000000002a90                audio_source_push_data
 .text          0x0000000000002ba0      0x35e connection.o
                0x0000000000002ba0                connection_create
                0x0000000000002ca0                connection_destroy
                0x0000000000002d90                connection_add_source_data
                0x0000000000002e90                connection_push_data
 *fill*         0x0000000000002efe        0x2 
 .text          0x0000000000002f00     0x12e6 hound.o
                0x0000000000003000                hound_init
                0x0000000000003060                hound_remove_ctx
                0x00000000000031b0                hound_get_ctx_by_id
                0x0000000000003240                hound_add_source
                0x0000000000003390                hound_add_sink
                0x00000000000034e0                hound_add_ctx
                0x00000000000035e0                hound_add_device
                0x00000000000038e0                hound_remove_source
                0x00000000000039e0                hound_remove_sink
                0x0000000000003a40                hound_list_sources
                0x0000000000003bb0                hound_list_sinks
                0x0000000000003d30                hound_list_connections
                0x0000000000003d60                hound_connect
                0x0000000000003fc0                hound_disconnect
 *fill*         0x00000000000041e6        0xa 
 .text          0x00000000000041f0      0xc4f hound_ctx.o
                0x00000000000046c0                hound_record_ctx_get
                0x0000000000004770                hound_playback_ctx_get
                0x0000000000004820                hound_ctx_destroy
                0x00000000000048d0                hound_ctx_get_id
                0x0000000000004900                hound_ctx_is_record
                0x0000000000004930                hound_ctx_create_stream
                0x0000000000004a80                hound_ctx_destroy_stream
                0x0000000000004b80                hound_ctx_stream_write
                0x0000000000004c90                hound_ctx_stream_read
                0x0000000000004d60                hound_ctx_stream_add_self
                0x0000000000004dd0                hound_ctx_stream_drain
 *fill*         0x0000000000004e3f        0x1 
 .text          0x0000000000004e40      0x405 iface.o
 *fill*         0x0000000000005245        0xb 
 .text          0x0000000000005250       0x3a main.o
 *fill*         0x000000000000528a        0x6 
 .text.startup  0x0000000000005290      0x19d main.o
                0x0000000000005290                main
 *fill*         0x000000000000542d        0x3 
 .text          0x0000000000005430     0x1116 ../../../lib/drv/libdrv.a(remote_audio_pcm.o)
                0x0000000000005af0                audio_pcm_cap_str
                0x0000000000005b10                audio_pcm_event_str
                0x0000000000005b30                audio_pcm_open_default
                0x0000000000005bd0                audio_pcm_open
                0x0000000000005c10                audio_pcm_open_service
                0x0000000000005c30                audio_pcm_close
                0x0000000000005c50                audio_pcm_get_info_str
                0x0000000000005d40                audio_pcm_query_cap
                0x0000000000005da0                audio_pcm_get_buffer_pos
                0x0000000000005e20                audio_pcm_test_format
                0x0000000000005f50                audio_pcm_register_event_callback
                0x0000000000005fe0                audio_pcm_unregister_event_callback
                0x0000000000006030                audio_pcm_get_buffer
                0x00000000000060e0                audio_pcm_release_buffer
                0x0000000000006130                audio_pcm_start_playback_fragment
                0x00000000000061c0                audio_pcm_last_playback_fragment
                0x0000000000006210                audio_pcm_start_playback
                0x00000000000062a0                audio_pcm_stop_playback_immediate
                0x00000000000062f0                audio_pcm_stop_playback
                0x0000000000006340                audio_pcm_start_capture_fragment
                0x00000000000063d0                audio_pcm_start_capture
                0x0000000000006460                audio_pcm_last_capture_fragment
                0x00000000000064b0                audio_pcm_stop_capture_immediate
                0x0000000000006500                audio_pcm_stop_capture
 *fill*         0x0000000000006546        0xa 
 .text          0x0000000000006550       0x2e ../../../lib/drv/libdrv.a(log.o)
                0x0000000000006550                ddf_log_init
                0x0000000000006560                ddf_msg
 *fill*         0x000000000000657e        0x2 
 .text          0x0000000000006580     0x10b8 ../../../lib/hound/libhound.a(protocol.o)
                0x0000000000006580                hound_service_connect
                0x00000000000065d0                hound_service_disconnect
                0x00000000000065f0                hound_service_register_context
                0x00000000000066e0                hound_service_unregister_context
                0x0000000000006750                hound_service_get_list
                0x0000000000006a50                hound_service_connect_source_sink
                0x0000000000006b70                hound_service_disconnect_source_sink
                0x0000000000006c60                hound_service_stream_enter
                0x0000000000006cc0                hound_service_stream_exit
                0x0000000000006cf0                hound_service_stream_drain
                0x0000000000006d20                hound_service_stream_write
                0x0000000000006d30                hound_service_stream_read
                0x0000000000006d40                hound_service_set_server_iface
                0x0000000000006d50                hound_connection_handler
                0x00000000000074f0                hound_server_register
                0x0000000000007540                hound_server_unregister
                0x0000000000007550                hound_server_set_device_change_callback
                0x0000000000007560                hound_server_devices_iterate
 *fill*         0x0000000000007638        0x8 
 .text          0x0000000000007640     0x173f ../../../lib/pcm/libpcm.a(format.o)
                0x00000000000078b0                pcm_format_same
                0x0000000000007910                pcm_format_silence
                0x00000000000080f0                pcm_format_convert_and_mix
                0x0000000000008d60                pcm_format_mix
 *(.rodata .rodata.*)
 .rodata.str1.1
                0x0000000000008d7f       0x52 audio_data.o
                                         0x62 (size before relaxing)
 *fill*         0x0000000000008dd1        0x3 
 .rodata.str1.4
                0x0000000000008dd4       0xb0 audio_data.o
 *fill*         0x0000000000008e84       0x1c 
 .rodata        0x0000000000008ea0       0x4c audio_data.o
 .rodata.str1.1
                0x0000000000008eec      0x17c audio_device.o
                                        0x188 (size before relaxing)
 .rodata.str1.4
                0x0000000000009068      0x12d audio_device.o
 *fill*         0x0000000000009195        0xb 
 .rodata        0x00000000000091a0       0x4c audio_device.o
 .rodata.str1.1
                0x00000000000091ec      0x1c3 audio_sink.o
                                        0x1da (size before relaxing)
 *fill*         0x00000000000093af        0x1 
 .rodata.str1.4
                0x00000000000093b0      0x121 audio_sink.o
 *fill*         0x00000000000094d1        0xf 
 .rodata        0x00000000000094e0       0x4c audio_sink.o
 .rodata.str1.1
                0x000000000000952c       0x72 audio_source.o
                                         0x96 (size before relaxing)
 .rodata.str1.1
                0x000000000000959e       0x24 connection.o
                                         0x55 (size before relaxing)
 *fill*         0x00000000000095c2        0x2 
 .rodata.str1.4
                0x00000000000095c4       0xa1 connection.o
 *fill*         0x0000000000009665       0x1b 
 .rodata        0x0000000000009680       0x4c connection.o
 .rodata.str1.1
                0x00000000000096cc      0x130 hound.o
                                        0x197 (size before relaxing)
 .rodata.str1.4
                0x00000000000097fc      0x270 hound.o
 .rodata.str1.1
                0x0000000000009a6c       0x91 hound_ctx.o
                                        0x1df (size before relaxing)
 *fill*         0x0000000000009afd        0x3 
 .rodata.str1.4
                0x0000000000009b00      0x144 hound_ctx.o
                                        0x1d1 (size before relaxing)
 *fill*         0x0000000000009c44       0x1c 
 .rodata        0x0000000000009c60       0xac hound_ctx.o
 .rodata.str1.1
                0x0000000000009d0c       0x63 iface.o
                                        0x190 (size before relaxing)
 .rodata.str1.4
                0x0000000000009d6f       0x8d iface.o
 *fill*         0x0000000000009d6f       0x11 
 .rodata        0x0000000000009d80       0xa5 iface.o
 .rodata.str1.1
                0x0000000000009e25       0x54 main.o
                                         0x5a (size before relaxing)
 *fill*         0x0000000000009e79        0x3 
 .rodata.str1.4
                0x0000000000009e7c       0x7e main.o
 .rodata.str1.1
                0x0000000000009efa      0x1c4 ../../../lib/drv/libdrv.a(remote_audio_pcm.o)
 *fill*         0x000000000000a0be        0x2 
 .rodata.str1.4
                0x000000000000a0c0       0x88 ../../../lib/drv/libdrv.a(remote_audio_pcm.o)
 *fill*         0x000000000000a148       0x18 
 .rodata        0x000000000000a160     0x1070 ../../../lib/drv/libdrv.a(remote_audio_pcm.o)
                0x000000000000b194                remote_audio_pcm_iface
 .rodata.str1.1
                0x000000000000b1d0       0x2a ../../../lib/hound/libhound.a(protocol.o)
                                         0x45 (size before relaxing)
 *fill*         0x000000000000b1fa        0x2 
 .rodata        0x000000000000b1fc       0x20 ../../../lib/hound/libhound.a(protocol.o)
 .rodata.str1.1
                0x000000000000b21c       0x11 ../../../lib/pcm/libpcm.a(format.o)
                                         0x1a (size before relaxing)
 *fill*         0x000000000000b22d       0x13 
 .rodata        0x000000000000b240      0x144 ../../../lib/pcm/libpcm.a(format.o)
                0x000000000000b36c                AUDIO_FORMAT_ANY
                0x000000000000b378                AUDIO_FORMAT_DEFAULT
 .rodata.cst4   0x000000000000b384       0x40 ../../../lib/pcm/libpcm.a(format.o)

.rel.plt        0x000000000000b3c4      0x200
 *(.rel.plt)
 .rel.plt       0x000000000000b3c4      0x200 /home/ayyuce/Desktop/HlnOS/HelenOS/uspace/lib/c/arch/ia32/src/entry.o

.rel.dyn        0x000000000000b5c4       0x10
 *(.rel.*)
 .rel.got       0x000000000000b5c4        0x0 /home/ayyuce/Desktop/HlnOS/HelenOS/uspace/lib/c/arch/ia32/src/entry.o
 .rel.bss       0x000000000000b5c4       0x10 /home/ayyuce/Desktop/HlnOS/HelenOS/uspace/lib/c/arch/ia32/src/entry.o
 .rel.init      0x000000000000b5d4        0x0 /home/ayyuce/Desktop/HlnOS/HelenOS/uspace/lib/c/arch/ia32/src/entry.o
 .rel.text      0x000000000000b5d4        0x0 /home/ayyuce/Desktop/HlnOS/HelenOS/uspace/lib/c/arch/ia32/src/entry.o
 .rel.text.unlikely
                0x000000000000b5d4        0x0 /home/ayyuce/Desktop/HlnOS/HelenOS/uspace/lib/c/arch/ia32/src/entry.o
 .rel.text.startup
                0x000000000000b5d4        0x0 /home/ayyuce/Desktop/HlnOS/HelenOS/uspace/lib/c/arch/ia32/src/entry.o

.plt            0x000000000000b5e0      0x410
 *(.plt)
 .plt           0x000000000000b5e0      0x410 /home/ayyuce/Desktop/HlnOS/HelenOS/uspace/lib/c/arch/ia32/src/entry.o
                0x000000000000b5f0                __main
                0x000000000000b600                loc_category_get_id
                0x000000000000b610                devman_device_connect
                0x000000000000b620                task_retval
                0x000000000000b630                loc_service_connect
                0x000000000000b640                printf
                0x000000000000b650                async_hangup
                0x000000000000b660                async_wait_for
                0x000000000000b670                log_init
                0x000000000000b680                async_data_write_start
                0x000000000000b690                loc_service_register
                0x000000000000b6a0                fibril_mutex_is_locked
                0x000000000000b6b0                async_data_read_finalize
                0x000000000000b6c0                tv_sub_diff
                0x000000000000b6d0                async_share_in_start
                0x000000000000b6e0                malloc
                0x000000000000b6f0                fibril_condvar_signal
                0x000000000000b700                async_req_fast
                0x000000000000b710                loc_service_get_id
                0x000000000000b720                async_data_read_receive_call
                0x000000000000b730                as_area_destroy
                0x000000000000b740                async_answer_0
                0x000000000000b750                fibril_condvar_wait
                0x000000000000b760                async_send_fast
                0x000000000000b770                log_msg
                0x000000000000b780                log_msgv
                0x000000000000b790                async_exchange_end
                0x000000000000b7a0                loc_service_get_name
                0x000000000000b7b0                assert_abort
                0x000000000000b7c0                calloc
                0x000000000000b7d0                fibril_condvar_initialize
                0x000000000000b7e0                loc_register_cat_change_cb
                0x000000000000b7f0                async_data_write_receive_call
                0x000000000000b800                fibril_mutex_unlock
                0x000000000000b810                async_callback_receive_start
                0x000000000000b820                str_dup
                0x000000000000b830                loc_service_unregister
                0x000000000000b840                fibril_mutex_initialize
                0x000000000000b850                async_create_callback_port
                0x000000000000b860                str_cmp
                0x000000000000b870                memset
                0x000000000000b880                async_data_read_receive
                0x000000000000b890                async_data_read_start
                0x000000000000b8a0                async_share_in_receive
                0x000000000000b8b0                getuptime
                0x000000000000b8c0                loc_server_register
                0x000000000000b8d0                loc_category_get_svcs
                0x000000000000b8e0                async_get_call_timeout
                0x000000000000b8f0                str_size
                0x000000000000b900                list_count
                0x000000000000b910                async_answer_1
                0x000000000000b920                async_exchange_begin
                0x000000000000b930                str_error
                0x000000000000b940                devman_fun_get_handle
                0x000000000000b950                async_share_in_finalize
                0x000000000000b960                async_answer_3
                0x000000000000b970                async_data_write_finalize
                0x000000000000b980                async_data_write_accept
                0x000000000000b990                async_forget
                0x000000000000b9a0                fibril_switch
                0x000000000000b9b0                __syscall_fast
                0x000000000000b9c0                async_set_fallback_port_handler
                0x000000000000b9d0                free
                0x000000000000b9e0                fibril_mutex_lock

.dynsym         0x000000000000b9f0      0x450
 *(.dynsym)
 .dynsym        0x000000000000b9f0      0x450 /home/ayyuce/Desktop/HlnOS/HelenOS/uspace/lib/c/arch/ia32/src/entry.o

.dynstr         0x000000000000be40      0x4b0
 *(.dynstr)
 .dynstr        0x000000000000be40      0x4b0 /home/ayyuce/Desktop/HlnOS/HelenOS/uspace/lib/c/arch/ia32/src/entry.o

.hash           0x000000000000c2f0      0x228
 *(.hash)
 .hash          0x000000000000c2f0      0x228 /home/ayyuce/Desktop/HlnOS/HelenOS/uspace/lib/c/arch/ia32/src/entry.o

.interp         0x000000000000c518       0x13
 *(.interp)
 .interp        0x000000000000c518       0x13 /home/ayyuce/Desktop/HlnOS/HelenOS/uspace/lib/c/arch/ia32/src/entry.o
                0x000000000000d52b                . = (. + 0x1000)

.dynamic        0x000000000000d52c       0xa8
 *(.dynamic)
 .dynamic       0x000000000000d52c       0xa8 /home/ayyuce/Desktop/HlnOS/HelenOS/uspace/lib/c/arch/ia32/src/entry.o
                0x000000000000d52c                _DYNAMIC

.data           0x000000000000d5e0       0x34
 *(.data)
 .data          0x000000000000d5e0        0x0 /home/ayyuce/Desktop/HlnOS/HelenOS/uspace/lib/c/arch/ia32/src/entry.o
 .data          0x000000000000d5e0        0x0 audio_data.o
 .data          0x000000000000d5e0        0x0 audio_device.o
 .data          0x000000000000d5e0        0x0 audio_sink.o
 .data          0x000000000000d5e0        0x0 audio_source.o
 .data          0x000000000000d5e0        0x0 connection.o
 .data          0x000000000000d5e0        0x0 hound.o
 .data          0x000000000000d5e0        0x0 hound_ctx.o
 .data          0x000000000000d5e0       0x30 iface.o
                0x000000000000d5e0                hound_iface
 .data          0x000000000000d610        0x0 main.o
 .data          0x000000000000d610        0x0 ../../../lib/drv/libdrv.a(remote_audio_pcm.o)
 .data          0x000000000000d610        0x0 ../../../lib/drv/libdrv.a(log.o)
 .data          0x000000000000d610        0x4 ../../../lib/hound/libhound.a(protocol.o)
                0x000000000000d610                HOUND_SERVICE
 .data          0x000000000000d614        0x0 ../../../lib/pcm/libpcm.a(format.o)

.data.rel
 *(.data.rel .data.rel.*)

.got            0x000000000000d614        0x0
 *(.got)
 .got           0x000000000000d614        0x0 /home/ayyuce/Desktop/HlnOS/HelenOS/uspace/lib/c/arch/ia32/src/entry.o

.got.plt        0x000000000000d614      0x10c
 *(.got.plt)
 .got.plt       0x000000000000d614      0x10c /home/ayyuce/Desktop/HlnOS/HelenOS/uspace/lib/c/arch/ia32/src/entry.o
                0x000000000000d614                _GLOBAL_OFFSET_TABLE_

.tdata
 *(.tdata)
 *(.gnu.linkonce.tb.*)

.tbss
 *(.tbss)

.bss            0x000000000000d720       0x6c
 *(.dynbss)
 .dynbss        0x000000000000d720        0x8 /home/ayyuce/Desktop/HlnOS/HelenOS/uspace/lib/c/arch/ia32/src/entry.o
                0x000000000000d720                __syscall_fast_func
                0x000000000000d724                async_futex
 *(COMMON)
 *(.bss)
 .bss           0x000000000000d728        0x0 /home/ayyuce/Desktop/HlnOS/HelenOS/uspace/lib/c/arch/ia32/src/entry.o
 .bss           0x000000000000d728        0x0 audio_data.o
 .bss           0x000000000000d728        0x0 audio_device.o
 .bss           0x000000000000d728        0x0 audio_sink.o
 .bss           0x000000000000d728        0x0 audio_source.o
 .bss           0x000000000000d728        0x0 connection.o
 .bss           0x000000000000d728        0x0 hound.o
 .bss           0x000000000000d728        0x0 hound_ctx.o
 .bss           0x000000000000d728        0x0 iface.o
 *fill*         0x000000000000d728       0x18 
 .bss           0x000000000000d740       0x38 main.o
 .bss           0x000000000000d778        0x5 ../../../lib/drv/libdrv.a(remote_audio_pcm.o)
 .bss           0x000000000000d77d        0x0 ../../../lib/drv/libdrv.a(log.o)
 *fill*         0x000000000000d77d        0x3 
 .bss           0x000000000000d780        0xc ../../../lib/hound/libhound.a(protocol.o)
 .bss           0x000000000000d78c        0x0 ../../../lib/pcm/libpcm.a(format.o)

/DISCARD/
 *(*)
LOAD audio_data.o
LOAD audio_device.o
LOAD audio_sink.o
LOAD audio_source.o
LOAD connection.o
LOAD hound.o
LOAD hound_ctx.o
LOAD iface.o
LOAD main.o
LOAD ../../../lib/drv/libdrv.a
LOAD ../../../lib/hound/libhound.a
LOAD ../../../lib/pcm/libpcm.a
LOAD ../../../lib/c/libc.so.0
LOAD ../../../lib/softint/libsoftint.so.0
OUTPUT(hound elf32-i386)
