
hound:     file format elf32-i386


Disassembly of section .init:

000010f4 <__entry>:
    10f4:	66 8c d0             	mov    %ss,%ax
    10f7:	8e d8                	mov    %eax,%ds
    10f9:	8e c0                	mov    %eax,%es
    10fb:	8e e0                	mov    %eax,%fs
    10fd:	b8 01 00 00 00       	mov    $0x1,%eax
    1102:	0f a2                	cpuid  
    1104:	0f ba e2 0b          	bt     $0xb,%edx
    1108:	73 0c                	jae    1116 <__entry+0x22>
    110a:	8d 05 20 d7 00 00    	lea    0xd720,%eax
    1110:	c7 00 b0 b9 00 00    	movl   $0xb9b0,(%eax)
    1116:	6a 00                	push   $0x0
    1118:	6a 00                	push   $0x0
    111a:	89 e5                	mov    %esp,%ebp
    111c:	57                   	push   %edi
    111d:	e8 ce a4 00 00       	call   b5f0 <__main@plt>

Disassembly of section .text:

00001140 <audio_data_create>:
    1140:	55                   	push   %ebp
    1141:	89 e5                	mov    %esp,%ebp
    1143:	53                   	push   %ebx
    1144:	83 ec 20             	sub    $0x20,%esp
    1147:	6a 18                	push   $0x18
    1149:	e8 92 a5 00 00       	call   b6e0 <malloc@plt>
    114e:	83 c4 10             	add    $0x10,%esp
    1151:	89 c3                	mov    %eax,%ebx
    1153:	85 c0                	test   %eax,%eax
    1155:	74 3b                	je     1192 <audio_data_create+0x52>
    1157:	8b 45 18             	mov    0x18(%ebp),%eax
    115a:	31 c9                	xor    %ecx,%ecx
    115c:	83 f8 12             	cmp    $0x12,%eax
    115f:	76 3f                	jbe    11a0 <audio_data_create+0x60>
    1161:	31 d2                	xor    %edx,%edx
    1163:	8b 45 0c             	mov    0xc(%ebp),%eax
    1166:	f7 f1                	div    %ecx
    1168:	85 d2                	test   %edx,%edx
    116a:	75 4c                	jne    11b8 <audio_data_create+0x78>
    116c:	8b 45 08             	mov    0x8(%ebp),%eax
    116f:	c7 43 14 01 00 00 00 	movl   $0x1,0x14(%ebx)
    1176:	89 03                	mov    %eax,(%ebx)
    1178:	8b 45 0c             	mov    0xc(%ebp),%eax
    117b:	29 d0                	sub    %edx,%eax
    117d:	89 43 04             	mov    %eax,0x4(%ebx)
    1180:	8b 45 10             	mov    0x10(%ebp),%eax
    1183:	89 43 08             	mov    %eax,0x8(%ebx)
    1186:	8b 45 14             	mov    0x14(%ebp),%eax
    1189:	89 43 0c             	mov    %eax,0xc(%ebx)
    118c:	8b 45 18             	mov    0x18(%ebp),%eax
    118f:	89 43 10             	mov    %eax,0x10(%ebx)
    1192:	89 d8                	mov    %ebx,%eax
    1194:	8b 5d fc             	mov    -0x4(%ebp),%ebx
    1197:	c9                   	leave  
    1198:	c3                   	ret    
    1199:	8d b4 26 00 00 00 00 	lea    0x0(%esi,%eiz,1),%esi
    11a0:	8b 14 85 a0 8e 00 00 	mov    0x8ea0(,%eax,4),%edx
    11a7:	8b 4d 10             	mov    0x10(%ebp),%ecx
    11aa:	0f af ca             	imul   %edx,%ecx
    11ad:	8b 45 0c             	mov    0xc(%ebp),%eax
    11b0:	31 d2                	xor    %edx,%edx
    11b2:	f7 f1                	div    %ecx
    11b4:	85 d2                	test   %edx,%edx
    11b6:	74 b4                	je     116c <audio_data_create+0x2c>
    11b8:	50                   	push   %eax
    11b9:	68 d4 8d 00 00       	push   $0x8dd4
    11be:	6a 02                	push   $0x2
    11c0:	6a ff                	push   $0xffffffff
    11c2:	89 55 f4             	mov    %edx,-0xc(%ebp)
    11c5:	e8 a6 a5 00 00       	call   b770 <log_msg@plt>
    11ca:	83 c4 10             	add    $0x10,%esp
    11cd:	8b 55 f4             	mov    -0xc(%ebp),%edx
    11d0:	eb 9a                	jmp    116c <audio_data_create+0x2c>
    11d2:	8d b4 26 00 00 00 00 	lea    0x0(%esi,%eiz,1),%esi
    11d9:	8d bc 27 00 00 00 00 	lea    0x0(%edi,%eiz,1),%edi

000011e0 <audio_data_addref>:
    11e0:	55                   	push   %ebp
    11e1:	89 e5                	mov    %esp,%ebp
    11e3:	83 ec 08             	sub    $0x8,%esp
    11e6:	8b 45 08             	mov    0x8(%ebp),%eax
    11e9:	85 c0                	test   %eax,%eax
    11eb:	74 0d                	je     11fa <audio_data_addref+0x1a>
    11ed:	8b 50 14             	mov    0x14(%eax),%edx
    11f0:	85 d2                	test   %edx,%edx
    11f2:	74 18                	je     120c <audio_data_addref+0x2c>
    11f4:	f0 ff 40 14          	lock incl 0x14(%eax)
    11f8:	c9                   	leave  
    11f9:	c3                   	ret    
    11fa:	52                   	push   %edx
    11fb:	6a 49                	push   $0x49
    11fd:	68 7f 8d 00 00       	push   $0x8d7f
    1202:	68 9e 8d 00 00       	push   $0x8d9e
    1207:	e8 a4 a5 00 00       	call   b7b0 <assert_abort@plt>
    120c:	50                   	push   %eax
    120d:	6a 4a                	push   $0x4a
    120f:	68 7f 8d 00 00       	push   $0x8d7f
    1214:	68 04 8e 00 00       	push   $0x8e04
    1219:	e8 92 a5 00 00       	call   b7b0 <assert_abort@plt>
    121e:	66 90                	xchg   %ax,%ax

00001220 <audio_data_unref>:
    1220:	55                   	push   %ebp
    1221:	89 e5                	mov    %esp,%ebp
    1223:	53                   	push   %ebx
    1224:	53                   	push   %ebx
    1225:	8b 5d 08             	mov    0x8(%ebp),%ebx
    1228:	85 db                	test   %ebx,%ebx
    122a:	74 36                	je     1262 <audio_data_unref+0x42>
    122c:	8b 43 14             	mov    0x14(%ebx),%eax
    122f:	85 c0                	test   %eax,%eax
    1231:	74 41                	je     1274 <audio_data_unref+0x54>
    1233:	83 c8 ff             	or     $0xffffffff,%eax
    1236:	f0 0f c1 43 14       	lock xadd %eax,0x14(%ebx)
    123b:	48                   	dec    %eax
    123c:	74 0a                	je     1248 <audio_data_unref+0x28>
    123e:	8b 5d fc             	mov    -0x4(%ebp),%ebx
    1241:	c9                   	leave  
    1242:	c3                   	ret    
    1243:	90                   	nop
    1244:	8d 74 26 00          	lea    0x0(%esi,%eiz,1),%esi
    1248:	83 ec 0c             	sub    $0xc,%esp
    124b:	8b 03                	mov    (%ebx),%eax
    124d:	50                   	push   %eax
    124e:	e8 7d a7 00 00       	call   b9d0 <free@plt>
    1253:	89 5d 08             	mov    %ebx,0x8(%ebp)
    1256:	83 c4 10             	add    $0x10,%esp
    1259:	8b 5d fc             	mov    -0x4(%ebp),%ebx
    125c:	c9                   	leave  
    125d:	e9 6e a7 00 00       	jmp    b9d0 <free@plt>
    1262:	51                   	push   %ecx
    1263:	6a 54                	push   $0x54
    1265:	68 7f 8d 00 00       	push   $0x8d7f
    126a:	68 9e 8d 00 00       	push   $0x8d9e
    126f:	e8 3c a5 00 00       	call   b7b0 <assert_abort@plt>
    1274:	52                   	push   %edx
    1275:	6a 55                	push   $0x55
    1277:	68 7f 8d 00 00       	push   $0x8d7f
    127c:	68 04 8e 00 00       	push   $0x8e04
    1281:	e8 2a a5 00 00       	call   b7b0 <assert_abort@plt>
    1286:	8d 76 00             	lea    0x0(%esi),%esi
    1289:	8d bc 27 00 00 00 00 	lea    0x0(%edi,%eiz,1),%edi

00001290 <audio_pipe_init>:
    1290:	55                   	push   %ebp
    1291:	89 e5                	mov    %esp,%ebp
    1293:	53                   	push   %ebx
    1294:	52                   	push   %edx
    1295:	8b 5d 08             	mov    0x8(%ebp),%ebx
    1298:	85 db                	test   %ebx,%ebx
    129a:	74 27                	je     12c3 <audio_pipe_init+0x33>
    129c:	83 ec 0c             	sub    $0xc,%esp
    129f:	89 1b                	mov    %ebx,(%ebx)
    12a1:	89 5b 04             	mov    %ebx,0x4(%ebx)
    12a4:	8d 43 10             	lea    0x10(%ebx),%eax
    12a7:	50                   	push   %eax
    12a8:	e8 93 a5 00 00       	call   b840 <fibril_mutex_initialize@plt>
    12ad:	c7 43 0c 00 00 00 00 	movl   $0x0,0xc(%ebx)
    12b4:	c7 43 08 00 00 00 00 	movl   $0x0,0x8(%ebx)
    12bb:	83 c4 10             	add    $0x10,%esp
    12be:	8b 5d fc             	mov    -0x4(%ebp),%ebx
    12c1:	c9                   	leave  
    12c2:	c3                   	ret    
    12c3:	50                   	push   %eax
    12c4:	68 bd 00 00 00       	push   $0xbd
    12c9:	68 7f 8d 00 00       	push   $0x8d7f
    12ce:	68 92 8d 00 00       	push   $0x8d92
    12d3:	e8 d8 a4 00 00       	call   b7b0 <assert_abort@plt>
    12d8:	90                   	nop
    12d9:	8d b4 26 00 00 00 00 	lea    0x0(%esi,%eiz,1),%esi

000012e0 <audio_pipe_fini>:
    12e0:	55                   	push   %ebp
    12e1:	89 e5                	mov    %esp,%ebp
    12e3:	57                   	push   %edi
    12e4:	56                   	push   %esi
    12e5:	53                   	push   %ebx
    12e6:	83 ec 1c             	sub    $0x1c,%esp
    12e9:	8b 7d 08             	mov    0x8(%ebp),%edi
    12ec:	85 ff                	test   %edi,%edi
    12ee:	0f 84 d3 01 00 00    	je     14c7 <audio_pipe_fini+0x1e7>
    12f4:	8d 47 10             	lea    0x10(%edi),%eax
    12f7:	89 45 e4             	mov    %eax,-0x1c(%ebp)
    12fa:	8d b6 00 00 00 00    	lea    0x0(%esi),%esi
    1300:	39 7f 04             	cmp    %edi,0x4(%edi)
    1303:	0f 84 28 01 00 00    	je     1431 <audio_pipe_fini+0x151>
    1309:	83 ec 0c             	sub    $0xc,%esp
    130c:	8b 75 e4             	mov    -0x1c(%ebp),%esi
    130f:	56                   	push   %esi
    1310:	e8 cb a6 00 00       	call   b9e0 <fibril_mutex_lock@plt>
    1315:	8b 77 04             	mov    0x4(%edi),%esi
    1318:	83 c4 10             	add    $0x10,%esp
    131b:	39 fe                	cmp    %edi,%esi
    131d:	0f 84 35 01 00 00    	je     1458 <audio_pipe_fini+0x178>
    1323:	85 f6                	test   %esi,%esi
    1325:	0f 84 2d 01 00 00    	je     1458 <audio_pipe_fini+0x178>
    132b:	8b 16                	mov    (%esi),%edx
    132d:	85 d2                	test   %edx,%edx
    132f:	74 0e                	je     133f <audio_pipe_fini+0x5f>
    1331:	8b 46 04             	mov    0x4(%esi),%eax
    1334:	85 c0                	test   %eax,%eax
    1336:	74 07                	je     133f <audio_pipe_fini+0x5f>
    1338:	89 10                	mov    %edx,(%eax)
    133a:	8b 16                	mov    (%esi),%edx
    133c:	89 42 04             	mov    %eax,0x4(%edx)
    133f:	8b 5e 08             	mov    0x8(%esi),%ebx
    1342:	c7 06 00 00 00 00    	movl   $0x0,(%esi)
    1348:	c7 46 04 00 00 00 00 	movl   $0x0,0x4(%esi)
    134f:	85 db                	test   %ebx,%ebx
    1351:	0f 84 5b 01 00 00    	je     14b2 <audio_pipe_fini+0x1d2>
    1357:	8b 56 0c             	mov    0xc(%esi),%edx
    135a:	8b 43 04             	mov    0x4(%ebx),%eax
    135d:	39 c2                	cmp    %eax,%edx
    135f:	0f 87 38 01 00 00    	ja     149d <audio_pipe_fini+0x1bd>
    1365:	29 d0                	sub    %edx,%eax
    1367:	8b 57 08             	mov    0x8(%edi),%edx
    136a:	29 c2                	sub    %eax,%edx
    136c:	31 c9                	xor    %ecx,%ecx
    136e:	89 57 08             	mov    %edx,0x8(%edi)
    1371:	8b 53 10             	mov    0x10(%ebx),%edx
    1374:	83 fa 12             	cmp    $0x12,%edx
    1377:	77 0b                	ja     1384 <audio_pipe_fini+0xa4>
    1379:	8b 4b 08             	mov    0x8(%ebx),%ecx
    137c:	0f af 0c 95 a0 8e 00 	imul   0x8ea0(,%edx,4),%ecx
    1383:	00 
    1384:	8d 44 08 ff          	lea    -0x1(%eax,%ecx,1),%eax
    1388:	31 d2                	xor    %edx,%edx
    138a:	f7 f1                	div    %ecx
    138c:	8b 4f 0c             	mov    0xc(%edi),%ecx
    138f:	29 c1                	sub    %eax,%ecx
    1391:	8b 43 14             	mov    0x14(%ebx),%eax
    1394:	89 4f 0c             	mov    %ecx,0xc(%edi)
    1397:	85 c0                	test   %eax,%eax
    1399:	0f 84 ec 00 00 00    	je     148b <audio_pipe_fini+0x1ab>
    139f:	f0 ff 43 14          	lock incl 0x14(%ebx)
    13a3:	8b 06                	mov    (%esi),%eax
    13a5:	85 c0                	test   %eax,%eax
    13a7:	74 1f                	je     13c8 <audio_pipe_fini+0xe8>
    13a9:	8b 46 04             	mov    0x4(%esi),%eax
    13ac:	85 c0                	test   %eax,%eax
    13ae:	74 18                	je     13c8 <audio_pipe_fini+0xe8>
    13b0:	52                   	push   %edx
    13b1:	68 89 00 00 00       	push   $0x89
    13b6:	68 7f 8d 00 00       	push   $0x8d7f
    13bb:	68 a4 8d 00 00       	push   $0x8da4
    13c0:	e8 eb a3 00 00       	call   b7b0 <assert_abort@plt>
    13c5:	8d 76 00             	lea    0x0(%esi),%esi
    13c8:	85 db                	test   %ebx,%ebx
    13ca:	0f 84 97 00 00 00    	je     1467 <audio_pipe_fini+0x187>
    13d0:	8b 43 14             	mov    0x14(%ebx),%eax
    13d3:	85 c0                	test   %eax,%eax
    13d5:	0f 84 9e 00 00 00    	je     1479 <audio_pipe_fini+0x199>
    13db:	83 c8 ff             	or     $0xffffffff,%eax
    13de:	f0 0f c1 43 14       	lock xadd %eax,0x14(%ebx)
    13e3:	48                   	dec    %eax
    13e4:	74 5a                	je     1440 <audio_pipe_fini+0x160>
    13e6:	83 ec 0c             	sub    $0xc,%esp
    13e9:	56                   	push   %esi
    13ea:	e8 e1 a5 00 00       	call   b9d0 <free@plt>
    13ef:	8b 45 e4             	mov    -0x1c(%ebp),%eax
    13f2:	5e                   	pop    %esi
    13f3:	50                   	push   %eax
    13f4:	e8 07 a4 00 00       	call   b800 <fibril_mutex_unlock@plt>
    13f9:	8b 43 14             	mov    0x14(%ebx),%eax
    13fc:	83 c4 10             	add    $0x10,%esp
    13ff:	85 c0                	test   %eax,%eax
    1401:	74 76                	je     1479 <audio_pipe_fini+0x199>
    1403:	83 c8 ff             	or     $0xffffffff,%eax
    1406:	f0 0f c1 43 14       	lock xadd %eax,0x14(%ebx)
    140b:	48                   	dec    %eax
    140c:	0f 85 ee fe ff ff    	jne    1300 <audio_pipe_fini+0x20>
    1412:	83 ec 0c             	sub    $0xc,%esp
    1415:	8b 0b                	mov    (%ebx),%ecx
    1417:	51                   	push   %ecx
    1418:	e8 b3 a5 00 00       	call   b9d0 <free@plt>
    141d:	89 1c 24             	mov    %ebx,(%esp)
    1420:	e8 ab a5 00 00       	call   b9d0 <free@plt>
    1425:	83 c4 10             	add    $0x10,%esp
    1428:	39 7f 04             	cmp    %edi,0x4(%edi)
    142b:	0f 85 d8 fe ff ff    	jne    1309 <audio_pipe_fini+0x29>
    1431:	8d 65 f4             	lea    -0xc(%ebp),%esp
    1434:	5b                   	pop    %ebx
    1435:	5e                   	pop    %esi
    1436:	5f                   	pop    %edi
    1437:	5d                   	pop    %ebp
    1438:	c3                   	ret    
    1439:	8d b4 26 00 00 00 00 	lea    0x0(%esi,%eiz,1),%esi
    1440:	83 ec 0c             	sub    $0xc,%esp
    1443:	8b 03                	mov    (%ebx),%eax
    1445:	50                   	push   %eax
    1446:	e8 85 a5 00 00       	call   b9d0 <free@plt>
    144b:	89 1c 24             	mov    %ebx,(%esp)
    144e:	e8 7d a5 00 00       	call   b9d0 <free@plt>
    1453:	83 c4 10             	add    $0x10,%esp
    1456:	eb 8e                	jmp    13e6 <audio_pipe_fini+0x106>
    1458:	83 ec 0c             	sub    $0xc,%esp
    145b:	8b 45 e4             	mov    -0x1c(%ebp),%eax
    145e:	50                   	push   %eax
    145f:	e8 9c a3 00 00       	call   b800 <fibril_mutex_unlock@plt>
    1464:	83 c4 10             	add    $0x10,%esp
    1467:	50                   	push   %eax
    1468:	6a 54                	push   $0x54
    146a:	68 7f 8d 00 00       	push   $0x8d7f
    146f:	68 9e 8d 00 00       	push   $0x8d9e
    1474:	e8 37 a3 00 00       	call   b7b0 <assert_abort@plt>
    1479:	50                   	push   %eax
    147a:	6a 55                	push   $0x55
    147c:	68 7f 8d 00 00       	push   $0x8d7f
    1481:	68 04 8e 00 00       	push   $0x8e04
    1486:	e8 25 a3 00 00       	call   b7b0 <assert_abort@plt>
    148b:	52                   	push   %edx
    148c:	6a 4a                	push   $0x4a
    148e:	68 7f 8d 00 00       	push   $0x8d7f
    1493:	68 04 8e 00 00       	push   $0x8e04
    1498:	e8 13 a3 00 00       	call   b7b0 <assert_abort@plt>
    149d:	51                   	push   %ecx
    149e:	68 a3 00 00 00       	push   $0xa3
    14a3:	68 7f 8d 00 00       	push   $0x8d7f
    14a8:	68 28 8e 00 00       	push   $0x8e28
    14ad:	e8 fe a2 00 00       	call   b7b0 <assert_abort@plt>
    14b2:	53                   	push   %ebx
    14b3:	68 a2 00 00 00       	push   $0xa2
    14b8:	68 7f 8d 00 00       	push   $0x8d7f
    14bd:	68 97 8d 00 00       	push   $0x8d97
    14c2:	e8 e9 a2 00 00       	call   b7b0 <assert_abort@plt>
    14c7:	57                   	push   %edi
    14c8:	68 ca 00 00 00       	push   $0xca
    14cd:	68 7f 8d 00 00       	push   $0x8d7f
    14d2:	68 92 8d 00 00       	push   $0x8d92
    14d7:	e8 d4 a2 00 00       	call   b7b0 <assert_abort@plt>
    14dc:	8d 74 26 00          	lea    0x0(%esi,%eiz,1),%esi

000014e0 <audio_pipe_push>:
    14e0:	55                   	push   %ebp
    14e1:	89 e5                	mov    %esp,%ebp
    14e3:	57                   	push   %edi
    14e4:	56                   	push   %esi
    14e5:	53                   	push   %ebx
    14e6:	83 ec 0c             	sub    $0xc,%esp
    14e9:	8b 75 08             	mov    0x8(%ebp),%esi
    14ec:	8b 7d 0c             	mov    0xc(%ebp),%edi
    14ef:	85 f6                	test   %esi,%esi
    14f1:	0f 84 db 00 00 00    	je     15d2 <audio_pipe_push+0xf2>
    14f7:	85 ff                	test   %edi,%edi
    14f9:	0f 84 be 00 00 00    	je     15bd <audio_pipe_push+0xdd>
    14ff:	83 ec 0c             	sub    $0xc,%esp
    1502:	6a 10                	push   $0x10
    1504:	e8 d7 a1 00 00       	call   b6e0 <malloc@plt>
    1509:	83 c4 10             	add    $0x10,%esp
    150c:	89 c3                	mov    %eax,%ebx
    150e:	85 c0                	test   %eax,%eax
    1510:	0f 84 9a 00 00 00    	je     15b0 <audio_pipe_push+0xd0>
    1516:	8b 47 14             	mov    0x14(%edi),%eax
    1519:	85 c0                	test   %eax,%eax
    151b:	0f 84 f0 00 00 00    	je     1611 <audio_pipe_push+0x131>
    1521:	f0 ff 47 14          	lock incl 0x14(%edi)
    1525:	83 ec 0c             	sub    $0xc,%esp
    1528:	89 7b 08             	mov    %edi,0x8(%ebx)
    152b:	c7 43 0c 00 00 00 00 	movl   $0x0,0xc(%ebx)
    1532:	8d 7e 10             	lea    0x10(%esi),%edi
    1535:	57                   	push   %edi
    1536:	e8 a5 a4 00 00       	call   b9e0 <fibril_mutex_lock@plt>
    153b:	8b 06                	mov    (%esi),%eax
    153d:	8b 4b 08             	mov    0x8(%ebx),%ecx
    1540:	89 73 04             	mov    %esi,0x4(%ebx)
    1543:	89 03                	mov    %eax,(%ebx)
    1545:	83 c4 10             	add    $0x10,%esp
    1548:	89 58 04             	mov    %ebx,0x4(%eax)
    154b:	85 c9                	test   %ecx,%ecx
    154d:	89 1e                	mov    %ebx,(%esi)
    154f:	0f 84 a7 00 00 00    	je     15fc <audio_pipe_push+0x11c>
    1555:	8b 43 0c             	mov    0xc(%ebx),%eax
    1558:	8b 51 04             	mov    0x4(%ecx),%edx
    155b:	39 d0                	cmp    %edx,%eax
    155d:	0f 87 84 00 00 00    	ja     15e7 <audio_pipe_push+0x107>
    1563:	29 c2                	sub    %eax,%edx
    1565:	8b 5e 08             	mov    0x8(%esi),%ebx
    1568:	01 d3                	add    %edx,%ebx
    156a:	8b 41 10             	mov    0x10(%ecx),%eax
    156d:	89 5e 08             	mov    %ebx,0x8(%esi)
    1570:	31 db                	xor    %ebx,%ebx
    1572:	83 f8 12             	cmp    $0x12,%eax
    1575:	77 0d                	ja     1584 <audio_pipe_push+0xa4>
    1577:	8b 59 08             	mov    0x8(%ecx),%ebx
    157a:	8b 0c 85 a0 8e 00 00 	mov    0x8ea0(,%eax,4),%ecx
    1581:	0f af d9             	imul   %ecx,%ebx
    1584:	8d 44 13 ff          	lea    -0x1(%ebx,%edx,1),%eax
    1588:	31 d2                	xor    %edx,%edx
    158a:	f7 f3                	div    %ebx
    158c:	83 ec 0c             	sub    $0xc,%esp
    158f:	8b 56 0c             	mov    0xc(%esi),%edx
    1592:	01 c2                	add    %eax,%edx
    1594:	89 56 0c             	mov    %edx,0xc(%esi)
    1597:	57                   	push   %edi
    1598:	e8 63 a2 00 00       	call   b800 <fibril_mutex_unlock@plt>
    159d:	83 c4 10             	add    $0x10,%esp
    15a0:	8d 65 f4             	lea    -0xc(%ebp),%esp
    15a3:	31 c0                	xor    %eax,%eax
    15a5:	5b                   	pop    %ebx
    15a6:	5e                   	pop    %esi
    15a7:	5f                   	pop    %edi
    15a8:	5d                   	pop    %ebp
    15a9:	c3                   	ret    
    15aa:	8d b6 00 00 00 00    	lea    0x0(%esi),%esi
    15b0:	8d 65 f4             	lea    -0xc(%ebp),%esp
    15b3:	b8 fe ff ff ff       	mov    $0xfffffffe,%eax
    15b8:	5b                   	pop    %ebx
    15b9:	5e                   	pop    %esi
    15ba:	5f                   	pop    %edi
    15bb:	5d                   	pop    %ebp
    15bc:	c3                   	ret    
    15bd:	50                   	push   %eax
    15be:	68 da 00 00 00       	push   $0xda
    15c3:	68 7f 8d 00 00       	push   $0x8d7f
    15c8:	68 28 90 00 00       	push   $0x9028
    15cd:	e8 de a1 00 00       	call   b7b0 <assert_abort@plt>
    15d2:	50                   	push   %eax
    15d3:	68 d9 00 00 00       	push   $0xd9
    15d8:	68 7f 8d 00 00       	push   $0x8d7f
    15dd:	68 92 8d 00 00       	push   $0x8d92
    15e2:	e8 c9 a1 00 00       	call   b7b0 <assert_abort@plt>
    15e7:	56                   	push   %esi
    15e8:	68 a3 00 00 00       	push   $0xa3
    15ed:	68 7f 8d 00 00       	push   $0x8d7f
    15f2:	68 28 8e 00 00       	push   $0x8e28
    15f7:	e8 b4 a1 00 00       	call   b7b0 <assert_abort@plt>
    15fc:	57                   	push   %edi
    15fd:	68 a2 00 00 00       	push   $0xa2
    1602:	68 7f 8d 00 00       	push   $0x8d7f
    1607:	68 97 8d 00 00       	push   $0x8d97
    160c:	e8 9f a1 00 00       	call   b7b0 <assert_abort@plt>
    1611:	50                   	push   %eax
    1612:	6a 4a                	push   $0x4a
    1614:	68 7f 8d 00 00       	push   $0x8d7f
    1619:	68 04 8e 00 00       	push   $0x8e04
    161e:	e8 8d a1 00 00       	call   b7b0 <assert_abort@plt>
    1623:	8d b6 00 00 00 00    	lea    0x0(%esi),%esi
    1629:	8d bc 27 00 00 00 00 	lea    0x0(%edi,%eiz,1),%edi

00001630 <audio_pipe_pop>:
    1630:	55                   	push   %ebp
    1631:	89 e5                	mov    %esp,%ebp
    1633:	57                   	push   %edi
    1634:	56                   	push   %esi
    1635:	53                   	push   %ebx
    1636:	83 ec 1c             	sub    $0x1c,%esp
    1639:	8b 7d 08             	mov    0x8(%ebp),%edi
    163c:	85 ff                	test   %edi,%edi
    163e:	0f 84 1c 01 00 00    	je     1760 <audio_pipe_pop+0x130>
    1644:	83 ec 0c             	sub    $0xc,%esp
    1647:	8d 47 10             	lea    0x10(%edi),%eax
    164a:	89 45 e4             	mov    %eax,-0x1c(%ebp)
    164d:	50                   	push   %eax
    164e:	e8 8d a3 00 00       	call   b9e0 <fibril_mutex_lock@plt>
    1653:	8b 77 04             	mov    0x4(%edi),%esi
    1656:	83 c4 10             	add    $0x10,%esp
    1659:	85 f6                	test   %esi,%esi
    165b:	0f 84 74 01 00 00    	je     17d5 <audio_pipe_pop+0x1a5>
    1661:	39 f7                	cmp    %esi,%edi
    1663:	0f 84 6c 01 00 00    	je     17d5 <audio_pipe_pop+0x1a5>
    1669:	8b 16                	mov    (%esi),%edx
    166b:	85 d2                	test   %edx,%edx
    166d:	74 0e                	je     167d <audio_pipe_pop+0x4d>
    166f:	8b 46 04             	mov    0x4(%esi),%eax
    1672:	85 c0                	test   %eax,%eax
    1674:	74 07                	je     167d <audio_pipe_pop+0x4d>
    1676:	89 10                	mov    %edx,(%eax)
    1678:	8b 16                	mov    (%esi),%edx
    167a:	89 42 04             	mov    %eax,0x4(%edx)
    167d:	8b 5e 08             	mov    0x8(%esi),%ebx
    1680:	c7 06 00 00 00 00    	movl   $0x0,(%esi)
    1686:	c7 46 04 00 00 00 00 	movl   $0x0,0x4(%esi)
    168d:	89 5d e0             	mov    %ebx,-0x20(%ebp)
    1690:	85 db                	test   %ebx,%ebx
    1692:	0f 84 28 01 00 00    	je     17c0 <audio_pipe_pop+0x190>
    1698:	8b 56 0c             	mov    0xc(%esi),%edx
    169b:	8b 43 04             	mov    0x4(%ebx),%eax
    169e:	39 c2                	cmp    %eax,%edx
    16a0:	0f 87 05 01 00 00    	ja     17ab <audio_pipe_pop+0x17b>
    16a6:	29 d0                	sub    %edx,%eax
    16a8:	8b 57 08             	mov    0x8(%edi),%edx
    16ab:	29 c2                	sub    %eax,%edx
    16ad:	31 c9                	xor    %ecx,%ecx
    16af:	89 57 08             	mov    %edx,0x8(%edi)
    16b2:	8b 53 10             	mov    0x10(%ebx),%edx
    16b5:	83 fa 12             	cmp    $0x12,%edx
    16b8:	77 0b                	ja     16c5 <audio_pipe_pop+0x95>
    16ba:	8b 4b 08             	mov    0x8(%ebx),%ecx
    16bd:	0f af 0c 95 a0 8e 00 	imul   0x8ea0(,%edx,4),%ecx
    16c4:	00 
    16c5:	31 d2                	xor    %edx,%edx
    16c7:	8d 44 08 ff          	lea    -0x1(%eax,%ecx,1),%eax
    16cb:	f7 f1                	div    %ecx
    16cd:	8b 57 0c             	mov    0xc(%edi),%edx
    16d0:	29 c2                	sub    %eax,%edx
    16d2:	8b 43 14             	mov    0x14(%ebx),%eax
    16d5:	89 57 0c             	mov    %edx,0xc(%edi)
    16d8:	85 c0                	test   %eax,%eax
    16da:	0f 84 b9 00 00 00    	je     1799 <audio_pipe_pop+0x169>
    16e0:	f0 ff 43 14          	lock incl 0x14(%ebx)
    16e4:	8b 06                	mov    (%esi),%eax
    16e6:	85 c0                	test   %eax,%eax
    16e8:	74 1e                	je     1708 <audio_pipe_pop+0xd8>
    16ea:	8b 7e 04             	mov    0x4(%esi),%edi
    16ed:	85 ff                	test   %edi,%edi
    16ef:	74 17                	je     1708 <audio_pipe_pop+0xd8>
    16f1:	52                   	push   %edx
    16f2:	68 89 00 00 00       	push   $0x89
    16f7:	68 7f 8d 00 00       	push   $0x8d7f
    16fc:	68 a4 8d 00 00       	push   $0x8da4
    1701:	e8 aa a0 00 00       	call   b7b0 <assert_abort@plt>
    1706:	66 90                	xchg   %ax,%ax
    1708:	85 db                	test   %ebx,%ebx
    170a:	74 7b                	je     1787 <audio_pipe_pop+0x157>
    170c:	8b 43 14             	mov    0x14(%ebx),%eax
    170f:	85 c0                	test   %eax,%eax
    1711:	74 62                	je     1775 <audio_pipe_pop+0x145>
    1713:	83 c8 ff             	or     $0xffffffff,%eax
    1716:	f0 0f c1 43 14       	lock xadd %eax,0x14(%ebx)
    171b:	48                   	dec    %eax
    171c:	74 2a                	je     1748 <audio_pipe_pop+0x118>
    171e:	83 ec 0c             	sub    $0xc,%esp
    1721:	56                   	push   %esi
    1722:	e8 a9 a2 00 00       	call   b9d0 <free@plt>
    1727:	83 c4 10             	add    $0x10,%esp
    172a:	83 ec 0c             	sub    $0xc,%esp
    172d:	8b 45 e4             	mov    -0x1c(%ebp),%eax
    1730:	50                   	push   %eax
    1731:	e8 ca a0 00 00       	call   b800 <fibril_mutex_unlock@plt>
    1736:	8b 45 e0             	mov    -0x20(%ebp),%eax
    1739:	8d 65 f4             	lea    -0xc(%ebp),%esp
    173c:	5b                   	pop    %ebx
    173d:	5e                   	pop    %esi
    173e:	5f                   	pop    %edi
    173f:	5d                   	pop    %ebp
    1740:	c3                   	ret    
    1741:	8d b4 26 00 00 00 00 	lea    0x0(%esi,%eiz,1),%esi
    1748:	83 ec 0c             	sub    $0xc,%esp
    174b:	8b 0b                	mov    (%ebx),%ecx
    174d:	51                   	push   %ecx
    174e:	e8 7d a2 00 00       	call   b9d0 <free@plt>
    1753:	89 1c 24             	mov    %ebx,(%esp)
    1756:	e8 75 a2 00 00       	call   b9d0 <free@plt>
    175b:	83 c4 10             	add    $0x10,%esp
    175e:	eb be                	jmp    171e <audio_pipe_pop+0xee>
    1760:	56                   	push   %esi
    1761:	68 ee 00 00 00       	push   $0xee
    1766:	68 7f 8d 00 00       	push   $0x8d7f
    176b:	68 92 8d 00 00       	push   $0x8d92
    1770:	e8 3b a0 00 00       	call   b7b0 <assert_abort@plt>
    1775:	53                   	push   %ebx
    1776:	6a 55                	push   $0x55
    1778:	68 7f 8d 00 00       	push   $0x8d7f
    177d:	68 04 8e 00 00       	push   $0x8e04
    1782:	e8 29 a0 00 00       	call   b7b0 <assert_abort@plt>
    1787:	56                   	push   %esi
    1788:	6a 54                	push   $0x54
    178a:	68 7f 8d 00 00       	push   $0x8d7f
    178f:	68 9e 8d 00 00       	push   $0x8d9e
    1794:	e8 17 a0 00 00       	call   b7b0 <assert_abort@plt>
    1799:	50                   	push   %eax
    179a:	6a 4a                	push   $0x4a
    179c:	68 7f 8d 00 00       	push   $0x8d7f
    17a1:	68 04 8e 00 00       	push   $0x8e04
    17a6:	e8 05 a0 00 00       	call   b7b0 <assert_abort@plt>
    17ab:	51                   	push   %ecx
    17ac:	68 a3 00 00 00       	push   $0xa3
    17b1:	68 7f 8d 00 00       	push   $0x8d7f
    17b6:	68 28 8e 00 00       	push   $0x8e28
    17bb:	e8 f0 9f 00 00       	call   b7b0 <assert_abort@plt>
    17c0:	53                   	push   %ebx
    17c1:	68 a2 00 00 00       	push   $0xa2
    17c6:	68 7f 8d 00 00       	push   $0x8d7f
    17cb:	68 97 8d 00 00       	push   $0x8d97
    17d0:	e8 db 9f 00 00       	call   b7b0 <assert_abort@plt>
    17d5:	c7 45 e0 00 00 00 00 	movl   $0x0,-0x20(%ebp)
    17dc:	e9 49 ff ff ff       	jmp    172a <audio_pipe_pop+0xfa>
    17e1:	eb 0d                	jmp    17f0 <audio_pipe_mix_data>
    17e3:	90                   	nop
    17e4:	90                   	nop
    17e5:	90                   	nop
    17e6:	90                   	nop
    17e7:	90                   	nop
    17e8:	90                   	nop
    17e9:	90                   	nop
    17ea:	90                   	nop
    17eb:	90                   	nop
    17ec:	90                   	nop
    17ed:	90                   	nop
    17ee:	90                   	nop
    17ef:	90                   	nop

000017f0 <audio_pipe_mix_data>:
    17f0:	55                   	push   %ebp
    17f1:	89 e5                	mov    %esp,%ebp
    17f3:	57                   	push   %edi
    17f4:	56                   	push   %esi
    17f5:	53                   	push   %ebx
    17f6:	83 ec 2c             	sub    $0x2c,%esp
    17f9:	8b 45 08             	mov    0x8(%ebp),%eax
    17fc:	85 c0                	test   %eax,%eax
    17fe:	0f 84 81 02 00 00    	je     1a85 <audio_pipe_mix_data+0x295>
    1804:	8b 45 14             	mov    0x14(%ebp),%eax
    1807:	c7 45 d4 00 00 00 00 	movl   $0x0,-0x2c(%ebp)
    180e:	8b 40 08             	mov    0x8(%eax),%eax
    1811:	83 f8 12             	cmp    $0x12,%eax
    1814:	77 12                	ja     1828 <audio_pipe_mix_data+0x38>
    1816:	8b 7d 14             	mov    0x14(%ebp),%edi
    1819:	8b 34 85 a0 8e 00 00 	mov    0x8ea0(,%eax,4),%esi
    1820:	8b 17                	mov    (%edi),%edx
    1822:	0f af d6             	imul   %esi,%edx
    1825:	89 55 d4             	mov    %edx,-0x2c(%ebp)
    1828:	8b 7d d4             	mov    -0x2c(%ebp),%edi
    182b:	8b 45 10             	mov    0x10(%ebp),%eax
    182e:	31 d2                	xor    %edx,%edx
    1830:	83 ec 0c             	sub    $0xc,%esp
    1833:	8d 44 07 ff          	lea    -0x1(%edi,%eax,1),%eax
    1837:	f7 f7                	div    %edi
    1839:	89 c6                	mov    %eax,%esi
    183b:	89 45 e4             	mov    %eax,-0x1c(%ebp)
    183e:	8b 45 08             	mov    0x8(%ebp),%eax
    1841:	8d 78 10             	lea    0x10(%eax),%edi
    1844:	57                   	push   %edi
    1845:	89 7d d0             	mov    %edi,-0x30(%ebp)
    1848:	e8 93 a1 00 00       	call   b9e0 <fibril_mutex_lock@plt>
    184d:	83 c4 10             	add    $0x10,%esp
    1850:	85 f6                	test   %esi,%esi
    1852:	0f 84 c3 01 00 00    	je     1a1b <audio_pipe_mix_data+0x22b>
    1858:	8b 45 08             	mov    0x8(%ebp),%eax
    185b:	c7 45 d8 00 00 00 00 	movl   $0x0,-0x28(%ebp)
    1862:	8b 70 04             	mov    0x4(%eax),%esi
    1865:	89 f7                	mov    %esi,%edi
    1867:	39 c6                	cmp    %eax,%esi
    1869:	0f 85 2a 01 00 00    	jne    1999 <audio_pipe_mix_data+0x1a9>
    186f:	e9 a7 01 00 00       	jmp    1a1b <audio_pipe_mix_data+0x22b>
    1874:	8d 74 26 00          	lea    0x0(%esi,%eiz,1),%esi
    1878:	8b 1c 85 a0 8e 00 00 	mov    0x8ea0(,%eax,4),%ebx
    187f:	8b 47 0c             	mov    0xc(%edi),%eax
    1882:	89 c2                	mov    %eax,%edx
    1884:	8b 4e 08             	mov    0x8(%esi),%ecx
    1887:	89 45 e0             	mov    %eax,-0x20(%ebp)
    188a:	8b 46 04             	mov    0x4(%esi),%eax
    188d:	0f af cb             	imul   %ebx,%ecx
    1890:	39 c2                	cmp    %eax,%edx
    1892:	0f 87 9c 01 00 00    	ja     1a34 <audio_pipe_mix_data+0x244>
    1898:	8b 55 e0             	mov    -0x20(%ebp),%edx
    189b:	29 d0                	sub    %edx,%eax
    189d:	31 d2                	xor    %edx,%edx
    189f:	89 45 dc             	mov    %eax,-0x24(%ebp)
    18a2:	8d 44 01 ff          	lea    -0x1(%ecx,%eax,1),%eax
    18a6:	f7 f1                	div    %ecx
    18a8:	89 c3                	mov    %eax,%ebx
    18aa:	8b 45 e4             	mov    -0x1c(%ebp),%eax
    18ad:	39 c3                	cmp    %eax,%ebx
    18af:	76 02                	jbe    18b3 <audio_pipe_mix_data+0xc3>
    18b1:	89 c3                	mov    %eax,%ebx
    18b3:	0f af cb             	imul   %ebx,%ecx
    18b6:	8b 55 d4             	mov    -0x2c(%ebp),%edx
    18b9:	0f af d3             	imul   %ebx,%edx
    18bc:	3b 4d dc             	cmp    -0x24(%ebp),%ecx
    18bf:	0f 87 99 01 00 00    	ja     1a5e <audio_pipe_mix_data+0x26e>
    18c5:	50                   	push   %eax
    18c6:	50                   	push   %eax
    18c7:	8b 45 14             	mov    0x14(%ebp),%eax
    18ca:	89 4d dc             	mov    %ecx,-0x24(%ebp)
    18cd:	50                   	push   %eax
    18ce:	8d 46 08             	lea    0x8(%esi),%eax
    18d1:	50                   	push   %eax
    18d2:	8b 45 e0             	mov    -0x20(%ebp),%eax
    18d5:	51                   	push   %ecx
    18d6:	8b 0e                	mov    (%esi),%ecx
    18d8:	01 c8                	add    %ecx,%eax
    18da:	8b 75 0c             	mov    0xc(%ebp),%esi
    18dd:	50                   	push   %eax
    18de:	89 55 e0             	mov    %edx,-0x20(%ebp)
    18e1:	52                   	push   %edx
    18e2:	56                   	push   %esi
    18e3:	e8 08 68 00 00       	call   80f0 <pcm_format_convert_and_mix>
    18e8:	8b 45 e4             	mov    -0x1c(%ebp),%eax
    18eb:	29 d8                	sub    %ebx,%eax
    18ed:	8b 55 e0             	mov    -0x20(%ebp),%edx
    18f0:	89 45 e4             	mov    %eax,-0x1c(%ebp)
    18f3:	8b 45 d8             	mov    -0x28(%ebp),%eax
    18f6:	01 d0                	add    %edx,%eax
    18f8:	8b 75 08             	mov    0x8(%ebp),%esi
    18fb:	89 45 d8             	mov    %eax,-0x28(%ebp)
    18fe:	8b 45 0c             	mov    0xc(%ebp),%eax
    1901:	01 d0                	add    %edx,%eax
    1903:	8b 4d dc             	mov    -0x24(%ebp),%ecx
    1906:	8b 56 08             	mov    0x8(%esi),%edx
    1909:	89 45 0c             	mov    %eax,0xc(%ebp)
    190c:	8b 47 0c             	mov    0xc(%edi),%eax
    190f:	29 ca                	sub    %ecx,%edx
    1911:	01 c8                	add    %ecx,%eax
    1913:	8b 4e 0c             	mov    0xc(%esi),%ecx
    1916:	29 d9                	sub    %ebx,%ecx
    1918:	8b 5f 08             	mov    0x8(%edi),%ebx
    191b:	89 47 0c             	mov    %eax,0xc(%edi)
    191e:	83 c4 20             	add    $0x20,%esp
    1921:	89 56 08             	mov    %edx,0x8(%esi)
    1924:	89 4e 0c             	mov    %ecx,0xc(%esi)
    1927:	85 db                	test   %ebx,%ebx
    1929:	0f 84 1a 01 00 00    	je     1a49 <audio_pipe_mix_data+0x259>
    192f:	3b 43 04             	cmp    0x4(%ebx),%eax
    1932:	0f 87 fc 00 00 00    	ja     1a34 <audio_pipe_mix_data+0x244>
    1938:	0f 85 a2 00 00 00    	jne    19e0 <audio_pipe_mix_data+0x1f0>
    193e:	8b 17                	mov    (%edi),%edx
    1940:	85 d2                	test   %edx,%edx
    1942:	74 0e                	je     1952 <audio_pipe_mix_data+0x162>
    1944:	8b 47 04             	mov    0x4(%edi),%eax
    1947:	85 c0                	test   %eax,%eax
    1949:	74 07                	je     1952 <audio_pipe_mix_data+0x162>
    194b:	89 10                	mov    %edx,(%eax)
    194d:	8b 17                	mov    (%edi),%edx
    194f:	89 42 04             	mov    %eax,0x4(%edx)
    1952:	8b 43 14             	mov    0x14(%ebx),%eax
    1955:	c7 07 00 00 00 00    	movl   $0x0,(%edi)
    195b:	c7 47 04 00 00 00 00 	movl   $0x0,0x4(%edi)
    1962:	85 c0                	test   %eax,%eax
    1964:	0f 84 09 01 00 00    	je     1a73 <audio_pipe_mix_data+0x283>
    196a:	83 c8 ff             	or     $0xffffffff,%eax
    196d:	f0 0f c1 43 14       	lock xadd %eax,0x14(%ebx)
    1972:	48                   	dec    %eax
    1973:	0f 84 87 00 00 00    	je     1a00 <audio_pipe_mix_data+0x210>
    1979:	83 ec 0c             	sub    $0xc,%esp
    197c:	57                   	push   %edi
    197d:	e8 4e a0 00 00       	call   b9d0 <free@plt>
    1982:	8b 75 e4             	mov    -0x1c(%ebp),%esi
    1985:	83 c4 10             	add    $0x10,%esp
    1988:	85 f6                	test   %esi,%esi
    198a:	74 5b                	je     19e7 <audio_pipe_mix_data+0x1f7>
    198c:	8b 45 08             	mov    0x8(%ebp),%eax
    198f:	8b 40 04             	mov    0x4(%eax),%eax
    1992:	3b 45 08             	cmp    0x8(%ebp),%eax
    1995:	74 50                	je     19e7 <audio_pipe_mix_data+0x1f7>
    1997:	89 c7                	mov    %eax,%edi
    1999:	8b 77 08             	mov    0x8(%edi),%esi
    199c:	8b 46 10             	mov    0x10(%esi),%eax
    199f:	83 f8 12             	cmp    $0x12,%eax
    19a2:	0f 86 d0 fe ff ff    	jbe    1878 <audio_pipe_mix_data+0x88>
    19a8:	8b 47 0c             	mov    0xc(%edi),%eax
    19ab:	89 c1                	mov    %eax,%ecx
    19ad:	89 45 e0             	mov    %eax,-0x20(%ebp)
    19b0:	8b 46 04             	mov    0x4(%esi),%eax
    19b3:	39 c8                	cmp    %ecx,%eax
    19b5:	72 7d                	jb     1a34 <audio_pipe_mix_data+0x244>
    19b7:	8b 55 e0             	mov    -0x20(%ebp),%edx
    19ba:	31 db                	xor    %ebx,%ebx
    19bc:	29 d0                	sub    %edx,%eax
    19be:	31 d2                	xor    %edx,%edx
    19c0:	48                   	dec    %eax
    19c1:	f7 f3                	div    %ebx
    19c3:	89 c3                	mov    %eax,%ebx
    19c5:	8b 45 e4             	mov    -0x1c(%ebp),%eax
    19c8:	39 c3                	cmp    %eax,%ebx
    19ca:	76 02                	jbe    19ce <audio_pipe_mix_data+0x1de>
    19cc:	89 c3                	mov    %eax,%ebx
    19ce:	8b 55 d4             	mov    -0x2c(%ebp),%edx
    19d1:	31 c9                	xor    %ecx,%ecx
    19d3:	0f af d3             	imul   %ebx,%edx
    19d6:	e9 ea fe ff ff       	jmp    18c5 <audio_pipe_mix_data+0xd5>
    19db:	90                   	nop
    19dc:	8d 74 26 00          	lea    0x0(%esi,%eiz,1),%esi
    19e0:	8b 5d e4             	mov    -0x1c(%ebp),%ebx
    19e3:	85 db                	test   %ebx,%ebx
    19e5:	75 38                	jne    1a1f <audio_pipe_mix_data+0x22f>
    19e7:	8b 5d d8             	mov    -0x28(%ebp),%ebx
    19ea:	83 ec 0c             	sub    $0xc,%esp
    19ed:	8b 45 d0             	mov    -0x30(%ebp),%eax
    19f0:	50                   	push   %eax
    19f1:	e8 0a 9e 00 00       	call   b800 <fibril_mutex_unlock@plt>
    19f6:	8d 65 f4             	lea    -0xc(%ebp),%esp
    19f9:	89 d8                	mov    %ebx,%eax
    19fb:	5b                   	pop    %ebx
    19fc:	5e                   	pop    %esi
    19fd:	5f                   	pop    %edi
    19fe:	5d                   	pop    %ebp
    19ff:	c3                   	ret    
    1a00:	83 ec 0c             	sub    $0xc,%esp
    1a03:	8b 03                	mov    (%ebx),%eax
    1a05:	50                   	push   %eax
    1a06:	e8 c5 9f 00 00       	call   b9d0 <free@plt>
    1a0b:	89 1c 24             	mov    %ebx,(%esp)
    1a0e:	e8 bd 9f 00 00       	call   b9d0 <free@plt>
    1a13:	83 c4 10             	add    $0x10,%esp
    1a16:	e9 5e ff ff ff       	jmp    1979 <audio_pipe_mix_data+0x189>
    1a1b:	31 db                	xor    %ebx,%ebx
    1a1d:	eb cb                	jmp    19ea <audio_pipe_mix_data+0x1fa>
    1a1f:	51                   	push   %ecx
    1a20:	68 32 01 00 00       	push   $0x132
    1a25:	68 7f 8d 00 00       	push   $0x8d7f
    1a2a:	68 be 8d 00 00       	push   $0x8dbe
    1a2f:	e8 7c 9d 00 00       	call   b7b0 <assert_abort@plt>
    1a34:	51                   	push   %ecx
    1a35:	68 a3 00 00 00       	push   $0xa3
    1a3a:	68 7f 8d 00 00       	push   $0x8d7f
    1a3f:	68 28 8e 00 00       	push   $0x8e28
    1a44:	e8 67 9d 00 00       	call   b7b0 <assert_abort@plt>
    1a49:	50                   	push   %eax
    1a4a:	68 a2 00 00 00       	push   $0xa2
    1a4f:	68 7f 8d 00 00       	push   $0x8d7f
    1a54:	68 97 8d 00 00       	push   $0x8d97
    1a59:	e8 52 9d 00 00       	call   b7b0 <assert_abort@plt>
    1a5e:	53                   	push   %ebx
    1a5f:	68 20 01 00 00       	push   $0x120
    1a64:	68 7f 8d 00 00       	push   $0x8d7f
    1a69:	68 50 8e 00 00       	push   $0x8e50
    1a6e:	e8 3d 9d 00 00       	call   b7b0 <assert_abort@plt>
    1a73:	50                   	push   %eax
    1a74:	6a 55                	push   $0x55
    1a76:	68 7f 8d 00 00       	push   $0x8d7f
    1a7b:	68 04 8e 00 00       	push   $0x8e04
    1a80:	e8 2b 9d 00 00       	call   b7b0 <assert_abort@plt>
    1a85:	57                   	push   %edi
    1a86:	68 0b 01 00 00       	push   $0x10b
    1a8b:	68 7f 8d 00 00       	push   $0x8d7f
    1a90:	68 92 8d 00 00       	push   $0x8d92
    1a95:	e8 16 9d 00 00       	call   b7b0 <assert_abort@plt>

00001a9a <audio_data_link_remain_size.part.2>:
    1a9a:	55                   	push   %ebp
    1a9b:	89 e5                	mov    %esp,%ebp
    1a9d:	83 ec 0c             	sub    $0xc,%esp
    1aa0:	68 a1 00 00 00       	push   $0xa1
    1aa5:	68 7f 8d 00 00       	push   $0x8d7f
    1aaa:	68 8c 8d 00 00       	push   $0x8d8c
    1aaf:	e8 fc 9c 00 00       	call   b7b0 <assert_abort@plt>

00001ab4 <audio_data_link_destroy.part.6>:
    1ab4:	55                   	push   %ebp
    1ab5:	89 e5                	mov    %esp,%ebp
    1ab7:	83 ec 0c             	sub    $0xc,%esp
    1aba:	68 88 00 00 00       	push   $0x88
    1abf:	68 7f 8d 00 00       	push   $0x8d7f
    1ac4:	68 8d 8d 00 00       	push   $0x8d8d
    1ac9:	e8 e2 9c 00 00       	call   b7b0 <assert_abort@plt>
    1ace:	66 90                	xchg   %ax,%ax

00001ad0 <device_sink_connection_callback>:
    1ad0:	55                   	push   %ebp
    1ad1:	89 e5                	mov    %esp,%ebp
    1ad3:	57                   	push   %edi
    1ad4:	56                   	push   %esi
    1ad5:	53                   	push   %ebx
    1ad6:	83 ec 1c             	sub    $0x1c,%esp
    1ad9:	8b 5d 08             	mov    0x8(%ebp),%ebx
    1adc:	8b 45 0c             	mov    0xc(%ebp),%eax
    1adf:	85 db                	test   %ebx,%ebx
    1ae1:	0f 84 9b 02 00 00    	je     1d82 <device_sink_connection_callback+0x2b2>
    1ae7:	8b 73 20             	mov    0x20(%ebx),%esi
    1aea:	84 c0                	test   %al,%al
    1aec:	75 62                	jne    1b50 <device_sink_connection_callback+0x80>
    1aee:	83 ec 0c             	sub    $0xc,%esp
    1af1:	8d 43 08             	lea    0x8(%ebx),%eax
    1af4:	50                   	push   %eax
    1af5:	e8 06 9e 00 00       	call   b900 <list_count@plt>
    1afa:	83 c4 10             	add    $0x10,%esp
    1afd:	85 c0                	test   %eax,%eax
    1aff:	75 75                	jne    1b76 <device_sink_connection_callback+0xa6>
    1b01:	8b 43 10             	mov    0x10(%ebx),%eax
    1b04:	50                   	push   %eax
    1b05:	68 fc 90 00 00       	push   $0x90fc
    1b0a:	6a 05                	push   $0x5
    1b0c:	6a ff                	push   $0xffffffff
    1b0e:	e8 5d 9c 00 00       	call   b770 <log_msg@plt>
    1b13:	8b 4e 0c             	mov    0xc(%esi),%ecx
    1b16:	5a                   	pop    %edx
    1b17:	51                   	push   %ecx
    1b18:	e8 d3 47 00 00       	call   62f0 <audio_pcm_stop_playback>
    1b1d:	83 c4 10             	add    $0x10,%esp
    1b20:	89 c3                	mov    %eax,%ebx
    1b22:	85 c0                	test   %eax,%eax
    1b24:	74 1b                	je     1b41 <device_sink_connection_callback+0x71>
    1b26:	83 ec 0c             	sub    $0xc,%esp
    1b29:	50                   	push   %eax
    1b2a:	e8 01 9e 00 00       	call   b930 <str_error@plt>
    1b2f:	50                   	push   %eax
    1b30:	68 98 8f 00 00       	push   $0x8f98
    1b35:	6a 01                	push   $0x1
    1b37:	6a ff                	push   $0xffffffff
    1b39:	e8 32 9c 00 00       	call   b770 <log_msg@plt>
    1b3e:	83 c4 20             	add    $0x20,%esp
    1b41:	8d 65 f4             	lea    -0xc(%ebp),%esp
    1b44:	89 d8                	mov    %ebx,%eax
    1b46:	5b                   	pop    %ebx
    1b47:	5e                   	pop    %esi
    1b48:	5f                   	pop    %edi
    1b49:	5d                   	pop    %ebp
    1b4a:	c3                   	ret    
    1b4b:	90                   	nop
    1b4c:	8d 74 26 00          	lea    0x0(%esi,%eiz,1),%esi
    1b50:	83 ec 0c             	sub    $0xc,%esp
    1b53:	8d 7b 08             	lea    0x8(%ebx),%edi
    1b56:	57                   	push   %edi
    1b57:	e8 a4 9d 00 00       	call   b900 <list_count@plt>
    1b5c:	83 c4 10             	add    $0x10,%esp
    1b5f:	48                   	dec    %eax
    1b60:	74 26                	je     1b88 <device_sink_connection_callback+0xb8>
    1b62:	83 ec 0c             	sub    $0xc,%esp
    1b65:	57                   	push   %edi
    1b66:	e8 95 9d 00 00       	call   b900 <list_count@plt>
    1b6b:	83 c4 10             	add    $0x10,%esp
    1b6e:	85 c0                	test   %eax,%eax
    1b70:	0f 84 ac 01 00 00    	je     1d22 <device_sink_connection_callback+0x252>
    1b76:	8d 65 f4             	lea    -0xc(%ebp),%esp
    1b79:	31 db                	xor    %ebx,%ebx
    1b7b:	89 d8                	mov    %ebx,%eax
    1b7d:	5b                   	pop    %ebx
    1b7e:	5e                   	pop    %esi
    1b7f:	5f                   	pop    %edi
    1b80:	5d                   	pop    %ebp
    1b81:	c3                   	ret    
    1b82:	8d b6 00 00 00 00    	lea    0x0(%esi),%esi
    1b88:	8b 43 10             	mov    0x10(%ebx),%eax
    1b8b:	50                   	push   %eax
    1b8c:	68 68 90 00 00       	push   $0x9068
    1b91:	6a 05                	push   $0x5
    1b93:	6a ff                	push   $0xffffffff
    1b95:	e8 d6 9b 00 00       	call   b770 <log_msg@plt>
    1b9a:	83 c4 10             	add    $0x10,%esp
    1b9d:	85 f6                	test   %esi,%esi
    1b9f:	0f 84 23 02 00 00    	je     1dc8 <device_sink_connection_callback+0x2f8>
    1ba5:	8b 46 0c             	mov    0xc(%esi),%eax
    1ba8:	85 c0                	test   %eax,%eax
    1baa:	0f 84 e7 01 00 00    	je     1d97 <device_sink_connection_callback+0x2c7>
    1bb0:	8b 5e 14             	mov    0x14(%esi),%ebx
    1bb3:	85 db                	test   %ebx,%ebx
    1bb5:	0f 85 7d 01 00 00    	jne    1d38 <device_sink_connection_callback+0x268>
    1bbb:	52                   	push   %edx
    1bbc:	8d 55 e4             	lea    -0x1c(%ebp),%edx
    1bbf:	52                   	push   %edx
    1bc0:	8d 56 14             	lea    0x14(%esi),%edx
    1bc3:	52                   	push   %edx
    1bc4:	c7 45 e4 00 00 00 00 	movl   $0x0,-0x1c(%ebp)
    1bcb:	50                   	push   %eax
    1bcc:	e8 5f 44 00 00       	call   6030 <audio_pcm_get_buffer>
    1bd1:	83 c4 10             	add    $0x10,%esp
    1bd4:	85 c0                	test   %eax,%eax
    1bd6:	0f 85 24 01 00 00    	jne    1d00 <device_sink_connection_callback+0x230>
    1bdc:	8b 45 e4             	mov    -0x1c(%ebp),%eax
    1bdf:	89 46 18             	mov    %eax,0x18(%esi)
    1be2:	c1 e8 04             	shr    $0x4,%eax
    1be5:	89 46 20             	mov    %eax,0x20(%esi)
    1be8:	8b 46 14             	mov    0x14(%esi),%eax
    1beb:	89 46 1c             	mov    %eax,0x1c(%esi)
    1bee:	50                   	push   %eax
    1bef:	8b 46 0c             	mov    0xc(%esi),%eax
    1bf2:	56                   	push   %esi
    1bf3:	68 a0 1e 00 00       	push   $0x1ea0
    1bf8:	50                   	push   %eax
    1bf9:	e8 52 43 00 00       	call   5f50 <audio_pcm_register_event_callback>
    1bfe:	83 c4 0c             	add    $0xc,%esp
    1c01:	8d 46 64             	lea    0x64(%esi),%eax
    1c04:	50                   	push   %eax
    1c05:	8b 46 18             	mov    0x18(%esi),%eax
    1c08:	50                   	push   %eax
    1c09:	8b 46 14             	mov    0x14(%esi),%eax
    1c0c:	50                   	push   %eax
    1c0d:	e8 fe 5c 00 00       	call   7910 <pcm_format_silence>
    1c12:	8b 46 20             	mov    0x20(%esi),%eax
    1c15:	83 c4 0c             	add    $0xc,%esp
    1c18:	8d 1c 00             	lea    (%eax,%eax,1),%ebx
    1c1b:	8b 46 1c             	mov    0x1c(%esi),%eax
    1c1e:	53                   	push   %ebx
    1c1f:	50                   	push   %eax
    1c20:	8d 46 50             	lea    0x50(%esi),%eax
    1c23:	50                   	push   %eax
    1c24:	e8 47 0c 00 00       	call   2870 <audio_sink_mix_inputs>
    1c29:	8b 46 1c             	mov    0x1c(%esi),%eax
    1c2c:	8b 56 14             	mov    0x14(%esi),%edx
    1c2f:	83 c4 10             	add    $0x10,%esp
    1c32:	39 d0                	cmp    %edx,%eax
    1c34:	0f 82 b8 01 00 00    	jb     1df2 <device_sink_connection_callback+0x322>
    1c3a:	8b 4e 18             	mov    0x18(%esi),%ecx
    1c3d:	01 d1                	add    %edx,%ecx
    1c3f:	39 c8                	cmp    %ecx,%eax
    1c41:	0f 83 96 01 00 00    	jae    1ddd <device_sink_connection_callback+0x30d>
    1c47:	01 d8                	add    %ebx,%eax
    1c49:	39 c1                	cmp    %eax,%ecx
    1c4b:	0f 84 00 01 00 00    	je     1d51 <device_sink_connection_callback+0x281>
    1c51:	89 46 1c             	mov    %eax,0x1c(%esi)
    1c54:	8b 56 6c             	mov    0x6c(%esi),%edx
    1c57:	31 c9                	xor    %ecx,%ecx
    1c59:	8b 46 20             	mov    0x20(%esi),%eax
    1c5c:	83 fa 12             	cmp    $0x12,%edx
    1c5f:	77 0d                	ja     1c6e <device_sink_connection_callback+0x19e>
    1c61:	8b 4e 64             	mov    0x64(%esi),%ecx
    1c64:	8b 1c 95 a0 91 00 00 	mov    0x91a0(,%edx,4),%ebx
    1c6b:	0f af cb             	imul   %ebx,%ecx
    1c6e:	31 d2                	xor    %edx,%edx
    1c70:	f7 f1                	div    %ecx
    1c72:	50                   	push   %eax
    1c73:	89 c3                	mov    %eax,%ebx
    1c75:	68 30 8f 00 00       	push   $0x8f30
    1c7a:	6a 05                	push   $0x5
    1c7c:	6a ff                	push   $0xffffffff
    1c7e:	e8 ed 9a 00 00       	call   b770 <log_msg@plt>
    1c83:	58                   	pop    %eax
    1c84:	8b 46 6c             	mov    0x6c(%esi),%eax
    1c87:	50                   	push   %eax
    1c88:	8b 46 68             	mov    0x68(%esi),%eax
    1c8b:	50                   	push   %eax
    1c8c:	8b 4e 0c             	mov    0xc(%esi),%ecx
    1c8f:	8b 56 64             	mov    0x64(%esi),%edx
    1c92:	52                   	push   %edx
    1c93:	53                   	push   %ebx
    1c94:	51                   	push   %ecx
    1c95:	e8 96 44 00 00       	call   6130 <audio_pcm_start_playback_fragment>
    1c9a:	83 c4 20             	add    $0x20,%esp
    1c9d:	89 c3                	mov    %eax,%ebx
    1c9f:	85 c0                	test   %eax,%eax
    1ca1:	0f 84 bb fe ff ff    	je     1b62 <device_sink_connection_callback+0x92>
    1ca7:	83 ec 0c             	sub    $0xc,%esp
    1caa:	50                   	push   %eax
    1cab:	e8 80 9c 00 00       	call   b930 <str_error@plt>
    1cb0:	50                   	push   %eax
    1cb1:	68 48 8f 00 00       	push   $0x8f48
    1cb6:	6a 01                	push   $0x1
    1cb8:	6a ff                	push   $0xffffffff
    1cba:	e8 b1 9a 00 00       	call   b770 <log_msg@plt>
    1cbf:	8b 46 14             	mov    0x14(%esi),%eax
    1cc2:	83 c4 20             	add    $0x20,%esp
    1cc5:	85 c0                	test   %eax,%eax
    1cc7:	0f 84 e6 00 00 00    	je     1db3 <device_sink_connection_callback+0x2e3>
    1ccd:	83 ec 0c             	sub    $0xc,%esp
    1cd0:	8b 46 0c             	mov    0xc(%esi),%eax
    1cd3:	50                   	push   %eax
    1cd4:	e8 07 44 00 00       	call   60e0 <audio_pcm_release_buffer>
    1cd9:	83 c4 10             	add    $0x10,%esp
    1cdc:	85 c0                	test   %eax,%eax
    1cde:	74 79                	je     1d59 <device_sink_connection_callback+0x289>
    1ce0:	83 ec 0c             	sub    $0xc,%esp
    1ce3:	50                   	push   %eax
    1ce4:	e8 47 9c 00 00       	call   b930 <str_error@plt>
    1ce9:	50                   	push   %eax
    1cea:	68 76 8f 00 00       	push   $0x8f76
    1cef:	6a 02                	push   $0x2
    1cf1:	6a ff                	push   $0xffffffff
    1cf3:	e8 78 9a 00 00       	call   b770 <log_msg@plt>
    1cf8:	83 c4 20             	add    $0x20,%esp
    1cfb:	e9 41 fe ff ff       	jmp    1b41 <device_sink_connection_callback+0x71>
    1d00:	89 c3                	mov    %eax,%ebx
    1d02:	83 ec 0c             	sub    $0xc,%esp
    1d05:	53                   	push   %ebx
    1d06:	e8 25 9c 00 00       	call   b930 <str_error@plt>
    1d0b:	50                   	push   %eax
    1d0c:	68 28 91 00 00       	push   $0x9128
    1d11:	6a 01                	push   $0x1
    1d13:	6a ff                	push   $0xffffffff
    1d15:	e8 56 9a 00 00       	call   b770 <log_msg@plt>
    1d1a:	83 c4 20             	add    $0x20,%esp
    1d1d:	e9 1f fe ff ff       	jmp    1b41 <device_sink_connection_callback+0x71>
    1d22:	53                   	push   %ebx
    1d23:	68 bf 00 00 00       	push   $0xbf
    1d28:	68 ec 8e 00 00       	push   $0x8eec
    1d2d:	68 93 8f 00 00       	push   $0x8f93
    1d32:	e8 79 9a 00 00       	call   b7b0 <assert_abort@plt>
    1d37:	90                   	nop
    1d38:	51                   	push   %ecx
    1d39:	68 17 8f 00 00       	push   $0x8f17
    1d3e:	6a 04                	push   $0x4
    1d40:	6a ff                	push   $0xffffffff
    1d42:	bb f1 ff ff ff       	mov    $0xfffffff1,%ebx
    1d47:	e8 24 9a 00 00       	call   b770 <log_msg@plt>
    1d4c:	83 c4 10             	add    $0x10,%esp
    1d4f:	eb b1                	jmp    1d02 <device_sink_connection_callback+0x232>
    1d51:	89 56 1c             	mov    %edx,0x1c(%esi)
    1d54:	e9 fb fe ff ff       	jmp    1c54 <device_sink_connection_callback+0x184>
    1d59:	83 ec 0c             	sub    $0xc,%esp
    1d5c:	8b 7e 14             	mov    0x14(%esi),%edi
    1d5f:	57                   	push   %edi
    1d60:	e8 cb 99 00 00       	call   b730 <as_area_destroy@plt>
    1d65:	c7 46 14 00 00 00 00 	movl   $0x0,0x14(%esi)
    1d6c:	c7 46 18 00 00 00 00 	movl   $0x0,0x18(%esi)
    1d73:	c7 46 1c 00 00 00 00 	movl   $0x0,0x1c(%esi)
    1d7a:	83 c4 10             	add    $0x10,%esp
    1d7d:	e9 bf fd ff ff       	jmp    1b41 <device_sink_connection_callback+0x71>
    1d82:	50                   	push   %eax
    1d83:	68 99 00 00 00       	push   $0x99
    1d88:	68 ec 8e 00 00       	push   $0x8eec
    1d8d:	68 76 95 00 00       	push   $0x9576
    1d92:	e8 19 9a 00 00       	call   b7b0 <assert_abort@plt>
    1d97:	56                   	push   %esi
    1d98:	68 ff 8e 00 00       	push   $0x8eff
    1d9d:	6a 04                	push   $0x4
    1d9f:	6a ff                	push   $0xffffffff
    1da1:	bb f6 fe ff ff       	mov    $0xfffffef6,%ebx
    1da6:	e8 c5 99 00 00       	call   b770 <log_msg@plt>
    1dab:	83 c4 10             	add    $0x10,%esp
    1dae:	e9 4f ff ff ff       	jmp    1d02 <device_sink_connection_callback+0x232>
    1db3:	50                   	push   %eax
    1db4:	68 7b 01 00 00       	push   $0x17b
    1db9:	68 ec 8e 00 00       	push   $0x8eec
    1dbe:	68 65 8f 00 00       	push   $0x8f65
    1dc3:	e8 e8 99 00 00       	call   b7b0 <assert_abort@plt>
    1dc8:	57                   	push   %edi
    1dc9:	68 5b 01 00 00       	push   $0x15b
    1dce:	68 ec 8e 00 00       	push   $0x8eec
    1dd3:	68 fb 8e 00 00       	push   $0x8efb
    1dd8:	e8 d3 99 00 00       	call   b7b0 <assert_abort@plt>
    1ddd:	56                   	push   %esi
    1dde:	68 92 01 00 00       	push   $0x192
    1de3:	68 ec 8e 00 00       	push   $0x8eec
    1de8:	68 bc 90 00 00       	push   $0x90bc
    1ded:	e8 be 99 00 00       	call   b7b0 <assert_abort@plt>
    1df2:	57                   	push   %edi
    1df3:	68 91 01 00 00       	push   $0x191
    1df8:	68 ec 8e 00 00       	push   $0x8eec
    1dfd:	68 90 90 00 00       	push   $0x9090
    1e02:	e8 a9 99 00 00       	call   b7b0 <assert_abort@plt>
    1e07:	89 f6                	mov    %esi,%esi
    1e09:	8d bc 27 00 00 00 00 	lea    0x0(%edi,%eiz,1),%edi

00001e10 <device_check_format>:
    1e10:	55                   	push   %ebp
    1e11:	89 e5                	mov    %esp,%ebp
    1e13:	56                   	push   %esi
    1e14:	53                   	push   %ebx
    1e15:	8b 5d 08             	mov    0x8(%ebp),%ebx
    1e18:	85 db                	test   %ebx,%ebx
    1e1a:	74 65                	je     1e81 <device_check_format+0x71>
    1e1c:	8b 73 20             	mov    0x20(%ebx),%esi
    1e1f:	85 f6                	test   %esi,%esi
    1e21:	74 49                	je     1e6c <device_check_format+0x5c>
    1e23:	8b 4e 14             	mov    0x14(%esi),%ecx
    1e26:	85 c9                	test   %ecx,%ecx
    1e28:	75 36                	jne    1e60 <device_check_format+0x50>
    1e2a:	8b 43 10             	mov    0x10(%ebx),%eax
    1e2d:	50                   	push   %eax
    1e2e:	68 b4 8f 00 00       	push   $0x8fb4
    1e33:	6a 05                	push   $0x5
    1e35:	6a ff                	push   $0xffffffff
    1e37:	e8 34 99 00 00       	call   b770 <log_msg@plt>
    1e3c:	8d 43 1c             	lea    0x1c(%ebx),%eax
    1e3f:	50                   	push   %eax
    1e40:	8d 43 18             	lea    0x18(%ebx),%eax
    1e43:	83 c3 14             	add    $0x14,%ebx
    1e46:	50                   	push   %eax
    1e47:	53                   	push   %ebx
    1e48:	8b 56 0c             	mov    0xc(%esi),%edx
    1e4b:	52                   	push   %edx
    1e4c:	e8 cf 3f 00 00       	call   5e20 <audio_pcm_test_format>
    1e51:	83 c4 20             	add    $0x20,%esp
    1e54:	8d 65 f8             	lea    -0x8(%ebp),%esp
    1e57:	5b                   	pop    %ebx
    1e58:	5e                   	pop    %esi
    1e59:	5d                   	pop    %ebp
    1e5a:	c3                   	ret    
    1e5b:	90                   	nop
    1e5c:	8d 74 26 00          	lea    0x0(%esi,%eiz,1),%esi
    1e60:	8d 65 f8             	lea    -0x8(%ebp),%esp
    1e63:	b8 f1 ff ff ff       	mov    $0xfffffff1,%eax
    1e68:	5b                   	pop    %ebx
    1e69:	5e                   	pop    %esi
    1e6a:	5d                   	pop    %ebp
    1e6b:	c3                   	ret    
    1e6c:	53                   	push   %ebx
    1e6d:	68 4b 01 00 00       	push   $0x14b
    1e72:	68 ec 8e 00 00       	push   $0x8eec
    1e77:	68 fb 8e 00 00       	push   $0x8efb
    1e7c:	e8 2f 99 00 00       	call   b7b0 <assert_abort@plt>
    1e81:	56                   	push   %esi
    1e82:	68 49 01 00 00       	push   $0x149
    1e87:	68 ec 8e 00 00       	push   $0x8eec
    1e8c:	68 76 95 00 00       	push   $0x9576
    1e91:	e8 1a 99 00 00       	call   b7b0 <assert_abort@plt>
    1e96:	8d 76 00             	lea    0x0(%esi),%esi
    1e99:	8d bc 27 00 00 00 00 	lea    0x0(%edi,%eiz,1),%edi

00001ea0 <device_event_callback>:
    1ea0:	55                   	push   %ebp
    1ea1:	89 e5                	mov    %esp,%ebp
    1ea3:	57                   	push   %edi
    1ea4:	56                   	push   %esi
    1ea5:	53                   	push   %ebx
    1ea6:	83 ec 64             	sub    $0x64,%esp
    1ea9:	8b 75 08             	mov    0x8(%ebp),%esi
    1eac:	8b 5d 10             	mov    0x10(%ebp),%ebx
    1eaf:	6a 00                	push   $0x0
    1eb1:	56                   	push   %esi
    1eb2:	e8 89 98 00 00       	call   b740 <async_answer_0@plt>
    1eb7:	83 c4 10             	add    $0x10,%esp
    1eba:	85 db                	test   %ebx,%ebx
    1ebc:	0f 84 b8 02 00 00    	je     217a <device_event_callback+0x2da>
    1ec2:	8d 43 24             	lea    0x24(%ebx),%eax
    1ec5:	8d 7d c4             	lea    -0x3c(%ebp),%edi
    1ec8:	89 45 a4             	mov    %eax,-0x5c(%ebp)
    1ecb:	90                   	nop
    1ecc:	8d 74 26 00          	lea    0x0(%esi,%eiz,1),%esi
    1ed0:	50                   	push   %eax
    1ed1:	50                   	push   %eax
    1ed2:	6a 00                	push   $0x0
    1ed4:	57                   	push   %edi
    1ed5:	e8 06 9a 00 00       	call   b8e0 <async_get_call_timeout@plt>
    1eda:	5a                   	pop    %edx
    1edb:	59                   	pop    %ecx
    1edc:	6a 00                	push   $0x0
    1ede:	50                   	push   %eax
    1edf:	e8 5c 98 00 00       	call   b740 <async_answer_0@plt>
    1ee4:	8b 45 c4             	mov    -0x3c(%ebp),%eax
    1ee7:	83 c4 10             	add    $0x10,%esp
    1eea:	3d 03 04 00 00       	cmp    $0x403,%eax
    1eef:	0f 84 4b 01 00 00    	je     2040 <device_event_callback+0x1a0>
    1ef5:	0f 87 95 00 00 00    	ja     1f90 <device_event_callback+0xf0>
    1efb:	85 c0                	test   %eax,%eax
    1efd:	0f 84 a5 01 00 00    	je     20a8 <device_event_callback+0x208>
    1f03:	3d 02 04 00 00       	cmp    $0x402,%eax
    1f08:	75 c6                	jne    1ed0 <device_event_callback+0x30>
    1f0a:	83 ec 0c             	sub    $0xc,%esp
    1f0d:	8d 75 b4             	lea    -0x4c(%ebp),%esi
    1f10:	56                   	push   %esi
    1f11:	e8 9a 99 00 00       	call   b8b0 <getuptime@plt>
    1f16:	83 c4 0c             	add    $0xc,%esp
    1f19:	8b 4b 20             	mov    0x20(%ebx),%ecx
    1f1c:	8b 43 1c             	mov    0x1c(%ebx),%eax
    1f1f:	51                   	push   %ecx
    1f20:	50                   	push   %eax
    1f21:	8d 43 50             	lea    0x50(%ebx),%eax
    1f24:	50                   	push   %eax
    1f25:	e8 46 09 00 00       	call   2870 <audio_sink_mix_inputs>
    1f2a:	8b 43 20             	mov    0x20(%ebx),%eax
    1f2d:	8b 53 14             	mov    0x14(%ebx),%edx
    1f30:	89 45 a0             	mov    %eax,-0x60(%ebp)
    1f33:	8b 43 1c             	mov    0x1c(%ebx),%eax
    1f36:	83 c4 10             	add    $0x10,%esp
    1f39:	39 d0                	cmp    %edx,%eax
    1f3b:	0f 82 24 02 00 00    	jb     2165 <device_event_callback+0x2c5>
    1f41:	8b 4b 18             	mov    0x18(%ebx),%ecx
    1f44:	01 d1                	add    %edx,%ecx
    1f46:	39 c8                	cmp    %ecx,%eax
    1f48:	0f 83 02 02 00 00    	jae    2150 <device_event_callback+0x2b0>
    1f4e:	03 45 a0             	add    -0x60(%ebp),%eax
    1f51:	39 c1                	cmp    %eax,%ecx
    1f53:	0f 84 ef 01 00 00    	je     2148 <device_event_callback+0x2a8>
    1f59:	89 43 1c             	mov    %eax,0x1c(%ebx)
    1f5c:	83 ec 0c             	sub    $0xc,%esp
    1f5f:	8d 45 bc             	lea    -0x44(%ebp),%eax
    1f62:	89 45 a0             	mov    %eax,-0x60(%ebp)
    1f65:	50                   	push   %eax
    1f66:	e8 45 99 00 00       	call   b8b0 <getuptime@plt>
    1f6b:	58                   	pop    %eax
    1f6c:	8b 45 a0             	mov    -0x60(%ebp),%eax
    1f6f:	5a                   	pop    %edx
    1f70:	56                   	push   %esi
    1f71:	50                   	push   %eax
    1f72:	e8 49 97 00 00       	call   b6c0 <tv_sub_diff@plt>
    1f77:	50                   	push   %eax
    1f78:	68 cf 8f 00 00       	push   $0x8fcf
    1f7d:	6a 05                	push   $0x5
    1f7f:	6a ff                	push   $0xffffffff
    1f81:	e8 ea 97 00 00       	call   b770 <log_msg@plt>
    1f86:	83 c4 20             	add    $0x20,%esp
    1f89:	e9 42 ff ff ff       	jmp    1ed0 <device_event_callback+0x30>
    1f8e:	66 90                	xchg   %ax,%ax
    1f90:	3d 04 04 00 00       	cmp    $0x404,%eax
    1f95:	0f 84 25 01 00 00    	je     20c0 <device_event_callback+0x220>
    1f9b:	3d 05 04 00 00       	cmp    $0x405,%eax
    1fa0:	0f 85 2a ff ff ff    	jne    1ed0 <device_event_callback+0x30>
    1fa6:	52                   	push   %edx
    1fa7:	68 e9 8f 00 00       	push   $0x8fe9
    1fac:	6a 05                	push   $0x5
    1fae:	6a ff                	push   $0xffffffff
    1fb0:	e8 bb 97 00 00       	call   b770 <log_msg@plt>
    1fb5:	a1 6c b3 00 00       	mov    0xb36c,%eax
    1fba:	89 43 38             	mov    %eax,0x38(%ebx)
    1fbd:	a1 70 b3 00 00       	mov    0xb370,%eax
    1fc2:	89 43 3c             	mov    %eax,0x3c(%ebx)
    1fc5:	8b 4b 14             	mov    0x14(%ebx),%ecx
    1fc8:	a1 74 b3 00 00       	mov    0xb374,%eax
    1fcd:	83 c4 10             	add    $0x10,%esp
    1fd0:	89 43 40             	mov    %eax,0x40(%ebx)
    1fd3:	85 c9                	test   %ecx,%ecx
    1fd5:	0f 84 1a 01 00 00    	je     20f5 <device_event_callback+0x255>
    1fdb:	83 ec 0c             	sub    $0xc,%esp
    1fde:	8b 43 0c             	mov    0xc(%ebx),%eax
    1fe1:	50                   	push   %eax
    1fe2:	e8 f9 40 00 00       	call   60e0 <audio_pcm_release_buffer>
    1fe7:	83 c4 10             	add    $0x10,%esp
    1fea:	89 c6                	mov    %eax,%esi
    1fec:	85 c0                	test   %eax,%eax
    1fee:	0f 84 1c 01 00 00    	je     2110 <device_event_callback+0x270>
    1ff4:	83 ec 0c             	sub    $0xc,%esp
    1ff7:	50                   	push   %eax
    1ff8:	e8 33 99 00 00       	call   b930 <str_error@plt>
    1ffd:	50                   	push   %eax
    1ffe:	68 76 8f 00 00       	push   $0x8f76
    2003:	6a 02                	push   $0x2
    2005:	6a ff                	push   $0xffffffff
    2007:	e8 64 97 00 00       	call   b770 <log_msg@plt>
    200c:	83 c4 14             	add    $0x14,%esp
    200f:	56                   	push   %esi
    2010:	e8 1b 99 00 00       	call   b930 <str_error@plt>
    2015:	50                   	push   %eax
    2016:	68 76 8f 00 00       	push   $0x8f76
    201b:	6a 01                	push   $0x1
    201d:	6a ff                	push   $0xffffffff
    201f:	e8 4c 97 00 00       	call   b770 <log_msg@plt>
    2024:	83 c4 20             	add    $0x20,%esp
    2027:	83 ec 0c             	sub    $0xc,%esp
    202a:	8b 43 0c             	mov    0xc(%ebx),%eax
    202d:	50                   	push   %eax
    202e:	e8 ad 3f 00 00       	call   5fe0 <audio_pcm_unregister_event_callback>
    2033:	83 c4 10             	add    $0x10,%esp
    2036:	e9 95 fe ff ff       	jmp    1ed0 <device_event_callback+0x30>
    203b:	90                   	nop
    203c:	8d 74 26 00          	lea    0x0(%esi,%eiz,1),%esi
    2040:	50                   	push   %eax
    2041:	8b 75 a4             	mov    -0x5c(%ebp),%esi
    2044:	8b 53 20             	mov    0x20(%ebx),%edx
    2047:	8b 4b 1c             	mov    0x1c(%ebx),%ecx
    204a:	52                   	push   %edx
    204b:	51                   	push   %ecx
    204c:	56                   	push   %esi
    204d:	e8 3e 0a 00 00       	call   2a90 <audio_source_push_data>
    2052:	8b 4b 20             	mov    0x20(%ebx),%ecx
    2055:	8b 53 1c             	mov    0x1c(%ebx),%edx
    2058:	89 4d a0             	mov    %ecx,-0x60(%ebp)
    205b:	8b 4b 14             	mov    0x14(%ebx),%ecx
    205e:	83 c4 10             	add    $0x10,%esp
    2061:	39 ca                	cmp    %ecx,%edx
    2063:	0f 82 fc 00 00 00    	jb     2165 <device_event_callback+0x2c5>
    2069:	8b 73 18             	mov    0x18(%ebx),%esi
    206c:	01 ce                	add    %ecx,%esi
    206e:	39 f2                	cmp    %esi,%edx
    2070:	0f 83 da 00 00 00    	jae    2150 <device_event_callback+0x2b0>
    2076:	03 55 a0             	add    -0x60(%ebp),%edx
    2079:	39 d6                	cmp    %edx,%esi
    207b:	0f 84 bf 00 00 00    	je     2140 <device_event_callback+0x2a0>
    2081:	89 53 1c             	mov    %edx,0x1c(%ebx)
    2084:	85 c0                	test   %eax,%eax
    2086:	0f 84 44 fe ff ff    	je     1ed0 <device_event_callback+0x30>
    208c:	51                   	push   %ecx
    208d:	68 10 90 00 00       	push   $0x9010
    2092:	6a 02                	push   $0x2
    2094:	6a ff                	push   $0xffffffff
    2096:	e8 d5 96 00 00       	call   b770 <log_msg@plt>
    209b:	83 c4 10             	add    $0x10,%esp
    209e:	e9 2d fe ff ff       	jmp    1ed0 <device_event_callback+0x30>
    20a3:	90                   	nop
    20a4:	8d 74 26 00          	lea    0x0(%esi,%eiz,1),%esi
    20a8:	52                   	push   %edx
    20a9:	68 2d 90 00 00       	push   $0x902d
    20ae:	6a 03                	push   $0x3
    20b0:	6a ff                	push   $0xffffffff
    20b2:	e8 b9 96 00 00       	call   b770 <log_msg@plt>
    20b7:	8d 65 f4             	lea    -0xc(%ebp),%esp
    20ba:	5b                   	pop    %ebx
    20bb:	5e                   	pop    %esi
    20bc:	5f                   	pop    %edi
    20bd:	5d                   	pop    %ebp
    20be:	c3                   	ret    
    20bf:	90                   	nop
    20c0:	50                   	push   %eax
    20c1:	68 fc 8f 00 00       	push   $0x8ffc
    20c6:	6a 05                	push   $0x5
    20c8:	6a ff                	push   $0xffffffff
    20ca:	e8 a1 96 00 00       	call   b770 <log_msg@plt>
    20cf:	a1 6c b3 00 00       	mov    0xb36c,%eax
    20d4:	89 43 64             	mov    %eax,0x64(%ebx)
    20d7:	a1 70 b3 00 00       	mov    0xb370,%eax
    20dc:	89 43 68             	mov    %eax,0x68(%ebx)
    20df:	a1 74 b3 00 00       	mov    0xb374,%eax
    20e4:	89 43 6c             	mov    %eax,0x6c(%ebx)
    20e7:	8b 43 14             	mov    0x14(%ebx),%eax
    20ea:	83 c4 10             	add    $0x10,%esp
    20ed:	85 c0                	test   %eax,%eax
    20ef:	0f 85 e6 fe ff ff    	jne    1fdb <device_event_callback+0x13b>
    20f5:	50                   	push   %eax
    20f6:	68 7b 01 00 00       	push   $0x17b
    20fb:	68 ec 8e 00 00       	push   $0x8eec
    2100:	68 65 8f 00 00       	push   $0x8f65
    2105:	e8 a6 96 00 00       	call   b7b0 <assert_abort@plt>
    210a:	8d b6 00 00 00 00    	lea    0x0(%esi),%esi
    2110:	83 ec 0c             	sub    $0xc,%esp
    2113:	8b 43 14             	mov    0x14(%ebx),%eax
    2116:	50                   	push   %eax
    2117:	e8 14 96 00 00       	call   b730 <as_area_destroy@plt>
    211c:	c7 43 14 00 00 00 00 	movl   $0x0,0x14(%ebx)
    2123:	c7 43 18 00 00 00 00 	movl   $0x0,0x18(%ebx)
    212a:	c7 43 1c 00 00 00 00 	movl   $0x0,0x1c(%ebx)
    2131:	83 c4 10             	add    $0x10,%esp
    2134:	e9 ee fe ff ff       	jmp    2027 <device_event_callback+0x187>
    2139:	8d b4 26 00 00 00 00 	lea    0x0(%esi,%eiz,1),%esi
    2140:	89 4b 1c             	mov    %ecx,0x1c(%ebx)
    2143:	e9 3c ff ff ff       	jmp    2084 <device_event_callback+0x1e4>
    2148:	89 53 1c             	mov    %edx,0x1c(%ebx)
    214b:	e9 0c fe ff ff       	jmp    1f5c <device_event_callback+0xbc>
    2150:	50                   	push   %eax
    2151:	68 92 01 00 00       	push   $0x192
    2156:	68 ec 8e 00 00       	push   $0x8eec
    215b:	68 bc 90 00 00       	push   $0x90bc
    2160:	e8 4b 96 00 00       	call   b7b0 <assert_abort@plt>
    2165:	52                   	push   %edx
    2166:	68 91 01 00 00       	push   $0x191
    216b:	68 ec 8e 00 00       	push   $0x8eec
    2170:	68 90 90 00 00       	push   $0x9090
    2175:	e8 36 96 00 00       	call   b7b0 <assert_abort@plt>
    217a:	50                   	push   %eax
    217b:	68 08 01 00 00       	push   $0x108
    2180:	68 ec 8e 00 00       	push   $0x8eec
    2185:	68 fb 8e 00 00       	push   $0x8efb
    218a:	e8 21 96 00 00       	call   b7b0 <assert_abort@plt>
    218f:	90                   	nop

00002190 <device_source_connection_callback>:
    2190:	55                   	push   %ebp
    2191:	89 e5                	mov    %esp,%ebp
    2193:	57                   	push   %edi
    2194:	56                   	push   %esi
    2195:	53                   	push   %ebx
    2196:	83 ec 1c             	sub    $0x1c,%esp
    2199:	8b 45 08             	mov    0x8(%ebp),%eax
    219c:	8b 55 0c             	mov    0xc(%ebp),%edx
    219f:	85 c0                	test   %eax,%eax
    21a1:	0f 84 0b 02 00 00    	je     23b2 <device_source_connection_callback+0x222>
    21a7:	8b 70 20             	mov    0x20(%eax),%esi
    21aa:	84 d2                	test   %dl,%dl
    21ac:	75 52                	jne    2200 <device_source_connection_callback+0x70>
    21ae:	83 ec 0c             	sub    $0xc,%esp
    21b1:	83 c0 08             	add    $0x8,%eax
    21b4:	50                   	push   %eax
    21b5:	e8 46 97 00 00       	call   b900 <list_count@plt>
    21ba:	83 c4 10             	add    $0x10,%esp
    21bd:	85 c0                	test   %eax,%eax
    21bf:	75 65                	jne    2226 <device_source_connection_callback+0x96>
    21c1:	83 ec 0c             	sub    $0xc,%esp
    21c4:	8b 46 0c             	mov    0xc(%esi),%eax
    21c7:	50                   	push   %eax
    21c8:	e8 e3 42 00 00       	call   64b0 <audio_pcm_stop_capture_immediate>
    21cd:	83 c4 10             	add    $0x10,%esp
    21d0:	89 c7                	mov    %eax,%edi
    21d2:	85 c0                	test   %eax,%eax
    21d4:	74 1b                	je     21f1 <device_source_connection_callback+0x61>
    21d6:	83 ec 0c             	sub    $0xc,%esp
    21d9:	50                   	push   %eax
    21da:	e8 51 97 00 00       	call   b930 <str_error@plt>
    21df:	50                   	push   %eax
    21e0:	68 4a 90 00 00       	push   $0x904a
    21e5:	6a 01                	push   $0x1
    21e7:	6a ff                	push   $0xffffffff
    21e9:	e8 82 95 00 00       	call   b770 <log_msg@plt>
    21ee:	83 c4 20             	add    $0x20,%esp
    21f1:	8d 65 f4             	lea    -0xc(%ebp),%esp
    21f4:	89 f8                	mov    %edi,%eax
    21f6:	5b                   	pop    %ebx
    21f7:	5e                   	pop    %esi
    21f8:	5f                   	pop    %edi
    21f9:	5d                   	pop    %ebp
    21fa:	c3                   	ret    
    21fb:	90                   	nop
    21fc:	8d 74 26 00          	lea    0x0(%esi,%eiz,1),%esi
    2200:	83 ec 0c             	sub    $0xc,%esp
    2203:	8d 58 08             	lea    0x8(%eax),%ebx
    2206:	53                   	push   %ebx
    2207:	e8 f4 96 00 00       	call   b900 <list_count@plt>
    220c:	83 c4 10             	add    $0x10,%esp
    220f:	48                   	dec    %eax
    2210:	74 26                	je     2238 <device_source_connection_callback+0xa8>
    2212:	83 ec 0c             	sub    $0xc,%esp
    2215:	53                   	push   %ebx
    2216:	e8 e5 96 00 00       	call   b900 <list_count@plt>
    221b:	83 c4 10             	add    $0x10,%esp
    221e:	85 c0                	test   %eax,%eax
    2220:	0f 84 34 01 00 00    	je     235a <device_source_connection_callback+0x1ca>
    2226:	8d 65 f4             	lea    -0xc(%ebp),%esp
    2229:	31 ff                	xor    %edi,%edi
    222b:	89 f8                	mov    %edi,%eax
    222d:	5b                   	pop    %ebx
    222e:	5e                   	pop    %esi
    222f:	5f                   	pop    %edi
    2230:	5d                   	pop    %ebp
    2231:	c3                   	ret    
    2232:	8d b6 00 00 00 00    	lea    0x0(%esi),%esi
    2238:	85 f6                	test   %esi,%esi
    223a:	0f 84 a3 01 00 00    	je     23e3 <device_source_connection_callback+0x253>
    2240:	8b 46 0c             	mov    0xc(%esi),%eax
    2243:	85 c0                	test   %eax,%eax
    2245:	0f 84 7c 01 00 00    	je     23c7 <device_source_connection_callback+0x237>
    224b:	8b 7e 14             	mov    0x14(%esi),%edi
    224e:	85 ff                	test   %edi,%edi
    2250:	0f 85 1a 01 00 00    	jne    2370 <device_source_connection_callback+0x1e0>
    2256:	8d 55 e4             	lea    -0x1c(%ebp),%edx
    2259:	51                   	push   %ecx
    225a:	52                   	push   %edx
    225b:	8d 56 14             	lea    0x14(%esi),%edx
    225e:	52                   	push   %edx
    225f:	c7 45 e4 00 00 00 00 	movl   $0x0,-0x1c(%ebp)
    2266:	50                   	push   %eax
    2267:	e8 c4 3d 00 00       	call   6030 <audio_pcm_get_buffer>
    226c:	83 c4 10             	add    $0x10,%esp
    226f:	85 c0                	test   %eax,%eax
    2271:	0f 85 c1 00 00 00    	jne    2338 <device_source_connection_callback+0x1a8>
    2277:	8b 45 e4             	mov    -0x1c(%ebp),%eax
    227a:	8b 56 14             	mov    0x14(%esi),%edx
    227d:	89 46 18             	mov    %eax,0x18(%esi)
    2280:	8b 4e 6c             	mov    0x6c(%esi),%ecx
    2283:	c1 e8 04             	shr    $0x4,%eax
    2286:	31 ff                	xor    %edi,%edi
    2288:	89 46 20             	mov    %eax,0x20(%esi)
    228b:	89 56 1c             	mov    %edx,0x1c(%esi)
    228e:	83 f9 12             	cmp    $0x12,%ecx
    2291:	0f 86 89 00 00 00    	jbe    2320 <device_source_connection_callback+0x190>
    2297:	83 ec 0c             	sub    $0xc,%esp
    229a:	8b 56 40             	mov    0x40(%esi),%edx
    229d:	8b 4e 3c             	mov    0x3c(%esi),%ecx
    22a0:	52                   	push   %edx
    22a1:	51                   	push   %ecx
    22a2:	8b 56 38             	mov    0x38(%esi),%edx
    22a5:	8b 4e 0c             	mov    0xc(%esi),%ecx
    22a8:	52                   	push   %edx
    22a9:	31 d2                	xor    %edx,%edx
    22ab:	f7 f7                	div    %edi
    22ad:	50                   	push   %eax
    22ae:	51                   	push   %ecx
    22af:	e8 8c 40 00 00       	call   6340 <audio_pcm_start_capture_fragment>
    22b4:	83 c4 20             	add    $0x20,%esp
    22b7:	89 c7                	mov    %eax,%edi
    22b9:	85 c0                	test   %eax,%eax
    22bb:	0f 84 51 ff ff ff    	je     2212 <device_source_connection_callback+0x82>
    22c1:	83 ec 0c             	sub    $0xc,%esp
    22c4:	50                   	push   %eax
    22c5:	e8 66 96 00 00       	call   b930 <str_error@plt>
    22ca:	50                   	push   %eax
    22cb:	68 4a 90 00 00       	push   $0x904a
    22d0:	6a 01                	push   $0x1
    22d2:	6a ff                	push   $0xffffffff
    22d4:	e8 97 94 00 00       	call   b770 <log_msg@plt>
    22d9:	8b 46 14             	mov    0x14(%esi),%eax
    22dc:	83 c4 20             	add    $0x20,%esp
    22df:	85 c0                	test   %eax,%eax
    22e1:	0f 84 11 01 00 00    	je     23f8 <device_source_connection_callback+0x268>
    22e7:	83 ec 0c             	sub    $0xc,%esp
    22ea:	8b 5e 0c             	mov    0xc(%esi),%ebx
    22ed:	53                   	push   %ebx
    22ee:	e8 ed 3d 00 00       	call   60e0 <audio_pcm_release_buffer>
    22f3:	83 c4 10             	add    $0x10,%esp
    22f6:	85 c0                	test   %eax,%eax
    22f8:	0f 84 8b 00 00 00    	je     2389 <device_source_connection_callback+0x1f9>
    22fe:	83 ec 0c             	sub    $0xc,%esp
    2301:	50                   	push   %eax
    2302:	e8 29 96 00 00       	call   b930 <str_error@plt>
    2307:	50                   	push   %eax
    2308:	68 76 8f 00 00       	push   $0x8f76
    230d:	6a 02                	push   $0x2
    230f:	6a ff                	push   $0xffffffff
    2311:	e8 5a 94 00 00       	call   b770 <log_msg@plt>
    2316:	83 c4 20             	add    $0x20,%esp
    2319:	e9 d3 fe ff ff       	jmp    21f1 <device_source_connection_callback+0x61>
    231e:	66 90                	xchg   %ax,%ax
    2320:	8b 7e 64             	mov    0x64(%esi),%edi
    2323:	8b 14 8d a0 91 00 00 	mov    0x91a0(,%ecx,4),%edx
    232a:	0f af fa             	imul   %edx,%edi
    232d:	e9 65 ff ff ff       	jmp    2297 <device_source_connection_callback+0x107>
    2332:	8d b6 00 00 00 00    	lea    0x0(%esi),%esi
    2338:	89 c7                	mov    %eax,%edi
    233a:	83 ec 0c             	sub    $0xc,%esp
    233d:	57                   	push   %edi
    233e:	e8 ed 95 00 00       	call   b930 <str_error@plt>
    2343:	50                   	push   %eax
    2344:	68 28 91 00 00       	push   $0x9128
    2349:	6a 01                	push   $0x1
    234b:	6a ff                	push   $0xffffffff
    234d:	e8 1e 94 00 00       	call   b770 <log_msg@plt>
    2352:	83 c4 20             	add    $0x20,%esp
    2355:	e9 97 fe ff ff       	jmp    21f1 <device_source_connection_callback+0x61>
    235a:	52                   	push   %edx
    235b:	68 f1 00 00 00       	push   $0xf1
    2360:	68 ec 8e 00 00       	push   $0x8eec
    2365:	68 93 8f 00 00       	push   $0x8f93
    236a:	e8 41 94 00 00       	call   b7b0 <assert_abort@plt>
    236f:	90                   	nop
    2370:	53                   	push   %ebx
    2371:	68 17 8f 00 00       	push   $0x8f17
    2376:	6a 04                	push   $0x4
    2378:	6a ff                	push   $0xffffffff
    237a:	bf f1 ff ff ff       	mov    $0xfffffff1,%edi
    237f:	e8 ec 93 00 00       	call   b770 <log_msg@plt>
    2384:	83 c4 10             	add    $0x10,%esp
    2387:	eb b1                	jmp    233a <device_source_connection_callback+0x1aa>
    2389:	83 ec 0c             	sub    $0xc,%esp
    238c:	8b 4e 14             	mov    0x14(%esi),%ecx
    238f:	51                   	push   %ecx
    2390:	e8 9b 93 00 00       	call   b730 <as_area_destroy@plt>
    2395:	c7 46 14 00 00 00 00 	movl   $0x0,0x14(%esi)
    239c:	c7 46 18 00 00 00 00 	movl   $0x0,0x18(%esi)
    23a3:	c7 46 1c 00 00 00 00 	movl   $0x0,0x1c(%esi)
    23aa:	83 c4 10             	add    $0x10,%esp
    23ad:	e9 3f fe ff ff       	jmp    21f1 <device_source_connection_callback+0x61>
    23b2:	50                   	push   %eax
    23b3:	68 d7 00 00 00       	push   $0xd7
    23b8:	68 ec 8e 00 00       	push   $0x8eec
    23bd:	68 63 92 00 00       	push   $0x9263
    23c2:	e8 e9 93 00 00       	call   b7b0 <assert_abort@plt>
    23c7:	50                   	push   %eax
    23c8:	68 ff 8e 00 00       	push   $0x8eff
    23cd:	6a 04                	push   $0x4
    23cf:	6a ff                	push   $0xffffffff
    23d1:	bf f6 fe ff ff       	mov    $0xfffffef6,%edi
    23d6:	e8 95 93 00 00       	call   b770 <log_msg@plt>
    23db:	83 c4 10             	add    $0x10,%esp
    23de:	e9 57 ff ff ff       	jmp    233a <device_source_connection_callback+0x1aa>
    23e3:	50                   	push   %eax
    23e4:	68 5b 01 00 00       	push   $0x15b
    23e9:	68 ec 8e 00 00       	push   $0x8eec
    23ee:	68 fb 8e 00 00       	push   $0x8efb
    23f3:	e8 b8 93 00 00       	call   b7b0 <assert_abort@plt>
    23f8:	56                   	push   %esi
    23f9:	68 7b 01 00 00       	push   $0x17b
    23fe:	68 ec 8e 00 00       	push   $0x8eec
    2403:	68 65 8f 00 00       	push   $0x8f65
    2408:	e8 a3 93 00 00       	call   b7b0 <assert_abort@plt>
    240d:	8d 76 00             	lea    0x0(%esi),%esi

00002410 <audio_device_init>:
    2410:	55                   	push   %ebp
    2411:	89 e5                	mov    %esp,%ebp
    2413:	57                   	push   %edi
    2414:	56                   	push   %esi
    2415:	53                   	push   %ebx
    2416:	83 ec 0c             	sub    $0xc,%esp
    2419:	8b 5d 08             	mov    0x8(%ebp),%ebx
    241c:	8b 7d 0c             	mov    0xc(%ebp),%edi
    241f:	8b 75 10             	mov    0x10(%ebp),%esi
    2422:	85 db                	test   %ebx,%ebx
    2424:	0f 84 c1 00 00 00    	je     24eb <audio_device_init+0xdb>
    242a:	83 ec 0c             	sub    $0xc,%esp
    242d:	c7 03 00 00 00 00    	movl   $0x0,(%ebx)
    2433:	c7 43 04 00 00 00 00 	movl   $0x0,0x4(%ebx)
    243a:	89 7b 08             	mov    %edi,0x8(%ebx)
    243d:	56                   	push   %esi
    243e:	e8 dd 93 00 00       	call   b820 <str_dup@plt>
    2443:	89 43 10             	mov    %eax,0x10(%ebx)
    2446:	89 3c 24             	mov    %edi,(%esp)
    2449:	e8 c2 37 00 00       	call   5c10 <audio_pcm_open_service>
    244e:	83 c4 10             	add    $0x10,%esp
    2451:	89 43 0c             	mov    %eax,0xc(%ebx)
    2454:	85 c0                	test   %eax,%eax
    2456:	74 7a                	je     24d2 <audio_device_init+0xc2>
    2458:	50                   	push   %eax
    2459:	8d 43 50             	lea    0x50(%ebx),%eax
    245c:	68 6c b3 00 00       	push   $0xb36c
    2461:	6a 00                	push   $0x0
    2463:	68 10 1e 00 00       	push   $0x1e10
    2468:	68 d0 1a 00 00       	push   $0x1ad0
    246d:	53                   	push   %ebx
    246e:	56                   	push   %esi
    246f:	50                   	push   %eax
    2470:	e8 3b 01 00 00       	call   25b0 <audio_sink_init>
    2475:	83 c4 18             	add    $0x18,%esp
    2478:	8d 43 24             	lea    0x24(%ebx),%eax
    247b:	68 6c b3 00 00       	push   $0xb36c
    2480:	6a 00                	push   $0x0
    2482:	68 90 21 00 00       	push   $0x2190
    2487:	53                   	push   %ebx
    2488:	56                   	push   %esi
    2489:	50                   	push   %eax
    248a:	e8 f1 04 00 00       	call   2980 <audio_source_init>
    248f:	83 c4 18             	add    $0x18,%esp
    2492:	8b 53 08             	mov    0x8(%ebx),%edx
    2495:	8b 4b 10             	mov    0x10(%ebx),%ecx
    2498:	c7 43 14 00 00 00 00 	movl   $0x0,0x14(%ebx)
    249f:	c7 43 1c 00 00 00 00 	movl   $0x0,0x1c(%ebx)
    24a6:	c7 43 18 00 00 00 00 	movl   $0x0,0x18(%ebx)
    24ad:	c7 43 20 00 00 00 00 	movl   $0x0,0x20(%ebx)
    24b4:	52                   	push   %edx
    24b5:	51                   	push   %ecx
    24b6:	53                   	push   %ebx
    24b7:	68 6c 91 00 00       	push   $0x916c
    24bc:	6a 05                	push   $0x5
    24be:	6a ff                	push   $0xffffffff
    24c0:	e8 ab 92 00 00       	call   b770 <log_msg@plt>
    24c5:	83 c4 20             	add    $0x20,%esp
    24c8:	31 c0                	xor    %eax,%eax
    24ca:	8d 65 f4             	lea    -0xc(%ebp),%esp
    24cd:	5b                   	pop    %ebx
    24ce:	5e                   	pop    %esi
    24cf:	5f                   	pop    %edi
    24d0:	5d                   	pop    %ebp
    24d1:	c3                   	ret    
    24d2:	56                   	push   %esi
    24d3:	68 48 91 00 00       	push   $0x9148
    24d8:	6a 04                	push   $0x4
    24da:	6a ff                	push   $0xffffffff
    24dc:	e8 8f 92 00 00       	call   b770 <log_msg@plt>
    24e1:	83 c4 10             	add    $0x10,%esp
    24e4:	b8 fe ff ff ff       	mov    $0xfffffffe,%eax
    24e9:	eb df                	jmp    24ca <audio_device_init+0xba>
    24eb:	53                   	push   %ebx
    24ec:	6a 4c                	push   $0x4c
    24ee:	68 ec 8e 00 00       	push   $0x8eec
    24f3:	68 fb 8e 00 00       	push   $0x8efb
    24f8:	e8 b3 92 00 00       	call   b7b0 <assert_abort@plt>
    24fd:	8d 76 00             	lea    0x0(%esi),%esi

00002500 <audio_device_fini>:
    2500:	55                   	push   %ebp
    2501:	89 e5                	mov    %esp,%ebp
    2503:	5d                   	pop    %ebp
    2504:	c3                   	ret    
    2505:	8d 74 26 00          	lea    0x0(%esi,%eiz,1),%esi
    2509:	8d bc 27 00 00 00 00 	lea    0x0(%edi,%eiz,1),%edi

00002510 <audio_device_get_source>:
    2510:	55                   	push   %ebp
    2511:	89 e5                	mov    %esp,%ebp
    2513:	53                   	push   %ebx
    2514:	53                   	push   %ebx
    2515:	8b 5d 08             	mov    0x8(%ebp),%ebx
    2518:	85 db                	test   %ebx,%ebx
    251a:	74 23                	je     253f <audio_device_get_source+0x2f>
    251c:	50                   	push   %eax
    251d:	50                   	push   %eax
    251e:	8b 53 0c             	mov    0xc(%ebx),%edx
    2521:	6a 00                	push   $0x0
    2523:	52                   	push   %edx
    2524:	e8 17 38 00 00       	call   5d40 <audio_pcm_query_cap>
    2529:	83 c4 10             	add    $0x10,%esp
    252c:	85 c0                	test   %eax,%eax
    252e:	74 08                	je     2538 <audio_device_get_source+0x28>
    2530:	8d 43 24             	lea    0x24(%ebx),%eax
    2533:	8b 5d fc             	mov    -0x4(%ebp),%ebx
    2536:	c9                   	leave  
    2537:	c3                   	ret    
    2538:	31 c0                	xor    %eax,%eax
    253a:	8b 5d fc             	mov    -0x4(%ebp),%ebx
    253d:	c9                   	leave  
    253e:	c3                   	ret    
    253f:	51                   	push   %ecx
    2540:	6a 7a                	push   $0x7a
    2542:	68 ec 8e 00 00       	push   $0x8eec
    2547:	68 fb 8e 00 00       	push   $0x8efb
    254c:	e8 5f 92 00 00       	call   b7b0 <assert_abort@plt>
    2551:	eb 0d                	jmp    2560 <audio_device_get_sink>
    2553:	90                   	nop
    2554:	90                   	nop
    2555:	90                   	nop
    2556:	90                   	nop
    2557:	90                   	nop
    2558:	90                   	nop
    2559:	90                   	nop
    255a:	90                   	nop
    255b:	90                   	nop
    255c:	90                   	nop
    255d:	90                   	nop
    255e:	90                   	nop
    255f:	90                   	nop

00002560 <audio_device_get_sink>:
    2560:	55                   	push   %ebp
    2561:	89 e5                	mov    %esp,%ebp
    2563:	53                   	push   %ebx
    2564:	53                   	push   %ebx
    2565:	8b 5d 08             	mov    0x8(%ebp),%ebx
    2568:	85 db                	test   %ebx,%ebx
    256a:	74 23                	je     258f <audio_device_get_sink+0x2f>
    256c:	50                   	push   %eax
    256d:	50                   	push   %eax
    256e:	8b 53 0c             	mov    0xc(%ebx),%edx
    2571:	6a 01                	push   $0x1
    2573:	52                   	push   %edx
    2574:	e8 c7 37 00 00       	call   5d40 <audio_pcm_query_cap>
    2579:	83 c4 10             	add    $0x10,%esp
    257c:	85 c0                	test   %eax,%eax
    257e:	74 08                	je     2588 <audio_device_get_sink+0x28>
    2580:	8d 43 50             	lea    0x50(%ebx),%eax
    2583:	8b 5d fc             	mov    -0x4(%ebp),%ebx
    2586:	c9                   	leave  
    2587:	c3                   	ret    
    2588:	31 c0                	xor    %eax,%eax
    258a:	8b 5d fc             	mov    -0x4(%ebp),%ebx
    258d:	c9                   	leave  
    258e:	c3                   	ret    
    258f:	51                   	push   %ecx
    2590:	68 88 00 00 00       	push   $0x88
    2595:	68 ec 8e 00 00       	push   $0x8eec
    259a:	68 fb 8e 00 00       	push   $0x8efb
    259f:	e8 0c 92 00 00       	call   b7b0 <assert_abort@plt>
    25a4:	66 90                	xchg   %ax,%ax
    25a6:	66 90                	xchg   %ax,%ax
    25a8:	66 90                	xchg   %ax,%ax
    25aa:	66 90                	xchg   %ax,%ax
    25ac:	66 90                	xchg   %ax,%ax
    25ae:	66 90                	xchg   %ax,%ax

000025b0 <audio_sink_init>:
    25b0:	55                   	push   %ebp
    25b1:	89 e5                	mov    %esp,%ebp
    25b3:	56                   	push   %esi
    25b4:	53                   	push   %ebx
    25b5:	8b 5d 08             	mov    0x8(%ebp),%ebx
    25b8:	8b 45 0c             	mov    0xc(%ebp),%eax
    25bb:	8b 75 20             	mov    0x20(%ebp),%esi
    25be:	85 db                	test   %ebx,%ebx
    25c0:	0f 84 89 00 00 00    	je     264f <audio_sink_init+0x9f>
    25c6:	85 c0                	test   %eax,%eax
    25c8:	74 76                	je     2640 <audio_sink_init+0x90>
    25ca:	83 ec 0c             	sub    $0xc,%esp
    25cd:	8d 53 08             	lea    0x8(%ebx),%edx
    25d0:	c7 03 00 00 00 00    	movl   $0x0,(%ebx)
    25d6:	c7 43 04 00 00 00 00 	movl   $0x0,0x4(%ebx)
    25dd:	89 53 08             	mov    %edx,0x8(%ebx)
    25e0:	89 53 0c             	mov    %edx,0xc(%ebx)
    25e3:	50                   	push   %eax
    25e4:	e8 37 92 00 00       	call   b820 <str_dup@plt>
    25e9:	83 c4 10             	add    $0x10,%esp
    25ec:	89 43 10             	mov    %eax,0x10(%ebx)
    25ef:	85 c0                	test   %eax,%eax
    25f1:	74 55                	je     2648 <audio_sink_init+0x98>
    25f3:	8b 55 10             	mov    0x10(%ebp),%edx
    25f6:	83 ec 0c             	sub    $0xc,%esp
    25f9:	89 53 20             	mov    %edx,0x20(%ebx)
    25fc:	8b 16                	mov    (%esi),%edx
    25fe:	89 53 14             	mov    %edx,0x14(%ebx)
    2601:	8b 56 04             	mov    0x4(%esi),%edx
    2604:	89 53 18             	mov    %edx,0x18(%ebx)
    2607:	8b 56 08             	mov    0x8(%esi),%edx
    260a:	89 53 1c             	mov    %edx,0x1c(%ebx)
    260d:	8b 55 14             	mov    0x14(%ebp),%edx
    2610:	89 53 24             	mov    %edx,0x24(%ebx)
    2613:	8b 55 18             	mov    0x18(%ebp),%edx
    2616:	89 53 28             	mov    %edx,0x28(%ebx)
    2619:	8b 55 1c             	mov    0x1c(%ebp),%edx
    261c:	89 53 2c             	mov    %edx,0x2c(%ebx)
    261f:	50                   	push   %eax
    2620:	53                   	push   %ebx
    2621:	68 f9 91 00 00       	push   $0x91f9
    2626:	6a 05                	push   $0x5
    2628:	6a ff                	push   $0xffffffff
    262a:	e8 41 91 00 00       	call   b770 <log_msg@plt>
    262f:	83 c4 20             	add    $0x20,%esp
    2632:	31 c0                	xor    %eax,%eax
    2634:	8d 65 f8             	lea    -0x8(%ebp),%esp
    2637:	5b                   	pop    %ebx
    2638:	5e                   	pop    %esi
    2639:	5d                   	pop    %ebp
    263a:	c3                   	ret    
    263b:	90                   	nop
    263c:	8d 74 26 00          	lea    0x0(%esi,%eiz,1),%esi
    2640:	b8 f2 ff ff ff       	mov    $0xfffffff2,%eax
    2645:	eb ed                	jmp    2634 <audio_sink_init+0x84>
    2647:	90                   	nop
    2648:	b8 fe ff ff ff       	mov    $0xfffffffe,%eax
    264d:	eb e5                	jmp    2634 <audio_sink_init+0x84>
    264f:	50                   	push   %eax
    2650:	6a 3f                	push   $0x3f
    2652:	68 ec 91 00 00       	push   $0x91ec
    2657:	68 76 95 00 00       	push   $0x9576
    265c:	e8 4f 91 00 00       	call   b7b0 <assert_abort@plt>
    2661:	eb 0d                	jmp    2670 <audio_sink_fini>
    2663:	90                   	nop
    2664:	90                   	nop
    2665:	90                   	nop
    2666:	90                   	nop
    2667:	90                   	nop
    2668:	90                   	nop
    2669:	90                   	nop
    266a:	90                   	nop
    266b:	90                   	nop
    266c:	90                   	nop
    266d:	90                   	nop
    266e:	90                   	nop
    266f:	90                   	nop

00002670 <audio_sink_fini>:
    2670:	55                   	push   %ebp
    2671:	89 e5                	mov    %esp,%ebp
    2673:	53                   	push   %ebx
    2674:	50                   	push   %eax
    2675:	8b 5d 08             	mov    0x8(%ebp),%ebx
    2678:	85 db                	test   %ebx,%ebx
    267a:	74 2a                	je     26a6 <audio_sink_fini+0x36>
    267c:	8d 43 08             	lea    0x8(%ebx),%eax
    267f:	39 43 0c             	cmp    %eax,0xc(%ebx)
    2682:	75 46                	jne    26ca <audio_sink_fini+0x5a>
    2684:	8b 4b 20             	mov    0x20(%ebx),%ecx
    2687:	85 c9                	test   %ecx,%ecx
    2689:	75 2d                	jne    26b8 <audio_sink_fini+0x48>
    268b:	83 ec 0c             	sub    $0xc,%esp
    268e:	8b 43 10             	mov    0x10(%ebx),%eax
    2691:	50                   	push   %eax
    2692:	e8 39 93 00 00       	call   b9d0 <free@plt>
    2697:	c7 43 10 00 00 00 00 	movl   $0x0,0x10(%ebx)
    269e:	83 c4 10             	add    $0x10,%esp
    26a1:	8b 5d fc             	mov    -0x4(%ebp),%ebx
    26a4:	c9                   	leave  
    26a5:	c3                   	ret    
    26a6:	50                   	push   %eax
    26a7:	6a 56                	push   $0x56
    26a9:	68 ec 91 00 00       	push   $0x91ec
    26ae:	68 76 95 00 00       	push   $0x9576
    26b3:	e8 f8 90 00 00       	call   b7b0 <assert_abort@plt>
    26b8:	52                   	push   %edx
    26b9:	6a 58                	push   $0x58
    26bb:	68 ec 91 00 00       	push   $0x91ec
    26c0:	68 14 92 00 00       	push   $0x9214
    26c5:	e8 e6 90 00 00       	call   b7b0 <assert_abort@plt>
    26ca:	53                   	push   %ebx
    26cb:	6a 57                	push   $0x57
    26cd:	68 ec 91 00 00       	push   $0x91ec
    26d2:	68 b0 93 00 00       	push   $0x93b0
    26d7:	e8 d4 90 00 00       	call   b7b0 <assert_abort@plt>
    26dc:	8d 74 26 00          	lea    0x0(%esi,%eiz,1),%esi

000026e0 <audio_sink_set_format>:
    26e0:	55                   	push   %ebp
    26e1:	89 e5                	mov    %esp,%ebp
    26e3:	57                   	push   %edi
    26e4:	56                   	push   %esi
    26e5:	53                   	push   %ebx
    26e6:	83 ec 1c             	sub    $0x1c,%esp
    26e9:	8b 75 08             	mov    0x8(%ebp),%esi
    26ec:	8b 7d 0c             	mov    0xc(%ebp),%edi
    26ef:	85 f6                	test   %esi,%esi
    26f1:	0f 84 5a 01 00 00    	je     2851 <audio_sink_set_format+0x171>
    26f7:	85 ff                	test   %edi,%edi
    26f9:	0f 84 40 01 00 00    	je     283f <audio_sink_set_format+0x15f>
    26ff:	50                   	push   %eax
    2700:	50                   	push   %eax
    2701:	8d 46 14             	lea    0x14(%esi),%eax
    2704:	68 6c b3 00 00       	push   $0xb36c
    2709:	50                   	push   %eax
    270a:	e8 a1 51 00 00       	call   78b0 <pcm_format_same>
    270f:	83 c4 10             	add    $0x10,%esp
    2712:	84 c0                	test   %al,%al
    2714:	0f 84 06 01 00 00    	je     2820 <audio_sink_set_format+0x140>
    271a:	8b 46 14             	mov    0x14(%esi),%eax
    271d:	8b 5e 1c             	mov    0x1c(%esi),%ebx
    2720:	89 45 e0             	mov    %eax,-0x20(%ebp)
    2723:	8b 46 18             	mov    0x18(%esi),%eax
    2726:	89 45 e4             	mov    %eax,-0x1c(%ebp)
    2729:	50                   	push   %eax
    272a:	50                   	push   %eax
    272b:	68 6c b3 00 00       	push   $0xb36c
    2730:	57                   	push   %edi
    2731:	e8 7a 51 00 00       	call   78b0 <pcm_format_same>
    2736:	83 c4 10             	add    $0x10,%esp
    2739:	84 c0                	test   %al,%al
    273b:	75 73                	jne    27b0 <audio_sink_set_format+0xd0>
    273d:	8b 07                	mov    (%edi),%eax
    273f:	89 46 14             	mov    %eax,0x14(%esi)
    2742:	8b 47 04             	mov    0x4(%edi),%eax
    2745:	89 46 18             	mov    %eax,0x18(%esi)
    2748:	8b 47 08             	mov    0x8(%edi),%eax
    274b:	89 46 1c             	mov    %eax,0x1c(%esi)
    274e:	8b 46 28             	mov    0x28(%esi),%eax
    2751:	85 c0                	test   %eax,%eax
    2753:	74 16                	je     276b <audio_sink_set_format+0x8b>
    2755:	83 ec 0c             	sub    $0xc,%esp
    2758:	56                   	push   %esi
    2759:	ff d0                	call   *%eax
    275b:	83 c4 10             	add    $0x10,%esp
    275e:	85 c0                	test   %eax,%eax
    2760:	74 09                	je     276b <audio_sink_set_format+0x8b>
    2762:	83 f8 fd             	cmp    $0xfffffffd,%eax
    2765:	0f 85 7d 00 00 00    	jne    27e8 <audio_sink_set_format+0x108>
    276b:	8b 5f 08             	mov    0x8(%edi),%ebx
    276e:	b8 28 92 00 00       	mov    $0x9228,%eax
    2773:	83 fb 12             	cmp    $0x12,%ebx
    2776:	76 28                	jbe    27a0 <audio_sink_set_format+0xc0>
    2778:	52                   	push   %edx
    2779:	50                   	push   %eax
    277a:	8b 4f 04             	mov    0x4(%edi),%ecx
    277d:	8b 76 10             	mov    0x10(%esi),%esi
    2780:	51                   	push   %ecx
    2781:	8b 1f                	mov    (%edi),%ebx
    2783:	53                   	push   %ebx
    2784:	56                   	push   %esi
    2785:	68 14 94 00 00       	push   $0x9414
    278a:	6a 05                	push   $0x5
    278c:	6a ff                	push   $0xffffffff
    278e:	e8 dd 8f 00 00       	call   b770 <log_msg@plt>
    2793:	83 c4 20             	add    $0x20,%esp
    2796:	31 c0                	xor    %eax,%eax
    2798:	8d 65 f4             	lea    -0xc(%ebp),%esp
    279b:	5b                   	pop    %ebx
    279c:	5e                   	pop    %esi
    279d:	5f                   	pop    %edi
    279e:	5d                   	pop    %ebp
    279f:	c3                   	ret    
    27a0:	8b 04 9d e0 94 00 00 	mov    0x94e0(,%ebx,4),%eax
    27a7:	eb cf                	jmp    2778 <audio_sink_set_format+0x98>
    27a9:	8d b4 26 00 00 00 00 	lea    0x0(%esi,%eiz,1),%esi
    27b0:	8b 46 10             	mov    0x10(%esi),%eax
    27b3:	50                   	push   %eax
    27b4:	68 d0 93 00 00       	push   $0x93d0
    27b9:	6a 05                	push   $0x5
    27bb:	6a ff                	push   $0xffffffff
    27bd:	e8 ae 8f 00 00       	call   b770 <log_msg@plt>
    27c2:	a1 78 b3 00 00       	mov    0xb378,%eax
    27c7:	89 46 14             	mov    %eax,0x14(%esi)
    27ca:	a1 7c b3 00 00       	mov    0xb37c,%eax
    27cf:	89 46 18             	mov    %eax,0x18(%esi)
    27d2:	a1 80 b3 00 00       	mov    0xb380,%eax
    27d7:	89 46 1c             	mov    %eax,0x1c(%esi)
    27da:	83 c4 10             	add    $0x10,%esp
    27dd:	e9 6c ff ff ff       	jmp    274e <audio_sink_set_format+0x6e>
    27e2:	8d b6 00 00 00 00    	lea    0x0(%esi),%esi
    27e8:	8b 7e 10             	mov    0x10(%esi),%edi
    27eb:	89 45 dc             	mov    %eax,-0x24(%ebp)
    27ee:	57                   	push   %edi
    27ef:	68 f4 93 00 00       	push   $0x93f4
    27f4:	6a 04                	push   $0x4
    27f6:	6a ff                	push   $0xffffffff
    27f8:	e8 73 8f 00 00       	call   b770 <log_msg@plt>
    27fd:	8b 45 e0             	mov    -0x20(%ebp),%eax
    2800:	89 46 14             	mov    %eax,0x14(%esi)
    2803:	8b 45 e4             	mov    -0x1c(%ebp),%eax
    2806:	89 46 18             	mov    %eax,0x18(%esi)
    2809:	89 5e 1c             	mov    %ebx,0x1c(%esi)
    280c:	8b 45 dc             	mov    -0x24(%ebp),%eax
    280f:	83 c4 10             	add    $0x10,%esp
    2812:	8d 65 f4             	lea    -0xc(%ebp),%esp
    2815:	5b                   	pop    %ebx
    2816:	5e                   	pop    %esi
    2817:	5f                   	pop    %edi
    2818:	5d                   	pop    %ebp
    2819:	c3                   	ret    
    281a:	8d b6 00 00 00 00    	lea    0x0(%esi),%esi
    2820:	8b 46 10             	mov    0x10(%esi),%eax
    2823:	50                   	push   %eax
    2824:	68 3e 92 00 00       	push   $0x923e
    2829:	6a 04                	push   $0x4
    282b:	6a ff                	push   $0xffffffff
    282d:	e8 3e 8f 00 00       	call   b770 <log_msg@plt>
    2832:	83 c4 10             	add    $0x10,%esp
    2835:	b8 f7 ff ff ff       	mov    $0xfffffff7,%eax
    283a:	e9 59 ff ff ff       	jmp    2798 <audio_sink_set_format+0xb8>
    283f:	50                   	push   %eax
    2840:	6a 66                	push   $0x66
    2842:	68 ec 91 00 00       	push   $0x91ec
    2847:	68 54 92 00 00       	push   $0x9254
    284c:	e8 5f 8f 00 00       	call   b7b0 <assert_abort@plt>
    2851:	50                   	push   %eax
    2852:	6a 65                	push   $0x65
    2854:	68 ec 91 00 00       	push   $0x91ec
    2859:	68 76 95 00 00       	push   $0x9576
    285e:	e8 4d 8f 00 00       	call   b7b0 <assert_abort@plt>
    2863:	8d b6 00 00 00 00    	lea    0x0(%esi),%esi
    2869:	8d bc 27 00 00 00 00 	lea    0x0(%edi,%eiz,1),%edi

00002870 <audio_sink_mix_inputs>:
    2870:	55                   	push   %ebp
    2871:	89 e5                	mov    %esp,%ebp
    2873:	57                   	push   %edi
    2874:	56                   	push   %esi
    2875:	53                   	push   %ebx
    2876:	83 ec 1c             	sub    $0x1c,%esp
    2879:	8b 5d 08             	mov    0x8(%ebp),%ebx
    287c:	85 db                	test   %ebx,%ebx
    287e:	0f 84 e2 00 00 00    	je     2966 <audio_sink_mix_inputs+0xf6>
    2884:	8b 75 0c             	mov    0xc(%ebp),%esi
    2887:	85 f6                	test   %esi,%esi
    2889:	0f 84 c2 00 00 00    	je     2951 <audio_sink_mix_inputs+0xe1>
    288f:	50                   	push   %eax
    2890:	8d 43 14             	lea    0x14(%ebx),%eax
    2893:	50                   	push   %eax
    2894:	8b 55 0c             	mov    0xc(%ebp),%edx
    2897:	8b 45 10             	mov    0x10(%ebp),%eax
    289a:	50                   	push   %eax
    289b:	52                   	push   %edx
    289c:	e8 6f 50 00 00       	call   7910 <pcm_format_silence>
    28a1:	8b 7b 0c             	mov    0xc(%ebx),%edi
    28a4:	8d 43 08             	lea    0x8(%ebx),%eax
    28a7:	83 c4 10             	add    $0x10,%esp
    28aa:	8d 77 f8             	lea    -0x8(%edi),%esi
    28ad:	89 45 e4             	mov    %eax,-0x1c(%ebp)
    28b0:	39 f8                	cmp    %edi,%eax
    28b2:	75 0f                	jne    28c3 <audio_sink_mix_inputs+0x53>
    28b4:	eb 6f                	jmp    2925 <audio_sink_mix_inputs+0xb5>
    28b6:	66 90                	xchg   %ax,%ax
    28b8:	8b 7f 04             	mov    0x4(%edi),%edi
    28bb:	39 7d e4             	cmp    %edi,-0x1c(%ebp)
    28be:	8d 77 f8             	lea    -0x8(%edi),%esi
    28c1:	74 62                	je     2925 <audio_sink_mix_inputs+0xb5>
    28c3:	52                   	push   %edx
    28c4:	52                   	push   %edx
    28c5:	8b 4b 1c             	mov    0x1c(%ebx),%ecx
    28c8:	51                   	push   %ecx
    28c9:	8b 43 18             	mov    0x18(%ebx),%eax
    28cc:	50                   	push   %eax
    28cd:	8b 43 14             	mov    0x14(%ebx),%eax
    28d0:	50                   	push   %eax
    28d1:	8b 45 10             	mov    0x10(%ebp),%eax
    28d4:	50                   	push   %eax
    28d5:	8b 45 0c             	mov    0xc(%ebp),%eax
    28d8:	50                   	push   %eax
    28d9:	56                   	push   %esi
    28da:	e8 b1 04 00 00       	call   2d90 <connection_add_source_data>
    28df:	83 c4 20             	add    $0x20,%esp
    28e2:	85 c0                	test   %eax,%eax
    28e4:	74 d2                	je     28b8 <audio_sink_mix_inputs+0x48>
    28e6:	83 ec 0c             	sub    $0xc,%esp
    28e9:	50                   	push   %eax
    28ea:	e8 41 90 00 00       	call   b930 <str_error@plt>
    28ef:	83 c4 10             	add    $0x10,%esp
    28f2:	85 f6                	test   %esi,%esi
    28f4:	74 49                	je     293f <audio_sink_mix_inputs+0xcf>
    28f6:	8b 4e 3c             	mov    0x3c(%esi),%ecx
    28f9:	85 c9                	test   %ecx,%ecx
    28fb:	74 3b                	je     2938 <audio_sink_mix_inputs+0xc8>
    28fd:	8b 49 10             	mov    0x10(%ecx),%ecx
    2900:	85 c9                	test   %ecx,%ecx
    2902:	74 2c                	je     2930 <audio_sink_mix_inputs+0xc0>
    2904:	83 ec 0c             	sub    $0xc,%esp
    2907:	50                   	push   %eax
    2908:	51                   	push   %ecx
    2909:	68 86 92 00 00       	push   $0x9286
    290e:	6a 02                	push   $0x2
    2910:	6a ff                	push   $0xffffffff
    2912:	e8 59 8e 00 00       	call   b770 <log_msg@plt>
    2917:	8b 7f 04             	mov    0x4(%edi),%edi
    291a:	83 c4 20             	add    $0x20,%esp
    291d:	39 7d e4             	cmp    %edi,-0x1c(%ebp)
    2920:	8d 77 f8             	lea    -0x8(%edi),%esi
    2923:	75 9e                	jne    28c3 <audio_sink_mix_inputs+0x53>
    2925:	8d 65 f4             	lea    -0xc(%ebp),%esp
    2928:	5b                   	pop    %ebx
    2929:	5e                   	pop    %esi
    292a:	5f                   	pop    %edi
    292b:	5d                   	pop    %ebp
    292c:	c3                   	ret    
    292d:	8d 76 00             	lea    0x0(%esi),%esi
    2930:	b9 5b 92 00 00       	mov    $0x925b,%ecx
    2935:	eb cd                	jmp    2904 <audio_sink_mix_inputs+0x94>
    2937:	90                   	nop
    2938:	b9 6a 92 00 00       	mov    $0x926a,%ecx
    293d:	eb c5                	jmp    2904 <audio_sink_mix_inputs+0x94>
    293f:	50                   	push   %eax
    2940:	6a 62                	push   $0x62
    2942:	68 79 92 00 00       	push   $0x9279
    2947:	68 c3 97 00 00       	push   $0x97c3
    294c:	e8 5f 8e 00 00       	call   b7b0 <assert_abort@plt>
    2951:	51                   	push   %ecx
    2952:	68 8b 00 00 00       	push   $0x8b
    2957:	68 ec 91 00 00       	push   $0x91ec
    295c:	68 74 92 00 00       	push   $0x9274
    2961:	e8 4a 8e 00 00       	call   b7b0 <assert_abort@plt>
    2966:	57                   	push   %edi
    2967:	68 8a 00 00 00       	push   $0x8a
    296c:	68 ec 91 00 00       	push   $0x91ec
    2971:	68 76 95 00 00       	push   $0x9576
    2976:	e8 35 8e 00 00       	call   b7b0 <assert_abort@plt>
    297b:	66 90                	xchg   %ax,%ax
    297d:	66 90                	xchg   %ax,%ax
    297f:	90                   	nop

00002980 <audio_source_init>:
    2980:	55                   	push   %ebp
    2981:	89 e5                	mov    %esp,%ebp
    2983:	56                   	push   %esi
    2984:	53                   	push   %ebx
    2985:	8b 5d 08             	mov    0x8(%ebp),%ebx
    2988:	8b 45 0c             	mov    0xc(%ebp),%eax
    298b:	8b 75 1c             	mov    0x1c(%ebp),%esi
    298e:	85 db                	test   %ebx,%ebx
    2990:	0f 84 a1 00 00 00    	je     2a37 <audio_source_init+0xb7>
    2996:	85 c0                	test   %eax,%eax
    2998:	74 76                	je     2a10 <audio_source_init+0x90>
    299a:	85 f6                	test   %esi,%esi
    299c:	74 72                	je     2a10 <audio_source_init+0x90>
    299e:	83 ec 0c             	sub    $0xc,%esp
    29a1:	8d 53 08             	lea    0x8(%ebx),%edx
    29a4:	c7 03 00 00 00 00    	movl   $0x0,(%ebx)
    29aa:	c7 43 04 00 00 00 00 	movl   $0x0,0x4(%ebx)
    29b1:	89 53 08             	mov    %edx,0x8(%ebx)
    29b4:	89 53 0c             	mov    %edx,0xc(%ebx)
    29b7:	50                   	push   %eax
    29b8:	e8 63 8e 00 00       	call   b820 <str_dup@plt>
    29bd:	83 c4 10             	add    $0x10,%esp
    29c0:	89 43 10             	mov    %eax,0x10(%ebx)
    29c3:	85 c0                	test   %eax,%eax
    29c5:	74 69                	je     2a30 <audio_source_init+0xb0>
    29c7:	8b 55 10             	mov    0x10(%ebp),%edx
    29ca:	83 ec 0c             	sub    $0xc,%esp
    29cd:	89 53 20             	mov    %edx,0x20(%ebx)
    29d0:	8b 55 14             	mov    0x14(%ebp),%edx
    29d3:	89 53 24             	mov    %edx,0x24(%ebx)
    29d6:	8b 55 18             	mov    0x18(%ebp),%edx
    29d9:	89 53 28             	mov    %edx,0x28(%ebx)
    29dc:	8b 16                	mov    (%esi),%edx
    29de:	89 53 14             	mov    %edx,0x14(%ebx)
    29e1:	8b 56 04             	mov    0x4(%esi),%edx
    29e4:	89 53 18             	mov    %edx,0x18(%ebx)
    29e7:	8b 56 08             	mov    0x8(%esi),%edx
    29ea:	89 53 1c             	mov    %edx,0x1c(%ebx)
    29ed:	50                   	push   %eax
    29ee:	53                   	push   %ebx
    29ef:	68 51 95 00 00       	push   $0x9551
    29f4:	6a 05                	push   $0x5
    29f6:	6a ff                	push   $0xffffffff
    29f8:	e8 73 8d 00 00       	call   b770 <log_msg@plt>
    29fd:	83 c4 20             	add    $0x20,%esp
    2a00:	31 c0                	xor    %eax,%eax
    2a02:	8d 65 f8             	lea    -0x8(%ebp),%esp
    2a05:	5b                   	pop    %ebx
    2a06:	5e                   	pop    %esi
    2a07:	5d                   	pop    %ebp
    2a08:	c3                   	ret    
    2a09:	8d b4 26 00 00 00 00 	lea    0x0(%esi,%eiz,1),%esi
    2a10:	50                   	push   %eax
    2a11:	68 3b 95 00 00       	push   $0x953b
    2a16:	6a 04                	push   $0x4
    2a18:	6a ff                	push   $0xffffffff
    2a1a:	e8 51 8d 00 00       	call   b770 <log_msg@plt>
    2a1f:	83 c4 10             	add    $0x10,%esp
    2a22:	b8 f2 ff ff ff       	mov    $0xfffffff2,%eax
    2a27:	eb d9                	jmp    2a02 <audio_source_init+0x82>
    2a29:	8d b4 26 00 00 00 00 	lea    0x0(%esi,%eiz,1),%esi
    2a30:	b8 fe ff ff ff       	mov    $0xfffffffe,%eax
    2a35:	eb cb                	jmp    2a02 <audio_source_init+0x82>
    2a37:	52                   	push   %edx
    2a38:	6a 3f                	push   $0x3f
    2a3a:	68 2c 95 00 00       	push   $0x952c
    2a3f:	68 63 92 00 00       	push   $0x9263
    2a44:	e8 67 8d 00 00       	call   b7b0 <assert_abort@plt>
    2a49:	8d b4 26 00 00 00 00 	lea    0x0(%esi,%eiz,1),%esi

00002a50 <audio_source_fini>:
    2a50:	55                   	push   %ebp
    2a51:	89 e5                	mov    %esp,%ebp
    2a53:	53                   	push   %ebx
    2a54:	51                   	push   %ecx
    2a55:	8b 5d 08             	mov    0x8(%ebp),%ebx
    2a58:	85 db                	test   %ebx,%ebx
    2a5a:	74 1b                	je     2a77 <audio_source_fini+0x27>
    2a5c:	83 ec 0c             	sub    $0xc,%esp
    2a5f:	8b 43 10             	mov    0x10(%ebx),%eax
    2a62:	50                   	push   %eax
    2a63:	e8 68 8f 00 00       	call   b9d0 <free@plt>
    2a68:	c7 43 10 00 00 00 00 	movl   $0x0,0x10(%ebx)
    2a6f:	83 c4 10             	add    $0x10,%esp
    2a72:	8b 5d fc             	mov    -0x4(%ebp),%ebx
    2a75:	c9                   	leave  
    2a76:	c3                   	ret    
    2a77:	52                   	push   %edx
    2a78:	6a 57                	push   $0x57
    2a7a:	68 2c 95 00 00       	push   $0x952c
    2a7f:	68 63 92 00 00       	push   $0x9263
    2a84:	e8 27 8d 00 00       	call   b7b0 <assert_abort@plt>
    2a89:	8d b4 26 00 00 00 00 	lea    0x0(%esi,%eiz,1),%esi

00002a90 <audio_source_push_data>:
    2a90:	55                   	push   %ebp
    2a91:	89 e5                	mov    %esp,%ebp
    2a93:	57                   	push   %edi
    2a94:	56                   	push   %esi
    2a95:	53                   	push   %ebx
    2a96:	83 ec 0c             	sub    $0xc,%esp
    2a99:	8b 75 08             	mov    0x8(%ebp),%esi
    2a9c:	8b 45 0c             	mov    0xc(%ebp),%eax
    2a9f:	85 f6                	test   %esi,%esi
    2aa1:	0f 84 e7 00 00 00    	je     2b8e <audio_source_push_data+0xfe>
    2aa7:	85 c0                	test   %eax,%eax
    2aa9:	0f 84 cd 00 00 00    	je     2b7c <audio_source_push_data+0xec>
    2aaf:	83 ec 0c             	sub    $0xc,%esp
    2ab2:	8b 56 1c             	mov    0x1c(%esi),%edx
    2ab5:	8b 7d 10             	mov    0x10(%ebp),%edi
    2ab8:	52                   	push   %edx
    2ab9:	8b 4e 18             	mov    0x18(%esi),%ecx
    2abc:	51                   	push   %ecx
    2abd:	8b 5e 14             	mov    0x14(%esi),%ebx
    2ac0:	53                   	push   %ebx
    2ac1:	57                   	push   %edi
    2ac2:	50                   	push   %eax
    2ac3:	e8 78 e6 ff ff       	call   1140 <audio_data_create>
    2ac8:	83 c4 20             	add    $0x20,%esp
    2acb:	89 c7                	mov    %eax,%edi
    2acd:	85 c0                	test   %eax,%eax
    2acf:	0f 84 8e 00 00 00    	je     2b63 <audio_source_push_data+0xd3>
    2ad5:	8b 5e 0c             	mov    0xc(%esi),%ebx
    2ad8:	83 c6 08             	add    $0x8,%esi
    2adb:	39 f3                	cmp    %esi,%ebx
    2add:	75 10                	jne    2aef <audio_source_push_data+0x5f>
    2adf:	eb 59                	jmp    2b3a <audio_source_push_data+0xaa>
    2ae1:	8d b4 26 00 00 00 00 	lea    0x0(%esi,%eiz,1),%esi
    2ae8:	8b 5b 04             	mov    0x4(%ebx),%ebx
    2aeb:	39 de                	cmp    %ebx,%esi
    2aed:	74 4b                	je     2b3a <audio_source_push_data+0xaa>
    2aef:	50                   	push   %eax
    2af0:	50                   	push   %eax
    2af1:	57                   	push   %edi
    2af2:	53                   	push   %ebx
    2af3:	e8 98 03 00 00       	call   2e90 <connection_push_data>
    2af8:	83 c4 10             	add    $0x10,%esp
    2afb:	85 c0                	test   %eax,%eax
    2afd:	74 e9                	je     2ae8 <audio_source_push_data+0x58>
    2aff:	83 ec 0c             	sub    $0xc,%esp
    2b02:	50                   	push   %eax
    2b03:	e8 28 8e 00 00       	call   b930 <str_error@plt>
    2b08:	83 c4 10             	add    $0x10,%esp
    2b0b:	85 db                	test   %ebx,%ebx
    2b0d:	74 5b                	je     2b6a <audio_source_push_data+0xda>
    2b0f:	8b 53 38             	mov    0x38(%ebx),%edx
    2b12:	85 d2                	test   %edx,%edx
    2b14:	74 3a                	je     2b50 <audio_source_push_data+0xc0>
    2b16:	8b 52 10             	mov    0x10(%edx),%edx
    2b19:	85 d2                	test   %edx,%edx
    2b1b:	74 33                	je     2b50 <audio_source_push_data+0xc0>
    2b1d:	83 ec 0c             	sub    $0xc,%esp
    2b20:	50                   	push   %eax
    2b21:	52                   	push   %edx
    2b22:	68 83 95 00 00       	push   $0x9583
    2b27:	6a 02                	push   $0x2
    2b29:	6a ff                	push   $0xffffffff
    2b2b:	e8 40 8c 00 00       	call   b770 <log_msg@plt>
    2b30:	8b 5b 04             	mov    0x4(%ebx),%ebx
    2b33:	83 c4 20             	add    $0x20,%esp
    2b36:	39 de                	cmp    %ebx,%esi
    2b38:	75 b5                	jne    2aef <audio_source_push_data+0x5f>
    2b3a:	83 ec 0c             	sub    $0xc,%esp
    2b3d:	57                   	push   %edi
    2b3e:	e8 dd e6 ff ff       	call   1220 <audio_data_unref>
    2b43:	83 c4 10             	add    $0x10,%esp
    2b46:	31 c0                	xor    %eax,%eax
    2b48:	8d 65 f4             	lea    -0xc(%ebp),%esp
    2b4b:	5b                   	pop    %ebx
    2b4c:	5e                   	pop    %esi
    2b4d:	5f                   	pop    %edi
    2b4e:	5d                   	pop    %ebp
    2b4f:	c3                   	ret    
    2b50:	8b 4b 3c             	mov    0x3c(%ebx),%ecx
    2b53:	ba 6e 95 00 00       	mov    $0x956e,%edx
    2b58:	85 c9                	test   %ecx,%ecx
    2b5a:	75 c1                	jne    2b1d <audio_source_push_data+0x8d>
    2b5c:	ba 7b 95 00 00       	mov    $0x957b,%edx
    2b61:	eb ba                	jmp    2b1d <audio_source_push_data+0x8d>
    2b63:	b8 fe ff ff ff       	mov    $0xfffffffe,%eax
    2b68:	eb de                	jmp    2b48 <audio_source_push_data+0xb8>
    2b6a:	53                   	push   %ebx
    2b6b:	6a 70                	push   $0x70
    2b6d:	68 79 92 00 00       	push   $0x9279
    2b72:	68 c3 97 00 00       	push   $0x97c3
    2b77:	e8 34 8c 00 00       	call   b7b0 <assert_abort@plt>
    2b7c:	50                   	push   %eax
    2b7d:	6a 66                	push   $0x66
    2b7f:	68 2c 95 00 00       	push   $0x952c
    2b84:	68 28 90 00 00       	push   $0x9028
    2b89:	e8 22 8c 00 00       	call   b7b0 <assert_abort@plt>
    2b8e:	50                   	push   %eax
    2b8f:	6a 65                	push   $0x65
    2b91:	68 2c 95 00 00       	push   $0x952c
    2b96:	68 63 92 00 00       	push   $0x9263
    2b9b:	e8 10 8c 00 00       	call   b7b0 <assert_abort@plt>

00002ba0 <connection_create>:
    2ba0:	55                   	push   %ebp
    2ba1:	89 e5                	mov    %esp,%ebp
    2ba3:	57                   	push   %edi
    2ba4:	56                   	push   %esi
    2ba5:	53                   	push   %ebx
    2ba6:	83 ec 0c             	sub    $0xc,%esp
    2ba9:	8b 75 08             	mov    0x8(%ebp),%esi
    2bac:	8b 7d 0c             	mov    0xc(%ebp),%edi
    2baf:	85 f6                	test   %esi,%esi
    2bb1:	0f 84 bc 00 00 00    	je     2c73 <connection_create+0xd3>
    2bb7:	85 ff                	test   %edi,%edi
    2bb9:	0f 84 c6 00 00 00    	je     2c85 <connection_create+0xe5>
    2bbf:	83 ec 0c             	sub    $0xc,%esp
    2bc2:	6a 40                	push   $0x40
    2bc4:	e8 17 8b 00 00       	call   b6e0 <malloc@plt>
    2bc9:	83 c4 10             	add    $0x10,%esp
    2bcc:	89 c3                	mov    %eax,%ebx
    2bce:	85 c0                	test   %eax,%eax
    2bd0:	0f 84 93 00 00 00    	je     2c69 <connection_create+0xc9>
    2bd6:	83 ec 0c             	sub    $0xc,%esp
    2bd9:	8d 40 18             	lea    0x18(%eax),%eax
    2bdc:	50                   	push   %eax
    2bdd:	e8 ae e6 ff ff       	call   1290 <audio_pipe_init>
    2be2:	8d 56 08             	lea    0x8(%esi),%edx
    2be5:	c7 43 10 00 00 00 00 	movl   $0x0,0x10(%ebx)
    2bec:	89 53 04             	mov    %edx,0x4(%ebx)
    2bef:	8b 56 08             	mov    0x8(%esi),%edx
    2bf2:	89 13                	mov    %edx,(%ebx)
    2bf4:	c7 43 14 00 00 00 00 	movl   $0x0,0x14(%ebx)
    2bfb:	89 7b 38             	mov    %edi,0x38(%ebx)
    2bfe:	89 73 3c             	mov    %esi,0x3c(%ebx)
    2c01:	89 5a 04             	mov    %ebx,0x4(%edx)
    2c04:	89 5e 08             	mov    %ebx,0x8(%esi)
    2c07:	8d 57 08             	lea    0x8(%edi),%edx
    2c0a:	8d 43 08             	lea    0x8(%ebx),%eax
    2c0d:	89 53 0c             	mov    %edx,0xc(%ebx)
    2c10:	8b 57 08             	mov    0x8(%edi),%edx
    2c13:	89 53 08             	mov    %edx,0x8(%ebx)
    2c16:	89 42 04             	mov    %eax,0x4(%edx)
    2c19:	89 47 08             	mov    %eax,0x8(%edi)
    2c1c:	59                   	pop    %ecx
    2c1d:	58                   	pop    %eax
    2c1e:	8d 46 14             	lea    0x14(%esi),%eax
    2c21:	50                   	push   %eax
    2c22:	57                   	push   %edi
    2c23:	e8 b8 fa ff ff       	call   26e0 <audio_sink_set_format>
    2c28:	8b 46 24             	mov    0x24(%esi),%eax
    2c2b:	83 c4 10             	add    $0x10,%esp
    2c2e:	85 c0                	test   %eax,%eax
    2c30:	74 0a                	je     2c3c <connection_create+0x9c>
    2c32:	52                   	push   %edx
    2c33:	52                   	push   %edx
    2c34:	6a 01                	push   $0x1
    2c36:	56                   	push   %esi
    2c37:	ff d0                	call   *%eax
    2c39:	83 c4 10             	add    $0x10,%esp
    2c3c:	8b 47 24             	mov    0x24(%edi),%eax
    2c3f:	85 c0                	test   %eax,%eax
    2c41:	74 0a                	je     2c4d <connection_create+0xad>
    2c43:	51                   	push   %ecx
    2c44:	51                   	push   %ecx
    2c45:	6a 01                	push   $0x1
    2c47:	57                   	push   %edi
    2c48:	ff d0                	call   *%eax
    2c4a:	83 c4 10             	add    $0x10,%esp
    2c4d:	83 ec 0c             	sub    $0xc,%esp
    2c50:	8b 47 10             	mov    0x10(%edi),%eax
    2c53:	50                   	push   %eax
    2c54:	8b 56 10             	mov    0x10(%esi),%edx
    2c57:	52                   	push   %edx
    2c58:	68 ae 95 00 00       	push   $0x95ae
    2c5d:	6a 04                	push   $0x4
    2c5f:	6a ff                	push   $0xffffffff
    2c61:	e8 0a 8b 00 00       	call   b770 <log_msg@plt>
    2c66:	83 c4 20             	add    $0x20,%esp
    2c69:	8d 65 f4             	lea    -0xc(%ebp),%esp
    2c6c:	89 d8                	mov    %ebx,%eax
    2c6e:	5b                   	pop    %ebx
    2c6f:	5e                   	pop    %esi
    2c70:	5f                   	pop    %edi
    2c71:	5d                   	pop    %ebp
    2c72:	c3                   	ret    
    2c73:	50                   	push   %eax
    2c74:	6a 34                	push   $0x34
    2c76:	68 9e 95 00 00       	push   $0x959e
    2c7b:	68 63 92 00 00       	push   $0x9263
    2c80:	e8 2b 8b 00 00       	call   b7b0 <assert_abort@plt>
    2c85:	50                   	push   %eax
    2c86:	6a 35                	push   $0x35
    2c88:	68 9e 95 00 00       	push   $0x959e
    2c8d:	68 76 95 00 00       	push   $0x9576
    2c92:	e8 19 8b 00 00       	call   b7b0 <assert_abort@plt>
    2c97:	89 f6                	mov    %esi,%esi
    2c99:	8d bc 27 00 00 00 00 	lea    0x0(%edi,%eiz,1),%edi

00002ca0 <connection_destroy>:
    2ca0:	55                   	push   %ebp
    2ca1:	89 e5                	mov    %esp,%ebp
    2ca3:	53                   	push   %ebx
    2ca4:	50                   	push   %eax
    2ca5:	8b 5d 08             	mov    0x8(%ebp),%ebx
    2ca8:	85 db                	test   %ebx,%ebx
    2caa:	0f 84 cd 00 00 00    	je     2d7d <connection_destroy+0xdd>
    2cb0:	8b 43 10             	mov    0x10(%ebx),%eax
    2cb3:	85 c0                	test   %eax,%eax
    2cb5:	74 19                	je     2cd0 <connection_destroy+0x30>
    2cb7:	8b 43 14             	mov    0x14(%ebx),%eax
    2cba:	85 c0                	test   %eax,%eax
    2cbc:	74 12                	je     2cd0 <connection_destroy+0x30>
    2cbe:	50                   	push   %eax
    2cbf:	6a 53                	push   $0x53
    2cc1:	68 9e 95 00 00       	push   $0x959e
    2cc6:	68 c4 95 00 00       	push   $0x95c4
    2ccb:	e8 e0 8a 00 00       	call   b7b0 <assert_abort@plt>
    2cd0:	8b 13                	mov    (%ebx),%edx
    2cd2:	85 d2                	test   %edx,%edx
    2cd4:	74 0e                	je     2ce4 <connection_destroy+0x44>
    2cd6:	8b 43 04             	mov    0x4(%ebx),%eax
    2cd9:	85 c0                	test   %eax,%eax
    2cdb:	74 07                	je     2ce4 <connection_destroy+0x44>
    2cdd:	89 10                	mov    %edx,(%eax)
    2cdf:	8b 13                	mov    (%ebx),%edx
    2ce1:	89 42 04             	mov    %eax,0x4(%edx)
    2ce4:	8b 53 08             	mov    0x8(%ebx),%edx
    2ce7:	c7 03 00 00 00 00    	movl   $0x0,(%ebx)
    2ced:	c7 43 04 00 00 00 00 	movl   $0x0,0x4(%ebx)
    2cf4:	85 d2                	test   %edx,%edx
    2cf6:	74 0f                	je     2d07 <connection_destroy+0x67>
    2cf8:	8b 43 0c             	mov    0xc(%ebx),%eax
    2cfb:	85 c0                	test   %eax,%eax
    2cfd:	74 08                	je     2d07 <connection_destroy+0x67>
    2cff:	89 10                	mov    %edx,(%eax)
    2d01:	8b 53 08             	mov    0x8(%ebx),%edx
    2d04:	89 42 04             	mov    %eax,0x4(%edx)
    2d07:	8b 43 38             	mov    0x38(%ebx),%eax
    2d0a:	c7 43 08 00 00 00 00 	movl   $0x0,0x8(%ebx)
    2d11:	c7 43 0c 00 00 00 00 	movl   $0x0,0xc(%ebx)
    2d18:	85 c0                	test   %eax,%eax
    2d1a:	74 11                	je     2d2d <connection_destroy+0x8d>
    2d1c:	8b 50 24             	mov    0x24(%eax),%edx
    2d1f:	85 d2                	test   %edx,%edx
    2d21:	74 0a                	je     2d2d <connection_destroy+0x8d>
    2d23:	51                   	push   %ecx
    2d24:	51                   	push   %ecx
    2d25:	6a 00                	push   $0x0
    2d27:	50                   	push   %eax
    2d28:	ff d2                	call   *%edx
    2d2a:	83 c4 10             	add    $0x10,%esp
    2d2d:	8b 43 3c             	mov    0x3c(%ebx),%eax
    2d30:	85 c0                	test   %eax,%eax
    2d32:	74 11                	je     2d45 <connection_destroy+0xa5>
    2d34:	8b 50 24             	mov    0x24(%eax),%edx
    2d37:	85 d2                	test   %edx,%edx
    2d39:	74 0a                	je     2d45 <connection_destroy+0xa5>
    2d3b:	51                   	push   %ecx
    2d3c:	51                   	push   %ecx
    2d3d:	6a 00                	push   $0x0
    2d3f:	50                   	push   %eax
    2d40:	ff d2                	call   *%edx
    2d42:	83 c4 10             	add    $0x10,%esp
    2d45:	83 ec 0c             	sub    $0xc,%esp
    2d48:	8d 43 18             	lea    0x18(%ebx),%eax
    2d4b:	50                   	push   %eax
    2d4c:	e8 8f e5 ff ff       	call   12e0 <audio_pipe_fini>
    2d51:	8b 43 38             	mov    0x38(%ebx),%eax
    2d54:	5a                   	pop    %edx
    2d55:	8b 48 10             	mov    0x10(%eax),%ecx
    2d58:	51                   	push   %ecx
    2d59:	8b 43 3c             	mov    0x3c(%ebx),%eax
    2d5c:	8b 40 10             	mov    0x10(%eax),%eax
    2d5f:	50                   	push   %eax
    2d60:	68 ab 95 00 00       	push   $0x95ab
    2d65:	6a 04                	push   $0x4
    2d67:	6a ff                	push   $0xffffffff
    2d69:	e8 02 8a 00 00       	call   b770 <log_msg@plt>
    2d6e:	89 5d 08             	mov    %ebx,0x8(%ebp)
    2d71:	83 c4 20             	add    $0x20,%esp
    2d74:	8b 5d fc             	mov    -0x4(%ebp),%ebx
    2d77:	c9                   	leave  
    2d78:	e9 53 8c 00 00       	jmp    b9d0 <free@plt>
    2d7d:	50                   	push   %eax
    2d7e:	6a 52                	push   $0x52
    2d80:	68 9e 95 00 00       	push   $0x959e
    2d85:	68 c3 97 00 00       	push   $0x97c3
    2d8a:	e8 21 8a 00 00       	call   b7b0 <assert_abort@plt>
    2d8f:	90                   	nop

00002d90 <connection_add_source_data>:
    2d90:	55                   	push   %ebp
    2d91:	89 e5                	mov    %esp,%ebp
    2d93:	57                   	push   %edi
    2d94:	56                   	push   %esi
    2d95:	53                   	push   %ebx
    2d96:	83 ec 1c             	sub    $0x1c,%esp
    2d99:	8b 5d 08             	mov    0x8(%ebp),%ebx
    2d9c:	8b 75 10             	mov    0x10(%ebp),%esi
    2d9f:	85 db                	test   %ebx,%ebx
    2da1:	0f 84 c8 00 00 00    	je     2e6f <connection_add_source_data+0xdf>
    2da7:	8b 4d 0c             	mov    0xc(%ebp),%ecx
    2daa:	85 c9                	test   %ecx,%ecx
    2dac:	0f 84 b6 00 00 00    	je     2e68 <connection_add_source_data+0xd8>
    2db2:	8b 45 1c             	mov    0x1c(%ebp),%eax
    2db5:	31 c9                	xor    %ecx,%ecx
    2db7:	83 f8 12             	cmp    $0x12,%eax
    2dba:	76 64                	jbe    2e20 <connection_add_source_data+0x90>
    2dbc:	31 d2                	xor    %edx,%edx
    2dbe:	8d 44 31 ff          	lea    -0x1(%ecx,%esi,1),%eax
    2dc2:	f7 f1                	div    %ecx
    2dc4:	8d 7b 18             	lea    0x18(%ebx),%edi
    2dc7:	39 43 24             	cmp    %eax,0x24(%ebx)
    2dca:	72 71                	jb     2e3d <connection_add_source_data+0xad>
    2dcc:	8b 43 20             	mov    0x20(%ebx),%eax
    2dcf:	50                   	push   %eax
    2dd0:	68 10 96 00 00       	push   $0x9610
    2dd5:	6a 05                	push   $0x5
    2dd7:	6a ff                	push   $0xffffffff
    2dd9:	e8 92 89 00 00       	call   b770 <log_msg@plt>
    2dde:	8d 45 14             	lea    0x14(%ebp),%eax
    2de1:	8b 55 0c             	mov    0xc(%ebp),%edx
    2de4:	50                   	push   %eax
    2de5:	56                   	push   %esi
    2de6:	52                   	push   %edx
    2de7:	57                   	push   %edi
    2de8:	e8 03 ea ff ff       	call   17f0 <audio_pipe_mix_data>
    2ded:	83 c4 20             	add    $0x20,%esp
    2df0:	39 f0                	cmp    %esi,%eax
    2df2:	74 1c                	je     2e10 <connection_add_source_data+0x80>
    2df4:	83 ec 0c             	sub    $0xc,%esp
    2df7:	89 45 e4             	mov    %eax,-0x1c(%ebp)
    2dfa:	56                   	push   %esi
    2dfb:	50                   	push   %eax
    2dfc:	68 34 96 00 00       	push   $0x9634
    2e01:	6a 02                	push   $0x2
    2e03:	6a ff                	push   $0xffffffff
    2e05:	e8 66 89 00 00       	call   b770 <log_msg@plt>
    2e0a:	83 c4 20             	add    $0x20,%esp
    2e0d:	8b 45 e4             	mov    -0x1c(%ebp),%eax
    2e10:	85 c0                	test   %eax,%eax
    2e12:	7e 02                	jle    2e16 <connection_add_source_data+0x86>
    2e14:	31 c0                	xor    %eax,%eax
    2e16:	8d 65 f4             	lea    -0xc(%ebp),%esp
    2e19:	5b                   	pop    %ebx
    2e1a:	5e                   	pop    %esi
    2e1b:	5f                   	pop    %edi
    2e1c:	5d                   	pop    %ebp
    2e1d:	c3                   	ret    
    2e1e:	66 90                	xchg   %ax,%ax
    2e20:	8b 14 85 80 96 00 00 	mov    0x9680(,%eax,4),%edx
    2e27:	8b 4d 14             	mov    0x14(%ebp),%ecx
    2e2a:	0f af ca             	imul   %edx,%ecx
    2e2d:	31 d2                	xor    %edx,%edx
    2e2f:	8d 7b 18             	lea    0x18(%ebx),%edi
    2e32:	8d 44 31 ff          	lea    -0x1(%ecx,%esi,1),%eax
    2e36:	f7 f1                	div    %ecx
    2e38:	39 43 24             	cmp    %eax,0x24(%ebx)
    2e3b:	73 8f                	jae    2dcc <connection_add_source_data+0x3c>
    2e3d:	8b 43 3c             	mov    0x3c(%ebx),%eax
    2e40:	8b 40 28             	mov    0x28(%eax),%eax
    2e43:	85 c0                	test   %eax,%eax
    2e45:	74 85                	je     2dcc <connection_add_source_data+0x3c>
    2e47:	51                   	push   %ecx
    2e48:	68 ec 95 00 00       	push   $0x95ec
    2e4d:	6a 04                	push   $0x4
    2e4f:	6a ff                	push   $0xffffffff
    2e51:	e8 1a 89 00 00       	call   b770 <log_msg@plt>
    2e56:	8b 43 3c             	mov    0x3c(%ebx),%eax
    2e59:	5a                   	pop    %edx
    2e5a:	59                   	pop    %ecx
    2e5b:	56                   	push   %esi
    2e5c:	50                   	push   %eax
    2e5d:	ff 50 28             	call   *0x28(%eax)
    2e60:	83 c4 10             	add    $0x10,%esp
    2e63:	e9 64 ff ff ff       	jmp    2dcc <connection_add_source_data+0x3c>
    2e68:	b8 f6 ff ff ff       	mov    $0xfffffff6,%eax
    2e6d:	eb a7                	jmp    2e16 <connection_add_source_data+0x86>
    2e6f:	53                   	push   %ebx
    2e70:	6a 6a                	push   $0x6a
    2e72:	68 9e 95 00 00       	push   $0x959e
    2e77:	68 c3 97 00 00       	push   $0x97c3
    2e7c:	e8 2f 89 00 00       	call   b7b0 <assert_abort@plt>
    2e81:	eb 0d                	jmp    2e90 <connection_push_data>
    2e83:	90                   	nop
    2e84:	90                   	nop
    2e85:	90                   	nop
    2e86:	90                   	nop
    2e87:	90                   	nop
    2e88:	90                   	nop
    2e89:	90                   	nop
    2e8a:	90                   	nop
    2e8b:	90                   	nop
    2e8c:	90                   	nop
    2e8d:	90                   	nop
    2e8e:	90                   	nop
    2e8f:	90                   	nop

00002e90 <connection_push_data>:
    2e90:	55                   	push   %ebp
    2e91:	89 e5                	mov    %esp,%ebp
    2e93:	56                   	push   %esi
    2e94:	53                   	push   %ebx
    2e95:	8b 5d 08             	mov    0x8(%ebp),%ebx
    2e98:	8b 45 0c             	mov    0xc(%ebp),%eax
    2e9b:	85 db                	test   %ebx,%ebx
    2e9d:	74 4a                	je     2ee9 <connection_push_data+0x59>
    2e9f:	85 c0                	test   %eax,%eax
    2ea1:	74 31                	je     2ed4 <connection_push_data+0x44>
    2ea3:	52                   	push   %edx
    2ea4:	52                   	push   %edx
    2ea5:	50                   	push   %eax
    2ea6:	8d 43 18             	lea    0x18(%ebx),%eax
    2ea9:	50                   	push   %eax
    2eaa:	e8 31 e6 ff ff       	call   14e0 <audio_pipe_push>
    2eaf:	83 c4 10             	add    $0x10,%esp
    2eb2:	89 c6                	mov    %eax,%esi
    2eb4:	85 c0                	test   %eax,%eax
    2eb6:	75 13                	jne    2ecb <connection_push_data+0x3b>
    2eb8:	8b 53 38             	mov    0x38(%ebx),%edx
    2ebb:	8b 42 2c             	mov    0x2c(%edx),%eax
    2ebe:	85 c0                	test   %eax,%eax
    2ec0:	74 09                	je     2ecb <connection_push_data+0x3b>
    2ec2:	83 ec 0c             	sub    $0xc,%esp
    2ec5:	52                   	push   %edx
    2ec6:	ff d0                	call   *%eax
    2ec8:	83 c4 10             	add    $0x10,%esp
    2ecb:	8d 65 f8             	lea    -0x8(%ebp),%esp
    2ece:	89 f0                	mov    %esi,%eax
    2ed0:	5b                   	pop    %ebx
    2ed1:	5e                   	pop    %esi
    2ed2:	5d                   	pop    %ebp
    2ed3:	c3                   	ret    
    2ed4:	51                   	push   %ecx
    2ed5:	68 87 00 00 00       	push   $0x87
    2eda:	68 9e 95 00 00       	push   $0x959e
    2edf:	68 9e 8d 00 00       	push   $0x8d9e
    2ee4:	e8 c7 88 00 00       	call   b7b0 <assert_abort@plt>
    2ee9:	53                   	push   %ebx
    2eea:	68 86 00 00 00       	push   $0x86
    2eef:	68 9e 95 00 00       	push   $0x959e
    2ef4:	68 c3 97 00 00       	push   $0x97c3
    2ef9:	e8 b2 88 00 00       	call   b7b0 <assert_abort@plt>
    2efe:	66 90                	xchg   %ax,%ax

00002f00 <hound_remove_sink_internal>:
    2f00:	55                   	push   %ebp
    2f01:	85 c0                	test   %eax,%eax
    2f03:	89 e5                	mov    %esp,%ebp
    2f05:	56                   	push   %esi
    2f06:	53                   	push   %ebx
    2f07:	0f 84 bd 00 00 00    	je     2fca <hound_remove_sink_internal+0xca>
    2f0d:	89 d3                	mov    %edx,%ebx
    2f0f:	85 d2                	test   %edx,%edx
    2f11:	0f 84 d7 00 00 00    	je     2fee <hound_remove_sink_internal+0xee>
    2f17:	83 ec 0c             	sub    $0xc,%esp
    2f1a:	50                   	push   %eax
    2f1b:	e8 80 87 00 00       	call   b6a0 <fibril_mutex_is_locked@plt>
    2f20:	83 c4 10             	add    $0x10,%esp
    2f23:	84 c0                	test   %al,%al
    2f25:	0f 84 b1 00 00 00    	je     2fdc <hound_remove_sink_internal+0xdc>
    2f2b:	8b 53 10             	mov    0x10(%ebx),%edx
    2f2e:	8d 73 08             	lea    0x8(%ebx),%esi
    2f31:	52                   	push   %edx
    2f32:	68 d4 96 00 00       	push   $0x96d4
    2f37:	6a 05                	push   $0x5
    2f39:	6a ff                	push   $0xffffffff
    2f3b:	e8 30 88 00 00       	call   b770 <log_msg@plt>
    2f40:	83 c4 10             	add    $0x10,%esp
    2f43:	39 73 0c             	cmp    %esi,0xc(%ebx)
    2f46:	74 5a                	je     2fa2 <hound_remove_sink_internal+0xa2>
    2f48:	8b 43 10             	mov    0x10(%ebx),%eax
    2f4b:	50                   	push   %eax
    2f4c:	68 28 98 00 00       	push   $0x9828
    2f51:	6a 02                	push   $0x2
    2f53:	6a ff                	push   $0xffffffff
    2f55:	e8 16 88 00 00       	call   b770 <log_msg@plt>
    2f5a:	8b 43 0c             	mov    0xc(%ebx),%eax
    2f5d:	83 c4 10             	add    $0x10,%esp
    2f60:	39 c6                	cmp    %eax,%esi
    2f62:	74 3e                	je     2fa2 <hound_remove_sink_internal+0xa2>
    2f64:	8d 74 26 00          	lea    0x0(%esi,%eiz,1),%esi
    2f68:	83 e8 08             	sub    $0x8,%eax
    2f6b:	8b 48 10             	mov    0x10(%eax),%ecx
    2f6e:	85 c9                	test   %ecx,%ecx
    2f70:	74 0f                	je     2f81 <hound_remove_sink_internal+0x81>
    2f72:	8b 50 14             	mov    0x14(%eax),%edx
    2f75:	85 d2                	test   %edx,%edx
    2f77:	74 08                	je     2f81 <hound_remove_sink_internal+0x81>
    2f79:	89 0a                	mov    %ecx,(%edx)
    2f7b:	8b 48 10             	mov    0x10(%eax),%ecx
    2f7e:	89 51 04             	mov    %edx,0x4(%ecx)
    2f81:	83 ec 0c             	sub    $0xc,%esp
    2f84:	c7 40 10 00 00 00 00 	movl   $0x0,0x10(%eax)
    2f8b:	c7 40 14 00 00 00 00 	movl   $0x0,0x14(%eax)
    2f92:	50                   	push   %eax
    2f93:	e8 08 fd ff ff       	call   2ca0 <connection_destroy>
    2f98:	8b 43 0c             	mov    0xc(%ebx),%eax
    2f9b:	83 c4 10             	add    $0x10,%esp
    2f9e:	39 c6                	cmp    %eax,%esi
    2fa0:	75 c6                	jne    2f68 <hound_remove_sink_internal+0x68>
    2fa2:	8b 13                	mov    (%ebx),%edx
    2fa4:	85 d2                	test   %edx,%edx
    2fa6:	74 0e                	je     2fb6 <hound_remove_sink_internal+0xb6>
    2fa8:	8b 43 04             	mov    0x4(%ebx),%eax
    2fab:	85 c0                	test   %eax,%eax
    2fad:	74 07                	je     2fb6 <hound_remove_sink_internal+0xb6>
    2faf:	89 10                	mov    %edx,(%eax)
    2fb1:	8b 13                	mov    (%ebx),%edx
    2fb3:	89 42 04             	mov    %eax,0x4(%edx)
    2fb6:	c7 03 00 00 00 00    	movl   $0x0,(%ebx)
    2fbc:	c7 43 04 00 00 00 00 	movl   $0x0,0x4(%ebx)
    2fc3:	8d 65 f8             	lea    -0x8(%ebp),%esp
    2fc6:	5b                   	pop    %ebx
    2fc7:	5e                   	pop    %esi
    2fc8:	5d                   	pop    %ebp
    2fc9:	c3                   	ret    
    2fca:	56                   	push   %esi
    2fcb:	6a 7b                	push   $0x7b
    2fcd:	68 cc 96 00 00       	push   $0x96cc
    2fd2:	68 f4 b1 00 00       	push   $0xb1f4
    2fd7:	e8 d4 87 00 00       	call   b7b0 <assert_abort@plt>
    2fdc:	51                   	push   %ecx
    2fdd:	6a 7d                	push   $0x7d
    2fdf:	68 cc 96 00 00       	push   $0x96cc
    2fe4:	68 fc 97 00 00       	push   $0x97fc
    2fe9:	e8 c2 87 00 00       	call   b7b0 <assert_abort@plt>
    2fee:	53                   	push   %ebx
    2fef:	6a 7c                	push   $0x7c
    2ff1:	68 cc 96 00 00       	push   $0x96cc
    2ff6:	68 76 95 00 00       	push   $0x9576
    2ffb:	e8 b0 87 00 00       	call   b7b0 <assert_abort@plt>

00003000 <hound_init>:
    3000:	55                   	push   %ebp
    3001:	89 e5                	mov    %esp,%ebp
    3003:	53                   	push   %ebx
    3004:	52                   	push   %edx
    3005:	8b 5d 08             	mov    0x8(%ebp),%ebx
    3008:	85 db                	test   %ebx,%ebx
    300a:	74 3d                	je     3049 <hound_init+0x49>
    300c:	83 ec 0c             	sub    $0xc,%esp
    300f:	53                   	push   %ebx
    3010:	e8 2b 88 00 00       	call   b840 <fibril_mutex_initialize@plt>
    3015:	8d 43 10             	lea    0x10(%ebx),%eax
    3018:	89 43 10             	mov    %eax,0x10(%ebx)
    301b:	89 43 14             	mov    %eax,0x14(%ebx)
    301e:	8d 43 18             	lea    0x18(%ebx),%eax
    3021:	89 43 18             	mov    %eax,0x18(%ebx)
    3024:	89 43 1c             	mov    %eax,0x1c(%ebx)
    3027:	8d 43 20             	lea    0x20(%ebx),%eax
    302a:	89 43 20             	mov    %eax,0x20(%ebx)
    302d:	89 43 24             	mov    %eax,0x24(%ebx)
    3030:	8d 43 28             	lea    0x28(%ebx),%eax
    3033:	89 43 28             	mov    %eax,0x28(%ebx)
    3036:	89 43 2c             	mov    %eax,0x2c(%ebx)
    3039:	8d 43 30             	lea    0x30(%ebx),%eax
    303c:	89 43 30             	mov    %eax,0x30(%ebx)
    303f:	89 43 34             	mov    %eax,0x34(%ebx)
    3042:	31 c0                	xor    %eax,%eax
    3044:	8b 5d fc             	mov    -0x4(%ebp),%ebx
    3047:	c9                   	leave  
    3048:	c3                   	ret    
    3049:	50                   	push   %eax
    304a:	68 a6 00 00 00       	push   $0xa6
    304f:	68 cc 96 00 00       	push   $0x96cc
    3054:	68 f4 b1 00 00       	push   $0xb1f4
    3059:	e8 52 87 00 00       	call   b7b0 <assert_abort@plt>
    305e:	66 90                	xchg   %ax,%ax

00003060 <hound_remove_ctx>:
    3060:	55                   	push   %ebp
    3061:	89 e5                	mov    %esp,%ebp
    3063:	57                   	push   %edi
    3064:	56                   	push   %esi
    3065:	53                   	push   %ebx
    3066:	83 ec 0c             	sub    $0xc,%esp
    3069:	8b 7d 08             	mov    0x8(%ebp),%edi
    306c:	8b 75 0c             	mov    0xc(%ebp),%esi
    306f:	85 ff                	test   %edi,%edi
    3071:	0f 84 1d 01 00 00    	je     3194 <hound_remove_ctx+0x134>
    3077:	85 f6                	test   %esi,%esi
    3079:	0f 84 0e 01 00 00    	je     318d <hound_remove_ctx+0x12d>
    307f:	8d 46 08             	lea    0x8(%esi),%eax
    3082:	39 46 0c             	cmp    %eax,0xc(%esi)
    3085:	0f 85 f5 00 00 00    	jne    3180 <hound_remove_ctx+0x120>
    308b:	83 ec 0c             	sub    $0xc,%esp
    308e:	8b 5d 08             	mov    0x8(%ebp),%ebx
    3091:	53                   	push   %ebx
    3092:	e8 49 89 00 00       	call   b9e0 <fibril_mutex_lock@plt>
    3097:	8b 16                	mov    (%esi),%edx
    3099:	83 c4 10             	add    $0x10,%esp
    309c:	85 d2                	test   %edx,%edx
    309e:	74 0e                	je     30ae <hound_remove_ctx+0x4e>
    30a0:	8b 46 04             	mov    0x4(%esi),%eax
    30a3:	85 c0                	test   %eax,%eax
    30a5:	74 07                	je     30ae <hound_remove_ctx+0x4e>
    30a7:	89 10                	mov    %edx,(%eax)
    30a9:	8b 16                	mov    (%esi),%edx
    30ab:	89 42 04             	mov    %eax,0x4(%edx)
    30ae:	8b 5e 10             	mov    0x10(%esi),%ebx
    30b1:	c7 06 00 00 00 00    	movl   $0x0,(%esi)
    30b7:	c7 46 04 00 00 00 00 	movl   $0x0,0x4(%esi)
    30be:	85 db                	test   %ebx,%ebx
    30c0:	0f 84 92 00 00 00    	je     3158 <hound_remove_ctx+0xf8>
    30c6:	8b 4b 10             	mov    0x10(%ebx),%ecx
    30c9:	8d 7b 08             	lea    0x8(%ebx),%edi
    30cc:	51                   	push   %ecx
    30cd:	68 e8 96 00 00       	push   $0x96e8
    30d2:	6a 05                	push   $0x5
    30d4:	6a ff                	push   $0xffffffff
    30d6:	e8 95 86 00 00       	call   b770 <log_msg@plt>
    30db:	83 c4 10             	add    $0x10,%esp
    30de:	39 7b 0c             	cmp    %edi,0xc(%ebx)
    30e1:	74 54                	je     3137 <hound_remove_ctx+0xd7>
    30e3:	8b 53 10             	mov    0x10(%ebx),%edx
    30e6:	52                   	push   %edx
    30e7:	68 54 98 00 00       	push   $0x9854
    30ec:	6a 02                	push   $0x2
    30ee:	6a ff                	push   $0xffffffff
    30f0:	e8 7b 86 00 00       	call   b770 <log_msg@plt>
    30f5:	8b 43 0c             	mov    0xc(%ebx),%eax
    30f8:	83 c4 10             	add    $0x10,%esp
    30fb:	39 c7                	cmp    %eax,%edi
    30fd:	74 38                	je     3137 <hound_remove_ctx+0xd7>
    30ff:	90                   	nop
    3100:	8b 48 10             	mov    0x10(%eax),%ecx
    3103:	85 c9                	test   %ecx,%ecx
    3105:	74 0f                	je     3116 <hound_remove_ctx+0xb6>
    3107:	8b 50 14             	mov    0x14(%eax),%edx
    310a:	85 d2                	test   %edx,%edx
    310c:	74 08                	je     3116 <hound_remove_ctx+0xb6>
    310e:	89 0a                	mov    %ecx,(%edx)
    3110:	8b 48 10             	mov    0x10(%eax),%ecx
    3113:	89 51 04             	mov    %edx,0x4(%ecx)
    3116:	83 ec 0c             	sub    $0xc,%esp
    3119:	c7 40 10 00 00 00 00 	movl   $0x0,0x10(%eax)
    3120:	c7 40 14 00 00 00 00 	movl   $0x0,0x14(%eax)
    3127:	50                   	push   %eax
    3128:	e8 73 fb ff ff       	call   2ca0 <connection_destroy>
    312d:	8b 43 0c             	mov    0xc(%ebx),%eax
    3130:	83 c4 10             	add    $0x10,%esp
    3133:	39 c7                	cmp    %eax,%edi
    3135:	75 c9                	jne    3100 <hound_remove_ctx+0xa0>
    3137:	8b 13                	mov    (%ebx),%edx
    3139:	85 d2                	test   %edx,%edx
    313b:	74 0e                	je     314b <hound_remove_ctx+0xeb>
    313d:	8b 43 04             	mov    0x4(%ebx),%eax
    3140:	85 c0                	test   %eax,%eax
    3142:	74 07                	je     314b <hound_remove_ctx+0xeb>
    3144:	89 10                	mov    %edx,(%eax)
    3146:	8b 13                	mov    (%ebx),%edx
    3148:	89 42 04             	mov    %eax,0x4(%edx)
    314b:	c7 03 00 00 00 00    	movl   $0x0,(%ebx)
    3151:	c7 43 04 00 00 00 00 	movl   $0x0,0x4(%ebx)
    3158:	8b 56 14             	mov    0x14(%esi),%edx
    315b:	85 d2                	test   %edx,%edx
    315d:	74 08                	je     3167 <hound_remove_ctx+0x107>
    315f:	8b 45 08             	mov    0x8(%ebp),%eax
    3162:	e8 99 fd ff ff       	call   2f00 <hound_remove_sink_internal>
    3167:	83 ec 0c             	sub    $0xc,%esp
    316a:	8b 45 08             	mov    0x8(%ebp),%eax
    316d:	50                   	push   %eax
    316e:	e8 8d 86 00 00       	call   b800 <fibril_mutex_unlock@plt>
    3173:	83 c4 10             	add    $0x10,%esp
    3176:	31 c0                	xor    %eax,%eax
    3178:	8d 65 f4             	lea    -0xc(%ebp),%esp
    317b:	5b                   	pop    %ebx
    317c:	5e                   	pop    %esi
    317d:	5f                   	pop    %edi
    317e:	5d                   	pop    %ebp
    317f:	c3                   	ret    
    3180:	8d 65 f4             	lea    -0xc(%ebp),%esp
    3183:	b8 f1 ff ff ff       	mov    $0xfffffff1,%eax
    3188:	5b                   	pop    %ebx
    3189:	5e                   	pop    %esi
    318a:	5f                   	pop    %edi
    318b:	5d                   	pop    %ebp
    318c:	c3                   	ret    
    318d:	b8 f2 ff ff ff       	mov    $0xfffffff2,%eax
    3192:	eb e4                	jmp    3178 <hound_remove_ctx+0x118>
    3194:	56                   	push   %esi
    3195:	68 d4 00 00 00       	push   $0xd4
    319a:	68 cc 96 00 00       	push   $0x96cc
    319f:	68 f4 b1 00 00       	push   $0xb1f4
    31a4:	e8 07 86 00 00       	call   b7b0 <assert_abort@plt>
    31a9:	8d b4 26 00 00 00 00 	lea    0x0(%esi,%eiz,1),%esi

000031b0 <hound_get_ctx_by_id>:
    31b0:	55                   	push   %ebp
    31b1:	89 e5                	mov    %esp,%ebp
    31b3:	57                   	push   %edi
    31b4:	56                   	push   %esi
    31b5:	53                   	push   %ebx
    31b6:	83 ec 1c             	sub    $0x1c,%esp
    31b9:	8b 75 08             	mov    0x8(%ebp),%esi
    31bc:	8b 5d 0c             	mov    0xc(%ebp),%ebx
    31bf:	85 f6                	test   %esi,%esi
    31c1:	74 61                	je     3224 <hound_get_ctx_by_id+0x74>
    31c3:	83 ec 0c             	sub    $0xc,%esp
    31c6:	8b 55 08             	mov    0x8(%ebp),%edx
    31c9:	52                   	push   %edx
    31ca:	e8 11 88 00 00       	call   b9e0 <fibril_mutex_lock@plt>
    31cf:	8b 45 08             	mov    0x8(%ebp),%eax
    31d2:	83 c4 10             	add    $0x10,%esp
    31d5:	8b 78 1c             	mov    0x1c(%eax),%edi
    31d8:	8d 70 18             	lea    0x18(%eax),%esi
    31db:	39 f7                	cmp    %esi,%edi
    31dd:	75 10                	jne    31ef <hound_get_ctx_by_id+0x3f>
    31df:	eb 3f                	jmp    3220 <hound_get_ctx_by_id+0x70>
    31e1:	8d b4 26 00 00 00 00 	lea    0x0(%esi,%eiz,1),%esi
    31e8:	8b 7f 04             	mov    0x4(%edi),%edi
    31eb:	39 f7                	cmp    %esi,%edi
    31ed:	74 31                	je     3220 <hound_get_ctx_by_id+0x70>
    31ef:	83 ec 0c             	sub    $0xc,%esp
    31f2:	57                   	push   %edi
    31f3:	e8 d8 16 00 00       	call   48d0 <hound_ctx_get_id>
    31f8:	83 c4 10             	add    $0x10,%esp
    31fb:	39 d8                	cmp    %ebx,%eax
    31fd:	75 e9                	jne    31e8 <hound_get_ctx_by_id+0x38>
    31ff:	89 fa                	mov    %edi,%edx
    3201:	83 ec 0c             	sub    $0xc,%esp
    3204:	8b 45 08             	mov    0x8(%ebp),%eax
    3207:	89 55 e4             	mov    %edx,-0x1c(%ebp)
    320a:	50                   	push   %eax
    320b:	e8 f0 85 00 00       	call   b800 <fibril_mutex_unlock@plt>
    3210:	8b 55 e4             	mov    -0x1c(%ebp),%edx
    3213:	8d 65 f4             	lea    -0xc(%ebp),%esp
    3216:	89 d0                	mov    %edx,%eax
    3218:	5b                   	pop    %ebx
    3219:	5e                   	pop    %esi
    321a:	5f                   	pop    %edi
    321b:	5d                   	pop    %ebp
    321c:	c3                   	ret    
    321d:	8d 76 00             	lea    0x0(%esi),%esi
    3220:	31 d2                	xor    %edx,%edx
    3222:	eb dd                	jmp    3201 <hound_get_ctx_by_id+0x51>
    3224:	51                   	push   %ecx
    3225:	68 eb 00 00 00       	push   $0xeb
    322a:	68 cc 96 00 00       	push   $0x96cc
    322f:	68 f4 b1 00 00       	push   $0xb1f4
    3234:	e8 77 85 00 00       	call   b7b0 <assert_abort@plt>
    3239:	8d b4 26 00 00 00 00 	lea    0x0(%esi,%eiz,1),%esi

00003240 <hound_add_source>:
    3240:	55                   	push   %ebp
    3241:	89 e5                	mov    %esp,%ebp
    3243:	57                   	push   %edi
    3244:	56                   	push   %esi
    3245:	53                   	push   %ebx
    3246:	83 ec 0c             	sub    $0xc,%esp
    3249:	8b 7d 08             	mov    0x8(%ebp),%edi
    324c:	85 ff                	test   %edi,%edi
    324e:	0f 84 23 01 00 00    	je     3377 <hound_add_source+0x137>
    3254:	8b 5d 0c             	mov    0xc(%ebp),%ebx
    3257:	85 db                	test   %ebx,%ebx
    3259:	0f 84 e7 00 00 00    	je     3346 <hound_add_source+0x106>
    325f:	8b 45 0c             	mov    0xc(%ebp),%eax
    3262:	8b 40 10             	mov    0x10(%eax),%eax
    3265:	85 c0                	test   %eax,%eax
    3267:	0f 84 d9 00 00 00    	je     3346 <hound_add_source+0x106>
    326d:	52                   	push   %edx
    326e:	52                   	push   %edx
    326f:	68 18 97 00 00       	push   $0x9718
    3274:	50                   	push   %eax
    3275:	e8 e6 85 00 00       	call   b860 <str_cmp@plt>
    327a:	83 c4 10             	add    $0x10,%esp
    327d:	85 c0                	test   %eax,%eax
    327f:	0f 84 c1 00 00 00    	je     3346 <hound_add_source+0x106>
    3285:	83 ec 0c             	sub    $0xc,%esp
    3288:	8b 45 08             	mov    0x8(%ebp),%eax
    328b:	50                   	push   %eax
    328c:	e8 4f 87 00 00       	call   b9e0 <fibril_mutex_lock@plt>
    3291:	8b 45 0c             	mov    0xc(%ebp),%eax
    3294:	83 c4 10             	add    $0x10,%esp
    3297:	8b 70 10             	mov    0x10(%eax),%esi
    329a:	8b 45 08             	mov    0x8(%ebp),%eax
    329d:	85 f6                	test   %esi,%esi
    329f:	8d 58 20             	lea    0x20(%eax),%ebx
    32a2:	0f 84 bd 00 00 00    	je     3365 <hound_add_source+0x125>
    32a8:	8b 78 24             	mov    0x24(%eax),%edi
    32ab:	39 fb                	cmp    %edi,%ebx
    32ad:	75 10                	jne    32bf <hound_add_source+0x7f>
    32af:	eb 5f                	jmp    3310 <hound_add_source+0xd0>
    32b1:	8d b4 26 00 00 00 00 	lea    0x0(%esi,%eiz,1),%esi
    32b8:	8b 7f 04             	mov    0x4(%edi),%edi
    32bb:	39 fb                	cmp    %edi,%ebx
    32bd:	74 51                	je     3310 <hound_add_source+0xd0>
    32bf:	51                   	push   %ecx
    32c0:	51                   	push   %ecx
    32c1:	8b 47 10             	mov    0x10(%edi),%eax
    32c4:	50                   	push   %eax
    32c5:	56                   	push   %esi
    32c6:	e8 95 85 00 00       	call   b860 <str_cmp@plt>
    32cb:	83 c4 10             	add    $0x10,%esp
    32ce:	85 c0                	test   %eax,%eax
    32d0:	75 e6                	jne    32b8 <hound_add_source+0x78>
    32d2:	56                   	push   %esi
    32d3:	68 80 98 00 00       	push   $0x9880
    32d8:	6a 04                	push   $0x4
    32da:	6a ff                	push   $0xffffffff
    32dc:	e8 8f 84 00 00       	call   b770 <log_msg@plt>
    32e1:	83 c4 0c             	add    $0xc,%esp
    32e4:	68 a8 98 00 00       	push   $0x98a8
    32e9:	6a 04                	push   $0x4
    32eb:	6a ff                	push   $0xffffffff
    32ed:	e8 7e 84 00 00       	call   b770 <log_msg@plt>
    32f2:	8b 55 08             	mov    0x8(%ebp),%edx
    32f5:	58                   	pop    %eax
    32f6:	52                   	push   %edx
    32f7:	e8 04 85 00 00       	call   b800 <fibril_mutex_unlock@plt>
    32fc:	83 c4 10             	add    $0x10,%esp
    32ff:	8d 65 f4             	lea    -0xc(%ebp),%esp
    3302:	b8 f7 ff ff ff       	mov    $0xfffffff7,%eax
    3307:	5b                   	pop    %ebx
    3308:	5e                   	pop    %esi
    3309:	5f                   	pop    %edi
    330a:	5d                   	pop    %ebp
    330b:	c3                   	ret    
    330c:	8d 74 26 00          	lea    0x0(%esi,%eiz,1),%esi
    3310:	8b 45 0c             	mov    0xc(%ebp),%eax
    3313:	8b 55 0c             	mov    0xc(%ebp),%edx
    3316:	83 ec 0c             	sub    $0xc,%esp
    3319:	89 58 04             	mov    %ebx,0x4(%eax)
    331c:	8b 45 08             	mov    0x8(%ebp),%eax
    331f:	8b 40 20             	mov    0x20(%eax),%eax
    3322:	89 02                	mov    %eax,(%edx)
    3324:	8b 45 08             	mov    0x8(%ebp),%eax
    3327:	8b 40 20             	mov    0x20(%eax),%eax
    332a:	89 50 04             	mov    %edx,0x4(%eax)
    332d:	8b 45 08             	mov    0x8(%ebp),%eax
    3330:	89 50 20             	mov    %edx,0x20(%eax)
    3333:	50                   	push   %eax
    3334:	e8 c7 84 00 00       	call   b800 <fibril_mutex_unlock@plt>
    3339:	83 c4 10             	add    $0x10,%esp
    333c:	8d 65 f4             	lea    -0xc(%ebp),%esp
    333f:	31 c0                	xor    %eax,%eax
    3341:	5b                   	pop    %ebx
    3342:	5e                   	pop    %esi
    3343:	5f                   	pop    %edi
    3344:	5d                   	pop    %ebp
    3345:	c3                   	ret    
    3346:	51                   	push   %ecx
    3347:	68 fe 96 00 00       	push   $0x96fe
    334c:	6a 04                	push   $0x4
    334e:	6a ff                	push   $0xffffffff
    3350:	e8 1b 84 00 00       	call   b770 <log_msg@plt>
    3355:	83 c4 10             	add    $0x10,%esp
    3358:	8d 65 f4             	lea    -0xc(%ebp),%esp
    335b:	b8 f2 ff ff ff       	mov    $0xfffffff2,%eax
    3360:	5b                   	pop    %ebx
    3361:	5e                   	pop    %esi
    3362:	5f                   	pop    %edi
    3363:	5d                   	pop    %ebp
    3364:	c3                   	ret    
    3365:	50                   	push   %eax
    3366:	6a 4e                	push   $0x4e
    3368:	68 cc 96 00 00       	push   $0x96cc
    336d:	68 20 97 00 00       	push   $0x9720
    3372:	e8 39 84 00 00       	call   b7b0 <assert_abort@plt>
    3377:	56                   	push   %esi
    3378:	68 4e 01 00 00       	push   $0x14e
    337d:	68 cc 96 00 00       	push   $0x96cc
    3382:	68 f4 b1 00 00       	push   $0xb1f4
    3387:	e8 24 84 00 00       	call   b7b0 <assert_abort@plt>
    338c:	8d 74 26 00          	lea    0x0(%esi,%eiz,1),%esi

00003390 <hound_add_sink>:
    3390:	55                   	push   %ebp
    3391:	89 e5                	mov    %esp,%ebp
    3393:	57                   	push   %edi
    3394:	56                   	push   %esi
    3395:	53                   	push   %ebx
    3396:	83 ec 0c             	sub    $0xc,%esp
    3399:	8b 7d 08             	mov    0x8(%ebp),%edi
    339c:	85 ff                	test   %edi,%edi
    339e:	0f 84 23 01 00 00    	je     34c7 <hound_add_sink+0x137>
    33a4:	8b 5d 0c             	mov    0xc(%ebp),%ebx
    33a7:	85 db                	test   %ebx,%ebx
    33a9:	0f 84 e7 00 00 00    	je     3496 <hound_add_sink+0x106>
    33af:	8b 45 0c             	mov    0xc(%ebp),%eax
    33b2:	8b 40 10             	mov    0x10(%eax),%eax
    33b5:	85 c0                	test   %eax,%eax
    33b7:	0f 84 d9 00 00 00    	je     3496 <hound_add_sink+0x106>
    33bd:	52                   	push   %edx
    33be:	52                   	push   %edx
    33bf:	68 18 97 00 00       	push   $0x9718
    33c4:	50                   	push   %eax
    33c5:	e8 96 84 00 00       	call   b860 <str_cmp@plt>
    33ca:	83 c4 10             	add    $0x10,%esp
    33cd:	85 c0                	test   %eax,%eax
    33cf:	0f 84 c1 00 00 00    	je     3496 <hound_add_sink+0x106>
    33d5:	83 ec 0c             	sub    $0xc,%esp
    33d8:	8b 45 08             	mov    0x8(%ebp),%eax
    33db:	50                   	push   %eax
    33dc:	e8 ff 85 00 00       	call   b9e0 <fibril_mutex_lock@plt>
    33e1:	8b 45 0c             	mov    0xc(%ebp),%eax
    33e4:	83 c4 10             	add    $0x10,%esp
    33e7:	8b 70 10             	mov    0x10(%eax),%esi
    33ea:	8b 45 08             	mov    0x8(%ebp),%eax
    33ed:	85 f6                	test   %esi,%esi
    33ef:	8d 58 28             	lea    0x28(%eax),%ebx
    33f2:	0f 84 bd 00 00 00    	je     34b5 <hound_add_sink+0x125>
    33f8:	8b 78 2c             	mov    0x2c(%eax),%edi
    33fb:	39 fb                	cmp    %edi,%ebx
    33fd:	75 10                	jne    340f <hound_add_sink+0x7f>
    33ff:	eb 5f                	jmp    3460 <hound_add_sink+0xd0>
    3401:	8d b4 26 00 00 00 00 	lea    0x0(%esi,%eiz,1),%esi
    3408:	8b 7f 04             	mov    0x4(%edi),%edi
    340b:	39 fb                	cmp    %edi,%ebx
    340d:	74 51                	je     3460 <hound_add_sink+0xd0>
    340f:	51                   	push   %ecx
    3410:	51                   	push   %ecx
    3411:	8b 47 10             	mov    0x10(%edi),%eax
    3414:	50                   	push   %eax
    3415:	56                   	push   %esi
    3416:	e8 45 84 00 00       	call   b860 <str_cmp@plt>
    341b:	83 c4 10             	add    $0x10,%esp
    341e:	85 c0                	test   %eax,%eax
    3420:	75 e6                	jne    3408 <hound_add_sink+0x78>
    3422:	56                   	push   %esi
    3423:	68 cc 98 00 00       	push   $0x98cc
    3428:	6a 04                	push   $0x4
    342a:	6a ff                	push   $0xffffffff
    342c:	e8 3f 83 00 00       	call   b770 <log_msg@plt>
    3431:	83 c4 0c             	add    $0xc,%esp
    3434:	68 f0 98 00 00       	push   $0x98f0
    3439:	6a 04                	push   $0x4
    343b:	6a ff                	push   $0xffffffff
    343d:	e8 2e 83 00 00       	call   b770 <log_msg@plt>
    3442:	8b 55 08             	mov    0x8(%ebp),%edx
    3445:	58                   	pop    %eax
    3446:	52                   	push   %edx
    3447:	e8 b4 83 00 00       	call   b800 <fibril_mutex_unlock@plt>
    344c:	83 c4 10             	add    $0x10,%esp
    344f:	8d 65 f4             	lea    -0xc(%ebp),%esp
    3452:	b8 f7 ff ff ff       	mov    $0xfffffff7,%eax
    3457:	5b                   	pop    %ebx
    3458:	5e                   	pop    %esi
    3459:	5f                   	pop    %edi
    345a:	5d                   	pop    %ebp
    345b:	c3                   	ret    
    345c:	8d 74 26 00          	lea    0x0(%esi,%eiz,1),%esi
    3460:	8b 45 0c             	mov    0xc(%ebp),%eax
    3463:	8b 55 0c             	mov    0xc(%ebp),%edx
    3466:	83 ec 0c             	sub    $0xc,%esp
    3469:	89 58 04             	mov    %ebx,0x4(%eax)
    346c:	8b 45 08             	mov    0x8(%ebp),%eax
    346f:	8b 40 28             	mov    0x28(%eax),%eax
    3472:	89 02                	mov    %eax,(%edx)
    3474:	8b 45 08             	mov    0x8(%ebp),%eax
    3477:	8b 40 28             	mov    0x28(%eax),%eax
    347a:	89 50 04             	mov    %edx,0x4(%eax)
    347d:	8b 45 08             	mov    0x8(%ebp),%eax
    3480:	89 50 28             	mov    %edx,0x28(%eax)
    3483:	50                   	push   %eax
    3484:	e8 77 83 00 00       	call   b800 <fibril_mutex_unlock@plt>
    3489:	83 c4 10             	add    $0x10,%esp
    348c:	8d 65 f4             	lea    -0xc(%ebp),%esp
    348f:	31 c0                	xor    %eax,%eax
    3491:	5b                   	pop    %ebx
    3492:	5e                   	pop    %esi
    3493:	5f                   	pop    %edi
    3494:	5d                   	pop    %ebp
    3495:	c3                   	ret    
    3496:	51                   	push   %ecx
    3497:	68 fe 96 00 00       	push   $0x96fe
    349c:	6a 04                	push   $0x4
    349e:	6a ff                	push   $0xffffffff
    34a0:	e8 cb 82 00 00       	call   b770 <log_msg@plt>
    34a5:	83 c4 10             	add    $0x10,%esp
    34a8:	8d 65 f4             	lea    -0xc(%ebp),%esp
    34ab:	b8 f2 ff ff ff       	mov    $0xfffffff2,%eax
    34b0:	5b                   	pop    %ebx
    34b1:	5e                   	pop    %esi
    34b2:	5f                   	pop    %edi
    34b3:	5d                   	pop    %ebp
    34b4:	c3                   	ret    
    34b5:	50                   	push   %eax
    34b6:	6a 63                	push   $0x63
    34b8:	68 cc 96 00 00       	push   $0x96cc
    34bd:	68 20 97 00 00       	push   $0x9720
    34c2:	e8 e9 82 00 00       	call   b7b0 <assert_abort@plt>
    34c7:	56                   	push   %esi
    34c8:	68 66 01 00 00       	push   $0x166
    34cd:	68 cc 96 00 00       	push   $0x96cc
    34d2:	68 f4 b1 00 00       	push   $0xb1f4
    34d7:	e8 d4 82 00 00       	call   b7b0 <assert_abort@plt>
    34dc:	8d 74 26 00          	lea    0x0(%esi,%eiz,1),%esi

000034e0 <hound_add_ctx>:
    34e0:	55                   	push   %ebp
    34e1:	89 e5                	mov    %esp,%ebp
    34e3:	56                   	push   %esi
    34e4:	53                   	push   %ebx
    34e5:	83 ec 10             	sub    $0x10,%esp
    34e8:	8b 5d 0c             	mov    0xc(%ebp),%ebx
    34eb:	8b 75 08             	mov    0x8(%ebp),%esi
    34ee:	53                   	push   %ebx
    34ef:	68 25 97 00 00       	push   $0x9725
    34f4:	6a 03                	push   $0x3
    34f6:	6a ff                	push   $0xffffffff
    34f8:	e8 73 82 00 00       	call   b770 <log_msg@plt>
    34fd:	83 c4 10             	add    $0x10,%esp
    3500:	85 f6                	test   %esi,%esi
    3502:	0f 84 bf 00 00 00    	je     35c7 <hound_add_ctx+0xe7>
    3508:	85 db                	test   %ebx,%ebx
    350a:	0f 84 b0 00 00 00    	je     35c0 <hound_add_ctx+0xe0>
    3510:	83 ec 0c             	sub    $0xc,%esp
    3513:	56                   	push   %esi
    3514:	e8 c7 84 00 00       	call   b9e0 <fibril_mutex_lock@plt>
    3519:	8d 46 18             	lea    0x18(%esi),%eax
    351c:	89 43 04             	mov    %eax,0x4(%ebx)
    351f:	8b 46 18             	mov    0x18(%esi),%eax
    3522:	89 03                	mov    %eax,(%ebx)
    3524:	8b 46 18             	mov    0x18(%esi),%eax
    3527:	89 58 04             	mov    %ebx,0x4(%eax)
    352a:	89 5e 18             	mov    %ebx,0x18(%esi)
    352d:	89 34 24             	mov    %esi,(%esp)
    3530:	e8 cb 82 00 00       	call   b800 <fibril_mutex_unlock@plt>
    3535:	8b 43 10             	mov    0x10(%ebx),%eax
    3538:	83 c4 10             	add    $0x10,%esp
    353b:	85 c0                	test   %eax,%eax
    353d:	74 61                	je     35a0 <hound_add_ctx+0xc0>
    353f:	51                   	push   %ecx
    3540:	51                   	push   %ecx
    3541:	50                   	push   %eax
    3542:	56                   	push   %esi
    3543:	e8 f8 fc ff ff       	call   3240 <hound_add_source>
    3548:	83 c4 10             	add    $0x10,%esp
    354b:	85 c0                	test   %eax,%eax
    354d:	74 51                	je     35a0 <hound_add_ctx+0xc0>
    354f:	83 ec 0c             	sub    $0xc,%esp
    3552:	89 45 f4             	mov    %eax,-0xc(%ebp)
    3555:	56                   	push   %esi
    3556:	e8 85 84 00 00       	call   b9e0 <fibril_mutex_lock@plt>
    355b:	8b 0b                	mov    (%ebx),%ecx
    355d:	83 c4 10             	add    $0x10,%esp
    3560:	8b 45 f4             	mov    -0xc(%ebp),%eax
    3563:	85 c9                	test   %ecx,%ecx
    3565:	74 0e                	je     3575 <hound_add_ctx+0x95>
    3567:	8b 53 04             	mov    0x4(%ebx),%edx
    356a:	85 d2                	test   %edx,%edx
    356c:	74 07                	je     3575 <hound_add_ctx+0x95>
    356e:	89 0a                	mov    %ecx,(%edx)
    3570:	8b 0b                	mov    (%ebx),%ecx
    3572:	89 51 04             	mov    %edx,0x4(%ecx)
    3575:	83 ec 0c             	sub    $0xc,%esp
    3578:	c7 03 00 00 00 00    	movl   $0x0,(%ebx)
    357e:	c7 43 04 00 00 00 00 	movl   $0x0,0x4(%ebx)
    3585:	89 45 f4             	mov    %eax,-0xc(%ebp)
    3588:	56                   	push   %esi
    3589:	e8 72 82 00 00       	call   b800 <fibril_mutex_unlock@plt>
    358e:	83 c4 10             	add    $0x10,%esp
    3591:	8b 45 f4             	mov    -0xc(%ebp),%eax
    3594:	8d 65 f8             	lea    -0x8(%ebp),%esp
    3597:	5b                   	pop    %ebx
    3598:	5e                   	pop    %esi
    3599:	5d                   	pop    %ebp
    359a:	c3                   	ret    
    359b:	90                   	nop
    359c:	8d 74 26 00          	lea    0x0(%esi,%eiz,1),%esi
    35a0:	8b 43 14             	mov    0x14(%ebx),%eax
    35a3:	85 c0                	test   %eax,%eax
    35a5:	74 10                	je     35b7 <hound_add_ctx+0xd7>
    35a7:	52                   	push   %edx
    35a8:	52                   	push   %edx
    35a9:	50                   	push   %eax
    35aa:	56                   	push   %esi
    35ab:	e8 e0 fd ff ff       	call   3390 <hound_add_sink>
    35b0:	83 c4 10             	add    $0x10,%esp
    35b3:	85 c0                	test   %eax,%eax
    35b5:	75 98                	jne    354f <hound_add_ctx+0x6f>
    35b7:	8d 65 f8             	lea    -0x8(%ebp),%esp
    35ba:	31 c0                	xor    %eax,%eax
    35bc:	5b                   	pop    %ebx
    35bd:	5e                   	pop    %esi
    35be:	5d                   	pop    %ebp
    35bf:	c3                   	ret    
    35c0:	b8 f2 ff ff ff       	mov    $0xfffffff2,%eax
    35c5:	eb cd                	jmp    3594 <hound_add_ctx+0xb4>
    35c7:	53                   	push   %ebx
    35c8:	68 b9 00 00 00       	push   $0xb9
    35cd:	68 cc 96 00 00       	push   $0x96cc
    35d2:	68 f4 b1 00 00       	push   $0xb1f4
    35d7:	e8 d4 81 00 00       	call   b7b0 <assert_abort@plt>
    35dc:	8d 74 26 00          	lea    0x0(%esi,%eiz,1),%esi

000035e0 <hound_add_device>:
    35e0:	55                   	push   %ebp
    35e1:	89 e5                	mov    %esp,%ebp
    35e3:	57                   	push   %edi
    35e4:	56                   	push   %esi
    35e5:	53                   	push   %ebx
    35e6:	83 ec 28             	sub    $0x28,%esp
    35e9:	8b 75 0c             	mov    0xc(%ebp),%esi
    35ec:	8b 55 10             	mov    0x10(%ebp),%edx
    35ef:	56                   	push   %esi
    35f0:	52                   	push   %edx
    35f1:	68 14 99 00 00       	push   $0x9914
    35f6:	6a 05                	push   $0x5
    35f8:	6a ff                	push   $0xffffffff
    35fa:	e8 71 81 00 00       	call   b770 <log_msg@plt>
    35ff:	8b 4d 08             	mov    0x8(%ebp),%ecx
    3602:	83 c4 20             	add    $0x20,%esp
    3605:	85 c9                	test   %ecx,%ecx
    3607:	0f 84 af 02 00 00    	je     38bc <hound_add_device+0x2dc>
    360d:	8b 45 10             	mov    0x10(%ebp),%eax
    3610:	85 c0                	test   %eax,%eax
    3612:	0f 84 d8 01 00 00    	je     37f0 <hound_add_device+0x210>
    3618:	85 f6                	test   %esi,%esi
    361a:	0f 84 d0 01 00 00    	je     37f0 <hound_add_device+0x210>
    3620:	8b 45 08             	mov    0x8(%ebp),%eax
    3623:	8b 78 14             	mov    0x14(%eax),%edi
    3626:	8d 58 10             	lea    0x10(%eax),%ebx
    3629:	39 df                	cmp    %ebx,%edi
    362b:	0f 84 8e 00 00 00    	je     36bf <hound_add_device+0xdf>
    3631:	3b 77 08             	cmp    0x8(%edi),%esi
    3634:	74 6a                	je     36a0 <hound_add_device+0xc0>
    3636:	89 f8                	mov    %edi,%eax
    3638:	eb 0b                	jmp    3645 <hound_add_device+0x65>
    363a:	8d b6 00 00 00 00    	lea    0x0(%esi),%esi
    3640:	3b 70 08             	cmp    0x8(%eax),%esi
    3643:	74 5b                	je     36a0 <hound_add_device+0xc0>
    3645:	8b 40 04             	mov    0x4(%eax),%eax
    3648:	39 d8                	cmp    %ebx,%eax
    364a:	75 f4                	jne    3640 <hound_add_device+0x60>
    364c:	eb 09                	jmp    3657 <hound_add_device+0x77>
    364e:	66 90                	xchg   %ax,%ax
    3650:	8b 7f 04             	mov    0x4(%edi),%edi
    3653:	39 df                	cmp    %ebx,%edi
    3655:	74 68                	je     36bf <hound_add_device+0xdf>
    3657:	50                   	push   %eax
    3658:	50                   	push   %eax
    3659:	8b 47 10             	mov    0x10(%edi),%eax
    365c:	50                   	push   %eax
    365d:	8b 45 10             	mov    0x10(%ebp),%eax
    3660:	50                   	push   %eax
    3661:	e8 fa 81 00 00       	call   b860 <str_cmp@plt>
    3666:	83 c4 10             	add    $0x10,%esp
    3669:	85 c0                	test   %eax,%eax
    366b:	75 e3                	jne    3650 <hound_add_device+0x70>
    366d:	8b 55 10             	mov    0x10(%ebp),%edx
    3670:	52                   	push   %edx
    3671:	68 60 99 00 00       	push   $0x9960
    3676:	6a 04                	push   $0x4
    3678:	6a ff                	push   $0xffffffff
    367a:	e8 f1 80 00 00       	call   b770 <log_msg@plt>
    367f:	8b 4d 10             	mov    0x10(%ebp),%ecx
    3682:	51                   	push   %ecx
    3683:	68 88 99 00 00       	push   $0x9988
    3688:	6a 04                	push   $0x4
    368a:	6a ff                	push   $0xffffffff
    368c:	e8 df 80 00 00       	call   b770 <log_msg@plt>
    3691:	83 c4 20             	add    $0x20,%esp
    3694:	b8 f7 ff ff ff       	mov    $0xfffffff7,%eax
    3699:	eb 1c                	jmp    36b7 <hound_add_device+0xd7>
    369b:	90                   	nop
    369c:	8d 74 26 00          	lea    0x0(%esi,%eiz,1),%esi
    36a0:	56                   	push   %esi
    36a1:	68 38 99 00 00       	push   $0x9938
    36a6:	6a 04                	push   $0x4
    36a8:	6a ff                	push   $0xffffffff
    36aa:	e8 c1 80 00 00       	call   b770 <log_msg@plt>
    36af:	83 c4 10             	add    $0x10,%esp
    36b2:	b8 f7 ff ff ff       	mov    $0xfffffff7,%eax
    36b7:	8d 65 f4             	lea    -0xc(%ebp),%esp
    36ba:	5b                   	pop    %ebx
    36bb:	5e                   	pop    %esi
    36bc:	5f                   	pop    %edi
    36bd:	5d                   	pop    %ebp
    36be:	c3                   	ret    
    36bf:	83 ec 0c             	sub    $0xc,%esp
    36c2:	68 80 00 00 00       	push   $0x80
    36c7:	e8 14 80 00 00       	call   b6e0 <malloc@plt>
    36cc:	83 c4 10             	add    $0x10,%esp
    36cf:	89 c1                	mov    %eax,%ecx
    36d1:	85 c0                	test   %eax,%eax
    36d3:	0f 84 c7 01 00 00    	je     38a0 <hound_add_device+0x2c0>
    36d9:	50                   	push   %eax
    36da:	8b 45 10             	mov    0x10(%ebp),%eax
    36dd:	50                   	push   %eax
    36de:	89 4d e4             	mov    %ecx,-0x1c(%ebp)
    36e1:	56                   	push   %esi
    36e2:	51                   	push   %ecx
    36e3:	e8 28 ed ff ff       	call   2410 <audio_device_init>
    36e8:	83 c4 10             	add    $0x10,%esp
    36eb:	89 c6                	mov    %eax,%esi
    36ed:	85 c0                	test   %eax,%eax
    36ef:	8b 4d e4             	mov    -0x1c(%ebp),%ecx
    36f2:	0f 85 ca 00 00 00    	jne    37c2 <hound_add_device+0x1e2>
    36f8:	8b 45 08             	mov    0x8(%ebp),%eax
    36fb:	89 59 04             	mov    %ebx,0x4(%ecx)
    36fe:	89 4d e4             	mov    %ecx,-0x1c(%ebp)
    3701:	8b 40 10             	mov    0x10(%eax),%eax
    3704:	89 01                	mov    %eax,(%ecx)
    3706:	89 48 04             	mov    %ecx,0x4(%eax)
    3709:	8b 45 08             	mov    0x8(%ebp),%eax
    370c:	89 48 10             	mov    %ecx,0x10(%eax)
    370f:	8b 41 10             	mov    0x10(%ecx),%eax
    3712:	50                   	push   %eax
    3713:	68 3e 97 00 00       	push   $0x973e
    3718:	6a 03                	push   $0x3
    371a:	6a ff                	push   $0xffffffff
    371c:	e8 4f 80 00 00       	call   b770 <log_msg@plt>
    3721:	8b 4d e4             	mov    -0x1c(%ebp),%ecx
    3724:	89 0c 24             	mov    %ecx,(%esp)
    3727:	e8 e4 ed ff ff       	call   2510 <audio_device_get_source>
    372c:	83 c4 10             	add    $0x10,%esp
    372f:	89 c6                	mov    %eax,%esi
    3731:	85 c0                	test   %eax,%eax
    3733:	8b 4d e4             	mov    -0x1c(%ebp),%ecx
    3736:	0f 84 2c 01 00 00    	je     3868 <hound_add_device+0x288>
    373c:	50                   	push   %eax
    373d:	50                   	push   %eax
    373e:	8b 45 08             	mov    0x8(%ebp),%eax
    3741:	56                   	push   %esi
    3742:	50                   	push   %eax
    3743:	e8 f8 fa ff ff       	call   3240 <hound_add_source>
    3748:	83 c4 10             	add    $0x10,%esp
    374b:	89 c3                	mov    %eax,%ebx
    374d:	85 c0                	test   %eax,%eax
    374f:	8b 4d e4             	mov    -0x1c(%ebp),%ecx
    3752:	0f 85 b4 00 00 00    	jne    380c <hound_add_device+0x22c>
    3758:	8b 7e 10             	mov    0x10(%esi),%edi
    375b:	89 4d e4             	mov    %ecx,-0x1c(%ebp)
    375e:	57                   	push   %edi
    375f:	68 55 97 00 00       	push   $0x9755
    3764:	6a 05                	push   $0x5
    3766:	6a ff                	push   $0xffffffff
    3768:	e8 03 80 00 00       	call   b770 <log_msg@plt>
    376d:	8b 4d e4             	mov    -0x1c(%ebp),%ecx
    3770:	89 0c 24             	mov    %ecx,(%esp)
    3773:	e8 e8 ed ff ff       	call   2560 <audio_device_get_sink>
    3778:	89 c3                	mov    %eax,%ebx
    377a:	83 c4 10             	add    $0x10,%esp
    377d:	31 c0                	xor    %eax,%eax
    377f:	8b 4d e4             	mov    -0x1c(%ebp),%ecx
    3782:	85 db                	test   %ebx,%ebx
    3784:	0f 84 2d ff ff ff    	je     36b7 <hound_add_device+0xd7>
    378a:	8b 75 08             	mov    0x8(%ebp),%esi
    378d:	89 4d e4             	mov    %ecx,-0x1c(%ebp)
    3790:	51                   	push   %ecx
    3791:	51                   	push   %ecx
    3792:	53                   	push   %ebx
    3793:	56                   	push   %esi
    3794:	e8 f7 fb ff ff       	call   3390 <hound_add_sink>
    3799:	83 c4 10             	add    $0x10,%esp
    379c:	89 c6                	mov    %eax,%esi
    379e:	85 c0                	test   %eax,%eax
    37a0:	0f 85 94 00 00 00    	jne    383a <hound_add_device+0x25a>
    37a6:	8b 53 10             	mov    0x10(%ebx),%edx
    37a9:	52                   	push   %edx
    37aa:	68 87 97 00 00       	push   $0x9787
    37af:	6a 05                	push   $0x5
    37b1:	6a ff                	push   $0xffffffff
    37b3:	e8 b8 7f 00 00       	call   b770 <log_msg@plt>
    37b8:	83 c4 10             	add    $0x10,%esp
    37bb:	31 c0                	xor    %eax,%eax
    37bd:	e9 f5 fe ff ff       	jmp    36b7 <hound_add_device+0xd7>
    37c2:	83 ec 0c             	sub    $0xc,%esp
    37c5:	50                   	push   %eax
    37c6:	e8 65 81 00 00       	call   b930 <str_error@plt>
    37cb:	50                   	push   %eax
    37cc:	68 d4 99 00 00       	push   $0x99d4
    37d1:	6a 04                	push   $0x4
    37d3:	6a ff                	push   $0xffffffff
    37d5:	e8 96 7f 00 00       	call   b770 <log_msg@plt>
    37da:	83 c4 14             	add    $0x14,%esp
    37dd:	8b 4d e4             	mov    -0x1c(%ebp),%ecx
    37e0:	51                   	push   %ecx
    37e1:	e8 ea 81 00 00       	call   b9d0 <free@plt>
    37e6:	83 c4 10             	add    $0x10,%esp
    37e9:	89 f0                	mov    %esi,%eax
    37eb:	e9 c7 fe ff ff       	jmp    36b7 <hound_add_device+0xd7>
    37f0:	50                   	push   %eax
    37f1:	68 3b 95 00 00       	push   $0x953b
    37f6:	6a 04                	push   $0x4
    37f8:	6a ff                	push   $0xffffffff
    37fa:	e8 71 7f 00 00       	call   b770 <log_msg@plt>
    37ff:	83 c4 10             	add    $0x10,%esp
    3802:	b8 f2 ff ff ff       	mov    $0xfffffff2,%eax
    3807:	e9 ab fe ff ff       	jmp    36b7 <hound_add_device+0xd7>
    380c:	83 ec 0c             	sub    $0xc,%esp
    380f:	50                   	push   %eax
    3810:	e8 1b 81 00 00       	call   b930 <str_error@plt>
    3815:	50                   	push   %eax
    3816:	68 00 9a 00 00       	push   $0x9a00
    381b:	6a 04                	push   $0x4
    381d:	6a ff                	push   $0xffffffff
    381f:	e8 4c 7f 00 00       	call   b770 <log_msg@plt>
    3824:	83 c4 14             	add    $0x14,%esp
    3827:	8b 4d e4             	mov    -0x1c(%ebp),%ecx
    382a:	51                   	push   %ecx
    382b:	e8 d0 ec ff ff       	call   2500 <audio_device_fini>
    3830:	83 c4 10             	add    $0x10,%esp
    3833:	89 d8                	mov    %ebx,%eax
    3835:	e9 7d fe ff ff       	jmp    36b7 <hound_add_device+0xd7>
    383a:	83 ec 0c             	sub    $0xc,%esp
    383d:	50                   	push   %eax
    383e:	e8 ed 80 00 00       	call   b930 <str_error@plt>
    3843:	50                   	push   %eax
    3844:	68 69 97 00 00       	push   $0x9769
    3849:	6a 04                	push   $0x4
    384b:	6a ff                	push   $0xffffffff
    384d:	e8 1e 7f 00 00       	call   b770 <log_msg@plt>
    3852:	83 c4 14             	add    $0x14,%esp
    3855:	8b 4d e4             	mov    -0x1c(%ebp),%ecx
    3858:	51                   	push   %ecx
    3859:	e8 a2 ec ff ff       	call   2500 <audio_device_fini>
    385e:	83 c4 10             	add    $0x10,%esp
    3861:	89 f0                	mov    %esi,%eax
    3863:	e9 4f fe ff ff       	jmp    36b7 <hound_add_device+0xd7>
    3868:	83 ec 0c             	sub    $0xc,%esp
    386b:	89 4d e4             	mov    %ecx,-0x1c(%ebp)
    386e:	51                   	push   %ecx
    386f:	e8 ec ec ff ff       	call   2560 <audio_device_get_sink>
    3874:	83 c4 10             	add    $0x10,%esp
    3877:	89 c3                	mov    %eax,%ebx
    3879:	85 c0                	test   %eax,%eax
    387b:	8b 4d e4             	mov    -0x1c(%ebp),%ecx
    387e:	0f 85 06 ff ff ff    	jne    378a <hound_add_device+0x1aa>
    3884:	8b 45 10             	mov    0x10(%ebp),%eax
    3887:	50                   	push   %eax
    3888:	68 20 9a 00 00       	push   $0x9a20
    388d:	6a 02                	push   $0x2
    388f:	6a ff                	push   $0xffffffff
    3891:	e8 da 7e 00 00       	call   b770 <log_msg@plt>
    3896:	83 c4 10             	add    $0x10,%esp
    3899:	31 c0                	xor    %eax,%eax
    389b:	e9 17 fe ff ff       	jmp    36b7 <hound_add_device+0xd7>
    38a0:	50                   	push   %eax
    38a1:	68 b0 99 00 00       	push   $0x99b0
    38a6:	6a 04                	push   $0x4
    38a8:	6a ff                	push   $0xffffffff
    38aa:	e8 c1 7e 00 00       	call   b770 <log_msg@plt>
    38af:	83 c4 10             	add    $0x10,%esp
    38b2:	b8 fe ff ff ff       	mov    $0xfffffffe,%eax
    38b7:	e9 fb fd ff ff       	jmp    36b7 <hound_add_device+0xd7>
    38bc:	50                   	push   %eax
    38bd:	68 04 01 00 00       	push   $0x104
    38c2:	68 cc 96 00 00       	push   $0x96cc
    38c7:	68 f4 b1 00 00       	push   $0xb1f4
    38cc:	e8 df 7e 00 00       	call   b7b0 <assert_abort@plt>
    38d1:	eb 0d                	jmp    38e0 <hound_remove_source>
    38d3:	90                   	nop
    38d4:	90                   	nop
    38d5:	90                   	nop
    38d6:	90                   	nop
    38d7:	90                   	nop
    38d8:	90                   	nop
    38d9:	90                   	nop
    38da:	90                   	nop
    38db:	90                   	nop
    38dc:	90                   	nop
    38dd:	90                   	nop
    38de:	90                   	nop
    38df:	90                   	nop

000038e0 <hound_remove_source>:
    38e0:	55                   	push   %ebp
    38e1:	89 e5                	mov    %esp,%ebp
    38e3:	57                   	push   %edi
    38e4:	56                   	push   %esi
    38e5:	53                   	push   %ebx
    38e6:	83 ec 0c             	sub    $0xc,%esp
    38e9:	8b 7d 08             	mov    0x8(%ebp),%edi
    38ec:	8b 5d 0c             	mov    0xc(%ebp),%ebx
    38ef:	85 ff                	test   %edi,%edi
    38f1:	0f 84 c6 00 00 00    	je     39bd <hound_remove_source+0xdd>
    38f7:	85 db                	test   %ebx,%ebx
    38f9:	0f 84 b7 00 00 00    	je     39b6 <hound_remove_source+0xd6>
    38ff:	83 ec 0c             	sub    $0xc,%esp
    3902:	8d 73 08             	lea    0x8(%ebx),%esi
    3905:	57                   	push   %edi
    3906:	e8 d5 80 00 00       	call   b9e0 <fibril_mutex_lock@plt>
    390b:	8b 53 10             	mov    0x10(%ebx),%edx
    390e:	52                   	push   %edx
    390f:	68 e8 96 00 00       	push   $0x96e8
    3914:	6a 05                	push   $0x5
    3916:	6a ff                	push   $0xffffffff
    3918:	e8 53 7e 00 00       	call   b770 <log_msg@plt>
    391d:	83 c4 20             	add    $0x20,%esp
    3920:	39 73 0c             	cmp    %esi,0xc(%ebx)
    3923:	74 5a                	je     397f <hound_remove_source+0x9f>
    3925:	8b 43 10             	mov    0x10(%ebx),%eax
    3928:	50                   	push   %eax
    3929:	68 54 98 00 00       	push   $0x9854
    392e:	6a 02                	push   $0x2
    3930:	6a ff                	push   $0xffffffff
    3932:	e8 39 7e 00 00       	call   b770 <log_msg@plt>
    3937:	8b 43 0c             	mov    0xc(%ebx),%eax
    393a:	83 c4 10             	add    $0x10,%esp
    393d:	39 c6                	cmp    %eax,%esi
    393f:	74 3e                	je     397f <hound_remove_source+0x9f>
    3941:	8d b4 26 00 00 00 00 	lea    0x0(%esi,%eiz,1),%esi
    3948:	8b 48 10             	mov    0x10(%eax),%ecx
    394b:	85 c9                	test   %ecx,%ecx
    394d:	74 0f                	je     395e <hound_remove_source+0x7e>
    394f:	8b 50 14             	mov    0x14(%eax),%edx
    3952:	85 d2                	test   %edx,%edx
    3954:	74 08                	je     395e <hound_remove_source+0x7e>
    3956:	89 0a                	mov    %ecx,(%edx)
    3958:	8b 48 10             	mov    0x10(%eax),%ecx
    395b:	89 51 04             	mov    %edx,0x4(%ecx)
    395e:	83 ec 0c             	sub    $0xc,%esp
    3961:	c7 40 10 00 00 00 00 	movl   $0x0,0x10(%eax)
    3968:	c7 40 14 00 00 00 00 	movl   $0x0,0x14(%eax)
    396f:	50                   	push   %eax
    3970:	e8 2b f3 ff ff       	call   2ca0 <connection_destroy>
    3975:	8b 43 0c             	mov    0xc(%ebx),%eax
    3978:	83 c4 10             	add    $0x10,%esp
    397b:	39 c6                	cmp    %eax,%esi
    397d:	75 c9                	jne    3948 <hound_remove_source+0x68>
    397f:	8b 13                	mov    (%ebx),%edx
    3981:	85 d2                	test   %edx,%edx
    3983:	74 0e                	je     3993 <hound_remove_source+0xb3>
    3985:	8b 43 04             	mov    0x4(%ebx),%eax
    3988:	85 c0                	test   %eax,%eax
    398a:	74 07                	je     3993 <hound_remove_source+0xb3>
    398c:	89 10                	mov    %edx,(%eax)
    398e:	8b 13                	mov    (%ebx),%edx
    3990:	89 42 04             	mov    %eax,0x4(%edx)
    3993:	83 ec 0c             	sub    $0xc,%esp
    3996:	c7 03 00 00 00 00    	movl   $0x0,(%ebx)
    399c:	c7 43 04 00 00 00 00 	movl   $0x0,0x4(%ebx)
    39a3:	57                   	push   %edi
    39a4:	e8 57 7e 00 00       	call   b800 <fibril_mutex_unlock@plt>
    39a9:	83 c4 10             	add    $0x10,%esp
    39ac:	31 c0                	xor    %eax,%eax
    39ae:	8d 65 f4             	lea    -0xc(%ebp),%esp
    39b1:	5b                   	pop    %ebx
    39b2:	5e                   	pop    %esi
    39b3:	5f                   	pop    %edi
    39b4:	5d                   	pop    %ebp
    39b5:	c3                   	ret    
    39b6:	b8 f2 ff ff ff       	mov    $0xfffffff2,%eax
    39bb:	eb f1                	jmp    39ae <hound_remove_source+0xce>
    39bd:	51                   	push   %ecx
    39be:	68 7e 01 00 00       	push   $0x17e
    39c3:	68 cc 96 00 00       	push   $0x96cc
    39c8:	68 f4 b1 00 00       	push   $0xb1f4
    39cd:	e8 de 7d 00 00       	call   b7b0 <assert_abort@plt>
    39d2:	8d b4 26 00 00 00 00 	lea    0x0(%esi,%eiz,1),%esi
    39d9:	8d bc 27 00 00 00 00 	lea    0x0(%edi,%eiz,1),%edi

000039e0 <hound_remove_sink>:
    39e0:	55                   	push   %ebp
    39e1:	89 e5                	mov    %esp,%ebp
    39e3:	56                   	push   %esi
    39e4:	53                   	push   %ebx
    39e5:	8b 5d 08             	mov    0x8(%ebp),%ebx
    39e8:	8b 75 0c             	mov    0xc(%ebp),%esi
    39eb:	85 db                	test   %ebx,%ebx
    39ed:	74 38                	je     3a27 <hound_remove_sink+0x47>
    39ef:	85 f6                	test   %esi,%esi
    39f1:	74 2d                	je     3a20 <hound_remove_sink+0x40>
    39f3:	83 ec 0c             	sub    $0xc,%esp
    39f6:	53                   	push   %ebx
    39f7:	e8 e4 7f 00 00       	call   b9e0 <fibril_mutex_lock@plt>
    39fc:	89 d8                	mov    %ebx,%eax
    39fe:	89 f2                	mov    %esi,%edx
    3a00:	e8 fb f4 ff ff       	call   2f00 <hound_remove_sink_internal>
    3a05:	89 1c 24             	mov    %ebx,(%esp)
    3a08:	e8 f3 7d 00 00       	call   b800 <fibril_mutex_unlock@plt>
    3a0d:	83 c4 10             	add    $0x10,%esp
    3a10:	31 c0                	xor    %eax,%eax
    3a12:	8d 65 f8             	lea    -0x8(%ebp),%esp
    3a15:	5b                   	pop    %ebx
    3a16:	5e                   	pop    %esi
    3a17:	5d                   	pop    %ebp
    3a18:	c3                   	ret    
    3a19:	8d b4 26 00 00 00 00 	lea    0x0(%esi,%eiz,1),%esi
    3a20:	b8 f2 ff ff ff       	mov    $0xfffffff2,%eax
    3a25:	eb eb                	jmp    3a12 <hound_remove_sink+0x32>
    3a27:	50                   	push   %eax
    3a28:	68 8f 01 00 00       	push   $0x18f
    3a2d:	68 cc 96 00 00       	push   $0x96cc
    3a32:	68 f4 b1 00 00       	push   $0xb1f4
    3a37:	e8 74 7d 00 00       	call   b7b0 <assert_abort@plt>
    3a3c:	8d 74 26 00          	lea    0x0(%esi,%eiz,1),%esi

00003a40 <hound_list_sources>:
    3a40:	55                   	push   %ebp
    3a41:	89 e5                	mov    %esp,%ebp
    3a43:	57                   	push   %edi
    3a44:	56                   	push   %esi
    3a45:	53                   	push   %ebx
    3a46:	83 ec 1c             	sub    $0x1c,%esp
    3a49:	8b 45 08             	mov    0x8(%ebp),%eax
    3a4c:	85 c0                	test   %eax,%eax
    3a4e:	0f 84 47 01 00 00    	je     3b9b <hound_list_sources+0x15b>
    3a54:	8b 45 0c             	mov    0xc(%ebp),%eax
    3a57:	85 c0                	test   %eax,%eax
    3a59:	0f 84 2f 01 00 00    	je     3b8e <hound_list_sources+0x14e>
    3a5f:	8b 45 10             	mov    0x10(%ebp),%eax
    3a62:	85 c0                	test   %eax,%eax
    3a64:	0f 84 24 01 00 00    	je     3b8e <hound_list_sources+0x14e>
    3a6a:	83 ec 0c             	sub    $0xc,%esp
    3a6d:	8b 45 08             	mov    0x8(%ebp),%eax
    3a70:	50                   	push   %eax
    3a71:	e8 6a 7f 00 00       	call   b9e0 <fibril_mutex_lock@plt>
    3a76:	8b 45 08             	mov    0x8(%ebp),%eax
    3a79:	8d 58 20             	lea    0x20(%eax),%ebx
    3a7c:	89 1c 24             	mov    %ebx,(%esp)
    3a7f:	e8 7c 7e 00 00       	call   b900 <list_count@plt>
    3a84:	83 c4 10             	add    $0x10,%esp
    3a87:	89 45 e4             	mov    %eax,-0x1c(%ebp)
    3a8a:	85 c0                	test   %eax,%eax
    3a8c:	0f 84 d1 00 00 00    	je     3b63 <hound_list_sources+0x123>
    3a92:	8b 7d e4             	mov    -0x1c(%ebp),%edi
    3a95:	56                   	push   %esi
    3a96:	56                   	push   %esi
    3a97:	6a 04                	push   $0x4
    3a99:	57                   	push   %edi
    3a9a:	e8 21 7d 00 00       	call   b7c0 <calloc@plt>
    3a9f:	83 c4 10             	add    $0x10,%esp
    3aa2:	89 c6                	mov    %eax,%esi
    3aa4:	85 c0                	test   %eax,%eax
    3aa6:	74 4e                	je     3af6 <hound_list_sources+0xb6>
    3aa8:	31 ff                	xor    %edi,%edi
    3aaa:	8b 45 08             	mov    0x8(%ebp),%eax
    3aad:	8b 40 24             	mov    0x24(%eax),%eax
    3ab0:	39 c3                	cmp    %eax,%ebx
    3ab2:	74 24                	je     3ad8 <hound_list_sources+0x98>
    3ab4:	85 c0                	test   %eax,%eax
    3ab6:	74 20                	je     3ad8 <hound_list_sources+0x98>
    3ab8:	85 ff                	test   %edi,%edi
    3aba:	74 24                	je     3ae0 <hound_list_sources+0xa0>
    3abc:	8b 40 04             	mov    0x4(%eax),%eax
    3abf:	39 c3                	cmp    %eax,%ebx
    3ac1:	74 15                	je     3ad8 <hound_list_sources+0x98>
    3ac3:	ba 01 00 00 00       	mov    $0x1,%edx
    3ac8:	85 c0                	test   %eax,%eax
    3aca:	74 0c                	je     3ad8 <hound_list_sources+0x98>
    3acc:	39 fa                	cmp    %edi,%edx
    3ace:	74 10                	je     3ae0 <hound_list_sources+0xa0>
    3ad0:	8b 40 04             	mov    0x4(%eax),%eax
    3ad3:	42                   	inc    %edx
    3ad4:	39 c3                	cmp    %eax,%ebx
    3ad6:	75 f0                	jne    3ac8 <hound_list_sources+0x88>
    3ad8:	a1 10 00 00 00       	mov    0x10,%eax
    3add:	0f 0b                	ud2    
    3adf:	90                   	nop
    3ae0:	83 ec 0c             	sub    $0xc,%esp
    3ae3:	8b 48 10             	mov    0x10(%eax),%ecx
    3ae6:	51                   	push   %ecx
    3ae7:	e8 34 7d 00 00       	call   b820 <str_dup@plt>
    3aec:	83 c4 10             	add    $0x10,%esp
    3aef:	89 04 be             	mov    %eax,(%esi,%edi,4)
    3af2:	85 c0                	test   %eax,%eax
    3af4:	74 52                	je     3b48 <hound_list_sources+0x108>
    3af6:	31 ff                	xor    %edi,%edi
    3af8:	8b 5d e4             	mov    -0x1c(%ebp),%ebx
    3afb:	90                   	nop
    3afc:	8d 74 26 00          	lea    0x0(%esi,%eiz,1),%esi
    3b00:	83 ec 0c             	sub    $0xc,%esp
    3b03:	8b 14 be             	mov    (%esi,%edi,4),%edx
    3b06:	47                   	inc    %edi
    3b07:	52                   	push   %edx
    3b08:	e8 c3 7e 00 00       	call   b9d0 <free@plt>
    3b0d:	83 c4 10             	add    $0x10,%esp
    3b10:	39 fb                	cmp    %edi,%ebx
    3b12:	75 ec                	jne    3b00 <hound_list_sources+0xc0>
    3b14:	83 ec 0c             	sub    $0xc,%esp
    3b17:	56                   	push   %esi
    3b18:	e8 b3 7e 00 00       	call   b9d0 <free@plt>
    3b1d:	83 c4 10             	add    $0x10,%esp
    3b20:	b8 fe ff ff ff       	mov    $0xfffffffe,%eax
    3b25:	83 ec 0c             	sub    $0xc,%esp
    3b28:	89 45 e4             	mov    %eax,-0x1c(%ebp)
    3b2b:	8b 45 08             	mov    0x8(%ebp),%eax
    3b2e:	50                   	push   %eax
    3b2f:	e8 cc 7c 00 00       	call   b800 <fibril_mutex_unlock@plt>
    3b34:	8b 45 e4             	mov    -0x1c(%ebp),%eax
    3b37:	83 c4 10             	add    $0x10,%esp
    3b3a:	8d 65 f4             	lea    -0xc(%ebp),%esp
    3b3d:	5b                   	pop    %ebx
    3b3e:	5e                   	pop    %esi
    3b3f:	5f                   	pop    %edi
    3b40:	5d                   	pop    %ebp
    3b41:	c3                   	ret    
    3b42:	8d b6 00 00 00 00    	lea    0x0(%esi),%esi
    3b48:	47                   	inc    %edi
    3b49:	39 7d e4             	cmp    %edi,-0x1c(%ebp)
    3b4c:	0f 85 58 ff ff ff    	jne    3aaa <hound_list_sources+0x6a>
    3b52:	8b 45 10             	mov    0x10(%ebp),%eax
    3b55:	8b 4d e4             	mov    -0x1c(%ebp),%ecx
    3b58:	89 08                	mov    %ecx,(%eax)
    3b5a:	8b 45 0c             	mov    0xc(%ebp),%eax
    3b5d:	89 30                	mov    %esi,(%eax)
    3b5f:	31 c0                	xor    %eax,%eax
    3b61:	eb c2                	jmp    3b25 <hound_list_sources+0xe5>
    3b63:	8b 45 0c             	mov    0xc(%ebp),%eax
    3b66:	83 ec 0c             	sub    $0xc,%esp
    3b69:	c7 00 00 00 00 00    	movl   $0x0,(%eax)
    3b6f:	8b 45 10             	mov    0x10(%ebp),%eax
    3b72:	c7 00 00 00 00 00    	movl   $0x0,(%eax)
    3b78:	8b 45 08             	mov    0x8(%ebp),%eax
    3b7b:	50                   	push   %eax
    3b7c:	e8 7f 7c 00 00       	call   b800 <fibril_mutex_unlock@plt>
    3b81:	83 c4 10             	add    $0x10,%esp
    3b84:	8d 65 f4             	lea    -0xc(%ebp),%esp
    3b87:	31 c0                	xor    %eax,%eax
    3b89:	5b                   	pop    %ebx
    3b8a:	5e                   	pop    %esi
    3b8b:	5f                   	pop    %edi
    3b8c:	5d                   	pop    %ebp
    3b8d:	c3                   	ret    
    3b8e:	8d 65 f4             	lea    -0xc(%ebp),%esp
    3b91:	b8 f2 ff ff ff       	mov    $0xfffffff2,%eax
    3b96:	5b                   	pop    %ebx
    3b97:	5e                   	pop    %esi
    3b98:	5f                   	pop    %edi
    3b99:	5d                   	pop    %ebp
    3b9a:	c3                   	ret    
    3b9b:	50                   	push   %eax
    3b9c:	68 a1 01 00 00       	push   $0x1a1
    3ba1:	68 cc 96 00 00       	push   $0x96cc
    3ba6:	68 f4 b1 00 00       	push   $0xb1f4
    3bab:	e8 00 7c 00 00       	call   b7b0 <assert_abort@plt>

00003bb0 <hound_list_sinks>:
    3bb0:	55                   	push   %ebp
    3bb1:	89 e5                	mov    %esp,%ebp
    3bb3:	57                   	push   %edi
    3bb4:	56                   	push   %esi
    3bb5:	53                   	push   %ebx
    3bb6:	83 ec 1c             	sub    $0x1c,%esp
    3bb9:	8b 45 08             	mov    0x8(%ebp),%eax
    3bbc:	85 c0                	test   %eax,%eax
    3bbe:	0f 84 4d 01 00 00    	je     3d11 <hound_list_sinks+0x161>
    3bc4:	8b 45 0c             	mov    0xc(%ebp),%eax
    3bc7:	85 c0                	test   %eax,%eax
    3bc9:	0f 84 35 01 00 00    	je     3d04 <hound_list_sinks+0x154>
    3bcf:	8b 45 10             	mov    0x10(%ebp),%eax
    3bd2:	85 c0                	test   %eax,%eax
    3bd4:	0f 84 2a 01 00 00    	je     3d04 <hound_list_sinks+0x154>
    3bda:	83 ec 0c             	sub    $0xc,%esp
    3bdd:	8b 45 08             	mov    0x8(%ebp),%eax
    3be0:	50                   	push   %eax
    3be1:	e8 fa 7d 00 00       	call   b9e0 <fibril_mutex_lock@plt>
    3be6:	8b 45 08             	mov    0x8(%ebp),%eax
    3be9:	8d 58 28             	lea    0x28(%eax),%ebx
    3bec:	89 1c 24             	mov    %ebx,(%esp)
    3bef:	e8 0c 7d 00 00       	call   b900 <list_count@plt>
    3bf4:	83 c4 10             	add    $0x10,%esp
    3bf7:	89 45 e4             	mov    %eax,-0x1c(%ebp)
    3bfa:	85 c0                	test   %eax,%eax
    3bfc:	0f 84 d7 00 00 00    	je     3cd9 <hound_list_sinks+0x129>
    3c02:	8b 7d e4             	mov    -0x1c(%ebp),%edi
    3c05:	56                   	push   %esi
    3c06:	56                   	push   %esi
    3c07:	6a 04                	push   $0x4
    3c09:	57                   	push   %edi
    3c0a:	e8 b1 7b 00 00       	call   b7c0 <calloc@plt>
    3c0f:	83 c4 10             	add    $0x10,%esp
    3c12:	89 c6                	mov    %eax,%esi
    3c14:	85 c0                	test   %eax,%eax
    3c16:	74 40                	je     3c58 <hound_list_sinks+0xa8>
    3c18:	31 ff                	xor    %edi,%edi
    3c1a:	8d b6 00 00 00 00    	lea    0x0(%esi),%esi
    3c20:	8b 45 08             	mov    0x8(%ebp),%eax
    3c23:	8b 40 2c             	mov    0x2c(%eax),%eax
    3c26:	39 c3                	cmp    %eax,%ebx
    3c28:	74 26                	je     3c50 <hound_list_sinks+0xa0>
    3c2a:	85 c0                	test   %eax,%eax
    3c2c:	74 22                	je     3c50 <hound_list_sinks+0xa0>
    3c2e:	85 ff                	test   %edi,%edi
    3c30:	74 76                	je     3ca8 <hound_list_sinks+0xf8>
    3c32:	8b 40 04             	mov    0x4(%eax),%eax
    3c35:	39 c3                	cmp    %eax,%ebx
    3c37:	74 17                	je     3c50 <hound_list_sinks+0xa0>
    3c39:	b9 01 00 00 00       	mov    $0x1,%ecx
    3c3e:	66 90                	xchg   %ax,%ax
    3c40:	85 c0                	test   %eax,%eax
    3c42:	74 0c                	je     3c50 <hound_list_sinks+0xa0>
    3c44:	39 f9                	cmp    %edi,%ecx
    3c46:	74 60                	je     3ca8 <hound_list_sinks+0xf8>
    3c48:	8b 40 04             	mov    0x4(%eax),%eax
    3c4b:	41                   	inc    %ecx
    3c4c:	39 c3                	cmp    %eax,%ebx
    3c4e:	75 f0                	jne    3c40 <hound_list_sinks+0x90>
    3c50:	a1 10 00 00 00       	mov    0x10,%eax
    3c55:	0f 0b                	ud2    
    3c57:	90                   	nop
    3c58:	31 ff                	xor    %edi,%edi
    3c5a:	8b 5d e4             	mov    -0x1c(%ebp),%ebx
    3c5d:	8d 76 00             	lea    0x0(%esi),%esi
    3c60:	83 ec 0c             	sub    $0xc,%esp
    3c63:	8b 14 be             	mov    (%esi,%edi,4),%edx
    3c66:	47                   	inc    %edi
    3c67:	52                   	push   %edx
    3c68:	e8 63 7d 00 00       	call   b9d0 <free@plt>
    3c6d:	83 c4 10             	add    $0x10,%esp
    3c70:	39 fb                	cmp    %edi,%ebx
    3c72:	75 ec                	jne    3c60 <hound_list_sinks+0xb0>
    3c74:	83 ec 0c             	sub    $0xc,%esp
    3c77:	56                   	push   %esi
    3c78:	e8 53 7d 00 00       	call   b9d0 <free@plt>
    3c7d:	83 c4 10             	add    $0x10,%esp
    3c80:	b8 fe ff ff ff       	mov    $0xfffffffe,%eax
    3c85:	83 ec 0c             	sub    $0xc,%esp
    3c88:	89 45 e4             	mov    %eax,-0x1c(%ebp)
    3c8b:	8b 45 08             	mov    0x8(%ebp),%eax
    3c8e:	50                   	push   %eax
    3c8f:	e8 6c 7b 00 00       	call   b800 <fibril_mutex_unlock@plt>
    3c94:	8b 45 e4             	mov    -0x1c(%ebp),%eax
    3c97:	83 c4 10             	add    $0x10,%esp
    3c9a:	8d 65 f4             	lea    -0xc(%ebp),%esp
    3c9d:	5b                   	pop    %ebx
    3c9e:	5e                   	pop    %esi
    3c9f:	5f                   	pop    %edi
    3ca0:	5d                   	pop    %ebp
    3ca1:	c3                   	ret    
    3ca2:	8d b6 00 00 00 00    	lea    0x0(%esi),%esi
    3ca8:	83 ec 0c             	sub    $0xc,%esp
    3cab:	8b 48 10             	mov    0x10(%eax),%ecx
    3cae:	51                   	push   %ecx
    3caf:	e8 6c 7b 00 00       	call   b820 <str_dup@plt>
    3cb4:	83 c4 10             	add    $0x10,%esp
    3cb7:	89 04 be             	mov    %eax,(%esi,%edi,4)
    3cba:	85 c0                	test   %eax,%eax
    3cbc:	74 9a                	je     3c58 <hound_list_sinks+0xa8>
    3cbe:	47                   	inc    %edi
    3cbf:	39 7d e4             	cmp    %edi,-0x1c(%ebp)
    3cc2:	0f 85 58 ff ff ff    	jne    3c20 <hound_list_sinks+0x70>
    3cc8:	8b 45 10             	mov    0x10(%ebp),%eax
    3ccb:	8b 55 e4             	mov    -0x1c(%ebp),%edx
    3cce:	89 10                	mov    %edx,(%eax)
    3cd0:	8b 45 0c             	mov    0xc(%ebp),%eax
    3cd3:	89 30                	mov    %esi,(%eax)
    3cd5:	31 c0                	xor    %eax,%eax
    3cd7:	eb ac                	jmp    3c85 <hound_list_sinks+0xd5>
    3cd9:	8b 45 0c             	mov    0xc(%ebp),%eax
    3cdc:	83 ec 0c             	sub    $0xc,%esp
    3cdf:	c7 00 00 00 00 00    	movl   $0x0,(%eax)
    3ce5:	8b 45 10             	mov    0x10(%ebp),%eax
    3ce8:	c7 00 00 00 00 00    	movl   $0x0,(%eax)
    3cee:	8b 45 08             	mov    0x8(%ebp),%eax
    3cf1:	50                   	push   %eax
    3cf2:	e8 09 7b 00 00       	call   b800 <fibril_mutex_unlock@plt>
    3cf7:	83 c4 10             	add    $0x10,%esp
    3cfa:	8d 65 f4             	lea    -0xc(%ebp),%esp
    3cfd:	31 c0                	xor    %eax,%eax
    3cff:	5b                   	pop    %ebx
    3d00:	5e                   	pop    %esi
    3d01:	5f                   	pop    %edi
    3d02:	5d                   	pop    %ebp
    3d03:	c3                   	ret    
    3d04:	8d 65 f4             	lea    -0xc(%ebp),%esp
    3d07:	b8 f2 ff ff ff       	mov    $0xfffffff2,%eax
    3d0c:	5b                   	pop    %ebx
    3d0d:	5e                   	pop    %esi
    3d0e:	5f                   	pop    %edi
    3d0f:	5d                   	pop    %ebp
    3d10:	c3                   	ret    
    3d11:	50                   	push   %eax
    3d12:	68 cb 01 00 00       	push   $0x1cb
    3d17:	68 cc 96 00 00       	push   $0x96cc
    3d1c:	68 f4 b1 00 00       	push   $0xb1f4
    3d21:	e8 8a 7a 00 00       	call   b7b0 <assert_abort@plt>
    3d26:	8d 76 00             	lea    0x0(%esi),%esi
    3d29:	8d bc 27 00 00 00 00 	lea    0x0(%edi,%eiz,1),%edi

00003d30 <hound_list_connections>:
    3d30:	55                   	push   %ebp
    3d31:	89 e5                	mov    %esp,%ebp
    3d33:	53                   	push   %ebx
    3d34:	83 ec 10             	sub    $0x10,%esp
    3d37:	8b 5d 08             	mov    0x8(%ebp),%ebx
    3d3a:	53                   	push   %ebx
    3d3b:	e8 a0 7c 00 00       	call   b9e0 <fibril_mutex_lock@plt>
    3d40:	89 1c 24             	mov    %ebx,(%esp)
    3d43:	e8 b8 7a 00 00       	call   b800 <fibril_mutex_unlock@plt>
    3d48:	b8 f5 ff ff ff       	mov    $0xfffffff5,%eax
    3d4d:	8b 5d fc             	mov    -0x4(%ebp),%ebx
    3d50:	c9                   	leave  
    3d51:	c3                   	ret    
    3d52:	8d b4 26 00 00 00 00 	lea    0x0(%esi,%eiz,1),%esi
    3d59:	8d bc 27 00 00 00 00 	lea    0x0(%edi,%eiz,1),%edi

00003d60 <hound_connect>:
    3d60:	55                   	push   %ebp
    3d61:	89 e5                	mov    %esp,%ebp
    3d63:	57                   	push   %edi
    3d64:	56                   	push   %esi
    3d65:	53                   	push   %ebx
    3d66:	83 ec 1c             	sub    $0x1c,%esp
    3d69:	8b 5d 08             	mov    0x8(%ebp),%ebx
    3d6c:	8b 75 0c             	mov    0xc(%ebp),%esi
    3d6f:	85 db                	test   %ebx,%ebx
    3d71:	0f 84 04 02 00 00    	je     3f7b <hound_connect+0x21b>
    3d77:	83 ec 0c             	sub    $0xc,%esp
    3d7a:	8b 4d 10             	mov    0x10(%ebp),%ecx
    3d7d:	51                   	push   %ecx
    3d7e:	56                   	push   %esi
    3d7f:	68 99 97 00 00       	push   $0x9799
    3d84:	6a 05                	push   $0x5
    3d86:	6a ff                	push   $0xffffffff
    3d88:	e8 e3 79 00 00       	call   b770 <log_msg@plt>
    3d8d:	83 c4 14             	add    $0x14,%esp
    3d90:	53                   	push   %ebx
    3d91:	e8 4a 7c 00 00       	call   b9e0 <fibril_mutex_lock@plt>
    3d96:	8b 43 24             	mov    0x24(%ebx),%eax
    3d99:	8d 4b 20             	lea    0x20(%ebx),%ecx
    3d9c:	83 c4 10             	add    $0x10,%esp
    3d9f:	89 4d e4             	mov    %ecx,-0x1c(%ebp)
    3da2:	85 c0                	test   %eax,%eax
    3da4:	0f 84 f8 01 00 00    	je     3fa2 <hound_connect+0x242>
    3daa:	39 c1                	cmp    %eax,%ecx
    3dac:	0f 84 f0 01 00 00    	je     3fa2 <hound_connect+0x242>
    3db2:	89 45 e0             	mov    %eax,-0x20(%ebp)
    3db5:	50                   	push   %eax
    3db6:	50                   	push   %eax
    3db7:	68 18 97 00 00       	push   $0x9718
    3dbc:	56                   	push   %esi
    3dbd:	e8 9e 7a 00 00       	call   b860 <str_cmp@plt>
    3dc2:	83 c4 10             	add    $0x10,%esp
    3dc5:	85 c0                	test   %eax,%eax
    3dc7:	0f 85 83 00 00 00    	jne    3e50 <hound_connect+0xf0>
    3dcd:	8b 7b 2c             	mov    0x2c(%ebx),%edi
    3dd0:	8d 73 28             	lea    0x28(%ebx),%esi
    3dd3:	85 ff                	test   %edi,%edi
    3dd5:	0f 84 c6 00 00 00    	je     3ea1 <hound_connect+0x141>
    3ddb:	39 f7                	cmp    %esi,%edi
    3ddd:	0f 84 be 00 00 00    	je     3ea1 <hound_connect+0x141>
    3de3:	8b 45 10             	mov    0x10(%ebp),%eax
    3de6:	51                   	push   %ecx
    3de7:	51                   	push   %ecx
    3de8:	68 18 97 00 00       	push   $0x9718
    3ded:	50                   	push   %eax
    3dee:	e8 6d 7a 00 00       	call   b860 <str_cmp@plt>
    3df3:	83 c4 10             	add    $0x10,%esp
    3df6:	85 c0                	test   %eax,%eax
    3df8:	0f 85 ba 00 00 00    	jne    3eb8 <hound_connect+0x158>
    3dfe:	89 fa                	mov    %edi,%edx
    3e00:	8b 45 e0             	mov    -0x20(%ebp),%eax
    3e03:	85 c0                	test   %eax,%eax
    3e05:	0f 84 07 01 00 00    	je     3f12 <hound_connect+0x1b2>
    3e0b:	50                   	push   %eax
    3e0c:	50                   	push   %eax
    3e0d:	8b 45 e0             	mov    -0x20(%ebp),%eax
    3e10:	52                   	push   %edx
    3e11:	50                   	push   %eax
    3e12:	e8 89 ed ff ff       	call   2ba0 <connection_create>
    3e17:	83 c4 10             	add    $0x10,%esp
    3e1a:	85 c0                	test   %eax,%eax
    3e1c:	0f 84 32 01 00 00    	je     3f54 <hound_connect+0x1f4>
    3e22:	8d 4b 30             	lea    0x30(%ebx),%ecx
    3e25:	8d 50 10             	lea    0x10(%eax),%edx
    3e28:	89 48 14             	mov    %ecx,0x14(%eax)
    3e2b:	8b 4b 30             	mov    0x30(%ebx),%ecx
    3e2e:	89 48 10             	mov    %ecx,0x10(%eax)
    3e31:	83 ec 0c             	sub    $0xc,%esp
    3e34:	8b 43 30             	mov    0x30(%ebx),%eax
    3e37:	89 50 04             	mov    %edx,0x4(%eax)
    3e3a:	89 53 30             	mov    %edx,0x30(%ebx)
    3e3d:	53                   	push   %ebx
    3e3e:	e8 bd 79 00 00       	call   b800 <fibril_mutex_unlock@plt>
    3e43:	83 c4 10             	add    $0x10,%esp
    3e46:	31 c0                	xor    %eax,%eax
    3e48:	8d 65 f4             	lea    -0xc(%ebp),%esp
    3e4b:	5b                   	pop    %ebx
    3e4c:	5e                   	pop    %esi
    3e4d:	5f                   	pop    %edi
    3e4e:	5d                   	pop    %ebp
    3e4f:	c3                   	ret    
    3e50:	85 f6                	test   %esi,%esi
    3e52:	0f 84 56 01 00 00    	je     3fae <hound_connect+0x24e>
    3e58:	8b 7b 24             	mov    0x24(%ebx),%edi
    3e5b:	39 7d e4             	cmp    %edi,-0x1c(%ebp)
    3e5e:	75 14                	jne    3e74 <hound_connect+0x114>
    3e60:	e9 e3 00 00 00       	jmp    3f48 <hound_connect+0x1e8>
    3e65:	8d 76 00             	lea    0x0(%esi),%esi
    3e68:	8b 7f 04             	mov    0x4(%edi),%edi
    3e6b:	39 7d e4             	cmp    %edi,-0x1c(%ebp)
    3e6e:	0f 84 d4 00 00 00    	je     3f48 <hound_connect+0x1e8>
    3e74:	50                   	push   %eax
    3e75:	50                   	push   %eax
    3e76:	8b 47 10             	mov    0x10(%edi),%eax
    3e79:	50                   	push   %eax
    3e7a:	56                   	push   %esi
    3e7b:	e8 e0 79 00 00       	call   b860 <str_cmp@plt>
    3e80:	83 c4 10             	add    $0x10,%esp
    3e83:	85 c0                	test   %eax,%eax
    3e85:	75 e1                	jne    3e68 <hound_connect+0x108>
    3e87:	56                   	push   %esi
    3e88:	68 80 98 00 00       	push   $0x9880
    3e8d:	6a 04                	push   $0x4
    3e8f:	6a ff                	push   $0xffffffff
    3e91:	e8 da 78 00 00       	call   b770 <log_msg@plt>
    3e96:	83 c4 10             	add    $0x10,%esp
    3e99:	89 7d e0             	mov    %edi,-0x20(%ebp)
    3e9c:	e9 2c ff ff ff       	jmp    3dcd <hound_connect+0x6d>
    3ea1:	8b 55 10             	mov    0x10(%ebp),%edx
    3ea4:	50                   	push   %eax
    3ea5:	50                   	push   %eax
    3ea6:	68 18 97 00 00       	push   $0x9718
    3eab:	52                   	push   %edx
    3eac:	e8 af 79 00 00       	call   b860 <str_cmp@plt>
    3eb1:	83 c4 10             	add    $0x10,%esp
    3eb4:	85 c0                	test   %eax,%eax
    3eb6:	74 58                	je     3f10 <hound_connect+0x1b0>
    3eb8:	8b 45 10             	mov    0x10(%ebp),%eax
    3ebb:	85 c0                	test   %eax,%eax
    3ebd:	0f 84 cd 00 00 00    	je     3f90 <hound_connect+0x230>
    3ec3:	8b 7b 2c             	mov    0x2c(%ebx),%edi
    3ec6:	39 fe                	cmp    %edi,%esi
    3ec8:	75 0d                	jne    3ed7 <hound_connect+0x177>
    3eca:	eb 44                	jmp    3f10 <hound_connect+0x1b0>
    3ecc:	8d 74 26 00          	lea    0x0(%esi,%eiz,1),%esi
    3ed0:	8b 7f 04             	mov    0x4(%edi),%edi
    3ed3:	39 fe                	cmp    %edi,%esi
    3ed5:	74 39                	je     3f10 <hound_connect+0x1b0>
    3ed7:	51                   	push   %ecx
    3ed8:	51                   	push   %ecx
    3ed9:	8b 47 10             	mov    0x10(%edi),%eax
    3edc:	50                   	push   %eax
    3edd:	8b 45 10             	mov    0x10(%ebp),%eax
    3ee0:	50                   	push   %eax
    3ee1:	e8 7a 79 00 00       	call   b860 <str_cmp@plt>
    3ee6:	83 c4 10             	add    $0x10,%esp
    3ee9:	85 c0                	test   %eax,%eax
    3eeb:	75 e3                	jne    3ed0 <hound_connect+0x170>
    3eed:	8b 55 10             	mov    0x10(%ebp),%edx
    3ef0:	52                   	push   %edx
    3ef1:	68 cc 98 00 00       	push   $0x98cc
    3ef6:	6a 04                	push   $0x4
    3ef8:	6a ff                	push   $0xffffffff
    3efa:	e8 71 78 00 00       	call   b770 <log_msg@plt>
    3eff:	83 c4 10             	add    $0x10,%esp
    3f02:	89 fa                	mov    %edi,%edx
    3f04:	e9 f7 fe ff ff       	jmp    3e00 <hound_connect+0xa0>
    3f09:	8d b4 26 00 00 00 00 	lea    0x0(%esi,%eiz,1),%esi
    3f10:	31 d2                	xor    %edx,%edx
    3f12:	83 ec 0c             	sub    $0xc,%esp
    3f15:	89 55 e4             	mov    %edx,-0x1c(%ebp)
    3f18:	53                   	push   %ebx
    3f19:	e8 e2 78 00 00       	call   b800 <fibril_mutex_unlock@plt>
    3f1e:	8b 45 e0             	mov    -0x20(%ebp),%eax
    3f21:	8b 55 e4             	mov    -0x1c(%ebp),%edx
    3f24:	89 14 24             	mov    %edx,(%esp)
    3f27:	50                   	push   %eax
    3f28:	68 48 9a 00 00       	push   $0x9a48
    3f2d:	6a 04                	push   $0x4
    3f2f:	6a ff                	push   $0xffffffff
    3f31:	e8 3a 78 00 00       	call   b770 <log_msg@plt>
    3f36:	83 c4 20             	add    $0x20,%esp
    3f39:	83 c8 ff             	or     $0xffffffff,%eax
    3f3c:	e9 07 ff ff ff       	jmp    3e48 <hound_connect+0xe8>
    3f41:	8d b4 26 00 00 00 00 	lea    0x0(%esi,%eiz,1),%esi
    3f48:	c7 45 e0 00 00 00 00 	movl   $0x0,-0x20(%ebp)
    3f4f:	e9 79 fe ff ff       	jmp    3dcd <hound_connect+0x6d>
    3f54:	83 ec 0c             	sub    $0xc,%esp
    3f57:	53                   	push   %ebx
    3f58:	e8 a3 78 00 00       	call   b800 <fibril_mutex_unlock@plt>
    3f5d:	83 c4 0c             	add    $0xc,%esp
    3f60:	68 b2 97 00 00       	push   $0x97b2
    3f65:	6a 04                	push   $0x4
    3f67:	6a ff                	push   $0xffffffff
    3f69:	e8 02 78 00 00       	call   b770 <log_msg@plt>
    3f6e:	83 c4 10             	add    $0x10,%esp
    3f71:	b8 fe ff ff ff       	mov    $0xfffffffe,%eax
    3f76:	e9 cd fe ff ff       	jmp    3e48 <hound_connect+0xe8>
    3f7b:	53                   	push   %ebx
    3f7c:	68 08 02 00 00       	push   $0x208
    3f81:	68 cc 96 00 00       	push   $0x96cc
    3f86:	68 f4 b1 00 00       	push   $0xb1f4
    3f8b:	e8 20 78 00 00       	call   b7b0 <assert_abort@plt>
    3f90:	50                   	push   %eax
    3f91:	6a 63                	push   $0x63
    3f93:	68 cc 96 00 00       	push   $0x96cc
    3f98:	68 20 97 00 00       	push   $0x9720
    3f9d:	e8 0e 78 00 00       	call   b7b0 <assert_abort@plt>
    3fa2:	c7 45 e0 00 00 00 00 	movl   $0x0,-0x20(%ebp)
    3fa9:	e9 07 fe ff ff       	jmp    3db5 <hound_connect+0x55>
    3fae:	52                   	push   %edx
    3faf:	6a 4e                	push   $0x4e
    3fb1:	68 cc 96 00 00       	push   $0x96cc
    3fb6:	68 20 97 00 00       	push   $0x9720
    3fbb:	e8 f0 77 00 00       	call   b7b0 <assert_abort@plt>

00003fc0 <hound_disconnect>:
    3fc0:	55                   	push   %ebp
    3fc1:	89 e5                	mov    %esp,%ebp
    3fc3:	57                   	push   %edi
    3fc4:	56                   	push   %esi
    3fc5:	53                   	push   %ebx
    3fc6:	83 ec 1c             	sub    $0x1c,%esp
    3fc9:	8b 45 08             	mov    0x8(%ebp),%eax
    3fcc:	85 c0                	test   %eax,%eax
    3fce:	0f 84 fd 01 00 00    	je     41d1 <hound_disconnect+0x211>
    3fd4:	83 ec 0c             	sub    $0xc,%esp
    3fd7:	8b 45 08             	mov    0x8(%ebp),%eax
    3fda:	50                   	push   %eax
    3fdb:	e8 00 7a 00 00       	call   b9e0 <fibril_mutex_lock@plt>
    3fe0:	58                   	pop    %eax
    3fe1:	8b 45 08             	mov    0x8(%ebp),%eax
    3fe4:	50                   	push   %eax
    3fe5:	e8 b6 76 00 00       	call   b6a0 <fibril_mutex_is_locked@plt>
    3fea:	83 c4 10             	add    $0x10,%esp
    3fed:	84 c0                	test   %al,%al
    3fef:	0f 84 c7 01 00 00    	je     41bc <hound_disconnect+0x1fc>
    3ff5:	83 ec 0c             	sub    $0xc,%esp
    3ff8:	8b 7d 0c             	mov    0xc(%ebp),%edi
    3ffb:	8b 75 10             	mov    0x10(%ebp),%esi
    3ffe:	56                   	push   %esi
    3fff:	57                   	push   %edi
    4000:	68 ce 97 00 00       	push   $0x97ce
    4005:	6a 04                	push   $0x4
    4007:	6a ff                	push   $0xffffffff
    4009:	e8 62 77 00 00       	call   b770 <log_msg@plt>
    400e:	8b 45 08             	mov    0x8(%ebp),%eax
    4011:	83 c4 20             	add    $0x20,%esp
    4014:	83 c0 30             	add    $0x30,%eax
    4017:	8b 78 04             	mov    0x4(%eax),%edi
    401a:	89 45 e4             	mov    %eax,-0x1c(%ebp)
    401d:	39 c7                	cmp    %eax,%edi
    401f:	0f 84 53 01 00 00    	je     4178 <hound_disconnect+0x1b8>
    4025:	89 fe                	mov    %edi,%esi
    4027:	83 ee 10             	sub    $0x10,%esi
    402a:	0f 84 7a 01 00 00    	je     41aa <hound_disconnect+0x1ea>
    4030:	8b 46 3c             	mov    0x3c(%esi),%eax
    4033:	8b 5f 04             	mov    0x4(%edi),%ebx
    4036:	85 c0                	test   %eax,%eax
    4038:	0f 84 d8 00 00 00    	je     4116 <hound_disconnect+0x156>
    403e:	66 90                	xchg   %ax,%ax
    4040:	8b 40 10             	mov    0x10(%eax),%eax
    4043:	85 c0                	test   %eax,%eax
    4045:	0f 84 f5 00 00 00    	je     4140 <hound_disconnect+0x180>
    404b:	8b 4d 0c             	mov    0xc(%ebp),%ecx
    404e:	52                   	push   %edx
    404f:	52                   	push   %edx
    4050:	51                   	push   %ecx
    4051:	50                   	push   %eax
    4052:	e8 09 78 00 00       	call   b860 <str_cmp@plt>
    4057:	83 c4 10             	add    $0x10,%esp
    405a:	85 c0                	test   %eax,%eax
    405c:	74 29                	je     4087 <hound_disconnect+0xc7>
    405e:	8b 46 38             	mov    0x38(%esi),%eax
    4061:	85 c0                	test   %eax,%eax
    4063:	0f 84 e7 00 00 00    	je     4150 <hound_disconnect+0x190>
    4069:	8b 40 10             	mov    0x10(%eax),%eax
    406c:	85 c0                	test   %eax,%eax
    406e:	0f 84 dc 00 00 00    	je     4150 <hound_disconnect+0x190>
    4074:	8b 4d 10             	mov    0x10(%ebp),%ecx
    4077:	52                   	push   %edx
    4078:	52                   	push   %edx
    4079:	51                   	push   %ecx
    407a:	50                   	push   %eax
    407b:	e8 e0 77 00 00       	call   b860 <str_cmp@plt>
    4080:	83 c4 10             	add    $0x10,%esp
    4083:	85 c0                	test   %eax,%eax
    4085:	75 6f                	jne    40f6 <hound_disconnect+0x136>
    4087:	8b 46 38             	mov    0x38(%esi),%eax
    408a:	85 c0                	test   %eax,%eax
    408c:	0f 84 8e 00 00 00    	je     4120 <hound_disconnect+0x160>
    4092:	8b 40 10             	mov    0x10(%eax),%eax
    4095:	85 c0                	test   %eax,%eax
    4097:	0f 84 83 00 00 00    	je     4120 <hound_disconnect+0x160>
    409d:	8b 4e 3c             	mov    0x3c(%esi),%ecx
    40a0:	85 c9                	test   %ecx,%ecx
    40a2:	0f 84 e8 00 00 00    	je     4190 <hound_disconnect+0x1d0>
    40a8:	8b 49 10             	mov    0x10(%ecx),%ecx
    40ab:	85 c9                	test   %ecx,%ecx
    40ad:	0f 84 b5 00 00 00    	je     4168 <hound_disconnect+0x1a8>
    40b3:	83 ec 0c             	sub    $0xc,%esp
    40b6:	50                   	push   %eax
    40b7:	51                   	push   %ecx
    40b8:	68 ea 97 00 00       	push   $0x97ea
    40bd:	6a 04                	push   $0x4
    40bf:	6a ff                	push   $0xffffffff
    40c1:	e8 aa 76 00 00       	call   b770 <log_msg@plt>
    40c6:	8b 0f                	mov    (%edi),%ecx
    40c8:	83 c4 20             	add    $0x20,%esp
    40cb:	85 c9                	test   %ecx,%ecx
    40cd:	74 0e                	je     40dd <hound_disconnect+0x11d>
    40cf:	8b 47 04             	mov    0x4(%edi),%eax
    40d2:	85 c0                	test   %eax,%eax
    40d4:	74 07                	je     40dd <hound_disconnect+0x11d>
    40d6:	89 08                	mov    %ecx,(%eax)
    40d8:	8b 0f                	mov    (%edi),%ecx
    40da:	89 41 04             	mov    %eax,0x4(%ecx)
    40dd:	83 ec 0c             	sub    $0xc,%esp
    40e0:	c7 07 00 00 00 00    	movl   $0x0,(%edi)
    40e6:	c7 47 04 00 00 00 00 	movl   $0x0,0x4(%edi)
    40ed:	56                   	push   %esi
    40ee:	e8 ad eb ff ff       	call   2ca0 <connection_destroy>
    40f3:	83 c4 10             	add    $0x10,%esp
    40f6:	39 5d e4             	cmp    %ebx,-0x1c(%ebp)
    40f9:	74 7d                	je     4178 <hound_disconnect+0x1b8>
    40fb:	89 de                	mov    %ebx,%esi
    40fd:	83 ee 10             	sub    $0x10,%esi
    4100:	0f 84 a4 00 00 00    	je     41aa <hound_disconnect+0x1ea>
    4106:	8b 46 3c             	mov    0x3c(%esi),%eax
    4109:	89 df                	mov    %ebx,%edi
    410b:	85 c0                	test   %eax,%eax
    410d:	8b 5b 04             	mov    0x4(%ebx),%ebx
    4110:	0f 85 2a ff ff ff    	jne    4040 <hound_disconnect+0x80>
    4116:	b8 6a 92 00 00       	mov    $0x926a,%eax
    411b:	e9 2b ff ff ff       	jmp    404b <hound_disconnect+0x8b>
    4120:	8b 4e 3c             	mov    0x3c(%esi),%ecx
    4123:	b8 6e 95 00 00       	mov    $0x956e,%eax
    4128:	85 c9                	test   %ecx,%ecx
    412a:	0f 85 78 ff ff ff    	jne    40a8 <hound_disconnect+0xe8>
    4130:	b8 7b 95 00 00       	mov    $0x957b,%eax
    4135:	b9 6a 92 00 00       	mov    $0x926a,%ecx
    413a:	e9 74 ff ff ff       	jmp    40b3 <hound_disconnect+0xf3>
    413f:	90                   	nop
    4140:	b8 5b 92 00 00       	mov    $0x925b,%eax
    4145:	e9 01 ff ff ff       	jmp    404b <hound_disconnect+0x8b>
    414a:	8d b6 00 00 00 00    	lea    0x0(%esi),%esi
    4150:	8b 46 3c             	mov    0x3c(%esi),%eax
    4153:	85 c0                	test   %eax,%eax
    4155:	74 49                	je     41a0 <hound_disconnect+0x1e0>
    4157:	b8 6e 95 00 00       	mov    $0x956e,%eax
    415c:	e9 13 ff ff ff       	jmp    4074 <hound_disconnect+0xb4>
    4161:	8d b4 26 00 00 00 00 	lea    0x0(%esi,%eiz,1),%esi
    4168:	b9 5b 92 00 00       	mov    $0x925b,%ecx
    416d:	e9 41 ff ff ff       	jmp    40b3 <hound_disconnect+0xf3>
    4172:	8d b6 00 00 00 00    	lea    0x0(%esi),%esi
    4178:	83 ec 0c             	sub    $0xc,%esp
    417b:	8b 45 08             	mov    0x8(%ebp),%eax
    417e:	50                   	push   %eax
    417f:	e8 7c 76 00 00       	call   b800 <fibril_mutex_unlock@plt>
    4184:	8d 65 f4             	lea    -0xc(%ebp),%esp
    4187:	31 c0                	xor    %eax,%eax
    4189:	5b                   	pop    %ebx
    418a:	5e                   	pop    %esi
    418b:	5f                   	pop    %edi
    418c:	5d                   	pop    %ebp
    418d:	c3                   	ret    
    418e:	66 90                	xchg   %ax,%ax
    4190:	b9 6a 92 00 00       	mov    $0x926a,%ecx
    4195:	e9 19 ff ff ff       	jmp    40b3 <hound_disconnect+0xf3>
    419a:	8d b6 00 00 00 00    	lea    0x0(%esi),%esi
    41a0:	b8 7b 95 00 00       	mov    $0x957b,%eax
    41a5:	e9 ca fe ff ff       	jmp    4074 <hound_disconnect+0xb4>
    41aa:	53                   	push   %ebx
    41ab:	6a 62                	push   $0x62
    41ad:	68 79 92 00 00       	push   $0x9279
    41b2:	68 c3 97 00 00       	push   $0x97c3
    41b7:	e8 f4 75 00 00       	call   b7b0 <assert_abort@plt>
    41bc:	50                   	push   %eax
    41bd:	68 43 02 00 00       	push   $0x243
    41c2:	68 cc 96 00 00       	push   $0x96cc
    41c7:	68 fc 97 00 00       	push   $0x97fc
    41cc:	e8 df 75 00 00       	call   b7b0 <assert_abort@plt>
    41d1:	50                   	push   %eax
    41d2:	68 2f 02 00 00       	push   $0x22f
    41d7:	68 cc 96 00 00       	push   $0x96cc
    41dc:	68 f4 b1 00 00       	push   $0xb1f4
    41e1:	e8 ca 75 00 00       	call   b7b0 <assert_abort@plt>
    41e6:	66 90                	xchg   %ax,%ax
    41e8:	66 90                	xchg   %ax,%ax
    41ea:	66 90                	xchg   %ax,%ax
    41ec:	66 90                	xchg   %ax,%ax
    41ee:	66 90                	xchg   %ax,%ax

000041f0 <new_data>:
    41f0:	55                   	push   %ebp
    41f1:	89 e5                	mov    %esp,%ebp
    41f3:	57                   	push   %edi
    41f4:	56                   	push   %esi
    41f5:	53                   	push   %ebx
    41f6:	83 ec 2c             	sub    $0x2c,%esp
    41f9:	8b 7d 08             	mov    0x8(%ebp),%edi
    41fc:	85 ff                	test   %edi,%edi
    41fe:	0f 84 98 02 00 00    	je     449c <new_data+0x2ac>
    4204:	8b 47 20             	mov    0x20(%edi),%eax
    4207:	89 45 d8             	mov    %eax,-0x28(%ebp)
    420a:	85 c0                	test   %eax,%eax
    420c:	0f 84 9f 02 00 00    	je     44b1 <new_data+0x2c1>
    4212:	83 ec 0c             	sub    $0xc,%esp
    4215:	83 c0 18             	add    $0x18,%eax
    4218:	89 45 d4             	mov    %eax,-0x2c(%ebp)
    421b:	8d 5f 08             	lea    0x8(%edi),%ebx
    421e:	50                   	push   %eax
    421f:	e8 bc 77 00 00       	call   b9e0 <fibril_mutex_lock@plt>
    4224:	8b 4f 0c             	mov    0xc(%edi),%ecx
    4227:	83 c4 10             	add    $0x10,%esp
    422a:	39 d9                	cmp    %ebx,%ecx
    422c:	0f 84 e3 01 00 00    	je     4415 <new_data+0x225>
    4232:	83 f9 e8             	cmp    $0xffffffe8,%ecx
    4235:	0f 84 f8 01 00 00    	je     4433 <new_data+0x243>
    423b:	83 c8 ff             	or     $0xffffffff,%eax
    423e:	eb 09                	jmp    4249 <new_data+0x59>
    4240:	83 f9 e8             	cmp    $0xffffffe8,%ecx
    4243:	0f 84 ea 01 00 00    	je     4433 <new_data+0x243>
    4249:	8b 51 24             	mov    0x24(%ecx),%edx
    424c:	39 d0                	cmp    %edx,%eax
    424e:	76 02                	jbe    4252 <new_data+0x62>
    4250:	89 d0                	mov    %edx,%eax
    4252:	8b 49 04             	mov    0x4(%ecx),%ecx
    4255:	39 d9                	cmp    %ebx,%ecx
    4257:	75 e7                	jne    4240 <new_data+0x50>
    4259:	8b 4f 1c             	mov    0x1c(%edi),%ecx
    425c:	8b 57 14             	mov    0x14(%edi),%edx
    425f:	c7 45 dc 00 00 00 00 	movl   $0x0,-0x24(%ebp)
    4266:	83 f9 12             	cmp    $0x12,%ecx
    4269:	77 15                	ja     4280 <new_data+0x90>
    426b:	8b 34 8d c0 9c 00 00 	mov    0x9cc0(,%ecx,4),%esi
    4272:	0f af f2             	imul   %edx,%esi
    4275:	0f af f0             	imul   %eax,%esi
    4278:	89 75 dc             	mov    %esi,-0x24(%ebp)
    427b:	90                   	nop
    427c:	8d 74 26 00          	lea    0x0(%esi,%eiz,1),%esi
    4280:	83 ec 0c             	sub    $0xc,%esp
    4283:	8b 45 dc             	mov    -0x24(%ebp),%eax
    4286:	50                   	push   %eax
    4287:	e8 54 74 00 00       	call   b6e0 <malloc@plt>
    428c:	83 c4 10             	add    $0x10,%esp
    428f:	89 45 e4             	mov    %eax,-0x1c(%ebp)
    4292:	85 c0                	test   %eax,%eax
    4294:	0f 84 ab 01 00 00    	je     4445 <new_data+0x255>
    429a:	83 ec 0c             	sub    $0xc,%esp
    429d:	8b 47 1c             	mov    0x1c(%edi),%eax
    42a0:	8b 75 dc             	mov    -0x24(%ebp),%esi
    42a3:	50                   	push   %eax
    42a4:	8b 45 e4             	mov    -0x1c(%ebp),%eax
    42a7:	8b 57 18             	mov    0x18(%edi),%edx
    42aa:	52                   	push   %edx
    42ab:	8b 4f 14             	mov    0x14(%edi),%ecx
    42ae:	51                   	push   %ecx
    42af:	56                   	push   %esi
    42b0:	50                   	push   %eax
    42b1:	e8 8a ce ff ff       	call   1140 <audio_data_create>
    42b6:	83 c4 20             	add    $0x20,%esp
    42b9:	89 45 d0             	mov    %eax,-0x30(%ebp)
    42bc:	85 c0                	test   %eax,%eax
    42be:	0f 84 9d 01 00 00    	je     4461 <new_data+0x271>
    42c4:	8d 47 14             	lea    0x14(%edi),%eax
    42c7:	56                   	push   %esi
    42c8:	50                   	push   %eax
    42c9:	8b 45 dc             	mov    -0x24(%ebp),%eax
    42cc:	50                   	push   %eax
    42cd:	8b 45 e4             	mov    -0x1c(%ebp),%eax
    42d0:	50                   	push   %eax
    42d1:	e8 3a 36 00 00       	call   7910 <pcm_format_silence>
    42d6:	8b 77 0c             	mov    0xc(%edi),%esi
    42d9:	83 c4 10             	add    $0x10,%esp
    42dc:	39 de                	cmp    %ebx,%esi
    42de:	74 4a                	je     432a <new_data+0x13a>
    42e0:	89 7d 08             	mov    %edi,0x8(%ebp)
    42e3:	89 5d e0             	mov    %ebx,-0x20(%ebp)
    42e6:	89 f7                	mov    %esi,%edi
    42e8:	8b 5d dc             	mov    -0x24(%ebp),%ebx
    42eb:	8b 75 08             	mov    0x8(%ebp),%esi
    42ee:	66 90                	xchg   %ax,%ax
    42f0:	50                   	push   %eax
    42f1:	50                   	push   %eax
    42f2:	8b 46 1c             	mov    0x1c(%esi),%eax
    42f5:	8b 4d e4             	mov    -0x1c(%ebp),%ecx
    42f8:	50                   	push   %eax
    42f9:	8b 46 18             	mov    0x18(%esi),%eax
    42fc:	50                   	push   %eax
    42fd:	8b 56 14             	mov    0x14(%esi),%edx
    4300:	52                   	push   %edx
    4301:	53                   	push   %ebx
    4302:	51                   	push   %ecx
    4303:	57                   	push   %edi
    4304:	e8 87 ea ff ff       	call   2d90 <connection_add_source_data>
    4309:	83 c4 20             	add    $0x20,%esp
    430c:	39 c3                	cmp    %eax,%ebx
    430e:	74 12                	je     4322 <new_data+0x132>
    4310:	50                   	push   %eax
    4311:	68 00 9b 00 00       	push   $0x9b00
    4316:	6a 01                	push   $0x1
    4318:	6a ff                	push   $0xffffffff
    431a:	e8 51 74 00 00       	call   b770 <log_msg@plt>
    431f:	83 c4 10             	add    $0x10,%esp
    4322:	8b 7f 04             	mov    0x4(%edi),%edi
    4325:	3b 7d e0             	cmp    -0x20(%ebp),%edi
    4328:	75 c6                	jne    42f0 <new_data+0x100>
    432a:	8b 45 d8             	mov    -0x28(%ebp),%eax
    432d:	8b 70 0c             	mov    0xc(%eax),%esi
    4330:	8d 78 08             	lea    0x8(%eax),%edi
    4333:	39 fe                	cmp    %edi,%esi
    4335:	0f 84 aa 00 00 00    	je     43e5 <new_data+0x1f5>
    433b:	85 f6                	test   %esi,%esi
    433d:	0f 84 44 01 00 00    	je     4487 <new_data+0x297>
    4343:	89 7d e0             	mov    %edi,-0x20(%ebp)
    4346:	89 f7                	mov    %esi,%edi
    4348:	8b 75 d0             	mov    -0x30(%ebp),%esi
    434b:	eb 2e                	jmp    437b <new_data+0x18b>
    434d:	8d 76 00             	lea    0x0(%esi),%esi
    4350:	83 ec 0c             	sub    $0xc,%esp
    4353:	50                   	push   %eax
    4354:	e8 d7 75 00 00       	call   b930 <str_error@plt>
    4359:	50                   	push   %eax
    435a:	68 38 9b 00 00       	push   $0x9b38
    435f:	6a 01                	push   $0x1
    4361:	6a ff                	push   $0xffffffff
    4363:	e8 08 74 00 00       	call   b770 <log_msg@plt>
    4368:	8b 7f 04             	mov    0x4(%edi),%edi
    436b:	83 c4 20             	add    $0x20,%esp
    436e:	3b 7d e0             	cmp    -0x20(%ebp),%edi
    4371:	74 72                	je     43e5 <new_data+0x1f5>
    4373:	85 ff                	test   %edi,%edi
    4375:	0f 84 0c 01 00 00    	je     4487 <new_data+0x297>
    437b:	8b 47 3c             	mov    0x3c(%edi),%eax
    437e:	85 c0                	test   %eax,%eax
    4380:	74 09                	je     438b <new_data+0x19b>
    4382:	3b 46 04             	cmp    0x4(%esi),%eax
    4385:	0f 82 80 00 00 00    	jb     440b <new_data+0x21b>
    438b:	83 ec 0c             	sub    $0xc,%esp
    438e:	8d 5f 40             	lea    0x40(%edi),%ebx
    4391:	53                   	push   %ebx
    4392:	e8 49 76 00 00       	call   b9e0 <fibril_mutex_lock@plt>
    4397:	8b 4f 3c             	mov    0x3c(%edi),%ecx
    439a:	83 c4 10             	add    $0x10,%esp
    439d:	85 c9                	test   %ecx,%ecx
    439f:	74 0c                	je     43ad <new_data+0x1bd>
    43a1:	8b 46 04             	mov    0x4(%esi),%eax
    43a4:	8b 57 10             	mov    0x10(%edi),%edx
    43a7:	01 d0                	add    %edx,%eax
    43a9:	39 c8                	cmp    %ecx,%eax
    43ab:	77 70                	ja     441d <new_data+0x22d>
    43ad:	50                   	push   %eax
    43ae:	50                   	push   %eax
    43af:	8d 47 08             	lea    0x8(%edi),%eax
    43b2:	56                   	push   %esi
    43b3:	50                   	push   %eax
    43b4:	e8 27 d1 ff ff       	call   14e0 <audio_pipe_push>
    43b9:	89 1c 24             	mov    %ebx,(%esp)
    43bc:	89 45 e4             	mov    %eax,-0x1c(%ebp)
    43bf:	e8 3c 74 00 00       	call   b800 <fibril_mutex_unlock@plt>
    43c4:	8b 45 e4             	mov    -0x1c(%ebp),%eax
    43c7:	83 c4 10             	add    $0x10,%esp
    43ca:	85 c0                	test   %eax,%eax
    43cc:	75 82                	jne    4350 <new_data+0x160>
    43ce:	83 ec 0c             	sub    $0xc,%esp
    43d1:	8d 47 50             	lea    0x50(%edi),%eax
    43d4:	50                   	push   %eax
    43d5:	e8 16 73 00 00       	call   b6f0 <fibril_condvar_signal@plt>
    43da:	8b 7f 04             	mov    0x4(%edi),%edi
    43dd:	83 c4 10             	add    $0x10,%esp
    43e0:	3b 7d e0             	cmp    -0x20(%ebp),%edi
    43e3:	75 8e                	jne    4373 <new_data+0x183>
    43e5:	83 ec 0c             	sub    $0xc,%esp
    43e8:	8b 4d d0             	mov    -0x30(%ebp),%ecx
    43eb:	51                   	push   %ecx
    43ec:	e8 2f ce ff ff       	call   1220 <audio_data_unref>
    43f1:	8b 75 d4             	mov    -0x2c(%ebp),%esi
    43f4:	5b                   	pop    %ebx
    43f5:	56                   	push   %esi
    43f6:	e8 05 74 00 00       	call   b800 <fibril_mutex_unlock@plt>
    43fb:	83 c4 10             	add    $0x10,%esp
    43fe:	8d 65 f4             	lea    -0xc(%ebp),%esp
    4401:	b8 f5 ff ff ff       	mov    $0xfffffff5,%eax
    4406:	5b                   	pop    %ebx
    4407:	5e                   	pop    %esi
    4408:	5f                   	pop    %edi
    4409:	5d                   	pop    %ebp
    440a:	c3                   	ret    
    440b:	b8 f2 ff ff ff       	mov    $0xfffffff2,%eax
    4410:	e9 3b ff ff ff       	jmp    4350 <new_data+0x160>
    4415:	83 c8 ff             	or     $0xffffffff,%eax
    4418:	e9 3c fe ff ff       	jmp    4259 <new_data+0x69>
    441d:	83 ec 0c             	sub    $0xc,%esp
    4420:	53                   	push   %ebx
    4421:	e8 da 73 00 00       	call   b800 <fibril_mutex_unlock@plt>
    4426:	83 c4 10             	add    $0x10,%esp
    4429:	b8 f0 ff ff ff       	mov    $0xfffffff0,%eax
    442e:	e9 1d ff ff ff       	jmp    4350 <new_data+0x160>
    4433:	50                   	push   %eax
    4434:	6a 65                	push   $0x65
    4436:	68 78 9a 00 00       	push   $0x9a78
    443b:	68 92 8d 00 00       	push   $0x8d92
    4440:	e8 6b 73 00 00       	call   b7b0 <assert_abort@plt>
    4445:	83 ec 0c             	sub    $0xc,%esp
    4448:	8b 45 d4             	mov    -0x2c(%ebp),%eax
    444b:	50                   	push   %eax
    444c:	e8 af 73 00 00       	call   b800 <fibril_mutex_unlock@plt>
    4451:	83 c4 10             	add    $0x10,%esp
    4454:	8d 65 f4             	lea    -0xc(%ebp),%esp
    4457:	b8 fe ff ff ff       	mov    $0xfffffffe,%eax
    445c:	5b                   	pop    %ebx
    445d:	5e                   	pop    %esi
    445e:	5f                   	pop    %edi
    445f:	5d                   	pop    %ebp
    4460:	c3                   	ret    
    4461:	83 ec 0c             	sub    $0xc,%esp
    4464:	8b 45 d4             	mov    -0x2c(%ebp),%eax
    4467:	50                   	push   %eax
    4468:	e8 93 73 00 00       	call   b800 <fibril_mutex_unlock@plt>
    446d:	58                   	pop    %eax
    446e:	8b 45 e4             	mov    -0x1c(%ebp),%eax
    4471:	50                   	push   %eax
    4472:	e8 59 75 00 00       	call   b9d0 <free@plt>
    4477:	83 c4 10             	add    $0x10,%esp
    447a:	8d 65 f4             	lea    -0xc(%ebp),%esp
    447d:	b8 fe ff ff ff       	mov    $0xfffffffe,%eax
    4482:	5b                   	pop    %ebx
    4483:	5e                   	pop    %esi
    4484:	5f                   	pop    %edi
    4485:	5d                   	pop    %ebp
    4486:	c3                   	ret    
    4487:	50                   	push   %eax
    4488:	68 cb 00 00 00       	push   $0xcb
    448d:	68 6c 9a 00 00       	push   $0x9a6c
    4492:	68 f6 9a 00 00       	push   $0x9af6
    4497:	e8 14 73 00 00       	call   b7b0 <assert_abort@plt>
    449c:	50                   	push   %eax
    449d:	68 ac 01 00 00       	push   $0x1ac
    44a2:	68 6c 9a 00 00       	push   $0x9a6c
    44a7:	68 76 95 00 00       	push   $0x9576
    44ac:	e8 ff 72 00 00       	call   b7b0 <assert_abort@plt>
    44b1:	50                   	push   %eax
    44b2:	68 ad 01 00 00       	push   $0x1ad
    44b7:	68 6c 9a 00 00       	push   $0x9a6c
    44bc:	68 15 92 00 00       	push   $0x9215
    44c1:	e8 ea 72 00 00       	call   b7b0 <assert_abort@plt>
    44c6:	8d 76 00             	lea    0x0(%esi),%esi
    44c9:	8d bc 27 00 00 00 00 	lea    0x0(%edi,%eiz,1),%edi

000044d0 <update_data>:
    44d0:	55                   	push   %ebp
    44d1:	89 e5                	mov    %esp,%ebp
    44d3:	57                   	push   %edi
    44d4:	56                   	push   %esi
    44d5:	53                   	push   %ebx
    44d6:	83 ec 2c             	sub    $0x2c,%esp
    44d9:	8b 45 08             	mov    0x8(%ebp),%eax
    44dc:	8b 75 0c             	mov    0xc(%ebp),%esi
    44df:	85 c0                	test   %eax,%eax
    44e1:	0f 84 be 01 00 00    	je     46a5 <update_data+0x1d5>
    44e7:	8b 45 08             	mov    0x8(%ebp),%eax
    44ea:	8b 40 20             	mov    0x20(%eax),%eax
    44ed:	89 45 d4             	mov    %eax,-0x2c(%ebp)
    44f0:	85 c0                	test   %eax,%eax
    44f2:	0f 84 98 01 00 00    	je     4690 <update_data+0x1c0>
    44f8:	83 ec 0c             	sub    $0xc,%esp
    44fb:	56                   	push   %esi
    44fc:	e8 df 71 00 00       	call   b6e0 <malloc@plt>
    4501:	83 c4 10             	add    $0x10,%esp
    4504:	89 45 dc             	mov    %eax,-0x24(%ebp)
    4507:	85 c0                	test   %eax,%eax
    4509:	0f 84 64 01 00 00    	je     4673 <update_data+0x1a3>
    450f:	8b 55 08             	mov    0x8(%ebp),%edx
    4512:	83 ec 0c             	sub    $0xc,%esp
    4515:	8b 4a 1c             	mov    0x1c(%edx),%ecx
    4518:	51                   	push   %ecx
    4519:	8b 5a 18             	mov    0x18(%edx),%ebx
    451c:	53                   	push   %ebx
    451d:	8b 7a 14             	mov    0x14(%edx),%edi
    4520:	57                   	push   %edi
    4521:	56                   	push   %esi
    4522:	50                   	push   %eax
    4523:	e8 18 cc ff ff       	call   1140 <audio_data_create>
    4528:	83 c4 20             	add    $0x20,%esp
    452b:	89 45 d0             	mov    %eax,-0x30(%ebp)
    452e:	85 c0                	test   %eax,%eax
    4530:	0f 84 44 01 00 00    	je     467a <update_data+0x1aa>
    4536:	8b 7d d4             	mov    -0x2c(%ebp),%edi
    4539:	83 ec 0c             	sub    $0xc,%esp
    453c:	89 f8                	mov    %edi,%eax
    453e:	83 c0 08             	add    $0x8,%eax
    4541:	50                   	push   %eax
    4542:	89 45 e0             	mov    %eax,-0x20(%ebp)
    4545:	e8 b6 73 00 00       	call   b900 <list_count@plt>
    454a:	89 04 24             	mov    %eax,(%esp)
    454d:	57                   	push   %edi
    454e:	68 9a 9a 00 00       	push   $0x9a9a
    4553:	6a 05                	push   $0x5
    4555:	6a ff                	push   $0xffffffff
    4557:	e8 14 72 00 00       	call   b770 <log_msg@plt>
    455c:	83 c4 1c             	add    $0x1c,%esp
    455f:	8b 55 08             	mov    0x8(%ebp),%edx
    4562:	83 c2 14             	add    $0x14,%edx
    4565:	8b 45 dc             	mov    -0x24(%ebp),%eax
    4568:	52                   	push   %edx
    4569:	89 55 d8             	mov    %edx,-0x28(%ebp)
    456c:	56                   	push   %esi
    456d:	50                   	push   %eax
    456e:	e8 9d 33 00 00       	call   7910 <pcm_format_silence>
    4573:	8d 57 18             	lea    0x18(%edi),%edx
    4576:	89 14 24             	mov    %edx,(%esp)
    4579:	89 55 cc             	mov    %edx,-0x34(%ebp)
    457c:	e8 5f 74 00 00       	call   b9e0 <fibril_mutex_lock@plt>
    4581:	8b 5f 0c             	mov    0xc(%edi),%ebx
    4584:	83 c4 10             	add    $0x10,%esp
    4587:	39 5d e0             	cmp    %ebx,-0x20(%ebp)
    458a:	74 65                	je     45f1 <update_data+0x121>
    458c:	8d 74 26 00          	lea    0x0(%esi,%eiz,1),%esi
    4590:	85 db                	test   %ebx,%ebx
    4592:	0f 84 c6 00 00 00    	je     465e <update_data+0x18e>
    4598:	83 ec 0c             	sub    $0xc,%esp
    459b:	8d 7b 40             	lea    0x40(%ebx),%edi
    459e:	57                   	push   %edi
    459f:	e8 3c 74 00 00       	call   b9e0 <fibril_mutex_lock@plt>
    45a4:	8b 45 d8             	mov    -0x28(%ebp),%eax
    45a7:	50                   	push   %eax
    45a8:	8b 45 dc             	mov    -0x24(%ebp),%eax
    45ab:	56                   	push   %esi
    45ac:	50                   	push   %eax
    45ad:	8d 43 08             	lea    0x8(%ebx),%eax
    45b0:	50                   	push   %eax
    45b1:	e8 3a d2 ff ff       	call   17f0 <audio_pipe_mix_data>
    45b6:	83 c4 14             	add    $0x14,%esp
    45b9:	8d 4b 50             	lea    0x50(%ebx),%ecx
    45bc:	89 45 e4             	mov    %eax,-0x1c(%ebp)
    45bf:	51                   	push   %ecx
    45c0:	e8 2b 71 00 00       	call   b6f0 <fibril_condvar_signal@plt>
    45c5:	89 3c 24             	mov    %edi,(%esp)
    45c8:	e8 33 72 00 00       	call   b800 <fibril_mutex_unlock@plt>
    45cd:	8b 45 e4             	mov    -0x1c(%ebp),%eax
    45d0:	83 c4 10             	add    $0x10,%esp
    45d3:	39 c6                	cmp    %eax,%esi
    45d5:	74 12                	je     45e9 <update_data+0x119>
    45d7:	57                   	push   %edi
    45d8:	68 88 9b 00 00       	push   $0x9b88
    45dd:	6a 02                	push   $0x2
    45df:	6a ff                	push   $0xffffffff
    45e1:	e8 8a 71 00 00       	call   b770 <log_msg@plt>
    45e6:	83 c4 10             	add    $0x10,%esp
    45e9:	8b 5b 04             	mov    0x4(%ebx),%ebx
    45ec:	39 5d e0             	cmp    %ebx,-0x20(%ebp)
    45ef:	75 9f                	jne    4590 <update_data+0xc0>
    45f1:	8b 45 08             	mov    0x8(%ebp),%eax
    45f4:	83 ec 0c             	sub    $0xc,%esp
    45f7:	8d 58 08             	lea    0x8(%eax),%ebx
    45fa:	53                   	push   %ebx
    45fb:	e8 00 73 00 00       	call   b900 <list_count@plt>
    4600:	89 04 24             	mov    %eax,(%esp)
    4603:	8b 45 d4             	mov    -0x2c(%ebp),%eax
    4606:	50                   	push   %eax
    4607:	68 5c 9b 00 00       	push   $0x9b5c
    460c:	6a 05                	push   $0x5
    460e:	6a ff                	push   $0xffffffff
    4610:	e8 5b 71 00 00       	call   b770 <log_msg@plt>
    4615:	8b 45 08             	mov    0x8(%ebp),%eax
    4618:	8b 70 0c             	mov    0xc(%eax),%esi
    461b:	83 c4 20             	add    $0x20,%esp
    461e:	8b 7d d0             	mov    -0x30(%ebp),%edi
    4621:	39 f3                	cmp    %esi,%ebx
    4623:	74 16                	je     463b <update_data+0x16b>
    4625:	8d 76 00             	lea    0x0(%esi),%esi
    4628:	50                   	push   %eax
    4629:	50                   	push   %eax
    462a:	57                   	push   %edi
    462b:	56                   	push   %esi
    462c:	e8 5f e8 ff ff       	call   2e90 <connection_push_data>
    4631:	8b 76 04             	mov    0x4(%esi),%esi
    4634:	83 c4 10             	add    $0x10,%esp
    4637:	39 f3                	cmp    %esi,%ebx
    4639:	75 ed                	jne    4628 <update_data+0x158>
    463b:	83 ec 0c             	sub    $0xc,%esp
    463e:	8b 55 d0             	mov    -0x30(%ebp),%edx
    4641:	52                   	push   %edx
    4642:	e8 d9 cb ff ff       	call   1220 <audio_data_unref>
    4647:	8b 5d cc             	mov    -0x34(%ebp),%ebx
    464a:	59                   	pop    %ecx
    464b:	53                   	push   %ebx
    464c:	e8 af 71 00 00       	call   b800 <fibril_mutex_unlock@plt>
    4651:	83 c4 10             	add    $0x10,%esp
    4654:	31 c0                	xor    %eax,%eax
    4656:	8d 65 f4             	lea    -0xc(%ebp),%esp
    4659:	5b                   	pop    %ebx
    465a:	5e                   	pop    %esi
    465b:	5f                   	pop    %edi
    465c:	5d                   	pop    %ebp
    465d:	c3                   	ret    
    465e:	50                   	push   %eax
    465f:	68 6a 01 00 00       	push   $0x16a
    4664:	68 6c 9a 00 00       	push   $0x9a6c
    4669:	68 f6 9a 00 00       	push   $0x9af6
    466e:	e8 3d 71 00 00       	call   b7b0 <assert_abort@plt>
    4673:	b8 fe ff ff ff       	mov    $0xfffffffe,%eax
    4678:	eb dc                	jmp    4656 <update_data+0x186>
    467a:	83 ec 0c             	sub    $0xc,%esp
    467d:	8b 45 dc             	mov    -0x24(%ebp),%eax
    4680:	50                   	push   %eax
    4681:	e8 4a 73 00 00       	call   b9d0 <free@plt>
    4686:	83 c4 10             	add    $0x10,%esp
    4689:	b8 fe ff ff ff       	mov    $0xfffffffe,%eax
    468e:	eb c6                	jmp    4656 <update_data+0x186>
    4690:	50                   	push   %eax
    4691:	68 8b 01 00 00       	push   $0x18b
    4696:	68 6c 9a 00 00       	push   $0x9a6c
    469b:	68 85 9a 00 00       	push   $0x9a85
    46a0:	e8 0b 71 00 00       	call   b7b0 <assert_abort@plt>
    46a5:	50                   	push   %eax
    46a6:	68 8a 01 00 00       	push   $0x18a
    46ab:	68 6c 9a 00 00       	push   $0x9a6c
    46b0:	68 63 92 00 00       	push   $0x9263
    46b5:	e8 f6 70 00 00       	call   b7b0 <assert_abort@plt>
    46ba:	8d b6 00 00 00 00    	lea    0x0(%esi),%esi

000046c0 <hound_record_ctx_get>:
    46c0:	55                   	push   %ebp
    46c1:	89 e5                	mov    %esp,%ebp
    46c3:	53                   	push   %ebx
    46c4:	83 ec 10             	sub    $0x10,%esp
    46c7:	6a 28                	push   $0x28
    46c9:	e8 12 70 00 00       	call   b6e0 <malloc@plt>
    46ce:	83 c4 10             	add    $0x10,%esp
    46d1:	89 c3                	mov    %eax,%ebx
    46d3:	85 c0                	test   %eax,%eax
    46d5:	74 60                	je     4737 <hound_record_ctx_get+0x77>
    46d7:	c7 00 00 00 00 00    	movl   $0x0,(%eax)
    46dd:	c7 40 04 00 00 00 00 	movl   $0x0,0x4(%eax)
    46e4:	83 ec 0c             	sub    $0xc,%esp
    46e7:	8d 40 08             	lea    0x8(%eax),%eax
    46ea:	89 43 08             	mov    %eax,0x8(%ebx)
    46ed:	89 43 0c             	mov    %eax,0xc(%ebx)
    46f0:	8d 43 18             	lea    0x18(%ebx),%eax
    46f3:	50                   	push   %eax
    46f4:	e8 47 71 00 00       	call   b840 <fibril_mutex_initialize@plt>
    46f9:	c7 43 10 00 00 00 00 	movl   $0x0,0x10(%ebx)
    4700:	c7 04 24 30 00 00 00 	movl   $0x30,(%esp)
    4707:	e8 d4 6f 00 00       	call   b6e0 <malloc@plt>
    470c:	83 c4 10             	add    $0x10,%esp
    470f:	89 43 14             	mov    %eax,0x14(%ebx)
    4712:	85 c0                	test   %eax,%eax
    4714:	74 4a                	je     4760 <hound_record_ctx_get+0xa0>
    4716:	8b 4d 08             	mov    0x8(%ebp),%ecx
    4719:	52                   	push   %edx
    471a:	68 78 b3 00 00       	push   $0xb378
    471f:	68 f0 41 00 00       	push   $0x41f0
    4724:	6a 00                	push   $0x0
    4726:	6a 00                	push   $0x0
    4728:	53                   	push   %ebx
    4729:	51                   	push   %ecx
    472a:	50                   	push   %eax
    472b:	e8 80 de ff ff       	call   25b0 <audio_sink_init>
    4730:	83 c4 20             	add    $0x20,%esp
    4733:	85 c0                	test   %eax,%eax
    4735:	75 09                	jne    4740 <hound_record_ctx_get+0x80>
    4737:	89 d8                	mov    %ebx,%eax
    4739:	8b 5d fc             	mov    -0x4(%ebp),%ebx
    473c:	c9                   	leave  
    473d:	c3                   	ret    
    473e:	66 90                	xchg   %ax,%ax
    4740:	83 ec 0c             	sub    $0xc,%esp
    4743:	8b 43 14             	mov    0x14(%ebx),%eax
    4746:	50                   	push   %eax
    4747:	e8 84 72 00 00       	call   b9d0 <free@plt>
    474c:	89 1c 24             	mov    %ebx,(%esp)
    474f:	e8 7c 72 00 00       	call   b9d0 <free@plt>
    4754:	31 db                	xor    %ebx,%ebx
    4756:	83 c4 10             	add    $0x10,%esp
    4759:	eb dc                	jmp    4737 <hound_record_ctx_get+0x77>
    475b:	90                   	nop
    475c:	8d 74 26 00          	lea    0x0(%esi,%eiz,1),%esi
    4760:	83 ec 0c             	sub    $0xc,%esp
    4763:	53                   	push   %ebx
    4764:	31 db                	xor    %ebx,%ebx
    4766:	e8 65 72 00 00       	call   b9d0 <free@plt>
    476b:	83 c4 10             	add    $0x10,%esp
    476e:	eb c7                	jmp    4737 <hound_record_ctx_get+0x77>

00004770 <hound_playback_ctx_get>:
    4770:	55                   	push   %ebp
    4771:	89 e5                	mov    %esp,%ebp
    4773:	53                   	push   %ebx
    4774:	83 ec 10             	sub    $0x10,%esp
    4777:	6a 28                	push   $0x28
    4779:	e8 62 6f 00 00       	call   b6e0 <malloc@plt>
    477e:	83 c4 10             	add    $0x10,%esp
    4781:	89 c3                	mov    %eax,%ebx
    4783:	85 c0                	test   %eax,%eax
    4785:	74 5f                	je     47e6 <hound_playback_ctx_get+0x76>
    4787:	c7 00 00 00 00 00    	movl   $0x0,(%eax)
    478d:	c7 40 04 00 00 00 00 	movl   $0x0,0x4(%eax)
    4794:	83 ec 0c             	sub    $0xc,%esp
    4797:	8d 40 08             	lea    0x8(%eax),%eax
    479a:	89 43 08             	mov    %eax,0x8(%ebx)
    479d:	89 43 0c             	mov    %eax,0xc(%ebx)
    47a0:	8d 43 18             	lea    0x18(%ebx),%eax
    47a3:	50                   	push   %eax
    47a4:	e8 97 70 00 00       	call   b840 <fibril_mutex_initialize@plt>
    47a9:	c7 43 14 00 00 00 00 	movl   $0x0,0x14(%ebx)
    47b0:	c7 04 24 2c 00 00 00 	movl   $0x2c,(%esp)
    47b7:	e8 24 6f 00 00       	call   b6e0 <malloc@plt>
    47bc:	83 c4 10             	add    $0x10,%esp
    47bf:	89 43 10             	mov    %eax,0x10(%ebx)
    47c2:	85 c0                	test   %eax,%eax
    47c4:	74 4a                	je     4810 <hound_playback_ctx_get+0xa0>
    47c6:	8b 4d 08             	mov    0x8(%ebp),%ecx
    47c9:	52                   	push   %edx
    47ca:	52                   	push   %edx
    47cb:	68 78 b3 00 00       	push   $0xb378
    47d0:	68 d0 44 00 00       	push   $0x44d0
    47d5:	6a 00                	push   $0x0
    47d7:	53                   	push   %ebx
    47d8:	51                   	push   %ecx
    47d9:	50                   	push   %eax
    47da:	e8 a1 e1 ff ff       	call   2980 <audio_source_init>
    47df:	83 c4 20             	add    $0x20,%esp
    47e2:	85 c0                	test   %eax,%eax
    47e4:	75 0a                	jne    47f0 <hound_playback_ctx_get+0x80>
    47e6:	89 d8                	mov    %ebx,%eax
    47e8:	8b 5d fc             	mov    -0x4(%ebp),%ebx
    47eb:	c9                   	leave  
    47ec:	c3                   	ret    
    47ed:	8d 76 00             	lea    0x0(%esi),%esi
    47f0:	83 ec 0c             	sub    $0xc,%esp
    47f3:	8b 43 10             	mov    0x10(%ebx),%eax
    47f6:	50                   	push   %eax
    47f7:	e8 d4 71 00 00       	call   b9d0 <free@plt>
    47fc:	89 1c 24             	mov    %ebx,(%esp)
    47ff:	e8 cc 71 00 00       	call   b9d0 <free@plt>
    4804:	31 db                	xor    %ebx,%ebx
    4806:	83 c4 10             	add    $0x10,%esp
    4809:	eb db                	jmp    47e6 <hound_playback_ctx_get+0x76>
    480b:	90                   	nop
    480c:	8d 74 26 00          	lea    0x0(%esi,%eiz,1),%esi
    4810:	83 ec 0c             	sub    $0xc,%esp
    4813:	53                   	push   %ebx
    4814:	31 db                	xor    %ebx,%ebx
    4816:	e8 b5 71 00 00       	call   b9d0 <free@plt>
    481b:	83 c4 10             	add    $0x10,%esp
    481e:	eb c6                	jmp    47e6 <hound_playback_ctx_get+0x76>

00004820 <hound_ctx_destroy>:
    4820:	55                   	push   %ebp
    4821:	89 e5                	mov    %esp,%ebp
    4823:	53                   	push   %ebx
    4824:	50                   	push   %eax
    4825:	8b 5d 08             	mov    0x8(%ebp),%ebx
    4828:	85 db                	test   %ebx,%ebx
    482a:	74 77                	je     48a3 <hound_ctx_destroy+0x83>
    482c:	8b 03                	mov    (%ebx),%eax
    482e:	85 c0                	test   %eax,%eax
    4830:	74 1e                	je     4850 <hound_ctx_destroy+0x30>
    4832:	8b 43 04             	mov    0x4(%ebx),%eax
    4835:	85 c0                	test   %eax,%eax
    4837:	74 17                	je     4850 <hound_ctx_destroy+0x30>
    4839:	50                   	push   %eax
    483a:	6a 77                	push   $0x77
    483c:	68 6c 9a 00 00       	push   $0x9a6c
    4841:	68 d4 9a 00 00       	push   $0x9ad4
    4846:	e8 65 6f 00 00       	call   b7b0 <assert_abort@plt>
    484b:	90                   	nop
    484c:	8d 74 26 00          	lea    0x0(%esi,%eiz,1),%esi
    4850:	8d 43 08             	lea    0x8(%ebx),%eax
    4853:	39 43 0c             	cmp    %eax,0xc(%ebx)
    4856:	75 5d                	jne    48b5 <hound_ctx_destroy+0x95>
    4858:	8b 43 10             	mov    0x10(%ebx),%eax
    485b:	85 c0                	test   %eax,%eax
    485d:	74 0c                	je     486b <hound_ctx_destroy+0x4b>
    485f:	83 ec 0c             	sub    $0xc,%esp
    4862:	50                   	push   %eax
    4863:	e8 e8 e1 ff ff       	call   2a50 <audio_source_fini>
    4868:	83 c4 10             	add    $0x10,%esp
    486b:	8b 43 14             	mov    0x14(%ebx),%eax
    486e:	85 c0                	test   %eax,%eax
    4870:	74 0c                	je     487e <hound_ctx_destroy+0x5e>
    4872:	83 ec 0c             	sub    $0xc,%esp
    4875:	50                   	push   %eax
    4876:	e8 f5 dd ff ff       	call   2670 <audio_sink_fini>
    487b:	83 c4 10             	add    $0x10,%esp
    487e:	83 ec 0c             	sub    $0xc,%esp
    4881:	8b 53 10             	mov    0x10(%ebx),%edx
    4884:	52                   	push   %edx
    4885:	e8 46 71 00 00       	call   b9d0 <free@plt>
    488a:	8b 43 14             	mov    0x14(%ebx),%eax
    488d:	59                   	pop    %ecx
    488e:	50                   	push   %eax
    488f:	e8 3c 71 00 00       	call   b9d0 <free@plt>
    4894:	89 5d 08             	mov    %ebx,0x8(%ebp)
    4897:	83 c4 10             	add    $0x10,%esp
    489a:	8b 5d fc             	mov    -0x4(%ebp),%ebx
    489d:	c9                   	leave  
    489e:	e9 2d 71 00 00       	jmp    b9d0 <free@plt>
    48a3:	50                   	push   %eax
    48a4:	6a 76                	push   $0x76
    48a6:	68 6c 9a 00 00       	push   $0x9a6c
    48ab:	68 b6 9a 00 00       	push   $0x9ab6
    48b0:	e8 fb 6e 00 00       	call   b7b0 <assert_abort@plt>
    48b5:	50                   	push   %eax
    48b6:	6a 78                	push   $0x78
    48b8:	68 6c 9a 00 00       	push   $0x9a6c
    48bd:	68 ba 9a 00 00       	push   $0x9aba
    48c2:	e8 e9 6e 00 00       	call   b7b0 <assert_abort@plt>
    48c7:	89 f6                	mov    %esi,%esi
    48c9:	8d bc 27 00 00 00 00 	lea    0x0(%edi,%eiz,1),%edi

000048d0 <hound_ctx_get_id>:
    48d0:	55                   	push   %ebp
    48d1:	89 e5                	mov    %esp,%ebp
    48d3:	83 ec 08             	sub    $0x8,%esp
    48d6:	8b 45 08             	mov    0x8(%ebp),%eax
    48d9:	85 c0                	test   %eax,%eax
    48db:	74 02                	je     48df <hound_ctx_get_id+0xf>
    48dd:	c9                   	leave  
    48de:	c3                   	ret    
    48df:	50                   	push   %eax
    48e0:	68 89 00 00 00       	push   $0x89
    48e5:	68 6c 9a 00 00       	push   $0x9a6c
    48ea:	68 b6 9a 00 00       	push   $0x9ab6
    48ef:	e8 bc 6e 00 00       	call   b7b0 <assert_abort@plt>
    48f4:	8d b6 00 00 00 00    	lea    0x0(%esi),%esi
    48fa:	8d bf 00 00 00 00    	lea    0x0(%edi),%edi

00004900 <hound_ctx_is_record>:
    4900:	55                   	push   %ebp
    4901:	89 e5                	mov    %esp,%ebp
    4903:	83 ec 08             	sub    $0x8,%esp
    4906:	8b 45 08             	mov    0x8(%ebp),%eax
    4909:	85 c0                	test   %eax,%eax
    490b:	74 0a                	je     4917 <hound_ctx_is_record+0x17>
    490d:	8b 40 10             	mov    0x10(%eax),%eax
    4910:	c9                   	leave  
    4911:	85 c0                	test   %eax,%eax
    4913:	0f 94 c0             	sete   %al
    4916:	c3                   	ret    
    4917:	52                   	push   %edx
    4918:	68 94 00 00 00       	push   $0x94
    491d:	68 6c 9a 00 00       	push   $0x9a6c
    4922:	68 b6 9a 00 00       	push   $0x9ab6
    4927:	e8 84 6e 00 00       	call   b7b0 <assert_abort@plt>
    492c:	8d 74 26 00          	lea    0x0(%esi,%eiz,1),%esi

00004930 <hound_ctx_create_stream>:
    4930:	55                   	push   %ebp
    4931:	89 e5                	mov    %esp,%ebp
    4933:	57                   	push   %edi
    4934:	56                   	push   %esi
    4935:	53                   	push   %ebx
    4936:	83 ec 0c             	sub    $0xc,%esp
    4939:	8b 75 08             	mov    0x8(%ebp),%esi
    493c:	85 f6                	test   %esi,%esi
    493e:	0f 84 18 01 00 00    	je     4a5c <hound_ctx_create_stream+0x12c>
    4944:	83 ec 0c             	sub    $0xc,%esp
    4947:	6a 58                	push   $0x58
    4949:	e8 92 6d 00 00       	call   b6e0 <malloc@plt>
    494e:	83 c4 10             	add    $0x10,%esp
    4951:	89 c3                	mov    %eax,%ebx
    4953:	85 c0                	test   %eax,%eax
    4955:	0f 84 b2 00 00 00    	je     4a0d <hound_ctx_create_stream+0xdd>
    495b:	83 ec 0c             	sub    $0xc,%esp
    495e:	8d 40 08             	lea    0x8(%eax),%eax
    4961:	8d 7e 18             	lea    0x18(%esi),%edi
    4964:	50                   	push   %eax
    4965:	e8 26 c9 ff ff       	call   1290 <audio_pipe_init>
    496a:	8d 43 40             	lea    0x40(%ebx),%eax
    496d:	c7 03 00 00 00 00    	movl   $0x0,(%ebx)
    4973:	c7 43 04 00 00 00 00 	movl   $0x0,0x4(%ebx)
    497a:	89 04 24             	mov    %eax,(%esp)
    497d:	e8 be 6e 00 00       	call   b840 <fibril_mutex_initialize@plt>
    4982:	8d 43 50             	lea    0x50(%ebx),%eax
    4985:	89 04 24             	mov    %eax,(%esp)
    4988:	e8 43 6e 00 00       	call   b7d0 <fibril_condvar_initialize@plt>
    498d:	8b 45 0c             	mov    0xc(%ebp),%eax
    4990:	89 73 28             	mov    %esi,0x28(%ebx)
    4993:	89 43 38             	mov    %eax,0x38(%ebx)
    4996:	8b 45 10             	mov    0x10(%ebp),%eax
    4999:	89 43 2c             	mov    %eax,0x2c(%ebx)
    499c:	8b 45 14             	mov    0x14(%ebp),%eax
    499f:	89 43 30             	mov    %eax,0x30(%ebx)
    49a2:	8b 45 18             	mov    0x18(%ebp),%eax
    49a5:	89 43 34             	mov    %eax,0x34(%ebx)
    49a8:	8b 45 1c             	mov    0x1c(%ebp),%eax
    49ab:	89 43 3c             	mov    %eax,0x3c(%ebx)
    49ae:	89 3c 24             	mov    %edi,(%esp)
    49b1:	e8 2a 70 00 00       	call   b9e0 <fibril_mutex_lock@plt>
    49b6:	8b 4e 08             	mov    0x8(%esi),%ecx
    49b9:	8d 46 08             	lea    0x8(%esi),%eax
    49bc:	89 0b                	mov    %ecx,(%ebx)
    49be:	89 43 04             	mov    %eax,0x4(%ebx)
    49c1:	89 59 04             	mov    %ebx,0x4(%ecx)
    49c4:	89 5e 08             	mov    %ebx,0x8(%esi)
    49c7:	89 04 24             	mov    %eax,(%esp)
    49ca:	e8 31 6f 00 00       	call   b900 <list_count@plt>
    49cf:	83 c4 10             	add    $0x10,%esp
    49d2:	48                   	dec    %eax
    49d3:	74 53                	je     4a28 <hound_ctx_create_stream+0xf8>
    49d5:	83 ec 0c             	sub    $0xc,%esp
    49d8:	57                   	push   %edi
    49d9:	e8 22 6e 00 00       	call   b800 <fibril_mutex_unlock@plt>
    49de:	8b 55 18             	mov    0x18(%ebp),%edx
    49e1:	83 c4 10             	add    $0x10,%esp
    49e4:	b8 28 92 00 00       	mov    $0x9228,%eax
    49e9:	83 fa 12             	cmp    $0x12,%edx
    49ec:	76 2a                	jbe    4a18 <hound_ctx_create_stream+0xe8>
    49ee:	50                   	push   %eax
    49ef:	8b 55 10             	mov    0x10(%ebp),%edx
    49f2:	8b 45 14             	mov    0x14(%ebp),%eax
    49f5:	8b 4d 0c             	mov    0xc(%ebp),%ecx
    49f8:	50                   	push   %eax
    49f9:	52                   	push   %edx
    49fa:	51                   	push   %ecx
    49fb:	56                   	push   %esi
    49fc:	68 ac 9b 00 00       	push   $0x9bac
    4a01:	6a 05                	push   $0x5
    4a03:	6a ff                	push   $0xffffffff
    4a05:	e8 66 6d 00 00       	call   b770 <log_msg@plt>
    4a0a:	83 c4 20             	add    $0x20,%esp
    4a0d:	8d 65 f4             	lea    -0xc(%ebp),%esp
    4a10:	89 d8                	mov    %ebx,%eax
    4a12:	5b                   	pop    %ebx
    4a13:	5e                   	pop    %esi
    4a14:	5f                   	pop    %edi
    4a15:	5d                   	pop    %ebp
    4a16:	c3                   	ret    
    4a17:	90                   	nop
    4a18:	8b 04 95 60 9c 00 00 	mov    0x9c60(,%edx,4),%eax
    4a1f:	eb cd                	jmp    49ee <hound_ctx_create_stream+0xbe>
    4a21:	8d b4 26 00 00 00 00 	lea    0x0(%esi,%eiz,1),%esi
    4a28:	8b 46 10             	mov    0x10(%esi),%eax
    4a2b:	85 c0                	test   %eax,%eax
    4a2d:	74 a6                	je     49d5 <hound_ctx_create_stream+0xa5>
    4a2f:	83 ec 0c             	sub    $0xc,%esp
    4a32:	83 c0 08             	add    $0x8,%eax
    4a35:	50                   	push   %eax
    4a36:	e8 c5 6e 00 00       	call   b900 <list_count@plt>
    4a3b:	83 c4 10             	add    $0x10,%esp
    4a3e:	85 c0                	test   %eax,%eax
    4a40:	75 93                	jne    49d5 <hound_ctx_create_stream+0xa5>
    4a42:	8b 46 10             	mov    0x10(%esi),%eax
    4a45:	8b 4b 2c             	mov    0x2c(%ebx),%ecx
    4a48:	89 48 14             	mov    %ecx,0x14(%eax)
    4a4b:	8b 4b 30             	mov    0x30(%ebx),%ecx
    4a4e:	89 48 18             	mov    %ecx,0x18(%eax)
    4a51:	8b 4b 34             	mov    0x34(%ebx),%ecx
    4a54:	89 48 1c             	mov    %ecx,0x1c(%eax)
    4a57:	e9 79 ff ff ff       	jmp    49d5 <hound_ctx_create_stream+0xa5>
    4a5c:	53                   	push   %ebx
    4a5d:	68 fa 00 00 00       	push   $0xfa
    4a62:	68 6c 9a 00 00       	push   $0x9a6c
    4a67:	68 b6 9a 00 00       	push   $0x9ab6
    4a6c:	e8 3f 6d 00 00       	call   b7b0 <assert_abort@plt>
    4a71:	eb 0d                	jmp    4a80 <hound_ctx_destroy_stream>
    4a73:	90                   	nop
    4a74:	90                   	nop
    4a75:	90                   	nop
    4a76:	90                   	nop
    4a77:	90                   	nop
    4a78:	90                   	nop
    4a79:	90                   	nop
    4a7a:	90                   	nop
    4a7b:	90                   	nop
    4a7c:	90                   	nop
    4a7d:	90                   	nop
    4a7e:	90                   	nop
    4a7f:	90                   	nop

00004a80 <hound_ctx_destroy_stream>:
    4a80:	55                   	push   %ebp
    4a81:	89 e5                	mov    %esp,%ebp
    4a83:	56                   	push   %esi
    4a84:	53                   	push   %ebx
    4a85:	8b 5d 08             	mov    0x8(%ebp),%ebx
    4a88:	85 db                	test   %ebx,%ebx
    4a8a:	0f 84 c8 00 00 00    	je     4b58 <hound_ctx_destroy_stream+0xd8>
    4a90:	8b 43 28             	mov    0x28(%ebx),%eax
    4a93:	85 c0                	test   %eax,%eax
    4a95:	0f 84 c4 00 00 00    	je     4b5f <hound_ctx_destroy_stream+0xdf>
    4a9b:	83 ec 0c             	sub    $0xc,%esp
    4a9e:	8d 70 18             	lea    0x18(%eax),%esi
    4aa1:	56                   	push   %esi
    4aa2:	e8 39 6f 00 00       	call   b9e0 <fibril_mutex_lock@plt>
    4aa7:	8b 13                	mov    (%ebx),%edx
    4aa9:	83 c4 10             	add    $0x10,%esp
    4aac:	85 d2                	test   %edx,%edx
    4aae:	74 0e                	je     4abe <hound_ctx_destroy_stream+0x3e>
    4ab0:	8b 43 04             	mov    0x4(%ebx),%eax
    4ab3:	85 c0                	test   %eax,%eax
    4ab5:	74 07                	je     4abe <hound_ctx_destroy_stream+0x3e>
    4ab7:	89 10                	mov    %edx,(%eax)
    4ab9:	8b 13                	mov    (%ebx),%edx
    4abb:	89 42 04             	mov    %eax,0x4(%edx)
    4abe:	83 ec 0c             	sub    $0xc,%esp
    4ac1:	c7 03 00 00 00 00    	movl   $0x0,(%ebx)
    4ac7:	c7 43 04 00 00 00 00 	movl   $0x0,0x4(%ebx)
    4ace:	56                   	push   %esi
    4acf:	e8 2c 6d 00 00       	call   b800 <fibril_mutex_unlock@plt>
    4ad4:	8b 43 10             	mov    0x10(%ebx),%eax
    4ad7:	83 c4 10             	add    $0x10,%esp
    4ada:	8d 73 08             	lea    0x8(%ebx),%esi
    4add:	85 c0                	test   %eax,%eax
    4adf:	75 5f                	jne    4b40 <hound_ctx_destroy_stream+0xc0>
    4ae1:	8b 4b 34             	mov    0x34(%ebx),%ecx
    4ae4:	ba 28 92 00 00       	mov    $0x9228,%edx
    4ae9:	83 f9 12             	cmp    $0x12,%ecx
    4aec:	76 42                	jbe    4b30 <hound_ctx_destroy_stream+0xb0>
    4aee:	51                   	push   %ecx
    4aef:	51                   	push   %ecx
    4af0:	52                   	push   %edx
    4af1:	8b 53 30             	mov    0x30(%ebx),%edx
    4af4:	52                   	push   %edx
    4af5:	8b 4b 2c             	mov    0x2c(%ebx),%ecx
    4af8:	51                   	push   %ecx
    4af9:	8b 53 38             	mov    0x38(%ebx),%edx
    4afc:	52                   	push   %edx
    4afd:	8b 4b 3c             	mov    0x3c(%ebx),%ecx
    4b00:	51                   	push   %ecx
    4b01:	50                   	push   %eax
    4b02:	8b 43 28             	mov    0x28(%ebx),%eax
    4b05:	50                   	push   %eax
    4b06:	68 08 9c 00 00       	push   $0x9c08
    4b0b:	6a 05                	push   $0x5
    4b0d:	6a ff                	push   $0xffffffff
    4b0f:	e8 5c 6c 00 00       	call   b770 <log_msg@plt>
    4b14:	83 c4 24             	add    $0x24,%esp
    4b17:	56                   	push   %esi
    4b18:	e8 c3 c7 ff ff       	call   12e0 <audio_pipe_fini>
    4b1d:	89 5d 08             	mov    %ebx,0x8(%ebp)
    4b20:	83 c4 10             	add    $0x10,%esp
    4b23:	8d 65 f8             	lea    -0x8(%ebp),%esp
    4b26:	5b                   	pop    %ebx
    4b27:	5e                   	pop    %esi
    4b28:	5d                   	pop    %ebp
    4b29:	e9 a2 6e 00 00       	jmp    b9d0 <free@plt>
    4b2e:	66 90                	xchg   %ax,%ax
    4b30:	8b 14 8d 60 9c 00 00 	mov    0x9c60(,%ecx,4),%edx
    4b37:	eb b5                	jmp    4aee <hound_ctx_destroy_stream+0x6e>
    4b39:	8d b4 26 00 00 00 00 	lea    0x0(%esi,%eiz,1),%esi
    4b40:	50                   	push   %eax
    4b41:	68 e0 9b 00 00       	push   $0x9be0
    4b46:	6a 02                	push   $0x2
    4b48:	6a ff                	push   $0xffffffff
    4b4a:	e8 21 6c 00 00       	call   b770 <log_msg@plt>
    4b4f:	8b 43 10             	mov    0x10(%ebx),%eax
    4b52:	83 c4 10             	add    $0x10,%esp
    4b55:	eb 8a                	jmp    4ae1 <hound_ctx_destroy_stream+0x61>
    4b57:	90                   	nop
    4b58:	8d 65 f8             	lea    -0x8(%ebp),%esp
    4b5b:	5b                   	pop    %ebx
    4b5c:	5e                   	pop    %esi
    4b5d:	5d                   	pop    %ebp
    4b5e:	c3                   	ret    
    4b5f:	50                   	push   %eax
    4b60:	68 e8 00 00 00       	push   $0xe8
    4b65:	68 6c 9a 00 00       	push   $0x9a6c
    4b6a:	68 b6 9a 00 00       	push   $0x9ab6
    4b6f:	e8 3c 6c 00 00       	call   b7b0 <assert_abort@plt>
    4b74:	8d b6 00 00 00 00    	lea    0x0(%esi),%esi
    4b7a:	8d bf 00 00 00 00    	lea    0x0(%edi),%edi

00004b80 <hound_ctx_stream_write>:
    4b80:	55                   	push   %ebp
    4b81:	89 e5                	mov    %esp,%ebp
    4b83:	57                   	push   %edi
    4b84:	56                   	push   %esi
    4b85:	53                   	push   %ebx
    4b86:	83 ec 2c             	sub    $0x2c,%esp
    4b89:	8b 5d 08             	mov    0x8(%ebp),%ebx
    4b8c:	85 db                	test   %ebx,%ebx
    4b8e:	0f 84 e3 00 00 00    	je     4c77 <hound_ctx_stream_write+0xf7>
    4b94:	8b 43 3c             	mov    0x3c(%ebx),%eax
    4b97:	85 c0                	test   %eax,%eax
    4b99:	74 09                	je     4ba4 <hound_ctx_stream_write+0x24>
    4b9b:	3b 45 10             	cmp    0x10(%ebp),%eax
    4b9e:	0f 82 b9 00 00 00    	jb     4c5d <hound_ctx_stream_write+0xdd>
    4ba4:	83 ec 0c             	sub    $0xc,%esp
    4ba7:	8d 73 40             	lea    0x40(%ebx),%esi
    4baa:	56                   	push   %esi
    4bab:	e8 30 6e 00 00       	call   b9e0 <fibril_mutex_lock@plt>
    4bb0:	8b 43 3c             	mov    0x3c(%ebx),%eax
    4bb3:	83 c4 10             	add    $0x10,%esp
    4bb6:	85 c0                	test   %eax,%eax
    4bb8:	74 35                	je     4bef <hound_ctx_stream_write+0x6f>
    4bba:	8b 4d 10             	mov    0x10(%ebp),%ecx
    4bbd:	8b 7b 10             	mov    0x10(%ebx),%edi
    4bc0:	01 f9                	add    %edi,%ecx
    4bc2:	39 c8                	cmp    %ecx,%eax
    4bc4:	73 29                	jae    4bef <hound_ctx_stream_write+0x6f>
    4bc6:	8d 7b 50             	lea    0x50(%ebx),%edi
    4bc9:	eb 11                	jmp    4bdc <hound_ctx_stream_write+0x5c>
    4bcb:	90                   	nop
    4bcc:	8d 74 26 00          	lea    0x0(%esi,%eiz,1),%esi
    4bd0:	8b 4d 10             	mov    0x10(%ebp),%ecx
    4bd3:	8b 53 10             	mov    0x10(%ebx),%edx
    4bd6:	01 d1                	add    %edx,%ecx
    4bd8:	39 c8                	cmp    %ecx,%eax
    4bda:	73 13                	jae    4bef <hound_ctx_stream_write+0x6f>
    4bdc:	51                   	push   %ecx
    4bdd:	51                   	push   %ecx
    4bde:	56                   	push   %esi
    4bdf:	57                   	push   %edi
    4be0:	e8 6b 6b 00 00       	call   b750 <fibril_condvar_wait@plt>
    4be5:	8b 43 3c             	mov    0x3c(%ebx),%eax
    4be8:	83 c4 10             	add    $0x10,%esp
    4beb:	85 c0                	test   %eax,%eax
    4bed:	75 e1                	jne    4bd0 <hound_ctx_stream_write+0x50>
    4bef:	83 ec 0c             	sub    $0xc,%esp
    4bf2:	8b 43 34             	mov    0x34(%ebx),%eax
    4bf5:	8d 7b 08             	lea    0x8(%ebx),%edi
    4bf8:	50                   	push   %eax
    4bf9:	8b 43 30             	mov    0x30(%ebx),%eax
    4bfc:	50                   	push   %eax
    4bfd:	8b 43 2c             	mov    0x2c(%ebx),%eax
    4c00:	50                   	push   %eax
    4c01:	8b 45 10             	mov    0x10(%ebp),%eax
    4c04:	50                   	push   %eax
    4c05:	8b 45 0c             	mov    0xc(%ebp),%eax
    4c08:	50                   	push   %eax
    4c09:	e8 32 c5 ff ff       	call   1140 <audio_data_create>
    4c0e:	83 c4 20             	add    $0x20,%esp
    4c11:	89 c2                	mov    %eax,%edx
    4c13:	85 c0                	test   %eax,%eax
    4c15:	74 4d                	je     4c64 <hound_ctx_stream_write+0xe4>
    4c17:	89 55 d0             	mov    %edx,-0x30(%ebp)
    4c1a:	50                   	push   %eax
    4c1b:	50                   	push   %eax
    4c1c:	52                   	push   %edx
    4c1d:	57                   	push   %edi
    4c1e:	e8 bd c8 ff ff       	call   14e0 <audio_pipe_push>
    4c23:	8b 55 d0             	mov    -0x30(%ebp),%edx
    4c26:	89 45 d4             	mov    %eax,-0x2c(%ebp)
    4c29:	89 14 24             	mov    %edx,(%esp)
    4c2c:	e8 ef c5 ff ff       	call   1220 <audio_data_unref>
    4c31:	89 34 24             	mov    %esi,(%esp)
    4c34:	e8 c7 6b 00 00       	call   b800 <fibril_mutex_unlock@plt>
    4c39:	8b 45 d4             	mov    -0x2c(%ebp),%eax
    4c3c:	83 c4 10             	add    $0x10,%esp
    4c3f:	85 c0                	test   %eax,%eax
    4c41:	75 12                	jne    4c55 <hound_ctx_stream_write+0xd5>
    4c43:	83 ec 0c             	sub    $0xc,%esp
    4c46:	8d 53 50             	lea    0x50(%ebx),%edx
    4c49:	52                   	push   %edx
    4c4a:	e8 a1 6a 00 00       	call   b6f0 <fibril_condvar_signal@plt>
    4c4f:	83 c4 10             	add    $0x10,%esp
    4c52:	8b 45 d4             	mov    -0x2c(%ebp),%eax
    4c55:	8d 65 f4             	lea    -0xc(%ebp),%esp
    4c58:	5b                   	pop    %ebx
    4c59:	5e                   	pop    %esi
    4c5a:	5f                   	pop    %edi
    4c5b:	5d                   	pop    %ebp
    4c5c:	c3                   	ret    
    4c5d:	b8 f2 ff ff ff       	mov    $0xfffffff2,%eax
    4c62:	eb f1                	jmp    4c55 <hound_ctx_stream_write+0xd5>
    4c64:	83 ec 0c             	sub    $0xc,%esp
    4c67:	56                   	push   %esi
    4c68:	e8 93 6b 00 00       	call   b800 <fibril_mutex_unlock@plt>
    4c6d:	83 c4 10             	add    $0x10,%esp
    4c70:	b8 fe ff ff ff       	mov    $0xfffffffe,%eax
    4c75:	eb de                	jmp    4c55 <hound_ctx_stream_write+0xd5>
    4c77:	50                   	push   %eax
    4c78:	68 2e 01 00 00       	push   $0x12e
    4c7d:	68 6c 9a 00 00       	push   $0x9a6c
    4c82:	68 f6 9a 00 00       	push   $0x9af6
    4c87:	e8 24 6b 00 00       	call   b7b0 <assert_abort@plt>
    4c8c:	8d 74 26 00          	lea    0x0(%esi,%eiz,1),%esi

00004c90 <hound_ctx_stream_read>:
    4c90:	55                   	push   %ebp
    4c91:	89 e5                	mov    %esp,%ebp
    4c93:	57                   	push   %edi
    4c94:	56                   	push   %esi
    4c95:	53                   	push   %ebx
    4c96:	83 ec 1c             	sub    $0x1c,%esp
    4c99:	8b 5d 08             	mov    0x8(%ebp),%ebx
    4c9c:	8b 75 10             	mov    0x10(%ebp),%esi
    4c9f:	85 db                	test   %ebx,%ebx
    4ca1:	0f 84 9f 00 00 00    	je     4d46 <hound_ctx_stream_read+0xb6>
    4ca7:	8b 43 3c             	mov    0x3c(%ebx),%eax
    4caa:	85 c0                	test   %eax,%eax
    4cac:	74 08                	je     4cb6 <hound_ctx_stream_read+0x26>
    4cae:	39 f0                	cmp    %esi,%eax
    4cb0:	0f 82 89 00 00 00    	jb     4d3f <hound_ctx_stream_read+0xaf>
    4cb6:	83 ec 0c             	sub    $0xc,%esp
    4cb9:	8d 7b 40             	lea    0x40(%ebx),%edi
    4cbc:	57                   	push   %edi
    4cbd:	e8 1e 6d 00 00       	call   b9e0 <fibril_mutex_lock@plt>
    4cc2:	8d 43 08             	lea    0x8(%ebx),%eax
    4cc5:	83 c4 10             	add    $0x10,%esp
    4cc8:	89 45 e0             	mov    %eax,-0x20(%ebp)
    4ccb:	8d 43 50             	lea    0x50(%ebx),%eax
    4cce:	89 45 e4             	mov    %eax,-0x1c(%ebp)
    4cd1:	3b 73 10             	cmp    0x10(%ebx),%esi
    4cd4:	76 16                	jbe    4cec <hound_ctx_stream_read+0x5c>
    4cd6:	66 90                	xchg   %ax,%ax
    4cd8:	8b 55 e4             	mov    -0x1c(%ebp),%edx
    4cdb:	50                   	push   %eax
    4cdc:	50                   	push   %eax
    4cdd:	57                   	push   %edi
    4cde:	52                   	push   %edx
    4cdf:	e8 6c 6a 00 00       	call   b750 <fibril_condvar_wait@plt>
    4ce4:	83 c4 10             	add    $0x10,%esp
    4ce7:	3b 73 10             	cmp    0x10(%ebx),%esi
    4cea:	77 ec                	ja     4cd8 <hound_ctx_stream_read+0x48>
    4cec:	8d 43 2c             	lea    0x2c(%ebx),%eax
    4cef:	51                   	push   %ecx
    4cf0:	89 45 e4             	mov    %eax,-0x1c(%ebp)
    4cf3:	50                   	push   %eax
    4cf4:	8b 45 0c             	mov    0xc(%ebp),%eax
    4cf7:	56                   	push   %esi
    4cf8:	50                   	push   %eax
    4cf9:	e8 12 2c 00 00       	call   7910 <pcm_format_silence>
    4cfe:	8b 45 e4             	mov    -0x1c(%ebp),%eax
    4d01:	50                   	push   %eax
    4d02:	8b 45 0c             	mov    0xc(%ebp),%eax
    4d05:	56                   	push   %esi
    4d06:	50                   	push   %eax
    4d07:	8b 45 e0             	mov    -0x20(%ebp),%eax
    4d0a:	50                   	push   %eax
    4d0b:	e8 e0 ca ff ff       	call   17f0 <audio_pipe_mix_data>
    4d10:	83 c4 14             	add    $0x14,%esp
    4d13:	89 45 e4             	mov    %eax,-0x1c(%ebp)
    4d16:	57                   	push   %edi
    4d17:	e8 e4 6a 00 00       	call   b800 <fibril_mutex_unlock@plt>
    4d1c:	8b 45 e4             	mov    -0x1c(%ebp),%eax
    4d1f:	83 c4 10             	add    $0x10,%esp
    4d22:	85 c0                	test   %eax,%eax
    4d24:	75 11                	jne    4d37 <hound_ctx_stream_read+0xa7>
    4d26:	83 ec 0c             	sub    $0xc,%esp
    4d29:	83 c3 50             	add    $0x50,%ebx
    4d2c:	53                   	push   %ebx
    4d2d:	e8 be 69 00 00       	call   b6f0 <fibril_condvar_signal@plt>
    4d32:	83 c4 10             	add    $0x10,%esp
    4d35:	31 c0                	xor    %eax,%eax
    4d37:	8d 65 f4             	lea    -0xc(%ebp),%esp
    4d3a:	5b                   	pop    %ebx
    4d3b:	5e                   	pop    %esi
    4d3c:	5f                   	pop    %edi
    4d3d:	5d                   	pop    %ebp
    4d3e:	c3                   	ret    
    4d3f:	b8 f2 ff ff ff       	mov    $0xfffffff2,%eax
    4d44:	eb f1                	jmp    4d37 <hound_ctx_stream_read+0xa7>
    4d46:	50                   	push   %eax
    4d47:	68 4b 01 00 00       	push   $0x14b
    4d4c:	68 6c 9a 00 00       	push   $0x9a6c
    4d51:	68 f6 9a 00 00       	push   $0x9af6
    4d56:	e8 55 6a 00 00       	call   b7b0 <assert_abort@plt>
    4d5b:	90                   	nop
    4d5c:	8d 74 26 00          	lea    0x0(%esi,%eiz,1),%esi

00004d60 <hound_ctx_stream_add_self>:
    4d60:	55                   	push   %ebp
    4d61:	89 e5                	mov    %esp,%ebp
    4d63:	56                   	push   %esi
    4d64:	53                   	push   %ebx
    4d65:	83 ec 10             	sub    $0x10,%esp
    4d68:	8b 5d 08             	mov    0x8(%ebp),%ebx
    4d6b:	85 db                	test   %ebx,%ebx
    4d6d:	74 42                	je     4db1 <hound_ctx_stream_add_self+0x51>
    4d6f:	83 ec 0c             	sub    $0xc,%esp
    4d72:	8d 73 40             	lea    0x40(%ebx),%esi
    4d75:	56                   	push   %esi
    4d76:	e8 65 6c 00 00       	call   b9e0 <fibril_mutex_lock@plt>
    4d7b:	8b 45 14             	mov    0x14(%ebp),%eax
    4d7e:	8b 55 10             	mov    0x10(%ebp),%edx
    4d81:	50                   	push   %eax
    4d82:	8b 4d 0c             	mov    0xc(%ebp),%ecx
    4d85:	8d 43 08             	lea    0x8(%ebx),%eax
    4d88:	52                   	push   %edx
    4d89:	51                   	push   %ecx
    4d8a:	50                   	push   %eax
    4d8b:	e8 60 ca ff ff       	call   17f0 <audio_pipe_mix_data>
    4d90:	83 c4 14             	add    $0x14,%esp
    4d93:	83 c3 50             	add    $0x50,%ebx
    4d96:	89 45 f4             	mov    %eax,-0xc(%ebp)
    4d99:	53                   	push   %ebx
    4d9a:	e8 51 69 00 00       	call   b6f0 <fibril_condvar_signal@plt>
    4d9f:	89 34 24             	mov    %esi,(%esp)
    4da2:	e8 59 6a 00 00       	call   b800 <fibril_mutex_unlock@plt>
    4da7:	8b 45 f4             	mov    -0xc(%ebp),%eax
    4daa:	8d 65 f8             	lea    -0x8(%ebp),%esp
    4dad:	5b                   	pop    %ebx
    4dae:	5e                   	pop    %esi
    4daf:	5d                   	pop    %ebp
    4db0:	c3                   	ret    
    4db1:	53                   	push   %ebx
    4db2:	68 6a 01 00 00       	push   $0x16a
    4db7:	68 6c 9a 00 00       	push   $0x9a6c
    4dbc:	68 f6 9a 00 00       	push   $0x9af6
    4dc1:	e8 ea 69 00 00       	call   b7b0 <assert_abort@plt>
    4dc6:	8d 76 00             	lea    0x0(%esi),%esi
    4dc9:	8d bc 27 00 00 00 00 	lea    0x0(%edi,%eiz,1),%edi

00004dd0 <hound_ctx_stream_drain>:
    4dd0:	55                   	push   %ebp
    4dd1:	89 e5                	mov    %esp,%ebp
    4dd3:	57                   	push   %edi
    4dd4:	56                   	push   %esi
    4dd5:	53                   	push   %ebx
    4dd6:	83 ec 0c             	sub    $0xc,%esp
    4dd9:	8b 5d 08             	mov    0x8(%ebp),%ebx
    4ddc:	85 db                	test   %ebx,%ebx
    4dde:	74 4a                	je     4e2a <hound_ctx_stream_drain+0x5a>
    4de0:	8d 73 40             	lea    0x40(%ebx),%esi
    4de3:	51                   	push   %ecx
    4de4:	68 ed 9a 00 00       	push   $0x9aed
    4de9:	6a 04                	push   $0x4
    4deb:	6a ff                	push   $0xffffffff
    4ded:	e8 7e 69 00 00       	call   b770 <log_msg@plt>
    4df2:	89 34 24             	mov    %esi,(%esp)
    4df5:	e8 e6 6b 00 00       	call   b9e0 <fibril_mutex_lock@plt>
    4dfa:	8b 43 10             	mov    0x10(%ebx),%eax
    4dfd:	83 c4 10             	add    $0x10,%esp
    4e00:	8d 7b 50             	lea    0x50(%ebx),%edi
    4e03:	85 c0                	test   %eax,%eax
    4e05:	74 14                	je     4e1b <hound_ctx_stream_drain+0x4b>
    4e07:	90                   	nop
    4e08:	50                   	push   %eax
    4e09:	50                   	push   %eax
    4e0a:	56                   	push   %esi
    4e0b:	57                   	push   %edi
    4e0c:	e8 3f 69 00 00       	call   b750 <fibril_condvar_wait@plt>
    4e11:	8b 53 10             	mov    0x10(%ebx),%edx
    4e14:	83 c4 10             	add    $0x10,%esp
    4e17:	85 d2                	test   %edx,%edx
    4e19:	75 ed                	jne    4e08 <hound_ctx_stream_drain+0x38>
    4e1b:	89 75 08             	mov    %esi,0x8(%ebp)
    4e1e:	8d 65 f4             	lea    -0xc(%ebp),%esp
    4e21:	5b                   	pop    %ebx
    4e22:	5e                   	pop    %esi
    4e23:	5f                   	pop    %edi
    4e24:	5d                   	pop    %ebp
    4e25:	e9 d6 69 00 00       	jmp    b800 <fibril_mutex_unlock@plt>
    4e2a:	50                   	push   %eax
    4e2b:	68 78 01 00 00       	push   $0x178
    4e30:	68 6c 9a 00 00       	push   $0x9a6c
    4e35:	68 f6 9a 00 00       	push   $0x9af6
    4e3a:	e8 71 69 00 00       	call   b7b0 <assert_abort@plt>
    4e3f:	90                   	nop

00004e40 <iface_stream_data_read>:
    4e40:	55                   	push   %ebp
    4e41:	89 e5                	mov    %esp,%ebp
    4e43:	5d                   	pop    %ebp
    4e44:	e9 47 fe ff ff       	jmp    4c90 <hound_ctx_stream_read>
    4e49:	8d b4 26 00 00 00 00 	lea    0x0(%esi,%eiz,1),%esi

00004e50 <iface_stream_data_write>:
    4e50:	55                   	push   %ebp
    4e51:	89 e5                	mov    %esp,%ebp
    4e53:	5d                   	pop    %ebp
    4e54:	e9 27 fd ff ff       	jmp    4b80 <hound_ctx_stream_write>
    4e59:	8d b4 26 00 00 00 00 	lea    0x0(%esi,%eiz,1),%esi

00004e60 <iface_drain_stream>:
    4e60:	55                   	push   %ebp
    4e61:	89 e5                	mov    %esp,%ebp
    4e63:	83 ec 14             	sub    $0x14,%esp
    4e66:	8b 45 08             	mov    0x8(%ebp),%eax
    4e69:	50                   	push   %eax
    4e6a:	e8 61 ff ff ff       	call   4dd0 <hound_ctx_stream_drain>
    4e6f:	31 c0                	xor    %eax,%eax
    4e71:	c9                   	leave  
    4e72:	c3                   	ret    
    4e73:	8d b6 00 00 00 00    	lea    0x0(%esi),%esi
    4e79:	8d bc 27 00 00 00 00 	lea    0x0(%edi,%eiz,1),%edi

00004e80 <iface_rem_stream>:
    4e80:	55                   	push   %ebp
    4e81:	89 e5                	mov    %esp,%ebp
    4e83:	83 ec 14             	sub    $0x14,%esp
    4e86:	8b 45 0c             	mov    0xc(%ebp),%eax
    4e89:	50                   	push   %eax
    4e8a:	e8 f1 fb ff ff       	call   4a80 <hound_ctx_destroy_stream>
    4e8f:	31 c0                	xor    %eax,%eax
    4e91:	c9                   	leave  
    4e92:	c3                   	ret    
    4e93:	8d b6 00 00 00 00    	lea    0x0(%esi),%esi
    4e99:	8d bc 27 00 00 00 00 	lea    0x0(%edi,%eiz,1),%edi

00004ea0 <iface_add_stream>:
    4ea0:	55                   	push   %ebp
    4ea1:	89 e5                	mov    %esp,%ebp
    4ea3:	57                   	push   %edi
    4ea4:	56                   	push   %esi
    4ea5:	53                   	push   %ebx
    4ea6:	83 ec 0c             	sub    $0xc,%esp
    4ea9:	8b 45 24             	mov    0x24(%ebp),%eax
    4eac:	8b 5d 08             	mov    0x8(%ebp),%ebx
    4eaf:	8b 75 0c             	mov    0xc(%ebp),%esi
    4eb2:	8b 7d 10             	mov    0x10(%ebp),%edi
    4eb5:	85 c0                	test   %eax,%eax
    4eb7:	0f 84 a9 00 00 00    	je     4f66 <iface_add_stream+0xc6>
    4ebd:	85 db                	test   %ebx,%ebx
    4ebf:	0f 84 8f 00 00 00    	je     4f54 <iface_add_stream+0xb4>
    4ec5:	8b 55 1c             	mov    0x1c(%ebp),%edx
    4ec8:	b8 28 92 00 00       	mov    $0x9228,%eax
    4ecd:	83 fa 12             	cmp    $0x12,%edx
    4ed0:	76 66                	jbe    4f38 <iface_add_stream+0x98>
    4ed2:	51                   	push   %ecx
    4ed3:	51                   	push   %ecx
    4ed4:	50                   	push   %eax
    4ed5:	8b 45 18             	mov    0x18(%ebp),%eax
    4ed8:	50                   	push   %eax
    4ed9:	8b 45 14             	mov    0x14(%ebp),%eax
    4edc:	50                   	push   %eax
    4edd:	57                   	push   %edi
    4ede:	56                   	push   %esi
    4edf:	53                   	push   %ebx
    4ee0:	68 14 9e 00 00       	push   $0x9e14
    4ee5:	68 1b 9d 00 00       	push   $0x9d1b
    4eea:	6a 05                	push   $0x5
    4eec:	6a ff                	push   $0xffffffff
    4eee:	e8 7d 68 00 00       	call   b770 <log_msg@plt>
    4ef3:	83 c4 28             	add    $0x28,%esp
    4ef6:	56                   	push   %esi
    4ef7:	53                   	push   %ebx
    4ef8:	e8 b3 e2 ff ff       	call   31b0 <hound_get_ctx_by_id>
    4efd:	83 c4 10             	add    $0x10,%esp
    4f00:	85 c0                	test   %eax,%eax
    4f02:	74 44                	je     4f48 <iface_add_stream+0xa8>
    4f04:	8b 4d 20             	mov    0x20(%ebp),%ecx
    4f07:	52                   	push   %edx
    4f08:	8b 5d 1c             	mov    0x1c(%ebp),%ebx
    4f0b:	52                   	push   %edx
    4f0c:	8b 75 18             	mov    0x18(%ebp),%esi
    4f0f:	8b 55 14             	mov    0x14(%ebp),%edx
    4f12:	51                   	push   %ecx
    4f13:	53                   	push   %ebx
    4f14:	56                   	push   %esi
    4f15:	52                   	push   %edx
    4f16:	57                   	push   %edi
    4f17:	50                   	push   %eax
    4f18:	e8 13 fa ff ff       	call   4930 <hound_ctx_create_stream>
    4f1d:	83 c4 20             	add    $0x20,%esp
    4f20:	85 c0                	test   %eax,%eax
    4f22:	74 29                	je     4f4d <iface_add_stream+0xad>
    4f24:	8b 4d 24             	mov    0x24(%ebp),%ecx
    4f27:	89 01                	mov    %eax,(%ecx)
    4f29:	31 c0                	xor    %eax,%eax
    4f2b:	8d 65 f4             	lea    -0xc(%ebp),%esp
    4f2e:	5b                   	pop    %ebx
    4f2f:	5e                   	pop    %esi
    4f30:	5f                   	pop    %edi
    4f31:	5d                   	pop    %ebp
    4f32:	c3                   	ret    
    4f33:	90                   	nop
    4f34:	8d 74 26 00          	lea    0x0(%esi,%eiz,1),%esi
    4f38:	8b 04 95 80 9d 00 00 	mov    0x9d80(,%edx,4),%eax
    4f3f:	eb 91                	jmp    4ed2 <iface_add_stream+0x32>
    4f41:	8d b4 26 00 00 00 00 	lea    0x0(%esi,%eiz,1),%esi
    4f48:	83 c8 ff             	or     $0xffffffff,%eax
    4f4b:	eb de                	jmp    4f2b <iface_add_stream+0x8b>
    4f4d:	b8 fe ff ff ff       	mov    $0xfffffffe,%eax
    4f52:	eb d7                	jmp    4f2b <iface_add_stream+0x8b>
    4f54:	50                   	push   %eax
    4f55:	6a 74                	push   $0x74
    4f57:	68 0c 9d 00 00       	push   $0x9d0c
    4f5c:	68 14 9d 00 00       	push   $0x9d14
    4f61:	e8 4a 68 00 00       	call   b7b0 <assert_abort@plt>
    4f66:	50                   	push   %eax
    4f67:	6a 73                	push   $0x73
    4f69:	68 0c 9d 00 00       	push   $0x9d0c
    4f6e:	68 28 90 00 00       	push   $0x9028
    4f73:	e8 38 68 00 00       	call   b7b0 <assert_abort@plt>
    4f78:	90                   	nop
    4f79:	8d b4 26 00 00 00 00 	lea    0x0(%esi,%eiz,1),%esi

00004f80 <iface_disconnect>:
    4f80:	55                   	push   %ebp
    4f81:	89 e5                	mov    %esp,%ebp
    4f83:	57                   	push   %edi
    4f84:	56                   	push   %esi
    4f85:	53                   	push   %ebx
    4f86:	83 ec 10             	sub    $0x10,%esp
    4f89:	8b 5d 08             	mov    0x8(%ebp),%ebx
    4f8c:	8b 75 0c             	mov    0xc(%ebp),%esi
    4f8f:	8b 7d 10             	mov    0x10(%ebp),%edi
    4f92:	57                   	push   %edi
    4f93:	56                   	push   %esi
    4f94:	53                   	push   %ebx
    4f95:	68 00 9e 00 00       	push   $0x9e00
    4f9a:	68 39 9d 00 00       	push   $0x9d39
    4f9f:	6a 03                	push   $0x3
    4fa1:	6a ff                	push   $0xffffffff
    4fa3:	e8 c8 67 00 00       	call   b770 <log_msg@plt>
    4fa8:	89 7d 10             	mov    %edi,0x10(%ebp)
    4fab:	89 75 0c             	mov    %esi,0xc(%ebp)
    4fae:	89 5d 08             	mov    %ebx,0x8(%ebp)
    4fb1:	83 c4 20             	add    $0x20,%esp
    4fb4:	8d 65 f4             	lea    -0xc(%ebp),%esp
    4fb7:	5b                   	pop    %ebx
    4fb8:	5e                   	pop    %esi
    4fb9:	5f                   	pop    %edi
    4fba:	5d                   	pop    %ebp
    4fbb:	e9 00 f0 ff ff       	jmp    3fc0 <hound_disconnect>

00004fc0 <iface_connect>:
    4fc0:	55                   	push   %ebp
    4fc1:	89 e5                	mov    %esp,%ebp
    4fc3:	57                   	push   %edi
    4fc4:	56                   	push   %esi
    4fc5:	53                   	push   %ebx
    4fc6:	83 ec 10             	sub    $0x10,%esp
    4fc9:	8b 5d 08             	mov    0x8(%ebp),%ebx
    4fcc:	8b 75 0c             	mov    0xc(%ebp),%esi
    4fcf:	8b 7d 10             	mov    0x10(%ebp),%edi
    4fd2:	57                   	push   %edi
    4fd3:	56                   	push   %esi
    4fd4:	53                   	push   %ebx
    4fd5:	68 f0 9d 00 00       	push   $0x9df0
    4fda:	68 39 9d 00 00       	push   $0x9d39
    4fdf:	6a 03                	push   $0x3
    4fe1:	6a ff                	push   $0xffffffff
    4fe3:	e8 88 67 00 00       	call   b770 <log_msg@plt>
    4fe8:	89 7d 10             	mov    %edi,0x10(%ebp)
    4feb:	89 75 0c             	mov    %esi,0xc(%ebp)
    4fee:	89 5d 08             	mov    %ebx,0x8(%ebp)
    4ff1:	83 c4 20             	add    $0x20,%esp
    4ff4:	8d 65 f4             	lea    -0xc(%ebp),%esp
    4ff7:	5b                   	pop    %ebx
    4ff8:	5e                   	pop    %esi
    4ff9:	5f                   	pop    %edi
    4ffa:	5d                   	pop    %ebp
    4ffb:	e9 60 ed ff ff       	jmp    3d60 <hound_connect>

00005000 <iface_get_list>:
    5000:	55                   	push   %ebp
    5001:	89 e5                	mov    %esp,%ebp
    5003:	57                   	push   %edi
    5004:	56                   	push   %esi
    5005:	53                   	push   %ebx
    5006:	83 ec 1c             	sub    $0x1c,%esp
    5009:	8b 45 0c             	mov    0xc(%ebp),%eax
    500c:	8b 5d 18             	mov    0x18(%ebp),%ebx
    500f:	89 45 e4             	mov    %eax,-0x1c(%ebp)
    5012:	8b 7d 10             	mov    0x10(%ebp),%edi
    5015:	8b 45 14             	mov    0x14(%ebp),%eax
    5018:	53                   	push   %ebx
    5019:	50                   	push   %eax
    501a:	8b 75 08             	mov    0x8(%ebp),%esi
    501d:	8b 17                	mov    (%edi),%edx
    501f:	52                   	push   %edx
    5020:	56                   	push   %esi
    5021:	68 e0 9d 00 00       	push   $0x9de0
    5026:	68 4a 9d 00 00       	push   $0x9d4a
    502b:	6a 03                	push   $0x3
    502d:	6a ff                	push   $0xffffffff
    502f:	e8 3c 67 00 00       	call   b770 <log_msg@plt>
    5034:	83 c4 20             	add    $0x20,%esp
    5037:	f6 c3 03             	test   $0x3,%bl
    503a:	75 24                	jne    5060 <iface_get_list+0x60>
    503c:	83 e3 0c             	and    $0xc,%ebx
    503f:	74 37                	je     5078 <iface_get_list+0x78>
    5041:	8b 45 e4             	mov    -0x1c(%ebp),%eax
    5044:	89 7d 10             	mov    %edi,0x10(%ebp)
    5047:	89 75 08             	mov    %esi,0x8(%ebp)
    504a:	89 45 0c             	mov    %eax,0xc(%ebp)
    504d:	8d 65 f4             	lea    -0xc(%ebp),%esp
    5050:	5b                   	pop    %ebx
    5051:	5e                   	pop    %esi
    5052:	5f                   	pop    %edi
    5053:	5d                   	pop    %ebp
    5054:	e9 e7 e9 ff ff       	jmp    3a40 <hound_list_sources>
    5059:	8d b4 26 00 00 00 00 	lea    0x0(%esi,%eiz,1),%esi
    5060:	8b 45 e4             	mov    -0x1c(%ebp),%eax
    5063:	89 7d 10             	mov    %edi,0x10(%ebp)
    5066:	89 75 08             	mov    %esi,0x8(%ebp)
    5069:	89 45 0c             	mov    %eax,0xc(%ebp)
    506c:	8d 65 f4             	lea    -0xc(%ebp),%esp
    506f:	5b                   	pop    %ebx
    5070:	5e                   	pop    %esi
    5071:	5f                   	pop    %edi
    5072:	5d                   	pop    %ebp
    5073:	e9 38 eb ff ff       	jmp    3bb0 <hound_list_sinks>
    5078:	8d 65 f4             	lea    -0xc(%ebp),%esp
    507b:	b8 f5 ff ff ff       	mov    $0xfffffff5,%eax
    5080:	5b                   	pop    %ebx
    5081:	5e                   	pop    %esi
    5082:	5f                   	pop    %edi
    5083:	5d                   	pop    %ebp
    5084:	c3                   	ret    
    5085:	8d 74 26 00          	lea    0x0(%esi,%eiz,1),%esi
    5089:	8d bc 27 00 00 00 00 	lea    0x0(%edi,%eiz,1),%edi

00005090 <iface_is_record_context>:
    5090:	55                   	push   %ebp
    5091:	89 e5                	mov    %esp,%ebp
    5093:	83 ec 08             	sub    $0x8,%esp
    5096:	8b 45 08             	mov    0x8(%ebp),%eax
    5099:	8b 55 0c             	mov    0xc(%ebp),%edx
    509c:	85 c0                	test   %eax,%eax
    509e:	74 24                	je     50c4 <iface_is_record_context+0x34>
    50a0:	51                   	push   %ecx
    50a1:	51                   	push   %ecx
    50a2:	52                   	push   %edx
    50a3:	50                   	push   %eax
    50a4:	e8 07 e1 ff ff       	call   31b0 <hound_get_ctx_by_id>
    50a9:	83 c4 10             	add    $0x10,%esp
    50ac:	85 c0                	test   %eax,%eax
    50ae:	74 10                	je     50c0 <iface_is_record_context+0x30>
    50b0:	89 45 08             	mov    %eax,0x8(%ebp)
    50b3:	c9                   	leave  
    50b4:	e9 47 f8 ff ff       	jmp    4900 <hound_ctx_is_record>
    50b9:	8d b4 26 00 00 00 00 	lea    0x0(%esi,%eiz,1),%esi
    50c0:	31 c0                	xor    %eax,%eax
    50c2:	c9                   	leave  
    50c3:	c3                   	ret    
    50c4:	50                   	push   %eax
    50c5:	6a 51                	push   $0x51
    50c7:	68 0c 9d 00 00       	push   $0x9d0c
    50cc:	68 14 9d 00 00       	push   $0x9d14
    50d1:	e8 da 66 00 00       	call   b7b0 <assert_abort@plt>
    50d6:	8d 76 00             	lea    0x0(%esi),%esi
    50d9:	8d bc 27 00 00 00 00 	lea    0x0(%edi,%eiz,1),%edi

000050e0 <iface_rem_context>:
    50e0:	55                   	push   %ebp
    50e1:	89 e5                	mov    %esp,%ebp
    50e3:	57                   	push   %edi
    50e4:	56                   	push   %esi
    50e5:	53                   	push   %ebx
    50e6:	83 ec 1c             	sub    $0x1c,%esp
    50e9:	8b 5d 08             	mov    0x8(%ebp),%ebx
    50ec:	8b 75 0c             	mov    0xc(%ebp),%esi
    50ef:	85 db                	test   %ebx,%ebx
    50f1:	74 5c                	je     514f <iface_rem_context+0x6f>
    50f3:	57                   	push   %edi
    50f4:	57                   	push   %edi
    50f5:	56                   	push   %esi
    50f6:	53                   	push   %ebx
    50f7:	e8 b4 e0 ff ff       	call   31b0 <hound_get_ctx_by_id>
    50fc:	83 c4 10             	add    $0x10,%esp
    50ff:	89 c7                	mov    %eax,%edi
    5101:	85 c0                	test   %eax,%eax
    5103:	74 43                	je     5148 <iface_rem_context+0x68>
    5105:	51                   	push   %ecx
    5106:	51                   	push   %ecx
    5107:	50                   	push   %eax
    5108:	53                   	push   %ebx
    5109:	e8 52 df ff ff       	call   3060 <hound_remove_ctx>
    510e:	83 c4 10             	add    $0x10,%esp
    5111:	85 c0                	test   %eax,%eax
    5113:	75 29                	jne    513e <iface_rem_context+0x5e>
    5115:	83 ec 0c             	sub    $0xc,%esp
    5118:	89 45 e4             	mov    %eax,-0x1c(%ebp)
    511b:	57                   	push   %edi
    511c:	e8 ff f6 ff ff       	call   4820 <hound_ctx_destroy>
    5121:	58                   	pop    %eax
    5122:	5a                   	pop    %edx
    5123:	56                   	push   %esi
    5124:	53                   	push   %ebx
    5125:	68 cc 9d 00 00       	push   $0x9dcc
    512a:	68 60 9d 00 00       	push   $0x9d60
    512f:	6a 03                	push   $0x3
    5131:	6a ff                	push   $0xffffffff
    5133:	e8 38 66 00 00       	call   b770 <log_msg@plt>
    5138:	83 c4 20             	add    $0x20,%esp
    513b:	8b 45 e4             	mov    -0x1c(%ebp),%eax
    513e:	8d 65 f4             	lea    -0xc(%ebp),%esp
    5141:	5b                   	pop    %ebx
    5142:	5e                   	pop    %esi
    5143:	5f                   	pop    %edi
    5144:	5d                   	pop    %ebp
    5145:	c3                   	ret    
    5146:	66 90                	xchg   %ax,%ax
    5148:	b8 f2 ff ff ff       	mov    $0xfffffff2,%eax
    514d:	eb ef                	jmp    513e <iface_rem_context+0x5e>
    514f:	50                   	push   %eax
    5150:	6a 43                	push   $0x43
    5152:	68 0c 9d 00 00       	push   $0x9d0c
    5157:	68 14 9d 00 00       	push   $0x9d14
    515c:	e8 4f 66 00 00       	call   b7b0 <assert_abort@plt>
    5161:	eb 0d                	jmp    5170 <iface_add_context>
    5163:	90                   	nop
    5164:	90                   	nop
    5165:	90                   	nop
    5166:	90                   	nop
    5167:	90                   	nop
    5168:	90                   	nop
    5169:	90                   	nop
    516a:	90                   	nop
    516b:	90                   	nop
    516c:	90                   	nop
    516d:	90                   	nop
    516e:	90                   	nop
    516f:	90                   	nop

00005170 <iface_add_context>:
    5170:	55                   	push   %ebp
    5171:	89 e5                	mov    %esp,%ebp
    5173:	57                   	push   %edi
    5174:	56                   	push   %esi
    5175:	53                   	push   %ebx
    5176:	83 ec 1c             	sub    $0x1c,%esp
    5179:	8b 7d 08             	mov    0x8(%ebp),%edi
    517c:	8b 75 0c             	mov    0xc(%ebp),%esi
    517f:	8b 45 10             	mov    0x10(%ebp),%eax
    5182:	8b 55 14             	mov    0x14(%ebp),%edx
    5185:	85 ff                	test   %edi,%edi
    5187:	0f 84 a6 00 00 00    	je     5233 <iface_add_context+0xc3>
    518d:	85 f6                	test   %esi,%esi
    518f:	0f 84 8c 00 00 00    	je     5221 <iface_add_context+0xb1>
    5195:	85 c0                	test   %eax,%eax
    5197:	74 76                	je     520f <iface_add_context+0x9f>
    5199:	84 d2                	test   %dl,%dl
    519b:	75 3b                	jne    51d8 <iface_add_context+0x68>
    519d:	83 ec 0c             	sub    $0xc,%esp
    51a0:	50                   	push   %eax
    51a1:	e8 ca f5 ff ff       	call   4770 <hound_playback_ctx_get>
    51a6:	83 c4 10             	add    $0x10,%esp
    51a9:	89 c3                	mov    %eax,%ebx
    51ab:	85 db                	test   %ebx,%ebx
    51ad:	74 59                	je     5208 <iface_add_context+0x98>
    51af:	50                   	push   %eax
    51b0:	50                   	push   %eax
    51b1:	53                   	push   %ebx
    51b2:	57                   	push   %edi
    51b3:	e8 28 e3 ff ff       	call   34e0 <hound_add_ctx>
    51b8:	83 c4 10             	add    $0x10,%esp
    51bb:	85 c0                	test   %eax,%eax
    51bd:	75 29                	jne    51e8 <iface_add_context+0x78>
    51bf:	83 ec 0c             	sub    $0xc,%esp
    51c2:	53                   	push   %ebx
    51c3:	e8 08 f7 ff ff       	call   48d0 <hound_ctx_get_id>
    51c8:	83 c4 10             	add    $0x10,%esp
    51cb:	89 06                	mov    %eax,(%esi)
    51cd:	31 c0                	xor    %eax,%eax
    51cf:	8d 65 f4             	lea    -0xc(%ebp),%esp
    51d2:	5b                   	pop    %ebx
    51d3:	5e                   	pop    %esi
    51d4:	5f                   	pop    %edi
    51d5:	5d                   	pop    %ebp
    51d6:	c3                   	ret    
    51d7:	90                   	nop
    51d8:	83 ec 0c             	sub    $0xc,%esp
    51db:	50                   	push   %eax
    51dc:	e8 df f4 ff ff       	call   46c0 <hound_record_ctx_get>
    51e1:	83 c4 10             	add    $0x10,%esp
    51e4:	89 c3                	mov    %eax,%ebx
    51e6:	eb c3                	jmp    51ab <iface_add_context+0x3b>
    51e8:	83 ec 0c             	sub    $0xc,%esp
    51eb:	89 45 e4             	mov    %eax,-0x1c(%ebp)
    51ee:	53                   	push   %ebx
    51ef:	e8 2c f6 ff ff       	call   4820 <hound_ctx_destroy>
    51f4:	8b 45 e4             	mov    -0x1c(%ebp),%eax
    51f7:	83 c4 10             	add    $0x10,%esp
    51fa:	8d 65 f4             	lea    -0xc(%ebp),%esp
    51fd:	5b                   	pop    %ebx
    51fe:	5e                   	pop    %esi
    51ff:	5f                   	pop    %edi
    5200:	5d                   	pop    %ebp
    5201:	c3                   	ret    
    5202:	8d b6 00 00 00 00    	lea    0x0(%esi),%esi
    5208:	b8 fe ff ff ff       	mov    $0xfffffffe,%eax
    520d:	eb c0                	jmp    51cf <iface_add_context+0x5f>
    520f:	52                   	push   %edx
    5210:	6a 32                	push   $0x32
    5212:	68 0c 9d 00 00       	push   $0x9d0c
    5217:	68 20 97 00 00       	push   $0x9720
    521c:	e8 8f 65 00 00       	call   b7b0 <assert_abort@plt>
    5221:	51                   	push   %ecx
    5222:	6a 31                	push   $0x31
    5224:	68 0c 9d 00 00       	push   $0x9d0c
    5229:	68 6c 9d 00 00       	push   $0x9d6c
    522e:	e8 7d 65 00 00       	call   b7b0 <assert_abort@plt>
    5233:	53                   	push   %ebx
    5234:	6a 30                	push   $0x30
    5236:	68 0c 9d 00 00       	push   $0x9d0c
    523b:	68 14 9d 00 00       	push   $0x9d14
    5240:	e8 6b 65 00 00       	call   b7b0 <assert_abort@plt>
    5245:	66 90                	xchg   %ax,%ax
    5247:	66 90                	xchg   %ax,%ax
    5249:	66 90                	xchg   %ax,%ax
    524b:	66 90                	xchg   %ax,%ax
    524d:	66 90                	xchg   %ax,%ax
    524f:	90                   	nop

00005250 <scan_for_devices>:
    5250:	55                   	push   %ebp
    5251:	89 e5                	mov    %esp,%ebp
    5253:	83 ec 14             	sub    $0x14,%esp
    5256:	68 70 52 00 00       	push   $0x5270
    525b:	e8 00 23 00 00       	call   7560 <hound_server_devices_iterate>
    5260:	83 c4 10             	add    $0x10,%esp
    5263:	c9                   	leave  
    5264:	c3                   	ret    
    5265:	8d 74 26 00          	lea    0x0(%esi,%eiz,1),%esi
    5269:	8d bc 27 00 00 00 00 	lea    0x0(%edi,%eiz,1),%edi

00005270 <device_callback>:
    5270:	55                   	push   %ebp
    5271:	89 e5                	mov    %esp,%ebp
    5273:	83 ec 0c             	sub    $0xc,%esp
    5276:	8b 45 0c             	mov    0xc(%ebp),%eax
    5279:	8b 55 08             	mov    0x8(%ebp),%edx
    527c:	50                   	push   %eax
    527d:	52                   	push   %edx
    527e:	68 40 d7 00 00       	push   $0xd740
    5283:	e8 58 e3 ff ff       	call   35e0 <hound_add_device>
    5288:	c9                   	leave  
    5289:	c3                   	ret    
    528a:	66 90                	xchg   %ax,%ax
    528c:	66 90                	xchg   %ax,%ax
    528e:	66 90                	xchg   %ax,%ax

00005290 <main>:
    5290:	8d 4c 24 04          	lea    0x4(%esp),%ecx
    5294:	83 e4 f0             	and    $0xfffffff0,%esp
    5297:	ff 71 fc             	pushl  -0x4(%ecx)
    529a:	55                   	push   %ebp
    529b:	89 e5                	mov    %esp,%ebp
    529d:	53                   	push   %ebx
    529e:	51                   	push   %ecx
    529f:	83 ec 18             	sub    $0x18,%esp
    52a2:	68 f4 b1 00 00       	push   $0xb1f4
    52a7:	68 25 9e 00 00       	push   $0x9e25
    52ac:	e8 8f 63 00 00       	call   b640 <printf@plt>
    52b1:	c7 04 24 f4 b1 00 00 	movl   $0xb1f4,(%esp)
    52b8:	e8 b3 63 00 00       	call   b670 <log_init@plt>
    52bd:	83 c4 10             	add    $0x10,%esp
    52c0:	85 c0                	test   %eax,%eax
    52c2:	0f 85 f3 00 00 00    	jne    53bb <main+0x12b>
    52c8:	83 ec 0c             	sub    $0xc,%esp
    52cb:	68 40 d7 00 00       	push   $0xd740
    52d0:	e8 2b dd ff ff       	call   3000 <hound_init>
    52d5:	83 c4 10             	add    $0x10,%esp
    52d8:	89 c3                	mov    %eax,%ebx
    52da:	85 c0                	test   %eax,%eax
    52dc:	0f 85 b0 00 00 00    	jne    5392 <main+0x102>
    52e2:	83 ec 0c             	sub    $0xc,%esp
    52e5:	c7 05 0c d6 00 00 40 	movl   $0xd740,0xd60c
    52ec:	d7 00 00 
    52ef:	68 e0 d5 00 00       	push   $0xd5e0
    52f4:	e8 47 1a 00 00       	call   6d40 <hound_service_set_server_iface>
    52f9:	5a                   	pop    %edx
    52fa:	59                   	pop    %ecx
    52fb:	6a 00                	push   $0x0
    52fd:	68 50 6d 00 00       	push   $0x6d50
    5302:	e8 b9 66 00 00       	call   b9c0 <async_set_fallback_port_handler@plt>
    5307:	5b                   	pop    %ebx
    5308:	58                   	pop    %eax
    5309:	8d 45 f4             	lea    -0xc(%ebp),%eax
    530c:	50                   	push   %eax
    530d:	c7 45 f4 00 00 00 00 	movl   $0x0,-0xc(%ebp)
    5314:	68 f4 b1 00 00       	push   $0xb1f4
    5319:	e8 d2 21 00 00       	call   74f0 <hound_server_register>
    531e:	83 c4 10             	add    $0x10,%esp
    5321:	89 c3                	mov    %eax,%ebx
    5323:	85 c0                	test   %eax,%eax
    5325:	0f 85 d1 00 00 00    	jne    53fc <main+0x16c>
    532b:	83 ec 0c             	sub    $0xc,%esp
    532e:	68 50 52 00 00       	push   $0x5250
    5333:	e8 18 22 00 00       	call   7550 <hound_server_set_device_change_callback>
    5338:	83 c4 10             	add    $0x10,%esp
    533b:	89 c3                	mov    %eax,%ebx
    533d:	85 c0                	test   %eax,%eax
    533f:	0f 85 8d 00 00 00    	jne    53d2 <main+0x142>
    5345:	ff 75 f4             	pushl  -0xc(%ebp)
    5348:	68 5e 9e 00 00       	push   $0x9e5e
    534d:	6a 03                	push   $0x3
    534f:	6a ff                	push   $0xffffffff
    5351:	e8 1a 64 00 00       	call   b770 <log_msg@plt>
    5356:	c7 04 24 70 52 00 00 	movl   $0x5270,(%esp)
    535d:	e8 fe 21 00 00       	call   7560 <hound_server_devices_iterate>
    5362:	c7 04 24 00 00 00 00 	movl   $0x0,(%esp)
    5369:	e8 b2 62 00 00       	call   b620 <task_retval@plt>
    536e:	83 c8 ff             	or     $0xffffffff,%eax
    5371:	f0 0f c1 05 24 d7 00 	lock xadd %eax,0xd724
    5378:	00 
    5379:	83 c4 10             	add    $0x10,%esp
    537c:	48                   	dec    %eax
    537d:	0f 88 8a 00 00 00    	js     540d <main+0x17d>
    5383:	83 ec 0c             	sub    $0xc,%esp
    5386:	6a 03                	push   $0x3
    5388:	e8 13 66 00 00       	call   b9a0 <fibril_switch@plt>
    538d:	83 c4 10             	add    $0x10,%esp
    5390:	eb 1d                	jmp    53af <main+0x11f>
    5392:	83 ec 0c             	sub    $0xc,%esp
    5395:	50                   	push   %eax
    5396:	e8 95 65 00 00       	call   b930 <str_error@plt>
    539b:	50                   	push   %eax
    539c:	68 a4 9e 00 00       	push   $0x9ea4
    53a1:	6a 00                	push   $0x0
    53a3:	6a ff                	push   $0xffffffff
    53a5:	f7 db                	neg    %ebx
    53a7:	e8 c4 63 00 00       	call   b770 <log_msg@plt>
    53ac:	83 c4 20             	add    $0x20,%esp
    53af:	8d 65 f8             	lea    -0x8(%ebp),%esp
    53b2:	89 d8                	mov    %ebx,%eax
    53b4:	59                   	pop    %ecx
    53b5:	5b                   	pop    %ebx
    53b6:	5d                   	pop    %ebp
    53b7:	8d 61 fc             	lea    -0x4(%ecx),%esp
    53ba:	c3                   	ret    
    53bb:	83 ec 0c             	sub    $0xc,%esp
    53be:	bb 01 00 00 00       	mov    $0x1,%ebx
    53c3:	68 7c 9e 00 00       	push   $0x9e7c
    53c8:	e8 73 62 00 00       	call   b640 <printf@plt>
    53cd:	83 c4 10             	add    $0x10,%esp
    53d0:	eb dd                	jmp    53af <main+0x11f>
    53d2:	83 ec 0c             	sub    $0xc,%esp
    53d5:	f7 db                	neg    %ebx
    53d7:	50                   	push   %eax
    53d8:	e8 53 65 00 00       	call   b930 <str_error@plt>
    53dd:	50                   	push   %eax
    53de:	68 d0 9e 00 00       	push   $0x9ed0
    53e3:	6a 00                	push   $0x0
    53e5:	6a ff                	push   $0xffffffff
    53e7:	e8 84 63 00 00       	call   b770 <log_msg@plt>
    53ec:	83 c4 14             	add    $0x14,%esp
    53ef:	ff 75 f4             	pushl  -0xc(%ebp)
    53f2:	e8 49 21 00 00       	call   7540 <hound_server_unregister>
    53f7:	83 c4 10             	add    $0x10,%esp
    53fa:	eb b3                	jmp    53af <main+0x11f>
    53fc:	83 ec 0c             	sub    $0xc,%esp
    53ff:	50                   	push   %eax
    5400:	e8 2b 65 00 00       	call   b930 <str_error@plt>
    5405:	50                   	push   %eax
    5406:	68 40 9e 00 00       	push   $0x9e40
    540b:	eb 94                	jmp    53a1 <main+0x111>
    540d:	50                   	push   %eax
    540e:	6a 0b                	push   $0xb
    5410:	6a 00                	push   $0x0
    5412:	6a 00                	push   $0x0
    5414:	6a 00                	push   $0x0
    5416:	6a 00                	push   $0x0
    5418:	6a 00                	push   $0x0
    541a:	68 24 d7 00 00       	push   $0xd724
    541f:	ff 15 20 d7 00 00    	call   *0xd720
    5425:	83 c4 20             	add    $0x20,%esp
    5428:	e9 56 ff ff ff       	jmp    5383 <main+0xf3>
    542d:	66 90                	xchg   %ax,%ax
    542f:	90                   	nop

00005430 <remote_audio_pcm_stop_capture>:
    5430:	55                   	push   %ebp
    5431:	89 e5                	mov    %esp,%ebp
    5433:	53                   	push   %ebx
    5434:	50                   	push   %eax
    5435:	8b 45 14             	mov    0x14(%ebp),%eax
    5438:	8b 4d 08             	mov    0x8(%ebp),%ecx
    543b:	8b 5d 10             	mov    0x10(%ebp),%ebx
    543e:	8b 50 08             	mov    0x8(%eax),%edx
    5441:	85 d2                	test   %edx,%edx
    5443:	8b 55 0c             	mov    0xc(%ebp),%edx
    5446:	0f 95 c0             	setne  %al
    5449:	8b 52 2c             	mov    0x2c(%edx),%edx
    544c:	85 d2                	test   %edx,%edx
    544e:	74 20                	je     5470 <remote_audio_pcm_stop_capture+0x40>
    5450:	83 ec 08             	sub    $0x8,%esp
    5453:	25 ff 00 00 00       	and    $0xff,%eax
    5458:	50                   	push   %eax
    5459:	51                   	push   %ecx
    545a:	ff d2                	call   *%edx
    545c:	89 5d 08             	mov    %ebx,0x8(%ebp)
    545f:	83 c4 10             	add    $0x10,%esp
    5462:	8b 5d fc             	mov    -0x4(%ebp),%ebx
    5465:	89 45 0c             	mov    %eax,0xc(%ebp)
    5468:	c9                   	leave  
    5469:	e9 d2 62 00 00       	jmp    b740 <async_answer_0@plt>
    546e:	66 90                	xchg   %ax,%ax
    5470:	89 5d 08             	mov    %ebx,0x8(%ebp)
    5473:	b8 f5 ff ff ff       	mov    $0xfffffff5,%eax
    5478:	8b 5d fc             	mov    -0x4(%ebp),%ebx
    547b:	89 45 0c             	mov    %eax,0xc(%ebp)
    547e:	c9                   	leave  
    547f:	e9 bc 62 00 00       	jmp    b740 <async_answer_0@plt>
    5484:	8d b6 00 00 00 00    	lea    0x0(%esi),%esi
    548a:	8d bf 00 00 00 00    	lea    0x0(%edi),%edi

00005490 <remote_audio_pcm_start_capture>:
    5490:	55                   	push   %ebp
    5491:	89 e5                	mov    %esp,%ebp
    5493:	57                   	push   %edi
    5494:	56                   	push   %esi
    5495:	53                   	push   %ebx
    5496:	83 ec 0c             	sub    $0xc,%esp
    5499:	8b 55 14             	mov    0x14(%ebp),%edx
    549c:	8b 7d 0c             	mov    0xc(%ebp),%edi
    549f:	8b 4d 08             	mov    0x8(%ebp),%ecx
    54a2:	8b 5d 10             	mov    0x10(%ebp),%ebx
    54a5:	8b 42 10             	mov    0x10(%edx),%eax
    54a8:	8b 7f 28             	mov    0x28(%edi),%edi
    54ab:	89 c6                	mov    %eax,%esi
    54ad:	25 ff ff 00 00       	and    $0xffff,%eax
    54b2:	c1 ee 10             	shr    $0x10,%esi
    54b5:	85 ff                	test   %edi,%edi
    54b7:	74 27                	je     54e0 <remote_audio_pcm_start_capture+0x50>
    54b9:	83 ec 0c             	sub    $0xc,%esp
    54bc:	50                   	push   %eax
    54bd:	8b 42 0c             	mov    0xc(%edx),%eax
    54c0:	50                   	push   %eax
    54c1:	56                   	push   %esi
    54c2:	8b 52 08             	mov    0x8(%edx),%edx
    54c5:	52                   	push   %edx
    54c6:	51                   	push   %ecx
    54c7:	ff d7                	call   *%edi
    54c9:	83 c4 20             	add    $0x20,%esp
    54cc:	89 5d 08             	mov    %ebx,0x8(%ebp)
    54cf:	89 45 0c             	mov    %eax,0xc(%ebp)
    54d2:	8d 65 f4             	lea    -0xc(%ebp),%esp
    54d5:	5b                   	pop    %ebx
    54d6:	5e                   	pop    %esi
    54d7:	5f                   	pop    %edi
    54d8:	5d                   	pop    %ebp
    54d9:	e9 62 62 00 00       	jmp    b740 <async_answer_0@plt>
    54de:	66 90                	xchg   %ax,%ax
    54e0:	b8 f5 ff ff ff       	mov    $0xfffffff5,%eax
    54e5:	eb e5                	jmp    54cc <remote_audio_pcm_start_capture+0x3c>
    54e7:	89 f6                	mov    %esi,%esi
    54e9:	8d bc 27 00 00 00 00 	lea    0x0(%edi,%eiz,1),%edi

000054f0 <remote_audio_pcm_stop_playback>:
    54f0:	55                   	push   %ebp
    54f1:	89 e5                	mov    %esp,%ebp
    54f3:	53                   	push   %ebx
    54f4:	50                   	push   %eax
    54f5:	8b 45 14             	mov    0x14(%ebp),%eax
    54f8:	8b 4d 08             	mov    0x8(%ebp),%ecx
    54fb:	8b 5d 10             	mov    0x10(%ebp),%ebx
    54fe:	8b 50 08             	mov    0x8(%eax),%edx
    5501:	85 d2                	test   %edx,%edx
    5503:	8b 55 0c             	mov    0xc(%ebp),%edx
    5506:	0f 95 c0             	setne  %al
    5509:	8b 52 24             	mov    0x24(%edx),%edx
    550c:	85 d2                	test   %edx,%edx
    550e:	74 20                	je     5530 <remote_audio_pcm_stop_playback+0x40>
    5510:	83 ec 08             	sub    $0x8,%esp
    5513:	25 ff 00 00 00       	and    $0xff,%eax
    5518:	50                   	push   %eax
    5519:	51                   	push   %ecx
    551a:	ff d2                	call   *%edx
    551c:	89 5d 08             	mov    %ebx,0x8(%ebp)
    551f:	83 c4 10             	add    $0x10,%esp
    5522:	8b 5d fc             	mov    -0x4(%ebp),%ebx
    5525:	89 45 0c             	mov    %eax,0xc(%ebp)
    5528:	c9                   	leave  
    5529:	e9 12 62 00 00       	jmp    b740 <async_answer_0@plt>
    552e:	66 90                	xchg   %ax,%ax
    5530:	89 5d 08             	mov    %ebx,0x8(%ebp)
    5533:	b8 f5 ff ff ff       	mov    $0xfffffff5,%eax
    5538:	8b 5d fc             	mov    -0x4(%ebp),%ebx
    553b:	89 45 0c             	mov    %eax,0xc(%ebp)
    553e:	c9                   	leave  
    553f:	e9 fc 61 00 00       	jmp    b740 <async_answer_0@plt>
    5544:	8d b6 00 00 00 00    	lea    0x0(%esi),%esi
    554a:	8d bf 00 00 00 00    	lea    0x0(%edi),%edi

00005550 <remote_audio_pcm_start_playback>:
    5550:	55                   	push   %ebp
    5551:	89 e5                	mov    %esp,%ebp
    5553:	57                   	push   %edi
    5554:	56                   	push   %esi
    5555:	53                   	push   %ebx
    5556:	83 ec 0c             	sub    $0xc,%esp
    5559:	8b 4d 14             	mov    0x14(%ebp),%ecx
    555c:	8b 7d 0c             	mov    0xc(%ebp),%edi
    555f:	8b 75 08             	mov    0x8(%ebp),%esi
    5562:	8b 5d 10             	mov    0x10(%ebp),%ebx
    5565:	8b 41 10             	mov    0x10(%ecx),%eax
    5568:	8b 7f 20             	mov    0x20(%edi),%edi
    556b:	89 c2                	mov    %eax,%edx
    556d:	25 ff ff 00 00       	and    $0xffff,%eax
    5572:	c1 ea 10             	shr    $0x10,%edx
    5575:	81 e2 ff 00 00 00    	and    $0xff,%edx
    557b:	85 ff                	test   %edi,%edi
    557d:	74 29                	je     55a8 <remote_audio_pcm_start_playback+0x58>
    557f:	83 ec 0c             	sub    $0xc,%esp
    5582:	50                   	push   %eax
    5583:	8b 41 0c             	mov    0xc(%ecx),%eax
    5586:	50                   	push   %eax
    5587:	52                   	push   %edx
    5588:	8b 51 08             	mov    0x8(%ecx),%edx
    558b:	52                   	push   %edx
    558c:	56                   	push   %esi
    558d:	ff d7                	call   *%edi
    558f:	83 c4 20             	add    $0x20,%esp
    5592:	89 5d 08             	mov    %ebx,0x8(%ebp)
    5595:	89 45 0c             	mov    %eax,0xc(%ebp)
    5598:	8d 65 f4             	lea    -0xc(%ebp),%esp
    559b:	5b                   	pop    %ebx
    559c:	5e                   	pop    %esi
    559d:	5f                   	pop    %edi
    559e:	5d                   	pop    %ebp
    559f:	e9 9c 61 00 00       	jmp    b740 <async_answer_0@plt>
    55a4:	8d 74 26 00          	lea    0x0(%esi,%eiz,1),%esi
    55a8:	b8 f5 ff ff ff       	mov    $0xfffffff5,%eax
    55ad:	eb e3                	jmp    5592 <remote_audio_pcm_start_playback+0x42>
    55af:	90                   	nop

000055b0 <remote_audio_pcm_release_buffer>:
    55b0:	55                   	push   %ebp
    55b1:	89 e5                	mov    %esp,%ebp
    55b3:	53                   	push   %ebx
    55b4:	50                   	push   %eax
    55b5:	8b 45 0c             	mov    0xc(%ebp),%eax
    55b8:	8b 55 08             	mov    0x8(%ebp),%edx
    55bb:	8b 5d 10             	mov    0x10(%ebp),%ebx
    55be:	8b 40 14             	mov    0x14(%eax),%eax
    55c1:	85 c0                	test   %eax,%eax
    55c3:	74 1b                	je     55e0 <remote_audio_pcm_release_buffer+0x30>
    55c5:	83 ec 0c             	sub    $0xc,%esp
    55c8:	52                   	push   %edx
    55c9:	ff d0                	call   *%eax
    55cb:	89 5d 08             	mov    %ebx,0x8(%ebp)
    55ce:	83 c4 10             	add    $0x10,%esp
    55d1:	8b 5d fc             	mov    -0x4(%ebp),%ebx
    55d4:	89 45 0c             	mov    %eax,0xc(%ebp)
    55d7:	c9                   	leave  
    55d8:	e9 63 61 00 00       	jmp    b740 <async_answer_0@plt>
    55dd:	8d 76 00             	lea    0x0(%esi),%esi
    55e0:	89 5d 08             	mov    %ebx,0x8(%ebp)
    55e3:	b8 f5 ff ff ff       	mov    $0xfffffff5,%eax
    55e8:	8b 5d fc             	mov    -0x4(%ebp),%ebx
    55eb:	89 45 0c             	mov    %eax,0xc(%ebp)
    55ee:	c9                   	leave  
    55ef:	e9 4c 61 00 00       	jmp    b740 <async_answer_0@plt>
    55f4:	8d b6 00 00 00 00    	lea    0x0(%esi),%esi
    55fa:	8d bf 00 00 00 00    	lea    0x0(%edi),%edi

00005600 <remote_audio_pcm_events_unregister>:
    5600:	55                   	push   %ebp
    5601:	89 e5                	mov    %esp,%ebp
    5603:	57                   	push   %edi
    5604:	56                   	push   %esi
    5605:	53                   	push   %ebx
    5606:	83 ec 0c             	sub    $0xc,%esp
    5609:	8b 5d 0c             	mov    0xc(%ebp),%ebx
    560c:	8b 75 08             	mov    0x8(%ebp),%esi
    560f:	8b 7d 10             	mov    0x10(%ebp),%edi
    5612:	8b 43 1c             	mov    0x1c(%ebx),%eax
    5615:	85 c0                	test   %eax,%eax
    5617:	74 3f                	je     5658 <remote_audio_pcm_events_unregister+0x58>
    5619:	8b 4b 18             	mov    0x18(%ebx),%ecx
    561c:	85 c9                	test   %ecx,%ecx
    561e:	74 38                	je     5658 <remote_audio_pcm_events_unregister+0x58>
    5620:	83 ec 0c             	sub    $0xc,%esp
    5623:	56                   	push   %esi
    5624:	ff d0                	call   *%eax
    5626:	83 c4 10             	add    $0x10,%esp
    5629:	85 c0                	test   %eax,%eax
    562b:	74 14                	je     5641 <remote_audio_pcm_events_unregister+0x41>
    562d:	83 ec 0c             	sub    $0xc,%esp
    5630:	50                   	push   %eax
    5631:	e8 1a 60 00 00       	call   b650 <async_hangup@plt>
    5636:	58                   	pop    %eax
    5637:	5a                   	pop    %edx
    5638:	6a 00                	push   $0x0
    563a:	56                   	push   %esi
    563b:	ff 53 18             	call   *0x18(%ebx)
    563e:	83 c4 10             	add    $0x10,%esp
    5641:	89 7d 08             	mov    %edi,0x8(%ebp)
    5644:	c7 45 0c 00 00 00 00 	movl   $0x0,0xc(%ebp)
    564b:	8d 65 f4             	lea    -0xc(%ebp),%esp
    564e:	5b                   	pop    %ebx
    564f:	5e                   	pop    %esi
    5650:	5f                   	pop    %edi
    5651:	5d                   	pop    %ebp
    5652:	e9 e9 60 00 00       	jmp    b740 <async_answer_0@plt>
    5657:	90                   	nop
    5658:	89 7d 08             	mov    %edi,0x8(%ebp)
    565b:	c7 45 0c f5 ff ff ff 	movl   $0xfffffff5,0xc(%ebp)
    5662:	8d 65 f4             	lea    -0xc(%ebp),%esp
    5665:	5b                   	pop    %ebx
    5666:	5e                   	pop    %esi
    5667:	5f                   	pop    %edi
    5668:	5d                   	pop    %ebp
    5669:	e9 d2 60 00 00       	jmp    b740 <async_answer_0@plt>
    566e:	66 90                	xchg   %ax,%ax

00005670 <remote_audio_pcm_get_buffer_pos>:
    5670:	55                   	push   %ebp
    5671:	89 e5                	mov    %esp,%ebp
    5673:	83 ec 18             	sub    $0x18,%esp
    5676:	8b 45 0c             	mov    0xc(%ebp),%eax
    5679:	c7 45 f4 00 00 00 00 	movl   $0x0,-0xc(%ebp)
    5680:	8b 40 0c             	mov    0xc(%eax),%eax
    5683:	85 c0                	test   %eax,%eax
    5685:	74 29                	je     56b0 <remote_audio_pcm_get_buffer_pos+0x40>
    5687:	8b 4d 08             	mov    0x8(%ebp),%ecx
    568a:	52                   	push   %edx
    568b:	52                   	push   %edx
    568c:	8d 55 f4             	lea    -0xc(%ebp),%edx
    568f:	52                   	push   %edx
    5690:	51                   	push   %ecx
    5691:	ff d0                	call   *%eax
    5693:	8b 55 f4             	mov    -0xc(%ebp),%edx
    5696:	83 c4 10             	add    $0x10,%esp
    5699:	51                   	push   %ecx
    569a:	52                   	push   %edx
    569b:	50                   	push   %eax
    569c:	8b 45 10             	mov    0x10(%ebp),%eax
    569f:	50                   	push   %eax
    56a0:	e8 6b 62 00 00       	call   b910 <async_answer_1@plt>
    56a5:	83 c4 10             	add    $0x10,%esp
    56a8:	c9                   	leave  
    56a9:	c3                   	ret    
    56aa:	8d b6 00 00 00 00    	lea    0x0(%esi),%esi
    56b0:	b8 f5 ff ff ff       	mov    $0xfffffff5,%eax
    56b5:	31 d2                	xor    %edx,%edx
    56b7:	eb e0                	jmp    5699 <remote_audio_pcm_get_buffer_pos+0x29>
    56b9:	8d b4 26 00 00 00 00 	lea    0x0(%esi,%eiz,1),%esi

000056c0 <remote_audio_pcm_query_caps>:
    56c0:	55                   	push   %ebp
    56c1:	89 e5                	mov    %esp,%ebp
    56c3:	53                   	push   %ebx
    56c4:	53                   	push   %ebx
    56c5:	8b 45 0c             	mov    0xc(%ebp),%eax
    56c8:	8b 55 08             	mov    0x8(%ebp),%edx
    56cb:	8b 5d 10             	mov    0x10(%ebp),%ebx
    56ce:	8b 4d 14             	mov    0x14(%ebp),%ecx
    56d1:	8b 40 08             	mov    0x8(%eax),%eax
    56d4:	85 c0                	test   %eax,%eax
    56d6:	74 28                	je     5700 <remote_audio_pcm_query_caps+0x40>
    56d8:	83 ec 08             	sub    $0x8,%esp
    56db:	8b 49 08             	mov    0x8(%ecx),%ecx
    56de:	51                   	push   %ecx
    56df:	52                   	push   %edx
    56e0:	ff d0                	call   *%eax
    56e2:	89 5d 08             	mov    %ebx,0x8(%ebp)
    56e5:	83 c4 10             	add    $0x10,%esp
    56e8:	8b 5d fc             	mov    -0x4(%ebp),%ebx
    56eb:	89 45 10             	mov    %eax,0x10(%ebp)
    56ee:	c7 45 0c 00 00 00 00 	movl   $0x0,0xc(%ebp)
    56f5:	c9                   	leave  
    56f6:	e9 15 62 00 00       	jmp    b910 <async_answer_1@plt>
    56fb:	90                   	nop
    56fc:	8d 74 26 00          	lea    0x0(%esi,%eiz,1),%esi
    5700:	89 5d 08             	mov    %ebx,0x8(%ebp)
    5703:	8b 5d fc             	mov    -0x4(%ebp),%ebx
    5706:	c7 45 0c f5 ff ff ff 	movl   $0xfffffff5,0xc(%ebp)
    570d:	c9                   	leave  
    570e:	e9 2d 60 00 00       	jmp    b740 <async_answer_0@plt>
    5713:	8d b6 00 00 00 00    	lea    0x0(%esi),%esi
    5719:	8d bc 27 00 00 00 00 	lea    0x0(%edi,%eiz,1),%edi

00005720 <remote_audio_pcm_get_buffer>:
    5720:	55                   	push   %ebp
    5721:	89 e5                	mov    %esp,%ebp
    5723:	56                   	push   %esi
    5724:	53                   	push   %ebx
    5725:	83 ec 10             	sub    $0x10,%esp
    5728:	8b 5d 0c             	mov    0xc(%ebp),%ebx
    572b:	8b 43 10             	mov    0x10(%ebx),%eax
    572e:	85 c0                	test   %eax,%eax
    5730:	0f 84 d2 00 00 00    	je     5808 <remote_audio_pcm_get_buffer+0xe8>
    5736:	8b 53 14             	mov    0x14(%ebx),%edx
    5739:	85 d2                	test   %edx,%edx
    573b:	0f 84 c7 00 00 00    	je     5808 <remote_audio_pcm_get_buffer+0xe8>
    5741:	8b 55 14             	mov    0x14(%ebp),%edx
    5744:	c7 45 e8 00 00 00 00 	movl   $0x0,-0x18(%ebp)
    574b:	8b 52 08             	mov    0x8(%edx),%edx
    574e:	56                   	push   %esi
    574f:	89 55 ec             	mov    %edx,-0x14(%ebp)
    5752:	8d 55 ec             	lea    -0x14(%ebp),%edx
    5755:	52                   	push   %edx
    5756:	8d 55 e8             	lea    -0x18(%ebp),%edx
    5759:	52                   	push   %edx
    575a:	8b 55 08             	mov    0x8(%ebp),%edx
    575d:	52                   	push   %edx
    575e:	ff d0                	call   *%eax
    5760:	83 c4 0c             	add    $0xc,%esp
    5763:	8b 4d ec             	mov    -0x14(%ebp),%ecx
    5766:	89 c6                	mov    %eax,%esi
    5768:	51                   	push   %ecx
    5769:	50                   	push   %eax
    576a:	8b 45 10             	mov    0x10(%ebp),%eax
    576d:	50                   	push   %eax
    576e:	e8 9d 61 00 00       	call   b910 <async_answer_1@plt>
    5773:	83 c4 10             	add    $0x10,%esp
    5776:	85 f6                	test   %esi,%esi
    5778:	74 0e                	je     5788 <remote_audio_pcm_get_buffer+0x68>
    577a:	8d 65 f8             	lea    -0x8(%ebp),%esp
    577d:	5b                   	pop    %ebx
    577e:	5e                   	pop    %esi
    577f:	5d                   	pop    %ebp
    5780:	c3                   	ret    
    5781:	8d b4 26 00 00 00 00 	lea    0x0(%esi,%eiz,1),%esi
    5788:	8b 4d ec             	mov    -0x14(%ebp),%ecx
    578b:	85 c9                	test   %ecx,%ecx
    578d:	74 eb                	je     577a <remote_audio_pcm_get_buffer+0x5a>
    578f:	c7 45 f0 00 00 00 00 	movl   $0x0,-0x10(%ebp)
    5796:	56                   	push   %esi
    5797:	c7 45 f4 00 00 00 00 	movl   $0x0,-0xc(%ebp)
    579e:	56                   	push   %esi
    579f:	68 fa 9e 00 00       	push   $0x9efa
    57a4:	6a 05                	push   $0x5
    57a6:	e8 b5 0d 00 00       	call   6560 <ddf_msg>
    57ab:	58                   	pop    %eax
    57ac:	8d 45 f0             	lea    -0x10(%ebp),%eax
    57af:	5a                   	pop    %edx
    57b0:	50                   	push   %eax
    57b1:	8d 45 f4             	lea    -0xc(%ebp),%eax
    57b4:	50                   	push   %eax
    57b5:	e8 e6 60 00 00       	call   b8a0 <async_share_in_receive@plt>
    57ba:	83 c4 10             	add    $0x10,%esp
    57bd:	84 c0                	test   %al,%al
    57bf:	74 5f                	je     5820 <remote_audio_pcm_get_buffer+0x100>
    57c1:	50                   	push   %eax
    57c2:	50                   	push   %eax
    57c3:	68 c0 a0 00 00       	push   $0xa0c0
    57c8:	6a 05                	push   $0x5
    57ca:	e8 91 0d 00 00       	call   6560 <ddf_msg>
    57cf:	8b 45 ec             	mov    -0x14(%ebp),%eax
    57d2:	83 c4 10             	add    $0x10,%esp
    57d5:	39 45 f0             	cmp    %eax,-0x10(%ebp)
    57d8:	74 76                	je     5850 <remote_audio_pcm_get_buffer+0x130>
    57da:	50                   	push   %eax
    57db:	50                   	push   %eax
    57dc:	68 e0 a0 00 00       	push   $0xa0e0
    57e1:	6a 04                	push   $0x4
    57e3:	e8 78 0d 00 00       	call   6560 <ddf_msg>
    57e8:	8b 55 08             	mov    0x8(%ebp),%edx
    57eb:	58                   	pop    %eax
    57ec:	52                   	push   %edx
    57ed:	ff 53 14             	call   *0x14(%ebx)
    57f0:	8b 75 f4             	mov    -0xc(%ebp),%esi
    57f3:	59                   	pop    %ecx
    57f4:	5b                   	pop    %ebx
    57f5:	6a fd                	push   $0xfffffffd
    57f7:	56                   	push   %esi
    57f8:	e8 43 5f 00 00       	call   b740 <async_answer_0@plt>
    57fd:	83 c4 10             	add    $0x10,%esp
    5800:	e9 75 ff ff ff       	jmp    577a <remote_audio_pcm_get_buffer+0x5a>
    5805:	8d 76 00             	lea    0x0(%esi),%esi
    5808:	50                   	push   %eax
    5809:	50                   	push   %eax
    580a:	8b 45 10             	mov    0x10(%ebp),%eax
    580d:	6a f5                	push   $0xfffffff5
    580f:	50                   	push   %eax
    5810:	e8 2b 5f 00 00       	call   b740 <async_answer_0@plt>
    5815:	83 c4 10             	add    $0x10,%esp
    5818:	8d 65 f8             	lea    -0x8(%ebp),%esp
    581b:	5b                   	pop    %ebx
    581c:	5e                   	pop    %esi
    581d:	5d                   	pop    %ebp
    581e:	c3                   	ret    
    581f:	90                   	nop
    5820:	50                   	push   %eax
    5821:	50                   	push   %eax
    5822:	68 13 9f 00 00       	push   $0x9f13
    5827:	6a 04                	push   $0x4
    5829:	e8 32 0d 00 00       	call   6560 <ddf_msg>
    582e:	58                   	pop    %eax
    582f:	8b 45 08             	mov    0x8(%ebp),%eax
    5832:	50                   	push   %eax
    5833:	ff 53 14             	call   *0x14(%ebx)
    5836:	8b 4d f4             	mov    -0xc(%ebp),%ecx
    5839:	58                   	pop    %eax
    583a:	5a                   	pop    %edx
    583b:	6a f8                	push   $0xfffffff8
    583d:	51                   	push   %ecx
    583e:	e8 fd 5e 00 00       	call   b740 <async_answer_0@plt>
    5843:	83 c4 10             	add    $0x10,%esp
    5846:	e9 2f ff ff ff       	jmp    577a <remote_audio_pcm_get_buffer+0x5a>
    584b:	90                   	nop
    584c:	8d 74 26 00          	lea    0x0(%esi,%eiz,1),%esi
    5850:	50                   	push   %eax
    5851:	50                   	push   %eax
    5852:	68 2f 9f 00 00       	push   $0x9f2f
    5857:	6a 05                	push   $0x5
    5859:	e8 02 0d 00 00       	call   6560 <ddf_msg>
    585e:	83 c4 0c             	add    $0xc,%esp
    5861:	8b 45 e8             	mov    -0x18(%ebp),%eax
    5864:	6a 03                	push   $0x3
    5866:	50                   	push   %eax
    5867:	8b 45 f4             	mov    -0xc(%ebp),%eax
    586a:	50                   	push   %eax
    586b:	e8 e0 60 00 00       	call   b950 <async_share_in_finalize@plt>
    5870:	83 c4 10             	add    $0x10,%esp
    5873:	85 c0                	test   %eax,%eax
    5875:	74 1e                	je     5895 <remote_audio_pcm_get_buffer+0x175>
    5877:	51                   	push   %ecx
    5878:	51                   	push   %ecx
    5879:	68 47 9f 00 00       	push   $0x9f47
    587e:	6a 04                	push   $0x4
    5880:	e8 db 0c 00 00       	call   6560 <ddf_msg>
    5885:	8b 45 08             	mov    0x8(%ebp),%eax
    5888:	5e                   	pop    %esi
    5889:	50                   	push   %eax
    588a:	ff 53 14             	call   *0x14(%ebx)
    588d:	83 c4 10             	add    $0x10,%esp
    5890:	e9 e5 fe ff ff       	jmp    577a <remote_audio_pcm_get_buffer+0x5a>
    5895:	8b 55 f0             	mov    -0x10(%ebp),%edx
    5898:	50                   	push   %eax
    5899:	52                   	push   %edx
    589a:	68 5f 9f 00 00       	push   $0x9f5f
    589f:	6a 05                	push   $0x5
    58a1:	e8 ba 0c 00 00       	call   6560 <ddf_msg>
    58a6:	83 c4 10             	add    $0x10,%esp
    58a9:	e9 cc fe ff ff       	jmp    577a <remote_audio_pcm_get_buffer+0x5a>
    58ae:	66 90                	xchg   %ax,%ax

000058b0 <remote_audio_pcm_test_format>:
    58b0:	55                   	push   %ebp
    58b1:	89 e5                	mov    %esp,%ebp
    58b3:	53                   	push   %ebx
    58b4:	83 ec 14             	sub    $0x14,%esp
    58b7:	8b 45 14             	mov    0x14(%ebp),%eax
    58ba:	8b 55 0c             	mov    0xc(%ebp),%edx
    58bd:	8b 48 08             	mov    0x8(%eax),%ecx
    58c0:	8b 58 0c             	mov    0xc(%eax),%ebx
    58c3:	8b 52 04             	mov    0x4(%edx),%edx
    58c6:	8b 40 10             	mov    0x10(%eax),%eax
    58c9:	89 4d ec             	mov    %ecx,-0x14(%ebp)
    58cc:	89 5d f0             	mov    %ebx,-0x10(%ebp)
    58cf:	89 45 f4             	mov    %eax,-0xc(%ebp)
    58d2:	85 d2                	test   %edx,%edx
    58d4:	74 3a                	je     5910 <remote_audio_pcm_test_format+0x60>
    58d6:	8d 45 f4             	lea    -0xc(%ebp),%eax
    58d9:	8b 4d 08             	mov    0x8(%ebp),%ecx
    58dc:	50                   	push   %eax
    58dd:	8d 45 f0             	lea    -0x10(%ebp),%eax
    58e0:	50                   	push   %eax
    58e1:	8d 45 ec             	lea    -0x14(%ebp),%eax
    58e4:	50                   	push   %eax
    58e5:	51                   	push   %ecx
    58e6:	ff d2                	call   *%edx
    58e8:	8b 55 f4             	mov    -0xc(%ebp),%edx
    58eb:	8b 5d f0             	mov    -0x10(%ebp),%ebx
    58ee:	8b 4d ec             	mov    -0x14(%ebp),%ecx
    58f1:	83 c4 10             	add    $0x10,%esp
    58f4:	83 ec 0c             	sub    $0xc,%esp
    58f7:	52                   	push   %edx
    58f8:	53                   	push   %ebx
    58f9:	51                   	push   %ecx
    58fa:	50                   	push   %eax
    58fb:	8b 45 10             	mov    0x10(%ebp),%eax
    58fe:	50                   	push   %eax
    58ff:	e8 5c 60 00 00       	call   b960 <async_answer_3@plt>
    5904:	83 c4 20             	add    $0x20,%esp
    5907:	8b 5d fc             	mov    -0x4(%ebp),%ebx
    590a:	c9                   	leave  
    590b:	c3                   	ret    
    590c:	8d 74 26 00          	lea    0x0(%esi,%eiz,1),%esi
    5910:	89 c2                	mov    %eax,%edx
    5912:	b8 f5 ff ff ff       	mov    $0xfffffff5,%eax
    5917:	eb db                	jmp    58f4 <remote_audio_pcm_test_format+0x44>
    5919:	8d b4 26 00 00 00 00 	lea    0x0(%esi,%eiz,1),%esi

00005920 <remote_audio_pcm_events_register>:
    5920:	55                   	push   %ebp
    5921:	89 e5                	mov    %esp,%ebp
    5923:	57                   	push   %edi
    5924:	56                   	push   %esi
    5925:	53                   	push   %ebx
    5926:	83 ec 3c             	sub    $0x3c,%esp
    5929:	8b 5d 0c             	mov    0xc(%ebp),%ebx
    592c:	8b 7b 1c             	mov    0x1c(%ebx),%edi
    592f:	85 ff                	test   %edi,%edi
    5931:	0f 84 91 00 00 00    	je     59c8 <remote_audio_pcm_events_register+0xa8>
    5937:	8b 73 18             	mov    0x18(%ebx),%esi
    593a:	85 f6                	test   %esi,%esi
    593c:	0f 84 86 00 00 00    	je     59c8 <remote_audio_pcm_events_register+0xa8>
    5942:	8b 75 10             	mov    0x10(%ebp),%esi
    5945:	51                   	push   %ecx
    5946:	51                   	push   %ecx
    5947:	6a 00                	push   $0x0
    5949:	56                   	push   %esi
    594a:	8d 75 c4             	lea    -0x3c(%ebp),%esi
    594d:	e8 ee 5d 00 00       	call   b740 <async_answer_0@plt>
    5952:	5f                   	pop    %edi
    5953:	58                   	pop    %eax
    5954:	6a 00                	push   $0x0
    5956:	56                   	push   %esi
    5957:	e8 84 5f 00 00       	call   b8e0 <async_get_call_timeout@plt>
    595c:	89 c7                	mov    %eax,%edi
    595e:	58                   	pop    %eax
    595f:	5a                   	pop    %edx
    5960:	56                   	push   %esi
    5961:	6a 00                	push   $0x0
    5963:	e8 a8 5e 00 00       	call   b810 <async_callback_receive_start@plt>
    5968:	83 c4 10             	add    $0x10,%esp
    596b:	89 c6                	mov    %eax,%esi
    596d:	85 c0                	test   %eax,%eax
    596f:	74 6f                	je     59e0 <remote_audio_pcm_events_register+0xc0>
    5971:	50                   	push   %eax
    5972:	50                   	push   %eax
    5973:	8b 45 08             	mov    0x8(%ebp),%eax
    5976:	56                   	push   %esi
    5977:	50                   	push   %eax
    5978:	ff 53 18             	call   *0x18(%ebx)
    597b:	83 c4 10             	add    $0x10,%esp
    597e:	89 c3                	mov    %eax,%ebx
    5980:	85 c0                	test   %eax,%eax
    5982:	74 2c                	je     59b0 <remote_audio_pcm_events_register+0x90>
    5984:	52                   	push   %edx
    5985:	52                   	push   %edx
    5986:	68 7c 9f 00 00       	push   $0x9f7c
    598b:	6a 04                	push   $0x4
    598d:	e8 ce 0b 00 00       	call   6560 <ddf_msg>
    5992:	89 34 24             	mov    %esi,(%esp)
    5995:	e8 b6 5c 00 00       	call   b650 <async_hangup@plt>
    599a:	59                   	pop    %ecx
    599b:	5e                   	pop    %esi
    599c:	53                   	push   %ebx
    599d:	57                   	push   %edi
    599e:	e8 9d 5d 00 00       	call   b740 <async_answer_0@plt>
    59a3:	83 c4 10             	add    $0x10,%esp
    59a6:	8d 65 f4             	lea    -0xc(%ebp),%esp
    59a9:	5b                   	pop    %ebx
    59aa:	5e                   	pop    %esi
    59ab:	5f                   	pop    %edi
    59ac:	5d                   	pop    %ebp
    59ad:	c3                   	ret    
    59ae:	66 90                	xchg   %ax,%ax
    59b0:	50                   	push   %eax
    59b1:	50                   	push   %eax
    59b2:	6a 00                	push   $0x0
    59b4:	57                   	push   %edi
    59b5:	e8 86 5d 00 00       	call   b740 <async_answer_0@plt>
    59ba:	83 c4 10             	add    $0x10,%esp
    59bd:	8d 65 f4             	lea    -0xc(%ebp),%esp
    59c0:	5b                   	pop    %ebx
    59c1:	5e                   	pop    %esi
    59c2:	5f                   	pop    %edi
    59c3:	5d                   	pop    %ebp
    59c4:	c3                   	ret    
    59c5:	8d 76 00             	lea    0x0(%esi),%esi
    59c8:	8b 5d 10             	mov    0x10(%ebp),%ebx
    59cb:	51                   	push   %ecx
    59cc:	51                   	push   %ecx
    59cd:	6a f5                	push   $0xfffffff5
    59cf:	53                   	push   %ebx
    59d0:	e8 6b 5d 00 00       	call   b740 <async_answer_0@plt>
    59d5:	83 c4 10             	add    $0x10,%esp
    59d8:	8d 65 f4             	lea    -0xc(%ebp),%esp
    59db:	5b                   	pop    %ebx
    59dc:	5e                   	pop    %esi
    59dd:	5f                   	pop    %edi
    59de:	5d                   	pop    %ebp
    59df:	c3                   	ret    
    59e0:	50                   	push   %eax
    59e1:	50                   	push   %eax
    59e2:	68 08 a1 00 00       	push   $0xa108
    59e7:	6a 04                	push   $0x4
    59e9:	e8 72 0b 00 00       	call   6560 <ddf_msg>
    59ee:	58                   	pop    %eax
    59ef:	5a                   	pop    %edx
    59f0:	68 06 d5 ff ff       	push   $0xffffd506
    59f5:	57                   	push   %edi
    59f6:	e8 45 5d 00 00       	call   b740 <async_answer_0@plt>
    59fb:	83 c4 10             	add    $0x10,%esp
    59fe:	eb a6                	jmp    59a6 <remote_audio_pcm_events_register+0x86>

00005a00 <remote_audio_pcm_get_info_str>:
    5a00:	55                   	push   %ebp
    5a01:	89 e5                	mov    %esp,%ebp
    5a03:	56                   	push   %esi
    5a04:	53                   	push   %ebx
    5a05:	83 ec 10             	sub    $0x10,%esp
    5a08:	8b 45 0c             	mov    0xc(%ebp),%eax
    5a0b:	8b 00                	mov    (%eax),%eax
    5a0d:	85 c0                	test   %eax,%eax
    5a0f:	0f 84 ab 00 00 00    	je     5ac0 <remote_audio_pcm_get_info_str+0xc0>
    5a15:	8b 4d 08             	mov    0x8(%ebp),%ecx
    5a18:	52                   	push   %edx
    5a19:	c7 45 ec 00 00 00 00 	movl   $0x0,-0x14(%ebp)
    5a20:	52                   	push   %edx
    5a21:	8d 55 ec             	lea    -0x14(%ebp),%edx
    5a24:	52                   	push   %edx
    5a25:	51                   	push   %ecx
    5a26:	ff d0                	call   *%eax
    5a28:	83 c4 10             	add    $0x10,%esp
    5a2b:	89 c6                	mov    %eax,%esi
    5a2d:	8b 45 ec             	mov    -0x14(%ebp),%eax
    5a30:	85 c0                	test   %eax,%eax
    5a32:	74 5c                	je     5a90 <remote_audio_pcm_get_info_str+0x90>
    5a34:	83 ec 0c             	sub    $0xc,%esp
    5a37:	50                   	push   %eax
    5a38:	e8 b3 5e 00 00       	call   b8f0 <str_size@plt>
    5a3d:	83 c4 0c             	add    $0xc,%esp
    5a40:	8d 58 01             	lea    0x1(%eax),%ebx
    5a43:	8b 45 10             	mov    0x10(%ebp),%eax
    5a46:	53                   	push   %ebx
    5a47:	56                   	push   %esi
    5a48:	50                   	push   %eax
    5a49:	e8 c2 5e 00 00       	call   b910 <async_answer_1@plt>
    5a4e:	83 c4 10             	add    $0x10,%esp
    5a51:	85 f6                	test   %esi,%esi
    5a53:	75 2f                	jne    5a84 <remote_audio_pcm_get_info_str+0x84>
    5a55:	85 db                	test   %ebx,%ebx
    5a57:	74 2b                	je     5a84 <remote_audio_pcm_get_info_str+0x84>
    5a59:	50                   	push   %eax
    5a5a:	50                   	push   %eax
    5a5b:	8d 45 f0             	lea    -0x10(%ebp),%eax
    5a5e:	50                   	push   %eax
    5a5f:	8d 45 f4             	lea    -0xc(%ebp),%eax
    5a62:	50                   	push   %eax
    5a63:	e8 18 5e 00 00       	call   b880 <async_data_read_receive@plt>
    5a68:	83 c4 10             	add    $0x10,%esp
    5a6b:	84 c0                	test   %al,%al
    5a6d:	74 69                	je     5ad8 <remote_audio_pcm_get_info_str+0xd8>
    5a6f:	3b 5d f0             	cmp    -0x10(%ebp),%ebx
    5a72:	74 34                	je     5aa8 <remote_audio_pcm_get_info_str+0xa8>
    5a74:	50                   	push   %eax
    5a75:	50                   	push   %eax
    5a76:	8b 45 f4             	mov    -0xc(%ebp),%eax
    5a79:	6a fd                	push   $0xfffffffd
    5a7b:	50                   	push   %eax
    5a7c:	e8 bf 5c 00 00       	call   b740 <async_answer_0@plt>
    5a81:	83 c4 10             	add    $0x10,%esp
    5a84:	8d 65 f8             	lea    -0x8(%ebp),%esp
    5a87:	5b                   	pop    %ebx
    5a88:	5e                   	pop    %esi
    5a89:	5d                   	pop    %ebp
    5a8a:	c3                   	ret    
    5a8b:	90                   	nop
    5a8c:	8d 74 26 00          	lea    0x0(%esi,%eiz,1),%esi
    5a90:	8b 55 10             	mov    0x10(%ebp),%edx
    5a93:	50                   	push   %eax
    5a94:	6a 00                	push   $0x0
    5a96:	56                   	push   %esi
    5a97:	52                   	push   %edx
    5a98:	e8 73 5e 00 00       	call   b910 <async_answer_1@plt>
    5a9d:	83 c4 10             	add    $0x10,%esp
    5aa0:	8d 65 f8             	lea    -0x8(%ebp),%esp
    5aa3:	5b                   	pop    %ebx
    5aa4:	5e                   	pop    %esi
    5aa5:	5d                   	pop    %ebp
    5aa6:	c3                   	ret    
    5aa7:	90                   	nop
    5aa8:	8b 75 f4             	mov    -0xc(%ebp),%esi
    5aab:	51                   	push   %ecx
    5aac:	53                   	push   %ebx
    5aad:	8b 5d ec             	mov    -0x14(%ebp),%ebx
    5ab0:	53                   	push   %ebx
    5ab1:	56                   	push   %esi
    5ab2:	e8 f9 5b 00 00       	call   b6b0 <async_data_read_finalize@plt>
    5ab7:	83 c4 10             	add    $0x10,%esp
    5aba:	eb c8                	jmp    5a84 <remote_audio_pcm_get_info_str+0x84>
    5abc:	8d 74 26 00          	lea    0x0(%esi,%eiz,1),%esi
    5ac0:	8b 75 10             	mov    0x10(%ebp),%esi
    5ac3:	53                   	push   %ebx
    5ac4:	53                   	push   %ebx
    5ac5:	6a f5                	push   $0xfffffff5
    5ac7:	56                   	push   %esi
    5ac8:	e8 73 5c 00 00       	call   b740 <async_answer_0@plt>
    5acd:	83 c4 10             	add    $0x10,%esp
    5ad0:	8d 65 f8             	lea    -0x8(%ebp),%esp
    5ad3:	5b                   	pop    %ebx
    5ad4:	5e                   	pop    %esi
    5ad5:	5d                   	pop    %ebp
    5ad6:	c3                   	ret    
    5ad7:	90                   	nop
    5ad8:	50                   	push   %eax
    5ad9:	50                   	push   %eax
    5ada:	8b 45 f4             	mov    -0xc(%ebp),%eax
    5add:	6a f8                	push   $0xfffffff8
    5adf:	50                   	push   %eax
    5ae0:	e8 5b 5c 00 00       	call   b740 <async_answer_0@plt>
    5ae5:	83 c4 10             	add    $0x10,%esp
    5ae8:	eb 9a                	jmp    5a84 <remote_audio_pcm_get_info_str+0x84>
    5aea:	8d b6 00 00 00 00    	lea    0x0(%esi),%esi

00005af0 <audio_pcm_cap_str>:
    5af0:	55                   	push   %ebp
    5af1:	b8 9a 9f 00 00       	mov    $0x9f9a,%eax
    5af6:	89 e5                	mov    %esp,%ebp
    5af8:	8b 55 08             	mov    0x8(%ebp),%edx
    5afb:	83 fa 06             	cmp    $0x6,%edx
    5afe:	77 07                	ja     5b07 <audio_pcm_cap_str+0x17>
    5b00:	8b 04 95 78 b1 00 00 	mov    0xb178(,%edx,4),%eax
    5b07:	5d                   	pop    %ebp
    5b08:	c3                   	ret    
    5b09:	8d b4 26 00 00 00 00 	lea    0x0(%esi,%eiz,1),%esi

00005b10 <audio_pcm_event_str>:
    5b10:	55                   	push   %ebp
    5b11:	b8 a6 9f 00 00       	mov    $0x9fa6,%eax
    5b16:	89 e5                	mov    %esp,%ebp
    5b18:	8b 55 08             	mov    0x8(%ebp),%edx
    5b1b:	81 fa 05 04 00 00    	cmp    $0x405,%edx
    5b21:	77 07                	ja     5b2a <audio_pcm_event_str+0x1a>
    5b23:	8b 04 95 60 a1 00 00 	mov    0xa160(,%edx,4),%eax
    5b2a:	5d                   	pop    %ebp
    5b2b:	c3                   	ret    
    5b2c:	8d 74 26 00          	lea    0x0(%esi,%eiz,1),%esi

00005b30 <audio_pcm_open_default>:
    5b30:	55                   	push   %ebp
    5b31:	89 e5                	mov    %esp,%ebp
    5b33:	83 ec 28             	sub    $0x28,%esp
    5b36:	80 3d 7c d7 00 00 00 	cmpb   $0x0,0xd77c
    5b3d:	75 20                	jne    5b5f <audio_pcm_open_default+0x2f>
    5b3f:	50                   	push   %eax
    5b40:	6a 01                	push   $0x1
    5b42:	68 78 d7 00 00       	push   $0xd778
    5b47:	68 b4 9f 00 00       	push   $0x9fb4
    5b4c:	e8 af 5a 00 00       	call   b600 <loc_category_get_id@plt>
    5b51:	83 c4 10             	add    $0x10,%esp
    5b54:	85 c0                	test   %eax,%eax
    5b56:	75 68                	jne    5bc0 <audio_pcm_open_default+0x90>
    5b58:	c6 05 7c d7 00 00 01 	movb   $0x1,0xd77c
    5b5f:	8d 45 f4             	lea    -0xc(%ebp),%eax
    5b62:	51                   	push   %ecx
    5b63:	50                   	push   %eax
    5b64:	8d 45 f0             	lea    -0x10(%ebp),%eax
    5b67:	50                   	push   %eax
    5b68:	a1 78 d7 00 00       	mov    0xd778,%eax
    5b6d:	50                   	push   %eax
    5b6e:	c7 45 f0 00 00 00 00 	movl   $0x0,-0x10(%ebp)
    5b75:	c7 45 f4 00 00 00 00 	movl   $0x0,-0xc(%ebp)
    5b7c:	e8 4f 5d 00 00       	call   b8d0 <loc_category_get_svcs@plt>
    5b81:	83 c4 10             	add    $0x10,%esp
    5b84:	85 c0                	test   %eax,%eax
    5b86:	75 38                	jne    5bc0 <audio_pcm_open_default+0x90>
    5b88:	8b 55 f4             	mov    -0xc(%ebp),%edx
    5b8b:	85 d2                	test   %edx,%edx
    5b8d:	75 19                	jne    5ba8 <audio_pcm_open_default+0x78>
    5b8f:	83 ec 0c             	sub    $0xc,%esp
    5b92:	89 45 e4             	mov    %eax,-0x1c(%ebp)
    5b95:	8b 45 f0             	mov    -0x10(%ebp),%eax
    5b98:	50                   	push   %eax
    5b99:	e8 32 5e 00 00       	call   b9d0 <free@plt>
    5b9e:	8b 45 e4             	mov    -0x1c(%ebp),%eax
    5ba1:	83 c4 10             	add    $0x10,%esp
    5ba4:	c9                   	leave  
    5ba5:	c3                   	ret    
    5ba6:	66 90                	xchg   %ax,%ax
    5ba8:	8b 45 f0             	mov    -0x10(%ebp),%eax
    5bab:	52                   	push   %edx
    5bac:	6a 01                	push   $0x1
    5bae:	68 41 26 9b 41       	push   $0x419b2641
    5bb3:	8b 08                	mov    (%eax),%ecx
    5bb5:	51                   	push   %ecx
    5bb6:	e8 75 5a 00 00       	call   b630 <loc_service_connect@plt>
    5bbb:	83 c4 10             	add    $0x10,%esp
    5bbe:	eb cf                	jmp    5b8f <audio_pcm_open_default+0x5f>
    5bc0:	31 c0                	xor    %eax,%eax
    5bc2:	c9                   	leave  
    5bc3:	c3                   	ret    
    5bc4:	8d b6 00 00 00 00    	lea    0x0(%esi),%esi
    5bca:	8d bf 00 00 00 00    	lea    0x0(%edi),%edi

00005bd0 <audio_pcm_open>:
    5bd0:	55                   	push   %ebp
    5bd1:	89 e5                	mov    %esp,%ebp
    5bd3:	83 ec 1c             	sub    $0x1c,%esp
    5bd6:	8d 45 f4             	lea    -0xc(%ebp),%eax
    5bd9:	8b 4d 08             	mov    0x8(%ebp),%ecx
    5bdc:	6a 00                	push   $0x0
    5bde:	c7 45 f4 00 00 00 00 	movl   $0x0,-0xc(%ebp)
    5be5:	50                   	push   %eax
    5be6:	51                   	push   %ecx
    5be7:	e8 54 5d 00 00       	call   b940 <devman_fun_get_handle@plt>
    5bec:	83 c4 10             	add    $0x10,%esp
    5bef:	85 c0                	test   %eax,%eax
    5bf1:	75 15                	jne    5c08 <audio_pcm_open+0x38>
    5bf3:	8b 55 f4             	mov    -0xc(%ebp),%edx
    5bf6:	50                   	push   %eax
    5bf7:	50                   	push   %eax
    5bf8:	6a 01                	push   $0x1
    5bfa:	52                   	push   %edx
    5bfb:	e8 10 5a 00 00       	call   b610 <devman_device_connect@plt>
    5c00:	83 c4 10             	add    $0x10,%esp
    5c03:	c9                   	leave  
    5c04:	c3                   	ret    
    5c05:	8d 76 00             	lea    0x0(%esi),%esi
    5c08:	31 c0                	xor    %eax,%eax
    5c0a:	c9                   	leave  
    5c0b:	c3                   	ret    
    5c0c:	8d 74 26 00          	lea    0x0(%esi,%eiz,1),%esi

00005c10 <audio_pcm_open_service>:
    5c10:	55                   	push   %ebp
    5c11:	89 e5                	mov    %esp,%ebp
    5c13:	83 ec 0c             	sub    $0xc,%esp
    5c16:	8b 45 08             	mov    0x8(%ebp),%eax
    5c19:	6a 01                	push   $0x1
    5c1b:	68 41 26 9b 41       	push   $0x419b2641
    5c20:	50                   	push   %eax
    5c21:	e8 0a 5a 00 00       	call   b630 <loc_service_connect@plt>
    5c26:	c9                   	leave  
    5c27:	c3                   	ret    
    5c28:	90                   	nop
    5c29:	8d b4 26 00 00 00 00 	lea    0x0(%esi,%eiz,1),%esi

00005c30 <audio_pcm_close>:
    5c30:	55                   	push   %ebp
    5c31:	89 e5                	mov    %esp,%ebp
    5c33:	8b 45 08             	mov    0x8(%ebp),%eax
    5c36:	85 c0                	test   %eax,%eax
    5c38:	74 06                	je     5c40 <audio_pcm_close+0x10>
    5c3a:	5d                   	pop    %ebp
    5c3b:	e9 10 5a 00 00       	jmp    b650 <async_hangup@plt>
    5c40:	5d                   	pop    %ebp
    5c41:	c3                   	ret    
    5c42:	8d b4 26 00 00 00 00 	lea    0x0(%esi,%eiz,1),%esi
    5c49:	8d bc 27 00 00 00 00 	lea    0x0(%edi,%eiz,1),%edi

00005c50 <audio_pcm_get_info_str>:
    5c50:	55                   	push   %ebp
    5c51:	89 e5                	mov    %esp,%ebp
    5c53:	57                   	push   %edi
    5c54:	56                   	push   %esi
    5c55:	53                   	push   %ebx
    5c56:	83 ec 2c             	sub    $0x2c,%esp
    5c59:	8b 45 0c             	mov    0xc(%ebp),%eax
    5c5c:	85 c0                	test   %eax,%eax
    5c5e:	0f 84 ac 00 00 00    	je     5d10 <audio_pcm_get_info_str+0xc0>
    5c64:	83 ec 0c             	sub    $0xc,%esp
    5c67:	8b 45 08             	mov    0x8(%ebp),%eax
    5c6a:	50                   	push   %eax
    5c6b:	e8 b0 5c 00 00       	call   b920 <async_exchange_begin@plt>
    5c70:	83 c4 0c             	add    $0xc,%esp
    5c73:	89 c6                	mov    %eax,%esi
    5c75:	8d 45 e4             	lea    -0x1c(%ebp),%eax
    5c78:	6a 00                	push   $0x0
    5c7a:	6a 00                	push   $0x0
    5c7c:	6a 00                	push   $0x0
    5c7e:	6a 00                	push   $0x0
    5c80:	50                   	push   %eax
    5c81:	6a 00                	push   $0x0
    5c83:	6a 00                	push   $0x0
    5c85:	6a 00                	push   $0x0
    5c87:	6a 00                	push   $0x0
    5c89:	68 04 04 00 00       	push   $0x404
    5c8e:	56                   	push   %esi
    5c8f:	e8 6c 5a 00 00       	call   b700 <async_req_fast@plt>
    5c94:	83 c4 30             	add    $0x30,%esp
    5c97:	89 c3                	mov    %eax,%ebx
    5c99:	85 c0                	test   %eax,%eax
    5c9b:	75 2e                	jne    5ccb <audio_pcm_get_info_str+0x7b>
    5c9d:	8b 45 e4             	mov    -0x1c(%ebp),%eax
    5ca0:	57                   	push   %edi
    5ca1:	57                   	push   %edi
    5ca2:	50                   	push   %eax
    5ca3:	6a 01                	push   $0x1
    5ca5:	e8 16 5b 00 00       	call   b7c0 <calloc@plt>
    5caa:	83 c4 10             	add    $0x10,%esp
    5cad:	89 c7                	mov    %eax,%edi
    5caf:	85 c0                	test   %eax,%eax
    5cb1:	74 64                	je     5d17 <audio_pcm_get_info_str+0xc7>
    5cb3:	8b 55 e4             	mov    -0x1c(%ebp),%edx
    5cb6:	50                   	push   %eax
    5cb7:	52                   	push   %edx
    5cb8:	57                   	push   %edi
    5cb9:	56                   	push   %esi
    5cba:	e8 d1 5b 00 00       	call   b890 <async_data_read_start@plt>
    5cbf:	83 c4 10             	add    $0x10,%esp
    5cc2:	85 c0                	test   %eax,%eax
    5cc4:	75 22                	jne    5ce8 <audio_pcm_get_info_str+0x98>
    5cc6:	8b 45 0c             	mov    0xc(%ebp),%eax
    5cc9:	89 38                	mov    %edi,(%eax)
    5ccb:	83 ec 0c             	sub    $0xc,%esp
    5cce:	56                   	push   %esi
    5ccf:	e8 bc 5a 00 00       	call   b790 <async_exchange_end@plt>
    5cd4:	83 c4 10             	add    $0x10,%esp
    5cd7:	89 d8                	mov    %ebx,%eax
    5cd9:	8d 65 f4             	lea    -0xc(%ebp),%esp
    5cdc:	5b                   	pop    %ebx
    5cdd:	5e                   	pop    %esi
    5cde:	5f                   	pop    %edi
    5cdf:	5d                   	pop    %ebp
    5ce0:	c3                   	ret    
    5ce1:	8d b4 26 00 00 00 00 	lea    0x0(%esi,%eiz,1),%esi
    5ce8:	83 ec 0c             	sub    $0xc,%esp
    5ceb:	89 45 d4             	mov    %eax,-0x2c(%ebp)
    5cee:	57                   	push   %edi
    5cef:	e8 dc 5c 00 00       	call   b9d0 <free@plt>
    5cf4:	89 34 24             	mov    %esi,(%esp)
    5cf7:	e8 94 5a 00 00       	call   b790 <async_exchange_end@plt>
    5cfc:	8b 45 d4             	mov    -0x2c(%ebp),%eax
    5cff:	83 c4 10             	add    $0x10,%esp
    5d02:	8d 65 f4             	lea    -0xc(%ebp),%esp
    5d05:	5b                   	pop    %ebx
    5d06:	5e                   	pop    %esi
    5d07:	5f                   	pop    %edi
    5d08:	5d                   	pop    %ebp
    5d09:	c3                   	ret    
    5d0a:	8d b6 00 00 00 00    	lea    0x0(%esi),%esi
    5d10:	b8 f2 ff ff ff       	mov    $0xfffffff2,%eax
    5d15:	eb c2                	jmp    5cd9 <audio_pcm_get_info_str+0x89>
    5d17:	51                   	push   %ecx
    5d18:	6a 00                	push   $0x0
    5d1a:	6a ff                	push   $0xffffffff
    5d1c:	56                   	push   %esi
    5d1d:	e8 6e 5b 00 00       	call   b890 <async_data_read_start@plt>
    5d22:	89 34 24             	mov    %esi,(%esp)
    5d25:	e8 66 5a 00 00       	call   b790 <async_exchange_end@plt>
    5d2a:	83 c4 10             	add    $0x10,%esp
    5d2d:	b8 fe ff ff ff       	mov    $0xfffffffe,%eax
    5d32:	eb a5                	jmp    5cd9 <audio_pcm_get_info_str+0x89>
    5d34:	8d b6 00 00 00 00    	lea    0x0(%esi),%esi
    5d3a:	8d bf 00 00 00 00    	lea    0x0(%edi),%edi

00005d40 <audio_pcm_query_cap>:
    5d40:	55                   	push   %ebp
    5d41:	89 e5                	mov    %esp,%ebp
    5d43:	53                   	push   %ebx
    5d44:	83 ec 30             	sub    $0x30,%esp
    5d47:	8b 45 08             	mov    0x8(%ebp),%eax
    5d4a:	50                   	push   %eax
    5d4b:	e8 d0 5b 00 00       	call   b920 <async_exchange_begin@plt>
    5d50:	83 c4 0c             	add    $0xc,%esp
    5d53:	89 c3                	mov    %eax,%ebx
    5d55:	8b 55 0c             	mov    0xc(%ebp),%edx
    5d58:	8d 45 f4             	lea    -0xc(%ebp),%eax
    5d5b:	6a 00                	push   $0x0
    5d5d:	c7 45 f4 00 00 00 00 	movl   $0x0,-0xc(%ebp)
    5d64:	6a 00                	push   $0x0
    5d66:	6a 00                	push   $0x0
    5d68:	6a 00                	push   $0x0
    5d6a:	50                   	push   %eax
    5d6b:	6a 00                	push   $0x0
    5d6d:	6a 00                	push   $0x0
    5d6f:	52                   	push   %edx
    5d70:	6a 01                	push   $0x1
    5d72:	68 04 04 00 00       	push   $0x404
    5d77:	53                   	push   %ebx
    5d78:	e8 83 59 00 00       	call   b700 <async_req_fast@plt>
    5d7d:	83 c4 24             	add    $0x24,%esp
    5d80:	89 45 e4             	mov    %eax,-0x1c(%ebp)
    5d83:	53                   	push   %ebx
    5d84:	e8 07 5a 00 00       	call   b790 <async_exchange_end@plt>
    5d89:	8b 45 e4             	mov    -0x1c(%ebp),%eax
    5d8c:	83 c4 10             	add    $0x10,%esp
    5d8f:	85 c0                	test   %eax,%eax
    5d91:	75 03                	jne    5d96 <audio_pcm_query_cap+0x56>
    5d93:	8b 45 f4             	mov    -0xc(%ebp),%eax
    5d96:	8b 5d fc             	mov    -0x4(%ebp),%ebx
    5d99:	c9                   	leave  
    5d9a:	c3                   	ret    
    5d9b:	90                   	nop
    5d9c:	8d 74 26 00          	lea    0x0(%esi,%eiz,1),%esi

00005da0 <audio_pcm_get_buffer_pos>:
    5da0:	55                   	push   %ebp
    5da1:	89 e5                	mov    %esp,%ebp
    5da3:	56                   	push   %esi
    5da4:	53                   	push   %ebx
    5da5:	83 ec 20             	sub    $0x20,%esp
    5da8:	8b 75 0c             	mov    0xc(%ebp),%esi
    5dab:	85 f6                	test   %esi,%esi
    5dad:	74 61                	je     5e10 <audio_pcm_get_buffer_pos+0x70>
    5daf:	83 ec 0c             	sub    $0xc,%esp
    5db2:	8b 45 08             	mov    0x8(%ebp),%eax
    5db5:	50                   	push   %eax
    5db6:	e8 65 5b 00 00       	call   b920 <async_exchange_begin@plt>
    5dbb:	83 c4 0c             	add    $0xc,%esp
    5dbe:	89 c3                	mov    %eax,%ebx
    5dc0:	8d 45 f4             	lea    -0xc(%ebp),%eax
    5dc3:	c7 45 f4 00 00 00 00 	movl   $0x0,-0xc(%ebp)
    5dca:	6a 00                	push   $0x0
    5dcc:	6a 00                	push   $0x0
    5dce:	6a 00                	push   $0x0
    5dd0:	6a 00                	push   $0x0
    5dd2:	50                   	push   %eax
    5dd3:	6a 00                	push   $0x0
    5dd5:	6a 00                	push   $0x0
    5dd7:	6a 00                	push   $0x0
    5dd9:	6a 07                	push   $0x7
    5ddb:	68 04 04 00 00       	push   $0x404
    5de0:	53                   	push   %ebx
    5de1:	e8 1a 59 00 00       	call   b700 <async_req_fast@plt>
    5de6:	83 c4 30             	add    $0x30,%esp
    5de9:	85 c0                	test   %eax,%eax
    5deb:	74 1b                	je     5e08 <audio_pcm_get_buffer_pos+0x68>
    5ded:	83 ec 0c             	sub    $0xc,%esp
    5df0:	89 45 e4             	mov    %eax,-0x1c(%ebp)
    5df3:	53                   	push   %ebx
    5df4:	e8 97 59 00 00       	call   b790 <async_exchange_end@plt>
    5df9:	83 c4 10             	add    $0x10,%esp
    5dfc:	8b 45 e4             	mov    -0x1c(%ebp),%eax
    5dff:	8d 65 f8             	lea    -0x8(%ebp),%esp
    5e02:	5b                   	pop    %ebx
    5e03:	5e                   	pop    %esi
    5e04:	5d                   	pop    %ebp
    5e05:	c3                   	ret    
    5e06:	66 90                	xchg   %ax,%ax
    5e08:	8b 55 f4             	mov    -0xc(%ebp),%edx
    5e0b:	89 16                	mov    %edx,(%esi)
    5e0d:	eb de                	jmp    5ded <audio_pcm_get_buffer_pos+0x4d>
    5e0f:	90                   	nop
    5e10:	b8 f2 ff ff ff       	mov    $0xfffffff2,%eax
    5e15:	eb e8                	jmp    5dff <audio_pcm_get_buffer_pos+0x5f>
    5e17:	89 f6                	mov    %esi,%esi
    5e19:	8d bc 27 00 00 00 00 	lea    0x0(%edi,%eiz,1),%edi

00005e20 <audio_pcm_test_format>:
    5e20:	55                   	push   %ebp
    5e21:	89 e5                	mov    %esp,%ebp
    5e23:	57                   	push   %edi
    5e24:	56                   	push   %esi
    5e25:	53                   	push   %ebx
    5e26:	83 ec 38             	sub    $0x38,%esp
    5e29:	8b 45 08             	mov    0x8(%ebp),%eax
    5e2c:	8b 5d 0c             	mov    0xc(%ebp),%ebx
    5e2f:	50                   	push   %eax
    5e30:	e8 eb 5a 00 00       	call   b920 <async_exchange_begin@plt>
    5e35:	83 c4 10             	add    $0x10,%esp
    5e38:	89 c6                	mov    %eax,%esi
    5e3a:	85 db                	test   %ebx,%ebx
    5e3c:	0f 84 be 00 00 00    	je     5f00 <audio_pcm_test_format+0xe0>
    5e42:	8b 03                	mov    (%ebx),%eax
    5e44:	8b 7d 10             	mov    0x10(%ebp),%edi
    5e47:	89 45 dc             	mov    %eax,-0x24(%ebp)
    5e4a:	85 ff                	test   %edi,%edi
    5e4c:	0f 84 be 00 00 00    	je     5f10 <audio_pcm_test_format+0xf0>
    5e52:	8b 4d 10             	mov    0x10(%ebp),%ecx
    5e55:	8b 11                	mov    (%ecx),%edx
    5e57:	8b 4d 14             	mov    0x14(%ebp),%ecx
    5e5a:	89 55 e0             	mov    %edx,-0x20(%ebp)
    5e5d:	85 c9                	test   %ecx,%ecx
    5e5f:	0f 84 bb 00 00 00    	je     5f20 <audio_pcm_test_format+0x100>
    5e65:	8b 7d 14             	mov    0x14(%ebp),%edi
    5e68:	8b 0f                	mov    (%edi),%ecx
    5e6a:	57                   	push   %edi
    5e6b:	8d 7d e4             	lea    -0x1c(%ebp),%edi
    5e6e:	6a 00                	push   $0x0
    5e70:	6a 00                	push   $0x0
    5e72:	57                   	push   %edi
    5e73:	8d 7d e0             	lea    -0x20(%ebp),%edi
    5e76:	57                   	push   %edi
    5e77:	8d 7d dc             	lea    -0x24(%ebp),%edi
    5e7a:	57                   	push   %edi
    5e7b:	89 4d e4             	mov    %ecx,-0x1c(%ebp)
    5e7e:	51                   	push   %ecx
    5e7f:	52                   	push   %edx
    5e80:	50                   	push   %eax
    5e81:	6a 04                	push   $0x4
    5e83:	68 04 04 00 00       	push   $0x404
    5e88:	56                   	push   %esi
    5e89:	e8 72 58 00 00       	call   b700 <async_req_fast@plt>
    5e8e:	83 c4 24             	add    $0x24,%esp
    5e91:	89 45 d4             	mov    %eax,-0x2c(%ebp)
    5e94:	56                   	push   %esi
    5e95:	e8 f6 58 00 00       	call   b790 <async_exchange_end@plt>
    5e9a:	8b 45 d4             	mov    -0x2c(%ebp),%eax
    5e9d:	83 c4 10             	add    $0x10,%esp
    5ea0:	85 c0                	test   %eax,%eax
    5ea2:	74 34                	je     5ed8 <audio_pcm_test_format+0xb8>
    5ea4:	83 f8 fd             	cmp    $0xfffffffd,%eax
    5ea7:	74 2f                	je     5ed8 <audio_pcm_test_format+0xb8>
    5ea9:	85 db                	test   %ebx,%ebx
    5eab:	74 05                	je     5eb2 <audio_pcm_test_format+0x92>
    5ead:	8b 55 dc             	mov    -0x24(%ebp),%edx
    5eb0:	89 13                	mov    %edx,(%ebx)
    5eb2:	8b 4d 10             	mov    0x10(%ebp),%ecx
    5eb5:	85 c9                	test   %ecx,%ecx
    5eb7:	74 08                	je     5ec1 <audio_pcm_test_format+0xa1>
    5eb9:	8b 55 e0             	mov    -0x20(%ebp),%edx
    5ebc:	8b 75 10             	mov    0x10(%ebp),%esi
    5ebf:	89 16                	mov    %edx,(%esi)
    5ec1:	8b 55 14             	mov    0x14(%ebp),%edx
    5ec4:	85 d2                	test   %edx,%edx
    5ec6:	74 08                	je     5ed0 <audio_pcm_test_format+0xb0>
    5ec8:	8b 4d 14             	mov    0x14(%ebp),%ecx
    5ecb:	8b 55 e4             	mov    -0x1c(%ebp),%edx
    5ece:	89 11                	mov    %edx,(%ecx)
    5ed0:	8d 65 f4             	lea    -0xc(%ebp),%esp
    5ed3:	5b                   	pop    %ebx
    5ed4:	5e                   	pop    %esi
    5ed5:	5f                   	pop    %edi
    5ed6:	5d                   	pop    %ebp
    5ed7:	c3                   	ret    
    5ed8:	85 db                	test   %ebx,%ebx
    5eda:	74 07                	je     5ee3 <audio_pcm_test_format+0xc3>
    5edc:	8b 55 dc             	mov    -0x24(%ebp),%edx
    5edf:	39 13                	cmp    %edx,(%ebx)
    5ee1:	75 cd                	jne    5eb0 <audio_pcm_test_format+0x90>
    5ee3:	8b 7d 10             	mov    0x10(%ebp),%edi
    5ee6:	85 ff                	test   %edi,%edi
    5ee8:	74 3e                	je     5f28 <audio_pcm_test_format+0x108>
    5eea:	8b 75 10             	mov    0x10(%ebp),%esi
    5eed:	8b 55 e0             	mov    -0x20(%ebp),%edx
    5ef0:	39 16                	cmp    %edx,(%esi)
    5ef2:	74 34                	je     5f28 <audio_pcm_test_format+0x108>
    5ef4:	85 db                	test   %ebx,%ebx
    5ef6:	75 b5                	jne    5ead <audio_pcm_test_format+0x8d>
    5ef8:	eb c5                	jmp    5ebf <audio_pcm_test_format+0x9f>
    5efa:	8d b6 00 00 00 00    	lea    0x0(%esi),%esi
    5f00:	31 c0                	xor    %eax,%eax
    5f02:	8b 7d 10             	mov    0x10(%ebp),%edi
    5f05:	89 45 dc             	mov    %eax,-0x24(%ebp)
    5f08:	85 ff                	test   %edi,%edi
    5f0a:	0f 85 42 ff ff ff    	jne    5e52 <audio_pcm_test_format+0x32>
    5f10:	31 d2                	xor    %edx,%edx
    5f12:	8b 4d 14             	mov    0x14(%ebp),%ecx
    5f15:	89 55 e0             	mov    %edx,-0x20(%ebp)
    5f18:	85 c9                	test   %ecx,%ecx
    5f1a:	0f 85 45 ff ff ff    	jne    5e65 <audio_pcm_test_format+0x45>
    5f20:	31 c9                	xor    %ecx,%ecx
    5f22:	e9 43 ff ff ff       	jmp    5e6a <audio_pcm_test_format+0x4a>
    5f27:	90                   	nop
    5f28:	8b 75 14             	mov    0x14(%ebp),%esi
    5f2b:	85 f6                	test   %esi,%esi
    5f2d:	74 0e                	je     5f3d <audio_pcm_test_format+0x11d>
    5f2f:	8b 75 14             	mov    0x14(%ebp),%esi
    5f32:	8b 4d e4             	mov    -0x1c(%ebp),%ecx
    5f35:	39 0e                	cmp    %ecx,(%esi)
    5f37:	0f 85 6c ff ff ff    	jne    5ea9 <audio_pcm_test_format+0x89>
    5f3d:	31 c0                	xor    %eax,%eax
    5f3f:	eb 8f                	jmp    5ed0 <audio_pcm_test_format+0xb0>
    5f41:	eb 0d                	jmp    5f50 <audio_pcm_register_event_callback>
    5f43:	90                   	nop
    5f44:	90                   	nop
    5f45:	90                   	nop
    5f46:	90                   	nop
    5f47:	90                   	nop
    5f48:	90                   	nop
    5f49:	90                   	nop
    5f4a:	90                   	nop
    5f4b:	90                   	nop
    5f4c:	90                   	nop
    5f4d:	90                   	nop
    5f4e:	90                   	nop
    5f4f:	90                   	nop

00005f50 <audio_pcm_register_event_callback>:
    5f50:	55                   	push   %ebp
    5f51:	89 e5                	mov    %esp,%ebp
    5f53:	56                   	push   %esi
    5f54:	53                   	push   %ebx
    5f55:	83 ec 20             	sub    $0x20,%esp
    5f58:	8b 75 0c             	mov    0xc(%ebp),%esi
    5f5b:	85 f6                	test   %esi,%esi
    5f5d:	74 71                	je     5fd0 <audio_pcm_register_event_callback+0x80>
    5f5f:	83 ec 0c             	sub    $0xc,%esp
    5f62:	8b 4d 08             	mov    0x8(%ebp),%ecx
    5f65:	51                   	push   %ecx
    5f66:	e8 b5 59 00 00       	call   b920 <async_exchange_begin@plt>
    5f6b:	83 c4 0c             	add    $0xc,%esp
    5f6e:	89 c3                	mov    %eax,%ebx
    5f70:	6a 00                	push   $0x0
    5f72:	6a 00                	push   $0x0
    5f74:	6a 00                	push   $0x0
    5f76:	6a 00                	push   $0x0
    5f78:	6a 00                	push   $0x0
    5f7a:	6a 00                	push   $0x0
    5f7c:	6a 00                	push   $0x0
    5f7e:	6a 00                	push   $0x0
    5f80:	6a 02                	push   $0x2
    5f82:	68 04 04 00 00       	push   $0x404
    5f87:	50                   	push   %eax
    5f88:	e8 73 57 00 00       	call   b700 <async_req_fast@plt>
    5f8d:	83 c4 30             	add    $0x30,%esp
    5f90:	85 c0                	test   %eax,%eax
    5f92:	74 1c                	je     5fb0 <audio_pcm_register_event_callback+0x60>
    5f94:	83 ec 0c             	sub    $0xc,%esp
    5f97:	89 45 e4             	mov    %eax,-0x1c(%ebp)
    5f9a:	53                   	push   %ebx
    5f9b:	e8 f0 57 00 00       	call   b790 <async_exchange_end@plt>
    5fa0:	83 c4 10             	add    $0x10,%esp
    5fa3:	8b 45 e4             	mov    -0x1c(%ebp),%eax
    5fa6:	8d 65 f8             	lea    -0x8(%ebp),%esp
    5fa9:	5b                   	pop    %ebx
    5faa:	5e                   	pop    %esi
    5fab:	5d                   	pop    %ebp
    5fac:	c3                   	ret    
    5fad:	8d 76 00             	lea    0x0(%esi),%esi
    5fb0:	8b 55 10             	mov    0x10(%ebp),%edx
    5fb3:	50                   	push   %eax
    5fb4:	8d 45 f4             	lea    -0xc(%ebp),%eax
    5fb7:	50                   	push   %eax
    5fb8:	52                   	push   %edx
    5fb9:	56                   	push   %esi
    5fba:	6a 00                	push   $0x0
    5fbc:	6a 00                	push   $0x0
    5fbe:	68 16 86 8f db       	push   $0xdb8f8616
    5fc3:	53                   	push   %ebx
    5fc4:	e8 87 58 00 00       	call   b850 <async_create_callback_port@plt>
    5fc9:	83 c4 20             	add    $0x20,%esp
    5fcc:	eb c6                	jmp    5f94 <audio_pcm_register_event_callback+0x44>
    5fce:	66 90                	xchg   %ax,%ax
    5fd0:	b8 f2 ff ff ff       	mov    $0xfffffff2,%eax
    5fd5:	eb cf                	jmp    5fa6 <audio_pcm_register_event_callback+0x56>
    5fd7:	89 f6                	mov    %esi,%esi
    5fd9:	8d bc 27 00 00 00 00 	lea    0x0(%edi,%eiz,1),%edi

00005fe0 <audio_pcm_unregister_event_callback>:
    5fe0:	55                   	push   %ebp
    5fe1:	89 e5                	mov    %esp,%ebp
    5fe3:	53                   	push   %ebx
    5fe4:	83 ec 20             	sub    $0x20,%esp
    5fe7:	8b 45 08             	mov    0x8(%ebp),%eax
    5fea:	50                   	push   %eax
    5feb:	e8 30 59 00 00       	call   b920 <async_exchange_begin@plt>
    5ff0:	83 c4 0c             	add    $0xc,%esp
    5ff3:	89 c3                	mov    %eax,%ebx
    5ff5:	6a 00                	push   $0x0
    5ff7:	6a 00                	push   $0x0
    5ff9:	6a 00                	push   $0x0
    5ffb:	6a 00                	push   $0x0
    5ffd:	6a 00                	push   $0x0
    5fff:	6a 00                	push   $0x0
    6001:	6a 00                	push   $0x0
    6003:	6a 00                	push   $0x0
    6005:	6a 03                	push   $0x3
    6007:	68 04 04 00 00       	push   $0x404
    600c:	50                   	push   %eax
    600d:	e8 ee 56 00 00       	call   b700 <async_req_fast@plt>
    6012:	83 c4 24             	add    $0x24,%esp
    6015:	89 45 f4             	mov    %eax,-0xc(%ebp)
    6018:	53                   	push   %ebx
    6019:	e8 72 57 00 00       	call   b790 <async_exchange_end@plt>
    601e:	8b 45 f4             	mov    -0xc(%ebp),%eax
    6021:	8b 5d fc             	mov    -0x4(%ebp),%ebx
    6024:	c9                   	leave  
    6025:	c3                   	ret    
    6026:	8d 76 00             	lea    0x0(%esi),%esi
    6029:	8d bc 27 00 00 00 00 	lea    0x0(%edi,%eiz,1),%edi

00006030 <audio_pcm_get_buffer>:
    6030:	55                   	push   %ebp
    6031:	89 e5                	mov    %esp,%ebp
    6033:	57                   	push   %edi
    6034:	56                   	push   %esi
    6035:	53                   	push   %ebx
    6036:	83 ec 2c             	sub    $0x2c,%esp
    6039:	8b 75 0c             	mov    0xc(%ebp),%esi
    603c:	8b 5d 10             	mov    0x10(%ebp),%ebx
    603f:	85 f6                	test   %esi,%esi
    6041:	0f 84 91 00 00 00    	je     60d8 <audio_pcm_get_buffer+0xa8>
    6047:	85 db                	test   %ebx,%ebx
    6049:	0f 84 89 00 00 00    	je     60d8 <audio_pcm_get_buffer+0xa8>
    604f:	83 ec 0c             	sub    $0xc,%esp
    6052:	8b 55 08             	mov    0x8(%ebp),%edx
    6055:	52                   	push   %edx
    6056:	e8 c5 58 00 00       	call   b920 <async_exchange_begin@plt>
    605b:	83 c4 0c             	add    $0xc,%esp
    605e:	89 c7                	mov    %eax,%edi
    6060:	8d 55 e0             	lea    -0x20(%ebp),%edx
    6063:	8b 03                	mov    (%ebx),%eax
    6065:	89 45 e0             	mov    %eax,-0x20(%ebp)
    6068:	6a 00                	push   $0x0
    606a:	6a 00                	push   $0x0
    606c:	6a 00                	push   $0x0
    606e:	6a 00                	push   $0x0
    6070:	52                   	push   %edx
    6071:	6a 00                	push   $0x0
    6073:	6a 00                	push   $0x0
    6075:	50                   	push   %eax
    6076:	6a 05                	push   $0x5
    6078:	68 04 04 00 00       	push   $0x404
    607d:	57                   	push   %edi
    607e:	e8 7d 56 00 00       	call   b700 <async_req_fast@plt>
    6083:	83 c4 30             	add    $0x30,%esp
    6086:	85 c0                	test   %eax,%eax
    6088:	75 2d                	jne    60b7 <audio_pcm_get_buffer+0x87>
    608a:	83 ec 0c             	sub    $0xc,%esp
    608d:	8d 45 e4             	lea    -0x1c(%ebp),%eax
    6090:	c7 45 e4 00 00 00 00 	movl   $0x0,-0x1c(%ebp)
    6097:	50                   	push   %eax
    6098:	8b 45 e0             	mov    -0x20(%ebp),%eax
    609b:	6a 00                	push   $0x0
    609d:	6a 00                	push   $0x0
    609f:	50                   	push   %eax
    60a0:	57                   	push   %edi
    60a1:	e8 2a 56 00 00       	call   b6d0 <async_share_in_start@plt>
    60a6:	83 c4 20             	add    $0x20,%esp
    60a9:	85 c0                	test   %eax,%eax
    60ab:	75 0a                	jne    60b7 <audio_pcm_get_buffer+0x87>
    60ad:	8b 55 e4             	mov    -0x1c(%ebp),%edx
    60b0:	89 16                	mov    %edx,(%esi)
    60b2:	8b 55 e0             	mov    -0x20(%ebp),%edx
    60b5:	89 13                	mov    %edx,(%ebx)
    60b7:	83 ec 0c             	sub    $0xc,%esp
    60ba:	89 45 d4             	mov    %eax,-0x2c(%ebp)
    60bd:	57                   	push   %edi
    60be:	e8 cd 56 00 00       	call   b790 <async_exchange_end@plt>
    60c3:	83 c4 10             	add    $0x10,%esp
    60c6:	8b 45 d4             	mov    -0x2c(%ebp),%eax
    60c9:	8d 65 f4             	lea    -0xc(%ebp),%esp
    60cc:	5b                   	pop    %ebx
    60cd:	5e                   	pop    %esi
    60ce:	5f                   	pop    %edi
    60cf:	5d                   	pop    %ebp
    60d0:	c3                   	ret    
    60d1:	8d b4 26 00 00 00 00 	lea    0x0(%esi,%eiz,1),%esi
    60d8:	b8 f2 ff ff ff       	mov    $0xfffffff2,%eax
    60dd:	eb ea                	jmp    60c9 <audio_pcm_get_buffer+0x99>
    60df:	90                   	nop

000060e0 <audio_pcm_release_buffer>:
    60e0:	55                   	push   %ebp
    60e1:	89 e5                	mov    %esp,%ebp
    60e3:	53                   	push   %ebx
    60e4:	83 ec 20             	sub    $0x20,%esp
    60e7:	8b 45 08             	mov    0x8(%ebp),%eax
    60ea:	50                   	push   %eax
    60eb:	e8 30 58 00 00       	call   b920 <async_exchange_begin@plt>
    60f0:	83 c4 0c             	add    $0xc,%esp
    60f3:	89 c3                	mov    %eax,%ebx
    60f5:	6a 00                	push   $0x0
    60f7:	6a 00                	push   $0x0
    60f9:	6a 00                	push   $0x0
    60fb:	6a 00                	push   $0x0
    60fd:	6a 00                	push   $0x0
    60ff:	6a 00                	push   $0x0
    6101:	6a 00                	push   $0x0
    6103:	6a 00                	push   $0x0
    6105:	6a 06                	push   $0x6
    6107:	68 04 04 00 00       	push   $0x404
    610c:	50                   	push   %eax
    610d:	e8 ee 55 00 00       	call   b700 <async_req_fast@plt>
    6112:	83 c4 24             	add    $0x24,%esp
    6115:	89 45 f4             	mov    %eax,-0xc(%ebp)
    6118:	53                   	push   %ebx
    6119:	e8 72 56 00 00       	call   b790 <async_exchange_end@plt>
    611e:	8b 45 f4             	mov    -0xc(%ebp),%eax
    6121:	8b 5d fc             	mov    -0x4(%ebp),%ebx
    6124:	c9                   	leave  
    6125:	c3                   	ret    
    6126:	8d 76 00             	lea    0x0(%esi),%esi
    6129:	8d bc 27 00 00 00 00 	lea    0x0(%edi,%eiz,1),%edi

00006130 <audio_pcm_start_playback_fragment>:
    6130:	55                   	push   %ebp
    6131:	89 e5                	mov    %esp,%ebp
    6133:	56                   	push   %esi
    6134:	53                   	push   %ebx
    6135:	83 ec 10             	sub    $0x10,%esp
    6138:	81 7d 10 ff ff 00 00 	cmpl   $0xffff,0x10(%ebp)
    613f:	77 5f                	ja     61a0 <audio_pcm_start_playback_fragment+0x70>
    6141:	f7 45 18 00 00 ff ff 	testl  $0xffff0000,0x18(%ebp)
    6148:	75 5d                	jne    61a7 <audio_pcm_start_playback_fragment+0x77>
    614a:	83 ec 0c             	sub    $0xc,%esp
    614d:	8b 5d 10             	mov    0x10(%ebp),%ebx
    6150:	8b 55 08             	mov    0x8(%ebp),%edx
    6153:	8b 45 18             	mov    0x18(%ebp),%eax
    6156:	c1 e3 10             	shl    $0x10,%ebx
    6159:	52                   	push   %edx
    615a:	09 c3                	or     %eax,%ebx
    615c:	e8 bf 57 00 00       	call   b920 <async_exchange_begin@plt>
    6161:	83 c4 0c             	add    $0xc,%esp
    6164:	8b 4d 14             	mov    0x14(%ebp),%ecx
    6167:	89 c6                	mov    %eax,%esi
    6169:	6a 00                	push   $0x0
    616b:	6a 00                	push   $0x0
    616d:	6a 00                	push   $0x0
    616f:	6a 00                	push   $0x0
    6171:	6a 00                	push   $0x0
    6173:	53                   	push   %ebx
    6174:	8b 5d 0c             	mov    0xc(%ebp),%ebx
    6177:	51                   	push   %ecx
    6178:	53                   	push   %ebx
    6179:	6a 08                	push   $0x8
    617b:	68 04 04 00 00       	push   $0x404
    6180:	50                   	push   %eax
    6181:	e8 7a 55 00 00       	call   b700 <async_req_fast@plt>
    6186:	83 c4 24             	add    $0x24,%esp
    6189:	56                   	push   %esi
    618a:	89 45 f4             	mov    %eax,-0xc(%ebp)
    618d:	e8 fe 55 00 00       	call   b790 <async_exchange_end@plt>
    6192:	83 c4 10             	add    $0x10,%esp
    6195:	8b 45 f4             	mov    -0xc(%ebp),%eax
    6198:	8d 65 f8             	lea    -0x8(%ebp),%esp
    619b:	5b                   	pop    %ebx
    619c:	5e                   	pop    %esi
    619d:	5d                   	pop    %ebp
    619e:	c3                   	ret    
    619f:	90                   	nop
    61a0:	b8 f2 ff ff ff       	mov    $0xfffffff2,%eax
    61a5:	eb f1                	jmp    6198 <audio_pcm_start_playback_fragment+0x68>
    61a7:	56                   	push   %esi
    61a8:	68 a6 01 00 00       	push   $0x1a6
    61ad:	68 be 9f 00 00       	push   $0x9fbe
    61b2:	68 28 a1 00 00       	push   $0xa128
    61b7:	e8 f4 55 00 00       	call   b7b0 <assert_abort@plt>
    61bc:	8d 74 26 00          	lea    0x0(%esi,%eiz,1),%esi

000061c0 <audio_pcm_last_playback_fragment>:
    61c0:	55                   	push   %ebp
    61c1:	89 e5                	mov    %esp,%ebp
    61c3:	53                   	push   %ebx
    61c4:	83 ec 20             	sub    $0x20,%esp
    61c7:	8b 45 08             	mov    0x8(%ebp),%eax
    61ca:	50                   	push   %eax
    61cb:	e8 50 57 00 00       	call   b920 <async_exchange_begin@plt>
    61d0:	83 c4 0c             	add    $0xc,%esp
    61d3:	89 c3                	mov    %eax,%ebx
    61d5:	6a 00                	push   $0x0
    61d7:	6a 00                	push   $0x0
    61d9:	6a 00                	push   $0x0
    61db:	6a 00                	push   $0x0
    61dd:	6a 00                	push   $0x0
    61df:	6a 00                	push   $0x0
    61e1:	6a 00                	push   $0x0
    61e3:	6a 00                	push   $0x0
    61e5:	6a 09                	push   $0x9
    61e7:	68 04 04 00 00       	push   $0x404
    61ec:	50                   	push   %eax
    61ed:	e8 0e 55 00 00       	call   b700 <async_req_fast@plt>
    61f2:	83 c4 24             	add    $0x24,%esp
    61f5:	89 45 f4             	mov    %eax,-0xc(%ebp)
    61f8:	53                   	push   %ebx
    61f9:	e8 92 55 00 00       	call   b790 <async_exchange_end@plt>
    61fe:	8b 45 f4             	mov    -0xc(%ebp),%eax
    6201:	8b 5d fc             	mov    -0x4(%ebp),%ebx
    6204:	c9                   	leave  
    6205:	c3                   	ret    
    6206:	8d 76 00             	lea    0x0(%esi),%esi
    6209:	8d bc 27 00 00 00 00 	lea    0x0(%edi,%eiz,1),%edi

00006210 <audio_pcm_start_playback>:
    6210:	55                   	push   %ebp
    6211:	89 e5                	mov    %esp,%ebp
    6213:	56                   	push   %esi
    6214:	53                   	push   %ebx
    6215:	83 ec 10             	sub    $0x10,%esp
    6218:	81 7d 0c ff ff 00 00 	cmpl   $0xffff,0xc(%ebp)
    621f:	77 5f                	ja     6280 <audio_pcm_start_playback+0x70>
    6221:	f7 45 14 00 00 ff ff 	testl  $0xffff0000,0x14(%ebp)
    6228:	75 5d                	jne    6287 <audio_pcm_start_playback+0x77>
    622a:	83 ec 0c             	sub    $0xc,%esp
    622d:	8b 5d 0c             	mov    0xc(%ebp),%ebx
    6230:	8b 55 08             	mov    0x8(%ebp),%edx
    6233:	8b 45 14             	mov    0x14(%ebp),%eax
    6236:	c1 e3 10             	shl    $0x10,%ebx
    6239:	52                   	push   %edx
    623a:	09 c3                	or     %eax,%ebx
    623c:	e8 df 56 00 00       	call   b920 <async_exchange_begin@plt>
    6241:	83 c4 0c             	add    $0xc,%esp
    6244:	8b 4d 10             	mov    0x10(%ebp),%ecx
    6247:	89 c6                	mov    %eax,%esi
    6249:	6a 00                	push   $0x0
    624b:	6a 00                	push   $0x0
    624d:	6a 00                	push   $0x0
    624f:	6a 00                	push   $0x0
    6251:	6a 00                	push   $0x0
    6253:	53                   	push   %ebx
    6254:	51                   	push   %ecx
    6255:	6a 00                	push   $0x0
    6257:	6a 08                	push   $0x8
    6259:	68 04 04 00 00       	push   $0x404
    625e:	50                   	push   %eax
    625f:	e8 9c 54 00 00       	call   b700 <async_req_fast@plt>
    6264:	83 c4 24             	add    $0x24,%esp
    6267:	89 45 f4             	mov    %eax,-0xc(%ebp)
    626a:	56                   	push   %esi
    626b:	e8 20 55 00 00       	call   b790 <async_exchange_end@plt>
    6270:	83 c4 10             	add    $0x10,%esp
    6273:	8b 45 f4             	mov    -0xc(%ebp),%eax
    6276:	8d 65 f8             	lea    -0x8(%ebp),%esp
    6279:	5b                   	pop    %ebx
    627a:	5e                   	pop    %esi
    627b:	5d                   	pop    %ebp
    627c:	c3                   	ret    
    627d:	8d 76 00             	lea    0x0(%esi),%esi
    6280:	b8 f2 ff ff ff       	mov    $0xfffffff2,%eax
    6285:	eb ef                	jmp    6276 <audio_pcm_start_playback+0x66>
    6287:	53                   	push   %ebx
    6288:	68 a6 01 00 00       	push   $0x1a6
    628d:	68 be 9f 00 00       	push   $0x9fbe
    6292:	68 28 a1 00 00       	push   $0xa128
    6297:	e8 14 55 00 00       	call   b7b0 <assert_abort@plt>
    629c:	8d 74 26 00          	lea    0x0(%esi,%eiz,1),%esi

000062a0 <audio_pcm_stop_playback_immediate>:
    62a0:	55                   	push   %ebp
    62a1:	89 e5                	mov    %esp,%ebp
    62a3:	53                   	push   %ebx
    62a4:	83 ec 20             	sub    $0x20,%esp
    62a7:	8b 45 08             	mov    0x8(%ebp),%eax
    62aa:	50                   	push   %eax
    62ab:	e8 70 56 00 00       	call   b920 <async_exchange_begin@plt>
    62b0:	83 c4 0c             	add    $0xc,%esp
    62b3:	89 c3                	mov    %eax,%ebx
    62b5:	6a 00                	push   $0x0
    62b7:	6a 00                	push   $0x0
    62b9:	6a 00                	push   $0x0
    62bb:	6a 00                	push   $0x0
    62bd:	6a 00                	push   $0x0
    62bf:	6a 00                	push   $0x0
    62c1:	6a 00                	push   $0x0
    62c3:	6a 01                	push   $0x1
    62c5:	6a 09                	push   $0x9
    62c7:	68 04 04 00 00       	push   $0x404
    62cc:	50                   	push   %eax
    62cd:	e8 2e 54 00 00       	call   b700 <async_req_fast@plt>
    62d2:	83 c4 24             	add    $0x24,%esp
    62d5:	89 45 f4             	mov    %eax,-0xc(%ebp)
    62d8:	53                   	push   %ebx
    62d9:	e8 b2 54 00 00       	call   b790 <async_exchange_end@plt>
    62de:	8b 45 f4             	mov    -0xc(%ebp),%eax
    62e1:	8b 5d fc             	mov    -0x4(%ebp),%ebx
    62e4:	c9                   	leave  
    62e5:	c3                   	ret    
    62e6:	8d 76 00             	lea    0x0(%esi),%esi
    62e9:	8d bc 27 00 00 00 00 	lea    0x0(%edi,%eiz,1),%edi

000062f0 <audio_pcm_stop_playback>:
    62f0:	55                   	push   %ebp
    62f1:	89 e5                	mov    %esp,%ebp
    62f3:	53                   	push   %ebx
    62f4:	83 ec 20             	sub    $0x20,%esp
    62f7:	8b 45 08             	mov    0x8(%ebp),%eax
    62fa:	50                   	push   %eax
    62fb:	e8 20 56 00 00       	call   b920 <async_exchange_begin@plt>
    6300:	83 c4 0c             	add    $0xc,%esp
    6303:	89 c3                	mov    %eax,%ebx
    6305:	6a 00                	push   $0x0
    6307:	6a 00                	push   $0x0
    6309:	6a 00                	push   $0x0
    630b:	6a 00                	push   $0x0
    630d:	6a 00                	push   $0x0
    630f:	6a 00                	push   $0x0
    6311:	6a 00                	push   $0x0
    6313:	6a 00                	push   $0x0
    6315:	6a 09                	push   $0x9
    6317:	68 04 04 00 00       	push   $0x404
    631c:	50                   	push   %eax
    631d:	e8 de 53 00 00       	call   b700 <async_req_fast@plt>
    6322:	83 c4 24             	add    $0x24,%esp
    6325:	89 45 f4             	mov    %eax,-0xc(%ebp)
    6328:	53                   	push   %ebx
    6329:	e8 62 54 00 00       	call   b790 <async_exchange_end@plt>
    632e:	8b 45 f4             	mov    -0xc(%ebp),%eax
    6331:	8b 5d fc             	mov    -0x4(%ebp),%ebx
    6334:	c9                   	leave  
    6335:	c3                   	ret    
    6336:	8d 76 00             	lea    0x0(%esi),%esi
    6339:	8d bc 27 00 00 00 00 	lea    0x0(%edi,%eiz,1),%edi

00006340 <audio_pcm_start_capture_fragment>:
    6340:	55                   	push   %ebp
    6341:	89 e5                	mov    %esp,%ebp
    6343:	56                   	push   %esi
    6344:	53                   	push   %ebx
    6345:	83 ec 10             	sub    $0x10,%esp
    6348:	81 7d 10 ff ff 00 00 	cmpl   $0xffff,0x10(%ebp)
    634f:	77 5f                	ja     63b0 <audio_pcm_start_capture_fragment+0x70>
    6351:	f7 45 18 00 00 ff ff 	testl  $0xffff0000,0x18(%ebp)
    6358:	75 5d                	jne    63b7 <audio_pcm_start_capture_fragment+0x77>
    635a:	83 ec 0c             	sub    $0xc,%esp
    635d:	8b 5d 10             	mov    0x10(%ebp),%ebx
    6360:	8b 55 08             	mov    0x8(%ebp),%edx
    6363:	8b 45 18             	mov    0x18(%ebp),%eax
    6366:	c1 e3 10             	shl    $0x10,%ebx
    6369:	52                   	push   %edx
    636a:	09 c3                	or     %eax,%ebx
    636c:	e8 af 55 00 00       	call   b920 <async_exchange_begin@plt>
    6371:	83 c4 0c             	add    $0xc,%esp
    6374:	8b 4d 14             	mov    0x14(%ebp),%ecx
    6377:	89 c6                	mov    %eax,%esi
    6379:	6a 00                	push   $0x0
    637b:	6a 00                	push   $0x0
    637d:	6a 00                	push   $0x0
    637f:	6a 00                	push   $0x0
    6381:	6a 00                	push   $0x0
    6383:	53                   	push   %ebx
    6384:	8b 5d 0c             	mov    0xc(%ebp),%ebx
    6387:	51                   	push   %ecx
    6388:	53                   	push   %ebx
    6389:	6a 0a                	push   $0xa
    638b:	68 04 04 00 00       	push   $0x404
    6390:	50                   	push   %eax
    6391:	e8 6a 53 00 00       	call   b700 <async_req_fast@plt>
    6396:	83 c4 24             	add    $0x24,%esp
    6399:	56                   	push   %esi
    639a:	89 45 f4             	mov    %eax,-0xc(%ebp)
    639d:	e8 ee 53 00 00       	call   b790 <async_exchange_end@plt>
    63a2:	83 c4 10             	add    $0x10,%esp
    63a5:	8b 45 f4             	mov    -0xc(%ebp),%eax
    63a8:	8d 65 f8             	lea    -0x8(%ebp),%esp
    63ab:	5b                   	pop    %ebx
    63ac:	5e                   	pop    %esi
    63ad:	5d                   	pop    %ebp
    63ae:	c3                   	ret    
    63af:	90                   	nop
    63b0:	b8 f2 ff ff ff       	mov    $0xfffffff2,%eax
    63b5:	eb f1                	jmp    63a8 <audio_pcm_start_capture_fragment+0x68>
    63b7:	56                   	push   %esi
    63b8:	68 07 02 00 00       	push   $0x207
    63bd:	68 be 9f 00 00       	push   $0x9fbe
    63c2:	68 28 a1 00 00       	push   $0xa128
    63c7:	e8 e4 53 00 00       	call   b7b0 <assert_abort@plt>
    63cc:	8d 74 26 00          	lea    0x0(%esi,%eiz,1),%esi

000063d0 <audio_pcm_start_capture>:
    63d0:	55                   	push   %ebp
    63d1:	89 e5                	mov    %esp,%ebp
    63d3:	56                   	push   %esi
    63d4:	53                   	push   %ebx
    63d5:	83 ec 10             	sub    $0x10,%esp
    63d8:	81 7d 0c ff ff 00 00 	cmpl   $0xffff,0xc(%ebp)
    63df:	77 5f                	ja     6440 <audio_pcm_start_capture+0x70>
    63e1:	f7 45 14 00 00 ff ff 	testl  $0xffff0000,0x14(%ebp)
    63e8:	75 5d                	jne    6447 <audio_pcm_start_capture+0x77>
    63ea:	83 ec 0c             	sub    $0xc,%esp
    63ed:	8b 5d 0c             	mov    0xc(%ebp),%ebx
    63f0:	8b 55 08             	mov    0x8(%ebp),%edx
    63f3:	8b 45 14             	mov    0x14(%ebp),%eax
    63f6:	c1 e3 10             	shl    $0x10,%ebx
    63f9:	52                   	push   %edx
    63fa:	09 c3                	or     %eax,%ebx
    63fc:	e8 1f 55 00 00       	call   b920 <async_exchange_begin@plt>
    6401:	83 c4 0c             	add    $0xc,%esp
    6404:	8b 4d 10             	mov    0x10(%ebp),%ecx
    6407:	89 c6                	mov    %eax,%esi
    6409:	6a 00                	push   $0x0
    640b:	6a 00                	push   $0x0
    640d:	6a 00                	push   $0x0
    640f:	6a 00                	push   $0x0
    6411:	6a 00                	push   $0x0
    6413:	53                   	push   %ebx
    6414:	51                   	push   %ecx
    6415:	6a 00                	push   $0x0
    6417:	6a 0a                	push   $0xa
    6419:	68 04 04 00 00       	push   $0x404
    641e:	50                   	push   %eax
    641f:	e8 dc 52 00 00       	call   b700 <async_req_fast@plt>
    6424:	83 c4 24             	add    $0x24,%esp
    6427:	89 45 f4             	mov    %eax,-0xc(%ebp)
    642a:	56                   	push   %esi
    642b:	e8 60 53 00 00       	call   b790 <async_exchange_end@plt>
    6430:	83 c4 10             	add    $0x10,%esp
    6433:	8b 45 f4             	mov    -0xc(%ebp),%eax
    6436:	8d 65 f8             	lea    -0x8(%ebp),%esp
    6439:	5b                   	pop    %ebx
    643a:	5e                   	pop    %esi
    643b:	5d                   	pop    %ebp
    643c:	c3                   	ret    
    643d:	8d 76 00             	lea    0x0(%esi),%esi
    6440:	b8 f2 ff ff ff       	mov    $0xfffffff2,%eax
    6445:	eb ef                	jmp    6436 <audio_pcm_start_capture+0x66>
    6447:	53                   	push   %ebx
    6448:	68 07 02 00 00       	push   $0x207
    644d:	68 be 9f 00 00       	push   $0x9fbe
    6452:	68 28 a1 00 00       	push   $0xa128
    6457:	e8 54 53 00 00       	call   b7b0 <assert_abort@plt>
    645c:	8d 74 26 00          	lea    0x0(%esi,%eiz,1),%esi

00006460 <audio_pcm_last_capture_fragment>:
    6460:	55                   	push   %ebp
    6461:	89 e5                	mov    %esp,%ebp
    6463:	53                   	push   %ebx
    6464:	83 ec 20             	sub    $0x20,%esp
    6467:	8b 45 08             	mov    0x8(%ebp),%eax
    646a:	50                   	push   %eax
    646b:	e8 b0 54 00 00       	call   b920 <async_exchange_begin@plt>
    6470:	83 c4 0c             	add    $0xc,%esp
    6473:	89 c3                	mov    %eax,%ebx
    6475:	6a 00                	push   $0x0
    6477:	6a 00                	push   $0x0
    6479:	6a 00                	push   $0x0
    647b:	6a 00                	push   $0x0
    647d:	6a 00                	push   $0x0
    647f:	6a 00                	push   $0x0
    6481:	6a 00                	push   $0x0
    6483:	6a 00                	push   $0x0
    6485:	6a 0b                	push   $0xb
    6487:	68 04 04 00 00       	push   $0x404
    648c:	50                   	push   %eax
    648d:	e8 6e 52 00 00       	call   b700 <async_req_fast@plt>
    6492:	83 c4 24             	add    $0x24,%esp
    6495:	89 45 f4             	mov    %eax,-0xc(%ebp)
    6498:	53                   	push   %ebx
    6499:	e8 f2 52 00 00       	call   b790 <async_exchange_end@plt>
    649e:	8b 45 f4             	mov    -0xc(%ebp),%eax
    64a1:	8b 5d fc             	mov    -0x4(%ebp),%ebx
    64a4:	c9                   	leave  
    64a5:	c3                   	ret    
    64a6:	8d 76 00             	lea    0x0(%esi),%esi
    64a9:	8d bc 27 00 00 00 00 	lea    0x0(%edi,%eiz,1),%edi

000064b0 <audio_pcm_stop_capture_immediate>:
    64b0:	55                   	push   %ebp
    64b1:	89 e5                	mov    %esp,%ebp
    64b3:	53                   	push   %ebx
    64b4:	83 ec 20             	sub    $0x20,%esp
    64b7:	8b 45 08             	mov    0x8(%ebp),%eax
    64ba:	50                   	push   %eax
    64bb:	e8 60 54 00 00       	call   b920 <async_exchange_begin@plt>
    64c0:	83 c4 0c             	add    $0xc,%esp
    64c3:	89 c3                	mov    %eax,%ebx
    64c5:	6a 00                	push   $0x0
    64c7:	6a 00                	push   $0x0
    64c9:	6a 00                	push   $0x0
    64cb:	6a 00                	push   $0x0
    64cd:	6a 00                	push   $0x0
    64cf:	6a 00                	push   $0x0
    64d1:	6a 00                	push   $0x0
    64d3:	6a 01                	push   $0x1
    64d5:	6a 0b                	push   $0xb
    64d7:	68 04 04 00 00       	push   $0x404
    64dc:	50                   	push   %eax
    64dd:	e8 1e 52 00 00       	call   b700 <async_req_fast@plt>
    64e2:	83 c4 24             	add    $0x24,%esp
    64e5:	89 45 f4             	mov    %eax,-0xc(%ebp)
    64e8:	53                   	push   %ebx
    64e9:	e8 a2 52 00 00       	call   b790 <async_exchange_end@plt>
    64ee:	8b 45 f4             	mov    -0xc(%ebp),%eax
    64f1:	8b 5d fc             	mov    -0x4(%ebp),%ebx
    64f4:	c9                   	leave  
    64f5:	c3                   	ret    
    64f6:	8d 76 00             	lea    0x0(%esi),%esi
    64f9:	8d bc 27 00 00 00 00 	lea    0x0(%edi,%eiz,1),%edi

00006500 <audio_pcm_stop_capture>:
    6500:	55                   	push   %ebp
    6501:	89 e5                	mov    %esp,%ebp
    6503:	53                   	push   %ebx
    6504:	83 ec 20             	sub    $0x20,%esp
    6507:	8b 45 08             	mov    0x8(%ebp),%eax
    650a:	50                   	push   %eax
    650b:	e8 10 54 00 00       	call   b920 <async_exchange_begin@plt>
    6510:	83 c4 0c             	add    $0xc,%esp
    6513:	89 c3                	mov    %eax,%ebx
    6515:	6a 00                	push   $0x0
    6517:	6a 00                	push   $0x0
    6519:	6a 00                	push   $0x0
    651b:	6a 00                	push   $0x0
    651d:	6a 00                	push   $0x0
    651f:	6a 00                	push   $0x0
    6521:	6a 00                	push   $0x0
    6523:	6a 00                	push   $0x0
    6525:	6a 0b                	push   $0xb
    6527:	68 04 04 00 00       	push   $0x404
    652c:	50                   	push   %eax
    652d:	e8 ce 51 00 00       	call   b700 <async_req_fast@plt>
    6532:	83 c4 24             	add    $0x24,%esp
    6535:	89 45 f4             	mov    %eax,-0xc(%ebp)
    6538:	53                   	push   %ebx
    6539:	e8 52 52 00 00       	call   b790 <async_exchange_end@plt>
    653e:	8b 45 f4             	mov    -0xc(%ebp),%eax
    6541:	8b 5d fc             	mov    -0x4(%ebp),%ebx
    6544:	c9                   	leave  
    6545:	c3                   	ret    
    6546:	66 90                	xchg   %ax,%ax
    6548:	66 90                	xchg   %ax,%ax
    654a:	66 90                	xchg   %ax,%ax
    654c:	66 90                	xchg   %ax,%ax
    654e:	66 90                	xchg   %ax,%ax

00006550 <ddf_log_init>:
    6550:	55                   	push   %ebp
    6551:	89 e5                	mov    %esp,%ebp
    6553:	5d                   	pop    %ebp
    6554:	e9 17 51 00 00       	jmp    b670 <log_init@plt>
    6559:	8d b4 26 00 00 00 00 	lea    0x0(%esi,%eiz,1),%esi

00006560 <ddf_msg>:
    6560:	55                   	push   %ebp
    6561:	89 e5                	mov    %esp,%ebp
    6563:	83 ec 08             	sub    $0x8,%esp
    6566:	8d 45 10             	lea    0x10(%ebp),%eax
    6569:	8b 55 0c             	mov    0xc(%ebp),%edx
    656c:	8b 4d 08             	mov    0x8(%ebp),%ecx
    656f:	50                   	push   %eax
    6570:	52                   	push   %edx
    6571:	51                   	push   %ecx
    6572:	6a ff                	push   $0xffffffff
    6574:	e8 07 52 00 00       	call   b780 <log_msgv@plt>
    6579:	83 c4 10             	add    $0x10,%esp
    657c:	c9                   	leave  
    657d:	c3                   	ret    
    657e:	66 90                	xchg   %ax,%ax

00006580 <hound_service_connect>:
    6580:	55                   	push   %ebp
    6581:	89 e5                	mov    %esp,%ebp
    6583:	83 ec 1c             	sub    $0x1c,%esp
    6586:	8d 45 f4             	lea    -0xc(%ebp),%eax
    6589:	8b 4d 08             	mov    0x8(%ebp),%ecx
    658c:	6a 01                	push   $0x1
    658e:	c7 45 f4 00 00 00 00 	movl   $0x0,-0xc(%ebp)
    6595:	50                   	push   %eax
    6596:	51                   	push   %ecx
    6597:	e8 74 51 00 00       	call   b710 <loc_service_get_id@plt>
    659c:	83 c4 10             	add    $0x10,%esp
    659f:	85 c0                	test   %eax,%eax
    65a1:	75 1d                	jne    65c0 <hound_service_connect+0x40>
    65a3:	8b 55 f4             	mov    -0xc(%ebp),%edx
    65a6:	50                   	push   %eax
    65a7:	6a 01                	push   $0x1
    65a9:	68 82 7e d7 dd       	push   $0xddd77e82
    65ae:	52                   	push   %edx
    65af:	e8 7c 50 00 00       	call   b630 <loc_service_connect@plt>
    65b4:	83 c4 10             	add    $0x10,%esp
    65b7:	c9                   	leave  
    65b8:	c3                   	ret    
    65b9:	8d b4 26 00 00 00 00 	lea    0x0(%esi,%eiz,1),%esi
    65c0:	31 c0                	xor    %eax,%eax
    65c2:	c9                   	leave  
    65c3:	c3                   	ret    
    65c4:	8d b6 00 00 00 00    	lea    0x0(%esi),%esi
    65ca:	8d bf 00 00 00 00    	lea    0x0(%edi),%edi

000065d0 <hound_service_disconnect>:
    65d0:	55                   	push   %ebp
    65d1:	89 e5                	mov    %esp,%ebp
    65d3:	8b 45 08             	mov    0x8(%ebp),%eax
    65d6:	85 c0                	test   %eax,%eax
    65d8:	74 06                	je     65e0 <hound_service_disconnect+0x10>
    65da:	5d                   	pop    %ebp
    65db:	e9 70 50 00 00       	jmp    b650 <async_hangup@plt>
    65e0:	5d                   	pop    %ebp
    65e1:	c3                   	ret    
    65e2:	8d b4 26 00 00 00 00 	lea    0x0(%esi,%eiz,1),%esi
    65e9:	8d bc 27 00 00 00 00 	lea    0x0(%edi,%eiz,1),%edi

000065f0 <hound_service_register_context>:
    65f0:	55                   	push   %ebp
    65f1:	89 e5                	mov    %esp,%ebp
    65f3:	57                   	push   %edi
    65f4:	56                   	push   %esi
    65f5:	53                   	push   %ebx
    65f6:	83 ec 3c             	sub    $0x3c,%esp
    65f9:	8b 45 08             	mov    0x8(%ebp),%eax
    65fc:	8b 7d 0c             	mov    0xc(%ebp),%edi
    65ff:	8b 5d 10             	mov    0x10(%ebp),%ebx
    6602:	85 c0                	test   %eax,%eax
    6604:	0f 84 be 00 00 00    	je     66c8 <hound_service_register_context+0xd8>
    660a:	85 ff                	test   %edi,%edi
    660c:	0f 84 a4 00 00 00    	je     66b6 <hound_service_register_context+0xc6>
    6612:	83 ec 0c             	sub    $0xc,%esp
    6615:	81 e3 ff 00 00 00    	and    $0xff,%ebx
    661b:	50                   	push   %eax
    661c:	e8 ff 52 00 00       	call   b920 <async_exchange_begin@plt>
    6621:	83 c4 0c             	add    $0xc,%esp
    6624:	89 c6                	mov    %eax,%esi
    6626:	8d 45 c4             	lea    -0x3c(%ebp),%eax
    6629:	50                   	push   %eax
    662a:	6a 00                	push   $0x0
    662c:	6a 00                	push   $0x0
    662e:	6a 00                	push   $0x0
    6630:	53                   	push   %ebx
    6631:	68 00 04 00 00       	push   $0x400
    6636:	56                   	push   %esi
    6637:	e8 24 51 00 00       	call   b760 <async_send_fast@plt>
    663c:	83 c4 20             	add    $0x20,%esp
    663f:	89 c3                	mov    %eax,%ebx
    6641:	85 c0                	test   %eax,%eax
    6643:	75 3b                	jne    6680 <hound_service_register_context+0x90>
    6645:	83 ec 0c             	sub    $0xc,%esp
    6648:	c7 45 c0 f8 ff ff ff 	movl   $0xfffffff8,-0x40(%ebp)
    664f:	6a 00                	push   $0x0
    6651:	e8 3a 53 00 00       	call   b990 <async_forget@plt>
    6656:	8b 45 c0             	mov    -0x40(%ebp),%eax
    6659:	83 c4 10             	add    $0x10,%esp
    665c:	85 c0                	test   %eax,%eax
    665e:	74 45                	je     66a5 <hound_service_register_context+0xb5>
    6660:	83 ec 0c             	sub    $0xc,%esp
    6663:	56                   	push   %esi
    6664:	e8 27 51 00 00       	call   b790 <async_exchange_end@plt>
    6669:	8b 45 c0             	mov    -0x40(%ebp),%eax
    666c:	83 c4 10             	add    $0x10,%esp
    666f:	85 c0                	test   %eax,%eax
    6671:	75 03                	jne    6676 <hound_service_register_context+0x86>
    6673:	8b 45 c8             	mov    -0x38(%ebp),%eax
    6676:	8d 65 f4             	lea    -0xc(%ebp),%esp
    6679:	5b                   	pop    %ebx
    667a:	5e                   	pop    %esi
    667b:	5f                   	pop    %edi
    667c:	5d                   	pop    %ebp
    667d:	c3                   	ret    
    667e:	66 90                	xchg   %ax,%ax
    6680:	83 ec 0c             	sub    $0xc,%esp
    6683:	c7 45 c0 00 00 00 00 	movl   $0x0,-0x40(%ebp)
    668a:	57                   	push   %edi
    668b:	e8 60 52 00 00       	call   b8f0 <str_size@plt>
    6690:	83 c4 0c             	add    $0xc,%esp
    6693:	50                   	push   %eax
    6694:	57                   	push   %edi
    6695:	56                   	push   %esi
    6696:	e8 e5 4f 00 00       	call   b680 <async_data_write_start@plt>
    669b:	83 c4 10             	add    $0x10,%esp
    669e:	89 45 c0             	mov    %eax,-0x40(%ebp)
    66a1:	85 c0                	test   %eax,%eax
    66a3:	75 bb                	jne    6660 <hound_service_register_context+0x70>
    66a5:	50                   	push   %eax
    66a6:	50                   	push   %eax
    66a7:	8d 45 c0             	lea    -0x40(%ebp),%eax
    66aa:	50                   	push   %eax
    66ab:	53                   	push   %ebx
    66ac:	e8 af 4f 00 00       	call   b660 <async_wait_for@plt>
    66b1:	83 c4 10             	add    $0x10,%esp
    66b4:	eb aa                	jmp    6660 <hound_service_register_context+0x70>
    66b6:	52                   	push   %edx
    66b7:	6a 7b                	push   $0x7b
    66b9:	68 d0 b1 00 00       	push   $0xb1d0
    66be:	68 20 97 00 00       	push   $0x9720
    66c3:	e8 e8 50 00 00       	call   b7b0 <assert_abort@plt>
    66c8:	51                   	push   %ecx
    66c9:	6a 7a                	push   $0x7a
    66cb:	68 d0 b1 00 00       	push   $0xb1d0
    66d0:	68 df b1 00 00       	push   $0xb1df
    66d5:	e8 d6 50 00 00       	call   b7b0 <assert_abort@plt>
    66da:	8d b6 00 00 00 00    	lea    0x0(%esi),%esi

000066e0 <hound_service_unregister_context>:
    66e0:	55                   	push   %ebp
    66e1:	89 e5                	mov    %esp,%ebp
    66e3:	53                   	push   %ebx
    66e4:	83 ec 14             	sub    $0x14,%esp
    66e7:	8b 45 08             	mov    0x8(%ebp),%eax
    66ea:	85 c0                	test   %eax,%eax
    66ec:	74 41                	je     672f <hound_service_unregister_context+0x4f>
    66ee:	83 ec 0c             	sub    $0xc,%esp
    66f1:	50                   	push   %eax
    66f2:	e8 29 52 00 00       	call   b920 <async_exchange_begin@plt>
    66f7:	83 c4 0c             	add    $0xc,%esp
    66fa:	89 c3                	mov    %eax,%ebx
    66fc:	8b 45 0c             	mov    0xc(%ebp),%eax
    66ff:	6a 00                	push   $0x0
    6701:	6a 00                	push   $0x0
    6703:	6a 00                	push   $0x0
    6705:	6a 00                	push   $0x0
    6707:	6a 00                	push   $0x0
    6709:	6a 00                	push   $0x0
    670b:	6a 00                	push   $0x0
    670d:	6a 00                	push   $0x0
    670f:	50                   	push   %eax
    6710:	68 01 04 00 00       	push   $0x401
    6715:	53                   	push   %ebx
    6716:	e8 e5 4f 00 00       	call   b700 <async_req_fast@plt>
    671b:	83 c4 24             	add    $0x24,%esp
    671e:	89 45 f4             	mov    %eax,-0xc(%ebp)
    6721:	53                   	push   %ebx
    6722:	e8 69 50 00 00       	call   b790 <async_exchange_end@plt>
    6727:	8b 45 f4             	mov    -0xc(%ebp),%eax
    672a:	8b 5d fc             	mov    -0x4(%ebp),%ebx
    672d:	c9                   	leave  
    672e:	c3                   	ret    
    672f:	52                   	push   %edx
    6730:	68 96 00 00 00       	push   $0x96
    6735:	68 d0 b1 00 00       	push   $0xb1d0
    673a:	68 df b1 00 00       	push   $0xb1df
    673f:	e8 6c 50 00 00       	call   b7b0 <assert_abort@plt>
    6744:	8d b6 00 00 00 00    	lea    0x0(%esi),%esi
    674a:	8d bf 00 00 00 00    	lea    0x0(%edi),%edi

00006750 <hound_service_get_list>:
    6750:	55                   	push   %ebp
    6751:	89 e5                	mov    %esp,%ebp
    6753:	57                   	push   %edi
    6754:	56                   	push   %esi
    6755:	53                   	push   %ebx
    6756:	83 ec 4c             	sub    $0x4c,%esp
    6759:	8b 45 08             	mov    0x8(%ebp),%eax
    675c:	8b 5d 14             	mov    0x14(%ebp),%ebx
    675f:	8b 75 18             	mov    0x18(%ebp),%esi
    6762:	85 c0                	test   %eax,%eax
    6764:	0f 84 b8 02 00 00    	je     6a22 <hound_service_get_list+0x2d2>
    676a:	8b 7d 0c             	mov    0xc(%ebp),%edi
    676d:	85 ff                	test   %edi,%edi
    676f:	0f 84 98 02 00 00    	je     6a0d <hound_service_get_list+0x2bd>
    6775:	8b 55 10             	mov    0x10(%ebp),%edx
    6778:	85 d2                	test   %edx,%edx
    677a:	0f 84 78 02 00 00    	je     69f8 <hound_service_get_list+0x2a8>
    6780:	85 f6                	test   %esi,%esi
    6782:	0f 84 10 02 00 00    	je     6998 <hound_service_get_list+0x248>
    6788:	f6 c3 10             	test   $0x10,%bl
    678b:	0f 84 49 02 00 00    	je     69da <hound_service_get_list+0x28a>
    6791:	83 ec 0c             	sub    $0xc,%esp
    6794:	50                   	push   %eax
    6795:	e8 86 51 00 00       	call   b920 <async_exchange_begin@plt>
    679a:	83 c4 10             	add    $0x10,%esp
    679d:	89 c2                	mov    %eax,%edx
    679f:	89 45 b4             	mov    %eax,-0x4c(%ebp)
    67a2:	85 c0                	test   %eax,%eax
    67a4:	0f 84 3f 02 00 00    	je     69e9 <hound_service_get_list+0x299>
    67aa:	50                   	push   %eax
    67ab:	8d 45 c4             	lea    -0x3c(%ebp),%eax
    67ae:	50                   	push   %eax
    67af:	8b 45 10             	mov    0x10(%ebp),%eax
    67b2:	6a 00                	push   $0x0
    67b4:	6a 01                	push   $0x1
    67b6:	8b 00                	mov    (%eax),%eax
    67b8:	50                   	push   %eax
    67b9:	53                   	push   %ebx
    67ba:	68 02 04 00 00       	push   $0x402
    67bf:	52                   	push   %edx
    67c0:	e8 9b 4f 00 00       	call   b760 <async_send_fast@plt>
    67c5:	83 c4 20             	add    $0x20,%esp
    67c8:	89 c3                	mov    %eax,%ebx
    67ca:	c7 45 c0 00 00 00 00 	movl   $0x0,-0x40(%ebp)
    67d1:	85 c0                	test   %eax,%eax
    67d3:	0f 85 77 01 00 00    	jne    6950 <hound_service_get_list+0x200>
    67d9:	50                   	push   %eax
    67da:	50                   	push   %eax
    67db:	8d 45 c0             	lea    -0x40(%ebp),%eax
    67de:	50                   	push   %eax
    67df:	53                   	push   %ebx
    67e0:	e8 7b 4e 00 00       	call   b660 <async_wait_for@plt>
    67e5:	8b 45 c0             	mov    -0x40(%ebp),%eax
    67e8:	83 c4 10             	add    $0x10,%esp
    67eb:	89 45 ac             	mov    %eax,-0x54(%ebp)
    67ee:	85 c0                	test   %eax,%eax
    67f0:	0f 85 7f 01 00 00    	jne    6975 <hound_service_get_list+0x225>
    67f6:	8b 45 c8             	mov    -0x38(%ebp),%eax
    67f9:	89 45 b0             	mov    %eax,-0x50(%ebp)
    67fc:	85 c0                	test   %eax,%eax
    67fe:	75 38                	jne    6838 <hound_service_get_list+0xe8>
    6800:	83 ec 0c             	sub    $0xc,%esp
    6803:	8b 5d b4             	mov    -0x4c(%ebp),%ebx
    6806:	53                   	push   %ebx
    6807:	e8 84 4f 00 00       	call   b790 <async_exchange_end@plt>
    680c:	8b 75 c0             	mov    -0x40(%ebp),%esi
    680f:	83 c4 10             	add    $0x10,%esp
    6812:	31 db                	xor    %ebx,%ebx
    6814:	85 f6                	test   %esi,%esi
    6816:	0f 85 18 01 00 00    	jne    6934 <hound_service_get_list+0x1e4>
    681c:	8b 45 0c             	mov    0xc(%ebp),%eax
    681f:	8b 4d b0             	mov    -0x50(%ebp),%ecx
    6822:	89 18                	mov    %ebx,(%eax)
    6824:	8b 45 10             	mov    0x10(%ebp),%eax
    6827:	89 08                	mov    %ecx,(%eax)
    6829:	8b 45 ac             	mov    -0x54(%ebp),%eax
    682c:	8d 65 f4             	lea    -0xc(%ebp),%esp
    682f:	5b                   	pop    %ebx
    6830:	5e                   	pop    %esi
    6831:	5f                   	pop    %edi
    6832:	5d                   	pop    %ebp
    6833:	c3                   	ret    
    6834:	8d 74 26 00          	lea    0x0(%esi,%eiz,1),%esi
    6838:	89 c7                	mov    %eax,%edi
    683a:	52                   	push   %edx
    683b:	52                   	push   %edx
    683c:	6a 04                	push   $0x4
    683e:	50                   	push   %eax
    683f:	e8 7c 4f 00 00       	call   b7c0 <calloc@plt>
    6844:	59                   	pop    %ecx
    6845:	89 c6                	mov    %eax,%esi
    6847:	5b                   	pop    %ebx
    6848:	6a 04                	push   $0x4
    684a:	57                   	push   %edi
    684b:	e8 70 4f 00 00       	call   b7c0 <calloc@plt>
    6850:	83 c4 10             	add    $0x10,%esp
    6853:	89 c3                	mov    %eax,%ebx
    6855:	85 c0                	test   %eax,%eax
    6857:	0f 84 91 00 00 00    	je     68ee <hound_service_get_list+0x19e>
    685d:	85 f6                	test   %esi,%esi
    685f:	0f 84 89 00 00 00    	je     68ee <hound_service_get_list+0x19e>
    6865:	8b 45 c0             	mov    -0x40(%ebp),%eax
    6868:	85 c0                	test   %eax,%eax
    686a:	0f 85 85 00 00 00    	jne    68f5 <hound_service_get_list+0x1a5>
    6870:	8b 45 b0             	mov    -0x50(%ebp),%eax
    6873:	8b 7d b4             	mov    -0x4c(%ebp),%edi
    6876:	c1 e0 02             	shl    $0x2,%eax
    6879:	51                   	push   %ecx
    687a:	50                   	push   %eax
    687b:	56                   	push   %esi
    687c:	57                   	push   %edi
    687d:	e8 0e 50 00 00       	call   b890 <async_data_read_start@plt>
    6882:	83 c4 10             	add    $0x10,%esp
    6885:	89 45 c0             	mov    %eax,-0x40(%ebp)
    6888:	85 c0                	test   %eax,%eax
    688a:	75 69                	jne    68f5 <hound_service_get_list+0x1a5>
    688c:	31 ff                	xor    %edi,%edi
    688e:	89 5d a8             	mov    %ebx,-0x58(%ebp)
    6891:	eb 42                	jmp    68d5 <hound_service_get_list+0x185>
    6893:	90                   	nop
    6894:	8d 74 26 00          	lea    0x0(%esi,%eiz,1),%esi
    6898:	50                   	push   %eax
    6899:	8b 04 be             	mov    (%esi,%edi,4),%eax
    689c:	40                   	inc    %eax
    689d:	50                   	push   %eax
    689e:	6a 00                	push   $0x0
    68a0:	53                   	push   %ebx
    68a1:	e8 ca 4f 00 00       	call   b870 <memset@plt>
    68a6:	83 c4 0c             	add    $0xc,%esp
    68a9:	8b 04 be             	mov    (%esi,%edi,4),%eax
    68ac:	8b 55 b4             	mov    -0x4c(%ebp),%edx
    68af:	50                   	push   %eax
    68b0:	53                   	push   %ebx
    68b1:	52                   	push   %edx
    68b2:	e8 d9 4f 00 00       	call   b890 <async_data_read_start@plt>
    68b7:	8b 4d a8             	mov    -0x58(%ebp),%ecx
    68ba:	83 c4 10             	add    $0x10,%esp
    68bd:	89 45 c0             	mov    %eax,-0x40(%ebp)
    68c0:	89 1c b9             	mov    %ebx,(%ecx,%edi,4)
    68c3:	47                   	inc    %edi
    68c4:	39 7d b0             	cmp    %edi,-0x50(%ebp)
    68c7:	0f 84 72 01 00 00    	je     6a3f <hound_service_get_list+0x2ef>
    68cd:	85 c0                	test   %eax,%eax
    68cf:	0f 85 62 01 00 00    	jne    6a37 <hound_service_get_list+0x2e7>
    68d5:	83 ec 0c             	sub    $0xc,%esp
    68d8:	8b 04 be             	mov    (%esi,%edi,4),%eax
    68db:	40                   	inc    %eax
    68dc:	50                   	push   %eax
    68dd:	e8 fe 4d 00 00       	call   b6e0 <malloc@plt>
    68e2:	83 c4 10             	add    $0x10,%esp
    68e5:	89 c3                	mov    %eax,%ebx
    68e7:	85 c0                	test   %eax,%eax
    68e9:	75 ad                	jne    6898 <hound_service_get_list+0x148>
    68eb:	8b 5d a8             	mov    -0x58(%ebp),%ebx
    68ee:	c7 45 c0 fe ff ff ff 	movl   $0xfffffffe,-0x40(%ebp)
    68f5:	83 ec 0c             	sub    $0xc,%esp
    68f8:	56                   	push   %esi
    68f9:	e8 d2 50 00 00       	call   b9d0 <free@plt>
    68fe:	58                   	pop    %eax
    68ff:	8b 45 b4             	mov    -0x4c(%ebp),%eax
    6902:	50                   	push   %eax
    6903:	e8 88 4e 00 00       	call   b790 <async_exchange_end@plt>
    6908:	8b 45 c0             	mov    -0x40(%ebp),%eax
    690b:	83 c4 10             	add    $0x10,%esp
    690e:	85 c0                	test   %eax,%eax
    6910:	0f 84 06 ff ff ff    	je     681c <hound_service_get_list+0xcc>
    6916:	31 f6                	xor    %esi,%esi
    6918:	8b 7d b0             	mov    -0x50(%ebp),%edi
    691b:	90                   	nop
    691c:	8d 74 26 00          	lea    0x0(%esi,%eiz,1),%esi
    6920:	83 ec 0c             	sub    $0xc,%esp
    6923:	8b 04 b3             	mov    (%ebx,%esi,4),%eax
    6926:	46                   	inc    %esi
    6927:	50                   	push   %eax
    6928:	e8 a3 50 00 00       	call   b9d0 <free@plt>
    692d:	83 c4 10             	add    $0x10,%esp
    6930:	39 f7                	cmp    %esi,%edi
    6932:	75 ec                	jne    6920 <hound_service_get_list+0x1d0>
    6934:	83 ec 0c             	sub    $0xc,%esp
    6937:	53                   	push   %ebx
    6938:	e8 93 50 00 00       	call   b9d0 <free@plt>
    693d:	8b 45 c0             	mov    -0x40(%ebp),%eax
    6940:	83 c4 10             	add    $0x10,%esp
    6943:	89 45 ac             	mov    %eax,-0x54(%ebp)
    6946:	8d 65 f4             	lea    -0xc(%ebp),%esp
    6949:	5b                   	pop    %ebx
    694a:	5e                   	pop    %esi
    694b:	5f                   	pop    %edi
    694c:	5d                   	pop    %ebp
    694d:	c3                   	ret    
    694e:	66 90                	xchg   %ax,%ax
    6950:	83 ec 0c             	sub    $0xc,%esp
    6953:	56                   	push   %esi
    6954:	e8 97 4f 00 00       	call   b8f0 <str_size@plt>
    6959:	83 c4 0c             	add    $0xc,%esp
    695c:	8b 7d b4             	mov    -0x4c(%ebp),%edi
    695f:	50                   	push   %eax
    6960:	56                   	push   %esi
    6961:	57                   	push   %edi
    6962:	e8 19 4d 00 00       	call   b680 <async_data_write_start@plt>
    6967:	83 c4 10             	add    $0x10,%esp
    696a:	89 45 c0             	mov    %eax,-0x40(%ebp)
    696d:	85 c0                	test   %eax,%eax
    696f:	0f 84 64 fe ff ff    	je     67d9 <hound_service_get_list+0x89>
    6975:	83 ec 0c             	sub    $0xc,%esp
    6978:	8b 75 b4             	mov    -0x4c(%ebp),%esi
    697b:	56                   	push   %esi
    697c:	e8 0f 4e 00 00       	call   b790 <async_exchange_end@plt>
    6981:	8b 45 c0             	mov    -0x40(%ebp),%eax
    6984:	83 c4 10             	add    $0x10,%esp
    6987:	89 45 ac             	mov    %eax,-0x54(%ebp)
    698a:	8d 65 f4             	lea    -0xc(%ebp),%esp
    698d:	5b                   	pop    %ebx
    698e:	5e                   	pop    %esi
    698f:	5f                   	pop    %edi
    6990:	5d                   	pop    %ebp
    6991:	c3                   	ret    
    6992:	8d b6 00 00 00 00    	lea    0x0(%esi),%esi
    6998:	83 ec 0c             	sub    $0xc,%esp
    699b:	50                   	push   %eax
    699c:	e8 7f 4f 00 00       	call   b920 <async_exchange_begin@plt>
    69a1:	83 c4 10             	add    $0x10,%esp
    69a4:	89 45 b4             	mov    %eax,-0x4c(%ebp)
    69a7:	85 c0                	test   %eax,%eax
    69a9:	74 3e                	je     69e9 <hound_service_get_list+0x299>
    69ab:	50                   	push   %eax
    69ac:	8d 45 c4             	lea    -0x3c(%ebp),%eax
    69af:	50                   	push   %eax
    69b0:	8b 45 10             	mov    0x10(%ebp),%eax
    69b3:	6a 00                	push   $0x0
    69b5:	6a 00                	push   $0x0
    69b7:	8b 10                	mov    (%eax),%edx
    69b9:	8b 4d b4             	mov    -0x4c(%ebp),%ecx
    69bc:	52                   	push   %edx
    69bd:	53                   	push   %ebx
    69be:	68 02 04 00 00       	push   $0x402
    69c3:	51                   	push   %ecx
    69c4:	e8 97 4d 00 00       	call   b760 <async_send_fast@plt>
    69c9:	c7 45 c0 00 00 00 00 	movl   $0x0,-0x40(%ebp)
    69d0:	89 c3                	mov    %eax,%ebx
    69d2:	83 c4 20             	add    $0x20,%esp
    69d5:	e9 ff fd ff ff       	jmp    67d9 <hound_service_get_list+0x89>
    69da:	c7 45 ac f2 ff ff ff 	movl   $0xfffffff2,-0x54(%ebp)
    69e1:	8b 45 ac             	mov    -0x54(%ebp),%eax
    69e4:	e9 43 fe ff ff       	jmp    682c <hound_service_get_list+0xdc>
    69e9:	c7 45 ac fe ff ff ff 	movl   $0xfffffffe,-0x54(%ebp)
    69f0:	8b 45 ac             	mov    -0x54(%ebp),%eax
    69f3:	e9 34 fe ff ff       	jmp    682c <hound_service_get_list+0xdc>
    69f8:	50                   	push   %eax
    69f9:	68 ad 00 00 00       	push   $0xad
    69fe:	68 d0 b1 00 00       	push   $0xb1d0
    6a03:	68 e8 b1 00 00       	push   $0xb1e8
    6a08:	e8 a3 4d 00 00       	call   b7b0 <assert_abort@plt>
    6a0d:	51                   	push   %ecx
    6a0e:	68 ac 00 00 00       	push   $0xac
    6a13:	68 d0 b1 00 00       	push   $0xb1d0
    6a18:	68 e4 b1 00 00       	push   $0xb1e4
    6a1d:	e8 8e 4d 00 00       	call   b7b0 <assert_abort@plt>
    6a22:	50                   	push   %eax
    6a23:	68 ab 00 00 00       	push   $0xab
    6a28:	68 d0 b1 00 00       	push   $0xb1d0
    6a2d:	68 df b1 00 00       	push   $0xb1df
    6a32:	e8 79 4d 00 00       	call   b7b0 <assert_abort@plt>
    6a37:	8b 5d a8             	mov    -0x58(%ebp),%ebx
    6a3a:	e9 b6 fe ff ff       	jmp    68f5 <hound_service_get_list+0x1a5>
    6a3f:	89 cb                	mov    %ecx,%ebx
    6a41:	e9 af fe ff ff       	jmp    68f5 <hound_service_get_list+0x1a5>
    6a46:	8d 76 00             	lea    0x0(%esi),%esi
    6a49:	8d bc 27 00 00 00 00 	lea    0x0(%edi,%eiz,1),%edi

00006a50 <hound_service_connect_source_sink>:
    6a50:	55                   	push   %ebp
    6a51:	89 e5                	mov    %esp,%ebp
    6a53:	57                   	push   %edi
    6a54:	56                   	push   %esi
    6a55:	53                   	push   %ebx
    6a56:	83 ec 3c             	sub    $0x3c,%esp
    6a59:	8b 45 08             	mov    0x8(%ebp),%eax
    6a5c:	8b 75 0c             	mov    0xc(%ebp),%esi
    6a5f:	85 c0                	test   %eax,%eax
    6a61:	0f 84 f2 00 00 00    	je     6b59 <hound_service_connect_source_sink+0x109>
    6a67:	85 f6                	test   %esi,%esi
    6a69:	0f 84 d5 00 00 00    	je     6b44 <hound_service_connect_source_sink+0xf4>
    6a6f:	8b 55 10             	mov    0x10(%ebp),%edx
    6a72:	85 d2                	test   %edx,%edx
    6a74:	0f 84 b5 00 00 00    	je     6b2f <hound_service_connect_source_sink+0xdf>
    6a7a:	83 ec 0c             	sub    $0xc,%esp
    6a7d:	50                   	push   %eax
    6a7e:	e8 9d 4e 00 00       	call   b920 <async_exchange_begin@plt>
    6a83:	83 c4 10             	add    $0x10,%esp
    6a86:	89 c3                	mov    %eax,%ebx
    6a88:	85 c0                	test   %eax,%eax
    6a8a:	0f 84 98 00 00 00    	je     6b28 <hound_service_connect_source_sink+0xd8>
    6a90:	8d 45 c4             	lea    -0x3c(%ebp),%eax
    6a93:	57                   	push   %edi
    6a94:	50                   	push   %eax
    6a95:	6a 00                	push   $0x0
    6a97:	6a 00                	push   $0x0
    6a99:	6a 00                	push   $0x0
    6a9b:	6a 00                	push   $0x0
    6a9d:	68 03 04 00 00       	push   $0x403
    6aa2:	53                   	push   %ebx
    6aa3:	e8 b8 4c 00 00       	call   b760 <async_send_fast@plt>
    6aa8:	83 c4 20             	add    $0x20,%esp
    6aab:	89 c7                	mov    %eax,%edi
    6aad:	85 c0                	test   %eax,%eax
    6aaf:	75 2f                	jne    6ae0 <hound_service_connect_source_sink+0x90>
    6ab1:	c7 45 c0 f8 ff ff ff 	movl   $0xfffffff8,-0x40(%ebp)
    6ab8:	50                   	push   %eax
    6ab9:	50                   	push   %eax
    6aba:	8d 45 c0             	lea    -0x40(%ebp),%eax
    6abd:	50                   	push   %eax
    6abe:	57                   	push   %edi
    6abf:	e8 9c 4b 00 00       	call   b660 <async_wait_for@plt>
    6ac4:	89 1c 24             	mov    %ebx,(%esp)
    6ac7:	e8 c4 4c 00 00       	call   b790 <async_exchange_end@plt>
    6acc:	8b 45 c0             	mov    -0x40(%ebp),%eax
    6acf:	83 c4 10             	add    $0x10,%esp
    6ad2:	8d 65 f4             	lea    -0xc(%ebp),%esp
    6ad5:	5b                   	pop    %ebx
    6ad6:	5e                   	pop    %esi
    6ad7:	5f                   	pop    %edi
    6ad8:	5d                   	pop    %ebp
    6ad9:	c3                   	ret    
    6ada:	8d b6 00 00 00 00    	lea    0x0(%esi),%esi
    6ae0:	83 ec 0c             	sub    $0xc,%esp
    6ae3:	c7 45 c0 00 00 00 00 	movl   $0x0,-0x40(%ebp)
    6aea:	56                   	push   %esi
    6aeb:	e8 00 4e 00 00       	call   b8f0 <str_size@plt>
    6af0:	83 c4 0c             	add    $0xc,%esp
    6af3:	50                   	push   %eax
    6af4:	56                   	push   %esi
    6af5:	53                   	push   %ebx
    6af6:	e8 85 4b 00 00       	call   b680 <async_data_write_start@plt>
    6afb:	83 c4 10             	add    $0x10,%esp
    6afe:	89 45 c0             	mov    %eax,-0x40(%ebp)
    6b01:	85 c0                	test   %eax,%eax
    6b03:	75 b3                	jne    6ab8 <hound_service_connect_source_sink+0x68>
    6b05:	83 ec 0c             	sub    $0xc,%esp
    6b08:	8b 55 10             	mov    0x10(%ebp),%edx
    6b0b:	52                   	push   %edx
    6b0c:	e8 df 4d 00 00       	call   b8f0 <str_size@plt>
    6b11:	83 c4 0c             	add    $0xc,%esp
    6b14:	8b 4d 10             	mov    0x10(%ebp),%ecx
    6b17:	50                   	push   %eax
    6b18:	51                   	push   %ecx
    6b19:	53                   	push   %ebx
    6b1a:	e8 61 4b 00 00       	call   b680 <async_data_write_start@plt>
    6b1f:	83 c4 10             	add    $0x10,%esp
    6b22:	89 45 c0             	mov    %eax,-0x40(%ebp)
    6b25:	eb 91                	jmp    6ab8 <hound_service_connect_source_sink+0x68>
    6b27:	90                   	nop
    6b28:	b8 fe ff ff ff       	mov    $0xfffffffe,%eax
    6b2d:	eb a3                	jmp    6ad2 <hound_service_connect_source_sink+0x82>
    6b2f:	50                   	push   %eax
    6b30:	68 f7 00 00 00       	push   $0xf7
    6b35:	68 d0 b1 00 00       	push   $0xb1d0
    6b3a:	68 76 95 00 00       	push   $0x9576
    6b3f:	e8 6c 4c 00 00       	call   b7b0 <assert_abort@plt>
    6b44:	51                   	push   %ecx
    6b45:	68 f6 00 00 00       	push   $0xf6
    6b4a:	68 d0 b1 00 00       	push   $0xb1d0
    6b4f:	68 63 92 00 00       	push   $0x9263
    6b54:	e8 57 4c 00 00       	call   b7b0 <assert_abort@plt>
    6b59:	53                   	push   %ebx
    6b5a:	68 f5 00 00 00       	push   $0xf5
    6b5f:	68 d0 b1 00 00       	push   $0xb1d0
    6b64:	68 df b1 00 00       	push   $0xb1df
    6b69:	e8 42 4c 00 00       	call   b7b0 <assert_abort@plt>
    6b6e:	66 90                	xchg   %ax,%ax

00006b70 <hound_service_disconnect_source_sink>:
    6b70:	55                   	push   %ebp
    6b71:	89 e5                	mov    %esp,%ebp
    6b73:	56                   	push   %esi
    6b74:	53                   	push   %ebx
    6b75:	83 ec 30             	sub    $0x30,%esp
    6b78:	8b 45 08             	mov    0x8(%ebp),%eax
    6b7b:	85 c0                	test   %eax,%eax
    6b7d:	0f 84 c1 00 00 00    	je     6c44 <hound_service_disconnect_source_sink+0xd4>
    6b83:	83 ec 0c             	sub    $0xc,%esp
    6b86:	50                   	push   %eax
    6b87:	e8 94 4d 00 00       	call   b920 <async_exchange_begin@plt>
    6b8c:	83 c4 10             	add    $0x10,%esp
    6b8f:	89 c3                	mov    %eax,%ebx
    6b91:	85 c0                	test   %eax,%eax
    6b93:	0f 84 9f 00 00 00    	je     6c38 <hound_service_disconnect_source_sink+0xc8>
    6b99:	50                   	push   %eax
    6b9a:	8d 45 d4             	lea    -0x2c(%ebp),%eax
    6b9d:	50                   	push   %eax
    6b9e:	6a 00                	push   $0x0
    6ba0:	6a 00                	push   $0x0
    6ba2:	6a 00                	push   $0x0
    6ba4:	6a 00                	push   $0x0
    6ba6:	68 04 04 00 00       	push   $0x404
    6bab:	53                   	push   %ebx
    6bac:	e8 af 4b 00 00       	call   b760 <async_send_fast@plt>
    6bb1:	83 c4 20             	add    $0x20,%esp
    6bb4:	89 c6                	mov    %eax,%esi
    6bb6:	85 c0                	test   %eax,%eax
    6bb8:	74 6e                	je     6c28 <hound_service_disconnect_source_sink+0xb8>
    6bba:	83 ec 0c             	sub    $0xc,%esp
    6bbd:	8b 45 0c             	mov    0xc(%ebp),%eax
    6bc0:	c7 45 d0 00 00 00 00 	movl   $0x0,-0x30(%ebp)
    6bc7:	50                   	push   %eax
    6bc8:	e8 23 4d 00 00       	call   b8f0 <str_size@plt>
    6bcd:	83 c4 0c             	add    $0xc,%esp
    6bd0:	8b 55 0c             	mov    0xc(%ebp),%edx
    6bd3:	50                   	push   %eax
    6bd4:	52                   	push   %edx
    6bd5:	53                   	push   %ebx
    6bd6:	e8 a5 4a 00 00       	call   b680 <async_data_write_start@plt>
    6bdb:	83 c4 10             	add    $0x10,%esp
    6bde:	89 45 d0             	mov    %eax,-0x30(%ebp)
    6be1:	85 c0                	test   %eax,%eax
    6be3:	75 20                	jne    6c05 <hound_service_disconnect_source_sink+0x95>
    6be5:	83 ec 0c             	sub    $0xc,%esp
    6be8:	8b 45 10             	mov    0x10(%ebp),%eax
    6beb:	50                   	push   %eax
    6bec:	e8 ff 4c 00 00       	call   b8f0 <str_size@plt>
    6bf1:	83 c4 0c             	add    $0xc,%esp
    6bf4:	50                   	push   %eax
    6bf5:	8b 45 10             	mov    0x10(%ebp),%eax
    6bf8:	50                   	push   %eax
    6bf9:	53                   	push   %ebx
    6bfa:	e8 81 4a 00 00       	call   b680 <async_data_write_start@plt>
    6bff:	83 c4 10             	add    $0x10,%esp
    6c02:	89 45 d0             	mov    %eax,-0x30(%ebp)
    6c05:	8d 45 d0             	lea    -0x30(%ebp),%eax
    6c08:	51                   	push   %ecx
    6c09:	51                   	push   %ecx
    6c0a:	50                   	push   %eax
    6c0b:	56                   	push   %esi
    6c0c:	e8 4f 4a 00 00       	call   b660 <async_wait_for@plt>
    6c11:	89 1c 24             	mov    %ebx,(%esp)
    6c14:	e8 77 4b 00 00       	call   b790 <async_exchange_end@plt>
    6c19:	83 c4 10             	add    $0x10,%esp
    6c1c:	8d 65 f8             	lea    -0x8(%ebp),%esp
    6c1f:	b8 f5 ff ff ff       	mov    $0xfffffff5,%eax
    6c24:	5b                   	pop    %ebx
    6c25:	5e                   	pop    %esi
    6c26:	5d                   	pop    %ebp
    6c27:	c3                   	ret    
    6c28:	c7 45 d0 f8 ff ff ff 	movl   $0xfffffff8,-0x30(%ebp)
    6c2f:	eb d4                	jmp    6c05 <hound_service_disconnect_source_sink+0x95>
    6c31:	8d b4 26 00 00 00 00 	lea    0x0(%esi,%eiz,1),%esi
    6c38:	8d 65 f8             	lea    -0x8(%ebp),%esp
    6c3b:	b8 fe ff ff ff       	mov    $0xfffffffe,%eax
    6c40:	5b                   	pop    %ebx
    6c41:	5e                   	pop    %esi
    6c42:	5d                   	pop    %ebp
    6c43:	c3                   	ret    
    6c44:	50                   	push   %eax
    6c45:	68 12 01 00 00       	push   $0x112
    6c4a:	68 d0 b1 00 00       	push   $0xb1d0
    6c4f:	68 df b1 00 00       	push   $0xb1df
    6c54:	e8 57 4b 00 00       	call   b7b0 <assert_abort@plt>
    6c59:	8d b4 26 00 00 00 00 	lea    0x0(%esi,%eiz,1),%esi

00006c60 <hound_service_stream_enter>:
    6c60:	55                   	push   %ebp
    6c61:	ba 1f 85 eb 51       	mov    $0x51eb851f,%edx
    6c66:	89 e5                	mov    %esp,%ebp
    6c68:	89 d0                	mov    %edx,%eax
    6c6a:	83 ec 0c             	sub    $0xc,%esp
    6c6d:	31 c9                	xor    %ecx,%ecx
    6c6f:	f7 65 18             	mull   0x18(%ebp)
    6c72:	8a 4d 14             	mov    0x14(%ebp),%cl
    6c75:	31 c0                	xor    %eax,%eax
    6c77:	c1 ea 05             	shr    $0x5,%edx
    6c7a:	8a 45 1c             	mov    0x1c(%ebp),%al
    6c7d:	c1 e1 10             	shl    $0x10,%ecx
    6c80:	81 e2 ff ff 00 00    	and    $0xffff,%edx
    6c86:	c1 e0 18             	shl    $0x18,%eax
    6c89:	09 ca                	or     %ecx,%edx
    6c8b:	09 c2                	or     %eax,%edx
    6c8d:	8b 45 20             	mov    0x20(%ebp),%eax
    6c90:	6a 00                	push   $0x0
    6c92:	8b 4d 0c             	mov    0xc(%ebp),%ecx
    6c95:	6a 00                	push   $0x0
    6c97:	6a 00                	push   $0x0
    6c99:	6a 00                	push   $0x0
    6c9b:	6a 00                	push   $0x0
    6c9d:	50                   	push   %eax
    6c9e:	8b 45 08             	mov    0x8(%ebp),%eax
    6ca1:	52                   	push   %edx
    6ca2:	8b 55 10             	mov    0x10(%ebp),%edx
    6ca5:	52                   	push   %edx
    6ca6:	51                   	push   %ecx
    6ca7:	68 05 04 00 00       	push   $0x405
    6cac:	50                   	push   %eax
    6cad:	e8 4e 4a 00 00       	call   b700 <async_req_fast@plt>
    6cb2:	c9                   	leave  
    6cb3:	c3                   	ret    
    6cb4:	8d b6 00 00 00 00    	lea    0x0(%esi),%esi
    6cba:	8d bf 00 00 00 00    	lea    0x0(%edi),%edi

00006cc0 <hound_service_stream_exit>:
    6cc0:	55                   	push   %ebp
    6cc1:	89 e5                	mov    %esp,%ebp
    6cc3:	83 ec 0c             	sub    $0xc,%esp
    6cc6:	8b 45 08             	mov    0x8(%ebp),%eax
    6cc9:	6a 00                	push   $0x0
    6ccb:	6a 00                	push   $0x0
    6ccd:	6a 00                	push   $0x0
    6ccf:	6a 00                	push   $0x0
    6cd1:	6a 00                	push   $0x0
    6cd3:	6a 00                	push   $0x0
    6cd5:	6a 00                	push   $0x0
    6cd7:	6a 00                	push   $0x0
    6cd9:	6a 00                	push   $0x0
    6cdb:	68 06 04 00 00       	push   $0x406
    6ce0:	50                   	push   %eax
    6ce1:	e8 1a 4a 00 00       	call   b700 <async_req_fast@plt>
    6ce6:	c9                   	leave  
    6ce7:	c3                   	ret    
    6ce8:	90                   	nop
    6ce9:	8d b4 26 00 00 00 00 	lea    0x0(%esi,%eiz,1),%esi

00006cf0 <hound_service_stream_drain>:
    6cf0:	55                   	push   %ebp
    6cf1:	89 e5                	mov    %esp,%ebp
    6cf3:	83 ec 0c             	sub    $0xc,%esp
    6cf6:	8b 45 08             	mov    0x8(%ebp),%eax
    6cf9:	6a 00                	push   $0x0
    6cfb:	6a 00                	push   $0x0
    6cfd:	6a 00                	push   $0x0
    6cff:	6a 00                	push   $0x0
    6d01:	6a 00                	push   $0x0
    6d03:	6a 00                	push   $0x0
    6d05:	6a 00                	push   $0x0
    6d07:	6a 00                	push   $0x0
    6d09:	6a 00                	push   $0x0
    6d0b:	68 07 04 00 00       	push   $0x407
    6d10:	50                   	push   %eax
    6d11:	e8 ea 49 00 00       	call   b700 <async_req_fast@plt>
    6d16:	c9                   	leave  
    6d17:	c3                   	ret    
    6d18:	90                   	nop
    6d19:	8d b4 26 00 00 00 00 	lea    0x0(%esi,%eiz,1),%esi

00006d20 <hound_service_stream_write>:
    6d20:	55                   	push   %ebp
    6d21:	89 e5                	mov    %esp,%ebp
    6d23:	5d                   	pop    %ebp
    6d24:	e9 57 49 00 00       	jmp    b680 <async_data_write_start@plt>
    6d29:	8d b4 26 00 00 00 00 	lea    0x0(%esi,%eiz,1),%esi

00006d30 <hound_service_stream_read>:
    6d30:	55                   	push   %ebp
    6d31:	89 e5                	mov    %esp,%ebp
    6d33:	5d                   	pop    %ebp
    6d34:	e9 57 4b 00 00       	jmp    b890 <async_data_read_start@plt>
    6d39:	8d b4 26 00 00 00 00 	lea    0x0(%esi,%eiz,1),%esi

00006d40 <hound_service_set_server_iface>:
    6d40:	55                   	push   %ebp
    6d41:	89 e5                	mov    %esp,%ebp
    6d43:	8b 45 08             	mov    0x8(%ebp),%eax
    6d46:	5d                   	pop    %ebp
    6d47:	a3 88 d7 00 00       	mov    %eax,0xd788
    6d4c:	c3                   	ret    
    6d4d:	8d 76 00             	lea    0x0(%esi),%esi

00006d50 <hound_connection_handler>:
    6d50:	55                   	push   %ebp
    6d51:	89 e5                	mov    %esp,%ebp
    6d53:	57                   	push   %edi
    6d54:	56                   	push   %esi
    6d55:	53                   	push   %ebx
    6d56:	83 ec 7c             	sub    $0x7c,%esp
    6d59:	8b 1d 88 d7 00 00    	mov    0xd788,%ebx
    6d5f:	8b 45 08             	mov    0x8(%ebp),%eax
    6d62:	85 db                	test   %ebx,%ebx
    6d64:	0f 84 4e 07 00 00    	je     74b8 <hound_connection_handler+0x768>
    6d6a:	51                   	push   %ecx
    6d6b:	51                   	push   %ecx
    6d6c:	6a 00                	push   $0x0
    6d6e:	50                   	push   %eax
    6d6f:	e8 cc 49 00 00       	call   b740 <async_answer_0@plt>
    6d74:	83 c4 10             	add    $0x10,%esp
    6d77:	90                   	nop
    6d78:	50                   	push   %eax
    6d79:	50                   	push   %eax
    6d7a:	8d 45 a0             	lea    -0x60(%ebp),%eax
    6d7d:	6a 00                	push   $0x0
    6d7f:	50                   	push   %eax
    6d80:	e8 5b 4b 00 00       	call   b8e0 <async_get_call_timeout@plt>
    6d85:	89 c7                	mov    %eax,%edi
    6d87:	8b 45 a0             	mov    -0x60(%ebp),%eax
    6d8a:	2d 00 04 00 00       	sub    $0x400,%eax
    6d8f:	83 c4 10             	add    $0x10,%esp
    6d92:	83 f8 07             	cmp    $0x7,%eax
    6d95:	0f 87 0d 04 00 00    	ja     71a8 <hound_connection_handler+0x458>
    6d9b:	ff 24 85 fc b1 00 00 	jmp    *0xb1fc(,%eax,4)
    6da2:	8d b6 00 00 00 00    	lea    0x0(%esi),%esi
    6da8:	a1 88 d7 00 00       	mov    0xd788,%eax
    6dad:	85 c0                	test   %eax,%eax
    6daf:	0f 84 fb 01 00 00    	je     6fb0 <hound_connection_handler+0x260>
    6db5:	8b 48 08             	mov    0x8(%eax),%ecx
    6db8:	85 c9                	test   %ecx,%ecx
    6dba:	0f 84 f0 01 00 00    	je     6fb0 <hound_connection_handler+0x260>
    6dc0:	8b 58 18             	mov    0x18(%eax),%ebx
    6dc3:	85 db                	test   %ebx,%ebx
    6dc5:	0f 84 e5 01 00 00    	je     6fb0 <hound_connection_handler+0x260>
    6dcb:	8b 50 1c             	mov    0x1c(%eax),%edx
    6dce:	85 d2                	test   %edx,%edx
    6dd0:	0f 84 da 01 00 00    	je     6fb0 <hound_connection_handler+0x260>
    6dd6:	8b 55 ac             	mov    -0x54(%ebp),%edx
    6dd9:	8b 4d a4             	mov    -0x5c(%ebp),%ecx
    6ddc:	89 4d 80             	mov    %ecx,-0x80(%ebp)
    6ddf:	89 d1                	mov    %edx,%ecx
    6de1:	c1 e9 10             	shr    $0x10,%ecx
    6de4:	89 ce                	mov    %ecx,%esi
    6de6:	31 c9                	xor    %ecx,%ecx
    6de8:	66 89 d1             	mov    %dx,%cx
    6deb:	81 e6 ff 00 00 00    	and    $0xff,%esi
    6df1:	c1 ea 18             	shr    $0x18,%edx
    6df4:	89 75 94             	mov    %esi,-0x6c(%ebp)
    6df7:	8d 0c 89             	lea    (%ecx,%ecx,4),%ecx
    6dfa:	89 55 84             	mov    %edx,-0x7c(%ebp)
    6dfd:	89 55 9c             	mov    %edx,-0x64(%ebp)
    6e00:	8d 55 88             	lea    -0x78(%ebp),%edx
    6e03:	52                   	push   %edx
    6e04:	8d 0c 89             	lea    (%ecx,%ecx,4),%ecx
    6e07:	c1 e1 02             	shl    $0x2,%ecx
    6e0a:	8b 55 b0             	mov    -0x50(%ebp),%edx
    6e0d:	52                   	push   %edx
    6e0e:	8b 55 84             	mov    -0x7c(%ebp),%edx
    6e11:	52                   	push   %edx
    6e12:	51                   	push   %ecx
    6e13:	56                   	push   %esi
    6e14:	89 4d 98             	mov    %ecx,-0x68(%ebp)
    6e17:	8b 75 80             	mov    -0x80(%ebp),%esi
    6e1a:	8b 4d a8             	mov    -0x58(%ebp),%ecx
    6e1d:	8b 40 2c             	mov    0x2c(%eax),%eax
    6e20:	51                   	push   %ecx
    6e21:	56                   	push   %esi
    6e22:	50                   	push   %eax
    6e23:	ff d3                	call   *%ebx
    6e25:	83 c4 20             	add    $0x20,%esp
    6e28:	89 45 84             	mov    %eax,-0x7c(%ebp)
    6e2b:	85 c0                	test   %eax,%eax
    6e2d:	0f 85 63 03 00 00    	jne    7196 <hound_connection_handler+0x446>
    6e33:	a1 88 d7 00 00       	mov    0xd788,%eax
    6e38:	52                   	push   %edx
    6e39:	52                   	push   %edx
    6e3a:	8b 4d 80             	mov    -0x80(%ebp),%ecx
    6e3d:	8b 58 2c             	mov    0x2c(%eax),%ebx
    6e40:	51                   	push   %ecx
    6e41:	53                   	push   %ebx
    6e42:	ff 50 08             	call   *0x8(%eax)
    6e45:	83 c4 10             	add    $0x10,%esp
    6e48:	84 c0                	test   %al,%al
    6e4a:	a1 88 d7 00 00       	mov    0xd788,%eax
    6e4f:	0f 84 83 04 00 00    	je     72d8 <hound_connection_handler+0x588>
    6e55:	8b 40 28             	mov    0x28(%eax),%eax
    6e58:	85 c0                	test   %eax,%eax
    6e5a:	0f 84 50 01 00 00    	je     6fb0 <hound_connection_handler+0x260>
    6e60:	50                   	push   %eax
    6e61:	50                   	push   %eax
    6e62:	6a 00                	push   $0x0
    6e64:	57                   	push   %edi
    6e65:	e8 d6 48 00 00       	call   b740 <async_answer_0@plt>
    6e6a:	8b 45 88             	mov    -0x78(%ebp),%eax
    6e6d:	89 45 80             	mov    %eax,-0x80(%ebp)
    6e70:	c7 45 90 00 00 00 00 	movl   $0x0,-0x70(%ebp)
    6e77:	83 c4 10             	add    $0x10,%esp
    6e7a:	8d 75 90             	lea    -0x70(%ebp),%esi
    6e7d:	8d 5d 8c             	lea    -0x74(%ebp),%ebx
    6e80:	50                   	push   %eax
    6e81:	8d 45 c4             	lea    -0x3c(%ebp),%eax
    6e84:	56                   	push   %esi
    6e85:	50                   	push   %eax
    6e86:	53                   	push   %ebx
    6e87:	e8 94 48 00 00       	call   b720 <async_data_read_receive_call@plt>
    6e8c:	83 c4 10             	add    $0x10,%esp
    6e8f:	84 c0                	test   %al,%al
    6e91:	0f 84 61 05 00 00    	je     73f8 <hound_connection_handler+0x6a8>
    6e97:	81 7d c4 07 04 00 00 	cmpl   $0x407,-0x3c(%ebp)
    6e9e:	74 5d                	je     6efd <hound_connection_handler+0x1ad>
    6ea0:	8b 45 84             	mov    -0x7c(%ebp),%eax
    6ea3:	85 c0                	test   %eax,%eax
    6ea5:	75 75                	jne    6f1c <hound_connection_handler+0x1cc>
    6ea7:	83 ec 0c             	sub    $0xc,%esp
    6eaa:	8b 45 90             	mov    -0x70(%ebp),%eax
    6ead:	50                   	push   %eax
    6eae:	e8 2d 48 00 00       	call   b6e0 <malloc@plt>
    6eb3:	83 c4 10             	add    $0x10,%esp
    6eb6:	89 c7                	mov    %eax,%edi
    6eb8:	85 c0                	test   %eax,%eax
    6eba:	0f 84 e0 05 00 00    	je     74a0 <hound_connection_handler+0x750>
    6ec0:	8b 45 90             	mov    -0x70(%ebp),%eax
    6ec3:	51                   	push   %ecx
    6ec4:	50                   	push   %eax
    6ec5:	8b 45 80             	mov    -0x80(%ebp),%eax
    6ec8:	57                   	push   %edi
    6ec9:	50                   	push   %eax
    6eca:	a1 88 d7 00 00       	mov    0xd788,%eax
    6ecf:	ff 50 28             	call   *0x28(%eax)
    6ed2:	83 c4 10             	add    $0x10,%esp
    6ed5:	85 c0                	test   %eax,%eax
    6ed7:	0f 84 5b 05 00 00    	je     7438 <hound_connection_handler+0x6e8>
    6edd:	52                   	push   %edx
    6ede:	8d 45 c4             	lea    -0x3c(%ebp),%eax
    6ee1:	56                   	push   %esi
    6ee2:	50                   	push   %eax
    6ee3:	53                   	push   %ebx
    6ee4:	e8 37 48 00 00       	call   b720 <async_data_read_receive_call@plt>
    6ee9:	83 c4 10             	add    $0x10,%esp
    6eec:	84 c0                	test   %al,%al
    6eee:	0f 84 04 05 00 00    	je     73f8 <hound_connection_handler+0x6a8>
    6ef4:	81 7d c4 07 04 00 00 	cmpl   $0x407,-0x3c(%ebp)
    6efb:	75 aa                	jne    6ea7 <hound_connection_handler+0x157>
    6efd:	a1 88 d7 00 00       	mov    0xd788,%eax
    6f02:	8b 40 20             	mov    0x20(%eax),%eax
    6f05:	85 c0                	test   %eax,%eax
    6f07:	0f 84 05 05 00 00    	je     7412 <hound_connection_handler+0x6c2>
    6f0d:	8d 76 00             	lea    0x0(%esi),%esi
    6f10:	83 ec 0c             	sub    $0xc,%esp
    6f13:	8b 7d 80             	mov    -0x80(%ebp),%edi
    6f16:	57                   	push   %edi
    6f17:	ff d0                	call   *%eax
    6f19:	83 c4 10             	add    $0x10,%esp
    6f1c:	8b 4d 8c             	mov    -0x74(%ebp),%ecx
    6f1f:	52                   	push   %edx
    6f20:	52                   	push   %edx
    6f21:	50                   	push   %eax
    6f22:	51                   	push   %ecx
    6f23:	e8 18 48 00 00       	call   b740 <async_answer_0@plt>
    6f28:	83 c4 10             	add    $0x10,%esp
    6f2b:	e9 50 ff ff ff       	jmp    6e80 <hound_connection_handler+0x130>
    6f30:	a1 88 d7 00 00       	mov    0xd788,%eax
    6f35:	85 c0                	test   %eax,%eax
    6f37:	74 77                	je     6fb0 <hound_connection_handler+0x260>
    6f39:	8b 70 14             	mov    0x14(%eax),%esi
    6f3c:	85 f6                	test   %esi,%esi
    6f3e:	74 70                	je     6fb0 <hound_connection_handler+0x260>
    6f40:	8d 45 94             	lea    -0x6c(%ebp),%eax
    6f43:	c7 45 94 00 00 00 00 	movl   $0x0,-0x6c(%ebp)
    6f4a:	53                   	push   %ebx
    6f4b:	c7 45 c4 00 00 00 00 	movl   $0x0,-0x3c(%ebp)
    6f52:	53                   	push   %ebx
    6f53:	6a 00                	push   $0x0
    6f55:	6a 00                	push   $0x0
    6f57:	6a 00                	push   $0x0
    6f59:	6a 00                	push   $0x0
    6f5b:	6a 01                	push   $0x1
    6f5d:	50                   	push   %eax
    6f5e:	e8 1d 4a 00 00       	call   b980 <async_data_write_accept@plt>
    6f63:	83 c4 20             	add    $0x20,%esp
    6f66:	85 c0                	test   %eax,%eax
    6f68:	0f 84 a2 02 00 00    	je     7210 <hound_connection_handler+0x4c0>
    6f6e:	83 ec 0c             	sub    $0xc,%esp
    6f71:	8b 5d 94             	mov    -0x6c(%ebp),%ebx
    6f74:	89 45 84             	mov    %eax,-0x7c(%ebp)
    6f77:	53                   	push   %ebx
    6f78:	e8 53 4a 00 00       	call   b9d0 <free@plt>
    6f7d:	8b 45 c4             	mov    -0x3c(%ebp),%eax
    6f80:	5e                   	pop    %esi
    6f81:	50                   	push   %eax
    6f82:	e8 49 4a 00 00       	call   b9d0 <free@plt>
    6f87:	58                   	pop    %eax
    6f88:	8b 45 84             	mov    -0x7c(%ebp),%eax
    6f8b:	5a                   	pop    %edx
    6f8c:	50                   	push   %eax
    6f8d:	57                   	push   %edi
    6f8e:	e8 ad 47 00 00       	call   b740 <async_answer_0@plt>
    6f93:	83 c4 10             	add    $0x10,%esp
    6f96:	e9 dd fd ff ff       	jmp    6d78 <hound_connection_handler+0x28>
    6f9b:	90                   	nop
    6f9c:	8d 74 26 00          	lea    0x0(%esi,%eiz,1),%esi
    6fa0:	a1 88 d7 00 00       	mov    0xd788,%eax
    6fa5:	85 c0                	test   %eax,%eax
    6fa7:	74 07                	je     6fb0 <hound_connection_handler+0x260>
    6fa9:	8b 40 10             	mov    0x10(%eax),%eax
    6fac:	85 c0                	test   %eax,%eax
    6fae:	75 90                	jne    6f40 <hound_connection_handler+0x1f0>
    6fb0:	56                   	push   %esi
    6fb1:	56                   	push   %esi
    6fb2:	6a f5                	push   $0xfffffff5
    6fb4:	57                   	push   %edi
    6fb5:	e8 86 47 00 00       	call   b740 <async_answer_0@plt>
    6fba:	83 c4 10             	add    $0x10,%esp
    6fbd:	e9 b6 fd ff ff       	jmp    6d78 <hound_connection_handler+0x28>
    6fc2:	8d b6 00 00 00 00    	lea    0x0(%esi),%esi
    6fc8:	a1 88 d7 00 00       	mov    0xd788,%eax
    6fcd:	85 c0                	test   %eax,%eax
    6fcf:	74 df                	je     6fb0 <hound_connection_handler+0x260>
    6fd1:	8b 48 0c             	mov    0xc(%eax),%ecx
    6fd4:	85 c9                	test   %ecx,%ecx
    6fd6:	74 d8                	je     6fb0 <hound_connection_handler+0x260>
    6fd8:	8b 5d a8             	mov    -0x58(%ebp),%ebx
    6fdb:	8b 75 ac             	mov    -0x54(%ebp),%esi
    6fde:	89 5d 8c             	mov    %ebx,-0x74(%ebp)
    6fe1:	c7 45 88 00 00 00 00 	movl   $0x0,-0x78(%ebp)
    6fe8:	31 db                	xor    %ebx,%ebx
    6fea:	8b 55 a4             	mov    -0x5c(%ebp),%edx
    6fed:	c7 45 90 00 00 00 00 	movl   $0x0,-0x70(%ebp)
    6ff4:	85 f6                	test   %esi,%esi
    6ff6:	0f 85 54 02 00 00    	jne    7250 <hound_connection_handler+0x500>
    6ffc:	83 ec 0c             	sub    $0xc,%esp
    6fff:	52                   	push   %edx
    7000:	8d 55 88             	lea    -0x78(%ebp),%edx
    7003:	53                   	push   %ebx
    7004:	8d 5d 8c             	lea    -0x74(%ebp),%ebx
    7007:	53                   	push   %ebx
    7008:	52                   	push   %edx
    7009:	8b 50 2c             	mov    0x2c(%eax),%edx
    700c:	52                   	push   %edx
    700d:	ff d1                	call   *%ecx
    700f:	83 c4 20             	add    $0x20,%esp
    7012:	89 c3                	mov    %eax,%ebx
    7014:	83 ec 0c             	sub    $0xc,%esp
    7017:	8b 45 90             	mov    -0x70(%ebp),%eax
    701a:	31 f6                	xor    %esi,%esi
    701c:	50                   	push   %eax
    701d:	e8 ae 49 00 00       	call   b9d0 <free@plt>
    7022:	8b 55 8c             	mov    -0x74(%ebp),%edx
    7025:	83 c4 10             	add    $0x10,%esp
    7028:	85 d2                	test   %edx,%edx
    702a:	0f 85 58 02 00 00    	jne    7288 <hound_connection_handler+0x538>
    7030:	50                   	push   %eax
    7031:	52                   	push   %edx
    7032:	53                   	push   %ebx
    7033:	57                   	push   %edi
    7034:	e8 d7 48 00 00       	call   b910 <async_answer_1@plt>
    7039:	8b 55 8c             	mov    -0x74(%ebp),%edx
    703c:	83 c4 10             	add    $0x10,%esp
    703f:	85 d2                	test   %edx,%edx
    7041:	0f 84 31 fd ff ff    	je     6d78 <hound_connection_handler+0x28>
    7047:	85 db                	test   %ebx,%ebx
    7049:	0f 85 29 fd ff ff    	jne    6d78 <hound_connection_handler+0x28>
    704f:	90                   	nop
    7050:	8b 45 88             	mov    -0x78(%ebp),%eax
    7053:	83 ec 0c             	sub    $0xc,%esp
    7056:	8b 04 98             	mov    (%eax,%ebx,4),%eax
    7059:	50                   	push   %eax
    705a:	e8 91 48 00 00       	call   b8f0 <str_size@plt>
    705f:	89 04 9e             	mov    %eax,(%esi,%ebx,4)
    7062:	43                   	inc    %ebx
    7063:	83 c4 10             	add    $0x10,%esp
    7066:	39 5d 8c             	cmp    %ebx,-0x74(%ebp)
    7069:	77 e5                	ja     7050 <hound_connection_handler+0x300>
    706b:	50                   	push   %eax
    706c:	50                   	push   %eax
    706d:	8d 45 94             	lea    -0x6c(%ebp),%eax
    7070:	6a 00                	push   $0x0
    7072:	50                   	push   %eax
    7073:	e8 08 48 00 00       	call   b880 <async_data_read_receive@plt>
    7078:	83 c4 10             	add    $0x10,%esp
    707b:	84 c0                	test   %al,%al
    707d:	0f 85 4a 04 00 00    	jne    74cd <hound_connection_handler+0x77d>
    7083:	31 ff                	xor    %edi,%edi
    7085:	83 ec 0c             	sub    $0xc,%esp
    7088:	31 db                	xor    %ebx,%ebx
    708a:	56                   	push   %esi
    708b:	e8 40 49 00 00       	call   b9d0 <free@plt>
    7090:	8b 75 8c             	mov    -0x74(%ebp),%esi
    7093:	83 c4 10             	add    $0x10,%esp
    7096:	85 f6                	test   %esi,%esi
    7098:	75 22                	jne    70bc <hound_connection_handler+0x36c>
    709a:	e9 81 03 00 00       	jmp    7420 <hound_connection_handler+0x6d0>
    709f:	90                   	nop
    70a0:	8b 45 88             	mov    -0x78(%ebp),%eax
    70a3:	83 ec 0c             	sub    $0xc,%esp
    70a6:	43                   	inc    %ebx
    70a7:	8b 04 30             	mov    (%eax,%esi,1),%eax
    70aa:	50                   	push   %eax
    70ab:	e8 20 49 00 00       	call   b9d0 <free@plt>
    70b0:	83 c4 10             	add    $0x10,%esp
    70b3:	39 5d 8c             	cmp    %ebx,-0x74(%ebp)
    70b6:	0f 86 64 03 00 00    	jbe    7420 <hound_connection_handler+0x6d0>
    70bc:	8b 45 88             	mov    -0x78(%ebp),%eax
    70bf:	8d 34 9d 00 00 00 00 	lea    0x0(,%ebx,4),%esi
    70c6:	83 ec 0c             	sub    $0xc,%esp
    70c9:	8b 14 30             	mov    (%eax,%esi,1),%edx
    70cc:	52                   	push   %edx
    70cd:	e8 1e 48 00 00       	call   b8f0 <str_size@plt>
    70d2:	83 c4 10             	add    $0x10,%esp
    70d5:	85 ff                	test   %edi,%edi
    70d7:	75 c7                	jne    70a0 <hound_connection_handler+0x350>
    70d9:	89 45 84             	mov    %eax,-0x7c(%ebp)
    70dc:	50                   	push   %eax
    70dd:	50                   	push   %eax
    70de:	8d 45 c4             	lea    -0x3c(%ebp),%eax
    70e1:	6a 00                	push   $0x0
    70e3:	50                   	push   %eax
    70e4:	e8 97 47 00 00       	call   b880 <async_data_read_receive@plt>
    70e9:	83 c4 10             	add    $0x10,%esp
    70ec:	8b 55 84             	mov    -0x7c(%ebp),%edx
    70ef:	84 c0                	test   %al,%al
    70f1:	74 ad                	je     70a0 <hound_connection_handler+0x350>
    70f3:	50                   	push   %eax
    70f4:	8b 45 88             	mov    -0x78(%ebp),%eax
    70f7:	52                   	push   %edx
    70f8:	8b 04 30             	mov    (%eax,%esi,1),%eax
    70fb:	50                   	push   %eax
    70fc:	8b 45 c4             	mov    -0x3c(%ebp),%eax
    70ff:	50                   	push   %eax
    7100:	e8 ab 45 00 00       	call   b6b0 <async_data_read_finalize@plt>
    7105:	83 c4 10             	add    $0x10,%esp
    7108:	89 c7                	mov    %eax,%edi
    710a:	eb 94                	jmp    70a0 <hound_connection_handler+0x350>
    710c:	8d 74 26 00          	lea    0x0(%esi,%eiz,1),%esi
    7110:	a1 88 d7 00 00       	mov    0xd788,%eax
    7115:	85 c0                	test   %eax,%eax
    7117:	0f 84 93 fe ff ff    	je     6fb0 <hound_connection_handler+0x260>
    711d:	8b 50 04             	mov    0x4(%eax),%edx
    7120:	85 d2                	test   %edx,%edx
    7122:	0f 84 88 fe ff ff    	je     6fb0 <hound_connection_handler+0x260>
    7128:	51                   	push   %ecx
    7129:	51                   	push   %ecx
    712a:	8b 5d a4             	mov    -0x5c(%ebp),%ebx
    712d:	8b 70 2c             	mov    0x2c(%eax),%esi
    7130:	53                   	push   %ebx
    7131:	56                   	push   %esi
    7132:	ff d2                	call   *%edx
    7134:	5a                   	pop    %edx
    7135:	59                   	pop    %ecx
    7136:	50                   	push   %eax
    7137:	57                   	push   %edi
    7138:	e8 03 46 00 00       	call   b740 <async_answer_0@plt>
    713d:	83 c4 10             	add    $0x10,%esp
    7140:	e9 33 fc ff ff       	jmp    6d78 <hound_connection_handler+0x28>
    7145:	8d 76 00             	lea    0x0(%esi),%esi
    7148:	53                   	push   %ebx
    7149:	53                   	push   %ebx
    714a:	6a f2                	push   $0xfffffff2
    714c:	57                   	push   %edi
    714d:	e8 ee 45 00 00       	call   b740 <async_answer_0@plt>
    7152:	83 c4 10             	add    $0x10,%esp
    7155:	e9 1e fc ff ff       	jmp    6d78 <hound_connection_handler+0x28>
    715a:	8d b6 00 00 00 00    	lea    0x0(%esi),%esi
    7160:	a1 88 d7 00 00       	mov    0xd788,%eax
    7165:	85 c0                	test   %eax,%eax
    7167:	0f 84 43 fe ff ff    	je     6fb0 <hound_connection_handler+0x260>
    716d:	8b 00                	mov    (%eax),%eax
    716f:	85 c0                	test   %eax,%eax
    7171:	0f 84 39 fe ff ff    	je     6fb0 <hound_connection_handler+0x260>
    7177:	50                   	push   %eax
    7178:	50                   	push   %eax
    7179:	8d 45 94             	lea    -0x6c(%ebp),%eax
    717c:	6a 00                	push   $0x0
    717e:	8b 5d a4             	mov    -0x5c(%ebp),%ebx
    7181:	6a 00                	push   $0x0
    7183:	6a 00                	push   $0x0
    7185:	6a 00                	push   $0x0
    7187:	6a 01                	push   $0x1
    7189:	50                   	push   %eax
    718a:	e8 f1 47 00 00       	call   b980 <async_data_write_accept@plt>
    718f:	83 c4 20             	add    $0x20,%esp
    7192:	85 c0                	test   %eax,%eax
    7194:	74 2a                	je     71c0 <hound_connection_handler+0x470>
    7196:	56                   	push   %esi
    7197:	56                   	push   %esi
    7198:	50                   	push   %eax
    7199:	57                   	push   %edi
    719a:	e8 a1 45 00 00       	call   b740 <async_answer_0@plt>
    719f:	83 c4 10             	add    $0x10,%esp
    71a2:	e9 d1 fb ff ff       	jmp    6d78 <hound_connection_handler+0x28>
    71a7:	90                   	nop
    71a8:	51                   	push   %ecx
    71a9:	51                   	push   %ecx
    71aa:	6a f5                	push   $0xfffffff5
    71ac:	57                   	push   %edi
    71ad:	e8 8e 45 00 00       	call   b740 <async_answer_0@plt>
    71b2:	83 c4 10             	add    $0x10,%esp
    71b5:	8d 65 f4             	lea    -0xc(%ebp),%esp
    71b8:	5b                   	pop    %ebx
    71b9:	5e                   	pop    %esi
    71ba:	5f                   	pop    %edi
    71bb:	5d                   	pop    %ebp
    71bc:	c3                   	ret    
    71bd:	8d 76 00             	lea    0x0(%esi),%esi
    71c0:	31 d2                	xor    %edx,%edx
    71c2:	85 db                	test   %ebx,%ebx
    71c4:	0f 95 c2             	setne  %dl
    71c7:	52                   	push   %edx
    71c8:	a1 88 d7 00 00       	mov    0xd788,%eax
    71cd:	8b 55 94             	mov    -0x6c(%ebp),%edx
    71d0:	8d 4d c4             	lea    -0x3c(%ebp),%ecx
    71d3:	52                   	push   %edx
    71d4:	51                   	push   %ecx
    71d5:	8b 48 2c             	mov    0x2c(%eax),%ecx
    71d8:	c7 45 c4 00 00 00 00 	movl   $0x0,-0x3c(%ebp)
    71df:	51                   	push   %ecx
    71e0:	ff 10                	call   *(%eax)
    71e2:	89 c3                	mov    %eax,%ebx
    71e4:	8b 45 94             	mov    -0x6c(%ebp),%eax
    71e7:	5e                   	pop    %esi
    71e8:	50                   	push   %eax
    71e9:	e8 e2 47 00 00       	call   b9d0 <free@plt>
    71ee:	83 c4 10             	add    $0x10,%esp
    71f1:	85 db                	test   %ebx,%ebx
    71f3:	0f 84 c7 00 00 00    	je     72c0 <hound_connection_handler+0x570>
    71f9:	50                   	push   %eax
    71fa:	50                   	push   %eax
    71fb:	53                   	push   %ebx
    71fc:	57                   	push   %edi
    71fd:	e8 3e 45 00 00       	call   b740 <async_answer_0@plt>
    7202:	83 c4 10             	add    $0x10,%esp
    7205:	e9 6e fb ff ff       	jmp    6d78 <hound_connection_handler+0x28>
    720a:	8d b6 00 00 00 00    	lea    0x0(%esi),%esi
    7210:	8d 45 c4             	lea    -0x3c(%ebp),%eax
    7213:	51                   	push   %ecx
    7214:	51                   	push   %ecx
    7215:	6a 00                	push   $0x0
    7217:	6a 00                	push   $0x0
    7219:	6a 00                	push   $0x0
    721b:	6a 00                	push   $0x0
    721d:	6a 01                	push   $0x1
    721f:	50                   	push   %eax
    7220:	e8 5b 47 00 00       	call   b980 <async_data_write_accept@plt>
    7225:	83 c4 20             	add    $0x20,%esp
    7228:	85 c0                	test   %eax,%eax
    722a:	0f 85 3e fd ff ff    	jne    6f6e <hound_connection_handler+0x21e>
    7230:	a1 88 d7 00 00       	mov    0xd788,%eax
    7235:	8b 5d c4             	mov    -0x3c(%ebp),%ebx
    7238:	8b 75 94             	mov    -0x6c(%ebp),%esi
    723b:	51                   	push   %ecx
    723c:	53                   	push   %ebx
    723d:	56                   	push   %esi
    723e:	8b 50 2c             	mov    0x2c(%eax),%edx
    7241:	52                   	push   %edx
    7242:	ff 50 10             	call   *0x10(%eax)
    7245:	83 c4 10             	add    $0x10,%esp
    7248:	e9 21 fd ff ff       	jmp    6f6e <hound_connection_handler+0x21e>
    724d:	8d 76 00             	lea    0x0(%esi),%esi
    7250:	8d 75 90             	lea    -0x70(%ebp),%esi
    7253:	89 55 84             	mov    %edx,-0x7c(%ebp)
    7256:	51                   	push   %ecx
    7257:	51                   	push   %ecx
    7258:	6a 00                	push   $0x0
    725a:	6a 00                	push   $0x0
    725c:	6a 00                	push   $0x0
    725e:	6a 00                	push   $0x0
    7260:	6a 01                	push   $0x1
    7262:	56                   	push   %esi
    7263:	e8 18 47 00 00       	call   b980 <async_data_write_accept@plt>
    7268:	83 c4 20             	add    $0x20,%esp
    726b:	89 c3                	mov    %eax,%ebx
    726d:	85 c0                	test   %eax,%eax
    726f:	8b 55 84             	mov    -0x7c(%ebp),%edx
    7272:	0f 85 9c fd ff ff    	jne    7014 <hound_connection_handler+0x2c4>
    7278:	a1 88 d7 00 00       	mov    0xd788,%eax
    727d:	8b 5d 90             	mov    -0x70(%ebp),%ebx
    7280:	8b 48 0c             	mov    0xc(%eax),%ecx
    7283:	e9 74 fd ff ff       	jmp    6ffc <hound_connection_handler+0x2ac>
    7288:	50                   	push   %eax
    7289:	50                   	push   %eax
    728a:	6a 04                	push   $0x4
    728c:	52                   	push   %edx
    728d:	e8 2e 45 00 00       	call   b7c0 <calloc@plt>
    7292:	8b 55 8c             	mov    -0x74(%ebp),%edx
    7295:	83 c4 10             	add    $0x10,%esp
    7298:	89 c6                	mov    %eax,%esi
    729a:	85 d2                	test   %edx,%edx
    729c:	0f 84 8e fd ff ff    	je     7030 <hound_connection_handler+0x2e0>
    72a2:	85 c0                	test   %eax,%eax
    72a4:	0f 85 86 fd ff ff    	jne    7030 <hound_connection_handler+0x2e0>
    72aa:	50                   	push   %eax
    72ab:	52                   	push   %edx
    72ac:	6a fe                	push   $0xfffffffe
    72ae:	57                   	push   %edi
    72af:	e8 5c 46 00 00       	call   b910 <async_answer_1@plt>
    72b4:	83 c4 10             	add    $0x10,%esp
    72b7:	e9 bc fa ff ff       	jmp    6d78 <hound_connection_handler+0x28>
    72bc:	8d 74 26 00          	lea    0x0(%esi,%eiz,1),%esi
    72c0:	8b 75 c4             	mov    -0x3c(%ebp),%esi
    72c3:	53                   	push   %ebx
    72c4:	56                   	push   %esi
    72c5:	6a 00                	push   $0x0
    72c7:	57                   	push   %edi
    72c8:	e8 43 46 00 00       	call   b910 <async_answer_1@plt>
    72cd:	83 c4 10             	add    $0x10,%esp
    72d0:	e9 a3 fa ff ff       	jmp    6d78 <hound_connection_handler+0x28>
    72d5:	8d 76 00             	lea    0x0(%esi),%esi
    72d8:	8b 40 24             	mov    0x24(%eax),%eax
    72db:	85 c0                	test   %eax,%eax
    72dd:	0f 84 cd fc ff ff    	je     6fb0 <hound_connection_handler+0x260>
    72e3:	50                   	push   %eax
    72e4:	50                   	push   %eax
    72e5:	6a 00                	push   $0x0
    72e7:	57                   	push   %edi
    72e8:	e8 53 44 00 00       	call   b740 <async_answer_0@plt>
    72ed:	8b 45 88             	mov    -0x78(%ebp),%eax
    72f0:	89 45 80             	mov    %eax,-0x80(%ebp)
    72f3:	c7 45 90 00 00 00 00 	movl   $0x0,-0x70(%ebp)
    72fa:	83 c4 10             	add    $0x10,%esp
    72fd:	8d 75 90             	lea    -0x70(%ebp),%esi
    7300:	8d 5d 8c             	lea    -0x74(%ebp),%ebx
    7303:	90                   	nop
    7304:	8d 74 26 00          	lea    0x0(%esi,%eiz,1),%esi
    7308:	8d 45 c4             	lea    -0x3c(%ebp),%eax
    730b:	57                   	push   %edi
    730c:	56                   	push   %esi
    730d:	50                   	push   %eax
    730e:	53                   	push   %ebx
    730f:	e8 dc 44 00 00       	call   b7f0 <async_data_write_receive_call@plt>
    7314:	83 c4 10             	add    $0x10,%esp
    7317:	84 c0                	test   %al,%al
    7319:	0f 84 91 00 00 00    	je     73b0 <hound_connection_handler+0x660>
    731f:	81 7d c4 07 04 00 00 	cmpl   $0x407,-0x3c(%ebp)
    7326:	74 58                	je     7380 <hound_connection_handler+0x630>
    7328:	8b 45 84             	mov    -0x7c(%ebp),%eax
    732b:	85 c0                	test   %eax,%eax
    732d:	75 6d                	jne    739c <hound_connection_handler+0x64c>
    732f:	83 ec 0c             	sub    $0xc,%esp
    7332:	8b 45 90             	mov    -0x70(%ebp),%eax
    7335:	50                   	push   %eax
    7336:	e8 a5 43 00 00       	call   b6e0 <malloc@plt>
    733b:	83 c4 10             	add    $0x10,%esp
    733e:	89 c7                	mov    %eax,%edi
    7340:	85 c0                	test   %eax,%eax
    7342:	0f 84 40 01 00 00    	je     7488 <hound_connection_handler+0x738>
    7348:	8b 55 8c             	mov    -0x74(%ebp),%edx
    734b:	50                   	push   %eax
    734c:	8b 45 90             	mov    -0x70(%ebp),%eax
    734f:	50                   	push   %eax
    7350:	57                   	push   %edi
    7351:	52                   	push   %edx
    7352:	e8 19 46 00 00       	call   b970 <async_data_write_finalize@plt>
    7357:	83 c4 10             	add    $0x10,%esp
    735a:	85 c0                	test   %eax,%eax
    735c:	0f 84 f6 00 00 00    	je     7458 <hound_connection_handler+0x708>
    7362:	50                   	push   %eax
    7363:	8d 45 c4             	lea    -0x3c(%ebp),%eax
    7366:	56                   	push   %esi
    7367:	50                   	push   %eax
    7368:	53                   	push   %ebx
    7369:	e8 82 44 00 00       	call   b7f0 <async_data_write_receive_call@plt>
    736e:	83 c4 10             	add    $0x10,%esp
    7371:	84 c0                	test   %al,%al
    7373:	74 3b                	je     73b0 <hound_connection_handler+0x660>
    7375:	81 7d c4 07 04 00 00 	cmpl   $0x407,-0x3c(%ebp)
    737c:	75 b1                	jne    732f <hound_connection_handler+0x5df>
    737e:	66 90                	xchg   %ax,%ax
    7380:	a1 88 d7 00 00       	mov    0xd788,%eax
    7385:	8b 40 20             	mov    0x20(%eax),%eax
    7388:	85 c0                	test   %eax,%eax
    738a:	0f 84 e8 00 00 00    	je     7478 <hound_connection_handler+0x728>
    7390:	83 ec 0c             	sub    $0xc,%esp
    7393:	8b 7d 80             	mov    -0x80(%ebp),%edi
    7396:	57                   	push   %edi
    7397:	ff d0                	call   *%eax
    7399:	83 c4 10             	add    $0x10,%esp
    739c:	8b 4d 8c             	mov    -0x74(%ebp),%ecx
    739f:	52                   	push   %edx
    73a0:	52                   	push   %edx
    73a1:	50                   	push   %eax
    73a2:	51                   	push   %ecx
    73a3:	e8 98 43 00 00       	call   b740 <async_answer_0@plt>
    73a8:	83 c4 10             	add    $0x10,%esp
    73ab:	e9 58 ff ff ff       	jmp    7308 <hound_connection_handler+0x5b8>
    73b0:	8b 45 c4             	mov    -0x3c(%ebp),%eax
    73b3:	3d 07 04 00 00       	cmp    $0x407,%eax
    73b8:	74 c6                	je     7380 <hound_connection_handler+0x630>
    73ba:	3d 06 04 00 00       	cmp    $0x406,%eax
    73bf:	57                   	push   %edi
    73c0:	0f 94 c0             	sete   %al
    73c3:	25 ff 00 00 00       	and    $0xff,%eax
    73c8:	57                   	push   %edi
    73c9:	48                   	dec    %eax
    73ca:	83 e0 f2             	and    $0xfffffff2,%eax
    73cd:	50                   	push   %eax
    73ce:	8b 45 8c             	mov    -0x74(%ebp),%eax
    73d1:	50                   	push   %eax
    73d2:	e8 69 43 00 00       	call   b740 <async_answer_0@plt>
    73d7:	a1 88 d7 00 00       	mov    0xd788,%eax
    73dc:	8b 5d 88             	mov    -0x78(%ebp),%ebx
    73df:	5a                   	pop    %edx
    73e0:	59                   	pop    %ecx
    73e1:	53                   	push   %ebx
    73e2:	8b 70 2c             	mov    0x2c(%eax),%esi
    73e5:	56                   	push   %esi
    73e6:	ff 50 1c             	call   *0x1c(%eax)
    73e9:	83 c4 10             	add    $0x10,%esp
    73ec:	e9 87 f9 ff ff       	jmp    6d78 <hound_connection_handler+0x28>
    73f1:	8d b4 26 00 00 00 00 	lea    0x0(%esi,%eiz,1),%esi
    73f8:	8b 45 c4             	mov    -0x3c(%ebp),%eax
    73fb:	3d 07 04 00 00       	cmp    $0x407,%eax
    7400:	75 b8                	jne    73ba <hound_connection_handler+0x66a>
    7402:	a1 88 d7 00 00       	mov    0xd788,%eax
    7407:	8b 40 20             	mov    0x20(%eax),%eax
    740a:	85 c0                	test   %eax,%eax
    740c:	0f 85 fe fa ff ff    	jne    6f10 <hound_connection_handler+0x1c0>
    7412:	b8 f5 ff ff ff       	mov    $0xfffffff5,%eax
    7417:	e9 00 fb ff ff       	jmp    6f1c <hound_connection_handler+0x1cc>
    741c:	8d 74 26 00          	lea    0x0(%esi,%eiz,1),%esi
    7420:	83 ec 0c             	sub    $0xc,%esp
    7423:	8b 4d 88             	mov    -0x78(%ebp),%ecx
    7426:	51                   	push   %ecx
    7427:	e8 a4 45 00 00       	call   b9d0 <free@plt>
    742c:	83 c4 10             	add    $0x10,%esp
    742f:	e9 44 f9 ff ff       	jmp    6d78 <hound_connection_handler+0x28>
    7434:	8d 74 26 00          	lea    0x0(%esi,%eiz,1),%esi
    7438:	50                   	push   %eax
    7439:	8b 45 90             	mov    -0x70(%ebp),%eax
    743c:	50                   	push   %eax
    743d:	8b 45 8c             	mov    -0x74(%ebp),%eax
    7440:	57                   	push   %edi
    7441:	50                   	push   %eax
    7442:	e8 69 42 00 00       	call   b6b0 <async_data_read_finalize@plt>
    7447:	83 c4 10             	add    $0x10,%esp
    744a:	89 45 84             	mov    %eax,-0x7c(%ebp)
    744d:	e9 2e fa ff ff       	jmp    6e80 <hound_connection_handler+0x130>
    7452:	8d b6 00 00 00 00    	lea    0x0(%esi),%esi
    7458:	50                   	push   %eax
    7459:	8b 45 90             	mov    -0x70(%ebp),%eax
    745c:	50                   	push   %eax
    745d:	8b 45 80             	mov    -0x80(%ebp),%eax
    7460:	57                   	push   %edi
    7461:	50                   	push   %eax
    7462:	a1 88 d7 00 00       	mov    0xd788,%eax
    7467:	ff 50 24             	call   *0x24(%eax)
    746a:	83 c4 10             	add    $0x10,%esp
    746d:	89 45 84             	mov    %eax,-0x7c(%ebp)
    7470:	e9 93 fe ff ff       	jmp    7308 <hound_connection_handler+0x5b8>
    7475:	8d 76 00             	lea    0x0(%esi),%esi
    7478:	b8 f5 ff ff ff       	mov    $0xfffffff5,%eax
    747d:	e9 1a ff ff ff       	jmp    739c <hound_connection_handler+0x64c>
    7482:	8d b6 00 00 00 00    	lea    0x0(%esi),%esi
    7488:	8b 7d 8c             	mov    -0x74(%ebp),%edi
    748b:	51                   	push   %ecx
    748c:	51                   	push   %ecx
    748d:	6a fe                	push   $0xfffffffe
    748f:	57                   	push   %edi
    7490:	e8 ab 42 00 00       	call   b740 <async_answer_0@plt>
    7495:	83 c4 0c             	add    $0xc,%esp
    7498:	e9 c6 fe ff ff       	jmp    7363 <hound_connection_handler+0x613>
    749d:	8d 76 00             	lea    0x0(%esi),%esi
    74a0:	50                   	push   %eax
    74a1:	50                   	push   %eax
    74a2:	8b 45 8c             	mov    -0x74(%ebp),%eax
    74a5:	6a fe                	push   $0xfffffffe
    74a7:	50                   	push   %eax
    74a8:	e8 93 42 00 00       	call   b740 <async_answer_0@plt>
    74ad:	83 c4 0c             	add    $0xc,%esp
    74b0:	e9 29 fa ff ff       	jmp    6ede <hound_connection_handler+0x18e>
    74b5:	8d 76 00             	lea    0x0(%esi),%esi
    74b8:	52                   	push   %edx
    74b9:	52                   	push   %edx
    74ba:	6a f5                	push   $0xfffffff5
    74bc:	50                   	push   %eax
    74bd:	e8 7e 42 00 00       	call   b740 <async_answer_0@plt>
    74c2:	83 c4 10             	add    $0x10,%esp
    74c5:	8d 65 f4             	lea    -0xc(%ebp),%esp
    74c8:	5b                   	pop    %ebx
    74c9:	5e                   	pop    %esi
    74ca:	5f                   	pop    %edi
    74cb:	5d                   	pop    %ebp
    74cc:	c3                   	ret    
    74cd:	8b 45 8c             	mov    -0x74(%ebp),%eax
    74d0:	57                   	push   %edi
    74d1:	c1 e0 02             	shl    $0x2,%eax
    74d4:	50                   	push   %eax
    74d5:	8b 45 94             	mov    -0x6c(%ebp),%eax
    74d8:	56                   	push   %esi
    74d9:	50                   	push   %eax
    74da:	e8 d1 41 00 00       	call   b6b0 <async_data_read_finalize@plt>
    74df:	83 c4 10             	add    $0x10,%esp
    74e2:	89 c7                	mov    %eax,%edi
    74e4:	e9 9c fb ff ff       	jmp    7085 <hound_connection_handler+0x335>
    74e9:	8d b4 26 00 00 00 00 	lea    0x0(%esi,%eiz,1),%esi

000074f0 <hound_server_register>:
    74f0:	55                   	push   %ebp
    74f1:	89 e5                	mov    %esp,%ebp
    74f3:	53                   	push   %ebx
    74f4:	50                   	push   %eax
    74f5:	8b 45 08             	mov    0x8(%ebp),%eax
    74f8:	8b 5d 0c             	mov    0xc(%ebp),%ebx
    74fb:	85 c0                	test   %eax,%eax
    74fd:	74 31                	je     7530 <hound_server_register+0x40>
    74ff:	85 db                	test   %ebx,%ebx
    7501:	74 2d                	je     7530 <hound_server_register+0x40>
    7503:	83 ec 0c             	sub    $0xc,%esp
    7506:	50                   	push   %eax
    7507:	e8 b4 43 00 00       	call   b8c0 <loc_server_register@plt>
    750c:	83 c4 10             	add    $0x10,%esp
    750f:	85 c0                	test   %eax,%eax
    7511:	74 05                	je     7518 <hound_server_register+0x28>
    7513:	8b 5d fc             	mov    -0x4(%ebp),%ebx
    7516:	c9                   	leave  
    7517:	c3                   	ret    
    7518:	89 5d 0c             	mov    %ebx,0xc(%ebp)
    751b:	a1 10 d6 00 00       	mov    0xd610,%eax
    7520:	8b 5d fc             	mov    -0x4(%ebp),%ebx
    7523:	89 45 08             	mov    %eax,0x8(%ebp)
    7526:	c9                   	leave  
    7527:	e9 64 41 00 00       	jmp    b690 <loc_service_register@plt>
    752c:	8d 74 26 00          	lea    0x0(%esi,%eiz,1),%esi
    7530:	b8 f2 ff ff ff       	mov    $0xfffffff2,%eax
    7535:	eb dc                	jmp    7513 <hound_server_register+0x23>
    7537:	89 f6                	mov    %esi,%esi
    7539:	8d bc 27 00 00 00 00 	lea    0x0(%edi,%eiz,1),%edi

00007540 <hound_server_unregister>:
    7540:	55                   	push   %ebp
    7541:	89 e5                	mov    %esp,%ebp
    7543:	5d                   	pop    %ebp
    7544:	e9 e7 42 00 00       	jmp    b830 <loc_service_unregister@plt>
    7549:	8d b4 26 00 00 00 00 	lea    0x0(%esi,%eiz,1),%esi

00007550 <hound_server_set_device_change_callback>:
    7550:	55                   	push   %ebp
    7551:	89 e5                	mov    %esp,%ebp
    7553:	5d                   	pop    %ebp
    7554:	e9 87 42 00 00       	jmp    b7e0 <loc_register_cat_change_cb@plt>
    7559:	8d b4 26 00 00 00 00 	lea    0x0(%esi,%eiz,1),%esi

00007560 <hound_server_devices_iterate>:
    7560:	55                   	push   %ebp
    7561:	89 e5                	mov    %esp,%ebp
    7563:	57                   	push   %edi
    7564:	56                   	push   %esi
    7565:	53                   	push   %ebx
    7566:	83 ec 1c             	sub    $0x1c,%esp
    7569:	8b 7d 08             	mov    0x8(%ebp),%edi
    756c:	85 ff                	test   %edi,%edi
    756e:	0f 84 bd 00 00 00    	je     7631 <hound_server_devices_iterate+0xd1>
    7574:	80 3d 84 d7 00 00 00 	cmpb   $0x0,0xd784
    757b:	75 24                	jne    75a1 <hound_server_devices_iterate+0x41>
    757d:	56                   	push   %esi
    757e:	6a 01                	push   $0x1
    7580:	68 80 d7 00 00       	push   $0xd780
    7585:	68 b4 9f 00 00       	push   $0x9fb4
    758a:	e8 71 40 00 00       	call   b600 <loc_category_get_id@plt>
    758f:	83 c4 10             	add    $0x10,%esp
    7592:	85 c0                	test   %eax,%eax
    7594:	0f 85 8f 00 00 00    	jne    7629 <hound_server_devices_iterate+0xc9>
    759a:	c6 05 84 d7 00 00 01 	movb   $0x1,0xd784
    75a1:	8d 45 e0             	lea    -0x20(%ebp),%eax
    75a4:	8b 1d 80 d7 00 00    	mov    0xd780,%ebx
    75aa:	51                   	push   %ecx
    75ab:	50                   	push   %eax
    75ac:	8d 45 dc             	lea    -0x24(%ebp),%eax
    75af:	c7 45 dc 00 00 00 00 	movl   $0x0,-0x24(%ebp)
    75b6:	50                   	push   %eax
    75b7:	c7 45 e0 00 00 00 00 	movl   $0x0,-0x20(%ebp)
    75be:	53                   	push   %ebx
    75bf:	e8 0c 43 00 00       	call   b8d0 <loc_category_get_svcs@plt>
    75c4:	83 c4 10             	add    $0x10,%esp
    75c7:	85 c0                	test   %eax,%eax
    75c9:	75 5e                	jne    7629 <hound_server_devices_iterate+0xc9>
    75cb:	8b 55 e0             	mov    -0x20(%ebp),%edx
    75ce:	31 db                	xor    %ebx,%ebx
    75d0:	8d 7d e4             	lea    -0x1c(%ebp),%edi
    75d3:	85 d2                	test   %edx,%edx
    75d5:	74 41                	je     7618 <hound_server_devices_iterate+0xb8>
    75d7:	90                   	nop
    75d8:	8d 34 9d 00 00 00 00 	lea    0x0(,%ebx,4),%esi
    75df:	50                   	push   %eax
    75e0:	50                   	push   %eax
    75e1:	8b 45 dc             	mov    -0x24(%ebp),%eax
    75e4:	57                   	push   %edi
    75e5:	c7 45 e4 00 00 00 00 	movl   $0x0,-0x1c(%ebp)
    75ec:	8b 14 30             	mov    (%eax,%esi,1),%edx
    75ef:	43                   	inc    %ebx
    75f0:	52                   	push   %edx
    75f1:	e8 aa 41 00 00       	call   b7a0 <loc_service_get_name@plt>
    75f6:	59                   	pop    %ecx
    75f7:	58                   	pop    %eax
    75f8:	8b 45 e4             	mov    -0x1c(%ebp),%eax
    75fb:	50                   	push   %eax
    75fc:	8b 45 dc             	mov    -0x24(%ebp),%eax
    75ff:	8b 04 30             	mov    (%eax,%esi,1),%eax
    7602:	50                   	push   %eax
    7603:	ff 55 08             	call   *0x8(%ebp)
    7606:	58                   	pop    %eax
    7607:	8b 45 e4             	mov    -0x1c(%ebp),%eax
    760a:	50                   	push   %eax
    760b:	e8 c0 43 00 00       	call   b9d0 <free@plt>
    7610:	83 c4 10             	add    $0x10,%esp
    7613:	39 5d e0             	cmp    %ebx,-0x20(%ebp)
    7616:	77 c0                	ja     75d8 <hound_server_devices_iterate+0x78>
    7618:	83 ec 0c             	sub    $0xc,%esp
    761b:	8b 45 dc             	mov    -0x24(%ebp),%eax
    761e:	50                   	push   %eax
    761f:	e8 ac 43 00 00       	call   b9d0 <free@plt>
    7624:	83 c4 10             	add    $0x10,%esp
    7627:	31 c0                	xor    %eax,%eax
    7629:	8d 65 f4             	lea    -0xc(%ebp),%esp
    762c:	5b                   	pop    %ebx
    762d:	5e                   	pop    %esi
    762e:	5f                   	pop    %edi
    762f:	5d                   	pop    %ebp
    7630:	c3                   	ret    
    7631:	b8 f2 ff ff ff       	mov    $0xfffffff2,%eax
    7636:	eb f1                	jmp    7629 <hound_server_devices_iterate+0xc9>
    7638:	66 90                	xchg   %ax,%ax
    763a:	66 90                	xchg   %ax,%ax
    763c:	66 90                	xchg   %ax,%ax
    763e:	66 90                	xchg   %ax,%ax

00007640 <get_normalized_sample>:
    7640:	55                   	push   %ebp
    7641:	89 e5                	mov    %esp,%ebp
    7643:	56                   	push   %esi
    7644:	53                   	push   %ebx
    7645:	83 ec 10             	sub    $0x10,%esp
    7648:	8b 75 0c             	mov    0xc(%ebp),%esi
    764b:	85 f6                	test   %esi,%esi
    764d:	0f 84 39 02 00 00    	je     788c <get_normalized_sample+0x24c>
    7653:	85 c0                	test   %eax,%eax
    7655:	0f 84 1c 02 00 00    	je     7877 <get_normalized_sample+0x237>
    765b:	8b 1e                	mov    (%esi),%ebx
    765d:	d9 ee                	fldz   
    765f:	3b 5d 08             	cmp    0x8(%ebp),%ebx
    7662:	76 44                	jbe    76a8 <get_normalized_sample+0x68>
    7664:	dd d8                	fstp   %st(0)
    7666:	83 7e 08 11          	cmpl   $0x11,0x8(%esi)
    766a:	0f 87 00 02 00 00    	ja     7870 <get_normalized_sample+0x230>
    7670:	8b 76 08             	mov    0x8(%esi),%esi
    7673:	ff 24 b5 40 b2 00 00 	jmp    *0xb240(,%esi,4)
    767a:	8d b6 00 00 00 00    	lea    0x0(%esi),%esi
    7680:	0f af cb             	imul   %ebx,%ecx
    7683:	c1 ea 02             	shr    $0x2,%edx
    7686:	8b 5d 08             	mov    0x8(%ebp),%ebx
    7689:	01 d9                	add    %ebx,%ecx
    768b:	d9 ee                	fldz   
    768d:	39 ca                	cmp    %ecx,%edx
    768f:	76 17                	jbe    76a8 <get_normalized_sample+0x68>
    7691:	dd d8                	fstp   %st(0)
    7693:	db 04 88             	fildl  (%eax,%ecx,4)
    7696:	d8 05 a0 b3 00 00    	fadds  0xb3a0
    769c:	d8 0d 9c b3 00 00    	fmuls  0xb39c
    76a2:	d8 25 8c b3 00 00    	fsubs  0xb38c
    76a8:	8d 65 f8             	lea    -0x8(%ebp),%esp
    76ab:	5b                   	pop    %ebx
    76ac:	5e                   	pop    %esi
    76ad:	5d                   	pop    %ebp
    76ae:	c3                   	ret    
    76af:	90                   	nop
    76b0:	0f af cb             	imul   %ebx,%ecx
    76b3:	8b 5d 08             	mov    0x8(%ebp),%ebx
    76b6:	01 d9                	add    %ebx,%ecx
    76b8:	d9 ee                	fldz   
    76ba:	39 ca                	cmp    %ecx,%edx
    76bc:	76 ea                	jbe    76a8 <get_normalized_sample+0x68>
    76be:	dd d8                	fstp   %st(0)
    76c0:	8a 1c 08             	mov    (%eax,%ecx,1),%bl
    76c3:	81 e3 ff 00 00 00    	and    $0xff,%ebx
    76c9:	66 89 5d e8          	mov    %bx,-0x18(%ebp)
    76cd:	df 45 e8             	fild   -0x18(%ebp)
    76d0:	d8 35 88 b3 00 00    	fdivs  0xb388
    76d6:	d8 25 8c b3 00 00    	fsubs  0xb38c
    76dc:	eb ca                	jmp    76a8 <get_normalized_sample+0x68>
    76de:	66 90                	xchg   %ax,%ax
    76e0:	0f af cb             	imul   %ebx,%ecx
    76e3:	8b 75 08             	mov    0x8(%ebp),%esi
    76e6:	01 f1                	add    %esi,%ecx
    76e8:	d9 ee                	fldz   
    76ea:	39 ca                	cmp    %ecx,%edx
    76ec:	76 ba                	jbe    76a8 <get_normalized_sample+0x68>
    76ee:	dd d8                	fstp   %st(0)
    76f0:	66 0f be 04 08       	movsbw (%eax,%ecx,1),%ax
    76f5:	66 89 45 e8          	mov    %ax,-0x18(%ebp)
    76f9:	df 45 e8             	fild   -0x18(%ebp)
    76fc:	d8 05 90 b3 00 00    	fadds  0xb390
    7702:	d8 35 88 b3 00 00    	fdivs  0xb388
    7708:	d8 25 8c b3 00 00    	fsubs  0xb38c
    770e:	eb 98                	jmp    76a8 <get_normalized_sample+0x68>
    7710:	0f af cb             	imul   %ebx,%ecx
    7713:	d1 ea                	shr    %edx
    7715:	8b 5d 08             	mov    0x8(%ebp),%ebx
    7718:	01 d9                	add    %ebx,%ecx
    771a:	d9 ee                	fldz   
    771c:	39 ca                	cmp    %ecx,%edx
    771e:	76 88                	jbe    76a8 <get_normalized_sample+0x68>
    7720:	dd d8                	fstp   %st(0)
    7722:	66 8b 1c 48          	mov    (%eax,%ecx,2),%bx
    7726:	81 e3 ff ff 00 00    	and    $0xffff,%ebx
    772c:	89 5d e8             	mov    %ebx,-0x18(%ebp)
    772f:	db 45 e8             	fildl  -0x18(%ebp)
    7732:	d8 35 94 b3 00 00    	fdivs  0xb394
    7738:	d8 25 8c b3 00 00    	fsubs  0xb38c
    773e:	e9 65 ff ff ff       	jmp    76a8 <get_normalized_sample+0x68>
    7743:	90                   	nop
    7744:	8d 74 26 00          	lea    0x0(%esi,%eiz,1),%esi
    7748:	0f af cb             	imul   %ebx,%ecx
    774b:	d1 ea                	shr    %edx
    774d:	8b 5d 08             	mov    0x8(%ebp),%ebx
    7750:	01 d9                	add    %ebx,%ecx
    7752:	d9 ee                	fldz   
    7754:	39 ca                	cmp    %ecx,%edx
    7756:	0f 86 4c ff ff ff    	jbe    76a8 <get_normalized_sample+0x68>
    775c:	dd d8                	fstp   %st(0)
    775e:	66 8b 04 48          	mov    (%eax,%ecx,2),%ax
    7762:	66 c1 c0 08          	rol    $0x8,%ax
    7766:	25 ff ff 00 00       	and    $0xffff,%eax
    776b:	89 45 e8             	mov    %eax,-0x18(%ebp)
    776e:	db 45 e8             	fildl  -0x18(%ebp)
    7771:	d8 35 94 b3 00 00    	fdivs  0xb394
    7777:	d8 25 8c b3 00 00    	fsubs  0xb38c
    777d:	e9 26 ff ff ff       	jmp    76a8 <get_normalized_sample+0x68>
    7782:	8d b6 00 00 00 00    	lea    0x0(%esi),%esi
    7788:	0f af cb             	imul   %ebx,%ecx
    778b:	d1 ea                	shr    %edx
    778d:	8b 75 08             	mov    0x8(%ebp),%esi
    7790:	01 f1                	add    %esi,%ecx
    7792:	d9 ee                	fldz   
    7794:	39 ca                	cmp    %ecx,%edx
    7796:	0f 86 0c ff ff ff    	jbe    76a8 <get_normalized_sample+0x68>
    779c:	dd d8                	fstp   %st(0)
    779e:	df 04 48             	fild   (%eax,%ecx,2)
    77a1:	d8 05 98 b3 00 00    	fadds  0xb398
    77a7:	d8 35 94 b3 00 00    	fdivs  0xb394
    77ad:	d8 25 8c b3 00 00    	fsubs  0xb38c
    77b3:	e9 f0 fe ff ff       	jmp    76a8 <get_normalized_sample+0x68>
    77b8:	0f af cb             	imul   %ebx,%ecx
    77bb:	d1 ea                	shr    %edx
    77bd:	8b 75 08             	mov    0x8(%ebp),%esi
    77c0:	01 f1                	add    %esi,%ecx
    77c2:	d9 ee                	fldz   
    77c4:	39 ca                	cmp    %ecx,%edx
    77c6:	0f 86 dc fe ff ff    	jbe    76a8 <get_normalized_sample+0x68>
    77cc:	dd d8                	fstp   %st(0)
    77ce:	66 8b 04 48          	mov    (%eax,%ecx,2),%ax
    77d2:	66 c1 c0 08          	rol    $0x8,%ax
    77d6:	25 ff ff 00 00       	and    $0xffff,%eax
    77db:	89 45 e8             	mov    %eax,-0x18(%ebp)
    77de:	db 45 e8             	fildl  -0x18(%ebp)
    77e1:	d8 05 98 b3 00 00    	fadds  0xb398
    77e7:	d8 35 94 b3 00 00    	fdivs  0xb394
    77ed:	d8 25 8c b3 00 00    	fsubs  0xb38c
    77f3:	e9 b0 fe ff ff       	jmp    76a8 <get_normalized_sample+0x68>
    77f8:	0f af cb             	imul   %ebx,%ecx
    77fb:	c1 ea 02             	shr    $0x2,%edx
    77fe:	8b 5d 08             	mov    0x8(%ebp),%ebx
    7801:	01 d9                	add    %ebx,%ecx
    7803:	d9 ee                	fldz   
    7805:	39 ca                	cmp    %ecx,%edx
    7807:	0f 86 9b fe ff ff    	jbe    76a8 <get_normalized_sample+0x68>
    780d:	dd d8                	fstp   %st(0)
    780f:	8b 04 88             	mov    (%eax,%ecx,4),%eax
    7812:	31 d2                	xor    %edx,%edx
    7814:	89 45 e8             	mov    %eax,-0x18(%ebp)
    7817:	89 55 ec             	mov    %edx,-0x14(%ebp)
    781a:	df 6d e8             	fildll -0x18(%ebp)
    781d:	d8 0d 9c b3 00 00    	fmuls  0xb39c
    7823:	d8 25 8c b3 00 00    	fsubs  0xb38c
    7829:	e9 7a fe ff ff       	jmp    76a8 <get_normalized_sample+0x68>
    782e:	66 90                	xchg   %ax,%ax
    7830:	0f af cb             	imul   %ebx,%ecx
    7833:	c1 ea 02             	shr    $0x2,%edx
    7836:	8b 75 08             	mov    0x8(%ebp),%esi
    7839:	01 f1                	add    %esi,%ecx
    783b:	d9 ee                	fldz   
    783d:	39 ca                	cmp    %ecx,%edx
    783f:	0f 86 63 fe ff ff    	jbe    76a8 <get_normalized_sample+0x68>
    7845:	dd d8                	fstp   %st(0)
    7847:	8b 04 88             	mov    (%eax,%ecx,4),%eax
    784a:	c7 45 ec 00 00 00 00 	movl   $0x0,-0x14(%ebp)
    7851:	0f c8                	bswap  %eax
    7853:	89 45 e8             	mov    %eax,-0x18(%ebp)
    7856:	df 6d e8             	fildll -0x18(%ebp)
    7859:	d8 0d 9c b3 00 00    	fmuls  0xb39c
    785f:	d8 25 8c b3 00 00    	fsubs  0xb38c
    7865:	e9 3e fe ff ff       	jmp    76a8 <get_normalized_sample+0x68>
    786a:	8d b6 00 00 00 00    	lea    0x0(%esi),%esi
    7870:	d9 ee                	fldz   
    7872:	e9 31 fe ff ff       	jmp    76a8 <get_normalized_sample+0x68>
    7877:	56                   	push   %esi
    7878:	68 17 01 00 00       	push   $0x117
    787d:	68 1c b2 00 00       	push   $0xb21c
    7882:	68 29 8f 00 00       	push   $0x8f29
    7887:	e8 24 3f 00 00       	call   b7b0 <assert_abort@plt>
    788c:	50                   	push   %eax
    788d:	68 16 01 00 00       	push   $0x116
    7892:	68 1c b2 00 00       	push   $0xb21c
    7897:	68 29 b2 00 00       	push   $0xb229
    789c:	e8 0f 3f 00 00       	call   b7b0 <assert_abort@plt>
    78a1:	eb 0d                	jmp    78b0 <pcm_format_same>
    78a3:	90                   	nop
    78a4:	90                   	nop
    78a5:	90                   	nop
    78a6:	90                   	nop
    78a7:	90                   	nop
    78a8:	90                   	nop
    78a9:	90                   	nop
    78aa:	90                   	nop
    78ab:	90                   	nop
    78ac:	90                   	nop
    78ad:	90                   	nop
    78ae:	90                   	nop
    78af:	90                   	nop

000078b0 <pcm_format_same>:
    78b0:	55                   	push   %ebp
    78b1:	89 e5                	mov    %esp,%ebp
    78b3:	53                   	push   %ebx
    78b4:	51                   	push   %ecx
    78b5:	8b 55 08             	mov    0x8(%ebp),%edx
    78b8:	8b 4d 0c             	mov    0xc(%ebp),%ecx
    78bb:	85 d2                	test   %edx,%edx
    78bd:	74 2a                	je     78e9 <pcm_format_same+0x39>
    78bf:	85 c9                	test   %ecx,%ecx
    78c1:	74 38                	je     78fb <pcm_format_same+0x4b>
    78c3:	8b 59 04             	mov    0x4(%ecx),%ebx
    78c6:	31 c0                	xor    %eax,%eax
    78c8:	39 5a 04             	cmp    %ebx,0x4(%edx)
    78cb:	74 0b                	je     78d8 <pcm_format_same+0x28>
    78cd:	8b 5d fc             	mov    -0x4(%ebp),%ebx
    78d0:	c9                   	leave  
    78d1:	c3                   	ret    
    78d2:	8d b6 00 00 00 00    	lea    0x0(%esi),%esi
    78d8:	8b 19                	mov    (%ecx),%ebx
    78da:	39 1a                	cmp    %ebx,(%edx)
    78dc:	75 ef                	jne    78cd <pcm_format_same+0x1d>
    78de:	8b 41 08             	mov    0x8(%ecx),%eax
    78e1:	39 42 08             	cmp    %eax,0x8(%edx)
    78e4:	0f 94 c0             	sete   %al
    78e7:	eb e4                	jmp    78cd <pcm_format_same+0x1d>
    78e9:	52                   	push   %edx
    78ea:	6a 68                	push   $0x68
    78ec:	68 1c b2 00 00       	push   $0xb21c
    78f1:	68 2b 90 00 00       	push   $0x902b
    78f6:	e8 b5 3e 00 00       	call   b7b0 <assert_abort@plt>
    78fb:	50                   	push   %eax
    78fc:	6a 69                	push   $0x69
    78fe:	68 1c b2 00 00       	push   $0xb21c
    7903:	68 2b b2 00 00       	push   $0xb22b
    7908:	e8 a3 3e 00 00       	call   b7b0 <assert_abort@plt>
    790d:	8d 76 00             	lea    0x0(%esi),%esi

00007910 <pcm_format_silence>:
    7910:	55                   	push   %ebp
    7911:	89 e5                	mov    %esp,%ebp
    7913:	57                   	push   %edi
    7914:	56                   	push   %esi
    7915:	53                   	push   %ebx
    7916:	53                   	push   %ebx
    7917:	8b 55 10             	mov    0x10(%ebp),%edx
    791a:	8b 45 08             	mov    0x8(%ebp),%eax
    791d:	83 7a 08 11          	cmpl   $0x11,0x8(%edx)
    7921:	0f 87 a7 00 00 00    	ja     79ce <pcm_format_silence+0xbe>
    7927:	8b 52 08             	mov    0x8(%edx),%edx
    792a:	ff 24 95 88 b2 00 00 	jmp    *0xb288(,%edx,4)
    7931:	8d b4 26 00 00 00 00 	lea    0x0(%esi,%eiz,1),%esi
    7938:	8b 55 0c             	mov    0xc(%ebp),%edx
    793b:	d1 ea                	shr    %edx
    793d:	0f 84 8b 00 00 00    	je     79ce <pcm_format_silence+0xbe>
    7943:	89 c6                	mov    %eax,%esi
    7945:	d1 ee                	shr    %esi
    7947:	83 e6 01             	and    $0x1,%esi
    794a:	83 fa 06             	cmp    $0x6,%edx
    794d:	0f 87 75 06 00 00    	ja     7fc8 <pcm_format_silence+0x6b8>
    7953:	66 c7 00 00 80       	movw   $0x8000,(%eax)
    7958:	83 fa 01             	cmp    $0x1,%edx
    795b:	0f 84 90 05 00 00    	je     7ef1 <pcm_format_silence+0x5e1>
    7961:	66 c7 40 02 00 80    	movw   $0x8000,0x2(%eax)
    7967:	83 fa 02             	cmp    $0x2,%edx
    796a:	0f 84 9f 05 00 00    	je     7f0f <pcm_format_silence+0x5ff>
    7970:	66 c7 40 04 00 80    	movw   $0x8000,0x4(%eax)
    7976:	83 fa 03             	cmp    $0x3,%edx
    7979:	0f 84 ba 05 00 00    	je     7f39 <pcm_format_silence+0x629>
    797f:	66 c7 40 06 00 80    	movw   $0x8000,0x6(%eax)
    7985:	83 fa 04             	cmp    $0x4,%edx
    7988:	0f 84 9c 05 00 00    	je     7f2a <pcm_format_silence+0x61a>
    798e:	66 c7 40 08 00 80    	movw   $0x8000,0x8(%eax)
    7994:	83 fa 06             	cmp    $0x6,%edx
    7997:	0f 85 81 05 00 00    	jne    7f1e <pcm_format_silence+0x60e>
    799d:	66 c7 40 0a 00 80    	movw   $0x8000,0xa(%eax)
    79a3:	b9 06 00 00 00       	mov    $0x6,%ecx
    79a8:	be 06 00 00 00       	mov    $0x6,%esi
    79ad:	39 ca                	cmp    %ecx,%edx
    79af:	74 1d                	je     79ce <pcm_format_silence+0xbe>
    79b1:	29 ca                	sub    %ecx,%edx
    79b3:	8d 5a fe             	lea    -0x2(%edx),%ebx
    79b6:	d1 eb                	shr    %ebx
    79b8:	43                   	inc    %ebx
    79b9:	83 fa 01             	cmp    $0x1,%edx
    79bc:	8d 3c 1b             	lea    (%ebx,%ebx,1),%edi
    79bf:	89 7d f0             	mov    %edi,-0x10(%ebp)
    79c2:	0f 85 16 06 00 00    	jne    7fde <pcm_format_silence+0x6ce>
    79c8:	66 c7 04 70 00 80    	movw   $0x8000,(%eax,%esi,2)
    79ce:	58                   	pop    %eax
    79cf:	5b                   	pop    %ebx
    79d0:	5e                   	pop    %esi
    79d1:	5f                   	pop    %edi
    79d2:	5d                   	pop    %ebp
    79d3:	c3                   	ret    
    79d4:	8d 74 26 00          	lea    0x0(%esi,%eiz,1),%esi
    79d8:	8b 55 0c             	mov    0xc(%ebp),%edx
    79db:	c1 ea 02             	shr    $0x2,%edx
    79de:	74 ee                	je     79ce <pcm_format_silence+0xbe>
    79e0:	8d 14 90             	lea    (%eax,%edx,4),%edx
    79e3:	90                   	nop
    79e4:	8d 74 26 00          	lea    0x0(%esi,%eiz,1),%esi
    79e8:	c7 00 00 00 00 00    	movl   $0x0,(%eax)
    79ee:	83 c0 04             	add    $0x4,%eax
    79f1:	39 c2                	cmp    %eax,%edx
    79f3:	75 f3                	jne    79e8 <pcm_format_silence+0xd8>
    79f5:	eb d7                	jmp    79ce <pcm_format_silence+0xbe>
    79f7:	90                   	nop
    79f8:	8b 55 0c             	mov    0xc(%ebp),%edx
    79fb:	85 d2                	test   %edx,%edx
    79fd:	74 cf                	je     79ce <pcm_format_silence+0xbe>
    79ff:	89 c2                	mov    %eax,%edx
    7a01:	f7 da                	neg    %edx
    7a03:	83 e2 03             	and    $0x3,%edx
    7a06:	3b 55 0c             	cmp    0xc(%ebp),%edx
    7a09:	0f 87 29 04 00 00    	ja     7e38 <pcm_format_silence+0x528>
    7a0f:	83 7d 0c 06          	cmpl   $0x6,0xc(%ebp)
    7a13:	0f 87 7f 06 00 00    	ja     8098 <pcm_format_silence+0x788>
    7a19:	8b 55 0c             	mov    0xc(%ebp),%edx
    7a1c:	c6 00 80             	movb   $0x80,(%eax)
    7a1f:	83 fa 01             	cmp    $0x1,%edx
    7a22:	0f 84 59 05 00 00    	je     7f81 <pcm_format_silence+0x671>
    7a28:	c6 40 01 80          	movb   $0x80,0x1(%eax)
    7a2c:	83 fa 02             	cmp    $0x2,%edx
    7a2f:	0f 84 8f 04 00 00    	je     7ec4 <pcm_format_silence+0x5b4>
    7a35:	c6 40 02 80          	movb   $0x80,0x2(%eax)
    7a39:	83 fa 03             	cmp    $0x3,%edx
    7a3c:	0f 84 78 04 00 00    	je     7eba <pcm_format_silence+0x5aa>
    7a42:	c6 40 03 80          	movb   $0x80,0x3(%eax)
    7a46:	83 fa 04             	cmp    $0x4,%edx
    7a49:	0f 84 61 04 00 00    	je     7eb0 <pcm_format_silence+0x5a0>
    7a4f:	c6 40 04 80          	movb   $0x80,0x4(%eax)
    7a53:	83 fa 06             	cmp    $0x6,%edx
    7a56:	0f 85 4a 04 00 00    	jne    7ea6 <pcm_format_silence+0x596>
    7a5c:	c6 40 05 80          	movb   $0x80,0x5(%eax)
    7a60:	b9 06 00 00 00       	mov    $0x6,%ecx
    7a65:	39 55 0c             	cmp    %edx,0xc(%ebp)
    7a68:	0f 84 60 ff ff ff    	je     79ce <pcm_format_silence+0xbe>
    7a6e:	8b 75 0c             	mov    0xc(%ebp),%esi
    7a71:	29 d6                	sub    %edx,%esi
    7a73:	8d 5e fc             	lea    -0x4(%esi),%ebx
    7a76:	c1 eb 02             	shr    $0x2,%ebx
    7a79:	43                   	inc    %ebx
    7a7a:	8d 3c 9d 00 00 00 00 	lea    0x0(,%ebx,4),%edi
    7a81:	89 7d f0             	mov    %edi,-0x10(%ebp)
    7a84:	8b 7d 0c             	mov    0xc(%ebp),%edi
    7a87:	4f                   	dec    %edi
    7a88:	29 d7                	sub    %edx,%edi
    7a8a:	83 ff 02             	cmp    $0x2,%edi
    7a8d:	76 1d                	jbe    7aac <pcm_format_silence+0x19c>
    7a8f:	01 c2                	add    %eax,%edx
    7a91:	31 ff                	xor    %edi,%edi
    7a93:	c7 04 ba 80 80 80 80 	movl   $0x80808080,(%edx,%edi,4)
    7a9a:	47                   	inc    %edi
    7a9b:	39 fb                	cmp    %edi,%ebx
    7a9d:	77 f4                	ja     7a93 <pcm_format_silence+0x183>
    7a9f:	8b 7d f0             	mov    -0x10(%ebp),%edi
    7aa2:	01 f9                	add    %edi,%ecx
    7aa4:	39 f7                	cmp    %esi,%edi
    7aa6:	0f 84 22 ff ff ff    	je     79ce <pcm_format_silence+0xbe>
    7aac:	8d 51 01             	lea    0x1(%ecx),%edx
    7aaf:	c6 04 08 80          	movb   $0x80,(%eax,%ecx,1)
    7ab3:	39 55 0c             	cmp    %edx,0xc(%ebp)
    7ab6:	0f 86 12 ff ff ff    	jbe    79ce <pcm_format_silence+0xbe>
    7abc:	c6 44 08 01 80       	movb   $0x80,0x1(%eax,%ecx,1)
    7ac1:	83 c1 02             	add    $0x2,%ecx
    7ac4:	39 4d 0c             	cmp    %ecx,0xc(%ebp)
    7ac7:	0f 86 01 ff ff ff    	jbe    79ce <pcm_format_silence+0xbe>
    7acd:	c6 04 08 80          	movb   $0x80,(%eax,%ecx,1)
    7ad1:	e9 f8 fe ff ff       	jmp    79ce <pcm_format_silence+0xbe>
    7ad6:	66 90                	xchg   %ax,%ax
    7ad8:	8b 4d 0c             	mov    0xc(%ebp),%ecx
    7adb:	85 c9                	test   %ecx,%ecx
    7add:	0f 84 eb fe ff ff    	je     79ce <pcm_format_silence+0xbe>
    7ae3:	89 c2                	mov    %eax,%edx
    7ae5:	f7 da                	neg    %edx
    7ae7:	83 e2 03             	and    $0x3,%edx
    7aea:	3b 55 0c             	cmp    0xc(%ebp),%edx
    7aed:	0f 87 3d 03 00 00    	ja     7e30 <pcm_format_silence+0x520>
    7af3:	83 7d 0c 06          	cmpl   $0x6,0xc(%ebp)
    7af7:	0f 87 73 05 00 00    	ja     8070 <pcm_format_silence+0x760>
    7afd:	8b 55 0c             	mov    0xc(%ebp),%edx
    7b00:	c6 00 00             	movb   $0x0,(%eax)
    7b03:	83 fa 01             	cmp    $0x1,%edx
    7b06:	0f 84 90 03 00 00    	je     7e9c <pcm_format_silence+0x58c>
    7b0c:	c6 40 01 00          	movb   $0x0,0x1(%eax)
    7b10:	83 fa 02             	cmp    $0x2,%edx
    7b13:	0f 84 79 03 00 00    	je     7e92 <pcm_format_silence+0x582>
    7b19:	c6 40 02 00          	movb   $0x0,0x2(%eax)
    7b1d:	83 fa 03             	cmp    $0x3,%edx
    7b20:	0f 84 62 03 00 00    	je     7e88 <pcm_format_silence+0x578>
    7b26:	c6 40 03 00          	movb   $0x0,0x3(%eax)
    7b2a:	83 fa 04             	cmp    $0x4,%edx
    7b2d:	0f 84 a5 03 00 00    	je     7ed8 <pcm_format_silence+0x5c8>
    7b33:	c6 40 04 00          	movb   $0x0,0x4(%eax)
    7b37:	83 fa 06             	cmp    $0x6,%edx
    7b3a:	0f 85 8e 03 00 00    	jne    7ece <pcm_format_silence+0x5be>
    7b40:	c6 40 05 00          	movb   $0x0,0x5(%eax)
    7b44:	b9 06 00 00 00       	mov    $0x6,%ecx
    7b49:	39 55 0c             	cmp    %edx,0xc(%ebp)
    7b4c:	0f 84 7c fe ff ff    	je     79ce <pcm_format_silence+0xbe>
    7b52:	8b 75 0c             	mov    0xc(%ebp),%esi
    7b55:	29 d6                	sub    %edx,%esi
    7b57:	8d 5e fc             	lea    -0x4(%esi),%ebx
    7b5a:	c1 eb 02             	shr    $0x2,%ebx
    7b5d:	43                   	inc    %ebx
    7b5e:	8d 3c 9d 00 00 00 00 	lea    0x0(,%ebx,4),%edi
    7b65:	89 7d f0             	mov    %edi,-0x10(%ebp)
    7b68:	8b 7d 0c             	mov    0xc(%ebp),%edi
    7b6b:	4f                   	dec    %edi
    7b6c:	29 d7                	sub    %edx,%edi
    7b6e:	83 ff 02             	cmp    $0x2,%edi
    7b71:	76 1d                	jbe    7b90 <pcm_format_silence+0x280>
    7b73:	01 c2                	add    %eax,%edx
    7b75:	31 ff                	xor    %edi,%edi
    7b77:	c7 04 ba 00 00 00 00 	movl   $0x0,(%edx,%edi,4)
    7b7e:	47                   	inc    %edi
    7b7f:	39 fb                	cmp    %edi,%ebx
    7b81:	77 f4                	ja     7b77 <pcm_format_silence+0x267>
    7b83:	8b 7d f0             	mov    -0x10(%ebp),%edi
    7b86:	01 f9                	add    %edi,%ecx
    7b88:	39 fe                	cmp    %edi,%esi
    7b8a:	0f 84 3e fe ff ff    	je     79ce <pcm_format_silence+0xbe>
    7b90:	8d 51 01             	lea    0x1(%ecx),%edx
    7b93:	c6 04 08 00          	movb   $0x0,(%eax,%ecx,1)
    7b97:	39 55 0c             	cmp    %edx,0xc(%ebp)
    7b9a:	0f 86 2e fe ff ff    	jbe    79ce <pcm_format_silence+0xbe>
    7ba0:	c6 44 08 01 00       	movb   $0x0,0x1(%eax,%ecx,1)
    7ba5:	83 c1 02             	add    $0x2,%ecx
    7ba8:	39 4d 0c             	cmp    %ecx,0xc(%ebp)
    7bab:	0f 86 1d fe ff ff    	jbe    79ce <pcm_format_silence+0xbe>
    7bb1:	c6 04 08 00          	movb   $0x0,(%eax,%ecx,1)
    7bb5:	e9 14 fe ff ff       	jmp    79ce <pcm_format_silence+0xbe>
    7bba:	8d b6 00 00 00 00    	lea    0x0(%esi),%esi
    7bc0:	8b 55 0c             	mov    0xc(%ebp),%edx
    7bc3:	d1 ea                	shr    %edx
    7bc5:	0f 84 03 fe ff ff    	je     79ce <pcm_format_silence+0xbe>
    7bcb:	89 c6                	mov    %eax,%esi
    7bcd:	d1 ee                	shr    %esi
    7bcf:	83 e6 01             	and    $0x1,%esi
    7bd2:	83 fa 06             	cmp    $0x6,%edx
    7bd5:	0f 87 6d 04 00 00    	ja     8048 <pcm_format_silence+0x738>
    7bdb:	66 c7 00 00 00       	movw   $0x0,(%eax)
    7be0:	83 fa 01             	cmp    $0x1,%edx
    7be3:	0f 84 f9 02 00 00    	je     7ee2 <pcm_format_silence+0x5d2>
    7be9:	66 c7 40 02 00 00    	movw   $0x0,0x2(%eax)
    7bef:	83 fa 02             	cmp    $0x2,%edx
    7bf2:	0f 84 72 02 00 00    	je     7e6a <pcm_format_silence+0x55a>
    7bf8:	66 c7 40 04 00 00    	movw   $0x0,0x4(%eax)
    7bfe:	83 fa 03             	cmp    $0x3,%edx
    7c01:	0f 84 54 02 00 00    	je     7e5b <pcm_format_silence+0x54b>
    7c07:	66 c7 40 06 00 00    	movw   $0x0,0x6(%eax)
    7c0d:	83 fa 04             	cmp    $0x4,%edx
    7c10:	0f 84 36 02 00 00    	je     7e4c <pcm_format_silence+0x53c>
    7c16:	66 c7 40 08 00 00    	movw   $0x0,0x8(%eax)
    7c1c:	83 fa 06             	cmp    $0x6,%edx
    7c1f:	0f 85 1b 02 00 00    	jne    7e40 <pcm_format_silence+0x530>
    7c25:	66 c7 40 0a 00 00    	movw   $0x0,0xa(%eax)
    7c2b:	b9 06 00 00 00       	mov    $0x6,%ecx
    7c30:	be 06 00 00 00       	mov    $0x6,%esi
    7c35:	39 ca                	cmp    %ecx,%edx
    7c37:	0f 84 91 fd ff ff    	je     79ce <pcm_format_silence+0xbe>
    7c3d:	29 ca                	sub    %ecx,%edx
    7c3f:	8d 5a fe             	lea    -0x2(%edx),%ebx
    7c42:	d1 eb                	shr    %ebx
    7c44:	43                   	inc    %ebx
    7c45:	83 fa 01             	cmp    $0x1,%edx
    7c48:	8d 3c 1b             	lea    (%ebx,%ebx,1),%edi
    7c4b:	89 7d f0             	mov    %edi,-0x10(%ebp)
    7c4e:	0f 85 06 04 00 00    	jne    805a <pcm_format_silence+0x74a>
    7c54:	66 c7 04 70 00 00    	movw   $0x0,(%eax,%esi,2)
    7c5a:	58                   	pop    %eax
    7c5b:	5b                   	pop    %ebx
    7c5c:	5e                   	pop    %esi
    7c5d:	5f                   	pop    %edi
    7c5e:	5d                   	pop    %ebp
    7c5f:	c3                   	ret    
    7c60:	8b 55 0c             	mov    0xc(%ebp),%edx
    7c63:	d1 ea                	shr    %edx
    7c65:	0f 84 63 fd ff ff    	je     79ce <pcm_format_silence+0xbe>
    7c6b:	89 c6                	mov    %eax,%esi
    7c6d:	d1 ee                	shr    %esi
    7c6f:	83 e6 01             	and    $0x1,%esi
    7c72:	83 fa 06             	cmp    $0x6,%edx
    7c75:	0f 87 8d 03 00 00    	ja     8008 <pcm_format_silence+0x6f8>
    7c7b:	66 c7 00 80 00       	movw   $0x80,(%eax)
    7c80:	83 fa 01             	cmp    $0x1,%edx
    7c83:	0f 84 77 02 00 00    	je     7f00 <pcm_format_silence+0x5f0>
    7c89:	66 c7 40 02 80 00    	movw   $0x80,0x2(%eax)
    7c8f:	83 fa 02             	cmp    $0x2,%edx
    7c92:	0f 84 da 02 00 00    	je     7f72 <pcm_format_silence+0x662>
    7c98:	66 c7 40 04 80 00    	movw   $0x80,0x4(%eax)
    7c9e:	83 fa 03             	cmp    $0x3,%edx
    7ca1:	0f 84 bc 02 00 00    	je     7f63 <pcm_format_silence+0x653>
    7ca7:	66 c7 40 06 80 00    	movw   $0x80,0x6(%eax)
    7cad:	83 fa 04             	cmp    $0x4,%edx
    7cb0:	0f 84 9e 02 00 00    	je     7f54 <pcm_format_silence+0x644>
    7cb6:	66 c7 40 08 80 00    	movw   $0x80,0x8(%eax)
    7cbc:	83 fa 06             	cmp    $0x6,%edx
    7cbf:	0f 85 83 02 00 00    	jne    7f48 <pcm_format_silence+0x638>
    7cc5:	66 c7 40 0a 80 00    	movw   $0x80,0xa(%eax)
    7ccb:	b9 06 00 00 00       	mov    $0x6,%ecx
    7cd0:	be 06 00 00 00       	mov    $0x6,%esi
    7cd5:	39 ca                	cmp    %ecx,%edx
    7cd7:	0f 84 f1 fc ff ff    	je     79ce <pcm_format_silence+0xbe>
    7cdd:	29 ca                	sub    %ecx,%edx
    7cdf:	8d 5a fe             	lea    -0x2(%edx),%ebx
    7ce2:	d1 eb                	shr    %ebx
    7ce4:	43                   	inc    %ebx
    7ce5:	83 fa 01             	cmp    $0x1,%edx
    7ce8:	8d 3c 1b             	lea    (%ebx,%ebx,1),%edi
    7ceb:	89 7d f0             	mov    %edi,-0x10(%ebp)
    7cee:	0f 85 2a 03 00 00    	jne    801e <pcm_format_silence+0x70e>
    7cf4:	66 c7 04 70 80 00    	movw   $0x80,(%eax,%esi,2)
    7cfa:	58                   	pop    %eax
    7cfb:	5b                   	pop    %ebx
    7cfc:	5e                   	pop    %esi
    7cfd:	5f                   	pop    %edi
    7cfe:	5d                   	pop    %ebp
    7cff:	c3                   	ret    
    7d00:	8b 55 0c             	mov    0xc(%ebp),%edx
    7d03:	c1 ea 02             	shr    $0x2,%edx
    7d06:	0f 84 c2 fc ff ff    	je     79ce <pcm_format_silence+0xbe>
    7d0c:	8d 14 90             	lea    (%eax,%edx,4),%edx
    7d0f:	90                   	nop
    7d10:	c7 00 80 00 00 00    	movl   $0x80,(%eax)
    7d16:	83 c0 04             	add    $0x4,%eax
    7d19:	39 d0                	cmp    %edx,%eax
    7d1b:	75 f3                	jne    7d10 <pcm_format_silence+0x400>
    7d1d:	e9 ac fc ff ff       	jmp    79ce <pcm_format_silence+0xbe>
    7d22:	8d b6 00 00 00 00    	lea    0x0(%esi),%esi
    7d28:	8b 55 0c             	mov    0xc(%ebp),%edx
    7d2b:	d1 ea                	shr    %edx
    7d2d:	0f 84 9b fc ff ff    	je     79ce <pcm_format_silence+0xbe>
    7d33:	89 c6                	mov    %eax,%esi
    7d35:	d1 ee                	shr    %esi
    7d37:	83 e6 01             	and    $0x1,%esi
    7d3a:	83 fa 06             	cmp    $0x6,%edx
    7d3d:	0f 87 3d 03 00 00    	ja     8080 <pcm_format_silence+0x770>
    7d43:	66 c7 00 00 00       	movw   $0x0,(%eax)
    7d48:	83 fa 01             	cmp    $0x1,%edx
    7d4b:	0f 84 28 01 00 00    	je     7e79 <pcm_format_silence+0x569>
    7d51:	66 c7 40 02 00 00    	movw   $0x0,0x2(%eax)
    7d57:	83 fa 02             	cmp    $0x2,%edx
    7d5a:	0f 84 55 02 00 00    	je     7fb5 <pcm_format_silence+0x6a5>
    7d60:	66 c7 40 04 00 00    	movw   $0x0,0x4(%eax)
    7d66:	83 fa 03             	cmp    $0x3,%edx
    7d69:	0f 84 37 02 00 00    	je     7fa6 <pcm_format_silence+0x696>
    7d6f:	66 c7 40 06 00 00    	movw   $0x0,0x6(%eax)
    7d75:	83 fa 04             	cmp    $0x4,%edx
    7d78:	0f 84 19 02 00 00    	je     7f97 <pcm_format_silence+0x687>
    7d7e:	66 c7 40 08 00 00    	movw   $0x0,0x8(%eax)
    7d84:	83 fa 06             	cmp    $0x6,%edx
    7d87:	0f 85 fe 01 00 00    	jne    7f8b <pcm_format_silence+0x67b>
    7d8d:	66 c7 40 0a 00 00    	movw   $0x0,0xa(%eax)
    7d93:	b9 06 00 00 00       	mov    $0x6,%ecx
    7d98:	be 06 00 00 00       	mov    $0x6,%esi
    7d9d:	39 ca                	cmp    %ecx,%edx
    7d9f:	0f 84 29 fc ff ff    	je     79ce <pcm_format_silence+0xbe>
    7da5:	29 ca                	sub    %ecx,%edx
    7da7:	8d 5a fe             	lea    -0x2(%edx),%ebx
    7daa:	d1 eb                	shr    %ebx
    7dac:	43                   	inc    %ebx
    7dad:	83 fa 01             	cmp    $0x1,%edx
    7db0:	8d 3c 1b             	lea    (%ebx,%ebx,1),%edi
    7db3:	89 7d f0             	mov    %edi,-0x10(%ebp)
    7db6:	0f 84 98 fe ff ff    	je     7c54 <pcm_format_silence+0x344>
    7dbc:	8d 3c 48             	lea    (%eax,%ecx,2),%edi
    7dbf:	31 c9                	xor    %ecx,%ecx
    7dc1:	c7 04 8f 00 00 00 00 	movl   $0x0,(%edi,%ecx,4)
    7dc8:	41                   	inc    %ecx
    7dc9:	39 d9                	cmp    %ebx,%ecx
    7dcb:	72 f4                	jb     7dc1 <pcm_format_silence+0x4b1>
    7dcd:	8b 5d f0             	mov    -0x10(%ebp),%ebx
    7dd0:	01 de                	add    %ebx,%esi
    7dd2:	39 da                	cmp    %ebx,%edx
    7dd4:	0f 85 7a fe ff ff    	jne    7c54 <pcm_format_silence+0x344>
    7dda:	e9 ef fb ff ff       	jmp    79ce <pcm_format_silence+0xbe>
    7ddf:	90                   	nop
    7de0:	8b 55 0c             	mov    0xc(%ebp),%edx
    7de3:	c1 ea 02             	shr    $0x2,%edx
    7de6:	0f 84 e2 fb ff ff    	je     79ce <pcm_format_silence+0xbe>
    7dec:	8d 14 90             	lea    (%eax,%edx,4),%edx
    7def:	90                   	nop
    7df0:	c7 00 00 00 00 80    	movl   $0x80000000,(%eax)
    7df6:	83 c0 04             	add    $0x4,%eax
    7df9:	39 c2                	cmp    %eax,%edx
    7dfb:	75 f3                	jne    7df0 <pcm_format_silence+0x4e0>
    7dfd:	e9 cc fb ff ff       	jmp    79ce <pcm_format_silence+0xbe>
    7e02:	8d b6 00 00 00 00    	lea    0x0(%esi),%esi
    7e08:	8b 55 0c             	mov    0xc(%ebp),%edx
    7e0b:	c1 ea 02             	shr    $0x2,%edx
    7e0e:	0f 84 ba fb ff ff    	je     79ce <pcm_format_silence+0xbe>
    7e14:	8d 14 90             	lea    (%eax,%edx,4),%edx
    7e17:	90                   	nop
    7e18:	c7 00 00 00 00 00    	movl   $0x0,(%eax)
    7e1e:	83 c0 04             	add    $0x4,%eax
    7e21:	39 c2                	cmp    %eax,%edx
    7e23:	75 f3                	jne    7e18 <pcm_format_silence+0x508>
    7e25:	e9 a4 fb ff ff       	jmp    79ce <pcm_format_silence+0xbe>
    7e2a:	8d b6 00 00 00 00    	lea    0x0(%esi),%esi
    7e30:	8b 55 0c             	mov    0xc(%ebp),%edx
    7e33:	e9 bb fc ff ff       	jmp    7af3 <pcm_format_silence+0x1e3>
    7e38:	8b 55 0c             	mov    0xc(%ebp),%edx
    7e3b:	e9 cf fb ff ff       	jmp    7a0f <pcm_format_silence+0xff>
    7e40:	89 d1                	mov    %edx,%ecx
    7e42:	be 05 00 00 00       	mov    $0x5,%esi
    7e47:	e9 e9 fd ff ff       	jmp    7c35 <pcm_format_silence+0x325>
    7e4c:	b9 04 00 00 00       	mov    $0x4,%ecx
    7e51:	be 04 00 00 00       	mov    $0x4,%esi
    7e56:	e9 da fd ff ff       	jmp    7c35 <pcm_format_silence+0x325>
    7e5b:	b9 03 00 00 00       	mov    $0x3,%ecx
    7e60:	be 03 00 00 00       	mov    $0x3,%esi
    7e65:	e9 cb fd ff ff       	jmp    7c35 <pcm_format_silence+0x325>
    7e6a:	b9 02 00 00 00       	mov    $0x2,%ecx
    7e6f:	be 02 00 00 00       	mov    $0x2,%esi
    7e74:	e9 bc fd ff ff       	jmp    7c35 <pcm_format_silence+0x325>
    7e79:	b9 01 00 00 00       	mov    $0x1,%ecx
    7e7e:	be 01 00 00 00       	mov    $0x1,%esi
    7e83:	e9 15 ff ff ff       	jmp    7d9d <pcm_format_silence+0x48d>
    7e88:	b9 03 00 00 00       	mov    $0x3,%ecx
    7e8d:	e9 b7 fc ff ff       	jmp    7b49 <pcm_format_silence+0x239>
    7e92:	b9 02 00 00 00       	mov    $0x2,%ecx
    7e97:	e9 ad fc ff ff       	jmp    7b49 <pcm_format_silence+0x239>
    7e9c:	b9 01 00 00 00       	mov    $0x1,%ecx
    7ea1:	e9 a3 fc ff ff       	jmp    7b49 <pcm_format_silence+0x239>
    7ea6:	b9 05 00 00 00       	mov    $0x5,%ecx
    7eab:	e9 b5 fb ff ff       	jmp    7a65 <pcm_format_silence+0x155>
    7eb0:	b9 04 00 00 00       	mov    $0x4,%ecx
    7eb5:	e9 ab fb ff ff       	jmp    7a65 <pcm_format_silence+0x155>
    7eba:	b9 03 00 00 00       	mov    $0x3,%ecx
    7ebf:	e9 a1 fb ff ff       	jmp    7a65 <pcm_format_silence+0x155>
    7ec4:	b9 02 00 00 00       	mov    $0x2,%ecx
    7ec9:	e9 97 fb ff ff       	jmp    7a65 <pcm_format_silence+0x155>
    7ece:	b9 05 00 00 00       	mov    $0x5,%ecx
    7ed3:	e9 71 fc ff ff       	jmp    7b49 <pcm_format_silence+0x239>
    7ed8:	b9 04 00 00 00       	mov    $0x4,%ecx
    7edd:	e9 67 fc ff ff       	jmp    7b49 <pcm_format_silence+0x239>
    7ee2:	b9 01 00 00 00       	mov    $0x1,%ecx
    7ee7:	be 01 00 00 00       	mov    $0x1,%esi
    7eec:	e9 44 fd ff ff       	jmp    7c35 <pcm_format_silence+0x325>
    7ef1:	b9 01 00 00 00       	mov    $0x1,%ecx
    7ef6:	be 01 00 00 00       	mov    $0x1,%esi
    7efb:	e9 ad fa ff ff       	jmp    79ad <pcm_format_silence+0x9d>
    7f00:	b9 01 00 00 00       	mov    $0x1,%ecx
    7f05:	be 01 00 00 00       	mov    $0x1,%esi
    7f0a:	e9 c6 fd ff ff       	jmp    7cd5 <pcm_format_silence+0x3c5>
    7f0f:	b9 02 00 00 00       	mov    $0x2,%ecx
    7f14:	be 02 00 00 00       	mov    $0x2,%esi
    7f19:	e9 8f fa ff ff       	jmp    79ad <pcm_format_silence+0x9d>
    7f1e:	89 d1                	mov    %edx,%ecx
    7f20:	be 05 00 00 00       	mov    $0x5,%esi
    7f25:	e9 83 fa ff ff       	jmp    79ad <pcm_format_silence+0x9d>
    7f2a:	b9 04 00 00 00       	mov    $0x4,%ecx
    7f2f:	be 04 00 00 00       	mov    $0x4,%esi
    7f34:	e9 74 fa ff ff       	jmp    79ad <pcm_format_silence+0x9d>
    7f39:	b9 03 00 00 00       	mov    $0x3,%ecx
    7f3e:	be 03 00 00 00       	mov    $0x3,%esi
    7f43:	e9 65 fa ff ff       	jmp    79ad <pcm_format_silence+0x9d>
    7f48:	89 d1                	mov    %edx,%ecx
    7f4a:	be 05 00 00 00       	mov    $0x5,%esi
    7f4f:	e9 81 fd ff ff       	jmp    7cd5 <pcm_format_silence+0x3c5>
    7f54:	b9 04 00 00 00       	mov    $0x4,%ecx
    7f59:	be 04 00 00 00       	mov    $0x4,%esi
    7f5e:	e9 72 fd ff ff       	jmp    7cd5 <pcm_format_silence+0x3c5>
    7f63:	b9 03 00 00 00       	mov    $0x3,%ecx
    7f68:	be 03 00 00 00       	mov    $0x3,%esi
    7f6d:	e9 63 fd ff ff       	jmp    7cd5 <pcm_format_silence+0x3c5>
    7f72:	b9 02 00 00 00       	mov    $0x2,%ecx
    7f77:	be 02 00 00 00       	mov    $0x2,%esi
    7f7c:	e9 54 fd ff ff       	jmp    7cd5 <pcm_format_silence+0x3c5>
    7f81:	b9 01 00 00 00       	mov    $0x1,%ecx
    7f86:	e9 da fa ff ff       	jmp    7a65 <pcm_format_silence+0x155>
    7f8b:	89 d1                	mov    %edx,%ecx
    7f8d:	be 05 00 00 00       	mov    $0x5,%esi
    7f92:	e9 06 fe ff ff       	jmp    7d9d <pcm_format_silence+0x48d>
    7f97:	b9 04 00 00 00       	mov    $0x4,%ecx
    7f9c:	be 04 00 00 00       	mov    $0x4,%esi
    7fa1:	e9 f7 fd ff ff       	jmp    7d9d <pcm_format_silence+0x48d>
    7fa6:	b9 03 00 00 00       	mov    $0x3,%ecx
    7fab:	be 03 00 00 00       	mov    $0x3,%esi
    7fb0:	e9 e8 fd ff ff       	jmp    7d9d <pcm_format_silence+0x48d>
    7fb5:	b9 02 00 00 00       	mov    $0x2,%ecx
    7fba:	be 02 00 00 00       	mov    $0x2,%esi
    7fbf:	e9 d9 fd ff ff       	jmp    7d9d <pcm_format_silence+0x48d>
    7fc4:	8d 74 26 00          	lea    0x0(%esi,%eiz,1),%esi
    7fc8:	85 f6                	test   %esi,%esi
    7fca:	0f 85 04 01 00 00    	jne    80d4 <pcm_format_silence+0x7c4>
    7fd0:	8d 5a fe             	lea    -0x2(%edx),%ebx
    7fd3:	31 c9                	xor    %ecx,%ecx
    7fd5:	d1 eb                	shr    %ebx
    7fd7:	43                   	inc    %ebx
    7fd8:	8d 3c 1b             	lea    (%ebx,%ebx,1),%edi
    7fdb:	89 7d f0             	mov    %edi,-0x10(%ebp)
    7fde:	8d 3c 48             	lea    (%eax,%ecx,2),%edi
    7fe1:	31 c9                	xor    %ecx,%ecx
    7fe3:	c7 04 8f 00 80 00 80 	movl   $0x80008000,(%edi,%ecx,4)
    7fea:	41                   	inc    %ecx
    7feb:	39 d9                	cmp    %ebx,%ecx
    7fed:	72 f4                	jb     7fe3 <pcm_format_silence+0x6d3>
    7fef:	8b 7d f0             	mov    -0x10(%ebp),%edi
    7ff2:	01 fe                	add    %edi,%esi
    7ff4:	39 fa                	cmp    %edi,%edx
    7ff6:	0f 85 cc f9 ff ff    	jne    79c8 <pcm_format_silence+0xb8>
    7ffc:	e9 cd f9 ff ff       	jmp    79ce <pcm_format_silence+0xbe>
    8001:	8d b4 26 00 00 00 00 	lea    0x0(%esi,%eiz,1),%esi
    8008:	85 f6                	test   %esi,%esi
    800a:	0f 85 a6 00 00 00    	jne    80b6 <pcm_format_silence+0x7a6>
    8010:	8d 5a fe             	lea    -0x2(%edx),%ebx
    8013:	31 c9                	xor    %ecx,%ecx
    8015:	d1 eb                	shr    %ebx
    8017:	43                   	inc    %ebx
    8018:	8d 3c 1b             	lea    (%ebx,%ebx,1),%edi
    801b:	89 7d f0             	mov    %edi,-0x10(%ebp)
    801e:	8d 3c 48             	lea    (%eax,%ecx,2),%edi
    8021:	31 c9                	xor    %ecx,%ecx
    8023:	c7 04 8f 80 00 80 00 	movl   $0x800080,(%edi,%ecx,4)
    802a:	41                   	inc    %ecx
    802b:	39 d9                	cmp    %ebx,%ecx
    802d:	72 f4                	jb     8023 <pcm_format_silence+0x713>
    802f:	8b 7d f0             	mov    -0x10(%ebp),%edi
    8032:	01 fe                	add    %edi,%esi
    8034:	39 fa                	cmp    %edi,%edx
    8036:	0f 85 b8 fc ff ff    	jne    7cf4 <pcm_format_silence+0x3e4>
    803c:	e9 8d f9 ff ff       	jmp    79ce <pcm_format_silence+0xbe>
    8041:	8d b4 26 00 00 00 00 	lea    0x0(%esi,%eiz,1),%esi
    8048:	85 f6                	test   %esi,%esi
    804a:	75 79                	jne    80c5 <pcm_format_silence+0x7b5>
    804c:	8d 5a fe             	lea    -0x2(%edx),%ebx
    804f:	31 c9                	xor    %ecx,%ecx
    8051:	d1 eb                	shr    %ebx
    8053:	43                   	inc    %ebx
    8054:	8d 3c 1b             	lea    (%ebx,%ebx,1),%edi
    8057:	89 7d f0             	mov    %edi,-0x10(%ebp)
    805a:	8d 3c 48             	lea    (%eax,%ecx,2),%edi
    805d:	31 c9                	xor    %ecx,%ecx
    805f:	c7 04 8f 00 00 00 00 	movl   $0x0,(%edi,%ecx,4)
    8066:	41                   	inc    %ecx
    8067:	39 d9                	cmp    %ebx,%ecx
    8069:	72 f4                	jb     805f <pcm_format_silence+0x74f>
    806b:	e9 5d fd ff ff       	jmp    7dcd <pcm_format_silence+0x4bd>
    8070:	85 d2                	test   %edx,%edx
    8072:	0f 85 88 fa ff ff    	jne    7b00 <pcm_format_silence+0x1f0>
    8078:	31 c9                	xor    %ecx,%ecx
    807a:	e9 d3 fa ff ff       	jmp    7b52 <pcm_format_silence+0x242>
    807f:	90                   	nop
    8080:	85 f6                	test   %esi,%esi
    8082:	75 23                	jne    80a7 <pcm_format_silence+0x797>
    8084:	8d 5a fe             	lea    -0x2(%edx),%ebx
    8087:	31 c9                	xor    %ecx,%ecx
    8089:	d1 eb                	shr    %ebx
    808b:	43                   	inc    %ebx
    808c:	8d 3c 1b             	lea    (%ebx,%ebx,1),%edi
    808f:	89 7d f0             	mov    %edi,-0x10(%ebp)
    8092:	e9 25 fd ff ff       	jmp    7dbc <pcm_format_silence+0x4ac>
    8097:	90                   	nop
    8098:	85 d2                	test   %edx,%edx
    809a:	0f 85 7c f9 ff ff    	jne    7a1c <pcm_format_silence+0x10c>
    80a0:	31 c9                	xor    %ecx,%ecx
    80a2:	e9 c7 f9 ff ff       	jmp    7a6e <pcm_format_silence+0x15e>
    80a7:	66 c7 00 00 00       	movw   $0x0,(%eax)
    80ac:	b9 01 00 00 00       	mov    $0x1,%ecx
    80b1:	e9 e7 fc ff ff       	jmp    7d9d <pcm_format_silence+0x48d>
    80b6:	66 c7 00 80 00       	movw   $0x80,(%eax)
    80bb:	b9 01 00 00 00       	mov    $0x1,%ecx
    80c0:	e9 10 fc ff ff       	jmp    7cd5 <pcm_format_silence+0x3c5>
    80c5:	66 c7 00 00 00       	movw   $0x0,(%eax)
    80ca:	b9 01 00 00 00       	mov    $0x1,%ecx
    80cf:	e9 61 fb ff ff       	jmp    7c35 <pcm_format_silence+0x325>
    80d4:	66 c7 00 00 80       	movw   $0x8000,(%eax)
    80d9:	b9 01 00 00 00       	mov    $0x1,%ecx
    80de:	e9 ca f8 ff ff       	jmp    79ad <pcm_format_silence+0x9d>
    80e3:	8d b6 00 00 00 00    	lea    0x0(%esi),%esi
    80e9:	8d bc 27 00 00 00 00 	lea    0x0(%edi,%eiz,1),%edi

000080f0 <pcm_format_convert_and_mix>:
    80f0:	55                   	push   %ebp
    80f1:	89 e5                	mov    %esp,%ebp
    80f3:	57                   	push   %edi
    80f4:	56                   	push   %esi
    80f5:	53                   	push   %ebx
    80f6:	83 ec 4c             	sub    $0x4c,%esp
    80f9:	8b 45 08             	mov    0x8(%ebp),%eax
    80fc:	8b 7d 1c             	mov    0x1c(%ebp),%edi
    80ff:	85 c0                	test   %eax,%eax
    8101:	0f 84 c1 0a 00 00    	je     8bc8 <pcm_format_convert_and_mix+0xad8>
    8107:	8b 45 10             	mov    0x10(%ebp),%eax
    810a:	85 c0                	test   %eax,%eax
    810c:	0f 84 b6 0a 00 00    	je     8bc8 <pcm_format_convert_and_mix+0xad8>
    8112:	8b 75 18             	mov    0x18(%ebp),%esi
    8115:	85 f6                	test   %esi,%esi
    8117:	0f 84 ab 0a 00 00    	je     8bc8 <pcm_format_convert_and_mix+0xad8>
    811d:	85 ff                	test   %edi,%edi
    811f:	0f 84 a3 0a 00 00    	je     8bc8 <pcm_format_convert_and_mix+0xad8>
    8125:	8b 45 18             	mov    0x18(%ebp),%eax
    8128:	31 c9                	xor    %ecx,%ecx
    812a:	8b 40 08             	mov    0x8(%eax),%eax
    812d:	83 f8 12             	cmp    $0x12,%eax
    8130:	76 3e                	jbe    8170 <pcm_format_convert_and_mix+0x80>
    8132:	31 d2                	xor    %edx,%edx
    8134:	8b 45 14             	mov    0x14(%ebp),%eax
    8137:	f7 f1                	div    %ecx
    8139:	85 d2                	test   %edx,%edx
    813b:	0f 85 87 0a 00 00    	jne    8bc8 <pcm_format_convert_and_mix+0xad8>
    8141:	8b 4f 08             	mov    0x8(%edi),%ecx
    8144:	31 db                	xor    %ebx,%ebx
    8146:	8b 37                	mov    (%edi),%esi
    8148:	83 f9 12             	cmp    $0x12,%ecx
    814b:	76 3b                	jbe    8188 <pcm_format_convert_and_mix+0x98>
    814d:	31 d2                	xor    %edx,%edx
    814f:	8b 45 0c             	mov    0xc(%ebp),%eax
    8152:	f7 f3                	div    %ebx
    8154:	85 d2                	test   %edx,%edx
    8156:	0f 85 6c 0a 00 00    	jne    8bc8 <pcm_format_convert_and_mix+0xad8>
    815c:	83 f9 11             	cmp    $0x11,%ecx
    815f:	0f 87 33 0b 00 00    	ja     8c98 <pcm_format_convert_and_mix+0xba8>
    8165:	ff 24 8d d0 b2 00 00 	jmp    *0xb2d0(,%ecx,4)
    816c:	8d 74 26 00          	lea    0x0(%esi,%eiz,1),%esi
    8170:	8b 0c 85 20 b3 00 00 	mov    0xb320(,%eax,4),%ecx
    8177:	8b 45 18             	mov    0x18(%ebp),%eax
    817a:	8b 18                	mov    (%eax),%ebx
    817c:	0f af cb             	imul   %ebx,%ecx
    817f:	eb b1                	jmp    8132 <pcm_format_convert_and_mix+0x42>
    8181:	8d b4 26 00 00 00 00 	lea    0x0(%esi,%eiz,1),%esi
    8188:	8b 1c 8d 20 b3 00 00 	mov    0xb320(,%ecx,4),%ebx
    818f:	0f af de             	imul   %esi,%ebx
    8192:	eb b9                	jmp    814d <pcm_format_convert_and_mix+0x5d>
    8194:	31 d2                	xor    %edx,%edx
    8196:	8b 45 0c             	mov    0xc(%ebp),%eax
    8199:	f7 f3                	div    %ebx
    819b:	8b 55 0c             	mov    0xc(%ebp),%edx
    819e:	89 45 bc             	mov    %eax,-0x44(%ebp)
    81a1:	c1 ea 02             	shr    $0x2,%edx
    81a4:	c7 45 cc 00 00 00 00 	movl   $0x0,-0x34(%ebp)
    81ab:	89 55 c8             	mov    %edx,-0x38(%ebp)
    81ae:	85 c0                	test   %eax,%eax
    81b0:	0f 84 12 09 00 00    	je     8ac8 <pcm_format_convert_and_mix+0x9d8>
    81b6:	66 90                	xchg   %ax,%ax
    81b8:	85 f6                	test   %esi,%esi
    81ba:	0f 84 98 0a 00 00    	je     8c58 <pcm_format_convert_and_mix+0xb68>
    81c0:	31 db                	xor    %ebx,%ebx
    81c2:	eb 71                	jmp    8235 <pcm_format_convert_and_mix+0x145>
    81c4:	8d 74 26 00          	lea    0x0(%esi,%eiz,1),%esi
    81c8:	d9 e8                	fld1   
    81ca:	d9 c9                	fxch   %st(1)
    81cc:	dd e1                	fucom  %st(1)
    81ce:	df e0                	fnstsw %ax
    81d0:	f6 c4 45             	test   $0x45,%ah
    81d3:	0f 85 72 0b 00 00    	jne    8d4b <pcm_format_convert_and_mix+0xc5b>
    81d9:	dd d8                	fstp   %st(0)
    81db:	dd d8                	fstp   %st(0)
    81dd:	d9 05 a0 b3 00 00    	flds   0xb3a0
    81e3:	8b 55 cc             	mov    -0x34(%ebp),%edx
    81e6:	0f af f2             	imul   %edx,%esi
    81e9:	01 de                	add    %ebx,%esi
    81eb:	3b 75 c8             	cmp    -0x38(%ebp),%esi
    81ee:	73 38                	jae    8228 <pcm_format_convert_and_mix+0x138>
    81f0:	d9 7d e2             	fnstcw -0x1e(%ebp)
    81f3:	66 8b 45 e2          	mov    -0x1e(%ebp),%ax
    81f7:	c7 45 c4 00 00 00 00 	movl   $0x0,-0x3c(%ebp)
    81fe:	b4 0c                	mov    $0xc,%ah
    8200:	66 89 45 e0          	mov    %ax,-0x20(%ebp)
    8204:	d9 6d e0             	fldcw  -0x20(%ebp)
    8207:	db 5d dc             	fistpl -0x24(%ebp)
    820a:	d9 6d e2             	fldcw  -0x1e(%ebp)
    820d:	8b 45 dc             	mov    -0x24(%ebp),%eax
    8210:	0f c8                	bswap  %eax
    8212:	89 45 c0             	mov    %eax,-0x40(%ebp)
    8215:	8b 45 08             	mov    0x8(%ebp),%eax
    8218:	df 6d c0             	fildll -0x40(%ebp)
    821b:	d9 6d e0             	fldcw  -0x20(%ebp)
    821e:	db 1c b0             	fistpl (%eax,%esi,4)
    8221:	d9 6d e2             	fldcw  -0x1e(%ebp)
    8224:	eb 04                	jmp    822a <pcm_format_convert_and_mix+0x13a>
    8226:	66 90                	xchg   %ax,%ax
    8228:	dd d8                	fstp   %st(0)
    822a:	43                   	inc    %ebx
    822b:	8b 37                	mov    (%edi),%esi
    822d:	39 de                	cmp    %ebx,%esi
    822f:	0f 86 1b 09 00 00    	jbe    8b50 <pcm_format_convert_and_mix+0xa60>
    8235:	8b 55 0c             	mov    0xc(%ebp),%edx
    8238:	51                   	push   %ecx
    8239:	8b 45 08             	mov    0x8(%ebp),%eax
    823c:	51                   	push   %ecx
    823d:	8b 4d cc             	mov    -0x34(%ebp),%ecx
    8240:	57                   	push   %edi
    8241:	53                   	push   %ebx
    8242:	e8 f9 f3 ff ff       	call   7640 <get_normalized_sample>
    8247:	8b 4d 18             	mov    0x18(%ebp),%ecx
    824a:	58                   	pop    %eax
    824b:	d9 5d c0             	fstps  -0x40(%ebp)
    824e:	5a                   	pop    %edx
    824f:	8b 45 10             	mov    0x10(%ebp),%eax
    8252:	51                   	push   %ecx
    8253:	8b 55 14             	mov    0x14(%ebp),%edx
    8256:	8b 4d cc             	mov    -0x34(%ebp),%ecx
    8259:	53                   	push   %ebx
    825a:	e8 e1 f3 ff ff       	call   7640 <get_normalized_sample>
    825f:	83 c4 10             	add    $0x10,%esp
    8262:	d8 45 c0             	fadds  -0x40(%ebp)
    8265:	d9 e8                	fld1   
    8267:	d9 e0                	fchs   
    8269:	dd e9                	fucomp %st(1)
    826b:	df e0                	fnstsw %ax
    826d:	f6 c4 45             	test   $0x45,%ah
    8270:	0f 85 52 ff ff ff    	jne    81c8 <pcm_format_convert_and_mix+0xd8>
    8276:	dd d8                	fstp   %st(0)
    8278:	d9 05 bc b3 00 00    	flds   0xb3bc
    827e:	e9 60 ff ff ff       	jmp    81e3 <pcm_format_convert_and_mix+0xf3>
    8283:	31 d2                	xor    %edx,%edx
    8285:	8b 45 0c             	mov    0xc(%ebp),%eax
    8288:	f7 f3                	div    %ebx
    828a:	89 45 b4             	mov    %eax,-0x4c(%ebp)
    828d:	85 c0                	test   %eax,%eax
    828f:	0f 84 33 08 00 00    	je     8ac8 <pcm_format_convert_and_mix+0x9d8>
    8295:	8b 45 0c             	mov    0xc(%ebp),%eax
    8298:	d1 e8                	shr    %eax
    829a:	85 f6                	test   %esi,%esi
    829c:	89 45 c8             	mov    %eax,-0x38(%ebp)
    829f:	0f 84 23 08 00 00    	je     8ac8 <pcm_format_convert_and_mix+0x9d8>
    82a5:	8d 04 36             	lea    (%esi,%esi,1),%eax
    82a8:	31 c9                	xor    %ecx,%ecx
    82aa:	89 45 b8             	mov    %eax,-0x48(%ebp)
    82ad:	8b 45 08             	mov    0x8(%ebp),%eax
    82b0:	89 45 bc             	mov    %eax,-0x44(%ebp)
    82b3:	31 c0                	xor    %eax,%eax
    82b5:	89 75 c0             	mov    %esi,-0x40(%ebp)
    82b8:	89 7d 1c             	mov    %edi,0x1c(%ebp)
    82bb:	89 c6                	mov    %eax,%esi
    82bd:	89 cf                	mov    %ecx,%edi
    82bf:	90                   	nop
    82c0:	31 db                	xor    %ebx,%ebx
    82c2:	eb 58                	jmp    831c <pcm_format_convert_and_mix+0x22c>
    82c4:	8d 74 26 00          	lea    0x0(%esi,%eiz,1),%esi
    82c8:	d9 e8                	fld1   
    82ca:	d9 c9                	fxch   %st(1)
    82cc:	dd e1                	fucom  %st(1)
    82ce:	df e0                	fnstsw %ax
    82d0:	f6 c4 45             	test   $0x45,%ah
    82d3:	0f 85 5f 0a 00 00    	jne    8d38 <pcm_format_convert_and_mix+0xc48>
    82d9:	dd d8                	fstp   %st(0)
    82db:	dd d8                	fstp   %st(0)
    82dd:	d9 05 ac b3 00 00    	flds   0xb3ac
    82e3:	8d 04 3b             	lea    (%ebx,%edi,1),%eax
    82e6:	3b 45 c8             	cmp    -0x38(%ebp),%eax
    82e9:	73 25                	jae    8310 <pcm_format_convert_and_mix+0x220>
    82eb:	d9 7d e2             	fnstcw -0x1e(%ebp)
    82ee:	66 8b 45 e2          	mov    -0x1e(%ebp),%ax
    82f2:	8b 55 bc             	mov    -0x44(%ebp),%edx
    82f5:	b4 0c                	mov    $0xc,%ah
    82f7:	66 89 45 e0          	mov    %ax,-0x20(%ebp)
    82fb:	d9 6d e0             	fldcw  -0x20(%ebp)
    82fe:	db 5d dc             	fistpl -0x24(%ebp)
    8301:	d9 6d e2             	fldcw  -0x1e(%ebp)
    8304:	8b 45 dc             	mov    -0x24(%ebp),%eax
    8307:	66 89 04 5a          	mov    %ax,(%edx,%ebx,2)
    830b:	eb 05                	jmp    8312 <pcm_format_convert_and_mix+0x222>
    830d:	8d 76 00             	lea    0x0(%esi),%esi
    8310:	dd d8                	fstp   %st(0)
    8312:	43                   	inc    %ebx
    8313:	3b 5d c0             	cmp    -0x40(%ebp),%ebx
    8316:	0f 84 8c 07 00 00    	je     8aa8 <pcm_format_convert_and_mix+0x9b8>
    831c:	50                   	push   %eax
    831d:	50                   	push   %eax
    831e:	8b 45 1c             	mov    0x1c(%ebp),%eax
    8321:	89 f1                	mov    %esi,%ecx
    8323:	50                   	push   %eax
    8324:	8b 55 0c             	mov    0xc(%ebp),%edx
    8327:	8b 45 08             	mov    0x8(%ebp),%eax
    832a:	53                   	push   %ebx
    832b:	e8 10 f3 ff ff       	call   7640 <get_normalized_sample>
    8330:	8b 4d 18             	mov    0x18(%ebp),%ecx
    8333:	58                   	pop    %eax
    8334:	8b 45 10             	mov    0x10(%ebp),%eax
    8337:	d9 5d cc             	fstps  -0x34(%ebp)
    833a:	5a                   	pop    %edx
    833b:	8b 55 14             	mov    0x14(%ebp),%edx
    833e:	51                   	push   %ecx
    833f:	89 f1                	mov    %esi,%ecx
    8341:	53                   	push   %ebx
    8342:	e8 f9 f2 ff ff       	call   7640 <get_normalized_sample>
    8347:	d8 45 cc             	fadds  -0x34(%ebp)
    834a:	83 c4 10             	add    $0x10,%esp
    834d:	d9 e8                	fld1   
    834f:	d9 e0                	fchs   
    8351:	dd e9                	fucomp %st(1)
    8353:	df e0                	fnstsw %ax
    8355:	f6 c4 45             	test   $0x45,%ah
    8358:	0f 85 6a ff ff ff    	jne    82c8 <pcm_format_convert_and_mix+0x1d8>
    835e:	dd d8                	fstp   %st(0)
    8360:	d9 ee                	fldz   
    8362:	e9 7c ff ff ff       	jmp    82e3 <pcm_format_convert_and_mix+0x1f3>
    8367:	31 d2                	xor    %edx,%edx
    8369:	8b 45 0c             	mov    0xc(%ebp),%eax
    836c:	f7 f3                	div    %ebx
    836e:	89 45 b4             	mov    %eax,-0x4c(%ebp)
    8371:	85 c0                	test   %eax,%eax
    8373:	0f 84 4f 07 00 00    	je     8ac8 <pcm_format_convert_and_mix+0x9d8>
    8379:	8b 45 0c             	mov    0xc(%ebp),%eax
    837c:	d1 e8                	shr    %eax
    837e:	85 f6                	test   %esi,%esi
    8380:	89 45 c8             	mov    %eax,-0x38(%ebp)
    8383:	0f 84 3f 07 00 00    	je     8ac8 <pcm_format_convert_and_mix+0x9d8>
    8389:	8d 04 36             	lea    (%esi,%esi,1),%eax
    838c:	31 c9                	xor    %ecx,%ecx
    838e:	89 45 b8             	mov    %eax,-0x48(%ebp)
    8391:	8b 45 08             	mov    0x8(%ebp),%eax
    8394:	89 45 bc             	mov    %eax,-0x44(%ebp)
    8397:	31 c0                	xor    %eax,%eax
    8399:	89 75 c0             	mov    %esi,-0x40(%ebp)
    839c:	89 7d 1c             	mov    %edi,0x1c(%ebp)
    839f:	89 c6                	mov    %eax,%esi
    83a1:	89 cf                	mov    %ecx,%edi
    83a3:	90                   	nop
    83a4:	8d 74 26 00          	lea    0x0(%esi,%eiz,1),%esi
    83a8:	31 db                	xor    %ebx,%ebx
    83aa:	eb 60                	jmp    840c <pcm_format_convert_and_mix+0x31c>
    83ac:	8d 74 26 00          	lea    0x0(%esi,%eiz,1),%esi
    83b0:	d9 e8                	fld1   
    83b2:	d9 c9                	fxch   %st(1)
    83b4:	dd e1                	fucom  %st(1)
    83b6:	df e0                	fnstsw %ax
    83b8:	f6 c4 45             	test   $0x45,%ah
    83bb:	0f 85 64 09 00 00    	jne    8d25 <pcm_format_convert_and_mix+0xc35>
    83c1:	dd d8                	fstp   %st(0)
    83c3:	dd d8                	fstp   %st(0)
    83c5:	d9 05 ac b3 00 00    	flds   0xb3ac
    83cb:	8d 04 1f             	lea    (%edi,%ebx,1),%eax
    83ce:	39 45 c8             	cmp    %eax,-0x38(%ebp)
    83d1:	76 2d                	jbe    8400 <pcm_format_convert_and_mix+0x310>
    83d3:	d9 7d e2             	fnstcw -0x1e(%ebp)
    83d6:	66 8b 45 e2          	mov    -0x1e(%ebp),%ax
    83da:	8b 4d bc             	mov    -0x44(%ebp),%ecx
    83dd:	b4 0c                	mov    $0xc,%ah
    83df:	66 89 45 e0          	mov    %ax,-0x20(%ebp)
    83e3:	d9 6d e0             	fldcw  -0x20(%ebp)
    83e6:	db 5d dc             	fistpl -0x24(%ebp)
    83e9:	d9 6d e2             	fldcw  -0x1e(%ebp)
    83ec:	8b 45 dc             	mov    -0x24(%ebp),%eax
    83ef:	66 c1 c0 08          	rol    $0x8,%ax
    83f3:	66 89 04 59          	mov    %ax,(%ecx,%ebx,2)
    83f7:	eb 09                	jmp    8402 <pcm_format_convert_and_mix+0x312>
    83f9:	8d b4 26 00 00 00 00 	lea    0x0(%esi,%eiz,1),%esi
    8400:	dd d8                	fstp   %st(0)
    8402:	43                   	inc    %ebx
    8403:	3b 5d c0             	cmp    -0x40(%ebp),%ebx
    8406:	0f 84 cc 06 00 00    	je     8ad8 <pcm_format_convert_and_mix+0x9e8>
    840c:	50                   	push   %eax
    840d:	50                   	push   %eax
    840e:	8b 45 1c             	mov    0x1c(%ebp),%eax
    8411:	89 f1                	mov    %esi,%ecx
    8413:	50                   	push   %eax
    8414:	8b 55 0c             	mov    0xc(%ebp),%edx
    8417:	8b 45 08             	mov    0x8(%ebp),%eax
    841a:	53                   	push   %ebx
    841b:	e8 20 f2 ff ff       	call   7640 <get_normalized_sample>
    8420:	8b 4d 18             	mov    0x18(%ebp),%ecx
    8423:	58                   	pop    %eax
    8424:	8b 45 10             	mov    0x10(%ebp),%eax
    8427:	d9 5d cc             	fstps  -0x34(%ebp)
    842a:	5a                   	pop    %edx
    842b:	8b 55 14             	mov    0x14(%ebp),%edx
    842e:	51                   	push   %ecx
    842f:	89 f1                	mov    %esi,%ecx
    8431:	53                   	push   %ebx
    8432:	e8 09 f2 ff ff       	call   7640 <get_normalized_sample>
    8437:	d8 45 cc             	fadds  -0x34(%ebp)
    843a:	83 c4 10             	add    $0x10,%esp
    843d:	d9 e8                	fld1   
    843f:	d9 e0                	fchs   
    8441:	dd e9                	fucomp %st(1)
    8443:	df e0                	fnstsw %ax
    8445:	f6 c4 45             	test   $0x45,%ah
    8448:	0f 85 62 ff ff ff    	jne    83b0 <pcm_format_convert_and_mix+0x2c0>
    844e:	dd d8                	fstp   %st(0)
    8450:	d9 ee                	fldz   
    8452:	e9 74 ff ff ff       	jmp    83cb <pcm_format_convert_and_mix+0x2db>
    8457:	31 d2                	xor    %edx,%edx
    8459:	8b 45 0c             	mov    0xc(%ebp),%eax
    845c:	f7 f3                	div    %ebx
    845e:	89 45 b4             	mov    %eax,-0x4c(%ebp)
    8461:	85 c0                	test   %eax,%eax
    8463:	0f 84 5f 06 00 00    	je     8ac8 <pcm_format_convert_and_mix+0x9d8>
    8469:	8b 45 0c             	mov    0xc(%ebp),%eax
    846c:	d1 e8                	shr    %eax
    846e:	85 f6                	test   %esi,%esi
    8470:	89 45 c8             	mov    %eax,-0x38(%ebp)
    8473:	0f 84 4f 06 00 00    	je     8ac8 <pcm_format_convert_and_mix+0x9d8>
    8479:	8d 04 36             	lea    (%esi,%esi,1),%eax
    847c:	31 d2                	xor    %edx,%edx
    847e:	89 45 b8             	mov    %eax,-0x48(%ebp)
    8481:	8b 45 08             	mov    0x8(%ebp),%eax
    8484:	89 45 bc             	mov    %eax,-0x44(%ebp)
    8487:	31 c0                	xor    %eax,%eax
    8489:	89 75 c0             	mov    %esi,-0x40(%ebp)
    848c:	89 7d 1c             	mov    %edi,0x1c(%ebp)
    848f:	89 c6                	mov    %eax,%esi
    8491:	89 d7                	mov    %edx,%edi
    8493:	90                   	nop
    8494:	8d 74 26 00          	lea    0x0(%esi,%eiz,1),%esi
    8498:	31 db                	xor    %ebx,%ebx
    849a:	eb 50                	jmp    84ec <pcm_format_convert_and_mix+0x3fc>
    849c:	8d 74 26 00          	lea    0x0(%esi,%eiz,1),%esi
    84a0:	d9 e8                	fld1   
    84a2:	d9 c9                	fxch   %st(1)
    84a4:	dd e1                	fucom  %st(1)
    84a6:	df e0                	fnstsw %ax
    84a8:	f6 c4 45             	test   $0x45,%ah
    84ab:	0f 85 61 08 00 00    	jne    8d12 <pcm_format_convert_and_mix+0xc22>
    84b1:	dd d8                	fstp   %st(0)
    84b3:	dd d8                	fstp   %st(0)
    84b5:	d9 05 b0 b3 00 00    	flds   0xb3b0
    84bb:	8d 04 1f             	lea    (%edi,%ebx,1),%eax
    84be:	3b 45 c8             	cmp    -0x38(%ebp),%eax
    84c1:	73 1d                	jae    84e0 <pcm_format_convert_and_mix+0x3f0>
    84c3:	d9 7d e2             	fnstcw -0x1e(%ebp)
    84c6:	66 8b 45 e2          	mov    -0x1e(%ebp),%ax
    84ca:	b4 0c                	mov    $0xc,%ah
    84cc:	66 89 45 e0          	mov    %ax,-0x20(%ebp)
    84d0:	8b 45 bc             	mov    -0x44(%ebp),%eax
    84d3:	d9 6d e0             	fldcw  -0x20(%ebp)
    84d6:	df 1c 58             	fistp  (%eax,%ebx,2)
    84d9:	d9 6d e2             	fldcw  -0x1e(%ebp)
    84dc:	eb 04                	jmp    84e2 <pcm_format_convert_and_mix+0x3f2>
    84de:	66 90                	xchg   %ax,%ax
    84e0:	dd d8                	fstp   %st(0)
    84e2:	43                   	inc    %ebx
    84e3:	3b 5d c0             	cmp    -0x40(%ebp),%ebx
    84e6:	0f 84 0c 06 00 00    	je     8af8 <pcm_format_convert_and_mix+0xa08>
    84ec:	50                   	push   %eax
    84ed:	50                   	push   %eax
    84ee:	8b 45 1c             	mov    0x1c(%ebp),%eax
    84f1:	89 f1                	mov    %esi,%ecx
    84f3:	50                   	push   %eax
    84f4:	8b 55 0c             	mov    0xc(%ebp),%edx
    84f7:	8b 45 08             	mov    0x8(%ebp),%eax
    84fa:	53                   	push   %ebx
    84fb:	e8 40 f1 ff ff       	call   7640 <get_normalized_sample>
    8500:	8b 4d 18             	mov    0x18(%ebp),%ecx
    8503:	58                   	pop    %eax
    8504:	8b 45 10             	mov    0x10(%ebp),%eax
    8507:	d9 5d cc             	fstps  -0x34(%ebp)
    850a:	5a                   	pop    %edx
    850b:	8b 55 14             	mov    0x14(%ebp),%edx
    850e:	51                   	push   %ecx
    850f:	89 f1                	mov    %esi,%ecx
    8511:	53                   	push   %ebx
    8512:	e8 29 f1 ff ff       	call   7640 <get_normalized_sample>
    8517:	d8 45 cc             	fadds  -0x34(%ebp)
    851a:	83 c4 10             	add    $0x10,%esp
    851d:	d9 e8                	fld1   
    851f:	d9 e0                	fchs   
    8521:	dd e9                	fucomp %st(1)
    8523:	df e0                	fnstsw %ax
    8525:	f6 c4 45             	test   $0x45,%ah
    8528:	0f 85 72 ff ff ff    	jne    84a0 <pcm_format_convert_and_mix+0x3b0>
    852e:	dd d8                	fstp   %st(0)
    8530:	d9 05 b4 b3 00 00    	flds   0xb3b4
    8536:	eb 83                	jmp    84bb <pcm_format_convert_and_mix+0x3cb>
    8538:	31 d2                	xor    %edx,%edx
    853a:	8b 45 0c             	mov    0xc(%ebp),%eax
    853d:	f7 f3                	div    %ebx
    853f:	89 45 b4             	mov    %eax,-0x4c(%ebp)
    8542:	85 c0                	test   %eax,%eax
    8544:	0f 84 7e 05 00 00    	je     8ac8 <pcm_format_convert_and_mix+0x9d8>
    854a:	8b 45 0c             	mov    0xc(%ebp),%eax
    854d:	d1 e8                	shr    %eax
    854f:	85 f6                	test   %esi,%esi
    8551:	89 45 c8             	mov    %eax,-0x38(%ebp)
    8554:	0f 84 6e 05 00 00    	je     8ac8 <pcm_format_convert_and_mix+0x9d8>
    855a:	8d 04 36             	lea    (%esi,%esi,1),%eax
    855d:	31 d2                	xor    %edx,%edx
    855f:	89 45 b8             	mov    %eax,-0x48(%ebp)
    8562:	8b 45 08             	mov    0x8(%ebp),%eax
    8565:	89 45 bc             	mov    %eax,-0x44(%ebp)
    8568:	31 c0                	xor    %eax,%eax
    856a:	89 75 c0             	mov    %esi,-0x40(%ebp)
    856d:	89 7d 1c             	mov    %edi,0x1c(%ebp)
    8570:	89 c6                	mov    %eax,%esi
    8572:	89 d7                	mov    %edx,%edi
    8574:	8d 74 26 00          	lea    0x0(%esi,%eiz,1),%esi
    8578:	31 db                	xor    %ebx,%ebx
    857a:	eb 60                	jmp    85dc <pcm_format_convert_and_mix+0x4ec>
    857c:	8d 74 26 00          	lea    0x0(%esi,%eiz,1),%esi
    8580:	d9 e8                	fld1   
    8582:	d9 c9                	fxch   %st(1)
    8584:	dd e1                	fucom  %st(1)
    8586:	df e0                	fnstsw %ax
    8588:	f6 c4 45             	test   $0x45,%ah
    858b:	0f 85 6e 07 00 00    	jne    8cff <pcm_format_convert_and_mix+0xc0f>
    8591:	dd d8                	fstp   %st(0)
    8593:	dd d8                	fstp   %st(0)
    8595:	d9 05 b0 b3 00 00    	flds   0xb3b0
    859b:	8d 04 1f             	lea    (%edi,%ebx,1),%eax
    859e:	3b 45 c8             	cmp    -0x38(%ebp),%eax
    85a1:	73 2d                	jae    85d0 <pcm_format_convert_and_mix+0x4e0>
    85a3:	d9 7d e2             	fnstcw -0x1e(%ebp)
    85a6:	66 8b 45 e2          	mov    -0x1e(%ebp),%ax
    85aa:	8b 55 bc             	mov    -0x44(%ebp),%edx
    85ad:	b4 0c                	mov    $0xc,%ah
    85af:	66 89 45 e0          	mov    %ax,-0x20(%ebp)
    85b3:	d9 6d e0             	fldcw  -0x20(%ebp)
    85b6:	df 5d da             	fistp  -0x26(%ebp)
    85b9:	d9 6d e2             	fldcw  -0x1e(%ebp)
    85bc:	66 8b 45 da          	mov    -0x26(%ebp),%ax
    85c0:	66 c1 c0 08          	rol    $0x8,%ax
    85c4:	66 89 04 5a          	mov    %ax,(%edx,%ebx,2)
    85c8:	eb 08                	jmp    85d2 <pcm_format_convert_and_mix+0x4e2>
    85ca:	8d b6 00 00 00 00    	lea    0x0(%esi),%esi
    85d0:	dd d8                	fstp   %st(0)
    85d2:	43                   	inc    %ebx
    85d3:	3b 5d c0             	cmp    -0x40(%ebp),%ebx
    85d6:	0f 84 3c 05 00 00    	je     8b18 <pcm_format_convert_and_mix+0xa28>
    85dc:	50                   	push   %eax
    85dd:	50                   	push   %eax
    85de:	8b 45 1c             	mov    0x1c(%ebp),%eax
    85e1:	89 f1                	mov    %esi,%ecx
    85e3:	50                   	push   %eax
    85e4:	8b 55 0c             	mov    0xc(%ebp),%edx
    85e7:	8b 45 08             	mov    0x8(%ebp),%eax
    85ea:	53                   	push   %ebx
    85eb:	e8 50 f0 ff ff       	call   7640 <get_normalized_sample>
    85f0:	8b 4d 18             	mov    0x18(%ebp),%ecx
    85f3:	58                   	pop    %eax
    85f4:	8b 45 10             	mov    0x10(%ebp),%eax
    85f7:	d9 5d cc             	fstps  -0x34(%ebp)
    85fa:	5a                   	pop    %edx
    85fb:	8b 55 14             	mov    0x14(%ebp),%edx
    85fe:	51                   	push   %ecx
    85ff:	89 f1                	mov    %esi,%ecx
    8601:	53                   	push   %ebx
    8602:	e8 39 f0 ff ff       	call   7640 <get_normalized_sample>
    8607:	d8 45 cc             	fadds  -0x34(%ebp)
    860a:	83 c4 10             	add    $0x10,%esp
    860d:	d9 e8                	fld1   
    860f:	d9 e0                	fchs   
    8611:	dd e9                	fucomp %st(1)
    8613:	df e0                	fnstsw %ax
    8615:	f6 c4 45             	test   $0x45,%ah
    8618:	0f 85 62 ff ff ff    	jne    8580 <pcm_format_convert_and_mix+0x490>
    861e:	dd d8                	fstp   %st(0)
    8620:	d9 05 b4 b3 00 00    	flds   0xb3b4
    8626:	e9 70 ff ff ff       	jmp    859b <pcm_format_convert_and_mix+0x4ab>
    862b:	31 d2                	xor    %edx,%edx
    862d:	8b 45 0c             	mov    0xc(%ebp),%eax
    8630:	f7 f3                	div    %ebx
    8632:	89 45 c8             	mov    %eax,-0x38(%ebp)
    8635:	c7 45 cc 00 00 00 00 	movl   $0x0,-0x34(%ebp)
    863c:	85 c0                	test   %eax,%eax
    863e:	0f 84 84 04 00 00    	je     8ac8 <pcm_format_convert_and_mix+0x9d8>
    8644:	8d 74 26 00          	lea    0x0(%esi,%eiz,1),%esi
    8648:	85 f6                	test   %esi,%esi
    864a:	0f 84 e8 05 00 00    	je     8c38 <pcm_format_convert_and_mix+0xb48>
    8650:	31 db                	xor    %ebx,%ebx
    8652:	eb 61                	jmp    86b5 <pcm_format_convert_and_mix+0x5c5>
    8654:	8d 74 26 00          	lea    0x0(%esi,%eiz,1),%esi
    8658:	d9 e8                	fld1   
    865a:	d9 c9                	fxch   %st(1)
    865c:	dd e1                	fucom  %st(1)
    865e:	df e0                	fnstsw %ax
    8660:	f6 c4 45             	test   $0x45,%ah
    8663:	0f 85 83 06 00 00    	jne    8cec <pcm_format_convert_and_mix+0xbfc>
    8669:	dd d8                	fstp   %st(0)
    866b:	dd d8                	fstp   %st(0)
    866d:	d9 05 a4 b3 00 00    	flds   0xb3a4
    8673:	8b 45 cc             	mov    -0x34(%ebp),%eax
    8676:	0f af f0             	imul   %eax,%esi
    8679:	01 de                	add    %ebx,%esi
    867b:	39 75 0c             	cmp    %esi,0xc(%ebp)
    867e:	76 28                	jbe    86a8 <pcm_format_convert_and_mix+0x5b8>
    8680:	d9 7d e2             	fnstcw -0x1e(%ebp)
    8683:	66 8b 45 e2          	mov    -0x1e(%ebp),%ax
    8687:	8b 55 08             	mov    0x8(%ebp),%edx
    868a:	b4 0c                	mov    $0xc,%ah
    868c:	66 89 45 e0          	mov    %ax,-0x20(%ebp)
    8690:	d9 6d e0             	fldcw  -0x20(%ebp)
    8693:	df 5d da             	fistp  -0x26(%ebp)
    8696:	d9 6d e2             	fldcw  -0x1e(%ebp)
    8699:	66 8b 45 da          	mov    -0x26(%ebp),%ax
    869d:	88 04 32             	mov    %al,(%edx,%esi,1)
    86a0:	eb 08                	jmp    86aa <pcm_format_convert_and_mix+0x5ba>
    86a2:	8d b6 00 00 00 00    	lea    0x0(%esi),%esi
    86a8:	dd d8                	fstp   %st(0)
    86aa:	43                   	inc    %ebx
    86ab:	8b 37                	mov    (%edi),%esi
    86ad:	39 de                	cmp    %ebx,%esi
    86af:	0f 86 fb 04 00 00    	jbe    8bb0 <pcm_format_convert_and_mix+0xac0>
    86b5:	8b 4d cc             	mov    -0x34(%ebp),%ecx
    86b8:	50                   	push   %eax
    86b9:	8b 55 0c             	mov    0xc(%ebp),%edx
    86bc:	50                   	push   %eax
    86bd:	8b 45 08             	mov    0x8(%ebp),%eax
    86c0:	57                   	push   %edi
    86c1:	53                   	push   %ebx
    86c2:	e8 79 ef ff ff       	call   7640 <get_normalized_sample>
    86c7:	8b 4d 18             	mov    0x18(%ebp),%ecx
    86ca:	58                   	pop    %eax
    86cb:	d9 5d c0             	fstps  -0x40(%ebp)
    86ce:	5a                   	pop    %edx
    86cf:	8b 45 10             	mov    0x10(%ebp),%eax
    86d2:	51                   	push   %ecx
    86d3:	8b 55 14             	mov    0x14(%ebp),%edx
    86d6:	8b 4d cc             	mov    -0x34(%ebp),%ecx
    86d9:	53                   	push   %ebx
    86da:	e8 61 ef ff ff       	call   7640 <get_normalized_sample>
    86df:	83 c4 10             	add    $0x10,%esp
    86e2:	d8 45 c0             	fadds  -0x40(%ebp)
    86e5:	d9 e8                	fld1   
    86e7:	d9 e0                	fchs   
    86e9:	dd e9                	fucomp %st(1)
    86eb:	df e0                	fnstsw %ax
    86ed:	f6 c4 45             	test   $0x45,%ah
    86f0:	0f 85 62 ff ff ff    	jne    8658 <pcm_format_convert_and_mix+0x568>
    86f6:	dd d8                	fstp   %st(0)
    86f8:	d9 ee                	fldz   
    86fa:	e9 74 ff ff ff       	jmp    8673 <pcm_format_convert_and_mix+0x583>
    86ff:	31 d2                	xor    %edx,%edx
    8701:	8b 45 0c             	mov    0xc(%ebp),%eax
    8704:	f7 f3                	div    %ebx
    8706:	89 45 c8             	mov    %eax,-0x38(%ebp)
    8709:	c7 45 cc 00 00 00 00 	movl   $0x0,-0x34(%ebp)
    8710:	85 c0                	test   %eax,%eax
    8712:	0f 84 b0 03 00 00    	je     8ac8 <pcm_format_convert_and_mix+0x9d8>
    8718:	85 f6                	test   %esi,%esi
    871a:	0f 84 b5 04 00 00    	je     8bd5 <pcm_format_convert_and_mix+0xae5>
    8720:	31 db                	xor    %ebx,%ebx
    8722:	eb 61                	jmp    8785 <pcm_format_convert_and_mix+0x695>
    8724:	8d 74 26 00          	lea    0x0(%esi,%eiz,1),%esi
    8728:	d9 e8                	fld1   
    872a:	d9 c9                	fxch   %st(1)
    872c:	dd e1                	fucom  %st(1)
    872e:	df e0                	fnstsw %ax
    8730:	f6 c4 45             	test   $0x45,%ah
    8733:	0f 85 a0 05 00 00    	jne    8cd9 <pcm_format_convert_and_mix+0xbe9>
    8739:	dd d8                	fstp   %st(0)
    873b:	dd d8                	fstp   %st(0)
    873d:	d9 05 a8 b3 00 00    	flds   0xb3a8
    8743:	8b 45 cc             	mov    -0x34(%ebp),%eax
    8746:	0f af f0             	imul   %eax,%esi
    8749:	01 de                	add    %ebx,%esi
    874b:	39 75 0c             	cmp    %esi,0xc(%ebp)
    874e:	76 28                	jbe    8778 <pcm_format_convert_and_mix+0x688>
    8750:	d9 7d e2             	fnstcw -0x1e(%ebp)
    8753:	66 8b 45 e2          	mov    -0x1e(%ebp),%ax
    8757:	8b 4d 08             	mov    0x8(%ebp),%ecx
    875a:	b4 0c                	mov    $0xc,%ah
    875c:	66 89 45 e0          	mov    %ax,-0x20(%ebp)
    8760:	d9 6d e0             	fldcw  -0x20(%ebp)
    8763:	df 5d da             	fistp  -0x26(%ebp)
    8766:	d9 6d e2             	fldcw  -0x1e(%ebp)
    8769:	66 8b 45 da          	mov    -0x26(%ebp),%ax
    876d:	88 04 31             	mov    %al,(%ecx,%esi,1)
    8770:	eb 08                	jmp    877a <pcm_format_convert_and_mix+0x68a>
    8772:	8d b6 00 00 00 00    	lea    0x0(%esi),%esi
    8778:	dd d8                	fstp   %st(0)
    877a:	43                   	inc    %ebx
    877b:	8b 37                	mov    (%edi),%esi
    877d:	39 de                	cmp    %ebx,%esi
    877f:	0f 86 fb 03 00 00    	jbe    8b80 <pcm_format_convert_and_mix+0xa90>
    8785:	8b 4d cc             	mov    -0x34(%ebp),%ecx
    8788:	50                   	push   %eax
    8789:	8b 55 0c             	mov    0xc(%ebp),%edx
    878c:	50                   	push   %eax
    878d:	8b 45 08             	mov    0x8(%ebp),%eax
    8790:	57                   	push   %edi
    8791:	53                   	push   %ebx
    8792:	e8 a9 ee ff ff       	call   7640 <get_normalized_sample>
    8797:	8b 4d 18             	mov    0x18(%ebp),%ecx
    879a:	58                   	pop    %eax
    879b:	d9 5d c0             	fstps  -0x40(%ebp)
    879e:	5a                   	pop    %edx
    879f:	8b 45 10             	mov    0x10(%ebp),%eax
    87a2:	51                   	push   %ecx
    87a3:	8b 55 14             	mov    0x14(%ebp),%edx
    87a6:	8b 4d cc             	mov    -0x34(%ebp),%ecx
    87a9:	53                   	push   %ebx
    87aa:	e8 91 ee ff ff       	call   7640 <get_normalized_sample>
    87af:	83 c4 10             	add    $0x10,%esp
    87b2:	d8 45 c0             	fadds  -0x40(%ebp)
    87b5:	d9 e8                	fld1   
    87b7:	d9 e0                	fchs   
    87b9:	dd e9                	fucomp %st(1)
    87bb:	df e0                	fnstsw %ax
    87bd:	f6 c4 45             	test   $0x45,%ah
    87c0:	0f 85 62 ff ff ff    	jne    8728 <pcm_format_convert_and_mix+0x638>
    87c6:	dd d8                	fstp   %st(0)
    87c8:	d9 05 90 b3 00 00    	flds   0xb390
    87ce:	e9 70 ff ff ff       	jmp    8743 <pcm_format_convert_and_mix+0x653>
    87d3:	31 d2                	xor    %edx,%edx
    87d5:	8b 45 0c             	mov    0xc(%ebp),%eax
    87d8:	f7 f3                	div    %ebx
    87da:	8b 55 0c             	mov    0xc(%ebp),%edx
    87dd:	89 45 bc             	mov    %eax,-0x44(%ebp)
    87e0:	c1 ea 02             	shr    $0x2,%edx
    87e3:	c7 45 cc 00 00 00 00 	movl   $0x0,-0x34(%ebp)
    87ea:	89 55 c8             	mov    %edx,-0x38(%ebp)
    87ed:	85 c0                	test   %eax,%eax
    87ef:	0f 84 d3 02 00 00    	je     8ac8 <pcm_format_convert_and_mix+0x9d8>
    87f5:	89 7d 1c             	mov    %edi,0x1c(%ebp)
    87f8:	85 f6                	test   %esi,%esi
    87fa:	0f 84 18 04 00 00    	je     8c18 <pcm_format_convert_and_mix+0xb28>
    8800:	31 db                	xor    %ebx,%ebx
    8802:	8b 7d 1c             	mov    0x1c(%ebp),%edi
    8805:	eb 76                	jmp    887d <pcm_format_convert_and_mix+0x78d>
    8807:	90                   	nop
    8808:	d9 e8                	fld1   
    880a:	d9 c9                	fxch   %st(1)
    880c:	dd e1                	fucom  %st(1)
    880e:	df e0                	fnstsw %ax
    8810:	f6 c4 45             	test   $0x45,%ah
    8813:	0f 85 ad 04 00 00    	jne    8cc6 <pcm_format_convert_and_mix+0xbd6>
    8819:	dd d8                	fstp   %st(0)
    881b:	dd d8                	fstp   %st(0)
    881d:	d9 05 b8 b3 00 00    	flds   0xb3b8
    8823:	8b 45 cc             	mov    -0x34(%ebp),%eax
    8826:	0f af f0             	imul   %eax,%esi
    8829:	01 de                	add    %ebx,%esi
    882b:	3b 75 c8             	cmp    -0x38(%ebp),%esi
    882e:	73 40                	jae    8870 <pcm_format_convert_and_mix+0x780>
    8830:	d9 7d e2             	fnstcw -0x1e(%ebp)
    8833:	66 8b 45 e2          	mov    -0x1e(%ebp),%ax
    8837:	c7 45 c4 00 00 00 00 	movl   $0x0,-0x3c(%ebp)
    883e:	b4 0c                	mov    $0xc,%ah
    8840:	8b 4d 08             	mov    0x8(%ebp),%ecx
    8843:	66 89 45 e0          	mov    %ax,-0x20(%ebp)
    8847:	d9 6d e0             	fldcw  -0x20(%ebp)
    884a:	df 7d d0             	fistpll -0x30(%ebp)
    884d:	d9 6d e2             	fldcw  -0x1e(%ebp)
    8850:	8b 45 d0             	mov    -0x30(%ebp),%eax
    8853:	89 45 c0             	mov    %eax,-0x40(%ebp)
    8856:	df 6d c0             	fildll -0x40(%ebp)
    8859:	d9 6d e0             	fldcw  -0x20(%ebp)
    885c:	df 7d d0             	fistpll -0x30(%ebp)
    885f:	d9 6d e2             	fldcw  -0x1e(%ebp)
    8862:	8b 45 d0             	mov    -0x30(%ebp),%eax
    8865:	89 04 b1             	mov    %eax,(%ecx,%esi,4)
    8868:	eb 08                	jmp    8872 <pcm_format_convert_and_mix+0x782>
    886a:	8d b6 00 00 00 00    	lea    0x0(%esi),%esi
    8870:	dd d8                	fstp   %st(0)
    8872:	43                   	inc    %ebx
    8873:	8b 37                	mov    (%edi),%esi
    8875:	39 de                	cmp    %ebx,%esi
    8877:	0f 86 eb 02 00 00    	jbe    8b68 <pcm_format_convert_and_mix+0xa78>
    887d:	8b 4d cc             	mov    -0x34(%ebp),%ecx
    8880:	50                   	push   %eax
    8881:	8b 55 0c             	mov    0xc(%ebp),%edx
    8884:	50                   	push   %eax
    8885:	8b 45 08             	mov    0x8(%ebp),%eax
    8888:	57                   	push   %edi
    8889:	53                   	push   %ebx
    888a:	e8 b1 ed ff ff       	call   7640 <get_normalized_sample>
    888f:	8b 4d 18             	mov    0x18(%ebp),%ecx
    8892:	58                   	pop    %eax
    8893:	d9 5d c0             	fstps  -0x40(%ebp)
    8896:	5a                   	pop    %edx
    8897:	8b 45 10             	mov    0x10(%ebp),%eax
    889a:	51                   	push   %ecx
    889b:	8b 55 14             	mov    0x14(%ebp),%edx
    889e:	8b 4d cc             	mov    -0x34(%ebp),%ecx
    88a1:	53                   	push   %ebx
    88a2:	e8 99 ed ff ff       	call   7640 <get_normalized_sample>
    88a7:	83 c4 10             	add    $0x10,%esp
    88aa:	d8 45 c0             	fadds  -0x40(%ebp)
    88ad:	d9 e8                	fld1   
    88af:	d9 e0                	fchs   
    88b1:	dd e9                	fucomp %st(1)
    88b3:	df e0                	fnstsw %ax
    88b5:	f6 c4 45             	test   $0x45,%ah
    88b8:	0f 85 4a ff ff ff    	jne    8808 <pcm_format_convert_and_mix+0x718>
    88be:	dd d8                	fstp   %st(0)
    88c0:	d9 ee                	fldz   
    88c2:	e9 5c ff ff ff       	jmp    8823 <pcm_format_convert_and_mix+0x733>
    88c7:	31 d2                	xor    %edx,%edx
    88c9:	8b 45 0c             	mov    0xc(%ebp),%eax
    88cc:	f7 f3                	div    %ebx
    88ce:	8b 55 0c             	mov    0xc(%ebp),%edx
    88d1:	89 45 bc             	mov    %eax,-0x44(%ebp)
    88d4:	c1 ea 02             	shr    $0x2,%edx
    88d7:	c7 45 cc 00 00 00 00 	movl   $0x0,-0x34(%ebp)
    88de:	89 55 c8             	mov    %edx,-0x38(%ebp)
    88e1:	85 c0                	test   %eax,%eax
    88e3:	0f 84 df 01 00 00    	je     8ac8 <pcm_format_convert_and_mix+0x9d8>
    88e9:	89 7d 1c             	mov    %edi,0x1c(%ebp)
    88ec:	8d 74 26 00          	lea    0x0(%esi,%eiz,1),%esi
    88f0:	85 f6                	test   %esi,%esi
    88f2:	0f 84 00 03 00 00    	je     8bf8 <pcm_format_convert_and_mix+0xb08>
    88f8:	31 db                	xor    %ebx,%ebx
    88fa:	8b 7d 1c             	mov    0x1c(%ebp),%edi
    88fd:	eb 76                	jmp    8975 <pcm_format_convert_and_mix+0x885>
    88ff:	90                   	nop
    8900:	d9 e8                	fld1   
    8902:	d9 c9                	fxch   %st(1)
    8904:	dd e1                	fucom  %st(1)
    8906:	df e0                	fnstsw %ax
    8908:	f6 c4 45             	test   $0x45,%ah
    890b:	0f 85 a2 03 00 00    	jne    8cb3 <pcm_format_convert_and_mix+0xbc3>
    8911:	dd d8                	fstp   %st(0)
    8913:	dd d8                	fstp   %st(0)
    8915:	d9 05 b8 b3 00 00    	flds   0xb3b8
    891b:	8b 45 cc             	mov    -0x34(%ebp),%eax
    891e:	0f af f0             	imul   %eax,%esi
    8921:	01 de                	add    %ebx,%esi
    8923:	3b 75 c8             	cmp    -0x38(%ebp),%esi
    8926:	73 40                	jae    8968 <pcm_format_convert_and_mix+0x878>
    8928:	d9 7d e2             	fnstcw -0x1e(%ebp)
    892b:	66 8b 45 e2          	mov    -0x1e(%ebp),%ax
    892f:	c7 45 c4 00 00 00 00 	movl   $0x0,-0x3c(%ebp)
    8936:	b4 0c                	mov    $0xc,%ah
    8938:	8b 4d 08             	mov    0x8(%ebp),%ecx
    893b:	66 89 45 e0          	mov    %ax,-0x20(%ebp)
    893f:	d9 6d e0             	fldcw  -0x20(%ebp)
    8942:	df 7d d0             	fistpll -0x30(%ebp)
    8945:	d9 6d e2             	fldcw  -0x1e(%ebp)
    8948:	8b 45 d0             	mov    -0x30(%ebp),%eax
    894b:	0f c8                	bswap  %eax
    894d:	89 45 c0             	mov    %eax,-0x40(%ebp)
    8950:	df 6d c0             	fildll -0x40(%ebp)
    8953:	d9 6d e0             	fldcw  -0x20(%ebp)
    8956:	df 7d d0             	fistpll -0x30(%ebp)
    8959:	d9 6d e2             	fldcw  -0x1e(%ebp)
    895c:	8b 45 d0             	mov    -0x30(%ebp),%eax
    895f:	89 04 b1             	mov    %eax,(%ecx,%esi,4)
    8962:	eb 06                	jmp    896a <pcm_format_convert_and_mix+0x87a>
    8964:	8d 74 26 00          	lea    0x0(%esi,%eiz,1),%esi
    8968:	dd d8                	fstp   %st(0)
    896a:	43                   	inc    %ebx
    896b:	8b 37                	mov    (%edi),%esi
    896d:	39 de                	cmp    %ebx,%esi
    896f:	0f 86 23 02 00 00    	jbe    8b98 <pcm_format_convert_and_mix+0xaa8>
    8975:	8b 4d cc             	mov    -0x34(%ebp),%ecx
    8978:	50                   	push   %eax
    8979:	8b 55 0c             	mov    0xc(%ebp),%edx
    897c:	50                   	push   %eax
    897d:	8b 45 08             	mov    0x8(%ebp),%eax
    8980:	57                   	push   %edi
    8981:	53                   	push   %ebx
    8982:	e8 b9 ec ff ff       	call   7640 <get_normalized_sample>
    8987:	8b 4d 18             	mov    0x18(%ebp),%ecx
    898a:	58                   	pop    %eax
    898b:	d9 5d c0             	fstps  -0x40(%ebp)
    898e:	5a                   	pop    %edx
    898f:	8b 45 10             	mov    0x10(%ebp),%eax
    8992:	51                   	push   %ecx
    8993:	8b 55 14             	mov    0x14(%ebp),%edx
    8996:	8b 4d cc             	mov    -0x34(%ebp),%ecx
    8999:	53                   	push   %ebx
    899a:	e8 a1 ec ff ff       	call   7640 <get_normalized_sample>
    899f:	83 c4 10             	add    $0x10,%esp
    89a2:	d8 45 c0             	fadds  -0x40(%ebp)
    89a5:	d9 e8                	fld1   
    89a7:	d9 e0                	fchs   
    89a9:	dd e9                	fucomp %st(1)
    89ab:	df e0                	fnstsw %ax
    89ad:	f6 c4 45             	test   $0x45,%ah
    89b0:	0f 85 4a ff ff ff    	jne    8900 <pcm_format_convert_and_mix+0x810>
    89b6:	dd d8                	fstp   %st(0)
    89b8:	d9 ee                	fldz   
    89ba:	e9 5c ff ff ff       	jmp    891b <pcm_format_convert_and_mix+0x82b>
    89bf:	31 d2                	xor    %edx,%edx
    89c1:	8b 45 0c             	mov    0xc(%ebp),%eax
    89c4:	f7 f3                	div    %ebx
    89c6:	8b 55 0c             	mov    0xc(%ebp),%edx
    89c9:	89 45 bc             	mov    %eax,-0x44(%ebp)
    89cc:	c1 ea 02             	shr    $0x2,%edx
    89cf:	c7 45 cc 00 00 00 00 	movl   $0x0,-0x34(%ebp)
    89d6:	89 55 c8             	mov    %edx,-0x38(%ebp)
    89d9:	85 c0                	test   %eax,%eax
    89db:	0f 84 e7 00 00 00    	je     8ac8 <pcm_format_convert_and_mix+0x9d8>
    89e1:	8d b4 26 00 00 00 00 	lea    0x0(%esi,%eiz,1),%esi
    89e8:	85 f6                	test   %esi,%esi
    89ea:	0f 84 88 02 00 00    	je     8c78 <pcm_format_convert_and_mix+0xb88>
    89f0:	31 db                	xor    %ebx,%ebx
    89f2:	eb 61                	jmp    8a55 <pcm_format_convert_and_mix+0x965>
    89f4:	8d 74 26 00          	lea    0x0(%esi,%eiz,1),%esi
    89f8:	d9 e8                	fld1   
    89fa:	d9 c9                	fxch   %st(1)
    89fc:	dd e1                	fucom  %st(1)
    89fe:	df e0                	fnstsw %ax
    8a00:	f6 c4 45             	test   $0x45,%ah
    8a03:	0f 85 99 02 00 00    	jne    8ca2 <pcm_format_convert_and_mix+0xbb2>
    8a09:	dd d8                	fstp   %st(0)
    8a0b:	dd d8                	fstp   %st(0)
    8a0d:	d9 05 a0 b3 00 00    	flds   0xb3a0
    8a13:	8b 45 cc             	mov    -0x34(%ebp),%eax
    8a16:	0f af f0             	imul   %eax,%esi
    8a19:	01 de                	add    %ebx,%esi
    8a1b:	3b 75 c8             	cmp    -0x38(%ebp),%esi
    8a1e:	73 28                	jae    8a48 <pcm_format_convert_and_mix+0x958>
    8a20:	d9 7d e2             	fnstcw -0x1e(%ebp)
    8a23:	66 8b 45 e2          	mov    -0x1e(%ebp),%ax
    8a27:	b4 0c                	mov    $0xc,%ah
    8a29:	66 89 45 e0          	mov    %ax,-0x20(%ebp)
    8a2d:	8b 45 08             	mov    0x8(%ebp),%eax
    8a30:	d9 6d e0             	fldcw  -0x20(%ebp)
    8a33:	db 5d c0             	fistpl -0x40(%ebp)
    8a36:	d9 6d e2             	fldcw  -0x1e(%ebp)
    8a39:	db 45 c0             	fildl  -0x40(%ebp)
    8a3c:	d9 6d e0             	fldcw  -0x20(%ebp)
    8a3f:	db 1c b0             	fistpl (%eax,%esi,4)
    8a42:	d9 6d e2             	fldcw  -0x1e(%ebp)
    8a45:	eb 03                	jmp    8a4a <pcm_format_convert_and_mix+0x95a>
    8a47:	90                   	nop
    8a48:	dd d8                	fstp   %st(0)
    8a4a:	43                   	inc    %ebx
    8a4b:	8b 37                	mov    (%edi),%esi
    8a4d:	39 de                	cmp    %ebx,%esi
    8a4f:	0f 86 e3 00 00 00    	jbe    8b38 <pcm_format_convert_and_mix+0xa48>
    8a55:	8b 4d cc             	mov    -0x34(%ebp),%ecx
    8a58:	50                   	push   %eax
    8a59:	8b 55 0c             	mov    0xc(%ebp),%edx
    8a5c:	50                   	push   %eax
    8a5d:	8b 45 08             	mov    0x8(%ebp),%eax
    8a60:	57                   	push   %edi
    8a61:	53                   	push   %ebx
    8a62:	e8 d9 eb ff ff       	call   7640 <get_normalized_sample>
    8a67:	8b 4d 18             	mov    0x18(%ebp),%ecx
    8a6a:	58                   	pop    %eax
    8a6b:	d9 5d c0             	fstps  -0x40(%ebp)
    8a6e:	5a                   	pop    %edx
    8a6f:	8b 45 10             	mov    0x10(%ebp),%eax
    8a72:	51                   	push   %ecx
    8a73:	8b 55 14             	mov    0x14(%ebp),%edx
    8a76:	8b 4d cc             	mov    -0x34(%ebp),%ecx
    8a79:	53                   	push   %ebx
    8a7a:	e8 c1 eb ff ff       	call   7640 <get_normalized_sample>
    8a7f:	83 c4 10             	add    $0x10,%esp
    8a82:	d8 45 c0             	fadds  -0x40(%ebp)
    8a85:	d9 e8                	fld1   
    8a87:	d9 e0                	fchs   
    8a89:	dd e9                	fucomp %st(1)
    8a8b:	df e0                	fnstsw %ax
    8a8d:	f6 c4 45             	test   $0x45,%ah
    8a90:	0f 85 62 ff ff ff    	jne    89f8 <pcm_format_convert_and_mix+0x908>
    8a96:	dd d8                	fstp   %st(0)
    8a98:	d9 05 bc b3 00 00    	flds   0xb3bc
    8a9e:	e9 70 ff ff ff       	jmp    8a13 <pcm_format_convert_and_mix+0x923>
    8aa3:	90                   	nop
    8aa4:	8d 74 26 00          	lea    0x0(%esi,%eiz,1),%esi
    8aa8:	8b 45 bc             	mov    -0x44(%ebp),%eax
    8aab:	8b 55 b8             	mov    -0x48(%ebp),%edx
    8aae:	01 d0                	add    %edx,%eax
    8ab0:	46                   	inc    %esi
    8ab1:	8b 5d c0             	mov    -0x40(%ebp),%ebx
    8ab4:	89 45 bc             	mov    %eax,-0x44(%ebp)
    8ab7:	01 df                	add    %ebx,%edi
    8ab9:	39 75 b4             	cmp    %esi,-0x4c(%ebp)
    8abc:	0f 85 fe f7 ff ff    	jne    82c0 <pcm_format_convert_and_mix+0x1d0>
    8ac2:	8d b6 00 00 00 00    	lea    0x0(%esi),%esi
    8ac8:	31 c0                	xor    %eax,%eax
    8aca:	8d 65 f4             	lea    -0xc(%ebp),%esp
    8acd:	5b                   	pop    %ebx
    8ace:	5e                   	pop    %esi
    8acf:	5f                   	pop    %edi
    8ad0:	5d                   	pop    %ebp
    8ad1:	c3                   	ret    
    8ad2:	8d b6 00 00 00 00    	lea    0x0(%esi),%esi
    8ad8:	8b 45 bc             	mov    -0x44(%ebp),%eax
    8adb:	8b 55 b8             	mov    -0x48(%ebp),%edx
    8ade:	01 d0                	add    %edx,%eax
    8ae0:	46                   	inc    %esi
    8ae1:	8b 5d c0             	mov    -0x40(%ebp),%ebx
    8ae4:	89 45 bc             	mov    %eax,-0x44(%ebp)
    8ae7:	01 df                	add    %ebx,%edi
    8ae9:	39 75 b4             	cmp    %esi,-0x4c(%ebp)
    8aec:	0f 85 b6 f8 ff ff    	jne    83a8 <pcm_format_convert_and_mix+0x2b8>
    8af2:	eb d4                	jmp    8ac8 <pcm_format_convert_and_mix+0x9d8>
    8af4:	8d 74 26 00          	lea    0x0(%esi,%eiz,1),%esi
    8af8:	8b 45 bc             	mov    -0x44(%ebp),%eax
    8afb:	8b 55 b8             	mov    -0x48(%ebp),%edx
    8afe:	01 d0                	add    %edx,%eax
    8b00:	46                   	inc    %esi
    8b01:	8b 5d c0             	mov    -0x40(%ebp),%ebx
    8b04:	89 45 bc             	mov    %eax,-0x44(%ebp)
    8b07:	01 df                	add    %ebx,%edi
    8b09:	39 75 b4             	cmp    %esi,-0x4c(%ebp)
    8b0c:	0f 85 86 f9 ff ff    	jne    8498 <pcm_format_convert_and_mix+0x3a8>
    8b12:	eb b4                	jmp    8ac8 <pcm_format_convert_and_mix+0x9d8>
    8b14:	8d 74 26 00          	lea    0x0(%esi,%eiz,1),%esi
    8b18:	8b 45 bc             	mov    -0x44(%ebp),%eax
    8b1b:	8b 55 b8             	mov    -0x48(%ebp),%edx
    8b1e:	01 d0                	add    %edx,%eax
    8b20:	46                   	inc    %esi
    8b21:	8b 5d c0             	mov    -0x40(%ebp),%ebx
    8b24:	89 45 bc             	mov    %eax,-0x44(%ebp)
    8b27:	01 df                	add    %ebx,%edi
    8b29:	39 75 b4             	cmp    %esi,-0x4c(%ebp)
    8b2c:	0f 85 46 fa ff ff    	jne    8578 <pcm_format_convert_and_mix+0x488>
    8b32:	eb 94                	jmp    8ac8 <pcm_format_convert_and_mix+0x9d8>
    8b34:	8d 74 26 00          	lea    0x0(%esi,%eiz,1),%esi
    8b38:	8b 5d cc             	mov    -0x34(%ebp),%ebx
    8b3b:	43                   	inc    %ebx
    8b3c:	89 5d cc             	mov    %ebx,-0x34(%ebp)
    8b3f:	8b 45 cc             	mov    -0x34(%ebp),%eax
    8b42:	39 45 bc             	cmp    %eax,-0x44(%ebp)
    8b45:	0f 85 9d fe ff ff    	jne    89e8 <pcm_format_convert_and_mix+0x8f8>
    8b4b:	e9 78 ff ff ff       	jmp    8ac8 <pcm_format_convert_and_mix+0x9d8>
    8b50:	8b 45 cc             	mov    -0x34(%ebp),%eax
    8b53:	40                   	inc    %eax
    8b54:	89 45 cc             	mov    %eax,-0x34(%ebp)
    8b57:	8b 45 cc             	mov    -0x34(%ebp),%eax
    8b5a:	39 45 bc             	cmp    %eax,-0x44(%ebp)
    8b5d:	0f 85 55 f6 ff ff    	jne    81b8 <pcm_format_convert_and_mix+0xc8>
    8b63:	e9 60 ff ff ff       	jmp    8ac8 <pcm_format_convert_and_mix+0x9d8>
    8b68:	8b 5d cc             	mov    -0x34(%ebp),%ebx
    8b6b:	43                   	inc    %ebx
    8b6c:	89 5d cc             	mov    %ebx,-0x34(%ebp)
    8b6f:	8b 45 cc             	mov    -0x34(%ebp),%eax
    8b72:	39 45 bc             	cmp    %eax,-0x44(%ebp)
    8b75:	0f 85 7d fc ff ff    	jne    87f8 <pcm_format_convert_and_mix+0x708>
    8b7b:	e9 48 ff ff ff       	jmp    8ac8 <pcm_format_convert_and_mix+0x9d8>
    8b80:	8b 5d cc             	mov    -0x34(%ebp),%ebx
    8b83:	43                   	inc    %ebx
    8b84:	89 5d cc             	mov    %ebx,-0x34(%ebp)
    8b87:	8b 45 cc             	mov    -0x34(%ebp),%eax
    8b8a:	39 45 c8             	cmp    %eax,-0x38(%ebp)
    8b8d:	0f 85 85 fb ff ff    	jne    8718 <pcm_format_convert_and_mix+0x628>
    8b93:	e9 30 ff ff ff       	jmp    8ac8 <pcm_format_convert_and_mix+0x9d8>
    8b98:	8b 5d cc             	mov    -0x34(%ebp),%ebx
    8b9b:	43                   	inc    %ebx
    8b9c:	89 5d cc             	mov    %ebx,-0x34(%ebp)
    8b9f:	8b 45 cc             	mov    -0x34(%ebp),%eax
    8ba2:	39 45 bc             	cmp    %eax,-0x44(%ebp)
    8ba5:	0f 85 45 fd ff ff    	jne    88f0 <pcm_format_convert_and_mix+0x800>
    8bab:	e9 18 ff ff ff       	jmp    8ac8 <pcm_format_convert_and_mix+0x9d8>
    8bb0:	8b 5d cc             	mov    -0x34(%ebp),%ebx
    8bb3:	43                   	inc    %ebx
    8bb4:	89 5d cc             	mov    %ebx,-0x34(%ebp)
    8bb7:	8b 45 cc             	mov    -0x34(%ebp),%eax
    8bba:	39 45 c8             	cmp    %eax,-0x38(%ebp)
    8bbd:	0f 85 85 fa ff ff    	jne    8648 <pcm_format_convert_and_mix+0x558>
    8bc3:	e9 00 ff ff ff       	jmp    8ac8 <pcm_format_convert_and_mix+0x9d8>
    8bc8:	8d 65 f4             	lea    -0xc(%ebp),%esp
    8bcb:	b8 f2 ff ff ff       	mov    $0xfffffff2,%eax
    8bd0:	5b                   	pop    %ebx
    8bd1:	5e                   	pop    %esi
    8bd2:	5f                   	pop    %edi
    8bd3:	5d                   	pop    %ebp
    8bd4:	c3                   	ret    
    8bd5:	8b 55 cc             	mov    -0x34(%ebp),%edx
    8bd8:	8b 7d c8             	mov    -0x38(%ebp),%edi
    8bdb:	8d 42 01             	lea    0x1(%edx),%eax
    8bde:	39 c7                	cmp    %eax,%edi
    8be0:	0f 84 e2 fe ff ff    	je     8ac8 <pcm_format_convert_and_mix+0x9d8>
    8be6:	83 c2 02             	add    $0x2,%edx
    8be9:	39 d7                	cmp    %edx,%edi
    8beb:	75 ee                	jne    8bdb <pcm_format_convert_and_mix+0xaeb>
    8bed:	e9 d6 fe ff ff       	jmp    8ac8 <pcm_format_convert_and_mix+0x9d8>
    8bf2:	8d b6 00 00 00 00    	lea    0x0(%esi),%esi
    8bf8:	8b 55 cc             	mov    -0x34(%ebp),%edx
    8bfb:	8b 7d bc             	mov    -0x44(%ebp),%edi
    8bfe:	8d 42 01             	lea    0x1(%edx),%eax
    8c01:	39 c7                	cmp    %eax,%edi
    8c03:	0f 84 bf fe ff ff    	je     8ac8 <pcm_format_convert_and_mix+0x9d8>
    8c09:	83 c2 02             	add    $0x2,%edx
    8c0c:	39 fa                	cmp    %edi,%edx
    8c0e:	75 ee                	jne    8bfe <pcm_format_convert_and_mix+0xb0e>
    8c10:	e9 b3 fe ff ff       	jmp    8ac8 <pcm_format_convert_and_mix+0x9d8>
    8c15:	8d 76 00             	lea    0x0(%esi),%esi
    8c18:	8b 55 cc             	mov    -0x34(%ebp),%edx
    8c1b:	8b 7d bc             	mov    -0x44(%ebp),%edi
    8c1e:	8d 42 01             	lea    0x1(%edx),%eax
    8c21:	39 c7                	cmp    %eax,%edi
    8c23:	0f 84 9f fe ff ff    	je     8ac8 <pcm_format_convert_and_mix+0x9d8>
    8c29:	83 c2 02             	add    $0x2,%edx
    8c2c:	39 fa                	cmp    %edi,%edx
    8c2e:	75 ee                	jne    8c1e <pcm_format_convert_and_mix+0xb2e>
    8c30:	e9 93 fe ff ff       	jmp    8ac8 <pcm_format_convert_and_mix+0x9d8>
    8c35:	8d 76 00             	lea    0x0(%esi),%esi
    8c38:	8b 55 cc             	mov    -0x34(%ebp),%edx
    8c3b:	8b 7d c8             	mov    -0x38(%ebp),%edi
    8c3e:	8d 42 01             	lea    0x1(%edx),%eax
    8c41:	39 c7                	cmp    %eax,%edi
    8c43:	0f 84 7f fe ff ff    	je     8ac8 <pcm_format_convert_and_mix+0x9d8>
    8c49:	83 c2 02             	add    $0x2,%edx
    8c4c:	39 d7                	cmp    %edx,%edi
    8c4e:	75 ee                	jne    8c3e <pcm_format_convert_and_mix+0xb4e>
    8c50:	e9 73 fe ff ff       	jmp    8ac8 <pcm_format_convert_and_mix+0x9d8>
    8c55:	8d 76 00             	lea    0x0(%esi),%esi
    8c58:	8b 55 cc             	mov    -0x34(%ebp),%edx
    8c5b:	8b 7d bc             	mov    -0x44(%ebp),%edi
    8c5e:	8d 42 01             	lea    0x1(%edx),%eax
    8c61:	39 c7                	cmp    %eax,%edi
    8c63:	0f 84 5f fe ff ff    	je     8ac8 <pcm_format_convert_and_mix+0x9d8>
    8c69:	83 c2 02             	add    $0x2,%edx
    8c6c:	39 fa                	cmp    %edi,%edx
    8c6e:	75 ee                	jne    8c5e <pcm_format_convert_and_mix+0xb6e>
    8c70:	e9 53 fe ff ff       	jmp    8ac8 <pcm_format_convert_and_mix+0x9d8>
    8c75:	8d 76 00             	lea    0x0(%esi),%esi
    8c78:	8b 55 cc             	mov    -0x34(%ebp),%edx
    8c7b:	8b 7d bc             	mov    -0x44(%ebp),%edi
    8c7e:	8d 42 01             	lea    0x1(%edx),%eax
    8c81:	39 c7                	cmp    %eax,%edi
    8c83:	0f 84 3f fe ff ff    	je     8ac8 <pcm_format_convert_and_mix+0x9d8>
    8c89:	83 c2 02             	add    $0x2,%edx
    8c8c:	39 fa                	cmp    %edi,%edx
    8c8e:	75 ee                	jne    8c7e <pcm_format_convert_and_mix+0xb8e>
    8c90:	e9 33 fe ff ff       	jmp    8ac8 <pcm_format_convert_and_mix+0x9d8>
    8c95:	8d 76 00             	lea    0x0(%esi),%esi
    8c98:	b8 f5 ff ff ff       	mov    $0xfffffff5,%eax
    8c9d:	e9 28 fe ff ff       	jmp    8aca <pcm_format_convert_and_mix+0x9da>
    8ca2:	de c1                	faddp  %st,%st(1)
    8ca4:	d9 05 a0 b3 00 00    	flds   0xb3a0
    8caa:	dc c9                	fmul   %st,%st(1)
    8cac:	de e9                	fsubrp %st,%st(1)
    8cae:	e9 60 fd ff ff       	jmp    8a13 <pcm_format_convert_and_mix+0x923>
    8cb3:	de c1                	faddp  %st,%st(1)
    8cb5:	d8 0d a0 b3 00 00    	fmuls  0xb3a0
    8cbb:	d8 05 84 b3 00 00    	fadds  0xb384
    8cc1:	e9 55 fc ff ff       	jmp    891b <pcm_format_convert_and_mix+0x82b>
    8cc6:	de c1                	faddp  %st,%st(1)
    8cc8:	d8 0d a0 b3 00 00    	fmuls  0xb3a0
    8cce:	d8 05 84 b3 00 00    	fadds  0xb384
    8cd4:	e9 4a fb ff ff       	jmp    8823 <pcm_format_convert_and_mix+0x733>
    8cd9:	de c1                	faddp  %st,%st(1)
    8cdb:	d8 0d c0 b3 00 00    	fmuls  0xb3c0
    8ce1:	d8 05 90 b3 00 00    	fadds  0xb390
    8ce7:	e9 57 fa ff ff       	jmp    8743 <pcm_format_convert_and_mix+0x653>
    8cec:	de c1                	faddp  %st,%st(1)
    8cee:	d8 0d 88 b3 00 00    	fmuls  0xb388
    8cf4:	d8 05 84 b3 00 00    	fadds  0xb384
    8cfa:	e9 74 f9 ff ff       	jmp    8673 <pcm_format_convert_and_mix+0x583>
    8cff:	de c1                	faddp  %st,%st(1)
    8d01:	d8 0d 94 b3 00 00    	fmuls  0xb394
    8d07:	d8 25 98 b3 00 00    	fsubs  0xb398
    8d0d:	e9 89 f8 ff ff       	jmp    859b <pcm_format_convert_and_mix+0x4ab>
    8d12:	de c1                	faddp  %st,%st(1)
    8d14:	d8 0d 94 b3 00 00    	fmuls  0xb394
    8d1a:	d8 25 98 b3 00 00    	fsubs  0xb398
    8d20:	e9 96 f7 ff ff       	jmp    84bb <pcm_format_convert_and_mix+0x3cb>
    8d25:	de c1                	faddp  %st,%st(1)
    8d27:	d8 0d 94 b3 00 00    	fmuls  0xb394
    8d2d:	d8 05 84 b3 00 00    	fadds  0xb384
    8d33:	e9 93 f6 ff ff       	jmp    83cb <pcm_format_convert_and_mix+0x2db>
    8d38:	de c1                	faddp  %st,%st(1)
    8d3a:	d8 0d 94 b3 00 00    	fmuls  0xb394
    8d40:	d8 05 84 b3 00 00    	fadds  0xb384
    8d46:	e9 98 f5 ff ff       	jmp    82e3 <pcm_format_convert_and_mix+0x1f3>
    8d4b:	de c1                	faddp  %st,%st(1)
    8d4d:	d9 05 a0 b3 00 00    	flds   0xb3a0
    8d53:	dc c9                	fmul   %st,%st(1)
    8d55:	de e9                	fsubrp %st,%st(1)
    8d57:	e9 87 f4 ff ff       	jmp    81e3 <pcm_format_convert_and_mix+0xf3>
    8d5c:	8d 74 26 00          	lea    0x0(%esi,%eiz,1),%esi

00008d60 <pcm_format_mix>:
    8d60:	55                   	push   %ebp
    8d61:	89 e5                	mov    %esp,%ebp
    8d63:	83 ec 10             	sub    $0x10,%esp
    8d66:	8b 55 14             	mov    0x14(%ebp),%edx
    8d69:	8b 45 10             	mov    0x10(%ebp),%eax
    8d6c:	52                   	push   %edx
    8d6d:	8b 4d 08             	mov    0x8(%ebp),%ecx
    8d70:	52                   	push   %edx
    8d71:	8b 55 0c             	mov    0xc(%ebp),%edx
    8d74:	50                   	push   %eax
    8d75:	52                   	push   %edx
    8d76:	50                   	push   %eax
    8d77:	51                   	push   %ecx
    8d78:	e8 73 f3 ff ff       	call   80f0 <pcm_format_convert_and_mix>
    8d7d:	c9                   	leave  
    8d7e:	c3                   	ret    
    8d7f:	61                   	popa   
    8d80:	75 64                	jne    8de6 <pcm_format_mix+0x86>
    8d82:	69 6f 5f 64 61 74 61 	imul   $0x61746164,0x5f(%edi),%ebp
    8d89:	2e 63 00             	arpl   %ax,%cs:(%eax)
    8d8c:	61                   	popa   
    8d8d:	6c                   	insb   (%dx),%es:(%edi)
    8d8e:	69 6e 6b 00 70 69 70 	imul   $0x70697000,0x6b(%esi),%ebp
    8d95:	65 00 61 6c          	add    %ah,%gs:0x6c(%ecx)
    8d99:	69 6e 6b 2d 3e 61 64 	imul   $0x64613e2d,0x6b(%esi),%ebp
    8da0:	61                   	popa   
    8da1:	74 61                	je     8e04 <pcm_format_mix+0xa4>
    8da3:	00 21                	add    %ah,(%ecx)
    8da5:	6c                   	insb   (%dx),%es:(%edi)
    8da6:	69 6e 6b 5f 69 6e 5f 	imul   $0x5f6e695f,0x6b(%esi),%ebp
    8dad:	75 73                	jne    8e22 <pcm_format_mix+0xc2>
    8daf:	65 28 26             	sub    %ah,%gs:(%esi)
    8db2:	6c                   	insb   (%dx),%es:(%edi)
    8db3:	69 6e 6b 2d 3e 6c 69 	imul   $0x696c3e2d,0x6b(%esi),%ebp
    8dba:	6e                   	outsb  %ds:(%esi),(%dx)
    8dbb:	6b 29 00             	imul   $0x0,(%ecx),%ebp
    8dbe:	6e                   	outsb  %ds:(%esi),(%dx)
    8dbf:	65 65 64 65 64 5f    	gs gs fs gs fs pop %edi
    8dc5:	66 72 61             	data16 jb 8e29 <pcm_format_mix+0xc9>
    8dc8:	6d                   	insl   (%dx),%es:(%edi)
    8dc9:	65 73 20             	gs jae 8dec <pcm_format_mix+0x8c>
    8dcc:	3d 3d 20 30 00       	cmp    $0x30203d,%eax
    8dd1:	66 90                	xchg   %ax,%ax
    8dd3:	90                   	nop
    8dd4:	44                   	inc    %esp
    8dd5:	61                   	popa   
    8dd6:	74 61                	je     8e39 <pcm_format_mix+0xd9>
    8dd8:	20 6e 6f             	and    %ch,0x6f(%esi)
    8ddb:	74 20                	je     8dfd <pcm_format_mix+0x9d>
    8ddd:	61                   	popa   
    8dde:	20 6d 75             	and    %ch,0x75(%ebp)
    8de1:	6c                   	insb   (%dx),%es:(%edi)
    8de2:	74 69                	je     8e4d <pcm_format_mix+0xed>
    8de4:	70 6c                	jo     8e52 <pcm_format_mix+0xf2>
    8de6:	65 20 6f 66          	and    %ch,%gs:0x66(%edi)
    8dea:	20 66 72             	and    %ah,0x72(%esi)
    8ded:	61                   	popa   
    8dee:	6d                   	insl   (%dx),%es:(%edi)
    8def:	65 20 73 69          	and    %dh,%gs:0x69(%ebx)
    8df3:	7a 65                	jp     8e5a <pcm_format_mix+0xfa>
    8df5:	2c 20                	sub    $0x20,%al
    8df7:	63 6c 69 70          	arpl   %bp,0x70(%ecx,%ebp,2)
    8dfb:	70 69                	jo     8e66 <pcm_format_mix+0x106>
    8dfd:	6e                   	outsb  %ds:(%esi),(%dx)
    8dfe:	67 2e 00 00          	add    %al,%cs:(%bx,%si)
    8e02:	00 00                	add    %al,(%eax)
    8e04:	61                   	popa   
    8e05:	74 6f                	je     8e76 <pcm_format_mix+0x116>
    8e07:	6d                   	insl   (%dx),%es:(%edi)
    8e08:	69 63 5f 67 65 74 28 	imul   $0x28746567,0x5f(%ebx),%esp
    8e0f:	26 61                	es popa 
    8e11:	64 61                	fs popa 
    8e13:	74 61                	je     8e76 <pcm_format_mix+0x116>
    8e15:	2d 3e 72 65 66       	sub    $0x6665723e,%eax
    8e1a:	63 6f 75             	arpl   %bp,0x75(%edi)
    8e1d:	6e                   	outsb  %ds:(%esi),(%dx)
    8e1e:	74 29                	je     8e49 <pcm_format_mix+0xe9>
    8e20:	20 3e                	and    %bh,(%esi)
    8e22:	20 30                	and    %dh,(%eax)
    8e24:	00 00                	add    %al,(%eax)
    8e26:	00 00                	add    %al,(%eax)
    8e28:	61                   	popa   
    8e29:	6c                   	insb   (%dx),%es:(%edi)
    8e2a:	69 6e 6b 2d 3e 70 6f 	imul   $0x6f703e2d,0x6b(%esi),%ebp
    8e31:	73 69                	jae    8e9c <pcm_format_mix+0x13c>
    8e33:	74 69                	je     8e9e <pcm_format_mix+0x13e>
    8e35:	6f                   	outsl  %ds:(%esi),(%dx)
    8e36:	6e                   	outsb  %ds:(%esi),(%dx)
    8e37:	20 3c 3d 20 61 6c 69 	and    %bh,0x696c6120(,%edi,1)
    8e3e:	6e                   	outsb  %ds:(%esi),(%dx)
    8e3f:	6b 2d 3e 61 64 61 74 	imul   $0x74,0x6164613e,%ebp
    8e46:	61                   	popa   
    8e47:	2d 3e 73 69 7a       	sub    $0x7a69733e,%eax
    8e4c:	65 00 00             	add    %al,%gs:(%eax)
    8e4f:	00 73 72             	add    %dh,0x72(%ebx)
    8e52:	63 5f 63             	arpl   %bx,0x63(%edi)
    8e55:	6f                   	outsl  %ds:(%esi),(%dx)
    8e56:	70 79                	jo     8ed1 <CSWTCH.18+0x31>
    8e58:	5f                   	pop    %edi
    8e59:	73 69                	jae    8ec4 <CSWTCH.18+0x24>
    8e5b:	7a 65                	jp     8ec2 <CSWTCH.18+0x22>
    8e5d:	20 3c 3d 20 61 75 64 	and    %bh,0x64756120(,%edi,1)
    8e64:	69 6f 5f 64 61 74 61 	imul   $0x61746164,0x5f(%edi),%ebp
    8e6b:	5f                   	pop    %edi
    8e6c:	6c                   	insb   (%dx),%es:(%edi)
    8e6d:	69 6e 6b 5f 72 65 6d 	imul   $0x6d65725f,0x6b(%esi),%ebp
    8e74:	61                   	popa   
    8e75:	69 6e 5f 73 69 7a 65 	imul   $0x657a6973,0x5f(%esi),%ebp
    8e7c:	28 61 6c             	sub    %ah,0x6c(%ecx)
    8e7f:	69 6e 6b 29 00 66 90 	imul   $0x90660029,0x6b(%esi),%ebp
    8e86:	66 90                	xchg   %ax,%ax
    8e88:	66 90                	xchg   %ax,%ax
    8e8a:	66 90                	xchg   %ax,%ax
    8e8c:	66 90                	xchg   %ax,%ax
    8e8e:	66 90                	xchg   %ax,%ax
    8e90:	66 90                	xchg   %ax,%ax
    8e92:	66 90                	xchg   %ax,%ax
    8e94:	66 90                	xchg   %ax,%ax
    8e96:	66 90                	xchg   %ax,%ax
    8e98:	66 90                	xchg   %ax,%ax
    8e9a:	66 90                	xchg   %ax,%ax
    8e9c:	66 90                	xchg   %ax,%ax
    8e9e:	66 90                	xchg   %ax,%ax

00008ea0 <CSWTCH.18>:
    8ea0:	01 00 00 00 01 00 00 00 02 00 00 00 02 00 00 00     ................
    8eb0:	02 00 00 00 02 00 00 00 03 00 00 00 03 00 00 00     ................
    8ec0:	03 00 00 00 03 00 00 00 04 00 00 00 04 00 00 00     ................
    8ed0:	04 00 00 00 04 00 00 00 04 00 00 00 04 00 00 00     ................
    8ee0:	04 00 00 00 04 00 00 00 04 00 00 00 61 75 64 69     ............audi
    8ef0:	6f 5f 64 65 76 69 63 65 2e 63 00 64 65 76 00 4e     o_device.c.dev.N
    8f00:	6f 20 63 6f 6e 6e 65 63 74 69 6f 6e 20 74 6f 20     o connection to 
    8f10:	64 65 76 69 63 65 00 57 65 20 61 6c 72 65 61 64     device.We alread
    8f20:	79 20 68 61 76 65 20 61 20 62 75 66 66 65 72 00     y have a buffer.
    8f30:	46 72 61 67 6d 65 6e 74 20 66 72 61 6d 65 20 63     Fragment frame c
    8f40:	6f 75 6e 74 20 25 75 00 46 61 69 6c 65 64 20 74     ount %u.Failed t
    8f50:	6f 20 73 74 61 72 74 20 70 6c 61 79 62 61 63 6b     o start playback
    8f60:	3a 20 25 73 00 64 65 76 2d 3e 62 75 66 66 65 72     : %s.dev->buffer
    8f70:	2e 62 61 73 65 00 46 61 69 6c 65 64 20 74 6f 20     .base.Failed to 
    8f80:	72 65 6c 65 61 73 65 20 62 75 66 66 65 72 3a 20     release buffer: 
    8f90:	25 73 00 21 6e 65 77 00 46 61 69 6c 65 64 20 74     %s.!new.Failed t
    8fa0:	6f 20 73 74 6f 70 20 70 6c 61 79 62 61 63 6b 3a     o stop playback:
    8fb0:	20 25 73 00 43 68 65 63 6b 69 6e 67 20 66 6f 72      %s.Checking for
    8fc0:	6d 61 74 20 6f 6e 20 73 69 6e 6b 20 25 73 00 54     mat on sink %s.T
    8fd0:	69 6d 65 20 74 6f 20 6d 69 78 20 73 6f 75 72 63     ime to mix sourc
    8fe0:	65 73 3a 20 25 6c 69 0a 00 43 61 70 74 75 72 65     es: %li..Capture
    8ff0:	20 74 65 72 6d 69 6e 61 74 65 64 00 50 6c 61 79      terminated.Play
    9000:	62 61 63 6b 20 54 65 72 6d 69 6e 61 74 65 64 00     back Terminated.
    9010:	46 61 69 6c 65 64 20 74 6f 20 70 75 73 68 20 72     Failed to push r
    9020:	65 63 6f 72 64 65 64 20 64 61 74 61 00 44 65 76     ecorded data.Dev
    9030:	69 63 65 20 65 76 65 6e 74 20 63 61 6c 6c 62 61     ice event callba
    9040:	63 6b 20 68 61 6e 67 75 70 00 46 61 69 6c 65 64     ck hangup.Failed
    9050:	20 74 6f 20 73 74 61 72 74 20 72 65 63 6f 72 64      to start record
    9060:	69 6e 67 3a 20 25 73 00 46 69 72 73 74 20 63 6f     ing: %s.First co
    9070:	6e 6e 65 63 74 69 6f 6e 20 6f 6e 20 64 65 76 69     nnection on devi
    9080:	63 65 20 73 69 6e 6b 20 27 25 73 27 00 00 00 00     ce sink '%s'....
    9090:	64 65 76 2d 3e 62 75 66 66 65 72 2e 70 6f 73 69     dev->buffer.posi
    90a0:	74 69 6f 6e 20 3e 3d 20 64 65 76 2d 3e 62 75 66     tion >= dev->buf
    90b0:	66 65 72 2e 62 61 73 65 00 00 00 00 64 65 76 2d     fer.base....dev-
    90c0:	3e 62 75 66 66 65 72 2e 70 6f 73 69 74 69 6f 6e     >buffer.position
    90d0:	20 3c 20 28 64 65 76 2d 3e 62 75 66 66 65 72 2e      < (dev->buffer.
    90e0:	62 61 73 65 20 2b 20 64 65 76 2d 3e 62 75 66 66     base + dev->buff
    90f0:	65 72 2e 73 69 7a 65 29 00 00 00 00 52 65 6d 6f     er.size)....Remo
    9100:	76 65 64 20 6c 61 73 74 20 63 6f 6e 6e 65 63 74     ved last connect
    9110:	69 6f 6e 20 6f 6e 20 64 65 76 69 63 65 20 73 69     ion on device si
    9120:	6e 6b 20 27 25 73 27 00 46 61 69 6c 65 64 20 74     nk '%s'.Failed t
    9130:	6f 20 67 65 74 20 64 65 76 69 63 65 20 62 75 66     o get device buf
    9140:	66 65 72 3a 20 25 73 00 46 61 69 6c 65 64 20 74     fer: %s.Failed t
    9150:	6f 20 63 6f 6e 6e 65 63 74 20 74 6f 20 64 65 76     o connect to dev
    9160:	69 63 65 20 22 25 73 22 00 00 00 00 49 6e 69 74     ice "%s"....Init
    9170:	69 61 6c 69 7a 65 64 20 64 65 76 69 63 65 20 28     ialized device (
    9180:	25 70 29 20 27 25 73 27 20 77 69 74 68 20 69 64     %p) '%s' with id
    9190:	20 25 75 2e 00 66 90 66 90 66 90 66 90 66 90 90      %u..f.f.f.f.f..

000091a0 <CSWTCH.3>:
    91a0:	01 00 00 00 01 00 00 00 02 00 00 00 02 00 00 00     ................
    91b0:	02 00 00 00 02 00 00 00 03 00 00 00 03 00 00 00     ................
    91c0:	03 00 00 00 03 00 00 00 04 00 00 00 04 00 00 00     ................
    91d0:	04 00 00 00 04 00 00 00 04 00 00 00 04 00 00 00     ................
    91e0:	04 00 00 00 04 00 00 00 04 00 00 00 61 75 64 69     ............audi
    91f0:	6f 5f 73 69 6e 6b 2e 63 00 49 6e 69 74 69 61 6c     o_sink.c.Initial
    9200:	69 7a 65 64 20 73 69 6e 6b 20 28 25 70 29 20 27     ized sink (%p) '
    9210:	25 73 27 00 21 73 69 6e 6b 2d 3e 70 72 69 76 61     %s'.!sink->priva
    9220:	74 65 5f 64 61 74 61 00 55 6e 6b 6e 6f 77 6e 20     te_data.Unknown 
    9230:	73 61 6d 70 6c 65 20 66 6f 72 6d 61 74 00 53 69     sample format.Si
    9240:	6e 6b 20 25 73 20 61 6c 72 65 61 64 79 20 68 61     nk %s already ha
    9250:	73 20 61 20 66 6f 72 6d 61 74 00 75 6e 6e 61 6d     s a format.unnam
    9260:	65 64 20 73 6f 75 72 63 65 00 6e 6f 20 73 6f 75     ed source.no sou
    9270:	72 63 65 00 64 65 73 74 00 63 6f 6e 6e 65 63 74     rce.dest.connect
    9280:	69 6f 6e 2e 68 00 46 61 69 6c 65 64 20 74 6f 20     ion.h.Failed to 
    9290:	6d 69 78 20 73 6f 75 72 63 65 20 25 73 3a 20 25     mix source %s: %
    92a0:	73 00 38 20 62 69 74 20 75 6e 73 69 6e 67 65 64     s.8 bit unsinged
    92b0:	00 38 20 62 69 74 20 73 69 6e 67 65 64 00 31 36     .8 bit singed.16
    92c0:	20 62 69 74 20 75 6e 73 69 67 6e 65 64 28 4c 45      bit unsigned(LE
    92d0:	29 00 31 36 20 62 69 74 20 75 6e 73 69 67 6e 65     ).16 bit unsigne
    92e0:	64 28 42 45 29 00 31 36 20 62 69 74 20 73 69 6e     d(BE).16 bit sin
    92f0:	67 65 64 28 4c 45 29 00 31 36 20 62 69 74 20 73     ged(LE).16 bit s
    9300:	69 67 6e 65 64 28 42 45 29 00 32 34 20 62 69 74     igned(BE).24 bit
    9310:	20 75 6e 73 69 67 6e 65 64 28 4c 45 29 00 32 34      unsigned(LE).24
    9320:	20 62 69 74 20 75 6e 73 69 67 6e 65 64 28 42 45      bit unsigned(BE
    9330:	29 00 32 34 20 62 69 74 20 73 69 67 6e 65 64 28     ).24 bit signed(
    9340:	4c 45 29 00 32 34 20 62 69 74 20 73 69 67 6e 65     LE).24 bit signe
    9350:	64 28 42 45 29 00 33 32 20 62 69 74 20 75 6e 73     d(BE).32 bit uns
    9360:	69 67 6e 65 64 28 4c 45 29 00 33 32 20 62 69 74     igned(LE).32 bit
    9370:	20 75 6e 73 69 67 6e 65 64 28 42 45 29 00 33 32      unsigned(BE).32
    9380:	20 62 69 74 20 73 69 67 6e 65 64 28 4c 45 29 00      bit signed(LE).
    9390:	33 32 20 62 69 74 20 73 69 67 6e 65 64 28 42 45     32 bit signed(BE
    93a0:	29 00 33 32 20 62 69 74 20 66 6c 6f 61 74 00 90     ).32 bit float..
    93b0:	6c 69 73 74 5f 65 6d 70 74 79 28 26 73 69 6e 6b     list_empty(&sink
    93c0:	2d 3e 63 6f 6e 6e 65 63 74 69 6f 6e 73 29 00 00     ->connections)..
    93d0:	53 65 74 74 69 6e 67 20 44 45 46 41 55 4c 54 20     Setting DEFAULT 
    93e0:	66 6f 72 6d 61 74 20 66 6f 72 20 73 69 6e 6b 20     format for sink 
    93f0:	25 73 00 00 46 6f 72 6d 61 74 20 63 68 65 63 6b     %s..Format check
    9400:	20 66 61 69 6c 65 64 20 6f 6e 20 73 69 6e 6b 20      failed on sink 
    9410:	25 73 00 00 53 65 74 20 66 6f 72 6d 61 74 20 66     %s..Set format f
    9420:	6f 72 20 73 69 6e 6b 20 25 73 3a 20 25 75 20 63     or sink %s: %u c
    9430:	68 61 6e 6e 65 6c 28 73 29 2c 20 25 75 48 7a 2c     hannel(s), %uHz,
    9440:	20 25 73 00 32 34 20 62 69 74 28 34 62 79 74 65      %s.24 bit(4byte
    9450:	20 61 6c 69 67 6e 65 64 29 20 75 6e 73 69 67 6e      aligned) unsign
    9460:	65 64 28 4c 45 29 00 00 32 34 20 62 69 74 28 34     ed(LE)..24 bit(4
    9470:	62 79 74 65 20 61 6c 69 67 6e 65 64 29 20 75 6e     byte aligned) un
    9480:	73 69 67 6e 65 64 28 42 45 29 00 00 32 34 20 62     signed(BE)..24 b
    9490:	69 74 28 34 62 79 74 65 20 61 6c 69 67 6e 65 64     it(4byte aligned
    94a0:	29 20 73 69 67 6e 65 64 28 4c 45 29 00 00 00 00     ) signed(LE)....
    94b0:	32 34 20 62 69 74 28 34 62 79 74 65 20 61 6c 69     24 bit(4byte ali
    94c0:	67 6e 65 64 29 20 73 69 67 6e 65 64 28 42 45 29     gned) signed(BE)
    94d0:	00 66 90 66 90 66 90 66 90 66 90 66 90 66 90 90     .f.f.f.f.f.f.f..

000094e0 <CSWTCH.7>:
    94e0:	a2 92 00 00 b1 92 00 00 be 92 00 00 d2 92 00 00     ................
    94f0:	e6 92 00 00 f8 92 00 00 0a 93 00 00 1e 93 00 00     ................
    9500:	32 93 00 00 44 93 00 00 44 94 00 00 68 94 00 00     2...D...D...h...
    9510:	8c 94 00 00 b0 94 00 00 56 93 00 00 6a 93 00 00     ........V...j...
    9520:	7e 93 00 00 90 93 00 00 a2 93 00 00 61 75 64 69     ~...........audi
    9530:	6f 5f 73 6f 75 72 63 65 2e 63 00 49 6e 63 6f 72     o_source.c.Incor
    9540:	72 65 63 74 20 70 61 72 61 6d 65 74 65 72 73 2e     rect parameters.
    9550:	00 49 6e 69 74 69 61 6c 69 7a 65 64 20 73 6f 75     .Initialized sou
    9560:	72 63 65 20 28 25 70 29 20 27 25 73 27 00 75 6e     rce (%p) '%s'.un
    9570:	6e 61 6d 65 64 20 73 69 6e 6b 00 6e 6f 20 73 69     named sink.no si
    9580:	6e 6b 00 46 61 69 6c 65 64 20 70 75 73 68 20 64     nk.Failed push d
    9590:	61 74 61 20 74 6f 20 25 73 3a 20 25 73 00 63 6f     ata to %s: %s.co
    95a0:	6e 6e 65 63 74 69 6f 6e 2e 63 00 44 49 53 43 4f     nnection.c.DISCO
    95b0:	4e 4e 45 43 54 45 44 3a 20 25 73 20 2d 3e 20 25     NNECTED: %s -> %
    95c0:	73 00 66 90 21 6c 69 6e 6b 5f 69 6e 5f 75 73 65     s.f.!link_in_use
    95d0:	28 26 63 6f 6e 6e 65 63 74 69 6f 6e 2d 3e 68 6f     (&connection->ho
    95e0:	75 6e 64 5f 6c 69 6e 6b 29 00 00 00 41 73 6b 69     und_link)...Aski
    95f0:	6e 67 20 73 6f 75 72 63 65 20 74 6f 20 70 72 6f     ng source to pro
    9600:	76 69 64 65 20 6d 6f 72 65 20 64 61 74 61 00 00     vide more data..
    9610:	44 61 74 61 20 61 76 61 69 6c 61 62 6c 65 20 61     Data available a
    9620:	66 74 65 72 20 75 70 64 61 74 65 3a 20 25 7a 75     fter update: %zu
    9630:	00 00 00 00 43 6f 6e 6e 65 63 74 69 6f 6e 20 66     ....Connection f
    9640:	61 69 6c 65 64 20 74 6f 20 70 72 6f 76 69 64 65     ailed to provide
    9650:	20 65 6e 6f 75 67 68 20 64 61 74 61 20 25 7a 64      enough data %zd
    9660:	2f 25 7a 75 00 66 90 66 90 66 90 66 90 66 90 66     /%zu.f.f.f.f.f.f
    9670:	90 66 90 66 90 66 90 66 90 66 90 66 90 66 90 90     .f.f.f.f.f.f.f..

00009680 <CSWTCH.8>:
    9680:	01 00 00 00 01 00 00 00 02 00 00 00 02 00 00 00     ................
    9690:	02 00 00 00 02 00 00 00 03 00 00 00 03 00 00 00     ................
    96a0:	03 00 00 00 03 00 00 00 04 00 00 00 04 00 00 00     ................
    96b0:	04 00 00 00 04 00 00 00 04 00 00 00 04 00 00 00     ................
    96c0:	04 00 00 00 04 00 00 00 04 00 00 00 68 6f 75 6e     ............houn
    96d0:	64 2e 63 00 52 65 6d 6f 76 69 6e 67 20 73 69 6e     d.c.Removing sin
    96e0:	6b 20 27 25 73 27 2e 00 52 65 6d 6f 76 69 6e 67     k '%s'..Removing
    96f0:	20 73 6f 75 72 63 65 20 27 25 73 27 2e 00 49 6e      source '%s'..In
    9700:	76 61 6c 69 64 20 73 6f 75 72 63 65 20 73 70 65     valid source spe
    9710:	63 69 66 69 65 64 2e 00 64 65 66 61 75 6c 74 00     cified..default.
    9720:	6e 61 6d 65 00 54 72 79 69 6e 67 20 74 6f 20 61     name.Trying to a
    9730:	64 64 20 63 6f 6e 74 65 78 74 20 25 70 00 41 64     dd context %p.Ad
    9740:	64 65 64 20 6e 65 77 20 64 65 76 69 63 65 3a 20     ded new device: 
    9750:	27 25 73 27 00 41 64 64 65 64 20 73 6f 75 72 63     '%s'.Added sourc
    9760:	65 3a 20 27 25 73 27 2e 00 46 61 69 6c 65 64 20     e: '%s'..Failed 
    9770:	74 6f 20 61 64 64 20 64 65 76 69 63 65 20 73 69     to add device si
    9780:	6e 6b 3a 20 25 73 00 41 64 64 65 64 20 73 69 6e     nk: %s.Added sin
    9790:	6b 3a 20 27 25 73 27 2e 00 43 6f 6e 6e 65 63 74     k: '%s'..Connect
    97a0:	69 6e 67 20 27 25 73 27 20 74 6f 20 27 25 73 27     ing '%s' to '%s'
    97b0:	2e 00 46 61 69 6c 65 64 20 74 6f 20 63 72 65 61     ..Failed to crea
    97c0:	74 65 20 63 6f 6e 6e 65 63 74 69 6f 6e 00 44 69     te connection.Di
    97d0:	73 63 6f 6e 6e 65 63 74 69 6e 67 20 27 25 73 27     sconnecting '%s'
    97e0:	20 74 6f 20 27 25 73 27 2e 00 52 65 6d 6f 76 69      to '%s'..Removi
    97f0:	6e 67 20 25 73 20 2d 3e 20 25 73 00 66 69 62 72     ng %s -> %s.fibr
    9800:	69 6c 5f 6d 75 74 65 78 5f 69 73 5f 6c 6f 63 6b     il_mutex_is_lock
    9810:	65 64 28 26 68 6f 75 6e 64 2d 3e 6c 69 73 74 5f     ed(&hound->list_
    9820:	67 75 61 72 64 29 00 00 52 65 6d 6f 76 69 6e 67     guard)..Removing
    9830:	20 73 69 6e 6b 20 27 25 73 27 20 77 68 69 6c 65      sink '%s' while
    9840:	20 73 74 69 6c 6c 20 63 6f 6e 6e 65 63 74 65 64      still connected
    9850:	2e 00 00 00 52 65 6d 6f 76 69 6e 67 20 73 6f 75     ....Removing sou
    9860:	72 63 65 20 27 25 73 27 20 77 68 69 6c 65 20 73     rce '%s' while s
    9870:	74 69 6c 6c 20 63 6f 6e 6e 65 63 74 65 64 2e 00     till connected..
    9880:	73 6f 75 72 63 65 20 77 69 74 68 20 6e 61 6d 65     source with name
    9890:	20 27 25 73 27 20 69 73 20 69 6e 20 74 68 65 20      '%s' is in the 
    98a0:	6c 69 73 74 00 00 00 00 53 6f 75 72 63 65 20 62     list....Source b
    98b0:	79 20 74 68 61 74 20 6e 61 6d 65 20 61 6c 72 65     y that name alre
    98c0:	61 64 79 20 65 78 69 73 74 73 00 00 73 69 6e 6b     ady exists..sink
    98d0:	20 77 69 74 68 20 6e 61 6d 65 20 27 25 73 27 20      with name '%s' 
    98e0:	69 73 20 69 6e 20 74 68 65 20 6c 69 73 74 00 00     is in the list..
    98f0:	53 69 6e 6b 20 62 79 20 74 68 61 74 20 6e 61 6d     Sink by that nam
    9900:	65 20 61 6c 72 65 61 64 79 20 65 78 69 73 74 73     e already exists
    9910:	00 00 00 00 41 64 64 69 6e 67 20 64 65 76 69 63     ....Adding devic
    9920:	65 20 22 25 73 22 2c 20 73 65 72 76 69 63 65 3a     e "%s", service:
    9930:	20 25 7a 75 00 00 00 00 44 65 76 69 63 65 20 77      %zu....Device w
    9940:	69 74 68 20 69 64 20 25 7a 75 20 69 73 20 61 6c     ith id %zu is al
    9950:	72 65 61 64 79 20 70 72 65 73 65 6e 74 00 00 00     ready present...
    9960:	64 65 76 69 63 65 20 77 69 74 68 20 6e 61 6d 65     device with name
    9970:	20 27 25 73 27 20 69 73 20 69 6e 20 74 68 65 20      '%s' is in the 
    9980:	6c 69 73 74 00 00 00 00 44 65 76 69 63 65 20 77     list....Device w
    9990:	69 74 68 20 6e 61 6d 65 20 25 73 20 69 73 20 61     ith name %s is a
    99a0:	6c 72 65 61 64 79 20 70 72 65 73 65 6e 74 00 00     lready present..
    99b0:	46 61 69 6c 65 64 20 74 6f 20 6d 61 6c 6c 6f 63     Failed to malloc
    99c0:	20 64 65 76 69 63 65 20 73 74 72 75 63 74 75 72      device structur
    99d0:	65 2e 00 00 46 61 69 6c 65 64 20 74 6f 20 69 6e     e...Failed to in
    99e0:	69 74 69 61 6c 69 7a 65 20 6e 65 77 20 61 75 64     itialize new aud
    99f0:	69 6f 20 64 65 76 69 63 65 3a 20 25 73 00 00 00     io device: %s...
    9a00:	46 61 69 6c 65 64 20 74 6f 20 61 64 64 20 64 65     Failed to add de
    9a10:	76 69 63 65 20 73 6f 75 72 63 65 3a 20 25 73 00     vice source: %s.
    9a20:	4e 65 69 74 68 65 72 20 73 69 6e 6b 20 6e 6f 72     Neither sink nor
    9a30:	20 73 6f 75 72 63 65 20 6f 6e 20 64 65 76 69 63      source on devic
    9a40:	65 20 27 25 73 27 2e 00 53 6f 75 72 63 65 20 28     e '%s'..Source (
    9a50:	25 70 29 2c 20 6f 72 20 73 69 6e 6b 20 28 25 70     %p), or sink (%p
    9a60:	29 20 6e 6f 74 20 66 6f 75 6e 64 00 68 6f 75 6e     ) not found.houn
    9a70:	64 5f 63 74 78 2e 63 00 61 75 64 69 6f 5f 64 61     d_ctx.c.audio_da
    9a80:	74 61 2e 68 00 73 6f 75 72 63 65 2d 3e 70 72 69     ta.h.source->pri
    9a90:	76 61 74 65 5f 64 61 74 61 00 43 54 58 3a 20 25     vate_data.CTX: %
    9aa0:	70 3a 20 4d 69 78 69 6e 67 20 25 6c 75 20 73 74     p: Mixing %lu st
    9ab0:	72 65 61 6d 73 00 63 74 78 00 6c 69 73 74 5f 65     reams.ctx.list_e
    9ac0:	6d 70 74 79 28 26 63 74 78 2d 3e 73 74 72 65 61     mpty(&ctx->strea
    9ad0:	6d 73 29 00 21 6c 69 6e 6b 5f 69 6e 5f 75 73 65     ms).!link_in_use
    9ae0:	28 26 63 74 78 2d 3e 6c 69 6e 6b 29 00 44 72 61     (&ctx->link).Dra
    9af0:	69 6e 69 6e 67 20 73 74 72 65 61 6d 00 66 90 90     ining stream.f..
    9b00:	43 6f 70 69 65 64 20 6c 65 73 73 20 74 68 61 6e     Copied less than
    9b10:	20 61 64 76 65 72 74 69 73 65 64 20 64 61 74 61      advertised data
    9b20:	2c 20 73 6f 6d 65 74 68 69 6e 67 20 69 73 20 77     , something is w
    9b30:	72 6f 6e 67 00 00 00 00 46 61 69 6c 65 64 20 74     rong....Failed t
    9b40:	6f 20 70 75 73 68 20 64 61 74 61 20 74 6f 20 73     o push data to s
    9b50:	74 72 65 61 6d 3a 20 25 73 00 00 00 43 54 58 3a     tream: %s...CTX:
    9b60:	20 25 70 2e 20 50 75 73 68 69 6e 67 20 61 75 64      %p. Pushing aud
    9b70:	69 6f 20 74 6f 20 25 6c 75 20 63 6f 6e 6e 65 63     io to %lu connec
    9b80:	74 69 6f 6e 73 00 00 00 4e 6f 74 20 65 6e 6f 75     tions...Not enou
    9b90:	67 68 20 64 61 74 61 20 69 6e 20 73 74 72 65 61     gh data in strea
    9ba0:	6d 20 62 75 66 66 65 72 00 00 00 00 43 54 58 3a     m buffer....CTX:
    9bb0:	20 25 70 20 61 64 64 65 64 20 73 74 72 65 61 6d      %p added stream
    9bc0:	3b 20 66 6c 61 67 73 3a 25 23 78 20 63 68 3a 20     ; flags:%#x ch: 
    9bd0:	25 75 20 72 3a 25 75 20 66 3a 25 73 00 00 00 00     %u r:%u f:%s....
    9be0:	44 65 73 74 72 6f 79 69 6e 67 20 73 74 72 65 61     Destroying strea
    9bf0:	6d 20 77 69 74 68 20 6e 6f 6e 20 65 6d 70 74 79     m with non empty
    9c00:	20 62 75 66 66 65 72 00 43 54 58 3a 20 25 70 20      buffer.CTX: %p 
    9c10:	72 65 6d 6f 76 65 20 73 74 72 65 61 6d 20 28 25     remove stream (%
    9c20:	7a 75 2f 25 7a 75 29 3b 20 66 6c 61 67 73 3a 25     zu/%zu); flags:%
    9c30:	23 78 20 63 68 3a 20 25 75 20 72 3a 25 75 20 66     #x ch: %u r:%u f
    9c40:	3a 25 73 00 66 90 66 90 66 90 66 90 66 90 66 90     :%s.f.f.f.f.f.f.
    9c50:	66 90 66 90 66 90 66 90 66 90 66 90 66 90 66 90     f.f.f.f.f.f.f.f.

00009c60 <CSWTCH.20>:
    9c60:	a2 92 00 00 b1 92 00 00 be 92 00 00 d2 92 00 00     ................
    9c70:	e6 92 00 00 f8 92 00 00 0a 93 00 00 1e 93 00 00     ................
    9c80:	32 93 00 00 44 93 00 00 44 94 00 00 68 94 00 00     2...D...D...h...
    9c90:	8c 94 00 00 b0 94 00 00 56 93 00 00 6a 93 00 00     ........V...j...
    9ca0:	7e 93 00 00 90 93 00 00 a2 93 00 00 00 00 00 00     ~...............
	...

00009cc0 <CSWTCH.17>:
    9cc0:	01 00 00 00 01 00 00 00 02 00 00 00 02 00 00 00     ................
    9cd0:	02 00 00 00 02 00 00 00 03 00 00 00 03 00 00 00     ................
    9ce0:	03 00 00 00 03 00 00 00 04 00 00 00 04 00 00 00     ................
    9cf0:	04 00 00 00 04 00 00 00 04 00 00 00 04 00 00 00     ................
    9d00:	04 00 00 00 04 00 00 00 04 00 00 00 69 66 61 63     ............ifac
    9d10:	65 2e 63 00 73 65 72 76 65 72 00 25 73 3a 20 25     e.c.server.%s: %
    9d20:	70 2c 20 25 78 20 25 78 20 63 68 3a 25 75 20 72     p, %x %x ch:%u r
    9d30:	3a 25 75 20 66 3a 25 73 00 25 73 3a 20 25 70 2c     :%u f:%s.%s: %p,
    9d40:	20 25 73 20 2d 3e 20 25 73 00 25 73 3a 20 25 70      %s -> %s.%s: %p
    9d50:	2c 20 25 7a 75 2c 20 25 73 2c 20 25 23 78 0a 00     , %zu, %s, %#x..
    9d60:	25 73 3a 20 25 70 2c 20 25 23 78 00 69 64 00 66     %s: %p, %#x.id.f
    9d70:	90 66 90 66 90 66 90 66 90 66 90 66 90 66 90 90     .f.f.f.f.f.f.f..

00009d80 <CSWTCH.2>:
    9d80:	a2 92 00 00 b1 92 00 00 be 92 00 00 d2 92 00 00     ................
    9d90:	e6 92 00 00 f8 92 00 00 0a 93 00 00 1e 93 00 00     ................
    9da0:	32 93 00 00 44 93 00 00 44 94 00 00 68 94 00 00     2...D...D...h...
    9db0:	8c 94 00 00 b0 94 00 00 56 93 00 00 6a 93 00 00     ........V...j...
    9dc0:	7e 93 00 00 90 93 00 00 a2 93 00 00                 ~...........

00009dcc <__FUNCTION__.2780>:
    9dcc:	69 66 61 63 65 5f 72 65 6d 5f 63 6f 6e 74 65 78     iface_rem_contex
    9ddc:	74 00 00 00                                         t...

00009de0 <__FUNCTION__.2793>:
    9de0:	69 66 61 63 65 5f 67 65 74 5f 6c 69 73 74 00 00     iface_get_list..

00009df0 <__FUNCTION__.2799>:
    9df0:	69 66 61 63 65 5f 63 6f 6e 6e 65 63 74 00 00 00     iface_connect...

00009e00 <__FUNCTION__.2805>:
    9e00:	69 66 61 63 65 5f 64 69 73 63 6f 6e 6e 65 63 74     iface_disconnect
    9e10:	00 00 00 00                                         ....

00009e14 <__FUNCTION__.2814>:
    9e14:	69 66 61 63 65 5f 61 64 64 5f 73 74 72 65 61 6d     iface_add_stream
    9e24:	00 25 73 3a 20 48 65 6c 65 6e 4f 53 20 73 6f 75     .%s: HelenOS sou
    9e34:	6e 64 20 73 65 72 76 69 63 65 0a 00 46 61 69 6c     nd service..Fail
    9e44:	65 64 20 74 6f 20 72 65 67 69 73 74 65 72 20 73     ed to register s
    9e54:	65 72 76 65 72 3a 20 25 73 00 52 75 6e 6e 69 6e     erver: %s.Runnin
    9e64:	67 20 77 69 74 68 20 73 65 72 76 69 63 65 20 69     g with service i
    9e74:	64 20 25 75 00 66 90 90 68 6f 75 6e 64 3a 20 46     d %u.f..hound: F
    9e84:	61 69 6c 65 64 20 74 6f 20 69 6e 69 74 69 61 6c     ailed to initial
    9e94:	69 7a 65 20 6c 6f 67 67 69 6e 67 2e 0a 00 00 00     ize logging.....
    9ea4:	46 61 69 6c 65 64 20 74 6f 20 69 6e 69 74 69 61     Failed to initia
    9eb4:	6c 69 7a 65 20 68 6f 75 6e 64 20 73 74 72 75 63     lize hound struc
    9ec4:	74 75 72 65 3a 20 25 73 00 00 00 00 46 61 69 6c     ture: %s....Fail
    9ed4:	65 64 20 74 6f 20 72 65 67 69 73 74 65 72 20 66     ed to register f
    9ee4:	6f 72 20 64 65 76 69 63 65 20 63 68 61 6e 67 65     or device change
    9ef4:	73 3a 20 25 73 00 52 65 63 65 69 76 69 6e 67 20     s: %s.Receiving 
    9f04:	73 68 61 72 65 20 72 65 71 75 65 73 74 2e 00 46     share request..F
    9f14:	61 69 6c 65 64 20 74 6f 20 73 68 61 72 65 20 70     ailed to share p
    9f24:	63 6d 20 62 75 66 66 65 72 2e 00 43 61 6c 6c 69     cm buffer..Calli
    9f34:	6e 67 20 73 68 61 72 65 20 66 69 6e 61 6c 69 7a     ng share finaliz
    9f44:	65 2e 00 46 61 69 6c 65 64 20 74 6f 20 73 68 61     e..Failed to sha
    9f54:	72 65 20 62 75 66 66 65 72 2e 00 42 75 66 66 65     re buffer..Buffe
    9f64:	72 20 73 68 61 72 65 64 20 77 69 74 68 20 73 69     r shared with si
    9f74:	7a 65 20 25 7a 75 2e 00 46 61 69 6c 65 64 20 74     ze %zu..Failed t
    9f84:	6f 20 73 65 74 20 65 76 65 6e 74 20 63 61 6c 6c     o set event call
    9f94:	62 61 63 6b 2e 00 55 4e 4b 4e 4f 57 4e 20 43 41     back..UNKNOWN CA
    9fa4:	50 00 55 4e 4b 4e 4f 57 4e 20 45 56 45 4e 54 00     P.UNKNOWN EVENT.
    9fb4:	61 75 64 69 6f 2d 70 63 6d 00 67 65 6e 65 72 69     audio-pcm.generi
    9fc4:	63 2f 72 65 6d 6f 74 65 5f 61 75 64 69 6f 5f 70     c/remote_audio_p
    9fd4:	63 6d 2e 63 00 50 4c 41 59 42 41 43 4b 20 53 54     cm.c.PLAYBACK ST
    9fe4:	41 52 54 45 44 00 43 41 50 54 55 52 45 20 53 54     ARTED.CAPTURE ST
    9ff4:	41 52 54 45 44 00 46 52 41 47 4d 45 4e 54 20 50     ARTED.FRAGMENT P
    a004:	4c 41 59 45 44 00 46 52 41 47 4d 45 4e 54 20 43     LAYED.FRAGMENT C
    a014:	41 50 54 55 52 45 44 00 50 4c 41 59 42 41 43 4b     APTURED.PLAYBACK
    a024:	20 54 45 52 4d 49 4e 41 54 45 44 00 43 41 50 54      TERMINATED.CAPT
    a034:	55 52 45 20 54 45 52 4d 49 4e 41 54 45 44 00 43     URE TERMINATED.C
    a044:	41 50 54 55 52 45 00 50 4c 41 59 42 41 43 4b 00     APTURE.PLAYBACK.
    a054:	4d 41 58 49 4d 55 4d 20 42 55 46 46 45 52 20 53     MAXIMUM BUFFER S
    a064:	49 5a 45 00 4b 4e 4f 57 53 20 42 55 46 46 45 52     IZE.KNOWS BUFFER
    a074:	20 50 4f 53 49 54 49 4f 4e 00 46 52 41 47 4d 45      POSITION.FRAGME
    a084:	4e 54 20 49 4e 54 45 52 52 55 50 54 53 00 4d 49     NT INTERRUPTS.MI
    a094:	4e 49 4d 55 4d 20 46 52 41 47 4d 45 4e 54 20 53     NIMUM FRAGMENT S
    a0a4:	49 5a 45 00 4d 41 58 49 4d 55 4d 20 46 52 41 47     IZE.MAXIMUM FRAG
    a0b4:	4d 45 4e 54 20 53 49 5a 45 00 66 90 43 68 65 63     MENT SIZE.f.Chec
    a0c4:	6b 69 6e 67 20 72 65 71 75 65 73 74 65 64 20 73     king requested s
    a0d4:	68 61 72 65 20 73 69 7a 65 2e 00 00 49 6e 63 6f     hare size...Inco
    a0e4:	72 72 65 63 74 20 70 63 6d 20 62 75 66 66 65 72     rrect pcm buffer
    a0f4:	20 73 69 7a 65 20 72 65 71 75 65 73 74 65 64 2e      size requested.
    a104:	00 00 00 00 46 61 69 6c 65 64 20 74 6f 20 63 72     ....Failed to cr
    a114:	65 61 74 65 20 65 76 65 6e 74 20 63 61 6c 6c 62     eate event callb
    a124:	61 63 6b 00 28 66 6f 72 6d 61 74 20 26 20 55 49     ack.(format & UI
    a134:	4e 54 31 36 5f 4d 41 58 29 20 3d 3d 20 66 6f 72     NT16_MAX) == for
    a144:	6d 61 74 00 66 90 66 90 66 90 66 90 66 90 66 90     mat.f.f.f.f.f.f.
    a154:	66 90 66 90 66 90 66 90 66 90 66 90                 f.f.f.f.f.f.

0000a160 <events.2836>:
	...
    b160:	d9 9f 00 00 ea 9f 00 00 fa 9f 00 00 0a a0 00 00     ................
    b170:	1c a0 00 00 30 a0 00 00                             ....0...

0000b178 <caps.2832>:
    b178:	43 a0 00 00 4b a0 00 00 54 a0 00 00 68 a0 00 00     C...K...T...h...
    b188:	7e a0 00 00 92 a0 00 00 a8 a0 00 00                 ~...........

0000b194 <remote_audio_pcm_iface>:
    b194:	0c 00 00 00 a0 b1 00 00 00 00 00 00                 ............

0000b1a0 <remote_audio_pcm_iface_ops>:
    b1a0:	00 5a 00 00 c0 56 00 00 20 59 00 00 00 56 00 00     .Z...V.. Y...V..
    b1b0:	b0 58 00 00 20 57 00 00 b0 55 00 00 70 56 00 00     .X.. W...U..pV..
    b1c0:	50 55 00 00 f0 54 00 00 90 54 00 00 30 54 00 00     PU...T...T..0T..
    b1d0:	73 72 63 2f 70 72 6f 74 6f 63 6f 6c 2e 63 00 73     src/protocol.c.s
    b1e0:	65 73 73 00 69 64 73 00 63 6f 75 6e 74 00 61 75     ess.ids.count.au
    b1f0:	64 69 6f 2f 68 6f 75 6e 64 00 66 90 60 71 00 00     dio/hound.f.`q..
    b200:	10 71 00 00 c8 6f 00 00 a0 6f 00 00 30 6f 00 00     .q...o...o..0o..
    b210:	a8 6d 00 00 48 71 00 00 48 71 00 00 73 72 63 2f     .m..Hq..Hq..src/
    b220:	66 6f 72 6d 61 74 2e 63 00 66 00 62 00 66 90 66     format.c.f.b.f.f
    b230:	90 66 90 66 90 66 90 66 90 66 90 66 90 66 90 90     .f.f.f.f.f.f.f..
    b240:	b0 76 00 00 e0 76 00 00 10 77 00 00 48 77 00 00     .v...v...w..Hw..
    b250:	88 77 00 00 b8 77 00 00 70 78 00 00 70 78 00 00     .w...w..px..px..
    b260:	70 78 00 00 70 78 00 00 f8 77 00 00 30 78 00 00     px..px...w..0x..
    b270:	80 76 00 00 80 76 00 00 f8 77 00 00 30 78 00 00     .v...v...w..0x..
    b280:	80 76 00 00 80 76 00 00 f8 79 00 00 d8 7a 00 00     .v...v...y...z..
    b290:	38 79 00 00 60 7c 00 00 28 7d 00 00 c0 7b 00 00     8y..`|..(}...{..
    b2a0:	ce 79 00 00 ce 79 00 00 ce 79 00 00 ce 79 00 00     .y...y...y...y..
    b2b0:	ce 79 00 00 ce 79 00 00 ce 79 00 00 ce 79 00 00     .y...y...y...y..
    b2c0:	e0 7d 00 00 00 7d 00 00 08 7e 00 00 d8 79 00 00     .}...}...~...y..
    b2d0:	2b 86 00 00 ff 86 00 00 83 82 00 00 67 83 00 00     +...........g...
    b2e0:	57 84 00 00 38 85 00 00 98 8c 00 00 98 8c 00 00     W...8...........
    b2f0:	98 8c 00 00 98 8c 00 00 d3 87 00 00 c7 88 00 00     ................
    b300:	bf 89 00 00 94 81 00 00 d3 87 00 00 c7 88 00 00     ................
    b310:	bf 89 00 00 94 81 00 00 00 00 00 00 00 00 00 00     ................

0000b320 <CSWTCH.4>:
    b320:	01 00 00 00 01 00 00 00 02 00 00 00 02 00 00 00     ................
    b330:	02 00 00 00 02 00 00 00 03 00 00 00 03 00 00 00     ................
    b340:	03 00 00 00 03 00 00 00 04 00 00 00 04 00 00 00     ................
    b350:	04 00 00 00 04 00 00 00 04 00 00 00 04 00 00 00     ................
    b360:	04 00 00 00 04 00 00 00 04 00 00 00                 ............

0000b36c <AUDIO_FORMAT_ANY>:
	...

0000b378 <AUDIO_FORMAT_DEFAULT>:
    b378:	02 00 00 00 44 ac 00 00 04 00 00 00 00 00 00 00     ....D...........
    b388:	00 00 ff 42 00 00 80 3f 00 00 00 43 00 ff ff 46     ...B...?...C...F
    b398:	00 00 00 47 00 00 00 30 00 00 00 4f 00 00 7f 43     ...G...0...O...C
    b3a8:	00 00 fe 42 00 ff 7f 47 00 fe ff 46 00 00 00 c7     ...B...G...F....
    b3b8:	00 00 80 4f 00 00 00 cf 00 00 00 bf                 ...O........

Disassembly of section .plt:

0000b5e0 <__main@plt-0x10>:
    b5e0:	ff 35 18 d6 00 00    	pushl  0xd618
    b5e6:	ff 25 1c d6 00 00    	jmp    *0xd61c
    b5ec:	00 00                	add    %al,(%eax)
	...

0000b5f0 <__main@plt>:
    b5f0:	ff 25 20 d6 00 00    	jmp    *0xd620
    b5f6:	68 00 00 00 00       	push   $0x0
    b5fb:	e9 e0 ff ff ff       	jmp    b5e0 <AUDIO_FORMAT_DEFAULT+0x268>

0000b600 <loc_category_get_id@plt>:
    b600:	ff 25 24 d6 00 00    	jmp    *0xd624
    b606:	68 08 00 00 00       	push   $0x8
    b60b:	e9 d0 ff ff ff       	jmp    b5e0 <AUDIO_FORMAT_DEFAULT+0x268>

0000b610 <devman_device_connect@plt>:
    b610:	ff 25 28 d6 00 00    	jmp    *0xd628
    b616:	68 10 00 00 00       	push   $0x10
    b61b:	e9 c0 ff ff ff       	jmp    b5e0 <AUDIO_FORMAT_DEFAULT+0x268>

0000b620 <task_retval@plt>:
    b620:	ff 25 2c d6 00 00    	jmp    *0xd62c
    b626:	68 18 00 00 00       	push   $0x18
    b62b:	e9 b0 ff ff ff       	jmp    b5e0 <AUDIO_FORMAT_DEFAULT+0x268>

0000b630 <loc_service_connect@plt>:
    b630:	ff 25 30 d6 00 00    	jmp    *0xd630
    b636:	68 20 00 00 00       	push   $0x20
    b63b:	e9 a0 ff ff ff       	jmp    b5e0 <AUDIO_FORMAT_DEFAULT+0x268>

0000b640 <printf@plt>:
    b640:	ff 25 34 d6 00 00    	jmp    *0xd634
    b646:	68 28 00 00 00       	push   $0x28
    b64b:	e9 90 ff ff ff       	jmp    b5e0 <AUDIO_FORMAT_DEFAULT+0x268>

0000b650 <async_hangup@plt>:
    b650:	ff 25 38 d6 00 00    	jmp    *0xd638
    b656:	68 30 00 00 00       	push   $0x30
    b65b:	e9 80 ff ff ff       	jmp    b5e0 <AUDIO_FORMAT_DEFAULT+0x268>

0000b660 <async_wait_for@plt>:
    b660:	ff 25 3c d6 00 00    	jmp    *0xd63c
    b666:	68 38 00 00 00       	push   $0x38
    b66b:	e9 70 ff ff ff       	jmp    b5e0 <AUDIO_FORMAT_DEFAULT+0x268>

0000b670 <log_init@plt>:
    b670:	ff 25 40 d6 00 00    	jmp    *0xd640
    b676:	68 40 00 00 00       	push   $0x40
    b67b:	e9 60 ff ff ff       	jmp    b5e0 <AUDIO_FORMAT_DEFAULT+0x268>

0000b680 <async_data_write_start@plt>:
    b680:	ff 25 44 d6 00 00    	jmp    *0xd644
    b686:	68 48 00 00 00       	push   $0x48
    b68b:	e9 50 ff ff ff       	jmp    b5e0 <AUDIO_FORMAT_DEFAULT+0x268>

0000b690 <loc_service_register@plt>:
    b690:	ff 25 48 d6 00 00    	jmp    *0xd648
    b696:	68 50 00 00 00       	push   $0x50
    b69b:	e9 40 ff ff ff       	jmp    b5e0 <AUDIO_FORMAT_DEFAULT+0x268>

0000b6a0 <fibril_mutex_is_locked@plt>:
    b6a0:	ff 25 4c d6 00 00    	jmp    *0xd64c
    b6a6:	68 58 00 00 00       	push   $0x58
    b6ab:	e9 30 ff ff ff       	jmp    b5e0 <AUDIO_FORMAT_DEFAULT+0x268>

0000b6b0 <async_data_read_finalize@plt>:
    b6b0:	ff 25 50 d6 00 00    	jmp    *0xd650
    b6b6:	68 60 00 00 00       	push   $0x60
    b6bb:	e9 20 ff ff ff       	jmp    b5e0 <AUDIO_FORMAT_DEFAULT+0x268>

0000b6c0 <tv_sub_diff@plt>:
    b6c0:	ff 25 54 d6 00 00    	jmp    *0xd654
    b6c6:	68 68 00 00 00       	push   $0x68
    b6cb:	e9 10 ff ff ff       	jmp    b5e0 <AUDIO_FORMAT_DEFAULT+0x268>

0000b6d0 <async_share_in_start@plt>:
    b6d0:	ff 25 58 d6 00 00    	jmp    *0xd658
    b6d6:	68 70 00 00 00       	push   $0x70
    b6db:	e9 00 ff ff ff       	jmp    b5e0 <AUDIO_FORMAT_DEFAULT+0x268>

0000b6e0 <malloc@plt>:
    b6e0:	ff 25 5c d6 00 00    	jmp    *0xd65c
    b6e6:	68 78 00 00 00       	push   $0x78
    b6eb:	e9 f0 fe ff ff       	jmp    b5e0 <AUDIO_FORMAT_DEFAULT+0x268>

0000b6f0 <fibril_condvar_signal@plt>:
    b6f0:	ff 25 60 d6 00 00    	jmp    *0xd660
    b6f6:	68 80 00 00 00       	push   $0x80
    b6fb:	e9 e0 fe ff ff       	jmp    b5e0 <AUDIO_FORMAT_DEFAULT+0x268>

0000b700 <async_req_fast@plt>:
    b700:	ff 25 64 d6 00 00    	jmp    *0xd664
    b706:	68 88 00 00 00       	push   $0x88
    b70b:	e9 d0 fe ff ff       	jmp    b5e0 <AUDIO_FORMAT_DEFAULT+0x268>

0000b710 <loc_service_get_id@plt>:
    b710:	ff 25 68 d6 00 00    	jmp    *0xd668
    b716:	68 90 00 00 00       	push   $0x90
    b71b:	e9 c0 fe ff ff       	jmp    b5e0 <AUDIO_FORMAT_DEFAULT+0x268>

0000b720 <async_data_read_receive_call@plt>:
    b720:	ff 25 6c d6 00 00    	jmp    *0xd66c
    b726:	68 98 00 00 00       	push   $0x98
    b72b:	e9 b0 fe ff ff       	jmp    b5e0 <AUDIO_FORMAT_DEFAULT+0x268>

0000b730 <as_area_destroy@plt>:
    b730:	ff 25 70 d6 00 00    	jmp    *0xd670
    b736:	68 a0 00 00 00       	push   $0xa0
    b73b:	e9 a0 fe ff ff       	jmp    b5e0 <AUDIO_FORMAT_DEFAULT+0x268>

0000b740 <async_answer_0@plt>:
    b740:	ff 25 74 d6 00 00    	jmp    *0xd674
    b746:	68 a8 00 00 00       	push   $0xa8
    b74b:	e9 90 fe ff ff       	jmp    b5e0 <AUDIO_FORMAT_DEFAULT+0x268>

0000b750 <fibril_condvar_wait@plt>:
    b750:	ff 25 78 d6 00 00    	jmp    *0xd678
    b756:	68 b0 00 00 00       	push   $0xb0
    b75b:	e9 80 fe ff ff       	jmp    b5e0 <AUDIO_FORMAT_DEFAULT+0x268>

0000b760 <async_send_fast@plt>:
    b760:	ff 25 7c d6 00 00    	jmp    *0xd67c
    b766:	68 b8 00 00 00       	push   $0xb8
    b76b:	e9 70 fe ff ff       	jmp    b5e0 <AUDIO_FORMAT_DEFAULT+0x268>

0000b770 <log_msg@plt>:
    b770:	ff 25 80 d6 00 00    	jmp    *0xd680
    b776:	68 c0 00 00 00       	push   $0xc0
    b77b:	e9 60 fe ff ff       	jmp    b5e0 <AUDIO_FORMAT_DEFAULT+0x268>

0000b780 <log_msgv@plt>:
    b780:	ff 25 84 d6 00 00    	jmp    *0xd684
    b786:	68 c8 00 00 00       	push   $0xc8
    b78b:	e9 50 fe ff ff       	jmp    b5e0 <AUDIO_FORMAT_DEFAULT+0x268>

0000b790 <async_exchange_end@plt>:
    b790:	ff 25 88 d6 00 00    	jmp    *0xd688
    b796:	68 d0 00 00 00       	push   $0xd0
    b79b:	e9 40 fe ff ff       	jmp    b5e0 <AUDIO_FORMAT_DEFAULT+0x268>

0000b7a0 <loc_service_get_name@plt>:
    b7a0:	ff 25 8c d6 00 00    	jmp    *0xd68c
    b7a6:	68 d8 00 00 00       	push   $0xd8
    b7ab:	e9 30 fe ff ff       	jmp    b5e0 <AUDIO_FORMAT_DEFAULT+0x268>

0000b7b0 <assert_abort@plt>:
    b7b0:	ff 25 90 d6 00 00    	jmp    *0xd690
    b7b6:	68 e0 00 00 00       	push   $0xe0
    b7bb:	e9 20 fe ff ff       	jmp    b5e0 <AUDIO_FORMAT_DEFAULT+0x268>

0000b7c0 <calloc@plt>:
    b7c0:	ff 25 94 d6 00 00    	jmp    *0xd694
    b7c6:	68 e8 00 00 00       	push   $0xe8
    b7cb:	e9 10 fe ff ff       	jmp    b5e0 <AUDIO_FORMAT_DEFAULT+0x268>

0000b7d0 <fibril_condvar_initialize@plt>:
    b7d0:	ff 25 98 d6 00 00    	jmp    *0xd698
    b7d6:	68 f0 00 00 00       	push   $0xf0
    b7db:	e9 00 fe ff ff       	jmp    b5e0 <AUDIO_FORMAT_DEFAULT+0x268>

0000b7e0 <loc_register_cat_change_cb@plt>:
    b7e0:	ff 25 9c d6 00 00    	jmp    *0xd69c
    b7e6:	68 f8 00 00 00       	push   $0xf8
    b7eb:	e9 f0 fd ff ff       	jmp    b5e0 <AUDIO_FORMAT_DEFAULT+0x268>

0000b7f0 <async_data_write_receive_call@plt>:
    b7f0:	ff 25 a0 d6 00 00    	jmp    *0xd6a0
    b7f6:	68 00 01 00 00       	push   $0x100
    b7fb:	e9 e0 fd ff ff       	jmp    b5e0 <AUDIO_FORMAT_DEFAULT+0x268>

0000b800 <fibril_mutex_unlock@plt>:
    b800:	ff 25 a4 d6 00 00    	jmp    *0xd6a4
    b806:	68 08 01 00 00       	push   $0x108
    b80b:	e9 d0 fd ff ff       	jmp    b5e0 <AUDIO_FORMAT_DEFAULT+0x268>

0000b810 <async_callback_receive_start@plt>:
    b810:	ff 25 a8 d6 00 00    	jmp    *0xd6a8
    b816:	68 10 01 00 00       	push   $0x110
    b81b:	e9 c0 fd ff ff       	jmp    b5e0 <AUDIO_FORMAT_DEFAULT+0x268>

0000b820 <str_dup@plt>:
    b820:	ff 25 ac d6 00 00    	jmp    *0xd6ac
    b826:	68 18 01 00 00       	push   $0x118
    b82b:	e9 b0 fd ff ff       	jmp    b5e0 <AUDIO_FORMAT_DEFAULT+0x268>

0000b830 <loc_service_unregister@plt>:
    b830:	ff 25 b0 d6 00 00    	jmp    *0xd6b0
    b836:	68 20 01 00 00       	push   $0x120
    b83b:	e9 a0 fd ff ff       	jmp    b5e0 <AUDIO_FORMAT_DEFAULT+0x268>

0000b840 <fibril_mutex_initialize@plt>:
    b840:	ff 25 b4 d6 00 00    	jmp    *0xd6b4
    b846:	68 28 01 00 00       	push   $0x128
    b84b:	e9 90 fd ff ff       	jmp    b5e0 <AUDIO_FORMAT_DEFAULT+0x268>

0000b850 <async_create_callback_port@plt>:
    b850:	ff 25 b8 d6 00 00    	jmp    *0xd6b8
    b856:	68 30 01 00 00       	push   $0x130
    b85b:	e9 80 fd ff ff       	jmp    b5e0 <AUDIO_FORMAT_DEFAULT+0x268>

0000b860 <str_cmp@plt>:
    b860:	ff 25 bc d6 00 00    	jmp    *0xd6bc
    b866:	68 38 01 00 00       	push   $0x138
    b86b:	e9 70 fd ff ff       	jmp    b5e0 <AUDIO_FORMAT_DEFAULT+0x268>

0000b870 <memset@plt>:
    b870:	ff 25 c0 d6 00 00    	jmp    *0xd6c0
    b876:	68 40 01 00 00       	push   $0x140
    b87b:	e9 60 fd ff ff       	jmp    b5e0 <AUDIO_FORMAT_DEFAULT+0x268>

0000b880 <async_data_read_receive@plt>:
    b880:	ff 25 c4 d6 00 00    	jmp    *0xd6c4
    b886:	68 48 01 00 00       	push   $0x148
    b88b:	e9 50 fd ff ff       	jmp    b5e0 <AUDIO_FORMAT_DEFAULT+0x268>

0000b890 <async_data_read_start@plt>:
    b890:	ff 25 c8 d6 00 00    	jmp    *0xd6c8
    b896:	68 50 01 00 00       	push   $0x150
    b89b:	e9 40 fd ff ff       	jmp    b5e0 <AUDIO_FORMAT_DEFAULT+0x268>

0000b8a0 <async_share_in_receive@plt>:
    b8a0:	ff 25 cc d6 00 00    	jmp    *0xd6cc
    b8a6:	68 58 01 00 00       	push   $0x158
    b8ab:	e9 30 fd ff ff       	jmp    b5e0 <AUDIO_FORMAT_DEFAULT+0x268>

0000b8b0 <getuptime@plt>:
    b8b0:	ff 25 d0 d6 00 00    	jmp    *0xd6d0
    b8b6:	68 60 01 00 00       	push   $0x160
    b8bb:	e9 20 fd ff ff       	jmp    b5e0 <AUDIO_FORMAT_DEFAULT+0x268>

0000b8c0 <loc_server_register@plt>:
    b8c0:	ff 25 d4 d6 00 00    	jmp    *0xd6d4
    b8c6:	68 68 01 00 00       	push   $0x168
    b8cb:	e9 10 fd ff ff       	jmp    b5e0 <AUDIO_FORMAT_DEFAULT+0x268>

0000b8d0 <loc_category_get_svcs@plt>:
    b8d0:	ff 25 d8 d6 00 00    	jmp    *0xd6d8
    b8d6:	68 70 01 00 00       	push   $0x170
    b8db:	e9 00 fd ff ff       	jmp    b5e0 <AUDIO_FORMAT_DEFAULT+0x268>

0000b8e0 <async_get_call_timeout@plt>:
    b8e0:	ff 25 dc d6 00 00    	jmp    *0xd6dc
    b8e6:	68 78 01 00 00       	push   $0x178
    b8eb:	e9 f0 fc ff ff       	jmp    b5e0 <AUDIO_FORMAT_DEFAULT+0x268>

0000b8f0 <str_size@plt>:
    b8f0:	ff 25 e0 d6 00 00    	jmp    *0xd6e0
    b8f6:	68 80 01 00 00       	push   $0x180
    b8fb:	e9 e0 fc ff ff       	jmp    b5e0 <AUDIO_FORMAT_DEFAULT+0x268>

0000b900 <list_count@plt>:
    b900:	ff 25 e4 d6 00 00    	jmp    *0xd6e4
    b906:	68 88 01 00 00       	push   $0x188
    b90b:	e9 d0 fc ff ff       	jmp    b5e0 <AUDIO_FORMAT_DEFAULT+0x268>

0000b910 <async_answer_1@plt>:
    b910:	ff 25 e8 d6 00 00    	jmp    *0xd6e8
    b916:	68 90 01 00 00       	push   $0x190
    b91b:	e9 c0 fc ff ff       	jmp    b5e0 <AUDIO_FORMAT_DEFAULT+0x268>

0000b920 <async_exchange_begin@plt>:
    b920:	ff 25 ec d6 00 00    	jmp    *0xd6ec
    b926:	68 98 01 00 00       	push   $0x198
    b92b:	e9 b0 fc ff ff       	jmp    b5e0 <AUDIO_FORMAT_DEFAULT+0x268>

0000b930 <str_error@plt>:
    b930:	ff 25 f0 d6 00 00    	jmp    *0xd6f0
    b936:	68 a0 01 00 00       	push   $0x1a0
    b93b:	e9 a0 fc ff ff       	jmp    b5e0 <AUDIO_FORMAT_DEFAULT+0x268>

0000b940 <devman_fun_get_handle@plt>:
    b940:	ff 25 f4 d6 00 00    	jmp    *0xd6f4
    b946:	68 a8 01 00 00       	push   $0x1a8
    b94b:	e9 90 fc ff ff       	jmp    b5e0 <AUDIO_FORMAT_DEFAULT+0x268>

0000b950 <async_share_in_finalize@plt>:
    b950:	ff 25 f8 d6 00 00    	jmp    *0xd6f8
    b956:	68 b0 01 00 00       	push   $0x1b0
    b95b:	e9 80 fc ff ff       	jmp    b5e0 <AUDIO_FORMAT_DEFAULT+0x268>

0000b960 <async_answer_3@plt>:
    b960:	ff 25 fc d6 00 00    	jmp    *0xd6fc
    b966:	68 b8 01 00 00       	push   $0x1b8
    b96b:	e9 70 fc ff ff       	jmp    b5e0 <AUDIO_FORMAT_DEFAULT+0x268>

0000b970 <async_data_write_finalize@plt>:
    b970:	ff 25 00 d7 00 00    	jmp    *0xd700
    b976:	68 c0 01 00 00       	push   $0x1c0
    b97b:	e9 60 fc ff ff       	jmp    b5e0 <AUDIO_FORMAT_DEFAULT+0x268>

0000b980 <async_data_write_accept@plt>:
    b980:	ff 25 04 d7 00 00    	jmp    *0xd704
    b986:	68 c8 01 00 00       	push   $0x1c8
    b98b:	e9 50 fc ff ff       	jmp    b5e0 <AUDIO_FORMAT_DEFAULT+0x268>

0000b990 <async_forget@plt>:
    b990:	ff 25 08 d7 00 00    	jmp    *0xd708
    b996:	68 d0 01 00 00       	push   $0x1d0
    b99b:	e9 40 fc ff ff       	jmp    b5e0 <AUDIO_FORMAT_DEFAULT+0x268>

0000b9a0 <fibril_switch@plt>:
    b9a0:	ff 25 0c d7 00 00    	jmp    *0xd70c
    b9a6:	68 d8 01 00 00       	push   $0x1d8
    b9ab:	e9 30 fc ff ff       	jmp    b5e0 <AUDIO_FORMAT_DEFAULT+0x268>

0000b9b0 <__syscall_fast@plt>:
    b9b0:	ff 25 10 d7 00 00    	jmp    *0xd710
    b9b6:	68 e0 01 00 00       	push   $0x1e0
    b9bb:	e9 20 fc ff ff       	jmp    b5e0 <AUDIO_FORMAT_DEFAULT+0x268>

0000b9c0 <async_set_fallback_port_handler@plt>:
    b9c0:	ff 25 14 d7 00 00    	jmp    *0xd714
    b9c6:	68 e8 01 00 00       	push   $0x1e8
    b9cb:	e9 10 fc ff ff       	jmp    b5e0 <AUDIO_FORMAT_DEFAULT+0x268>

0000b9d0 <free@plt>:
    b9d0:	ff 25 18 d7 00 00    	jmp    *0xd718
    b9d6:	68 f0 01 00 00       	push   $0x1f0
    b9db:	e9 00 fc ff ff       	jmp    b5e0 <AUDIO_FORMAT_DEFAULT+0x268>

0000b9e0 <fibril_mutex_lock@plt>:
    b9e0:	ff 25 1c d7 00 00    	jmp    *0xd71c
    b9e6:	68 f8 01 00 00       	push   $0x1f8
    b9eb:	e9 f0 fb ff ff       	jmp    b5e0 <AUDIO_FORMAT_DEFAULT+0x268>
