
usbmast:     file format elf32-i386


Disassembly of section .init:

000010f4 <__entry>:
    10f4:	66 8c d0             	mov    %ss,%ax
    10f7:	8e d8                	mov    %eax,%ds
    10f9:	8e c0                	mov    %eax,%es
    10fb:	8e e0                	mov    %eax,%fs
    10fd:	b8 01 00 00 00       	mov    $0x1,%eax
    1102:	0f a2                	cpuid  
    1104:	0f ba e2 0b          	bt     $0xb,%edx
    1108:	73 0c                	jae    1116 <__entry+0x22>
    110a:	8d 05 60 3d 01 00    	lea    0x13d60,%eax
    1110:	c7 00 70 1b 01 00    	movl   $0x11b70,(%eax)
    1116:	6a 00                	push   $0x0
    1118:	6a 00                	push   $0x0
    111a:	89 e5                	mov    %esp,%ebp
    111c:	57                   	push   %edi
    111d:	e8 5e 05 01 00       	call   11680 <__main@plt>

Disassembly of section .text:

00001140 <usb_massstor_cmd>:
    1140:	55                   	push   %ebp
    1141:	89 e5                	mov    %esp,%ebp
    1143:	57                   	push   %edi
    1144:	56                   	push   %esi
    1145:	53                   	push   %ebx
    1146:	83 ec 4c             	sub    $0x4c,%esp
    1149:	8b 5d 10             	mov    0x10(%ebp),%ebx
    114c:	8b 43 10             	mov    0x10(%ebx),%eax
    114f:	85 c0                	test   %eax,%eax
    1151:	0f 84 91 02 00 00    	je     13e8 <usb_massstor_cmd+0x2a8>
    1157:	8b 43 08             	mov    0x8(%ebx),%eax
    115a:	85 c0                	test   %eax,%eax
    115c:	0f 85 76 02 00 00    	jne    13d8 <usb_massstor_cmd+0x298>
    1162:	8b 45 08             	mov    0x8(%ebp),%eax
    1165:	8b 00                	mov    (%eax),%eax
    1167:	8b 78 0c             	mov    0xc(%eax),%edi
    116a:	8b 50 10             	mov    0x10(%eax),%edx
    116d:	8b 43 14             	mov    0x14(%ebx),%eax
    1170:	89 7d a8             	mov    %edi,-0x58(%ebp)
    1173:	89 45 b4             	mov    %eax,-0x4c(%ebp)
    1176:	31 c0                	xor    %eax,%eax
    1178:	89 55 b0             	mov    %edx,-0x50(%ebp)
    117b:	52                   	push   %edx
    117c:	8b 0b                	mov    (%ebx),%ecx
    117e:	8b 75 08             	mov    0x8(%ebp),%esi
    1181:	51                   	push   %ecx
    1182:	31 c9                	xor    %ecx,%ecx
    1184:	8a 4b 04             	mov    0x4(%ebx),%cl
    1187:	51                   	push   %ecx
    1188:	31 c9                	xor    %ecx,%ecx
    118a:	8a 4e 08             	mov    0x8(%esi),%cl
    118d:	8b 75 b4             	mov    -0x4c(%ebp),%esi
    1190:	51                   	push   %ecx
    1191:	50                   	push   %eax
    1192:	8b 45 0c             	mov    0xc(%ebp),%eax
    1195:	56                   	push   %esi
    1196:	8d 75 c9             	lea    -0x37(%ebp),%esi
    1199:	50                   	push   %eax
    119a:	56                   	push   %esi
    119b:	e8 e0 04 00 00       	call   1680 <usb_massstor_cbw_prepare>
    11a0:	83 c4 1c             	add    $0x1c,%esp
    11a3:	68 97 ec 00 00       	push   $0xec97
    11a8:	6a 05                	push   $0x5
    11aa:	6a ff                	push   $0xffffffff
    11ac:	e8 7f 06 01 00       	call   11830 <log_msg@plt>
    11b1:	83 c4 0c             	add    $0xc,%esp
    11b4:	8b 55 b0             	mov    -0x50(%ebp),%edx
    11b7:	6a 1f                	push   $0x1f
    11b9:	56                   	push   %esi
    11ba:	52                   	push   %edx
    11bb:	e8 30 29 00 00       	call   3af0 <usb_pipe_write>
    11c0:	89 04 24             	mov    %eax,(%esp)
    11c3:	89 45 ac             	mov    %eax,-0x54(%ebp)
    11c6:	e8 f5 08 01 00       	call   11ac0 <str_error@plt>
    11cb:	83 c4 0c             	add    $0xc,%esp
    11ce:	89 45 b0             	mov    %eax,-0x50(%ebp)
    11d1:	6a 00                	push   $0x0
    11d3:	6a 1f                	push   $0x1f
    11d5:	56                   	push   %esi
    11d6:	e8 f5 45 00 00       	call   57d0 <usb_debug_str_buffer>
    11db:	8b 4d b0             	mov    -0x50(%ebp),%ecx
    11de:	89 0c 24             	mov    %ecx,(%esp)
    11e1:	50                   	push   %eax
    11e2:	68 af ec 00 00       	push   $0xecaf
    11e7:	6a 05                	push   $0x5
    11e9:	6a ff                	push   $0xffffffff
    11eb:	e8 40 06 01 00       	call   11830 <log_msg@plt>
    11f0:	8b 55 ac             	mov    -0x54(%ebp),%edx
    11f3:	83 c4 20             	add    $0x20,%esp
    11f6:	85 d2                	test   %edx,%edx
    11f8:	0f 85 32 02 00 00    	jne    1430 <usb_massstor_cmd+0x2f0>
    11fe:	50                   	push   %eax
    11ff:	68 e8 ec 00 00       	push   $0xece8
    1204:	6a 05                	push   $0x5
    1206:	6a ff                	push   $0xffffffff
    1208:	e8 23 06 01 00       	call   11830 <log_msg@plt>
    120d:	8b 43 10             	mov    0x10(%ebx),%eax
    1210:	83 c4 10             	add    $0x10,%esp
    1213:	85 c0                	test   %eax,%eax
    1215:	0f 84 75 01 00 00    	je     1390 <usb_massstor_cmd+0x250>
    121b:	8d 55 bc             	lea    -0x44(%ebp),%edx
    121e:	52                   	push   %edx
    121f:	8b 53 14             	mov    0x14(%ebx),%edx
    1222:	52                   	push   %edx
    1223:	50                   	push   %eax
    1224:	57                   	push   %edi
    1225:	e8 e6 27 00 00       	call   3a10 <usb_pipe_read>
    122a:	89 04 24             	mov    %eax,(%esp)
    122d:	89 c6                	mov    %eax,%esi
    122f:	e8 8c 08 01 00       	call   11ac0 <str_error@plt>
    1234:	83 c4 0c             	add    $0xc,%esp
    1237:	8b 4d bc             	mov    -0x44(%ebp),%ecx
    123a:	89 45 b0             	mov    %eax,-0x50(%ebp)
    123d:	8b 43 10             	mov    0x10(%ebx),%eax
    1240:	6a 00                	push   $0x0
    1242:	51                   	push   %ecx
    1243:	50                   	push   %eax
    1244:	e8 87 45 00 00       	call   57d0 <usb_debug_str_buffer>
    1249:	5a                   	pop    %edx
    124a:	8b 55 b0             	mov    -0x50(%ebp),%edx
    124d:	59                   	pop    %ecx
    124e:	52                   	push   %edx
    124f:	50                   	push   %eax
    1250:	8b 45 bc             	mov    -0x44(%ebp),%eax
    1253:	50                   	push   %eax
    1254:	68 84 ed 00 00       	push   $0xed84
    1259:	6a 05                	push   $0x5
    125b:	6a ff                	push   $0xffffffff
    125d:	e8 ce 05 01 00       	call   11830 <log_msg@plt>
    1262:	8b 43 08             	mov    0x8(%ebx),%eax
    1265:	83 c4 20             	add    $0x20,%esp
    1268:	85 c0                	test   %eax,%eax
    126a:	74 47                	je     12b3 <usb_massstor_cmd+0x173>
    126c:	56                   	push   %esi
    126d:	8b 53 0c             	mov    0xc(%ebx),%edx
    1270:	52                   	push   %edx
    1271:	50                   	push   %eax
    1272:	57                   	push   %edi
    1273:	e8 78 28 00 00       	call   3af0 <usb_pipe_write>
    1278:	89 04 24             	mov    %eax,(%esp)
    127b:	89 c6                	mov    %eax,%esi
    127d:	e8 3e 08 01 00       	call   11ac0 <str_error@plt>
    1282:	83 c4 0c             	add    $0xc,%esp
    1285:	6a 00                	push   $0x0
    1287:	89 45 b0             	mov    %eax,-0x50(%ebp)
    128a:	8b 4b 0c             	mov    0xc(%ebx),%ecx
    128d:	8b 43 08             	mov    0x8(%ebx),%eax
    1290:	51                   	push   %ecx
    1291:	50                   	push   %eax
    1292:	e8 39 45 00 00       	call   57d0 <usb_debug_str_buffer>
    1297:	5a                   	pop    %edx
    1298:	8b 55 b0             	mov    -0x50(%ebp),%edx
    129b:	59                   	pop    %ecx
    129c:	52                   	push   %edx
    129d:	50                   	push   %eax
    129e:	8b 43 0c             	mov    0xc(%ebx),%eax
    12a1:	50                   	push   %eax
    12a2:	68 ac ed 00 00       	push   $0xedac
    12a7:	6a 05                	push   $0x5
    12a9:	6a ff                	push   $0xffffffff
    12ab:	e8 80 05 01 00       	call   11830 <log_msg@plt>
    12b0:	83 c4 20             	add    $0x20,%esp
    12b3:	81 fe d3 fe ff ff    	cmp    $0xfffffed3,%esi
    12b9:	0f 84 49 01 00 00    	je     1408 <usb_massstor_cmd+0x2c8>
    12bf:	85 f6                	test   %esi,%esi
    12c1:	0f 85 01 02 00 00    	jne    14c8 <usb_massstor_cmd+0x388>
    12c7:	50                   	push   %eax
    12c8:	68 22 ed 00 00       	push   $0xed22
    12cd:	6a 05                	push   $0x5
    12cf:	6a ff                	push   $0xffffffff
    12d1:	e8 5a 05 01 00       	call   11830 <log_msg@plt>
    12d6:	8d 45 b8             	lea    -0x48(%ebp),%eax
    12d9:	50                   	push   %eax
    12da:	8d 55 bc             	lea    -0x44(%ebp),%edx
    12dd:	8b 45 a8             	mov    -0x58(%ebp),%eax
    12e0:	6a 0d                	push   $0xd
    12e2:	89 55 ac             	mov    %edx,-0x54(%ebp)
    12e5:	52                   	push   %edx
    12e6:	50                   	push   %eax
    12e7:	e8 24 27 00 00       	call   3a10 <usb_pipe_read>
    12ec:	83 c4 14             	add    $0x14,%esp
    12ef:	89 c6                	mov    %eax,%esi
    12f1:	50                   	push   %eax
    12f2:	e8 c9 07 01 00       	call   11ac0 <str_error@plt>
    12f7:	83 c4 0c             	add    $0xc,%esp
    12fa:	8b 7d b8             	mov    -0x48(%ebp),%edi
    12fd:	8b 55 ac             	mov    -0x54(%ebp),%edx
    1300:	89 45 b0             	mov    %eax,-0x50(%ebp)
    1303:	6a 00                	push   $0x0
    1305:	57                   	push   %edi
    1306:	52                   	push   %edx
    1307:	e8 c4 44 00 00       	call   57d0 <usb_debug_str_buffer>
    130c:	5a                   	pop    %edx
    130d:	59                   	pop    %ecx
    130e:	8b 4d b0             	mov    -0x50(%ebp),%ecx
    1311:	51                   	push   %ecx
    1312:	57                   	push   %edi
    1313:	50                   	push   %eax
    1314:	68 d0 ed 00 00       	push   $0xedd0
    1319:	6a 05                	push   $0x5
    131b:	6a ff                	push   $0xffffffff
    131d:	e8 0e 05 01 00       	call   11830 <log_msg@plt>
    1322:	83 c4 20             	add    $0x20,%esp
    1325:	85 f6                	test   %esi,%esi
    1327:	0f 85 73 01 00 00    	jne    14a0 <usb_massstor_cmd+0x360>
    132d:	83 7d b8 0d          	cmpl   $0xd,-0x48(%ebp)
    1331:	0f 85 21 01 00 00    	jne    1458 <usb_massstor_cmd+0x318>
    1337:	8b 45 c0             	mov    -0x40(%ebp),%eax
    133a:	39 45 0c             	cmp    %eax,0xc(%ebp)
    133d:	0f 85 35 01 00 00    	jne    1478 <usb_massstor_cmd+0x338>
    1343:	8a 45 c8             	mov    -0x38(%ebp),%al
    1346:	3c 01                	cmp    $0x1,%al
    1348:	74 6e                	je     13b8 <usb_massstor_cmd+0x278>
    134a:	72 5c                	jb     13a8 <usb_massstor_cmd+0x268>
    134c:	3c 02                	cmp    $0x2,%al
    134e:	74 50                	je     13a0 <usb_massstor_cmd+0x260>
    1350:	56                   	push   %esi
    1351:	68 70 ed 00 00       	push   $0xed70
    1356:	6a 01                	push   $0x1
    1358:	6a ff                	push   $0xffffffff
    135a:	be f6 fe ff ff       	mov    $0xfffffef6,%esi
    135f:	e8 cc 04 01 00       	call   11830 <log_msg@plt>
    1364:	83 c4 10             	add    $0x10,%esp
    1367:	8b 45 c4             	mov    -0x3c(%ebp),%eax
    136a:	39 45 b4             	cmp    %eax,-0x4c(%ebp)
    136d:	0f 82 45 01 00 00    	jb     14b8 <usb_massstor_cmd+0x378>
    1373:	8b 53 10             	mov    0x10(%ebx),%edx
    1376:	85 d2                	test   %edx,%edx
    1378:	74 08                	je     1382 <usb_massstor_cmd+0x242>
    137a:	8b 7d b4             	mov    -0x4c(%ebp),%edi
    137d:	29 c7                	sub    %eax,%edi
    137f:	89 7b 18             	mov    %edi,0x18(%ebx)
    1382:	8d 65 f4             	lea    -0xc(%ebp),%esp
    1385:	89 f0                	mov    %esi,%eax
    1387:	5b                   	pop    %ebx
    1388:	5e                   	pop    %esi
    1389:	5f                   	pop    %edi
    138a:	5d                   	pop    %ebp
    138b:	c3                   	ret    
    138c:	8d 74 26 00          	lea    0x0(%esi,%eiz,1),%esi
    1390:	8b 43 08             	mov    0x8(%ebx),%eax
    1393:	85 c0                	test   %eax,%eax
    1395:	0f 85 d1 fe ff ff    	jne    126c <usb_massstor_cmd+0x12c>
    139b:	e9 27 ff ff ff       	jmp    12c7 <usb_massstor_cmd+0x187>
    13a0:	57                   	push   %edi
    13a1:	68 5e ed 00 00       	push   $0xed5e
    13a6:	eb ae                	jmp    1356 <usb_massstor_cmd+0x216>
    13a8:	c7 43 1c 00 00 00 00 	movl   $0x0,0x1c(%ebx)
    13af:	eb b6                	jmp    1367 <usb_massstor_cmd+0x227>
    13b1:	8d b4 26 00 00 00 00 	lea    0x0(%esi,%eiz,1),%esi
    13b8:	c7 43 1c 01 00 00 00 	movl   $0x1,0x1c(%ebx)
    13bf:	50                   	push   %eax
    13c0:	68 51 ed 00 00       	push   $0xed51
    13c5:	6a 01                	push   $0x1
    13c7:	6a ff                	push   $0xffffffff
    13c9:	e8 62 04 01 00       	call   11830 <log_msg@plt>
    13ce:	83 c4 10             	add    $0x10,%esp
    13d1:	eb 94                	jmp    1367 <usb_massstor_cmd+0x227>
    13d3:	90                   	nop
    13d4:	8d 74 26 00          	lea    0x0(%esi,%eiz,1),%esi
    13d8:	8d 65 f4             	lea    -0xc(%ebp),%esp
    13db:	be f2 ff ff ff       	mov    $0xfffffff2,%esi
    13e0:	89 f0                	mov    %esi,%eax
    13e2:	5b                   	pop    %ebx
    13e3:	5e                   	pop    %esi
    13e4:	5f                   	pop    %edi
    13e5:	5d                   	pop    %ebp
    13e6:	c3                   	ret    
    13e7:	90                   	nop
    13e8:	8b 45 08             	mov    0x8(%ebp),%eax
    13eb:	8b 00                	mov    (%eax),%eax
    13ed:	8b 78 0c             	mov    0xc(%eax),%edi
    13f0:	89 7d a8             	mov    %edi,-0x58(%ebp)
    13f3:	8b 78 10             	mov    0x10(%eax),%edi
    13f6:	8b 43 0c             	mov    0xc(%ebx),%eax
    13f9:	89 fa                	mov    %edi,%edx
    13fb:	89 45 b4             	mov    %eax,-0x4c(%ebp)
    13fe:	b8 01 00 00 00       	mov    $0x1,%eax
    1403:	e9 70 fd ff ff       	jmp    1178 <usb_massstor_cmd+0x38>
    1408:	8b 45 08             	mov    0x8(%ebp),%eax
    140b:	83 ec 0c             	sub    $0xc,%esp
    140e:	8b 00                	mov    (%eax),%eax
    1410:	8b 30                	mov    (%eax),%esi
    1412:	56                   	push   %esi
    1413:	e8 78 18 00 00       	call   2c90 <usb_device_get_default_pipe>
    1418:	5a                   	pop    %edx
    1419:	59                   	pop    %ecx
    141a:	57                   	push   %edi
    141b:	50                   	push   %eax
    141c:	e8 3f 3b 00 00       	call   4f60 <usb_pipe_clear_halt>
    1421:	83 c4 10             	add    $0x10,%esp
    1424:	e9 9e fe ff ff       	jmp    12c7 <usb_massstor_cmd+0x187>
    1429:	8d b4 26 00 00 00 00 	lea    0x0(%esi,%eiz,1),%esi
    1430:	83 ec 0c             	sub    $0xc,%esp
    1433:	52                   	push   %edx
    1434:	e8 87 06 01 00       	call   11ac0 <str_error@plt>
    1439:	50                   	push   %eax
    143a:	68 cd ec 00 00       	push   $0xeccd
    143f:	6a 01                	push   $0x1
    1441:	6a ff                	push   $0xffffffff
    1443:	be f6 fe ff ff       	mov    $0xfffffef6,%esi
    1448:	e8 e3 03 01 00       	call   11830 <log_msg@plt>
    144d:	83 c4 20             	add    $0x20,%esp
    1450:	e9 2d ff ff ff       	jmp    1382 <usb_massstor_cmd+0x242>
    1455:	8d 76 00             	lea    0x0(%esi),%esi
    1458:	50                   	push   %eax
    1459:	68 00 ee 00 00       	push   $0xee00
    145e:	6a 01                	push   $0x1
    1460:	6a ff                	push   $0xffffffff
    1462:	be f6 fe ff ff       	mov    $0xfffffef6,%esi
    1467:	e8 c4 03 01 00       	call   11830 <log_msg@plt>
    146c:	83 c4 10             	add    $0x10,%esp
    146f:	e9 0e ff ff ff       	jmp    1382 <usb_massstor_cmd+0x242>
    1474:	8d 74 26 00          	lea    0x0(%esi,%eiz,1),%esi
    1478:	83 ec 0c             	sub    $0xc,%esp
    147b:	50                   	push   %eax
    147c:	8b 45 0c             	mov    0xc(%ebp),%eax
    147f:	50                   	push   %eax
    1480:	68 20 ee 00 00       	push   $0xee20
    1485:	6a 01                	push   $0x1
    1487:	6a ff                	push   $0xffffffff
    1489:	be f6 fe ff ff       	mov    $0xfffffef6,%esi
    148e:	e8 9d 03 01 00       	call   11830 <log_msg@plt>
    1493:	83 c4 20             	add    $0x20,%esp
    1496:	e9 e7 fe ff ff       	jmp    1382 <usb_massstor_cmd+0x242>
    149b:	90                   	nop
    149c:	8d 74 26 00          	lea    0x0(%esi,%eiz,1),%esi
    14a0:	83 ec 0c             	sub    $0xc,%esp
    14a3:	56                   	push   %esi
    14a4:	e8 17 06 01 00       	call   11ac0 <str_error@plt>
    14a9:	50                   	push   %eax
    14aa:	68 3a ed 00 00       	push   $0xed3a
    14af:	eb 8e                	jmp    143f <usb_massstor_cmd+0x2ff>
    14b1:	8d b4 26 00 00 00 00 	lea    0x0(%esi,%eiz,1),%esi
    14b8:	83 ec 0c             	sub    $0xc,%esp
    14bb:	8b 4d b4             	mov    -0x4c(%ebp),%ecx
    14be:	51                   	push   %ecx
    14bf:	50                   	push   %eax
    14c0:	68 5c ee 00 00       	push   $0xee5c
    14c5:	eb be                	jmp    1485 <usb_massstor_cmd+0x345>
    14c7:	90                   	nop
    14c8:	83 ec 0c             	sub    $0xc,%esp
    14cb:	56                   	push   %esi
    14cc:	e8 ef 05 01 00       	call   11ac0 <str_error@plt>
    14d1:	50                   	push   %eax
    14d2:	68 06 ed 00 00       	push   $0xed06
    14d7:	e9 63 ff ff ff       	jmp    143f <usb_massstor_cmd+0x2ff>
    14dc:	8d 74 26 00          	lea    0x0(%esi,%eiz,1),%esi

000014e0 <usb_massstor_reset>:
    14e0:	55                   	push   %ebp
    14e1:	89 e5                	mov    %esp,%ebp
    14e3:	56                   	push   %esi
    14e4:	53                   	push   %ebx
    14e5:	8b 75 08             	mov    0x8(%ebp),%esi
    14e8:	83 ec 0c             	sub    $0xc,%esp
    14eb:	8b 06                	mov    (%esi),%eax
    14ed:	50                   	push   %eax
    14ee:	e8 8d 18 00 00       	call   2d80 <usb_device_get_iface_number>
    14f3:	8b 0e                	mov    (%esi),%ecx
    14f5:	5a                   	pop    %edx
    14f6:	89 c3                	mov    %eax,%ebx
    14f8:	51                   	push   %ecx
    14f9:	e8 92 17 00 00       	call   2c90 <usb_device_get_default_pipe>
    14fe:	81 e3 ff ff 00 00    	and    $0xffff,%ebx
    1504:	6a 00                	push   $0x0
    1506:	6a 00                	push   $0x0
    1508:	53                   	push   %ebx
    1509:	6a 00                	push   $0x0
    150b:	68 ff 00 00 00       	push   $0xff
    1510:	6a 01                	push   $0x1
    1512:	6a 01                	push   $0x1
    1514:	50                   	push   %eax
    1515:	e8 66 2b 00 00       	call   4080 <usb_control_request_set>
    151a:	8d 65 f8             	lea    -0x8(%ebp),%esp
    151d:	5b                   	pop    %ebx
    151e:	5e                   	pop    %esi
    151f:	5d                   	pop    %ebp
    1520:	c3                   	ret    
    1521:	eb 0d                	jmp    1530 <usb_massstor_reset_recovery>
    1523:	90                   	nop
    1524:	90                   	nop
    1525:	90                   	nop
    1526:	90                   	nop
    1527:	90                   	nop
    1528:	90                   	nop
    1529:	90                   	nop
    152a:	90                   	nop
    152b:	90                   	nop
    152c:	90                   	nop
    152d:	90                   	nop
    152e:	90                   	nop
    152f:	90                   	nop

00001530 <usb_massstor_reset_recovery>:
    1530:	55                   	push   %ebp
    1531:	89 e5                	mov    %esp,%ebp
    1533:	56                   	push   %esi
    1534:	53                   	push   %ebx
    1535:	8b 5d 08             	mov    0x8(%ebp),%ebx
    1538:	83 ec 0c             	sub    $0xc,%esp
    153b:	8b 03                	mov    (%ebx),%eax
    153d:	50                   	push   %eax
    153e:	e8 3d 18 00 00       	call   2d80 <usb_device_get_iface_number>
    1543:	8b 0b                	mov    (%ebx),%ecx
    1545:	5a                   	pop    %edx
    1546:	89 c6                	mov    %eax,%esi
    1548:	51                   	push   %ecx
    1549:	e8 42 17 00 00       	call   2c90 <usb_device_get_default_pipe>
    154e:	81 e6 ff ff 00 00    	and    $0xffff,%esi
    1554:	6a 00                	push   $0x0
    1556:	6a 00                	push   $0x0
    1558:	56                   	push   %esi
    1559:	6a 00                	push   $0x0
    155b:	68 ff 00 00 00       	push   $0xff
    1560:	6a 01                	push   $0x1
    1562:	6a 01                	push   $0x1
    1564:	50                   	push   %eax
    1565:	e8 16 2b 00 00       	call   4080 <usb_control_request_set>
    156a:	83 c4 24             	add    $0x24,%esp
    156d:	8b 03                	mov    (%ebx),%eax
    156f:	8b 73 0c             	mov    0xc(%ebx),%esi
    1572:	50                   	push   %eax
    1573:	e8 18 17 00 00       	call   2c90 <usb_device_get_default_pipe>
    1578:	5a                   	pop    %edx
    1579:	59                   	pop    %ecx
    157a:	56                   	push   %esi
    157b:	50                   	push   %eax
    157c:	e8 df 39 00 00       	call   4f60 <usb_pipe_clear_halt>
    1581:	58                   	pop    %eax
    1582:	8b 03                	mov    (%ebx),%eax
    1584:	8b 73 10             	mov    0x10(%ebx),%esi
    1587:	50                   	push   %eax
    1588:	e8 03 17 00 00       	call   2c90 <usb_device_get_default_pipe>
    158d:	5a                   	pop    %edx
    158e:	59                   	pop    %ecx
    158f:	56                   	push   %esi
    1590:	50                   	push   %eax
    1591:	e8 ca 39 00 00       	call   4f60 <usb_pipe_clear_halt>
    1596:	83 c4 10             	add    $0x10,%esp
    1599:	8d 65 f8             	lea    -0x8(%ebp),%esp
    159c:	5b                   	pop    %ebx
    159d:	5e                   	pop    %esi
    159e:	5d                   	pop    %ebp
    159f:	c3                   	ret    

000015a0 <usb_massstor_get_max_lun>:
    15a0:	55                   	push   %ebp
    15a1:	89 e5                	mov    %esp,%ebp
    15a3:	56                   	push   %esi
    15a4:	53                   	push   %ebx
    15a5:	83 ec 1c             	sub    $0x1c,%esp
    15a8:	8b 75 08             	mov    0x8(%ebp),%esi
    15ab:	8b 06                	mov    (%esi),%eax
    15ad:	50                   	push   %eax
    15ae:	e8 cd 17 00 00       	call   2d80 <usb_device_get_iface_number>
    15b3:	8b 0e                	mov    (%esi),%ecx
    15b5:	5a                   	pop    %edx
    15b6:	89 c3                	mov    %eax,%ebx
    15b8:	51                   	push   %ecx
    15b9:	e8 d2 16 00 00       	call   2c90 <usb_device_get_default_pipe>
    15be:	8d 55 f4             	lea    -0xc(%ebp),%edx
    15c1:	89 14 24             	mov    %edx,(%esp)
    15c4:	81 e3 ff ff 00 00    	and    $0xffff,%ebx
    15ca:	8d 55 f3             	lea    -0xd(%ebp),%edx
    15cd:	6a 01                	push   $0x1
    15cf:	52                   	push   %edx
    15d0:	53                   	push   %ebx
    15d1:	6a 00                	push   $0x0
    15d3:	68 fe 00 00 00       	push   $0xfe
    15d8:	6a 01                	push   $0x1
    15da:	6a 01                	push   $0x1
    15dc:	50                   	push   %eax
    15dd:	e8 1e 2b 00 00       	call   4100 <usb_control_request_get>
    15e2:	83 c4 30             	add    $0x30,%esp
    15e5:	85 c0                	test   %eax,%eax
    15e7:	75 0b                	jne    15f4 <usb_massstor_get_max_lun+0x54>
    15e9:	83 7d f4 01          	cmpl   $0x1,-0xc(%ebp)
    15ed:	75 11                	jne    1600 <usb_massstor_get_max_lun+0x60>
    15ef:	31 c0                	xor    %eax,%eax
    15f1:	8a 45 f3             	mov    -0xd(%ebp),%al
    15f4:	8d 65 f8             	lea    -0x8(%ebp),%esp
    15f7:	5b                   	pop    %ebx
    15f8:	5e                   	pop    %esi
    15f9:	5d                   	pop    %ebp
    15fa:	c3                   	ret    
    15fb:	90                   	nop
    15fc:	8d 74 26 00          	lea    0x0(%esi,%eiz,1),%esi
    1600:	b8 d2 fe ff ff       	mov    $0xfffffed2,%eax
    1605:	eb ed                	jmp    15f4 <usb_massstor_get_max_lun+0x54>
    1607:	89 f6                	mov    %esi,%esi
    1609:	8d bc 27 00 00 00 00 	lea    0x0(%edi,%eiz,1),%edi

00001610 <usb_masstor_get_lun_count>:
    1610:	55                   	push   %ebp
    1611:	89 e5                	mov    %esp,%ebp
    1613:	56                   	push   %esi
    1614:	53                   	push   %ebx
    1615:	83 ec 1c             	sub    $0x1c,%esp
    1618:	8b 75 08             	mov    0x8(%ebp),%esi
    161b:	8b 06                	mov    (%esi),%eax
    161d:	50                   	push   %eax
    161e:	e8 5d 17 00 00       	call   2d80 <usb_device_get_iface_number>
    1623:	8b 0e                	mov    (%esi),%ecx
    1625:	5a                   	pop    %edx
    1626:	89 c3                	mov    %eax,%ebx
    1628:	51                   	push   %ecx
    1629:	e8 62 16 00 00       	call   2c90 <usb_device_get_default_pipe>
    162e:	8d 55 f4             	lea    -0xc(%ebp),%edx
    1631:	89 14 24             	mov    %edx,(%esp)
    1634:	81 e3 ff ff 00 00    	and    $0xffff,%ebx
    163a:	8d 55 f3             	lea    -0xd(%ebp),%edx
    163d:	6a 01                	push   $0x1
    163f:	52                   	push   %edx
    1640:	53                   	push   %ebx
    1641:	6a 00                	push   $0x0
    1643:	68 fe 00 00 00       	push   $0xfe
    1648:	6a 01                	push   $0x1
    164a:	6a 01                	push   $0x1
    164c:	50                   	push   %eax
    164d:	e8 ae 2a 00 00       	call   4100 <usb_control_request_get>
    1652:	83 c4 30             	add    $0x30,%esp
    1655:	85 c0                	test   %eax,%eax
    1657:	75 17                	jne    1670 <usb_masstor_get_lun_count+0x60>
    1659:	83 7d f4 01          	cmpl   $0x1,-0xc(%ebp)
    165d:	75 13                	jne    1672 <usb_masstor_get_lun_count+0x62>
    165f:	31 c0                	xor    %eax,%eax
    1661:	8a 45 f3             	mov    -0xd(%ebp),%al
    1664:	8d 65 f8             	lea    -0x8(%ebp),%esp
    1667:	40                   	inc    %eax
    1668:	5b                   	pop    %ebx
    1669:	5e                   	pop    %esi
    166a:	5d                   	pop    %ebp
    166b:	c3                   	ret    
    166c:	8d 74 26 00          	lea    0x0(%esi,%eiz,1),%esi
    1670:	79 f2                	jns    1664 <usb_masstor_get_lun_count+0x54>
    1672:	8d 65 f8             	lea    -0x8(%ebp),%esp
    1675:	b8 01 00 00 00       	mov    $0x1,%eax
    167a:	5b                   	pop    %ebx
    167b:	5e                   	pop    %esi
    167c:	5d                   	pop    %ebp
    167d:	c3                   	ret    
    167e:	66 90                	xchg   %ax,%ax

00001680 <usb_massstor_cbw_prepare>:
    1680:	55                   	push   %ebp
    1681:	89 e5                	mov    %esp,%ebp
    1683:	8b 45 08             	mov    0x8(%ebp),%eax
    1686:	8b 55 0c             	mov    0xc(%ebp),%edx
    1689:	83 7d 14 01          	cmpl   $0x1,0x14(%ebp)
    168d:	89 50 04             	mov    %edx,0x4(%eax)
    1690:	8b 55 10             	mov    0x10(%ebp),%edx
    1693:	89 50 08             	mov    %edx,0x8(%eax)
    1696:	c7 00 55 53 42 43    	movl   $0x43425355,(%eax)
    169c:	19 d2                	sbb    %edx,%edx
    169e:	83 c0 0f             	add    $0xf,%eax
    16a1:	83 e2 80             	and    $0xffffff80,%edx
    16a4:	88 50 fd             	mov    %dl,-0x3(%eax)
    16a7:	8a 55 18             	mov    0x18(%ebp),%dl
    16aa:	83 e2 0f             	and    $0xf,%edx
    16ad:	88 50 fe             	mov    %dl,-0x2(%eax)
    16b0:	8a 55 1c             	mov    0x1c(%ebp),%dl
    16b3:	83 e2 1f             	and    $0x1f,%edx
    16b6:	88 50 ff             	mov    %dl,-0x1(%eax)
    16b9:	81 e2 ff 00 00 00    	and    $0xff,%edx
    16bf:	89 55 10             	mov    %edx,0x10(%ebp)
    16c2:	8b 55 20             	mov    0x20(%ebp),%edx
    16c5:	89 55 0c             	mov    %edx,0xc(%ebp)
    16c8:	89 45 08             	mov    %eax,0x8(%ebp)
    16cb:	5d                   	pop    %ebp
    16cc:	e9 cf 00 01 00       	jmp    117a0 <memcpy@plt>
    16d1:	66 90                	xchg   %ax,%ax
    16d3:	66 90                	xchg   %ax,%ax
    16d5:	66 90                	xchg   %ax,%ax
    16d7:	66 90                	xchg   %ax,%ax
    16d9:	66 90                	xchg   %ax,%ax
    16db:	66 90                	xchg   %ax,%ax
    16dd:	66 90                	xchg   %ax,%ax
    16df:	90                   	nop

000016e0 <usbmast_device_remove>:
    16e0:	55                   	push   %ebp
    16e1:	b8 f5 ff ff ff       	mov    $0xfffffff5,%eax
    16e6:	89 e5                	mov    %esp,%ebp
    16e8:	5d                   	pop    %ebp
    16e9:	c3                   	ret    
    16ea:	8d b6 00 00 00 00    	lea    0x0(%esi),%esi

000016f0 <usbmast_bd_open>:
    16f0:	55                   	push   %ebp
    16f1:	31 c0                	xor    %eax,%eax
    16f3:	89 e5                	mov    %esp,%ebp
    16f5:	5d                   	pop    %ebp
    16f6:	c3                   	ret    
    16f7:	89 f6                	mov    %esi,%esi
    16f9:	8d bc 27 00 00 00 00 	lea    0x0(%edi,%eiz,1),%edi

00001700 <usbmast_bd_close>:
    1700:	55                   	push   %ebp
    1701:	31 c0                	xor    %eax,%eax
    1703:	89 e5                	mov    %esp,%ebp
    1705:	5d                   	pop    %ebp
    1706:	c3                   	ret    
    1707:	89 f6                	mov    %esi,%esi
    1709:	8d bc 27 00 00 00 00 	lea    0x0(%edi,%eiz,1),%edi

00001710 <usbmast_bd_get_block_size>:
    1710:	55                   	push   %ebp
    1711:	89 e5                	mov    %esp,%ebp
    1713:	8b 45 08             	mov    0x8(%ebp),%eax
    1716:	8b 00                	mov    (%eax),%eax
    1718:	8b 40 04             	mov    0x4(%eax),%eax
    171b:	8b 50 14             	mov    0x14(%eax),%edx
    171e:	8b 45 0c             	mov    0xc(%ebp),%eax
    1721:	89 10                	mov    %edx,(%eax)
    1723:	31 c0                	xor    %eax,%eax
    1725:	5d                   	pop    %ebp
    1726:	c3                   	ret    
    1727:	89 f6                	mov    %esi,%esi
    1729:	8d bc 27 00 00 00 00 	lea    0x0(%edi,%eiz,1),%edi

00001730 <usbmast_bd_get_num_blocks>:
    1730:	55                   	push   %ebp
    1731:	89 e5                	mov    %esp,%ebp
    1733:	53                   	push   %ebx
    1734:	8b 45 08             	mov    0x8(%ebp),%eax
    1737:	8b 00                	mov    (%eax),%eax
    1739:	8b 40 04             	mov    0x4(%eax),%eax
    173c:	8b 58 10             	mov    0x10(%eax),%ebx
    173f:	8b 48 0c             	mov    0xc(%eax),%ecx
    1742:	8b 45 0c             	mov    0xc(%ebp),%eax
    1745:	89 08                	mov    %ecx,(%eax)
    1747:	89 58 04             	mov    %ebx,0x4(%eax)
    174a:	5b                   	pop    %ebx
    174b:	31 c0                	xor    %eax,%eax
    174d:	5d                   	pop    %ebp
    174e:	c3                   	ret    
    174f:	90                   	nop

00001750 <usbmast_device_gone>:
    1750:	55                   	push   %ebp
    1751:	89 e5                	mov    %esp,%ebp
    1753:	57                   	push   %edi
    1754:	56                   	push   %esi
    1755:	53                   	push   %ebx
    1756:	83 ec 28             	sub    $0x28,%esp
    1759:	8b 75 08             	mov    0x8(%ebp),%esi
    175c:	56                   	push   %esi
    175d:	e8 4e 20 00 00       	call   37b0 <usb_device_data_get>
    1762:	83 c4 10             	add    $0x10,%esp
    1765:	85 c0                	test   %eax,%eax
    1767:	0f 84 99 00 00 00    	je     1806 <usbmast_device_gone+0xb6>
    176d:	8b 58 04             	mov    0x4(%eax),%ebx
    1770:	89 c7                	mov    %eax,%edi
    1772:	85 db                	test   %ebx,%ebx
    1774:	8b 40 08             	mov    0x8(%eax),%eax
    1777:	74 77                	je     17f0 <usbmast_device_gone+0xa0>
    1779:	31 db                	xor    %ebx,%ebx
    177b:	eb 25                	jmp    17a2 <usbmast_device_gone+0x52>
    177d:	8d 76 00             	lea    0x0(%esi),%esi
    1780:	8b 47 08             	mov    0x8(%edi),%eax
    1783:	83 ec 0c             	sub    $0xc,%esp
    1786:	43                   	inc    %ebx
    1787:	8b 04 30             	mov    (%eax,%esi,1),%eax
    178a:	50                   	push   %eax
    178b:	e8 90 4c 00 00       	call   6420 <ddf_fun_destroy>
    1790:	8b 47 08             	mov    0x8(%edi),%eax
    1793:	83 c4 10             	add    $0x10,%esp
    1796:	39 5f 04             	cmp    %ebx,0x4(%edi)
    1799:	c7 04 30 00 00 00 00 	movl   $0x0,(%eax,%esi,1)
    17a0:	76 4e                	jbe    17f0 <usbmast_device_gone+0xa0>
    17a2:	8d 34 9d 00 00 00 00 	lea    0x0(,%ebx,4),%esi
    17a9:	83 ec 0c             	sub    $0xc,%esp
    17ac:	8b 14 30             	mov    (%eax,%esi,1),%edx
    17af:	52                   	push   %edx
    17b0:	e8 cb 4e 00 00       	call   6680 <ddf_fun_unbind>
    17b5:	83 c4 10             	add    $0x10,%esp
    17b8:	85 c0                	test   %eax,%eax
    17ba:	74 c4                	je     1780 <usbmast_device_gone+0x30>
    17bc:	83 ec 0c             	sub    $0xc,%esp
    17bf:	89 45 e4             	mov    %eax,-0x1c(%ebp)
    17c2:	50                   	push   %eax
    17c3:	e8 f8 02 01 00       	call   11ac0 <str_error@plt>
    17c8:	89 04 24             	mov    %eax,(%esp)
    17cb:	53                   	push   %ebx
    17cc:	68 18 ef 00 00       	push   $0xef18
    17d1:	6a 01                	push   $0x1
    17d3:	6a ff                	push   $0xffffffff
    17d5:	e8 56 00 01 00       	call   11830 <log_msg@plt>
    17da:	8b 55 e4             	mov    -0x1c(%ebp),%edx
    17dd:	83 c4 20             	add    $0x20,%esp
    17e0:	8d 65 f4             	lea    -0xc(%ebp),%esp
    17e3:	89 d0                	mov    %edx,%eax
    17e5:	5b                   	pop    %ebx
    17e6:	5e                   	pop    %esi
    17e7:	5f                   	pop    %edi
    17e8:	5d                   	pop    %ebp
    17e9:	c3                   	ret    
    17ea:	8d b6 00 00 00 00    	lea    0x0(%esi),%esi
    17f0:	83 ec 0c             	sub    $0xc,%esp
    17f3:	50                   	push   %eax
    17f4:	e8 a7 03 01 00       	call   11ba0 <free@plt>
    17f9:	83 c4 10             	add    $0x10,%esp
    17fc:	8d 65 f4             	lea    -0xc(%ebp),%esp
    17ff:	31 c0                	xor    %eax,%eax
    1801:	5b                   	pop    %ebx
    1802:	5e                   	pop    %esi
    1803:	5f                   	pop    %edi
    1804:	5d                   	pop    %ebp
    1805:	c3                   	ret    
    1806:	51                   	push   %ecx
    1807:	6a 72                	push   $0x72
    1809:	68 80 ee 00 00       	push   $0xee80
    180e:	68 87 ee 00 00       	push   $0xee87
    1813:	e8 88 00 01 00       	call   118a0 <assert_abort@plt>
    1818:	90                   	nop
    1819:	8d b4 26 00 00 00 00 	lea    0x0(%esi,%eiz,1),%esi

00001820 <usbmast_device_add>:
    1820:	55                   	push   %ebp
    1821:	89 e5                	mov    %esp,%ebp
    1823:	57                   	push   %edi
    1824:	56                   	push   %esi
    1825:	53                   	push   %ebx
    1826:	83 ec 54             	sub    $0x54,%esp
    1829:	8b 45 08             	mov    0x8(%ebp),%eax
    182c:	68 1c f1 00 00       	push   $0xf11c
    1831:	50                   	push   %eax
    1832:	e8 89 14 00 00       	call   2cc0 <usb_device_get_mapped_ep_desc>
    1837:	8b 4d 08             	mov    0x8(%ebp),%ecx
    183a:	89 c6                	mov    %eax,%esi
    183c:	58                   	pop    %eax
    183d:	5a                   	pop    %edx
    183e:	68 04 f1 00 00       	push   $0xf104
    1843:	51                   	push   %ecx
    1844:	e8 77 14 00 00       	call   2cc0 <usb_device_get_mapped_ep_desc>
    1849:	83 c4 10             	add    $0x10,%esp
    184c:	85 f6                	test   %esi,%esi
    184e:	0f 84 f4 03 00 00    	je     1c48 <usbmast_device_add+0x428>
    1854:	89 c3                	mov    %eax,%ebx
    1856:	85 c0                	test   %eax,%eax
    1858:	0f 84 ea 03 00 00    	je     1c48 <usbmast_device_add+0x428>
    185e:	80 7e 30 00          	cmpb   $0x0,0x30(%esi)
    1862:	0f 84 e0 03 00 00    	je     1c48 <usbmast_device_add+0x428>
    1868:	80 78 30 00          	cmpb   $0x0,0x30(%eax)
    186c:	0f 84 d6 03 00 00    	je     1c48 <usbmast_device_add+0x428>
    1872:	8b 45 08             	mov    0x8(%ebp),%eax
    1875:	57                   	push   %edi
    1876:	57                   	push   %edi
    1877:	6a 14                	push   $0x14
    1879:	50                   	push   %eax
    187a:	e8 d1 1e 00 00       	call   3750 <usb_device_data_alloc>
    187f:	83 c4 10             	add    $0x10,%esp
    1882:	89 c7                	mov    %eax,%edi
    1884:	85 c0                	test   %eax,%eax
    1886:	0f 84 f7 03 00 00    	je     1c83 <usbmast_device_add+0x463>
    188c:	83 ec 0c             	sub    $0xc,%esp
    188f:	8b 45 08             	mov    0x8(%ebp),%eax
    1892:	89 07                	mov    %eax,(%edi)
    1894:	50                   	push   %eax
    1895:	e8 e6 1d 00 00       	call   3680 <usb_device_get_name>
    189a:	50                   	push   %eax
    189b:	68 60 ef 00 00       	push   $0xef60
    18a0:	6a 03                	push   $0x3
    18a2:	6a ff                	push   $0xffffffff
    18a4:	e8 87 ff 00 00       	call   11830 <log_msg@plt>
    18a9:	83 c4 14             	add    $0x14,%esp
    18ac:	8b 46 0c             	mov    0xc(%esi),%eax
    18af:	50                   	push   %eax
    18b0:	0f bf 06             	movswl (%esi),%eax
    18b3:	50                   	push   %eax
    18b4:	68 b8 ee 00 00       	push   $0xeeb8
    18b9:	6a 04                	push   $0x4
    18bb:	6a ff                	push   $0xffffffff
    18bd:	e8 6e ff 00 00       	call   11830 <log_msg@plt>
    18c2:	83 c4 14             	add    $0x14,%esp
    18c5:	8b 43 0c             	mov    0xc(%ebx),%eax
    18c8:	50                   	push   %eax
    18c9:	0f bf 03             	movswl (%ebx),%eax
    18cc:	50                   	push   %eax
    18cd:	68 84 ef 00 00       	push   $0xef84
    18d2:	6a 04                	push   $0x4
    18d4:	6a ff                	push   $0xffffffff
    18d6:	e8 55 ff 00 00       	call   11830 <log_msg@plt>
    18db:	83 c4 1c             	add    $0x1c,%esp
    18de:	68 d6 ee 00 00       	push   $0xeed6
    18e3:	6a 04                	push   $0x4
    18e5:	6a ff                	push   $0xffffffff
    18e7:	e8 44 ff 00 00       	call   11830 <log_msg@plt>
    18ec:	89 3c 24             	mov    %edi,(%esp)
    18ef:	e8 1c fd ff ff       	call   1610 <usb_masstor_get_lun_count>
    18f4:	89 47 04             	mov    %eax,0x4(%edi)
    18f7:	5a                   	pop    %edx
    18f8:	59                   	pop    %ecx
    18f9:	6a 04                	push   $0x4
    18fb:	50                   	push   %eax
    18fc:	e8 bf ff 00 00       	call   118c0 <calloc@plt>
    1901:	83 c4 10             	add    $0x10,%esp
    1904:	89 47 08             	mov    %eax,0x8(%edi)
    1907:	85 c0                	test   %eax,%eax
    1909:	0f 84 58 03 00 00    	je     1c67 <usbmast_device_add+0x447>
    190f:	8b 47 04             	mov    0x4(%edi),%eax
    1912:	89 77 0c             	mov    %esi,0xc(%edi)
    1915:	89 5f 10             	mov    %ebx,0x10(%edi)
    1918:	c7 45 b4 00 00 00 00 	movl   $0x0,-0x4c(%ebp)
    191f:	85 c0                	test   %eax,%eax
    1921:	0f 84 99 02 00 00    	je     1bc0 <usbmast_device_add+0x3a0>
    1927:	90                   	nop
    1928:	8b 75 b4             	mov    -0x4c(%ebp),%esi
    192b:	8d 45 b8             	lea    -0x48(%ebp),%eax
    192e:	c7 45 b8 00 00 00 00 	movl   $0x0,-0x48(%ebp)
    1935:	53                   	push   %ebx
    1936:	56                   	push   %esi
    1937:	68 e8 ee 00 00       	push   $0xeee8
    193c:	50                   	push   %eax
    193d:	e8 fe 00 01 00       	call   11a40 <asprintf@plt>
    1942:	83 c4 10             	add    $0x10,%esp
    1945:	85 c0                	test   %eax,%eax
    1947:	0f 88 bb 01 00 00    	js     1b08 <usbmast_device_add+0x2e8>
    194d:	50                   	push   %eax
    194e:	8b 45 b8             	mov    -0x48(%ebp),%eax
    1951:	8b 17                	mov    (%edi),%edx
    1953:	50                   	push   %eax
    1954:	6a 02                	push   $0x2
    1956:	52                   	push   %edx
    1957:	e8 64 1d 00 00       	call   36c0 <usb_device_ddf_fun_create>
    195c:	83 c4 10             	add    $0x10,%esp
    195f:	89 c3                	mov    %eax,%ebx
    1961:	85 c0                	test   %eax,%eax
    1963:	0f 84 8f 02 00 00    	je     1bf8 <usbmast_device_add+0x3d8>
    1969:	50                   	push   %eax
    196a:	50                   	push   %eax
    196b:	6a 20                	push   $0x20
    196d:	53                   	push   %ebx
    196e:	e8 2d 4a 00 00       	call   63a0 <ddf_fun_data_alloc>
    1973:	83 c4 10             	add    $0x10,%esp
    1976:	89 c6                	mov    %eax,%esi
    1978:	85 c0                	test   %eax,%eax
    197a:	0f 84 88 02 00 00    	je     1c08 <usbmast_device_add+0x3e8>
    1980:	83 ec 0c             	sub    $0xc,%esp
    1983:	89 58 04             	mov    %ebx,0x4(%eax)
    1986:	89 38                	mov    %edi,(%eax)
    1988:	8b 45 b4             	mov    -0x4c(%ebp),%eax
    198b:	89 46 08             	mov    %eax,0x8(%esi)
    198e:	8d 46 18             	lea    0x18(%esi),%eax
    1991:	50                   	push   %eax
    1992:	e8 79 ff 00 00       	call   11910 <bd_srvs_init@plt>
    1997:	c7 46 18 c0 3a 01 00 	movl   $0x13ac0,0x18(%esi)
    199e:	89 76 1c             	mov    %esi,0x1c(%esi)
    19a1:	58                   	pop    %eax
    19a2:	5a                   	pop    %edx
    19a3:	68 a0 1c 00 00       	push   $0x1ca0
    19a8:	53                   	push   %ebx
    19a9:	e8 c2 4e 00 00       	call   6870 <ddf_fun_set_conn_handler>
    19ae:	83 c4 0c             	add    $0xc,%esp
    19b1:	68 fc ee 00 00       	push   $0xeefc
    19b6:	6a 04                	push   $0x4
    19b8:	6a ff                	push   $0xffffffff
    19ba:	e8 71 fe 00 00       	call   11830 <log_msg@plt>
    19bf:	59                   	pop    %ecx
    19c0:	58                   	pop    %eax
    19c1:	8d 45 c4             	lea    -0x3c(%ebp),%eax
    19c4:	50                   	push   %eax
    19c5:	56                   	push   %esi
    19c6:	e8 05 04 00 00       	call   1dd0 <usbmast_inquiry>
    19cb:	83 c4 10             	add    $0x10,%esp
    19ce:	85 c0                	test   %eax,%eax
    19d0:	0f 85 fa 01 00 00    	jne    1bd0 <usbmast_device_add+0x3b0>
    19d6:	ba 8c ee 00 00       	mov    $0xee8c,%edx
    19db:	80 7d c8 00          	cmpb   $0x0,-0x38(%ebp)
    19df:	74 05                	je     19e6 <usbmast_device_add+0x1c6>
    19e1:	ba 90 ee 00 00       	mov    $0xee90,%edx
    19e6:	83 ec 0c             	sub    $0xc,%esp
    19e9:	8b 45 c4             	mov    -0x3c(%ebp),%eax
    19ec:	89 55 ac             	mov    %edx,-0x54(%ebp)
    19ef:	50                   	push   %eax
    19f0:	e8 cb 03 00 00       	call   1dc0 <usbmast_scsi_dev_type_str>
    19f5:	8b 0f                	mov    (%edi),%ecx
    19f7:	5a                   	pop    %edx
    19f8:	89 45 b0             	mov    %eax,-0x50(%ebp)
    19fb:	51                   	push   %ecx
    19fc:	e8 7f 1c 00 00       	call   3680 <usb_device_get_name>
    1a01:	5a                   	pop    %edx
    1a02:	8b 55 ac             	mov    -0x54(%ebp),%edx
    1a05:	59                   	pop    %ecx
    1a06:	8b 4d b0             	mov    -0x50(%ebp),%ecx
    1a09:	52                   	push   %edx
    1a0a:	8d 55 e3             	lea    -0x1d(%ebp),%edx
    1a0d:	51                   	push   %ecx
    1a0e:	52                   	push   %edx
    1a0f:	8d 55 c9             	lea    -0x37(%ebp),%edx
    1a12:	52                   	push   %edx
    1a13:	8d 55 d2             	lea    -0x2e(%ebp),%edx
    1a16:	52                   	push   %edx
    1a17:	8b 55 b4             	mov    -0x4c(%ebp),%edx
    1a1a:	52                   	push   %edx
    1a1b:	50                   	push   %eax
    1a1c:	68 0c f0 00 00       	push   $0xf00c
    1a21:	6a 03                	push   $0x3
    1a23:	6a ff                	push   $0xffffffff
    1a25:	e8 06 fe 00 00       	call   11830 <log_msg@plt>
    1a2a:	83 c4 2c             	add    $0x2c,%esp
    1a2d:	8d 45 c0             	lea    -0x40(%ebp),%eax
    1a30:	50                   	push   %eax
    1a31:	8d 45 bc             	lea    -0x44(%ebp),%eax
    1a34:	50                   	push   %eax
    1a35:	56                   	push   %esi
    1a36:	e8 a5 07 00 00       	call   21e0 <usbmast_read_capacity>
    1a3b:	83 c4 10             	add    $0x10,%esp
    1a3e:	85 c0                	test   %eax,%eax
    1a40:	0f 84 e2 00 00 00    	je     1b28 <usbmast_device_add+0x308>
    1a46:	83 ec 0c             	sub    $0xc,%esp
    1a49:	50                   	push   %eax
    1a4a:	e8 71 00 01 00       	call   11ac0 <str_error@plt>
    1a4f:	89 c6                	mov    %eax,%esi
    1a51:	58                   	pop    %eax
    1a52:	8b 07                	mov    (%edi),%eax
    1a54:	50                   	push   %eax
    1a55:	e8 26 1c 00 00       	call   3680 <usb_device_get_name>
    1a5a:	89 34 24             	mov    %esi,(%esp)
    1a5d:	50                   	push   %eax
    1a5e:	68 44 f0 00 00       	push   $0xf044
    1a63:	6a 02                	push   $0x2
    1a65:	6a ff                	push   $0xffffffff
    1a67:	be f6 fe ff ff       	mov    $0xfffffef6,%esi
    1a6c:	e8 bf fd 00 00       	call   11830 <log_msg@plt>
    1a71:	83 c4 20             	add    $0x20,%esp
    1a74:	83 ec 0c             	sub    $0xc,%esp
    1a77:	53                   	push   %ebx
    1a78:	e8 a3 49 00 00       	call   6420 <ddf_fun_destroy>
    1a7d:	83 c4 10             	add    $0x10,%esp
    1a80:	8b 45 b8             	mov    -0x48(%ebp),%eax
    1a83:	85 c0                	test   %eax,%eax
    1a85:	74 0c                	je     1a93 <usbmast_device_add+0x273>
    1a87:	83 ec 0c             	sub    $0xc,%esp
    1a8a:	50                   	push   %eax
    1a8b:	e8 10 01 01 00       	call   11ba0 <free@plt>
    1a90:	83 c4 10             	add    $0x10,%esp
    1a93:	8b 57 04             	mov    0x4(%edi),%edx
    1a96:	8b 4f 08             	mov    0x8(%edi),%ecx
    1a99:	85 d2                	test   %edx,%edx
    1a9b:	0f 84 8a 01 00 00    	je     1c2b <usbmast_device_add+0x40b>
    1aa1:	31 db                	xor    %ebx,%ebx
    1aa3:	89 75 b4             	mov    %esi,-0x4c(%ebp)
    1aa6:	eb 21                	jmp    1ac9 <usbmast_device_add+0x2a9>
    1aa8:	8b 47 08             	mov    0x8(%edi),%eax
    1aab:	83 ec 0c             	sub    $0xc,%esp
    1aae:	8b 04 30             	mov    (%eax,%esi,1),%eax
    1ab1:	50                   	push   %eax
    1ab2:	e8 69 49 00 00       	call   6420 <ddf_fun_destroy>
    1ab7:	8b 57 04             	mov    0x4(%edi),%edx
    1aba:	8b 4f 08             	mov    0x8(%edi),%ecx
    1abd:	83 c4 10             	add    $0x10,%esp
    1ac0:	43                   	inc    %ebx
    1ac1:	39 da                	cmp    %ebx,%edx
    1ac3:	0f 86 5f 01 00 00    	jbe    1c28 <usbmast_device_add+0x408>
    1ac9:	8d 34 9d 00 00 00 00 	lea    0x0(,%ebx,4),%esi
    1ad0:	8b 04 31             	mov    (%ecx,%esi,1),%eax
    1ad3:	85 c0                	test   %eax,%eax
    1ad5:	74 e9                	je     1ac0 <usbmast_device_add+0x2a0>
    1ad7:	83 ec 0c             	sub    $0xc,%esp
    1ada:	50                   	push   %eax
    1adb:	e8 a0 4b 00 00       	call   6680 <ddf_fun_unbind>
    1ae0:	83 c4 10             	add    $0x10,%esp
    1ae3:	85 c0                	test   %eax,%eax
    1ae5:	74 c1                	je     1aa8 <usbmast_device_add+0x288>
    1ae7:	83 ec 0c             	sub    $0xc,%esp
    1aea:	50                   	push   %eax
    1aeb:	e8 d0 ff 00 00       	call   11ac0 <str_error@plt>
    1af0:	89 04 24             	mov    %eax,(%esp)
    1af3:	53                   	push   %ebx
    1af4:	68 c4 f0 00 00       	push   $0xf0c4
    1af9:	6a 02                	push   $0x2
    1afb:	6a ff                	push   $0xffffffff
    1afd:	e8 2e fd 00 00       	call   11830 <log_msg@plt>
    1b02:	83 c4 20             	add    $0x20,%esp
    1b05:	eb a1                	jmp    1aa8 <usbmast_device_add+0x288>
    1b07:	90                   	nop
    1b08:	51                   	push   %ecx
    1b09:	68 ec ee 00 00       	push   $0xeeec
    1b0e:	6a 01                	push   $0x1
    1b10:	6a ff                	push   $0xffffffff
    1b12:	be fe ff ff ff       	mov    $0xfffffffe,%esi
    1b17:	e8 14 fd 00 00       	call   11830 <log_msg@plt>
    1b1c:	83 c4 10             	add    $0x10,%esp
    1b1f:	e9 5c ff ff ff       	jmp    1a80 <usbmast_device_add+0x260>
    1b24:	8d 74 26 00          	lea    0x0(%esi,%eiz,1),%esi
    1b28:	83 ec 0c             	sub    $0xc,%esp
    1b2b:	8b 45 c0             	mov    -0x40(%ebp),%eax
    1b2e:	50                   	push   %eax
    1b2f:	8b 45 bc             	mov    -0x44(%ebp),%eax
    1b32:	50                   	push   %eax
    1b33:	68 70 f0 00 00       	push   $0xf070
    1b38:	6a 03                	push   $0x3
    1b3a:	6a ff                	push   $0xffffffff
    1b3c:	e8 ef fc 00 00       	call   11830 <log_msg@plt>
    1b41:	8b 45 bc             	mov    -0x44(%ebp),%eax
    1b44:	83 c4 14             	add    $0x14,%esp
    1b47:	89 46 0c             	mov    %eax,0xc(%esi)
    1b4a:	8b 45 c0             	mov    -0x40(%ebp),%eax
    1b4d:	c7 46 10 00 00 00 00 	movl   $0x0,0x10(%esi)
    1b54:	89 46 14             	mov    %eax,0x14(%esi)
    1b57:	53                   	push   %ebx
    1b58:	e8 f3 49 00 00       	call   6550 <ddf_fun_bind>
    1b5d:	83 c4 10             	add    $0x10,%esp
    1b60:	85 c0                	test   %eax,%eax
    1b62:	74 2c                	je     1b90 <usbmast_device_add+0x370>
    1b64:	83 ec 0c             	sub    $0xc,%esp
    1b67:	89 c6                	mov    %eax,%esi
    1b69:	50                   	push   %eax
    1b6a:	e8 51 ff 00 00       	call   11ac0 <str_error@plt>
    1b6f:	89 04 24             	mov    %eax,(%esp)
    1b72:	8b 45 b8             	mov    -0x48(%ebp),%eax
    1b75:	50                   	push   %eax
    1b76:	68 9c f0 00 00       	push   $0xf09c
    1b7b:	6a 01                	push   $0x1
    1b7d:	6a ff                	push   $0xffffffff
    1b7f:	e8 ac fc 00 00       	call   11830 <log_msg@plt>
    1b84:	83 c4 20             	add    $0x20,%esp
    1b87:	e9 e8 fe ff ff       	jmp    1a74 <usbmast_device_add+0x254>
    1b8c:	8d 74 26 00          	lea    0x0(%esi,%eiz,1),%esi
    1b90:	52                   	push   %edx
    1b91:	52                   	push   %edx
    1b92:	68 08 ef 00 00       	push   $0xef08
    1b97:	53                   	push   %ebx
    1b98:	e8 03 4d 00 00       	call   68a0 <ddf_fun_add_to_category>
    1b9d:	8b 75 b8             	mov    -0x48(%ebp),%esi
    1ba0:	59                   	pop    %ecx
    1ba1:	56                   	push   %esi
    1ba2:	e8 f9 ff 00 00       	call   11ba0 <free@plt>
    1ba7:	8b 4d b4             	mov    -0x4c(%ebp),%ecx
    1baa:	8b 47 08             	mov    0x8(%edi),%eax
    1bad:	83 c4 10             	add    $0x10,%esp
    1bb0:	89 1c 88             	mov    %ebx,(%eax,%ecx,4)
    1bb3:	41                   	inc    %ecx
    1bb4:	89 4d b4             	mov    %ecx,-0x4c(%ebp)
    1bb7:	39 4f 04             	cmp    %ecx,0x4(%edi)
    1bba:	0f 87 68 fd ff ff    	ja     1928 <usbmast_device_add+0x108>
    1bc0:	31 f6                	xor    %esi,%esi
    1bc2:	8d 65 f4             	lea    -0xc(%ebp),%esp
    1bc5:	89 f0                	mov    %esi,%eax
    1bc7:	5b                   	pop    %ebx
    1bc8:	5e                   	pop    %esi
    1bc9:	5f                   	pop    %edi
    1bca:	5d                   	pop    %ebp
    1bcb:	c3                   	ret    
    1bcc:	8d 74 26 00          	lea    0x0(%esi,%eiz,1),%esi
    1bd0:	83 ec 0c             	sub    $0xc,%esp
    1bd3:	50                   	push   %eax
    1bd4:	e8 e7 fe 00 00       	call   11ac0 <str_error@plt>
    1bd9:	89 c6                	mov    %eax,%esi
    1bdb:	8b 07                	mov    (%edi),%eax
    1bdd:	59                   	pop    %ecx
    1bde:	50                   	push   %eax
    1bdf:	e8 9c 1a 00 00       	call   3680 <usb_device_get_name>
    1be4:	89 34 24             	mov    %esi,(%esp)
    1be7:	50                   	push   %eax
    1be8:	68 e8 ef 00 00       	push   $0xefe8
    1bed:	e9 71 fe ff ff       	jmp    1a63 <usbmast_device_add+0x243>
    1bf2:	8d b6 00 00 00 00    	lea    0x0(%esi),%esi
    1bf8:	8b 45 b8             	mov    -0x48(%ebp),%eax
    1bfb:	50                   	push   %eax
    1bfc:	68 c4 ef 00 00       	push   $0xefc4
    1c01:	e9 08 ff ff ff       	jmp    1b0e <usbmast_device_add+0x2ee>
    1c06:	66 90                	xchg   %ax,%ax
    1c08:	50                   	push   %eax
    1c09:	68 9a ee 00 00       	push   $0xee9a
    1c0e:	6a 01                	push   $0x1
    1c10:	6a ff                	push   $0xffffffff
    1c12:	be fe ff ff ff       	mov    $0xfffffffe,%esi
    1c17:	e8 14 fc 00 00       	call   11830 <log_msg@plt>
    1c1c:	83 c4 10             	add    $0x10,%esp
    1c1f:	e9 50 fe ff ff       	jmp    1a74 <usbmast_device_add+0x254>
    1c24:	8d 74 26 00          	lea    0x0(%esi,%eiz,1),%esi
    1c28:	8b 75 b4             	mov    -0x4c(%ebp),%esi
    1c2b:	83 ec 0c             	sub    $0xc,%esp
    1c2e:	51                   	push   %ecx
    1c2f:	e8 6c ff 00 00       	call   11ba0 <free@plt>
    1c34:	83 c4 10             	add    $0x10,%esp
    1c37:	8d 65 f4             	lea    -0xc(%ebp),%esp
    1c3a:	89 f0                	mov    %esi,%eax
    1c3c:	5b                   	pop    %ebx
    1c3d:	5e                   	pop    %esi
    1c3e:	5f                   	pop    %edi
    1c3f:	5d                   	pop    %ebp
    1c40:	c3                   	ret    
    1c41:	8d b4 26 00 00 00 00 	lea    0x0(%esi,%eiz,1),%esi
    1c48:	50                   	push   %eax
    1c49:	68 40 ef 00 00       	push   $0xef40
    1c4e:	6a 01                	push   $0x1
    1c50:	6a ff                	push   $0xffffffff
    1c52:	e8 d9 fb 00 00       	call   11830 <log_msg@plt>
    1c57:	83 c4 10             	add    $0x10,%esp
    1c5a:	8d 65 f4             	lea    -0xc(%ebp),%esp
    1c5d:	83 ce ff             	or     $0xffffffff,%esi
    1c60:	89 f0                	mov    %esi,%eax
    1c62:	5b                   	pop    %ebx
    1c63:	5e                   	pop    %esi
    1c64:	5f                   	pop    %edi
    1c65:	5d                   	pop    %ebp
    1c66:	c3                   	ret    
    1c67:	50                   	push   %eax
    1c68:	68 a4 ef 00 00       	push   $0xefa4
    1c6d:	6a 01                	push   $0x1
    1c6f:	6a ff                	push   $0xffffffff
    1c71:	be fe ff ff ff       	mov    $0xfffffffe,%esi
    1c76:	e8 b5 fb 00 00       	call   11830 <log_msg@plt>
    1c7b:	83 c4 10             	add    $0x10,%esp
    1c7e:	e9 10 fe ff ff       	jmp    1a93 <usbmast_device_add+0x273>
    1c83:	53                   	push   %ebx
    1c84:	68 9a ee 00 00       	push   $0xee9a
    1c89:	6a 01                	push   $0x1
    1c8b:	6a ff                	push   $0xffffffff
    1c8d:	be fe ff ff ff       	mov    $0xfffffffe,%esi
    1c92:	e8 99 fb 00 00       	call   11830 <log_msg@plt>
    1c97:	83 c4 10             	add    $0x10,%esp
    1c9a:	e9 23 ff ff ff       	jmp    1bc2 <usbmast_device_add+0x3a2>
    1c9f:	90                   	nop

00001ca0 <usbmast_bd_connection>:
    1ca0:	55                   	push   %ebp
    1ca1:	89 e5                	mov    %esp,%ebp
    1ca3:	56                   	push   %esi
    1ca4:	53                   	push   %ebx
    1ca5:	83 ec 0c             	sub    $0xc,%esp
    1ca8:	8b 45 10             	mov    0x10(%ebp),%eax
    1cab:	8b 5d 08             	mov    0x8(%ebp),%ebx
    1cae:	8b 75 0c             	mov    0xc(%ebp),%esi
    1cb1:	50                   	push   %eax
    1cb2:	e8 49 47 00 00       	call   6400 <ddf_fun_data_get>
    1cb7:	83 c0 18             	add    $0x18,%eax
    1cba:	89 75 0c             	mov    %esi,0xc(%ebp)
    1cbd:	89 5d 08             	mov    %ebx,0x8(%ebp)
    1cc0:	89 45 10             	mov    %eax,0x10(%ebp)
    1cc3:	83 c4 10             	add    $0x10,%esp
    1cc6:	8d 65 f8             	lea    -0x8(%ebp),%esp
    1cc9:	5b                   	pop    %ebx
    1cca:	5e                   	pop    %esi
    1ccb:	5d                   	pop    %ebp
    1ccc:	e9 4f fb 00 00       	jmp    11820 <bd_conn@plt>
    1cd1:	eb 0d                	jmp    1ce0 <usbmast_bd_write_blocks>
    1cd3:	90                   	nop
    1cd4:	90                   	nop
    1cd5:	90                   	nop
    1cd6:	90                   	nop
    1cd7:	90                   	nop
    1cd8:	90                   	nop
    1cd9:	90                   	nop
    1cda:	90                   	nop
    1cdb:	90                   	nop
    1cdc:	90                   	nop
    1cdd:	90                   	nop
    1cde:	90                   	nop
    1cdf:	90                   	nop

00001ce0 <usbmast_bd_write_blocks>:
    1ce0:	55                   	push   %ebp
    1ce1:	89 e5                	mov    %esp,%ebp
    1ce3:	57                   	push   %edi
    1ce4:	56                   	push   %esi
    1ce5:	53                   	push   %ebx
    1ce6:	8b 45 08             	mov    0x8(%ebp),%eax
    1ce9:	8b 55 14             	mov    0x14(%ebp),%edx
    1cec:	8b 00                	mov    (%eax),%eax
    1cee:	8b 40 04             	mov    0x4(%eax),%eax
    1cf1:	8b 70 14             	mov    0x14(%eax),%esi
    1cf4:	0f af f2             	imul   %edx,%esi
    1cf7:	3b 75 1c             	cmp    0x1c(%ebp),%esi
    1cfa:	77 0c                	ja     1d08 <usbmast_bd_write_blocks+0x28>
    1cfc:	5b                   	pop    %ebx
    1cfd:	89 45 08             	mov    %eax,0x8(%ebp)
    1d00:	5e                   	pop    %esi
    1d01:	5f                   	pop    %edi
    1d02:	5d                   	pop    %ebp
    1d03:	e9 18 07 00 00       	jmp    2420 <usbmast_write>
    1d08:	5b                   	pop    %ebx
    1d09:	b8 f2 ff ff ff       	mov    $0xfffffff2,%eax
    1d0e:	5e                   	pop    %esi
    1d0f:	5f                   	pop    %edi
    1d10:	5d                   	pop    %ebp
    1d11:	c3                   	ret    
    1d12:	8d b4 26 00 00 00 00 	lea    0x0(%esi,%eiz,1),%esi
    1d19:	8d bc 27 00 00 00 00 	lea    0x0(%edi,%eiz,1),%edi

00001d20 <usbmast_bd_sync_cache>:
    1d20:	55                   	push   %ebp
    1d21:	89 e5                	mov    %esp,%ebp
    1d23:	8b 45 08             	mov    0x8(%ebp),%eax
    1d26:	8b 00                	mov    (%eax),%eax
    1d28:	8b 40 04             	mov    0x4(%eax),%eax
    1d2b:	89 45 08             	mov    %eax,0x8(%ebp)
    1d2e:	5d                   	pop    %ebp
    1d2f:	e9 ec 07 00 00       	jmp    2520 <usbmast_sync_cache>
    1d34:	8d b6 00 00 00 00    	lea    0x0(%esi),%esi
    1d3a:	8d bf 00 00 00 00    	lea    0x0(%edi),%edi

00001d40 <usbmast_bd_read_blocks>:
    1d40:	55                   	push   %ebp
    1d41:	89 e5                	mov    %esp,%ebp
    1d43:	57                   	push   %edi
    1d44:	56                   	push   %esi
    1d45:	53                   	push   %ebx
    1d46:	8b 45 08             	mov    0x8(%ebp),%eax
    1d49:	8b 55 14             	mov    0x14(%ebp),%edx
    1d4c:	8b 00                	mov    (%eax),%eax
    1d4e:	8b 40 04             	mov    0x4(%eax),%eax
    1d51:	8b 70 14             	mov    0x14(%eax),%esi
    1d54:	0f af f2             	imul   %edx,%esi
    1d57:	3b 75 1c             	cmp    0x1c(%ebp),%esi
    1d5a:	77 0c                	ja     1d68 <usbmast_bd_read_blocks+0x28>
    1d5c:	5b                   	pop    %ebx
    1d5d:	89 45 08             	mov    %eax,0x8(%ebp)
    1d60:	5e                   	pop    %esi
    1d61:	5f                   	pop    %edi
    1d62:	5d                   	pop    %ebp
    1d63:	e9 88 05 00 00       	jmp    22f0 <usbmast_read>
    1d68:	5b                   	pop    %ebx
    1d69:	b8 f2 ff ff ff       	mov    $0xfffffff2,%eax
    1d6e:	5e                   	pop    %esi
    1d6f:	5f                   	pop    %edi
    1d70:	5d                   	pop    %ebp
    1d71:	c3                   	ret    
    1d72:	66 90                	xchg   %ax,%ax
    1d74:	66 90                	xchg   %ax,%ax
    1d76:	66 90                	xchg   %ax,%ax
    1d78:	66 90                	xchg   %ax,%ax
    1d7a:	66 90                	xchg   %ax,%ax
    1d7c:	66 90                	xchg   %ax,%ax
    1d7e:	66 90                	xchg   %ax,%ax

00001d80 <main>:
    1d80:	8d 4c 24 04          	lea    0x4(%esp),%ecx
    1d84:	83 e4 f0             	and    $0xfffffff0,%esp
    1d87:	ff 71 fc             	pushl  -0x4(%ecx)
    1d8a:	55                   	push   %ebp
    1d8b:	89 e5                	mov    %esp,%ebp
    1d8d:	51                   	push   %ecx
    1d8e:	83 ec 10             	sub    $0x10,%esp
    1d91:	68 0d ef 00 00       	push   $0xef0d
    1d96:	e8 a5 f9 00 00       	call   11740 <log_init@plt>
    1d9b:	58                   	pop    %eax
    1d9c:	5a                   	pop    %edx
    1d9d:	6a 03                	push   $0x3
    1d9f:	68 0d ef 00 00       	push   $0xef0d
    1da4:	e8 97 fa 00 00       	call   11840 <logctl_set_log_level@plt>
    1da9:	c7 04 24 ec f0 00 00 	movl   $0xf0ec,(%esp)
    1db0:	e8 8b 0a 00 00       	call   2840 <usb_driver_main>
    1db5:	8b 4d fc             	mov    -0x4(%ebp),%ecx
    1db8:	c9                   	leave  
    1db9:	8d 61 fc             	lea    -0x4(%ecx),%esp
    1dbc:	c3                   	ret    
    1dbd:	66 90                	xchg   %ax,%ax
    1dbf:	90                   	nop

00001dc0 <usbmast_scsi_dev_type_str>:
    1dc0:	55                   	push   %ebp
    1dc1:	89 e5                	mov    %esp,%ebp
    1dc3:	5d                   	pop    %ebp
    1dc4:	e9 77 ce 00 00       	jmp    ec40 <scsi_get_dev_type_str>
    1dc9:	8d b4 26 00 00 00 00 	lea    0x0(%esi,%eiz,1),%esi

00001dd0 <usbmast_inquiry>:
    1dd0:	55                   	push   %ebp
    1dd1:	89 e5                	mov    %esp,%ebp
    1dd3:	57                   	push   %edi
    1dd4:	56                   	push   %esi
    1dd5:	53                   	push   %ebx
    1dd6:	83 ec 60             	sub    $0x60,%esp
    1dd9:	8d 7d 9e             	lea    -0x62(%ebp),%edi
    1ddc:	8b 5d 0c             	mov    0xc(%ebp),%ebx
    1ddf:	8d 75 a4             	lea    -0x5c(%ebp),%esi
    1de2:	6a 06                	push   $0x6
    1de4:	6a 00                	push   $0x0
    1de6:	57                   	push   %edi
    1de7:	e8 f4 fb 00 00       	call   119e0 <memset@plt>
    1dec:	83 c4 0c             	add    $0xc,%esp
    1def:	c6 45 9e 12          	movb   $0x12,-0x62(%ebp)
    1df3:	66 c7 45 a1 00 24    	movw   $0x2400,-0x5f(%ebp)
    1df9:	6a 20                	push   $0x20
    1dfb:	6a 00                	push   $0x0
    1dfd:	56                   	push   %esi
    1dfe:	e8 dd fb 00 00       	call   119e0 <memset@plt>
    1e03:	83 c4 0c             	add    $0xc,%esp
    1e06:	8d 45 c4             	lea    -0x3c(%ebp),%eax
    1e09:	89 45 b4             	mov    %eax,-0x4c(%ebp)
    1e0c:	8b 45 08             	mov    0x8(%ebp),%eax
    1e0f:	56                   	push   %esi
    1e10:	89 7d a4             	mov    %edi,-0x5c(%ebp)
    1e13:	68 ef be ad de       	push   $0xdeadbeef
    1e18:	c7 45 a8 06 00 00 00 	movl   $0x6,-0x58(%ebp)
    1e1f:	50                   	push   %eax
    1e20:	c7 45 b8 24 00 00 00 	movl   $0x24,-0x48(%ebp)
    1e27:	e8 14 f3 ff ff       	call   1140 <usb_massstor_cmd>
    1e2c:	83 c4 10             	add    $0x10,%esp
    1e2f:	89 c6                	mov    %eax,%esi
    1e31:	85 c0                	test   %eax,%eax
    1e33:	75 73                	jne    1ea8 <usbmast_inquiry+0xd8>
    1e35:	8b 4d c0             	mov    -0x40(%ebp),%ecx
    1e38:	85 c9                	test   %ecx,%ecx
    1e3a:	0f 85 c0 00 00 00    	jne    1f00 <usbmast_inquiry+0x130>
    1e40:	8b 45 bc             	mov    -0x44(%ebp),%eax
    1e43:	83 f8 23             	cmp    $0x23,%eax
    1e46:	0f 86 94 00 00 00    	jbe    1ee0 <usbmast_inquiry+0x110>
    1e4c:	50                   	push   %eax
    1e4d:	6a 24                	push   $0x24
    1e4f:	6a 00                	push   $0x0
    1e51:	53                   	push   %ebx
    1e52:	e8 89 fb 00 00       	call   119e0 <memset@plt>
    1e57:	8d 45 cc             	lea    -0x34(%ebp),%eax
    1e5a:	c7 03 00 00 00 00    	movl   $0x0,(%ebx)
    1e60:	c6 43 04 00          	movb   $0x0,0x4(%ebx)
    1e64:	6a 08                	push   $0x8
    1e66:	50                   	push   %eax
    1e67:	8d 43 05             	lea    0x5(%ebx),%eax
    1e6a:	6a 09                	push   $0x9
    1e6c:	50                   	push   %eax
    1e6d:	e8 ee f9 00 00       	call   11860 <spascii_to_str@plt>
    1e72:	83 c4 20             	add    $0x20,%esp
    1e75:	8d 45 d4             	lea    -0x2c(%ebp),%eax
    1e78:	6a 10                	push   $0x10
    1e7a:	50                   	push   %eax
    1e7b:	8d 43 0e             	lea    0xe(%ebx),%eax
    1e7e:	6a 11                	push   $0x11
    1e80:	83 c3 1f             	add    $0x1f,%ebx
    1e83:	50                   	push   %eax
    1e84:	e8 d7 f9 00 00       	call   11860 <spascii_to_str@plt>
    1e89:	8d 45 e4             	lea    -0x1c(%ebp),%eax
    1e8c:	6a 04                	push   $0x4
    1e8e:	50                   	push   %eax
    1e8f:	6a 05                	push   $0x5
    1e91:	53                   	push   %ebx
    1e92:	e8 c9 f9 00 00       	call   11860 <spascii_to_str@plt>
    1e97:	83 c4 20             	add    $0x20,%esp
    1e9a:	8d 65 f4             	lea    -0xc(%ebp),%esp
    1e9d:	89 f0                	mov    %esi,%eax
    1e9f:	5b                   	pop    %ebx
    1ea0:	5e                   	pop    %esi
    1ea1:	5f                   	pop    %edi
    1ea2:	5d                   	pop    %ebp
    1ea3:	c3                   	ret    
    1ea4:	8d 74 26 00          	lea    0x0(%esi,%eiz,1),%esi
    1ea8:	83 ec 0c             	sub    $0xc,%esp
    1eab:	50                   	push   %eax
    1eac:	e8 0f fc 00 00       	call   11ac0 <str_error@plt>
    1eb1:	89 c3                	mov    %eax,%ebx
    1eb3:	8b 45 08             	mov    0x8(%ebp),%eax
    1eb6:	5f                   	pop    %edi
    1eb7:	8b 00                	mov    (%eax),%eax
    1eb9:	8b 00                	mov    (%eax),%eax
    1ebb:	50                   	push   %eax
    1ebc:	e8 bf 17 00 00       	call   3680 <usb_device_get_name>
    1ec1:	89 1c 24             	mov    %ebx,(%esp)
    1ec4:	50                   	push   %eax
    1ec5:	68 34 f1 00 00       	push   $0xf134
    1eca:	6a 01                	push   $0x1
    1ecc:	6a ff                	push   $0xffffffff
    1ece:	e8 5d f9 00 00       	call   11830 <log_msg@plt>
    1ed3:	83 c4 20             	add    $0x20,%esp
    1ed6:	8d 65 f4             	lea    -0xc(%ebp),%esp
    1ed9:	89 f0                	mov    %esi,%eax
    1edb:	5b                   	pop    %ebx
    1edc:	5e                   	pop    %esi
    1edd:	5f                   	pop    %edi
    1ede:	5d                   	pop    %ebp
    1edf:	c3                   	ret    
    1ee0:	50                   	push   %eax
    1ee1:	68 84 f1 00 00       	push   $0xf184
    1ee6:	6a 01                	push   $0x1
    1ee8:	6a ff                	push   $0xffffffff
    1eea:	be f6 fe ff ff       	mov    $0xfffffef6,%esi
    1eef:	e8 3c f9 00 00       	call   11830 <log_msg@plt>
    1ef4:	83 c4 10             	add    $0x10,%esp
    1ef7:	eb a1                	jmp    1e9a <usbmast_inquiry+0xca>
    1ef9:	8d b4 26 00 00 00 00 	lea    0x0(%esi,%eiz,1),%esi
    1f00:	8b 45 08             	mov    0x8(%ebp),%eax
    1f03:	83 ec 0c             	sub    $0xc,%esp
    1f06:	be f6 fe ff ff       	mov    $0xfffffef6,%esi
    1f0b:	8b 00                	mov    (%eax),%eax
    1f0d:	8b 10                	mov    (%eax),%edx
    1f0f:	52                   	push   %edx
    1f10:	e8 6b 17 00 00       	call   3680 <usb_device_get_name>
    1f15:	50                   	push   %eax
    1f16:	68 60 f1 00 00       	push   $0xf160
    1f1b:	6a 01                	push   $0x1
    1f1d:	6a ff                	push   $0xffffffff
    1f1f:	e8 0c f9 00 00       	call   11830 <log_msg@plt>
    1f24:	83 c4 20             	add    $0x20,%esp
    1f27:	e9 6e ff ff ff       	jmp    1e9a <usbmast_inquiry+0xca>
    1f2c:	8d 74 26 00          	lea    0x0(%esi,%eiz,1),%esi

00001f30 <usbmast_request_sense>:
    1f30:	55                   	push   %ebp
    1f31:	89 e5                	mov    %esp,%ebp
    1f33:	57                   	push   %edi
    1f34:	56                   	push   %esi
    1f35:	53                   	push   %ebx
    1f36:	83 ec 40             	sub    $0x40,%esp
    1f39:	8d 75 c2             	lea    -0x3e(%ebp),%esi
    1f3c:	8b 5d 10             	mov    0x10(%ebp),%ebx
    1f3f:	6a 06                	push   $0x6
    1f41:	6a 00                	push   $0x0
    1f43:	56                   	push   %esi
    1f44:	e8 97 fa 00 00       	call   119e0 <memset@plt>
    1f49:	83 c4 10             	add    $0x10,%esp
    1f4c:	c6 45 c2 03          	movb   $0x3,-0x3e(%ebp)
    1f50:	b8 fc 00 00 00       	mov    $0xfc,%eax
    1f55:	81 fb fc 00 00 00    	cmp    $0xfc,%ebx
    1f5b:	77 02                	ja     1f5f <usbmast_request_sense+0x2f>
    1f5d:	89 d8                	mov    %ebx,%eax
    1f5f:	8d 7d c8             	lea    -0x38(%ebp),%edi
    1f62:	88 45 c6             	mov    %al,-0x3a(%ebp)
    1f65:	50                   	push   %eax
    1f66:	6a 20                	push   $0x20
    1f68:	6a 00                	push   $0x0
    1f6a:	57                   	push   %edi
    1f6b:	e8 70 fa 00 00       	call   119e0 <memset@plt>
    1f70:	83 c4 0c             	add    $0xc,%esp
    1f73:	8b 45 0c             	mov    0xc(%ebp),%eax
    1f76:	57                   	push   %edi
    1f77:	89 45 d8             	mov    %eax,-0x28(%ebp)
    1f7a:	8b 45 08             	mov    0x8(%ebp),%eax
    1f7d:	68 ef be ad de       	push   $0xdeadbeef
    1f82:	89 5d dc             	mov    %ebx,-0x24(%ebp)
    1f85:	50                   	push   %eax
    1f86:	89 75 c8             	mov    %esi,-0x38(%ebp)
    1f89:	c7 45 cc 06 00 00 00 	movl   $0x6,-0x34(%ebp)
    1f90:	e8 ab f1 ff ff       	call   1140 <usb_massstor_cmd>
    1f95:	83 c4 10             	add    $0x10,%esp
    1f98:	89 c3                	mov    %eax,%ebx
    1f9a:	85 c0                	test   %eax,%eax
    1f9c:	75 32                	jne    1fd0 <usbmast_request_sense+0xa0>
    1f9e:	8b 45 e4             	mov    -0x1c(%ebp),%eax
    1fa1:	85 c0                	test   %eax,%eax
    1fa3:	75 2b                	jne    1fd0 <usbmast_request_sense+0xa0>
    1fa5:	8b 45 e0             	mov    -0x20(%ebp),%eax
    1fa8:	83 f8 11             	cmp    $0x11,%eax
    1fab:	77 51                	ja     1ffe <usbmast_request_sense+0xce>
    1fad:	8b 4d 0c             	mov    0xc(%ebp),%ecx
    1fb0:	52                   	push   %edx
    1fb1:	ba 12 00 00 00       	mov    $0x12,%edx
    1fb6:	29 c2                	sub    %eax,%edx
    1fb8:	01 c8                	add    %ecx,%eax
    1fba:	52                   	push   %edx
    1fbb:	6a 00                	push   $0x0
    1fbd:	50                   	push   %eax
    1fbe:	e8 1d fa 00 00       	call   119e0 <memset@plt>
    1fc3:	83 c4 10             	add    $0x10,%esp
    1fc6:	8d 65 f4             	lea    -0xc(%ebp),%esp
    1fc9:	89 d8                	mov    %ebx,%eax
    1fcb:	5b                   	pop    %ebx
    1fcc:	5e                   	pop    %esi
    1fcd:	5f                   	pop    %edi
    1fce:	5d                   	pop    %ebp
    1fcf:	c3                   	ret    
    1fd0:	83 ec 0c             	sub    $0xc,%esp
    1fd3:	53                   	push   %ebx
    1fd4:	e8 e7 fa 00 00       	call   11ac0 <str_error@plt>
    1fd9:	89 c6                	mov    %eax,%esi
    1fdb:	8b 45 08             	mov    0x8(%ebp),%eax
    1fde:	5f                   	pop    %edi
    1fdf:	8b 00                	mov    (%eax),%eax
    1fe1:	8b 00                	mov    (%eax),%eax
    1fe3:	50                   	push   %eax
    1fe4:	e8 97 16 00 00       	call   3680 <usb_device_get_name>
    1fe9:	89 34 24             	mov    %esi,(%esp)
    1fec:	50                   	push   %eax
    1fed:	68 ac f1 00 00       	push   $0xf1ac
    1ff2:	6a 01                	push   $0x1
    1ff4:	6a ff                	push   $0xffffffff
    1ff6:	e8 35 f8 00 00       	call   11830 <log_msg@plt>
    1ffb:	83 c4 20             	add    $0x20,%esp
    1ffe:	8d 65 f4             	lea    -0xc(%ebp),%esp
    2001:	89 d8                	mov    %ebx,%eax
    2003:	5b                   	pop    %ebx
    2004:	5e                   	pop    %esi
    2005:	5f                   	pop    %edi
    2006:	5d                   	pop    %ebp
    2007:	c3                   	ret    
    2008:	90                   	nop
    2009:	8d b4 26 00 00 00 00 	lea    0x0(%esi,%eiz,1),%esi

00002010 <usbmast_run_cmd>:
    2010:	55                   	push   %ebp
    2011:	89 e5                	mov    %esp,%ebp
    2013:	57                   	push   %edi
    2014:	56                   	push   %esi
    2015:	53                   	push   %ebx
    2016:	83 ec 5c             	sub    $0x5c,%esp
    2019:	89 c3                	mov    %eax,%ebx
    201b:	89 55 a4             	mov    %edx,-0x5c(%ebp)
    201e:	66 90                	xchg   %ax,%ax
    2020:	8d 45 b0             	lea    -0x50(%ebp),%eax
    2023:	51                   	push   %ecx
    2024:	6a 06                	push   $0x6
    2026:	6a 00                	push   $0x0
    2028:	50                   	push   %eax
    2029:	e8 b2 f9 00 00       	call   119e0 <memset@plt>
    202e:	83 c4 0c             	add    $0xc,%esp
    2031:	8d 45 c8             	lea    -0x38(%ebp),%eax
    2034:	c6 45 b0 00          	movb   $0x0,-0x50(%ebp)
    2038:	6a 20                	push   $0x20
    203a:	6a 00                	push   $0x0
    203c:	50                   	push   %eax
    203d:	e8 9e f9 00 00       	call   119e0 <memset@plt>
    2042:	83 c4 0c             	add    $0xc,%esp
    2045:	8d 45 b0             	lea    -0x50(%ebp),%eax
    2048:	89 45 c8             	mov    %eax,-0x38(%ebp)
    204b:	8d 45 c8             	lea    -0x38(%ebp),%eax
    204e:	50                   	push   %eax
    204f:	c7 45 cc 06 00 00 00 	movl   $0x6,-0x34(%ebp)
    2056:	68 ef be ad de       	push   $0xdeadbeef
    205b:	53                   	push   %ebx
    205c:	e8 df f0 ff ff       	call   1140 <usb_massstor_cmd>
    2061:	83 c4 10             	add    $0x10,%esp
    2064:	89 c7                	mov    %eax,%edi
    2066:	85 c0                	test   %eax,%eax
    2068:	0f 85 ea 00 00 00    	jne    2158 <usbmast_run_cmd+0x148>
    206e:	8b 45 e4             	mov    -0x1c(%ebp),%eax
    2071:	85 c0                	test   %eax,%eax
    2073:	74 1f                	je     2094 <usbmast_run_cmd+0x84>
    2075:	8b 03                	mov    (%ebx),%eax
    2077:	83 ec 0c             	sub    $0xc,%esp
    207a:	8b 00                	mov    (%eax),%eax
    207c:	50                   	push   %eax
    207d:	e8 fe 15 00 00       	call   3680 <usb_device_get_name>
    2082:	50                   	push   %eax
    2083:	68 00 f2 00 00       	push   $0xf200
    2088:	6a 02                	push   $0x2
    208a:	6a ff                	push   $0xffffffff
    208c:	e8 9f f7 00 00       	call   11830 <log_msg@plt>
    2091:	83 c4 20             	add    $0x20,%esp
    2094:	8b 55 a4             	mov    -0x5c(%ebp),%edx
    2097:	50                   	push   %eax
    2098:	52                   	push   %edx
    2099:	68 ef be ad de       	push   $0xdeadbeef
    209e:	53                   	push   %ebx
    209f:	e8 9c f0 ff ff       	call   1140 <usb_massstor_cmd>
    20a4:	83 c4 10             	add    $0x10,%esp
    20a7:	89 c7                	mov    %eax,%edi
    20a9:	85 c0                	test   %eax,%eax
    20ab:	0f 85 07 01 00 00    	jne    21b8 <usbmast_run_cmd+0x1a8>
    20b1:	8b 45 a4             	mov    -0x5c(%ebp),%eax
    20b4:	8b 40 1c             	mov    0x1c(%eax),%eax
    20b7:	85 c0                	test   %eax,%eax
    20b9:	74 7a                	je     2135 <usbmast_run_cmd+0x125>
    20bb:	8b 03                	mov    (%ebx),%eax
    20bd:	83 ec 0c             	sub    $0xc,%esp
    20c0:	8b 30                	mov    (%eax),%esi
    20c2:	56                   	push   %esi
    20c3:	e8 b8 15 00 00       	call   3680 <usb_device_get_name>
    20c8:	50                   	push   %eax
    20c9:	68 30 f2 00 00       	push   $0xf230
    20ce:	6a 01                	push   $0x1
    20d0:	6a ff                	push   $0xffffffff
    20d2:	e8 59 f7 00 00       	call   11830 <log_msg@plt>
    20d7:	83 c4 1c             	add    $0x1c,%esp
    20da:	8d 45 b6             	lea    -0x4a(%ebp),%eax
    20dd:	6a 12                	push   $0x12
    20df:	50                   	push   %eax
    20e0:	53                   	push   %ebx
    20e1:	e8 4a fe ff ff       	call   1f30 <usbmast_request_sense>
    20e6:	83 c4 10             	add    $0x10,%esp
    20e9:	85 c0                	test   %eax,%eax
    20eb:	0f 85 cf 00 00 00    	jne    21c0 <usbmast_run_cmd+0x1b0>
    20f1:	8a 45 b8             	mov    -0x48(%ebp),%al
    20f4:	83 ec 0c             	sub    $0xc,%esp
    20f7:	89 c6                	mov    %eax,%esi
    20f9:	31 c9                	xor    %ecx,%ecx
    20fb:	31 d2                	xor    %edx,%edx
    20fd:	83 e6 0f             	and    $0xf,%esi
    2100:	8a 4d c3             	mov    -0x3d(%ebp),%cl
    2103:	8a 55 c2             	mov    -0x3e(%ebp),%dl
    2106:	56                   	push   %esi
    2107:	89 4d 9c             	mov    %ecx,-0x64(%ebp)
    210a:	89 55 a0             	mov    %edx,-0x60(%ebp)
    210d:	e8 5e cb 00 00       	call   ec70 <scsi_get_sense_key_str>
    2112:	8b 4d 9c             	mov    -0x64(%ebp),%ecx
    2115:	8b 55 a0             	mov    -0x60(%ebp),%edx
    2118:	89 0c 24             	mov    %ecx,(%esp)
    211b:	52                   	push   %edx
    211c:	50                   	push   %eax
    211d:	56                   	push   %esi
    211e:	68 54 f2 00 00       	push   $0xf254
    2123:	e8 b8 f5 00 00       	call   116e0 <printf@plt>
    2128:	8a 45 b8             	mov    -0x48(%ebp),%al
    212b:	83 c4 20             	add    $0x20,%esp
    212e:	83 e0 0f             	and    $0xf,%eax
    2131:	3c 06                	cmp    $0x6,%al
    2133:	74 0b                	je     2140 <usbmast_run_cmd+0x130>
    2135:	8d 65 f4             	lea    -0xc(%ebp),%esp
    2138:	89 f8                	mov    %edi,%eax
    213a:	5b                   	pop    %ebx
    213b:	5e                   	pop    %esi
    213c:	5f                   	pop    %edi
    213d:	5d                   	pop    %ebp
    213e:	c3                   	ret    
    213f:	90                   	nop
    2140:	83 ec 0c             	sub    $0xc,%esp
    2143:	68 94 f2 00 00       	push   $0xf294
    2148:	e8 93 f5 00 00       	call   116e0 <printf@plt>
    214d:	83 c4 10             	add    $0x10,%esp
    2150:	e9 cb fe ff ff       	jmp    2020 <usbmast_run_cmd+0x10>
    2155:	8d 76 00             	lea    0x0(%esi),%esi
    2158:	83 ec 0c             	sub    $0xc,%esp
    215b:	50                   	push   %eax
    215c:	e8 5f f9 00 00       	call   11ac0 <str_error@plt>
    2161:	89 c6                	mov    %eax,%esi
    2163:	58                   	pop    %eax
    2164:	8b 03                	mov    (%ebx),%eax
    2166:	8b 10                	mov    (%eax),%edx
    2168:	52                   	push   %edx
    2169:	e8 12 15 00 00       	call   3680 <usb_device_get_name>
    216e:	89 34 24             	mov    %esi,(%esp)
    2171:	50                   	push   %eax
    2172:	68 d4 f1 00 00       	push   $0xf1d4
    2177:	6a 01                	push   $0x1
    2179:	6a ff                	push   $0xffffffff
    217b:	e8 b0 f6 00 00       	call   11830 <log_msg@plt>
    2180:	83 c4 14             	add    $0x14,%esp
    2183:	57                   	push   %edi
    2184:	e8 37 f9 00 00       	call   11ac0 <str_error@plt>
    2189:	89 c6                	mov    %eax,%esi
    218b:	58                   	pop    %eax
    218c:	8b 03                	mov    (%ebx),%eax
    218e:	8b 00                	mov    (%eax),%eax
    2190:	50                   	push   %eax
    2191:	e8 ea 14 00 00       	call   3680 <usb_device_get_name>
    2196:	89 34 24             	mov    %esi,(%esp)
    2199:	50                   	push   %eax
    219a:	68 34 f1 00 00       	push   $0xf134
    219f:	6a 01                	push   $0x1
    21a1:	6a ff                	push   $0xffffffff
    21a3:	e8 88 f6 00 00       	call   11830 <log_msg@plt>
    21a8:	83 c4 20             	add    $0x20,%esp
    21ab:	8d 65 f4             	lea    -0xc(%ebp),%esp
    21ae:	89 f8                	mov    %edi,%eax
    21b0:	5b                   	pop    %ebx
    21b1:	5e                   	pop    %esi
    21b2:	5f                   	pop    %edi
    21b3:	5d                   	pop    %ebp
    21b4:	c3                   	ret    
    21b5:	8d 76 00             	lea    0x0(%esi),%esi
    21b8:	83 ec 0c             	sub    $0xc,%esp
    21bb:	eb c6                	jmp    2183 <usbmast_run_cmd+0x173>
    21bd:	8d 76 00             	lea    0x0(%esi),%esi
    21c0:	51                   	push   %ecx
    21c1:	68 97 f4 00 00       	push   $0xf497
    21c6:	6a 01                	push   $0x1
    21c8:	6a ff                	push   $0xffffffff
    21ca:	bf f6 fe ff ff       	mov    $0xfffffef6,%edi
    21cf:	e8 5c f6 00 00       	call   11830 <log_msg@plt>
    21d4:	83 c4 10             	add    $0x10,%esp
    21d7:	e9 59 ff ff ff       	jmp    2135 <usbmast_run_cmd+0x125>
    21dc:	8d 74 26 00          	lea    0x0(%esi,%eiz,1),%esi

000021e0 <usbmast_read_capacity>:
    21e0:	55                   	push   %ebp
    21e1:	89 e5                	mov    %esp,%ebp
    21e3:	56                   	push   %esi
    21e4:	53                   	push   %ebx
    21e5:	83 ec 44             	sub    $0x44,%esp
    21e8:	8d 75 cc             	lea    -0x34(%ebp),%esi
    21eb:	8d 5d d8             	lea    -0x28(%ebp),%ebx
    21ee:	6a 0c                	push   $0xc
    21f0:	6a 00                	push   $0x0
    21f2:	56                   	push   %esi
    21f3:	e8 e8 f7 00 00       	call   119e0 <memset@plt>
    21f8:	83 c4 0c             	add    $0xc,%esp
    21fb:	c6 45 cc 25          	movb   $0x25,-0x34(%ebp)
    21ff:	6a 20                	push   $0x20
    2201:	6a 00                	push   $0x0
    2203:	53                   	push   %ebx
    2204:	e8 d7 f7 00 00       	call   119e0 <memset@plt>
    2209:	8d 45 c4             	lea    -0x3c(%ebp),%eax
    220c:	89 da                	mov    %ebx,%edx
    220e:	89 45 e8             	mov    %eax,-0x18(%ebp)
    2211:	8b 45 08             	mov    0x8(%ebp),%eax
    2214:	89 75 d8             	mov    %esi,-0x28(%ebp)
    2217:	c7 45 dc 0c 00 00 00 	movl   $0xc,-0x24(%ebp)
    221e:	c7 45 ec 08 00 00 00 	movl   $0x8,-0x14(%ebp)
    2225:	e8 e6 fd ff ff       	call   2010 <usbmast_run_cmd>
    222a:	83 c4 10             	add    $0x10,%esp
    222d:	89 c3                	mov    %eax,%ebx
    222f:	85 c0                	test   %eax,%eax
    2231:	75 35                	jne    2268 <usbmast_read_capacity+0x88>
    2233:	8b 55 f4             	mov    -0xc(%ebp),%edx
    2236:	85 d2                	test   %edx,%edx
    2238:	75 66                	jne    22a0 <usbmast_read_capacity+0xc0>
    223a:	8b 45 f0             	mov    -0x10(%ebp),%eax
    223d:	83 f8 07             	cmp    $0x7,%eax
    2240:	0f 86 8a 00 00 00    	jbe    22d0 <usbmast_read_capacity+0xf0>
    2246:	8b 45 c4             	mov    -0x3c(%ebp),%eax
    2249:	8b 55 0c             	mov    0xc(%ebp),%edx
    224c:	0f c8                	bswap  %eax
    224e:	40                   	inc    %eax
    224f:	89 02                	mov    %eax,(%edx)
    2251:	8b 45 c8             	mov    -0x38(%ebp),%eax
    2254:	8b 55 10             	mov    0x10(%ebp),%edx
    2257:	0f c8                	bswap  %eax
    2259:	89 02                	mov    %eax,(%edx)
    225b:	8d 65 f8             	lea    -0x8(%ebp),%esp
    225e:	89 d8                	mov    %ebx,%eax
    2260:	5b                   	pop    %ebx
    2261:	5e                   	pop    %esi
    2262:	5d                   	pop    %ebp
    2263:	c3                   	ret    
    2264:	8d 74 26 00          	lea    0x0(%esi,%eiz,1),%esi
    2268:	83 ec 0c             	sub    $0xc,%esp
    226b:	50                   	push   %eax
    226c:	e8 4f f8 00 00       	call   11ac0 <str_error@plt>
    2271:	89 c6                	mov    %eax,%esi
    2273:	8b 45 08             	mov    0x8(%ebp),%eax
    2276:	59                   	pop    %ecx
    2277:	8b 00                	mov    (%eax),%eax
    2279:	8b 00                	mov    (%eax),%eax
    227b:	50                   	push   %eax
    227c:	e8 ff 13 00 00       	call   3680 <usb_device_get_name>
    2281:	89 34 24             	mov    %esi,(%esp)
    2284:	50                   	push   %eax
    2285:	68 bc f2 00 00       	push   $0xf2bc
    228a:	6a 01                	push   $0x1
    228c:	6a ff                	push   $0xffffffff
    228e:	e8 9d f5 00 00       	call   11830 <log_msg@plt>
    2293:	83 c4 20             	add    $0x20,%esp
    2296:	8d 65 f8             	lea    -0x8(%ebp),%esp
    2299:	89 d8                	mov    %ebx,%eax
    229b:	5b                   	pop    %ebx
    229c:	5e                   	pop    %esi
    229d:	5d                   	pop    %ebp
    229e:	c3                   	ret    
    229f:	90                   	nop
    22a0:	8b 45 08             	mov    0x8(%ebp),%eax
    22a3:	83 ec 0c             	sub    $0xc,%esp
    22a6:	bb f6 fe ff ff       	mov    $0xfffffef6,%ebx
    22ab:	8b 00                	mov    (%eax),%eax
    22ad:	8b 00                	mov    (%eax),%eax
    22af:	50                   	push   %eax
    22b0:	e8 cb 13 00 00       	call   3680 <usb_device_get_name>
    22b5:	50                   	push   %eax
    22b6:	68 f4 f2 00 00       	push   $0xf2f4
    22bb:	6a 01                	push   $0x1
    22bd:	6a ff                	push   $0xffffffff
    22bf:	e8 6c f5 00 00       	call   11830 <log_msg@plt>
    22c4:	83 c4 20             	add    $0x20,%esp
    22c7:	eb 92                	jmp    225b <usbmast_read_capacity+0x7b>
    22c9:	8d b4 26 00 00 00 00 	lea    0x0(%esi,%eiz,1),%esi
    22d0:	50                   	push   %eax
    22d1:	68 24 f3 00 00       	push   $0xf324
    22d6:	6a 01                	push   $0x1
    22d8:	6a ff                	push   $0xffffffff
    22da:	bb f6 fe ff ff       	mov    $0xfffffef6,%ebx
    22df:	e8 4c f5 00 00       	call   11830 <log_msg@plt>
    22e4:	83 c4 10             	add    $0x10,%esp
    22e7:	e9 6f ff ff ff       	jmp    225b <usbmast_read_capacity+0x7b>
    22ec:	8d 74 26 00          	lea    0x0(%esi,%eiz,1),%esi

000022f0 <usbmast_read>:
    22f0:	55                   	push   %ebp
    22f1:	89 e5                	mov    %esp,%ebp
    22f3:	57                   	push   %edi
    22f4:	56                   	push   %esi
    22f5:	53                   	push   %ebx
    22f6:	83 ec 3c             	sub    $0x3c,%esp
    22f9:	8b 45 10             	mov    0x10(%ebp),%eax
    22fc:	8b 75 0c             	mov    0xc(%ebp),%esi
    22ff:	8b 5d 14             	mov    0x14(%ebp),%ebx
    2302:	85 c0                	test   %eax,%eax
    2304:	74 12                	je     2318 <usbmast_read+0x28>
    2306:	be fd ff ff ff       	mov    $0xfffffffd,%esi
    230b:	8d 65 f4             	lea    -0xc(%ebp),%esp
    230e:	89 f0                	mov    %esi,%eax
    2310:	5b                   	pop    %ebx
    2311:	5e                   	pop    %esi
    2312:	5f                   	pop    %edi
    2313:	5d                   	pop    %ebp
    2314:	c3                   	ret    
    2315:	8d 76 00             	lea    0x0(%esi),%esi
    2318:	81 fb ff ff 00 00    	cmp    $0xffff,%ebx
    231e:	77 e6                	ja     2306 <usbmast_read+0x16>
    2320:	8d 7d be             	lea    -0x42(%ebp),%edi
    2323:	50                   	push   %eax
    2324:	6a 0a                	push   $0xa
    2326:	6a 00                	push   $0x0
    2328:	57                   	push   %edi
    2329:	e8 b2 f6 00 00       	call   119e0 <memset@plt>
    232e:	0f ce                	bswap  %esi
    2330:	83 c4 0c             	add    $0xc,%esp
    2333:	89 d8                	mov    %ebx,%eax
    2335:	66 c1 c0 08          	rol    $0x8,%ax
    2339:	89 75 c0             	mov    %esi,-0x40(%ebp)
    233c:	8d 75 c8             	lea    -0x38(%ebp),%esi
    233f:	6a 20                	push   $0x20
    2341:	c6 45 be 28          	movb   $0x28,-0x42(%ebp)
    2345:	6a 00                	push   $0x0
    2347:	66 89 45 c5          	mov    %ax,-0x3b(%ebp)
    234b:	56                   	push   %esi
    234c:	e8 8f f6 00 00       	call   119e0 <memset@plt>
    2351:	8b 4d 08             	mov    0x8(%ebp),%ecx
    2354:	8b 45 18             	mov    0x18(%ebp),%eax
    2357:	89 45 d8             	mov    %eax,-0x28(%ebp)
    235a:	89 f2                	mov    %esi,%edx
    235c:	8b 41 14             	mov    0x14(%ecx),%eax
    235f:	89 7d c8             	mov    %edi,-0x38(%ebp)
    2362:	0f af c3             	imul   %ebx,%eax
    2365:	89 45 dc             	mov    %eax,-0x24(%ebp)
    2368:	89 c8                	mov    %ecx,%eax
    236a:	c7 45 cc 0a 00 00 00 	movl   $0xa,-0x34(%ebp)
    2371:	e8 9a fc ff ff       	call   2010 <usbmast_run_cmd>
    2376:	83 c4 10             	add    $0x10,%esp
    2379:	89 c6                	mov    %eax,%esi
    237b:	85 c0                	test   %eax,%eax
    237d:	75 39                	jne    23b8 <usbmast_read+0xc8>
    237f:	8b 7d e4             	mov    -0x1c(%ebp),%edi
    2382:	85 ff                	test   %edi,%edi
    2384:	75 6a                	jne    23f0 <usbmast_read+0x100>
    2386:	8b 55 08             	mov    0x8(%ebp),%edx
    2389:	8b 45 e0             	mov    -0x20(%ebp),%eax
    238c:	8b 4a 14             	mov    0x14(%edx),%ecx
    238f:	0f af d9             	imul   %ecx,%ebx
    2392:	39 d8                	cmp    %ebx,%eax
    2394:	0f 83 71 ff ff ff    	jae    230b <usbmast_read+0x1b>
    239a:	50                   	push   %eax
    239b:	68 a8 f3 00 00       	push   $0xf3a8
    23a0:	6a 01                	push   $0x1
    23a2:	6a ff                	push   $0xffffffff
    23a4:	be f6 fe ff ff       	mov    $0xfffffef6,%esi
    23a9:	e8 82 f4 00 00       	call   11830 <log_msg@plt>
    23ae:	83 c4 10             	add    $0x10,%esp
    23b1:	e9 55 ff ff ff       	jmp    230b <usbmast_read+0x1b>
    23b6:	66 90                	xchg   %ax,%ax
    23b8:	83 ec 0c             	sub    $0xc,%esp
    23bb:	50                   	push   %eax
    23bc:	e8 ff f6 00 00       	call   11ac0 <str_error@plt>
    23c1:	89 c3                	mov    %eax,%ebx
    23c3:	58                   	pop    %eax
    23c4:	8b 45 08             	mov    0x8(%ebp),%eax
    23c7:	8b 00                	mov    (%eax),%eax
    23c9:	8b 00                	mov    (%eax),%eax
    23cb:	50                   	push   %eax
    23cc:	e8 af 12 00 00       	call   3680 <usb_device_get_name>
    23d1:	89 1c 24             	mov    %ebx,(%esp)
    23d4:	50                   	push   %eax
    23d5:	68 54 f3 00 00       	push   $0xf354
    23da:	6a 01                	push   $0x1
    23dc:	6a ff                	push   $0xffffffff
    23de:	e8 4d f4 00 00       	call   11830 <log_msg@plt>
    23e3:	83 c4 20             	add    $0x20,%esp
    23e6:	8d 65 f4             	lea    -0xc(%ebp),%esp
    23e9:	89 f0                	mov    %esi,%eax
    23eb:	5b                   	pop    %ebx
    23ec:	5e                   	pop    %esi
    23ed:	5f                   	pop    %edi
    23ee:	5d                   	pop    %ebp
    23ef:	c3                   	ret    
    23f0:	8b 45 08             	mov    0x8(%ebp),%eax
    23f3:	83 ec 0c             	sub    $0xc,%esp
    23f6:	be f6 fe ff ff       	mov    $0xfffffef6,%esi
    23fb:	8b 00                	mov    (%eax),%eax
    23fd:	8b 18                	mov    (%eax),%ebx
    23ff:	53                   	push   %ebx
    2400:	e8 7b 12 00 00       	call   3680 <usb_device_get_name>
    2405:	50                   	push   %eax
    2406:	68 80 f3 00 00       	push   $0xf380
    240b:	6a 01                	push   $0x1
    240d:	6a ff                	push   $0xffffffff
    240f:	e8 1c f4 00 00       	call   11830 <log_msg@plt>
    2414:	83 c4 20             	add    $0x20,%esp
    2417:	e9 ef fe ff ff       	jmp    230b <usbmast_read+0x1b>
    241c:	8d 74 26 00          	lea    0x0(%esi,%eiz,1),%esi

00002420 <usbmast_write>:
    2420:	55                   	push   %ebp
    2421:	89 e5                	mov    %esp,%ebp
    2423:	57                   	push   %edi
    2424:	56                   	push   %esi
    2425:	53                   	push   %ebx
    2426:	83 ec 3c             	sub    $0x3c,%esp
    2429:	8b 4d 10             	mov    0x10(%ebp),%ecx
    242c:	8b 7d 0c             	mov    0xc(%ebp),%edi
    242f:	8b 5d 14             	mov    0x14(%ebp),%ebx
    2432:	85 c9                	test   %ecx,%ecx
    2434:	74 12                	je     2448 <usbmast_write+0x28>
    2436:	bb fd ff ff ff       	mov    $0xfffffffd,%ebx
    243b:	8d 65 f4             	lea    -0xc(%ebp),%esp
    243e:	89 d8                	mov    %ebx,%eax
    2440:	5b                   	pop    %ebx
    2441:	5e                   	pop    %esi
    2442:	5f                   	pop    %edi
    2443:	5d                   	pop    %ebp
    2444:	c3                   	ret    
    2445:	8d 76 00             	lea    0x0(%esi),%esi
    2448:	81 fb ff ff 00 00    	cmp    $0xffff,%ebx
    244e:	77 e6                	ja     2436 <usbmast_write+0x16>
    2450:	8d 75 be             	lea    -0x42(%ebp),%esi
    2453:	50                   	push   %eax
    2454:	6a 0a                	push   $0xa
    2456:	6a 00                	push   $0x0
    2458:	56                   	push   %esi
    2459:	e8 82 f5 00 00       	call   119e0 <memset@plt>
    245e:	0f cf                	bswap  %edi
    2460:	83 c4 0c             	add    $0xc,%esp
    2463:	89 d8                	mov    %ebx,%eax
    2465:	66 c1 c0 08          	rol    $0x8,%ax
    2469:	89 7d c0             	mov    %edi,-0x40(%ebp)
    246c:	8d 7d c8             	lea    -0x38(%ebp),%edi
    246f:	6a 20                	push   $0x20
    2471:	c6 45 be 2a          	movb   $0x2a,-0x42(%ebp)
    2475:	6a 00                	push   $0x0
    2477:	66 89 45 c5          	mov    %ax,-0x3b(%ebp)
    247b:	57                   	push   %edi
    247c:	e8 5f f5 00 00       	call   119e0 <memset@plt>
    2481:	8b 45 18             	mov    0x18(%ebp),%eax
    2484:	89 75 c8             	mov    %esi,-0x38(%ebp)
    2487:	89 45 d0             	mov    %eax,-0x30(%ebp)
    248a:	8b 45 08             	mov    0x8(%ebp),%eax
    248d:	c7 45 cc 0a 00 00 00 	movl   $0xa,-0x34(%ebp)
    2494:	8b 50 14             	mov    0x14(%eax),%edx
    2497:	0f af da             	imul   %edx,%ebx
    249a:	89 fa                	mov    %edi,%edx
    249c:	89 5d d4             	mov    %ebx,-0x2c(%ebp)
    249f:	e8 6c fb ff ff       	call   2010 <usbmast_run_cmd>
    24a4:	83 c4 10             	add    $0x10,%esp
    24a7:	89 c3                	mov    %eax,%ebx
    24a9:	85 c0                	test   %eax,%eax
    24ab:	75 33                	jne    24e0 <usbmast_write+0xc0>
    24ad:	8b 55 e4             	mov    -0x1c(%ebp),%edx
    24b0:	85 d2                	test   %edx,%edx
    24b2:	74 87                	je     243b <usbmast_write+0x1b>
    24b4:	8b 45 08             	mov    0x8(%ebp),%eax
    24b7:	83 ec 0c             	sub    $0xc,%esp
    24ba:	bb f6 fe ff ff       	mov    $0xfffffef6,%ebx
    24bf:	8b 00                	mov    (%eax),%eax
    24c1:	8b 00                	mov    (%eax),%eax
    24c3:	50                   	push   %eax
    24c4:	e8 b7 11 00 00       	call   3680 <usb_device_get_name>
    24c9:	50                   	push   %eax
    24ca:	68 00 f4 00 00       	push   $0xf400
    24cf:	6a 01                	push   $0x1
    24d1:	6a ff                	push   $0xffffffff
    24d3:	e8 58 f3 00 00       	call   11830 <log_msg@plt>
    24d8:	83 c4 20             	add    $0x20,%esp
    24db:	e9 5b ff ff ff       	jmp    243b <usbmast_write+0x1b>
    24e0:	83 ec 0c             	sub    $0xc,%esp
    24e3:	50                   	push   %eax
    24e4:	e8 d7 f5 00 00       	call   11ac0 <str_error@plt>
    24e9:	89 c7                	mov    %eax,%edi
    24eb:	8b 45 08             	mov    0x8(%ebp),%eax
    24ee:	59                   	pop    %ecx
    24ef:	8b 00                	mov    (%eax),%eax
    24f1:	8b 30                	mov    (%eax),%esi
    24f3:	56                   	push   %esi
    24f4:	e8 87 11 00 00       	call   3680 <usb_device_get_name>
    24f9:	89 3c 24             	mov    %edi,(%esp)
    24fc:	50                   	push   %eax
    24fd:	68 d0 f3 00 00       	push   $0xf3d0
    2502:	6a 01                	push   $0x1
    2504:	6a ff                	push   $0xffffffff
    2506:	e8 25 f3 00 00       	call   11830 <log_msg@plt>
    250b:	83 c4 20             	add    $0x20,%esp
    250e:	8d 65 f4             	lea    -0xc(%ebp),%esp
    2511:	89 d8                	mov    %ebx,%eax
    2513:	5b                   	pop    %ebx
    2514:	5e                   	pop    %esi
    2515:	5f                   	pop    %edi
    2516:	5d                   	pop    %ebp
    2517:	c3                   	ret    
    2518:	90                   	nop
    2519:	8d b4 26 00 00 00 00 	lea    0x0(%esi,%eiz,1),%esi

00002520 <usbmast_sync_cache>:
    2520:	55                   	push   %ebp
    2521:	89 e5                	mov    %esp,%ebp
    2523:	57                   	push   %edi
    2524:	53                   	push   %ebx
    2525:	83 ec 30             	sub    $0x30,%esp
    2528:	8b 4d 10             	mov    0x10(%ebp),%ecx
    252b:	8b 55 0c             	mov    0xc(%ebp),%edx
    252e:	8b 45 14             	mov    0x14(%ebp),%eax
    2531:	85 c9                	test   %ecx,%ecx
    2533:	74 13                	je     2548 <usbmast_sync_cache+0x28>
    2535:	b8 fd ff ff ff       	mov    $0xfffffffd,%eax
    253a:	8d 65 f8             	lea    -0x8(%ebp),%esp
    253d:	5b                   	pop    %ebx
    253e:	5f                   	pop    %edi
    253f:	5d                   	pop    %ebp
    2540:	c3                   	ret    
    2541:	8d b4 26 00 00 00 00 	lea    0x0(%esi,%eiz,1),%esi
    2548:	3d ff ff 00 00       	cmp    $0xffff,%eax
    254d:	77 e6                	ja     2535 <usbmast_sync_cache+0x15>
    254f:	66 c1 c0 08          	rol    $0x8,%ax
    2553:	c7 45 d2 00 00 00 00 	movl   $0x0,-0x2e(%ebp)
    255a:	66 c7 45 d6 00 00    	movw   $0x0,-0x2a(%ebp)
    2560:	8d 7d d8             	lea    -0x28(%ebp),%edi
    2563:	66 89 45 d5          	mov    %ax,-0x2b(%ebp)
    2567:	b9 08 00 00 00       	mov    $0x8,%ecx
    256c:	31 c0                	xor    %eax,%eax
    256e:	f3 ab                	rep stos %eax,%es:(%edi)
    2570:	0f ca                	bswap  %edx
    2572:	8d 45 ce             	lea    -0x32(%ebp),%eax
    2575:	c7 45 ce 00 00 00 00 	movl   $0x0,-0x32(%ebp)
    257c:	89 45 d8             	mov    %eax,-0x28(%ebp)
    257f:	89 55 d0             	mov    %edx,-0x30(%ebp)
    2582:	8b 45 08             	mov    0x8(%ebp),%eax
    2585:	8d 55 d8             	lea    -0x28(%ebp),%edx
    2588:	c6 45 ce 35          	movb   $0x35,-0x32(%ebp)
    258c:	c7 45 dc 0a 00 00 00 	movl   $0xa,-0x24(%ebp)
    2593:	e8 78 fa ff ff       	call   2010 <usbmast_run_cmd>
    2598:	89 c3                	mov    %eax,%ebx
    259a:	85 c0                	test   %eax,%eax
    259c:	75 12                	jne    25b0 <usbmast_sync_cache+0x90>
    259e:	8b 55 f4             	mov    -0xc(%ebp),%edx
    25a1:	85 d2                	test   %edx,%edx
    25a3:	75 43                	jne    25e8 <usbmast_sync_cache+0xc8>
    25a5:	8d 65 f8             	lea    -0x8(%ebp),%esp
    25a8:	31 c0                	xor    %eax,%eax
    25aa:	5b                   	pop    %ebx
    25ab:	5f                   	pop    %edi
    25ac:	5d                   	pop    %ebp
    25ad:	c3                   	ret    
    25ae:	66 90                	xchg   %ax,%ax
    25b0:	83 ec 0c             	sub    $0xc,%esp
    25b3:	50                   	push   %eax
    25b4:	e8 07 f5 00 00       	call   11ac0 <str_error@plt>
    25b9:	89 c7                	mov    %eax,%edi
    25bb:	8b 45 08             	mov    0x8(%ebp),%eax
    25be:	59                   	pop    %ecx
    25bf:	8b 00                	mov    (%eax),%eax
    25c1:	8b 00                	mov    (%eax),%eax
    25c3:	50                   	push   %eax
    25c4:	e8 b7 10 00 00       	call   3680 <usb_device_get_name>
    25c9:	89 3c 24             	mov    %edi,(%esp)
    25cc:	50                   	push   %eax
    25cd:	68 28 f4 00 00       	push   $0xf428
    25d2:	6a 01                	push   $0x1
    25d4:	6a ff                	push   $0xffffffff
    25d6:	e8 55 f2 00 00       	call   11830 <log_msg@plt>
    25db:	83 c4 20             	add    $0x20,%esp
    25de:	8d 65 f8             	lea    -0x8(%ebp),%esp
    25e1:	89 d8                	mov    %ebx,%eax
    25e3:	5b                   	pop    %ebx
    25e4:	5f                   	pop    %edi
    25e5:	5d                   	pop    %ebp
    25e6:	c3                   	ret    
    25e7:	90                   	nop
    25e8:	8b 45 08             	mov    0x8(%ebp),%eax
    25eb:	83 ec 0c             	sub    $0xc,%esp
    25ee:	8b 00                	mov    (%eax),%eax
    25f0:	8b 00                	mov    (%eax),%eax
    25f2:	50                   	push   %eax
    25f3:	e8 88 10 00 00       	call   3680 <usb_device_get_name>
    25f8:	50                   	push   %eax
    25f9:	68 64 f4 00 00       	push   $0xf464
    25fe:	6a 01                	push   $0x1
    2600:	6a ff                	push   $0xffffffff
    2602:	e8 29 f2 00 00       	call   11830 <log_msg@plt>
    2607:	83 c4 20             	add    $0x20,%esp
    260a:	b8 f6 fe ff ff       	mov    $0xfffffef6,%eax
    260f:	e9 26 ff ff ff       	jmp    253a <usbmast_sync_cache+0x1a>
    2614:	66 90                	xchg   %ax,%ax
    2616:	66 90                	xchg   %ax,%ax
    2618:	66 90                	xchg   %ax,%ax
    261a:	66 90                	xchg   %ax,%ax
    261c:	66 90                	xchg   %ax,%ax
    261e:	66 90                	xchg   %ax,%ax

00002620 <generic_device_add>:
    2620:	55                   	push   %ebp
    2621:	89 e5                	mov    %esp,%ebp
    2623:	57                   	push   %edi
    2624:	56                   	push   %esi
    2625:	53                   	push   %ebx
    2626:	83 ec 2c             	sub    $0x2c,%esp
    2629:	a1 70 3d 01 00       	mov    0x13d70,%eax
    262e:	8b 75 08             	mov    0x8(%ebp),%esi
    2631:	85 c0                	test   %eax,%eax
    2633:	0f 84 d5 00 00 00    	je     270e <generic_device_add+0xee>
    2639:	8b 50 08             	mov    0x8(%eax),%edx
    263c:	85 d2                	test   %edx,%edx
    263e:	0f 84 b8 00 00 00    	je     26fc <generic_device_add+0xdc>
    2644:	8b 12                	mov    (%edx),%edx
    2646:	85 d2                	test   %edx,%edx
    2648:	0f 84 9c 00 00 00    	je     26ea <generic_device_add+0xca>
    264e:	53                   	push   %ebx
    264f:	8d 55 e4             	lea    -0x1c(%ebp),%edx
    2652:	8b 78 04             	mov    0x4(%eax),%edi
    2655:	52                   	push   %edx
    2656:	c7 45 e4 00 00 00 00 	movl   $0x0,-0x1c(%ebp)
    265d:	57                   	push   %edi
    265e:	56                   	push   %esi
    265f:	e8 dc 07 00 00       	call   2e40 <usb_device_create_ddf>
    2664:	83 c4 10             	add    $0x10,%esp
    2667:	89 c3                	mov    %eax,%ebx
    2669:	85 c0                	test   %eax,%eax
    266b:	75 43                	jne    26b0 <generic_device_add+0x90>
    266d:	a1 70 3d 01 00       	mov    0x13d70,%eax
    2672:	83 ec 0c             	sub    $0xc,%esp
    2675:	8b 40 08             	mov    0x8(%eax),%eax
    2678:	8b 18                	mov    (%eax),%ebx
    267a:	56                   	push   %esi
    267b:	e8 20 3b 00 00       	call   61a0 <ddf_dev_data_get>
    2680:	89 04 24             	mov    %eax,(%esp)
    2683:	ff d3                	call   *%ebx
    2685:	83 c4 10             	add    $0x10,%esp
    2688:	89 c3                	mov    %eax,%ebx
    268a:	85 c0                	test   %eax,%eax
    268c:	75 0a                	jne    2698 <generic_device_add+0x78>
    268e:	8d 65 f4             	lea    -0xc(%ebp),%esp
    2691:	89 d8                	mov    %ebx,%eax
    2693:	5b                   	pop    %ebx
    2694:	5e                   	pop    %esi
    2695:	5f                   	pop    %edi
    2696:	5d                   	pop    %ebp
    2697:	c3                   	ret    
    2698:	83 ec 0c             	sub    $0xc,%esp
    269b:	56                   	push   %esi
    269c:	e8 6f 0b 00 00       	call   3210 <usb_device_destroy_ddf>
    26a1:	83 c4 10             	add    $0x10,%esp
    26a4:	8d 65 f4             	lea    -0xc(%ebp),%esp
    26a7:	89 d8                	mov    %ebx,%eax
    26a9:	5b                   	pop    %ebx
    26aa:	5e                   	pop    %esi
    26ab:	5f                   	pop    %edi
    26ac:	5d                   	pop    %ebp
    26ad:	c3                   	ret    
    26ae:	66 90                	xchg   %ax,%ax
    26b0:	83 ec 0c             	sub    $0xc,%esp
    26b3:	50                   	push   %eax
    26b4:	e8 07 f4 00 00       	call   11ac0 <str_error@plt>
    26b9:	89 34 24             	mov    %esi,(%esp)
    26bc:	8b 7d e4             	mov    -0x1c(%ebp),%edi
    26bf:	89 45 d4             	mov    %eax,-0x2c(%ebp)
    26c2:	e8 f9 3a 00 00       	call   61c0 <ddf_dev_get_name>
    26c7:	5a                   	pop    %edx
    26c8:	8b 55 d4             	mov    -0x2c(%ebp),%edx
    26cb:	59                   	pop    %ecx
    26cc:	52                   	push   %edx
    26cd:	57                   	push   %edi
    26ce:	50                   	push   %eax
    26cf:	68 f8 f4 00 00       	push   $0xf4f8
    26d4:	6a 01                	push   $0x1
    26d6:	6a ff                	push   $0xffffffff
    26d8:	e8 53 f1 00 00       	call   11830 <log_msg@plt>
    26dd:	83 c4 20             	add    $0x20,%esp
    26e0:	8d 65 f4             	lea    -0xc(%ebp),%esp
    26e3:	89 d8                	mov    %ebx,%eax
    26e5:	5b                   	pop    %ebx
    26e6:	5e                   	pop    %esi
    26e7:	5f                   	pop    %edi
    26e8:	5d                   	pop    %ebp
    26e9:	c3                   	ret    
    26ea:	50                   	push   %eax
    26eb:	6a 3a                	push   $0x3a
    26ed:	68 b3 f4 00 00       	push   $0xf4b3
    26f2:	68 d3 f4 00 00       	push   $0xf4d3
    26f7:	e8 a4 f1 00 00       	call   118a0 <assert_abort@plt>
    26fc:	51                   	push   %ecx
    26fd:	6a 39                	push   $0x39
    26ff:	68 b3 f4 00 00       	push   $0xf4b3
    2704:	68 c7 f4 00 00       	push   $0xf4c7
    2709:	e8 92 f1 00 00       	call   118a0 <assert_abort@plt>
    270e:	53                   	push   %ebx
    270f:	6a 38                	push   $0x38
    2711:	68 b3 f4 00 00       	push   $0xf4b3
    2716:	68 c0 f4 00 00       	push   $0xf4c0
    271b:	e8 80 f1 00 00       	call   118a0 <assert_abort@plt>

00002720 <generic_device_gone>:
    2720:	55                   	push   %ebp
    2721:	89 e5                	mov    %esp,%ebp
    2723:	53                   	push   %ebx
    2724:	83 ec 14             	sub    $0x14,%esp
    2727:	a1 70 3d 01 00       	mov    0x13d70,%eax
    272c:	8b 5d 08             	mov    0x8(%ebp),%ebx
    272f:	85 c0                	test   %eax,%eax
    2731:	74 5e                	je     2791 <generic_device_gone+0x71>
    2733:	8b 40 08             	mov    0x8(%eax),%eax
    2736:	85 c0                	test   %eax,%eax
    2738:	74 45                	je     277f <generic_device_gone+0x5f>
    273a:	8b 40 08             	mov    0x8(%eax),%eax
    273d:	85 c0                	test   %eax,%eax
    273f:	74 37                	je     2778 <generic_device_gone+0x58>
    2741:	83 ec 0c             	sub    $0xc,%esp
    2744:	53                   	push   %ebx
    2745:	e8 56 3a 00 00       	call   61a0 <ddf_dev_data_get>
    274a:	8b 15 70 3d 01 00    	mov    0x13d70,%edx
    2750:	8b 52 08             	mov    0x8(%edx),%edx
    2753:	89 04 24             	mov    %eax,(%esp)
    2756:	ff 52 08             	call   *0x8(%edx)
    2759:	83 c4 10             	add    $0x10,%esp
    275c:	85 c0                	test   %eax,%eax
    275e:	75 12                	jne    2772 <generic_device_gone+0x52>
    2760:	83 ec 0c             	sub    $0xc,%esp
    2763:	89 45 f4             	mov    %eax,-0xc(%ebp)
    2766:	53                   	push   %ebx
    2767:	e8 a4 0a 00 00       	call   3210 <usb_device_destroy_ddf>
    276c:	83 c4 10             	add    $0x10,%esp
    276f:	8b 45 f4             	mov    -0xc(%ebp),%eax
    2772:	8b 5d fc             	mov    -0x4(%ebp),%ebx
    2775:	c9                   	leave  
    2776:	c3                   	ret    
    2777:	90                   	nop
    2778:	b8 f5 ff ff ff       	mov    $0xfffffff5,%eax
    277d:	eb f3                	jmp    2772 <generic_device_gone+0x52>
    277f:	52                   	push   %edx
    2780:	6a 6c                	push   $0x6c
    2782:	68 b3 f4 00 00       	push   $0xf4b3
    2787:	68 c7 f4 00 00       	push   $0xf4c7
    278c:	e8 0f f1 00 00       	call   118a0 <assert_abort@plt>
    2791:	51                   	push   %ecx
    2792:	6a 6b                	push   $0x6b
    2794:	68 b3 f4 00 00       	push   $0xf4b3
    2799:	68 c0 f4 00 00       	push   $0xf4c0
    279e:	e8 fd f0 00 00       	call   118a0 <assert_abort@plt>
    27a3:	8d b6 00 00 00 00    	lea    0x0(%esi),%esi
    27a9:	8d bc 27 00 00 00 00 	lea    0x0(%edi,%eiz,1),%edi

000027b0 <generic_device_remove>:
    27b0:	55                   	push   %ebp
    27b1:	89 e5                	mov    %esp,%ebp
    27b3:	53                   	push   %ebx
    27b4:	83 ec 14             	sub    $0x14,%esp
    27b7:	a1 70 3d 01 00       	mov    0x13d70,%eax
    27bc:	8b 5d 08             	mov    0x8(%ebp),%ebx
    27bf:	85 c0                	test   %eax,%eax
    27c1:	74 5e                	je     2821 <generic_device_remove+0x71>
    27c3:	8b 40 08             	mov    0x8(%eax),%eax
    27c6:	85 c0                	test   %eax,%eax
    27c8:	74 45                	je     280f <generic_device_remove+0x5f>
    27ca:	8b 40 04             	mov    0x4(%eax),%eax
    27cd:	85 c0                	test   %eax,%eax
    27cf:	74 37                	je     2808 <generic_device_remove+0x58>
    27d1:	83 ec 0c             	sub    $0xc,%esp
    27d4:	53                   	push   %ebx
    27d5:	e8 c6 39 00 00       	call   61a0 <ddf_dev_data_get>
    27da:	8b 15 70 3d 01 00    	mov    0x13d70,%edx
    27e0:	8b 52 08             	mov    0x8(%edx),%edx
    27e3:	89 04 24             	mov    %eax,(%esp)
    27e6:	ff 52 04             	call   *0x4(%edx)
    27e9:	83 c4 10             	add    $0x10,%esp
    27ec:	85 c0                	test   %eax,%eax
    27ee:	75 12                	jne    2802 <generic_device_remove+0x52>
    27f0:	83 ec 0c             	sub    $0xc,%esp
    27f3:	89 45 f4             	mov    %eax,-0xc(%ebp)
    27f6:	53                   	push   %ebx
    27f7:	e8 14 0a 00 00       	call   3210 <usb_device_destroy_ddf>
    27fc:	83 c4 10             	add    $0x10,%esp
    27ff:	8b 45 f4             	mov    -0xc(%ebp),%eax
    2802:	8b 5d fc             	mov    -0x4(%ebp),%ebx
    2805:	c9                   	leave  
    2806:	c3                   	ret    
    2807:	90                   	nop
    2808:	b8 f5 ff ff ff       	mov    $0xfffffff5,%eax
    280d:	eb f3                	jmp    2802 <generic_device_remove+0x52>
    280f:	52                   	push   %edx
    2810:	6a 56                	push   $0x56
    2812:	68 b3 f4 00 00       	push   $0xf4b3
    2817:	68 c7 f4 00 00       	push   $0xf4c7
    281c:	e8 7f f0 00 00       	call   118a0 <assert_abort@plt>
    2821:	51                   	push   %ecx
    2822:	6a 55                	push   $0x55
    2824:	68 b3 f4 00 00       	push   $0xf4b3
    2829:	68 c0 f4 00 00       	push   $0xf4c0
    282e:	e8 6d f0 00 00       	call   118a0 <assert_abort@plt>
    2833:	8d b6 00 00 00 00    	lea    0x0(%esi),%esi
    2839:	8d bc 27 00 00 00 00 	lea    0x0(%edi,%eiz,1),%edi

00002840 <usb_driver_main>:
    2840:	55                   	push   %ebp
    2841:	89 e5                	mov    %esp,%ebp
    2843:	83 ec 08             	sub    $0x8,%esp
    2846:	8b 45 08             	mov    0x8(%ebp),%eax
    2849:	85 c0                	test   %eax,%eax
    284b:	74 1a                	je     2867 <usb_driver_main+0x27>
    284d:	8b 10                	mov    (%eax),%edx
    284f:	a3 70 3d 01 00       	mov    %eax,0x13d70
    2854:	89 15 ec 3a 01 00    	mov    %edx,0x13aec
    285a:	c7 45 08 ec 3a 01 00 	movl   $0x13aec,0x8(%ebp)
    2861:	c9                   	leave  
    2862:	e9 89 40 00 00       	jmp    68f0 <ddf_driver_main>
    2867:	50                   	push   %eax
    2868:	68 8a 00 00 00       	push   $0x8a
    286d:	68 b3 f4 00 00       	push   $0xf4b3
    2872:	68 eb f4 00 00       	push   $0xf4eb
    2877:	e8 24 f0 00 00       	call   118a0 <assert_abort@plt>
    287c:	66 90                	xchg   %ax,%ax
    287e:	66 90                	xchg   %ax,%ax

00002880 <usb_device_create_pipes>:
    2880:	55                   	push   %ebp
    2881:	89 e5                	mov    %esp,%ebp
    2883:	57                   	push   %edi
    2884:	56                   	push   %esi
    2885:	53                   	push   %ebx
    2886:	83 ec 1c             	sub    $0x1c,%esp
    2889:	8b 45 08             	mov    0x8(%ebp),%eax
    288c:	8b 55 0c             	mov    0xc(%ebp),%edx
    288f:	85 c0                	test   %eax,%eax
    2891:	0f 84 92 01 00 00    	je     2a29 <usb_device_create_pipes+0x1a9>
    2897:	8b 45 08             	mov    0x8(%ebp),%eax
    289a:	8b 70 50             	mov    0x50(%eax),%esi
    289d:	85 f6                	test   %esi,%esi
    289f:	0f 84 6f 01 00 00    	je     2a14 <usb_device_create_pipes+0x194>
    28a5:	8b 48 24             	mov    0x24(%eax),%ecx
    28a8:	85 c9                	test   %ecx,%ecx
    28aa:	0f 85 a3 01 00 00    	jne    2a53 <usb_device_create_pipes+0x1d3>
    28b0:	8b 58 28             	mov    0x28(%eax),%ebx
    28b3:	85 db                	test   %ebx,%ebx
    28b5:	0f 85 83 01 00 00    	jne    2a3e <usb_device_create_pipes+0x1be>
    28bb:	85 d2                	test   %edx,%edx
    28bd:	0f 84 0c 01 00 00    	je     29cf <usb_device_create_pipes+0x14f>
    28c3:	8b 02                	mov    (%edx),%eax
    28c5:	85 c0                	test   %eax,%eax
    28c7:	0f 84 02 01 00 00    	je     29cf <usb_device_create_pipes+0x14f>
    28cd:	8d 76 00             	lea    0x0(%esi),%esi
    28d0:	43                   	inc    %ebx
    28d1:	8b 04 9a             	mov    (%edx,%ebx,4),%eax
    28d4:	85 c0                	test   %eax,%eax
    28d6:	75 f8                	jne    28d0 <usb_device_create_pipes+0x50>
    28d8:	89 55 e0             	mov    %edx,-0x20(%ebp)
    28db:	50                   	push   %eax
    28dc:	50                   	push   %eax
    28dd:	6a 34                	push   $0x34
    28df:	53                   	push   %ebx
    28e0:	e8 db ef 00 00       	call   118c0 <calloc@plt>
    28e5:	83 c4 10             	add    $0x10,%esp
    28e8:	89 c1                	mov    %eax,%ecx
    28ea:	89 45 e4             	mov    %eax,-0x1c(%ebp)
    28ed:	85 c0                	test   %eax,%eax
    28ef:	0f 84 13 01 00 00    	je     2a08 <usb_device_create_pipes+0x188>
    28f5:	8b 45 08             	mov    0x8(%ebp),%eax
    28f8:	8b 55 e0             	mov    -0x20(%ebp),%edx
    28fb:	89 5d e0             	mov    %ebx,-0x20(%ebp)
    28fe:	8b 78 2c             	mov    0x2c(%eax),%edi
    2901:	8b 70 38             	mov    0x38(%eax),%esi
    2904:	89 d0                	mov    %edx,%eax
    2906:	8d 51 1c             	lea    0x1c(%ecx),%edx
    2909:	8d 0c 98             	lea    (%eax,%ebx,4),%ecx
    290c:	8d 74 26 00          	lea    0x0(%esi,%eiz,1),%esi
    2910:	8b 18                	mov    (%eax),%ebx
    2912:	83 c0 04             	add    $0x4,%eax
    2915:	89 1a                	mov    %ebx,(%edx)
    2917:	89 7a 04             	mov    %edi,0x4(%edx)
    291a:	89 72 08             	mov    %esi,0x8(%edx)
    291d:	83 c2 34             	add    $0x34,%edx
    2920:	39 c1                	cmp    %eax,%ecx
    2922:	75 ec                	jne    2910 <usb_device_create_pipes+0x90>
    2924:	8b 45 08             	mov    0x8(%ebp),%eax
    2927:	83 ec 0c             	sub    $0xc,%esp
    292a:	8b 5d e0             	mov    -0x20(%ebp),%ebx
    292d:	8b 30                	mov    (%eax),%esi
    292f:	8b 78 54             	mov    0x54(%eax),%edi
    2932:	56                   	push   %esi
    2933:	57                   	push   %edi
    2934:	8b 40 50             	mov    0x50(%eax),%eax
    2937:	50                   	push   %eax
    2938:	8b 45 e4             	mov    -0x1c(%ebp),%eax
    293b:	53                   	push   %ebx
    293c:	50                   	push   %eax
    293d:	e8 4e 14 00 00       	call   3d90 <usb_pipe_initialize_from_configuration>
    2942:	83 c4 20             	add    $0x20,%esp
    2945:	89 45 e0             	mov    %eax,-0x20(%ebp)
    2948:	85 c0                	test   %eax,%eax
    294a:	0f 85 8b 00 00 00    	jne    29db <usb_device_create_pipes+0x15b>
    2950:	8d 04 5b             	lea    (%ebx,%ebx,2),%eax
    2953:	8b 7d e4             	mov    -0x1c(%ebp),%edi
    2956:	89 7d dc             	mov    %edi,-0x24(%ebp)
    2959:	8d 04 83             	lea    (%ebx,%eax,4),%eax
    295c:	8d 34 87             	lea    (%edi,%eax,4),%esi
    295f:	eb 0e                	jmp    296f <usb_device_create_pipes+0xef>
    2961:	8d b4 26 00 00 00 00 	lea    0x0(%esi,%eiz,1),%esi
    2968:	83 c7 34             	add    $0x34,%edi
    296b:	39 fe                	cmp    %edi,%esi
    296d:	74 49                	je     29b8 <usb_device_create_pipes+0x138>
    296f:	80 7f 30 00          	cmpb   $0x0,0x30(%edi)
    2973:	74 f3                	je     2968 <usb_device_create_pipes+0xe8>
    2975:	52                   	push   %edx
    2976:	52                   	push   %edx
    2977:	8b 47 28             	mov    0x28(%edi),%eax
    297a:	8a 48 06             	mov    0x6(%eax),%cl
    297d:	81 e1 ff 00 00 00    	and    $0xff,%ecx
    2983:	51                   	push   %ecx
    2984:	57                   	push   %edi
    2985:	e8 d6 12 00 00       	call   3c60 <usb_pipe_register>
    298a:	83 c4 10             	add    $0x10,%esp
    298d:	85 c0                	test   %eax,%eax
    298f:	74 d7                	je     2968 <usb_device_create_pipes+0xe8>
    2991:	89 c7                	mov    %eax,%edi
    2993:	8b 5d dc             	mov    -0x24(%ebp),%ebx
    2996:	eb 07                	jmp    299f <usb_device_create_pipes+0x11f>
    2998:	83 c3 34             	add    $0x34,%ebx
    299b:	39 de                	cmp    %ebx,%esi
    299d:	74 50                	je     29ef <usb_device_create_pipes+0x16f>
    299f:	80 7b 30 00          	cmpb   $0x0,0x30(%ebx)
    29a3:	74 f3                	je     2998 <usb_device_create_pipes+0x118>
    29a5:	83 ec 0c             	sub    $0xc,%esp
    29a8:	53                   	push   %ebx
    29a9:	e8 52 13 00 00       	call   3d00 <usb_pipe_unregister>
    29ae:	83 c4 10             	add    $0x10,%esp
    29b1:	eb e5                	jmp    2998 <usb_device_create_pipes+0x118>
    29b3:	90                   	nop
    29b4:	8d 74 26 00          	lea    0x0(%esi,%eiz,1),%esi
    29b8:	8b 45 08             	mov    0x8(%ebp),%eax
    29bb:	8b 75 e4             	mov    -0x1c(%ebp),%esi
    29be:	89 70 24             	mov    %esi,0x24(%eax)
    29c1:	89 58 28             	mov    %ebx,0x28(%eax)
    29c4:	8b 45 e0             	mov    -0x20(%ebp),%eax
    29c7:	8d 65 f4             	lea    -0xc(%ebp),%esp
    29ca:	5b                   	pop    %ebx
    29cb:	5e                   	pop    %esi
    29cc:	5f                   	pop    %edi
    29cd:	5d                   	pop    %ebp
    29ce:	c3                   	ret    
    29cf:	c7 45 e0 00 00 00 00 	movl   $0x0,-0x20(%ebp)
    29d6:	8b 45 e0             	mov    -0x20(%ebp),%eax
    29d9:	eb ec                	jmp    29c7 <usb_device_create_pipes+0x147>
    29db:	83 ec 0c             	sub    $0xc,%esp
    29de:	8b 4d e4             	mov    -0x1c(%ebp),%ecx
    29e1:	51                   	push   %ecx
    29e2:	e8 b9 f1 00 00       	call   11ba0 <free@plt>
    29e7:	83 c4 10             	add    $0x10,%esp
    29ea:	8b 45 e0             	mov    -0x20(%ebp),%eax
    29ed:	eb d8                	jmp    29c7 <usb_device_create_pipes+0x147>
    29ef:	83 ec 0c             	sub    $0xc,%esp
    29f2:	8b 45 e4             	mov    -0x1c(%ebp),%eax
    29f5:	89 7d e0             	mov    %edi,-0x20(%ebp)
    29f8:	50                   	push   %eax
    29f9:	e8 a2 f1 00 00       	call   11ba0 <free@plt>
    29fe:	8b 55 e0             	mov    -0x20(%ebp),%edx
    2a01:	83 c4 10             	add    $0x10,%esp
    2a04:	89 d0                	mov    %edx,%eax
    2a06:	eb bf                	jmp    29c7 <usb_device_create_pipes+0x147>
    2a08:	c7 45 e0 fe ff ff ff 	movl   $0xfffffffe,-0x20(%ebp)
    2a0f:	8b 45 e0             	mov    -0x20(%ebp),%eax
    2a12:	eb b3                	jmp    29c7 <usb_device_create_pipes+0x147>
    2a14:	53                   	push   %ebx
    2a15:	68 df 00 00 00       	push   $0xdf
    2a1a:	68 1f f5 00 00       	push   $0xf51f
    2a1f:	68 e8 f5 00 00       	push   $0xf5e8
    2a24:	e8 77 ee 00 00       	call   118a0 <assert_abort@plt>
    2a29:	57                   	push   %edi
    2a2a:	68 de 00 00 00       	push   $0xde
    2a2f:	68 1f f5 00 00       	push   $0xf51f
    2a34:	68 2c f5 00 00       	push   $0xf52c
    2a39:	e8 62 ee 00 00       	call   118a0 <assert_abort@plt>
    2a3e:	50                   	push   %eax
    2a3f:	68 e1 00 00 00       	push   $0xe1
    2a44:	68 1f f5 00 00       	push   $0xf51f
    2a49:	68 4b f5 00 00       	push   $0xf54b
    2a4e:	e8 4d ee 00 00       	call   118a0 <assert_abort@plt>
    2a53:	52                   	push   %edx
    2a54:	68 e0 00 00 00       	push   $0xe0
    2a59:	68 1f f5 00 00       	push   $0xf51f
    2a5e:	68 34 f5 00 00       	push   $0xf534
    2a63:	e8 38 ee 00 00       	call   118a0 <assert_abort@plt>
    2a68:	90                   	nop
    2a69:	8d b4 26 00 00 00 00 	lea    0x0(%esi,%eiz,1),%esi

00002a70 <usb_device_select_interface>:
    2a70:	55                   	push   %ebp
    2a71:	89 e5                	mov    %esp,%ebp
    2a73:	57                   	push   %edi
    2a74:	56                   	push   %esi
    2a75:	53                   	push   %ebx
    2a76:	83 ec 1c             	sub    $0x1c,%esp
    2a79:	8b 75 08             	mov    0x8(%ebp),%esi
    2a7c:	8b 45 10             	mov    0x10(%ebp),%eax
    2a7f:	8b 5d 0c             	mov    0xc(%ebp),%ebx
    2a82:	89 45 e4             	mov    %eax,-0x1c(%ebp)
    2a85:	85 f6                	test   %esi,%esi
    2a87:	0f 84 05 01 00 00    	je     2b92 <usb_device_select_interface+0x122>
    2a8d:	8b 46 2c             	mov    0x2c(%esi),%eax
    2a90:	85 c0                	test   %eax,%eax
    2a92:	0f 88 f0 00 00 00    	js     2b88 <usb_device_select_interface+0x118>
    2a98:	25 ff 00 00 00       	and    $0xff,%eax
    2a9d:	81 e3 ff 00 00 00    	and    $0xff,%ebx
    2aa3:	57                   	push   %edi
    2aa4:	53                   	push   %ebx
    2aa5:	50                   	push   %eax
    2aa6:	8d 46 08             	lea    0x8(%esi),%eax
    2aa9:	50                   	push   %eax
    2aaa:	e8 81 1f 00 00       	call   4a30 <usb_request_set_interface>
    2aaf:	83 c4 10             	add    $0x10,%esp
    2ab2:	85 c0                	test   %eax,%eax
    2ab4:	74 0a                	je     2ac0 <usb_device_select_interface+0x50>
    2ab6:	8d 65 f4             	lea    -0xc(%ebp),%esp
    2ab9:	5b                   	pop    %ebx
    2aba:	5e                   	pop    %esi
    2abb:	5f                   	pop    %edi
    2abc:	5d                   	pop    %ebp
    2abd:	c3                   	ret    
    2abe:	66 90                	xchg   %ax,%ax
    2ac0:	8b 46 24             	mov    0x24(%esi),%eax
    2ac3:	89 5e 38             	mov    %ebx,0x38(%esi)
    2ac6:	85 c0                	test   %eax,%eax
    2ac8:	0f 84 9a 00 00 00    	je     2b68 <usb_device_select_interface+0xf8>
    2ace:	8b 4e 28             	mov    0x28(%esi),%ecx
    2ad1:	85 c9                	test   %ecx,%ecx
    2ad3:	74 61                	je     2b36 <usb_device_select_interface+0xc6>
    2ad5:	31 ff                	xor    %edi,%edi
    2ad7:	eb 0d                	jmp    2ae6 <usb_device_select_interface+0x76>
    2ad9:	8d b4 26 00 00 00 00 	lea    0x0(%esi,%eiz,1),%esi
    2ae0:	47                   	inc    %edi
    2ae1:	3b 7e 28             	cmp    0x28(%esi),%edi
    2ae4:	73 50                	jae    2b36 <usb_device_select_interface+0xc6>
    2ae6:	8d 0c 7f             	lea    (%edi,%edi,2),%ecx
    2ae9:	8d 1c 8f             	lea    (%edi,%ecx,4),%ebx
    2aec:	b9 65 f5 00 00       	mov    $0xf565,%ecx
    2af1:	c1 e3 02             	shl    $0x2,%ebx
    2af4:	80 7c 18 30 00       	cmpb   $0x0,0x30(%eax,%ebx,1)
    2af9:	74 05                	je     2b00 <usb_device_select_interface+0x90>
    2afb:	b9 04 12 01 00       	mov    $0x11204,%ecx
    2b00:	83 ec 0c             	sub    $0xc,%esp
    2b03:	51                   	push   %ecx
    2b04:	57                   	push   %edi
    2b05:	68 38 f6 00 00       	push   $0xf638
    2b0a:	6a 05                	push   $0x5
    2b0c:	6a ff                	push   $0xffffffff
    2b0e:	e8 1d ed 00 00       	call   11830 <log_msg@plt>
    2b13:	8b 46 24             	mov    0x24(%esi),%eax
    2b16:	83 c4 20             	add    $0x20,%esp
    2b19:	01 c3                	add    %eax,%ebx
    2b1b:	80 7b 30 00          	cmpb   $0x0,0x30(%ebx)
    2b1f:	74 bf                	je     2ae0 <usb_device_select_interface+0x70>
    2b21:	83 ec 0c             	sub    $0xc,%esp
    2b24:	47                   	inc    %edi
    2b25:	53                   	push   %ebx
    2b26:	e8 d5 11 00 00       	call   3d00 <usb_pipe_unregister>
    2b2b:	83 c4 10             	add    $0x10,%esp
    2b2e:	8b 46 24             	mov    0x24(%esi),%eax
    2b31:	3b 7e 28             	cmp    0x28(%esi),%edi
    2b34:	72 b0                	jb     2ae6 <usb_device_select_interface+0x76>
    2b36:	83 ec 0c             	sub    $0xc,%esp
    2b39:	50                   	push   %eax
    2b3a:	e8 61 f0 00 00       	call   11ba0 <free@plt>
    2b3f:	8b 45 e4             	mov    -0x1c(%ebp),%eax
    2b42:	c7 46 24 00 00 00 00 	movl   $0x0,0x24(%esi)
    2b49:	c7 46 28 00 00 00 00 	movl   $0x0,0x28(%esi)
    2b50:	83 c4 10             	add    $0x10,%esp
    2b53:	89 75 08             	mov    %esi,0x8(%ebp)
    2b56:	89 45 0c             	mov    %eax,0xc(%ebp)
    2b59:	8d 65 f4             	lea    -0xc(%ebp),%esp
    2b5c:	5b                   	pop    %ebx
    2b5d:	5e                   	pop    %esi
    2b5e:	5f                   	pop    %edi
    2b5f:	5d                   	pop    %ebp
    2b60:	e9 1b fd ff ff       	jmp    2880 <usb_device_create_pipes>
    2b65:	8d 76 00             	lea    0x0(%esi),%esi
    2b68:	8b 56 28             	mov    0x28(%esi),%edx
    2b6b:	85 d2                	test   %edx,%edx
    2b6d:	74 c7                	je     2b36 <usb_device_select_interface+0xc6>
    2b6f:	50                   	push   %eax
    2b70:	68 29 01 00 00       	push   $0x129
    2b75:	68 1f f5 00 00       	push   $0xf51f
    2b7a:	68 0c f6 00 00       	push   $0xf60c
    2b7f:	e8 1c ed 00 00       	call   118a0 <assert_abort@plt>
    2b84:	8d 74 26 00          	lea    0x0(%esi,%eiz,1),%esi
    2b88:	b8 f2 ff ff ff       	mov    $0xfffffff2,%eax
    2b8d:	e9 24 ff ff ff       	jmp    2ab6 <usb_device_select_interface+0x46>
    2b92:	50                   	push   %eax
    2b93:	68 88 00 00 00       	push   $0x88
    2b98:	68 1f f5 00 00       	push   $0xf51f
    2b9d:	68 2c f5 00 00       	push   $0xf52c
    2ba2:	e8 f9 ec 00 00       	call   118a0 <assert_abort@plt>
    2ba7:	89 f6                	mov    %esi,%esi
    2ba9:	8d bc 27 00 00 00 00 	lea    0x0(%edi,%eiz,1),%edi

00002bb0 <usb_device_destroy_pipes>:
    2bb0:	55                   	push   %ebp
    2bb1:	89 e5                	mov    %esp,%ebp
    2bb3:	57                   	push   %edi
    2bb4:	56                   	push   %esi
    2bb5:	53                   	push   %ebx
    2bb6:	83 ec 0c             	sub    $0xc,%esp
    2bb9:	8b 75 08             	mov    0x8(%ebp),%esi
    2bbc:	85 f6                	test   %esi,%esi
    2bbe:	0f 84 b0 00 00 00    	je     2c74 <usb_device_destroy_pipes+0xc4>
    2bc4:	8b 46 24             	mov    0x24(%esi),%eax
    2bc7:	85 c0                	test   %eax,%eax
    2bc9:	0f 84 89 00 00 00    	je     2c58 <usb_device_destroy_pipes+0xa8>
    2bcf:	8b 56 28             	mov    0x28(%esi),%edx
    2bd2:	85 d2                	test   %edx,%edx
    2bd4:	74 60                	je     2c36 <usb_device_destroy_pipes+0x86>
    2bd6:	31 ff                	xor    %edi,%edi
    2bd8:	eb 0c                	jmp    2be6 <usb_device_destroy_pipes+0x36>
    2bda:	8d b6 00 00 00 00    	lea    0x0(%esi),%esi
    2be0:	47                   	inc    %edi
    2be1:	39 7e 28             	cmp    %edi,0x28(%esi)
    2be4:	76 50                	jbe    2c36 <usb_device_destroy_pipes+0x86>
    2be6:	8d 14 7f             	lea    (%edi,%edi,2),%edx
    2be9:	8d 1c 97             	lea    (%edi,%edx,4),%ebx
    2bec:	ba 65 f5 00 00       	mov    $0xf565,%edx
    2bf1:	c1 e3 02             	shl    $0x2,%ebx
    2bf4:	80 7c 18 30 00       	cmpb   $0x0,0x30(%eax,%ebx,1)
    2bf9:	74 05                	je     2c00 <usb_device_destroy_pipes+0x50>
    2bfb:	ba 04 12 01 00       	mov    $0x11204,%edx
    2c00:	83 ec 0c             	sub    $0xc,%esp
    2c03:	52                   	push   %edx
    2c04:	57                   	push   %edi
    2c05:	68 38 f6 00 00       	push   $0xf638
    2c0a:	6a 05                	push   $0x5
    2c0c:	6a ff                	push   $0xffffffff
    2c0e:	e8 1d ec 00 00       	call   11830 <log_msg@plt>
    2c13:	8b 46 24             	mov    0x24(%esi),%eax
    2c16:	83 c4 20             	add    $0x20,%esp
    2c19:	01 c3                	add    %eax,%ebx
    2c1b:	80 7b 30 00          	cmpb   $0x0,0x30(%ebx)
    2c1f:	74 bf                	je     2be0 <usb_device_destroy_pipes+0x30>
    2c21:	83 ec 0c             	sub    $0xc,%esp
    2c24:	47                   	inc    %edi
    2c25:	53                   	push   %ebx
    2c26:	e8 d5 10 00 00       	call   3d00 <usb_pipe_unregister>
    2c2b:	83 c4 10             	add    $0x10,%esp
    2c2e:	8b 46 24             	mov    0x24(%esi),%eax
    2c31:	39 7e 28             	cmp    %edi,0x28(%esi)
    2c34:	77 b0                	ja     2be6 <usb_device_destroy_pipes+0x36>
    2c36:	83 ec 0c             	sub    $0xc,%esp
    2c39:	50                   	push   %eax
    2c3a:	e8 61 ef 00 00       	call   11ba0 <free@plt>
    2c3f:	c7 46 24 00 00 00 00 	movl   $0x0,0x24(%esi)
    2c46:	c7 46 28 00 00 00 00 	movl   $0x0,0x28(%esi)
    2c4d:	83 c4 10             	add    $0x10,%esp
    2c50:	8d 65 f4             	lea    -0xc(%ebp),%esp
    2c53:	5b                   	pop    %ebx
    2c54:	5e                   	pop    %esi
    2c55:	5f                   	pop    %edi
    2c56:	5d                   	pop    %ebp
    2c57:	c3                   	ret    
    2c58:	8b 4e 28             	mov    0x28(%esi),%ecx
    2c5b:	85 c9                	test   %ecx,%ecx
    2c5d:	74 d7                	je     2c36 <usb_device_destroy_pipes+0x86>
    2c5f:	50                   	push   %eax
    2c60:	68 29 01 00 00       	push   $0x129
    2c65:	68 1f f5 00 00       	push   $0xf51f
    2c6a:	68 0c f6 00 00       	push   $0xf60c
    2c6f:	e8 2c ec 00 00       	call   118a0 <assert_abort@plt>
    2c74:	53                   	push   %ebx
    2c75:	68 28 01 00 00       	push   $0x128
    2c7a:	68 1f f5 00 00       	push   $0xf51f
    2c7f:	68 2c f5 00 00       	push   $0xf52c
    2c84:	e8 17 ec 00 00       	call   118a0 <assert_abort@plt>
    2c89:	8d b4 26 00 00 00 00 	lea    0x0(%esi,%eiz,1),%esi

00002c90 <usb_device_get_default_pipe>:
    2c90:	55                   	push   %ebp
    2c91:	89 e5                	mov    %esp,%ebp
    2c93:	83 ec 08             	sub    $0x8,%esp
    2c96:	8b 45 08             	mov    0x8(%ebp),%eax
    2c99:	85 c0                	test   %eax,%eax
    2c9b:	74 05                	je     2ca2 <usb_device_get_default_pipe+0x12>
    2c9d:	83 c0 08             	add    $0x8,%eax
    2ca0:	c9                   	leave  
    2ca1:	c3                   	ret    
    2ca2:	50                   	push   %eax
    2ca3:	68 3a 01 00 00       	push   $0x13a
    2ca8:	68 1f f5 00 00       	push   $0xf51f
    2cad:	68 2c f5 00 00       	push   $0xf52c
    2cb2:	e8 e9 eb 00 00       	call   118a0 <assert_abort@plt>
    2cb7:	89 f6                	mov    %esi,%esi
    2cb9:	8d bc 27 00 00 00 00 	lea    0x0(%edi,%eiz,1),%edi

00002cc0 <usb_device_get_mapped_ep_desc>:
    2cc0:	55                   	push   %ebp
    2cc1:	89 e5                	mov    %esp,%ebp
    2cc3:	56                   	push   %esi
    2cc4:	53                   	push   %ebx
    2cc5:	8b 45 08             	mov    0x8(%ebp),%eax
    2cc8:	8b 75 0c             	mov    0xc(%ebp),%esi
    2ccb:	85 c0                	test   %eax,%eax
    2ccd:	74 31                	je     2d00 <usb_device_get_mapped_ep_desc+0x40>
    2ccf:	8b 58 28             	mov    0x28(%eax),%ebx
    2cd2:	85 db                	test   %ebx,%ebx
    2cd4:	74 21                	je     2cf7 <usb_device_get_mapped_ep_desc+0x37>
    2cd6:	8b 40 24             	mov    0x24(%eax),%eax
    2cd9:	3b 70 1c             	cmp    0x1c(%eax),%esi
    2cdc:	74 1b                	je     2cf9 <usb_device_get_mapped_ep_desc+0x39>
    2cde:	8d 50 34             	lea    0x34(%eax),%edx
    2ce1:	31 c9                	xor    %ecx,%ecx
    2ce3:	eb 0d                	jmp    2cf2 <usb_device_get_mapped_ep_desc+0x32>
    2ce5:	8d 76 00             	lea    0x0(%esi),%esi
    2ce8:	89 d0                	mov    %edx,%eax
    2cea:	83 c2 34             	add    $0x34,%edx
    2ced:	39 72 e8             	cmp    %esi,-0x18(%edx)
    2cf0:	74 07                	je     2cf9 <usb_device_get_mapped_ep_desc+0x39>
    2cf2:	41                   	inc    %ecx
    2cf3:	39 d9                	cmp    %ebx,%ecx
    2cf5:	75 f1                	jne    2ce8 <usb_device_get_mapped_ep_desc+0x28>
    2cf7:	31 c0                	xor    %eax,%eax
    2cf9:	8d 65 f8             	lea    -0x8(%ebp),%esp
    2cfc:	5b                   	pop    %ebx
    2cfd:	5e                   	pop    %esi
    2cfe:	5d                   	pop    %ebp
    2cff:	c3                   	ret    
    2d00:	50                   	push   %eax
    2d01:	68 41 01 00 00       	push   $0x141
    2d06:	68 1f f5 00 00       	push   $0xf51f
    2d0b:	68 2c f5 00 00       	push   $0xf52c
    2d10:	e8 8b eb 00 00       	call   118a0 <assert_abort@plt>
    2d15:	8d 74 26 00          	lea    0x0(%esi,%eiz,1),%esi
    2d19:	8d bc 27 00 00 00 00 	lea    0x0(%edi,%eiz,1),%edi

00002d20 <usb_device_get_mapped_ep>:
    2d20:	55                   	push   %ebp
    2d21:	89 e5                	mov    %esp,%ebp
    2d23:	56                   	push   %esi
    2d24:	53                   	push   %ebx
    2d25:	8b 45 08             	mov    0x8(%ebp),%eax
    2d28:	8b 55 0c             	mov    0xc(%ebp),%edx
    2d2b:	85 c0                	test   %eax,%eax
    2d2d:	74 32                	je     2d61 <usb_device_get_mapped_ep+0x41>
    2d2f:	8b 58 28             	mov    0x28(%eax),%ebx
    2d32:	85 db                	test   %ebx,%ebx
    2d34:	74 22                	je     2d58 <usb_device_get_mapped_ep+0x38>
    2d36:	8b 40 24             	mov    0x24(%eax),%eax
    2d39:	66 3b 10             	cmp    (%eax),%dx
    2d3c:	74 1c                	je     2d5a <usb_device_get_mapped_ep+0x3a>
    2d3e:	89 d6                	mov    %edx,%esi
    2d40:	31 c9                	xor    %ecx,%ecx
    2d42:	8d 50 34             	lea    0x34(%eax),%edx
    2d45:	eb 0c                	jmp    2d53 <usb_device_get_mapped_ep+0x33>
    2d47:	90                   	nop
    2d48:	89 d0                	mov    %edx,%eax
    2d4a:	83 c2 34             	add    $0x34,%edx
    2d4d:	66 39 72 cc          	cmp    %si,-0x34(%edx)
    2d51:	74 07                	je     2d5a <usb_device_get_mapped_ep+0x3a>
    2d53:	41                   	inc    %ecx
    2d54:	39 d9                	cmp    %ebx,%ecx
    2d56:	75 f0                	jne    2d48 <usb_device_get_mapped_ep+0x28>
    2d58:	31 c0                	xor    %eax,%eax
    2d5a:	8d 65 f8             	lea    -0x8(%ebp),%esp
    2d5d:	5b                   	pop    %ebx
    2d5e:	5e                   	pop    %esi
    2d5f:	5d                   	pop    %ebp
    2d60:	c3                   	ret    
    2d61:	50                   	push   %eax
    2d62:	68 4c 01 00 00       	push   $0x14c
    2d67:	68 1f f5 00 00       	push   $0xf51f
    2d6c:	68 2c f5 00 00       	push   $0xf52c
    2d71:	e8 2a eb 00 00       	call   118a0 <assert_abort@plt>
    2d76:	8d 76 00             	lea    0x0(%esi),%esi
    2d79:	8d bc 27 00 00 00 00 	lea    0x0(%edi,%eiz,1),%edi

00002d80 <usb_device_get_iface_number>:
    2d80:	55                   	push   %ebp
    2d81:	89 e5                	mov    %esp,%ebp
    2d83:	83 ec 08             	sub    $0x8,%esp
    2d86:	8b 45 08             	mov    0x8(%ebp),%eax
    2d89:	85 c0                	test   %eax,%eax
    2d8b:	74 05                	je     2d92 <usb_device_get_iface_number+0x12>
    2d8d:	8b 40 2c             	mov    0x2c(%eax),%eax
    2d90:	c9                   	leave  
    2d91:	c3                   	ret    
    2d92:	50                   	push   %eax
    2d93:	68 56 01 00 00       	push   $0x156
    2d98:	68 1f f5 00 00       	push   $0xf51f
    2d9d:	68 2c f5 00 00       	push   $0xf52c
    2da2:	e8 f9 ea 00 00       	call   118a0 <assert_abort@plt>
    2da7:	89 f6                	mov    %esi,%esi
    2da9:	8d bc 27 00 00 00 00 	lea    0x0(%edi,%eiz,1),%edi

00002db0 <usb_device_get_devman_handle>:
    2db0:	55                   	push   %ebp
    2db1:	89 e5                	mov    %esp,%ebp
    2db3:	83 ec 08             	sub    $0x8,%esp
    2db6:	8b 45 08             	mov    0x8(%ebp),%eax
    2db9:	85 c0                	test   %eax,%eax
    2dbb:	74 05                	je     2dc2 <usb_device_get_devman_handle+0x12>
    2dbd:	8b 40 04             	mov    0x4(%eax),%eax
    2dc0:	c9                   	leave  
    2dc1:	c3                   	ret    
    2dc2:	50                   	push   %eax
    2dc3:	68 5c 01 00 00       	push   $0x15c
    2dc8:	68 1f f5 00 00       	push   $0xf51f
    2dcd:	68 2c f5 00 00       	push   $0xf52c
    2dd2:	e8 c9 ea 00 00       	call   118a0 <assert_abort@plt>
    2dd7:	89 f6                	mov    %esi,%esi
    2dd9:	8d bc 27 00 00 00 00 	lea    0x0(%edi,%eiz,1),%edi

00002de0 <usb_device_descriptors>:
    2de0:	55                   	push   %ebp
    2de1:	89 e5                	mov    %esp,%ebp
    2de3:	83 ec 08             	sub    $0x8,%esp
    2de6:	8b 45 08             	mov    0x8(%ebp),%eax
    2de9:	85 c0                	test   %eax,%eax
    2deb:	74 05                	je     2df2 <usb_device_descriptors+0x12>
    2ded:	83 c0 3c             	add    $0x3c,%eax
    2df0:	c9                   	leave  
    2df1:	c3                   	ret    
    2df2:	50                   	push   %eax
    2df3:	68 62 01 00 00       	push   $0x162
    2df8:	68 1f f5 00 00       	push   $0xf51f
    2dfd:	68 2c f5 00 00       	push   $0xf52c
    2e02:	e8 99 ea 00 00       	call   118a0 <assert_abort@plt>
    2e07:	89 f6                	mov    %esi,%esi
    2e09:	8d bc 27 00 00 00 00 	lea    0x0(%edi,%eiz,1),%edi

00002e10 <usb_device_get_alternative_ifaces>:
    2e10:	55                   	push   %ebp
    2e11:	89 e5                	mov    %esp,%ebp
    2e13:	83 ec 08             	sub    $0x8,%esp
    2e16:	8b 45 08             	mov    0x8(%ebp),%eax
    2e19:	85 c0                	test   %eax,%eax
    2e1b:	74 05                	je     2e22 <usb_device_get_alternative_ifaces+0x12>
    2e1d:	83 c0 30             	add    $0x30,%eax
    2e20:	c9                   	leave  
    2e21:	c3                   	ret    
    2e22:	50                   	push   %eax
    2e23:	68 69 01 00 00       	push   $0x169
    2e28:	68 1f f5 00 00       	push   $0xf51f
    2e2d:	68 2c f5 00 00       	push   $0xf52c
    2e32:	e8 69 ea 00 00       	call   118a0 <assert_abort@plt>
    2e37:	89 f6                	mov    %esi,%esi
    2e39:	8d bc 27 00 00 00 00 	lea    0x0(%edi,%eiz,1),%edi

00002e40 <usb_device_create_ddf>:
    2e40:	55                   	push   %ebp
    2e41:	89 e5                	mov    %esp,%ebp
    2e43:	57                   	push   %edi
    2e44:	56                   	push   %esi
    2e45:	53                   	push   %ebx
    2e46:	83 ec 2c             	sub    $0x2c,%esp
    2e49:	8b 45 08             	mov    0x8(%ebp),%eax
    2e4c:	85 c0                	test   %eax,%eax
    2e4e:	0f 84 78 03 00 00    	je     31cc <usb_device_create_ddf+0x38c>
    2e54:	8b 75 10             	mov    0x10(%ebp),%esi
    2e57:	85 f6                	test   %esi,%esi
    2e59:	0f 84 82 03 00 00    	je     31e1 <usb_device_create_ddf+0x3a1>
    2e5f:	83 ec 0c             	sub    $0xc,%esp
    2e62:	8b 45 08             	mov    0x8(%ebp),%eax
    2e65:	c7 45 e0 00 00 00 00 	movl   $0x0,-0x20(%ebp)
    2e6c:	c7 45 e4 ff ff ff ff 	movl   $0xffffffff,-0x1c(%ebp)
    2e73:	50                   	push   %eax
    2e74:	e8 37 33 00 00       	call   61b0 <ddf_dev_get_handle>
    2e79:	5a                   	pop    %edx
    2e7a:	59                   	pop    %ecx
    2e7b:	6a 01                	push   $0x1
    2e7d:	50                   	push   %eax
    2e7e:	e8 9d e8 00 00       	call   11720 <devman_parent_device_connect@plt>
    2e83:	83 c4 10             	add    $0x10,%esp
    2e86:	89 c3                	mov    %eax,%ebx
    2e88:	85 c0                	test   %eax,%eax
    2e8a:	0f 84 d0 02 00 00    	je     3160 <usb_device_create_ddf+0x320>
    2e90:	83 ec 0c             	sub    $0xc,%esp
    2e93:	50                   	push   %eax
    2e94:	e8 17 ec 00 00       	call   11ab0 <async_exchange_begin@plt>
    2e99:	83 c4 10             	add    $0x10,%esp
    2e9c:	89 c7                	mov    %eax,%edi
    2e9e:	85 c0                	test   %eax,%eax
    2ea0:	0f 84 ca 02 00 00    	je     3170 <usb_device_create_ddf+0x330>
    2ea6:	50                   	push   %eax
    2ea7:	50                   	push   %eax
    2ea8:	8d 45 e0             	lea    -0x20(%ebp),%eax
    2eab:	50                   	push   %eax
    2eac:	57                   	push   %edi
    2ead:	e8 7e 9e 00 00       	call   cd30 <usb_get_my_device_handle>
    2eb2:	83 c4 10             	add    $0x10,%esp
    2eb5:	89 c6                	mov    %eax,%esi
    2eb7:	85 c0                	test   %eax,%eax
    2eb9:	74 25                	je     2ee0 <usb_device_create_ddf+0xa0>
    2ebb:	83 ec 0c             	sub    $0xc,%esp
    2ebe:	57                   	push   %edi
    2ebf:	e8 cc e9 00 00       	call   11890 <async_exchange_end@plt>
    2ec4:	89 1c 24             	mov    %ebx,(%esp)
    2ec7:	e8 24 e8 00 00       	call   116f0 <async_hangup@plt>
    2ecc:	83 c4 10             	add    $0x10,%esp
    2ecf:	8d 65 f4             	lea    -0xc(%ebp),%esp
    2ed2:	89 f0                	mov    %esi,%eax
    2ed4:	5b                   	pop    %ebx
    2ed5:	5e                   	pop    %esi
    2ed6:	5f                   	pop    %edi
    2ed7:	5d                   	pop    %ebp
    2ed8:	c3                   	ret    
    2ed9:	8d b4 26 00 00 00 00 	lea    0x0(%esi,%eiz,1),%esi
    2ee0:	8d 45 e4             	lea    -0x1c(%ebp),%eax
    2ee3:	56                   	push   %esi
    2ee4:	56                   	push   %esi
    2ee5:	50                   	push   %eax
    2ee6:	57                   	push   %edi
    2ee7:	e8 f4 9d 00 00       	call   cce0 <usb_get_my_interface>
    2eec:	83 c4 10             	add    $0x10,%esp
    2eef:	89 c6                	mov    %eax,%esi
    2ef1:	83 f8 f5             	cmp    $0xfffffff5,%eax
    2ef4:	0f 84 d6 01 00 00    	je     30d0 <usb_device_create_ddf+0x290>
    2efa:	83 ec 0c             	sub    $0xc,%esp
    2efd:	57                   	push   %edi
    2efe:	e8 8d e9 00 00       	call   11890 <async_exchange_end@plt>
    2f03:	89 1c 24             	mov    %ebx,(%esp)
    2f06:	e8 e5 e7 00 00       	call   116f0 <async_hangup@plt>
    2f0b:	83 c4 10             	add    $0x10,%esp
    2f0e:	85 f6                	test   %esi,%esi
    2f10:	75 bd                	jne    2ecf <usb_device_create_ddf+0x8f>
    2f12:	8b 5d 08             	mov    0x8(%ebp),%ebx
    2f15:	51                   	push   %ecx
    2f16:	51                   	push   %ecx
    2f17:	6a 60                	push   $0x60
    2f19:	53                   	push   %ebx
    2f1a:	e8 41 32 00 00       	call   6160 <ddf_dev_data_alloc>
    2f1f:	83 c4 10             	add    $0x10,%esp
    2f22:	89 c3                	mov    %eax,%ebx
    2f24:	85 c0                	test   %eax,%eax
    2f26:	0f 84 5a 02 00 00    	je     3186 <usb_device_create_ddf+0x346>
    2f2c:	8b 4d 10             	mov    0x10(%ebp),%ecx
    2f2f:	83 ec 0c             	sub    $0xc,%esp
    2f32:	8b 45 e0             	mov    -0x20(%ebp),%eax
    2f35:	8b 55 e4             	mov    -0x1c(%ebp),%edx
    2f38:	c7 01 00 00 00 00    	movl   $0x0,(%ecx)
    2f3e:	8b 4d 08             	mov    0x8(%ebp),%ecx
    2f41:	89 4b 58             	mov    %ecx,0x58(%ebx)
    2f44:	89 43 04             	mov    %eax,0x4(%ebx)
    2f47:	89 53 2c             	mov    %edx,0x2c(%ebx)
    2f4a:	c7 43 5c 00 00 00 00 	movl   $0x0,0x5c(%ebx)
    2f51:	c7 43 50 00 00 00 00 	movl   $0x0,0x50(%ebx)
    2f58:	c7 43 54 00 00 00 00 	movl   $0x0,0x54(%ebx)
    2f5f:	c7 43 28 00 00 00 00 	movl   $0x0,0x28(%ebx)
    2f66:	c7 43 24 00 00 00 00 	movl   $0x0,0x24(%ebx)
    2f6d:	50                   	push   %eax
    2f6e:	e8 0d 9d 00 00       	call   cc80 <usb_dev_connect>
    2f73:	83 c4 10             	add    $0x10,%esp
    2f76:	89 03                	mov    %eax,(%ebx)
    2f78:	85 c0                	test   %eax,%eax
    2f7a:	0f 84 19 02 00 00    	je     3199 <usb_device_create_ddf+0x359>
    2f80:	8d 7b 08             	lea    0x8(%ebx),%edi
    2f83:	52                   	push   %edx
    2f84:	52                   	push   %edx
    2f85:	50                   	push   %eax
    2f86:	57                   	push   %edi
    2f87:	e8 74 0c 00 00       	call   3c00 <usb_pipe_initialize_default_control>
    2f8c:	83 c4 10             	add    $0x10,%esp
    2f8f:	89 c6                	mov    %eax,%esi
    2f91:	85 c0                	test   %eax,%eax
    2f93:	0f 85 0f 01 00 00    	jne    30a8 <usb_device_create_ddf+0x268>
    2f99:	8b 43 50             	mov    0x50(%ebx),%eax
    2f9c:	85 c0                	test   %eax,%eax
    2f9e:	0f 85 52 02 00 00    	jne    31f6 <usb_device_create_ddf+0x3b6>
    2fa4:	50                   	push   %eax
    2fa5:	50                   	push   %eax
    2fa6:	8d 43 3c             	lea    0x3c(%ebx),%eax
    2fa9:	50                   	push   %eax
    2faa:	57                   	push   %edi
    2fab:	e8 70 15 00 00       	call   4520 <usb_request_get_device_descriptor>
    2fb0:	83 c4 10             	add    $0x10,%esp
    2fb3:	89 c6                	mov    %eax,%esi
    2fb5:	85 c0                	test   %eax,%eax
    2fb7:	74 1f                	je     2fd8 <usb_device_create_ddf+0x198>
    2fb9:	8b 45 10             	mov    0x10(%ebp),%eax
    2fbc:	83 ec 0c             	sub    $0xc,%esp
    2fbf:	c7 00 9f f5 00 00    	movl   $0xf59f,(%eax)
    2fc5:	8b 03                	mov    (%ebx),%eax
    2fc7:	50                   	push   %eax
    2fc8:	e8 f3 9c 00 00       	call   ccc0 <usb_dev_disconnect>
    2fcd:	83 c4 10             	add    $0x10,%esp
    2fd0:	e9 fa fe ff ff       	jmp    2ecf <usb_device_create_ddf+0x8f>
    2fd5:	8d 76 00             	lea    0x0(%esi),%esi
    2fd8:	8d 43 54             	lea    0x54(%ebx),%eax
    2fdb:	50                   	push   %eax
    2fdc:	8d 43 50             	lea    0x50(%ebx),%eax
    2fdf:	50                   	push   %eax
    2fe0:	6a 00                	push   $0x0
    2fe2:	57                   	push   %edi
    2fe3:	e8 e8 16 00 00       	call   46d0 <usb_request_get_full_configuration_descriptor_alloc>
    2fe8:	83 c4 10             	add    $0x10,%esp
    2feb:	89 c6                	mov    %eax,%esi
    2fed:	85 c0                	test   %eax,%eax
    2fef:	75 c8                	jne    2fb9 <usb_device_create_ddf+0x179>
    2ff1:	8b 53 2c             	mov    0x2c(%ebx),%edx
    2ff4:	8d 43 30             	lea    0x30(%ebx),%eax
    2ff7:	52                   	push   %edx
    2ff8:	8b 7b 50             	mov    0x50(%ebx),%edi
    2ffb:	8b 4b 54             	mov    0x54(%ebx),%ecx
    2ffe:	89 45 d4             	mov    %eax,-0x2c(%ebp)
    3001:	51                   	push   %ecx
    3002:	57                   	push   %edi
    3003:	50                   	push   %eax
    3004:	e8 e7 20 00 00       	call   50f0 <usb_alternate_interfaces_init>
    3009:	8b 45 0c             	mov    0xc(%ebp),%eax
    300c:	83 c4 10             	add    $0x10,%esp
    300f:	85 c0                	test   %eax,%eax
    3011:	0f 84 b8 fe ff ff    	je     2ecf <usb_device_create_ddf+0x8f>
    3017:	8b 45 0c             	mov    0xc(%ebp),%eax
    301a:	57                   	push   %edi
    301b:	57                   	push   %edi
    301c:	50                   	push   %eax
    301d:	53                   	push   %ebx
    301e:	e8 5d f8 ff ff       	call   2880 <usb_device_create_pipes>
    3023:	83 c4 10             	add    $0x10,%esp
    3026:	89 45 d0             	mov    %eax,-0x30(%ebp)
    3029:	85 c0                	test   %eax,%eax
    302b:	0f 84 9e fe ff ff    	je     2ecf <usb_device_create_ddf+0x8f>
    3031:	8b 43 24             	mov    0x24(%ebx),%eax
    3034:	85 c0                	test   %eax,%eax
    3036:	0f 84 70 01 00 00    	je     31ac <usb_device_create_ddf+0x36c>
    303c:	8b 4b 28             	mov    0x28(%ebx),%ecx
    303f:	85 c9                	test   %ecx,%ecx
    3041:	0f 84 a9 00 00 00    	je     30f0 <usb_device_create_ddf+0x2b0>
    3047:	31 f6                	xor    %esi,%esi
    3049:	eb 0f                	jmp    305a <usb_device_create_ddf+0x21a>
    304b:	90                   	nop
    304c:	8d 74 26 00          	lea    0x0(%esi,%eiz,1),%esi
    3050:	46                   	inc    %esi
    3051:	3b 73 28             	cmp    0x28(%ebx),%esi
    3054:	0f 83 96 00 00 00    	jae    30f0 <usb_device_create_ddf+0x2b0>
    305a:	8d 14 76             	lea    (%esi,%esi,2),%edx
    305d:	8d 3c 96             	lea    (%esi,%edx,4),%edi
    3060:	ba 65 f5 00 00       	mov    $0xf565,%edx
    3065:	c1 e7 02             	shl    $0x2,%edi
    3068:	80 7c 38 30 00       	cmpb   $0x0,0x30(%eax,%edi,1)
    306d:	74 05                	je     3074 <usb_device_create_ddf+0x234>
    306f:	ba 04 12 01 00       	mov    $0x11204,%edx
    3074:	83 ec 0c             	sub    $0xc,%esp
    3077:	52                   	push   %edx
    3078:	56                   	push   %esi
    3079:	68 38 f6 00 00       	push   $0xf638
    307e:	6a 05                	push   $0x5
    3080:	6a ff                	push   $0xffffffff
    3082:	e8 a9 e7 00 00       	call   11830 <log_msg@plt>
    3087:	8b 43 24             	mov    0x24(%ebx),%eax
    308a:	83 c4 20             	add    $0x20,%esp
    308d:	01 c7                	add    %eax,%edi
    308f:	80 7f 30 00          	cmpb   $0x0,0x30(%edi)
    3093:	74 bb                	je     3050 <usb_device_create_ddf+0x210>
    3095:	83 ec 0c             	sub    $0xc,%esp
    3098:	57                   	push   %edi
    3099:	e8 62 0c 00 00       	call   3d00 <usb_pipe_unregister>
    309e:	8b 43 24             	mov    0x24(%ebx),%eax
    30a1:	83 c4 10             	add    $0x10,%esp
    30a4:	eb aa                	jmp    3050 <usb_device_create_ddf+0x210>
    30a6:	66 90                	xchg   %ax,%ax
    30a8:	83 ec 0c             	sub    $0xc,%esp
    30ab:	8b 03                	mov    (%ebx),%eax
    30ad:	50                   	push   %eax
    30ae:	e8 0d 9c 00 00       	call   ccc0 <usb_dev_disconnect>
    30b3:	8b 45 10             	mov    0x10(%ebp),%eax
    30b6:	83 c4 10             	add    $0x10,%esp
    30b9:	c7 00 5c f6 00 00    	movl   $0xf65c,(%eax)
    30bf:	8d 65 f4             	lea    -0xc(%ebp),%esp
    30c2:	89 f0                	mov    %esi,%eax
    30c4:	5b                   	pop    %ebx
    30c5:	5e                   	pop    %esi
    30c6:	5f                   	pop    %edi
    30c7:	5d                   	pop    %ebp
    30c8:	c3                   	ret    
    30c9:	8d b4 26 00 00 00 00 	lea    0x0(%esi,%eiz,1),%esi
    30d0:	83 ec 0c             	sub    $0xc,%esp
    30d3:	c7 45 e4 ff ff ff ff 	movl   $0xffffffff,-0x1c(%ebp)
    30da:	57                   	push   %edi
    30db:	e8 b0 e7 00 00       	call   11890 <async_exchange_end@plt>
    30e0:	89 1c 24             	mov    %ebx,(%esp)
    30e3:	e8 08 e6 00 00       	call   116f0 <async_hangup@plt>
    30e8:	83 c4 10             	add    $0x10,%esp
    30eb:	e9 22 fe ff ff       	jmp    2f12 <usb_device_create_ddf+0xd2>
    30f0:	83 ec 0c             	sub    $0xc,%esp
    30f3:	50                   	push   %eax
    30f4:	e8 a7 ea 00 00       	call   11ba0 <free@plt>
    30f9:	8b 55 d4             	mov    -0x2c(%ebp),%edx
    30fc:	c7 43 24 00 00 00 00 	movl   $0x0,0x24(%ebx)
    3103:	c7 43 28 00 00 00 00 	movl   $0x0,0x28(%ebx)
    310a:	58                   	pop    %eax
    310b:	52                   	push   %edx
    310c:	e8 df 21 00 00       	call   52f0 <usb_alternate_interfaces_deinit>
    3111:	8b 73 50             	mov    0x50(%ebx),%esi
    3114:	59                   	pop    %ecx
    3115:	56                   	push   %esi
    3116:	e8 85 ea 00 00       	call   11ba0 <free@plt>
    311b:	c7 43 50 00 00 00 00 	movl   $0x0,0x50(%ebx)
    3122:	c7 43 54 00 00 00 00 	movl   $0x0,0x54(%ebx)
    3129:	8b 43 5c             	mov    0x5c(%ebx),%eax
    312c:	5f                   	pop    %edi
    312d:	50                   	push   %eax
    312e:	e8 6d ea 00 00       	call   11ba0 <free@plt>
    3133:	c7 43 5c 00 00 00 00 	movl   $0x0,0x5c(%ebx)
    313a:	58                   	pop    %eax
    313b:	8b 03                	mov    (%ebx),%eax
    313d:	50                   	push   %eax
    313e:	e8 7d 9b 00 00       	call   ccc0 <usb_dev_disconnect>
    3143:	8b 45 10             	mov    0x10(%ebp),%eax
    3146:	c7 03 00 00 00 00    	movl   $0x0,(%ebx)
    314c:	83 c4 10             	add    $0x10,%esp
    314f:	8b 75 d0             	mov    -0x30(%ebp),%esi
    3152:	c7 00 b4 f5 00 00    	movl   $0xf5b4,(%eax)
    3158:	e9 72 fd ff ff       	jmp    2ecf <usb_device_create_ddf+0x8f>
    315d:	8d 76 00             	lea    0x0(%esi),%esi
    3160:	be fe ff ff ff       	mov    $0xfffffffe,%esi
    3165:	e9 65 fd ff ff       	jmp    2ecf <usb_device_create_ddf+0x8f>
    316a:	8d b6 00 00 00 00    	lea    0x0(%esi),%esi
    3170:	83 ec 0c             	sub    $0xc,%esp
    3173:	be f8 ff ff ff       	mov    $0xfffffff8,%esi
    3178:	53                   	push   %ebx
    3179:	e8 72 e5 00 00       	call   116f0 <async_hangup@plt>
    317e:	83 c4 10             	add    $0x10,%esp
    3181:	e9 49 fd ff ff       	jmp    2ecf <usb_device_create_ddf+0x8f>
    3186:	8b 45 10             	mov    0x10(%ebp),%eax
    3189:	be fe ff ff ff       	mov    $0xfffffffe,%esi
    318e:	c7 00 76 f5 00 00    	movl   $0xf576,(%eax)
    3194:	e9 36 fd ff ff       	jmp    2ecf <usb_device_create_ddf+0x8f>
    3199:	8b 45 10             	mov    0x10(%ebp),%eax
    319c:	be fe ff ff ff       	mov    $0xfffffffe,%esi
    31a1:	c7 00 85 f5 00 00    	movl   $0xf585,(%eax)
    31a7:	e9 23 fd ff ff       	jmp    2ecf <usb_device_create_ddf+0x8f>
    31ac:	8b 53 28             	mov    0x28(%ebx),%edx
    31af:	85 d2                	test   %edx,%edx
    31b1:	0f 84 39 ff ff ff    	je     30f0 <usb_device_create_ddf+0x2b0>
    31b7:	50                   	push   %eax
    31b8:	68 29 01 00 00       	push   $0x129
    31bd:	68 1f f5 00 00       	push   $0xf51f
    31c2:	68 0c f6 00 00       	push   $0xf60c
    31c7:	e8 d4 e6 00 00       	call   118a0 <assert_abort@plt>
    31cc:	57                   	push   %edi
    31cd:	68 e5 01 00 00       	push   $0x1e5
    31d2:	68 1f f5 00 00       	push   $0xf51f
    31d7:	68 6a f5 00 00       	push   $0xf56a
    31dc:	e8 bf e6 00 00       	call   118a0 <assert_abort@plt>
    31e1:	53                   	push   %ebx
    31e2:	68 e6 01 00 00       	push   $0x1e6
    31e7:	68 1f f5 00 00       	push   $0xf51f
    31ec:	68 72 f5 00 00       	push   $0xf572
    31f1:	e8 aa e6 00 00       	call   118a0 <assert_abort@plt>
    31f6:	50                   	push   %eax
    31f7:	68 aa 00 00 00       	push   $0xaa
    31fc:	68 1f f5 00 00       	push   $0xf51f
    3201:	68 80 f6 00 00       	push   $0xf680
    3206:	e8 95 e6 00 00       	call   118a0 <assert_abort@plt>
    320b:	90                   	nop
    320c:	8d 74 26 00          	lea    0x0(%esi,%eiz,1),%esi

00003210 <usb_device_destroy_ddf>:
    3210:	55                   	push   %ebp
    3211:	89 e5                	mov    %esp,%ebp
    3213:	57                   	push   %edi
    3214:	56                   	push   %esi
    3215:	53                   	push   %ebx
    3216:	83 ec 0c             	sub    $0xc,%esp
    3219:	8b 45 08             	mov    0x8(%ebp),%eax
    321c:	85 c0                	test   %eax,%eax
    321e:	0f 84 1d 01 00 00    	je     3341 <usb_device_destroy_ddf+0x131>
    3224:	83 ec 0c             	sub    $0xc,%esp
    3227:	50                   	push   %eax
    3228:	e8 73 2f 00 00       	call   61a0 <ddf_dev_data_get>
    322d:	83 c4 10             	add    $0x10,%esp
    3230:	89 c7                	mov    %eax,%edi
    3232:	85 c0                	test   %eax,%eax
    3234:	0f 84 f2 00 00 00    	je     332c <usb_device_destroy_ddf+0x11c>
    323a:	8b 40 24             	mov    0x24(%eax),%eax
    323d:	85 c0                	test   %eax,%eax
    323f:	0f 84 cb 00 00 00    	je     3310 <usb_device_destroy_ddf+0x100>
    3245:	8b 4f 28             	mov    0x28(%edi),%ecx
    3248:	85 c9                	test   %ecx,%ecx
    324a:	74 5a                	je     32a6 <usb_device_destroy_ddf+0x96>
    324c:	31 f6                	xor    %esi,%esi
    324e:	eb 06                	jmp    3256 <usb_device_destroy_ddf+0x46>
    3250:	46                   	inc    %esi
    3251:	3b 77 28             	cmp    0x28(%edi),%esi
    3254:	73 50                	jae    32a6 <usb_device_destroy_ddf+0x96>
    3256:	8d 14 76             	lea    (%esi,%esi,2),%edx
    3259:	8d 1c 96             	lea    (%esi,%edx,4),%ebx
    325c:	ba 65 f5 00 00       	mov    $0xf565,%edx
    3261:	c1 e3 02             	shl    $0x2,%ebx
    3264:	80 7c 18 30 00       	cmpb   $0x0,0x30(%eax,%ebx,1)
    3269:	74 05                	je     3270 <usb_device_destroy_ddf+0x60>
    326b:	ba 04 12 01 00       	mov    $0x11204,%edx
    3270:	83 ec 0c             	sub    $0xc,%esp
    3273:	52                   	push   %edx
    3274:	56                   	push   %esi
    3275:	68 38 f6 00 00       	push   $0xf638
    327a:	6a 05                	push   $0x5
    327c:	6a ff                	push   $0xffffffff
    327e:	e8 ad e5 00 00       	call   11830 <log_msg@plt>
    3283:	8b 47 24             	mov    0x24(%edi),%eax
    3286:	83 c4 20             	add    $0x20,%esp
    3289:	01 c3                	add    %eax,%ebx
    328b:	80 7b 30 00          	cmpb   $0x0,0x30(%ebx)
    328f:	74 bf                	je     3250 <usb_device_destroy_ddf+0x40>
    3291:	83 ec 0c             	sub    $0xc,%esp
    3294:	46                   	inc    %esi
    3295:	53                   	push   %ebx
    3296:	e8 65 0a 00 00       	call   3d00 <usb_pipe_unregister>
    329b:	83 c4 10             	add    $0x10,%esp
    329e:	8b 47 24             	mov    0x24(%edi),%eax
    32a1:	3b 77 28             	cmp    0x28(%edi),%esi
    32a4:	72 b0                	jb     3256 <usb_device_destroy_ddf+0x46>
    32a6:	83 ec 0c             	sub    $0xc,%esp
    32a9:	50                   	push   %eax
    32aa:	e8 f1 e8 00 00       	call   11ba0 <free@plt>
    32af:	8d 47 30             	lea    0x30(%edi),%eax
    32b2:	c7 47 24 00 00 00 00 	movl   $0x0,0x24(%edi)
    32b9:	c7 47 28 00 00 00 00 	movl   $0x0,0x28(%edi)
    32c0:	89 04 24             	mov    %eax,(%esp)
    32c3:	e8 28 20 00 00       	call   52f0 <usb_alternate_interfaces_deinit>
    32c8:	8b 57 50             	mov    0x50(%edi),%edx
    32cb:	58                   	pop    %eax
    32cc:	52                   	push   %edx
    32cd:	e8 ce e8 00 00       	call   11ba0 <free@plt>
    32d2:	c7 47 50 00 00 00 00 	movl   $0x0,0x50(%edi)
    32d9:	c7 47 54 00 00 00 00 	movl   $0x0,0x54(%edi)
    32e0:	8b 5f 5c             	mov    0x5c(%edi),%ebx
    32e3:	59                   	pop    %ecx
    32e4:	53                   	push   %ebx
    32e5:	e8 b6 e8 00 00       	call   11ba0 <free@plt>
    32ea:	c7 47 5c 00 00 00 00 	movl   $0x0,0x5c(%edi)
    32f1:	8b 07                	mov    (%edi),%eax
    32f3:	5e                   	pop    %esi
    32f4:	50                   	push   %eax
    32f5:	e8 c6 99 00 00       	call   ccc0 <usb_dev_disconnect>
    32fa:	c7 07 00 00 00 00    	movl   $0x0,(%edi)
    3300:	83 c4 10             	add    $0x10,%esp
    3303:	8d 65 f4             	lea    -0xc(%ebp),%esp
    3306:	5b                   	pop    %ebx
    3307:	5e                   	pop    %esi
    3308:	5f                   	pop    %edi
    3309:	5d                   	pop    %ebp
    330a:	c3                   	ret    
    330b:	90                   	nop
    330c:	8d 74 26 00          	lea    0x0(%esi,%eiz,1),%esi
    3310:	8b 57 28             	mov    0x28(%edi),%edx
    3313:	85 d2                	test   %edx,%edx
    3315:	74 8f                	je     32a6 <usb_device_destroy_ddf+0x96>
    3317:	50                   	push   %eax
    3318:	68 29 01 00 00       	push   $0x129
    331d:	68 1f f5 00 00       	push   $0xf51f
    3322:	68 0c f6 00 00       	push   $0xf60c
    3327:	e8 74 e5 00 00       	call   118a0 <assert_abort@plt>
    332c:	53                   	push   %ebx
    332d:	68 02 02 00 00       	push   $0x202
    3332:	68 1f f5 00 00       	push   $0xf51f
    3337:	68 2c f5 00 00       	push   $0xf52c
    333c:	e8 5f e5 00 00       	call   118a0 <assert_abort@plt>
    3341:	56                   	push   %esi
    3342:	68 00 02 00 00       	push   $0x200
    3347:	68 1f f5 00 00       	push   $0xf51f
    334c:	68 6a f5 00 00       	push   $0xf56a
    3351:	e8 4a e5 00 00       	call   118a0 <assert_abort@plt>
    3356:	8d 76 00             	lea    0x0(%esi),%esi
    3359:	8d bc 27 00 00 00 00 	lea    0x0(%edi,%eiz,1),%edi

00003360 <usb_device_create>:
    3360:	55                   	push   %ebp
    3361:	89 e5                	mov    %esp,%ebp
    3363:	57                   	push   %edi
    3364:	56                   	push   %esi
    3365:	53                   	push   %ebx
    3366:	83 ec 34             	sub    $0x34,%esp
    3369:	c7 45 e0 00 00 00 00 	movl   $0x0,-0x20(%ebp)
    3370:	8b 45 08             	mov    0x8(%ebp),%eax
    3373:	c7 45 e4 ff ff ff ff 	movl   $0xffffffff,-0x1c(%ebp)
    337a:	6a 01                	push   $0x1
    337c:	50                   	push   %eax
    337d:	e8 1e e3 00 00       	call   116a0 <devman_device_connect@plt>
    3382:	89 04 24             	mov    %eax,(%esp)
    3385:	89 c3                	mov    %eax,%ebx
    3387:	e8 24 e7 00 00       	call   11ab0 <async_exchange_begin@plt>
    338c:	83 c4 10             	add    $0x10,%esp
    338f:	85 c0                	test   %eax,%eax
    3391:	0f 84 99 01 00 00    	je     3530 <usb_device_create+0x1d0>
    3397:	89 c6                	mov    %eax,%esi
    3399:	50                   	push   %eax
    339a:	50                   	push   %eax
    339b:	8d 45 e0             	lea    -0x20(%ebp),%eax
    339e:	50                   	push   %eax
    339f:	56                   	push   %esi
    33a0:	e8 8b 99 00 00       	call   cd30 <usb_get_my_device_handle>
    33a5:	83 c4 10             	add    $0x10,%esp
    33a8:	89 c7                	mov    %eax,%edi
    33aa:	85 c0                	test   %eax,%eax
    33ac:	0f 84 e6 00 00 00    	je     3498 <usb_device_create+0x138>
    33b2:	83 ec 0c             	sub    $0xc,%esp
    33b5:	56                   	push   %esi
    33b6:	e8 d5 e4 00 00       	call   11890 <async_exchange_end@plt>
    33bb:	83 c4 10             	add    $0x10,%esp
    33be:	85 db                	test   %ebx,%ebx
    33c0:	0f 84 c1 00 00 00    	je     3487 <usb_device_create+0x127>
    33c6:	83 ec 0c             	sub    $0xc,%esp
    33c9:	53                   	push   %ebx
    33ca:	e8 21 e3 00 00       	call   116f0 <async_hangup@plt>
    33cf:	83 c4 10             	add    $0x10,%esp
    33d2:	85 ff                	test   %edi,%edi
    33d4:	0f 85 ad 00 00 00    	jne    3487 <usb_device_create+0x127>
    33da:	83 ec 0c             	sub    $0xc,%esp
    33dd:	6a 60                	push   $0x60
    33df:	e8 cc e3 00 00       	call   117b0 <malloc@plt>
    33e4:	83 c4 10             	add    $0x10,%esp
    33e7:	89 c3                	mov    %eax,%ebx
    33e9:	85 c0                	test   %eax,%eax
    33eb:	0f 84 96 00 00 00    	je     3487 <usb_device_create+0x127>
    33f1:	c7 40 58 00 00 00 00 	movl   $0x0,0x58(%eax)
    33f8:	8b 45 08             	mov    0x8(%ebp),%eax
    33fb:	83 ec 0c             	sub    $0xc,%esp
    33fe:	89 43 04             	mov    %eax,0x4(%ebx)
    3401:	8b 45 e4             	mov    -0x1c(%ebp),%eax
    3404:	c7 43 5c 00 00 00 00 	movl   $0x0,0x5c(%ebx)
    340b:	89 43 2c             	mov    %eax,0x2c(%ebx)
    340e:	c7 43 50 00 00 00 00 	movl   $0x0,0x50(%ebx)
    3415:	c7 43 54 00 00 00 00 	movl   $0x0,0x54(%ebx)
    341c:	c7 43 28 00 00 00 00 	movl   $0x0,0x28(%ebx)
    3423:	c7 43 24 00 00 00 00 	movl   $0x0,0x24(%ebx)
    342a:	8b 4d 08             	mov    0x8(%ebp),%ecx
    342d:	51                   	push   %ecx
    342e:	e8 4d 98 00 00       	call   cc80 <usb_dev_connect>
    3433:	83 c4 10             	add    $0x10,%esp
    3436:	89 03                	mov    %eax,(%ebx)
    3438:	85 c0                	test   %eax,%eax
    343a:	74 3f                	je     347b <usb_device_create+0x11b>
    343c:	8d 73 08             	lea    0x8(%ebx),%esi
    343f:	52                   	push   %edx
    3440:	52                   	push   %edx
    3441:	50                   	push   %eax
    3442:	56                   	push   %esi
    3443:	e8 b8 07 00 00       	call   3c00 <usb_pipe_initialize_default_control>
    3448:	83 c4 10             	add    $0x10,%esp
    344b:	85 c0                	test   %eax,%eax
    344d:	75 1e                	jne    346d <usb_device_create+0x10d>
    344f:	8b 43 50             	mov    0x50(%ebx),%eax
    3452:	85 c0                	test   %eax,%eax
    3454:	0f 85 e8 00 00 00    	jne    3542 <usb_device_create+0x1e2>
    345a:	8d 43 3c             	lea    0x3c(%ebx),%eax
    345d:	57                   	push   %edi
    345e:	57                   	push   %edi
    345f:	50                   	push   %eax
    3460:	56                   	push   %esi
    3461:	e8 ba 10 00 00       	call   4520 <usb_request_get_device_descriptor>
    3466:	83 c4 10             	add    $0x10,%esp
    3469:	85 c0                	test   %eax,%eax
    346b:	74 63                	je     34d0 <usb_device_create+0x170>
    346d:	83 ec 0c             	sub    $0xc,%esp
    3470:	8b 33                	mov    (%ebx),%esi
    3472:	56                   	push   %esi
    3473:	e8 48 98 00 00       	call   ccc0 <usb_dev_disconnect>
    3478:	83 c4 10             	add    $0x10,%esp
    347b:	83 ec 0c             	sub    $0xc,%esp
    347e:	53                   	push   %ebx
    347f:	e8 1c e7 00 00       	call   11ba0 <free@plt>
    3484:	83 c4 10             	add    $0x10,%esp
    3487:	8d 65 f4             	lea    -0xc(%ebp),%esp
    348a:	31 db                	xor    %ebx,%ebx
    348c:	89 d8                	mov    %ebx,%eax
    348e:	5b                   	pop    %ebx
    348f:	5e                   	pop    %esi
    3490:	5f                   	pop    %edi
    3491:	5d                   	pop    %ebp
    3492:	c3                   	ret    
    3493:	90                   	nop
    3494:	8d 74 26 00          	lea    0x0(%esi,%eiz,1),%esi
    3498:	50                   	push   %eax
    3499:	50                   	push   %eax
    349a:	8d 45 e4             	lea    -0x1c(%ebp),%eax
    349d:	50                   	push   %eax
    349e:	56                   	push   %esi
    349f:	e8 3c 98 00 00       	call   cce0 <usb_get_my_interface>
    34a4:	83 c4 10             	add    $0x10,%esp
    34a7:	83 f8 f5             	cmp    $0xfffffff5,%eax
    34aa:	74 64                	je     3510 <usb_device_create+0x1b0>
    34ac:	83 ec 0c             	sub    $0xc,%esp
    34af:	89 45 d4             	mov    %eax,-0x2c(%ebp)
    34b2:	56                   	push   %esi
    34b3:	e8 d8 e3 00 00       	call   11890 <async_exchange_end@plt>
    34b8:	8b 45 d4             	mov    -0x2c(%ebp),%eax
    34bb:	83 c4 10             	add    $0x10,%esp
    34be:	89 c7                	mov    %eax,%edi
    34c0:	85 db                	test   %ebx,%ebx
    34c2:	0f 85 fe fe ff ff    	jne    33c6 <usb_device_create+0x66>
    34c8:	e9 05 ff ff ff       	jmp    33d2 <usb_device_create+0x72>
    34cd:	8d 76 00             	lea    0x0(%esi),%esi
    34d0:	8d 43 54             	lea    0x54(%ebx),%eax
    34d3:	50                   	push   %eax
    34d4:	8d 43 50             	lea    0x50(%ebx),%eax
    34d7:	50                   	push   %eax
    34d8:	6a 00                	push   $0x0
    34da:	56                   	push   %esi
    34db:	e8 f0 11 00 00       	call   46d0 <usb_request_get_full_configuration_descriptor_alloc>
    34e0:	83 c4 10             	add    $0x10,%esp
    34e3:	85 c0                	test   %eax,%eax
    34e5:	75 86                	jne    346d <usb_device_create+0x10d>
    34e7:	8b 43 2c             	mov    0x2c(%ebx),%eax
    34ea:	8b 4b 50             	mov    0x50(%ebx),%ecx
    34ed:	50                   	push   %eax
    34ee:	8d 43 30             	lea    0x30(%ebx),%eax
    34f1:	8b 53 54             	mov    0x54(%ebx),%edx
    34f4:	52                   	push   %edx
    34f5:	51                   	push   %ecx
    34f6:	50                   	push   %eax
    34f7:	e8 f4 1b 00 00       	call   50f0 <usb_alternate_interfaces_init>
    34fc:	83 c4 10             	add    $0x10,%esp
    34ff:	8d 65 f4             	lea    -0xc(%ebp),%esp
    3502:	89 d8                	mov    %ebx,%eax
    3504:	5b                   	pop    %ebx
    3505:	5e                   	pop    %esi
    3506:	5f                   	pop    %edi
    3507:	5d                   	pop    %ebp
    3508:	c3                   	ret    
    3509:	8d b4 26 00 00 00 00 	lea    0x0(%esi,%eiz,1),%esi
    3510:	83 ec 0c             	sub    $0xc,%esp
    3513:	c7 45 e4 ff ff ff ff 	movl   $0xffffffff,-0x1c(%ebp)
    351a:	56                   	push   %esi
    351b:	e8 70 e3 00 00       	call   11890 <async_exchange_end@plt>
    3520:	83 c4 10             	add    $0x10,%esp
    3523:	85 db                	test   %ebx,%ebx
    3525:	0f 84 af fe ff ff    	je     33da <usb_device_create+0x7a>
    352b:	e9 96 fe ff ff       	jmp    33c6 <usb_device_create+0x66>
    3530:	bf f8 ff ff ff       	mov    $0xfffffff8,%edi
    3535:	85 db                	test   %ebx,%ebx
    3537:	0f 85 89 fe ff ff    	jne    33c6 <usb_device_create+0x66>
    353d:	e9 45 ff ff ff       	jmp    3487 <usb_device_create+0x127>
    3542:	50                   	push   %eax
    3543:	68 aa 00 00 00       	push   $0xaa
    3548:	68 1f f5 00 00       	push   $0xf51f
    354d:	68 80 f6 00 00       	push   $0xf680
    3552:	e8 49 e3 00 00       	call   118a0 <assert_abort@plt>
    3557:	89 f6                	mov    %esi,%esi
    3559:	8d bc 27 00 00 00 00 	lea    0x0(%edi,%eiz,1),%edi

00003560 <usb_device_destroy>:
    3560:	55                   	push   %ebp
    3561:	89 e5                	mov    %esp,%ebp
    3563:	57                   	push   %edi
    3564:	56                   	push   %esi
    3565:	53                   	push   %ebx
    3566:	83 ec 0c             	sub    $0xc,%esp
    3569:	8b 7d 08             	mov    0x8(%ebp),%edi
    356c:	85 ff                	test   %edi,%edi
    356e:	0f 84 e4 00 00 00    	je     3658 <usb_device_destroy+0xf8>
    3574:	8b 47 24             	mov    0x24(%edi),%eax
    3577:	85 c0                	test   %eax,%eax
    3579:	0f 84 e1 00 00 00    	je     3660 <usb_device_destroy+0x100>
    357f:	8b 4f 28             	mov    0x28(%edi),%ecx
    3582:	85 c9                	test   %ecx,%ecx
    3584:	74 60                	je     35e6 <usb_device_destroy+0x86>
    3586:	31 f6                	xor    %esi,%esi
    3588:	eb 0c                	jmp    3596 <usb_device_destroy+0x36>
    358a:	8d b6 00 00 00 00    	lea    0x0(%esi),%esi
    3590:	46                   	inc    %esi
    3591:	3b 77 28             	cmp    0x28(%edi),%esi
    3594:	73 50                	jae    35e6 <usb_device_destroy+0x86>
    3596:	8d 14 76             	lea    (%esi,%esi,2),%edx
    3599:	8d 1c 96             	lea    (%esi,%edx,4),%ebx
    359c:	ba 65 f5 00 00       	mov    $0xf565,%edx
    35a1:	c1 e3 02             	shl    $0x2,%ebx
    35a4:	80 7c 18 30 00       	cmpb   $0x0,0x30(%eax,%ebx,1)
    35a9:	74 05                	je     35b0 <usb_device_destroy+0x50>
    35ab:	ba 04 12 01 00       	mov    $0x11204,%edx
    35b0:	83 ec 0c             	sub    $0xc,%esp
    35b3:	52                   	push   %edx
    35b4:	56                   	push   %esi
    35b5:	68 38 f6 00 00       	push   $0xf638
    35ba:	6a 05                	push   $0x5
    35bc:	6a ff                	push   $0xffffffff
    35be:	e8 6d e2 00 00       	call   11830 <log_msg@plt>
    35c3:	8b 47 24             	mov    0x24(%edi),%eax
    35c6:	83 c4 20             	add    $0x20,%esp
    35c9:	01 c3                	add    %eax,%ebx
    35cb:	80 7b 30 00          	cmpb   $0x0,0x30(%ebx)
    35cf:	74 bf                	je     3590 <usb_device_destroy+0x30>
    35d1:	83 ec 0c             	sub    $0xc,%esp
    35d4:	46                   	inc    %esi
    35d5:	53                   	push   %ebx
    35d6:	e8 25 07 00 00       	call   3d00 <usb_pipe_unregister>
    35db:	83 c4 10             	add    $0x10,%esp
    35de:	8b 47 24             	mov    0x24(%edi),%eax
    35e1:	3b 77 28             	cmp    0x28(%edi),%esi
    35e4:	72 b0                	jb     3596 <usb_device_destroy+0x36>
    35e6:	83 ec 0c             	sub    $0xc,%esp
    35e9:	50                   	push   %eax
    35ea:	e8 b1 e5 00 00       	call   11ba0 <free@plt>
    35ef:	8d 47 30             	lea    0x30(%edi),%eax
    35f2:	c7 47 24 00 00 00 00 	movl   $0x0,0x24(%edi)
    35f9:	c7 47 28 00 00 00 00 	movl   $0x0,0x28(%edi)
    3600:	89 04 24             	mov    %eax,(%esp)
    3603:	e8 e8 1c 00 00       	call   52f0 <usb_alternate_interfaces_deinit>
    3608:	8b 57 50             	mov    0x50(%edi),%edx
    360b:	58                   	pop    %eax
    360c:	52                   	push   %edx
    360d:	e8 8e e5 00 00       	call   11ba0 <free@plt>
    3612:	c7 47 50 00 00 00 00 	movl   $0x0,0x50(%edi)
    3619:	c7 47 54 00 00 00 00 	movl   $0x0,0x54(%edi)
    3620:	8b 5f 5c             	mov    0x5c(%edi),%ebx
    3623:	59                   	pop    %ecx
    3624:	53                   	push   %ebx
    3625:	e8 76 e5 00 00       	call   11ba0 <free@plt>
    362a:	c7 47 5c 00 00 00 00 	movl   $0x0,0x5c(%edi)
    3631:	8b 07                	mov    (%edi),%eax
    3633:	5e                   	pop    %esi
    3634:	50                   	push   %eax
    3635:	e8 86 96 00 00       	call   ccc0 <usb_dev_disconnect>
    363a:	c7 07 00 00 00 00    	movl   $0x0,(%edi)
    3640:	83 c4 10             	add    $0x10,%esp
    3643:	89 7d 08             	mov    %edi,0x8(%ebp)
    3646:	8d 65 f4             	lea    -0xc(%ebp),%esp
    3649:	5b                   	pop    %ebx
    364a:	5e                   	pop    %esi
    364b:	5f                   	pop    %edi
    364c:	5d                   	pop    %ebp
    364d:	e9 4e e5 00 00       	jmp    11ba0 <free@plt>
    3652:	8d b6 00 00 00 00    	lea    0x0(%esi),%esi
    3658:	8d 65 f4             	lea    -0xc(%ebp),%esp
    365b:	5b                   	pop    %ebx
    365c:	5e                   	pop    %esi
    365d:	5f                   	pop    %edi
    365e:	5d                   	pop    %ebp
    365f:	c3                   	ret    
    3660:	8b 57 28             	mov    0x28(%edi),%edx
    3663:	85 d2                	test   %edx,%edx
    3665:	0f 84 7b ff ff ff    	je     35e6 <usb_device_destroy+0x86>
    366b:	50                   	push   %eax
    366c:	68 29 01 00 00       	push   $0x129
    3671:	68 1f f5 00 00       	push   $0xf51f
    3676:	68 0c f6 00 00       	push   $0xf60c
    367b:	e8 20 e2 00 00       	call   118a0 <assert_abort@plt>

00003680 <usb_device_get_name>:
    3680:	55                   	push   %ebp
    3681:	89 e5                	mov    %esp,%ebp
    3683:	83 ec 08             	sub    $0x8,%esp
    3686:	8b 45 08             	mov    0x8(%ebp),%eax
    3689:	85 c0                	test   %eax,%eax
    368b:	74 17                	je     36a4 <usb_device_get_name+0x24>
    368d:	8b 40 58             	mov    0x58(%eax),%eax
    3690:	85 c0                	test   %eax,%eax
    3692:	74 0c                	je     36a0 <usb_device_get_name+0x20>
    3694:	89 45 08             	mov    %eax,0x8(%ebp)
    3697:	c9                   	leave  
    3698:	e9 23 2b 00 00       	jmp    61c0 <ddf_dev_get_name>
    369d:	8d 76 00             	lea    0x0(%esi),%esi
    36a0:	31 c0                	xor    %eax,%eax
    36a2:	c9                   	leave  
    36a3:	c3                   	ret    
    36a4:	50                   	push   %eax
    36a5:	68 2a 02 00 00       	push   $0x22a
    36aa:	68 1f f5 00 00       	push   $0xf51f
    36af:	68 2c f5 00 00       	push   $0xf52c
    36b4:	e8 e7 e1 00 00       	call   118a0 <assert_abort@plt>
    36b9:	8d b4 26 00 00 00 00 	lea    0x0(%esi,%eiz,1),%esi

000036c0 <usb_device_ddf_fun_create>:
    36c0:	55                   	push   %ebp
    36c1:	89 e5                	mov    %esp,%ebp
    36c3:	83 ec 08             	sub    $0x8,%esp
    36c6:	8b 45 08             	mov    0x8(%ebp),%eax
    36c9:	8b 55 0c             	mov    0xc(%ebp),%edx
    36cc:	8b 4d 10             	mov    0x10(%ebp),%ecx
    36cf:	85 c0                	test   %eax,%eax
    36d1:	74 21                	je     36f4 <usb_device_ddf_fun_create+0x34>
    36d3:	8b 40 58             	mov    0x58(%eax),%eax
    36d6:	85 c0                	test   %eax,%eax
    36d8:	74 16                	je     36f0 <usb_device_ddf_fun_create+0x30>
    36da:	89 4d 10             	mov    %ecx,0x10(%ebp)
    36dd:	89 55 0c             	mov    %edx,0xc(%ebp)
    36e0:	89 45 08             	mov    %eax,0x8(%ebp)
    36e3:	c9                   	leave  
    36e4:	e9 a7 2b 00 00       	jmp    6290 <ddf_fun_create>
    36e9:	8d b4 26 00 00 00 00 	lea    0x0(%esi,%eiz,1),%esi
    36f0:	31 c0                	xor    %eax,%eax
    36f2:	c9                   	leave  
    36f3:	c3                   	ret    
    36f4:	50                   	push   %eax
    36f5:	68 33 02 00 00       	push   $0x233
    36fa:	68 1f f5 00 00       	push   $0xf51f
    36ff:	68 2c f5 00 00       	push   $0xf52c
    3704:	e8 97 e1 00 00       	call   118a0 <assert_abort@plt>
    3709:	8d b4 26 00 00 00 00 	lea    0x0(%esi,%eiz,1),%esi

00003710 <usb_device_bus_exchange_begin>:
    3710:	55                   	push   %ebp
    3711:	89 e5                	mov    %esp,%ebp
    3713:	83 ec 08             	sub    $0x8,%esp
    3716:	8b 45 08             	mov    0x8(%ebp),%eax
    3719:	85 c0                	test   %eax,%eax
    371b:	74 0b                	je     3728 <usb_device_bus_exchange_begin+0x18>
    371d:	8b 00                	mov    (%eax),%eax
    371f:	89 45 08             	mov    %eax,0x8(%ebp)
    3722:	c9                   	leave  
    3723:	e9 88 e3 00 00       	jmp    11ab0 <async_exchange_begin@plt>
    3728:	50                   	push   %eax
    3729:	68 3b 02 00 00       	push   $0x23b
    372e:	68 1f f5 00 00       	push   $0xf51f
    3733:	68 2c f5 00 00       	push   $0xf52c
    3738:	e8 63 e1 00 00       	call   118a0 <assert_abort@plt>
    373d:	8d 76 00             	lea    0x0(%esi),%esi

00003740 <usb_device_bus_exchange_end>:
    3740:	55                   	push   %ebp
    3741:	89 e5                	mov    %esp,%ebp
    3743:	5d                   	pop    %ebp
    3744:	e9 47 e1 00 00       	jmp    11890 <async_exchange_end@plt>
    3749:	8d b4 26 00 00 00 00 	lea    0x0(%esi,%eiz,1),%esi

00003750 <usb_device_data_alloc>:
    3750:	55                   	push   %ebp
    3751:	89 e5                	mov    %esp,%ebp
    3753:	53                   	push   %ebx
    3754:	50                   	push   %eax
    3755:	8b 5d 08             	mov    0x8(%ebp),%ebx
    3758:	85 db                	test   %ebx,%ebx
    375a:	74 1c                	je     3778 <usb_device_data_alloc+0x28>
    375c:	8b 43 5c             	mov    0x5c(%ebx),%eax
    375f:	85 c0                	test   %eax,%eax
    3761:	75 2a                	jne    378d <usb_device_data_alloc+0x3d>
    3763:	8b 55 0c             	mov    0xc(%ebp),%edx
    3766:	50                   	push   %eax
    3767:	50                   	push   %eax
    3768:	52                   	push   %edx
    3769:	6a 01                	push   $0x1
    376b:	e8 50 e1 00 00       	call   118c0 <calloc@plt>
    3770:	89 43 5c             	mov    %eax,0x5c(%ebx)
    3773:	8b 5d fc             	mov    -0x4(%ebp),%ebx
    3776:	c9                   	leave  
    3777:	c3                   	ret    
    3778:	50                   	push   %eax
    3779:	68 4b 02 00 00       	push   $0x24b
    377e:	68 1f f5 00 00       	push   $0xf51f
    3783:	68 2c f5 00 00       	push   $0xf52c
    3788:	e8 13 e1 00 00       	call   118a0 <assert_abort@plt>
    378d:	51                   	push   %ecx
    378e:	68 4c 02 00 00       	push   $0x24c
    3793:	68 1f f5 00 00       	push   $0xf51f
    3798:	68 c9 f5 00 00       	push   $0xf5c9
    379d:	e8 fe e0 00 00       	call   118a0 <assert_abort@plt>
    37a2:	8d b4 26 00 00 00 00 	lea    0x0(%esi,%eiz,1),%esi
    37a9:	8d bc 27 00 00 00 00 	lea    0x0(%edi,%eiz,1),%edi

000037b0 <usb_device_data_get>:
    37b0:	55                   	push   %ebp
    37b1:	89 e5                	mov    %esp,%ebp
    37b3:	83 ec 08             	sub    $0x8,%esp
    37b6:	8b 45 08             	mov    0x8(%ebp),%eax
    37b9:	85 c0                	test   %eax,%eax
    37bb:	74 05                	je     37c2 <usb_device_data_get+0x12>
    37bd:	8b 40 5c             	mov    0x5c(%eax),%eax
    37c0:	c9                   	leave  
    37c1:	c3                   	ret    
    37c2:	50                   	push   %eax
    37c3:	68 53 02 00 00       	push   $0x253
    37c8:	68 1f f5 00 00       	push   $0xf51f
    37cd:	68 2c f5 00 00       	push   $0xf52c
    37d2:	e8 c9 e0 00 00       	call   118a0 <assert_abort@plt>
    37d7:	66 90                	xchg   %ax,%ax
    37d9:	66 90                	xchg   %ax,%ax
    37db:	66 90                	xchg   %ax,%ax
    37dd:	66 90                	xchg   %ax,%ax
    37df:	90                   	nop

000037e0 <usb_pipe_control_read>:
    37e0:	55                   	push   %ebp
    37e1:	89 e5                	mov    %esp,%ebp
    37e3:	57                   	push   %edi
    37e4:	56                   	push   %esi
    37e5:	53                   	push   %ebx
    37e6:	83 ec 2c             	sub    $0x2c,%esp
    37e9:	8b 5d 08             	mov    0x8(%ebp),%ebx
    37ec:	8b 45 0c             	mov    0xc(%ebp),%eax
    37ef:	8b 75 14             	mov    0x14(%ebp),%esi
    37f2:	85 db                	test   %ebx,%ebx
    37f4:	0f 84 f5 00 00 00    	je     38ef <usb_pipe_control_read+0x10f>
    37fa:	85 c0                	test   %eax,%eax
    37fc:	0f 84 ce 00 00 00    	je     38d0 <usb_pipe_control_read+0xf0>
    3802:	83 7d 10 08          	cmpl   $0x8,0x10(%ebp)
    3806:	0f 85 c4 00 00 00    	jne    38d0 <usb_pipe_control_read+0xf0>
    380c:	85 f6                	test   %esi,%esi
    380e:	0f 84 bc 00 00 00    	je     38d0 <usb_pipe_control_read+0xf0>
    3814:	8b 4d 18             	mov    0x18(%ebp),%ecx
    3817:	85 c9                	test   %ecx,%ecx
    3819:	0f 84 b1 00 00 00    	je     38d0 <usb_pipe_control_read+0xf0>
    381f:	83 7b 08 02          	cmpl   $0x2,0x8(%ebx)
    3823:	75 7b                	jne    38a0 <usb_pipe_control_read+0xc0>
    3825:	8b 53 04             	mov    0x4(%ebx),%edx
    3828:	85 d2                	test   %edx,%edx
    382a:	75 74                	jne    38a0 <usb_pipe_control_read+0xc0>
    382c:	57                   	push   %edi
    382d:	6a 08                	push   $0x8
    382f:	50                   	push   %eax
    3830:	8d 45 e0             	lea    -0x20(%ebp),%eax
    3833:	50                   	push   %eax
    3834:	e8 67 df 00 00       	call   117a0 <memcpy@plt>
    3839:	58                   	pop    %eax
    383a:	8b 43 18             	mov    0x18(%ebx),%eax
    383d:	50                   	push   %eax
    383e:	e8 6d e2 00 00       	call   11ab0 <async_exchange_begin@plt>
    3843:	83 c4 0c             	add    $0xc,%esp
    3846:	89 c7                	mov    %eax,%edi
    3848:	8d 45 dc             	lea    -0x24(%ebp),%eax
    384b:	c7 45 dc 00 00 00 00 	movl   $0x0,-0x24(%ebp)
    3852:	50                   	push   %eax
    3853:	8b 45 18             	mov    0x18(%ebp),%eax
    3856:	50                   	push   %eax
    3857:	8b 45 e4             	mov    -0x1c(%ebp),%eax
    385a:	56                   	push   %esi
    385b:	50                   	push   %eax
    385c:	8b 45 e0             	mov    -0x20(%ebp),%eax
    385f:	50                   	push   %eax
    3860:	0f bf 03             	movswl (%ebx),%eax
    3863:	50                   	push   %eax
    3864:	57                   	push   %edi
    3865:	e8 c6 96 00 00       	call   cf30 <usb_read>
    386a:	83 c4 14             	add    $0x14,%esp
    386d:	89 45 d4             	mov    %eax,-0x2c(%ebp)
    3870:	57                   	push   %edi
    3871:	e8 1a e0 00 00       	call   11890 <async_exchange_end@plt>
    3876:	8b 45 d4             	mov    -0x2c(%ebp),%eax
    3879:	83 c4 10             	add    $0x10,%esp
    387c:	3d d3 fe ff ff       	cmp    $0xfffffed3,%eax
    3881:	74 2d                	je     38b0 <usb_pipe_control_read+0xd0>
    3883:	85 c0                	test   %eax,%eax
    3885:	75 0f                	jne    3896 <usb_pipe_control_read+0xb6>
    3887:	8b 55 1c             	mov    0x1c(%ebp),%edx
    388a:	85 d2                	test   %edx,%edx
    388c:	74 08                	je     3896 <usb_pipe_control_read+0xb6>
    388e:	8b 4d 1c             	mov    0x1c(%ebp),%ecx
    3891:	8b 55 dc             	mov    -0x24(%ebp),%edx
    3894:	89 11                	mov    %edx,(%ecx)
    3896:	8d 65 f4             	lea    -0xc(%ebp),%esp
    3899:	5b                   	pop    %ebx
    389a:	5e                   	pop    %esi
    389b:	5f                   	pop    %edi
    389c:	5d                   	pop    %ebp
    389d:	c3                   	ret    
    389e:	66 90                	xchg   %ax,%ax
    38a0:	8d 65 f4             	lea    -0xc(%ebp),%esp
    38a3:	b8 fa fe ff ff       	mov    $0xfffffefa,%eax
    38a8:	5b                   	pop    %ebx
    38a9:	5e                   	pop    %esi
    38aa:	5f                   	pop    %edi
    38ab:	5d                   	pop    %ebp
    38ac:	c3                   	ret    
    38ad:	8d 76 00             	lea    0x0(%esi),%esi
    38b0:	80 7b 14 00          	cmpb   $0x0,0x14(%ebx)
    38b4:	74 06                	je     38bc <usb_pipe_control_read+0xdc>
    38b6:	66 83 3b 00          	cmpw   $0x0,(%ebx)
    38ba:	74 1c                	je     38d8 <usb_pipe_control_read+0xf8>
    38bc:	8d 65 f4             	lea    -0xc(%ebp),%esp
    38bf:	b8 d3 fe ff ff       	mov    $0xfffffed3,%eax
    38c4:	5b                   	pop    %ebx
    38c5:	5e                   	pop    %esi
    38c6:	5f                   	pop    %edi
    38c7:	5d                   	pop    %ebp
    38c8:	c3                   	ret    
    38c9:	8d b4 26 00 00 00 00 	lea    0x0(%esi,%eiz,1),%esi
    38d0:	b8 f2 ff ff ff       	mov    $0xfffffff2,%eax
    38d5:	eb bf                	jmp    3896 <usb_pipe_control_read+0xb6>
    38d7:	90                   	nop
    38d8:	c6 43 14 00          	movb   $0x0,0x14(%ebx)
    38dc:	51                   	push   %ecx
    38dd:	51                   	push   %ecx
    38de:	6a 00                	push   $0x0
    38e0:	53                   	push   %ebx
    38e1:	e8 2a 16 00 00       	call   4f10 <usb_request_clear_endpoint_halt>
    38e6:	c6 43 14 01          	movb   $0x1,0x14(%ebx)
    38ea:	83 c4 10             	add    $0x10,%esp
    38ed:	eb cd                	jmp    38bc <usb_pipe_control_read+0xdc>
    38ef:	53                   	push   %ebx
    38f0:	6a 50                	push   $0x50
    38f2:	68 a9 f6 00 00       	push   $0xf6a9
    38f7:	68 b5 f6 00 00       	push   $0xf6b5
    38fc:	e8 9f df 00 00       	call   118a0 <assert_abort@plt>
    3901:	eb 0d                	jmp    3910 <usb_pipe_control_write>
    3903:	90                   	nop
    3904:	90                   	nop
    3905:	90                   	nop
    3906:	90                   	nop
    3907:	90                   	nop
    3908:	90                   	nop
    3909:	90                   	nop
    390a:	90                   	nop
    390b:	90                   	nop
    390c:	90                   	nop
    390d:	90                   	nop
    390e:	90                   	nop
    390f:	90                   	nop

00003910 <usb_pipe_control_write>:
    3910:	55                   	push   %ebp
    3911:	89 e5                	mov    %esp,%ebp
    3913:	57                   	push   %edi
    3914:	56                   	push   %esi
    3915:	53                   	push   %ebx
    3916:	83 ec 1c             	sub    $0x1c,%esp
    3919:	8b 5d 08             	mov    0x8(%ebp),%ebx
    391c:	8b 45 0c             	mov    0xc(%ebp),%eax
    391f:	8b 75 14             	mov    0x14(%ebp),%esi
    3922:	85 db                	test   %ebx,%ebx
    3924:	0f 84 c9 00 00 00    	je     39f3 <usb_pipe_control_write+0xe3>
    392a:	85 c0                	test   %eax,%eax
    392c:	0f 84 7e 00 00 00    	je     39b0 <usb_pipe_control_write+0xa0>
    3932:	83 7d 10 08          	cmpl   $0x8,0x10(%ebp)
    3936:	75 78                	jne    39b0 <usb_pipe_control_write+0xa0>
    3938:	85 f6                	test   %esi,%esi
    393a:	75 07                	jne    3943 <usb_pipe_control_write+0x33>
    393c:	8b 7d 18             	mov    0x18(%ebp),%edi
    393f:	85 ff                	test   %edi,%edi
    3941:	75 6d                	jne    39b0 <usb_pipe_control_write+0xa0>
    3943:	85 f6                	test   %esi,%esi
    3945:	74 07                	je     394e <usb_pipe_control_write+0x3e>
    3947:	8b 4d 18             	mov    0x18(%ebp),%ecx
    394a:	85 c9                	test   %ecx,%ecx
    394c:	74 62                	je     39b0 <usb_pipe_control_write+0xa0>
    394e:	83 7b 08 02          	cmpl   $0x2,0x8(%ebx)
    3952:	75 6c                	jne    39c0 <usb_pipe_control_write+0xb0>
    3954:	8b 53 04             	mov    0x4(%ebx),%edx
    3957:	85 d2                	test   %edx,%edx
    3959:	75 65                	jne    39c0 <usb_pipe_control_write+0xb0>
    395b:	52                   	push   %edx
    395c:	6a 08                	push   $0x8
    395e:	50                   	push   %eax
    395f:	8d 45 e0             	lea    -0x20(%ebp),%eax
    3962:	50                   	push   %eax
    3963:	e8 38 de 00 00       	call   117a0 <memcpy@plt>
    3968:	8b 7b 18             	mov    0x18(%ebx),%edi
    396b:	59                   	pop    %ecx
    396c:	57                   	push   %edi
    396d:	e8 3e e1 00 00       	call   11ab0 <async_exchange_begin@plt>
    3972:	8b 4d 18             	mov    0x18(%ebp),%ecx
    3975:	89 c7                	mov    %eax,%edi
    3977:	58                   	pop    %eax
    3978:	8b 45 e0             	mov    -0x20(%ebp),%eax
    397b:	5a                   	pop    %edx
    397c:	51                   	push   %ecx
    397d:	56                   	push   %esi
    397e:	8b 75 e4             	mov    -0x1c(%ebp),%esi
    3981:	56                   	push   %esi
    3982:	50                   	push   %eax
    3983:	0f bf 03             	movswl (%ebx),%eax
    3986:	50                   	push   %eax
    3987:	57                   	push   %edi
    3988:	e8 93 96 00 00       	call   d020 <usb_write>
    398d:	83 c4 14             	add    $0x14,%esp
    3990:	89 c6                	mov    %eax,%esi
    3992:	57                   	push   %edi
    3993:	e8 f8 de 00 00       	call   11890 <async_exchange_end@plt>
    3998:	83 c4 10             	add    $0x10,%esp
    399b:	81 fe d3 fe ff ff    	cmp    $0xfffffed3,%esi
    39a1:	74 2d                	je     39d0 <usb_pipe_control_write+0xc0>
    39a3:	8d 65 f4             	lea    -0xc(%ebp),%esp
    39a6:	89 f0                	mov    %esi,%eax
    39a8:	5b                   	pop    %ebx
    39a9:	5e                   	pop    %esi
    39aa:	5f                   	pop    %edi
    39ab:	5d                   	pop    %ebp
    39ac:	c3                   	ret    
    39ad:	8d 76 00             	lea    0x0(%esi),%esi
    39b0:	8d 65 f4             	lea    -0xc(%ebp),%esp
    39b3:	be f2 ff ff ff       	mov    $0xfffffff2,%esi
    39b8:	89 f0                	mov    %esi,%eax
    39ba:	5b                   	pop    %ebx
    39bb:	5e                   	pop    %esi
    39bc:	5f                   	pop    %edi
    39bd:	5d                   	pop    %ebp
    39be:	c3                   	ret    
    39bf:	90                   	nop
    39c0:	8d 65 f4             	lea    -0xc(%ebp),%esp
    39c3:	be fa fe ff ff       	mov    $0xfffffefa,%esi
    39c8:	89 f0                	mov    %esi,%eax
    39ca:	5b                   	pop    %ebx
    39cb:	5e                   	pop    %esi
    39cc:	5f                   	pop    %edi
    39cd:	5d                   	pop    %ebp
    39ce:	c3                   	ret    
    39cf:	90                   	nop
    39d0:	80 7b 14 00          	cmpb   $0x0,0x14(%ebx)
    39d4:	74 cd                	je     39a3 <usb_pipe_control_write+0x93>
    39d6:	66 83 3b 00          	cmpw   $0x0,(%ebx)
    39da:	75 c7                	jne    39a3 <usb_pipe_control_write+0x93>
    39dc:	c6 43 14 00          	movb   $0x0,0x14(%ebx)
    39e0:	50                   	push   %eax
    39e1:	50                   	push   %eax
    39e2:	6a 00                	push   $0x0
    39e4:	53                   	push   %ebx
    39e5:	e8 26 15 00 00       	call   4f10 <usb_request_clear_endpoint_halt>
    39ea:	c6 43 14 01          	movb   $0x1,0x14(%ebx)
    39ee:	83 c4 10             	add    $0x10,%esp
    39f1:	eb b0                	jmp    39a3 <usb_pipe_control_write+0x93>
    39f3:	50                   	push   %eax
    39f4:	68 82 00 00 00       	push   $0x82
    39f9:	68 a9 f6 00 00       	push   $0xf6a9
    39fe:	68 b5 f6 00 00       	push   $0xf6b5
    3a03:	e8 98 de 00 00       	call   118a0 <assert_abort@plt>
    3a08:	90                   	nop
    3a09:	8d b4 26 00 00 00 00 	lea    0x0(%esi,%eiz,1),%esi

00003a10 <usb_pipe_read>:
    3a10:	55                   	push   %ebp
    3a11:	89 e5                	mov    %esp,%ebp
    3a13:	57                   	push   %edi
    3a14:	56                   	push   %esi
    3a15:	53                   	push   %ebx
    3a16:	83 ec 2c             	sub    $0x2c,%esp
    3a19:	8b 5d 08             	mov    0x8(%ebp),%ebx
    3a1c:	8b 75 0c             	mov    0xc(%ebp),%esi
    3a1f:	85 db                	test   %ebx,%ebx
    3a21:	0f 84 a8 00 00 00    	je     3acf <usb_pipe_read+0xbf>
    3a27:	85 f6                	test   %esi,%esi
    3a29:	0f 84 99 00 00 00    	je     3ac8 <usb_pipe_read+0xb8>
    3a2f:	8b 45 10             	mov    0x10(%ebp),%eax
    3a32:	85 c0                	test   %eax,%eax
    3a34:	0f 84 8e 00 00 00    	je     3ac8 <usb_pipe_read+0xb8>
    3a3a:	8b 43 08             	mov    0x8(%ebx),%eax
    3a3d:	85 c0                	test   %eax,%eax
    3a3f:	75 7f                	jne    3ac0 <usb_pipe_read+0xb0>
    3a41:	8b 43 04             	mov    0x4(%ebx),%eax
    3a44:	85 c0                	test   %eax,%eax
    3a46:	74 78                	je     3ac0 <usb_pipe_read+0xb0>
    3a48:	83 e8 02             	sub    $0x2,%eax
    3a4b:	83 f8 01             	cmp    $0x1,%eax
    3a4e:	77 60                	ja     3ab0 <usb_pipe_read+0xa0>
    3a50:	83 ec 0c             	sub    $0xc,%esp
    3a53:	8b 4b 18             	mov    0x18(%ebx),%ecx
    3a56:	51                   	push   %ecx
    3a57:	e8 54 e0 00 00       	call   11ab0 <async_exchange_begin@plt>
    3a5c:	83 c4 0c             	add    $0xc,%esp
    3a5f:	89 c7                	mov    %eax,%edi
    3a61:	8d 45 e4             	lea    -0x1c(%ebp),%eax
    3a64:	c7 45 e4 00 00 00 00 	movl   $0x0,-0x1c(%ebp)
    3a6b:	50                   	push   %eax
    3a6c:	8b 45 10             	mov    0x10(%ebp),%eax
    3a6f:	50                   	push   %eax
    3a70:	56                   	push   %esi
    3a71:	0f bf 03             	movswl (%ebx),%eax
    3a74:	6a 00                	push   $0x0
    3a76:	6a 00                	push   $0x0
    3a78:	50                   	push   %eax
    3a79:	57                   	push   %edi
    3a7a:	e8 b1 94 00 00       	call   cf30 <usb_read>
    3a7f:	83 c4 14             	add    $0x14,%esp
    3a82:	89 45 d4             	mov    %eax,-0x2c(%ebp)
    3a85:	57                   	push   %edi
    3a86:	e8 05 de 00 00       	call   11890 <async_exchange_end@plt>
    3a8b:	8b 45 d4             	mov    -0x2c(%ebp),%eax
    3a8e:	83 c4 10             	add    $0x10,%esp
    3a91:	85 c0                	test   %eax,%eax
    3a93:	75 0f                	jne    3aa4 <usb_pipe_read+0x94>
    3a95:	8b 55 14             	mov    0x14(%ebp),%edx
    3a98:	85 d2                	test   %edx,%edx
    3a9a:	74 08                	je     3aa4 <usb_pipe_read+0x94>
    3a9c:	8b 4d 14             	mov    0x14(%ebp),%ecx
    3a9f:	8b 55 e4             	mov    -0x1c(%ebp),%edx
    3aa2:	89 11                	mov    %edx,(%ecx)
    3aa4:	8d 65 f4             	lea    -0xc(%ebp),%esp
    3aa7:	5b                   	pop    %ebx
    3aa8:	5e                   	pop    %esi
    3aa9:	5f                   	pop    %edi
    3aaa:	5d                   	pop    %ebp
    3aab:	c3                   	ret    
    3aac:	8d 74 26 00          	lea    0x0(%esi,%eiz,1),%esi
    3ab0:	8d 65 f4             	lea    -0xc(%ebp),%esp
    3ab3:	b8 f5 ff ff ff       	mov    $0xfffffff5,%eax
    3ab8:	5b                   	pop    %ebx
    3ab9:	5e                   	pop    %esi
    3aba:	5f                   	pop    %edi
    3abb:	5d                   	pop    %ebp
    3abc:	c3                   	ret    
    3abd:	8d 76 00             	lea    0x0(%esi),%esi
    3ac0:	b8 fa fe ff ff       	mov    $0xfffffefa,%eax
    3ac5:	eb dd                	jmp    3aa4 <usb_pipe_read+0x94>
    3ac7:	90                   	nop
    3ac8:	b8 f2 ff ff ff       	mov    $0xfffffff2,%eax
    3acd:	eb d5                	jmp    3aa4 <usb_pipe_read+0x94>
    3acf:	50                   	push   %eax
    3ad0:	68 af 00 00 00       	push   $0xaf
    3ad5:	68 a9 f6 00 00       	push   $0xf6a9
    3ada:	68 b5 f6 00 00       	push   $0xf6b5
    3adf:	e8 bc dd 00 00       	call   118a0 <assert_abort@plt>
    3ae4:	8d b6 00 00 00 00    	lea    0x0(%esi),%esi
    3aea:	8d bf 00 00 00 00    	lea    0x0(%edi),%edi

00003af0 <usb_pipe_write>:
    3af0:	55                   	push   %ebp
    3af1:	89 e5                	mov    %esp,%ebp
    3af3:	57                   	push   %edi
    3af4:	56                   	push   %esi
    3af5:	53                   	push   %ebx
    3af6:	83 ec 1c             	sub    $0x1c,%esp
    3af9:	8b 5d 08             	mov    0x8(%ebp),%ebx
    3afc:	8b 75 0c             	mov    0xc(%ebp),%esi
    3aff:	85 db                	test   %ebx,%ebx
    3b01:	0f 84 88 00 00 00    	je     3b8f <usb_pipe_write+0x9f>
    3b07:	85 f6                	test   %esi,%esi
    3b09:	74 7d                	je     3b88 <usb_pipe_write+0x98>
    3b0b:	8b 45 10             	mov    0x10(%ebp),%eax
    3b0e:	85 c0                	test   %eax,%eax
    3b10:	74 76                	je     3b88 <usb_pipe_write+0x98>
    3b12:	83 7b 08 01          	cmpl   $0x1,0x8(%ebx)
    3b16:	75 60                	jne    3b78 <usb_pipe_write+0x88>
    3b18:	8b 43 04             	mov    0x4(%ebx),%eax
    3b1b:	85 c0                	test   %eax,%eax
    3b1d:	74 59                	je     3b78 <usb_pipe_write+0x88>
    3b1f:	83 e8 02             	sub    $0x2,%eax
    3b22:	83 f8 01             	cmp    $0x1,%eax
    3b25:	77 41                	ja     3b68 <usb_pipe_write+0x78>
    3b27:	83 ec 0c             	sub    $0xc,%esp
    3b2a:	8b 43 18             	mov    0x18(%ebx),%eax
    3b2d:	50                   	push   %eax
    3b2e:	e8 7d df 00 00       	call   11ab0 <async_exchange_begin@plt>
    3b33:	89 c7                	mov    %eax,%edi
    3b35:	8b 45 10             	mov    0x10(%ebp),%eax
    3b38:	5a                   	pop    %edx
    3b39:	59                   	pop    %ecx
    3b3a:	50                   	push   %eax
    3b3b:	56                   	push   %esi
    3b3c:	0f bf 03             	movswl (%ebx),%eax
    3b3f:	6a 00                	push   $0x0
    3b41:	6a 00                	push   $0x0
    3b43:	50                   	push   %eax
    3b44:	57                   	push   %edi
    3b45:	e8 d6 94 00 00       	call   d020 <usb_write>
    3b4a:	83 c4 14             	add    $0x14,%esp
    3b4d:	57                   	push   %edi
    3b4e:	89 45 e4             	mov    %eax,-0x1c(%ebp)
    3b51:	e8 3a dd 00 00       	call   11890 <async_exchange_end@plt>
    3b56:	83 c4 10             	add    $0x10,%esp
    3b59:	8b 45 e4             	mov    -0x1c(%ebp),%eax
    3b5c:	8d 65 f4             	lea    -0xc(%ebp),%esp
    3b5f:	5b                   	pop    %ebx
    3b60:	5e                   	pop    %esi
    3b61:	5f                   	pop    %edi
    3b62:	5d                   	pop    %ebp
    3b63:	c3                   	ret    
    3b64:	8d 74 26 00          	lea    0x0(%esi,%eiz,1),%esi
    3b68:	8d 65 f4             	lea    -0xc(%ebp),%esp
    3b6b:	b8 f5 ff ff ff       	mov    $0xfffffff5,%eax
    3b70:	5b                   	pop    %ebx
    3b71:	5e                   	pop    %esi
    3b72:	5f                   	pop    %edi
    3b73:	5d                   	pop    %ebp
    3b74:	c3                   	ret    
    3b75:	8d 76 00             	lea    0x0(%esi),%esi
    3b78:	8d 65 f4             	lea    -0xc(%ebp),%esp
    3b7b:	b8 fa fe ff ff       	mov    $0xfffffefa,%eax
    3b80:	5b                   	pop    %ebx
    3b81:	5e                   	pop    %esi
    3b82:	5f                   	pop    %edi
    3b83:	5d                   	pop    %ebp
    3b84:	c3                   	ret    
    3b85:	8d 76 00             	lea    0x0(%esi),%esi
    3b88:	b8 f2 ff ff ff       	mov    $0xfffffff2,%eax
    3b8d:	eb cd                	jmp    3b5c <usb_pipe_write+0x6c>
    3b8f:	50                   	push   %eax
    3b90:	68 dc 00 00 00       	push   $0xdc
    3b95:	68 a9 f6 00 00       	push   $0xf6a9
    3b9a:	68 b5 f6 00 00       	push   $0xf6b5
    3b9f:	e8 fc dc 00 00       	call   118a0 <assert_abort@plt>
    3ba4:	8d b6 00 00 00 00    	lea    0x0(%esi),%esi
    3baa:	8d bf 00 00 00 00    	lea    0x0(%edi),%edi

00003bb0 <usb_pipe_initialize>:
    3bb0:	55                   	push   %ebp
    3bb1:	89 e5                	mov    %esp,%ebp
    3bb3:	83 ec 08             	sub    $0x8,%esp
    3bb6:	8b 45 08             	mov    0x8(%ebp),%eax
    3bb9:	8b 55 0c             	mov    0xc(%ebp),%edx
    3bbc:	85 c0                	test   %eax,%eax
    3bbe:	74 29                	je     3be9 <usb_pipe_initialize+0x39>
    3bc0:	66 89 10             	mov    %dx,(%eax)
    3bc3:	8b 55 10             	mov    0x10(%ebp),%edx
    3bc6:	89 50 04             	mov    %edx,0x4(%eax)
    3bc9:	8b 55 1c             	mov    0x1c(%ebp),%edx
    3bcc:	89 50 10             	mov    %edx,0x10(%eax)
    3bcf:	8b 55 14             	mov    0x14(%ebp),%edx
    3bd2:	89 50 0c             	mov    %edx,0xc(%eax)
    3bd5:	8b 55 18             	mov    0x18(%ebp),%edx
    3bd8:	89 50 08             	mov    %edx,0x8(%eax)
    3bdb:	8b 55 20             	mov    0x20(%ebp),%edx
    3bde:	c6 40 14 00          	movb   $0x0,0x14(%eax)
    3be2:	89 50 18             	mov    %edx,0x18(%eax)
    3be5:	c9                   	leave  
    3be6:	31 c0                	xor    %eax,%eax
    3be8:	c3                   	ret    
    3be9:	50                   	push   %eax
    3bea:	68 02 01 00 00       	push   $0x102
    3bef:	68 a9 f6 00 00       	push   $0xf6a9
    3bf4:	68 b5 f6 00 00       	push   $0xf6b5
    3bf9:	e8 a2 dc 00 00       	call   118a0 <assert_abort@plt>
    3bfe:	66 90                	xchg   %ax,%ax

00003c00 <usb_pipe_initialize_default_control>:
    3c00:	55                   	push   %ebp
    3c01:	89 e5                	mov    %esp,%ebp
    3c03:	83 ec 08             	sub    $0x8,%esp
    3c06:	8b 45 08             	mov    0x8(%ebp),%eax
    3c09:	85 c0                	test   %eax,%eax
    3c0b:	74 2f                	je     3c3c <usb_pipe_initialize_default_control+0x3c>
    3c0d:	8b 55 0c             	mov    0xc(%ebp),%edx
    3c10:	66 c7 00 00 00       	movw   $0x0,(%eax)
    3c15:	c7 40 04 00 00 00 00 	movl   $0x0,0x4(%eax)
    3c1c:	c7 40 10 01 00 00 00 	movl   $0x1,0x10(%eax)
    3c23:	c7 40 0c 08 00 00 00 	movl   $0x8,0xc(%eax)
    3c2a:	c7 40 08 02 00 00 00 	movl   $0x2,0x8(%eax)
    3c31:	89 50 18             	mov    %edx,0x18(%eax)
    3c34:	c6 40 14 01          	movb   $0x1,0x14(%eax)
    3c38:	c9                   	leave  
    3c39:	31 c0                	xor    %eax,%eax
    3c3b:	c3                   	ret    
    3c3c:	50                   	push   %eax
    3c3d:	68 17 01 00 00       	push   $0x117
    3c42:	68 a9 f6 00 00       	push   $0xf6a9
    3c47:	68 b5 f6 00 00       	push   $0xf6b5
    3c4c:	e8 4f dc 00 00       	call   118a0 <assert_abort@plt>
    3c51:	eb 0d                	jmp    3c60 <usb_pipe_register>
    3c53:	90                   	nop
    3c54:	90                   	nop
    3c55:	90                   	nop
    3c56:	90                   	nop
    3c57:	90                   	nop
    3c58:	90                   	nop
    3c59:	90                   	nop
    3c5a:	90                   	nop
    3c5b:	90                   	nop
    3c5c:	90                   	nop
    3c5d:	90                   	nop
    3c5e:	90                   	nop
    3c5f:	90                   	nop

00003c60 <usb_pipe_register>:
    3c60:	55                   	push   %ebp
    3c61:	89 e5                	mov    %esp,%ebp
    3c63:	56                   	push   %esi
    3c64:	53                   	push   %ebx
    3c65:	83 ec 10             	sub    $0x10,%esp
    3c68:	8b 5d 08             	mov    0x8(%ebp),%ebx
    3c6b:	85 db                	test   %ebx,%ebx
    3c6d:	74 6d                	je     3cdc <usb_pipe_register+0x7c>
    3c6f:	8b 43 18             	mov    0x18(%ebx),%eax
    3c72:	85 c0                	test   %eax,%eax
    3c74:	74 51                	je     3cc7 <usb_pipe_register+0x67>
    3c76:	83 ec 0c             	sub    $0xc,%esp
    3c79:	50                   	push   %eax
    3c7a:	e8 31 de 00 00       	call   11ab0 <async_exchange_begin@plt>
    3c7f:	83 c4 10             	add    $0x10,%esp
    3c82:	89 c6                	mov    %eax,%esi
    3c84:	85 c0                	test   %eax,%eax
    3c86:	74 38                	je     3cc0 <usb_pipe_register+0x60>
    3c88:	8b 55 0c             	mov    0xc(%ebp),%edx
    3c8b:	50                   	push   %eax
    3c8c:	52                   	push   %edx
    3c8d:	8b 4b 10             	mov    0x10(%ebx),%ecx
    3c90:	51                   	push   %ecx
    3c91:	8b 43 0c             	mov    0xc(%ebx),%eax
    3c94:	50                   	push   %eax
    3c95:	8b 43 08             	mov    0x8(%ebx),%eax
    3c98:	50                   	push   %eax
    3c99:	8b 43 04             	mov    0x4(%ebx),%eax
    3c9c:	50                   	push   %eax
    3c9d:	0f bf 03             	movswl (%ebx),%eax
    3ca0:	50                   	push   %eax
    3ca1:	56                   	push   %esi
    3ca2:	e8 d9 91 00 00       	call   ce80 <usb_register_endpoint>
    3ca7:	83 c4 14             	add    $0x14,%esp
    3caa:	56                   	push   %esi
    3cab:	89 45 f4             	mov    %eax,-0xc(%ebp)
    3cae:	e8 dd db 00 00       	call   11890 <async_exchange_end@plt>
    3cb3:	83 c4 10             	add    $0x10,%esp
    3cb6:	8b 45 f4             	mov    -0xc(%ebp),%eax
    3cb9:	8d 65 f8             	lea    -0x8(%ebp),%esp
    3cbc:	5b                   	pop    %ebx
    3cbd:	5e                   	pop    %esi
    3cbe:	5d                   	pop    %ebp
    3cbf:	c3                   	ret    
    3cc0:	b8 fe ff ff ff       	mov    $0xfffffffe,%eax
    3cc5:	eb f2                	jmp    3cb9 <usb_pipe_register+0x59>
    3cc7:	50                   	push   %eax
    3cc8:	68 2a 01 00 00       	push   $0x12a
    3ccd:	68 a9 f6 00 00       	push   $0xf6a9
    3cd2:	68 ba f6 00 00       	push   $0xf6ba
    3cd7:	e8 c4 db 00 00       	call   118a0 <assert_abort@plt>
    3cdc:	50                   	push   %eax
    3cdd:	68 29 01 00 00       	push   $0x129
    3ce2:	68 a9 f6 00 00       	push   $0xf6a9
    3ce7:	68 b5 f6 00 00       	push   $0xf6b5
    3cec:	e8 af db 00 00       	call   118a0 <assert_abort@plt>
    3cf1:	eb 0d                	jmp    3d00 <usb_pipe_unregister>
    3cf3:	90                   	nop
    3cf4:	90                   	nop
    3cf5:	90                   	nop
    3cf6:	90                   	nop
    3cf7:	90                   	nop
    3cf8:	90                   	nop
    3cf9:	90                   	nop
    3cfa:	90                   	nop
    3cfb:	90                   	nop
    3cfc:	90                   	nop
    3cfd:	90                   	nop
    3cfe:	90                   	nop
    3cff:	90                   	nop

00003d00 <usb_pipe_unregister>:
    3d00:	55                   	push   %ebp
    3d01:	89 e5                	mov    %esp,%ebp
    3d03:	56                   	push   %esi
    3d04:	53                   	push   %ebx
    3d05:	83 ec 10             	sub    $0x10,%esp
    3d08:	8b 5d 08             	mov    0x8(%ebp),%ebx
    3d0b:	85 db                	test   %ebx,%ebx
    3d0d:	74 5d                	je     3d6c <usb_pipe_unregister+0x6c>
    3d0f:	8b 43 18             	mov    0x18(%ebx),%eax
    3d12:	85 c0                	test   %eax,%eax
    3d14:	74 41                	je     3d57 <usb_pipe_unregister+0x57>
    3d16:	83 ec 0c             	sub    $0xc,%esp
    3d19:	50                   	push   %eax
    3d1a:	e8 91 dd 00 00       	call   11ab0 <async_exchange_begin@plt>
    3d1f:	83 c4 10             	add    $0x10,%esp
    3d22:	89 c6                	mov    %eax,%esi
    3d24:	85 c0                	test   %eax,%eax
    3d26:	74 28                	je     3d50 <usb_pipe_unregister+0x50>
    3d28:	50                   	push   %eax
    3d29:	0f bf 03             	movswl (%ebx),%eax
    3d2c:	8b 53 08             	mov    0x8(%ebx),%edx
    3d2f:	52                   	push   %edx
    3d30:	50                   	push   %eax
    3d31:	56                   	push   %esi
    3d32:	e8 b9 91 00 00       	call   cef0 <usb_unregister_endpoint>
    3d37:	89 34 24             	mov    %esi,(%esp)
    3d3a:	89 45 f4             	mov    %eax,-0xc(%ebp)
    3d3d:	e8 4e db 00 00       	call   11890 <async_exchange_end@plt>
    3d42:	83 c4 10             	add    $0x10,%esp
    3d45:	8b 45 f4             	mov    -0xc(%ebp),%eax
    3d48:	8d 65 f8             	lea    -0x8(%ebp),%esp
    3d4b:	5b                   	pop    %ebx
    3d4c:	5e                   	pop    %esi
    3d4d:	5d                   	pop    %ebp
    3d4e:	c3                   	ret    
    3d4f:	90                   	nop
    3d50:	b8 fe ff ff ff       	mov    $0xfffffffe,%eax
    3d55:	eb f1                	jmp    3d48 <usb_pipe_unregister+0x48>
    3d57:	51                   	push   %ecx
    3d58:	68 3d 01 00 00       	push   $0x13d
    3d5d:	68 a9 f6 00 00       	push   $0xf6a9
    3d62:	68 ba f6 00 00       	push   $0xf6ba
    3d67:	e8 34 db 00 00       	call   118a0 <assert_abort@plt>
    3d6c:	53                   	push   %ebx
    3d6d:	68 3c 01 00 00       	push   $0x13c
    3d72:	68 a9 f6 00 00       	push   $0xf6a9
    3d77:	68 b5 f6 00 00       	push   $0xf6b5
    3d7c:	e8 1f db 00 00       	call   118a0 <assert_abort@plt>
    3d81:	66 90                	xchg   %ax,%ax
    3d83:	66 90                	xchg   %ax,%ax
    3d85:	66 90                	xchg   %ax,%ax
    3d87:	66 90                	xchg   %ax,%ax
    3d89:	66 90                	xchg   %ax,%ax
    3d8b:	66 90                	xchg   %ax,%ax
    3d8d:	66 90                	xchg   %ax,%ax
    3d8f:	90                   	nop

00003d90 <usb_pipe_initialize_from_configuration>:
    3d90:	55                   	push   %ebp
    3d91:	89 e5                	mov    %esp,%ebp
    3d93:	57                   	push   %edi
    3d94:	56                   	push   %esi
    3d95:	53                   	push   %ebx
    3d96:	83 ec 4c             	sub    $0x4c,%esp
    3d99:	8b 75 10             	mov    0x10(%ebp),%esi
    3d9c:	8b 4d 14             	mov    0x14(%ebp),%ecx
    3d9f:	85 f6                	test   %esi,%esi
    3da1:	0f 84 25 02 00 00    	je     3fcc <usb_pipe_initialize_from_configuration+0x23c>
    3da7:	83 f9 08             	cmp    $0x8,%ecx
    3daa:	0f 86 10 02 00 00    	jbe    3fc0 <usb_pipe_initialize_from_configuration+0x230>
    3db0:	8b 5d 0c             	mov    0xc(%ebp),%ebx
    3db3:	85 db                	test   %ebx,%ebx
    3db5:	74 31                	je     3de8 <usb_pipe_initialize_from_configuration+0x58>
    3db7:	8b 7d 0c             	mov    0xc(%ebp),%edi
    3dba:	8b 45 08             	mov    0x8(%ebp),%eax
    3dbd:	83 c0 28             	add    $0x28,%eax
    3dc0:	8d 14 7f             	lea    (%edi,%edi,2),%edx
    3dc3:	8d 14 97             	lea    (%edi,%edx,4),%edx
    3dc6:	8b 7d 08             	mov    0x8(%ebp),%edi
    3dc9:	8d 54 97 28          	lea    0x28(%edi,%edx,4),%edx
    3dcd:	8d 76 00             	lea    0x0(%esi),%esi
    3dd0:	c6 40 08 00          	movb   $0x0,0x8(%eax)
    3dd4:	c7 00 00 00 00 00    	movl   $0x0,(%eax)
    3dda:	c7 40 04 00 00 00 00 	movl   $0x0,0x4(%eax)
    3de1:	83 c0 34             	add    $0x34,%eax
    3de4:	39 d0                	cmp    %edx,%eax
    3de6:	75 e8                	jne    3dd0 <usb_pipe_initialize_from_configuration+0x40>
    3de8:	8b 45 10             	mov    0x10(%ebp),%eax
    3deb:	52                   	push   %edx
    3dec:	89 45 dc             	mov    %eax,-0x24(%ebp)
    3def:	50                   	push   %eax
    3df0:	8d 45 dc             	lea    -0x24(%ebp),%eax
    3df3:	c7 45 d8 e0 f6 00 00 	movl   $0xf6e0,-0x28(%ebp)
    3dfa:	50                   	push   %eax
    3dfb:	8d 45 d8             	lea    -0x28(%ebp),%eax
    3dfe:	50                   	push   %eax
    3dff:	c7 45 e4 00 00 00 00 	movl   $0x0,-0x1c(%ebp)
    3e06:	89 4d e0             	mov    %ecx,-0x20(%ebp)
    3e09:	e8 12 15 00 00       	call   5320 <usb_dp_get_nested_descriptor>
    3e0e:	83 c4 10             	add    $0x10,%esp
    3e11:	89 45 c8             	mov    %eax,-0x38(%ebp)
    3e14:	85 c0                	test   %eax,%eax
    3e16:	0f 84 ab 01 00 00    	je     3fc7 <usb_pipe_initialize_from_configuration+0x237>
    3e1c:	8d 74 26 00          	lea    0x0(%esi,%eiz,1),%esi
    3e20:	50                   	push   %eax
    3e21:	8b 45 c8             	mov    -0x38(%ebp),%eax
    3e24:	50                   	push   %eax
    3e25:	8d 45 dc             	lea    -0x24(%ebp),%eax
    3e28:	50                   	push   %eax
    3e29:	8d 45 d8             	lea    -0x28(%ebp),%eax
    3e2c:	50                   	push   %eax
    3e2d:	e8 ee 14 00 00       	call   5320 <usb_dp_get_nested_descriptor>
    3e32:	83 c4 10             	add    $0x10,%esp
    3e35:	89 c6                	mov    %eax,%esi
    3e37:	85 c0                	test   %eax,%eax
    3e39:	75 24                	jne    3e5f <usb_pipe_initialize_from_configuration+0xcf>
    3e3b:	e9 48 01 00 00       	jmp    3f88 <usb_pipe_initialize_from_configuration+0x1f8>
    3e40:	8b 45 c8             	mov    -0x38(%ebp),%eax
    3e43:	56                   	push   %esi
    3e44:	50                   	push   %eax
    3e45:	8d 45 dc             	lea    -0x24(%ebp),%eax
    3e48:	50                   	push   %eax
    3e49:	8d 45 d8             	lea    -0x28(%ebp),%eax
    3e4c:	50                   	push   %eax
    3e4d:	e8 2e 18 00 00       	call   5680 <usb_dp_get_sibling_descriptor>
    3e52:	83 c4 10             	add    $0x10,%esp
    3e55:	89 c6                	mov    %eax,%esi
    3e57:	85 c0                	test   %eax,%eax
    3e59:	0f 84 29 01 00 00    	je     3f88 <usb_pipe_initialize_from_configuration+0x1f8>
    3e5f:	80 7e 01 05          	cmpb   $0x5,0x1(%esi)
    3e63:	75 db                	jne    3e40 <usb_pipe_initialize_from_configuration+0xb0>
    3e65:	8a 46 02             	mov    0x2(%esi),%al
    3e68:	8b 5d c8             	mov    -0x38(%ebp),%ebx
    3e6b:	83 e0 0f             	and    $0xf,%eax
    3e6e:	88 45 ce             	mov    %al,-0x32(%ebp)
    3e71:	8a 46 03             	mov    0x3(%esi),%al
    3e74:	83 e0 03             	and    $0x3,%eax
    3e77:	89 45 c4             	mov    %eax,-0x3c(%ebp)
    3e7a:	0f be 46 02          	movsbl 0x2(%esi),%eax
    3e7e:	83 f0 ff             	xor    $0xffffffff,%eax
    3e81:	c1 e8 1f             	shr    $0x1f,%eax
    3e84:	89 c7                	mov    %eax,%edi
    3e86:	31 c0                	xor    %eax,%eax
    3e88:	8a 43 05             	mov    0x5(%ebx),%al
    3e8b:	89 45 c0             	mov    %eax,-0x40(%ebp)
    3e8e:	31 c0                	xor    %eax,%eax
    3e90:	8a 43 06             	mov    0x6(%ebx),%al
    3e93:	89 45 b4             	mov    %eax,-0x4c(%ebp)
    3e96:	31 c0                	xor    %eax,%eax
    3e98:	8a 43 07             	mov    0x7(%ebx),%al
    3e9b:	89 45 b0             	mov    %eax,-0x50(%ebp)
    3e9e:	31 c0                	xor    %eax,%eax
    3ea0:	8a 43 03             	mov    0x3(%ebx),%al
    3ea3:	89 45 d4             	mov    %eax,-0x2c(%ebp)
    3ea6:	31 c0                	xor    %eax,%eax
    3ea8:	8a 43 02             	mov    0x2(%ebx),%al
    3eab:	8b 5d 08             	mov    0x8(%ebp),%ebx
    3eae:	89 45 d0             	mov    %eax,-0x30(%ebp)
    3eb1:	8b 45 0c             	mov    0xc(%ebp),%eax
    3eb4:	85 c0                	test   %eax,%eax
    3eb6:	74 88                	je     3e40 <usb_pipe_initialize_from_configuration+0xb0>
    3eb8:	89 75 bc             	mov    %esi,-0x44(%ebp)
    3ebb:	89 c6                	mov    %eax,%esi
    3ebd:	eb 0b                	jmp    3eca <usb_pipe_initialize_from_configuration+0x13a>
    3ebf:	90                   	nop
    3ec0:	83 c3 34             	add    $0x34,%ebx
    3ec3:	4e                   	dec    %esi
    3ec4:	0f 84 ee 00 00 00    	je     3fb8 <usb_pipe_initialize_from_configuration+0x228>
    3eca:	8b 53 20             	mov    0x20(%ebx),%edx
    3ecd:	89 d0                	mov    %edx,%eax
    3ecf:	c1 e8 1f             	shr    $0x1f,%eax
    3ed2:	39 55 d0             	cmp    %edx,-0x30(%ebp)
    3ed5:	0f 94 c2             	sete   %dl
    3ed8:	09 c2                	or     %eax,%edx
    3eda:	8b 43 24             	mov    0x24(%ebx),%eax
    3edd:	39 45 d4             	cmp    %eax,-0x2c(%ebp)
    3ee0:	88 55 cf             	mov    %dl,-0x31(%ebp)
    3ee3:	0f 94 c1             	sete   %cl
    3ee6:	c1 e8 1f             	shr    $0x1f,%eax
    3ee9:	09 c8                	or     %ecx,%eax
    3eeb:	8b 4b 1c             	mov    0x1c(%ebx),%ecx
    3eee:	3b 79 04             	cmp    0x4(%ecx),%edi
    3ef1:	75 cd                	jne    3ec0 <usb_pipe_initialize_from_configuration+0x130>
    3ef3:	8b 55 c4             	mov    -0x3c(%ebp),%edx
    3ef6:	3b 11                	cmp    (%ecx),%edx
    3ef8:	75 c6                	jne    3ec0 <usb_pipe_initialize_from_configuration+0x130>
    3efa:	8b 51 08             	mov    0x8(%ecx),%edx
    3efd:	39 55 c0             	cmp    %edx,-0x40(%ebp)
    3f00:	74 05                	je     3f07 <usb_pipe_initialize_from_configuration+0x177>
    3f02:	83 ea 00             	sub    $0x0,%edx
    3f05:	79 b9                	jns    3ec0 <usb_pipe_initialize_from_configuration+0x130>
    3f07:	8b 51 0c             	mov    0xc(%ecx),%edx
    3f0a:	89 55 b8             	mov    %edx,-0x48(%ebp)
    3f0d:	83 ea 00             	sub    $0x0,%edx
    3f10:	78 08                	js     3f1a <usb_pipe_initialize_from_configuration+0x18a>
    3f12:	8b 55 b8             	mov    -0x48(%ebp),%edx
    3f15:	39 55 b4             	cmp    %edx,-0x4c(%ebp)
    3f18:	75 a6                	jne    3ec0 <usb_pipe_initialize_from_configuration+0x130>
    3f1a:	8b 49 10             	mov    0x10(%ecx),%ecx
    3f1d:	39 4d b0             	cmp    %ecx,-0x50(%ebp)
    3f20:	74 05                	je     3f27 <usb_pipe_initialize_from_configuration+0x197>
    3f22:	83 e9 00             	sub    $0x0,%ecx
    3f25:	79 99                	jns    3ec0 <usb_pipe_initialize_from_configuration+0x130>
    3f27:	84 c0                	test   %al,%al
    3f29:	74 95                	je     3ec0 <usb_pipe_initialize_from_configuration+0x130>
    3f2b:	80 7d cf 00          	cmpb   $0x0,-0x31(%ebp)
    3f2f:	74 8f                	je     3ec0 <usb_pipe_initialize_from_configuration+0x130>
    3f31:	8b 75 bc             	mov    -0x44(%ebp),%esi
    3f34:	80 7b 30 00          	cmpb   $0x0,0x30(%ebx)
    3f38:	0f 85 02 ff ff ff    	jne    3e40 <usb_pipe_initialize_from_configuration+0xb0>
    3f3e:	66 8b 56 04          	mov    0x4(%esi),%dx
    3f42:	8b 45 18             	mov    0x18(%ebp),%eax
    3f45:	51                   	push   %ecx
    3f46:	50                   	push   %eax
    3f47:	89 d0                	mov    %edx,%eax
    3f49:	81 e2 ff 03 00 00    	and    $0x3ff,%edx
    3f4f:	66 c1 e8 0a          	shr    $0xa,%ax
    3f53:	83 e0 03             	and    $0x3,%eax
    3f56:	40                   	inc    %eax
    3f57:	50                   	push   %eax
    3f58:	8b 45 c4             	mov    -0x3c(%ebp),%eax
    3f5b:	57                   	push   %edi
    3f5c:	52                   	push   %edx
    3f5d:	50                   	push   %eax
    3f5e:	31 c0                	xor    %eax,%eax
    3f60:	8a 45 ce             	mov    -0x32(%ebp),%al
    3f63:	50                   	push   %eax
    3f64:	53                   	push   %ebx
    3f65:	e8 46 fc ff ff       	call   3bb0 <usb_pipe_initialize>
    3f6a:	83 c4 20             	add    $0x20,%esp
    3f6d:	85 c0                	test   %eax,%eax
    3f6f:	0f 85 cb fe ff ff    	jne    3e40 <usb_pipe_initialize_from_configuration+0xb0>
    3f75:	8b 45 c8             	mov    -0x38(%ebp),%eax
    3f78:	c6 43 30 01          	movb   $0x1,0x30(%ebx)
    3f7c:	89 73 28             	mov    %esi,0x28(%ebx)
    3f7f:	89 43 2c             	mov    %eax,0x2c(%ebx)
    3f82:	e9 b9 fe ff ff       	jmp    3e40 <usb_pipe_initialize_from_configuration+0xb0>
    3f87:	90                   	nop
    3f88:	8b 45 c8             	mov    -0x38(%ebp),%eax
    3f8b:	50                   	push   %eax
    3f8c:	8b 45 10             	mov    0x10(%ebp),%eax
    3f8f:	50                   	push   %eax
    3f90:	8d 45 dc             	lea    -0x24(%ebp),%eax
    3f93:	50                   	push   %eax
    3f94:	8d 45 d8             	lea    -0x28(%ebp),%eax
    3f97:	50                   	push   %eax
    3f98:	e8 e3 16 00 00       	call   5680 <usb_dp_get_sibling_descriptor>
    3f9d:	83 c4 10             	add    $0x10,%esp
    3fa0:	89 45 c8             	mov    %eax,-0x38(%ebp)
    3fa3:	85 c0                	test   %eax,%eax
    3fa5:	0f 85 75 fe ff ff    	jne    3e20 <usb_pipe_initialize_from_configuration+0x90>
    3fab:	8d 65 f4             	lea    -0xc(%ebp),%esp
    3fae:	5b                   	pop    %ebx
    3faf:	5e                   	pop    %esi
    3fb0:	5f                   	pop    %edi
    3fb1:	5d                   	pop    %ebp
    3fb2:	c3                   	ret    
    3fb3:	90                   	nop
    3fb4:	8d 74 26 00          	lea    0x0(%esi,%eiz,1),%esi
    3fb8:	8b 75 bc             	mov    -0x44(%ebp),%esi
    3fbb:	e9 80 fe ff ff       	jmp    3e40 <usb_pipe_initialize_from_configuration+0xb0>
    3fc0:	b8 f8 fe ff ff       	mov    $0xfffffef8,%eax
    3fc5:	eb e4                	jmp    3fab <usb_pipe_initialize_from_configuration+0x21b>
    3fc7:	83 c8 ff             	or     $0xffffffff,%eax
    3fca:	eb df                	jmp    3fab <usb_pipe_initialize_from_configuration+0x21b>
    3fcc:	b8 f6 ff ff ff       	mov    $0xfffffff6,%eax
    3fd1:	eb d8                	jmp    3fab <usb_pipe_initialize_from_configuration+0x21b>
    3fd3:	8d b6 00 00 00 00    	lea    0x0(%esi),%esi
    3fd9:	8d bc 27 00 00 00 00 	lea    0x0(%edi,%eiz,1),%edi

00003fe0 <usb_pipe_probe_default_control>:
    3fe0:	55                   	push   %ebp
    3fe1:	89 e5                	mov    %esp,%ebp
    3fe3:	57                   	push   %edi
    3fe4:	56                   	push   %esi
    3fe5:	53                   	push   %ebx
    3fe6:	83 ec 2c             	sub    $0x2c,%esp
    3fe9:	8b 5d 08             	mov    0x8(%ebp),%ebx
    3fec:	85 db                	test   %ebx,%ebx
    3fee:	74 75                	je     4065 <usb_pipe_probe_default_control+0x85>
    3ff0:	83 7b 08 02          	cmpl   $0x2,0x8(%ebx)
    3ff4:	75 62                	jne    4058 <usb_pipe_probe_default_control+0x78>
    3ff6:	8b 43 04             	mov    0x4(%ebx),%eax
    3ff9:	85 c0                	test   %eax,%eax
    3ffb:	75 5b                	jne    4058 <usb_pipe_probe_default_control+0x78>
    3ffd:	66 83 3b 00          	cmpw   $0x0,(%ebx)
    4001:	75 55                	jne    4058 <usb_pipe_probe_default_control+0x78>
    4003:	c7 45 d4 03 00 00 00 	movl   $0x3,-0x2c(%ebp)
    400a:	8d 7d dc             	lea    -0x24(%ebp),%edi
    400d:	8d 75 e0             	lea    -0x20(%ebp),%esi
    4010:	83 ec 0c             	sub    $0xc,%esp
    4013:	57                   	push   %edi
    4014:	6a 08                	push   $0x8
    4016:	56                   	push   %esi
    4017:	6a 00                	push   $0x0
    4019:	6a 00                	push   $0x0
    401b:	6a 01                	push   $0x1
    401d:	6a 00                	push   $0x0
    401f:	6a 00                	push   $0x0
    4021:	53                   	push   %ebx
    4022:	e8 f9 02 00 00       	call   4320 <usb_request_get_descriptor>
    4027:	83 c4 30             	add    $0x30,%esp
    402a:	85 c0                	test   %eax,%eax
    402c:	75 0b                	jne    4039 <usb_pipe_probe_default_control+0x59>
    402e:	83 7d dc 08          	cmpl   $0x8,-0x24(%ebp)
    4032:	74 14                	je     4048 <usb_pipe_probe_default_control+0x68>
    4034:	b8 fd ff ff ff       	mov    $0xfffffffd,%eax
    4039:	ff 4d d4             	decl   -0x2c(%ebp)
    403c:	75 d2                	jne    4010 <usb_pipe_probe_default_control+0x30>
    403e:	8d 65 f4             	lea    -0xc(%ebp),%esp
    4041:	5b                   	pop    %ebx
    4042:	5e                   	pop    %esi
    4043:	5f                   	pop    %edi
    4044:	5d                   	pop    %ebp
    4045:	c3                   	ret    
    4046:	66 90                	xchg   %ax,%ax
    4048:	31 c9                	xor    %ecx,%ecx
    404a:	8a 4d e7             	mov    -0x19(%ebp),%cl
    404d:	89 4b 0c             	mov    %ecx,0xc(%ebx)
    4050:	8d 65 f4             	lea    -0xc(%ebp),%esp
    4053:	5b                   	pop    %ebx
    4054:	5e                   	pop    %esi
    4055:	5f                   	pop    %edi
    4056:	5d                   	pop    %ebp
    4057:	c3                   	ret    
    4058:	8d 65 f4             	lea    -0xc(%ebp),%esp
    405b:	b8 f2 ff ff ff       	mov    $0xfffffff2,%eax
    4060:	5b                   	pop    %ebx
    4061:	5e                   	pop    %esi
    4062:	5f                   	pop    %edi
    4063:	5d                   	pop    %ebp
    4064:	c3                   	ret    
    4065:	52                   	push   %edx
    4066:	68 56 01 00 00       	push   $0x156
    406b:	68 cc f6 00 00       	push   $0xf6cc
    4070:	68 b5 f6 00 00       	push   $0xf6b5
    4075:	e8 26 d8 00 00       	call   118a0 <assert_abort@plt>
    407a:	66 90                	xchg   %ax,%ax
    407c:	66 90                	xchg   %ax,%ax
    407e:	66 90                	xchg   %ax,%ax

00004080 <usb_control_request_set>:
    4080:	55                   	push   %ebp
    4081:	89 e5                	mov    %esp,%ebp
    4083:	57                   	push   %edi
    4084:	56                   	push   %esi
    4085:	53                   	push   %ebx
    4086:	83 ec 1c             	sub    $0x1c,%esp
    4089:	8b 4d 08             	mov    0x8(%ebp),%ecx
    408c:	8b 7d 14             	mov    0x14(%ebp),%edi
    408f:	8b 75 18             	mov    0x18(%ebp),%esi
    4092:	8b 5d 1c             	mov    0x1c(%ebp),%ebx
    4095:	8b 55 24             	mov    0x24(%ebp),%edx
    4098:	85 c9                	test   %ecx,%ecx
    409a:	74 54                	je     40f0 <usb_control_request_set+0x70>
    409c:	81 fa ff ff 00 00    	cmp    $0xffff,%edx
    40a2:	77 54                	ja     40f8 <usb_control_request_set+0x78>
    40a4:	85 d2                	test   %edx,%edx
    40a6:	74 07                	je     40af <usb_control_request_set+0x2f>
    40a8:	8b 45 20             	mov    0x20(%ebp),%eax
    40ab:	85 c0                	test   %eax,%eax
    40ad:	74 41                	je     40f0 <usb_control_request_set+0x70>
    40af:	8a 45 0c             	mov    0xc(%ebp),%al
    40b2:	83 ec 0c             	sub    $0xc,%esp
    40b5:	c1 e0 05             	shl    $0x5,%eax
    40b8:	66 89 75 e2          	mov    %si,-0x1e(%ebp)
    40bc:	0b 45 10             	or     0x10(%ebp),%eax
    40bf:	52                   	push   %edx
    40c0:	88 45 e0             	mov    %al,-0x20(%ebp)
    40c3:	89 f8                	mov    %edi,%eax
    40c5:	88 45 e1             	mov    %al,-0x1f(%ebp)
    40c8:	8b 45 20             	mov    0x20(%ebp),%eax
    40cb:	50                   	push   %eax
    40cc:	8d 45 e0             	lea    -0x20(%ebp),%eax
    40cf:	6a 08                	push   $0x8
    40d1:	50                   	push   %eax
    40d2:	51                   	push   %ecx
    40d3:	66 89 5d e4          	mov    %bx,-0x1c(%ebp)
    40d7:	66 89 55 e6          	mov    %dx,-0x1a(%ebp)
    40db:	e8 30 f8 ff ff       	call   3910 <usb_pipe_control_write>
    40e0:	83 c4 20             	add    $0x20,%esp
    40e3:	8d 65 f4             	lea    -0xc(%ebp),%esp
    40e6:	5b                   	pop    %ebx
    40e7:	5e                   	pop    %esi
    40e8:	5f                   	pop    %edi
    40e9:	5d                   	pop    %ebp
    40ea:	c3                   	ret    
    40eb:	90                   	nop
    40ec:	8d 74 26 00          	lea    0x0(%esi,%eiz,1),%esi
    40f0:	b8 f6 ff ff ff       	mov    $0xfffffff6,%eax
    40f5:	eb ec                	jmp    40e3 <usb_control_request_set+0x63>
    40f7:	90                   	nop
    40f8:	b8 f8 fe ff ff       	mov    $0xfffffef8,%eax
    40fd:	eb e4                	jmp    40e3 <usb_control_request_set+0x63>
    40ff:	90                   	nop

00004100 <usb_control_request_get>:
    4100:	55                   	push   %ebp
    4101:	89 e5                	mov    %esp,%ebp
    4103:	57                   	push   %edi
    4104:	56                   	push   %esi
    4105:	53                   	push   %ebx
    4106:	83 ec 2c             	sub    $0x2c,%esp
    4109:	8b 4d 08             	mov    0x8(%ebp),%ecx
    410c:	8b 7d 14             	mov    0x14(%ebp),%edi
    410f:	8b 75 18             	mov    0x18(%ebp),%esi
    4112:	8b 5d 1c             	mov    0x1c(%ebp),%ebx
    4115:	8b 55 24             	mov    0x24(%ebp),%edx
    4118:	85 c9                	test   %ecx,%ecx
    411a:	74 5c                	je     4178 <usb_control_request_get+0x78>
    411c:	81 fa ff ff 00 00    	cmp    $0xffff,%edx
    4122:	77 5c                	ja     4180 <usb_control_request_get+0x80>
    4124:	85 d2                	test   %edx,%edx
    4126:	74 07                	je     412f <usb_control_request_get+0x2f>
    4128:	8b 45 20             	mov    0x20(%ebp),%eax
    412b:	85 c0                	test   %eax,%eax
    412d:	74 49                	je     4178 <usb_control_request_get+0x78>
    412f:	8a 45 0c             	mov    0xc(%ebp),%al
    4132:	66 89 75 e2          	mov    %si,-0x1e(%ebp)
    4136:	c1 e0 05             	shl    $0x5,%eax
    4139:	66 89 5d e4          	mov    %bx,-0x1c(%ebp)
    413d:	88 45 d7             	mov    %al,-0x29(%ebp)
    4140:	8a 45 10             	mov    0x10(%ebp),%al
    4143:	83 c8 80             	or     $0xffffff80,%eax
    4146:	8b 5d 28             	mov    0x28(%ebp),%ebx
    4149:	0a 45 d7             	or     -0x29(%ebp),%al
    414c:	8b 75 20             	mov    0x20(%ebp),%esi
    414f:	88 45 e0             	mov    %al,-0x20(%ebp)
    4152:	89 f8                	mov    %edi,%eax
    4154:	88 45 e1             	mov    %al,-0x1f(%ebp)
    4157:	50                   	push   %eax
    4158:	50                   	push   %eax
    4159:	8d 45 e0             	lea    -0x20(%ebp),%eax
    415c:	53                   	push   %ebx
    415d:	52                   	push   %edx
    415e:	56                   	push   %esi
    415f:	6a 08                	push   $0x8
    4161:	50                   	push   %eax
    4162:	51                   	push   %ecx
    4163:	66 89 55 e6          	mov    %dx,-0x1a(%ebp)
    4167:	e8 74 f6 ff ff       	call   37e0 <usb_pipe_control_read>
    416c:	83 c4 20             	add    $0x20,%esp
    416f:	8d 65 f4             	lea    -0xc(%ebp),%esp
    4172:	5b                   	pop    %ebx
    4173:	5e                   	pop    %esi
    4174:	5f                   	pop    %edi
    4175:	5d                   	pop    %ebp
    4176:	c3                   	ret    
    4177:	90                   	nop
    4178:	b8 f6 ff ff ff       	mov    $0xfffffff6,%eax
    417d:	eb f0                	jmp    416f <usb_control_request_get+0x6f>
    417f:	90                   	nop
    4180:	b8 f8 fe ff ff       	mov    $0xfffffef8,%eax
    4185:	eb e8                	jmp    416f <usb_control_request_get+0x6f>
    4187:	89 f6                	mov    %esi,%esi
    4189:	8d bc 27 00 00 00 00 	lea    0x0(%edi,%eiz,1),%edi

00004190 <usb_request_get_status>:
    4190:	55                   	push   %ebp
    4191:	89 e5                	mov    %esp,%ebp
    4193:	53                   	push   %ebx
    4194:	83 ec 14             	sub    $0x14,%esp
    4197:	8b 45 0c             	mov    0xc(%ebp),%eax
    419a:	8b 55 08             	mov    0x8(%ebp),%edx
    419d:	8b 4d 10             	mov    0x10(%ebp),%ecx
    41a0:	8b 5d 14             	mov    0x14(%ebp),%ebx
    41a3:	85 c0                	test   %eax,%eax
    41a5:	75 05                	jne    41ac <usb_request_get_status+0x1c>
    41a7:	66 85 c9             	test   %cx,%cx
    41aa:	75 6c                	jne    4218 <usb_request_get_status+0x88>
    41ac:	85 db                	test   %ebx,%ebx
    41ae:	74 50                	je     4200 <usb_request_get_status+0x70>
    41b0:	85 d2                	test   %edx,%edx
    41b2:	74 4c                	je     4200 <usb_request_get_status+0x70>
    41b4:	83 c8 80             	or     $0xffffff80,%eax
    41b7:	c6 45 f1 00          	movb   $0x0,-0xf(%ebp)
    41bb:	88 45 f0             	mov    %al,-0x10(%ebp)
    41be:	50                   	push   %eax
    41bf:	50                   	push   %eax
    41c0:	8d 45 ec             	lea    -0x14(%ebp),%eax
    41c3:	50                   	push   %eax
    41c4:	8d 45 ea             	lea    -0x16(%ebp),%eax
    41c7:	6a 02                	push   $0x2
    41c9:	50                   	push   %eax
    41ca:	8d 45 f0             	lea    -0x10(%ebp),%eax
    41cd:	6a 08                	push   $0x8
    41cf:	66 c7 45 f2 00 00    	movw   $0x0,-0xe(%ebp)
    41d5:	50                   	push   %eax
    41d6:	66 89 4d f4          	mov    %cx,-0xc(%ebp)
    41da:	52                   	push   %edx
    41db:	66 c7 45 f6 02 00    	movw   $0x2,-0xa(%ebp)
    41e1:	e8 fa f5 ff ff       	call   37e0 <usb_pipe_control_read>
    41e6:	83 c4 20             	add    $0x20,%esp
    41e9:	85 c0                	test   %eax,%eax
    41eb:	75 0d                	jne    41fa <usb_request_get_status+0x6a>
    41ed:	83 7d ec 02          	cmpl   $0x2,-0x14(%ebp)
    41f1:	75 1d                	jne    4210 <usb_request_get_status+0x80>
    41f3:	66 8b 55 ea          	mov    -0x16(%ebp),%dx
    41f7:	66 89 13             	mov    %dx,(%ebx)
    41fa:	8b 5d fc             	mov    -0x4(%ebp),%ebx
    41fd:	c9                   	leave  
    41fe:	c3                   	ret    
    41ff:	90                   	nop
    4200:	b8 f6 ff ff ff       	mov    $0xfffffff6,%eax
    4205:	8b 5d fc             	mov    -0x4(%ebp),%ebx
    4208:	c9                   	leave  
    4209:	c3                   	ret    
    420a:	8d b6 00 00 00 00    	lea    0x0(%esi),%esi
    4210:	b8 fd ff ff ff       	mov    $0xfffffffd,%eax
    4215:	eb e3                	jmp    41fa <usb_request_get_status+0x6a>
    4217:	90                   	nop
    4218:	b8 f2 ff ff ff       	mov    $0xfffffff2,%eax
    421d:	eb db                	jmp    41fa <usb_request_get_status+0x6a>
    421f:	90                   	nop

00004220 <usb_request_clear_feature>:
    4220:	55                   	push   %ebp
    4221:	89 e5                	mov    %esp,%ebp
    4223:	53                   	push   %ebx
    4224:	83 ec 14             	sub    $0x14,%esp
    4227:	8b 45 0c             	mov    0xc(%ebp),%eax
    422a:	8b 55 08             	mov    0x8(%ebp),%edx
    422d:	8b 5d 14             	mov    0x14(%ebp),%ebx
    4230:	8b 4d 18             	mov    0x18(%ebp),%ecx
    4233:	85 c0                	test   %eax,%eax
    4235:	75 0b                	jne    4242 <usb_request_clear_feature+0x22>
    4237:	83 7d 10 00          	cmpl   $0x0,0x10(%ebp)
    423b:	75 05                	jne    4242 <usb_request_clear_feature+0x22>
    423d:	66 85 c9             	test   %cx,%cx
    4240:	75 4e                	jne    4290 <usb_request_clear_feature+0x70>
    4242:	85 d2                	test   %edx,%edx
    4244:	74 3a                	je     4280 <usb_request_clear_feature+0x60>
    4246:	c1 e0 05             	shl    $0x5,%eax
    4249:	83 ec 0c             	sub    $0xc,%esp
    424c:	0b 45 10             	or     0x10(%ebp),%eax
    424f:	c6 45 f1 01          	movb   $0x1,-0xf(%ebp)
    4253:	88 45 f0             	mov    %al,-0x10(%ebp)
    4256:	8d 45 f0             	lea    -0x10(%ebp),%eax
    4259:	6a 00                	push   $0x0
    425b:	6a 00                	push   $0x0
    425d:	6a 08                	push   $0x8
    425f:	50                   	push   %eax
    4260:	52                   	push   %edx
    4261:	66 89 5d f2          	mov    %bx,-0xe(%ebp)
    4265:	66 89 4d f4          	mov    %cx,-0xc(%ebp)
    4269:	66 c7 45 f6 00 00    	movw   $0x0,-0xa(%ebp)
    426f:	e8 9c f6 ff ff       	call   3910 <usb_pipe_control_write>
    4274:	83 c4 20             	add    $0x20,%esp
    4277:	8b 5d fc             	mov    -0x4(%ebp),%ebx
    427a:	c9                   	leave  
    427b:	c3                   	ret    
    427c:	8d 74 26 00          	lea    0x0(%esi,%eiz,1),%esi
    4280:	b8 f6 ff ff ff       	mov    $0xfffffff6,%eax
    4285:	8b 5d fc             	mov    -0x4(%ebp),%ebx
    4288:	c9                   	leave  
    4289:	c3                   	ret    
    428a:	8d b6 00 00 00 00    	lea    0x0(%esi),%esi
    4290:	b8 f2 ff ff ff       	mov    $0xfffffff2,%eax
    4295:	eb e0                	jmp    4277 <usb_request_clear_feature+0x57>
    4297:	89 f6                	mov    %esi,%esi
    4299:	8d bc 27 00 00 00 00 	lea    0x0(%edi,%eiz,1),%edi

000042a0 <usb_request_set_feature>:
    42a0:	55                   	push   %ebp
    42a1:	89 e5                	mov    %esp,%ebp
    42a3:	53                   	push   %ebx
    42a4:	83 ec 14             	sub    $0x14,%esp
    42a7:	8b 45 0c             	mov    0xc(%ebp),%eax
    42aa:	8b 55 08             	mov    0x8(%ebp),%edx
    42ad:	8b 5d 14             	mov    0x14(%ebp),%ebx
    42b0:	8b 4d 18             	mov    0x18(%ebp),%ecx
    42b3:	85 c0                	test   %eax,%eax
    42b5:	75 0b                	jne    42c2 <usb_request_set_feature+0x22>
    42b7:	83 7d 10 00          	cmpl   $0x0,0x10(%ebp)
    42bb:	75 05                	jne    42c2 <usb_request_set_feature+0x22>
    42bd:	66 85 c9             	test   %cx,%cx
    42c0:	75 4e                	jne    4310 <usb_request_set_feature+0x70>
    42c2:	85 d2                	test   %edx,%edx
    42c4:	74 3a                	je     4300 <usb_request_set_feature+0x60>
    42c6:	c1 e0 05             	shl    $0x5,%eax
    42c9:	83 ec 0c             	sub    $0xc,%esp
    42cc:	0b 45 10             	or     0x10(%ebp),%eax
    42cf:	c6 45 f1 03          	movb   $0x3,-0xf(%ebp)
    42d3:	88 45 f0             	mov    %al,-0x10(%ebp)
    42d6:	8d 45 f0             	lea    -0x10(%ebp),%eax
    42d9:	6a 00                	push   $0x0
    42db:	6a 00                	push   $0x0
    42dd:	6a 08                	push   $0x8
    42df:	50                   	push   %eax
    42e0:	52                   	push   %edx
    42e1:	66 89 5d f2          	mov    %bx,-0xe(%ebp)
    42e5:	66 89 4d f4          	mov    %cx,-0xc(%ebp)
    42e9:	66 c7 45 f6 00 00    	movw   $0x0,-0xa(%ebp)
    42ef:	e8 1c f6 ff ff       	call   3910 <usb_pipe_control_write>
    42f4:	83 c4 20             	add    $0x20,%esp
    42f7:	8b 5d fc             	mov    -0x4(%ebp),%ebx
    42fa:	c9                   	leave  
    42fb:	c3                   	ret    
    42fc:	8d 74 26 00          	lea    0x0(%esi,%eiz,1),%esi
    4300:	b8 f6 ff ff ff       	mov    $0xfffffff6,%eax
    4305:	8b 5d fc             	mov    -0x4(%ebp),%ebx
    4308:	c9                   	leave  
    4309:	c3                   	ret    
    430a:	8d b6 00 00 00 00    	lea    0x0(%esi),%esi
    4310:	b8 f2 ff ff ff       	mov    $0xfffffff2,%eax
    4315:	eb e0                	jmp    42f7 <usb_request_set_feature+0x57>
    4317:	89 f6                	mov    %esi,%esi
    4319:	8d bc 27 00 00 00 00 	lea    0x0(%edi,%eiz,1),%edi

00004320 <usb_request_get_descriptor>:
    4320:	55                   	push   %ebp
    4321:	89 e5                	mov    %esp,%ebp
    4323:	57                   	push   %edi
    4324:	56                   	push   %esi
    4325:	53                   	push   %ebx
    4326:	83 ec 2c             	sub    $0x2c,%esp
    4329:	8b 5d 20             	mov    0x20(%ebp),%ebx
    432c:	8b 75 08             	mov    0x8(%ebp),%esi
    432f:	8b 45 14             	mov    0x14(%ebp),%eax
    4332:	8b 55 18             	mov    0x18(%ebp),%edx
    4335:	8b 7d 1c             	mov    0x1c(%ebp),%edi
    4338:	8b 4d 24             	mov    0x24(%ebp),%ecx
    433b:	85 db                	test   %ebx,%ebx
    433d:	74 71                	je     43b0 <usb_request_get_descriptor+0x90>
    433f:	85 c9                	test   %ecx,%ecx
    4341:	74 5d                	je     43a0 <usb_request_get_descriptor+0x80>
    4343:	c1 e0 08             	shl    $0x8,%eax
    4346:	81 e2 ff 00 00 00    	and    $0xff,%edx
    434c:	09 d0                	or     %edx,%eax
    434e:	85 f6                	test   %esi,%esi
    4350:	74 5e                	je     43b0 <usb_request_get_descriptor+0x90>
    4352:	81 f9 ff ff 00 00    	cmp    $0xffff,%ecx
    4358:	77 4e                	ja     43a8 <usb_request_get_descriptor+0x88>
    435a:	8a 55 10             	mov    0x10(%ebp),%dl
    435d:	66 89 45 e2          	mov    %ax,-0x1e(%ebp)
    4361:	83 ca 80             	or     $0xffffff80,%edx
    4364:	50                   	push   %eax
    4365:	88 55 d7             	mov    %dl,-0x29(%ebp)
    4368:	8a 55 0c             	mov    0xc(%ebp),%dl
    436b:	c1 e2 05             	shl    $0x5,%edx
    436e:	50                   	push   %eax
    436f:	0a 55 d7             	or     -0x29(%ebp),%dl
    4372:	8d 45 e0             	lea    -0x20(%ebp),%eax
    4375:	88 55 e0             	mov    %dl,-0x20(%ebp)
    4378:	8b 55 28             	mov    0x28(%ebp),%edx
    437b:	52                   	push   %edx
    437c:	51                   	push   %ecx
    437d:	53                   	push   %ebx
    437e:	6a 08                	push   $0x8
    4380:	50                   	push   %eax
    4381:	56                   	push   %esi
    4382:	c6 45 e1 06          	movb   $0x6,-0x1f(%ebp)
    4386:	66 89 7d e4          	mov    %di,-0x1c(%ebp)
    438a:	66 89 4d e6          	mov    %cx,-0x1a(%ebp)
    438e:	e8 4d f4 ff ff       	call   37e0 <usb_pipe_control_read>
    4393:	83 c4 20             	add    $0x20,%esp
    4396:	8d 65 f4             	lea    -0xc(%ebp),%esp
    4399:	5b                   	pop    %ebx
    439a:	5e                   	pop    %esi
    439b:	5f                   	pop    %edi
    439c:	5d                   	pop    %ebp
    439d:	c3                   	ret    
    439e:	66 90                	xchg   %ax,%ax
    43a0:	b8 f2 ff ff ff       	mov    $0xfffffff2,%eax
    43a5:	eb ef                	jmp    4396 <usb_request_get_descriptor+0x76>
    43a7:	90                   	nop
    43a8:	b8 f8 fe ff ff       	mov    $0xfffffef8,%eax
    43ad:	eb e7                	jmp    4396 <usb_request_get_descriptor+0x76>
    43af:	90                   	nop
    43b0:	b8 f6 ff ff ff       	mov    $0xfffffff6,%eax
    43b5:	eb df                	jmp    4396 <usb_request_get_descriptor+0x76>
    43b7:	89 f6                	mov    %esi,%esi
    43b9:	8d bc 27 00 00 00 00 	lea    0x0(%edi,%eiz,1),%edi

000043c0 <usb_request_get_descriptor_alloc>:
    43c0:	55                   	push   %ebp
    43c1:	89 e5                	mov    %esp,%ebp
    43c3:	57                   	push   %edi
    43c4:	56                   	push   %esi
    43c5:	53                   	push   %ebx
    43c6:	83 ec 2c             	sub    $0x2c,%esp
    43c9:	8b 55 20             	mov    0x20(%ebp),%edx
    43cc:	8b 5d 14             	mov    0x14(%ebp),%ebx
    43cf:	8b 45 18             	mov    0x18(%ebp),%eax
    43d2:	8b 75 1c             	mov    0x1c(%ebp),%esi
    43d5:	85 d2                	test   %edx,%edx
    43d7:	0f 84 1b 01 00 00    	je     44f8 <usb_request_get_descriptor_alloc+0x138>
    43dd:	c1 e3 08             	shl    $0x8,%ebx
    43e0:	25 ff 00 00 00       	and    $0xff,%eax
    43e5:	09 c3                	or     %eax,%ebx
    43e7:	8b 45 08             	mov    0x8(%ebp),%eax
    43ea:	85 c0                	test   %eax,%eax
    43ec:	0f 84 06 01 00 00    	je     44f8 <usb_request_get_descriptor_alloc+0x138>
    43f2:	8a 55 0c             	mov    0xc(%ebp),%dl
    43f5:	8a 45 10             	mov    0x10(%ebp),%al
    43f8:	83 c8 80             	or     $0xffffff80,%eax
    43fb:	57                   	push   %edi
    43fc:	c1 e2 05             	shl    $0x5,%edx
    43ff:	57                   	push   %edi
    4400:	09 c2                	or     %eax,%edx
    4402:	8d 45 dc             	lea    -0x24(%ebp),%eax
    4405:	50                   	push   %eax
    4406:	8d 45 db             	lea    -0x25(%ebp),%eax
    4409:	6a 01                	push   $0x1
    440b:	50                   	push   %eax
    440c:	8d 45 e0             	lea    -0x20(%ebp),%eax
    440f:	6a 08                	push   $0x8
    4411:	50                   	push   %eax
    4412:	8b 45 08             	mov    0x8(%ebp),%eax
    4415:	50                   	push   %eax
    4416:	88 55 d4             	mov    %dl,-0x2c(%ebp)
    4419:	88 55 e0             	mov    %dl,-0x20(%ebp)
    441c:	c6 45 e1 06          	movb   $0x6,-0x1f(%ebp)
    4420:	66 89 5d e2          	mov    %bx,-0x1e(%ebp)
