
usbhub:     file format elf32-i386


Disassembly of section .init:

000010f4 <__entry>:
    10f4:	66 8c d0             	mov    %ss,%ax
    10f7:	8e d8                	mov    %eax,%ds
    10f9:	8e c0                	mov    %eax,%es
    10fb:	8e e0                	mov    %eax,%fs
    10fd:	b8 01 00 00 00       	mov    $0x1,%eax
    1102:	0f a2                	cpuid  
    1104:	0f ba e2 0b          	bt     $0xb,%edx
    1108:	73 0c                	jae    1116 <__entry+0x22>
    110a:	8d 05 78 4a 01 00    	lea    0x14a78,%eax
    1110:	c7 00 b0 28 01 00    	movl   $0x128b0,(%eax)
    1116:	6a 00                	push   $0x0
    1118:	6a 00                	push   $0x0
    111a:	89 e5                	mov    %esp,%ebp
    111c:	57                   	push   %edi
    111d:	e8 5e 12 01 00       	call   12380 <__main@plt>

Disassembly of section .text:

00001140 <main>:
    1140:	8d 4c 24 04          	lea    0x4(%esp),%ecx
    1144:	83 e4 f0             	and    $0xfffffff0,%esp
    1147:	ff 71 fc             	pushl  -0x4(%ecx)
    114a:	55                   	push   %ebp
    114b:	89 e5                	mov    %esp,%ebp
    114d:	51                   	push   %ecx
    114e:	83 ec 10             	sub    $0x10,%esp
    1151:	68 20 f6 00 00       	push   $0xf620
    1156:	e8 85 12 01 00       	call   123e0 <printf@plt>
    115b:	c7 04 24 41 f6 00 00 	movl   $0xf641,(%esp)
    1162:	e8 d9 12 01 00       	call   12440 <log_init@plt>
    1167:	58                   	pop    %eax
    1168:	5a                   	pop    %edx
    1169:	6a 03                	push   $0x3
    116b:	68 41 f6 00 00       	push   $0xf641
    1170:	e8 db 13 01 00       	call   12550 <logctl_set_log_level@plt>
    1175:	c7 04 24 48 f6 00 00 	movl   $0xf648,(%esp)
    117c:	e8 4f 17 00 00       	call   28d0 <usb_driver_main>
    1181:	8b 4d fc             	mov    -0x4(%ebp),%ecx
    1184:	c9                   	leave  
    1185:	8d 61 fc             	lea    -0x4(%ecx),%esp
    1188:	c3                   	ret    
    1189:	66 90                	xchg   %ax,%ax
    118b:	66 90                	xchg   %ax,%ax
    118d:	66 90                	xchg   %ax,%ax
    118f:	90                   	nop

00001190 <usb_hub_polling_terminated_callback>:
    1190:	55                   	push   %ebp
    1191:	89 e5                	mov    %esp,%ebp
    1193:	57                   	push   %edi
    1194:	56                   	push   %esi
    1195:	53                   	push   %ebx
    1196:	83 ec 0c             	sub    $0xc,%esp
    1199:	8b 5d 10             	mov    0x10(%ebp),%ebx
    119c:	85 db                	test   %ebx,%ebx
    119e:	74 70                	je     1210 <usb_hub_polling_terminated_callback+0x80>
    11a0:	83 ec 0c             	sub    $0xc,%esp
    11a3:	8d 7b 10             	lea    0x10(%ebx),%edi
    11a6:	57                   	push   %edi
    11a7:	e8 54 17 01 00       	call   12900 <fibril_mutex_lock@plt>
    11ac:	8b 43 0c             	mov    0xc(%ebx),%eax
    11af:	83 c4 10             	add    $0x10,%esp
    11b2:	85 c0                	test   %eax,%eax
    11b4:	74 45                	je     11fb <usb_hub_polling_terminated_callback+0x6b>
    11b6:	8b 03                	mov    (%ebx),%eax
    11b8:	31 f6                	xor    %esi,%esi
    11ba:	85 c0                	test   %eax,%eax
    11bc:	74 23                	je     11e1 <usb_hub_polling_terminated_callback+0x51>
    11be:	66 90                	xchg   %ax,%ax
    11c0:	8d 14 b6             	lea    (%esi,%esi,4),%edx
    11c3:	8b 43 04             	mov    0x4(%ebx),%eax
    11c6:	83 ec 0c             	sub    $0xc,%esp
    11c9:	46                   	inc    %esi
    11ca:	8d 04 d0             	lea    (%eax,%edx,8),%eax
    11cd:	50                   	push   %eax
    11ce:	e8 9d 0e 00 00       	call   2070 <usb_hub_port_reset_fail>
    11d3:	83 c4 10             	add    $0x10,%esp
    11d6:	39 33                	cmp    %esi,(%ebx)
    11d8:	77 e6                	ja     11c0 <usb_hub_polling_terminated_callback+0x30>
    11da:	8b 4b 0c             	mov    0xc(%ebx),%ecx
    11dd:	85 c9                	test   %ecx,%ecx
    11df:	74 1a                	je     11fb <usb_hub_polling_terminated_callback+0x6b>
    11e1:	8d 73 20             	lea    0x20(%ebx),%esi
    11e4:	8d 74 26 00          	lea    0x0(%esi,%eiz,1),%esi
    11e8:	50                   	push   %eax
    11e9:	50                   	push   %eax
    11ea:	57                   	push   %edi
    11eb:	56                   	push   %esi
    11ec:	e8 2f 13 01 00       	call   12520 <fibril_condvar_wait@plt>
    11f1:	8b 53 0c             	mov    0xc(%ebx),%edx
    11f4:	83 c4 10             	add    $0x10,%esp
    11f7:	85 d2                	test   %edx,%edx
    11f9:	75 ed                	jne    11e8 <usb_hub_polling_terminated_callback+0x58>
    11fb:	83 ec 0c             	sub    $0xc,%esp
    11fe:	57                   	push   %edi
    11ff:	e8 3c 14 01 00       	call   12640 <fibril_mutex_unlock@plt>
    1204:	c6 43 2c 00          	movb   $0x0,0x2c(%ebx)
    1208:	8d 65 f4             	lea    -0xc(%ebp),%esp
    120b:	5b                   	pop    %ebx
    120c:	5e                   	pop    %esi
    120d:	5f                   	pop    %edi
    120e:	5d                   	pop    %ebp
    120f:	c3                   	ret    
    1210:	50                   	push   %eax
    1211:	68 f9 01 00 00       	push   $0x1f9
    1216:	68 60 f6 00 00       	push   $0xf660
    121b:	68 44 f6 00 00       	push   $0xf644
    1220:	e8 7b 13 01 00       	call   125a0 <assert_abort@plt>
    1225:	8d 74 26 00          	lea    0x0(%esi,%eiz,1),%esi
    1229:	8d bc 27 00 00 00 00 	lea    0x0(%edi,%eiz,1),%edi

00001230 <hub_port_changes_callback>:
    1230:	55                   	push   %ebp
    1231:	89 e5                	mov    %esp,%ebp
    1233:	57                   	push   %edi
    1234:	56                   	push   %esi
    1235:	53                   	push   %ebx
    1236:	83 ec 2c             	sub    $0x2c,%esp
    1239:	8b 5d 14             	mov    0x14(%ebp),%ebx
    123c:	8b 55 0c             	mov    0xc(%ebp),%edx
    123f:	85 db                	test   %ebx,%ebx
    1241:	0f 84 14 02 00 00    	je     145b <hub_port_changes_callback+0x22b>
    1247:	8b 7d 10             	mov    0x10(%ebp),%edi
    124a:	85 ff                	test   %edi,%edi
    124c:	74 5a                	je     12a8 <hub_port_changes_callback+0x78>
    124e:	f6 02 01             	testb  $0x1,(%edx)
    1251:	75 65                	jne    12b8 <hub_port_changes_callback+0x88>
    1253:	8b 03                	mov    (%ebx),%eax
    1255:	31 f6                	xor    %esi,%esi
    1257:	90                   	nop
    1258:	39 c6                	cmp    %eax,%esi
    125a:	73 3e                	jae    129a <hub_port_changes_callback+0x6a>
    125c:	46                   	inc    %esi
    125d:	89 f1                	mov    %esi,%ecx
    125f:	c1 e9 03             	shr    $0x3,%ecx
    1262:	0f b6 3c 0a          	movzbl (%edx,%ecx,1),%edi
    1266:	89 f1                	mov    %esi,%ecx
    1268:	81 e7 ff 00 00 00    	and    $0xff,%edi
    126e:	83 e1 07             	and    $0x7,%ecx
    1271:	d3 ff                	sar    %cl,%edi
    1273:	83 e7 01             	and    $0x1,%edi
    1276:	74 e0                	je     1258 <hub_port_changes_callback+0x28>
    1278:	50                   	push   %eax
    1279:	50                   	push   %eax
    127a:	53                   	push   %ebx
    127b:	8d 04 b6             	lea    (%esi,%esi,4),%eax
    127e:	8b 4b 04             	mov    0x4(%ebx),%ecx
    1281:	89 55 d4             	mov    %edx,-0x2c(%ebp)
    1284:	8d 44 c1 d8          	lea    -0x28(%ecx,%eax,8),%eax
    1288:	50                   	push   %eax
    1289:	e8 42 0e 00 00       	call   20d0 <usb_hub_port_process_interrupt>
    128e:	8b 03                	mov    (%ebx),%eax
    1290:	83 c4 10             	add    $0x10,%esp
    1293:	8b 55 d4             	mov    -0x2c(%ebp),%edx
    1296:	39 c6                	cmp    %eax,%esi
    1298:	72 c2                	jb     125c <hub_port_changes_callback+0x2c>
    129a:	8d 65 f4             	lea    -0xc(%ebp),%esp
    129d:	b0 01                	mov    $0x1,%al
    129f:	5b                   	pop    %ebx
    12a0:	5e                   	pop    %esi
    12a1:	5f                   	pop    %edi
    12a2:	5d                   	pop    %ebp
    12a3:	c3                   	ret    
    12a4:	8d 74 26 00          	lea    0x0(%esi,%eiz,1),%esi
    12a8:	8d 65 f4             	lea    -0xc(%ebp),%esp
    12ab:	31 c0                	xor    %eax,%eax
    12ad:	5b                   	pop    %ebx
    12ae:	5e                   	pop    %esi
    12af:	5f                   	pop    %edi
    12b0:	5d                   	pop    %ebp
    12b1:	c3                   	ret    
    12b2:	8d b6 00 00 00 00    	lea    0x0(%esi),%esi
    12b8:	8b 73 08             	mov    0x8(%ebx),%esi
    12bb:	85 f6                	test   %esi,%esi
    12bd:	0f 84 ad 01 00 00    	je     1470 <hub_port_changes_callback+0x240>
    12c3:	53                   	push   %ebx
    12c4:	89 55 d4             	mov    %edx,-0x2c(%ebp)
    12c7:	68 24 f7 00 00       	push   $0xf724
    12cc:	6a 04                	push   $0x4
    12ce:	6a ff                	push   $0xffffffff
    12d0:	e8 6b 12 01 00       	call   12540 <log_msg@plt>
    12d5:	8b 73 08             	mov    0x8(%ebx),%esi
    12d8:	59                   	pop    %ecx
    12d9:	56                   	push   %esi
    12da:	e8 41 1a 00 00       	call   2d20 <usb_device_get_default_pipe>
    12df:	89 c7                	mov    %eax,%edi
    12e1:	58                   	pop    %eax
    12e2:	8d 45 e4             	lea    -0x1c(%ebp),%eax
    12e5:	5a                   	pop    %edx
    12e6:	50                   	push   %eax
    12e7:	8d 45 e0             	lea    -0x20(%ebp),%eax
    12ea:	6a 04                	push   $0x4
    12ec:	50                   	push   %eax
    12ed:	6a 08                	push   $0x8
    12ef:	68 b4 fb 00 00       	push   $0xfbb4
    12f4:	57                   	push   %edi
    12f5:	e8 86 2d 00 00       	call   4080 <usb_pipe_control_read>
    12fa:	83 c4 20             	add    $0x20,%esp
    12fd:	8b 55 d4             	mov    -0x2c(%ebp),%edx
    1300:	85 c0                	test   %eax,%eax
    1302:	75 5e                	jne    1362 <hub_port_changes_callback+0x132>
    1304:	8b 45 e4             	mov    -0x1c(%ebp),%eax
    1307:	83 f8 04             	cmp    $0x4,%eax
    130a:	74 22                	je     132e <hub_port_changes_callback+0xfe>
    130c:	89 55 d4             	mov    %edx,-0x2c(%ebp)
    130f:	52                   	push   %edx
    1310:	52                   	push   %edx
    1311:	6a 04                	push   $0x4
    1313:	50                   	push   %eax
    1314:	53                   	push   %ebx
    1315:	68 6c f7 00 00       	push   $0xf76c
    131a:	6a 01                	push   $0x1
    131c:	6a ff                	push   $0xffffffff
    131e:	e8 1d 12 01 00       	call   12540 <log_msg@plt>
    1323:	83 c4 20             	add    $0x20,%esp
    1326:	8b 55 d4             	mov    -0x2c(%ebp),%edx
    1329:	e9 25 ff ff ff       	jmp    1253 <hub_port_changes_callback+0x23>
    132e:	8b 45 e0             	mov    -0x20(%ebp),%eax
    1331:	a9 00 00 02 00       	test   $0x20000,%eax
    1336:	75 3e                	jne    1376 <hub_port_changes_callback+0x146>
    1338:	a9 00 00 01 00       	test   $0x10000,%eax
    133d:	0f 84 10 ff ff ff    	je     1253 <hub_port_changes_callback+0x23>
    1343:	83 ec 0c             	sub    $0xc,%esp
    1346:	89 55 d4             	mov    %edx,-0x2c(%ebp)
    1349:	6a 00                	push   $0x0
    134b:	6a 00                	push   $0x0
    134d:	6a 00                	push   $0x0
    134f:	6a 01                	push   $0x1
    1351:	57                   	push   %edi
    1352:	e8 69 37 00 00       	call   4ac0 <usb_request_clear_feature>
    1357:	83 c4 20             	add    $0x20,%esp
    135a:	8b 55 d4             	mov    -0x2c(%ebp),%edx
    135d:	e9 f1 fe ff ff       	jmp    1253 <hub_port_changes_callback+0x23>
    1362:	83 ec 0c             	sub    $0xc,%esp
    1365:	50                   	push   %eax
    1366:	e8 75 14 01 00       	call   127e0 <str_error@plt>
    136b:	89 04 24             	mov    %eax,(%esp)
    136e:	53                   	push   %ebx
    136f:	68 48 f7 00 00       	push   $0xf748
    1374:	eb a4                	jmp    131a <hub_port_changes_callback+0xea>
    1376:	a8 02                	test   $0x2,%al
    1378:	75 76                	jne    13f0 <hub_port_changes_callback+0x1c0>
    137a:	80 7b 2d 00          	cmpb   $0x0,0x2d(%ebx)
    137e:	0f 84 84 00 00 00    	je     1408 <hub_port_changes_callback+0x1d8>
    1384:	8b 03                	mov    (%ebx),%eax
    1386:	85 c0                	test   %eax,%eax
    1388:	74 7e                	je     1408 <hub_port_changes_callback+0x1d8>
    138a:	31 c9                	xor    %ecx,%ecx
    138c:	eb 0d                	jmp    139b <hub_port_changes_callback+0x16b>
    138e:	66 90                	xchg   %ax,%ax
    1390:	80 7b 2e 00          	cmpb   $0x0,0x2e(%ebx)
    1394:	74 72                	je     1408 <hub_port_changes_callback+0x1d8>
    1396:	41                   	inc    %ecx
    1397:	3b 0b                	cmp    (%ebx),%ecx
    1399:	73 6d                	jae    1408 <hub_port_changes_callback+0x1d8>
    139b:	8d 34 89             	lea    (%ecx,%ecx,4),%esi
    139e:	50                   	push   %eax
    139f:	50                   	push   %eax
    13a0:	89 55 d0             	mov    %edx,-0x30(%ebp)
    13a3:	8b 43 04             	mov    0x4(%ebx),%eax
    13a6:	6a 08                	push   $0x8
    13a8:	c1 e6 03             	shl    $0x3,%esi
    13ab:	89 4d d4             	mov    %ecx,-0x2c(%ebp)
    13ae:	01 f0                	add    %esi,%eax
    13b0:	50                   	push   %eax
    13b1:	e8 5a 0c 00 00       	call   2010 <usb_hub_port_set_feature>
    13b6:	83 c4 10             	add    $0x10,%esp
    13b9:	8b 4d d4             	mov    -0x2c(%ebp),%ecx
    13bc:	85 c0                	test   %eax,%eax
    13be:	8b 55 d0             	mov    -0x30(%ebp),%edx
    13c1:	74 cd                	je     1390 <hub_port_changes_callback+0x160>
    13c3:	83 ec 0c             	sub    $0xc,%esp
    13c6:	50                   	push   %eax
    13c7:	e8 14 14 01 00       	call   127e0 <str_error@plt>
    13cc:	5a                   	pop    %edx
    13cd:	59                   	pop    %ecx
    13ce:	50                   	push   %eax
    13cf:	8b 43 04             	mov    0x4(%ebx),%eax
    13d2:	8b 34 30             	mov    (%eax,%esi,1),%esi
    13d5:	56                   	push   %esi
    13d6:	53                   	push   %ebx
    13d7:	68 f0 f7 00 00       	push   $0xf7f0
    13dc:	6a 02                	push   $0x2
    13de:	6a ff                	push   $0xffffffff
    13e0:	e8 5b 11 01 00       	call   12540 <log_msg@plt>
    13e5:	83 c4 20             	add    $0x20,%esp
    13e8:	8b 4d d4             	mov    -0x2c(%ebp),%ecx
    13eb:	8b 55 d0             	mov    -0x30(%ebp),%edx
    13ee:	eb a6                	jmp    1396 <hub_port_changes_callback+0x166>
    13f0:	53                   	push   %ebx
    13f1:	68 a4 f7 00 00       	push   $0xf7a4
    13f6:	6a 02                	push   $0x2
    13f8:	6a ff                	push   $0xffffffff
    13fa:	89 55 d4             	mov    %edx,-0x2c(%ebp)
    13fd:	e8 3e 11 01 00       	call   12540 <log_msg@plt>
    1402:	83 c4 10             	add    $0x10,%esp
    1405:	8b 55 d4             	mov    -0x2c(%ebp),%edx
    1408:	83 ec 0c             	sub    $0xc,%esp
    140b:	89 55 d4             	mov    %edx,-0x2c(%ebp)
    140e:	6a 00                	push   $0x0
    1410:	6a 01                	push   $0x1
    1412:	6a 00                	push   $0x0
    1414:	6a 01                	push   $0x1
    1416:	57                   	push   %edi
    1417:	e8 a4 36 00 00       	call   4ac0 <usb_request_clear_feature>
    141c:	83 c4 20             	add    $0x20,%esp
    141f:	8b 55 d4             	mov    -0x2c(%ebp),%edx
    1422:	85 c0                	test   %eax,%eax
    1424:	75 08                	jne    142e <hub_port_changes_callback+0x1fe>
    1426:	8b 45 e0             	mov    -0x20(%ebp),%eax
    1429:	e9 0a ff ff ff       	jmp    1338 <hub_port_changes_callback+0x108>
    142e:	83 ec 0c             	sub    $0xc,%esp
    1431:	89 55 d4             	mov    %edx,-0x2c(%ebp)
    1434:	6a 00                	push   $0x0
    1436:	e8 a5 13 01 00       	call   127e0 <str_error@plt>
    143b:	89 04 24             	mov    %eax,(%esp)
    143e:	53                   	push   %ebx
    143f:	68 2c f8 00 00       	push   $0xf82c
    1444:	6a 01                	push   $0x1
    1446:	6a ff                	push   $0xffffffff
    1448:	e8 f3 10 01 00       	call   12540 <log_msg@plt>
    144d:	8b 45 e0             	mov    -0x20(%ebp),%eax
    1450:	83 c4 20             	add    $0x20,%esp
    1453:	8b 55 d4             	mov    -0x2c(%ebp),%edx
    1456:	e9 dd fe ff ff       	jmp    1338 <hub_port_changes_callback+0x108>
    145b:	50                   	push   %eax
    145c:	68 ea 00 00 00       	push   $0xea
    1461:	68 60 f6 00 00       	push   $0xf660
    1466:	68 44 f6 00 00       	push   $0xf644
    146b:	e8 30 11 01 00       	call   125a0 <assert_abort@plt>
    1470:	51                   	push   %ecx
    1471:	68 af 01 00 00       	push   $0x1af
    1476:	68 60 f6 00 00       	push   $0xf660
    147b:	68 69 f6 00 00       	push   $0xf669
    1480:	e8 1b 11 01 00       	call   125a0 <assert_abort@plt>
    1485:	8d 74 26 00          	lea    0x0(%esi,%eiz,1),%esi
    1489:	8d bc 27 00 00 00 00 	lea    0x0(%edi,%eiz,1),%edi

00001490 <usb_hub_device_add>:
    1490:	55                   	push   %ebp
    1491:	89 e5                	mov    %esp,%ebp
    1493:	57                   	push   %edi
    1494:	56                   	push   %esi
    1495:	53                   	push   %ebx
    1496:	83 ec 2c             	sub    $0x2c,%esp
    1499:	8b 5d 08             	mov    0x8(%ebp),%ebx
    149c:	85 db                	test   %ebx,%ebx
    149e:	0f 84 c8 04 00 00    	je     196c <usb_hub_device_add+0x4dc>
    14a4:	50                   	push   %eax
    14a5:	50                   	push   %eax
    14a6:	6a 30                	push   $0x30
    14a8:	53                   	push   %ebx
    14a9:	e8 32 23 00 00       	call   37e0 <usb_device_data_alloc>
    14ae:	83 c4 10             	add    $0x10,%esp
    14b1:	89 c6                	mov    %eax,%esi
    14b3:	85 c0                	test   %eax,%eax
    14b5:	0f 84 71 04 00 00    	je     192c <usb_hub_device_add+0x49c>
    14bb:	83 ec 0c             	sub    $0xc,%esp
    14be:	89 58 08             	mov    %ebx,0x8(%eax)
    14c1:	c7 40 0c 00 00 00 00 	movl   $0x0,0xc(%eax)
    14c8:	c6 40 2c 00          	movb   $0x0,0x2c(%eax)
    14cc:	8d 40 10             	lea    0x10(%eax),%eax
    14cf:	50                   	push   %eax
    14d0:	e8 9b 11 01 00       	call   12670 <fibril_mutex_initialize@plt>
    14d5:	8d 46 20             	lea    0x20(%esi),%eax
    14d8:	89 04 24             	mov    %eax,(%esp)
    14db:	e8 10 11 01 00       	call   125f0 <fibril_condvar_initialize@plt>
    14e0:	89 1c 24             	mov    %ebx,(%esp)
    14e3:	e8 88 19 00 00       	call   2e70 <usb_device_descriptors>
    14e8:	0f b6 78 11          	movzbl 0x11(%eax),%edi
    14ec:	81 e7 ff 00 00 00    	and    $0xff,%edi
    14f2:	57                   	push   %edi
    14f3:	68 95 f6 00 00       	push   $0xf695
    14f8:	6a 04                	push   $0x4
    14fa:	6a ff                	push   $0xffffffff
    14fc:	e8 3f 10 01 00       	call   12540 <log_msg@plt>
    1501:	83 c4 20             	add    $0x20,%esp
    1504:	85 ff                	test   %edi,%edi
    1506:	0f 84 e4 03 00 00    	je     18f0 <usb_hub_device_add+0x460>
    150c:	83 ec 0c             	sub    $0xc,%esp
    150f:	53                   	push   %ebx
    1510:	e8 5b 19 00 00       	call   2e70 <usb_device_descriptors>
    1515:	8b 78 18             	mov    0x18(%eax),%edi
    1518:	89 1c 24             	mov    %ebx,(%esp)
    151b:	e8 50 19 00 00       	call   2e70 <usb_device_descriptors>
    1520:	83 c4 10             	add    $0x10,%esp
    1523:	83 ff 08             	cmp    $0x8,%edi
    1526:	8b 50 14             	mov    0x14(%eax),%edx
    1529:	0f 86 e1 03 00 00    	jbe    1910 <usb_hub_device_add+0x480>
    152f:	83 ec 0c             	sub    $0xc,%esp
    1532:	89 55 d4             	mov    %edx,-0x2c(%ebp)
    1535:	0f b6 7a 05          	movzbl 0x5(%edx),%edi
    1539:	53                   	push   %ebx
    153a:	e8 e1 17 00 00       	call   2d20 <usb_device_get_default_pipe>
    153f:	81 e7 ff 00 00 00    	and    $0xff,%edi
    1545:	5a                   	pop    %edx
    1546:	59                   	pop    %ecx
    1547:	57                   	push   %edi
    1548:	50                   	push   %eax
    1549:	e8 b2 3c 00 00       	call   5200 <usb_request_set_configuration>
    154e:	83 c4 10             	add    $0x10,%esp
    1551:	89 c3                	mov    %eax,%ebx
    1553:	85 c0                	test   %eax,%eax
    1555:	8b 55 d4             	mov    -0x2c(%ebp),%edx
    1558:	0f 85 a2 02 00 00    	jne    1800 <usb_hub_device_add+0x370>
    155e:	31 c0                	xor    %eax,%eax
    1560:	8a 42 05             	mov    0x5(%edx),%al
    1563:	50                   	push   %eax
    1564:	68 b2 f6 00 00       	push   $0xf6b2
    1569:	6a 04                	push   $0x4
    156b:	6a ff                	push   $0xffffffff
    156d:	e8 ce 0f 01 00       	call   12540 <log_msg@plt>
    1572:	56                   	push   %esi
    1573:	68 ca f6 00 00       	push   $0xf6ca
    1578:	6a 04                	push   $0x4
    157a:	6a ff                	push   $0xffffffff
    157c:	e8 bf 0f 01 00       	call   12540 <log_msg@plt>
    1581:	83 c4 14             	add    $0x14,%esp
    1584:	8b 46 08             	mov    0x8(%esi),%eax
    1587:	50                   	push   %eax
    1588:	e8 93 17 00 00       	call   2d20 <usb_device_get_default_pipe>
    158d:	89 c1                	mov    %eax,%ecx
    158f:	89 45 d4             	mov    %eax,-0x2c(%ebp)
    1592:	8d 45 dc             	lea    -0x24(%ebp),%eax
    1595:	89 04 24             	mov    %eax,(%esp)
    1598:	8d 45 e1             	lea    -0x1f(%ebp),%eax
    159b:	6a 07                	push   $0x7
    159d:	50                   	push   %eax
    159e:	6a 00                	push   $0x0
    15a0:	6a 00                	push   $0x0
    15a2:	6a 29                	push   $0x29
    15a4:	6a 00                	push   $0x0
    15a6:	6a 01                	push   $0x1
    15a8:	51                   	push   %ecx
    15a9:	e8 12 36 00 00       	call   4bc0 <usb_request_get_descriptor>
    15ae:	83 c4 30             	add    $0x30,%esp
    15b1:	89 c3                	mov    %eax,%ebx
    15b3:	85 c0                	test   %eax,%eax
    15b5:	0f 85 fd 01 00 00    	jne    17b8 <usb_hub_device_add+0x328>
    15bb:	83 ec 0c             	sub    $0xc,%esp
    15be:	31 c0                	xor    %eax,%eax
    15c0:	8a 45 e3             	mov    -0x1d(%ebp),%al
    15c3:	50                   	push   %eax
    15c4:	56                   	push   %esi
    15c5:	68 68 f9 00 00       	push   $0xf968
    15ca:	6a 04                	push   $0x4
    15cc:	6a ff                	push   $0xffffffff
    15ce:	e8 6d 0f 01 00       	call   12540 <log_msg@plt>
    15d3:	31 c0                	xor    %eax,%eax
    15d5:	83 c4 18             	add    $0x18,%esp
    15d8:	8a 45 e3             	mov    -0x1d(%ebp),%al
    15db:	89 06                	mov    %eax,(%esi)
    15dd:	6a 28                	push   $0x28
    15df:	50                   	push   %eax
    15e0:	e8 db 0f 01 00       	call   125c0 <calloc@plt>
    15e5:	83 c4 10             	add    $0x10,%esp
    15e8:	89 46 04             	mov    %eax,0x4(%esi)
    15eb:	85 c0                	test   %eax,%eax
    15ed:	0f 84 5d 03 00 00    	je     1950 <usb_hub_device_add+0x4c0>
    15f3:	89 c3                	mov    %eax,%ebx
    15f5:	8b 06                	mov    (%esi),%eax
    15f7:	bf 01 00 00 00       	mov    $0x1,%edi
    15fc:	85 c0                	test   %eax,%eax
    15fe:	75 1a                	jne    161a <usb_hub_device_add+0x18a>
    1600:	eb 49                	jmp    164b <usb_hub_device_add+0x1bb>
    1602:	8d b6 00 00 00 00    	lea    0x0(%esi),%esi
    1608:	8d 0c bf             	lea    (%edi,%edi,4),%ecx
    160b:	8b 56 04             	mov    0x4(%esi),%edx
    160e:	47                   	inc    %edi
    160f:	8d 1c ca             	lea    (%edx,%ecx,8),%ebx
    1612:	85 db                	test   %ebx,%ebx
    1614:	0f 84 40 03 00 00    	je     195a <usb_hub_device_add+0x4ca>
    161a:	83 ec 0c             	sub    $0xc,%esp
    161d:	8d 53 08             	lea    0x8(%ebx),%edx
    1620:	8b 45 d4             	mov    -0x2c(%ebp),%eax
    1623:	89 3b                	mov    %edi,(%ebx)
    1625:	89 43 04             	mov    %eax,0x4(%ebx)
    1628:	c7 43 20 00 00 00 00 	movl   $0x0,0x20(%ebx)
    162f:	c6 43 24 00          	movb   $0x0,0x24(%ebx)
    1633:	52                   	push   %edx
    1634:	83 c3 18             	add    $0x18,%ebx
    1637:	e8 34 10 01 00       	call   12670 <fibril_mutex_initialize@plt>
    163c:	89 1c 24             	mov    %ebx,(%esp)
    163f:	e8 ac 0f 01 00       	call   125f0 <fibril_condvar_initialize@plt>
    1644:	83 c4 10             	add    $0x10,%esp
    1647:	39 3e                	cmp    %edi,(%esi)
    1649:	77 bd                	ja     1608 <usb_hub_device_add+0x178>
    164b:	8a 55 e4             	mov    -0x1c(%ebp),%dl
    164e:	8a 45 e4             	mov    -0x1c(%ebp),%al
    1651:	83 e2 02             	and    $0x2,%edx
    1654:	0f 94 46 2d          	sete   0x2d(%esi)
    1658:	83 e0 01             	and    $0x1,%eax
    165b:	88 46 2e             	mov    %al,0x2e(%esi)
    165e:	84 d2                	test   %dl,%dl
    1660:	0f 85 72 02 00 00    	jne    18d8 <usb_hub_device_add+0x448>
    1666:	ba 7d f6 00 00       	mov    $0xf67d,%edx
    166b:	84 c0                	test   %al,%al
    166d:	0f 84 cd 01 00 00    	je     1840 <usb_hub_device_add+0x3b0>
    1673:	83 ec 0c             	sub    $0xc,%esp
    1676:	52                   	push   %edx
    1677:	56                   	push   %esi
    1678:	68 c8 f9 00 00       	push   $0xf9c8
    167d:	6a 03                	push   $0x3
    167f:	6a ff                	push   $0xffffffff
    1681:	e8 ba 0e 01 00       	call   12540 <log_msg@plt>
    1686:	8b 06                	mov    (%esi),%eax
    1688:	83 c4 20             	add    $0x20,%esp
    168b:	85 c0                	test   %eax,%eax
    168d:	74 79                	je     1708 <usb_hub_device_add+0x278>
    168f:	31 db                	xor    %ebx,%ebx
    1691:	eb 14                	jmp    16a7 <usb_hub_device_add+0x217>
    1693:	90                   	nop
    1694:	8d 74 26 00          	lea    0x0(%esi,%eiz,1),%esi
    1698:	80 7e 2e 00          	cmpb   $0x0,0x2e(%esi)
    169c:	0f 84 1e 02 00 00    	je     18c0 <usb_hub_device_add+0x430>
    16a2:	43                   	inc    %ebx
    16a3:	3b 1e                	cmp    (%esi),%ebx
    16a5:	73 61                	jae    1708 <usb_hub_device_add+0x278>
    16a7:	83 ec 0c             	sub    $0xc,%esp
    16aa:	8d 3c 9b             	lea    (%ebx,%ebx,4),%edi
    16ad:	c1 e7 03             	shl    $0x3,%edi
    16b0:	53                   	push   %ebx
    16b1:	56                   	push   %esi
    16b2:	68 ee f6 00 00       	push   $0xf6ee
    16b7:	6a 04                	push   $0x4
    16b9:	6a ff                	push   $0xffffffff
    16bb:	e8 80 0e 01 00       	call   12540 <log_msg@plt>
    16c0:	83 c4 18             	add    $0x18,%esp
    16c3:	8b 46 04             	mov    0x4(%esi),%eax
    16c6:	01 f8                	add    %edi,%eax
    16c8:	6a 08                	push   $0x8
    16ca:	50                   	push   %eax
    16cb:	e8 40 09 00 00       	call   2010 <usb_hub_port_set_feature>
    16d0:	83 c4 10             	add    $0x10,%esp
    16d3:	85 c0                	test   %eax,%eax
    16d5:	74 c1                	je     1698 <usb_hub_device_add+0x208>
    16d7:	83 ec 0c             	sub    $0xc,%esp
    16da:	43                   	inc    %ebx
    16db:	50                   	push   %eax
    16dc:	e8 ff 10 01 00       	call   127e0 <str_error@plt>
    16e1:	5a                   	pop    %edx
    16e2:	59                   	pop    %ecx
    16e3:	50                   	push   %eax
    16e4:	8b 46 04             	mov    0x4(%esi),%eax
    16e7:	8b 3c 38             	mov    (%eax,%edi,1),%edi
    16ea:	57                   	push   %edi
    16eb:	56                   	push   %esi
    16ec:	68 f8 f9 00 00       	push   $0xf9f8
    16f1:	6a 01                	push   $0x1
    16f3:	6a ff                	push   $0xffffffff
    16f5:	e8 46 0e 01 00       	call   12540 <log_msg@plt>
    16fa:	83 c4 20             	add    $0x20,%esp
    16fd:	3b 1e                	cmp    (%esi),%ebx
    16ff:	72 a6                	jb     16a7 <usb_hub_device_add+0x217>
    1701:	8d b4 26 00 00 00 00 	lea    0x0(%esi,%eiz,1),%esi
    1708:	50                   	push   %eax
    1709:	68 06 f7 00 00       	push   $0xf706
    170e:	6a 04                	push   $0x4
    1710:	6a ff                	push   $0xffffffff
    1712:	e8 29 0e 01 00       	call   12540 <log_msg@plt>
    1717:	83 c4 0c             	add    $0xc,%esp
    171a:	8b 56 08             	mov    0x8(%esi),%edx
    171d:	68 44 f6 00 00       	push   $0xf644
    1722:	6a 02                	push   $0x2
    1724:	52                   	push   %edx
    1725:	e8 26 20 00 00       	call   3750 <usb_device_ddf_fun_create>
    172a:	83 c4 10             	add    $0x10,%esp
    172d:	89 46 28             	mov    %eax,0x28(%esi)
    1730:	85 c0                	test   %eax,%eax
    1732:	0f 84 10 02 00 00    	je     1948 <usb_hub_device_add+0x4b8>
    1738:	83 ec 0c             	sub    $0xc,%esp
    173b:	50                   	push   %eax
    173c:	e8 ef 57 00 00       	call   6f30 <ddf_fun_bind>
    1741:	83 c4 10             	add    $0x10,%esp
    1744:	89 c3                	mov    %eax,%ebx
    1746:	85 c0                	test   %eax,%eax
    1748:	0f 85 3a 01 00 00    	jne    1888 <usb_hub_device_add+0x3f8>
    174e:	50                   	push   %eax
    174f:	56                   	push   %esi
    1750:	68 90 11 00 00       	push   $0x1190
    1755:	6a ff                	push   $0xffffffff
    1757:	8b 06                	mov    (%esi),%eax
    1759:	83 c0 08             	add    $0x8,%eax
    175c:	c1 e8 03             	shr    $0x3,%eax
    175f:	50                   	push   %eax
    1760:	8b 46 08             	mov    0x8(%esi),%eax
    1763:	68 30 12 00 00       	push   $0x1230
    1768:	68 bc fb 00 00       	push   $0xfbbc
    176d:	50                   	push   %eax
    176e:	e8 9d 27 00 00       	call   3f10 <usb_device_auto_poll_desc>
    1773:	83 c4 20             	add    $0x20,%esp
    1776:	89 c3                	mov    %eax,%ebx
    1778:	85 c0                	test   %eax,%eax
    177a:	0f 85 d0 00 00 00    	jne    1850 <usb_hub_device_add+0x3c0>
    1780:	83 ec 0c             	sub    $0xc,%esp
    1783:	8b 4e 08             	mov    0x8(%esi),%ecx
    1786:	c6 46 2c 01          	movb   $0x1,0x2c(%esi)
    178a:	8b 3e                	mov    (%esi),%edi
    178c:	51                   	push   %ecx
    178d:	e8 7e 1f 00 00       	call   3710 <usb_device_get_name>
    1792:	5a                   	pop    %edx
    1793:	59                   	pop    %ecx
    1794:	57                   	push   %edi
    1795:	56                   	push   %esi
    1796:	50                   	push   %eax
    1797:	68 bc fa 00 00       	push   $0xfabc
    179c:	6a 03                	push   $0x3
    179e:	6a ff                	push   $0xffffffff
    17a0:	e8 9b 0d 01 00       	call   12540 <log_msg@plt>
    17a5:	83 c4 20             	add    $0x20,%esp
    17a8:	8d 65 f4             	lea    -0xc(%ebp),%esp
    17ab:	89 d8                	mov    %ebx,%eax
    17ad:	5b                   	pop    %ebx
    17ae:	5e                   	pop    %esi
    17af:	5f                   	pop    %edi
    17b0:	5d                   	pop    %ebp
    17b1:	c3                   	ret    
    17b2:	8d b6 00 00 00 00    	lea    0x0(%esi),%esi
    17b8:	83 ec 0c             	sub    $0xc,%esp
    17bb:	50                   	push   %eax
    17bc:	e8 1f 10 01 00       	call   127e0 <str_error@plt>
    17c1:	89 04 24             	mov    %eax,(%esp)
    17c4:	56                   	push   %esi
    17c5:	68 38 f9 00 00       	push   $0xf938
    17ca:	6a 01                	push   $0x1
    17cc:	6a ff                	push   $0xffffffff
    17ce:	e8 6d 0d 01 00       	call   12540 <log_msg@plt>
    17d3:	83 c4 20             	add    $0x20,%esp
    17d6:	83 ec 0c             	sub    $0xc,%esp
    17d9:	53                   	push   %ebx
    17da:	e8 01 10 01 00       	call   127e0 <str_error@plt>
    17df:	50                   	push   %eax
    17e0:	68 0c fb 00 00       	push   $0xfb0c
    17e5:	6a 01                	push   $0x1
    17e7:	6a ff                	push   $0xffffffff
    17e9:	e8 52 0d 01 00       	call   12540 <log_msg@plt>
    17ee:	83 c4 20             	add    $0x20,%esp
    17f1:	8d 65 f4             	lea    -0xc(%ebp),%esp
    17f4:	89 d8                	mov    %ebx,%eax
    17f6:	5b                   	pop    %ebx
    17f7:	5e                   	pop    %esi
    17f8:	5f                   	pop    %edi
    17f9:	5d                   	pop    %ebp
    17fa:	c3                   	ret    
    17fb:	90                   	nop
    17fc:	8d 74 26 00          	lea    0x0(%esi,%eiz,1),%esi
    1800:	83 ec 0c             	sub    $0xc,%esp
    1803:	50                   	push   %eax
    1804:	e8 d7 0f 01 00       	call   127e0 <str_error@plt>
    1809:	50                   	push   %eax
    180a:	68 10 f9 00 00       	push   $0xf910
    180f:	6a 01                	push   $0x1
    1811:	6a ff                	push   $0xffffffff
    1813:	e8 28 0d 01 00       	call   12540 <log_msg@plt>
    1818:	83 c4 20             	add    $0x20,%esp
    181b:	83 ec 0c             	sub    $0xc,%esp
    181e:	53                   	push   %ebx
    181f:	e8 bc 0f 01 00       	call   127e0 <str_error@plt>
    1824:	50                   	push   %eax
    1825:	68 e4 fa 00 00       	push   $0xfae4
    182a:	6a 01                	push   $0x1
    182c:	6a ff                	push   $0xffffffff
    182e:	e8 0d 0d 01 00       	call   12540 <log_msg@plt>
    1833:	83 c4 20             	add    $0x20,%esp
    1836:	8d 65 f4             	lea    -0xc(%ebp),%esp
    1839:	89 d8                	mov    %ebx,%eax
    183b:	5b                   	pop    %ebx
    183c:	5e                   	pop    %esi
    183d:	5f                   	pop    %edi
    183e:	5d                   	pop    %ebp
    183f:	c3                   	ret    
    1840:	ba 86 f6 00 00       	mov    $0xf686,%edx
    1845:	e9 29 fe ff ff       	jmp    1673 <usb_hub_device_add+0x1e3>
    184a:	8d b6 00 00 00 00    	lea    0x0(%esi),%esi
    1850:	83 ec 0c             	sub    $0xc,%esp
    1853:	8b 7e 28             	mov    0x28(%esi),%edi
    1856:	57                   	push   %edi
    1857:	e8 04 58 00 00       	call   7060 <ddf_fun_unbind>
    185c:	58                   	pop    %eax
    185d:	8b 46 28             	mov    0x28(%esi),%eax
    1860:	50                   	push   %eax
    1861:	e8 9a 55 00 00       	call   6e00 <ddf_fun_destroy>
    1866:	89 1c 24             	mov    %ebx,(%esp)
    1869:	e8 72 0f 01 00       	call   127e0 <str_error@plt>
    186e:	50                   	push   %eax
    186f:	68 94 fa 00 00       	push   $0xfa94
    1874:	6a 01                	push   $0x1
    1876:	6a ff                	push   $0xffffffff
    1878:	e8 c3 0c 01 00       	call   12540 <log_msg@plt>
    187d:	83 c4 20             	add    $0x20,%esp
    1880:	e9 6c ff ff ff       	jmp    17f1 <usb_hub_device_add+0x361>
    1885:	8d 76 00             	lea    0x0(%esi),%esi
    1888:	83 ec 0c             	sub    $0xc,%esp
    188b:	50                   	push   %eax
    188c:	e8 4f 0f 01 00       	call   127e0 <str_error@plt>
    1891:	50                   	push   %eax
    1892:	68 70 fa 00 00       	push   $0xfa70
    1897:	6a 01                	push   $0x1
    1899:	6a ff                	push   $0xffffffff
    189b:	e8 a0 0c 01 00       	call   12540 <log_msg@plt>
    18a0:	83 c4 14             	add    $0x14,%esp
    18a3:	8b 46 28             	mov    0x28(%esi),%eax
    18a6:	50                   	push   %eax
    18a7:	e8 54 55 00 00       	call   6e00 <ddf_fun_destroy>
    18ac:	83 c4 10             	add    $0x10,%esp
    18af:	8d 65 f4             	lea    -0xc(%ebp),%esp
    18b2:	89 d8                	mov    %ebx,%eax
    18b4:	5b                   	pop    %ebx
    18b5:	5e                   	pop    %esi
    18b6:	5f                   	pop    %edi
    18b7:	5d                   	pop    %ebp
    18b8:	c3                   	ret    
    18b9:	8d b4 26 00 00 00 00 	lea    0x0(%esi,%eiz,1),%esi
    18c0:	56                   	push   %esi
    18c1:	68 1c fa 00 00       	push   $0xfa1c
    18c6:	6a 04                	push   $0x4
    18c8:	6a ff                	push   $0xffffffff
    18ca:	e8 71 0c 01 00       	call   12540 <log_msg@plt>
    18cf:	83 c4 10             	add    $0x10,%esp
    18d2:	e9 31 fe ff ff       	jmp    1708 <usb_hub_device_add+0x278>
    18d7:	90                   	nop
    18d8:	56                   	push   %esi
    18d9:	68 8c f9 00 00       	push   $0xf98c
    18de:	6a 03                	push   $0x3
    18e0:	6a ff                	push   $0xffffffff
    18e2:	e8 59 0c 01 00       	call   12540 <log_msg@plt>
    18e7:	83 c4 10             	add    $0x10,%esp
    18ea:	e9 19 fe ff ff       	jmp    1708 <usb_hub_device_add+0x278>
    18ef:	90                   	nop
    18f0:	56                   	push   %esi
    18f1:	68 90 f8 00 00       	push   $0xf890
    18f6:	6a 01                	push   $0x1
    18f8:	6a ff                	push   $0xffffffff
    18fa:	bb f2 ff ff ff       	mov    $0xfffffff2,%ebx
    18ff:	e8 3c 0c 01 00       	call   12540 <log_msg@plt>
    1904:	83 c4 10             	add    $0x10,%esp
    1907:	e9 0f ff ff ff       	jmp    181b <usb_hub_device_add+0x38b>
    190c:	8d 74 26 00          	lea    0x0(%esi,%eiz,1),%esi
    1910:	53                   	push   %ebx
    1911:	68 b8 f8 00 00       	push   $0xf8b8
    1916:	6a 01                	push   $0x1
    1918:	6a ff                	push   $0xffffffff
    191a:	bb f0 ff ff ff       	mov    $0xfffffff0,%ebx
    191f:	e8 1c 0c 01 00       	call   12540 <log_msg@plt>
    1924:	83 c4 10             	add    $0x10,%esp
    1927:	e9 ef fe ff ff       	jmp    181b <usb_hub_device_add+0x38b>
    192c:	57                   	push   %edi
    192d:	68 68 f8 00 00       	push   $0xf868
    1932:	6a 01                	push   $0x1
    1934:	6a ff                	push   $0xffffffff
    1936:	bb fe ff ff ff       	mov    $0xfffffffe,%ebx
    193b:	e8 00 0c 01 00       	call   12540 <log_msg@plt>
    1940:	83 c4 10             	add    $0x10,%esp
    1943:	e9 a9 fe ff ff       	jmp    17f1 <usb_hub_device_add+0x361>
    1948:	50                   	push   %eax
    1949:	68 50 fa 00 00       	push   $0xfa50
    194e:	eb e2                	jmp    1932 <usb_hub_device_add+0x4a2>
    1950:	bb fe ff ff ff       	mov    $0xfffffffe,%ebx
    1955:	e9 7c fe ff ff       	jmp    17d6 <usb_hub_device_add+0x346>
    195a:	50                   	push   %eax
    195b:	6a 4c                	push   $0x4c
    195d:	68 e7 f6 00 00       	push   $0xf6e7
    1962:	68 81 f6 00 00       	push   $0xf681
    1967:	e8 34 0c 01 00       	call   125a0 <assert_abort@plt>
    196c:	50                   	push   %eax
    196d:	6a 65                	push   $0x65
    196f:	68 60 f6 00 00       	push   $0xf660
    1974:	68 8d f6 00 00       	push   $0xf68d
    1979:	e8 22 0c 01 00       	call   125a0 <assert_abort@plt>
    197e:	66 90                	xchg   %ax,%ax

00001980 <usb_hub_device_remove>:
    1980:	55                   	push   %ebp
    1981:	b8 f5 ff ff ff       	mov    $0xfffffff5,%eax
    1986:	89 e5                	mov    %esp,%ebp
    1988:	5d                   	pop    %ebp
    1989:	c3                   	ret    
    198a:	8d b6 00 00 00 00    	lea    0x0(%esi),%esi

00001990 <usb_hub_device_gone>:
    1990:	55                   	push   %ebp
    1991:	89 e5                	mov    %esp,%ebp
    1993:	56                   	push   %esi
    1994:	53                   	push   %ebx
    1995:	8b 45 08             	mov    0x8(%ebp),%eax
    1998:	85 c0                	test   %eax,%eax
    199a:	0f 84 ee 00 00 00    	je     1a8e <usb_hub_device_gone+0xfe>
    19a0:	83 ec 0c             	sub    $0xc,%esp
    19a3:	50                   	push   %eax
    19a4:	e8 97 1e 00 00       	call   3840 <usb_device_data_get>
    19a9:	83 c4 10             	add    $0x10,%esp
    19ac:	89 c6                	mov    %eax,%esi
    19ae:	85 c0                	test   %eax,%eax
    19b0:	0f 84 ed 00 00 00    	je     1aa3 <usb_hub_device_gone+0x113>
    19b6:	bb 0b 00 00 00       	mov    $0xb,%ebx
    19bb:	90                   	nop
    19bc:	8d 74 26 00          	lea    0x0(%esi,%eiz,1),%esi
    19c0:	80 7e 2c 00          	cmpb   $0x0,0x2c(%esi)
    19c4:	74 32                	je     19f8 <usb_hub_device_gone+0x68>
    19c6:	83 ec 0c             	sub    $0xc,%esp
    19c9:	68 a0 86 01 00       	push   $0x186a0
    19ce:	e8 8d 0d 01 00       	call   12760 <async_usleep@plt>
    19d3:	83 c4 10             	add    $0x10,%esp
    19d6:	4b                   	dec    %ebx
    19d7:	75 e7                	jne    19c0 <usb_hub_device_gone+0x30>
    19d9:	56                   	push   %esi
    19da:	68 34 fb 00 00       	push   $0xfb34
    19df:	6a 01                	push   $0x1
    19e1:	6a ff                	push   $0xffffffff
    19e3:	e8 58 0b 01 00       	call   12540 <log_msg@plt>
    19e8:	83 c4 10             	add    $0x10,%esp
    19eb:	b8 f1 ff ff ff       	mov    $0xfffffff1,%eax
    19f0:	8d 65 f8             	lea    -0x8(%ebp),%esp
    19f3:	5b                   	pop    %ebx
    19f4:	5e                   	pop    %esi
    19f5:	5d                   	pop    %ebp
    19f6:	c3                   	ret    
    19f7:	90                   	nop
    19f8:	8b 06                	mov    (%esi),%eax
    19fa:	31 db                	xor    %ebx,%ebx
    19fc:	85 c0                	test   %eax,%eax
    19fe:	74 1e                	je     1a1e <usb_hub_device_gone+0x8e>
    1a00:	50                   	push   %eax
    1a01:	50                   	push   %eax
    1a02:	8b 56 04             	mov    0x4(%esi),%edx
    1a05:	8d 04 9b             	lea    (%ebx,%ebx,4),%eax
    1a08:	56                   	push   %esi
    1a09:	8d 04 c2             	lea    (%edx,%eax,8),%eax
    1a0c:	50                   	push   %eax
    1a0d:	e8 fe 04 00 00       	call   1f10 <usb_hub_port_fini>
    1a12:	83 c4 10             	add    $0x10,%esp
    1a15:	85 c0                	test   %eax,%eax
    1a17:	75 d7                	jne    19f0 <usb_hub_device_gone+0x60>
    1a19:	43                   	inc    %ebx
    1a1a:	39 1e                	cmp    %ebx,(%esi)
    1a1c:	77 e2                	ja     1a00 <usb_hub_device_gone+0x70>
    1a1e:	83 ec 0c             	sub    $0xc,%esp
    1a21:	8b 46 04             	mov    0x4(%esi),%eax
    1a24:	50                   	push   %eax
    1a25:	e8 b6 0e 01 00       	call   128e0 <free@plt>
    1a2a:	58                   	pop    %eax
    1a2b:	8b 46 28             	mov    0x28(%esi),%eax
    1a2e:	50                   	push   %eax
    1a2f:	e8 2c 56 00 00       	call   7060 <ddf_fun_unbind>
    1a34:	83 c4 10             	add    $0x10,%esp
    1a37:	89 c3                	mov    %eax,%ebx
    1a39:	85 c0                	test   %eax,%eax
    1a3b:	75 27                	jne    1a64 <usb_hub_device_gone+0xd4>
    1a3d:	83 ec 0c             	sub    $0xc,%esp
    1a40:	8b 46 28             	mov    0x28(%esi),%eax
    1a43:	50                   	push   %eax
    1a44:	e8 b7 53 00 00       	call   6e00 <ddf_fun_destroy>
    1a49:	56                   	push   %esi
    1a4a:	68 88 fb 00 00       	push   $0xfb88
    1a4f:	6a 03                	push   $0x3
    1a51:	6a ff                	push   $0xffffffff
    1a53:	e8 e8 0a 01 00       	call   12540 <log_msg@plt>
    1a58:	83 c4 20             	add    $0x20,%esp
    1a5b:	8d 65 f8             	lea    -0x8(%ebp),%esp
    1a5e:	31 c0                	xor    %eax,%eax
    1a60:	5b                   	pop    %ebx
    1a61:	5e                   	pop    %esi
    1a62:	5d                   	pop    %ebp
    1a63:	c3                   	ret    
    1a64:	83 ec 0c             	sub    $0xc,%esp
    1a67:	50                   	push   %eax
    1a68:	e8 73 0d 01 00       	call   127e0 <str_error@plt>
    1a6d:	5a                   	pop    %edx
    1a6e:	59                   	pop    %ecx
    1a6f:	50                   	push   %eax
    1a70:	68 44 f6 00 00       	push   $0xf644
    1a75:	56                   	push   %esi
    1a76:	68 5c fb 00 00       	push   $0xfb5c
    1a7b:	6a 01                	push   $0x1
    1a7d:	6a ff                	push   $0xffffffff
    1a7f:	e8 bc 0a 01 00       	call   12540 <log_msg@plt>
    1a84:	83 c4 20             	add    $0x20,%esp
    1a87:	89 d8                	mov    %ebx,%eax
    1a89:	e9 62 ff ff ff       	jmp    19f0 <usb_hub_device_gone+0x60>
    1a8e:	52                   	push   %edx
    1a8f:	68 bc 00 00 00       	push   $0xbc
    1a94:	68 60 f6 00 00       	push   $0xf660
    1a99:	68 8d f6 00 00       	push   $0xf68d
    1a9e:	e8 fd 0a 01 00       	call   125a0 <assert_abort@plt>
    1aa3:	50                   	push   %eax
    1aa4:	68 be 00 00 00       	push   $0xbe
    1aa9:	68 60 f6 00 00       	push   $0xf660
    1aae:	68 44 f6 00 00       	push   $0xf644
    1ab3:	e8 e8 0a 01 00       	call   125a0 <assert_abort@plt>
    1ab8:	66 90                	xchg   %ax,%ax
    1aba:	66 90                	xchg   %ax,%ax
    1abc:	66 90                	xchg   %ax,%ax
    1abe:	66 90                	xchg   %ax,%ax

00001ac0 <port_enable>:
    1ac0:	55                   	push   %ebp
    1ac1:	89 e5                	mov    %esp,%ebp
    1ac3:	57                   	push   %edi
    1ac4:	56                   	push   %esi
    1ac5:	53                   	push   %ebx
    1ac6:	83 ec 2c             	sub    $0x2c,%esp
    1ac9:	89 c3                	mov    %eax,%ebx
    1acb:	84 c9                	test   %cl,%cl
    1acd:	0f 84 9d 00 00 00    	je     1b70 <port_enable+0xb0>
    1ad3:	85 c0                	test   %eax,%eax
    1ad5:	0f 84 1e 01 00 00    	je     1bf9 <port_enable+0x139>
    1adb:	8b 00                	mov    (%eax),%eax
    1add:	83 ec 0c             	sub    $0xc,%esp
    1ae0:	66 89 45 e4          	mov    %ax,-0x1c(%ebp)
    1ae4:	8d 45 e0             	lea    -0x20(%ebp),%eax
    1ae7:	6a 00                	push   $0x0
    1ae9:	6a 00                	push   $0x0
    1aeb:	6a 08                	push   $0x8
    1aed:	50                   	push   %eax
    1aee:	8b 43 04             	mov    0x4(%ebx),%eax
    1af1:	89 55 d0             	mov    %edx,-0x30(%ebp)
    1af4:	50                   	push   %eax
    1af5:	c6 45 e0 23          	movb   $0x23,-0x20(%ebp)
    1af9:	c6 45 e1 03          	movb   $0x3,-0x1f(%ebp)
    1afd:	66 c7 45 e2 04 00    	movw   $0x4,-0x1e(%ebp)
    1b03:	66 c7 45 e6 00 00    	movw   $0x0,-0x1a(%ebp)
    1b09:	e8 a2 26 00 00       	call   41b0 <usb_pipe_control_write>
    1b0e:	83 c4 20             	add    $0x20,%esp
    1b11:	89 45 d4             	mov    %eax,-0x2c(%ebp)
    1b14:	85 c0                	test   %eax,%eax
    1b16:	0f 85 9c 00 00 00    	jne    1bb8 <port_enable+0xf8>
    1b1c:	83 ec 0c             	sub    $0xc,%esp
    1b1f:	8d 73 08             	lea    0x8(%ebx),%esi
    1b22:	8d 7b 18             	lea    0x18(%ebx),%edi
    1b25:	56                   	push   %esi
    1b26:	e8 d5 0d 01 00       	call   12900 <fibril_mutex_lock@plt>
    1b2b:	c7 43 20 01 00 00 00 	movl   $0x1,0x20(%ebx)
    1b32:	83 c4 10             	add    $0x10,%esp
    1b35:	8d 76 00             	lea    0x0(%esi),%esi
    1b38:	51                   	push   %ecx
    1b39:	51                   	push   %ecx
    1b3a:	56                   	push   %esi
    1b3b:	57                   	push   %edi
    1b3c:	e8 df 09 01 00       	call   12520 <fibril_condvar_wait@plt>
    1b41:	8b 43 20             	mov    0x20(%ebx),%eax
    1b44:	83 c4 10             	add    $0x10,%esp
    1b47:	83 f8 01             	cmp    $0x1,%eax
    1b4a:	74 ec                	je     1b38 <port_enable+0x78>
    1b4c:	83 f8 02             	cmp    $0x2,%eax
    1b4f:	74 07                	je     1b58 <port_enable+0x98>
    1b51:	c7 45 d4 d3 fe ff ff 	movl   $0xfffffed3,-0x2c(%ebp)
    1b58:	83 ec 0c             	sub    $0xc,%esp
    1b5b:	56                   	push   %esi
    1b5c:	e8 df 0a 01 00       	call   12640 <fibril_mutex_unlock@plt>
    1b61:	8b 45 d4             	mov    -0x2c(%ebp),%eax
    1b64:	83 c4 10             	add    $0x10,%esp
    1b67:	8d 65 f4             	lea    -0xc(%ebp),%esp
    1b6a:	5b                   	pop    %ebx
    1b6b:	5e                   	pop    %esi
    1b6c:	5f                   	pop    %edi
    1b6d:	5d                   	pop    %ebp
    1b6e:	c3                   	ret    
    1b6f:	90                   	nop
    1b70:	85 c0                	test   %eax,%eax
    1b72:	74 73                	je     1be7 <port_enable+0x127>
    1b74:	8b 00                	mov    (%eax),%eax
    1b76:	83 ec 0c             	sub    $0xc,%esp
    1b79:	66 89 45 e4          	mov    %ax,-0x1c(%ebp)
    1b7d:	8d 45 e0             	lea    -0x20(%ebp),%eax
    1b80:	6a 00                	push   $0x0
    1b82:	6a 00                	push   $0x0
    1b84:	6a 08                	push   $0x8
    1b86:	50                   	push   %eax
    1b87:	8b 43 04             	mov    0x4(%ebx),%eax
    1b8a:	c6 45 e0 23          	movb   $0x23,-0x20(%ebp)
    1b8e:	c6 45 e1 01          	movb   $0x1,-0x1f(%ebp)
    1b92:	66 c7 45 e2 01 00    	movw   $0x1,-0x1e(%ebp)
    1b98:	66 c7 45 e6 00 00    	movw   $0x0,-0x1a(%ebp)
    1b9e:	50                   	push   %eax
    1b9f:	e8 0c 26 00 00       	call   41b0 <usb_pipe_control_write>
    1ba4:	83 c4 20             	add    $0x20,%esp
    1ba7:	89 45 d4             	mov    %eax,-0x2c(%ebp)
    1baa:	8d 65 f4             	lea    -0xc(%ebp),%esp
    1bad:	5b                   	pop    %ebx
    1bae:	5e                   	pop    %esi
    1baf:	5f                   	pop    %edi
    1bb0:	5d                   	pop    %ebp
    1bb1:	c3                   	ret    
    1bb2:	8d b6 00 00 00 00    	lea    0x0(%esi),%esi
    1bb8:	83 ec 0c             	sub    $0xc,%esp
    1bbb:	50                   	push   %eax
    1bbc:	e8 1f 0c 01 00       	call   127e0 <str_error@plt>
    1bc1:	5e                   	pop    %esi
    1bc2:	8b 55 d0             	mov    -0x30(%ebp),%edx
    1bc5:	5f                   	pop    %edi
    1bc6:	50                   	push   %eax
    1bc7:	8b 03                	mov    (%ebx),%eax
    1bc9:	50                   	push   %eax
    1bca:	52                   	push   %edx
    1bcb:	68 94 fc 00 00       	push   $0xfc94
    1bd0:	6a 01                	push   $0x1
    1bd2:	6a ff                	push   $0xffffffff
    1bd4:	e8 67 09 01 00       	call   12540 <log_msg@plt>
    1bd9:	8b 45 d4             	mov    -0x2c(%ebp),%eax
    1bdc:	83 c4 20             	add    $0x20,%esp
    1bdf:	8d 65 f4             	lea    -0xc(%ebp),%esp
    1be2:	5b                   	pop    %ebx
    1be3:	5e                   	pop    %esi
    1be4:	5f                   	pop    %edi
    1be5:	5d                   	pop    %ebp
    1be6:	c3                   	ret    
    1be7:	52                   	push   %edx
    1be8:	6a 52                	push   $0x52
    1bea:	68 d4 fb 00 00       	push   $0xfbd4
    1bef:	68 81 f6 00 00       	push   $0xf681
    1bf4:	e8 a7 09 01 00       	call   125a0 <assert_abort@plt>
    1bf9:	50                   	push   %eax
    1bfa:	6a 68                	push   $0x68
    1bfc:	68 d4 fb 00 00       	push   $0xfbd4
    1c01:	68 81 f6 00 00       	push   $0xf681
    1c06:	e8 95 09 01 00       	call   125a0 <assert_abort@plt>
    1c0b:	90                   	nop
    1c0c:	8d 74 26 00          	lea    0x0(%esi,%eiz,1),%esi

00001c10 <add_device_phase1_worker_fibril>:
    1c10:	55                   	push   %ebp
    1c11:	89 e5                	mov    %esp,%ebp
    1c13:	57                   	push   %edi
    1c14:	56                   	push   %esi
    1c15:	53                   	push   %ebx
    1c16:	83 ec 1c             	sub    $0x1c,%esp
    1c19:	8b 45 08             	mov    0x8(%ebp),%eax
    1c1c:	85 c0                	test   %eax,%eax
    1c1e:	0f 84 c2 02 00 00    	je     1ee6 <add_device_phase1_worker_fibril+0x2d6>
    1c24:	8b 48 04             	mov    0x4(%eax),%ecx
    1c27:	83 ec 0c             	sub    $0xc,%esp
    1c2a:	89 ce                	mov    %ecx,%esi
    1c2c:	8b 10                	mov    (%eax),%edx
    1c2e:	89 d3                	mov    %edx,%ebx
    1c30:	89 55 e4             	mov    %edx,-0x1c(%ebp)
    1c33:	89 4d e0             	mov    %ecx,-0x20(%ebp)
    1c36:	8b 78 08             	mov    0x8(%eax),%edi
    1c39:	50                   	push   %eax
    1c3a:	e8 a1 0c 01 00       	call   128e0 <free@plt>
    1c3f:	58                   	pop    %eax
    1c40:	8b 06                	mov    (%esi),%eax
    1c42:	50                   	push   %eax
    1c43:	53                   	push   %ebx
    1c44:	68 e2 fb 00 00       	push   $0xfbe2
    1c49:	6a 04                	push   $0x4
    1c4b:	6a ff                	push   $0xffffffff
    1c4d:	e8 ee 08 01 00       	call   12540 <log_msg@plt>
    1c52:	83 c4 14             	add    $0x14,%esp
    1c55:	8b 53 08             	mov    0x8(%ebx),%edx
    1c58:	52                   	push   %edx
    1c59:	e8 42 1b 00 00       	call   37a0 <usb_device_bus_exchange_begin>
    1c5e:	83 c4 10             	add    $0x10,%esp
    1c61:	89 c6                	mov    %eax,%esi
    1c63:	85 c0                	test   %eax,%eax
    1c65:	75 19                	jne    1c80 <add_device_phase1_worker_fibril+0x70>
    1c67:	e9 52 02 00 00       	jmp    1ebe <add_device_phase1_worker_fibril+0x2ae>
    1c6c:	8d 74 26 00          	lea    0x0(%esi,%eiz,1),%esi
    1c70:	83 ec 0c             	sub    $0xc,%esp
    1c73:	68 40 42 0f 00       	push   $0xf4240
    1c78:	e8 e3 0a 01 00       	call   12760 <async_usleep@plt>
    1c7d:	83 c4 10             	add    $0x10,%esp
    1c80:	50                   	push   %eax
    1c81:	50                   	push   %eax
    1c82:	57                   	push   %edi
    1c83:	56                   	push   %esi
    1c84:	e8 d7 ba 00 00       	call   d760 <usb_reserve_default_address>
    1c89:	83 c4 10             	add    $0x10,%esp
    1c8c:	83 f8 ff             	cmp    $0xffffffff,%eax
    1c8f:	74 df                	je     1c70 <add_device_phase1_worker_fibril+0x60>
    1c91:	89 c3                	mov    %eax,%ebx
    1c93:	85 c0                	test   %eax,%eax
    1c95:	74 71                	je     1d08 <add_device_phase1_worker_fibril+0xf8>
    1c97:	83 ec 0c             	sub    $0xc,%esp
    1c9a:	50                   	push   %eax
    1c9b:	e8 40 0b 01 00       	call   127e0 <str_error@plt>
    1ca0:	5a                   	pop    %edx
    1ca1:	59                   	pop    %ecx
    1ca2:	50                   	push   %eax
    1ca3:	8b 45 e0             	mov    -0x20(%ebp),%eax
    1ca6:	8b 38                	mov    (%eax),%edi
    1ca8:	8b 45 e4             	mov    -0x1c(%ebp),%eax
    1cab:	57                   	push   %edi
    1cac:	50                   	push   %eax
    1cad:	68 e4 fc 00 00       	push   $0xfce4
    1cb2:	6a 01                	push   $0x1
    1cb4:	6a ff                	push   $0xffffffff
    1cb6:	e8 85 08 01 00       	call   12540 <log_msg@plt>
    1cbb:	83 c4 20             	add    $0x20,%esp
    1cbe:	83 ec 0c             	sub    $0xc,%esp
    1cc1:	56                   	push   %esi
    1cc2:	e8 09 1b 00 00       	call   37d0 <usb_device_bus_exchange_end>
    1cc7:	8b 7d e4             	mov    -0x1c(%ebp),%edi
    1cca:	8d 77 10             	lea    0x10(%edi),%esi
    1ccd:	89 34 24             	mov    %esi,(%esp)
    1cd0:	e8 2b 0c 01 00       	call   12900 <fibril_mutex_lock@plt>
    1cd5:	8b 47 0c             	mov    0xc(%edi),%eax
    1cd8:	83 c4 10             	add    $0x10,%esp
    1cdb:	85 c0                	test   %eax,%eax
    1cdd:	0f 84 18 02 00 00    	je     1efb <add_device_phase1_worker_fibril+0x2eb>
    1ce3:	8b 55 e4             	mov    -0x1c(%ebp),%edx
    1ce6:	83 ec 0c             	sub    $0xc,%esp
    1ce9:	48                   	dec    %eax
    1cea:	89 42 0c             	mov    %eax,0xc(%edx)
    1ced:	8d 42 20             	lea    0x20(%edx),%eax
    1cf0:	50                   	push   %eax
    1cf1:	e8 ea 07 01 00       	call   124e0 <fibril_condvar_signal@plt>
    1cf6:	89 34 24             	mov    %esi,(%esp)
    1cf9:	e8 42 09 01 00       	call   12640 <fibril_mutex_unlock@plt>
    1cfe:	8d 65 f4             	lea    -0xc(%ebp),%esp
    1d01:	89 d8                	mov    %ebx,%eax
    1d03:	5b                   	pop    %ebx
    1d04:	5e                   	pop    %esi
    1d05:	5f                   	pop    %edi
    1d06:	5d                   	pop    %ebp
    1d07:	c3                   	ret    
    1d08:	8b 5d e0             	mov    -0x20(%ebp),%ebx
    1d0b:	83 ec 0c             	sub    $0xc,%esp
    1d0e:	8b 3b                	mov    (%ebx),%edi
    1d10:	57                   	push   %edi
    1d11:	8b 7d e4             	mov    -0x1c(%ebp),%edi
    1d14:	57                   	push   %edi
    1d15:	68 14 fd 00 00       	push   $0xfd14
    1d1a:	6a 04                	push   $0x4
    1d1c:	6a ff                	push   $0xffffffff
    1d1e:	e8 1d 08 01 00       	call   12540 <log_msg@plt>
    1d23:	83 c4 20             	add    $0x20,%esp
    1d26:	b9 01 00 00 00       	mov    $0x1,%ecx
    1d2b:	89 fa                	mov    %edi,%edx
    1d2d:	89 d8                	mov    %ebx,%eax
    1d2f:	e8 8c fd ff ff       	call   1ac0 <port_enable>
    1d34:	85 c0                	test   %eax,%eax
    1d36:	74 58                	je     1d90 <add_device_phase1_worker_fibril+0x180>
    1d38:	83 ec 0c             	sub    $0xc,%esp
    1d3b:	8b 0b                	mov    (%ebx),%ecx
    1d3d:	bb f6 fe ff ff       	mov    $0xfffffef6,%ebx
    1d42:	51                   	push   %ecx
    1d43:	57                   	push   %edi
    1d44:	68 40 fd 00 00       	push   $0xfd40
    1d49:	6a 01                	push   $0x1
    1d4b:	6a ff                	push   $0xffffffff
    1d4d:	e8 ee 07 01 00       	call   12540 <log_msg@plt>
    1d52:	83 c4 14             	add    $0x14,%esp
    1d55:	56                   	push   %esi
    1d56:	e8 45 ba 00 00       	call   d7a0 <usb_release_default_address>
    1d5b:	83 c4 10             	add    $0x10,%esp
    1d5e:	85 c0                	test   %eax,%eax
    1d60:	0f 84 58 ff ff ff    	je     1cbe <add_device_phase1_worker_fibril+0xae>
    1d66:	8b 45 e0             	mov    -0x20(%ebp),%eax
    1d69:	83 ec 0c             	sub    $0xc,%esp
    1d6c:	8b 55 e4             	mov    -0x1c(%ebp),%edx
    1d6f:	8b 00                	mov    (%eax),%eax
    1d71:	50                   	push   %eax
    1d72:	52                   	push   %edx
    1d73:	68 60 fd 00 00       	push   $0xfd60
    1d78:	6a 02                	push   $0x2
    1d7a:	6a ff                	push   $0xffffffff
    1d7c:	e8 bf 07 01 00       	call   12540 <log_msg@plt>
    1d81:	83 c4 20             	add    $0x20,%esp
    1d84:	e9 35 ff ff ff       	jmp    1cbe <add_device_phase1_worker_fibril+0xae>
    1d89:	8d b4 26 00 00 00 00 	lea    0x0(%esi,%eiz,1),%esi
    1d90:	8b 7d e0             	mov    -0x20(%ebp),%edi
    1d93:	83 ec 0c             	sub    $0xc,%esp
    1d96:	8b 07                	mov    (%edi),%eax
    1d98:	50                   	push   %eax
    1d99:	8b 45 e4             	mov    -0x1c(%ebp),%eax
    1d9c:	50                   	push   %eax
    1d9d:	68 8c fd 00 00       	push   $0xfd8c
    1da2:	6a 04                	push   $0x4
    1da4:	6a ff                	push   $0xffffffff
    1da6:	e8 95 07 01 00       	call   12540 <log_msg@plt>
    1dab:	83 c4 18             	add    $0x18,%esp
    1dae:	8b 07                	mov    (%edi),%eax
    1db0:	50                   	push   %eax
    1db1:	56                   	push   %esi
    1db2:	e8 29 ba 00 00       	call   d7e0 <usb_device_enumerate>
    1db7:	83 c4 10             	add    $0x10,%esp
    1dba:	89 c3                	mov    %eax,%ebx
    1dbc:	85 c0                	test   %eax,%eax
    1dbe:	74 68                	je     1e28 <add_device_phase1_worker_fibril+0x218>
    1dc0:	83 ec 0c             	sub    $0xc,%esp
    1dc3:	50                   	push   %eax
    1dc4:	e8 17 0a 01 00       	call   127e0 <str_error@plt>
    1dc9:	5a                   	pop    %edx
    1dca:	59                   	pop    %ecx
    1dcb:	50                   	push   %eax
    1dcc:	8b 07                	mov    (%edi),%eax
    1dce:	50                   	push   %eax
    1dcf:	8b 45 e4             	mov    -0x1c(%ebp),%eax
    1dd2:	50                   	push   %eax
    1dd3:	68 b4 fd 00 00       	push   $0xfdb4
    1dd8:	6a 01                	push   $0x1
    1dda:	6a ff                	push   $0xffffffff
    1ddc:	e8 5f 07 01 00       	call   12540 <log_msg@plt>
    1de1:	83 c4 20             	add    $0x20,%esp
    1de4:	31 c9                	xor    %ecx,%ecx
    1de6:	8b 55 e4             	mov    -0x1c(%ebp),%edx
    1de9:	89 f8                	mov    %edi,%eax
    1deb:	e8 d0 fc ff ff       	call   1ac0 <port_enable>
    1df0:	85 c0                	test   %eax,%eax
    1df2:	0f 84 86 00 00 00    	je     1e7e <add_device_phase1_worker_fibril+0x26e>
    1df8:	83 ec 0c             	sub    $0xc,%esp
    1dfb:	50                   	push   %eax
    1dfc:	e8 df 09 01 00       	call   127e0 <str_error@plt>
    1e01:	5a                   	pop    %edx
    1e02:	8b 3f                	mov    (%edi),%edi
    1e04:	59                   	pop    %ecx
    1e05:	50                   	push   %eax
    1e06:	8b 45 e4             	mov    -0x1c(%ebp),%eax
    1e09:	57                   	push   %edi
    1e0a:	50                   	push   %eax
    1e0b:	68 dc fd 00 00       	push   $0xfddc
    1e10:	6a 02                	push   $0x2
    1e12:	6a ff                	push   $0xffffffff
    1e14:	e8 27 07 01 00       	call   12540 <log_msg@plt>
    1e19:	83 c4 20             	add    $0x20,%esp
    1e1c:	e9 9d fe ff ff       	jmp    1cbe <add_device_phase1_worker_fibril+0xae>
    1e21:	8d b4 26 00 00 00 00 	lea    0x0(%esi,%eiz,1),%esi
    1e28:	8b 7d e0             	mov    -0x20(%ebp),%edi
    1e2b:	83 ec 0c             	sub    $0xc,%esp
    1e2e:	8b 07                	mov    (%edi),%eax
    1e30:	50                   	push   %eax
    1e31:	8b 45 e4             	mov    -0x1c(%ebp),%eax
    1e34:	50                   	push   %eax
    1e35:	68 00 fc 00 00       	push   $0xfc00
    1e3a:	6a 04                	push   $0x4
    1e3c:	6a ff                	push   $0xffffffff
    1e3e:	e8 fd 06 01 00       	call   12540 <log_msg@plt>
    1e43:	83 c4 14             	add    $0x14,%esp
    1e46:	c6 47 24 01          	movb   $0x1,0x24(%edi)
    1e4a:	56                   	push   %esi
    1e4b:	e8 50 b9 00 00       	call   d7a0 <usb_release_default_address>
    1e50:	83 c4 10             	add    $0x10,%esp
    1e53:	85 c0                	test   %eax,%eax
    1e55:	0f 84 63 fe ff ff    	je     1cbe <add_device_phase1_worker_fibril+0xae>
    1e5b:	8b 45 e0             	mov    -0x20(%ebp),%eax
    1e5e:	83 ec 0c             	sub    $0xc,%esp
    1e61:	8b 4d e4             	mov    -0x1c(%ebp),%ecx
    1e64:	8b 10                	mov    (%eax),%edx
    1e66:	52                   	push   %edx
    1e67:	51                   	push   %ecx
    1e68:	68 50 fe 00 00       	push   $0xfe50
    1e6d:	6a 02                	push   $0x2
    1e6f:	6a ff                	push   $0xffffffff
    1e71:	e8 ca 06 01 00       	call   12540 <log_msg@plt>
    1e76:	83 c4 20             	add    $0x20,%esp
    1e79:	e9 40 fe ff ff       	jmp    1cbe <add_device_phase1_worker_fibril+0xae>
    1e7e:	83 ec 0c             	sub    $0xc,%esp
    1e81:	56                   	push   %esi
    1e82:	e8 19 b9 00 00       	call   d7a0 <usb_release_default_address>
    1e87:	83 c4 10             	add    $0x10,%esp
    1e8a:	85 c0                	test   %eax,%eax
    1e8c:	0f 84 2c fe ff ff    	je     1cbe <add_device_phase1_worker_fibril+0xae>
    1e92:	83 ec 0c             	sub    $0xc,%esp
    1e95:	50                   	push   %eax
    1e96:	e8 45 09 01 00       	call   127e0 <str_error@plt>
    1e9b:	5a                   	pop    %edx
    1e9c:	59                   	pop    %ecx
    1e9d:	50                   	push   %eax
    1e9e:	8b 45 e0             	mov    -0x20(%ebp),%eax
    1ea1:	8b 38                	mov    (%eax),%edi
    1ea3:	8b 45 e4             	mov    -0x1c(%ebp),%eax
    1ea6:	57                   	push   %edi
    1ea7:	50                   	push   %eax
    1ea8:	68 20 fe 00 00       	push   $0xfe20
    1ead:	6a 02                	push   $0x2
    1eaf:	6a ff                	push   $0xffffffff
    1eb1:	e8 8a 06 01 00       	call   12540 <log_msg@plt>
    1eb6:	83 c4 20             	add    $0x20,%esp
    1eb9:	e9 00 fe ff ff       	jmp    1cbe <add_device_phase1_worker_fibril+0xae>
    1ebe:	8b 45 e0             	mov    -0x20(%ebp),%eax
    1ec1:	83 ec 0c             	sub    $0xc,%esp
    1ec4:	bb fe ff ff ff       	mov    $0xfffffffe,%ebx
    1ec9:	8b 00                	mov    (%eax),%eax
    1ecb:	50                   	push   %eax
    1ecc:	8b 45 e4             	mov    -0x1c(%ebp),%eax
    1ecf:	50                   	push   %eax
    1ed0:	68 bc fc 00 00       	push   $0xfcbc
    1ed5:	6a 01                	push   $0x1
    1ed7:	6a ff                	push   $0xffffffff
    1ed9:	e8 62 06 01 00       	call   12540 <log_msg@plt>
    1ede:	83 c4 20             	add    $0x20,%esp
    1ee1:	e9 d8 fd ff ff       	jmp    1cbe <add_device_phase1_worker_fibril+0xae>
    1ee6:	51                   	push   %ecx
    1ee7:	68 84 01 00 00       	push   $0x184
    1eec:	68 d4 fb 00 00       	push   $0xfbd4
    1ef1:	68 db fb 00 00       	push   $0xfbdb
    1ef6:	e8 a5 06 01 00       	call   125a0 <assert_abort@plt>
    1efb:	50                   	push   %eax
    1efc:	68 cc 01 00 00       	push   $0x1cc
    1f01:	68 d4 fb 00 00       	push   $0xfbd4
    1f06:	68 1b fc 00 00       	push   $0xfc1b
    1f0b:	e8 90 06 01 00       	call   125a0 <assert_abort@plt>

00001f10 <usb_hub_port_fini>:
    1f10:	55                   	push   %ebp
    1f11:	89 e5                	mov    %esp,%ebp
    1f13:	56                   	push   %esi
    1f14:	53                   	push   %ebx
    1f15:	83 ec 10             	sub    $0x10,%esp
    1f18:	8b 5d 08             	mov    0x8(%ebp),%ebx
    1f1b:	85 db                	test   %ebx,%ebx
    1f1d:	74 62                	je     1f81 <usb_hub_port_fini+0x71>
    1f1f:	31 c0                	xor    %eax,%eax
    1f21:	80 7b 24 00          	cmpb   $0x0,0x24(%ebx)
    1f25:	75 09                	jne    1f30 <usb_hub_port_fini+0x20>
    1f27:	8d 65 f8             	lea    -0x8(%ebp),%esp
    1f2a:	5b                   	pop    %ebx
    1f2b:	5e                   	pop    %esi
    1f2c:	5d                   	pop    %ebp
    1f2d:	c3                   	ret    
    1f2e:	66 90                	xchg   %ax,%ax
    1f30:	8b 75 0c             	mov    0xc(%ebp),%esi
    1f33:	85 f6                	test   %esi,%esi
    1f35:	74 5c                	je     1f93 <usb_hub_port_fini+0x83>
    1f37:	8b 45 0c             	mov    0xc(%ebp),%eax
    1f3a:	83 ec 0c             	sub    $0xc,%esp
    1f3d:	8b 48 08             	mov    0x8(%eax),%ecx
    1f40:	51                   	push   %ecx
    1f41:	e8 5a 18 00 00       	call   37a0 <usb_device_bus_exchange_begin>
    1f46:	83 c4 10             	add    $0x10,%esp
    1f49:	89 c6                	mov    %eax,%esi
    1f4b:	85 c0                	test   %eax,%eax
    1f4d:	74 2b                	je     1f7a <usb_hub_port_fini+0x6a>
    1f4f:	50                   	push   %eax
    1f50:	50                   	push   %eax
    1f51:	8b 13                	mov    (%ebx),%edx
    1f53:	52                   	push   %edx
    1f54:	56                   	push   %esi
    1f55:	e8 c6 b8 00 00       	call   d820 <usb_device_remove>
    1f5a:	89 34 24             	mov    %esi,(%esp)
    1f5d:	89 45 f4             	mov    %eax,-0xc(%ebp)
    1f60:	e8 6b 18 00 00       	call   37d0 <usb_device_bus_exchange_end>
    1f65:	8b 45 f4             	mov    -0xc(%ebp),%eax
    1f68:	83 c4 10             	add    $0x10,%esp
    1f6b:	85 c0                	test   %eax,%eax
    1f6d:	75 b8                	jne    1f27 <usb_hub_port_fini+0x17>
    1f6f:	c6 43 24 00          	movb   $0x0,0x24(%ebx)
    1f73:	8d 65 f8             	lea    -0x8(%ebp),%esp
    1f76:	5b                   	pop    %ebx
    1f77:	5e                   	pop    %esi
    1f78:	5d                   	pop    %ebp
    1f79:	c3                   	ret    
    1f7a:	b8 fe ff ff ff       	mov    $0xfffffffe,%eax
    1f7f:	eb a6                	jmp    1f27 <usb_hub_port_fini+0x17>
    1f81:	50                   	push   %eax
    1f82:	6a 42                	push   $0x42
    1f84:	68 d4 fb 00 00       	push   $0xfbd4
    1f89:	68 81 f6 00 00       	push   $0xf681
    1f8e:	e8 0d 06 01 00       	call   125a0 <assert_abort@plt>
    1f93:	53                   	push   %ebx
    1f94:	68 09 01 00 00       	push   $0x109
    1f99:	68 d4 fb 00 00       	push   $0xfbd4
    1f9e:	68 44 f6 00 00       	push   $0xf644
    1fa3:	e8 f8 05 01 00       	call   125a0 <assert_abort@plt>
    1fa8:	90                   	nop
    1fa9:	8d b4 26 00 00 00 00 	lea    0x0(%esi,%eiz,1),%esi

00001fb0 <usb_hub_port_clear_feature>:
    1fb0:	55                   	push   %ebp
    1fb1:	89 e5                	mov    %esp,%ebp
    1fb3:	83 ec 18             	sub    $0x18,%esp
    1fb6:	8b 45 08             	mov    0x8(%ebp),%eax
    1fb9:	85 c0                	test   %eax,%eax
    1fbb:	74 33                	je     1ff0 <usb_hub_port_clear_feature+0x40>
    1fbd:	83 ec 0c             	sub    $0xc,%esp
    1fc0:	8b 55 0c             	mov    0xc(%ebp),%edx
    1fc3:	66 89 55 f2          	mov    %dx,-0xe(%ebp)
    1fc7:	8b 10                	mov    (%eax),%edx
    1fc9:	6a 00                	push   $0x0
    1fcb:	6a 00                	push   $0x0
    1fcd:	66 89 55 f4          	mov    %dx,-0xc(%ebp)
    1fd1:	8b 40 04             	mov    0x4(%eax),%eax
    1fd4:	8d 55 f0             	lea    -0x10(%ebp),%edx
    1fd7:	6a 08                	push   $0x8
    1fd9:	c6 45 f0 23          	movb   $0x23,-0x10(%ebp)
    1fdd:	52                   	push   %edx
    1fde:	c6 45 f1 01          	movb   $0x1,-0xf(%ebp)
    1fe2:	66 c7 45 f6 00 00    	movw   $0x0,-0xa(%ebp)
    1fe8:	50                   	push   %eax
    1fe9:	e8 c2 21 00 00       	call   41b0 <usb_pipe_control_write>
    1fee:	c9                   	leave  
    1fef:	c3                   	ret    
    1ff0:	52                   	push   %edx
    1ff1:	6a 52                	push   $0x52
    1ff3:	68 d4 fb 00 00       	push   $0xfbd4
    1ff8:	68 81 f6 00 00       	push   $0xf681
    1ffd:	e8 9e 05 01 00       	call   125a0 <assert_abort@plt>
    2002:	8d b4 26 00 00 00 00 	lea    0x0(%esi,%eiz,1),%esi
    2009:	8d bc 27 00 00 00 00 	lea    0x0(%edi,%eiz,1),%edi

00002010 <usb_hub_port_set_feature>:
    2010:	55                   	push   %ebp
    2011:	89 e5                	mov    %esp,%ebp
    2013:	83 ec 18             	sub    $0x18,%esp
    2016:	8b 45 08             	mov    0x8(%ebp),%eax
    2019:	85 c0                	test   %eax,%eax
    201b:	74 33                	je     2050 <usb_hub_port_set_feature+0x40>
    201d:	83 ec 0c             	sub    $0xc,%esp
    2020:	8b 55 0c             	mov    0xc(%ebp),%edx
    2023:	66 89 55 f2          	mov    %dx,-0xe(%ebp)
    2027:	8b 10                	mov    (%eax),%edx
    2029:	6a 00                	push   $0x0
    202b:	6a 00                	push   $0x0
    202d:	66 89 55 f4          	mov    %dx,-0xc(%ebp)
    2031:	8b 40 04             	mov    0x4(%eax),%eax
    2034:	8d 55 f0             	lea    -0x10(%ebp),%edx
    2037:	6a 08                	push   $0x8
    2039:	c6 45 f0 23          	movb   $0x23,-0x10(%ebp)
    203d:	52                   	push   %edx
    203e:	c6 45 f1 03          	movb   $0x3,-0xf(%ebp)
    2042:	66 c7 45 f6 00 00    	movw   $0x0,-0xa(%ebp)
    2048:	50                   	push   %eax
    2049:	e8 62 21 00 00       	call   41b0 <usb_pipe_control_write>
    204e:	c9                   	leave  
    204f:	c3                   	ret    
    2050:	52                   	push   %edx
    2051:	6a 68                	push   $0x68
    2053:	68 d4 fb 00 00       	push   $0xfbd4
    2058:	68 81 f6 00 00       	push   $0xf681
    205d:	e8 3e 05 01 00       	call   125a0 <assert_abort@plt>
    2062:	8d b4 26 00 00 00 00 	lea    0x0(%esi,%eiz,1),%esi
    2069:	8d bc 27 00 00 00 00 	lea    0x0(%edi,%eiz,1),%edi

00002070 <usb_hub_port_reset_fail>:
    2070:	55                   	push   %ebp
    2071:	89 e5                	mov    %esp,%ebp
    2073:	56                   	push   %esi
    2074:	53                   	push   %ebx
    2075:	8b 5d 08             	mov    0x8(%ebp),%ebx
    2078:	85 db                	test   %ebx,%ebx
    207a:	74 39                	je     20b5 <usb_hub_port_reset_fail+0x45>
    207c:	83 ec 0c             	sub    $0xc,%esp
    207f:	8d 73 08             	lea    0x8(%ebx),%esi
    2082:	56                   	push   %esi
    2083:	e8 78 08 01 00       	call   12900 <fibril_mutex_lock@plt>
    2088:	83 c4 10             	add    $0x10,%esp
    208b:	83 7b 20 01          	cmpl   $0x1,0x20(%ebx)
    208f:	75 07                	jne    2098 <usb_hub_port_reset_fail+0x28>
    2091:	c7 43 20 03 00 00 00 	movl   $0x3,0x20(%ebx)
    2098:	83 ec 0c             	sub    $0xc,%esp
    209b:	83 c3 18             	add    $0x18,%ebx
    209e:	53                   	push   %ebx
    209f:	e8 7c 05 01 00       	call   12620 <fibril_condvar_broadcast@plt>
    20a4:	89 75 08             	mov    %esi,0x8(%ebp)
    20a7:	83 c4 10             	add    $0x10,%esp
    20aa:	8d 65 f8             	lea    -0x8(%ebp),%esp
    20ad:	5b                   	pop    %ebx
    20ae:	5e                   	pop    %esi
    20af:	5d                   	pop    %ebp
    20b0:	e9 8b 05 01 00       	jmp    12640 <fibril_mutex_unlock@plt>
    20b5:	50                   	push   %eax
    20b6:	6a 7b                	push   $0x7b
    20b8:	68 d4 fb 00 00       	push   $0xfbd4
    20bd:	68 81 f6 00 00       	push   $0xf681
    20c2:	e8 d9 04 01 00       	call   125a0 <assert_abort@plt>
    20c7:	89 f6                	mov    %esi,%esi
    20c9:	8d bc 27 00 00 00 00 	lea    0x0(%edi,%eiz,1),%edi

000020d0 <usb_hub_port_process_interrupt>:
    20d0:	55                   	push   %ebp
    20d1:	89 e5                	mov    %esp,%ebp
    20d3:	57                   	push   %edi
    20d4:	56                   	push   %esi
    20d5:	53                   	push   %ebx
    20d6:	83 ec 2c             	sub    $0x2c,%esp
    20d9:	8b 5d 08             	mov    0x8(%ebp),%ebx
    20dc:	8b 75 0c             	mov    0xc(%ebp),%esi
    20df:	85 db                	test   %ebx,%ebx
    20e1:	0f 84 92 05 00 00    	je     2679 <usb_hub_port_process_interrupt+0x5a9>
    20e7:	85 f6                	test   %esi,%esi
    20e9:	0f 84 9f 05 00 00    	je     268e <usb_hub_port_process_interrupt+0x5be>
    20ef:	83 ec 0c             	sub    $0xc,%esp
    20f2:	8b 03                	mov    (%ebx),%eax
    20f4:	50                   	push   %eax
    20f5:	56                   	push   %esi
    20f6:	68 47 fc 00 00       	push   $0xfc47
    20fb:	6a 05                	push   $0x5
    20fd:	6a ff                	push   $0xffffffff
    20ff:	e8 3c 04 01 00       	call   12540 <log_msg@plt>
    2104:	8b 03                	mov    (%ebx),%eax
    2106:	83 c4 18             	add    $0x18,%esp
    2109:	66 89 45 e4          	mov    %ax,-0x1c(%ebp)
    210d:	8d 45 d8             	lea    -0x28(%ebp),%eax
    2110:	50                   	push   %eax
    2111:	8d 45 dc             	lea    -0x24(%ebp),%eax
    2114:	6a 04                	push   $0x4
    2116:	50                   	push   %eax
    2117:	8d 45 e0             	lea    -0x20(%ebp),%eax
    211a:	6a 08                	push   $0x8
    211c:	50                   	push   %eax
    211d:	8b 43 04             	mov    0x4(%ebx),%eax
    2120:	50                   	push   %eax
    2121:	c6 45 e0 a3          	movb   $0xa3,-0x20(%ebp)
    2125:	c6 45 e1 00          	movb   $0x0,-0x1f(%ebp)
    2129:	66 c7 45 e2 00 00    	movw   $0x0,-0x1e(%ebp)
    212f:	66 c7 45 e6 04 00    	movw   $0x4,-0x1a(%ebp)
    2135:	e8 46 1f 00 00       	call   4080 <usb_pipe_control_read>
    213a:	83 c4 20             	add    $0x20,%esp
    213d:	85 c0                	test   %eax,%eax
    213f:	0f 85 60 01 00 00    	jne    22a5 <usb_hub_port_process_interrupt+0x1d5>
    2145:	83 7d d8 04          	cmpl   $0x4,-0x28(%ebp)
    2149:	0f 85 51 01 00 00    	jne    22a0 <usb_hub_port_process_interrupt+0x1d0>
    214f:	8b 45 dc             	mov    -0x24(%ebp),%eax
    2152:	89 c7                	mov    %eax,%edi
    2154:	89 45 d4             	mov    %eax,-0x2c(%ebp)
    2157:	a9 00 00 01 00       	test   $0x10000,%eax
    215c:	75 5a                	jne    21b8 <usb_hub_port_process_interrupt+0xe8>
    215e:	f7 45 d4 00 00 02 00 	testl  $0x20000,-0x2c(%ebp)
    2165:	0f 85 65 01 00 00    	jne    22d0 <usb_hub_port_process_interrupt+0x200>
    216b:	f7 45 d4 00 00 04 00 	testl  $0x40000,-0x2c(%ebp)
    2172:	0f 85 08 02 00 00    	jne    2380 <usb_hub_port_process_interrupt+0x2b0>
    2178:	f7 45 d4 00 00 08 00 	testl  $0x80000,-0x2c(%ebp)
    217f:	0f 85 73 02 00 00    	jne    23f8 <usb_hub_port_process_interrupt+0x328>
    2185:	f7 45 d4 00 00 10 00 	testl  $0x100000,-0x2c(%ebp)
    218c:	0f 85 26 03 00 00    	jne    24b8 <usb_hub_port_process_interrupt+0x3e8>
    2192:	8b 45 d4             	mov    -0x2c(%ebp),%eax
    2195:	57                   	push   %edi
    2196:	57                   	push   %edi
    2197:	50                   	push   %eax
    2198:	8b 03                	mov    (%ebx),%eax
    219a:	50                   	push   %eax
    219b:	56                   	push   %esi
    219c:	68 78 fc 00 00       	push   $0xfc78
    21a1:	6a 05                	push   $0x5
    21a3:	6a ff                	push   $0xffffffff
    21a5:	e8 96 03 01 00       	call   12540 <log_msg@plt>
    21aa:	83 c4 20             	add    $0x20,%esp
    21ad:	8d 65 f4             	lea    -0xc(%ebp),%esp
    21b0:	5b                   	pop    %ebx
    21b1:	5e                   	pop    %esi
    21b2:	5f                   	pop    %edi
    21b3:	5d                   	pop    %ebp
    21b4:	c3                   	ret    
    21b5:	8d 76 00             	lea    0x0(%esi),%esi
    21b8:	83 e7 01             	and    $0x1,%edi
    21bb:	b8 36 fc 00 00       	mov    $0xfc36,%eax
    21c0:	0f 84 a2 03 00 00    	je     2568 <usb_hub_port_process_interrupt+0x498>
    21c6:	52                   	push   %edx
    21c7:	52                   	push   %edx
    21c8:	8b 0b                	mov    (%ebx),%ecx
    21ca:	50                   	push   %eax
    21cb:	51                   	push   %ecx
    21cc:	56                   	push   %esi
    21cd:	68 7c fe 00 00       	push   $0xfe7c
    21d2:	6a 04                	push   $0x4
    21d4:	6a ff                	push   $0xffffffff
    21d6:	e8 65 03 01 00       	call   12540 <log_msg@plt>
    21db:	83 c4 14             	add    $0x14,%esp
    21de:	8b 03                	mov    (%ebx),%eax
    21e0:	66 89 45 e4          	mov    %ax,-0x1c(%ebp)
    21e4:	8d 45 e0             	lea    -0x20(%ebp),%eax
    21e7:	6a 00                	push   $0x0
    21e9:	6a 00                	push   $0x0
    21eb:	6a 08                	push   $0x8
    21ed:	50                   	push   %eax
    21ee:	8b 43 04             	mov    0x4(%ebx),%eax
    21f1:	c6 45 e0 23          	movb   $0x23,-0x20(%ebp)
    21f5:	50                   	push   %eax
    21f6:	c6 45 e1 01          	movb   $0x1,-0x1f(%ebp)
    21fa:	66 c7 45 e2 10 00    	movw   $0x10,-0x1e(%ebp)
    2200:	66 c7 45 e6 00 00    	movw   $0x0,-0x1a(%ebp)
    2206:	e8 a5 1f 00 00       	call   41b0 <usb_pipe_control_write>
    220b:	83 c4 20             	add    $0x20,%esp
    220e:	85 c0                	test   %eax,%eax
    2210:	0f 85 0a 04 00 00    	jne    2620 <usb_hub_port_process_interrupt+0x550>
    2216:	85 ff                	test   %edi,%edi
    2218:	0f 84 5a 03 00 00    	je     2578 <usb_hub_port_process_interrupt+0x4a8>
    221e:	8b 45 d4             	mov    -0x2c(%ebp),%eax
    2221:	31 d2                	xor    %edx,%edx
    2223:	f6 c4 02             	test   $0x2,%ah
    2226:	75 09                	jne    2231 <usb_hub_port_process_interrupt+0x161>
    2228:	31 d2                	xor    %edx,%edx
    222a:	f6 c4 04             	test   $0x4,%ah
    222d:	0f 95 c2             	setne  %dl
    2230:	42                   	inc    %edx
    2231:	83 ec 0c             	sub    $0xc,%esp
    2234:	89 55 d0             	mov    %edx,-0x30(%ebp)
    2237:	6a 0c                	push   $0xc
    2239:	e8 72 02 01 00       	call   124b0 <malloc@plt>
    223e:	83 c4 10             	add    $0x10,%esp
    2241:	89 c7                	mov    %eax,%edi
    2243:	85 c0                	test   %eax,%eax
    2245:	0f 84 07 04 00 00    	je     2652 <usb_hub_port_process_interrupt+0x582>
    224b:	8b 55 d0             	mov    -0x30(%ebp),%edx
    224e:	89 30                	mov    %esi,(%eax)
    2250:	89 58 04             	mov    %ebx,0x4(%eax)
    2253:	89 50 08             	mov    %edx,0x8(%eax)
    2256:	50                   	push   %eax
    2257:	6a 00                	push   $0x0
    2259:	57                   	push   %edi
    225a:	68 10 1c 00 00       	push   $0x1c10
    225f:	e8 0c 06 01 00       	call   12870 <fibril_create_generic@plt>
    2264:	83 c4 10             	add    $0x10,%esp
    2267:	85 c0                	test   %eax,%eax
    2269:	0f 84 d7 03 00 00    	je     2646 <usb_hub_port_process_interrupt+0x576>
    226f:	83 ec 0c             	sub    $0xc,%esp
    2272:	8d 7e 10             	lea    0x10(%esi),%edi
    2275:	89 45 d0             	mov    %eax,-0x30(%ebp)
    2278:	57                   	push   %edi
    2279:	e8 82 06 01 00       	call   12900 <fibril_mutex_lock@plt>
    227e:	8b 46 0c             	mov    0xc(%esi),%eax
    2281:	40                   	inc    %eax
    2282:	89 46 0c             	mov    %eax,0xc(%esi)
    2285:	89 3c 24             	mov    %edi,(%esp)
    2288:	e8 b3 03 01 00       	call   12640 <fibril_mutex_unlock@plt>
    228d:	8b 45 d0             	mov    -0x30(%ebp),%eax
    2290:	89 04 24             	mov    %eax,(%esp)
    2293:	e8 e8 05 01 00       	call   12880 <fibril_add_ready@plt>
    2298:	83 c4 10             	add    $0x10,%esp
    229b:	e9 be fe ff ff       	jmp    215e <usb_hub_port_process_interrupt+0x8e>
    22a0:	b8 fd ff ff ff       	mov    $0xfffffffd,%eax
    22a5:	83 ec 0c             	sub    $0xc,%esp
    22a8:	50                   	push   %eax
    22a9:	e8 32 05 01 00       	call   127e0 <str_error@plt>
    22ae:	8b 1b                	mov    (%ebx),%ebx
    22b0:	5a                   	pop    %edx
    22b1:	59                   	pop    %ecx
    22b2:	50                   	push   %eax
    22b3:	53                   	push   %ebx
    22b4:	56                   	push   %esi
    22b5:	68 d0 00 01 00       	push   $0x100d0
    22ba:	6a 01                	push   $0x1
    22bc:	6a ff                	push   $0xffffffff
    22be:	e8 7d 02 01 00       	call   12540 <log_msg@plt>
    22c3:	83 c4 20             	add    $0x20,%esp
    22c6:	8d 65 f4             	lea    -0xc(%ebp),%esp
    22c9:	5b                   	pop    %ebx
    22ca:	5e                   	pop    %esi
    22cb:	5f                   	pop    %edi
    22cc:	5d                   	pop    %ebp
    22cd:	c3                   	ret    
    22ce:	66 90                	xchg   %ax,%ax
    22d0:	83 ec 0c             	sub    $0xc,%esp
    22d3:	8b 13                	mov    (%ebx),%edx
    22d5:	52                   	push   %edx
    22d6:	56                   	push   %esi
    22d7:	68 e0 fe 00 00       	push   $0xfee0
    22dc:	6a 03                	push   $0x3
    22de:	6a ff                	push   $0xffffffff
    22e0:	e8 5b 02 01 00       	call   12540 <log_msg@plt>
    22e5:	83 c4 14             	add    $0x14,%esp
    22e8:	8b 4e 08             	mov    0x8(%esi),%ecx
    22eb:	51                   	push   %ecx
    22ec:	e8 af 14 00 00       	call   37a0 <usb_device_bus_exchange_begin>
    22f1:	83 c4 10             	add    $0x10,%esp
    22f4:	89 c7                	mov    %eax,%edi
    22f6:	85 c0                	test   %eax,%eax
    22f8:	74 24                	je     231e <usb_hub_port_process_interrupt+0x24e>
    22fa:	50                   	push   %eax
    22fb:	50                   	push   %eax
    22fc:	8b 03                	mov    (%ebx),%eax
    22fe:	50                   	push   %eax
    22ff:	57                   	push   %edi
    2300:	e8 1b b5 00 00       	call   d820 <usb_device_remove>
    2305:	89 3c 24             	mov    %edi,(%esp)
    2308:	89 45 d0             	mov    %eax,-0x30(%ebp)
    230b:	e8 c0 14 00 00       	call   37d0 <usb_device_bus_exchange_end>
    2310:	8b 45 d0             	mov    -0x30(%ebp),%eax
    2313:	83 c4 10             	add    $0x10,%esp
    2316:	85 c0                	test   %eax,%eax
    2318:	75 04                	jne    231e <usb_hub_port_process_interrupt+0x24e>
    231a:	c6 43 24 00          	movb   $0x0,0x24(%ebx)
    231e:	83 ec 0c             	sub    $0xc,%esp
    2321:	8b 03                	mov    (%ebx),%eax
    2323:	66 89 45 e4          	mov    %ax,-0x1c(%ebp)
    2327:	8d 45 e0             	lea    -0x20(%ebp),%eax
    232a:	6a 00                	push   $0x0
    232c:	6a 00                	push   $0x0
    232e:	6a 08                	push   $0x8
    2330:	50                   	push   %eax
    2331:	8b 43 04             	mov    0x4(%ebx),%eax
    2334:	c6 45 e0 23          	movb   $0x23,-0x20(%ebp)
    2338:	50                   	push   %eax
    2339:	c6 45 e1 01          	movb   $0x1,-0x1f(%ebp)
    233d:	66 c7 45 e2 11 00    	movw   $0x11,-0x1e(%ebp)
    2343:	66 c7 45 e6 00 00    	movw   $0x0,-0x1a(%ebp)
    2349:	e8 62 1e 00 00       	call   41b0 <usb_pipe_control_write>
    234e:	83 c4 20             	add    $0x20,%esp
    2351:	85 c0                	test   %eax,%eax
    2353:	0f 84 12 fe ff ff    	je     216b <usb_hub_port_process_interrupt+0x9b>
    2359:	83 ec 0c             	sub    $0xc,%esp
    235c:	50                   	push   %eax
    235d:	e8 7e 04 01 00       	call   127e0 <str_error@plt>
    2362:	8b 3b                	mov    (%ebx),%edi
    2364:	5a                   	pop    %edx
    2365:	59                   	pop    %ecx
    2366:	50                   	push   %eax
    2367:	57                   	push   %edi
    2368:	56                   	push   %esi
    2369:	68 0c ff 00 00       	push   $0xff0c
    236e:	6a 01                	push   $0x1
    2370:	6a ff                	push   $0xffffffff
    2372:	e8 c9 01 01 00       	call   12540 <log_msg@plt>
    2377:	83 c4 20             	add    $0x20,%esp
    237a:	e9 ec fd ff ff       	jmp    216b <usb_hub_port_process_interrupt+0x9b>
    237f:	90                   	nop
    2380:	83 ec 0c             	sub    $0xc,%esp
    2383:	8b 03                	mov    (%ebx),%eax
    2385:	50                   	push   %eax
    2386:	56                   	push   %esi
    2387:	68 48 ff 00 00       	push   $0xff48
    238c:	6a 01                	push   $0x1
    238e:	6a ff                	push   $0xffffffff
    2390:	e8 ab 01 01 00       	call   12540 <log_msg@plt>
    2395:	83 c4 14             	add    $0x14,%esp
    2398:	8b 03                	mov    (%ebx),%eax
    239a:	66 89 45 e4          	mov    %ax,-0x1c(%ebp)
    239e:	8d 45 e0             	lea    -0x20(%ebp),%eax
    23a1:	6a 00                	push   $0x0
    23a3:	6a 00                	push   $0x0
    23a5:	6a 08                	push   $0x8
    23a7:	50                   	push   %eax
    23a8:	8b 43 04             	mov    0x4(%ebx),%eax
    23ab:	c6 45 e0 23          	movb   $0x23,-0x20(%ebp)
    23af:	50                   	push   %eax
    23b0:	c6 45 e1 01          	movb   $0x1,-0x1f(%ebp)
    23b4:	66 c7 45 e2 12 00    	movw   $0x12,-0x1e(%ebp)
    23ba:	66 c7 45 e6 00 00    	movw   $0x0,-0x1a(%ebp)
    23c0:	e8 eb 1d 00 00       	call   41b0 <usb_pipe_control_write>
    23c5:	83 c4 20             	add    $0x20,%esp
    23c8:	85 c0                	test   %eax,%eax
    23ca:	0f 84 a8 fd ff ff    	je     2178 <usb_hub_port_process_interrupt+0xa8>
    23d0:	83 ec 0c             	sub    $0xc,%esp
    23d3:	50                   	push   %eax
    23d4:	e8 07 04 01 00       	call   127e0 <str_error@plt>
    23d9:	8b 3b                	mov    (%ebx),%edi
    23db:	5a                   	pop    %edx
    23dc:	59                   	pop    %ecx
    23dd:	50                   	push   %eax
    23de:	57                   	push   %edi
    23df:	56                   	push   %esi
    23e0:	68 a8 ff 00 00       	push   $0xffa8
    23e5:	6a 01                	push   $0x1
    23e7:	6a ff                	push   $0xffffffff
    23e9:	e8 52 01 01 00       	call   12540 <log_msg@plt>
    23ee:	83 c4 20             	add    $0x20,%esp
    23f1:	e9 82 fd ff ff       	jmp    2178 <usb_hub_port_process_interrupt+0xa8>
    23f6:	66 90                	xchg   %ax,%ax
    23f8:	83 ec 0c             	sub    $0xc,%esp
    23fb:	8b 03                	mov    (%ebx),%eax
    23fd:	50                   	push   %eax
    23fe:	56                   	push   %esi
    23ff:	68 5c fc 00 00       	push   $0xfc5c
    2404:	6a 04                	push   $0x4
    2406:	6a ff                	push   $0xffffffff
    2408:	e8 33 01 01 00       	call   12540 <log_msg@plt>
    240d:	83 c4 14             	add    $0x14,%esp
    2410:	8b 03                	mov    (%ebx),%eax
    2412:	66 89 45 e4          	mov    %ax,-0x1c(%ebp)
    2416:	8d 45 e0             	lea    -0x20(%ebp),%eax
    2419:	6a 00                	push   $0x0
    241b:	6a 00                	push   $0x0
    241d:	6a 08                	push   $0x8
    241f:	50                   	push   %eax
    2420:	8b 43 04             	mov    0x4(%ebx),%eax
    2423:	c6 45 e0 23          	movb   $0x23,-0x20(%ebp)
    2427:	50                   	push   %eax
    2428:	c6 45 e1 01          	movb   $0x1,-0x1f(%ebp)
    242c:	66 c7 45 e2 13 00    	movw   $0x13,-0x1e(%ebp)
    2432:	66 c7 45 e6 00 00    	movw   $0x0,-0x1a(%ebp)
    2438:	e8 73 1d 00 00       	call   41b0 <usb_pipe_control_write>
    243d:	83 c4 20             	add    $0x20,%esp
    2440:	85 c0                	test   %eax,%eax
    2442:	0f 85 b0 01 00 00    	jne    25f8 <usb_hub_port_process_interrupt+0x528>
    2448:	f7 45 d4 f7 ff ff ff 	testl  $0xfffffff7,-0x2c(%ebp)
    244f:	0f 85 30 fd ff ff    	jne    2185 <usb_hub_port_process_interrupt+0xb5>
    2455:	83 ec 0c             	sub    $0xc,%esp
    2458:	8b 03                	mov    (%ebx),%eax
    245a:	66 89 45 e4          	mov    %ax,-0x1c(%ebp)
    245e:	8d 45 e0             	lea    -0x20(%ebp),%eax
    2461:	6a 00                	push   $0x0
    2463:	6a 00                	push   $0x0
    2465:	6a 08                	push   $0x8
    2467:	50                   	push   %eax
    2468:	8b 43 04             	mov    0x4(%ebx),%eax
    246b:	c6 45 e0 23          	movb   $0x23,-0x20(%ebp)
    246f:	50                   	push   %eax
    2470:	c6 45 e1 03          	movb   $0x3,-0x1f(%ebp)
    2474:	66 c7 45 e2 08 00    	movw   $0x8,-0x1e(%ebp)
    247a:	66 c7 45 e6 00 00    	movw   $0x0,-0x1a(%ebp)
    2480:	e8 2b 1d 00 00       	call   41b0 <usb_pipe_control_write>
    2485:	83 c4 20             	add    $0x20,%esp
    2488:	85 c0                	test   %eax,%eax
    248a:	0f 84 f5 fc ff ff    	je     2185 <usb_hub_port_process_interrupt+0xb5>
    2490:	83 ec 0c             	sub    $0xc,%esp
    2493:	50                   	push   %eax
    2494:	e8 47 03 01 00       	call   127e0 <str_error@plt>
    2499:	8b 3b                	mov    (%ebx),%edi
    249b:	5a                   	pop    %edx
    249c:	59                   	pop    %ecx
    249d:	50                   	push   %eax
    249e:	57                   	push   %edi
    249f:	56                   	push   %esi
    24a0:	68 1c 00 01 00       	push   $0x1001c
    24a5:	6a 01                	push   $0x1
    24a7:	6a ff                	push   $0xffffffff
    24a9:	e8 92 00 01 00       	call   12540 <log_msg@plt>
    24ae:	83 c4 20             	add    $0x20,%esp
    24b1:	e9 cf fc ff ff       	jmp    2185 <usb_hub_port_process_interrupt+0xb5>
    24b6:	66 90                	xchg   %ax,%ax
    24b8:	83 ec 0c             	sub    $0xc,%esp
    24bb:	8d 7b 08             	lea    0x8(%ebx),%edi
    24be:	57                   	push   %edi
    24bf:	e8 3c 04 01 00       	call   12900 <fibril_mutex_lock@plt>
    24c4:	83 c4 10             	add    $0x10,%esp
    24c7:	f6 45 d4 02          	testb  $0x2,-0x2c(%ebp)
    24cb:	0f 85 ff 00 00 00    	jne    25d0 <usb_hub_port_process_interrupt+0x500>
    24d1:	83 ec 0c             	sub    $0xc,%esp
    24d4:	8b 03                	mov    (%ebx),%eax
    24d6:	c7 43 20 03 00 00 00 	movl   $0x3,0x20(%ebx)
    24dd:	50                   	push   %eax
    24de:	56                   	push   %esi
    24df:	68 6c 00 01 00       	push   $0x1006c
    24e4:	6a 02                	push   $0x2
    24e6:	6a ff                	push   $0xffffffff
    24e8:	e8 53 00 01 00       	call   12540 <log_msg@plt>
    24ed:	83 c4 20             	add    $0x20,%esp
    24f0:	83 ec 0c             	sub    $0xc,%esp
    24f3:	8d 43 18             	lea    0x18(%ebx),%eax
    24f6:	50                   	push   %eax
    24f7:	e8 24 01 01 00       	call   12620 <fibril_condvar_broadcast@plt>
    24fc:	89 3c 24             	mov    %edi,(%esp)
    24ff:	e8 3c 01 01 00       	call   12640 <fibril_mutex_unlock@plt>
    2504:	8b 03                	mov    (%ebx),%eax
    2506:	c7 04 24 00 00 00 00 	movl   $0x0,(%esp)
    250d:	66 89 45 e4          	mov    %ax,-0x1c(%ebp)
    2511:	6a 00                	push   $0x0
    2513:	8d 45 e0             	lea    -0x20(%ebp),%eax
    2516:	6a 08                	push   $0x8
    2518:	50                   	push   %eax
    2519:	8b 43 04             	mov    0x4(%ebx),%eax
    251c:	50                   	push   %eax
    251d:	c6 45 e0 23          	movb   $0x23,-0x20(%ebp)
    2521:	c6 45 e1 01          	movb   $0x1,-0x1f(%ebp)
    2525:	66 c7 45 e2 14 00    	movw   $0x14,-0x1e(%ebp)
    252b:	66 c7 45 e6 00 00    	movw   $0x0,-0x1a(%ebp)
    2531:	e8 7a 1c 00 00       	call   41b0 <usb_pipe_control_write>
    2536:	83 c4 20             	add    $0x20,%esp
    2539:	85 c0                	test   %eax,%eax
    253b:	0f 84 51 fc ff ff    	je     2192 <usb_hub_port_process_interrupt+0xc2>
    2541:	83 ec 0c             	sub    $0xc,%esp
    2544:	50                   	push   %eax
    2545:	e8 96 02 01 00       	call   127e0 <str_error@plt>
    254a:	8b 3b                	mov    (%ebx),%edi
    254c:	5a                   	pop    %edx
    254d:	59                   	pop    %ecx
    254e:	50                   	push   %eax
    254f:	57                   	push   %edi
    2550:	56                   	push   %esi
    2551:	68 a0 00 01 00       	push   $0x100a0
    2556:	6a 01                	push   $0x1
    2558:	6a ff                	push   $0xffffffff
    255a:	e8 e1 ff 00 00       	call   12540 <log_msg@plt>
    255f:	83 c4 20             	add    $0x20,%esp
    2562:	e9 2b fc ff ff       	jmp    2192 <usb_hub_port_process_interrupt+0xc2>
    2567:	90                   	nop
    2568:	b8 3f fc 00 00       	mov    $0xfc3f,%eax
    256d:	e9 54 fc ff ff       	jmp    21c6 <usb_hub_port_process_interrupt+0xf6>
    2572:	8d b6 00 00 00 00    	lea    0x0(%esi),%esi
    2578:	f7 45 d4 00 00 02 00 	testl  $0x20000,-0x2c(%ebp)
    257f:	0f 85 4b fd ff ff    	jne    22d0 <usb_hub_port_process_interrupt+0x200>
    2585:	83 ec 0c             	sub    $0xc,%esp
    2588:	8b 46 08             	mov    0x8(%esi),%eax
    258b:	50                   	push   %eax
    258c:	e8 0f 12 00 00       	call   37a0 <usb_device_bus_exchange_begin>
    2591:	83 c4 10             	add    $0x10,%esp
    2594:	89 c7                	mov    %eax,%edi
    2596:	85 c0                	test   %eax,%eax
    2598:	0f 84 cd fb ff ff    	je     216b <usb_hub_port_process_interrupt+0x9b>
    259e:	50                   	push   %eax
    259f:	50                   	push   %eax
    25a0:	8b 03                	mov    (%ebx),%eax
    25a2:	50                   	push   %eax
    25a3:	57                   	push   %edi
    25a4:	e8 77 b2 00 00       	call   d820 <usb_device_remove>
    25a9:	89 3c 24             	mov    %edi,(%esp)
    25ac:	89 45 d0             	mov    %eax,-0x30(%ebp)
    25af:	e8 1c 12 00 00       	call   37d0 <usb_device_bus_exchange_end>
    25b4:	8b 45 d0             	mov    -0x30(%ebp),%eax
    25b7:	83 c4 10             	add    $0x10,%esp
    25ba:	85 c0                	test   %eax,%eax
    25bc:	0f 85 a9 fb ff ff    	jne    216b <usb_hub_port_process_interrupt+0x9b>
    25c2:	c6 43 24 00          	movb   $0x0,0x24(%ebx)
    25c6:	e9 a0 fb ff ff       	jmp    216b <usb_hub_port_process_interrupt+0x9b>
    25cb:	90                   	nop
    25cc:	8d 74 26 00          	lea    0x0(%esi,%eiz,1),%esi
    25d0:	83 ec 0c             	sub    $0xc,%esp
    25d3:	8b 03                	mov    (%ebx),%eax
    25d5:	c7 43 20 02 00 00 00 	movl   $0x2,0x20(%ebx)
    25dc:	50                   	push   %eax
    25dd:	56                   	push   %esi
    25de:	68 4c 00 01 00       	push   $0x1004c
    25e3:	6a 04                	push   $0x4
    25e5:	6a ff                	push   $0xffffffff
    25e7:	e8 54 ff 00 00       	call   12540 <log_msg@plt>
    25ec:	83 c4 20             	add    $0x20,%esp
    25ef:	e9 fc fe ff ff       	jmp    24f0 <usb_hub_port_process_interrupt+0x420>
    25f4:	8d 74 26 00          	lea    0x0(%esi,%eiz,1),%esi
    25f8:	83 ec 0c             	sub    $0xc,%esp
    25fb:	50                   	push   %eax
    25fc:	e8 df 01 01 00       	call   127e0 <str_error@plt>
    2601:	8b 3b                	mov    (%ebx),%edi
    2603:	5a                   	pop    %edx
    2604:	59                   	pop    %ecx
    2605:	50                   	push   %eax
    2606:	57                   	push   %edi
    2607:	56                   	push   %esi
    2608:	68 e4 ff 00 00       	push   $0xffe4
    260d:	6a 01                	push   $0x1
    260f:	6a ff                	push   $0xffffffff
    2611:	e8 2a ff 00 00       	call   12540 <log_msg@plt>
    2616:	83 c4 20             	add    $0x20,%esp
    2619:	e9 2a fe ff ff       	jmp    2448 <usb_hub_port_process_interrupt+0x378>
    261e:	66 90                	xchg   %ax,%ax
    2620:	83 ec 0c             	sub    $0xc,%esp
    2623:	50                   	push   %eax
    2624:	e8 b7 01 01 00       	call   127e0 <str_error@plt>
    2629:	5a                   	pop    %edx
    262a:	59                   	pop    %ecx
    262b:	50                   	push   %eax
    262c:	8b 03                	mov    (%ebx),%eax
    262e:	50                   	push   %eax
    262f:	56                   	push   %esi
    2630:	68 a4 fe 00 00       	push   $0xfea4
    2635:	6a 02                	push   $0x2
    2637:	6a ff                	push   $0xffffffff
    2639:	e8 02 ff 00 00       	call   12540 <log_msg@plt>
    263e:	83 c4 20             	add    $0x20,%esp
    2641:	e9 d0 fb ff ff       	jmp    2216 <usb_hub_port_process_interrupt+0x146>
    2646:	83 ec 0c             	sub    $0xc,%esp
    2649:	57                   	push   %edi
    264a:	e8 91 02 01 00       	call   128e0 <free@plt>
    264f:	83 c4 10             	add    $0x10,%esp
    2652:	83 ec 0c             	sub    $0xc,%esp
    2655:	6a fe                	push   $0xfffffffe
    2657:	e8 84 01 01 00       	call   127e0 <str_error@plt>
    265c:	8b 3b                	mov    (%ebx),%edi
    265e:	5a                   	pop    %edx
    265f:	59                   	pop    %ecx
    2660:	50                   	push   %eax
    2661:	57                   	push   %edi
    2662:	56                   	push   %esi
    2663:	68 fc 00 01 00       	push   $0x100fc
    2668:	6a 01                	push   $0x1
    266a:	6a ff                	push   $0xffffffff
    266c:	e8 cf fe 00 00       	call   12540 <log_msg@plt>
    2671:	83 c4 20             	add    $0x20,%esp
    2674:	e9 e5 fa ff ff       	jmp    215e <usb_hub_port_process_interrupt+0x8e>
    2679:	50                   	push   %eax
    267a:	68 8c 00 00 00       	push   $0x8c
    267f:	68 d4 fb 00 00       	push   $0xfbd4
    2684:	68 81 f6 00 00       	push   $0xf681
    2689:	e8 12 ff 00 00       	call   125a0 <assert_abort@plt>
    268e:	50                   	push   %eax
    268f:	68 8d 00 00 00       	push   $0x8d
    2694:	68 d4 fb 00 00       	push   $0xfbd4
    2699:	68 44 f6 00 00       	push   $0xf644
    269e:	e8 fd fe 00 00       	call   125a0 <assert_abort@plt>
    26a3:	66 90                	xchg   %ax,%ax
    26a5:	66 90                	xchg   %ax,%ax
    26a7:	66 90                	xchg   %ax,%ax
    26a9:	66 90                	xchg   %ax,%ax
    26ab:	66 90                	xchg   %ax,%ax
    26ad:	66 90                	xchg   %ax,%ax
    26af:	90                   	nop

000026b0 <generic_device_add>:
    26b0:	55                   	push   %ebp
    26b1:	89 e5                	mov    %esp,%ebp
    26b3:	57                   	push   %edi
    26b4:	56                   	push   %esi
    26b5:	53                   	push   %ebx
    26b6:	83 ec 2c             	sub    $0x2c,%esp
    26b9:	a1 88 4a 01 00       	mov    0x14a88,%eax
    26be:	8b 75 08             	mov    0x8(%ebp),%esi
    26c1:	85 c0                	test   %eax,%eax
    26c3:	0f 84 d5 00 00 00    	je     279e <generic_device_add+0xee>
    26c9:	8b 50 08             	mov    0x8(%eax),%edx
    26cc:	85 d2                	test   %edx,%edx
    26ce:	0f 84 b8 00 00 00    	je     278c <generic_device_add+0xdc>
    26d4:	8b 12                	mov    (%edx),%edx
    26d6:	85 d2                	test   %edx,%edx
    26d8:	0f 84 9c 00 00 00    	je     277a <generic_device_add+0xca>
    26de:	53                   	push   %ebx
    26df:	8d 55 e4             	lea    -0x1c(%ebp),%edx
    26e2:	8b 78 04             	mov    0x4(%eax),%edi
    26e5:	52                   	push   %edx
    26e6:	c7 45 e4 00 00 00 00 	movl   $0x0,-0x1c(%ebp)
    26ed:	57                   	push   %edi
    26ee:	56                   	push   %esi
    26ef:	e8 dc 07 00 00       	call   2ed0 <usb_device_create_ddf>
    26f4:	83 c4 10             	add    $0x10,%esp
    26f7:	89 c3                	mov    %eax,%ebx
    26f9:	85 c0                	test   %eax,%eax
    26fb:	75 43                	jne    2740 <generic_device_add+0x90>
    26fd:	a1 88 4a 01 00       	mov    0x14a88,%eax
    2702:	83 ec 0c             	sub    $0xc,%esp
    2705:	8b 40 08             	mov    0x8(%eax),%eax
    2708:	8b 18                	mov    (%eax),%ebx
    270a:	56                   	push   %esi
    270b:	e8 70 44 00 00       	call   6b80 <ddf_dev_data_get>
    2710:	89 04 24             	mov    %eax,(%esp)
    2713:	ff d3                	call   *%ebx
    2715:	83 c4 10             	add    $0x10,%esp
    2718:	89 c3                	mov    %eax,%ebx
    271a:	85 c0                	test   %eax,%eax
    271c:	75 0a                	jne    2728 <generic_device_add+0x78>
    271e:	8d 65 f4             	lea    -0xc(%ebp),%esp
    2721:	89 d8                	mov    %ebx,%eax
    2723:	5b                   	pop    %ebx
    2724:	5e                   	pop    %esi
    2725:	5f                   	pop    %edi
    2726:	5d                   	pop    %ebp
    2727:	c3                   	ret    
    2728:	83 ec 0c             	sub    $0xc,%esp
    272b:	56                   	push   %esi
    272c:	e8 6f 0b 00 00       	call   32a0 <usb_device_destroy_ddf>
    2731:	83 c4 10             	add    $0x10,%esp
    2734:	8d 65 f4             	lea    -0xc(%ebp),%esp
    2737:	89 d8                	mov    %ebx,%eax
    2739:	5b                   	pop    %ebx
    273a:	5e                   	pop    %esi
    273b:	5f                   	pop    %edi
    273c:	5d                   	pop    %ebp
    273d:	c3                   	ret    
    273e:	66 90                	xchg   %ax,%ax
    2740:	83 ec 0c             	sub    $0xc,%esp
    2743:	50                   	push   %eax
    2744:	e8 97 00 01 00       	call   127e0 <str_error@plt>
    2749:	89 34 24             	mov    %esi,(%esp)
    274c:	8b 7d e4             	mov    -0x1c(%ebp),%edi
    274f:	89 45 d4             	mov    %eax,-0x2c(%ebp)
    2752:	e8 49 44 00 00       	call   6ba0 <ddf_dev_get_name>
    2757:	5a                   	pop    %edx
    2758:	8b 55 d4             	mov    -0x2c(%ebp),%edx
    275b:	59                   	pop    %ecx
    275c:	52                   	push   %edx
    275d:	57                   	push   %edi
    275e:	50                   	push   %eax
    275f:	68 6c 01 01 00       	push   $0x1016c
    2764:	6a 01                	push   $0x1
    2766:	6a ff                	push   $0xffffffff
    2768:	e8 d3 fd 00 00       	call   12540 <log_msg@plt>
    276d:	83 c4 20             	add    $0x20,%esp
    2770:	8d 65 f4             	lea    -0xc(%ebp),%esp
    2773:	89 d8                	mov    %ebx,%eax
    2775:	5b                   	pop    %ebx
    2776:	5e                   	pop    %esi
    2777:	5f                   	pop    %edi
    2778:	5d                   	pop    %ebp
    2779:	c3                   	ret    
    277a:	50                   	push   %eax
    277b:	6a 3a                	push   $0x3a
    277d:	68 28 01 01 00       	push   $0x10128
    2782:	68 48 01 01 00       	push   $0x10148
    2787:	e8 14 fe 00 00       	call   125a0 <assert_abort@plt>
    278c:	51                   	push   %ecx
    278d:	6a 39                	push   $0x39
    278f:	68 28 01 01 00       	push   $0x10128
    2794:	68 3c 01 01 00       	push   $0x1013c
    2799:	e8 02 fe 00 00       	call   125a0 <assert_abort@plt>
    279e:	53                   	push   %ebx
    279f:	6a 38                	push   $0x38
    27a1:	68 28 01 01 00       	push   $0x10128
    27a6:	68 35 01 01 00       	push   $0x10135
    27ab:	e8 f0 fd 00 00       	call   125a0 <assert_abort@plt>

000027b0 <generic_device_gone>:
    27b0:	55                   	push   %ebp
    27b1:	89 e5                	mov    %esp,%ebp
    27b3:	53                   	push   %ebx
    27b4:	83 ec 14             	sub    $0x14,%esp
    27b7:	a1 88 4a 01 00       	mov    0x14a88,%eax
    27bc:	8b 5d 08             	mov    0x8(%ebp),%ebx
    27bf:	85 c0                	test   %eax,%eax
    27c1:	74 5e                	je     2821 <generic_device_gone+0x71>
    27c3:	8b 40 08             	mov    0x8(%eax),%eax
    27c6:	85 c0                	test   %eax,%eax
    27c8:	74 45                	je     280f <generic_device_gone+0x5f>
    27ca:	8b 40 08             	mov    0x8(%eax),%eax
    27cd:	85 c0                	test   %eax,%eax
    27cf:	74 37                	je     2808 <generic_device_gone+0x58>
    27d1:	83 ec 0c             	sub    $0xc,%esp
    27d4:	53                   	push   %ebx
    27d5:	e8 a6 43 00 00       	call   6b80 <ddf_dev_data_get>
    27da:	8b 15 88 4a 01 00    	mov    0x14a88,%edx
    27e0:	8b 52 08             	mov    0x8(%edx),%edx
    27e3:	89 04 24             	mov    %eax,(%esp)
    27e6:	ff 52 08             	call   *0x8(%edx)
    27e9:	83 c4 10             	add    $0x10,%esp
    27ec:	85 c0                	test   %eax,%eax
    27ee:	75 12                	jne    2802 <generic_device_gone+0x52>
    27f0:	83 ec 0c             	sub    $0xc,%esp
    27f3:	89 45 f4             	mov    %eax,-0xc(%ebp)
    27f6:	53                   	push   %ebx
    27f7:	e8 a4 0a 00 00       	call   32a0 <usb_device_destroy_ddf>
    27fc:	83 c4 10             	add    $0x10,%esp
    27ff:	8b 45 f4             	mov    -0xc(%ebp),%eax
    2802:	8b 5d fc             	mov    -0x4(%ebp),%ebx
    2805:	c9                   	leave  
    2806:	c3                   	ret    
    2807:	90                   	nop
    2808:	b8 f5 ff ff ff       	mov    $0xfffffff5,%eax
    280d:	eb f3                	jmp    2802 <generic_device_gone+0x52>
    280f:	52                   	push   %edx
    2810:	6a 6c                	push   $0x6c
    2812:	68 28 01 01 00       	push   $0x10128
    2817:	68 3c 01 01 00       	push   $0x1013c
    281c:	e8 7f fd 00 00       	call   125a0 <assert_abort@plt>
    2821:	51                   	push   %ecx
    2822:	6a 6b                	push   $0x6b
    2824:	68 28 01 01 00       	push   $0x10128
    2829:	68 35 01 01 00       	push   $0x10135
    282e:	e8 6d fd 00 00       	call   125a0 <assert_abort@plt>
    2833:	8d b6 00 00 00 00    	lea    0x0(%esi),%esi
    2839:	8d bc 27 00 00 00 00 	lea    0x0(%edi,%eiz,1),%edi

00002840 <generic_device_remove>:
    2840:	55                   	push   %ebp
    2841:	89 e5                	mov    %esp,%ebp
    2843:	53                   	push   %ebx
    2844:	83 ec 14             	sub    $0x14,%esp
    2847:	a1 88 4a 01 00       	mov    0x14a88,%eax
    284c:	8b 5d 08             	mov    0x8(%ebp),%ebx
    284f:	85 c0                	test   %eax,%eax
    2851:	74 5e                	je     28b1 <generic_device_remove+0x71>
    2853:	8b 40 08             	mov    0x8(%eax),%eax
    2856:	85 c0                	test   %eax,%eax
    2858:	74 45                	je     289f <generic_device_remove+0x5f>
    285a:	8b 40 04             	mov    0x4(%eax),%eax
    285d:	85 c0                	test   %eax,%eax
    285f:	74 37                	je     2898 <generic_device_remove+0x58>
    2861:	83 ec 0c             	sub    $0xc,%esp
    2864:	53                   	push   %ebx
    2865:	e8 16 43 00 00       	call   6b80 <ddf_dev_data_get>
    286a:	8b 15 88 4a 01 00    	mov    0x14a88,%edx
    2870:	8b 52 08             	mov    0x8(%edx),%edx
    2873:	89 04 24             	mov    %eax,(%esp)
    2876:	ff 52 04             	call   *0x4(%edx)
    2879:	83 c4 10             	add    $0x10,%esp
    287c:	85 c0                	test   %eax,%eax
    287e:	75 12                	jne    2892 <generic_device_remove+0x52>
    2880:	83 ec 0c             	sub    $0xc,%esp
    2883:	89 45 f4             	mov    %eax,-0xc(%ebp)
    2886:	53                   	push   %ebx
    2887:	e8 14 0a 00 00       	call   32a0 <usb_device_destroy_ddf>
    288c:	83 c4 10             	add    $0x10,%esp
    288f:	8b 45 f4             	mov    -0xc(%ebp),%eax
    2892:	8b 5d fc             	mov    -0x4(%ebp),%ebx
    2895:	c9                   	leave  
    2896:	c3                   	ret    
    2897:	90                   	nop
    2898:	b8 f5 ff ff ff       	mov    $0xfffffff5,%eax
    289d:	eb f3                	jmp    2892 <generic_device_remove+0x52>
    289f:	52                   	push   %edx
    28a0:	6a 56                	push   $0x56
    28a2:	68 28 01 01 00       	push   $0x10128
    28a7:	68 3c 01 01 00       	push   $0x1013c
    28ac:	e8 ef fc 00 00       	call   125a0 <assert_abort@plt>
    28b1:	51                   	push   %ecx
    28b2:	6a 55                	push   $0x55
    28b4:	68 28 01 01 00       	push   $0x10128
    28b9:	68 35 01 01 00       	push   $0x10135
    28be:	e8 dd fc 00 00       	call   125a0 <assert_abort@plt>
    28c3:	8d b6 00 00 00 00    	lea    0x0(%esi),%esi
    28c9:	8d bc 27 00 00 00 00 	lea    0x0(%edi,%eiz,1),%edi

000028d0 <usb_driver_main>:
    28d0:	55                   	push   %ebp
    28d1:	89 e5                	mov    %esp,%ebp
    28d3:	83 ec 08             	sub    $0x8,%esp
    28d6:	8b 45 08             	mov    0x8(%ebp),%eax
    28d9:	85 c0                	test   %eax,%eax
    28db:	74 1a                	je     28f7 <usb_driver_main+0x27>
    28dd:	8b 10                	mov    (%eax),%edx
    28df:	a3 88 4a 01 00       	mov    %eax,0x14a88
    28e4:	89 15 bc 48 01 00    	mov    %edx,0x148bc
    28ea:	c7 45 08 bc 48 01 00 	movl   $0x148bc,0x8(%ebp)
    28f1:	c9                   	leave  
    28f2:	e9 d9 49 00 00       	jmp    72d0 <ddf_driver_main>
    28f7:	50                   	push   %eax
    28f8:	68 8a 00 00 00       	push   $0x8a
    28fd:	68 28 01 01 00       	push   $0x10128
    2902:	68 60 01 01 00       	push   $0x10160
    2907:	e8 94 fc 00 00       	call   125a0 <assert_abort@plt>
    290c:	66 90                	xchg   %ax,%ax
    290e:	66 90                	xchg   %ax,%ax

00002910 <usb_device_create_pipes>:
    2910:	55                   	push   %ebp
    2911:	89 e5                	mov    %esp,%ebp
    2913:	57                   	push   %edi
    2914:	56                   	push   %esi
    2915:	53                   	push   %ebx
    2916:	83 ec 1c             	sub    $0x1c,%esp
    2919:	8b 45 08             	mov    0x8(%ebp),%eax
    291c:	8b 55 0c             	mov    0xc(%ebp),%edx
    291f:	85 c0                	test   %eax,%eax
    2921:	0f 84 92 01 00 00    	je     2ab9 <usb_device_create_pipes+0x1a9>
    2927:	8b 45 08             	mov    0x8(%ebp),%eax
    292a:	8b 70 50             	mov    0x50(%eax),%esi
    292d:	85 f6                	test   %esi,%esi
    292f:	0f 84 6f 01 00 00    	je     2aa4 <usb_device_create_pipes+0x194>
    2935:	8b 48 24             	mov    0x24(%eax),%ecx
    2938:	85 c9                	test   %ecx,%ecx
    293a:	0f 85 a3 01 00 00    	jne    2ae3 <usb_device_create_pipes+0x1d3>
    2940:	8b 58 28             	mov    0x28(%eax),%ebx
    2943:	85 db                	test   %ebx,%ebx
    2945:	0f 85 83 01 00 00    	jne    2ace <usb_device_create_pipes+0x1be>
    294b:	85 d2                	test   %edx,%edx
    294d:	0f 84 0c 01 00 00    	je     2a5f <usb_device_create_pipes+0x14f>
    2953:	8b 02                	mov    (%edx),%eax
    2955:	85 c0                	test   %eax,%eax
    2957:	0f 84 02 01 00 00    	je     2a5f <usb_device_create_pipes+0x14f>
    295d:	8d 76 00             	lea    0x0(%esi),%esi
    2960:	43                   	inc    %ebx
    2961:	8b 04 9a             	mov    (%edx,%ebx,4),%eax
    2964:	85 c0                	test   %eax,%eax
    2966:	75 f8                	jne    2960 <usb_device_create_pipes+0x50>
    2968:	89 55 e0             	mov    %edx,-0x20(%ebp)
    296b:	50                   	push   %eax
    296c:	50                   	push   %eax
    296d:	6a 34                	push   $0x34
    296f:	53                   	push   %ebx
    2970:	e8 4b fc 00 00       	call   125c0 <calloc@plt>
    2975:	83 c4 10             	add    $0x10,%esp
    2978:	89 c1                	mov    %eax,%ecx
    297a:	89 45 e4             	mov    %eax,-0x1c(%ebp)
    297d:	85 c0                	test   %eax,%eax
    297f:	0f 84 13 01 00 00    	je     2a98 <usb_device_create_pipes+0x188>
    2985:	8b 45 08             	mov    0x8(%ebp),%eax
    2988:	8b 55 e0             	mov    -0x20(%ebp),%edx
    298b:	89 5d e0             	mov    %ebx,-0x20(%ebp)
    298e:	8b 78 2c             	mov    0x2c(%eax),%edi
    2991:	8b 70 38             	mov    0x38(%eax),%esi
    2994:	89 d0                	mov    %edx,%eax
    2996:	8d 51 1c             	lea    0x1c(%ecx),%edx
    2999:	8d 0c 98             	lea    (%eax,%ebx,4),%ecx
    299c:	8d 74 26 00          	lea    0x0(%esi,%eiz,1),%esi
    29a0:	8b 18                	mov    (%eax),%ebx
    29a2:	83 c0 04             	add    $0x4,%eax
    29a5:	89 1a                	mov    %ebx,(%edx)
    29a7:	89 7a 04             	mov    %edi,0x4(%edx)
    29aa:	89 72 08             	mov    %esi,0x8(%edx)
    29ad:	83 c2 34             	add    $0x34,%edx
    29b0:	39 c1                	cmp    %eax,%ecx
    29b2:	75 ec                	jne    29a0 <usb_device_create_pipes+0x90>
    29b4:	8b 45 08             	mov    0x8(%ebp),%eax
    29b7:	83 ec 0c             	sub    $0xc,%esp
    29ba:	8b 5d e0             	mov    -0x20(%ebp),%ebx
    29bd:	8b 30                	mov    (%eax),%esi
    29bf:	8b 78 54             	mov    0x54(%eax),%edi
    29c2:	56                   	push   %esi
    29c3:	57                   	push   %edi
    29c4:	8b 40 50             	mov    0x50(%eax),%eax
    29c7:	50                   	push   %eax
    29c8:	8b 45 e4             	mov    -0x1c(%ebp),%eax
    29cb:	53                   	push   %ebx
    29cc:	50                   	push   %eax
    29cd:	e8 5e 1c 00 00       	call   4630 <usb_pipe_initialize_from_configuration>
    29d2:	83 c4 20             	add    $0x20,%esp
    29d5:	89 45 e0             	mov    %eax,-0x20(%ebp)
    29d8:	85 c0                	test   %eax,%eax
    29da:	0f 85 8b 00 00 00    	jne    2a6b <usb_device_create_pipes+0x15b>
    29e0:	8d 04 5b             	lea    (%ebx,%ebx,2),%eax
    29e3:	8b 7d e4             	mov    -0x1c(%ebp),%edi
    29e6:	89 7d dc             	mov    %edi,-0x24(%ebp)
    29e9:	8d 04 83             	lea    (%ebx,%eax,4),%eax
    29ec:	8d 34 87             	lea    (%edi,%eax,4),%esi
    29ef:	eb 0e                	jmp    29ff <usb_device_create_pipes+0xef>
    29f1:	8d b4 26 00 00 00 00 	lea    0x0(%esi,%eiz,1),%esi
    29f8:	83 c7 34             	add    $0x34,%edi
    29fb:	39 fe                	cmp    %edi,%esi
    29fd:	74 49                	je     2a48 <usb_device_create_pipes+0x138>
    29ff:	80 7f 30 00          	cmpb   $0x0,0x30(%edi)
    2a03:	74 f3                	je     29f8 <usb_device_create_pipes+0xe8>
    2a05:	52                   	push   %edx
    2a06:	52                   	push   %edx
    2a07:	8b 47 28             	mov    0x28(%edi),%eax
    2a0a:	8a 48 06             	mov    0x6(%eax),%cl
    2a0d:	81 e1 ff 00 00 00    	and    $0xff,%ecx
    2a13:	51                   	push   %ecx
    2a14:	57                   	push   %edi
    2a15:	e8 e6 1a 00 00       	call   4500 <usb_pipe_register>
    2a1a:	83 c4 10             	add    $0x10,%esp
    2a1d:	85 c0                	test   %eax,%eax
    2a1f:	74 d7                	je     29f8 <usb_device_create_pipes+0xe8>
    2a21:	89 c7                	mov    %eax,%edi
    2a23:	8b 5d dc             	mov    -0x24(%ebp),%ebx
    2a26:	eb 07                	jmp    2a2f <usb_device_create_pipes+0x11f>
    2a28:	83 c3 34             	add    $0x34,%ebx
    2a2b:	39 de                	cmp    %ebx,%esi
    2a2d:	74 50                	je     2a7f <usb_device_create_pipes+0x16f>
    2a2f:	80 7b 30 00          	cmpb   $0x0,0x30(%ebx)
    2a33:	74 f3                	je     2a28 <usb_device_create_pipes+0x118>
    2a35:	83 ec 0c             	sub    $0xc,%esp
    2a38:	53                   	push   %ebx
    2a39:	e8 62 1b 00 00       	call   45a0 <usb_pipe_unregister>
    2a3e:	83 c4 10             	add    $0x10,%esp
    2a41:	eb e5                	jmp    2a28 <usb_device_create_pipes+0x118>
    2a43:	90                   	nop
    2a44:	8d 74 26 00          	lea    0x0(%esi,%eiz,1),%esi
    2a48:	8b 45 08             	mov    0x8(%ebp),%eax
    2a4b:	8b 75 e4             	mov    -0x1c(%ebp),%esi
    2a4e:	89 70 24             	mov    %esi,0x24(%eax)
    2a51:	89 58 28             	mov    %ebx,0x28(%eax)
    2a54:	8b 45 e0             	mov    -0x20(%ebp),%eax
    2a57:	8d 65 f4             	lea    -0xc(%ebp),%esp
    2a5a:	5b                   	pop    %ebx
    2a5b:	5e                   	pop    %esi
    2a5c:	5f                   	pop    %edi
    2a5d:	5d                   	pop    %ebp
    2a5e:	c3                   	ret    
    2a5f:	c7 45 e0 00 00 00 00 	movl   $0x0,-0x20(%ebp)
    2a66:	8b 45 e0             	mov    -0x20(%ebp),%eax
    2a69:	eb ec                	jmp    2a57 <usb_device_create_pipes+0x147>
    2a6b:	83 ec 0c             	sub    $0xc,%esp
    2a6e:	8b 4d e4             	mov    -0x1c(%ebp),%ecx
    2a71:	51                   	push   %ecx
    2a72:	e8 69 fe 00 00       	call   128e0 <free@plt>
    2a77:	83 c4 10             	add    $0x10,%esp
    2a7a:	8b 45 e0             	mov    -0x20(%ebp),%eax
    2a7d:	eb d8                	jmp    2a57 <usb_device_create_pipes+0x147>
    2a7f:	83 ec 0c             	sub    $0xc,%esp
    2a82:	8b 45 e4             	mov    -0x1c(%ebp),%eax
    2a85:	89 7d e0             	mov    %edi,-0x20(%ebp)
    2a88:	50                   	push   %eax
    2a89:	e8 52 fe 00 00       	call   128e0 <free@plt>
    2a8e:	8b 55 e0             	mov    -0x20(%ebp),%edx
    2a91:	83 c4 10             	add    $0x10,%esp
    2a94:	89 d0                	mov    %edx,%eax
    2a96:	eb bf                	jmp    2a57 <usb_device_create_pipes+0x147>
    2a98:	c7 45 e0 fe ff ff ff 	movl   $0xfffffffe,-0x20(%ebp)
    2a9f:	8b 45 e0             	mov    -0x20(%ebp),%eax
    2aa2:	eb b3                	jmp    2a57 <usb_device_create_pipes+0x147>
    2aa4:	53                   	push   %ebx
    2aa5:	68 df 00 00 00       	push   $0xdf
    2aaa:	68 93 01 01 00       	push   $0x10193
    2aaf:	68 54 02 01 00       	push   $0x10254
    2ab4:	e8 e7 fa 00 00       	call   125a0 <assert_abort@plt>
    2ab9:	57                   	push   %edi
    2aba:	68 de 00 00 00       	push   $0xde
    2abf:	68 93 01 01 00       	push   $0x10193
    2ac4:	68 8d f6 00 00       	push   $0xf68d
    2ac9:	e8 d2 fa 00 00       	call   125a0 <assert_abort@plt>
    2ace:	50                   	push   %eax
    2acf:	68 e1 00 00 00       	push   $0xe1
    2ad4:	68 93 01 01 00       	push   $0x10193
    2ad9:	68 b7 01 01 00       	push   $0x101b7
    2ade:	e8 bd fa 00 00       	call   125a0 <assert_abort@plt>
    2ae3:	52                   	push   %edx
    2ae4:	68 e0 00 00 00       	push   $0xe0
    2ae9:	68 93 01 01 00       	push   $0x10193
    2aee:	68 a0 01 01 00       	push   $0x101a0
    2af3:	e8 a8 fa 00 00       	call   125a0 <assert_abort@plt>
    2af8:	90                   	nop
    2af9:	8d b4 26 00 00 00 00 	lea    0x0(%esi,%eiz,1),%esi

00002b00 <usb_device_select_interface>:
    2b00:	55                   	push   %ebp
    2b01:	89 e5                	mov    %esp,%ebp
    2b03:	57                   	push   %edi
    2b04:	56                   	push   %esi
    2b05:	53                   	push   %ebx
    2b06:	83 ec 1c             	sub    $0x1c,%esp
    2b09:	8b 75 08             	mov    0x8(%ebp),%esi
    2b0c:	8b 45 10             	mov    0x10(%ebp),%eax
    2b0f:	8b 5d 0c             	mov    0xc(%ebp),%ebx
    2b12:	89 45 e4             	mov    %eax,-0x1c(%ebp)
    2b15:	85 f6                	test   %esi,%esi
    2b17:	0f 84 05 01 00 00    	je     2c22 <usb_device_select_interface+0x122>
    2b1d:	8b 46 2c             	mov    0x2c(%esi),%eax
    2b20:	85 c0                	test   %eax,%eax
    2b22:	0f 88 f0 00 00 00    	js     2c18 <usb_device_select_interface+0x118>
    2b28:	25 ff 00 00 00       	and    $0xff,%eax
    2b2d:	81 e3 ff 00 00 00    	and    $0xff,%ebx
    2b33:	57                   	push   %edi
    2b34:	53                   	push   %ebx
    2b35:	50                   	push   %eax
    2b36:	8d 46 08             	lea    0x8(%esi),%eax
    2b39:	50                   	push   %eax
    2b3a:	e8 91 27 00 00       	call   52d0 <usb_request_set_interface>
    2b3f:	83 c4 10             	add    $0x10,%esp
    2b42:	85 c0                	test   %eax,%eax
    2b44:	74 0a                	je     2b50 <usb_device_select_interface+0x50>
    2b46:	8d 65 f4             	lea    -0xc(%ebp),%esp
    2b49:	5b                   	pop    %ebx
    2b4a:	5e                   	pop    %esi
    2b4b:	5f                   	pop    %edi
    2b4c:	5d                   	pop    %ebp
    2b4d:	c3                   	ret    
    2b4e:	66 90                	xchg   %ax,%ax
    2b50:	8b 46 24             	mov    0x24(%esi),%eax
    2b53:	89 5e 38             	mov    %ebx,0x38(%esi)
    2b56:	85 c0                	test   %eax,%eax
    2b58:	0f 84 9a 00 00 00    	je     2bf8 <usb_device_select_interface+0xf8>
    2b5e:	8b 4e 28             	mov    0x28(%esi),%ecx
    2b61:	85 c9                	test   %ecx,%ecx
    2b63:	74 61                	je     2bc6 <usb_device_select_interface+0xc6>
    2b65:	31 ff                	xor    %edi,%edi
    2b67:	eb 0d                	jmp    2b76 <usb_device_select_interface+0x76>
    2b69:	8d b4 26 00 00 00 00 	lea    0x0(%esi,%eiz,1),%esi
    2b70:	47                   	inc    %edi
    2b71:	3b 7e 28             	cmp    0x28(%esi),%edi
    2b74:	73 50                	jae    2bc6 <usb_device_select_interface+0xc6>
    2b76:	8d 0c 7f             	lea    (%edi,%edi,2),%ecx
    2b79:	8d 1c 8f             	lea    (%edi,%ecx,4),%ebx
    2b7c:	b9 d1 01 01 00       	mov    $0x101d1,%ecx
    2b81:	c1 e3 02             	shl    $0x2,%ebx
    2b84:	80 7c 18 30 00       	cmpb   $0x0,0x30(%eax,%ebx,1)
    2b89:	74 05                	je     2b90 <usb_device_select_interface+0x90>
    2b8b:	b9 26 20 01 00       	mov    $0x12026,%ecx
    2b90:	83 ec 0c             	sub    $0xc,%esp
    2b93:	51                   	push   %ecx
    2b94:	57                   	push   %edi
    2b95:	68 a4 02 01 00       	push   $0x102a4
    2b9a:	6a 05                	push   $0x5
    2b9c:	6a ff                	push   $0xffffffff
    2b9e:	e8 9d f9 00 00       	call   12540 <log_msg@plt>
    2ba3:	8b 46 24             	mov    0x24(%esi),%eax
    2ba6:	83 c4 20             	add    $0x20,%esp
    2ba9:	01 c3                	add    %eax,%ebx
    2bab:	80 7b 30 00          	cmpb   $0x0,0x30(%ebx)
    2baf:	74 bf                	je     2b70 <usb_device_select_interface+0x70>
    2bb1:	83 ec 0c             	sub    $0xc,%esp
    2bb4:	47                   	inc    %edi
    2bb5:	53                   	push   %ebx
    2bb6:	e8 e5 19 00 00       	call   45a0 <usb_pipe_unregister>
    2bbb:	83 c4 10             	add    $0x10,%esp
    2bbe:	8b 46 24             	mov    0x24(%esi),%eax
    2bc1:	3b 7e 28             	cmp    0x28(%esi),%edi
    2bc4:	72 b0                	jb     2b76 <usb_device_select_interface+0x76>
    2bc6:	83 ec 0c             	sub    $0xc,%esp
    2bc9:	50                   	push   %eax
    2bca:	e8 11 fd 00 00       	call   128e0 <free@plt>
    2bcf:	8b 45 e4             	mov    -0x1c(%ebp),%eax
    2bd2:	c7 46 24 00 00 00 00 	movl   $0x0,0x24(%esi)
    2bd9:	c7 46 28 00 00 00 00 	movl   $0x0,0x28(%esi)
    2be0:	83 c4 10             	add    $0x10,%esp
    2be3:	89 75 08             	mov    %esi,0x8(%ebp)
    2be6:	89 45 0c             	mov    %eax,0xc(%ebp)
    2be9:	8d 65 f4             	lea    -0xc(%ebp),%esp
    2bec:	5b                   	pop    %ebx
    2bed:	5e                   	pop    %esi
    2bee:	5f                   	pop    %edi
    2bef:	5d                   	pop    %ebp
    2bf0:	e9 1b fd ff ff       	jmp    2910 <usb_device_create_pipes>
    2bf5:	8d 76 00             	lea    0x0(%esi),%esi
    2bf8:	8b 56 28             	mov    0x28(%esi),%edx
    2bfb:	85 d2                	test   %edx,%edx
    2bfd:	74 c7                	je     2bc6 <usb_device_select_interface+0xc6>
    2bff:	50                   	push   %eax
    2c00:	68 29 01 00 00       	push   $0x129
    2c05:	68 93 01 01 00       	push   $0x10193
    2c0a:	68 78 02 01 00       	push   $0x10278
    2c0f:	e8 8c f9 00 00       	call   125a0 <assert_abort@plt>
    2c14:	8d 74 26 00          	lea    0x0(%esi,%eiz,1),%esi
    2c18:	b8 f2 ff ff ff       	mov    $0xfffffff2,%eax
    2c1d:	e9 24 ff ff ff       	jmp    2b46 <usb_device_select_interface+0x46>
    2c22:	50                   	push   %eax
    2c23:	68 88 00 00 00       	push   $0x88
    2c28:	68 93 01 01 00       	push   $0x10193
    2c2d:	68 8d f6 00 00       	push   $0xf68d
    2c32:	e8 69 f9 00 00       	call   125a0 <assert_abort@plt>
    2c37:	89 f6                	mov    %esi,%esi
    2c39:	8d bc 27 00 00 00 00 	lea    0x0(%edi,%eiz,1),%edi

00002c40 <usb_device_destroy_pipes>:
    2c40:	55                   	push   %ebp
    2c41:	89 e5                	mov    %esp,%ebp
    2c43:	57                   	push   %edi
    2c44:	56                   	push   %esi
    2c45:	53                   	push   %ebx
    2c46:	83 ec 0c             	sub    $0xc,%esp
    2c49:	8b 75 08             	mov    0x8(%ebp),%esi
    2c4c:	85 f6                	test   %esi,%esi
    2c4e:	0f 84 b0 00 00 00    	je     2d04 <usb_device_destroy_pipes+0xc4>
    2c54:	8b 46 24             	mov    0x24(%esi),%eax
    2c57:	85 c0                	test   %eax,%eax
    2c59:	0f 84 89 00 00 00    	je     2ce8 <usb_device_destroy_pipes+0xa8>
    2c5f:	8b 56 28             	mov    0x28(%esi),%edx
    2c62:	85 d2                	test   %edx,%edx
    2c64:	74 60                	je     2cc6 <usb_device_destroy_pipes+0x86>
    2c66:	31 ff                	xor    %edi,%edi
    2c68:	eb 0c                	jmp    2c76 <usb_device_destroy_pipes+0x36>
    2c6a:	8d b6 00 00 00 00    	lea    0x0(%esi),%esi
    2c70:	47                   	inc    %edi
    2c71:	39 7e 28             	cmp    %edi,0x28(%esi)
    2c74:	76 50                	jbe    2cc6 <usb_device_destroy_pipes+0x86>
    2c76:	8d 14 7f             	lea    (%edi,%edi,2),%edx
    2c79:	8d 1c 97             	lea    (%edi,%edx,4),%ebx
    2c7c:	ba d1 01 01 00       	mov    $0x101d1,%edx
    2c81:	c1 e3 02             	shl    $0x2,%ebx
    2c84:	80 7c 18 30 00       	cmpb   $0x0,0x30(%eax,%ebx,1)
    2c89:	74 05                	je     2c90 <usb_device_destroy_pipes+0x50>
    2c8b:	ba 26 20 01 00       	mov    $0x12026,%edx
    2c90:	83 ec 0c             	sub    $0xc,%esp
    2c93:	52                   	push   %edx
    2c94:	57                   	push   %edi
    2c95:	68 a4 02 01 00       	push   $0x102a4
    2c9a:	6a 05                	push   $0x5
    2c9c:	6a ff                	push   $0xffffffff
    2c9e:	e8 9d f8 00 00       	call   12540 <log_msg@plt>
    2ca3:	8b 46 24             	mov    0x24(%esi),%eax
    2ca6:	83 c4 20             	add    $0x20,%esp
    2ca9:	01 c3                	add    %eax,%ebx
    2cab:	80 7b 30 00          	cmpb   $0x0,0x30(%ebx)
    2caf:	74 bf                	je     2c70 <usb_device_destroy_pipes+0x30>
    2cb1:	83 ec 0c             	sub    $0xc,%esp
    2cb4:	47                   	inc    %edi
    2cb5:	53                   	push   %ebx
    2cb6:	e8 e5 18 00 00       	call   45a0 <usb_pipe_unregister>
    2cbb:	83 c4 10             	add    $0x10,%esp
    2cbe:	8b 46 24             	mov    0x24(%esi),%eax
    2cc1:	39 7e 28             	cmp    %edi,0x28(%esi)
    2cc4:	77 b0                	ja     2c76 <usb_device_destroy_pipes+0x36>
    2cc6:	83 ec 0c             	sub    $0xc,%esp
    2cc9:	50                   	push   %eax
    2cca:	e8 11 fc 00 00       	call   128e0 <free@plt>
    2ccf:	c7 46 24 00 00 00 00 	movl   $0x0,0x24(%esi)
    2cd6:	c7 46 28 00 00 00 00 	movl   $0x0,0x28(%esi)
    2cdd:	83 c4 10             	add    $0x10,%esp
    2ce0:	8d 65 f4             	lea    -0xc(%ebp),%esp
    2ce3:	5b                   	pop    %ebx
    2ce4:	5e                   	pop    %esi
    2ce5:	5f                   	pop    %edi
    2ce6:	5d                   	pop    %ebp
    2ce7:	c3                   	ret    
    2ce8:	8b 4e 28             	mov    0x28(%esi),%ecx
    2ceb:	85 c9                	test   %ecx,%ecx
    2ced:	74 d7                	je     2cc6 <usb_device_destroy_pipes+0x86>
    2cef:	50                   	push   %eax
    2cf0:	68 29 01 00 00       	push   $0x129
    2cf5:	68 93 01 01 00       	push   $0x10193
    2cfa:	68 78 02 01 00       	push   $0x10278
    2cff:	e8 9c f8 00 00       	call   125a0 <assert_abort@plt>
    2d04:	53                   	push   %ebx
    2d05:	68 28 01 00 00       	push   $0x128
    2d0a:	68 93 01 01 00       	push   $0x10193
    2d0f:	68 8d f6 00 00       	push   $0xf68d
    2d14:	e8 87 f8 00 00       	call   125a0 <assert_abort@plt>
    2d19:	8d b4 26 00 00 00 00 	lea    0x0(%esi,%eiz,1),%esi

00002d20 <usb_device_get_default_pipe>:
    2d20:	55                   	push   %ebp
    2d21:	89 e5                	mov    %esp,%ebp
    2d23:	83 ec 08             	sub    $0x8,%esp
    2d26:	8b 45 08             	mov    0x8(%ebp),%eax
    2d29:	85 c0                	test   %eax,%eax
    2d2b:	74 05                	je     2d32 <usb_device_get_default_pipe+0x12>
    2d2d:	83 c0 08             	add    $0x8,%eax
    2d30:	c9                   	leave  
    2d31:	c3                   	ret    
    2d32:	50                   	push   %eax
    2d33:	68 3a 01 00 00       	push   $0x13a
    2d38:	68 93 01 01 00       	push   $0x10193
    2d3d:	68 8d f6 00 00       	push   $0xf68d
    2d42:	e8 59 f8 00 00       	call   125a0 <assert_abort@plt>
    2d47:	89 f6                	mov    %esi,%esi
    2d49:	8d bc 27 00 00 00 00 	lea    0x0(%edi,%eiz,1),%edi

00002d50 <usb_device_get_mapped_ep_desc>:
    2d50:	55                   	push   %ebp
    2d51:	89 e5                	mov    %esp,%ebp
    2d53:	56                   	push   %esi
    2d54:	53                   	push   %ebx
    2d55:	8b 45 08             	mov    0x8(%ebp),%eax
    2d58:	8b 75 0c             	mov    0xc(%ebp),%esi
    2d5b:	85 c0                	test   %eax,%eax
    2d5d:	74 31                	je     2d90 <usb_device_get_mapped_ep_desc+0x40>
    2d5f:	8b 58 28             	mov    0x28(%eax),%ebx
    2d62:	85 db                	test   %ebx,%ebx
    2d64:	74 21                	je     2d87 <usb_device_get_mapped_ep_desc+0x37>
    2d66:	8b 40 24             	mov    0x24(%eax),%eax
    2d69:	3b 70 1c             	cmp    0x1c(%eax),%esi
    2d6c:	74 1b                	je     2d89 <usb_device_get_mapped_ep_desc+0x39>
    2d6e:	8d 50 34             	lea    0x34(%eax),%edx
    2d71:	31 c9                	xor    %ecx,%ecx
    2d73:	eb 0d                	jmp    2d82 <usb_device_get_mapped_ep_desc+0x32>
    2d75:	8d 76 00             	lea    0x0(%esi),%esi
    2d78:	89 d0                	mov    %edx,%eax
    2d7a:	83 c2 34             	add    $0x34,%edx
    2d7d:	39 72 e8             	cmp    %esi,-0x18(%edx)
    2d80:	74 07                	je     2d89 <usb_device_get_mapped_ep_desc+0x39>
    2d82:	41                   	inc    %ecx
    2d83:	39 d9                	cmp    %ebx,%ecx
    2d85:	75 f1                	jne    2d78 <usb_device_get_mapped_ep_desc+0x28>
    2d87:	31 c0                	xor    %eax,%eax
    2d89:	8d 65 f8             	lea    -0x8(%ebp),%esp
    2d8c:	5b                   	pop    %ebx
    2d8d:	5e                   	pop    %esi
    2d8e:	5d                   	pop    %ebp
    2d8f:	c3                   	ret    
    2d90:	50                   	push   %eax
    2d91:	68 41 01 00 00       	push   $0x141
    2d96:	68 93 01 01 00       	push   $0x10193
    2d9b:	68 8d f6 00 00       	push   $0xf68d
    2da0:	e8 fb f7 00 00       	call   125a0 <assert_abort@plt>
    2da5:	8d 74 26 00          	lea    0x0(%esi,%eiz,1),%esi
    2da9:	8d bc 27 00 00 00 00 	lea    0x0(%edi,%eiz,1),%edi

00002db0 <usb_device_get_mapped_ep>:
    2db0:	55                   	push   %ebp
    2db1:	89 e5                	mov    %esp,%ebp
    2db3:	56                   	push   %esi
    2db4:	53                   	push   %ebx
    2db5:	8b 45 08             	mov    0x8(%ebp),%eax
    2db8:	8b 55 0c             	mov    0xc(%ebp),%edx
    2dbb:	85 c0                	test   %eax,%eax
    2dbd:	74 32                	je     2df1 <usb_device_get_mapped_ep+0x41>
    2dbf:	8b 58 28             	mov    0x28(%eax),%ebx
    2dc2:	85 db                	test   %ebx,%ebx
    2dc4:	74 22                	je     2de8 <usb_device_get_mapped_ep+0x38>
    2dc6:	8b 40 24             	mov    0x24(%eax),%eax
    2dc9:	66 3b 10             	cmp    (%eax),%dx
    2dcc:	74 1c                	je     2dea <usb_device_get_mapped_ep+0x3a>
    2dce:	89 d6                	mov    %edx,%esi
    2dd0:	31 c9                	xor    %ecx,%ecx
    2dd2:	8d 50 34             	lea    0x34(%eax),%edx
    2dd5:	eb 0c                	jmp    2de3 <usb_device_get_mapped_ep+0x33>
    2dd7:	90                   	nop
    2dd8:	89 d0                	mov    %edx,%eax
    2dda:	83 c2 34             	add    $0x34,%edx
    2ddd:	66 39 72 cc          	cmp    %si,-0x34(%edx)
    2de1:	74 07                	je     2dea <usb_device_get_mapped_ep+0x3a>
    2de3:	41                   	inc    %ecx
    2de4:	39 d9                	cmp    %ebx,%ecx
    2de6:	75 f0                	jne    2dd8 <usb_device_get_mapped_ep+0x28>
    2de8:	31 c0                	xor    %eax,%eax
    2dea:	8d 65 f8             	lea    -0x8(%ebp),%esp
    2ded:	5b                   	pop    %ebx
    2dee:	5e                   	pop    %esi
    2def:	5d                   	pop    %ebp
    2df0:	c3                   	ret    
    2df1:	50                   	push   %eax
    2df2:	68 4c 01 00 00       	push   $0x14c
    2df7:	68 93 01 01 00       	push   $0x10193
    2dfc:	68 8d f6 00 00       	push   $0xf68d
    2e01:	e8 9a f7 00 00       	call   125a0 <assert_abort@plt>
    2e06:	8d 76 00             	lea    0x0(%esi),%esi
    2e09:	8d bc 27 00 00 00 00 	lea    0x0(%edi,%eiz,1),%edi

00002e10 <usb_device_get_iface_number>:
    2e10:	55                   	push   %ebp
    2e11:	89 e5                	mov    %esp,%ebp
    2e13:	83 ec 08             	sub    $0x8,%esp
    2e16:	8b 45 08             	mov    0x8(%ebp),%eax
    2e19:	85 c0                	test   %eax,%eax
    2e1b:	74 05                	je     2e22 <usb_device_get_iface_number+0x12>
    2e1d:	8b 40 2c             	mov    0x2c(%eax),%eax
    2e20:	c9                   	leave  
    2e21:	c3                   	ret    
    2e22:	50                   	push   %eax
    2e23:	68 56 01 00 00       	push   $0x156
    2e28:	68 93 01 01 00       	push   $0x10193
    2e2d:	68 8d f6 00 00       	push   $0xf68d
    2e32:	e8 69 f7 00 00       	call   125a0 <assert_abort@plt>
    2e37:	89 f6                	mov    %esi,%esi
    2e39:	8d bc 27 00 00 00 00 	lea    0x0(%edi,%eiz,1),%edi

00002e40 <usb_device_get_devman_handle>:
    2e40:	55                   	push   %ebp
    2e41:	89 e5                	mov    %esp,%ebp
    2e43:	83 ec 08             	sub    $0x8,%esp
    2e46:	8b 45 08             	mov    0x8(%ebp),%eax
    2e49:	85 c0                	test   %eax,%eax
    2e4b:	74 05                	je     2e52 <usb_device_get_devman_handle+0x12>
    2e4d:	8b 40 04             	mov    0x4(%eax),%eax
    2e50:	c9                   	leave  
    2e51:	c3                   	ret    
    2e52:	50                   	push   %eax
    2e53:	68 5c 01 00 00       	push   $0x15c
    2e58:	68 93 01 01 00       	push   $0x10193
    2e5d:	68 8d f6 00 00       	push   $0xf68d
    2e62:	e8 39 f7 00 00       	call   125a0 <assert_abort@plt>
    2e67:	89 f6                	mov    %esi,%esi
    2e69:	8d bc 27 00 00 00 00 	lea    0x0(%edi,%eiz,1),%edi

00002e70 <usb_device_descriptors>:
    2e70:	55                   	push   %ebp
    2e71:	89 e5                	mov    %esp,%ebp
    2e73:	83 ec 08             	sub    $0x8,%esp
    2e76:	8b 45 08             	mov    0x8(%ebp),%eax
    2e79:	85 c0                	test   %eax,%eax
    2e7b:	74 05                	je     2e82 <usb_device_descriptors+0x12>
    2e7d:	83 c0 3c             	add    $0x3c,%eax
    2e80:	c9                   	leave  
    2e81:	c3                   	ret    
    2e82:	50                   	push   %eax
    2e83:	68 62 01 00 00       	push   $0x162
    2e88:	68 93 01 01 00       	push   $0x10193
    2e8d:	68 8d f6 00 00       	push   $0xf68d
    2e92:	e8 09 f7 00 00       	call   125a0 <assert_abort@plt>
    2e97:	89 f6                	mov    %esi,%esi
    2e99:	8d bc 27 00 00 00 00 	lea    0x0(%edi,%eiz,1),%edi

00002ea0 <usb_device_get_alternative_ifaces>:
    2ea0:	55                   	push   %ebp
    2ea1:	89 e5                	mov    %esp,%ebp
    2ea3:	83 ec 08             	sub    $0x8,%esp
    2ea6:	8b 45 08             	mov    0x8(%ebp),%eax
    2ea9:	85 c0                	test   %eax,%eax
    2eab:	74 05                	je     2eb2 <usb_device_get_alternative_ifaces+0x12>
    2ead:	83 c0 30             	add    $0x30,%eax
    2eb0:	c9                   	leave  
    2eb1:	c3                   	ret    
    2eb2:	50                   	push   %eax
    2eb3:	68 69 01 00 00       	push   $0x169
    2eb8:	68 93 01 01 00       	push   $0x10193
    2ebd:	68 8d f6 00 00       	push   $0xf68d
    2ec2:	e8 d9 f6 00 00       	call   125a0 <assert_abort@plt>
    2ec7:	89 f6                	mov    %esi,%esi
    2ec9:	8d bc 27 00 00 00 00 	lea    0x0(%edi,%eiz,1),%edi

00002ed0 <usb_device_create_ddf>:
    2ed0:	55                   	push   %ebp
    2ed1:	89 e5                	mov    %esp,%ebp
    2ed3:	57                   	push   %edi
    2ed4:	56                   	push   %esi
    2ed5:	53                   	push   %ebx
    2ed6:	83 ec 2c             	sub    $0x2c,%esp
    2ed9:	8b 45 08             	mov    0x8(%ebp),%eax
    2edc:	85 c0                	test   %eax,%eax
    2ede:	0f 84 78 03 00 00    	je     325c <usb_device_create_ddf+0x38c>
    2ee4:	8b 75 10             	mov    0x10(%ebp),%esi
    2ee7:	85 f6                	test   %esi,%esi
    2ee9:	0f 84 82 03 00 00    	je     3271 <usb_device_create_ddf+0x3a1>
    2eef:	83 ec 0c             	sub    $0xc,%esp
    2ef2:	8b 45 08             	mov    0x8(%ebp),%eax
    2ef5:	c7 45 e0 00 00 00 00 	movl   $0x0,-0x20(%ebp)
    2efc:	c7 45 e4 ff ff ff ff 	movl   $0xffffffff,-0x1c(%ebp)
    2f03:	50                   	push   %eax
    2f04:	e8 87 3c 00 00       	call   6b90 <ddf_dev_get_handle>
    2f09:	5a                   	pop    %edx
    2f0a:	59                   	pop    %ecx
    2f0b:	6a 01                	push   $0x1
    2f0d:	50                   	push   %eax
    2f0e:	e8 0d f5 00 00       	call   12420 <devman_parent_device_connect@plt>
    2f13:	83 c4 10             	add    $0x10,%esp
    2f16:	89 c3                	mov    %eax,%ebx
    2f18:	85 c0                	test   %eax,%eax
    2f1a:	0f 84 d0 02 00 00    	je     31f0 <usb_device_create_ddf+0x320>
    2f20:	83 ec 0c             	sub    $0xc,%esp
    2f23:	50                   	push   %eax
    2f24:	e8 a7 f8 00 00       	call   127d0 <async_exchange_begin@plt>
    2f29:	83 c4 10             	add    $0x10,%esp
    2f2c:	89 c7                	mov    %eax,%edi
    2f2e:	85 c0                	test   %eax,%eax
    2f30:	0f 84 ca 02 00 00    	je     3200 <usb_device_create_ddf+0x330>
    2f36:	50                   	push   %eax
    2f37:	50                   	push   %eax
    2f38:	8d 45 e0             	lea    -0x20(%ebp),%eax
    2f3b:	50                   	push   %eax
    2f3c:	57                   	push   %edi
    2f3d:	e8 ce a7 00 00       	call   d710 <usb_get_my_device_handle>
    2f42:	83 c4 10             	add    $0x10,%esp
    2f45:	89 c6                	mov    %eax,%esi
    2f47:	85 c0                	test   %eax,%eax
    2f49:	74 25                	je     2f70 <usb_device_create_ddf+0xa0>
    2f4b:	83 ec 0c             	sub    $0xc,%esp
    2f4e:	57                   	push   %edi
    2f4f:	e8 3c f6 00 00       	call   12590 <async_exchange_end@plt>
    2f54:	89 1c 24             	mov    %ebx,(%esp)
    2f57:	e8 94 f4 00 00       	call   123f0 <async_hangup@plt>
    2f5c:	83 c4 10             	add    $0x10,%esp
    2f5f:	8d 65 f4             	lea    -0xc(%ebp),%esp
    2f62:	89 f0                	mov    %esi,%eax
    2f64:	5b                   	pop    %ebx
    2f65:	5e                   	pop    %esi
    2f66:	5f                   	pop    %edi
    2f67:	5d                   	pop    %ebp
    2f68:	c3                   	ret    
    2f69:	8d b4 26 00 00 00 00 	lea    0x0(%esi,%eiz,1),%esi
    2f70:	8d 45 e4             	lea    -0x1c(%ebp),%eax
    2f73:	56                   	push   %esi
    2f74:	56                   	push   %esi
    2f75:	50                   	push   %eax
    2f76:	57                   	push   %edi
    2f77:	e8 44 a7 00 00       	call   d6c0 <usb_get_my_interface>
    2f7c:	83 c4 10             	add    $0x10,%esp
    2f7f:	89 c6                	mov    %eax,%esi
    2f81:	83 f8 f5             	cmp    $0xfffffff5,%eax
    2f84:	0f 84 d6 01 00 00    	je     3160 <usb_device_create_ddf+0x290>
    2f8a:	83 ec 0c             	sub    $0xc,%esp
    2f8d:	57                   	push   %edi
    2f8e:	e8 fd f5 00 00       	call   12590 <async_exchange_end@plt>
    2f93:	89 1c 24             	mov    %ebx,(%esp)
    2f96:	e8 55 f4 00 00       	call   123f0 <async_hangup@plt>
    2f9b:	83 c4 10             	add    $0x10,%esp
    2f9e:	85 f6                	test   %esi,%esi
    2fa0:	75 bd                	jne    2f5f <usb_device_create_ddf+0x8f>
    2fa2:	8b 5d 08             	mov    0x8(%ebp),%ebx
    2fa5:	51                   	push   %ecx
    2fa6:	51                   	push   %ecx
    2fa7:	6a 60                	push   $0x60
    2fa9:	53                   	push   %ebx
    2faa:	e8 91 3b 00 00       	call   6b40 <ddf_dev_data_alloc>
    2faf:	83 c4 10             	add    $0x10,%esp
    2fb2:	89 c3                	mov    %eax,%ebx
    2fb4:	85 c0                	test   %eax,%eax
    2fb6:	0f 84 5a 02 00 00    	je     3216 <usb_device_create_ddf+0x346>
    2fbc:	8b 4d 10             	mov    0x10(%ebp),%ecx
    2fbf:	83 ec 0c             	sub    $0xc,%esp
    2fc2:	8b 45 e0             	mov    -0x20(%ebp),%eax
    2fc5:	8b 55 e4             	mov    -0x1c(%ebp),%edx
    2fc8:	c7 01 00 00 00 00    	movl   $0x0,(%ecx)
    2fce:	8b 4d 08             	mov    0x8(%ebp),%ecx
    2fd1:	89 4b 58             	mov    %ecx,0x58(%ebx)
    2fd4:	89 43 04             	mov    %eax,0x4(%ebx)
    2fd7:	89 53 2c             	mov    %edx,0x2c(%ebx)
    2fda:	c7 43 5c 00 00 00 00 	movl   $0x0,0x5c(%ebx)
    2fe1:	c7 43 50 00 00 00 00 	movl   $0x0,0x50(%ebx)
    2fe8:	c7 43 54 00 00 00 00 	movl   $0x0,0x54(%ebx)
    2fef:	c7 43 28 00 00 00 00 	movl   $0x0,0x28(%ebx)
    2ff6:	c7 43 24 00 00 00 00 	movl   $0x0,0x24(%ebx)
    2ffd:	50                   	push   %eax
    2ffe:	e8 5d a6 00 00       	call   d660 <usb_dev_connect>
    3003:	83 c4 10             	add    $0x10,%esp
    3006:	89 03                	mov    %eax,(%ebx)
    3008:	85 c0                	test   %eax,%eax
    300a:	0f 84 19 02 00 00    	je     3229 <usb_device_create_ddf+0x359>
    3010:	8d 7b 08             	lea    0x8(%ebx),%edi
    3013:	52                   	push   %edx
    3014:	52                   	push   %edx
    3015:	50                   	push   %eax
    3016:	57                   	push   %edi
    3017:	e8 84 14 00 00       	call   44a0 <usb_pipe_initialize_default_control>
    301c:	83 c4 10             	add    $0x10,%esp
    301f:	89 c6                	mov    %eax,%esi
    3021:	85 c0                	test   %eax,%eax
    3023:	0f 85 0f 01 00 00    	jne    3138 <usb_device_create_ddf+0x268>
    3029:	8b 43 50             	mov    0x50(%ebx),%eax
    302c:	85 c0                	test   %eax,%eax
    302e:	0f 85 52 02 00 00    	jne    3286 <usb_device_create_ddf+0x3b6>
    3034:	50                   	push   %eax
    3035:	50                   	push   %eax
    3036:	8d 43 3c             	lea    0x3c(%ebx),%eax
    3039:	50                   	push   %eax
    303a:	57                   	push   %edi
    303b:	e8 80 1d 00 00       	call   4dc0 <usb_request_get_device_descriptor>
    3040:	83 c4 10             	add    $0x10,%esp
    3043:	89 c6                	mov    %eax,%esi
    3045:	85 c0                	test   %eax,%eax
    3047:	74 1f                	je     3068 <usb_device_create_ddf+0x198>
    3049:	8b 45 10             	mov    0x10(%ebp),%eax
    304c:	83 ec 0c             	sub    $0xc,%esp
    304f:	c7 00 0b 02 01 00    	movl   $0x1020b,(%eax)
    3055:	8b 03                	mov    (%ebx),%eax
    3057:	50                   	push   %eax
    3058:	e8 43 a6 00 00       	call   d6a0 <usb_dev_disconnect>
    305d:	83 c4 10             	add    $0x10,%esp
    3060:	e9 fa fe ff ff       	jmp    2f5f <usb_device_create_ddf+0x8f>
    3065:	8d 76 00             	lea    0x0(%esi),%esi
    3068:	8d 43 54             	lea    0x54(%ebx),%eax
    306b:	50                   	push   %eax
    306c:	8d 43 50             	lea    0x50(%ebx),%eax
    306f:	50                   	push   %eax
    3070:	6a 00                	push   $0x0
    3072:	57                   	push   %edi
    3073:	e8 f8 1e 00 00       	call   4f70 <usb_request_get_full_configuration_descriptor_alloc>
    3078:	83 c4 10             	add    $0x10,%esp
    307b:	89 c6                	mov    %eax,%esi
    307d:	85 c0                	test   %eax,%eax
    307f:	75 c8                	jne    3049 <usb_device_create_ddf+0x179>
    3081:	8b 53 2c             	mov    0x2c(%ebx),%edx
    3084:	8d 43 30             	lea    0x30(%ebx),%eax
    3087:	52                   	push   %edx
    3088:	8b 7b 50             	mov    0x50(%ebx),%edi
    308b:	8b 4b 54             	mov    0x54(%ebx),%ecx
    308e:	89 45 d4             	mov    %eax,-0x2c(%ebp)
    3091:	51                   	push   %ecx
    3092:	57                   	push   %edi
    3093:	50                   	push   %eax
    3094:	e8 f7 28 00 00       	call   5990 <usb_alternate_interfaces_init>
    3099:	8b 45 0c             	mov    0xc(%ebp),%eax
    309c:	83 c4 10             	add    $0x10,%esp
    309f:	85 c0                	test   %eax,%eax
    30a1:	0f 84 b8 fe ff ff    	je     2f5f <usb_device_create_ddf+0x8f>
    30a7:	8b 45 0c             	mov    0xc(%ebp),%eax
    30aa:	57                   	push   %edi
    30ab:	57                   	push   %edi
    30ac:	50                   	push   %eax
    30ad:	53                   	push   %ebx
    30ae:	e8 5d f8 ff ff       	call   2910 <usb_device_create_pipes>
    30b3:	83 c4 10             	add    $0x10,%esp
    30b6:	89 45 d0             	mov    %eax,-0x30(%ebp)
    30b9:	85 c0                	test   %eax,%eax
    30bb:	0f 84 9e fe ff ff    	je     2f5f <usb_device_create_ddf+0x8f>
    30c1:	8b 43 24             	mov    0x24(%ebx),%eax
    30c4:	85 c0                	test   %eax,%eax
    30c6:	0f 84 70 01 00 00    	je     323c <usb_device_create_ddf+0x36c>
    30cc:	8b 4b 28             	mov    0x28(%ebx),%ecx
    30cf:	85 c9                	test   %ecx,%ecx
    30d1:	0f 84 a9 00 00 00    	je     3180 <usb_device_create_ddf+0x2b0>
    30d7:	31 f6                	xor    %esi,%esi
    30d9:	eb 0f                	jmp    30ea <usb_device_create_ddf+0x21a>
    30db:	90                   	nop
    30dc:	8d 74 26 00          	lea    0x0(%esi,%eiz,1),%esi
    30e0:	46                   	inc    %esi
    30e1:	3b 73 28             	cmp    0x28(%ebx),%esi
    30e4:	0f 83 96 00 00 00    	jae    3180 <usb_device_create_ddf+0x2b0>
    30ea:	8d 14 76             	lea    (%esi,%esi,2),%edx
    30ed:	8d 3c 96             	lea    (%esi,%edx,4),%edi
    30f0:	ba d1 01 01 00       	mov    $0x101d1,%edx
    30f5:	c1 e7 02             	shl    $0x2,%edi
    30f8:	80 7c 38 30 00       	cmpb   $0x0,0x30(%eax,%edi,1)
    30fd:	74 05                	je     3104 <usb_device_create_ddf+0x234>
    30ff:	ba 26 20 01 00       	mov    $0x12026,%edx
    3104:	83 ec 0c             	sub    $0xc,%esp
    3107:	52                   	push   %edx
    3108:	56                   	push   %esi
    3109:	68 a4 02 01 00       	push   $0x102a4
    310e:	6a 05                	push   $0x5
    3110:	6a ff                	push   $0xffffffff
    3112:	e8 29 f4 00 00       	call   12540 <log_msg@plt>
    3117:	8b 43 24             	mov    0x24(%ebx),%eax
    311a:	83 c4 20             	add    $0x20,%esp
    311d:	01 c7                	add    %eax,%edi
    311f:	80 7f 30 00          	cmpb   $0x0,0x30(%edi)
    3123:	74 bb                	je     30e0 <usb_device_create_ddf+0x210>
    3125:	83 ec 0c             	sub    $0xc,%esp
    3128:	57                   	push   %edi
    3129:	e8 72 14 00 00       	call   45a0 <usb_pipe_unregister>
    312e:	8b 43 24             	mov    0x24(%ebx),%eax
    3131:	83 c4 10             	add    $0x10,%esp
    3134:	eb aa                	jmp    30e0 <usb_device_create_ddf+0x210>
    3136:	66 90                	xchg   %ax,%ax
    3138:	83 ec 0c             	sub    $0xc,%esp
    313b:	8b 03                	mov    (%ebx),%eax
    313d:	50                   	push   %eax
    313e:	e8 5d a5 00 00       	call   d6a0 <usb_dev_disconnect>
    3143:	8b 45 10             	mov    0x10(%ebp),%eax
    3146:	83 c4 10             	add    $0x10,%esp
    3149:	c7 00 c8 02 01 00    	movl   $0x102c8,(%eax)
    314f:	8d 65 f4             	lea    -0xc(%ebp),%esp
    3152:	89 f0                	mov    %esi,%eax
    3154:	5b                   	pop    %ebx
    3155:	5e                   	pop    %esi
    3156:	5f                   	pop    %edi
    3157:	5d                   	pop    %ebp
    3158:	c3                   	ret    
    3159:	8d b4 26 00 00 00 00 	lea    0x0(%esi,%eiz,1),%esi
    3160:	83 ec 0c             	sub    $0xc,%esp
    3163:	c7 45 e4 ff ff ff ff 	movl   $0xffffffff,-0x1c(%ebp)
    316a:	57                   	push   %edi
    316b:	e8 20 f4 00 00       	call   12590 <async_exchange_end@plt>
    3170:	89 1c 24             	mov    %ebx,(%esp)
    3173:	e8 78 f2 00 00       	call   123f0 <async_hangup@plt>
    3178:	83 c4 10             	add    $0x10,%esp
    317b:	e9 22 fe ff ff       	jmp    2fa2 <usb_device_create_ddf+0xd2>
    3180:	83 ec 0c             	sub    $0xc,%esp
    3183:	50                   	push   %eax
    3184:	e8 57 f7 00 00       	call   128e0 <free@plt>
    3189:	8b 55 d4             	mov    -0x2c(%ebp),%edx
    318c:	c7 43 24 00 00 00 00 	movl   $0x0,0x24(%ebx)
    3193:	c7 43 28 00 00 00 00 	movl   $0x0,0x28(%ebx)
    319a:	58                   	pop    %eax
    319b:	52                   	push   %edx
    319c:	e8 ef 29 00 00       	call   5b90 <usb_alternate_interfaces_deinit>
    31a1:	8b 73 50             	mov    0x50(%ebx),%esi
    31a4:	59                   	pop    %ecx
    31a5:	56                   	push   %esi
    31a6:	e8 35 f7 00 00       	call   128e0 <free@plt>
    31ab:	c7 43 50 00 00 00 00 	movl   $0x0,0x50(%ebx)
    31b2:	c7 43 54 00 00 00 00 	movl   $0x0,0x54(%ebx)
    31b9:	8b 43 5c             	mov    0x5c(%ebx),%eax
    31bc:	5f                   	pop    %edi
    31bd:	50                   	push   %eax
    31be:	e8 1d f7 00 00       	call   128e0 <free@plt>
    31c3:	c7 43 5c 00 00 00 00 	movl   $0x0,0x5c(%ebx)
    31ca:	58                   	pop    %eax
    31cb:	8b 03                	mov    (%ebx),%eax
    31cd:	50                   	push   %eax
    31ce:	e8 cd a4 00 00       	call   d6a0 <usb_dev_disconnect>
    31d3:	8b 45 10             	mov    0x10(%ebp),%eax
    31d6:	c7 03 00 00 00 00    	movl   $0x0,(%ebx)
    31dc:	83 c4 10             	add    $0x10,%esp
    31df:	8b 75 d0             	mov    -0x30(%ebp),%esi
    31e2:	c7 00 20 02 01 00    	movl   $0x10220,(%eax)
    31e8:	e9 72 fd ff ff       	jmp    2f5f <usb_device_create_ddf+0x8f>
    31ed:	8d 76 00             	lea    0x0(%esi),%esi
    31f0:	be fe ff ff ff       	mov    $0xfffffffe,%esi
    31f5:	e9 65 fd ff ff       	jmp    2f5f <usb_device_create_ddf+0x8f>
    31fa:	8d b6 00 00 00 00    	lea    0x0(%esi),%esi
    3200:	83 ec 0c             	sub    $0xc,%esp
    3203:	be f8 ff ff ff       	mov    $0xfffffff8,%esi
    3208:	53                   	push   %ebx
    3209:	e8 e2 f1 00 00       	call   123f0 <async_hangup@plt>
    320e:	83 c4 10             	add    $0x10,%esp
    3211:	e9 49 fd ff ff       	jmp    2f5f <usb_device_create_ddf+0x8f>
    3216:	8b 45 10             	mov    0x10(%ebp),%eax
    3219:	be fe ff ff ff       	mov    $0xfffffffe,%esi
    321e:	c7 00 e2 01 01 00    	movl   $0x101e2,(%eax)
    3224:	e9 36 fd ff ff       	jmp    2f5f <usb_device_create_ddf+0x8f>
    3229:	8b 45 10             	mov    0x10(%ebp),%eax
    322c:	be fe ff ff ff       	mov    $0xfffffffe,%esi
    3231:	c7 00 f1 01 01 00    	movl   $0x101f1,(%eax)
    3237:	e9 23 fd ff ff       	jmp    2f5f <usb_device_create_ddf+0x8f>
    323c:	8b 53 28             	mov    0x28(%ebx),%edx
    323f:	85 d2                	test   %edx,%edx
    3241:	0f 84 39 ff ff ff    	je     3180 <usb_device_create_ddf+0x2b0>
    3247:	50                   	push   %eax
    3248:	68 29 01 00 00       	push   $0x129
    324d:	68 93 01 01 00       	push   $0x10193
    3252:	68 78 02 01 00       	push   $0x10278
    3257:	e8 44 f3 00 00       	call   125a0 <assert_abort@plt>
    325c:	57                   	push   %edi
    325d:	68 e5 01 00 00       	push   $0x1e5
    3262:	68 93 01 01 00       	push   $0x10193
    3267:	68 d6 01 01 00       	push   $0x101d6
    326c:	e8 2f f3 00 00       	call   125a0 <assert_abort@plt>
    3271:	53                   	push   %ebx
    3272:	68 e6 01 00 00       	push   $0x1e6
    3277:	68 93 01 01 00       	push   $0x10193
    327c:	68 de 01 01 00       	push   $0x101de
    3281:	e8 1a f3 00 00       	call   125a0 <assert_abort@plt>
    3286:	50                   	push   %eax
    3287:	68 aa 00 00 00       	push   $0xaa
    328c:	68 93 01 01 00       	push   $0x10193
    3291:	68 ec 02 01 00       	push   $0x102ec
    3296:	e8 05 f3 00 00       	call   125a0 <assert_abort@plt>
    329b:	90                   	nop
    329c:	8d 74 26 00          	lea    0x0(%esi,%eiz,1),%esi

000032a0 <usb_device_destroy_ddf>:
    32a0:	55                   	push   %ebp
    32a1:	89 e5                	mov    %esp,%ebp
    32a3:	57                   	push   %edi
    32a4:	56                   	push   %esi
    32a5:	53                   	push   %ebx
    32a6:	83 ec 0c             	sub    $0xc,%esp
    32a9:	8b 45 08             	mov    0x8(%ebp),%eax
    32ac:	85 c0                	test   %eax,%eax
    32ae:	0f 84 1d 01 00 00    	je     33d1 <usb_device_destroy_ddf+0x131>
    32b4:	83 ec 0c             	sub    $0xc,%esp
    32b7:	50                   	push   %eax
    32b8:	e8 c3 38 00 00       	call   6b80 <ddf_dev_data_get>
    32bd:	83 c4 10             	add    $0x10,%esp
    32c0:	89 c7                	mov    %eax,%edi
    32c2:	85 c0                	test   %eax,%eax
    32c4:	0f 84 f2 00 00 00    	je     33bc <usb_device_destroy_ddf+0x11c>
    32ca:	8b 40 24             	mov    0x24(%eax),%eax
    32cd:	85 c0                	test   %eax,%eax
    32cf:	0f 84 cb 00 00 00    	je     33a0 <usb_device_destroy_ddf+0x100>
    32d5:	8b 4f 28             	mov    0x28(%edi),%ecx
    32d8:	85 c9                	test   %ecx,%ecx
    32da:	74 5a                	je     3336 <usb_device_destroy_ddf+0x96>
    32dc:	31 f6                	xor    %esi,%esi
    32de:	eb 06                	jmp    32e6 <usb_device_destroy_ddf+0x46>
    32e0:	46                   	inc    %esi
    32e1:	3b 77 28             	cmp    0x28(%edi),%esi
    32e4:	73 50                	jae    3336 <usb_device_destroy_ddf+0x96>
    32e6:	8d 14 76             	lea    (%esi,%esi,2),%edx
    32e9:	8d 1c 96             	lea    (%esi,%edx,4),%ebx
    32ec:	ba d1 01 01 00       	mov    $0x101d1,%edx
    32f1:	c1 e3 02             	shl    $0x2,%ebx
    32f4:	80 7c 18 30 00       	cmpb   $0x0,0x30(%eax,%ebx,1)
    32f9:	74 05                	je     3300 <usb_device_destroy_ddf+0x60>
    32fb:	ba 26 20 01 00       	mov    $0x12026,%edx
    3300:	83 ec 0c             	sub    $0xc,%esp
    3303:	52                   	push   %edx
    3304:	56                   	push   %esi
    3305:	68 a4 02 01 00       	push   $0x102a4
    330a:	6a 05                	push   $0x5
    330c:	6a ff                	push   $0xffffffff
    330e:	e8 2d f2 00 00       	call   12540 <log_msg@plt>
    3313:	8b 47 24             	mov    0x24(%edi),%eax
    3316:	83 c4 20             	add    $0x20,%esp
    3319:	01 c3                	add    %eax,%ebx
    331b:	80 7b 30 00          	cmpb   $0x0,0x30(%ebx)
    331f:	74 bf                	je     32e0 <usb_device_destroy_ddf+0x40>
    3321:	83 ec 0c             	sub    $0xc,%esp
    3324:	46                   	inc    %esi
    3325:	53                   	push   %ebx
    3326:	e8 75 12 00 00       	call   45a0 <usb_pipe_unregister>
    332b:	83 c4 10             	add    $0x10,%esp
    332e:	8b 47 24             	mov    0x24(%edi),%eax
    3331:	3b 77 28             	cmp    0x28(%edi),%esi
    3334:	72 b0                	jb     32e6 <usb_device_destroy_ddf+0x46>
    3336:	83 ec 0c             	sub    $0xc,%esp
    3339:	50                   	push   %eax
    333a:	e8 a1 f5 00 00       	call   128e0 <free@plt>
    333f:	8d 47 30             	lea    0x30(%edi),%eax
    3342:	c7 47 24 00 00 00 00 	movl   $0x0,0x24(%edi)
    3349:	c7 47 28 00 00 00 00 	movl   $0x0,0x28(%edi)
    3350:	89 04 24             	mov    %eax,(%esp)
    3353:	e8 38 28 00 00       	call   5b90 <usb_alternate_interfaces_deinit>
    3358:	8b 57 50             	mov    0x50(%edi),%edx
    335b:	58                   	pop    %eax
    335c:	52                   	push   %edx
    335d:	e8 7e f5 00 00       	call   128e0 <free@plt>
    3362:	c7 47 50 00 00 00 00 	movl   $0x0,0x50(%edi)
    3369:	c7 47 54 00 00 00 00 	movl   $0x0,0x54(%edi)
    3370:	8b 5f 5c             	mov    0x5c(%edi),%ebx
    3373:	59                   	pop    %ecx
    3374:	53                   	push   %ebx
    3375:	e8 66 f5 00 00       	call   128e0 <free@plt>
    337a:	c7 47 5c 00 00 00 00 	movl   $0x0,0x5c(%edi)
    3381:	8b 07                	mov    (%edi),%eax
    3383:	5e                   	pop    %esi
    3384:	50                   	push   %eax
    3385:	e8 16 a3 00 00       	call   d6a0 <usb_dev_disconnect>
    338a:	c7 07 00 00 00 00    	movl   $0x0,(%edi)
    3390:	83 c4 10             	add    $0x10,%esp
    3393:	8d 65 f4             	lea    -0xc(%ebp),%esp
    3396:	5b                   	pop    %ebx
    3397:	5e                   	pop    %esi
    3398:	5f                   	pop    %edi
    3399:	5d                   	pop    %ebp
    339a:	c3                   	ret    
    339b:	90                   	nop
    339c:	8d 74 26 00          	lea    0x0(%esi,%eiz,1),%esi
    33a0:	8b 57 28             	mov    0x28(%edi),%edx
    33a3:	85 d2                	test   %edx,%edx
    33a5:	74 8f                	je     3336 <usb_device_destroy_ddf+0x96>
    33a7:	50                   	push   %eax
    33a8:	68 29 01 00 00       	push   $0x129
    33ad:	68 93 01 01 00       	push   $0x10193
    33b2:	68 78 02 01 00       	push   $0x10278
    33b7:	e8 e4 f1 00 00       	call   125a0 <assert_abort@plt>
    33bc:	53                   	push   %ebx
    33bd:	68 02 02 00 00       	push   $0x202
    33c2:	68 93 01 01 00       	push   $0x10193
    33c7:	68 8d f6 00 00       	push   $0xf68d
    33cc:	e8 cf f1 00 00       	call   125a0 <assert_abort@plt>
    33d1:	56                   	push   %esi
    33d2:	68 00 02 00 00       	push   $0x200
    33d7:	68 93 01 01 00       	push   $0x10193
    33dc:	68 d6 01 01 00       	push   $0x101d6
    33e1:	e8 ba f1 00 00       	call   125a0 <assert_abort@plt>
    33e6:	8d 76 00             	lea    0x0(%esi),%esi
    33e9:	8d bc 27 00 00 00 00 	lea    0x0(%edi,%eiz,1),%edi

000033f0 <usb_device_create>:
    33f0:	55                   	push   %ebp
    33f1:	89 e5                	mov    %esp,%ebp
    33f3:	57                   	push   %edi
    33f4:	56                   	push   %esi
    33f5:	53                   	push   %ebx
    33f6:	83 ec 34             	sub    $0x34,%esp
    33f9:	c7 45 e0 00 00 00 00 	movl   $0x0,-0x20(%ebp)
    3400:	8b 45 08             	mov    0x8(%ebp),%eax
    3403:	c7 45 e4 ff ff ff ff 	movl   $0xffffffff,-0x1c(%ebp)
    340a:	6a 01                	push   $0x1
    340c:	50                   	push   %eax
    340d:	e8 8e ef 00 00       	call   123a0 <devman_device_connect@plt>
    3412:	89 04 24             	mov    %eax,(%esp)
    3415:	89 c3                	mov    %eax,%ebx
    3417:	e8 b4 f3 00 00       	call   127d0 <async_exchange_begin@plt>
    341c:	83 c4 10             	add    $0x10,%esp
    341f:	85 c0                	test   %eax,%eax
    3421:	0f 84 99 01 00 00    	je     35c0 <usb_device_create+0x1d0>
    3427:	89 c6                	mov    %eax,%esi
    3429:	50                   	push   %eax
    342a:	50                   	push   %eax
    342b:	8d 45 e0             	lea    -0x20(%ebp),%eax
    342e:	50                   	push   %eax
    342f:	56                   	push   %esi
    3430:	e8 db a2 00 00       	call   d710 <usb_get_my_device_handle>
    3435:	83 c4 10             	add    $0x10,%esp
    3438:	89 c7                	mov    %eax,%edi
    343a:	85 c0                	test   %eax,%eax
    343c:	0f 84 e6 00 00 00    	je     3528 <usb_device_create+0x138>
    3442:	83 ec 0c             	sub    $0xc,%esp
    3445:	56                   	push   %esi
    3446:	e8 45 f1 00 00       	call   12590 <async_exchange_end@plt>
    344b:	83 c4 10             	add    $0x10,%esp
    344e:	85 db                	test   %ebx,%ebx
    3450:	0f 84 c1 00 00 00    	je     3517 <usb_device_create+0x127>
    3456:	83 ec 0c             	sub    $0xc,%esp
    3459:	53                   	push   %ebx
    345a:	e8 91 ef 00 00       	call   123f0 <async_hangup@plt>
    345f:	83 c4 10             	add    $0x10,%esp
    3462:	85 ff                	test   %edi,%edi
    3464:	0f 85 ad 00 00 00    	jne    3517 <usb_device_create+0x127>
    346a:	83 ec 0c             	sub    $0xc,%esp
    346d:	6a 60                	push   $0x60
    346f:	e8 3c f0 00 00       	call   124b0 <malloc@plt>
    3474:	83 c4 10             	add    $0x10,%esp
    3477:	89 c3                	mov    %eax,%ebx
    3479:	85 c0                	test   %eax,%eax
    347b:	0f 84 96 00 00 00    	je     3517 <usb_device_create+0x127>
    3481:	c7 40 58 00 00 00 00 	movl   $0x0,0x58(%eax)
    3488:	8b 45 08             	mov    0x8(%ebp),%eax
    348b:	83 ec 0c             	sub    $0xc,%esp
    348e:	89 43 04             	mov    %eax,0x4(%ebx)
    3491:	8b 45 e4             	mov    -0x1c(%ebp),%eax
    3494:	c7 43 5c 00 00 00 00 	movl   $0x0,0x5c(%ebx)
    349b:	89 43 2c             	mov    %eax,0x2c(%ebx)
    349e:	c7 43 50 00 00 00 00 	movl   $0x0,0x50(%ebx)
    34a5:	c7 43 54 00 00 00 00 	movl   $0x0,0x54(%ebx)
    34ac:	c7 43 28 00 00 00 00 	movl   $0x0,0x28(%ebx)
    34b3:	c7 43 24 00 00 00 00 	movl   $0x0,0x24(%ebx)
    34ba:	8b 4d 08             	mov    0x8(%ebp),%ecx
    34bd:	51                   	push   %ecx
    34be:	e8 9d a1 00 00       	call   d660 <usb_dev_connect>
    34c3:	83 c4 10             	add    $0x10,%esp
    34c6:	89 03                	mov    %eax,(%ebx)
    34c8:	85 c0                	test   %eax,%eax
    34ca:	74 3f                	je     350b <usb_device_create+0x11b>
    34cc:	8d 73 08             	lea    0x8(%ebx),%esi
    34cf:	52                   	push   %edx
    34d0:	52                   	push   %edx
    34d1:	50                   	push   %eax
    34d2:	56                   	push   %esi
    34d3:	e8 c8 0f 00 00       	call   44a0 <usb_pipe_initialize_default_control>
    34d8:	83 c4 10             	add    $0x10,%esp
    34db:	85 c0                	test   %eax,%eax
    34dd:	75 1e                	jne    34fd <usb_device_create+0x10d>
    34df:	8b 43 50             	mov    0x50(%ebx),%eax
    34e2:	85 c0                	test   %eax,%eax
    34e4:	0f 85 e8 00 00 00    	jne    35d2 <usb_device_create+0x1e2>
    34ea:	8d 43 3c             	lea    0x3c(%ebx),%eax
    34ed:	57                   	push   %edi
    34ee:	57                   	push   %edi
    34ef:	50                   	push   %eax
    34f0:	56                   	push   %esi
    34f1:	e8 ca 18 00 00       	call   4dc0 <usb_request_get_device_descriptor>
    34f6:	83 c4 10             	add    $0x10,%esp
    34f9:	85 c0                	test   %eax,%eax
    34fb:	74 63                	je     3560 <usb_device_create+0x170>
    34fd:	83 ec 0c             	sub    $0xc,%esp
    3500:	8b 33                	mov    (%ebx),%esi
    3502:	56                   	push   %esi
    3503:	e8 98 a1 00 00       	call   d6a0 <usb_dev_disconnect>
    3508:	83 c4 10             	add    $0x10,%esp
    350b:	83 ec 0c             	sub    $0xc,%esp
    350e:	53                   	push   %ebx
    350f:	e8 cc f3 00 00       	call   128e0 <free@plt>
    3514:	83 c4 10             	add    $0x10,%esp
    3517:	8d 65 f4             	lea    -0xc(%ebp),%esp
    351a:	31 db                	xor    %ebx,%ebx
    351c:	89 d8                	mov    %ebx,%eax
    351e:	5b                   	pop    %ebx
    351f:	5e                   	pop    %esi
    3520:	5f                   	pop    %edi
    3521:	5d                   	pop    %ebp
    3522:	c3                   	ret    
    3523:	90                   	nop
    3524:	8d 74 26 00          	lea    0x0(%esi,%eiz,1),%esi
    3528:	50                   	push   %eax
    3529:	50                   	push   %eax
    352a:	8d 45 e4             	lea    -0x1c(%ebp),%eax
    352d:	50                   	push   %eax
    352e:	56                   	push   %esi
    352f:	e8 8c a1 00 00       	call   d6c0 <usb_get_my_interface>
    3534:	83 c4 10             	add    $0x10,%esp
    3537:	83 f8 f5             	cmp    $0xfffffff5,%eax
    353a:	74 64                	je     35a0 <usb_device_create+0x1b0>
    353c:	83 ec 0c             	sub    $0xc,%esp
    353f:	89 45 d4             	mov    %eax,-0x2c(%ebp)
    3542:	56                   	push   %esi
    3543:	e8 48 f0 00 00       	call   12590 <async_exchange_end@plt>
    3548:	8b 45 d4             	mov    -0x2c(%ebp),%eax
    354b:	83 c4 10             	add    $0x10,%esp
    354e:	89 c7                	mov    %eax,%edi
    3550:	85 db                	test   %ebx,%ebx
    3552:	0f 85 fe fe ff ff    	jne    3456 <usb_device_create+0x66>
    3558:	e9 05 ff ff ff       	jmp    3462 <usb_device_create+0x72>
    355d:	8d 76 00             	lea    0x0(%esi),%esi
    3560:	8d 43 54             	lea    0x54(%ebx),%eax
    3563:	50                   	push   %eax
    3564:	8d 43 50             	lea    0x50(%ebx),%eax
    3567:	50                   	push   %eax
    3568:	6a 00                	push   $0x0
    356a:	56                   	push   %esi
    356b:	e8 00 1a 00 00       	call   4f70 <usb_request_get_full_configuration_descriptor_alloc>
    3570:	83 c4 10             	add    $0x10,%esp
    3573:	85 c0                	test   %eax,%eax
    3575:	75 86                	jne    34fd <usb_device_create+0x10d>
    3577:	8b 43 2c             	mov    0x2c(%ebx),%eax
    357a:	8b 4b 50             	mov    0x50(%ebx),%ecx
    357d:	50                   	push   %eax
    357e:	8d 43 30             	lea    0x30(%ebx),%eax
    3581:	8b 53 54             	mov    0x54(%ebx),%edx
    3584:	52                   	push   %edx
    3585:	51                   	push   %ecx
    3586:	50                   	push   %eax
    3587:	e8 04 24 00 00       	call   5990 <usb_alternate_interfaces_init>
    358c:	83 c4 10             	add    $0x10,%esp
    358f:	8d 65 f4             	lea    -0xc(%ebp),%esp
    3592:	89 d8                	mov    %ebx,%eax
    3594:	5b                   	pop    %ebx
    3595:	5e                   	pop    %esi
    3596:	5f                   	pop    %edi
    3597:	5d                   	pop    %ebp
    3598:	c3                   	ret    
    3599:	8d b4 26 00 00 00 00 	lea    0x0(%esi,%eiz,1),%esi
    35a0:	83 ec 0c             	sub    $0xc,%esp
    35a3:	c7 45 e4 ff ff ff ff 	movl   $0xffffffff,-0x1c(%ebp)
    35aa:	56                   	push   %esi
    35ab:	e8 e0 ef 00 00       	call   12590 <async_exchange_end@plt>
    35b0:	83 c4 10             	add    $0x10,%esp
    35b3:	85 db                	test   %ebx,%ebx
    35b5:	0f 84 af fe ff ff    	je     346a <usb_device_create+0x7a>
    35bb:	e9 96 fe ff ff       	jmp    3456 <usb_device_create+0x66>
    35c0:	bf f8 ff ff ff       	mov    $0xfffffff8,%edi
    35c5:	85 db                	test   %ebx,%ebx
    35c7:	0f 85 89 fe ff ff    	jne    3456 <usb_device_create+0x66>
    35cd:	e9 45 ff ff ff       	jmp    3517 <usb_device_create+0x127>
    35d2:	50                   	push   %eax
    35d3:	68 aa 00 00 00       	push   $0xaa
    35d8:	68 93 01 01 00       	push   $0x10193
    35dd:	68 ec 02 01 00       	push   $0x102ec
    35e2:	e8 b9 ef 00 00       	call   125a0 <assert_abort@plt>
    35e7:	89 f6                	mov    %esi,%esi
    35e9:	8d bc 27 00 00 00 00 	lea    0x0(%edi,%eiz,1),%edi

000035f0 <usb_device_destroy>:
    35f0:	55                   	push   %ebp
    35f1:	89 e5                	mov    %esp,%ebp
    35f3:	57                   	push   %edi
    35f4:	56                   	push   %esi
    35f5:	53                   	push   %ebx
    35f6:	83 ec 0c             	sub    $0xc,%esp
    35f9:	8b 7d 08             	mov    0x8(%ebp),%edi
    35fc:	85 ff                	test   %edi,%edi
    35fe:	0f 84 e4 00 00 00    	je     36e8 <usb_device_destroy+0xf8>
    3604:	8b 47 24             	mov    0x24(%edi),%eax
    3607:	85 c0                	test   %eax,%eax
    3609:	0f 84 e1 00 00 00    	je     36f0 <usb_device_destroy+0x100>
    360f:	8b 4f 28             	mov    0x28(%edi),%ecx
    3612:	85 c9                	test   %ecx,%ecx
    3614:	74 60                	je     3676 <usb_device_destroy+0x86>
    3616:	31 f6                	xor    %esi,%esi
    3618:	eb 0c                	jmp    3626 <usb_device_destroy+0x36>
    361a:	8d b6 00 00 00 00    	lea    0x0(%esi),%esi
    3620:	46                   	inc    %esi
    3621:	3b 77 28             	cmp    0x28(%edi),%esi
    3624:	73 50                	jae    3676 <usb_device_destroy+0x86>
    3626:	8d 14 76             	lea    (%esi,%esi,2),%edx
    3629:	8d 1c 96             	lea    (%esi,%edx,4),%ebx
    362c:	ba d1 01 01 00       	mov    $0x101d1,%edx
    3631:	c1 e3 02             	shl    $0x2,%ebx
    3634:	80 7c 18 30 00       	cmpb   $0x0,0x30(%eax,%ebx,1)
    3639:	74 05                	je     3640 <usb_device_destroy+0x50>
    363b:	ba 26 20 01 00       	mov    $0x12026,%edx
    3640:	83 ec 0c             	sub    $0xc,%esp
    3643:	52                   	push   %edx
    3644:	56                   	push   %esi
    3645:	68 a4 02 01 00       	push   $0x102a4
    364a:	6a 05                	push   $0x5
    364c:	6a ff                	push   $0xffffffff
    364e:	e8 ed ee 00 00       	call   12540 <log_msg@plt>
    3653:	8b 47 24             	mov    0x24(%edi),%eax
    3656:	83 c4 20             	add    $0x20,%esp
    3659:	01 c3                	add    %eax,%ebx
    365b:	80 7b 30 00          	cmpb   $0x0,0x30(%ebx)
    365f:	74 bf                	je     3620 <usb_device_destroy+0x30>
    3661:	83 ec 0c             	sub    $0xc,%esp
    3664:	46                   	inc    %esi
    3665:	53                   	push   %ebx
    3666:	e8 35 0f 00 00       	call   45a0 <usb_pipe_unregister>
    366b:	83 c4 10             	add    $0x10,%esp
    366e:	8b 47 24             	mov    0x24(%edi),%eax
    3671:	3b 77 28             	cmp    0x28(%edi),%esi
    3674:	72 b0                	jb     3626 <usb_device_destroy+0x36>
    3676:	83 ec 0c             	sub    $0xc,%esp
    3679:	50                   	push   %eax
    367a:	e8 61 f2 00 00       	call   128e0 <free@plt>
    367f:	8d 47 30             	lea    0x30(%edi),%eax
    3682:	c7 47 24 00 00 00 00 	movl   $0x0,0x24(%edi)
    3689:	c7 47 28 00 00 00 00 	movl   $0x0,0x28(%edi)
    3690:	89 04 24             	mov    %eax,(%esp)
    3693:	e8 f8 24 00 00       	call   5b90 <usb_alternate_interfaces_deinit>
    3698:	8b 57 50             	mov    0x50(%edi),%edx
    369b:	58                   	pop    %eax
    369c:	52                   	push   %edx
    369d:	e8 3e f2 00 00       	call   128e0 <free@plt>
    36a2:	c7 47 50 00 00 00 00 	movl   $0x0,0x50(%edi)
    36a9:	c7 47 54 00 00 00 00 	movl   $0x0,0x54(%edi)
    36b0:	8b 5f 5c             	mov    0x5c(%edi),%ebx
    36b3:	59                   	pop    %ecx
    36b4:	53                   	push   %ebx
    36b5:	e8 26 f2 00 00       	call   128e0 <free@plt>
    36ba:	c7 47 5c 00 00 00 00 	movl   $0x0,0x5c(%edi)
    36c1:	8b 07                	mov    (%edi),%eax
    36c3:	5e                   	pop    %esi
    36c4:	50                   	push   %eax
    36c5:	e8 d6 9f 00 00       	call   d6a0 <usb_dev_disconnect>
    36ca:	c7 07 00 00 00 00    	movl   $0x0,(%edi)
    36d0:	83 c4 10             	add    $0x10,%esp
    36d3:	89 7d 08             	mov    %edi,0x8(%ebp)
    36d6:	8d 65 f4             	lea    -0xc(%ebp),%esp
    36d9:	5b                   	pop    %ebx
    36da:	5e                   	pop    %esi
    36db:	5f                   	pop    %edi
    36dc:	5d                   	pop    %ebp
    36dd:	e9 fe f1 00 00       	jmp    128e0 <free@plt>
    36e2:	8d b6 00 00 00 00    	lea    0x0(%esi),%esi
    36e8:	8d 65 f4             	lea    -0xc(%ebp),%esp
    36eb:	5b                   	pop    %ebx
    36ec:	5e                   	pop    %esi
    36ed:	5f                   	pop    %edi
    36ee:	5d                   	pop    %ebp
    36ef:	c3                   	ret    
    36f0:	8b 57 28             	mov    0x28(%edi),%edx
    36f3:	85 d2                	test   %edx,%edx
    36f5:	0f 84 7b ff ff ff    	je     3676 <usb_device_destroy+0x86>
    36fb:	50                   	push   %eax
    36fc:	68 29 01 00 00       	push   $0x129
    3701:	68 93 01 01 00       	push   $0x10193
    3706:	68 78 02 01 00       	push   $0x10278
    370b:	e8 90 ee 00 00       	call   125a0 <assert_abort@plt>

00003710 <usb_device_get_name>:
    3710:	55                   	push   %ebp
    3711:	89 e5                	mov    %esp,%ebp
    3713:	83 ec 08             	sub    $0x8,%esp
    3716:	8b 45 08             	mov    0x8(%ebp),%eax
    3719:	85 c0                	test   %eax,%eax
    371b:	74 17                	je     3734 <usb_device_get_name+0x24>
    371d:	8b 40 58             	mov    0x58(%eax),%eax
    3720:	85 c0                	test   %eax,%eax
    3722:	74 0c                	je     3730 <usb_device_get_name+0x20>
    3724:	89 45 08             	mov    %eax,0x8(%ebp)
    3727:	c9                   	leave  
    3728:	e9 73 34 00 00       	jmp    6ba0 <ddf_dev_get_name>
    372d:	8d 76 00             	lea    0x0(%esi),%esi
    3730:	31 c0                	xor    %eax,%eax
    3732:	c9                   	leave  
    3733:	c3                   	ret    
    3734:	50                   	push   %eax
    3735:	68 2a 02 00 00       	push   $0x22a
    373a:	68 93 01 01 00       	push   $0x10193
    373f:	68 8d f6 00 00       	push   $0xf68d
    3744:	e8 57 ee 00 00       	call   125a0 <assert_abort@plt>
    3749:	8d b4 26 00 00 00 00 	lea    0x0(%esi,%eiz,1),%esi

00003750 <usb_device_ddf_fun_create>:
    3750:	55                   	push   %ebp
    3751:	89 e5                	mov    %esp,%ebp
    3753:	83 ec 08             	sub    $0x8,%esp
    3756:	8b 45 08             	mov    0x8(%ebp),%eax
    3759:	8b 55 0c             	mov    0xc(%ebp),%edx
    375c:	8b 4d 10             	mov    0x10(%ebp),%ecx
    375f:	85 c0                	test   %eax,%eax
    3761:	74 21                	je     3784 <usb_device_ddf_fun_create+0x34>
    3763:	8b 40 58             	mov    0x58(%eax),%eax
    3766:	85 c0                	test   %eax,%eax
    3768:	74 16                	je     3780 <usb_device_ddf_fun_create+0x30>
    376a:	89 4d 10             	mov    %ecx,0x10(%ebp)
    376d:	89 55 0c             	mov    %edx,0xc(%ebp)
    3770:	89 45 08             	mov    %eax,0x8(%ebp)
    3773:	c9                   	leave  
    3774:	e9 f7 34 00 00       	jmp    6c70 <ddf_fun_create>
    3779:	8d b4 26 00 00 00 00 	lea    0x0(%esi,%eiz,1),%esi
    3780:	31 c0                	xor    %eax,%eax
    3782:	c9                   	leave  
    3783:	c3                   	ret    
    3784:	50                   	push   %eax
    3785:	68 33 02 00 00       	push   $0x233
    378a:	68 93 01 01 00       	push   $0x10193
    378f:	68 8d f6 00 00       	push   $0xf68d
    3794:	e8 07 ee 00 00       	call   125a0 <assert_abort@plt>
    3799:	8d b4 26 00 00 00 00 	lea    0x0(%esi,%eiz,1),%esi

000037a0 <usb_device_bus_exchange_begin>:
    37a0:	55                   	push   %ebp
    37a1:	89 e5                	mov    %esp,%ebp
    37a3:	83 ec 08             	sub    $0x8,%esp
    37a6:	8b 45 08             	mov    0x8(%ebp),%eax
    37a9:	85 c0                	test   %eax,%eax
    37ab:	74 0b                	je     37b8 <usb_device_bus_exchange_begin+0x18>
    37ad:	8b 00                	mov    (%eax),%eax
    37af:	89 45 08             	mov    %eax,0x8(%ebp)
    37b2:	c9                   	leave  
    37b3:	e9 18 f0 00 00       	jmp    127d0 <async_exchange_begin@plt>
    37b8:	50                   	push   %eax
    37b9:	68 3b 02 00 00       	push   $0x23b
    37be:	68 93 01 01 00       	push   $0x10193
    37c3:	68 8d f6 00 00       	push   $0xf68d
    37c8:	e8 d3 ed 00 00       	call   125a0 <assert_abort@plt>
    37cd:	8d 76 00             	lea    0x0(%esi),%esi

000037d0 <usb_device_bus_exchange_end>:
    37d0:	55                   	push   %ebp
    37d1:	89 e5                	mov    %esp,%ebp
    37d3:	5d                   	pop    %ebp
    37d4:	e9 b7 ed 00 00       	jmp    12590 <async_exchange_end@plt>
    37d9:	8d b4 26 00 00 00 00 	lea    0x0(%esi,%eiz,1),%esi

000037e0 <usb_device_data_alloc>:
    37e0:	55                   	push   %ebp
    37e1:	89 e5                	mov    %esp,%ebp
    37e3:	53                   	push   %ebx
    37e4:	50                   	push   %eax
    37e5:	8b 5d 08             	mov    0x8(%ebp),%ebx
    37e8:	85 db                	test   %ebx,%ebx
    37ea:	74 1c                	je     3808 <usb_device_data_alloc+0x28>
    37ec:	8b 43 5c             	mov    0x5c(%ebx),%eax
    37ef:	85 c0                	test   %eax,%eax
    37f1:	75 2a                	jne    381d <usb_device_data_alloc+0x3d>
    37f3:	8b 55 0c             	mov    0xc(%ebp),%edx
    37f6:	50                   	push   %eax
    37f7:	50                   	push   %eax
    37f8:	52                   	push   %edx
    37f9:	6a 01                	push   $0x1
    37fb:	e8 c0 ed 00 00       	call   125c0 <calloc@plt>
    3800:	89 43 5c             	mov    %eax,0x5c(%ebx)
    3803:	8b 5d fc             	mov    -0x4(%ebp),%ebx
    3806:	c9                   	leave  
    3807:	c3                   	ret    
    3808:	50                   	push   %eax
    3809:	68 4b 02 00 00       	push   $0x24b
    380e:	68 93 01 01 00       	push   $0x10193
    3813:	68 8d f6 00 00       	push   $0xf68d
    3818:	e8 83 ed 00 00       	call   125a0 <assert_abort@plt>
    381d:	51                   	push   %ecx
    381e:	68 4c 02 00 00       	push   $0x24c
    3823:	68 93 01 01 00       	push   $0x10193
    3828:	68 35 02 01 00       	push   $0x10235
    382d:	e8 6e ed 00 00       	call   125a0 <assert_abort@plt>
    3832:	8d b4 26 00 00 00 00 	lea    0x0(%esi,%eiz,1),%esi
    3839:	8d bc 27 00 00 00 00 	lea    0x0(%edi,%eiz,1),%edi

00003840 <usb_device_data_get>:
    3840:	55                   	push   %ebp
    3841:	89 e5                	mov    %esp,%ebp
    3843:	83 ec 08             	sub    $0x8,%esp
    3846:	8b 45 08             	mov    0x8(%ebp),%eax
    3849:	85 c0                	test   %eax,%eax
    384b:	74 05                	je     3852 <usb_device_data_get+0x12>
    384d:	8b 40 5c             	mov    0x5c(%eax),%eax
    3850:	c9                   	leave  
    3851:	c3                   	ret    
    3852:	50                   	push   %eax
    3853:	68 53 02 00 00       	push   $0x253
    3858:	68 93 01 01 00       	push   $0x10193
    385d:	68 8d f6 00 00       	push   $0xf68d
    3862:	e8 39 ed 00 00       	call   125a0 <assert_abort@plt>
    3867:	66 90                	xchg   %ax,%ax
    3869:	66 90                	xchg   %ax,%ax
    386b:	66 90                	xchg   %ax,%ax
    386d:	66 90                	xchg   %ax,%ax
    386f:	90                   	nop

00003870 <polling_fibril>:
    3870:	55                   	push   %ebp
    3871:	89 e5                	mov    %esp,%ebp
    3873:	57                   	push   %edi
    3874:	56                   	push   %esi
    3875:	53                   	push   %ebx
    3876:	83 ec 3c             	sub    $0x3c,%esp
    3879:	8b 5d 08             	mov    0x8(%ebp),%ebx
    387c:	85 db                	test   %ebx,%ebx
    387e:	0f 84 40 02 00 00    	je     3ac4 <polling_fibril+0x254>
    3884:	8b 0b                	mov    (%ebx),%ecx
    3886:	8b 7b 24             	mov    0x24(%ebx),%edi
    3889:	85 c9                	test   %ecx,%ecx
    388b:	7e 77                	jle    3904 <polling_fibril+0x94>
    388d:	8b 47 2c             	mov    0x2c(%edi),%eax
    3890:	8b 57 0c             	mov    0xc(%edi),%edx
    3893:	8b 4b 28             	mov    0x28(%ebx),%ecx
    3896:	83 ec 0c             	sub    $0xc,%esp
    3899:	0f b6 70 05          	movzbl 0x5(%eax),%esi
    389d:	89 55 c4             	mov    %edx,-0x3c(%ebp)
    38a0:	89 4d c8             	mov    %ecx,-0x38(%ebp)
    38a3:	31 d2                	xor    %edx,%edx
    38a5:	31 c9                	xor    %ecx,%ecx
    38a7:	8a 48 07             	mov    0x7(%eax),%cl
    38aa:	8a 50 06             	mov    0x6(%eax),%dl
    38ad:	81 e6 ff 00 00 00    	and    $0xff,%esi
    38b3:	89 4d d4             	mov    %ecx,-0x2c(%ebp)
    38b6:	56                   	push   %esi
    38b7:	89 55 d0             	mov    %edx,-0x30(%ebp)
    38ba:	e8 b1 27 00 00       	call   6070 <usb_str_class>
    38bf:	89 45 cc             	mov    %eax,-0x34(%ebp)
    38c2:	8b 47 2c             	mov    0x2c(%edi),%eax
    38c5:	0f b6 70 02          	movzbl 0x2(%eax),%esi
    38c9:	58                   	pop    %eax
    38ca:	8b 43 20             	mov    0x20(%ebx),%eax
    38cd:	50                   	push   %eax
    38ce:	e8 3d fe ff ff       	call   3710 <usb_device_get_name>
    38d3:	83 c4 0c             	add    $0xc,%esp
    38d6:	8b 55 c4             	mov    -0x3c(%ebp),%edx
    38d9:	8b 4d c8             	mov    -0x38(%ebp),%ecx
    38dc:	81 e6 ff 00 00 00    	and    $0xff,%esi
    38e2:	52                   	push   %edx
    38e3:	8b 55 d4             	mov    -0x2c(%ebp),%edx
    38e6:	51                   	push   %ecx
    38e7:	8b 4d d0             	mov    -0x30(%ebp),%ecx
    38ea:	52                   	push   %edx
    38eb:	8b 55 cc             	mov    -0x34(%ebp),%edx
    38ee:	51                   	push   %ecx
    38ef:	52                   	push   %edx
    38f0:	56                   	push   %esi
    38f1:	50                   	push   %eax
    38f2:	53                   	push   %ebx
    38f3:	68 54 03 01 00       	push   $0x10354
    38f8:	6a 04                	push   $0x4
    38fa:	6a ff                	push   $0xffffffff
    38fc:	e8 3f ec 00 00       	call   12540 <log_msg@plt>
    3901:	83 c4 30             	add    $0x30,%esp
    3904:	31 f6                	xor    %esi,%esi
    3906:	66 90                	xchg   %ax,%ax
    3908:	8d 45 e4             	lea    -0x1c(%ebp),%eax
    390b:	50                   	push   %eax
    390c:	8b 43 28             	mov    0x28(%ebx),%eax
    390f:	50                   	push   %eax
    3910:	8b 43 2c             	mov    0x2c(%ebx),%eax
    3913:	50                   	push   %eax
    3914:	57                   	push   %edi
    3915:	e8 96 09 00 00       	call   42b0 <usb_pipe_read>
    391a:	83 c4 10             	add    $0x10,%esp
    391d:	85 c0                	test   %eax,%eax
    391f:	75 67                	jne    3988 <polling_fibril+0x118>
    3921:	83 3b 01             	cmpl   $0x1,(%ebx)
    3924:	7e 26                	jle    394c <polling_fibril+0xdc>
    3926:	50                   	push   %eax
    3927:	8b 75 e4             	mov    -0x1c(%ebp),%esi
    392a:	8b 43 2c             	mov    0x2c(%ebx),%eax
    392d:	6a 10                	push   $0x10
    392f:	56                   	push   %esi
    3930:	50                   	push   %eax
    3931:	e8 7a 28 00 00       	call   61b0 <usb_debug_str_buffer>
    3936:	5a                   	pop    %edx
    3937:	59                   	pop    %ecx
    3938:	56                   	push   %esi
    3939:	50                   	push   %eax
    393a:	53                   	push   %ebx
    393b:	68 a0 03 01 00       	push   $0x103a0
    3940:	6a 04                	push   $0x4
    3942:	6a ff                	push   $0xffffffff
    3944:	e8 f7 eb 00 00       	call   12540 <log_msg@plt>
    3949:	83 c4 20             	add    $0x20,%esp
    394c:	8b 43 10             	mov    0x10(%ebx),%eax
    394f:	85 c0                	test   %eax,%eax
    3951:	0f 84 58 01 00 00    	je     3aaf <polling_fibril+0x23f>
    3957:	8b 53 1c             	mov    0x1c(%ebx),%edx
    395a:	8b 4d e4             	mov    -0x1c(%ebp),%ecx
    395d:	52                   	push   %edx
    395e:	51                   	push   %ecx
    395f:	8b 73 2c             	mov    0x2c(%ebx),%esi
    3962:	8b 53 20             	mov    0x20(%ebx),%edx
    3965:	56                   	push   %esi
    3966:	52                   	push   %edx
    3967:	ff d0                	call   *%eax
    3969:	83 c4 10             	add    $0x10,%esp
    396c:	84 c0                	test   %al,%al
    396e:	0f 84 34 01 00 00    	je     3aa8 <polling_fibril+0x238>
    3974:	83 ec 0c             	sub    $0xc,%esp
    3977:	8b 43 08             	mov    0x8(%ebx),%eax
    397a:	31 f6                	xor    %esi,%esi
    397c:	50                   	push   %eax
    397d:	e8 de ed 00 00       	call   12760 <async_usleep@plt>
    3982:	83 c4 10             	add    $0x10,%esp
    3985:	eb 81                	jmp    3908 <polling_fibril+0x98>
    3987:	90                   	nop
    3988:	83 ec 0c             	sub    $0xc,%esp
    398b:	89 45 d4             	mov    %eax,-0x2c(%ebp)
    398e:	50                   	push   %eax
    398f:	e8 4c ee 00 00       	call   127e0 <str_error@plt>
    3994:	89 04 24             	mov    %eax,(%esp)
    3997:	53                   	push   %ebx
    3998:	68 27 03 01 00       	push   $0x10327
    399d:	6a 04                	push   $0x4
    399f:	6a ff                	push   $0xffffffff
    39a1:	e8 9a eb 00 00       	call   12540 <log_msg@plt>
    39a6:	8b 55 d4             	mov    -0x2c(%ebp),%edx
    39a9:	83 c4 20             	add    $0x20,%esp
    39ac:	81 fa d3 fe ff ff    	cmp    $0xfffffed3,%edx
    39b2:	75 0a                	jne    39be <polling_fibril+0x14e>
    39b4:	80 7b 0c 00          	cmpb   $0x0,0xc(%ebx)
    39b8:	0f 85 9a 00 00 00    	jne    3a58 <polling_fibril+0x1e8>
    39be:	8b 43 18             	mov    0x18(%ebx),%eax
    39c1:	46                   	inc    %esi
    39c2:	85 c0                	test   %eax,%eax
    39c4:	0f 84 86 00 00 00    	je     3a50 <polling_fibril+0x1e0>
    39ca:	51                   	push   %ecx
    39cb:	8b 4b 1c             	mov    0x1c(%ebx),%ecx
    39ce:	51                   	push   %ecx
    39cf:	52                   	push   %edx
    39d0:	8b 53 20             	mov    0x20(%ebx),%edx
    39d3:	52                   	push   %edx
    39d4:	ff d0                	call   *%eax
    39d6:	83 c4 10             	add    $0x10,%esp
    39d9:	84 c0                	test   %al,%al
    39db:	75 73                	jne    3a50 <polling_fibril+0x1e0>
    39dd:	8b 73 04             	mov    0x4(%ebx),%esi
    39e0:	89 f0                	mov    %esi,%eax
    39e2:	39 c6                	cmp    %eax,%esi
    39e4:	0f 86 1e ff ff ff    	jbe    3908 <polling_fibril+0x98>
    39ea:	85 f6                	test   %esi,%esi
    39ec:	0f 95 c0             	setne  %al
    39ef:	8b 53 14             	mov    0x14(%ebx),%edx
    39f2:	85 d2                	test   %edx,%edx
    39f4:	74 14                	je     3a0a <polling_fibril+0x19a>
    39f6:	51                   	push   %ecx
    39f7:	25 ff 00 00 00       	and    $0xff,%eax
    39fc:	8b 7b 1c             	mov    0x1c(%ebx),%edi
    39ff:	57                   	push   %edi
    3a00:	50                   	push   %eax
    3a01:	8b 43 20             	mov    0x20(%ebx),%eax
    3a04:	50                   	push   %eax
    3a05:	ff d2                	call   *%edx
    3a07:	83 c4 10             	add    $0x10,%esp
    3a0a:	8b 3b                	mov    (%ebx),%edi
    3a0c:	85 ff                	test   %edi,%edi
    3a0e:	7e 22                	jle    3a32 <polling_fibril+0x1c2>
    3a10:	85 f6                	test   %esi,%esi
    3a12:	75 74                	jne    3a88 <polling_fibril+0x218>
    3a14:	83 ec 0c             	sub    $0xc,%esp
    3a17:	8b 53 20             	mov    0x20(%ebx),%edx
    3a1a:	52                   	push   %edx
    3a1b:	e8 f0 fc ff ff       	call   3710 <usb_device_get_name>
    3a20:	50                   	push   %eax
    3a21:	68 f8 03 01 00       	push   $0x103f8
    3a26:	6a 04                	push   $0x4
    3a28:	6a ff                	push   $0xffffffff
    3a2a:	e8 11 eb 00 00       	call   12540 <log_msg@plt>
    3a2f:	83 c4 20             	add    $0x20,%esp
    3a32:	83 ec 0c             	sub    $0xc,%esp
    3a35:	8b 43 2c             	mov    0x2c(%ebx),%eax
    3a38:	50                   	push   %eax
    3a39:	e8 a2 ee 00 00       	call   128e0 <free@plt>
    3a3e:	89 1c 24             	mov    %ebx,(%esp)
    3a41:	e8 9a ee 00 00       	call   128e0 <free@plt>
    3a46:	8d 65 f4             	lea    -0xc(%ebp),%esp
    3a49:	31 c0                	xor    %eax,%eax
    3a4b:	5b                   	pop    %ebx
    3a4c:	5e                   	pop    %esi
    3a4d:	5f                   	pop    %edi
    3a4e:	5d                   	pop    %ebp
    3a4f:	c3                   	ret    
    3a50:	8b 43 04             	mov    0x4(%ebx),%eax
    3a53:	eb 8d                	jmp    39e2 <polling_fibril+0x172>
    3a55:	8d 76 00             	lea    0x0(%esi),%esi
    3a58:	31 c9                	xor    %ecx,%ecx
    3a5a:	83 ec 0c             	sub    $0xc,%esp
    3a5d:	66 8b 0f             	mov    (%edi),%cx
    3a60:	89 55 d0             	mov    %edx,-0x30(%ebp)
    3a63:	89 4d d4             	mov    %ecx,-0x2c(%ebp)
    3a66:	8b 4b 20             	mov    0x20(%ebx),%ecx
    3a69:	51                   	push   %ecx
    3a6a:	e8 b1 f2 ff ff       	call   2d20 <usb_device_get_default_pipe>
    3a6f:	5a                   	pop    %edx
    3a70:	59                   	pop    %ecx
    3a71:	8b 4d d4             	mov    -0x2c(%ebp),%ecx
    3a74:	51                   	push   %ecx
    3a75:	50                   	push   %eax
    3a76:	e8 35 1d 00 00       	call   57b0 <usb_request_clear_endpoint_halt>
    3a7b:	83 c4 10             	add    $0x10,%esp
    3a7e:	8b 55 d0             	mov    -0x30(%ebp),%edx
    3a81:	e9 38 ff ff ff       	jmp    39be <polling_fibril+0x14e>
    3a86:	66 90                	xchg   %ax,%ax
    3a88:	83 ec 0c             	sub    $0xc,%esp
    3a8b:	8b 4b 20             	mov    0x20(%ebx),%ecx
    3a8e:	51                   	push   %ecx
    3a8f:	e8 7c fc ff ff       	call   3710 <usb_device_get_name>
    3a94:	50                   	push   %eax
    3a95:	68 c0 03 01 00       	push   $0x103c0
    3a9a:	6a 01                	push   $0x1
    3a9c:	6a ff                	push   $0xffffffff
    3a9e:	e8 9d ea 00 00       	call   12540 <log_msg@plt>
    3aa3:	83 c4 20             	add    $0x20,%esp
    3aa6:	eb 8a                	jmp    3a32 <polling_fibril+0x1c2>
    3aa8:	31 f6                	xor    %esi,%esi
    3aaa:	e9 40 ff ff ff       	jmp    39ef <polling_fibril+0x17f>
    3aaf:	51                   	push   %ecx
    3ab0:	68 8f 00 00 00       	push   $0x8f
    3ab5:	68 15 03 01 00       	push   $0x10315
    3aba:	68 44 03 01 00       	push   $0x10344
    3abf:	e8 dc ea 00 00       	call   125a0 <assert_abort@plt>
    3ac4:	53                   	push   %ebx
    3ac5:	6a 50                	push   $0x50
    3ac7:	68 15 03 01 00       	push   $0x10315
    3acc:	68 23 03 01 00       	push   $0x10323
    3ad1:	e8 ca ea 00 00       	call   125a0 <assert_abort@plt>
    3ad6:	8d 76 00             	lea    0x0(%esi),%esi
    3ad9:	8d bc 27 00 00 00 00 	lea    0x0(%edi,%eiz,1),%edi

00003ae0 <usb_device_auto_polling>:
    3ae0:	55                   	push   %ebp
    3ae1:	89 e5                	mov    %esp,%ebp
    3ae3:	57                   	push   %edi
    3ae4:	56                   	push   %esi
    3ae5:	53                   	push   %ebx
    3ae6:	83 ec 24             	sub    $0x24,%esp
    3ae9:	0f bf 45 0c          	movswl 0xc(%ebp),%eax
    3aed:	8b 75 08             	mov    0x8(%ebp),%esi
    3af0:	50                   	push   %eax
    3af1:	56                   	push   %esi
    3af2:	8b 7d 14             	mov    0x14(%ebp),%edi
    3af5:	e8 b6 f2 ff ff       	call   2db0 <usb_device_get_mapped_ep>
    3afa:	83 c4 10             	add    $0x10,%esp
    3afd:	85 f6                	test   %esi,%esi
    3aff:	0f 84 eb 00 00 00    	je     3bf0 <usb_device_auto_polling+0x110>
    3b05:	8b 55 10             	mov    0x10(%ebp),%edx
    3b08:	85 d2                	test   %edx,%edx
    3b0a:	0f 84 e0 00 00 00    	je     3bf0 <usb_device_auto_polling+0x110>
    3b10:	89 c2                	mov    %eax,%edx
    3b12:	8b 45 10             	mov    0x10(%ebp),%eax
    3b15:	8b 40 10             	mov    0x10(%eax),%eax
    3b18:	85 c0                	test   %eax,%eax
    3b1a:	0f 84 d0 00 00 00    	je     3bf0 <usb_device_auto_polling+0x110>
    3b20:	85 ff                	test   %edi,%edi
    3b22:	0f 84 b8 00 00 00    	je     3be0 <usb_device_auto_polling+0x100>
    3b28:	85 d2                	test   %edx,%edx
    3b2a:	0f 84 b0 00 00 00    	je     3be0 <usb_device_auto_polling+0x100>
    3b30:	83 7a 04 03          	cmpl   $0x3,0x4(%edx)
    3b34:	0f 85 a6 00 00 00    	jne    3be0 <usb_device_auto_polling+0x100>
    3b3a:	8b 5a 08             	mov    0x8(%edx),%ebx
    3b3d:	89 55 e4             	mov    %edx,-0x1c(%ebp)
    3b40:	85 db                	test   %ebx,%ebx
    3b42:	0f 85 98 00 00 00    	jne    3be0 <usb_device_auto_polling+0x100>
    3b48:	83 ec 0c             	sub    $0xc,%esp
    3b4b:	6a 30                	push   $0x30
    3b4d:	e8 5e e9 00 00       	call   124b0 <malloc@plt>
    3b52:	83 c4 10             	add    $0x10,%esp
    3b55:	89 c3                	mov    %eax,%ebx
    3b57:	85 c0                	test   %eax,%eax
    3b59:	0f 84 b9 00 00 00    	je     3c18 <usb_device_auto_polling+0x138>
    3b5f:	83 ec 0c             	sub    $0xc,%esp
    3b62:	6a 04                	push   $0x4
    3b64:	e8 47 e9 00 00       	call   124b0 <malloc@plt>
    3b69:	83 c4 10             	add    $0x10,%esp
    3b6c:	89 43 2c             	mov    %eax,0x2c(%ebx)
    3b6f:	85 c0                	test   %eax,%eax
    3b71:	8b 55 e4             	mov    -0x1c(%ebp),%edx
    3b74:	0f 84 a5 00 00 00    	je     3c1f <usb_device_auto_polling+0x13f>
    3b7a:	8b 45 10             	mov    0x10(%ebp),%eax
    3b7d:	89 7b 28             	mov    %edi,0x28(%ebx)
    3b80:	89 73 20             	mov    %esi,0x20(%ebx)
    3b83:	b9 08 00 00 00       	mov    $0x8,%ecx
    3b88:	89 df                	mov    %ebx,%edi
    3b8a:	8b 75 10             	mov    0x10(%ebp),%esi
    3b8d:	89 53 24             	mov    %edx,0x24(%ebx)
    3b90:	f3 a5                	rep movsl %ds:(%esi),%es:(%edi)
    3b92:	8b 48 08             	mov    0x8(%eax),%ecx
    3b95:	85 c9                	test   %ecx,%ecx
    3b97:	78 2f                	js     3bc8 <usb_device_auto_polling+0xe8>
    3b99:	52                   	push   %edx
    3b9a:	6a 00                	push   $0x0
    3b9c:	53                   	push   %ebx
    3b9d:	68 70 38 00 00       	push   $0x3870
    3ba2:	e8 c9 ec 00 00       	call   12870 <fibril_create_generic@plt>
    3ba7:	83 c4 10             	add    $0x10,%esp
    3baa:	85 c0                	test   %eax,%eax
    3bac:	74 4a                	je     3bf8 <usb_device_auto_polling+0x118>
    3bae:	83 ec 0c             	sub    $0xc,%esp
    3bb1:	50                   	push   %eax
    3bb2:	e8 c9 ec 00 00       	call   12880 <fibril_add_ready@plt>
    3bb7:	83 c4 10             	add    $0x10,%esp
    3bba:	31 c0                	xor    %eax,%eax
    3bbc:	8d 65 f4             	lea    -0xc(%ebp),%esp
    3bbf:	5b                   	pop    %ebx
    3bc0:	5e                   	pop    %esi
    3bc1:	5f                   	pop    %edi
    3bc2:	5d                   	pop    %ebp
    3bc3:	c3                   	ret    
    3bc4:	8d 74 26 00          	lea    0x0(%esi,%eiz,1),%esi
    3bc8:	8b 42 28             	mov    0x28(%edx),%eax
    3bcb:	8a 48 06             	mov    0x6(%eax),%cl
    3bce:	81 e1 ff 00 00 00    	and    $0xff,%ecx
    3bd4:	89 4b 08             	mov    %ecx,0x8(%ebx)
    3bd7:	eb c0                	jmp    3b99 <usb_device_auto_polling+0xb9>
    3bd9:	8d b4 26 00 00 00 00 	lea    0x0(%esi,%eiz,1),%esi
    3be0:	8d 65 f4             	lea    -0xc(%ebp),%esp
    3be3:	b8 f2 ff ff ff       	mov    $0xfffffff2,%eax
    3be8:	5b                   	pop    %ebx
    3be9:	5e                   	pop    %esi
    3bea:	5f                   	pop    %edi
    3beb:	5d                   	pop    %ebp
    3bec:	c3                   	ret    
    3bed:	8d 76 00             	lea    0x0(%esi),%esi
    3bf0:	b8 f6 ff ff ff       	mov    $0xfffffff6,%eax
    3bf5:	eb c5                	jmp    3bbc <usb_device_auto_polling+0xdc>
    3bf7:	90                   	nop
    3bf8:	83 ec 0c             	sub    $0xc,%esp
    3bfb:	8b 43 2c             	mov    0x2c(%ebx),%eax
    3bfe:	50                   	push   %eax
    3bff:	e8 dc ec 00 00       	call   128e0 <free@plt>
    3c04:	89 1c 24             	mov    %ebx,(%esp)
    3c07:	e8 d4 ec 00 00       	call   128e0 <free@plt>
    3c0c:	83 c4 10             	add    $0x10,%esp
    3c0f:	b8 fe ff ff ff       	mov    $0xfffffffe,%eax
    3c14:	eb a6                	jmp    3bbc <usb_device_auto_polling+0xdc>
    3c16:	66 90                	xchg   %ax,%ax
    3c18:	b8 fe ff ff ff       	mov    $0xfffffffe,%eax
    3c1d:	eb 9d                	jmp    3bbc <usb_device_auto_polling+0xdc>
    3c1f:	83 ec 0c             	sub    $0xc,%esp
    3c22:	53                   	push   %ebx
    3c23:	e8 b8 ec 00 00       	call   128e0 <free@plt>
    3c28:	83 c4 10             	add    $0x10,%esp
    3c2b:	b8 fe ff ff ff       	mov    $0xfffffffe,%eax
    3c30:	eb 8a                	jmp    3bbc <usb_device_auto_polling+0xdc>
    3c32:	8d b4 26 00 00 00 00 	lea    0x0(%esi,%eiz,1),%esi
    3c39:	8d bc 27 00 00 00 00 	lea    0x0(%edi,%eiz,1),%edi

00003c40 <usb_device_auto_poll>:
    3c40:	55                   	push   %ebp
    3c41:	89 e5                	mov    %esp,%ebp
    3c43:	57                   	push   %edi
    3c44:	56                   	push   %esi
    3c45:	53                   	push   %ebx
    3c46:	83 ec 14             	sub    $0x14,%esp
    3c49:	0f bf 45 0c          	movswl 0xc(%ebp),%eax
    3c4d:	8b 5d 08             	mov    0x8(%ebp),%ebx
    3c50:	50                   	push   %eax
    3c51:	53                   	push   %ebx
    3c52:	e8 59 f1 ff ff       	call   2db0 <usb_device_get_mapped_ep>
    3c57:	83 c4 10             	add    $0x10,%esp
    3c5a:	85 db                	test   %ebx,%ebx
    3c5c:	0f 84 25 01 00 00    	je     3d87 <usb_device_auto_poll+0x147>
    3c62:	8b 55 10             	mov    0x10(%ebp),%edx
    3c65:	85 d2                	test   %edx,%edx
    3c67:	0f 84 1a 01 00 00    	je     3d87 <usb_device_auto_poll+0x147>
    3c6d:	89 c6                	mov    %eax,%esi
    3c6f:	85 c0                	test   %eax,%eax
    3c71:	0f 84 d9 00 00 00    	je     3d50 <usb_device_auto_poll+0x110>
    3c77:	8b 45 14             	mov    0x14(%ebp),%eax
    3c7a:	85 c0                	test   %eax,%eax
    3c7c:	0f 84 ce 00 00 00    	je     3d50 <usb_device_auto_poll+0x110>
    3c82:	83 7e 04 03          	cmpl   $0x3,0x4(%esi)
    3c86:	0f 85 c4 00 00 00    	jne    3d50 <usb_device_auto_poll+0x110>
    3c8c:	8b 7e 08             	mov    0x8(%esi),%edi
    3c8f:	85 ff                	test   %edi,%edi
    3c91:	0f 85 b9 00 00 00    	jne    3d50 <usb_device_auto_poll+0x110>
    3c97:	83 ec 0c             	sub    $0xc,%esp
    3c9a:	6a 30                	push   $0x30
    3c9c:	e8 0f e8 00 00       	call   124b0 <malloc@plt>
    3ca1:	83 c4 10             	add    $0x10,%esp
    3ca4:	89 c7                	mov    %eax,%edi
    3ca6:	85 c0                	test   %eax,%eax
    3ca8:	0f 84 d2 00 00 00    	je     3d80 <usb_device_auto_poll+0x140>
    3cae:	83 ec 0c             	sub    $0xc,%esp
    3cb1:	6a 04                	push   $0x4
    3cb3:	e8 f8 e7 00 00       	call   124b0 <malloc@plt>
    3cb8:	83 c4 10             	add    $0x10,%esp
    3cbb:	89 47 2c             	mov    %eax,0x2c(%edi)
    3cbe:	85 c0                	test   %eax,%eax
    3cc0:	0f 84 c8 00 00 00    	je     3d8e <usb_device_auto_poll+0x14e>
    3cc6:	8b 45 14             	mov    0x14(%ebp),%eax
    3cc9:	8b 4d 18             	mov    0x18(%ebp),%ecx
    3ccc:	89 47 28             	mov    %eax,0x28(%edi)
    3ccf:	8b 45 18             	mov    0x18(%ebp),%eax
    3cd2:	89 47 08             	mov    %eax,0x8(%edi)
    3cd5:	8b 45 10             	mov    0x10(%ebp),%eax
    3cd8:	89 47 10             	mov    %eax,0x10(%edi)
    3cdb:	8b 45 1c             	mov    0x1c(%ebp),%eax
    3cde:	89 47 14             	mov    %eax,0x14(%edi)
    3ce1:	8b 45 20             	mov    0x20(%ebp),%eax
    3ce4:	89 5f 20             	mov    %ebx,0x20(%edi)
    3ce7:	89 77 24             	mov    %esi,0x24(%edi)
    3cea:	c7 07 01 00 00 00    	movl   $0x1,(%edi)
    3cf0:	c7 47 04 03 00 00 00 	movl   $0x3,0x4(%edi)
    3cf7:	c6 47 0c 01          	movb   $0x1,0xc(%edi)
    3cfb:	c7 47 18 00 00 00 00 	movl   $0x0,0x18(%edi)
    3d02:	89 47 1c             	mov    %eax,0x1c(%edi)
    3d05:	85 c9                	test   %ecx,%ecx
    3d07:	78 2f                	js     3d38 <usb_device_auto_poll+0xf8>
    3d09:	52                   	push   %edx
    3d0a:	6a 00                	push   $0x0
    3d0c:	57                   	push   %edi
    3d0d:	68 70 38 00 00       	push   $0x3870
    3d12:	e8 59 eb 00 00       	call   12870 <fibril_create_generic@plt>
    3d17:	83 c4 10             	add    $0x10,%esp
    3d1a:	85 c0                	test   %eax,%eax
    3d1c:	74 42                	je     3d60 <usb_device_auto_poll+0x120>
    3d1e:	83 ec 0c             	sub    $0xc,%esp
    3d21:	50                   	push   %eax
    3d22:	e8 59 eb 00 00       	call   12880 <fibril_add_ready@plt>
    3d27:	83 c4 10             	add    $0x10,%esp
    3d2a:	31 c0                	xor    %eax,%eax
    3d2c:	8d 65 f4             	lea    -0xc(%ebp),%esp
    3d2f:	5b                   	pop    %ebx
    3d30:	5e                   	pop    %esi
    3d31:	5f                   	pop    %edi
    3d32:	5d                   	pop    %ebp
    3d33:	c3                   	ret    
    3d34:	8d 74 26 00          	lea    0x0(%esi,%eiz,1),%esi
    3d38:	8b 46 28             	mov    0x28(%esi),%eax
    3d3b:	8a 50 06             	mov    0x6(%eax),%dl
    3d3e:	81 e2 ff 00 00 00    	and    $0xff,%edx
    3d44:	89 57 08             	mov    %edx,0x8(%edi)
    3d47:	eb c0                	jmp    3d09 <usb_device_auto_poll+0xc9>
    3d49:	8d b4 26 00 00 00 00 	lea    0x0(%esi,%eiz,1),%esi
    3d50:	8d 65 f4             	lea    -0xc(%ebp),%esp
    3d53:	b8 f2 ff ff ff       	mov    $0xfffffff2,%eax
    3d58:	5b                   	pop    %ebx
    3d59:	5e                   	pop    %esi
    3d5a:	5f                   	pop    %edi
    3d5b:	5d                   	pop    %ebp
    3d5c:	c3                   	ret    
    3d5d:	8d 76 00             	lea    0x0(%esi),%esi
    3d60:	83 ec 0c             	sub    $0xc,%esp
    3d63:	8b 47 2c             	mov    0x2c(%edi),%eax
    3d66:	50                   	push   %eax
    3d67:	e8 74 eb 00 00       	call   128e0 <free@plt>
    3d6c:	89 3c 24             	mov    %edi,(%esp)
    3d6f:	e8 6c eb 00 00       	call   128e0 <free@plt>
    3d74:	83 c4 10             	add    $0x10,%esp
    3d77:	b8 fe ff ff ff       	mov    $0xfffffffe,%eax
    3d7c:	eb ae                	jmp    3d2c <usb_device_auto_poll+0xec>
    3d7e:	66 90                	xchg   %ax,%ax
    3d80:	b8 fe ff ff ff       	mov    $0xfffffffe,%eax
    3d85:	eb a5                	jmp    3d2c <usb_device_auto_poll+0xec>
    3d87:	b8 f6 ff ff ff       	mov    $0xfffffff6,%eax
    3d8c:	eb 9e                	jmp    3d2c <usb_device_auto_poll+0xec>
    3d8e:	83 ec 0c             	sub    $0xc,%esp
    3d91:	57                   	push   %edi
    3d92:	e8 49 eb 00 00       	call   128e0 <free@plt>
    3d97:	83 c4 10             	add    $0x10,%esp
    3d9a:	b8 fe ff ff ff       	mov    $0xfffffffe,%eax
    3d9f:	eb 8b                	jmp    3d2c <usb_device_auto_poll+0xec>
    3da1:	eb 0d                	jmp    3db0 <usb_device_auto_polling_desc>
    3da3:	90                   	nop
    3da4:	90                   	nop
    3da5:	90                   	nop
    3da6:	90                   	nop
    3da7:	90                   	nop
    3da8:	90                   	nop
    3da9:	90                   	nop
    3daa:	90                   	nop
    3dab:	90                   	nop
    3dac:	90                   	nop
    3dad:	90                   	nop
    3dae:	90                   	nop
    3daf:	90                   	nop

00003db0 <usb_device_auto_polling_desc>:
    3db0:	55                   	push   %ebp
    3db1:	89 e5                	mov    %esp,%ebp
    3db3:	57                   	push   %edi
    3db4:	56                   	push   %esi
    3db5:	53                   	push   %ebx
    3db6:	83 ec 24             	sub    $0x24,%esp
    3db9:	8b 75 08             	mov    0x8(%ebp),%esi
    3dbc:	8b 4d 0c             	mov    0xc(%ebp),%ecx
    3dbf:	51                   	push   %ecx
    3dc0:	56                   	push   %esi
    3dc1:	8b 7d 14             	mov    0x14(%ebp),%edi
    3dc4:	e8 87 ef ff ff       	call   2d50 <usb_device_get_mapped_ep_desc>
    3dc9:	83 c4 10             	add    $0x10,%esp
    3dcc:	85 f6                	test   %esi,%esi
    3dce:	0f 84 ec 00 00 00    	je     3ec0 <usb_device_auto_polling_desc+0x110>
    3dd4:	8b 55 10             	mov    0x10(%ebp),%edx
    3dd7:	85 d2                	test   %edx,%edx
    3dd9:	0f 84 e1 00 00 00    	je     3ec0 <usb_device_auto_polling_desc+0x110>
    3ddf:	89 c2                	mov    %eax,%edx
    3de1:	8b 45 10             	mov    0x10(%ebp),%eax
    3de4:	8b 40 10             	mov    0x10(%eax),%eax
    3de7:	85 c0                	test   %eax,%eax
    3de9:	0f 84 d1 00 00 00    	je     3ec0 <usb_device_auto_polling_desc+0x110>
    3def:	85 ff                	test   %edi,%edi
    3df1:	0f 84 b9 00 00 00    	je     3eb0 <usb_device_auto_polling_desc+0x100>
    3df7:	85 d2                	test   %edx,%edx
    3df9:	0f 84 b1 00 00 00    	je     3eb0 <usb_device_auto_polling_desc+0x100>
    3dff:	83 7a 04 03          	cmpl   $0x3,0x4(%edx)
    3e03:	0f 85 a7 00 00 00    	jne    3eb0 <usb_device_auto_polling_desc+0x100>
    3e09:	8b 5a 08             	mov    0x8(%edx),%ebx
    3e0c:	89 55 e4             	mov    %edx,-0x1c(%ebp)
    3e0f:	85 db                	test   %ebx,%ebx
    3e11:	0f 85 99 00 00 00    	jne    3eb0 <usb_device_auto_polling_desc+0x100>
    3e17:	83 ec 0c             	sub    $0xc,%esp
    3e1a:	6a 30                	push   $0x30
    3e1c:	e8 8f e6 00 00       	call   124b0 <malloc@plt>
    3e21:	83 c4 10             	add    $0x10,%esp
    3e24:	89 c3                	mov    %eax,%ebx
    3e26:	85 c0                	test   %eax,%eax
    3e28:	0f 84 ba 00 00 00    	je     3ee8 <usb_device_auto_polling_desc+0x138>
    3e2e:	83 ec 0c             	sub    $0xc,%esp
    3e31:	6a 04                	push   $0x4
    3e33:	e8 78 e6 00 00       	call   124b0 <malloc@plt>
    3e38:	83 c4 10             	add    $0x10,%esp
    3e3b:	89 43 2c             	mov    %eax,0x2c(%ebx)
    3e3e:	85 c0                	test   %eax,%eax
    3e40:	8b 55 e4             	mov    -0x1c(%ebp),%edx
    3e43:	0f 84 a6 00 00 00    	je     3eef <usb_device_auto_polling_desc+0x13f>
    3e49:	8b 45 10             	mov    0x10(%ebp),%eax
    3e4c:	89 7b 28             	mov    %edi,0x28(%ebx)
    3e4f:	89 73 20             	mov    %esi,0x20(%ebx)
    3e52:	b9 08 00 00 00       	mov    $0x8,%ecx
    3e57:	89 df                	mov    %ebx,%edi
    3e59:	8b 75 10             	mov    0x10(%ebp),%esi
    3e5c:	89 53 24             	mov    %edx,0x24(%ebx)
    3e5f:	f3 a5                	rep movsl %ds:(%esi),%es:(%edi)
    3e61:	8b 48 08             	mov    0x8(%eax),%ecx
    3e64:	85 c9                	test   %ecx,%ecx
    3e66:	78 30                	js     3e98 <usb_device_auto_polling_desc+0xe8>
    3e68:	52                   	push   %edx
    3e69:	6a 00                	push   $0x0
    3e6b:	53                   	push   %ebx
    3e6c:	68 70 38 00 00       	push   $0x3870
    3e71:	e8 fa e9 00 00       	call   12870 <fibril_create_generic@plt>
    3e76:	83 c4 10             	add    $0x10,%esp
    3e79:	85 c0                	test   %eax,%eax
    3e7b:	74 4b                	je     3ec8 <usb_device_auto_polling_desc+0x118>
    3e7d:	83 ec 0c             	sub    $0xc,%esp
    3e80:	50                   	push   %eax
    3e81:	e8 fa e9 00 00       	call   12880 <fibril_add_ready@plt>
    3e86:	83 c4 10             	add    $0x10,%esp
    3e89:	31 c0                	xor    %eax,%eax
    3e8b:	8d 65 f4             	lea    -0xc(%ebp),%esp
    3e8e:	5b                   	pop    %ebx
    3e8f:	5e                   	pop    %esi
    3e90:	5f                   	pop    %edi
    3e91:	5d                   	pop    %ebp
    3e92:	c3                   	ret    
    3e93:	90                   	nop
    3e94:	8d 74 26 00          	lea    0x0(%esi,%eiz,1),%esi
    3e98:	8b 42 28             	mov    0x28(%edx),%eax
    3e9b:	8a 48 06             	mov    0x6(%eax),%cl
    3e9e:	81 e1 ff 00 00 00    	and    $0xff,%ecx
    3ea4:	89 4b 08             	mov    %ecx,0x8(%ebx)
    3ea7:	eb bf                	jmp    3e68 <usb_device_auto_polling_desc+0xb8>
    3ea9:	8d b4 26 00 00 00 00 	lea    0x0(%esi,%eiz,1),%esi
    3eb0:	8d 65 f4             	lea    -0xc(%ebp),%esp
    3eb3:	b8 f2 ff ff ff       	mov    $0xfffffff2,%eax
    3eb8:	5b                   	pop    %ebx
    3eb9:	5e                   	pop    %esi
    3eba:	5f                   	pop    %edi
    3ebb:	5d                   	pop    %ebp
    3ebc:	c3                   	ret    
    3ebd:	8d 76 00             	lea    0x0(%esi),%esi
    3ec0:	b8 f6 ff ff ff       	mov    $0xfffffff6,%eax
    3ec5:	eb c4                	jmp    3e8b <usb_device_auto_polling_desc+0xdb>
    3ec7:	90                   	nop
    3ec8:	83 ec 0c             	sub    $0xc,%esp
    3ecb:	8b 43 2c             	mov    0x2c(%ebx),%eax
    3ece:	50                   	push   %eax
    3ecf:	e8 0c ea 00 00       	call   128e0 <free@plt>
    3ed4:	89 1c 24             	mov    %ebx,(%esp)
    3ed7:	e8 04 ea 00 00       	call   128e0 <free@plt>
    3edc:	83 c4 10             	add    $0x10,%esp
    3edf:	b8 fe ff ff ff       	mov    $0xfffffffe,%eax
    3ee4:	eb a5                	jmp    3e8b <usb_device_auto_polling_desc+0xdb>
    3ee6:	66 90                	xchg   %ax,%ax
    3ee8:	b8 fe ff ff ff       	mov    $0xfffffffe,%eax
    3eed:	eb 9c                	jmp    3e8b <usb_device_auto_polling_desc+0xdb>
    3eef:	83 ec 0c             	sub    $0xc,%esp
    3ef2:	53                   	push   %ebx
    3ef3:	e8 e8 e9 00 00       	call   128e0 <free@plt>
    3ef8:	83 c4 10             	add    $0x10,%esp
    3efb:	b8 fe ff ff ff       	mov    $0xfffffffe,%eax
    3f00:	eb 89                	jmp    3e8b <usb_device_auto_polling_desc+0xdb>
    3f02:	8d b4 26 00 00 00 00 	lea    0x0(%esi,%eiz,1),%esi
    3f09:	8d bc 27 00 00 00 00 	lea    0x0(%edi,%eiz,1),%edi

00003f10 <usb_device_auto_poll_desc>:
    3f10:	55                   	push   %ebp
    3f11:	89 e5                	mov    %esp,%ebp
    3f13:	57                   	push   %edi
    3f14:	56                   	push   %esi
    3f15:	53                   	push   %ebx
    3f16:	83 ec 14             	sub    $0x14,%esp
    3f19:	8b 5d 08             	mov    0x8(%ebp),%ebx
    3f1c:	8b 4d 0c             	mov    0xc(%ebp),%ecx
    3f1f:	51                   	push   %ecx
    3f20:	53                   	push   %ebx
    3f21:	e8 2a ee ff ff       	call   2d50 <usb_device_get_mapped_ep_desc>
    3f26:	83 c4 10             	add    $0x10,%esp
    3f29:	85 db                	test   %ebx,%ebx
    3f2b:	0f 84 26 01 00 00    	je     4057 <usb_device_auto_poll_desc+0x147>
    3f31:	8b 55 10             	mov    0x10(%ebp),%edx
    3f34:	85 d2                	test   %edx,%edx
    3f36:	0f 84 1b 01 00 00    	je     4057 <usb_device_auto_poll_desc+0x147>
    3f3c:	89 c6                	mov    %eax,%esi
    3f3e:	85 c0                	test   %eax,%eax
    3f40:	0f 84 da 00 00 00    	je     4020 <usb_device_auto_poll_desc+0x110>
    3f46:	8b 45 14             	mov    0x14(%ebp),%eax
    3f49:	85 c0                	test   %eax,%eax
    3f4b:	0f 84 cf 00 00 00    	je     4020 <usb_device_auto_poll_desc+0x110>
    3f51:	83 7e 04 03          	cmpl   $0x3,0x4(%esi)
    3f55:	0f 85 c5 00 00 00    	jne    4020 <usb_device_auto_poll_desc+0x110>
    3f5b:	8b 7e 08             	mov    0x8(%esi),%edi
    3f5e:	85 ff                	test   %edi,%edi
    3f60:	0f 85 ba 00 00 00    	jne    4020 <usb_device_auto_poll_desc+0x110>
    3f66:	83 ec 0c             	sub    $0xc,%esp
    3f69:	6a 30                	push   $0x30
    3f6b:	e8 40 e5 00 00       	call   124b0 <malloc@plt>
    3f70:	83 c4 10             	add    $0x10,%esp
    3f73:	89 c7                	mov    %eax,%edi
    3f75:	85 c0                	test   %eax,%eax
    3f77:	0f 84 d3 00 00 00    	je     4050 <usb_device_auto_poll_desc+0x140>
    3f7d:	83 ec 0c             	sub    $0xc,%esp
    3f80:	6a 04                	push   $0x4
    3f82:	e8 29 e5 00 00       	call   124b0 <malloc@plt>
    3f87:	83 c4 10             	add    $0x10,%esp
    3f8a:	89 47 2c             	mov    %eax,0x2c(%edi)
    3f8d:	85 c0                	test   %eax,%eax
    3f8f:	0f 84 c9 00 00 00    	je     405e <usb_device_auto_poll_desc+0x14e>
    3f95:	8b 45 14             	mov    0x14(%ebp),%eax
    3f98:	8b 4d 18             	mov    0x18(%ebp),%ecx
    3f9b:	89 47 28             	mov    %eax,0x28(%edi)
    3f9e:	8b 45 18             	mov    0x18(%ebp),%eax
    3fa1:	89 47 08             	mov    %eax,0x8(%edi)
    3fa4:	8b 45 10             	mov    0x10(%ebp),%eax
    3fa7:	89 47 10             	mov    %eax,0x10(%edi)
    3faa:	8b 45 1c             	mov    0x1c(%ebp),%eax
    3fad:	89 47 14             	mov    %eax,0x14(%edi)
    3fb0:	8b 45 20             	mov    0x20(%ebp),%eax
    3fb3:	89 5f 20             	mov    %ebx,0x20(%edi)
    3fb6:	89 77 24             	mov    %esi,0x24(%edi)
    3fb9:	c7 07 01 00 00 00    	movl   $0x1,(%edi)
    3fbf:	c7 47 04 03 00 00 00 	movl   $0x3,0x4(%edi)
    3fc6:	c6 47 0c 01          	movb   $0x1,0xc(%edi)
    3fca:	c7 47 18 00 00 00 00 	movl   $0x0,0x18(%edi)
    3fd1:	89 47 1c             	mov    %eax,0x1c(%edi)
    3fd4:	85 c9                	test   %ecx,%ecx
    3fd6:	78 30                	js     4008 <usb_device_auto_poll_desc+0xf8>
    3fd8:	52                   	push   %edx
    3fd9:	6a 00                	push   $0x0
    3fdb:	57                   	push   %edi
    3fdc:	68 70 38 00 00       	push   $0x3870
    3fe1:	e8 8a e8 00 00       	call   12870 <fibril_create_generic@plt>
    3fe6:	83 c4 10             	add    $0x10,%esp
    3fe9:	85 c0                	test   %eax,%eax
    3feb:	74 43                	je     4030 <usb_device_auto_poll_desc+0x120>
    3fed:	83 ec 0c             	sub    $0xc,%esp
    3ff0:	50                   	push   %eax
    3ff1:	e8 8a e8 00 00       	call   12880 <fibril_add_ready@plt>
    3ff6:	83 c4 10             	add    $0x10,%esp
    3ff9:	31 c0                	xor    %eax,%eax
    3ffb:	8d 65 f4             	lea    -0xc(%ebp),%esp
    3ffe:	5b                   	pop    %ebx
    3fff:	5e                   	pop    %esi
    4000:	5f                   	pop    %edi
    4001:	5d                   	pop    %ebp
    4002:	c3                   	ret    
    4003:	90                   	nop
    4004:	8d 74 26 00          	lea    0x0(%esi,%eiz,1),%esi
    4008:	8b 46 28             	mov    0x28(%esi),%eax
    400b:	8a 50 06             	mov    0x6(%eax),%dl
    400e:	81 e2 ff 00 00 00    	and    $0xff,%edx
    4014:	89 57 08             	mov    %edx,0x8(%edi)
    4017:	eb bf                	jmp    3fd8 <usb_device_auto_poll_desc+0xc8>
    4019:	8d b4 26 00 00 00 00 	lea    0x0(%esi,%eiz,1),%esi
    4020:	8d 65 f4             	lea    -0xc(%ebp),%esp
    4023:	b8 f2 ff ff ff       	mov    $0xfffffff2,%eax
    4028:	5b                   	pop    %ebx
    4029:	5e                   	pop    %esi
    402a:	5f                   	pop    %edi
    402b:	5d                   	pop    %ebp
    402c:	c3                   	ret    
    402d:	8d 76 00             	lea    0x0(%esi),%esi
    4030:	83 ec 0c             	sub    $0xc,%esp
    4033:	8b 47 2c             	mov    0x2c(%edi),%eax
    4036:	50                   	push   %eax
    4037:	e8 a4 e8 00 00       	call   128e0 <free@plt>
    403c:	89 3c 24             	mov    %edi,(%esp)
    403f:	e8 9c e8 00 00       	call   128e0 <free@plt>
    4044:	83 c4 10             	add    $0x10,%esp
    4047:	b8 fe ff ff ff       	mov    $0xfffffffe,%eax
    404c:	eb ad                	jmp    3ffb <usb_device_auto_poll_desc+0xeb>
    404e:	66 90                	xchg   %ax,%ax
    4050:	b8 fe ff ff ff       	mov    $0xfffffffe,%eax
    4055:	eb a4                	jmp    3ffb <usb_device_auto_poll_desc+0xeb>
    4057:	b8 f6 ff ff ff       	mov    $0xfffffff6,%eax
    405c:	eb 9d                	jmp    3ffb <usb_device_auto_poll_desc+0xeb>
    405e:	83 ec 0c             	sub    $0xc,%esp
    4061:	57                   	push   %edi
    4062:	e8 79 e8 00 00       	call   128e0 <free@plt>
    4067:	83 c4 10             	add    $0x10,%esp
    406a:	b8 fe ff ff ff       	mov    $0xfffffffe,%eax
    406f:	eb 8a                	jmp    3ffb <usb_device_auto_poll_desc+0xeb>
    4071:	66 90                	xchg   %ax,%ax
    4073:	66 90                	xchg   %ax,%ax
    4075:	66 90                	xchg   %ax,%ax
    4077:	66 90                	xchg   %ax,%ax
    4079:	66 90                	xchg   %ax,%ax
    407b:	66 90                	xchg   %ax,%ax
    407d:	66 90                	xchg   %ax,%ax
    407f:	90                   	nop

00004080 <usb_pipe_control_read>:
    4080:	55                   	push   %ebp
    4081:	89 e5                	mov    %esp,%ebp
    4083:	57                   	push   %edi
    4084:	56                   	push   %esi
    4085:	53                   	push   %ebx
    4086:	83 ec 2c             	sub    $0x2c,%esp
    4089:	8b 5d 08             	mov    0x8(%ebp),%ebx
    408c:	8b 45 0c             	mov    0xc(%ebp),%eax
    408f:	8b 75 14             	mov    0x14(%ebp),%esi
    4092:	85 db                	test   %ebx,%ebx
    4094:	0f 84 f5 00 00 00    	je     418f <usb_pipe_control_read+0x10f>
    409a:	85 c0                	test   %eax,%eax
    409c:	0f 84 ce 00 00 00    	je     4170 <usb_pipe_control_read+0xf0>
    40a2:	83 7d 10 08          	cmpl   $0x8,0x10(%ebp)
    40a6:	0f 85 c4 00 00 00    	jne    4170 <usb_pipe_control_read+0xf0>
    40ac:	85 f6                	test   %esi,%esi
    40ae:	0f 84 bc 00 00 00    	je     4170 <usb_pipe_control_read+0xf0>
    40b4:	8b 4d 18             	mov    0x18(%ebp),%ecx
    40b7:	85 c9                	test   %ecx,%ecx
    40b9:	0f 84 b1 00 00 00    	je     4170 <usb_pipe_control_read+0xf0>
    40bf:	83 7b 08 02          	cmpl   $0x2,0x8(%ebx)
    40c3:	75 7b                	jne    4140 <usb_pipe_control_read+0xc0>
    40c5:	8b 53 04             	mov    0x4(%ebx),%edx
    40c8:	85 d2                	test   %edx,%edx
    40ca:	75 74                	jne    4140 <usb_pipe_control_read+0xc0>
    40cc:	57                   	push   %edi
    40cd:	6a 08                	push   $0x8
    40cf:	50                   	push   %eax
    40d0:	8d 45 e0             	lea    -0x20(%ebp),%eax
    40d3:	50                   	push   %eax
    40d4:	e8 c7 e3 00 00       	call   124a0 <memcpy@plt>
    40d9:	58                   	pop    %eax
    40da:	8b 43 18             	mov    0x18(%ebx),%eax
    40dd:	50                   	push   %eax
    40de:	e8 ed e6 00 00       	call   127d0 <async_exchange_begin@plt>
    40e3:	83 c4 0c             	add    $0xc,%esp
    40e6:	89 c7                	mov    %eax,%edi
    40e8:	8d 45 dc             	lea    -0x24(%ebp),%eax
    40eb:	c7 45 dc 00 00 00 00 	movl   $0x0,-0x24(%ebp)
    40f2:	50                   	push   %eax
    40f3:	8b 45 18             	mov    0x18(%ebp),%eax
    40f6:	50                   	push   %eax
    40f7:	8b 45 e4             	mov    -0x1c(%ebp),%eax
    40fa:	56                   	push   %esi
    40fb:	50                   	push   %eax
    40fc:	8b 45 e0             	mov    -0x20(%ebp),%eax
    40ff:	50                   	push   %eax
    4100:	0f bf 03             	movswl (%ebx),%eax
    4103:	50                   	push   %eax
    4104:	57                   	push   %edi
    4105:	e8 06 98 00 00       	call   d910 <usb_read>
    410a:	83 c4 14             	add    $0x14,%esp
    410d:	89 45 d4             	mov    %eax,-0x2c(%ebp)
    4110:	57                   	push   %edi
    4111:	e8 7a e4 00 00       	call   12590 <async_exchange_end@plt>
    4116:	8b 45 d4             	mov    -0x2c(%ebp),%eax
    4119:	83 c4 10             	add    $0x10,%esp
    411c:	3d d3 fe ff ff       	cmp    $0xfffffed3,%eax
    4121:	74 2d                	je     4150 <usb_pipe_control_read+0xd0>
    4123:	85 c0                	test   %eax,%eax
    4125:	75 0f                	jne    4136 <usb_pipe_control_read+0xb6>
    4127:	8b 55 1c             	mov    0x1c(%ebp),%edx
    412a:	85 d2                	test   %edx,%edx
    412c:	74 08                	je     4136 <usb_pipe_control_read+0xb6>
    412e:	8b 4d 1c             	mov    0x1c(%ebp),%ecx
    4131:	8b 55 dc             	mov    -0x24(%ebp),%edx
    4134:	89 11                	mov    %edx,(%ecx)
    4136:	8d 65 f4             	lea    -0xc(%ebp),%esp
    4139:	5b                   	pop    %ebx
    413a:	5e                   	pop    %esi
    413b:	5f                   	pop    %edi
    413c:	5d                   	pop    %ebp
    413d:	c3                   	ret    
    413e:	66 90                	xchg   %ax,%ax
    4140:	8d 65 f4             	lea    -0xc(%ebp),%esp
    4143:	b8 fa fe ff ff       	mov    $0xfffffefa,%eax
    4148:	5b                   	pop    %ebx
    4149:	5e                   	pop    %esi
    414a:	5f                   	pop    %edi
    414b:	5d                   	pop    %ebp
    414c:	c3                   	ret    
    414d:	8d 76 00             	lea    0x0(%esi),%esi
    4150:	80 7b 14 00          	cmpb   $0x0,0x14(%ebx)
    4154:	74 06                	je     415c <usb_pipe_control_read+0xdc>
    4156:	66 83 3b 00          	cmpw   $0x0,(%ebx)
    415a:	74 1c                	je     4178 <usb_pipe_control_read+0xf8>
    415c:	8d 65 f4             	lea    -0xc(%ebp),%esp
    415f:	b8 d3 fe ff ff       	mov    $0xfffffed3,%eax
    4164:	5b                   	pop    %ebx
    4165:	5e                   	pop    %esi
    4166:	5f                   	pop    %edi
    4167:	5d                   	pop    %ebp
    4168:	c3                   	ret    
    4169:	8d b4 26 00 00 00 00 	lea    0x0(%esi,%eiz,1),%esi
    4170:	b8 f2 ff ff ff       	mov    $0xfffffff2,%eax
    4175:	eb bf                	jmp    4136 <usb_pipe_control_read+0xb6>
    4177:	90                   	nop
    4178:	c6 43 14 00          	movb   $0x0,0x14(%ebx)
    417c:	51                   	push   %ecx
    417d:	51                   	push   %ecx
    417e:	6a 00                	push   $0x0
    4180:	53                   	push   %ebx
    4181:	e8 2a 16 00 00       	call   57b0 <usb_request_clear_endpoint_halt>
    4186:	c6 43 14 01          	movb   $0x1,0x14(%ebx)
    418a:	83 c4 10             	add    $0x10,%esp
    418d:	eb cd                	jmp    415c <usb_pipe_control_read+0xdc>
    418f:	53                   	push   %ebx
    4190:	6a 50                	push   $0x50
    4192:	68 2c 04 01 00       	push   $0x1042c
    4197:	68 38 04 01 00       	push   $0x10438
    419c:	e8 ff e3 00 00       	call   125a0 <assert_abort@plt>
    41a1:	eb 0d                	jmp    41b0 <usb_pipe_control_write>
    41a3:	90                   	nop
    41a4:	90                   	nop
    41a5:	90                   	nop
    41a6:	90                   	nop
    41a7:	90                   	nop
    41a8:	90                   	nop
    41a9:	90                   	nop
    41aa:	90                   	nop
    41ab:	90                   	nop
    41ac:	90                   	nop
    41ad:	90                   	nop
    41ae:	90                   	nop
    41af:	90                   	nop

000041b0 <usb_pipe_control_write>:
    41b0:	55                   	push   %ebp
    41b1:	89 e5                	mov    %esp,%ebp
    41b3:	57                   	push   %edi
    41b4:	56                   	push   %esi
    41b5:	53                   	push   %ebx
    41b6:	83 ec 1c             	sub    $0x1c,%esp
    41b9:	8b 5d 08             	mov    0x8(%ebp),%ebx
    41bc:	8b 45 0c             	mov    0xc(%ebp),%eax
    41bf:	8b 75 14             	mov    0x14(%ebp),%esi
    41c2:	85 db                	test   %ebx,%ebx
    41c4:	0f 84 c9 00 00 00    	je     4293 <usb_pipe_control_write+0xe3>
    41ca:	85 c0                	test   %eax,%eax
    41cc:	0f 84 7e 00 00 00    	je     4250 <usb_pipe_control_write+0xa0>
    41d2:	83 7d 10 08          	cmpl   $0x8,0x10(%ebp)
    41d6:	75 78                	jne    4250 <usb_pipe_control_write+0xa0>
    41d8:	85 f6                	test   %esi,%esi
    41da:	75 07                	jne    41e3 <usb_pipe_control_write+0x33>
    41dc:	8b 7d 18             	mov    0x18(%ebp),%edi
    41df:	85 ff                	test   %edi,%edi
    41e1:	75 6d                	jne    4250 <usb_pipe_control_write+0xa0>
    41e3:	85 f6                	test   %esi,%esi
    41e5:	74 07                	je     41ee <usb_pipe_control_write+0x3e>
    41e7:	8b 4d 18             	mov    0x18(%ebp),%ecx
    41ea:	85 c9                	test   %ecx,%ecx
    41ec:	74 62                	je     4250 <usb_pipe_control_write+0xa0>
    41ee:	83 7b 08 02          	cmpl   $0x2,0x8(%ebx)
    41f2:	75 6c                	jne    4260 <usb_pipe_control_write+0xb0>
    41f4:	8b 53 04             	mov    0x4(%ebx),%edx
    41f7:	85 d2                	test   %edx,%edx
    41f9:	75 65                	jne    4260 <usb_pipe_control_write+0xb0>
    41fb:	52                   	push   %edx
    41fc:	6a 08                	push   $0x8
    41fe:	50                   	push   %eax
    41ff:	8d 45 e0             	lea    -0x20(%ebp),%eax
    4202:	50                   	push   %eax
    4203:	e8 98 e2 00 00       	call   124a0 <memcpy@plt>
    4208:	8b 7b 18             	mov    0x18(%ebx),%edi
    420b:	59                   	pop    %ecx
    420c:	57                   	push   %edi
    420d:	e8 be e5 00 00       	call   127d0 <async_exchange_begin@plt>
    4212:	8b 4d 18             	mov    0x18(%ebp),%ecx
    4215:	89 c7                	mov    %eax,%edi
    4217:	58                   	pop    %eax
    4218:	8b 45 e0             	mov    -0x20(%ebp),%eax
    421b:	5a                   	pop    %edx
    421c:	51                   	push   %ecx
    421d:	56                   	push   %esi
    421e:	8b 75 e4             	mov    -0x1c(%ebp),%esi
    4221:	56                   	push   %esi
    4222:	50                   	push   %eax
    4223:	0f bf 03             	movswl (%ebx),%eax
    4226:	50                   	push   %eax
    4227:	57                   	push   %edi
    4228:	e8 d3 97 00 00       	call   da00 <usb_write>
    422d:	83 c4 14             	add    $0x14,%esp
    4230:	89 c6                	mov    %eax,%esi
    4232:	57                   	push   %edi
    4233:	e8 58 e3 00 00       	call   12590 <async_exchange_end@plt>
    4238:	83 c4 10             	add    $0x10,%esp
    423b:	81 fe d3 fe ff ff    	cmp    $0xfffffed3,%esi
    4241:	74 2d                	je     4270 <usb_pipe_control_write+0xc0>
    4243:	8d 65 f4             	lea    -0xc(%ebp),%esp
    4246:	89 f0                	mov    %esi,%eax
    4248:	5b                   	pop    %ebx
    4249:	5e                   	pop    %esi
    424a:	5f                   	pop    %edi
    424b:	5d                   	pop    %ebp
    424c:	c3                   	ret    
    424d:	8d 76 00             	lea    0x0(%esi),%esi
    4250:	8d 65 f4             	lea    -0xc(%ebp),%esp
    4253:	be f2 ff ff ff       	mov    $0xfffffff2,%esi
    4258:	89 f0                	mov    %esi,%eax
    425a:	5b                   	pop    %ebx
    425b:	5e                   	pop    %esi
    425c:	5f                   	pop    %edi
    425d:	5d                   	pop    %ebp
    425e:	c3                   	ret    
    425f:	90                   	nop
    4260:	8d 65 f4             	lea    -0xc(%ebp),%esp
    4263:	be fa fe ff ff       	mov    $0xfffffefa,%esi
    4268:	89 f0                	mov    %esi,%eax
    426a:	5b                   	pop    %ebx
    426b:	5e                   	pop    %esi
    426c:	5f                   	pop    %edi
    426d:	5d                   	pop    %ebp
    426e:	c3                   	ret    
    426f:	90                   	nop
    4270:	80 7b 14 00          	cmpb   $0x0,0x14(%ebx)
    4274:	74 cd                	je     4243 <usb_pipe_control_write+0x93>
    4276:	66 83 3b 00          	cmpw   $0x0,(%ebx)
    427a:	75 c7                	jne    4243 <usb_pipe_control_write+0x93>
    427c:	c6 43 14 00          	movb   $0x0,0x14(%ebx)
    4280:	50                   	push   %eax
    4281:	50                   	push   %eax
    4282:	6a 00                	push   $0x0
    4284:	53                   	push   %ebx
    4285:	e8 26 15 00 00       	call   57b0 <usb_request_clear_endpoint_halt>
    428a:	c6 43 14 01          	movb   $0x1,0x14(%ebx)
    428e:	83 c4 10             	add    $0x10,%esp
    4291:	eb b0                	jmp    4243 <usb_pipe_control_write+0x93>
    4293:	50                   	push   %eax
    4294:	68 82 00 00 00       	push   $0x82
    4299:	68 2c 04 01 00       	push   $0x1042c
    429e:	68 38 04 01 00       	push   $0x10438
    42a3:	e8 f8 e2 00 00       	call   125a0 <assert_abort@plt>
    42a8:	90                   	nop
    42a9:	8d b4 26 00 00 00 00 	lea    0x0(%esi,%eiz,1),%esi

000042b0 <usb_pipe_read>:
    42b0:	55                   	push   %ebp
    42b1:	89 e5                	mov    %esp,%ebp
    42b3:	57                   	push   %edi
    42b4:	56                   	push   %esi
    42b5:	53                   	push   %ebx
    42b6:	83 ec 2c             	sub    $0x2c,%esp
    42b9:	8b 5d 08             	mov    0x8(%ebp),%ebx
    42bc:	8b 75 0c             	mov    0xc(%ebp),%esi
    42bf:	85 db                	test   %ebx,%ebx
    42c1:	0f 84 a8 00 00 00    	je     436f <usb_pipe_read+0xbf>
    42c7:	85 f6                	test   %esi,%esi
    42c9:	0f 84 99 00 00 00    	je     4368 <usb_pipe_read+0xb8>
    42cf:	8b 45 10             	mov    0x10(%ebp),%eax
    42d2:	85 c0                	test   %eax,%eax
    42d4:	0f 84 8e 00 00 00    	je     4368 <usb_pipe_read+0xb8>
    42da:	8b 43 08             	mov    0x8(%ebx),%eax
    42dd:	85 c0                	test   %eax,%eax
    42df:	75 7f                	jne    4360 <usb_pipe_read+0xb0>
    42e1:	8b 43 04             	mov    0x4(%ebx),%eax
    42e4:	85 c0                	test   %eax,%eax
    42e6:	74 78                	je     4360 <usb_pipe_read+0xb0>
    42e8:	83 e8 02             	sub    $0x2,%eax
    42eb:	83 f8 01             	cmp    $0x1,%eax
    42ee:	77 60                	ja     4350 <usb_pipe_read+0xa0>
    42f0:	83 ec 0c             	sub    $0xc,%esp
    42f3:	8b 4b 18             	mov    0x18(%ebx),%ecx
    42f6:	51                   	push   %ecx
    42f7:	e8 d4 e4 00 00       	call   127d0 <async_exchange_begin@plt>
    42fc:	83 c4 0c             	add    $0xc,%esp
    42ff:	89 c7                	mov    %eax,%edi
    4301:	8d 45 e4             	lea    -0x1c(%ebp),%eax
    4304:	c7 45 e4 00 00 00 00 	movl   $0x0,-0x1c(%ebp)
    430b:	50                   	push   %eax
    430c:	8b 45 10             	mov    0x10(%ebp),%eax
    430f:	50                   	push   %eax
    4310:	56                   	push   %esi
    4311:	0f bf 03             	movswl (%ebx),%eax
    4314:	6a 00                	push   $0x0
    4316:	6a 00                	push   $0x0
    4318:	50                   	push   %eax
    4319:	57                   	push   %edi
    431a:	e8 f1 95 00 00       	call   d910 <usb_read>
    431f:	83 c4 14             	add    $0x14,%esp
    4322:	89 45 d4             	mov    %eax,-0x2c(%ebp)
    4325:	57                   	push   %edi
    4326:	e8 65 e2 00 00       	call   12590 <async_exchange_end@plt>
    432b:	8b 45 d4             	mov    -0x2c(%ebp),%eax
    432e:	83 c4 10             	add    $0x10,%esp
    4331:	85 c0                	test   %eax,%eax
    4333:	75 0f                	jne    4344 <usb_pipe_read+0x94>
    4335:	8b 55 14             	mov    0x14(%ebp),%edx
    4338:	85 d2                	test   %edx,%edx
    433a:	74 08                	je     4344 <usb_pipe_read+0x94>
    433c:	8b 4d 14             	mov    0x14(%ebp),%ecx
    433f:	8b 55 e4             	mov    -0x1c(%ebp),%edx
    4342:	89 11                	mov    %edx,(%ecx)
    4344:	8d 65 f4             	lea    -0xc(%ebp),%esp
    4347:	5b                   	pop    %ebx
    4348:	5e                   	pop    %esi
    4349:	5f                   	pop    %edi
    434a:	5d                   	pop    %ebp
    434b:	c3                   	ret    
    434c:	8d 74 26 00          	lea    0x0(%esi,%eiz,1),%esi
    4350:	8d 65 f4             	lea    -0xc(%ebp),%esp
    4353:	b8 f5 ff ff ff       	mov    $0xfffffff5,%eax
    4358:	5b                   	pop    %ebx
    4359:	5e                   	pop    %esi
    435a:	5f                   	pop    %edi
    435b:	5d                   	pop    %ebp
    435c:	c3                   	ret    
    435d:	8d 76 00             	lea    0x0(%esi),%esi
    4360:	b8 fa fe ff ff       	mov    $0xfffffefa,%eax
    4365:	eb dd                	jmp    4344 <usb_pipe_read+0x94>
    4367:	90                   	nop
    4368:	b8 f2 ff ff ff       	mov    $0xfffffff2,%eax
    436d:	eb d5                	jmp    4344 <usb_pipe_read+0x94>
    436f:	50                   	push   %eax
    4370:	68 af 00 00 00       	push   $0xaf
    4375:	68 2c 04 01 00       	push   $0x1042c
    437a:	68 38 04 01 00       	push   $0x10438
    437f:	e8 1c e2 00 00       	call   125a0 <assert_abort@plt>
    4384:	8d b6 00 00 00 00    	lea    0x0(%esi),%esi
    438a:	8d bf 00 00 00 00    	lea    0x0(%edi),%edi

00004390 <usb_pipe_write>:
    4390:	55                   	push   %ebp
    4391:	89 e5                	mov    %esp,%ebp
    4393:	57                   	push   %edi
    4394:	56                   	push   %esi
    4395:	53                   	push   %ebx
    4396:	83 ec 1c             	sub    $0x1c,%esp
    4399:	8b 5d 08             	mov    0x8(%ebp),%ebx
    439c:	8b 75 0c             	mov    0xc(%ebp),%esi
    439f:	85 db                	test   %ebx,%ebx
    43a1:	0f 84 88 00 00 00    	je     442f <usb_pipe_write+0x9f>
    43a7:	85 f6                	test   %esi,%esi
    43a9:	74 7d                	je     4428 <usb_pipe_write+0x98>
    43ab:	8b 45 10             	mov    0x10(%ebp),%eax
    43ae:	85 c0                	test   %eax,%eax
    43b0:	74 76                	je     4428 <usb_pipe_write+0x98>
    43b2:	83 7b 08 01          	cmpl   $0x1,0x8(%ebx)
    43b6:	75 60                	jne    4418 <usb_pipe_write+0x88>
    43b8:	8b 43 04             	mov    0x4(%ebx),%eax
    43bb:	85 c0                	test   %eax,%eax
    43bd:	74 59                	je     4418 <usb_pipe_write+0x88>
    43bf:	83 e8 02             	sub    $0x2,%eax
    43c2:	83 f8 01             	cmp    $0x1,%eax
    43c5:	77 41                	ja     4408 <usb_pipe_write+0x78>
    43c7:	83 ec 0c             	sub    $0xc,%esp
    43ca:	8b 43 18             	mov    0x18(%ebx),%eax
    43cd:	50                   	push   %eax
    43ce:	e8 fd e3 00 00       	call   127d0 <async_exchange_begin@plt>
    43d3:	89 c7                	mov    %eax,%edi
    43d5:	8b 45 10             	mov    0x10(%ebp),%eax
    43d8:	5a                   	pop    %edx
    43d9:	59                   	pop    %ecx
    43da:	50                   	push   %eax
    43db:	56                   	push   %esi
    43dc:	0f bf 03             	movswl (%ebx),%eax
    43df:	6a 00                	push   $0x0
    43e1:	6a 00                	push   $0x0
    43e3:	50                   	push   %eax
    43e4:	57                   	push   %edi
    43e5:	e8 16 96 00 00       	call   da00 <usb_write>
    43ea:	83 c4 14             	add    $0x14,%esp
    43ed:	57                   	push   %edi
    43ee:	89 45 e4             	mov    %eax,-0x1c(%ebp)
    43f1:	e8 9a e1 00 00       	call   12590 <async_exchange_end@plt>
    43f6:	83 c4 10             	add    $0x10,%esp
    43f9:	8b 45 e4             	mov    -0x1c(%ebp),%eax
    43fc:	8d 65 f4             	lea    -0xc(%ebp),%esp
    43ff:	5b                   	pop    %ebx
    4400:	5e                   	pop    %esi
    4401:	5f                   	pop    %edi
    4402:	5d                   	pop    %ebp
    4403:	c3                   	ret    
    4404:	8d 74 26 00          	lea    0x0(%esi,%eiz,1),%esi
    4408:	8d 65 f4             	lea    -0xc(%ebp),%esp
    440b:	b8 f5 ff ff ff       	mov    $0xfffffff5,%eax
    4410:	5b                   	pop    %ebx
    4411:	5e                   	pop    %esi
    4412:	5f                   	pop    %edi
    4413:	5d                   	pop    %ebp
    4414:	c3                   	ret    
    4415:	8d 76 00             	lea    0x0(%esi),%esi
    4418:	8d 65 f4             	lea    -0xc(%ebp),%esp
    441b:	b8 fa fe ff ff       	mov    $0xfffffefa,%eax
    4420:	5b                   	pop    %ebx
    4421:	5e                   	pop    %esi
    4422:	5f                   	pop    %edi
    4423:	5d                   	pop    %ebp
    4424:	c3                   	ret    
    4425:	8d 76 00             	lea    0x0(%esi),%esi
    4428:	b8 f2 ff ff ff       	mov    $0xfffffff2,%eax
    442d:	eb cd                	jmp    43fc <usb_pipe_write+0x6c>
    442f:	50                   	push   %eax
    4430:	68 dc 00 00 00       	push   $0xdc
    4435:	68 2c 04 01 00       	push   $0x1042c
    443a:	68 38 04 01 00       	push   $0x10438
    443f:	e8 5c e1 00 00       	call   125a0 <assert_abort@plt>
    4444:	8d b6 00 00 00 00    	lea    0x0(%esi),%esi
    444a:	8d bf 00 00 00 00    	lea    0x0(%edi),%edi

00004450 <usb_pipe_initialize>:
    4450:	55                   	push   %ebp
    4451:	89 e5                	mov    %esp,%ebp
    4453:	83 ec 08             	sub    $0x8,%esp
    4456:	8b 45 08             	mov    0x8(%ebp),%eax
    4459:	8b 55 0c             	mov    0xc(%ebp),%edx
    445c:	85 c0                	test   %eax,%eax
    445e:	74 29                	je     4489 <usb_pipe_initialize+0x39>
    4460:	66 89 10             	mov    %dx,(%eax)
    4463:	8b 55 10             	mov    0x10(%ebp),%edx
    4466:	89 50 04             	mov    %edx,0x4(%eax)
    4469:	8b 55 1c             	mov    0x1c(%ebp),%edx
    446c:	89 50 10             	mov    %edx,0x10(%eax)
    446f:	8b 55 14             	mov    0x14(%ebp),%edx
    4472:	89 50 0c             	mov    %edx,0xc(%eax)
    4475:	8b 55 18             	mov    0x18(%ebp),%edx
    4478:	89 50 08             	mov    %edx,0x8(%eax)
    447b:	8b 55 20             	mov    0x20(%ebp),%edx
    447e:	c6 40 14 00          	movb   $0x0,0x14(%eax)
    4482:	89 50 18             	mov    %edx,0x18(%eax)
    4485:	c9                   	leave  
    4486:	31 c0                	xor    %eax,%eax
    4488:	c3                   	ret    
    4489:	50                   	push   %eax
    448a:	68 02 01 00 00       	push   $0x102
    448f:	68 2c 04 01 00       	push   $0x1042c
    4494:	68 38 04 01 00       	push   $0x10438
    4499:	e8 02 e1 00 00       	call   125a0 <assert_abort@plt>
    449e:	66 90                	xchg   %ax,%ax

000044a0 <usb_pipe_initialize_default_control>:
    44a0:	55                   	push   %ebp
    44a1:	89 e5                	mov    %esp,%ebp
    44a3:	83 ec 08             	sub    $0x8,%esp
    44a6:	8b 45 08             	mov    0x8(%ebp),%eax
    44a9:	85 c0                	test   %eax,%eax
    44ab:	74 2f                	je     44dc <usb_pipe_initialize_default_control+0x3c>
    44ad:	8b 55 0c             	mov    0xc(%ebp),%edx
    44b0:	66 c7 00 00 00       	movw   $0x0,(%eax)
    44b5:	c7 40 04 00 00 00 00 	movl   $0x0,0x4(%eax)
    44bc:	c7 40 10 01 00 00 00 	movl   $0x1,0x10(%eax)
    44c3:	c7 40 0c 08 00 00 00 	movl   $0x8,0xc(%eax)
    44ca:	c7 40 08 02 00 00 00 	movl   $0x2,0x8(%eax)
    44d1:	89 50 18             	mov    %edx,0x18(%eax)
    44d4:	c6 40 14 01          	movb   $0x1,0x14(%eax)
    44d8:	c9                   	leave  
    44d9:	31 c0                	xor    %eax,%eax
    44db:	c3                   	ret    
    44dc:	50                   	push   %eax
    44dd:	68 17 01 00 00       	push   $0x117
    44e2:	68 2c 04 01 00       	push   $0x1042c
    44e7:	68 38 04 01 00       	push   $0x10438
    44ec:	e8 af e0 00 00       	call   125a0 <assert_abort@plt>
    44f1:	eb 0d                	jmp    4500 <usb_pipe_register>
    44f3:	90                   	nop
    44f4:	90                   	nop
    44f5:	90                   	nop
    44f6:	90                   	nop
    44f7:	90                   	nop
    44f8:	90                   	nop
    44f9:	90                   	nop
    44fa:	90                   	nop
    44fb:	90                   	nop
    44fc:	90                   	nop
    44fd:	90                   	nop
    44fe:	90                   	nop
    44ff:	90                   	nop

00004500 <usb_pipe_register>:
    4500:	55                   	push   %ebp
    4501:	89 e5                	mov    %esp,%ebp
    4503:	56                   	push   %esi
    4504:	53                   	push   %ebx
    4505:	83 ec 10             	sub    $0x10,%esp
    4508:	8b 5d 08             	mov    0x8(%ebp),%ebx
    450b:	85 db                	test   %ebx,%ebx
    450d:	74 6d                	je     457c <usb_pipe_register+0x7c>
    450f:	8b 43 18             	mov    0x18(%ebx),%eax
    4512:	85 c0                	test   %eax,%eax
    4514:	74 51                	je     4567 <usb_pipe_register+0x67>
    4516:	83 ec 0c             	sub    $0xc,%esp
    4519:	50                   	push   %eax
    451a:	e8 b1 e2 00 00       	call   127d0 <async_exchange_begin@plt>
    451f:	83 c4 10             	add    $0x10,%esp
    4522:	89 c6                	mov    %eax,%esi
    4524:	85 c0                	test   %eax,%eax
    4526:	74 38                	je     4560 <usb_pipe_register+0x60>
    4528:	8b 55 0c             	mov    0xc(%ebp),%edx
    452b:	50                   	push   %eax
    452c:	52                   	push   %edx
    452d:	8b 4b 10             	mov    0x10(%ebx),%ecx
    4530:	51                   	push   %ecx
    4531:	8b 43 0c             	mov    0xc(%ebx),%eax
    4534:	50                   	push   %eax
    4535:	8b 43 08             	mov    0x8(%ebx),%eax
    4538:	50                   	push   %eax
    4539:	8b 43 04             	mov    0x4(%ebx),%eax
    453c:	50                   	push   %eax
    453d:	0f bf 03             	movswl (%ebx),%eax
    4540:	50                   	push   %eax
    4541:	56                   	push   %esi
    4542:	e8 19 93 00 00       	call   d860 <usb_register_endpoint>
    4547:	83 c4 14             	add    $0x14,%esp
    454a:	56                   	push   %esi
    454b:	89 45 f4             	mov    %eax,-0xc(%ebp)
    454e:	e8 3d e0 00 00       	call   12590 <async_exchange_end@plt>
    4553:	83 c4 10             	add    $0x10,%esp
    4556:	8b 45 f4             	mov    -0xc(%ebp),%eax
    4559:	8d 65 f8             	lea    -0x8(%ebp),%esp
    455c:	5b                   	pop    %ebx
    455d:	5e                   	pop    %esi
    455e:	5d                   	pop    %ebp
    455f:	c3                   	ret    
    4560:	b8 fe ff ff ff       	mov    $0xfffffffe,%eax
    4565:	eb f2                	jmp    4559 <usb_pipe_register+0x59>
    4567:	50                   	push   %eax
    4568:	68 2a 01 00 00       	push   $0x12a
    456d:	68 2c 04 01 00       	push   $0x1042c
    4572:	68 3d 04 01 00       	push   $0x1043d
    4577:	e8 24 e0 00 00       	call   125a0 <assert_abort@plt>
    457c:	50                   	push   %eax
    457d:	68 29 01 00 00       	push   $0x129
    4582:	68 2c 04 01 00       	push   $0x1042c
    4587:	68 38 04 01 00       	push   $0x10438
    458c:	e8 0f e0 00 00       	call   125a0 <assert_abort@plt>
    4591:	eb 0d                	jmp    45a0 <usb_pipe_unregister>
    4593:	90                   	nop
    4594:	90                   	nop
    4595:	90                   	nop
    4596:	90                   	nop
    4597:	90                   	nop
    4598:	90                   	nop
    4599:	90                   	nop
    459a:	90                   	nop
    459b:	90                   	nop
    459c:	90                   	nop
    459d:	90                   	nop
    459e:	90                   	nop
    459f:	90                   	nop

000045a0 <usb_pipe_unregister>:
    45a0:	55                   	push   %ebp
    45a1:	89 e5                	mov    %esp,%ebp
    45a3:	56                   	push   %esi
    45a4:	53                   	push   %ebx
    45a5:	83 ec 10             	sub    $0x10,%esp
    45a8:	8b 5d 08             	mov    0x8(%ebp),%ebx
    45ab:	85 db                	test   %ebx,%ebx
    45ad:	74 5d                	je     460c <usb_pipe_unregister+0x6c>
    45af:	8b 43 18             	mov    0x18(%ebx),%eax
    45b2:	85 c0                	test   %eax,%eax
    45b4:	74 41                	je     45f7 <usb_pipe_unregister+0x57>
    45b6:	83 ec 0c             	sub    $0xc,%esp
    45b9:	50                   	push   %eax
    45ba:	e8 11 e2 00 00       	call   127d0 <async_exchange_begin@plt>
    45bf:	83 c4 10             	add    $0x10,%esp
    45c2:	89 c6                	mov    %eax,%esi
    45c4:	85 c0                	test   %eax,%eax
    45c6:	74 28                	je     45f0 <usb_pipe_unregister+0x50>
    45c8:	50                   	push   %eax
    45c9:	0f bf 03             	movswl (%ebx),%eax
    45cc:	8b 53 08             	mov    0x8(%ebx),%edx
    45cf:	52                   	push   %edx
    45d0:	50                   	push   %eax
