
usbmid:     file format elf32-i386


Disassembly of section .init:

000010f4 <__entry>:
    10f4:	66 8c d0             	mov    %ss,%ax
    10f7:	8e d8                	mov    %eax,%ds
    10f9:	8e c0                	mov    %eax,%es
    10fb:	8e e0                	mov    %eax,%fs
    10fd:	b8 01 00 00 00       	mov    $0x1,%eax
    1102:	0f a2                	cpuid  
    1104:	0f ba e2 0b          	bt     $0xb,%edx
    1108:	73 0c                	jae    1116 <__entry+0x22>
    110a:	8d 05 98 41 01 00    	lea    0x14198,%eax
    1110:	c7 00 20 21 01 00    	movl   $0x12120,(%eax)
    1116:	6a 00                	push   $0x0
    1118:	6a 00                	push   $0x0
    111a:	89 e5                	mov    %esp,%ebp
    111c:	57                   	push   %edi
    111d:	e8 7e 0b 01 00       	call   11ca0 <__main@plt>

Disassembly of section .text:

00001140 <dump_tree_internal>:
    1140:	85 c9                	test   %ecx,%ecx
    1142:	0f 84 7f 04 00 00    	je     15c7 <dump_tree_internal+0x487>
    1148:	55                   	push   %ebp
    1149:	89 e5                	mov    %esp,%ebp
    114b:	57                   	push   %edi
    114c:	56                   	push   %esi
    114d:	53                   	push   %ebx
    114e:	83 ec 3c             	sub    $0x3c,%esp
    1151:	89 c7                	mov    %eax,%edi
    1153:	89 4d bc             	mov    %ecx,-0x44(%ebp)
    1156:	89 d6                	mov    %edx,%esi
    1158:	89 c8                	mov    %ecx,%eax
    115a:	80 79 01 04          	cmpb   $0x4,0x1(%ecx)
    115e:	75 3c                	jne    119c <dump_tree_internal+0x5c>
    1160:	83 ec 0c             	sub    $0xc,%esp
    1163:	31 c9                	xor    %ecx,%ecx
    1165:	31 d2                	xor    %edx,%edx
    1167:	31 db                	xor    %ebx,%ebx
    1169:	8a 48 07             	mov    0x7(%eax),%cl
    116c:	8a 50 06             	mov    0x6(%eax),%dl
    116f:	8a 58 05             	mov    0x5(%eax),%bl
    1172:	89 4d e0             	mov    %ecx,-0x20(%ebp)
    1175:	89 55 e4             	mov    %edx,-0x1c(%ebp)
    1178:	53                   	push   %ebx
    1179:	e8 02 51 00 00       	call   6280 <usb_str_class>
    117e:	83 c4 0c             	add    $0xc,%esp
    1181:	8b 4d e0             	mov    -0x20(%ebp),%ecx
    1184:	8b 55 e4             	mov    -0x1c(%ebp),%edx
    1187:	51                   	push   %ecx
    1188:	52                   	push   %edx
    1189:	53                   	push   %ebx
    118a:	50                   	push   %eax
    118b:	68 d0 f4 00 00       	push   $0xf4d0
    1190:	6a 03                	push   $0x3
    1192:	6a ff                	push   $0xffffffff
    1194:	e8 87 0c 01 00       	call   11e20 <log_msg@plt>
    1199:	83 c4 20             	add    $0x20,%esp
    119c:	50                   	push   %eax
    119d:	8b 45 bc             	mov    -0x44(%ebp),%eax
    11a0:	50                   	push   %eax
    11a1:	56                   	push   %esi
    11a2:	57                   	push   %edi
    11a3:	e8 38 20 00 00       	call   31e0 <usb_dp_get_nested_descriptor>
    11a8:	83 c4 10             	add    $0x10,%esp
    11ab:	89 45 d0             	mov    %eax,-0x30(%ebp)
    11ae:	85 c0                	test   %eax,%eax
    11b0:	0f 84 ed 03 00 00    	je     15a3 <dump_tree_internal+0x463>
    11b6:	80 78 01 04          	cmpb   $0x4,0x1(%eax)
    11ba:	75 3c                	jne    11f8 <dump_tree_internal+0xb8>
    11bc:	83 ec 0c             	sub    $0xc,%esp
    11bf:	31 c9                	xor    %ecx,%ecx
    11c1:	31 d2                	xor    %edx,%edx
    11c3:	31 db                	xor    %ebx,%ebx
    11c5:	8a 48 07             	mov    0x7(%eax),%cl
    11c8:	8a 50 06             	mov    0x6(%eax),%dl
    11cb:	8a 58 05             	mov    0x5(%eax),%bl
    11ce:	89 4d e0             	mov    %ecx,-0x20(%ebp)
    11d1:	89 55 e4             	mov    %edx,-0x1c(%ebp)
    11d4:	53                   	push   %ebx
    11d5:	e8 a6 50 00 00       	call   6280 <usb_str_class>
    11da:	83 c4 0c             	add    $0xc,%esp
    11dd:	8b 4d e0             	mov    -0x20(%ebp),%ecx
    11e0:	8b 55 e4             	mov    -0x1c(%ebp),%edx
    11e3:	51                   	push   %ecx
    11e4:	52                   	push   %edx
    11e5:	53                   	push   %ebx
    11e6:	50                   	push   %eax
    11e7:	68 d0 f4 00 00       	push   $0xf4d0
    11ec:	6a 03                	push   $0x3
    11ee:	6a ff                	push   $0xffffffff
    11f0:	e8 2b 0c 01 00       	call   11e20 <log_msg@plt>
    11f5:	83 c4 20             	add    $0x20,%esp
    11f8:	8b 45 d0             	mov    -0x30(%ebp),%eax
    11fb:	53                   	push   %ebx
    11fc:	50                   	push   %eax
    11fd:	56                   	push   %esi
    11fe:	57                   	push   %edi
    11ff:	e8 dc 1f 00 00       	call   31e0 <usb_dp_get_nested_descriptor>
    1204:	83 c4 10             	add    $0x10,%esp
    1207:	89 45 cc             	mov    %eax,-0x34(%ebp)
    120a:	85 c0                	test   %eax,%eax
    120c:	0f 84 74 03 00 00    	je     1586 <dump_tree_internal+0x446>
    1212:	80 78 01 04          	cmpb   $0x4,0x1(%eax)
    1216:	75 3c                	jne    1254 <dump_tree_internal+0x114>
    1218:	83 ec 0c             	sub    $0xc,%esp
    121b:	31 c9                	xor    %ecx,%ecx
    121d:	31 d2                	xor    %edx,%edx
    121f:	31 db                	xor    %ebx,%ebx
    1221:	8a 48 07             	mov    0x7(%eax),%cl
    1224:	8a 50 06             	mov    0x6(%eax),%dl
    1227:	8a 58 05             	mov    0x5(%eax),%bl
    122a:	89 4d e0             	mov    %ecx,-0x20(%ebp)
    122d:	89 55 e4             	mov    %edx,-0x1c(%ebp)
    1230:	53                   	push   %ebx
    1231:	e8 4a 50 00 00       	call   6280 <usb_str_class>
    1236:	83 c4 0c             	add    $0xc,%esp
    1239:	8b 4d e0             	mov    -0x20(%ebp),%ecx
    123c:	8b 55 e4             	mov    -0x1c(%ebp),%edx
    123f:	51                   	push   %ecx
    1240:	52                   	push   %edx
    1241:	53                   	push   %ebx
    1242:	50                   	push   %eax
    1243:	68 d0 f4 00 00       	push   $0xf4d0
    1248:	6a 03                	push   $0x3
    124a:	6a ff                	push   $0xffffffff
    124c:	e8 cf 0b 01 00       	call   11e20 <log_msg@plt>
    1251:	83 c4 20             	add    $0x20,%esp
    1254:	50                   	push   %eax
    1255:	8b 45 cc             	mov    -0x34(%ebp),%eax
    1258:	50                   	push   %eax
    1259:	56                   	push   %esi
    125a:	57                   	push   %edi
    125b:	e8 80 1f 00 00       	call   31e0 <usb_dp_get_nested_descriptor>
    1260:	83 c4 10             	add    $0x10,%esp
    1263:	89 45 c8             	mov    %eax,-0x38(%ebp)
    1266:	85 c0                	test   %eax,%eax
    1268:	0f 84 fb 02 00 00    	je     1569 <dump_tree_internal+0x429>
    126e:	80 78 01 04          	cmpb   $0x4,0x1(%eax)
    1272:	75 3c                	jne    12b0 <dump_tree_internal+0x170>
    1274:	83 ec 0c             	sub    $0xc,%esp
    1277:	31 c9                	xor    %ecx,%ecx
    1279:	31 d2                	xor    %edx,%edx
    127b:	31 db                	xor    %ebx,%ebx
    127d:	8a 48 07             	mov    0x7(%eax),%cl
    1280:	8a 50 06             	mov    0x6(%eax),%dl
    1283:	8a 58 05             	mov    0x5(%eax),%bl
    1286:	89 4d e0             	mov    %ecx,-0x20(%ebp)
    1289:	89 55 e4             	mov    %edx,-0x1c(%ebp)
    128c:	53                   	push   %ebx
    128d:	e8 ee 4f 00 00       	call   6280 <usb_str_class>
    1292:	83 c4 0c             	add    $0xc,%esp
    1295:	8b 4d e0             	mov    -0x20(%ebp),%ecx
    1298:	8b 55 e4             	mov    -0x1c(%ebp),%edx
    129b:	51                   	push   %ecx
    129c:	52                   	push   %edx
    129d:	53                   	push   %ebx
    129e:	50                   	push   %eax
    129f:	68 d0 f4 00 00       	push   $0xf4d0
    12a4:	6a 03                	push   $0x3
    12a6:	6a ff                	push   $0xffffffff
    12a8:	e8 73 0b 01 00       	call   11e20 <log_msg@plt>
    12ad:	83 c4 20             	add    $0x20,%esp
    12b0:	50                   	push   %eax
    12b1:	8b 45 c8             	mov    -0x38(%ebp),%eax
    12b4:	50                   	push   %eax
    12b5:	56                   	push   %esi
    12b6:	57                   	push   %edi
    12b7:	e8 24 1f 00 00       	call   31e0 <usb_dp_get_nested_descriptor>
    12bc:	83 c4 10             	add    $0x10,%esp
    12bf:	89 45 c4             	mov    %eax,-0x3c(%ebp)
    12c2:	85 c0                	test   %eax,%eax
    12c4:	0f 84 82 02 00 00    	je     154c <dump_tree_internal+0x40c>
    12ca:	80 78 01 04          	cmpb   $0x4,0x1(%eax)
    12ce:	75 3c                	jne    130c <dump_tree_internal+0x1cc>
    12d0:	83 ec 0c             	sub    $0xc,%esp
    12d3:	31 c9                	xor    %ecx,%ecx
    12d5:	31 d2                	xor    %edx,%edx
    12d7:	31 db                	xor    %ebx,%ebx
    12d9:	8a 48 07             	mov    0x7(%eax),%cl
    12dc:	8a 50 06             	mov    0x6(%eax),%dl
    12df:	8a 58 05             	mov    0x5(%eax),%bl
    12e2:	89 4d e0             	mov    %ecx,-0x20(%ebp)
    12e5:	89 55 e4             	mov    %edx,-0x1c(%ebp)
    12e8:	53                   	push   %ebx
    12e9:	e8 92 4f 00 00       	call   6280 <usb_str_class>
    12ee:	83 c4 0c             	add    $0xc,%esp
    12f1:	8b 4d e0             	mov    -0x20(%ebp),%ecx
    12f4:	8b 55 e4             	mov    -0x1c(%ebp),%edx
    12f7:	51                   	push   %ecx
    12f8:	52                   	push   %edx
    12f9:	53                   	push   %ebx
    12fa:	50                   	push   %eax
    12fb:	68 d0 f4 00 00       	push   $0xf4d0
    1300:	6a 03                	push   $0x3
    1302:	6a ff                	push   $0xffffffff
    1304:	e8 17 0b 01 00       	call   11e20 <log_msg@plt>
    1309:	83 c4 20             	add    $0x20,%esp
    130c:	8b 55 c4             	mov    -0x3c(%ebp),%edx
    130f:	50                   	push   %eax
    1310:	52                   	push   %edx
    1311:	56                   	push   %esi
    1312:	57                   	push   %edi
    1313:	e8 c8 1e 00 00       	call   31e0 <usb_dp_get_nested_descriptor>
    1318:	83 c4 10             	add    $0x10,%esp
    131b:	89 45 c0             	mov    %eax,-0x40(%ebp)
    131e:	85 c0                	test   %eax,%eax
    1320:	75 1d                	jne    133f <dump_tree_internal+0x1ff>
    1322:	8b 45 c0             	mov    -0x40(%ebp),%eax
    1325:	50                   	push   %eax
    1326:	8b 45 c4             	mov    -0x3c(%ebp),%eax
    1329:	50                   	push   %eax
    132a:	56                   	push   %esi
    132b:	57                   	push   %edi
    132c:	e8 0f 22 00 00       	call   3540 <usb_dp_get_sibling_descriptor>
    1331:	83 c4 10             	add    $0x10,%esp
    1334:	89 45 c0             	mov    %eax,-0x40(%ebp)
    1337:	85 c0                	test   %eax,%eax
    1339:	0f 84 0d 02 00 00    	je     154c <dump_tree_internal+0x40c>
    133f:	80 78 01 04          	cmpb   $0x4,0x1(%eax)
    1343:	0f 84 c2 01 00 00    	je     150b <dump_tree_internal+0x3cb>
    1349:	50                   	push   %eax
    134a:	8b 45 c0             	mov    -0x40(%ebp),%eax
    134d:	50                   	push   %eax
    134e:	56                   	push   %esi
    134f:	57                   	push   %edi
    1350:	e8 8b 1e 00 00       	call   31e0 <usb_dp_get_nested_descriptor>
    1355:	83 c4 10             	add    $0x10,%esp
    1358:	89 45 d4             	mov    %eax,-0x2c(%ebp)
    135b:	85 c0                	test   %eax,%eax
    135d:	75 19                	jne    1378 <dump_tree_internal+0x238>
    135f:	8b 5d d4             	mov    -0x2c(%ebp),%ebx
    1362:	8b 45 c0             	mov    -0x40(%ebp),%eax
    1365:	53                   	push   %ebx
    1366:	50                   	push   %eax
    1367:	56                   	push   %esi
    1368:	57                   	push   %edi
    1369:	e8 d2 21 00 00       	call   3540 <usb_dp_get_sibling_descriptor>
    136e:	83 c4 10             	add    $0x10,%esp
    1371:	89 45 d4             	mov    %eax,-0x2c(%ebp)
    1374:	85 c0                	test   %eax,%eax
    1376:	74 aa                	je     1322 <dump_tree_internal+0x1e2>
    1378:	80 78 01 04          	cmpb   $0x4,0x1(%eax)
    137c:	0f 84 48 01 00 00    	je     14ca <dump_tree_internal+0x38a>
    1382:	8b 4d d4             	mov    -0x2c(%ebp),%ecx
    1385:	52                   	push   %edx
    1386:	51                   	push   %ecx
    1387:	56                   	push   %esi
    1388:	57                   	push   %edi
    1389:	e8 52 1e 00 00       	call   31e0 <usb_dp_get_nested_descriptor>
    138e:	83 c4 10             	add    $0x10,%esp
    1391:	89 45 dc             	mov    %eax,-0x24(%ebp)
    1394:	85 c0                	test   %eax,%eax
    1396:	75 19                	jne    13b1 <dump_tree_internal+0x271>
    1398:	8b 45 dc             	mov    -0x24(%ebp),%eax
    139b:	50                   	push   %eax
    139c:	8b 45 d4             	mov    -0x2c(%ebp),%eax
    139f:	50                   	push   %eax
    13a0:	56                   	push   %esi
    13a1:	57                   	push   %edi
    13a2:	e8 99 21 00 00       	call   3540 <usb_dp_get_sibling_descriptor>
    13a7:	83 c4 10             	add    $0x10,%esp
    13aa:	89 45 dc             	mov    %eax,-0x24(%ebp)
    13ad:	85 c0                	test   %eax,%eax
    13af:	74 ae                	je     135f <dump_tree_internal+0x21f>
    13b1:	80 78 01 04          	cmpb   $0x4,0x1(%eax)
    13b5:	0f 84 ce 00 00 00    	je     1489 <dump_tree_internal+0x349>
    13bb:	50                   	push   %eax
    13bc:	8b 45 dc             	mov    -0x24(%ebp),%eax
    13bf:	50                   	push   %eax
    13c0:	56                   	push   %esi
    13c1:	57                   	push   %edi
    13c2:	e8 19 1e 00 00       	call   31e0 <usb_dp_get_nested_descriptor>
    13c7:	83 c4 10             	add    $0x10,%esp
    13ca:	89 45 e4             	mov    %eax,-0x1c(%ebp)
    13cd:	85 c0                	test   %eax,%eax
    13cf:	75 20                	jne    13f1 <dump_tree_internal+0x2b1>
    13d1:	8d b4 26 00 00 00 00 	lea    0x0(%esi,%eiz,1),%esi
    13d8:	8b 45 e4             	mov    -0x1c(%ebp),%eax
    13db:	50                   	push   %eax
    13dc:	8b 45 dc             	mov    -0x24(%ebp),%eax
    13df:	50                   	push   %eax
    13e0:	56                   	push   %esi
    13e1:	57                   	push   %edi
    13e2:	e8 59 21 00 00       	call   3540 <usb_dp_get_sibling_descriptor>
    13e7:	83 c4 10             	add    $0x10,%esp
    13ea:	89 45 e4             	mov    %eax,-0x1c(%ebp)
    13ed:	85 c0                	test   %eax,%eax
    13ef:	74 a7                	je     1398 <dump_tree_internal+0x258>
    13f1:	80 78 01 04          	cmpb   $0x4,0x1(%eax)
    13f5:	74 51                	je     1448 <dump_tree_internal+0x308>
    13f7:	8b 5d e4             	mov    -0x1c(%ebp),%ebx
    13fa:	51                   	push   %ecx
    13fb:	53                   	push   %ebx
    13fc:	56                   	push   %esi
    13fd:	57                   	push   %edi
    13fe:	e8 dd 1d 00 00       	call   31e0 <usb_dp_get_nested_descriptor>
    1403:	89 c3                	mov    %eax,%ebx
    1405:	8b 45 08             	mov    0x8(%ebp),%eax
    1408:	83 c0 09             	add    $0x9,%eax
    140b:	83 c4 10             	add    $0x10,%esp
    140e:	89 45 e0             	mov    %eax,-0x20(%ebp)
    1411:	8d b4 26 00 00 00 00 	lea    0x0(%esi,%eiz,1),%esi
    1418:	83 ec 0c             	sub    $0xc,%esp
    141b:	8b 45 e0             	mov    -0x20(%ebp),%eax
    141e:	89 d9                	mov    %ebx,%ecx
    1420:	89 f2                	mov    %esi,%edx
    1422:	50                   	push   %eax
    1423:	89 f8                	mov    %edi,%eax
    1425:	e8 16 fd ff ff       	call   1140 <dump_tree_internal>
    142a:	8b 55 e4             	mov    -0x1c(%ebp),%edx
    142d:	53                   	push   %ebx
    142e:	52                   	push   %edx
    142f:	56                   	push   %esi
    1430:	57                   	push   %edi
    1431:	e8 0a 21 00 00       	call   3540 <usb_dp_get_sibling_descriptor>
    1436:	83 c4 20             	add    $0x20,%esp
    1439:	89 c3                	mov    %eax,%ebx
    143b:	85 c0                	test   %eax,%eax
    143d:	75 d9                	jne    1418 <dump_tree_internal+0x2d8>
    143f:	eb 97                	jmp    13d8 <dump_tree_internal+0x298>
    1441:	8d b4 26 00 00 00 00 	lea    0x0(%esi,%eiz,1),%esi
    1448:	83 ec 0c             	sub    $0xc,%esp
    144b:	31 d2                	xor    %edx,%edx
    144d:	31 c9                	xor    %ecx,%ecx
    144f:	31 db                	xor    %ebx,%ebx
    1451:	8a 50 07             	mov    0x7(%eax),%dl
    1454:	8a 48 06             	mov    0x6(%eax),%cl
    1457:	8a 58 05             	mov    0x5(%eax),%bl
    145a:	89 55 d8             	mov    %edx,-0x28(%ebp)
    145d:	89 4d e0             	mov    %ecx,-0x20(%ebp)
    1460:	53                   	push   %ebx
    1461:	e8 1a 4e 00 00       	call   6280 <usb_str_class>
    1466:	83 c4 0c             	add    $0xc,%esp
    1469:	8b 55 d8             	mov    -0x28(%ebp),%edx
    146c:	8b 4d e0             	mov    -0x20(%ebp),%ecx
    146f:	52                   	push   %edx
    1470:	51                   	push   %ecx
    1471:	53                   	push   %ebx
    1472:	50                   	push   %eax
    1473:	68 d0 f4 00 00       	push   $0xf4d0
    1478:	6a 03                	push   $0x3
    147a:	6a ff                	push   $0xffffffff
    147c:	e8 9f 09 01 00       	call   11e20 <log_msg@plt>
    1481:	83 c4 20             	add    $0x20,%esp
    1484:	e9 6e ff ff ff       	jmp    13f7 <dump_tree_internal+0x2b7>
    1489:	83 ec 0c             	sub    $0xc,%esp
    148c:	31 c9                	xor    %ecx,%ecx
    148e:	31 d2                	xor    %edx,%edx
    1490:	31 db                	xor    %ebx,%ebx
    1492:	8a 48 07             	mov    0x7(%eax),%cl
    1495:	8a 50 06             	mov    0x6(%eax),%dl
    1498:	8a 58 05             	mov    0x5(%eax),%bl
    149b:	89 4d e0             	mov    %ecx,-0x20(%ebp)
    149e:	89 55 e4             	mov    %edx,-0x1c(%ebp)
    14a1:	53                   	push   %ebx
    14a2:	e8 d9 4d 00 00       	call   6280 <usb_str_class>
    14a7:	83 c4 0c             	add    $0xc,%esp
    14aa:	8b 4d e0             	mov    -0x20(%ebp),%ecx
    14ad:	8b 55 e4             	mov    -0x1c(%ebp),%edx
    14b0:	51                   	push   %ecx
    14b1:	52                   	push   %edx
    14b2:	53                   	push   %ebx
    14b3:	50                   	push   %eax
    14b4:	68 d0 f4 00 00       	push   $0xf4d0
    14b9:	6a 03                	push   $0x3
    14bb:	6a ff                	push   $0xffffffff
    14bd:	e8 5e 09 01 00       	call   11e20 <log_msg@plt>
    14c2:	83 c4 20             	add    $0x20,%esp
    14c5:	e9 f1 fe ff ff       	jmp    13bb <dump_tree_internal+0x27b>
    14ca:	83 ec 0c             	sub    $0xc,%esp
    14cd:	31 c9                	xor    %ecx,%ecx
    14cf:	31 d2                	xor    %edx,%edx
    14d1:	31 db                	xor    %ebx,%ebx
    14d3:	8a 48 07             	mov    0x7(%eax),%cl
    14d6:	8a 50 06             	mov    0x6(%eax),%dl
    14d9:	8a 58 05             	mov    0x5(%eax),%bl
    14dc:	89 4d e0             	mov    %ecx,-0x20(%ebp)
    14df:	89 55 e4             	mov    %edx,-0x1c(%ebp)
    14e2:	53                   	push   %ebx
    14e3:	e8 98 4d 00 00       	call   6280 <usb_str_class>
    14e8:	83 c4 0c             	add    $0xc,%esp
    14eb:	8b 4d e0             	mov    -0x20(%ebp),%ecx
    14ee:	8b 55 e4             	mov    -0x1c(%ebp),%edx
    14f1:	51                   	push   %ecx
    14f2:	52                   	push   %edx
    14f3:	53                   	push   %ebx
    14f4:	50                   	push   %eax
    14f5:	68 d0 f4 00 00       	push   $0xf4d0
    14fa:	6a 03                	push   $0x3
    14fc:	6a ff                	push   $0xffffffff
    14fe:	e8 1d 09 01 00       	call   11e20 <log_msg@plt>
    1503:	83 c4 20             	add    $0x20,%esp
    1506:	e9 77 fe ff ff       	jmp    1382 <dump_tree_internal+0x242>
    150b:	83 ec 0c             	sub    $0xc,%esp
    150e:	31 c9                	xor    %ecx,%ecx
    1510:	31 d2                	xor    %edx,%edx
    1512:	31 db                	xor    %ebx,%ebx
    1514:	8a 48 07             	mov    0x7(%eax),%cl
    1517:	8a 50 06             	mov    0x6(%eax),%dl
    151a:	8a 58 05             	mov    0x5(%eax),%bl
    151d:	89 4d e0             	mov    %ecx,-0x20(%ebp)
    1520:	89 55 e4             	mov    %edx,-0x1c(%ebp)
    1523:	53                   	push   %ebx
    1524:	e8 57 4d 00 00       	call   6280 <usb_str_class>
    1529:	83 c4 0c             	add    $0xc,%esp
    152c:	8b 4d e0             	mov    -0x20(%ebp),%ecx
    152f:	8b 55 e4             	mov    -0x1c(%ebp),%edx
    1532:	51                   	push   %ecx
    1533:	52                   	push   %edx
    1534:	53                   	push   %ebx
    1535:	50                   	push   %eax
    1536:	68 d0 f4 00 00       	push   $0xf4d0
    153b:	6a 03                	push   $0x3
    153d:	6a ff                	push   $0xffffffff
    153f:	e8 dc 08 01 00       	call   11e20 <log_msg@plt>
    1544:	83 c4 20             	add    $0x20,%esp
    1547:	e9 fd fd ff ff       	jmp    1349 <dump_tree_internal+0x209>
    154c:	8b 4d c4             	mov    -0x3c(%ebp),%ecx
    154f:	8b 5d c8             	mov    -0x38(%ebp),%ebx
    1552:	51                   	push   %ecx
    1553:	53                   	push   %ebx
    1554:	56                   	push   %esi
    1555:	57                   	push   %edi
    1556:	e8 e5 1f 00 00       	call   3540 <usb_dp_get_sibling_descriptor>
    155b:	83 c4 10             	add    $0x10,%esp
    155e:	89 45 c4             	mov    %eax,-0x3c(%ebp)
    1561:	85 c0                	test   %eax,%eax
    1563:	0f 85 61 fd ff ff    	jne    12ca <dump_tree_internal+0x18a>
    1569:	8b 45 c8             	mov    -0x38(%ebp),%eax
    156c:	50                   	push   %eax
    156d:	8b 45 cc             	mov    -0x34(%ebp),%eax
    1570:	50                   	push   %eax
    1571:	56                   	push   %esi
    1572:	57                   	push   %edi
    1573:	e8 c8 1f 00 00       	call   3540 <usb_dp_get_sibling_descriptor>
    1578:	83 c4 10             	add    $0x10,%esp
    157b:	89 45 c8             	mov    %eax,-0x38(%ebp)
    157e:	85 c0                	test   %eax,%eax
    1580:	0f 85 e8 fc ff ff    	jne    126e <dump_tree_internal+0x12e>
    1586:	8b 55 cc             	mov    -0x34(%ebp),%edx
    1589:	8b 4d d0             	mov    -0x30(%ebp),%ecx
    158c:	52                   	push   %edx
    158d:	51                   	push   %ecx
    158e:	56                   	push   %esi
    158f:	57                   	push   %edi
    1590:	e8 ab 1f 00 00       	call   3540 <usb_dp_get_sibling_descriptor>
    1595:	83 c4 10             	add    $0x10,%esp
    1598:	89 45 cc             	mov    %eax,-0x34(%ebp)
    159b:	85 c0                	test   %eax,%eax
    159d:	0f 85 6f fc ff ff    	jne    1212 <dump_tree_internal+0xd2>
    15a3:	8b 45 d0             	mov    -0x30(%ebp),%eax
    15a6:	50                   	push   %eax
    15a7:	8b 45 bc             	mov    -0x44(%ebp),%eax
    15aa:	50                   	push   %eax
    15ab:	56                   	push   %esi
    15ac:	57                   	push   %edi
    15ad:	e8 8e 1f 00 00       	call   3540 <usb_dp_get_sibling_descriptor>
    15b2:	83 c4 10             	add    $0x10,%esp
    15b5:	89 45 d0             	mov    %eax,-0x30(%ebp)
    15b8:	85 c0                	test   %eax,%eax
    15ba:	0f 85 f6 fb ff ff    	jne    11b6 <dump_tree_internal+0x76>
    15c0:	8d 65 f4             	lea    -0xc(%ebp),%esp
    15c3:	5b                   	pop    %ebx
    15c4:	5e                   	pop    %esi
    15c5:	5f                   	pop    %edi
    15c6:	5d                   	pop    %ebp
    15c7:	c3                   	ret    
    15c8:	90                   	nop
    15c9:	8d b4 26 00 00 00 00 	lea    0x0(%esi,%eiz,1),%esi

000015d0 <usbmid_dump_descriptors>:
    15d0:	55                   	push   %ebp
    15d1:	89 e5                	mov    %esp,%ebp
    15d3:	57                   	push   %edi
    15d4:	56                   	push   %esi
    15d5:	53                   	push   %ebx
    15d6:	83 ec 1c             	sub    $0x1c,%esp
    15d9:	c7 45 e4 00 00 00 00 	movl   $0x0,-0x1c(%ebp)
    15e0:	8b 45 08             	mov    0x8(%ebp),%eax
    15e3:	8b 5d 08             	mov    0x8(%ebp),%ebx
    15e6:	89 45 dc             	mov    %eax,-0x24(%ebp)
    15e9:	8b 45 0c             	mov    0xc(%ebp),%eax
    15ec:	89 45 e0             	mov    %eax,-0x20(%ebp)
    15ef:	c7 45 d8 c0 fa 00 00 	movl   $0xfac0,-0x28(%ebp)
    15f6:	85 db                	test   %ebx,%ebx
    15f8:	74 4b                	je     1645 <usbmid_dump_descriptors+0x75>
    15fa:	8b 45 08             	mov    0x8(%ebp),%eax
    15fd:	80 78 01 04          	cmpb   $0x4,0x1(%eax)
    1601:	74 4d                	je     1650 <usbmid_dump_descriptors+0x80>
    1603:	8b 4d 08             	mov    0x8(%ebp),%ecx
    1606:	8d 7d dc             	lea    -0x24(%ebp),%edi
    1609:	8d 75 d8             	lea    -0x28(%ebp),%esi
    160c:	52                   	push   %edx
    160d:	51                   	push   %ecx
    160e:	57                   	push   %edi
    160f:	56                   	push   %esi
    1610:	e8 cb 1b 00 00       	call   31e0 <usb_dp_get_nested_descriptor>
    1615:	83 c4 10             	add    $0x10,%esp
    1618:	89 c3                	mov    %eax,%ebx
    161a:	8d b6 00 00 00 00    	lea    0x0(%esi),%esi
    1620:	83 ec 0c             	sub    $0xc,%esp
    1623:	89 d9                	mov    %ebx,%ecx
    1625:	89 fa                	mov    %edi,%edx
    1627:	89 f0                	mov    %esi,%eax
    1629:	6a 01                	push   $0x1
    162b:	e8 10 fb ff ff       	call   1140 <dump_tree_internal>
    1630:	8b 45 08             	mov    0x8(%ebp),%eax
    1633:	53                   	push   %ebx
    1634:	50                   	push   %eax
    1635:	57                   	push   %edi
    1636:	56                   	push   %esi
    1637:	e8 04 1f 00 00       	call   3540 <usb_dp_get_sibling_descriptor>
    163c:	83 c4 20             	add    $0x20,%esp
    163f:	89 c3                	mov    %eax,%ebx
    1641:	85 c0                	test   %eax,%eax
    1643:	75 db                	jne    1620 <usbmid_dump_descriptors+0x50>
    1645:	8d 65 f4             	lea    -0xc(%ebp),%esp
    1648:	5b                   	pop    %ebx
    1649:	5e                   	pop    %esi
    164a:	5f                   	pop    %edi
    164b:	5d                   	pop    %ebp
    164c:	c3                   	ret    
    164d:	8d 76 00             	lea    0x0(%esi),%esi
    1650:	83 ec 0c             	sub    $0xc,%esp
    1653:	31 db                	xor    %ebx,%ebx
    1655:	8a 58 05             	mov    0x5(%eax),%bl
    1658:	0f b6 78 07          	movzbl 0x7(%eax),%edi
    165c:	0f b6 70 06          	movzbl 0x6(%eax),%esi
    1660:	53                   	push   %ebx
    1661:	e8 1a 4c 00 00       	call   6280 <usb_str_class>
    1666:	83 c4 0c             	add    $0xc,%esp
    1669:	81 e7 ff 00 00 00    	and    $0xff,%edi
    166f:	81 e6 ff 00 00 00    	and    $0xff,%esi
    1675:	57                   	push   %edi
    1676:	56                   	push   %esi
    1677:	53                   	push   %ebx
    1678:	50                   	push   %eax
    1679:	68 d0 f4 00 00       	push   $0xf4d0
    167e:	6a 03                	push   $0x3
    1680:	6a ff                	push   $0xffffffff
    1682:	e8 99 07 01 00       	call   11e20 <log_msg@plt>
    1687:	83 c4 20             	add    $0x20,%esp
    168a:	e9 74 ff ff ff       	jmp    1603 <usbmid_dump_descriptors+0x33>
    168f:	90                   	nop

00001690 <usbmid_explore_device>:
    1690:	55                   	push   %ebp
    1691:	89 e5                	mov    %esp,%ebp
    1693:	57                   	push   %edi
    1694:	56                   	push   %esi
    1695:	53                   	push   %ebx
    1696:	83 ec 2c             	sub    $0x2c,%esp
    1699:	8b 45 08             	mov    0x8(%ebp),%eax
    169c:	85 c0                	test   %eax,%eax
    169e:	0f 84 b9 02 00 00    	je     195d <usbmid_explore_device+0x2cd>
    16a4:	83 ec 0c             	sub    $0xc,%esp
    16a7:	8b 45 08             	mov    0x8(%ebp),%eax
    16aa:	31 db                	xor    %ebx,%ebx
    16ac:	50                   	push   %eax
    16ad:	e8 2e 11 00 00       	call   27e0 <usb_device_descriptors>
    16b2:	83 c4 10             	add    $0x10,%esp
    16b5:	8a 58 04             	mov    0x4(%eax),%bl
    16b8:	85 db                	test   %ebx,%ebx
    16ba:	0f 85 3a 02 00 00    	jne    18fa <usbmid_explore_device+0x26a>
    16c0:	83 ec 0c             	sub    $0xc,%esp
    16c3:	8b 45 08             	mov    0x8(%ebp),%eax
    16c6:	50                   	push   %eax
    16c7:	e8 14 11 00 00       	call   27e0 <usb_device_descriptors>
    16cc:	8b 78 18             	mov    0x18(%eax),%edi
    16cf:	58                   	pop    %eax
    16d0:	8b 45 08             	mov    0x8(%ebp),%eax
    16d3:	50                   	push   %eax
    16d4:	e8 07 11 00 00       	call   27e0 <usb_device_descriptors>
    16d9:	8b 58 14             	mov    0x14(%eax),%ebx
    16dc:	58                   	pop    %eax
    16dd:	8b 45 08             	mov    0x8(%ebp),%eax
    16e0:	0f b6 73 05          	movzbl 0x5(%ebx),%esi
    16e4:	50                   	push   %eax
    16e5:	e8 a6 0f 00 00       	call   2690 <usb_device_get_default_pipe>
    16ea:	81 e6 ff 00 00 00    	and    $0xff,%esi
    16f0:	5a                   	pop    %edx
    16f1:	59                   	pop    %ecx
    16f2:	56                   	push   %esi
    16f3:	50                   	push   %eax
    16f4:	e8 c7 41 00 00       	call   58c0 <usb_request_set_configuration>
    16f9:	83 c4 10             	add    $0x10,%esp
    16fc:	89 45 d0             	mov    %eax,-0x30(%ebp)
    16ff:	85 c0                	test   %eax,%eax
    1701:	0f 85 91 01 00 00    	jne    1898 <usbmid_explore_device+0x208>
    1707:	8b 45 08             	mov    0x8(%ebp),%eax
    170a:	56                   	push   %esi
    170b:	56                   	push   %esi
    170c:	6a 0c                	push   $0xc
    170e:	50                   	push   %eax
    170f:	e8 3c 1a 00 00       	call   3150 <usb_device_data_alloc>
    1714:	83 c4 10             	add    $0x10,%esp
    1717:	89 45 d4             	mov    %eax,-0x2c(%ebp)
    171a:	85 c0                	test   %eax,%eax
    171c:	0f 84 15 02 00 00    	je     1937 <usbmid_explore_device+0x2a7>
    1722:	8b 55 08             	mov    0x8(%ebp),%edx
    1725:	50                   	push   %eax
    1726:	68 07 f5 00 00       	push   $0xf507
    172b:	6a 02                	push   $0x2
    172d:	52                   	push   %edx
    172e:	e8 8d 19 00 00       	call   30c0 <usb_device_ddf_fun_create>
    1733:	8b 4d d4             	mov    -0x2c(%ebp),%ecx
    1736:	83 c4 10             	add    $0x10,%esp
    1739:	85 c0                	test   %eax,%eax
    173b:	89 01                	mov    %eax,(%ecx)
    173d:	0f 84 12 02 00 00    	je     1955 <usbmid_explore_device+0x2c5>
    1743:	83 ec 0c             	sub    $0xc,%esp
    1746:	50                   	push   %eax
    1747:	e8 64 59 00 00       	call   70b0 <ddf_fun_bind>
    174c:	83 c4 10             	add    $0x10,%esp
    174f:	89 45 d0             	mov    %eax,-0x30(%ebp)
    1752:	85 c0                	test   %eax,%eax
    1754:	0f 85 06 01 00 00    	jne    1860 <usbmid_explore_device+0x1d0>
    175a:	8b 45 d4             	mov    -0x2c(%ebp),%eax
    175d:	89 5d dc             	mov    %ebx,-0x24(%ebp)
    1760:	8d 70 04             	lea    0x4(%eax),%esi
    1763:	89 70 04             	mov    %esi,0x4(%eax)
    1766:	89 70 08             	mov    %esi,0x8(%eax)
    1769:	50                   	push   %eax
    176a:	8d 45 dc             	lea    -0x24(%ebp),%eax
    176d:	53                   	push   %ebx
    176e:	89 7d e0             	mov    %edi,-0x20(%ebp)
    1771:	50                   	push   %eax
    1772:	c7 45 e4 00 00 00 00 	movl   $0x0,-0x1c(%ebp)
    1779:	68 64 f6 00 00       	push   $0xf664
    177e:	e8 5d 1a 00 00       	call   31e0 <usb_dp_get_nested_descriptor>
    1783:	83 c4 10             	add    $0x10,%esp
    1786:	89 c7                	mov    %eax,%edi
    1788:	85 c0                	test   %eax,%eax
    178a:	75 29                	jne    17b5 <usbmid_explore_device+0x125>
    178c:	e9 f8 00 00 00       	jmp    1889 <usbmid_explore_device+0x1f9>
    1791:	8d b4 26 00 00 00 00 	lea    0x0(%esi,%eiz,1),%esi
    1798:	8d 45 dc             	lea    -0x24(%ebp),%eax
    179b:	57                   	push   %edi
    179c:	53                   	push   %ebx
    179d:	50                   	push   %eax
    179e:	68 64 f6 00 00       	push   $0xf664
    17a3:	e8 98 1d 00 00       	call   3540 <usb_dp_get_sibling_descriptor>
    17a8:	83 c4 10             	add    $0x10,%esp
    17ab:	89 c7                	mov    %eax,%edi
    17ad:	85 c0                	test   %eax,%eax
    17af:	0f 84 d4 00 00 00    	je     1889 <usbmid_explore_device+0x1f9>
    17b5:	80 7f 01 04          	cmpb   $0x4,0x1(%edi)
    17b9:	75 dd                	jne    1798 <usbmid_explore_device+0x108>
    17bb:	8b 45 d4             	mov    -0x2c(%ebp),%eax
    17be:	31 c9                	xor    %ecx,%ecx
    17c0:	8a 4f 02             	mov    0x2(%edi),%cl
    17c3:	8b 40 08             	mov    0x8(%eax),%eax
    17c6:	39 c6                	cmp    %eax,%esi
    17c8:	74 1d                	je     17e7 <usbmid_explore_device+0x157>
    17ca:	3b 48 fc             	cmp    -0x4(%eax),%ecx
    17cd:	75 0e                	jne    17dd <usbmid_explore_device+0x14d>
    17cf:	eb c7                	jmp    1798 <usbmid_explore_device+0x108>
    17d1:	8d b4 26 00 00 00 00 	lea    0x0(%esi,%eiz,1),%esi
    17d8:	3b 4a 04             	cmp    0x4(%edx),%ecx
    17db:	74 bb                	je     1798 <usbmid_explore_device+0x108>
    17dd:	8b 40 04             	mov    0x4(%eax),%eax
    17e0:	39 c6                	cmp    %eax,%esi
    17e2:	8d 50 f8             	lea    -0x8(%eax),%edx
    17e5:	75 f1                	jne    17d8 <usbmid_explore_device+0x148>
    17e7:	83 ec 0c             	sub    $0xc,%esp
    17ea:	31 c0                	xor    %eax,%eax
    17ec:	8a 47 05             	mov    0x5(%edi),%al
    17ef:	50                   	push   %eax
    17f0:	e8 8b 4a 00 00       	call   6280 <usb_str_class>
    17f5:	89 04 24             	mov    %eax,(%esp)
    17f8:	31 c0                	xor    %eax,%eax
    17fa:	8a 47 02             	mov    0x2(%edi),%al
    17fd:	50                   	push   %eax
    17fe:	68 08 f6 00 00       	push   $0xf608
    1803:	6a 03                	push   $0x3
    1805:	6a ff                	push   $0xffffffff
    1807:	e8 14 06 01 00       	call   11e20 <log_msg@plt>
    180c:	83 c4 14             	add    $0x14,%esp
    180f:	8b 45 08             	mov    0x8(%ebp),%eax
    1812:	c7 45 d8 00 00 00 00 	movl   $0x0,-0x28(%ebp)
    1819:	50                   	push   %eax
    181a:	e8 c1 0f 00 00       	call   27e0 <usb_device_descriptors>
    181f:	57                   	push   %edi
    1820:	50                   	push   %eax
    1821:	8d 45 d8             	lea    -0x28(%ebp),%eax
    1824:	50                   	push   %eax
    1825:	8b 45 08             	mov    0x8(%ebp),%eax
    1828:	50                   	push   %eax
    1829:	e8 12 06 00 00       	call   1e40 <usbmid_spawn_interface_child>
    182e:	83 c4 20             	add    $0x20,%esp
    1831:	85 c0                	test   %eax,%eax
    1833:	0f 85 85 00 00 00    	jne    18be <usbmid_explore_device+0x22e>
    1839:	8b 4d d4             	mov    -0x2c(%ebp),%ecx
    183c:	8b 45 d8             	mov    -0x28(%ebp),%eax
    183f:	8b 49 04             	mov    0x4(%ecx),%ecx
    1842:	8d 50 08             	lea    0x8(%eax),%edx
    1845:	89 48 08             	mov    %ecx,0x8(%eax)
    1848:	8b 4d d4             	mov    -0x2c(%ebp),%ecx
    184b:	89 70 0c             	mov    %esi,0xc(%eax)
    184e:	8b 41 04             	mov    0x4(%ecx),%eax
    1851:	89 50 04             	mov    %edx,0x4(%eax)
    1854:	89 51 04             	mov    %edx,0x4(%ecx)
    1857:	e9 3c ff ff ff       	jmp    1798 <usbmid_explore_device+0x108>
    185c:	8d 74 26 00          	lea    0x0(%esi,%eiz,1),%esi
    1860:	83 ec 0c             	sub    $0xc,%esp
    1863:	50                   	push   %eax
    1864:	e8 07 08 01 00       	call   12070 <str_error@plt>
    1869:	50                   	push   %eax
    186a:	68 e0 f5 00 00       	push   $0xf5e0
    186f:	6a 01                	push   $0x1
    1871:	6a ff                	push   $0xffffffff
    1873:	e8 a8 05 01 00       	call   11e20 <log_msg@plt>
    1878:	8b 45 d4             	mov    -0x2c(%ebp),%eax
    187b:	83 c4 14             	add    $0x14,%esp
    187e:	8b 00                	mov    (%eax),%eax
    1880:	50                   	push   %eax
    1881:	e8 fa 56 00 00       	call   6f80 <ddf_fun_destroy>
    1886:	83 c4 10             	add    $0x10,%esp
    1889:	8b 45 d0             	mov    -0x30(%ebp),%eax
    188c:	8d 65 f4             	lea    -0xc(%ebp),%esp
    188f:	5b                   	pop    %ebx
    1890:	5e                   	pop    %esi
    1891:	5f                   	pop    %edi
    1892:	5d                   	pop    %ebp
    1893:	c3                   	ret    
    1894:	8d 74 26 00          	lea    0x0(%esi,%eiz,1),%esi
    1898:	83 ec 0c             	sub    $0xc,%esp
    189b:	50                   	push   %eax
    189c:	e8 cf 07 01 00       	call   12070 <str_error@plt>
    18a1:	50                   	push   %eax
    18a2:	68 68 f5 00 00       	push   $0xf568
    18a7:	6a 01                	push   $0x1
    18a9:	6a ff                	push   $0xffffffff
    18ab:	e8 70 05 01 00       	call   11e20 <log_msg@plt>
    18b0:	8b 45 d0             	mov    -0x30(%ebp),%eax
    18b3:	83 c4 20             	add    $0x20,%esp
    18b6:	8d 65 f4             	lea    -0xc(%ebp),%esp
    18b9:	5b                   	pop    %ebx
    18ba:	5e                   	pop    %esi
    18bb:	5f                   	pop    %edi
    18bc:	5d                   	pop    %ebp
    18bd:	c3                   	ret    
    18be:	83 ec 0c             	sub    $0xc,%esp
    18c1:	50                   	push   %eax
    18c2:	e8 a9 07 01 00       	call   12070 <str_error@plt>
    18c7:	89 45 cc             	mov    %eax,-0x34(%ebp)
    18ca:	31 c0                	xor    %eax,%eax
    18cc:	8a 47 05             	mov    0x5(%edi),%al
    18cf:	89 04 24             	mov    %eax,(%esp)
    18d2:	e8 a9 49 00 00       	call   6280 <usb_str_class>
    18d7:	5a                   	pop    %edx
    18d8:	8b 55 cc             	mov    -0x34(%ebp),%edx
    18db:	59                   	pop    %ecx
    18dc:	52                   	push   %edx
    18dd:	50                   	push   %eax
    18de:	31 c0                	xor    %eax,%eax
    18e0:	8a 47 02             	mov    0x2(%edi),%al
    18e3:	50                   	push   %eax
    18e4:	68 30 f6 00 00       	push   $0xf630
    18e9:	6a 01                	push   $0x1
    18eb:	6a ff                	push   $0xffffffff
    18ed:	e8 2e 05 01 00       	call   11e20 <log_msg@plt>
    18f2:	83 c4 20             	add    $0x20,%esp
    18f5:	e9 9e fe ff ff       	jmp    1798 <usbmid_explore_device+0x108>
    18fa:	83 ec 0c             	sub    $0xc,%esp
    18fd:	53                   	push   %ebx
    18fe:	e8 7d 49 00 00       	call   6280 <usb_str_class>
    1903:	5e                   	pop    %esi
    1904:	5f                   	pop    %edi
    1905:	6a 00                	push   $0x0
    1907:	50                   	push   %eax
    1908:	53                   	push   %ebx
    1909:	68 0c f5 00 00       	push   $0xf50c
    190e:	6a 02                	push   $0x2
    1910:	6a ff                	push   $0xffffffff
    1912:	e8 09 05 01 00       	call   11e20 <log_msg@plt>
    1917:	83 c4 1c             	add    $0x1c,%esp
    191a:	68 3c f5 00 00       	push   $0xf53c
    191f:	6a 01                	push   $0x1
    1921:	6a ff                	push   $0xffffffff
    1923:	e8 f8 04 01 00       	call   11e20 <log_msg@plt>
    1928:	83 c4 10             	add    $0x10,%esp
    192b:	c7 45 d0 f5 ff ff ff 	movl   $0xfffffff5,-0x30(%ebp)
    1932:	e9 52 ff ff ff       	jmp    1889 <usbmid_explore_device+0x1f9>
    1937:	51                   	push   %ecx
    1938:	68 94 f5 00 00       	push   $0xf594
    193d:	6a 01                	push   $0x1
    193f:	6a ff                	push   $0xffffffff
    1941:	e8 da 04 01 00       	call   11e20 <log_msg@plt>
    1946:	83 c4 10             	add    $0x10,%esp
    1949:	c7 45 d0 fe ff ff ff 	movl   $0xfffffffe,-0x30(%ebp)
    1950:	e9 34 ff ff ff       	jmp    1889 <usbmid_explore_device+0x1f9>
    1955:	50                   	push   %eax
    1956:	68 bc f5 00 00       	push   $0xf5bc
    195b:	eb e0                	jmp    193d <usbmid_explore_device+0x2ad>
    195d:	50                   	push   %eax
    195e:	68 8a 00 00 00       	push   $0x8a
    1963:	68 fd f4 00 00       	push   $0xf4fd
    1968:	68 fc f8 00 00       	push   $0xf8fc
    196d:	e8 fe 04 01 00       	call   11e70 <assert_abort@plt>
    1972:	66 90                	xchg   %ax,%ax
    1974:	66 90                	xchg   %ax,%ax
    1976:	66 90                	xchg   %ax,%ax
    1978:	66 90                	xchg   %ax,%ax
    197a:	66 90                	xchg   %ax,%ax
    197c:	66 90                	xchg   %ax,%ax
    197e:	66 90                	xchg   %ax,%ax

00001980 <usbmid_device_gone>:
    1980:	55                   	push   %ebp
    1981:	89 e5                	mov    %esp,%ebp
    1983:	57                   	push   %edi
    1984:	56                   	push   %esi
    1985:	53                   	push   %ebx
    1986:	83 ec 1c             	sub    $0x1c,%esp
    1989:	8b 75 08             	mov    0x8(%ebp),%esi
    198c:	85 f6                	test   %esi,%esi
    198e:	0f 84 34 01 00 00    	je     1ac8 <usbmid_device_gone+0x148>
    1994:	83 ec 0c             	sub    $0xc,%esp
    1997:	56                   	push   %esi
    1998:	e8 13 18 00 00       	call   31b0 <usb_device_data_get>
    199d:	83 c4 10             	add    $0x10,%esp
    19a0:	89 c3                	mov    %eax,%ebx
    19a2:	85 c0                	test   %eax,%eax
    19a4:	0f 84 0c 01 00 00    	je     1ab6 <usbmid_device_gone+0x136>
    19aa:	83 ec 0c             	sub    $0xc,%esp
    19ad:	56                   	push   %esi
    19ae:	e8 cd 16 00 00       	call   3080 <usb_device_get_name>
    19b3:	50                   	push   %eax
    19b4:	68 77 f6 00 00       	push   $0xf677
    19b9:	6a 03                	push   $0x3
    19bb:	6a ff                	push   $0xffffffff
    19bd:	e8 5e 04 01 00       	call   11e20 <log_msg@plt>
    19c2:	83 c4 14             	add    $0x14,%esp
    19c5:	8b 3b                	mov    (%ebx),%edi
    19c7:	57                   	push   %edi
    19c8:	e8 13 58 00 00       	call   71e0 <ddf_fun_unbind>
    19cd:	83 c4 10             	add    $0x10,%esp
    19d0:	89 45 e0             	mov    %eax,-0x20(%ebp)
    19d3:	85 c0                	test   %eax,%eax
    19d5:	0f 85 b5 00 00 00    	jne    1a90 <usbmid_device_gone+0x110>
    19db:	83 ec 0c             	sub    $0xc,%esp
    19de:	8b 33                	mov    (%ebx),%esi
    19e0:	56                   	push   %esi
    19e1:	e8 9a 55 00 00       	call   6f80 <ddf_fun_destroy>
    19e6:	8d 43 04             	lea    0x4(%ebx),%eax
    19e9:	83 c4 10             	add    $0x10,%esp
    19ec:	89 45 e4             	mov    %eax,-0x1c(%ebp)
    19ef:	eb 56                	jmp    1a47 <usbmid_device_gone+0xc7>
    19f1:	8d b4 26 00 00 00 00 	lea    0x0(%esi,%eiz,1),%esi
    19f8:	8b 0f                	mov    (%edi),%ecx
    19fa:	85 c9                	test   %ecx,%ecx
    19fc:	74 0e                	je     1a0c <usbmid_device_gone+0x8c>
    19fe:	8b 47 04             	mov    0x4(%edi),%eax
    1a01:	85 c0                	test   %eax,%eax
    1a03:	74 07                	je     1a0c <usbmid_device_gone+0x8c>
    1a05:	89 08                	mov    %ecx,(%eax)
    1a07:	8b 0f                	mov    (%edi),%ecx
    1a09:	89 41 04             	mov    %eax,0x4(%ecx)
    1a0c:	83 ec 0c             	sub    $0xc,%esp
    1a0f:	8b 4f f8             	mov    -0x8(%edi),%ecx
    1a12:	c7 07 00 00 00 00    	movl   $0x0,(%edi)
    1a18:	c7 47 04 00 00 00 00 	movl   $0x0,0x4(%edi)
    1a1f:	51                   	push   %ecx
    1a20:	e8 4b 55 00 00       	call   6f70 <ddf_fun_get_name>
    1a25:	50                   	push   %eax
    1a26:	68 8c f6 00 00       	push   $0xf68c
    1a2b:	6a 03                	push   $0x3
    1a2d:	6a ff                	push   $0xffffffff
    1a2f:	e8 ec 03 01 00       	call   11e20 <log_msg@plt>
    1a34:	83 c4 14             	add    $0x14,%esp
    1a37:	8d 77 f8             	lea    -0x8(%edi),%esi
    1a3a:	56                   	push   %esi
    1a3b:	e8 70 03 00 00       	call   1db0 <usbmid_interface_destroy>
    1a40:	83 c4 10             	add    $0x10,%esp
    1a43:	85 c0                	test   %eax,%eax
    1a45:	75 19                	jne    1a60 <usbmid_device_gone+0xe0>
    1a47:	8b 7b 08             	mov    0x8(%ebx),%edi
    1a4a:	39 7d e4             	cmp    %edi,-0x1c(%ebp)
    1a4d:	75 a9                	jne    19f8 <usbmid_device_gone+0x78>
    1a4f:	8b 45 e0             	mov    -0x20(%ebp),%eax
    1a52:	8d 65 f4             	lea    -0xc(%ebp),%esp
    1a55:	5b                   	pop    %ebx
    1a56:	5e                   	pop    %esi
    1a57:	5f                   	pop    %edi
    1a58:	5d                   	pop    %ebp
    1a59:	c3                   	ret    
    1a5a:	8d b6 00 00 00 00    	lea    0x0(%esi),%esi
    1a60:	83 ec 0c             	sub    $0xc,%esp
    1a63:	89 45 e0             	mov    %eax,-0x20(%ebp)
    1a66:	50                   	push   %eax
    1a67:	e8 04 06 01 00       	call   12070 <str_error@plt>
    1a6c:	8b 57 f8             	mov    -0x8(%edi),%edx
    1a6f:	89 c6                	mov    %eax,%esi
    1a71:	58                   	pop    %eax
    1a72:	52                   	push   %edx
    1a73:	e8 f8 54 00 00       	call   6f70 <ddf_fun_get_name>
    1a78:	89 34 24             	mov    %esi,(%esp)
    1a7b:	50                   	push   %eax
    1a7c:	68 08 f7 00 00       	push   $0xf708
    1a81:	6a 01                	push   $0x1
    1a83:	6a ff                	push   $0xffffffff
    1a85:	e8 96 03 01 00       	call   11e20 <log_msg@plt>
    1a8a:	83 c4 20             	add    $0x20,%esp
    1a8d:	eb b8                	jmp    1a47 <usbmid_device_gone+0xc7>
    1a8f:	90                   	nop
    1a90:	83 ec 0c             	sub    $0xc,%esp
    1a93:	50                   	push   %eax
    1a94:	e8 d7 05 01 00       	call   12070 <str_error@plt>
    1a99:	50                   	push   %eax
    1a9a:	68 dc f6 00 00       	push   $0xf6dc
    1a9f:	6a 01                	push   $0x1
    1aa1:	6a ff                	push   $0xffffffff
    1aa3:	e8 78 03 01 00       	call   11e20 <log_msg@plt>
    1aa8:	8b 45 e0             	mov    -0x20(%ebp),%eax
    1aab:	83 c4 20             	add    $0x20,%esp
    1aae:	8d 65 f4             	lea    -0xc(%ebp),%esp
    1ab1:	5b                   	pop    %ebx
    1ab2:	5e                   	pop    %esi
    1ab3:	5f                   	pop    %edi
    1ab4:	5d                   	pop    %ebp
    1ab5:	c3                   	ret    
    1ab6:	50                   	push   %eax
    1ab7:	6a 74                	push   $0x74
    1ab9:	68 68 f6 00 00       	push   $0xf668
    1abe:	68 6f f6 00 00       	push   $0xf66f
    1ac3:	e8 a8 03 01 00       	call   11e70 <assert_abort@plt>
    1ac8:	50                   	push   %eax
    1ac9:	6a 72                	push   $0x72
    1acb:	68 68 f6 00 00       	push   $0xf668
    1ad0:	68 fc f8 00 00       	push   $0xf8fc
    1ad5:	e8 96 03 01 00       	call   11e70 <assert_abort@plt>
    1ada:	8d b6 00 00 00 00    	lea    0x0(%esi),%esi

00001ae0 <usbmid_device_remove>:
    1ae0:	55                   	push   %ebp
    1ae1:	89 e5                	mov    %esp,%ebp
    1ae3:	57                   	push   %edi
    1ae4:	56                   	push   %esi
    1ae5:	53                   	push   %ebx
    1ae6:	83 ec 1c             	sub    $0x1c,%esp
    1ae9:	8b 45 08             	mov    0x8(%ebp),%eax
    1aec:	85 c0                	test   %eax,%eax
    1aee:	0f 84 6c 01 00 00    	je     1c60 <usbmid_device_remove+0x180>
    1af4:	83 ec 0c             	sub    $0xc,%esp
    1af7:	50                   	push   %eax
    1af8:	e8 b3 16 00 00       	call   31b0 <usb_device_data_get>
    1afd:	83 c4 10             	add    $0x10,%esp
    1b00:	89 c6                	mov    %eax,%esi
    1b02:	85 c0                	test   %eax,%eax
    1b04:	0f 84 44 01 00 00    	je     1c4e <usbmid_device_remove+0x16e>
    1b0a:	83 ec 0c             	sub    $0xc,%esp
    1b0d:	8b 00                	mov    (%eax),%eax
    1b0f:	50                   	push   %eax
    1b10:	e8 cb 56 00 00       	call   71e0 <ddf_fun_unbind>
    1b15:	83 c4 10             	add    $0x10,%esp
    1b18:	89 45 e0             	mov    %eax,-0x20(%ebp)
    1b1b:	85 c0                	test   %eax,%eax
    1b1d:	0f 85 cd 00 00 00    	jne    1bf0 <usbmid_device_remove+0x110>
    1b23:	83 ec 0c             	sub    $0xc,%esp
    1b26:	8b 06                	mov    (%esi),%eax
    1b28:	50                   	push   %eax
    1b29:	e8 52 54 00 00       	call   6f80 <ddf_fun_destroy>
    1b2e:	8d 46 04             	lea    0x4(%esi),%eax
    1b31:	83 c4 10             	add    $0x10,%esp
    1b34:	89 45 e4             	mov    %eax,-0x1c(%ebp)
    1b37:	eb 1d                	jmp    1b56 <usbmid_device_remove+0x76>
    1b39:	8d b4 26 00 00 00 00 	lea    0x0(%esi,%eiz,1),%esi
    1b40:	83 ec 0c             	sub    $0xc,%esp
    1b43:	57                   	push   %edi
    1b44:	e8 67 02 00 00       	call   1db0 <usbmid_interface_destroy>
    1b49:	83 c4 10             	add    $0x10,%esp
    1b4c:	89 c7                	mov    %eax,%edi
    1b4e:	85 c0                	test   %eax,%eax
    1b50:	0f 85 c2 00 00 00    	jne    1c18 <usbmid_device_remove+0x138>
    1b56:	8b 5e 08             	mov    0x8(%esi),%ebx
    1b59:	39 5d e4             	cmp    %ebx,-0x1c(%ebp)
    1b5c:	0f 84 a9 00 00 00    	je     1c0b <usbmid_device_remove+0x12b>
    1b62:	8b 13                	mov    (%ebx),%edx
    1b64:	85 d2                	test   %edx,%edx
    1b66:	74 0e                	je     1b76 <usbmid_device_remove+0x96>
    1b68:	8b 43 04             	mov    0x4(%ebx),%eax
    1b6b:	85 c0                	test   %eax,%eax
    1b6d:	74 07                	je     1b76 <usbmid_device_remove+0x96>
    1b6f:	89 10                	mov    %edx,(%eax)
    1b71:	8b 13                	mov    (%ebx),%edx
    1b73:	89 42 04             	mov    %eax,0x4(%edx)
    1b76:	83 ec 0c             	sub    $0xc,%esp
    1b79:	c7 03 00 00 00 00    	movl   $0x0,(%ebx)
    1b7f:	c7 43 04 00 00 00 00 	movl   $0x0,0x4(%ebx)
    1b86:	8b 43 f8             	mov    -0x8(%ebx),%eax
    1b89:	50                   	push   %eax
    1b8a:	e8 e1 53 00 00       	call   6f70 <ddf_fun_get_name>
    1b8f:	50                   	push   %eax
    1b90:	68 a1 f6 00 00       	push   $0xf6a1
    1b95:	6a 03                	push   $0x3
    1b97:	6a ff                	push   $0xffffffff
    1b99:	e8 82 02 01 00       	call   11e20 <log_msg@plt>
    1b9e:	83 c4 14             	add    $0x14,%esp
    1ba1:	8b 43 f8             	mov    -0x8(%ebx),%eax
    1ba4:	8d 7b f8             	lea    -0x8(%ebx),%edi
    1ba7:	50                   	push   %eax
    1ba8:	e8 03 57 00 00       	call   72b0 <ddf_fun_offline>
    1bad:	83 c4 10             	add    $0x10,%esp
    1bb0:	85 c0                	test   %eax,%eax
    1bb2:	74 8c                	je     1b40 <usbmid_device_remove+0x60>
    1bb4:	83 ec 0c             	sub    $0xc,%esp
    1bb7:	89 45 dc             	mov    %eax,-0x24(%ebp)
    1bba:	50                   	push   %eax
    1bbb:	e8 b0 04 01 00       	call   12070 <str_error@plt>
    1bc0:	89 45 e0             	mov    %eax,-0x20(%ebp)
    1bc3:	8b 43 f8             	mov    -0x8(%ebx),%eax
    1bc6:	59                   	pop    %ecx
    1bc7:	50                   	push   %eax
    1bc8:	e8 a3 53 00 00       	call   6f70 <ddf_fun_get_name>
    1bcd:	8b 4d e0             	mov    -0x20(%ebp),%ecx
    1bd0:	89 0c 24             	mov    %ecx,(%esp)
    1bd3:	50                   	push   %eax
    1bd4:	68 2c f7 00 00       	push   $0xf72c
    1bd9:	6a 02                	push   $0x2
    1bdb:	6a ff                	push   $0xffffffff
    1bdd:	e8 3e 02 01 00       	call   11e20 <log_msg@plt>
    1be2:	8b 55 dc             	mov    -0x24(%ebp),%edx
    1be5:	83 c4 20             	add    $0x20,%esp
    1be8:	89 55 e0             	mov    %edx,-0x20(%ebp)
    1beb:	e9 50 ff ff ff       	jmp    1b40 <usbmid_device_remove+0x60>
    1bf0:	83 ec 0c             	sub    $0xc,%esp
    1bf3:	50                   	push   %eax
    1bf4:	e8 77 04 01 00       	call   12070 <str_error@plt>
    1bf9:	50                   	push   %eax
    1bfa:	68 dc f6 00 00       	push   $0xf6dc
    1bff:	6a 01                	push   $0x1
    1c01:	6a ff                	push   $0xffffffff
    1c03:	e8 18 02 01 00       	call   11e20 <log_msg@plt>
    1c08:	83 c4 20             	add    $0x20,%esp
    1c0b:	8b 45 e0             	mov    -0x20(%ebp),%eax
    1c0e:	8d 65 f4             	lea    -0xc(%ebp),%esp
    1c11:	5b                   	pop    %ebx
    1c12:	5e                   	pop    %esi
    1c13:	5f                   	pop    %edi
    1c14:	5d                   	pop    %ebp
    1c15:	c3                   	ret    
    1c16:	66 90                	xchg   %ax,%ax
    1c18:	83 ec 0c             	sub    $0xc,%esp
    1c1b:	50                   	push   %eax
    1c1c:	e8 4f 04 01 00       	call   12070 <str_error@plt>
    1c21:	8b 53 f8             	mov    -0x8(%ebx),%edx
    1c24:	89 45 e0             	mov    %eax,-0x20(%ebp)
    1c27:	58                   	pop    %eax
    1c28:	52                   	push   %edx
    1c29:	e8 42 53 00 00       	call   6f70 <ddf_fun_get_name>
    1c2e:	8b 55 e0             	mov    -0x20(%ebp),%edx
    1c31:	89 14 24             	mov    %edx,(%esp)
    1c34:	50                   	push   %eax
    1c35:	68 50 f7 00 00       	push   $0xf750
    1c3a:	6a 01                	push   $0x1
    1c3c:	6a ff                	push   $0xffffffff
    1c3e:	e8 dd 01 01 00       	call   11e20 <log_msg@plt>
    1c43:	89 7d e0             	mov    %edi,-0x20(%ebp)
    1c46:	83 c4 20             	add    $0x20,%esp
    1c49:	e9 08 ff ff ff       	jmp    1b56 <usbmid_device_remove+0x76>
    1c4e:	50                   	push   %eax
    1c4f:	6a 43                	push   $0x43
    1c51:	68 68 f6 00 00       	push   $0xf668
    1c56:	68 6f f6 00 00       	push   $0xf66f
    1c5b:	e8 10 02 01 00       	call   11e70 <assert_abort@plt>
    1c60:	52                   	push   %edx
    1c61:	6a 41                	push   $0x41
    1c63:	68 68 f6 00 00       	push   $0xf668
    1c68:	68 fc f8 00 00       	push   $0xf8fc
    1c6d:	e8 fe 01 01 00       	call   11e70 <assert_abort@plt>
    1c72:	8d b4 26 00 00 00 00 	lea    0x0(%esi,%eiz,1),%esi
    1c79:	8d bc 27 00 00 00 00 	lea    0x0(%edi,%eiz,1),%edi

00001c80 <usbmid_device_add>:
    1c80:	55                   	push   %ebp
    1c81:	89 e5                	mov    %esp,%ebp
    1c83:	53                   	push   %ebx
    1c84:	83 ec 10             	sub    $0x10,%esp
    1c87:	8b 5d 08             	mov    0x8(%ebp),%ebx
    1c8a:	53                   	push   %ebx
    1c8b:	e8 f0 13 00 00       	call   3080 <usb_device_get_name>
    1c90:	50                   	push   %eax
    1c91:	68 b7 f6 00 00       	push   $0xf6b7
    1c96:	6a 03                	push   $0x3
    1c98:	6a ff                	push   $0xffffffff
    1c9a:	e8 81 01 01 00       	call   11e20 <log_msg@plt>
    1c9f:	89 5d 08             	mov    %ebx,0x8(%ebp)
    1ca2:	83 c4 20             	add    $0x20,%esp
    1ca5:	8b 5d fc             	mov    -0x4(%ebp),%ebx
    1ca8:	c9                   	leave  
    1ca9:	e9 e2 f9 ff ff       	jmp    1690 <usbmid_explore_device>
    1cae:	66 90                	xchg   %ax,%ax

00001cb0 <main>:
    1cb0:	8d 4c 24 04          	lea    0x4(%esp),%ecx
    1cb4:	83 e4 f0             	and    $0xfffffff0,%esp
    1cb7:	ff 71 fc             	pushl  -0x4(%ecx)
    1cba:	55                   	push   %ebp
    1cbb:	89 e5                	mov    %esp,%ebp
    1cbd:	51                   	push   %ecx
    1cbe:	83 ec 10             	sub    $0x10,%esp
    1cc1:	68 74 f7 00 00       	push   $0xf774
    1cc6:	e8 35 00 01 00       	call   11d00 <printf@plt>
    1ccb:	c7 04 24 d5 f6 00 00 	movl   $0xf6d5,(%esp)
    1cd2:	e8 79 00 01 00       	call   11d50 <log_init@plt>
    1cd7:	c7 04 24 a0 f7 00 00 	movl   $0xf7a0,(%esp)
    1cde:	e8 5d 05 00 00       	call   2240 <usb_driver_main>
    1ce3:	8b 4d fc             	mov    -0x4(%ebp),%ecx
    1ce6:	c9                   	leave  
    1ce7:	8d 61 fc             	lea    -0x4(%ecx),%esp
    1cea:	c3                   	ret    
    1ceb:	66 90                	xchg   %ax,%ax
    1ced:	66 90                	xchg   %ax,%ax
    1cef:	90                   	nop

00001cf0 <usb_iface_device_handle>:
    1cf0:	55                   	push   %ebp
    1cf1:	89 e5                	mov    %esp,%ebp
    1cf3:	53                   	push   %ebx
    1cf4:	53                   	push   %ebx
    1cf5:	8b 45 08             	mov    0x8(%ebp),%eax
    1cf8:	8b 5d 0c             	mov    0xc(%ebp),%ebx
    1cfb:	85 c0                	test   %eax,%eax
    1cfd:	74 2e                	je     1d2d <usb_iface_device_handle+0x3d>
    1cff:	85 db                	test   %ebx,%ebx
    1d01:	74 4e                	je     1d51 <usb_iface_device_handle+0x61>
    1d03:	83 ec 0c             	sub    $0xc,%esp
    1d06:	50                   	push   %eax
    1d07:	e8 c4 50 00 00       	call   6dd0 <ddf_fun_get_dev>
    1d0c:	83 c4 10             	add    $0x10,%esp
    1d0f:	85 c0                	test   %eax,%eax
    1d11:	74 2c                	je     1d3f <usb_iface_device_handle+0x4f>
    1d13:	83 ec 0c             	sub    $0xc,%esp
    1d16:	50                   	push   %eax
    1d17:	e8 e4 4f 00 00       	call   6d00 <ddf_dev_data_get>
    1d1c:	89 04 24             	mov    %eax,(%esp)
    1d1f:	e8 8c 0a 00 00       	call   27b0 <usb_device_get_devman_handle>
    1d24:	89 03                	mov    %eax,(%ebx)
    1d26:	31 c0                	xor    %eax,%eax
    1d28:	8b 5d fc             	mov    -0x4(%ebp),%ebx
    1d2b:	c9                   	leave  
    1d2c:	c3                   	ret    
    1d2d:	51                   	push   %ecx
    1d2e:	6a 37                	push   $0x37
    1d30:	68 b8 f7 00 00       	push   $0xf7b8
    1d35:	68 c1 f7 00 00       	push   $0xf7c1
    1d3a:	e8 31 01 01 00       	call   11e70 <assert_abort@plt>
    1d3f:	50                   	push   %eax
    1d40:	6a 41                	push   $0x41
    1d42:	68 fc f7 00 00       	push   $0xf7fc
    1d47:	68 fc f8 00 00       	push   $0xf8fc
    1d4c:	e8 1f 01 01 00       	call   11e70 <assert_abort@plt>
    1d51:	52                   	push   %edx
    1d52:	6a 38                	push   $0x38
    1d54:	68 b8 f7 00 00       	push   $0xf7b8
    1d59:	68 c5 f7 00 00       	push   $0xf7c5
    1d5e:	e8 0d 01 01 00       	call   11e70 <assert_abort@plt>
    1d63:	8d b6 00 00 00 00    	lea    0x0(%esi),%esi
    1d69:	8d bc 27 00 00 00 00 	lea    0x0(%edi,%eiz,1),%edi

00001d70 <usb_iface_iface_no>:
    1d70:	55                   	push   %ebp
    1d71:	89 e5                	mov    %esp,%ebp
    1d73:	53                   	push   %ebx
    1d74:	83 ec 10             	sub    $0x10,%esp
    1d77:	8b 55 08             	mov    0x8(%ebp),%edx
    1d7a:	8b 5d 0c             	mov    0xc(%ebp),%ebx
    1d7d:	52                   	push   %edx
    1d7e:	e8 dd 51 00 00       	call   6f60 <ddf_fun_data_get>
    1d83:	83 c4 10             	add    $0x10,%esp
    1d86:	85 c0                	test   %eax,%eax
    1d88:	74 10                	je     1d9a <usb_iface_iface_no+0x2a>
    1d8a:	85 db                	test   %ebx,%ebx
    1d8c:	74 05                	je     1d93 <usb_iface_iface_no+0x23>
    1d8e:	8b 40 04             	mov    0x4(%eax),%eax
    1d91:	89 03                	mov    %eax,(%ebx)
    1d93:	31 c0                	xor    %eax,%eax
    1d95:	8b 5d fc             	mov    -0x4(%ebp),%ebx
    1d98:	c9                   	leave  
    1d99:	c3                   	ret    
    1d9a:	50                   	push   %eax
    1d9b:	6a 42                	push   $0x42
    1d9d:	68 b8 f7 00 00       	push   $0xf7b8
    1da2:	68 d0 f7 00 00       	push   $0xf7d0
    1da7:	e8 c4 00 01 00       	call   11e70 <assert_abort@plt>
    1dac:	8d 74 26 00          	lea    0x0(%esi,%eiz,1),%esi

00001db0 <usbmid_interface_destroy>:
    1db0:	55                   	push   %ebp
    1db1:	89 e5                	mov    %esp,%ebp
    1db3:	53                   	push   %ebx
    1db4:	83 ec 14             	sub    $0x14,%esp
    1db7:	8b 5d 08             	mov    0x8(%ebp),%ebx
    1dba:	85 db                	test   %ebx,%ebx
    1dbc:	74 6d                	je     1e2b <usbmid_interface_destroy+0x7b>
    1dbe:	8b 43 08             	mov    0x8(%ebx),%eax
    1dc1:	85 c0                	test   %eax,%eax
    1dc3:	74 1b                	je     1de0 <usbmid_interface_destroy+0x30>
    1dc5:	8b 43 0c             	mov    0xc(%ebx),%eax
    1dc8:	85 c0                	test   %eax,%eax
    1dca:	74 1b                	je     1de7 <usbmid_interface_destroy+0x37>
    1dcc:	52                   	push   %edx
    1dcd:	6a 58                	push   $0x58
    1dcf:	68 b8 f7 00 00       	push   $0xf7b8
    1dd4:	68 d6 f7 00 00       	push   $0xf7d6
    1dd9:	e8 92 00 01 00       	call   11e70 <assert_abort@plt>
    1dde:	66 90                	xchg   %ax,%ax
    1de0:	8b 43 0c             	mov    0xc(%ebx),%eax
    1de3:	85 c0                	test   %eax,%eax
    1de5:	74 19                	je     1e00 <usbmid_interface_destroy+0x50>
    1de7:	53                   	push   %ebx
    1de8:	68 8a 01 00 00       	push   $0x18a
    1ded:	68 2c f8 00 00       	push   $0xf82c
    1df2:	68 54 f8 00 00       	push   $0xf854
    1df7:	e8 74 00 01 00       	call   11e70 <assert_abort@plt>
    1dfc:	8d 74 26 00          	lea    0x0(%esi,%eiz,1),%esi
    1e00:	83 ec 0c             	sub    $0xc,%esp
    1e03:	8b 03                	mov    (%ebx),%eax
    1e05:	50                   	push   %eax
    1e06:	e8 d5 53 00 00       	call   71e0 <ddf_fun_unbind>
    1e0b:	83 c4 10             	add    $0x10,%esp
    1e0e:	85 c0                	test   %eax,%eax
    1e10:	75 14                	jne    1e26 <usbmid_interface_destroy+0x76>
    1e12:	83 ec 0c             	sub    $0xc,%esp
    1e15:	8b 0b                	mov    (%ebx),%ecx
    1e17:	89 45 f4             	mov    %eax,-0xc(%ebp)
    1e1a:	51                   	push   %ecx
    1e1b:	e8 60 51 00 00       	call   6f80 <ddf_fun_destroy>
    1e20:	83 c4 10             	add    $0x10,%esp
    1e23:	8b 45 f4             	mov    -0xc(%ebp),%eax
    1e26:	8b 5d fc             	mov    -0x4(%ebp),%ebx
    1e29:	c9                   	leave  
    1e2a:	c3                   	ret    
    1e2b:	50                   	push   %eax
    1e2c:	6a 57                	push   $0x57
    1e2e:	68 b8 f7 00 00       	push   $0xf7b8
    1e33:	68 cc f7 00 00       	push   $0xf7cc
    1e38:	e8 33 00 01 00       	call   11e70 <assert_abort@plt>
    1e3d:	8d 76 00             	lea    0x0(%esi),%esi

00001e40 <usbmid_spawn_interface_child>:
    1e40:	55                   	push   %ebp
    1e41:	89 e5                	mov    %esp,%ebp
    1e43:	57                   	push   %edi
    1e44:	56                   	push   %esi
    1e45:	53                   	push   %ebx
    1e46:	83 ec 38             	sub    $0x38,%esp
    1e49:	31 db                	xor    %ebx,%ebx
    1e4b:	8b 45 14             	mov    0x14(%ebp),%eax
    1e4e:	c7 45 dc 00 00 00 00 	movl   $0x0,-0x24(%ebp)
    1e55:	89 c6                	mov    %eax,%esi
    1e57:	8a 58 02             	mov    0x2(%eax),%bl
    1e5a:	31 c0                	xor    %eax,%eax
    1e5c:	8a 46 05             	mov    0x5(%esi),%al
    1e5f:	50                   	push   %eax
    1e60:	e8 1b 44 00 00       	call   6280 <usb_str_class>
    1e65:	53                   	push   %ebx
    1e66:	50                   	push   %eax
    1e67:	8d 45 dc             	lea    -0x24(%ebp),%eax
    1e6a:	68 f3 f7 00 00       	push   $0xf7f3
    1e6f:	50                   	push   %eax
    1e70:	e8 7b 01 01 00       	call   11ff0 <asprintf@plt>
    1e75:	83 c4 20             	add    $0x20,%esp
    1e78:	85 c0                	test   %eax,%eax
    1e7a:	0f 88 8f 01 00 00    	js     200f <usbmid_spawn_interface_child+0x1cf>
    1e80:	8b 4d dc             	mov    -0x24(%ebp),%ecx
    1e83:	8b 5d 08             	mov    0x8(%ebp),%ebx
    1e86:	52                   	push   %edx
    1e87:	51                   	push   %ecx
    1e88:	6a 01                	push   $0x1
    1e8a:	53                   	push   %ebx
    1e8b:	e8 30 12 00 00       	call   30c0 <usb_device_ddf_fun_create>
    1e90:	5f                   	pop    %edi
    1e91:	89 c6                	mov    %eax,%esi
    1e93:	8b 45 dc             	mov    -0x24(%ebp),%eax
    1e96:	50                   	push   %eax
    1e97:	e8 b4 02 01 00       	call   12150 <free@plt>
    1e9c:	83 c4 10             	add    $0x10,%esp
    1e9f:	85 f6                	test   %esi,%esi
    1ea1:	0f 84 68 01 00 00    	je     200f <usbmid_spawn_interface_child+0x1cf>
    1ea7:	8d 5d e0             	lea    -0x20(%ebp),%ebx
    1eaa:	50                   	push   %eax
    1eab:	8b 45 14             	mov    0x14(%ebp),%eax
    1eae:	53                   	push   %ebx
    1eaf:	50                   	push   %eax
    1eb0:	8b 45 10             	mov    0x10(%ebp),%eax
    1eb3:	50                   	push   %eax
    1eb4:	89 5d e0             	mov    %ebx,-0x20(%ebp)
    1eb7:	89 5d e4             	mov    %ebx,-0x1c(%ebp)
    1eba:	e8 71 20 00 00       	call   3f30 <usb_device_create_match_ids_from_interface>
    1ebf:	83 c4 10             	add    $0x10,%esp
    1ec2:	85 c0                	test   %eax,%eax
    1ec4:	0f 85 89 00 00 00    	jne    1f53 <usbmid_spawn_interface_child+0x113>
    1eca:	8b 7d e4             	mov    -0x1c(%ebp),%edi
    1ecd:	39 df                	cmp    %ebx,%edi
    1ecf:	75 12                	jne    1ee3 <usbmid_spawn_interface_child+0xa3>
    1ed1:	e9 e8 00 00 00       	jmp    1fbe <usbmid_spawn_interface_child+0x17e>
    1ed6:	66 90                	xchg   %ax,%ax
    1ed8:	8b 7f 04             	mov    0x4(%edi),%edi
    1edb:	39 df                	cmp    %ebx,%edi
    1edd:	0f 84 8d 00 00 00    	je     1f70 <usbmid_spawn_interface_child+0x130>
    1ee3:	50                   	push   %eax
    1ee4:	8b 47 0c             	mov    0xc(%edi),%eax
    1ee7:	50                   	push   %eax
    1ee8:	8b 47 08             	mov    0x8(%edi),%eax
    1eeb:	50                   	push   %eax
    1eec:	56                   	push   %esi
    1eed:	e8 ee 53 00 00       	call   72e0 <ddf_fun_add_match_id>
    1ef2:	83 c4 10             	add    $0x10,%esp
    1ef5:	85 c0                	test   %eax,%eax
    1ef7:	74 df                	je     1ed8 <usbmid_spawn_interface_child+0x98>
    1ef9:	8b 7d e4             	mov    -0x1c(%ebp),%edi
    1efc:	39 df                	cmp    %ebx,%edi
    1efe:	74 53                	je     1f53 <usbmid_spawn_interface_child+0x113>
    1f00:	8b 0f                	mov    (%edi),%ecx
    1f02:	85 c9                	test   %ecx,%ecx
    1f04:	74 0e                	je     1f14 <usbmid_spawn_interface_child+0xd4>
    1f06:	8b 57 04             	mov    0x4(%edi),%edx
    1f09:	85 d2                	test   %edx,%edx
    1f0b:	74 07                	je     1f14 <usbmid_spawn_interface_child+0xd4>
    1f0d:	89 0a                	mov    %ecx,(%edx)
    1f0f:	8b 0f                	mov    (%edi),%ecx
    1f11:	89 51 04             	mov    %edx,0x4(%ecx)
    1f14:	8b 57 08             	mov    0x8(%edi),%edx
    1f17:	c7 07 00 00 00 00    	movl   $0x0,(%edi)
    1f1d:	c7 47 04 00 00 00 00 	movl   $0x0,0x4(%edi)
    1f24:	85 d2                	test   %edx,%edx
    1f26:	74 12                	je     1f3a <usbmid_spawn_interface_child+0xfa>
    1f28:	83 ec 0c             	sub    $0xc,%esp
    1f2b:	89 45 d4             	mov    %eax,-0x2c(%ebp)
    1f2e:	52                   	push   %edx
    1f2f:	e8 1c 02 01 00       	call   12150 <free@plt>
    1f34:	83 c4 10             	add    $0x10,%esp
    1f37:	8b 45 d4             	mov    -0x2c(%ebp),%eax
    1f3a:	83 ec 0c             	sub    $0xc,%esp
    1f3d:	89 45 d4             	mov    %eax,-0x2c(%ebp)
    1f40:	57                   	push   %edi
    1f41:	e8 0a 02 01 00       	call   12150 <free@plt>
    1f46:	8b 7d e4             	mov    -0x1c(%ebp),%edi
    1f49:	83 c4 10             	add    $0x10,%esp
    1f4c:	8b 45 d4             	mov    -0x2c(%ebp),%eax
    1f4f:	39 df                	cmp    %ebx,%edi
    1f51:	75 ad                	jne    1f00 <usbmid_spawn_interface_child+0xc0>
    1f53:	83 ec 0c             	sub    $0xc,%esp
    1f56:	89 45 d4             	mov    %eax,-0x2c(%ebp)
    1f59:	56                   	push   %esi
    1f5a:	e8 21 50 00 00       	call   6f80 <ddf_fun_destroy>
    1f5f:	83 c4 10             	add    $0x10,%esp
    1f62:	8b 45 d4             	mov    -0x2c(%ebp),%eax
    1f65:	8d 65 f4             	lea    -0xc(%ebp),%esp
    1f68:	5b                   	pop    %ebx
    1f69:	5e                   	pop    %esi
    1f6a:	5f                   	pop    %edi
    1f6b:	5d                   	pop    %ebp
    1f6c:	c3                   	ret    
    1f6d:	8d 76 00             	lea    0x0(%esi),%esi
    1f70:	8b 7d e4             	mov    -0x1c(%ebp),%edi
    1f73:	39 df                	cmp    %ebx,%edi
    1f75:	74 47                	je     1fbe <usbmid_spawn_interface_child+0x17e>
    1f77:	8b 0f                	mov    (%edi),%ecx
    1f79:	85 c9                	test   %ecx,%ecx
    1f7b:	74 0e                	je     1f8b <usbmid_spawn_interface_child+0x14b>
    1f7d:	8b 57 04             	mov    0x4(%edi),%edx
    1f80:	85 d2                	test   %edx,%edx
    1f82:	74 07                	je     1f8b <usbmid_spawn_interface_child+0x14b>
    1f84:	89 0a                	mov    %ecx,(%edx)
    1f86:	8b 0f                	mov    (%edi),%ecx
    1f88:	89 51 04             	mov    %edx,0x4(%ecx)
    1f8b:	8b 57 08             	mov    0x8(%edi),%edx
    1f8e:	c7 07 00 00 00 00    	movl   $0x0,(%edi)
    1f94:	c7 47 04 00 00 00 00 	movl   $0x0,0x4(%edi)
    1f9b:	85 d2                	test   %edx,%edx
    1f9d:	74 0c                	je     1fab <usbmid_spawn_interface_child+0x16b>
    1f9f:	83 ec 0c             	sub    $0xc,%esp
    1fa2:	52                   	push   %edx
    1fa3:	e8 a8 01 01 00       	call   12150 <free@plt>
    1fa8:	83 c4 10             	add    $0x10,%esp
    1fab:	83 ec 0c             	sub    $0xc,%esp
    1fae:	57                   	push   %edi
    1faf:	e8 9c 01 01 00       	call   12150 <free@plt>
    1fb4:	8b 7d e4             	mov    -0x1c(%ebp),%edi
    1fb7:	83 c4 10             	add    $0x10,%esp
    1fba:	39 df                	cmp    %ebx,%edi
    1fbc:	75 b9                	jne    1f77 <usbmid_spawn_interface_child+0x137>
    1fbe:	50                   	push   %eax
    1fbf:	50                   	push   %eax
    1fc0:	68 80 3f 01 00       	push   $0x13f80
    1fc5:	56                   	push   %esi
    1fc6:	e8 d5 53 00 00       	call   73a0 <ddf_fun_set_ops>
    1fcb:	5a                   	pop    %edx
    1fcc:	59                   	pop    %ecx
    1fcd:	6a 10                	push   $0x10
    1fcf:	56                   	push   %esi
    1fd0:	e8 2b 4f 00 00       	call   6f00 <ddf_fun_data_alloc>
    1fd5:	8b 4d 14             	mov    0x14(%ebp),%ecx
    1fd8:	89 c3                	mov    %eax,%ebx
    1fda:	89 30                	mov    %esi,(%eax)
    1fdc:	31 c0                	xor    %eax,%eax
    1fde:	8a 41 02             	mov    0x2(%ecx),%al
    1fe1:	c7 43 08 00 00 00 00 	movl   $0x0,0x8(%ebx)
    1fe8:	89 43 04             	mov    %eax,0x4(%ebx)
    1feb:	c7 43 0c 00 00 00 00 	movl   $0x0,0xc(%ebx)
    1ff2:	89 34 24             	mov    %esi,(%esp)
    1ff5:	e8 b6 50 00 00       	call   70b0 <ddf_fun_bind>
    1ffa:	83 c4 10             	add    $0x10,%esp
    1ffd:	85 c0                	test   %eax,%eax
    1fff:	0f 85 4e ff ff ff    	jne    1f53 <usbmid_spawn_interface_child+0x113>
    2005:	8b 55 0c             	mov    0xc(%ebp),%edx
    2008:	89 1a                	mov    %ebx,(%edx)
    200a:	e9 56 ff ff ff       	jmp    1f65 <usbmid_spawn_interface_child+0x125>
    200f:	b8 fe ff ff ff       	mov    $0xfffffffe,%eax
    2014:	e9 4c ff ff ff       	jmp    1f65 <usbmid_spawn_interface_child+0x125>
    2019:	66 90                	xchg   %ax,%ax
    201b:	66 90                	xchg   %ax,%ax
    201d:	66 90                	xchg   %ax,%ax
    201f:	90                   	nop

00002020 <generic_device_add>:
    2020:	55                   	push   %ebp
    2021:	89 e5                	mov    %esp,%ebp
    2023:	57                   	push   %edi
    2024:	56                   	push   %esi
    2025:	53                   	push   %ebx
    2026:	83 ec 2c             	sub    $0x2c,%esp
    2029:	a1 a8 41 01 00       	mov    0x141a8,%eax
    202e:	8b 75 08             	mov    0x8(%ebp),%esi
    2031:	85 c0                	test   %eax,%eax
    2033:	0f 84 d5 00 00 00    	je     210e <generic_device_add+0xee>
    2039:	8b 50 08             	mov    0x8(%eax),%edx
    203c:	85 d2                	test   %edx,%edx
    203e:	0f 84 b8 00 00 00    	je     20fc <generic_device_add+0xdc>
    2044:	8b 12                	mov    (%edx),%edx
    2046:	85 d2                	test   %edx,%edx
    2048:	0f 84 9c 00 00 00    	je     20ea <generic_device_add+0xca>
    204e:	53                   	push   %ebx
    204f:	8d 55 e4             	lea    -0x1c(%ebp),%edx
    2052:	8b 78 04             	mov    0x4(%eax),%edi
    2055:	52                   	push   %edx
    2056:	c7 45 e4 00 00 00 00 	movl   $0x0,-0x1c(%ebp)
    205d:	57                   	push   %edi
    205e:	56                   	push   %esi
    205f:	e8 dc 07 00 00       	call   2840 <usb_device_create_ddf>
    2064:	83 c4 10             	add    $0x10,%esp
    2067:	89 c3                	mov    %eax,%ebx
    2069:	85 c0                	test   %eax,%eax
    206b:	75 43                	jne    20b0 <generic_device_add+0x90>
    206d:	a1 a8 41 01 00       	mov    0x141a8,%eax
    2072:	83 ec 0c             	sub    $0xc,%esp
    2075:	8b 40 08             	mov    0x8(%eax),%eax
    2078:	8b 18                	mov    (%eax),%ebx
    207a:	56                   	push   %esi
    207b:	e8 80 4c 00 00       	call   6d00 <ddf_dev_data_get>
    2080:	89 04 24             	mov    %eax,(%esp)
    2083:	ff d3                	call   *%ebx
    2085:	83 c4 10             	add    $0x10,%esp
    2088:	89 c3                	mov    %eax,%ebx
    208a:	85 c0                	test   %eax,%eax
    208c:	75 0a                	jne    2098 <generic_device_add+0x78>
    208e:	8d 65 f4             	lea    -0xc(%ebp),%esp
    2091:	89 d8                	mov    %ebx,%eax
    2093:	5b                   	pop    %ebx
    2094:	5e                   	pop    %esi
    2095:	5f                   	pop    %edi
    2096:	5d                   	pop    %ebp
    2097:	c3                   	ret    
    2098:	83 ec 0c             	sub    $0xc,%esp
    209b:	56                   	push   %esi
    209c:	e8 6f 0b 00 00       	call   2c10 <usb_device_destroy_ddf>
    20a1:	83 c4 10             	add    $0x10,%esp
    20a4:	8d 65 f4             	lea    -0xc(%ebp),%esp
    20a7:	89 d8                	mov    %ebx,%eax
    20a9:	5b                   	pop    %ebx
    20aa:	5e                   	pop    %esi
    20ab:	5f                   	pop    %edi
    20ac:	5d                   	pop    %ebp
    20ad:	c3                   	ret    
    20ae:	66 90                	xchg   %ax,%ax
    20b0:	83 ec 0c             	sub    $0xc,%esp
    20b3:	50                   	push   %eax
    20b4:	e8 b7 ff 00 00       	call   12070 <str_error@plt>
    20b9:	89 34 24             	mov    %esi,(%esp)
    20bc:	8b 7d e4             	mov    -0x1c(%ebp),%edi
    20bf:	89 45 d4             	mov    %eax,-0x2c(%ebp)
    20c2:	e8 59 4c 00 00       	call   6d20 <ddf_dev_get_name>
    20c7:	5a                   	pop    %edx
    20c8:	8b 55 d4             	mov    -0x2c(%ebp),%edx
    20cb:	59                   	pop    %ecx
    20cc:	52                   	push   %edx
    20cd:	57                   	push   %edi
    20ce:	50                   	push   %eax
    20cf:	68 c4 f8 00 00       	push   $0xf8c4
    20d4:	6a 01                	push   $0x1
    20d6:	6a ff                	push   $0xffffffff
    20d8:	e8 43 fd 00 00       	call   11e20 <log_msg@plt>
    20dd:	83 c4 20             	add    $0x20,%esp
    20e0:	8d 65 f4             	lea    -0xc(%ebp),%esp
    20e3:	89 d8                	mov    %ebx,%eax
    20e5:	5b                   	pop    %ebx
    20e6:	5e                   	pop    %esi
    20e7:	5f                   	pop    %edi
    20e8:	5d                   	pop    %ebp
    20e9:	c3                   	ret    
    20ea:	50                   	push   %eax
    20eb:	6a 3a                	push   $0x3a
    20ed:	68 7d f8 00 00       	push   $0xf87d
    20f2:	68 9d f8 00 00       	push   $0xf89d
    20f7:	e8 74 fd 00 00       	call   11e70 <assert_abort@plt>
    20fc:	51                   	push   %ecx
    20fd:	6a 39                	push   $0x39
    20ff:	68 7d f8 00 00       	push   $0xf87d
    2104:	68 91 f8 00 00       	push   $0xf891
    2109:	e8 62 fd 00 00       	call   11e70 <assert_abort@plt>
    210e:	53                   	push   %ebx
    210f:	6a 38                	push   $0x38
    2111:	68 7d f8 00 00       	push   $0xf87d
    2116:	68 8a f8 00 00       	push   $0xf88a
    211b:	e8 50 fd 00 00       	call   11e70 <assert_abort@plt>

00002120 <generic_device_gone>:
    2120:	55                   	push   %ebp
    2121:	89 e5                	mov    %esp,%ebp
    2123:	53                   	push   %ebx
    2124:	83 ec 14             	sub    $0x14,%esp
    2127:	a1 a8 41 01 00       	mov    0x141a8,%eax
    212c:	8b 5d 08             	mov    0x8(%ebp),%ebx
    212f:	85 c0                	test   %eax,%eax
    2131:	74 5e                	je     2191 <generic_device_gone+0x71>
    2133:	8b 40 08             	mov    0x8(%eax),%eax
    2136:	85 c0                	test   %eax,%eax
    2138:	74 45                	je     217f <generic_device_gone+0x5f>
    213a:	8b 40 08             	mov    0x8(%eax),%eax
    213d:	85 c0                	test   %eax,%eax
    213f:	74 37                	je     2178 <generic_device_gone+0x58>
    2141:	83 ec 0c             	sub    $0xc,%esp
    2144:	53                   	push   %ebx
    2145:	e8 b6 4b 00 00       	call   6d00 <ddf_dev_data_get>
    214a:	8b 15 a8 41 01 00    	mov    0x141a8,%edx
    2150:	8b 52 08             	mov    0x8(%edx),%edx
    2153:	89 04 24             	mov    %eax,(%esp)
    2156:	ff 52 08             	call   *0x8(%edx)
    2159:	83 c4 10             	add    $0x10,%esp
    215c:	85 c0                	test   %eax,%eax
    215e:	75 12                	jne    2172 <generic_device_gone+0x52>
    2160:	83 ec 0c             	sub    $0xc,%esp
    2163:	89 45 f4             	mov    %eax,-0xc(%ebp)
    2166:	53                   	push   %ebx
    2167:	e8 a4 0a 00 00       	call   2c10 <usb_device_destroy_ddf>
    216c:	83 c4 10             	add    $0x10,%esp
    216f:	8b 45 f4             	mov    -0xc(%ebp),%eax
    2172:	8b 5d fc             	mov    -0x4(%ebp),%ebx
    2175:	c9                   	leave  
    2176:	c3                   	ret    
    2177:	90                   	nop
    2178:	b8 f5 ff ff ff       	mov    $0xfffffff5,%eax
    217d:	eb f3                	jmp    2172 <generic_device_gone+0x52>
    217f:	52                   	push   %edx
    2180:	6a 6c                	push   $0x6c
    2182:	68 7d f8 00 00       	push   $0xf87d
    2187:	68 91 f8 00 00       	push   $0xf891
    218c:	e8 df fc 00 00       	call   11e70 <assert_abort@plt>
    2191:	51                   	push   %ecx
    2192:	6a 6b                	push   $0x6b
    2194:	68 7d f8 00 00       	push   $0xf87d
    2199:	68 8a f8 00 00       	push   $0xf88a
    219e:	e8 cd fc 00 00       	call   11e70 <assert_abort@plt>
    21a3:	8d b6 00 00 00 00    	lea    0x0(%esi),%esi
    21a9:	8d bc 27 00 00 00 00 	lea    0x0(%edi,%eiz,1),%edi

000021b0 <generic_device_remove>:
    21b0:	55                   	push   %ebp
    21b1:	89 e5                	mov    %esp,%ebp
    21b3:	53                   	push   %ebx
    21b4:	83 ec 14             	sub    $0x14,%esp
    21b7:	a1 a8 41 01 00       	mov    0x141a8,%eax
    21bc:	8b 5d 08             	mov    0x8(%ebp),%ebx
    21bf:	85 c0                	test   %eax,%eax
    21c1:	74 5e                	je     2221 <generic_device_remove+0x71>
    21c3:	8b 40 08             	mov    0x8(%eax),%eax
    21c6:	85 c0                	test   %eax,%eax
    21c8:	74 45                	je     220f <generic_device_remove+0x5f>
    21ca:	8b 40 04             	mov    0x4(%eax),%eax
    21cd:	85 c0                	test   %eax,%eax
    21cf:	74 37                	je     2208 <generic_device_remove+0x58>
    21d1:	83 ec 0c             	sub    $0xc,%esp
    21d4:	53                   	push   %ebx
    21d5:	e8 26 4b 00 00       	call   6d00 <ddf_dev_data_get>
    21da:	8b 15 a8 41 01 00    	mov    0x141a8,%edx
    21e0:	8b 52 08             	mov    0x8(%edx),%edx
    21e3:	89 04 24             	mov    %eax,(%esp)
    21e6:	ff 52 04             	call   *0x4(%edx)
    21e9:	83 c4 10             	add    $0x10,%esp
    21ec:	85 c0                	test   %eax,%eax
    21ee:	75 12                	jne    2202 <generic_device_remove+0x52>
    21f0:	83 ec 0c             	sub    $0xc,%esp
    21f3:	89 45 f4             	mov    %eax,-0xc(%ebp)
    21f6:	53                   	push   %ebx
    21f7:	e8 14 0a 00 00       	call   2c10 <usb_device_destroy_ddf>
    21fc:	83 c4 10             	add    $0x10,%esp
    21ff:	8b 45 f4             	mov    -0xc(%ebp),%eax
    2202:	8b 5d fc             	mov    -0x4(%ebp),%ebx
    2205:	c9                   	leave  
    2206:	c3                   	ret    
    2207:	90                   	nop
    2208:	b8 f5 ff ff ff       	mov    $0xfffffff5,%eax
    220d:	eb f3                	jmp    2202 <generic_device_remove+0x52>
    220f:	52                   	push   %edx
    2210:	6a 56                	push   $0x56
    2212:	68 7d f8 00 00       	push   $0xf87d
    2217:	68 91 f8 00 00       	push   $0xf891
    221c:	e8 4f fc 00 00       	call   11e70 <assert_abort@plt>
    2221:	51                   	push   %ecx
    2222:	6a 55                	push   $0x55
    2224:	68 7d f8 00 00       	push   $0xf87d
    2229:	68 8a f8 00 00       	push   $0xf88a
    222e:	e8 3d fc 00 00       	call   11e70 <assert_abort@plt>
    2233:	8d b6 00 00 00 00    	lea    0x0(%esi),%esi
    2239:	8d bc 27 00 00 00 00 	lea    0x0(%edi,%eiz,1),%edi

00002240 <usb_driver_main>:
    2240:	55                   	push   %ebp
    2241:	89 e5                	mov    %esp,%ebp
    2243:	83 ec 08             	sub    $0x8,%esp
    2246:	8b 45 08             	mov    0x8(%ebp),%eax
    2249:	85 c0                	test   %eax,%eax
    224b:	74 1a                	je     2267 <usb_driver_main+0x27>
    224d:	8b 10                	mov    (%eax),%edx
    224f:	a3 a8 41 01 00       	mov    %eax,0x141a8
    2254:	89 15 08 40 01 00    	mov    %edx,0x14008
    225a:	c7 45 08 08 40 01 00 	movl   $0x14008,0x8(%ebp)
    2261:	c9                   	leave  
    2262:	e9 e9 51 00 00       	jmp    7450 <ddf_driver_main>
    2267:	50                   	push   %eax
    2268:	68 8a 00 00 00       	push   $0x8a
    226d:	68 7d f8 00 00       	push   $0xf87d
    2272:	68 b5 f8 00 00       	push   $0xf8b5
    2277:	e8 f4 fb 00 00       	call   11e70 <assert_abort@plt>
    227c:	66 90                	xchg   %ax,%ax
    227e:	66 90                	xchg   %ax,%ax

00002280 <usb_device_create_pipes>:
    2280:	55                   	push   %ebp
    2281:	89 e5                	mov    %esp,%ebp
    2283:	57                   	push   %edi
    2284:	56                   	push   %esi
    2285:	53                   	push   %ebx
    2286:	83 ec 1c             	sub    $0x1c,%esp
    2289:	8b 45 08             	mov    0x8(%ebp),%eax
    228c:	8b 55 0c             	mov    0xc(%ebp),%edx
    228f:	85 c0                	test   %eax,%eax
    2291:	0f 84 92 01 00 00    	je     2429 <usb_device_create_pipes+0x1a9>
    2297:	8b 45 08             	mov    0x8(%ebp),%eax
    229a:	8b 70 50             	mov    0x50(%eax),%esi
    229d:	85 f6                	test   %esi,%esi
    229f:	0f 84 6f 01 00 00    	je     2414 <usb_device_create_pipes+0x194>
    22a5:	8b 48 24             	mov    0x24(%eax),%ecx
    22a8:	85 c9                	test   %ecx,%ecx
    22aa:	0f 85 a3 01 00 00    	jne    2453 <usb_device_create_pipes+0x1d3>
    22b0:	8b 58 28             	mov    0x28(%eax),%ebx
    22b3:	85 db                	test   %ebx,%ebx
    22b5:	0f 85 83 01 00 00    	jne    243e <usb_device_create_pipes+0x1be>
    22bb:	85 d2                	test   %edx,%edx
    22bd:	0f 84 0c 01 00 00    	je     23cf <usb_device_create_pipes+0x14f>
    22c3:	8b 02                	mov    (%edx),%eax
    22c5:	85 c0                	test   %eax,%eax
    22c7:	0f 84 02 01 00 00    	je     23cf <usb_device_create_pipes+0x14f>
    22cd:	8d 76 00             	lea    0x0(%esi),%esi
    22d0:	43                   	inc    %ebx
    22d1:	8b 04 9a             	mov    (%edx,%ebx,4),%eax
    22d4:	85 c0                	test   %eax,%eax
    22d6:	75 f8                	jne    22d0 <usb_device_create_pipes+0x50>
    22d8:	89 55 e0             	mov    %edx,-0x20(%ebp)
    22db:	50                   	push   %eax
    22dc:	50                   	push   %eax
    22dd:	6a 34                	push   $0x34
    22df:	53                   	push   %ebx
    22e0:	e8 ab fb 00 00       	call   11e90 <calloc@plt>
    22e5:	83 c4 10             	add    $0x10,%esp
    22e8:	89 c1                	mov    %eax,%ecx
    22ea:	89 45 e4             	mov    %eax,-0x1c(%ebp)
    22ed:	85 c0                	test   %eax,%eax
    22ef:	0f 84 13 01 00 00    	je     2408 <usb_device_create_pipes+0x188>
    22f5:	8b 45 08             	mov    0x8(%ebp),%eax
    22f8:	8b 55 e0             	mov    -0x20(%ebp),%edx
    22fb:	89 5d e0             	mov    %ebx,-0x20(%ebp)
    22fe:	8b 78 2c             	mov    0x2c(%eax),%edi
    2301:	8b 70 38             	mov    0x38(%eax),%esi
    2304:	89 d0                	mov    %edx,%eax
    2306:	8d 51 1c             	lea    0x1c(%ecx),%edx
    2309:	8d 0c 98             	lea    (%eax,%ebx,4),%ecx
    230c:	8d 74 26 00          	lea    0x0(%esi,%eiz,1),%esi
    2310:	8b 18                	mov    (%eax),%ebx
    2312:	83 c0 04             	add    $0x4,%eax
    2315:	89 1a                	mov    %ebx,(%edx)
    2317:	89 7a 04             	mov    %edi,0x4(%edx)
    231a:	89 72 08             	mov    %esi,0x8(%edx)
    231d:	83 c2 34             	add    $0x34,%edx
    2320:	39 c1                	cmp    %eax,%ecx
    2322:	75 ec                	jne    2310 <usb_device_create_pipes+0x90>
    2324:	8b 45 08             	mov    0x8(%ebp),%eax
    2327:	83 ec 0c             	sub    $0xc,%esp
    232a:	8b 5d e0             	mov    -0x20(%ebp),%ebx
    232d:	8b 30                	mov    (%eax),%esi
    232f:	8b 78 54             	mov    0x54(%eax),%edi
    2332:	56                   	push   %esi
    2333:	57                   	push   %edi
    2334:	8b 40 50             	mov    0x50(%eax),%eax
    2337:	50                   	push   %eax
    2338:	8b 45 e4             	mov    -0x1c(%ebp),%eax
    233b:	53                   	push   %ebx
    233c:	50                   	push   %eax
    233d:	e8 fe 18 00 00       	call   3c40 <usb_pipe_initialize_from_configuration>
    2342:	83 c4 20             	add    $0x20,%esp
    2345:	89 45 e0             	mov    %eax,-0x20(%ebp)
    2348:	85 c0                	test   %eax,%eax
    234a:	0f 85 8b 00 00 00    	jne    23db <usb_device_create_pipes+0x15b>
    2350:	8d 04 5b             	lea    (%ebx,%ebx,2),%eax
    2353:	8b 7d e4             	mov    -0x1c(%ebp),%edi
    2356:	89 7d dc             	mov    %edi,-0x24(%ebp)
    2359:	8d 04 83             	lea    (%ebx,%eax,4),%eax
    235c:	8d 34 87             	lea    (%edi,%eax,4),%esi
    235f:	eb 0e                	jmp    236f <usb_device_create_pipes+0xef>
    2361:	8d b4 26 00 00 00 00 	lea    0x0(%esi,%eiz,1),%esi
    2368:	83 c7 34             	add    $0x34,%edi
    236b:	39 fe                	cmp    %edi,%esi
    236d:	74 49                	je     23b8 <usb_device_create_pipes+0x138>
    236f:	80 7f 30 00          	cmpb   $0x0,0x30(%edi)
    2373:	74 f3                	je     2368 <usb_device_create_pipes+0xe8>
    2375:	52                   	push   %edx
    2376:	52                   	push   %edx
    2377:	8b 47 28             	mov    0x28(%edi),%eax
    237a:	8a 48 06             	mov    0x6(%eax),%cl
    237d:	81 e1 ff 00 00 00    	and    $0xff,%ecx
    2383:	51                   	push   %ecx
    2384:	57                   	push   %edi
    2385:	e8 86 17 00 00       	call   3b10 <usb_pipe_register>
    238a:	83 c4 10             	add    $0x10,%esp
    238d:	85 c0                	test   %eax,%eax
    238f:	74 d7                	je     2368 <usb_device_create_pipes+0xe8>
    2391:	89 c7                	mov    %eax,%edi
    2393:	8b 5d dc             	mov    -0x24(%ebp),%ebx
    2396:	eb 07                	jmp    239f <usb_device_create_pipes+0x11f>
    2398:	83 c3 34             	add    $0x34,%ebx
    239b:	39 de                	cmp    %ebx,%esi
    239d:	74 50                	je     23ef <usb_device_create_pipes+0x16f>
    239f:	80 7b 30 00          	cmpb   $0x0,0x30(%ebx)
    23a3:	74 f3                	je     2398 <usb_device_create_pipes+0x118>
    23a5:	83 ec 0c             	sub    $0xc,%esp
    23a8:	53                   	push   %ebx
    23a9:	e8 02 18 00 00       	call   3bb0 <usb_pipe_unregister>
    23ae:	83 c4 10             	add    $0x10,%esp
    23b1:	eb e5                	jmp    2398 <usb_device_create_pipes+0x118>
    23b3:	90                   	nop
    23b4:	8d 74 26 00          	lea    0x0(%esi,%eiz,1),%esi
    23b8:	8b 45 08             	mov    0x8(%ebp),%eax
    23bb:	8b 75 e4             	mov    -0x1c(%ebp),%esi
    23be:	89 70 24             	mov    %esi,0x24(%eax)
    23c1:	89 58 28             	mov    %ebx,0x28(%eax)
    23c4:	8b 45 e0             	mov    -0x20(%ebp),%eax
    23c7:	8d 65 f4             	lea    -0xc(%ebp),%esp
    23ca:	5b                   	pop    %ebx
    23cb:	5e                   	pop    %esi
    23cc:	5f                   	pop    %edi
    23cd:	5d                   	pop    %ebp
    23ce:	c3                   	ret    
    23cf:	c7 45 e0 00 00 00 00 	movl   $0x0,-0x20(%ebp)
    23d6:	8b 45 e0             	mov    -0x20(%ebp),%eax
    23d9:	eb ec                	jmp    23c7 <usb_device_create_pipes+0x147>
    23db:	83 ec 0c             	sub    $0xc,%esp
    23de:	8b 4d e4             	mov    -0x1c(%ebp),%ecx
    23e1:	51                   	push   %ecx
    23e2:	e8 69 fd 00 00       	call   12150 <free@plt>
    23e7:	83 c4 10             	add    $0x10,%esp
    23ea:	8b 45 e0             	mov    -0x20(%ebp),%eax
    23ed:	eb d8                	jmp    23c7 <usb_device_create_pipes+0x147>
    23ef:	83 ec 0c             	sub    $0xc,%esp
    23f2:	8b 45 e4             	mov    -0x1c(%ebp),%eax
    23f5:	89 7d e0             	mov    %edi,-0x20(%ebp)
    23f8:	50                   	push   %eax
    23f9:	e8 52 fd 00 00       	call   12150 <free@plt>
    23fe:	8b 55 e0             	mov    -0x20(%ebp),%edx
    2401:	83 c4 10             	add    $0x10,%esp
    2404:	89 d0                	mov    %edx,%eax
    2406:	eb bf                	jmp    23c7 <usb_device_create_pipes+0x147>
    2408:	c7 45 e0 fe ff ff ff 	movl   $0xfffffffe,-0x20(%ebp)
    240f:	8b 45 e0             	mov    -0x20(%ebp),%eax
    2412:	eb b3                	jmp    23c7 <usb_device_create_pipes+0x147>
    2414:	53                   	push   %ebx
    2415:	68 df 00 00 00       	push   $0xdf
    241a:	68 eb f8 00 00       	push   $0xf8eb
    241f:	68 b4 f9 00 00       	push   $0xf9b4
    2424:	e8 47 fa 00 00       	call   11e70 <assert_abort@plt>
    2429:	57                   	push   %edi
    242a:	68 de 00 00 00       	push   $0xde
    242f:	68 eb f8 00 00       	push   $0xf8eb
    2434:	68 f8 f8 00 00       	push   $0xf8f8
    2439:	e8 32 fa 00 00       	call   11e70 <assert_abort@plt>
    243e:	50                   	push   %eax
    243f:	68 e1 00 00 00       	push   $0xe1
    2444:	68 eb f8 00 00       	push   $0xf8eb
    2449:	68 17 f9 00 00       	push   $0xf917
    244e:	e8 1d fa 00 00       	call   11e70 <assert_abort@plt>
    2453:	52                   	push   %edx
    2454:	68 e0 00 00 00       	push   $0xe0
    2459:	68 eb f8 00 00       	push   $0xf8eb
    245e:	68 00 f9 00 00       	push   $0xf900
    2463:	e8 08 fa 00 00       	call   11e70 <assert_abort@plt>
    2468:	90                   	nop
    2469:	8d b4 26 00 00 00 00 	lea    0x0(%esi,%eiz,1),%esi

00002470 <usb_device_select_interface>:
    2470:	55                   	push   %ebp
    2471:	89 e5                	mov    %esp,%ebp
    2473:	57                   	push   %edi
    2474:	56                   	push   %esi
    2475:	53                   	push   %ebx
    2476:	83 ec 1c             	sub    $0x1c,%esp
    2479:	8b 75 08             	mov    0x8(%ebp),%esi
    247c:	8b 45 10             	mov    0x10(%ebp),%eax
    247f:	8b 5d 0c             	mov    0xc(%ebp),%ebx
    2482:	89 45 e4             	mov    %eax,-0x1c(%ebp)
    2485:	85 f6                	test   %esi,%esi
    2487:	0f 84 05 01 00 00    	je     2592 <usb_device_select_interface+0x122>
    248d:	8b 46 2c             	mov    0x2c(%esi),%eax
    2490:	85 c0                	test   %eax,%eax
    2492:	0f 88 f0 00 00 00    	js     2588 <usb_device_select_interface+0x118>
    2498:	25 ff 00 00 00       	and    $0xff,%eax
    249d:	81 e3 ff 00 00 00    	and    $0xff,%ebx
    24a3:	57                   	push   %edi
    24a4:	53                   	push   %ebx
    24a5:	50                   	push   %eax
    24a6:	8d 46 08             	lea    0x8(%esi),%eax
    24a9:	50                   	push   %eax
    24aa:	e8 e1 34 00 00       	call   5990 <usb_request_set_interface>
    24af:	83 c4 10             	add    $0x10,%esp
    24b2:	85 c0                	test   %eax,%eax
    24b4:	74 0a                	je     24c0 <usb_device_select_interface+0x50>
    24b6:	8d 65 f4             	lea    -0xc(%ebp),%esp
    24b9:	5b                   	pop    %ebx
    24ba:	5e                   	pop    %esi
    24bb:	5f                   	pop    %edi
    24bc:	5d                   	pop    %ebp
    24bd:	c3                   	ret    
    24be:	66 90                	xchg   %ax,%ax
    24c0:	8b 46 24             	mov    0x24(%esi),%eax
    24c3:	89 5e 38             	mov    %ebx,0x38(%esi)
    24c6:	85 c0                	test   %eax,%eax
    24c8:	0f 84 9a 00 00 00    	je     2568 <usb_device_select_interface+0xf8>
    24ce:	8b 4e 28             	mov    0x28(%esi),%ecx
    24d1:	85 c9                	test   %ecx,%ecx
    24d3:	74 61                	je     2536 <usb_device_select_interface+0xc6>
    24d5:	31 ff                	xor    %edi,%edi
    24d7:	eb 0d                	jmp    24e6 <usb_device_select_interface+0x76>
    24d9:	8d b4 26 00 00 00 00 	lea    0x0(%esi,%eiz,1),%esi
    24e0:	47                   	inc    %edi
    24e1:	3b 7e 28             	cmp    0x28(%esi),%edi
    24e4:	73 50                	jae    2536 <usb_device_select_interface+0xc6>
    24e6:	8d 0c 7f             	lea    (%edi,%edi,2),%ecx
    24e9:	8d 1c 8f             	lea    (%edi,%ecx,4),%ebx
    24ec:	b9 31 f9 00 00       	mov    $0xf931,%ecx
    24f1:	c1 e3 02             	shl    $0x2,%ebx
    24f4:	80 7c 18 30 00       	cmpb   $0x0,0x30(%eax,%ebx,1)
    24f9:	74 05                	je     2500 <usb_device_select_interface+0x90>
    24fb:	b9 a6 19 01 00       	mov    $0x119a6,%ecx
    2500:	83 ec 0c             	sub    $0xc,%esp
    2503:	51                   	push   %ecx
    2504:	57                   	push   %edi
    2505:	68 04 fa 00 00       	push   $0xfa04
    250a:	6a 05                	push   $0x5
    250c:	6a ff                	push   $0xffffffff
    250e:	e8 0d f9 00 00       	call   11e20 <log_msg@plt>
    2513:	8b 46 24             	mov    0x24(%esi),%eax
    2516:	83 c4 20             	add    $0x20,%esp
    2519:	01 c3                	add    %eax,%ebx
    251b:	80 7b 30 00          	cmpb   $0x0,0x30(%ebx)
    251f:	74 bf                	je     24e0 <usb_device_select_interface+0x70>
    2521:	83 ec 0c             	sub    $0xc,%esp
    2524:	47                   	inc    %edi
    2525:	53                   	push   %ebx
    2526:	e8 85 16 00 00       	call   3bb0 <usb_pipe_unregister>
    252b:	83 c4 10             	add    $0x10,%esp
    252e:	8b 46 24             	mov    0x24(%esi),%eax
    2531:	3b 7e 28             	cmp    0x28(%esi),%edi
    2534:	72 b0                	jb     24e6 <usb_device_select_interface+0x76>
    2536:	83 ec 0c             	sub    $0xc,%esp
    2539:	50                   	push   %eax
    253a:	e8 11 fc 00 00       	call   12150 <free@plt>
    253f:	8b 45 e4             	mov    -0x1c(%ebp),%eax
    2542:	c7 46 24 00 00 00 00 	movl   $0x0,0x24(%esi)
    2549:	c7 46 28 00 00 00 00 	movl   $0x0,0x28(%esi)
    2550:	83 c4 10             	add    $0x10,%esp
    2553:	89 75 08             	mov    %esi,0x8(%ebp)
    2556:	89 45 0c             	mov    %eax,0xc(%ebp)
    2559:	8d 65 f4             	lea    -0xc(%ebp),%esp
    255c:	5b                   	pop    %ebx
    255d:	5e                   	pop    %esi
    255e:	5f                   	pop    %edi
    255f:	5d                   	pop    %ebp
    2560:	e9 1b fd ff ff       	jmp    2280 <usb_device_create_pipes>
    2565:	8d 76 00             	lea    0x0(%esi),%esi
    2568:	8b 56 28             	mov    0x28(%esi),%edx
    256b:	85 d2                	test   %edx,%edx
    256d:	74 c7                	je     2536 <usb_device_select_interface+0xc6>
    256f:	50                   	push   %eax
    2570:	68 29 01 00 00       	push   $0x129
    2575:	68 eb f8 00 00       	push   $0xf8eb
    257a:	68 d8 f9 00 00       	push   $0xf9d8
    257f:	e8 ec f8 00 00       	call   11e70 <assert_abort@plt>
    2584:	8d 74 26 00          	lea    0x0(%esi,%eiz,1),%esi
    2588:	b8 f2 ff ff ff       	mov    $0xfffffff2,%eax
    258d:	e9 24 ff ff ff       	jmp    24b6 <usb_device_select_interface+0x46>
    2592:	50                   	push   %eax
    2593:	68 88 00 00 00       	push   $0x88
    2598:	68 eb f8 00 00       	push   $0xf8eb
    259d:	68 f8 f8 00 00       	push   $0xf8f8
    25a2:	e8 c9 f8 00 00       	call   11e70 <assert_abort@plt>
    25a7:	89 f6                	mov    %esi,%esi
    25a9:	8d bc 27 00 00 00 00 	lea    0x0(%edi,%eiz,1),%edi

000025b0 <usb_device_destroy_pipes>:
    25b0:	55                   	push   %ebp
    25b1:	89 e5                	mov    %esp,%ebp
    25b3:	57                   	push   %edi
    25b4:	56                   	push   %esi
    25b5:	53                   	push   %ebx
    25b6:	83 ec 0c             	sub    $0xc,%esp
    25b9:	8b 75 08             	mov    0x8(%ebp),%esi
    25bc:	85 f6                	test   %esi,%esi
    25be:	0f 84 b0 00 00 00    	je     2674 <usb_device_destroy_pipes+0xc4>
    25c4:	8b 46 24             	mov    0x24(%esi),%eax
    25c7:	85 c0                	test   %eax,%eax
    25c9:	0f 84 89 00 00 00    	je     2658 <usb_device_destroy_pipes+0xa8>
    25cf:	8b 56 28             	mov    0x28(%esi),%edx
    25d2:	85 d2                	test   %edx,%edx
    25d4:	74 60                	je     2636 <usb_device_destroy_pipes+0x86>
    25d6:	31 ff                	xor    %edi,%edi
    25d8:	eb 0c                	jmp    25e6 <usb_device_destroy_pipes+0x36>
    25da:	8d b6 00 00 00 00    	lea    0x0(%esi),%esi
    25e0:	47                   	inc    %edi
    25e1:	39 7e 28             	cmp    %edi,0x28(%esi)
    25e4:	76 50                	jbe    2636 <usb_device_destroy_pipes+0x86>
    25e6:	8d 14 7f             	lea    (%edi,%edi,2),%edx
    25e9:	8d 1c 97             	lea    (%edi,%edx,4),%ebx
    25ec:	ba 31 f9 00 00       	mov    $0xf931,%edx
    25f1:	c1 e3 02             	shl    $0x2,%ebx
    25f4:	80 7c 18 30 00       	cmpb   $0x0,0x30(%eax,%ebx,1)
    25f9:	74 05                	je     2600 <usb_device_destroy_pipes+0x50>
    25fb:	ba a6 19 01 00       	mov    $0x119a6,%edx
    2600:	83 ec 0c             	sub    $0xc,%esp
    2603:	52                   	push   %edx
    2604:	57                   	push   %edi
    2605:	68 04 fa 00 00       	push   $0xfa04
    260a:	6a 05                	push   $0x5
    260c:	6a ff                	push   $0xffffffff
    260e:	e8 0d f8 00 00       	call   11e20 <log_msg@plt>
    2613:	8b 46 24             	mov    0x24(%esi),%eax
    2616:	83 c4 20             	add    $0x20,%esp
    2619:	01 c3                	add    %eax,%ebx
    261b:	80 7b 30 00          	cmpb   $0x0,0x30(%ebx)
    261f:	74 bf                	je     25e0 <usb_device_destroy_pipes+0x30>
    2621:	83 ec 0c             	sub    $0xc,%esp
    2624:	47                   	inc    %edi
    2625:	53                   	push   %ebx
    2626:	e8 85 15 00 00       	call   3bb0 <usb_pipe_unregister>
    262b:	83 c4 10             	add    $0x10,%esp
    262e:	8b 46 24             	mov    0x24(%esi),%eax
    2631:	39 7e 28             	cmp    %edi,0x28(%esi)
    2634:	77 b0                	ja     25e6 <usb_device_destroy_pipes+0x36>
    2636:	83 ec 0c             	sub    $0xc,%esp
    2639:	50                   	push   %eax
    263a:	e8 11 fb 00 00       	call   12150 <free@plt>
    263f:	c7 46 24 00 00 00 00 	movl   $0x0,0x24(%esi)
    2646:	c7 46 28 00 00 00 00 	movl   $0x0,0x28(%esi)
    264d:	83 c4 10             	add    $0x10,%esp
    2650:	8d 65 f4             	lea    -0xc(%ebp),%esp
    2653:	5b                   	pop    %ebx
    2654:	5e                   	pop    %esi
    2655:	5f                   	pop    %edi
    2656:	5d                   	pop    %ebp
    2657:	c3                   	ret    
    2658:	8b 4e 28             	mov    0x28(%esi),%ecx
    265b:	85 c9                	test   %ecx,%ecx
    265d:	74 d7                	je     2636 <usb_device_destroy_pipes+0x86>
    265f:	50                   	push   %eax
    2660:	68 29 01 00 00       	push   $0x129
    2665:	68 eb f8 00 00       	push   $0xf8eb
    266a:	68 d8 f9 00 00       	push   $0xf9d8
    266f:	e8 fc f7 00 00       	call   11e70 <assert_abort@plt>
    2674:	53                   	push   %ebx
    2675:	68 28 01 00 00       	push   $0x128
    267a:	68 eb f8 00 00       	push   $0xf8eb
    267f:	68 f8 f8 00 00       	push   $0xf8f8
    2684:	e8 e7 f7 00 00       	call   11e70 <assert_abort@plt>
    2689:	8d b4 26 00 00 00 00 	lea    0x0(%esi,%eiz,1),%esi

00002690 <usb_device_get_default_pipe>:
    2690:	55                   	push   %ebp
    2691:	89 e5                	mov    %esp,%ebp
    2693:	83 ec 08             	sub    $0x8,%esp
    2696:	8b 45 08             	mov    0x8(%ebp),%eax
    2699:	85 c0                	test   %eax,%eax
    269b:	74 05                	je     26a2 <usb_device_get_default_pipe+0x12>
    269d:	83 c0 08             	add    $0x8,%eax
    26a0:	c9                   	leave  
    26a1:	c3                   	ret    
    26a2:	50                   	push   %eax
    26a3:	68 3a 01 00 00       	push   $0x13a
    26a8:	68 eb f8 00 00       	push   $0xf8eb
    26ad:	68 f8 f8 00 00       	push   $0xf8f8
    26b2:	e8 b9 f7 00 00       	call   11e70 <assert_abort@plt>
    26b7:	89 f6                	mov    %esi,%esi
    26b9:	8d bc 27 00 00 00 00 	lea    0x0(%edi,%eiz,1),%edi

000026c0 <usb_device_get_mapped_ep_desc>:
    26c0:	55                   	push   %ebp
    26c1:	89 e5                	mov    %esp,%ebp
    26c3:	56                   	push   %esi
    26c4:	53                   	push   %ebx
    26c5:	8b 45 08             	mov    0x8(%ebp),%eax
    26c8:	8b 75 0c             	mov    0xc(%ebp),%esi
    26cb:	85 c0                	test   %eax,%eax
    26cd:	74 31                	je     2700 <usb_device_get_mapped_ep_desc+0x40>
    26cf:	8b 58 28             	mov    0x28(%eax),%ebx
    26d2:	85 db                	test   %ebx,%ebx
    26d4:	74 21                	je     26f7 <usb_device_get_mapped_ep_desc+0x37>
    26d6:	8b 40 24             	mov    0x24(%eax),%eax
    26d9:	3b 70 1c             	cmp    0x1c(%eax),%esi
    26dc:	74 1b                	je     26f9 <usb_device_get_mapped_ep_desc+0x39>
    26de:	8d 50 34             	lea    0x34(%eax),%edx
    26e1:	31 c9                	xor    %ecx,%ecx
    26e3:	eb 0d                	jmp    26f2 <usb_device_get_mapped_ep_desc+0x32>
    26e5:	8d 76 00             	lea    0x0(%esi),%esi
    26e8:	89 d0                	mov    %edx,%eax
    26ea:	83 c2 34             	add    $0x34,%edx
    26ed:	39 72 e8             	cmp    %esi,-0x18(%edx)
    26f0:	74 07                	je     26f9 <usb_device_get_mapped_ep_desc+0x39>
    26f2:	41                   	inc    %ecx
    26f3:	39 d9                	cmp    %ebx,%ecx
    26f5:	75 f1                	jne    26e8 <usb_device_get_mapped_ep_desc+0x28>
    26f7:	31 c0                	xor    %eax,%eax
    26f9:	8d 65 f8             	lea    -0x8(%ebp),%esp
    26fc:	5b                   	pop    %ebx
    26fd:	5e                   	pop    %esi
    26fe:	5d                   	pop    %ebp
    26ff:	c3                   	ret    
    2700:	50                   	push   %eax
    2701:	68 41 01 00 00       	push   $0x141
    2706:	68 eb f8 00 00       	push   $0xf8eb
    270b:	68 f8 f8 00 00       	push   $0xf8f8
    2710:	e8 5b f7 00 00       	call   11e70 <assert_abort@plt>
    2715:	8d 74 26 00          	lea    0x0(%esi,%eiz,1),%esi
    2719:	8d bc 27 00 00 00 00 	lea    0x0(%edi,%eiz,1),%edi

00002720 <usb_device_get_mapped_ep>:
    2720:	55                   	push   %ebp
    2721:	89 e5                	mov    %esp,%ebp
    2723:	56                   	push   %esi
    2724:	53                   	push   %ebx
    2725:	8b 45 08             	mov    0x8(%ebp),%eax
    2728:	8b 55 0c             	mov    0xc(%ebp),%edx
    272b:	85 c0                	test   %eax,%eax
    272d:	74 32                	je     2761 <usb_device_get_mapped_ep+0x41>
    272f:	8b 58 28             	mov    0x28(%eax),%ebx
    2732:	85 db                	test   %ebx,%ebx
    2734:	74 22                	je     2758 <usb_device_get_mapped_ep+0x38>
    2736:	8b 40 24             	mov    0x24(%eax),%eax
    2739:	66 3b 10             	cmp    (%eax),%dx
    273c:	74 1c                	je     275a <usb_device_get_mapped_ep+0x3a>
    273e:	89 d6                	mov    %edx,%esi
    2740:	31 c9                	xor    %ecx,%ecx
    2742:	8d 50 34             	lea    0x34(%eax),%edx
    2745:	eb 0c                	jmp    2753 <usb_device_get_mapped_ep+0x33>
    2747:	90                   	nop
    2748:	89 d0                	mov    %edx,%eax
    274a:	83 c2 34             	add    $0x34,%edx
    274d:	66 39 72 cc          	cmp    %si,-0x34(%edx)
    2751:	74 07                	je     275a <usb_device_get_mapped_ep+0x3a>
    2753:	41                   	inc    %ecx
    2754:	39 d9                	cmp    %ebx,%ecx
    2756:	75 f0                	jne    2748 <usb_device_get_mapped_ep+0x28>
    2758:	31 c0                	xor    %eax,%eax
    275a:	8d 65 f8             	lea    -0x8(%ebp),%esp
    275d:	5b                   	pop    %ebx
    275e:	5e                   	pop    %esi
    275f:	5d                   	pop    %ebp
    2760:	c3                   	ret    
    2761:	50                   	push   %eax
    2762:	68 4c 01 00 00       	push   $0x14c
    2767:	68 eb f8 00 00       	push   $0xf8eb
    276c:	68 f8 f8 00 00       	push   $0xf8f8
    2771:	e8 fa f6 00 00       	call   11e70 <assert_abort@plt>
    2776:	8d 76 00             	lea    0x0(%esi),%esi
    2779:	8d bc 27 00 00 00 00 	lea    0x0(%edi,%eiz,1),%edi

00002780 <usb_device_get_iface_number>:
    2780:	55                   	push   %ebp
    2781:	89 e5                	mov    %esp,%ebp
    2783:	83 ec 08             	sub    $0x8,%esp
    2786:	8b 45 08             	mov    0x8(%ebp),%eax
    2789:	85 c0                	test   %eax,%eax
    278b:	74 05                	je     2792 <usb_device_get_iface_number+0x12>
    278d:	8b 40 2c             	mov    0x2c(%eax),%eax
    2790:	c9                   	leave  
    2791:	c3                   	ret    
    2792:	50                   	push   %eax
    2793:	68 56 01 00 00       	push   $0x156
    2798:	68 eb f8 00 00       	push   $0xf8eb
    279d:	68 f8 f8 00 00       	push   $0xf8f8
    27a2:	e8 c9 f6 00 00       	call   11e70 <assert_abort@plt>
    27a7:	89 f6                	mov    %esi,%esi
    27a9:	8d bc 27 00 00 00 00 	lea    0x0(%edi,%eiz,1),%edi

000027b0 <usb_device_get_devman_handle>:
    27b0:	55                   	push   %ebp
    27b1:	89 e5                	mov    %esp,%ebp
    27b3:	83 ec 08             	sub    $0x8,%esp
    27b6:	8b 45 08             	mov    0x8(%ebp),%eax
    27b9:	85 c0                	test   %eax,%eax
    27bb:	74 05                	je     27c2 <usb_device_get_devman_handle+0x12>
    27bd:	8b 40 04             	mov    0x4(%eax),%eax
    27c0:	c9                   	leave  
    27c1:	c3                   	ret    
    27c2:	50                   	push   %eax
    27c3:	68 5c 01 00 00       	push   $0x15c
    27c8:	68 eb f8 00 00       	push   $0xf8eb
    27cd:	68 f8 f8 00 00       	push   $0xf8f8
    27d2:	e8 99 f6 00 00       	call   11e70 <assert_abort@plt>
    27d7:	89 f6                	mov    %esi,%esi
    27d9:	8d bc 27 00 00 00 00 	lea    0x0(%edi,%eiz,1),%edi

000027e0 <usb_device_descriptors>:
    27e0:	55                   	push   %ebp
    27e1:	89 e5                	mov    %esp,%ebp
    27e3:	83 ec 08             	sub    $0x8,%esp
    27e6:	8b 45 08             	mov    0x8(%ebp),%eax
    27e9:	85 c0                	test   %eax,%eax
    27eb:	74 05                	je     27f2 <usb_device_descriptors+0x12>
    27ed:	83 c0 3c             	add    $0x3c,%eax
    27f0:	c9                   	leave  
    27f1:	c3                   	ret    
    27f2:	50                   	push   %eax
    27f3:	68 62 01 00 00       	push   $0x162
    27f8:	68 eb f8 00 00       	push   $0xf8eb
    27fd:	68 f8 f8 00 00       	push   $0xf8f8
    2802:	e8 69 f6 00 00       	call   11e70 <assert_abort@plt>
    2807:	89 f6                	mov    %esi,%esi
    2809:	8d bc 27 00 00 00 00 	lea    0x0(%edi,%eiz,1),%edi

00002810 <usb_device_get_alternative_ifaces>:
    2810:	55                   	push   %ebp
    2811:	89 e5                	mov    %esp,%ebp
    2813:	83 ec 08             	sub    $0x8,%esp
    2816:	8b 45 08             	mov    0x8(%ebp),%eax
    2819:	85 c0                	test   %eax,%eax
    281b:	74 05                	je     2822 <usb_device_get_alternative_ifaces+0x12>
    281d:	83 c0 30             	add    $0x30,%eax
    2820:	c9                   	leave  
    2821:	c3                   	ret    
    2822:	50                   	push   %eax
    2823:	68 69 01 00 00       	push   $0x169
    2828:	68 eb f8 00 00       	push   $0xf8eb
    282d:	68 f8 f8 00 00       	push   $0xf8f8
    2832:	e8 39 f6 00 00       	call   11e70 <assert_abort@plt>
    2837:	89 f6                	mov    %esi,%esi
    2839:	8d bc 27 00 00 00 00 	lea    0x0(%edi,%eiz,1),%edi

00002840 <usb_device_create_ddf>:
    2840:	55                   	push   %ebp
    2841:	89 e5                	mov    %esp,%ebp
    2843:	57                   	push   %edi
    2844:	56                   	push   %esi
    2845:	53                   	push   %ebx
    2846:	83 ec 2c             	sub    $0x2c,%esp
    2849:	8b 45 08             	mov    0x8(%ebp),%eax
    284c:	85 c0                	test   %eax,%eax
    284e:	0f 84 78 03 00 00    	je     2bcc <usb_device_create_ddf+0x38c>
    2854:	8b 75 10             	mov    0x10(%ebp),%esi
    2857:	85 f6                	test   %esi,%esi
    2859:	0f 84 82 03 00 00    	je     2be1 <usb_device_create_ddf+0x3a1>
    285f:	83 ec 0c             	sub    $0xc,%esp
    2862:	8b 45 08             	mov    0x8(%ebp),%eax
    2865:	c7 45 e0 00 00 00 00 	movl   $0x0,-0x20(%ebp)
    286c:	c7 45 e4 ff ff ff ff 	movl   $0xffffffff,-0x1c(%ebp)
    2873:	50                   	push   %eax
    2874:	e8 97 44 00 00       	call   6d10 <ddf_dev_get_handle>
    2879:	5a                   	pop    %edx
    287a:	59                   	pop    %ecx
    287b:	6a 01                	push   $0x1
    287d:	50                   	push   %eax
    287e:	e8 bd f4 00 00       	call   11d40 <devman_parent_device_connect@plt>
    2883:	83 c4 10             	add    $0x10,%esp
    2886:	89 c3                	mov    %eax,%ebx
    2888:	85 c0                	test   %eax,%eax
    288a:	0f 84 d0 02 00 00    	je     2b60 <usb_device_create_ddf+0x320>
    2890:	83 ec 0c             	sub    $0xc,%esp
    2893:	50                   	push   %eax
    2894:	e8 c7 f7 00 00       	call   12060 <async_exchange_begin@plt>
    2899:	83 c4 10             	add    $0x10,%esp
    289c:	89 c7                	mov    %eax,%edi
    289e:	85 c0                	test   %eax,%eax
    28a0:	0f 84 ca 02 00 00    	je     2b70 <usb_device_create_ddf+0x330>
    28a6:	50                   	push   %eax
    28a7:	50                   	push   %eax
    28a8:	8d 45 e0             	lea    -0x20(%ebp),%eax
    28ab:	50                   	push   %eax
    28ac:	57                   	push   %edi
    28ad:	e8 0e ad 00 00       	call   d5c0 <usb_get_my_device_handle>
    28b2:	83 c4 10             	add    $0x10,%esp
    28b5:	89 c6                	mov    %eax,%esi
    28b7:	85 c0                	test   %eax,%eax
    28b9:	74 25                	je     28e0 <usb_device_create_ddf+0xa0>
    28bb:	83 ec 0c             	sub    $0xc,%esp
    28be:	57                   	push   %edi
    28bf:	e8 9c f5 00 00       	call   11e60 <async_exchange_end@plt>
    28c4:	89 1c 24             	mov    %ebx,(%esp)
    28c7:	e8 44 f4 00 00       	call   11d10 <async_hangup@plt>
    28cc:	83 c4 10             	add    $0x10,%esp
    28cf:	8d 65 f4             	lea    -0xc(%ebp),%esp
    28d2:	89 f0                	mov    %esi,%eax
    28d4:	5b                   	pop    %ebx
    28d5:	5e                   	pop    %esi
    28d6:	5f                   	pop    %edi
    28d7:	5d                   	pop    %ebp
    28d8:	c3                   	ret    
    28d9:	8d b4 26 00 00 00 00 	lea    0x0(%esi,%eiz,1),%esi
    28e0:	8d 45 e4             	lea    -0x1c(%ebp),%eax
    28e3:	56                   	push   %esi
    28e4:	56                   	push   %esi
    28e5:	50                   	push   %eax
    28e6:	57                   	push   %edi
    28e7:	e8 84 ac 00 00       	call   d570 <usb_get_my_interface>
    28ec:	83 c4 10             	add    $0x10,%esp
    28ef:	89 c6                	mov    %eax,%esi
    28f1:	83 f8 f5             	cmp    $0xfffffff5,%eax
    28f4:	0f 84 d6 01 00 00    	je     2ad0 <usb_device_create_ddf+0x290>
    28fa:	83 ec 0c             	sub    $0xc,%esp
    28fd:	57                   	push   %edi
    28fe:	e8 5d f5 00 00       	call   11e60 <async_exchange_end@plt>
    2903:	89 1c 24             	mov    %ebx,(%esp)
    2906:	e8 05 f4 00 00       	call   11d10 <async_hangup@plt>
    290b:	83 c4 10             	add    $0x10,%esp
    290e:	85 f6                	test   %esi,%esi
    2910:	75 bd                	jne    28cf <usb_device_create_ddf+0x8f>
    2912:	8b 5d 08             	mov    0x8(%ebp),%ebx
    2915:	51                   	push   %ecx
    2916:	51                   	push   %ecx
    2917:	6a 60                	push   $0x60
    2919:	53                   	push   %ebx
    291a:	e8 a1 43 00 00       	call   6cc0 <ddf_dev_data_alloc>
    291f:	83 c4 10             	add    $0x10,%esp
    2922:	89 c3                	mov    %eax,%ebx
    2924:	85 c0                	test   %eax,%eax
    2926:	0f 84 5a 02 00 00    	je     2b86 <usb_device_create_ddf+0x346>
    292c:	8b 4d 10             	mov    0x10(%ebp),%ecx
    292f:	83 ec 0c             	sub    $0xc,%esp
    2932:	8b 45 e0             	mov    -0x20(%ebp),%eax
    2935:	8b 55 e4             	mov    -0x1c(%ebp),%edx
    2938:	c7 01 00 00 00 00    	movl   $0x0,(%ecx)
    293e:	8b 4d 08             	mov    0x8(%ebp),%ecx
    2941:	89 4b 58             	mov    %ecx,0x58(%ebx)
    2944:	89 43 04             	mov    %eax,0x4(%ebx)
    2947:	89 53 2c             	mov    %edx,0x2c(%ebx)
    294a:	c7 43 5c 00 00 00 00 	movl   $0x0,0x5c(%ebx)
    2951:	c7 43 50 00 00 00 00 	movl   $0x0,0x50(%ebx)
    2958:	c7 43 54 00 00 00 00 	movl   $0x0,0x54(%ebx)
    295f:	c7 43 28 00 00 00 00 	movl   $0x0,0x28(%ebx)
    2966:	c7 43 24 00 00 00 00 	movl   $0x0,0x24(%ebx)
    296d:	50                   	push   %eax
    296e:	e8 9d ab 00 00       	call   d510 <usb_dev_connect>
    2973:	83 c4 10             	add    $0x10,%esp
    2976:	89 03                	mov    %eax,(%ebx)
    2978:	85 c0                	test   %eax,%eax
    297a:	0f 84 19 02 00 00    	je     2b99 <usb_device_create_ddf+0x359>
    2980:	8d 7b 08             	lea    0x8(%ebx),%edi
    2983:	52                   	push   %edx
    2984:	52                   	push   %edx
    2985:	50                   	push   %eax
    2986:	57                   	push   %edi
    2987:	e8 24 11 00 00       	call   3ab0 <usb_pipe_initialize_default_control>
    298c:	83 c4 10             	add    $0x10,%esp
    298f:	89 c6                	mov    %eax,%esi
    2991:	85 c0                	test   %eax,%eax
    2993:	0f 85 0f 01 00 00    	jne    2aa8 <usb_device_create_ddf+0x268>
    2999:	8b 43 50             	mov    0x50(%ebx),%eax
    299c:	85 c0                	test   %eax,%eax
    299e:	0f 85 52 02 00 00    	jne    2bf6 <usb_device_create_ddf+0x3b6>
    29a4:	50                   	push   %eax
    29a5:	50                   	push   %eax
    29a6:	8d 43 3c             	lea    0x3c(%ebx),%eax
    29a9:	50                   	push   %eax
    29aa:	57                   	push   %edi
    29ab:	e8 d0 2a 00 00       	call   5480 <usb_request_get_device_descriptor>
    29b0:	83 c4 10             	add    $0x10,%esp
    29b3:	89 c6                	mov    %eax,%esi
    29b5:	85 c0                	test   %eax,%eax
    29b7:	74 1f                	je     29d8 <usb_device_create_ddf+0x198>
    29b9:	8b 45 10             	mov    0x10(%ebp),%eax
    29bc:	83 ec 0c             	sub    $0xc,%esp
    29bf:	c7 00 6b f9 00 00    	movl   $0xf96b,(%eax)
    29c5:	8b 03                	mov    (%ebx),%eax
    29c7:	50                   	push   %eax
    29c8:	e8 83 ab 00 00       	call   d550 <usb_dev_disconnect>
    29cd:	83 c4 10             	add    $0x10,%esp
    29d0:	e9 fa fe ff ff       	jmp    28cf <usb_device_create_ddf+0x8f>
    29d5:	8d 76 00             	lea    0x0(%esi),%esi
    29d8:	8d 43 54             	lea    0x54(%ebx),%eax
    29db:	50                   	push   %eax
    29dc:	8d 43 50             	lea    0x50(%ebx),%eax
    29df:	50                   	push   %eax
    29e0:	6a 00                	push   $0x0
    29e2:	57                   	push   %edi
    29e3:	e8 48 2c 00 00       	call   5630 <usb_request_get_full_configuration_descriptor_alloc>
    29e8:	83 c4 10             	add    $0x10,%esp
    29eb:	89 c6                	mov    %eax,%esi
    29ed:	85 c0                	test   %eax,%eax
    29ef:	75 c8                	jne    29b9 <usb_device_create_ddf+0x179>
    29f1:	8b 53 2c             	mov    0x2c(%ebx),%edx
    29f4:	8d 43 30             	lea    0x30(%ebx),%eax
    29f7:	52                   	push   %edx
    29f8:	8b 7b 50             	mov    0x50(%ebx),%edi
    29fb:	8b 4b 54             	mov    0x54(%ebx),%ecx
    29fe:	89 45 d4             	mov    %eax,-0x2c(%ebp)
    2a01:	51                   	push   %ecx
    2a02:	57                   	push   %edi
    2a03:	50                   	push   %eax
    2a04:	e8 47 36 00 00       	call   6050 <usb_alternate_interfaces_init>
    2a09:	8b 45 0c             	mov    0xc(%ebp),%eax
    2a0c:	83 c4 10             	add    $0x10,%esp
    2a0f:	85 c0                	test   %eax,%eax
    2a11:	0f 84 b8 fe ff ff    	je     28cf <usb_device_create_ddf+0x8f>
    2a17:	8b 45 0c             	mov    0xc(%ebp),%eax
    2a1a:	57                   	push   %edi
    2a1b:	57                   	push   %edi
    2a1c:	50                   	push   %eax
    2a1d:	53                   	push   %ebx
    2a1e:	e8 5d f8 ff ff       	call   2280 <usb_device_create_pipes>
    2a23:	83 c4 10             	add    $0x10,%esp
    2a26:	89 45 d0             	mov    %eax,-0x30(%ebp)
    2a29:	85 c0                	test   %eax,%eax
    2a2b:	0f 84 9e fe ff ff    	je     28cf <usb_device_create_ddf+0x8f>
    2a31:	8b 43 24             	mov    0x24(%ebx),%eax
    2a34:	85 c0                	test   %eax,%eax
    2a36:	0f 84 70 01 00 00    	je     2bac <usb_device_create_ddf+0x36c>
    2a3c:	8b 4b 28             	mov    0x28(%ebx),%ecx
    2a3f:	85 c9                	test   %ecx,%ecx
    2a41:	0f 84 a9 00 00 00    	je     2af0 <usb_device_create_ddf+0x2b0>
    2a47:	31 f6                	xor    %esi,%esi
    2a49:	eb 0f                	jmp    2a5a <usb_device_create_ddf+0x21a>
    2a4b:	90                   	nop
    2a4c:	8d 74 26 00          	lea    0x0(%esi,%eiz,1),%esi
    2a50:	46                   	inc    %esi
    2a51:	3b 73 28             	cmp    0x28(%ebx),%esi
    2a54:	0f 83 96 00 00 00    	jae    2af0 <usb_device_create_ddf+0x2b0>
    2a5a:	8d 14 76             	lea    (%esi,%esi,2),%edx
    2a5d:	8d 3c 96             	lea    (%esi,%edx,4),%edi
    2a60:	ba 31 f9 00 00       	mov    $0xf931,%edx
    2a65:	c1 e7 02             	shl    $0x2,%edi
    2a68:	80 7c 38 30 00       	cmpb   $0x0,0x30(%eax,%edi,1)
    2a6d:	74 05                	je     2a74 <usb_device_create_ddf+0x234>
    2a6f:	ba a6 19 01 00       	mov    $0x119a6,%edx
    2a74:	83 ec 0c             	sub    $0xc,%esp
    2a77:	52                   	push   %edx
    2a78:	56                   	push   %esi
    2a79:	68 04 fa 00 00       	push   $0xfa04
    2a7e:	6a 05                	push   $0x5
    2a80:	6a ff                	push   $0xffffffff
    2a82:	e8 99 f3 00 00       	call   11e20 <log_msg@plt>
    2a87:	8b 43 24             	mov    0x24(%ebx),%eax
    2a8a:	83 c4 20             	add    $0x20,%esp
    2a8d:	01 c7                	add    %eax,%edi
    2a8f:	80 7f 30 00          	cmpb   $0x0,0x30(%edi)
    2a93:	74 bb                	je     2a50 <usb_device_create_ddf+0x210>
    2a95:	83 ec 0c             	sub    $0xc,%esp
    2a98:	57                   	push   %edi
    2a99:	e8 12 11 00 00       	call   3bb0 <usb_pipe_unregister>
    2a9e:	8b 43 24             	mov    0x24(%ebx),%eax
    2aa1:	83 c4 10             	add    $0x10,%esp
    2aa4:	eb aa                	jmp    2a50 <usb_device_create_ddf+0x210>
    2aa6:	66 90                	xchg   %ax,%ax
    2aa8:	83 ec 0c             	sub    $0xc,%esp
    2aab:	8b 03                	mov    (%ebx),%eax
    2aad:	50                   	push   %eax
    2aae:	e8 9d aa 00 00       	call   d550 <usb_dev_disconnect>
    2ab3:	8b 45 10             	mov    0x10(%ebp),%eax
    2ab6:	83 c4 10             	add    $0x10,%esp
    2ab9:	c7 00 28 fa 00 00    	movl   $0xfa28,(%eax)
    2abf:	8d 65 f4             	lea    -0xc(%ebp),%esp
    2ac2:	89 f0                	mov    %esi,%eax
    2ac4:	5b                   	pop    %ebx
    2ac5:	5e                   	pop    %esi
    2ac6:	5f                   	pop    %edi
    2ac7:	5d                   	pop    %ebp
    2ac8:	c3                   	ret    
    2ac9:	8d b4 26 00 00 00 00 	lea    0x0(%esi,%eiz,1),%esi
    2ad0:	83 ec 0c             	sub    $0xc,%esp
    2ad3:	c7 45 e4 ff ff ff ff 	movl   $0xffffffff,-0x1c(%ebp)
    2ada:	57                   	push   %edi
    2adb:	e8 80 f3 00 00       	call   11e60 <async_exchange_end@plt>
    2ae0:	89 1c 24             	mov    %ebx,(%esp)
    2ae3:	e8 28 f2 00 00       	call   11d10 <async_hangup@plt>
    2ae8:	83 c4 10             	add    $0x10,%esp
    2aeb:	e9 22 fe ff ff       	jmp    2912 <usb_device_create_ddf+0xd2>
    2af0:	83 ec 0c             	sub    $0xc,%esp
    2af3:	50                   	push   %eax
    2af4:	e8 57 f6 00 00       	call   12150 <free@plt>
    2af9:	8b 55 d4             	mov    -0x2c(%ebp),%edx
    2afc:	c7 43 24 00 00 00 00 	movl   $0x0,0x24(%ebx)
    2b03:	c7 43 28 00 00 00 00 	movl   $0x0,0x28(%ebx)
    2b0a:	58                   	pop    %eax
    2b0b:	52                   	push   %edx
    2b0c:	e8 3f 37 00 00       	call   6250 <usb_alternate_interfaces_deinit>
    2b11:	8b 73 50             	mov    0x50(%ebx),%esi
    2b14:	59                   	pop    %ecx
    2b15:	56                   	push   %esi
    2b16:	e8 35 f6 00 00       	call   12150 <free@plt>
    2b1b:	c7 43 50 00 00 00 00 	movl   $0x0,0x50(%ebx)
    2b22:	c7 43 54 00 00 00 00 	movl   $0x0,0x54(%ebx)
    2b29:	8b 43 5c             	mov    0x5c(%ebx),%eax
    2b2c:	5f                   	pop    %edi
    2b2d:	50                   	push   %eax
    2b2e:	e8 1d f6 00 00       	call   12150 <free@plt>
    2b33:	c7 43 5c 00 00 00 00 	movl   $0x0,0x5c(%ebx)
    2b3a:	58                   	pop    %eax
    2b3b:	8b 03                	mov    (%ebx),%eax
    2b3d:	50                   	push   %eax
    2b3e:	e8 0d aa 00 00       	call   d550 <usb_dev_disconnect>
    2b43:	8b 45 10             	mov    0x10(%ebp),%eax
    2b46:	c7 03 00 00 00 00    	movl   $0x0,(%ebx)
    2b4c:	83 c4 10             	add    $0x10,%esp
    2b4f:	8b 75 d0             	mov    -0x30(%ebp),%esi
    2b52:	c7 00 80 f9 00 00    	movl   $0xf980,(%eax)
    2b58:	e9 72 fd ff ff       	jmp    28cf <usb_device_create_ddf+0x8f>
    2b5d:	8d 76 00             	lea    0x0(%esi),%esi
    2b60:	be fe ff ff ff       	mov    $0xfffffffe,%esi
    2b65:	e9 65 fd ff ff       	jmp    28cf <usb_device_create_ddf+0x8f>
    2b6a:	8d b6 00 00 00 00    	lea    0x0(%esi),%esi
    2b70:	83 ec 0c             	sub    $0xc,%esp
    2b73:	be f8 ff ff ff       	mov    $0xfffffff8,%esi
    2b78:	53                   	push   %ebx
    2b79:	e8 92 f1 00 00       	call   11d10 <async_hangup@plt>
    2b7e:	83 c4 10             	add    $0x10,%esp
    2b81:	e9 49 fd ff ff       	jmp    28cf <usb_device_create_ddf+0x8f>
    2b86:	8b 45 10             	mov    0x10(%ebp),%eax
    2b89:	be fe ff ff ff       	mov    $0xfffffffe,%esi
    2b8e:	c7 00 42 f9 00 00    	movl   $0xf942,(%eax)
    2b94:	e9 36 fd ff ff       	jmp    28cf <usb_device_create_ddf+0x8f>
    2b99:	8b 45 10             	mov    0x10(%ebp),%eax
    2b9c:	be fe ff ff ff       	mov    $0xfffffffe,%esi
    2ba1:	c7 00 51 f9 00 00    	movl   $0xf951,(%eax)
    2ba7:	e9 23 fd ff ff       	jmp    28cf <usb_device_create_ddf+0x8f>
    2bac:	8b 53 28             	mov    0x28(%ebx),%edx
    2baf:	85 d2                	test   %edx,%edx
    2bb1:	0f 84 39 ff ff ff    	je     2af0 <usb_device_create_ddf+0x2b0>
    2bb7:	50                   	push   %eax
    2bb8:	68 29 01 00 00       	push   $0x129
    2bbd:	68 eb f8 00 00       	push   $0xf8eb
    2bc2:	68 d8 f9 00 00       	push   $0xf9d8
    2bc7:	e8 a4 f2 00 00       	call   11e70 <assert_abort@plt>
    2bcc:	57                   	push   %edi
    2bcd:	68 e5 01 00 00       	push   $0x1e5
    2bd2:	68 eb f8 00 00       	push   $0xf8eb
    2bd7:	68 36 f9 00 00       	push   $0xf936
    2bdc:	e8 8f f2 00 00       	call   11e70 <assert_abort@plt>
    2be1:	53                   	push   %ebx
    2be2:	68 e6 01 00 00       	push   $0x1e6
    2be7:	68 eb f8 00 00       	push   $0xf8eb
    2bec:	68 3e f9 00 00       	push   $0xf93e
    2bf1:	e8 7a f2 00 00       	call   11e70 <assert_abort@plt>
    2bf6:	50                   	push   %eax
    2bf7:	68 aa 00 00 00       	push   $0xaa
    2bfc:	68 eb f8 00 00       	push   $0xf8eb
    2c01:	68 4c fa 00 00       	push   $0xfa4c
    2c06:	e8 65 f2 00 00       	call   11e70 <assert_abort@plt>
    2c0b:	90                   	nop
    2c0c:	8d 74 26 00          	lea    0x0(%esi,%eiz,1),%esi

00002c10 <usb_device_destroy_ddf>:
    2c10:	55                   	push   %ebp
    2c11:	89 e5                	mov    %esp,%ebp
    2c13:	57                   	push   %edi
    2c14:	56                   	push   %esi
    2c15:	53                   	push   %ebx
    2c16:	83 ec 0c             	sub    $0xc,%esp
    2c19:	8b 45 08             	mov    0x8(%ebp),%eax
    2c1c:	85 c0                	test   %eax,%eax
    2c1e:	0f 84 1d 01 00 00    	je     2d41 <usb_device_destroy_ddf+0x131>
    2c24:	83 ec 0c             	sub    $0xc,%esp
    2c27:	50                   	push   %eax
    2c28:	e8 d3 40 00 00       	call   6d00 <ddf_dev_data_get>
    2c2d:	83 c4 10             	add    $0x10,%esp
    2c30:	89 c7                	mov    %eax,%edi
    2c32:	85 c0                	test   %eax,%eax
    2c34:	0f 84 f2 00 00 00    	je     2d2c <usb_device_destroy_ddf+0x11c>
    2c3a:	8b 40 24             	mov    0x24(%eax),%eax
    2c3d:	85 c0                	test   %eax,%eax
    2c3f:	0f 84 cb 00 00 00    	je     2d10 <usb_device_destroy_ddf+0x100>
    2c45:	8b 4f 28             	mov    0x28(%edi),%ecx
    2c48:	85 c9                	test   %ecx,%ecx
    2c4a:	74 5a                	je     2ca6 <usb_device_destroy_ddf+0x96>
    2c4c:	31 f6                	xor    %esi,%esi
    2c4e:	eb 06                	jmp    2c56 <usb_device_destroy_ddf+0x46>
    2c50:	46                   	inc    %esi
    2c51:	3b 77 28             	cmp    0x28(%edi),%esi
    2c54:	73 50                	jae    2ca6 <usb_device_destroy_ddf+0x96>
    2c56:	8d 14 76             	lea    (%esi,%esi,2),%edx
    2c59:	8d 1c 96             	lea    (%esi,%edx,4),%ebx
    2c5c:	ba 31 f9 00 00       	mov    $0xf931,%edx
    2c61:	c1 e3 02             	shl    $0x2,%ebx
    2c64:	80 7c 18 30 00       	cmpb   $0x0,0x30(%eax,%ebx,1)
    2c69:	74 05                	je     2c70 <usb_device_destroy_ddf+0x60>
    2c6b:	ba a6 19 01 00       	mov    $0x119a6,%edx
    2c70:	83 ec 0c             	sub    $0xc,%esp
    2c73:	52                   	push   %edx
    2c74:	56                   	push   %esi
    2c75:	68 04 fa 00 00       	push   $0xfa04
    2c7a:	6a 05                	push   $0x5
    2c7c:	6a ff                	push   $0xffffffff
    2c7e:	e8 9d f1 00 00       	call   11e20 <log_msg@plt>
    2c83:	8b 47 24             	mov    0x24(%edi),%eax
    2c86:	83 c4 20             	add    $0x20,%esp
    2c89:	01 c3                	add    %eax,%ebx
    2c8b:	80 7b 30 00          	cmpb   $0x0,0x30(%ebx)
    2c8f:	74 bf                	je     2c50 <usb_device_destroy_ddf+0x40>
    2c91:	83 ec 0c             	sub    $0xc,%esp
    2c94:	46                   	inc    %esi
    2c95:	53                   	push   %ebx
    2c96:	e8 15 0f 00 00       	call   3bb0 <usb_pipe_unregister>
    2c9b:	83 c4 10             	add    $0x10,%esp
    2c9e:	8b 47 24             	mov    0x24(%edi),%eax
    2ca1:	3b 77 28             	cmp    0x28(%edi),%esi
    2ca4:	72 b0                	jb     2c56 <usb_device_destroy_ddf+0x46>
    2ca6:	83 ec 0c             	sub    $0xc,%esp
    2ca9:	50                   	push   %eax
    2caa:	e8 a1 f4 00 00       	call   12150 <free@plt>
    2caf:	8d 47 30             	lea    0x30(%edi),%eax
    2cb2:	c7 47 24 00 00 00 00 	movl   $0x0,0x24(%edi)
    2cb9:	c7 47 28 00 00 00 00 	movl   $0x0,0x28(%edi)
    2cc0:	89 04 24             	mov    %eax,(%esp)
    2cc3:	e8 88 35 00 00       	call   6250 <usb_alternate_interfaces_deinit>
    2cc8:	8b 57 50             	mov    0x50(%edi),%edx
    2ccb:	58                   	pop    %eax
    2ccc:	52                   	push   %edx
    2ccd:	e8 7e f4 00 00       	call   12150 <free@plt>
    2cd2:	c7 47 50 00 00 00 00 	movl   $0x0,0x50(%edi)
    2cd9:	c7 47 54 00 00 00 00 	movl   $0x0,0x54(%edi)
    2ce0:	8b 5f 5c             	mov    0x5c(%edi),%ebx
    2ce3:	59                   	pop    %ecx
    2ce4:	53                   	push   %ebx
    2ce5:	e8 66 f4 00 00       	call   12150 <free@plt>
    2cea:	c7 47 5c 00 00 00 00 	movl   $0x0,0x5c(%edi)
    2cf1:	8b 07                	mov    (%edi),%eax
    2cf3:	5e                   	pop    %esi
    2cf4:	50                   	push   %eax
    2cf5:	e8 56 a8 00 00       	call   d550 <usb_dev_disconnect>
    2cfa:	c7 07 00 00 00 00    	movl   $0x0,(%edi)
    2d00:	83 c4 10             	add    $0x10,%esp
    2d03:	8d 65 f4             	lea    -0xc(%ebp),%esp
    2d06:	5b                   	pop    %ebx
    2d07:	5e                   	pop    %esi
    2d08:	5f                   	pop    %edi
    2d09:	5d                   	pop    %ebp
    2d0a:	c3                   	ret    
    2d0b:	90                   	nop
    2d0c:	8d 74 26 00          	lea    0x0(%esi,%eiz,1),%esi
    2d10:	8b 57 28             	mov    0x28(%edi),%edx
    2d13:	85 d2                	test   %edx,%edx
    2d15:	74 8f                	je     2ca6 <usb_device_destroy_ddf+0x96>
    2d17:	50                   	push   %eax
    2d18:	68 29 01 00 00       	push   $0x129
    2d1d:	68 eb f8 00 00       	push   $0xf8eb
    2d22:	68 d8 f9 00 00       	push   $0xf9d8
    2d27:	e8 44 f1 00 00       	call   11e70 <assert_abort@plt>
    2d2c:	53                   	push   %ebx
    2d2d:	68 02 02 00 00       	push   $0x202
    2d32:	68 eb f8 00 00       	push   $0xf8eb
    2d37:	68 f8 f8 00 00       	push   $0xf8f8
    2d3c:	e8 2f f1 00 00       	call   11e70 <assert_abort@plt>
    2d41:	56                   	push   %esi
    2d42:	68 00 02 00 00       	push   $0x200
    2d47:	68 eb f8 00 00       	push   $0xf8eb
    2d4c:	68 36 f9 00 00       	push   $0xf936
    2d51:	e8 1a f1 00 00       	call   11e70 <assert_abort@plt>
    2d56:	8d 76 00             	lea    0x0(%esi),%esi
    2d59:	8d bc 27 00 00 00 00 	lea    0x0(%edi,%eiz,1),%edi

00002d60 <usb_device_create>:
    2d60:	55                   	push   %ebp
    2d61:	89 e5                	mov    %esp,%ebp
    2d63:	57                   	push   %edi
    2d64:	56                   	push   %esi
    2d65:	53                   	push   %ebx
    2d66:	83 ec 34             	sub    $0x34,%esp
    2d69:	c7 45 e0 00 00 00 00 	movl   $0x0,-0x20(%ebp)
    2d70:	8b 45 08             	mov    0x8(%ebp),%eax
    2d73:	c7 45 e4 ff ff ff ff 	movl   $0xffffffff,-0x1c(%ebp)
    2d7a:	6a 01                	push   $0x1
    2d7c:	50                   	push   %eax
    2d7d:	e8 3e ef 00 00       	call   11cc0 <devman_device_connect@plt>
    2d82:	89 04 24             	mov    %eax,(%esp)
    2d85:	89 c3                	mov    %eax,%ebx
    2d87:	e8 d4 f2 00 00       	call   12060 <async_exchange_begin@plt>
    2d8c:	83 c4 10             	add    $0x10,%esp
    2d8f:	85 c0                	test   %eax,%eax
    2d91:	0f 84 99 01 00 00    	je     2f30 <usb_device_create+0x1d0>
    2d97:	89 c6                	mov    %eax,%esi
    2d99:	50                   	push   %eax
    2d9a:	50                   	push   %eax
    2d9b:	8d 45 e0             	lea    -0x20(%ebp),%eax
    2d9e:	50                   	push   %eax
    2d9f:	56                   	push   %esi
    2da0:	e8 1b a8 00 00       	call   d5c0 <usb_get_my_device_handle>
    2da5:	83 c4 10             	add    $0x10,%esp
    2da8:	89 c7                	mov    %eax,%edi
    2daa:	85 c0                	test   %eax,%eax
    2dac:	0f 84 e6 00 00 00    	je     2e98 <usb_device_create+0x138>
    2db2:	83 ec 0c             	sub    $0xc,%esp
    2db5:	56                   	push   %esi
    2db6:	e8 a5 f0 00 00       	call   11e60 <async_exchange_end@plt>
    2dbb:	83 c4 10             	add    $0x10,%esp
    2dbe:	85 db                	test   %ebx,%ebx
    2dc0:	0f 84 c1 00 00 00    	je     2e87 <usb_device_create+0x127>
    2dc6:	83 ec 0c             	sub    $0xc,%esp
    2dc9:	53                   	push   %ebx
    2dca:	e8 41 ef 00 00       	call   11d10 <async_hangup@plt>
    2dcf:	83 c4 10             	add    $0x10,%esp
    2dd2:	85 ff                	test   %edi,%edi
    2dd4:	0f 85 ad 00 00 00    	jne    2e87 <usb_device_create+0x127>
    2dda:	83 ec 0c             	sub    $0xc,%esp
    2ddd:	6a 60                	push   $0x60
    2ddf:	e8 dc ef 00 00       	call   11dc0 <malloc@plt>
    2de4:	83 c4 10             	add    $0x10,%esp
    2de7:	89 c3                	mov    %eax,%ebx
    2de9:	85 c0                	test   %eax,%eax
    2deb:	0f 84 96 00 00 00    	je     2e87 <usb_device_create+0x127>
    2df1:	c7 40 58 00 00 00 00 	movl   $0x0,0x58(%eax)
    2df8:	8b 45 08             	mov    0x8(%ebp),%eax
    2dfb:	83 ec 0c             	sub    $0xc,%esp
    2dfe:	89 43 04             	mov    %eax,0x4(%ebx)
    2e01:	8b 45 e4             	mov    -0x1c(%ebp),%eax
    2e04:	c7 43 5c 00 00 00 00 	movl   $0x0,0x5c(%ebx)
    2e0b:	89 43 2c             	mov    %eax,0x2c(%ebx)
    2e0e:	c7 43 50 00 00 00 00 	movl   $0x0,0x50(%ebx)
    2e15:	c7 43 54 00 00 00 00 	movl   $0x0,0x54(%ebx)
    2e1c:	c7 43 28 00 00 00 00 	movl   $0x0,0x28(%ebx)
    2e23:	c7 43 24 00 00 00 00 	movl   $0x0,0x24(%ebx)
    2e2a:	8b 4d 08             	mov    0x8(%ebp),%ecx
    2e2d:	51                   	push   %ecx
    2e2e:	e8 dd a6 00 00       	call   d510 <usb_dev_connect>
    2e33:	83 c4 10             	add    $0x10,%esp
    2e36:	89 03                	mov    %eax,(%ebx)
    2e38:	85 c0                	test   %eax,%eax
    2e3a:	74 3f                	je     2e7b <usb_device_create+0x11b>
    2e3c:	8d 73 08             	lea    0x8(%ebx),%esi
    2e3f:	52                   	push   %edx
    2e40:	52                   	push   %edx
    2e41:	50                   	push   %eax
    2e42:	56                   	push   %esi
    2e43:	e8 68 0c 00 00       	call   3ab0 <usb_pipe_initialize_default_control>
    2e48:	83 c4 10             	add    $0x10,%esp
    2e4b:	85 c0                	test   %eax,%eax
    2e4d:	75 1e                	jne    2e6d <usb_device_create+0x10d>
    2e4f:	8b 43 50             	mov    0x50(%ebx),%eax
    2e52:	85 c0                	test   %eax,%eax
    2e54:	0f 85 e8 00 00 00    	jne    2f42 <usb_device_create+0x1e2>
    2e5a:	8d 43 3c             	lea    0x3c(%ebx),%eax
    2e5d:	57                   	push   %edi
    2e5e:	57                   	push   %edi
    2e5f:	50                   	push   %eax
    2e60:	56                   	push   %esi
    2e61:	e8 1a 26 00 00       	call   5480 <usb_request_get_device_descriptor>
    2e66:	83 c4 10             	add    $0x10,%esp
    2e69:	85 c0                	test   %eax,%eax
    2e6b:	74 63                	je     2ed0 <usb_device_create+0x170>
    2e6d:	83 ec 0c             	sub    $0xc,%esp
    2e70:	8b 33                	mov    (%ebx),%esi
    2e72:	56                   	push   %esi
    2e73:	e8 d8 a6 00 00       	call   d550 <usb_dev_disconnect>
    2e78:	83 c4 10             	add    $0x10,%esp
    2e7b:	83 ec 0c             	sub    $0xc,%esp
    2e7e:	53                   	push   %ebx
    2e7f:	e8 cc f2 00 00       	call   12150 <free@plt>
    2e84:	83 c4 10             	add    $0x10,%esp
    2e87:	8d 65 f4             	lea    -0xc(%ebp),%esp
    2e8a:	31 db                	xor    %ebx,%ebx
    2e8c:	89 d8                	mov    %ebx,%eax
    2e8e:	5b                   	pop    %ebx
    2e8f:	5e                   	pop    %esi
    2e90:	5f                   	pop    %edi
    2e91:	5d                   	pop    %ebp
    2e92:	c3                   	ret    
    2e93:	90                   	nop
    2e94:	8d 74 26 00          	lea    0x0(%esi,%eiz,1),%esi
    2e98:	50                   	push   %eax
    2e99:	50                   	push   %eax
    2e9a:	8d 45 e4             	lea    -0x1c(%ebp),%eax
    2e9d:	50                   	push   %eax
    2e9e:	56                   	push   %esi
    2e9f:	e8 cc a6 00 00       	call   d570 <usb_get_my_interface>
    2ea4:	83 c4 10             	add    $0x10,%esp
    2ea7:	83 f8 f5             	cmp    $0xfffffff5,%eax
    2eaa:	74 64                	je     2f10 <usb_device_create+0x1b0>
    2eac:	83 ec 0c             	sub    $0xc,%esp
    2eaf:	89 45 d4             	mov    %eax,-0x2c(%ebp)
    2eb2:	56                   	push   %esi
    2eb3:	e8 a8 ef 00 00       	call   11e60 <async_exchange_end@plt>
    2eb8:	8b 45 d4             	mov    -0x2c(%ebp),%eax
    2ebb:	83 c4 10             	add    $0x10,%esp
    2ebe:	89 c7                	mov    %eax,%edi
    2ec0:	85 db                	test   %ebx,%ebx
    2ec2:	0f 85 fe fe ff ff    	jne    2dc6 <usb_device_create+0x66>
    2ec8:	e9 05 ff ff ff       	jmp    2dd2 <usb_device_create+0x72>
    2ecd:	8d 76 00             	lea    0x0(%esi),%esi
    2ed0:	8d 43 54             	lea    0x54(%ebx),%eax
    2ed3:	50                   	push   %eax
    2ed4:	8d 43 50             	lea    0x50(%ebx),%eax
    2ed7:	50                   	push   %eax
    2ed8:	6a 00                	push   $0x0
    2eda:	56                   	push   %esi
    2edb:	e8 50 27 00 00       	call   5630 <usb_request_get_full_configuration_descriptor_alloc>
    2ee0:	83 c4 10             	add    $0x10,%esp
    2ee3:	85 c0                	test   %eax,%eax
    2ee5:	75 86                	jne    2e6d <usb_device_create+0x10d>
    2ee7:	8b 43 2c             	mov    0x2c(%ebx),%eax
    2eea:	8b 4b 50             	mov    0x50(%ebx),%ecx
    2eed:	50                   	push   %eax
    2eee:	8d 43 30             	lea    0x30(%ebx),%eax
    2ef1:	8b 53 54             	mov    0x54(%ebx),%edx
    2ef4:	52                   	push   %edx
    2ef5:	51                   	push   %ecx
    2ef6:	50                   	push   %eax
    2ef7:	e8 54 31 00 00       	call   6050 <usb_alternate_interfaces_init>
    2efc:	83 c4 10             	add    $0x10,%esp
    2eff:	8d 65 f4             	lea    -0xc(%ebp),%esp
    2f02:	89 d8                	mov    %ebx,%eax
    2f04:	5b                   	pop    %ebx
    2f05:	5e                   	pop    %esi
    2f06:	5f                   	pop    %edi
    2f07:	5d                   	pop    %ebp
    2f08:	c3                   	ret    
    2f09:	8d b4 26 00 00 00 00 	lea    0x0(%esi,%eiz,1),%esi
    2f10:	83 ec 0c             	sub    $0xc,%esp
    2f13:	c7 45 e4 ff ff ff ff 	movl   $0xffffffff,-0x1c(%ebp)
    2f1a:	56                   	push   %esi
    2f1b:	e8 40 ef 00 00       	call   11e60 <async_exchange_end@plt>
    2f20:	83 c4 10             	add    $0x10,%esp
    2f23:	85 db                	test   %ebx,%ebx
    2f25:	0f 84 af fe ff ff    	je     2dda <usb_device_create+0x7a>
    2f2b:	e9 96 fe ff ff       	jmp    2dc6 <usb_device_create+0x66>
    2f30:	bf f8 ff ff ff       	mov    $0xfffffff8,%edi
    2f35:	85 db                	test   %ebx,%ebx
    2f37:	0f 85 89 fe ff ff    	jne    2dc6 <usb_device_create+0x66>
    2f3d:	e9 45 ff ff ff       	jmp    2e87 <usb_device_create+0x127>
    2f42:	50                   	push   %eax
    2f43:	68 aa 00 00 00       	push   $0xaa
    2f48:	68 eb f8 00 00       	push   $0xf8eb
    2f4d:	68 4c fa 00 00       	push   $0xfa4c
    2f52:	e8 19 ef 00 00       	call   11e70 <assert_abort@plt>
    2f57:	89 f6                	mov    %esi,%esi
    2f59:	8d bc 27 00 00 00 00 	lea    0x0(%edi,%eiz,1),%edi

00002f60 <usb_device_destroy>:
    2f60:	55                   	push   %ebp
    2f61:	89 e5                	mov    %esp,%ebp
    2f63:	57                   	push   %edi
    2f64:	56                   	push   %esi
    2f65:	53                   	push   %ebx
    2f66:	83 ec 0c             	sub    $0xc,%esp
    2f69:	8b 7d 08             	mov    0x8(%ebp),%edi
    2f6c:	85 ff                	test   %edi,%edi
    2f6e:	0f 84 e4 00 00 00    	je     3058 <usb_device_destroy+0xf8>
    2f74:	8b 47 24             	mov    0x24(%edi),%eax
    2f77:	85 c0                	test   %eax,%eax
    2f79:	0f 84 e1 00 00 00    	je     3060 <usb_device_destroy+0x100>
    2f7f:	8b 4f 28             	mov    0x28(%edi),%ecx
    2f82:	85 c9                	test   %ecx,%ecx
    2f84:	74 60                	je     2fe6 <usb_device_destroy+0x86>
    2f86:	31 f6                	xor    %esi,%esi
    2f88:	eb 0c                	jmp    2f96 <usb_device_destroy+0x36>
    2f8a:	8d b6 00 00 00 00    	lea    0x0(%esi),%esi
    2f90:	46                   	inc    %esi
    2f91:	3b 77 28             	cmp    0x28(%edi),%esi
    2f94:	73 50                	jae    2fe6 <usb_device_destroy+0x86>
    2f96:	8d 14 76             	lea    (%esi,%esi,2),%edx
    2f99:	8d 1c 96             	lea    (%esi,%edx,4),%ebx
    2f9c:	ba 31 f9 00 00       	mov    $0xf931,%edx
    2fa1:	c1 e3 02             	shl    $0x2,%ebx
    2fa4:	80 7c 18 30 00       	cmpb   $0x0,0x30(%eax,%ebx,1)
    2fa9:	74 05                	je     2fb0 <usb_device_destroy+0x50>
    2fab:	ba a6 19 01 00       	mov    $0x119a6,%edx
    2fb0:	83 ec 0c             	sub    $0xc,%esp
    2fb3:	52                   	push   %edx
    2fb4:	56                   	push   %esi
    2fb5:	68 04 fa 00 00       	push   $0xfa04
    2fba:	6a 05                	push   $0x5
    2fbc:	6a ff                	push   $0xffffffff
    2fbe:	e8 5d ee 00 00       	call   11e20 <log_msg@plt>
    2fc3:	8b 47 24             	mov    0x24(%edi),%eax
    2fc6:	83 c4 20             	add    $0x20,%esp
    2fc9:	01 c3                	add    %eax,%ebx
    2fcb:	80 7b 30 00          	cmpb   $0x0,0x30(%ebx)
    2fcf:	74 bf                	je     2f90 <usb_device_destroy+0x30>
    2fd1:	83 ec 0c             	sub    $0xc,%esp
    2fd4:	46                   	inc    %esi
    2fd5:	53                   	push   %ebx
    2fd6:	e8 d5 0b 00 00       	call   3bb0 <usb_pipe_unregister>
    2fdb:	83 c4 10             	add    $0x10,%esp
    2fde:	8b 47 24             	mov    0x24(%edi),%eax
    2fe1:	3b 77 28             	cmp    0x28(%edi),%esi
    2fe4:	72 b0                	jb     2f96 <usb_device_destroy+0x36>
    2fe6:	83 ec 0c             	sub    $0xc,%esp
    2fe9:	50                   	push   %eax
    2fea:	e8 61 f1 00 00       	call   12150 <free@plt>
    2fef:	8d 47 30             	lea    0x30(%edi),%eax
    2ff2:	c7 47 24 00 00 00 00 	movl   $0x0,0x24(%edi)
    2ff9:	c7 47 28 00 00 00 00 	movl   $0x0,0x28(%edi)
    3000:	89 04 24             	mov    %eax,(%esp)
    3003:	e8 48 32 00 00       	call   6250 <usb_alternate_interfaces_deinit>
    3008:	8b 57 50             	mov    0x50(%edi),%edx
    300b:	58                   	pop    %eax
    300c:	52                   	push   %edx
    300d:	e8 3e f1 00 00       	call   12150 <free@plt>
    3012:	c7 47 50 00 00 00 00 	movl   $0x0,0x50(%edi)
    3019:	c7 47 54 00 00 00 00 	movl   $0x0,0x54(%edi)
    3020:	8b 5f 5c             	mov    0x5c(%edi),%ebx
    3023:	59                   	pop    %ecx
    3024:	53                   	push   %ebx
    3025:	e8 26 f1 00 00       	call   12150 <free@plt>
    302a:	c7 47 5c 00 00 00 00 	movl   $0x0,0x5c(%edi)
    3031:	8b 07                	mov    (%edi),%eax
    3033:	5e                   	pop    %esi
    3034:	50                   	push   %eax
    3035:	e8 16 a5 00 00       	call   d550 <usb_dev_disconnect>
    303a:	c7 07 00 00 00 00    	movl   $0x0,(%edi)
    3040:	83 c4 10             	add    $0x10,%esp
    3043:	89 7d 08             	mov    %edi,0x8(%ebp)
    3046:	8d 65 f4             	lea    -0xc(%ebp),%esp
    3049:	5b                   	pop    %ebx
    304a:	5e                   	pop    %esi
    304b:	5f                   	pop    %edi
    304c:	5d                   	pop    %ebp
    304d:	e9 fe f0 00 00       	jmp    12150 <free@plt>
    3052:	8d b6 00 00 00 00    	lea    0x0(%esi),%esi
    3058:	8d 65 f4             	lea    -0xc(%ebp),%esp
    305b:	5b                   	pop    %ebx
    305c:	5e                   	pop    %esi
    305d:	5f                   	pop    %edi
    305e:	5d                   	pop    %ebp
    305f:	c3                   	ret    
    3060:	8b 57 28             	mov    0x28(%edi),%edx
    3063:	85 d2                	test   %edx,%edx
    3065:	0f 84 7b ff ff ff    	je     2fe6 <usb_device_destroy+0x86>
    306b:	50                   	push   %eax
    306c:	68 29 01 00 00       	push   $0x129
    3071:	68 eb f8 00 00       	push   $0xf8eb
    3076:	68 d8 f9 00 00       	push   $0xf9d8
    307b:	e8 f0 ed 00 00       	call   11e70 <assert_abort@plt>

00003080 <usb_device_get_name>:
    3080:	55                   	push   %ebp
    3081:	89 e5                	mov    %esp,%ebp
    3083:	83 ec 08             	sub    $0x8,%esp
    3086:	8b 45 08             	mov    0x8(%ebp),%eax
    3089:	85 c0                	test   %eax,%eax
    308b:	74 17                	je     30a4 <usb_device_get_name+0x24>
    308d:	8b 40 58             	mov    0x58(%eax),%eax
    3090:	85 c0                	test   %eax,%eax
    3092:	74 0c                	je     30a0 <usb_device_get_name+0x20>
    3094:	89 45 08             	mov    %eax,0x8(%ebp)
    3097:	c9                   	leave  
    3098:	e9 83 3c 00 00       	jmp    6d20 <ddf_dev_get_name>
    309d:	8d 76 00             	lea    0x0(%esi),%esi
    30a0:	31 c0                	xor    %eax,%eax
    30a2:	c9                   	leave  
    30a3:	c3                   	ret    
    30a4:	50                   	push   %eax
    30a5:	68 2a 02 00 00       	push   $0x22a
    30aa:	68 eb f8 00 00       	push   $0xf8eb
    30af:	68 f8 f8 00 00       	push   $0xf8f8
    30b4:	e8 b7 ed 00 00       	call   11e70 <assert_abort@plt>
    30b9:	8d b4 26 00 00 00 00 	lea    0x0(%esi,%eiz,1),%esi

000030c0 <usb_device_ddf_fun_create>:
    30c0:	55                   	push   %ebp
    30c1:	89 e5                	mov    %esp,%ebp
    30c3:	83 ec 08             	sub    $0x8,%esp
    30c6:	8b 45 08             	mov    0x8(%ebp),%eax
    30c9:	8b 55 0c             	mov    0xc(%ebp),%edx
    30cc:	8b 4d 10             	mov    0x10(%ebp),%ecx
    30cf:	85 c0                	test   %eax,%eax
    30d1:	74 21                	je     30f4 <usb_device_ddf_fun_create+0x34>
    30d3:	8b 40 58             	mov    0x58(%eax),%eax
    30d6:	85 c0                	test   %eax,%eax
    30d8:	74 16                	je     30f0 <usb_device_ddf_fun_create+0x30>
    30da:	89 4d 10             	mov    %ecx,0x10(%ebp)
    30dd:	89 55 0c             	mov    %edx,0xc(%ebp)
    30e0:	89 45 08             	mov    %eax,0x8(%ebp)
    30e3:	c9                   	leave  
    30e4:	e9 07 3d 00 00       	jmp    6df0 <ddf_fun_create>
    30e9:	8d b4 26 00 00 00 00 	lea    0x0(%esi,%eiz,1),%esi
    30f0:	31 c0                	xor    %eax,%eax
    30f2:	c9                   	leave  
    30f3:	c3                   	ret    
    30f4:	50                   	push   %eax
    30f5:	68 33 02 00 00       	push   $0x233
    30fa:	68 eb f8 00 00       	push   $0xf8eb
    30ff:	68 f8 f8 00 00       	push   $0xf8f8
    3104:	e8 67 ed 00 00       	call   11e70 <assert_abort@plt>
    3109:	8d b4 26 00 00 00 00 	lea    0x0(%esi,%eiz,1),%esi

00003110 <usb_device_bus_exchange_begin>:
    3110:	55                   	push   %ebp
    3111:	89 e5                	mov    %esp,%ebp
    3113:	83 ec 08             	sub    $0x8,%esp
    3116:	8b 45 08             	mov    0x8(%ebp),%eax
    3119:	85 c0                	test   %eax,%eax
    311b:	74 0b                	je     3128 <usb_device_bus_exchange_begin+0x18>
    311d:	8b 00                	mov    (%eax),%eax
    311f:	89 45 08             	mov    %eax,0x8(%ebp)
    3122:	c9                   	leave  
    3123:	e9 38 ef 00 00       	jmp    12060 <async_exchange_begin@plt>
    3128:	50                   	push   %eax
    3129:	68 3b 02 00 00       	push   $0x23b
    312e:	68 eb f8 00 00       	push   $0xf8eb
    3133:	68 f8 f8 00 00       	push   $0xf8f8
    3138:	e8 33 ed 00 00       	call   11e70 <assert_abort@plt>
    313d:	8d 76 00             	lea    0x0(%esi),%esi

00003140 <usb_device_bus_exchange_end>:
    3140:	55                   	push   %ebp
    3141:	89 e5                	mov    %esp,%ebp
    3143:	5d                   	pop    %ebp
    3144:	e9 17 ed 00 00       	jmp    11e60 <async_exchange_end@plt>
    3149:	8d b4 26 00 00 00 00 	lea    0x0(%esi,%eiz,1),%esi

00003150 <usb_device_data_alloc>:
    3150:	55                   	push   %ebp
    3151:	89 e5                	mov    %esp,%ebp
    3153:	53                   	push   %ebx
    3154:	50                   	push   %eax
    3155:	8b 5d 08             	mov    0x8(%ebp),%ebx
    3158:	85 db                	test   %ebx,%ebx
    315a:	74 1c                	je     3178 <usb_device_data_alloc+0x28>
    315c:	8b 43 5c             	mov    0x5c(%ebx),%eax
    315f:	85 c0                	test   %eax,%eax
    3161:	75 2a                	jne    318d <usb_device_data_alloc+0x3d>
    3163:	8b 55 0c             	mov    0xc(%ebp),%edx
    3166:	50                   	push   %eax
    3167:	50                   	push   %eax
    3168:	52                   	push   %edx
    3169:	6a 01                	push   $0x1
    316b:	e8 20 ed 00 00       	call   11e90 <calloc@plt>
    3170:	89 43 5c             	mov    %eax,0x5c(%ebx)
    3173:	8b 5d fc             	mov    -0x4(%ebp),%ebx
    3176:	c9                   	leave  
    3177:	c3                   	ret    
    3178:	50                   	push   %eax
    3179:	68 4b 02 00 00       	push   $0x24b
    317e:	68 eb f8 00 00       	push   $0xf8eb
    3183:	68 f8 f8 00 00       	push   $0xf8f8
    3188:	e8 e3 ec 00 00       	call   11e70 <assert_abort@plt>
    318d:	51                   	push   %ecx
    318e:	68 4c 02 00 00       	push   $0x24c
    3193:	68 eb f8 00 00       	push   $0xf8eb
    3198:	68 95 f9 00 00       	push   $0xf995
    319d:	e8 ce ec 00 00       	call   11e70 <assert_abort@plt>
    31a2:	8d b4 26 00 00 00 00 	lea    0x0(%esi,%eiz,1),%esi
    31a9:	8d bc 27 00 00 00 00 	lea    0x0(%edi,%eiz,1),%edi

000031b0 <usb_device_data_get>:
    31b0:	55                   	push   %ebp
    31b1:	89 e5                	mov    %esp,%ebp
    31b3:	83 ec 08             	sub    $0x8,%esp
    31b6:	8b 45 08             	mov    0x8(%ebp),%eax
    31b9:	85 c0                	test   %eax,%eax
    31bb:	74 05                	je     31c2 <usb_device_data_get+0x12>
    31bd:	8b 40 5c             	mov    0x5c(%eax),%eax
    31c0:	c9                   	leave  
    31c1:	c3                   	ret    
    31c2:	50                   	push   %eax
    31c3:	68 53 02 00 00       	push   $0x253
    31c8:	68 eb f8 00 00       	push   $0xf8eb
    31cd:	68 f8 f8 00 00       	push   $0xf8f8
    31d2:	e8 99 ec 00 00       	call   11e70 <assert_abort@plt>
    31d7:	66 90                	xchg   %ax,%ax
    31d9:	66 90                	xchg   %ax,%ax
    31db:	66 90                	xchg   %ax,%ax
    31dd:	66 90                	xchg   %ax,%ax
    31df:	90                   	nop

000031e0 <usb_dp_get_nested_descriptor>:
    31e0:	55                   	push   %ebp
    31e1:	89 e5                	mov    %esp,%ebp
    31e3:	57                   	push   %edi
    31e4:	56                   	push   %esi
    31e5:	53                   	push   %ebx
    31e6:	8b 55 10             	mov    0x10(%ebp),%edx
    31e9:	8b 5d 0c             	mov    0xc(%ebp),%ebx
    31ec:	85 d2                	test   %edx,%edx
    31ee:	0f 84 9c 00 00 00    	je     3290 <usb_dp_get_nested_descriptor+0xb0>
    31f4:	8b 0b                	mov    (%ebx),%ecx
    31f6:	31 c0                	xor    %eax,%eax
    31f8:	39 ca                	cmp    %ecx,%edx
    31fa:	0f 82 88 00 00 00    	jb     3288 <usb_dp_get_nested_descriptor+0xa8>
    3200:	89 d6                	mov    %edx,%esi
    3202:	8b 5b 04             	mov    0x4(%ebx),%ebx
    3205:	29 ce                	sub    %ecx,%esi
    3207:	39 de                	cmp    %ebx,%esi
    3209:	73 7d                	jae    3288 <usb_dp_get_nested_descriptor+0xa8>
    320b:	31 c0                	xor    %eax,%eax
    320d:	8a 02                	mov    (%edx),%al
    320f:	01 d0                	add    %edx,%eax
    3211:	74 75                	je     3288 <usb_dp_get_nested_descriptor+0xa8>
    3213:	39 c1                	cmp    %eax,%ecx
    3215:	77 79                	ja     3290 <usb_dp_get_nested_descriptor+0xb0>
    3217:	89 c6                	mov    %eax,%esi
    3219:	29 ce                	sub    %ecx,%esi
    321b:	39 f3                	cmp    %esi,%ebx
    321d:	76 71                	jbe    3290 <usb_dp_get_nested_descriptor+0xb0>
    321f:	89 d7                	mov    %edx,%edi
    3221:	47                   	inc    %edi
    3222:	0f 84 8c 00 00 00    	je     32b4 <usb_dp_get_nested_descriptor+0xd4>
    3228:	83 ce ff             	or     $0xffffffff,%esi
    322b:	39 f9                	cmp    %edi,%ecx
    322d:	77 09                	ja     3238 <usb_dp_get_nested_descriptor+0x58>
    322f:	29 cf                	sub    %ecx,%edi
    3231:	39 fb                	cmp    %edi,%ebx
    3233:	77 63                	ja     3298 <usb_dp_get_nested_descriptor+0xb8>
    3235:	8d 76 00             	lea    0x0(%esi),%esi
    3238:	89 c2                	mov    %eax,%edx
    323a:	83 cf ff             	or     $0xffffffff,%edi
    323d:	42                   	inc    %edx
    323e:	74 10                	je     3250 <usb_dp_get_nested_descriptor+0x70>
    3240:	39 d1                	cmp    %edx,%ecx
    3242:	77 0c                	ja     3250 <usb_dp_get_nested_descriptor+0x70>
    3244:	29 ca                	sub    %ecx,%edx
    3246:	39 d3                	cmp    %edx,%ebx
    3248:	77 5e                	ja     32a8 <usb_dp_get_nested_descriptor+0xc8>
    324a:	8d b6 00 00 00 00    	lea    0x0(%esi),%esi
    3250:	8b 55 08             	mov    0x8(%ebp),%edx
    3253:	8b 12                	mov    (%edx),%edx
    3255:	8b 0a                	mov    (%edx),%ecx
    3257:	85 c9                	test   %ecx,%ecx
    3259:	7e 35                	jle    3290 <usb_dp_get_nested_descriptor+0xb0>
    325b:	8b 5a 04             	mov    0x4(%edx),%ebx
    325e:	85 db                	test   %ebx,%ebx
    3260:	7e 2e                	jle    3290 <usb_dp_get_nested_descriptor+0xb0>
    3262:	39 cf                	cmp    %ecx,%edi
    3264:	75 0a                	jne    3270 <usb_dp_get_nested_descriptor+0x90>
    3266:	39 de                	cmp    %ebx,%esi
    3268:	74 1e                	je     3288 <usb_dp_get_nested_descriptor+0xa8>
    326a:	8d b6 00 00 00 00    	lea    0x0(%esi),%esi
    3270:	83 c2 08             	add    $0x8,%edx
    3273:	8b 0a                	mov    (%edx),%ecx
    3275:	85 c9                	test   %ecx,%ecx
    3277:	7e 17                	jle    3290 <usb_dp_get_nested_descriptor+0xb0>
    3279:	8b 5a 04             	mov    0x4(%edx),%ebx
    327c:	85 db                	test   %ebx,%ebx
    327e:	7e 10                	jle    3290 <usb_dp_get_nested_descriptor+0xb0>
    3280:	39 f9                	cmp    %edi,%ecx
    3282:	75 ec                	jne    3270 <usb_dp_get_nested_descriptor+0x90>
    3284:	39 f3                	cmp    %esi,%ebx
    3286:	75 e8                	jne    3270 <usb_dp_get_nested_descriptor+0x90>
    3288:	5b                   	pop    %ebx
    3289:	5e                   	pop    %esi
    328a:	5f                   	pop    %edi
    328b:	5d                   	pop    %ebp
    328c:	c3                   	ret    
    328d:	8d 76 00             	lea    0x0(%esi),%esi
    3290:	5b                   	pop    %ebx
    3291:	31 c0                	xor    %eax,%eax
    3293:	5e                   	pop    %esi
    3294:	5f                   	pop    %edi
    3295:	5d                   	pop    %ebp
    3296:	c3                   	ret    
    3297:	90                   	nop
    3298:	0f b6 72 01          	movzbl 0x1(%edx),%esi
    329c:	81 e6 ff 00 00 00    	and    $0xff,%esi
    32a2:	eb 94                	jmp    3238 <usb_dp_get_nested_descriptor+0x58>
    32a4:	8d 74 26 00          	lea    0x0(%esi,%eiz,1),%esi
    32a8:	0f b6 78 01          	movzbl 0x1(%eax),%edi
    32ac:	81 e7 ff 00 00 00    	and    $0xff,%edi
    32b2:	eb 9c                	jmp    3250 <usb_dp_get_nested_descriptor+0x70>
    32b4:	83 ce ff             	or     $0xffffffff,%esi
    32b7:	e9 7c ff ff ff       	jmp    3238 <usb_dp_get_nested_descriptor+0x58>
    32bc:	8d 74 26 00          	lea    0x0(%esi,%eiz,1),%esi

000032c0 <skip_nested_descriptors>:
    32c0:	55                   	push   %ebp
    32c1:	89 e5                	mov    %esp,%ebp
    32c3:	57                   	push   %edi
    32c4:	56                   	push   %esi
    32c5:	53                   	push   %ebx
    32c6:	83 ec 2c             	sub    $0x2c,%esp
    32c9:	89 d7                	mov    %edx,%edi
    32cb:	89 45 d4             	mov    %eax,-0x2c(%ebp)
    32ce:	89 4d e0             	mov    %ecx,-0x20(%ebp)
    32d1:	51                   	push   %ecx
    32d2:	52                   	push   %edx
    32d3:	50                   	push   %eax
    32d4:	e8 07 ff ff ff       	call   31e0 <usb_dp_get_nested_descriptor>
    32d9:	83 c4 0c             	add    $0xc,%esp
    32dc:	85 c0                	test   %eax,%eax
    32de:	0f 84 e6 00 00 00    	je     33ca <skip_nested_descriptors+0x10a>
    32e4:	8b 75 d4             	mov    -0x2c(%ebp),%esi
    32e7:	89 c1                	mov    %eax,%ecx
    32e9:	89 fa                	mov    %edi,%edx
    32eb:	89 f0                	mov    %esi,%eax
    32ed:	e8 ce ff ff ff       	call   32c0 <skip_nested_descriptors>
    32f2:	8b 0e                	mov    (%esi),%ecx
    32f4:	89 4d dc             	mov    %ecx,-0x24(%ebp)
    32f7:	8b 09                	mov    (%ecx),%ecx
    32f9:	89 4d d8             	mov    %ecx,-0x28(%ebp)
    32fc:	8b 4d e0             	mov    -0x20(%ebp),%ecx
    32ff:	41                   	inc    %ecx
    3300:	8b 55 e0             	mov    -0x20(%ebp),%edx
    3303:	89 4d d0             	mov    %ecx,-0x30(%ebp)
    3306:	85 d2                	test   %edx,%edx
    3308:	0f 84 9a 00 00 00    	je     33a8 <skip_nested_descriptors+0xe8>
    330e:	66 90                	xchg   %ax,%ax
    3310:	8b 4d d0             	mov    -0x30(%ebp),%ecx
    3313:	85 c9                	test   %ecx,%ecx
    3315:	0f 84 8d 00 00 00    	je     33a8 <skip_nested_descriptors+0xe8>
    331b:	8b 17                	mov    (%edi),%edx
    331d:	c7 45 e4 ff ff ff ff 	movl   $0xffffffff,-0x1c(%ebp)
    3324:	39 d1                	cmp    %edx,%ecx
    3326:	72 12                	jb     333a <skip_nested_descriptors+0x7a>
    3328:	29 d1                	sub    %edx,%ecx
    332a:	3b 4f 04             	cmp    0x4(%edi),%ecx
    332d:	73 0b                	jae    333a <skip_nested_descriptors+0x7a>
    332f:	8b 75 e0             	mov    -0x20(%ebp),%esi
    3332:	31 c9                	xor    %ecx,%ecx
    3334:	8a 4e 01             	mov    0x1(%esi),%cl
    3337:	89 4d e4             	mov    %ecx,-0x1c(%ebp)
    333a:	85 c0                	test   %eax,%eax
    333c:	74 7a                	je     33b8 <skip_nested_descriptors+0xf8>
    333e:	89 c2                	mov    %eax,%edx
    3340:	42                   	inc    %edx
    3341:	74 75                	je     33b8 <skip_nested_descriptors+0xf8>
    3343:	8b 1f                	mov    (%edi),%ebx
    3345:	83 c9 ff             	or     $0xffffffff,%ecx
    3348:	39 da                	cmp    %ebx,%edx
    334a:	72 0c                	jb     3358 <skip_nested_descriptors+0x98>
    334c:	29 da                	sub    %ebx,%edx
    334e:	3b 57 04             	cmp    0x4(%edi),%edx
    3351:	73 05                	jae    3358 <skip_nested_descriptors+0x98>
    3353:	31 c9                	xor    %ecx,%ecx
    3355:	8a 48 01             	mov    0x1(%eax),%cl
    3358:	8b 75 d8             	mov    -0x28(%ebp),%esi
    335b:	85 f6                	test   %esi,%esi
    335d:	7e 63                	jle    33c2 <skip_nested_descriptors+0x102>
    335f:	8b 5d dc             	mov    -0x24(%ebp),%ebx
    3362:	8b 53 04             	mov    0x4(%ebx),%edx
    3365:	85 d2                	test   %edx,%edx
    3367:	7e 59                	jle    33c2 <skip_nested_descriptors+0x102>
    3369:	39 ce                	cmp    %ecx,%esi
    336b:	75 05                	jne    3372 <skip_nested_descriptors+0xb2>
    336d:	39 55 e4             	cmp    %edx,-0x1c(%ebp)
    3370:	74 1f                	je     3391 <skip_nested_descriptors+0xd1>
    3372:	8b 55 dc             	mov    -0x24(%ebp),%edx
    3375:	8d 76 00             	lea    0x0(%esi),%esi
    3378:	83 c2 08             	add    $0x8,%edx
    337b:	8b 1a                	mov    (%edx),%ebx
    337d:	85 db                	test   %ebx,%ebx
    337f:	7e 41                	jle    33c2 <skip_nested_descriptors+0x102>
    3381:	8b 72 04             	mov    0x4(%edx),%esi
    3384:	85 f6                	test   %esi,%esi
    3386:	7e 3a                	jle    33c2 <skip_nested_descriptors+0x102>
    3388:	39 cb                	cmp    %ecx,%ebx
    338a:	75 ec                	jne    3378 <skip_nested_descriptors+0xb8>
    338c:	3b 75 e4             	cmp    -0x1c(%ebp),%esi
    338f:	75 e7                	jne    3378 <skip_nested_descriptors+0xb8>
    3391:	89 c1                	mov    %eax,%ecx
    3393:	89 fa                	mov    %edi,%edx
    3395:	8b 45 d4             	mov    -0x2c(%ebp),%eax
    3398:	e8 23 ff ff ff       	call   32c0 <skip_nested_descriptors>
    339d:	8b 55 e0             	mov    -0x20(%ebp),%edx
    33a0:	85 d2                	test   %edx,%edx
    33a2:	0f 85 68 ff ff ff    	jne    3310 <skip_nested_descriptors+0x50>
    33a8:	c7 45 e4 ff ff ff ff 	movl   $0xffffffff,-0x1c(%ebp)
    33af:	85 c0                	test   %eax,%eax
    33b1:	75 8b                	jne    333e <skip_nested_descriptors+0x7e>
    33b3:	90                   	nop
    33b4:	8d 74 26 00          	lea    0x0(%esi,%eiz,1),%esi
    33b8:	8b 75 d8             	mov    -0x28(%ebp),%esi
    33bb:	83 c9 ff             	or     $0xffffffff,%ecx
    33be:	85 f6                	test   %esi,%esi
    33c0:	7f 9d                	jg     335f <skip_nested_descriptors+0x9f>
    33c2:	8d 65 f4             	lea    -0xc(%ebp),%esp
    33c5:	5b                   	pop    %ebx
    33c6:	5e                   	pop    %esi
    33c7:	5f                   	pop    %edi
    33c8:	5d                   	pop    %ebp
    33c9:	c3                   	ret    
    33ca:	8b 75 e0             	mov    -0x20(%ebp),%esi
    33cd:	85 f6                	test   %esi,%esi
    33cf:	74 29                	je     33fa <skip_nested_descriptors+0x13a>
    33d1:	8b 0f                	mov    (%edi),%ecx
    33d3:	39 ce                	cmp    %ecx,%esi
    33d5:	72 23                	jb     33fa <skip_nested_descriptors+0x13a>
    33d7:	89 f2                	mov    %esi,%edx
    33d9:	8b 5f 04             	mov    0x4(%edi),%ebx
    33dc:	29 ca                	sub    %ecx,%edx
    33de:	39 da                	cmp    %ebx,%edx
    33e0:	73 18                	jae    33fa <skip_nested_descriptors+0x13a>
    33e2:	31 d2                	xor    %edx,%edx
    33e4:	8a 16                	mov    (%esi),%dl
    33e6:	01 f2                	add    %esi,%edx
    33e8:	74 d8                	je     33c2 <skip_nested_descriptors+0x102>
    33ea:	39 d1                	cmp    %edx,%ecx
    33ec:	77 d4                	ja     33c2 <skip_nested_descriptors+0x102>
    33ee:	89 d7                	mov    %edx,%edi
    33f0:	29 cf                	sub    %ecx,%edi
    33f2:	39 fb                	cmp    %edi,%ebx
    33f4:	76 cc                	jbe    33c2 <skip_nested_descriptors+0x102>
    33f6:	89 d0                	mov    %edx,%eax
    33f8:	eb c8                	jmp    33c2 <skip_nested_descriptors+0x102>
    33fa:	50                   	push   %eax
    33fb:	6a 6a                	push   $0x6a
    33fd:	68 75 fa 00 00       	push   $0xfa75
    3402:	68 80 fa 00 00       	push   $0xfa80
    3407:	e8 64 ea 00 00       	call   11e70 <assert_abort@plt>
    340c:	8d 74 26 00          	lea    0x0(%esi,%eiz,1),%esi

00003410 <usb_dp_browse_simple_internal>:
    3410:	55                   	push   %ebp
    3411:	89 e5                	mov    %esp,%ebp
    3413:	57                   	push   %edi
    3414:	56                   	push   %esi
    3415:	53                   	push   %ebx
    3416:	83 ec 2c             	sub    $0x2c,%esp
    3419:	85 c9                	test   %ecx,%ecx
    341b:	8b 75 08             	mov    0x8(%ebp),%esi
    341e:	74 5e                	je     347e <usb_dp_browse_simple_internal+0x6e>
    3420:	89 45 e4             	mov    %eax,-0x1c(%ebp)
    3423:	50                   	push   %eax
    3424:	8b 45 10             	mov    0x10(%ebp),%eax
    3427:	89 cf                	mov    %ecx,%edi
    3429:	50                   	push   %eax
    342a:	56                   	push   %esi
    342b:	51                   	push   %ecx
    342c:	89 d3                	mov    %edx,%ebx
    342e:	89 4d d8             	mov    %ecx,-0x28(%ebp)
    3431:	ff 55 0c             	call   *0xc(%ebp)
    3434:	83 c4 0c             	add    $0xc,%esp
    3437:	8b 45 e4             	mov    -0x1c(%ebp),%eax
    343a:	89 5d e0             	mov    %ebx,-0x20(%ebp)
    343d:	57                   	push   %edi
    343e:	53                   	push   %ebx
    343f:	50                   	push   %eax
    3440:	e8 9b fd ff ff       	call   31e0 <usb_dp_get_nested_descriptor>
    3445:	89 c3                	mov    %eax,%ebx
    3447:	8d 46 01             	lea    0x1(%esi),%eax
    344a:	89 45 d4             	mov    %eax,-0x2c(%ebp)
    344d:	89 f8                	mov    %edi,%eax
    344f:	40                   	inc    %eax
    3450:	83 c4 10             	add    $0x10,%esp
    3453:	89 45 d0             	mov    %eax,-0x30(%ebp)
    3456:	8b 7d e0             	mov    -0x20(%ebp),%edi
    3459:	8b 55 10             	mov    0x10(%ebp),%edx
    345c:	8b 4d 0c             	mov    0xc(%ebp),%ecx
    345f:	8b 75 d4             	mov    -0x2c(%ebp),%esi
    3462:	50                   	push   %eax
    3463:	8b 45 e4             	mov    -0x1c(%ebp),%eax
    3466:	52                   	push   %edx
    3467:	89 fa                	mov    %edi,%edx
    3469:	51                   	push   %ecx
    346a:	89 d9                	mov    %ebx,%ecx
    346c:	56                   	push   %esi
    346d:	e8 9e ff ff ff       	call   3410 <usb_dp_browse_simple_internal>
    3472:	8b 37                	mov    (%edi),%esi
    3474:	8b 45 d8             	mov    -0x28(%ebp),%eax
    3477:	83 c4 10             	add    $0x10,%esp
    347a:	39 f0                	cmp    %esi,%eax
    347c:	73 0a                	jae    3488 <usb_dp_browse_simple_internal+0x78>
    347e:	8d 65 f4             	lea    -0xc(%ebp),%esp
    3481:	5b                   	pop    %ebx
    3482:	5e                   	pop    %esi
    3483:	5f                   	pop    %edi
    3484:	5d                   	pop    %ebp
    3485:	c3                   	ret    
    3486:	66 90                	xchg   %ax,%ax
    3488:	8b 4f 04             	mov    0x4(%edi),%ecx
    348b:	29 f0                	sub    %esi,%eax
    348d:	89 4d dc             	mov    %ecx,-0x24(%ebp)
    3490:	39 c8                	cmp    %ecx,%eax
    3492:	73 ea                	jae    347e <usb_dp_browse_simple_internal+0x6e>
    3494:	85 db                	test   %ebx,%ebx
    3496:	74 e6                	je     347e <usb_dp_browse_simple_internal+0x6e>
    3498:	39 f3                	cmp    %esi,%ebx
    349a:	72 e2                	jb     347e <usb_dp_browse_simple_internal+0x6e>
    349c:	89 d8                	mov    %ebx,%eax
    349e:	29 f0                	sub    %esi,%eax
    34a0:	39 c1                	cmp    %eax,%ecx
    34a2:	76 da                	jbe    347e <usb_dp_browse_simple_internal+0x6e>
    34a4:	89 d9                	mov    %ebx,%ecx
    34a6:	89 fa                	mov    %edi,%edx
    34a8:	8b 45 e4             	mov    -0x1c(%ebp),%eax
    34ab:	e8 10 fe ff ff       	call   32c0 <skip_nested_descriptors>
    34b0:	89 c3                	mov    %eax,%ebx
    34b2:	85 c0                	test   %eax,%eax
    34b4:	74 c8                	je     347e <usb_dp_browse_simple_internal+0x6e>
    34b6:	8b 45 d0             	mov    -0x30(%ebp),%eax
    34b9:	c7 45 e0 ff ff ff ff 	movl   $0xffffffff,-0x20(%ebp)
    34c0:	85 c0                	test   %eax,%eax
    34c2:	74 16                	je     34da <usb_dp_browse_simple_internal+0xca>
    34c4:	39 c6                	cmp    %eax,%esi
    34c6:	77 12                	ja     34da <usb_dp_browse_simple_internal+0xca>
    34c8:	29 f0                	sub    %esi,%eax
    34ca:	39 45 dc             	cmp    %eax,-0x24(%ebp)
    34cd:	76 0b                	jbe    34da <usb_dp_browse_simple_internal+0xca>
    34cf:	8b 4d d8             	mov    -0x28(%ebp),%ecx
    34d2:	31 c0                	xor    %eax,%eax
    34d4:	8a 41 01             	mov    0x1(%ecx),%al
    34d7:	89 45 e0             	mov    %eax,-0x20(%ebp)
    34da:	89 d8                	mov    %ebx,%eax
    34dc:	83 c9 ff             	or     $0xffffffff,%ecx
    34df:	40                   	inc    %eax
    34e0:	74 10                	je     34f2 <usb_dp_browse_simple_internal+0xe2>
    34e2:	39 c6                	cmp    %eax,%esi
    34e4:	77 0c                	ja     34f2 <usb_dp_browse_simple_internal+0xe2>
    34e6:	29 f0                	sub    %esi,%eax
    34e8:	39 45 dc             	cmp    %eax,-0x24(%ebp)
    34eb:	76 05                	jbe    34f2 <usb_dp_browse_simple_internal+0xe2>
    34ed:	31 c9                	xor    %ecx,%ecx
    34ef:	8a 4b 01             	mov    0x1(%ebx),%cl
    34f2:	8b 45 e4             	mov    -0x1c(%ebp),%eax
    34f5:	8b 00                	mov    (%eax),%eax
    34f7:	8b 10                	mov    (%eax),%edx
    34f9:	85 d2                	test   %edx,%edx
    34fb:	7e 81                	jle    347e <usb_dp_browse_simple_internal+0x6e>
    34fd:	8b 70 04             	mov    0x4(%eax),%esi
    3500:	85 f6                	test   %esi,%esi
    3502:	0f 8e 76 ff ff ff    	jle    347e <usb_dp_browse_simple_internal+0x6e>
    3508:	39 ca                	cmp    %ecx,%edx
    350a:	75 0c                	jne    3518 <usb_dp_browse_simple_internal+0x108>
    350c:	39 75 e0             	cmp    %esi,-0x20(%ebp)
    350f:	0f 84 44 ff ff ff    	je     3459 <usb_dp_browse_simple_internal+0x49>
    3515:	8d 76 00             	lea    0x0(%esi),%esi
    3518:	83 c0 08             	add    $0x8,%eax
    351b:	8b 10                	mov    (%eax),%edx
    351d:	85 d2                	test   %edx,%edx
    351f:	0f 8e 59 ff ff ff    	jle    347e <usb_dp_browse_simple_internal+0x6e>
    3525:	8b 70 04             	mov    0x4(%eax),%esi
    3528:	85 f6                	test   %esi,%esi
    352a:	0f 8e 4e ff ff ff    	jle    347e <usb_dp_browse_simple_internal+0x6e>
    3530:	39 ca                	cmp    %ecx,%edx
    3532:	75 e4                	jne    3518 <usb_dp_browse_simple_internal+0x108>
    3534:	3b 75 e0             	cmp    -0x20(%ebp),%esi
    3537:	75 df                	jne    3518 <usb_dp_browse_simple_internal+0x108>
    3539:	e9 1b ff ff ff       	jmp    3459 <usb_dp_browse_simple_internal+0x49>
    353e:	66 90                	xchg   %ax,%ax

00003540 <usb_dp_get_sibling_descriptor>:
    3540:	55                   	push   %ebp
    3541:	89 e5                	mov    %esp,%ebp
    3543:	57                   	push   %edi
    3544:	56                   	push   %esi
    3545:	53                   	push   %ebx
    3546:	83 ec 0c             	sub    $0xc,%esp
    3549:	8b 7d 10             	mov    0x10(%ebp),%edi
    354c:	8b 4d 14             	mov    0x14(%ebp),%ecx
    354f:	85 ff                	test   %edi,%edi
    3551:	74 2d                	je     3580 <usb_dp_get_sibling_descriptor+0x40>
    3553:	8b 45 0c             	mov    0xc(%ebp),%eax
    3556:	8b 18                	mov    (%eax),%ebx
    3558:	31 c0                	xor    %eax,%eax
    355a:	39 df                	cmp    %ebx,%edi
    355c:	72 16                	jb     3574 <usb_dp_get_sibling_descriptor+0x34>
    355e:	8b 55 0c             	mov    0xc(%ebp),%edx
    3561:	8b 72 04             	mov    0x4(%edx),%esi
    3564:	89 fa                	mov    %edi,%edx
    3566:	29 da                	sub    %ebx,%edx
    3568:	39 d6                	cmp    %edx,%esi
    356a:	76 14                	jbe    3580 <usb_dp_get_sibling_descriptor+0x40>
    356c:	85 c9                	test   %ecx,%ecx
    356e:	74 10                	je     3580 <usb_dp_get_sibling_descriptor+0x40>
    3570:	39 d9                	cmp    %ebx,%ecx
    3572:	73 1c                	jae    3590 <usb_dp_get_sibling_descriptor+0x50>
    3574:	83 c4 0c             	add    $0xc,%esp
    3577:	5b                   	pop    %ebx
    3578:	5e                   	pop    %esi
    3579:	5f                   	pop    %edi
    357a:	5d                   	pop    %ebp
    357b:	c3                   	ret    
    357c:	8d 74 26 00          	lea    0x0(%esi,%eiz,1),%esi
    3580:	83 c4 0c             	add    $0xc,%esp
    3583:	31 c0                	xor    %eax,%eax
    3585:	5b                   	pop    %ebx
    3586:	5e                   	pop    %esi
    3587:	5f                   	pop    %edi
    3588:	5d                   	pop    %ebp
    3589:	c3                   	ret    
    358a:	8d b6 00 00 00 00    	lea    0x0(%esi),%esi
    3590:	89 ca                	mov    %ecx,%edx
    3592:	29 da                	sub    %ebx,%edx
    3594:	39 d6                	cmp    %edx,%esi
    3596:	76 dc                	jbe    3574 <usb_dp_get_sibling_descriptor+0x34>
    3598:	8b 55 0c             	mov    0xc(%ebp),%edx
    359b:	8b 45 08             	mov    0x8(%ebp),%eax
    359e:	e8 1d fd ff ff       	call   32c0 <skip_nested_descriptors>
    35a3:	85 c0                	test   %eax,%eax
    35a5:	74 cd                	je     3574 <usb_dp_get_sibling_descriptor+0x34>
    35a7:	89 fa                	mov    %edi,%edx
    35a9:	83 c9 ff             	or     $0xffffffff,%ecx
    35ac:	42                   	inc    %edx
    35ad:	74 11                	je     35c0 <usb_dp_get_sibling_descriptor+0x80>
    35af:	39 d3                	cmp    %edx,%ebx
    35b1:	77 0d                	ja     35c0 <usb_dp_get_sibling_descriptor+0x80>
    35b3:	29 da                	sub    %ebx,%edx
    35b5:	39 d6                	cmp    %edx,%esi
    35b7:	77 6f                	ja     3628 <usb_dp_get_sibling_descriptor+0xe8>
    35b9:	8d b4 26 00 00 00 00 	lea    0x0(%esi,%eiz,1),%esi
    35c0:	89 c7                	mov    %eax,%edi
    35c2:	83 ca ff             	or     $0xffffffff,%edx
    35c5:	47                   	inc    %edi
    35c6:	74 10                	je     35d8 <usb_dp_get_sibling_descriptor+0x98>
    35c8:	39 fb                	cmp    %edi,%ebx
    35ca:	77 0c                	ja     35d8 <usb_dp_get_sibling_descriptor+0x98>
    35cc:	29 df                	sub    %ebx,%edi
    35ce:	39 fe                	cmp    %edi,%esi
    35d0:	77 4e                	ja     3620 <usb_dp_get_sibling_descriptor+0xe0>
    35d2:	8d b6 00 00 00 00    	lea    0x0(%esi),%esi
    35d8:	8b 75 08             	mov    0x8(%ebp),%esi
    35db:	8b 1e                	mov    (%esi),%ebx
    35dd:	8b 33                	mov    (%ebx),%esi
    35df:	85 f6                	test   %esi,%esi
    35e1:	7e 9d                	jle    3580 <usb_dp_get_sibling_descriptor+0x40>
    35e3:	8b 7b 04             	mov    0x4(%ebx),%edi
    35e6:	85 ff                	test   %edi,%edi
    35e8:	7e 96                	jle    3580 <usb_dp_get_sibling_descriptor+0x40>
    35ea:	39 f2                	cmp    %esi,%edx
    35ec:	75 0a                	jne    35f8 <usb_dp_get_sibling_descriptor+0xb8>
    35ee:	39 f9                	cmp    %edi,%ecx
    35f0:	74 82                	je     3574 <usb_dp_get_sibling_descriptor+0x34>
    35f2:	8d b6 00 00 00 00    	lea    0x0(%esi),%esi
    35f8:	83 c3 08             	add    $0x8,%ebx
    35fb:	8b 33                	mov    (%ebx),%esi
    35fd:	85 f6                	test   %esi,%esi
    35ff:	0f 8e 7b ff ff ff    	jle    3580 <usb_dp_get_sibling_descriptor+0x40>
    3605:	8b 7b 04             	mov    0x4(%ebx),%edi
    3608:	85 ff                	test   %edi,%edi
    360a:	0f 8e 70 ff ff ff    	jle    3580 <usb_dp_get_sibling_descriptor+0x40>
    3610:	39 d6                	cmp    %edx,%esi
    3612:	75 e4                	jne    35f8 <usb_dp_get_sibling_descriptor+0xb8>
    3614:	39 cf                	cmp    %ecx,%edi
    3616:	75 e0                	jne    35f8 <usb_dp_get_sibling_descriptor+0xb8>
    3618:	e9 57 ff ff ff       	jmp    3574 <usb_dp_get_sibling_descriptor+0x34>
    361d:	8d 76 00             	lea    0x0(%esi),%esi
    3620:	31 d2                	xor    %edx,%edx
    3622:	8a 50 01             	mov    0x1(%eax),%dl
    3625:	eb b1                	jmp    35d8 <usb_dp_get_sibling_descriptor+0x98>
    3627:	90                   	nop
    3628:	31 c9                	xor    %ecx,%ecx
    362a:	8a 4f 01             	mov    0x1(%edi),%cl
    362d:	eb 91                	jmp    35c0 <usb_dp_get_sibling_descriptor+0x80>
    362f:	90                   	nop

00003630 <usb_dp_walk_simple>:
    3630:	55                   	push   %ebp
    3631:	89 e5                	mov    %esp,%ebp
    3633:	83 ec 18             	sub    $0x18,%esp
    3636:	8b 4d 08             	mov    0x8(%ebp),%ecx
    3639:	85 c9                	test   %ecx,%ecx
    363b:	74 15                	je     3652 <usb_dp_walk_simple+0x22>
    363d:	8b 45 0c             	mov    0xc(%ebp),%eax
    3640:	85 c0                	test   %eax,%eax
    3642:	74 0e                	je     3652 <usb_dp_walk_simple+0x22>
    3644:	8b 45 10             	mov    0x10(%ebp),%eax
    3647:	85 c0                	test   %eax,%eax
    3649:	74 07                	je     3652 <usb_dp_walk_simple+0x22>
    364b:	8b 45 14             	mov    0x14(%ebp),%eax
    364e:	85 c0                	test   %eax,%eax
    3650:	75 06                	jne    3658 <usb_dp_walk_simple+0x28>
    3652:	c9                   	leave  
    3653:	c3                   	ret    
    3654:	8d 74 26 00          	lea    0x0(%esi,%eiz,1),%esi
    3658:	8b 45 0c             	mov    0xc(%ebp),%eax
    365b:	8b 55 18             	mov    0x18(%ebp),%edx
    365e:	89 45 f0             	mov    %eax,-0x10(%ebp)
    3661:	8b 45 10             	mov    0x10(%ebp),%eax
    3664:	89 45 e8             	mov    %eax,-0x18(%ebp)
    3667:	50                   	push   %eax
    3668:	8b 45 14             	mov    0x14(%ebp),%eax
    366b:	52                   	push   %edx
    366c:	8d 55 ec             	lea    -0x14(%ebp),%edx
    366f:	50                   	push   %eax
    3670:	8d 45 e8             	lea    -0x18(%ebp),%eax
    3673:	6a 00                	push   $0x0
    3675:	89 4d ec             	mov    %ecx,-0x14(%ebp)
    3678:	c7 45 f4 00 00 00 00 	movl   $0x0,-0xc(%ebp)
    367f:	e8 8c fd ff ff       	call   3410 <usb_dp_browse_simple_internal>
    3684:	83 c4 10             	add    $0x10,%esp
    3687:	c9                   	leave  
    3688:	c3                   	ret    
    3689:	66 90                	xchg   %ax,%ax
    368b:	66 90                	xchg   %ax,%ax
    368d:	66 90                	xchg   %ax,%ax
    368f:	90                   	nop

00003690 <usb_pipe_control_read>:
    3690:	55                   	push   %ebp
    3691:	89 e5                	mov    %esp,%ebp
    3693:	57                   	push   %edi
    3694:	56                   	push   %esi
    3695:	53                   	push   %ebx
    3696:	83 ec 2c             	sub    $0x2c,%esp
    3699:	8b 5d 08             	mov    0x8(%ebp),%ebx
    369c:	8b 45 0c             	mov    0xc(%ebp),%eax
    369f:	8b 75 14             	mov    0x14(%ebp),%esi
    36a2:	85 db                	test   %ebx,%ebx
    36a4:	0f 84 f5 00 00 00    	je     379f <usb_pipe_control_read+0x10f>
    36aa:	85 c0                	test   %eax,%eax
    36ac:	0f 84 ce 00 00 00    	je     3780 <usb_pipe_control_read+0xf0>
    36b2:	83 7d 10 08          	cmpl   $0x8,0x10(%ebp)
    36b6:	0f 85 c4 00 00 00    	jne    3780 <usb_pipe_control_read+0xf0>
    36bc:	85 f6                	test   %esi,%esi
    36be:	0f 84 bc 00 00 00    	je     3780 <usb_pipe_control_read+0xf0>
    36c4:	8b 4d 18             	mov    0x18(%ebp),%ecx
    36c7:	85 c9                	test   %ecx,%ecx
    36c9:	0f 84 b1 00 00 00    	je     3780 <usb_pipe_control_read+0xf0>
    36cf:	83 7b 08 02          	cmpl   $0x2,0x8(%ebx)
    36d3:	75 7b                	jne    3750 <usb_pipe_control_read+0xc0>
    36d5:	8b 53 04             	mov    0x4(%ebx),%edx
    36d8:	85 d2                	test   %edx,%edx
    36da:	75 74                	jne    3750 <usb_pipe_control_read+0xc0>
    36dc:	57                   	push   %edi
    36dd:	6a 08                	push   $0x8
    36df:	50                   	push   %eax
    36e0:	8d 45 e0             	lea    -0x20(%ebp),%eax
    36e3:	50                   	push   %eax
    36e4:	e8 c7 e6 00 00       	call   11db0 <memcpy@plt>
    36e9:	58                   	pop    %eax
    36ea:	8b 43 18             	mov    0x18(%ebx),%eax
    36ed:	50                   	push   %eax
    36ee:	e8 6d e9 00 00       	call   12060 <async_exchange_begin@plt>
    36f3:	83 c4 0c             	add    $0xc,%esp
    36f6:	89 c7                	mov    %eax,%edi
    36f8:	8d 45 dc             	lea    -0x24(%ebp),%eax
    36fb:	c7 45 dc 00 00 00 00 	movl   $0x0,-0x24(%ebp)
    3702:	50                   	push   %eax
    3703:	8b 45 18             	mov    0x18(%ebp),%eax
    3706:	50                   	push   %eax
    3707:	8b 45 e4             	mov    -0x1c(%ebp),%eax
    370a:	56                   	push   %esi
    370b:	50                   	push   %eax
    370c:	8b 45 e0             	mov    -0x20(%ebp),%eax
    370f:	50                   	push   %eax
    3710:	0f bf 03             	movswl (%ebx),%eax
    3713:	50                   	push   %eax
    3714:	57                   	push   %edi
    3715:	e8 a6 a0 00 00       	call   d7c0 <usb_read>
    371a:	83 c4 14             	add    $0x14,%esp
    371d:	89 45 d4             	mov    %eax,-0x2c(%ebp)
    3720:	57                   	push   %edi
    3721:	e8 3a e7 00 00       	call   11e60 <async_exchange_end@plt>
    3726:	8b 45 d4             	mov    -0x2c(%ebp),%eax
    3729:	83 c4 10             	add    $0x10,%esp
    372c:	3d d3 fe ff ff       	cmp    $0xfffffed3,%eax
    3731:	74 2d                	je     3760 <usb_pipe_control_read+0xd0>
    3733:	85 c0                	test   %eax,%eax
    3735:	75 0f                	jne    3746 <usb_pipe_control_read+0xb6>
    3737:	8b 55 1c             	mov    0x1c(%ebp),%edx
    373a:	85 d2                	test   %edx,%edx
    373c:	74 08                	je     3746 <usb_pipe_control_read+0xb6>
    373e:	8b 4d 1c             	mov    0x1c(%ebp),%ecx
    3741:	8b 55 dc             	mov    -0x24(%ebp),%edx
    3744:	89 11                	mov    %edx,(%ecx)
    3746:	8d 65 f4             	lea    -0xc(%ebp),%esp
    3749:	5b                   	pop    %ebx
    374a:	5e                   	pop    %esi
    374b:	5f                   	pop    %edi
    374c:	5d                   	pop    %ebp
    374d:	c3                   	ret    
    374e:	66 90                	xchg   %ax,%ax
    3750:	8d 65 f4             	lea    -0xc(%ebp),%esp
    3753:	b8 fa fe ff ff       	mov    $0xfffffefa,%eax
    3758:	5b                   	pop    %ebx
    3759:	5e                   	pop    %esi
    375a:	5f                   	pop    %edi
    375b:	5d                   	pop    %ebp
    375c:	c3                   	ret    
    375d:	8d 76 00             	lea    0x0(%esi),%esi
    3760:	80 7b 14 00          	cmpb   $0x0,0x14(%ebx)
    3764:	74 06                	je     376c <usb_pipe_control_read+0xdc>
    3766:	66 83 3b 00          	cmpw   $0x0,(%ebx)
    376a:	74 1c                	je     3788 <usb_pipe_control_read+0xf8>
    376c:	8d 65 f4             	lea    -0xc(%ebp),%esp
    376f:	b8 d3 fe ff ff       	mov    $0xfffffed3,%eax
    3774:	5b                   	pop    %ebx
    3775:	5e                   	pop    %esi
    3776:	5f                   	pop    %edi
    3777:	5d                   	pop    %ebp
    3778:	c3                   	ret    
    3779:	8d b4 26 00 00 00 00 	lea    0x0(%esi,%eiz,1),%esi
    3780:	b8 f2 ff ff ff       	mov    $0xfffffff2,%eax
    3785:	eb bf                	jmp    3746 <usb_pipe_control_read+0xb6>
    3787:	90                   	nop
    3788:	c6 43 14 00          	movb   $0x0,0x14(%ebx)
    378c:	51                   	push   %ecx
    378d:	51                   	push   %ecx
    378e:	6a 00                	push   $0x0
    3790:	53                   	push   %ebx
    3791:	e8 da 26 00 00       	call   5e70 <usb_request_clear_endpoint_halt>
    3796:	c6 43 14 01          	movb   $0x1,0x14(%ebx)
    379a:	83 c4 10             	add    $0x10,%esp
    379d:	eb cd                	jmp    376c <usb_pipe_control_read+0xdc>
    379f:	53                   	push   %ebx
    37a0:	6a 50                	push   $0x50
    37a2:	68 f0 fa 00 00       	push   $0xfaf0
    37a7:	68 c7 fb 00 00       	push   $0xfbc7
    37ac:	e8 bf e6 00 00       	call   11e70 <assert_abort@plt>
    37b1:	eb 0d                	jmp    37c0 <usb_pipe_control_write>
    37b3:	90                   	nop
    37b4:	90                   	nop
    37b5:	90                   	nop
    37b6:	90                   	nop
    37b7:	90                   	nop
    37b8:	90                   	nop
    37b9:	90                   	nop
    37ba:	90                   	nop
    37bb:	90                   	nop
    37bc:	90                   	nop
    37bd:	90                   	nop
    37be:	90                   	nop
    37bf:	90                   	nop

000037c0 <usb_pipe_control_write>:
    37c0:	55                   	push   %ebp
    37c1:	89 e5                	mov    %esp,%ebp
    37c3:	57                   	push   %edi
    37c4:	56                   	push   %esi
    37c5:	53                   	push   %ebx
    37c6:	83 ec 1c             	sub    $0x1c,%esp
    37c9:	8b 5d 08             	mov    0x8(%ebp),%ebx
    37cc:	8b 45 0c             	mov    0xc(%ebp),%eax
    37cf:	8b 75 14             	mov    0x14(%ebp),%esi
    37d2:	85 db                	test   %ebx,%ebx
    37d4:	0f 84 c9 00 00 00    	je     38a3 <usb_pipe_control_write+0xe3>
    37da:	85 c0                	test   %eax,%eax
    37dc:	0f 84 7e 00 00 00    	je     3860 <usb_pipe_control_write+0xa0>
    37e2:	83 7d 10 08          	cmpl   $0x8,0x10(%ebp)
    37e6:	75 78                	jne    3860 <usb_pipe_control_write+0xa0>
    37e8:	85 f6                	test   %esi,%esi
    37ea:	75 07                	jne    37f3 <usb_pipe_control_write+0x33>
    37ec:	8b 7d 18             	mov    0x18(%ebp),%edi
    37ef:	85 ff                	test   %edi,%edi
    37f1:	75 6d                	jne    3860 <usb_pipe_control_write+0xa0>
    37f3:	85 f6                	test   %esi,%esi
    37f5:	74 07                	je     37fe <usb_pipe_control_write+0x3e>
    37f7:	8b 4d 18             	mov    0x18(%ebp),%ecx
    37fa:	85 c9                	test   %ecx,%ecx
    37fc:	74 62                	je     3860 <usb_pipe_control_write+0xa0>
    37fe:	83 7b 08 02          	cmpl   $0x2,0x8(%ebx)
    3802:	75 6c                	jne    3870 <usb_pipe_control_write+0xb0>
    3804:	8b 53 04             	mov    0x4(%ebx),%edx
    3807:	85 d2                	test   %edx,%edx
    3809:	75 65                	jne    3870 <usb_pipe_control_write+0xb0>
    380b:	52                   	push   %edx
    380c:	6a 08                	push   $0x8
    380e:	50                   	push   %eax
    380f:	8d 45 e0             	lea    -0x20(%ebp),%eax
    3812:	50                   	push   %eax
    3813:	e8 98 e5 00 00       	call   11db0 <memcpy@plt>
    3818:	8b 7b 18             	mov    0x18(%ebx),%edi
    381b:	59                   	pop    %ecx
    381c:	57                   	push   %edi
    381d:	e8 3e e8 00 00       	call   12060 <async_exchange_begin@plt>
    3822:	8b 4d 18             	mov    0x18(%ebp),%ecx
    3825:	89 c7                	mov    %eax,%edi
    3827:	58                   	pop    %eax
    3828:	8b 45 e0             	mov    -0x20(%ebp),%eax
    382b:	5a                   	pop    %edx
    382c:	51                   	push   %ecx
    382d:	56                   	push   %esi
    382e:	8b 75 e4             	mov    -0x1c(%ebp),%esi
    3831:	56                   	push   %esi
    3832:	50                   	push   %eax
    3833:	0f bf 03             	movswl (%ebx),%eax
    3836:	50                   	push   %eax
    3837:	57                   	push   %edi
    3838:	e8 73 a0 00 00       	call   d8b0 <usb_write>
    383d:	83 c4 14             	add    $0x14,%esp
    3840:	89 c6                	mov    %eax,%esi
    3842:	57                   	push   %edi
    3843:	e8 18 e6 00 00       	call   11e60 <async_exchange_end@plt>
    3848:	83 c4 10             	add    $0x10,%esp
    384b:	81 fe d3 fe ff ff    	cmp    $0xfffffed3,%esi
    3851:	74 2d                	je     3880 <usb_pipe_control_write+0xc0>
    3853:	8d 65 f4             	lea    -0xc(%ebp),%esp
    3856:	89 f0                	mov    %esi,%eax
    3858:	5b                   	pop    %ebx
    3859:	5e                   	pop    %esi
    385a:	5f                   	pop    %edi
    385b:	5d                   	pop    %ebp
    385c:	c3                   	ret    
    385d:	8d 76 00             	lea    0x0(%esi),%esi
    3860:	8d 65 f4             	lea    -0xc(%ebp),%esp
    3863:	be f2 ff ff ff       	mov    $0xfffffff2,%esi
    3868:	89 f0                	mov    %esi,%eax
    386a:	5b                   	pop    %ebx
    386b:	5e                   	pop    %esi
    386c:	5f                   	pop    %edi
    386d:	5d                   	pop    %ebp
    386e:	c3                   	ret    
    386f:	90                   	nop
    3870:	8d 65 f4             	lea    -0xc(%ebp),%esp
    3873:	be fa fe ff ff       	mov    $0xfffffefa,%esi
    3878:	89 f0                	mov    %esi,%eax
    387a:	5b                   	pop    %ebx
    387b:	5e                   	pop    %esi
    387c:	5f                   	pop    %edi
    387d:	5d                   	pop    %ebp
    387e:	c3                   	ret    
    387f:	90                   	nop
    3880:	80 7b 14 00          	cmpb   $0x0,0x14(%ebx)
    3884:	74 cd                	je     3853 <usb_pipe_control_write+0x93>
    3886:	66 83 3b 00          	cmpw   $0x0,(%ebx)
    388a:	75 c7                	jne    3853 <usb_pipe_control_write+0x93>
    388c:	c6 43 14 00          	movb   $0x0,0x14(%ebx)
    3890:	50                   	push   %eax
    3891:	50                   	push   %eax
    3892:	6a 00                	push   $0x0
    3894:	53                   	push   %ebx
    3895:	e8 d6 25 00 00       	call   5e70 <usb_request_clear_endpoint_halt>
    389a:	c6 43 14 01          	movb   $0x1,0x14(%ebx)
    389e:	83 c4 10             	add    $0x10,%esp
    38a1:	eb b0                	jmp    3853 <usb_pipe_control_write+0x93>
    38a3:	50                   	push   %eax
    38a4:	68 82 00 00 00       	push   $0x82
    38a9:	68 f0 fa 00 00       	push   $0xfaf0
    38ae:	68 c7 fb 00 00       	push   $0xfbc7
    38b3:	e8 b8 e5 00 00       	call   11e70 <assert_abort@plt>
    38b8:	90                   	nop
    38b9:	8d b4 26 00 00 00 00 	lea    0x0(%esi,%eiz,1),%esi

000038c0 <usb_pipe_read>:
    38c0:	55                   	push   %ebp
    38c1:	89 e5                	mov    %esp,%ebp
    38c3:	57                   	push   %edi
    38c4:	56                   	push   %esi
    38c5:	53                   	push   %ebx
    38c6:	83 ec 2c             	sub    $0x2c,%esp
    38c9:	8b 5d 08             	mov    0x8(%ebp),%ebx
    38cc:	8b 75 0c             	mov    0xc(%ebp),%esi
    38cf:	85 db                	test   %ebx,%ebx
    38d1:	0f 84 a8 00 00 00    	je     397f <usb_pipe_read+0xbf>
    38d7:	85 f6                	test   %esi,%esi
    38d9:	0f 84 99 00 00 00    	je     3978 <usb_pipe_read+0xb8>
    38df:	8b 45 10             	mov    0x10(%ebp),%eax
    38e2:	85 c0                	test   %eax,%eax
    38e4:	0f 84 8e 00 00 00    	je     3978 <usb_pipe_read+0xb8>
    38ea:	8b 43 08             	mov    0x8(%ebx),%eax
    38ed:	85 c0                	test   %eax,%eax
    38ef:	75 7f                	jne    3970 <usb_pipe_read+0xb0>
    38f1:	8b 43 04             	mov    0x4(%ebx),%eax
    38f4:	85 c0                	test   %eax,%eax
    38f6:	74 78                	je     3970 <usb_pipe_read+0xb0>
    38f8:	83 e8 02             	sub    $0x2,%eax
    38fb:	83 f8 01             	cmp    $0x1,%eax
    38fe:	77 60                	ja     3960 <usb_pipe_read+0xa0>
    3900:	83 ec 0c             	sub    $0xc,%esp
    3903:	8b 4b 18             	mov    0x18(%ebx),%ecx
    3906:	51                   	push   %ecx
    3907:	e8 54 e7 00 00       	call   12060 <async_exchange_begin@plt>
    390c:	83 c4 0c             	add    $0xc,%esp
    390f:	89 c7                	mov    %eax,%edi
    3911:	8d 45 e4             	lea    -0x1c(%ebp),%eax
    3914:	c7 45 e4 00 00 00 00 	movl   $0x0,-0x1c(%ebp)
    391b:	50                   	push   %eax
    391c:	8b 45 10             	mov    0x10(%ebp),%eax
    391f:	50                   	push   %eax
    3920:	56                   	push   %esi
    3921:	0f bf 03             	movswl (%ebx),%eax
    3924:	6a 00                	push   $0x0
    3926:	6a 00                	push   $0x0
    3928:	50                   	push   %eax
    3929:	57                   	push   %edi
    392a:	e8 91 9e 00 00       	call   d7c0 <usb_read>
    392f:	83 c4 14             	add    $0x14,%esp
    3932:	89 45 d4             	mov    %eax,-0x2c(%ebp)
    3935:	57                   	push   %edi
    3936:	e8 25 e5 00 00       	call   11e60 <async_exchange_end@plt>
    393b:	8b 45 d4             	mov    -0x2c(%ebp),%eax
    393e:	83 c4 10             	add    $0x10,%esp
    3941:	85 c0                	test   %eax,%eax
    3943:	75 0f                	jne    3954 <usb_pipe_read+0x94>
    3945:	8b 55 14             	mov    0x14(%ebp),%edx
    3948:	85 d2                	test   %edx,%edx
    394a:	74 08                	je     3954 <usb_pipe_read+0x94>
    394c:	8b 4d 14             	mov    0x14(%ebp),%ecx
    394f:	8b 55 e4             	mov    -0x1c(%ebp),%edx
    3952:	89 11                	mov    %edx,(%ecx)
    3954:	8d 65 f4             	lea    -0xc(%ebp),%esp
    3957:	5b                   	pop    %ebx
    3958:	5e                   	pop    %esi
    3959:	5f                   	pop    %edi
    395a:	5d                   	pop    %ebp
    395b:	c3                   	ret    
    395c:	8d 74 26 00          	lea    0x0(%esi,%eiz,1),%esi
    3960:	8d 65 f4             	lea    -0xc(%ebp),%esp
    3963:	b8 f5 ff ff ff       	mov    $0xfffffff5,%eax
    3968:	5b                   	pop    %ebx
    3969:	5e                   	pop    %esi
    396a:	5f                   	pop    %edi
    396b:	5d                   	pop    %ebp
    396c:	c3                   	ret    
    396d:	8d 76 00             	lea    0x0(%esi),%esi
    3970:	b8 fa fe ff ff       	mov    $0xfffffefa,%eax
    3975:	eb dd                	jmp    3954 <usb_pipe_read+0x94>
    3977:	90                   	nop
    3978:	b8 f2 ff ff ff       	mov    $0xfffffff2,%eax
    397d:	eb d5                	jmp    3954 <usb_pipe_read+0x94>
    397f:	50                   	push   %eax
    3980:	68 af 00 00 00       	push   $0xaf
    3985:	68 f0 fa 00 00       	push   $0xfaf0
    398a:	68 c7 fb 00 00       	push   $0xfbc7
    398f:	e8 dc e4 00 00       	call   11e70 <assert_abort@plt>
    3994:	8d b6 00 00 00 00    	lea    0x0(%esi),%esi
    399a:	8d bf 00 00 00 00    	lea    0x0(%edi),%edi

000039a0 <usb_pipe_write>:
    39a0:	55                   	push   %ebp
    39a1:	89 e5                	mov    %esp,%ebp
    39a3:	57                   	push   %edi
    39a4:	56                   	push   %esi
    39a5:	53                   	push   %ebx
    39a6:	83 ec 1c             	sub    $0x1c,%esp
    39a9:	8b 5d 08             	mov    0x8(%ebp),%ebx
    39ac:	8b 75 0c             	mov    0xc(%ebp),%esi
    39af:	85 db                	test   %ebx,%ebx
    39b1:	0f 84 88 00 00 00    	je     3a3f <usb_pipe_write+0x9f>
    39b7:	85 f6                	test   %esi,%esi
    39b9:	74 7d                	je     3a38 <usb_pipe_write+0x98>
    39bb:	8b 45 10             	mov    0x10(%ebp),%eax
    39be:	85 c0                	test   %eax,%eax
    39c0:	74 76                	je     3a38 <usb_pipe_write+0x98>
    39c2:	83 7b 08 01          	cmpl   $0x1,0x8(%ebx)
    39c6:	75 60                	jne    3a28 <usb_pipe_write+0x88>
    39c8:	8b 43 04             	mov    0x4(%ebx),%eax
    39cb:	85 c0                	test   %eax,%eax
    39cd:	74 59                	je     3a28 <usb_pipe_write+0x88>
    39cf:	83 e8 02             	sub    $0x2,%eax
    39d2:	83 f8 01             	cmp    $0x1,%eax
    39d5:	77 41                	ja     3a18 <usb_pipe_write+0x78>
    39d7:	83 ec 0c             	sub    $0xc,%esp
    39da:	8b 43 18             	mov    0x18(%ebx),%eax
    39dd:	50                   	push   %eax
    39de:	e8 7d e6 00 00       	call   12060 <async_exchange_begin@plt>
    39e3:	89 c7                	mov    %eax,%edi
    39e5:	8b 45 10             	mov    0x10(%ebp),%eax
    39e8:	5a                   	pop    %edx
    39e9:	59                   	pop    %ecx
    39ea:	50                   	push   %eax
    39eb:	56                   	push   %esi
    39ec:	0f bf 03             	movswl (%ebx),%eax
    39ef:	6a 00                	push   $0x0
    39f1:	6a 00                	push   $0x0
    39f3:	50                   	push   %eax
    39f4:	57                   	push   %edi
    39f5:	e8 b6 9e 00 00       	call   d8b0 <usb_write>
    39fa:	83 c4 14             	add    $0x14,%esp
    39fd:	57                   	push   %edi
    39fe:	89 45 e4             	mov    %eax,-0x1c(%ebp)
    3a01:	e8 5a e4 00 00       	call   11e60 <async_exchange_end@plt>
    3a06:	83 c4 10             	add    $0x10,%esp
    3a09:	8b 45 e4             	mov    -0x1c(%ebp),%eax
    3a0c:	8d 65 f4             	lea    -0xc(%ebp),%esp
    3a0f:	5b                   	pop    %ebx
    3a10:	5e                   	pop    %esi
    3a11:	5f                   	pop    %edi
    3a12:	5d                   	pop    %ebp
    3a13:	c3                   	ret    
    3a14:	8d 74 26 00          	lea    0x0(%esi,%eiz,1),%esi
    3a18:	8d 65 f4             	lea    -0xc(%ebp),%esp
    3a1b:	b8 f5 ff ff ff       	mov    $0xfffffff5,%eax
    3a20:	5b                   	pop    %ebx
    3a21:	5e                   	pop    %esi
    3a22:	5f                   	pop    %edi
    3a23:	5d                   	pop    %ebp
    3a24:	c3                   	ret    
    3a25:	8d 76 00             	lea    0x0(%esi),%esi
    3a28:	8d 65 f4             	lea    -0xc(%ebp),%esp
    3a2b:	b8 fa fe ff ff       	mov    $0xfffffefa,%eax
    3a30:	5b                   	pop    %ebx
    3a31:	5e                   	pop    %esi
    3a32:	5f                   	pop    %edi
    3a33:	5d                   	pop    %ebp
    3a34:	c3                   	ret    
    3a35:	8d 76 00             	lea    0x0(%esi),%esi
    3a38:	b8 f2 ff ff ff       	mov    $0xfffffff2,%eax
    3a3d:	eb cd                	jmp    3a0c <usb_pipe_write+0x6c>
    3a3f:	50                   	push   %eax
    3a40:	68 dc 00 00 00       	push   $0xdc
    3a45:	68 f0 fa 00 00       	push   $0xfaf0
    3a4a:	68 c7 fb 00 00       	push   $0xfbc7
    3a4f:	e8 1c e4 00 00       	call   11e70 <assert_abort@plt>
    3a54:	8d b6 00 00 00 00    	lea    0x0(%esi),%esi
    3a5a:	8d bf 00 00 00 00    	lea    0x0(%edi),%edi

00003a60 <usb_pipe_initialize>:
    3a60:	55                   	push   %ebp
    3a61:	89 e5                	mov    %esp,%ebp
    3a63:	83 ec 08             	sub    $0x8,%esp
    3a66:	8b 45 08             	mov    0x8(%ebp),%eax
    3a69:	8b 55 0c             	mov    0xc(%ebp),%edx
    3a6c:	85 c0                	test   %eax,%eax
    3a6e:	74 29                	je     3a99 <usb_pipe_initialize+0x39>
    3a70:	66 89 10             	mov    %dx,(%eax)
    3a73:	8b 55 10             	mov    0x10(%ebp),%edx
    3a76:	89 50 04             	mov    %edx,0x4(%eax)
    3a79:	8b 55 1c             	mov    0x1c(%ebp),%edx
    3a7c:	89 50 10             	mov    %edx,0x10(%eax)
    3a7f:	8b 55 14             	mov    0x14(%ebp),%edx
    3a82:	89 50 0c             	mov    %edx,0xc(%eax)
    3a85:	8b 55 18             	mov    0x18(%ebp),%edx
    3a88:	89 50 08             	mov    %edx,0x8(%eax)
    3a8b:	8b 55 20             	mov    0x20(%ebp),%edx
    3a8e:	c6 40 14 00          	movb   $0x0,0x14(%eax)
    3a92:	89 50 18             	mov    %edx,0x18(%eax)
    3a95:	c9                   	leave  
    3a96:	31 c0                	xor    %eax,%eax
    3a98:	c3                   	ret    
    3a99:	50                   	push   %eax
    3a9a:	68 02 01 00 00       	push   $0x102
    3a9f:	68 f0 fa 00 00       	push   $0xfaf0
    3aa4:	68 c7 fb 00 00       	push   $0xfbc7
    3aa9:	e8 c2 e3 00 00       	call   11e70 <assert_abort@plt>
    3aae:	66 90                	xchg   %ax,%ax

00003ab0 <usb_pipe_initialize_default_control>:
    3ab0:	55                   	push   %ebp
    3ab1:	89 e5                	mov    %esp,%ebp
    3ab3:	83 ec 08             	sub    $0x8,%esp
    3ab6:	8b 45 08             	mov    0x8(%ebp),%eax
    3ab9:	85 c0                	test   %eax,%eax
    3abb:	74 2f                	je     3aec <usb_pipe_initialize_default_control+0x3c>
    3abd:	8b 55 0c             	mov    0xc(%ebp),%edx
    3ac0:	66 c7 00 00 00       	movw   $0x0,(%eax)
    3ac5:	c7 40 04 00 00 00 00 	movl   $0x0,0x4(%eax)
    3acc:	c7 40 10 01 00 00 00 	movl   $0x1,0x10(%eax)
    3ad3:	c7 40 0c 08 00 00 00 	movl   $0x8,0xc(%eax)
    3ada:	c7 40 08 02 00 00 00 	movl   $0x2,0x8(%eax)
    3ae1:	89 50 18             	mov    %edx,0x18(%eax)
    3ae4:	c6 40 14 01          	movb   $0x1,0x14(%eax)
    3ae8:	c9                   	leave  
    3ae9:	31 c0                	xor    %eax,%eax
    3aeb:	c3                   	ret    
    3aec:	50                   	push   %eax
    3aed:	68 17 01 00 00       	push   $0x117
    3af2:	68 f0 fa 00 00       	push   $0xfaf0
    3af7:	68 c7 fb 00 00       	push   $0xfbc7
    3afc:	e8 6f e3 00 00       	call   11e70 <assert_abort@plt>
    3b01:	eb 0d                	jmp    3b10 <usb_pipe_register>
    3b03:	90                   	nop
    3b04:	90                   	nop
    3b05:	90                   	nop
    3b06:	90                   	nop
    3b07:	90                   	nop
    3b08:	90                   	nop
    3b09:	90                   	nop
    3b0a:	90                   	nop
    3b0b:	90                   	nop
    3b0c:	90                   	nop
    3b0d:	90                   	nop
    3b0e:	90                   	nop
    3b0f:	90                   	nop

00003b10 <usb_pipe_register>:
    3b10:	55                   	push   %ebp
    3b11:	89 e5                	mov    %esp,%ebp
    3b13:	56                   	push   %esi
    3b14:	53                   	push   %ebx
    3b15:	83 ec 10             	sub    $0x10,%esp
    3b18:	8b 5d 08             	mov    0x8(%ebp),%ebx
    3b1b:	85 db                	test   %ebx,%ebx
    3b1d:	74 6d                	je     3b8c <usb_pipe_register+0x7c>
    3b1f:	8b 43 18             	mov    0x18(%ebx),%eax
    3b22:	85 c0                	test   %eax,%eax
    3b24:	74 51                	je     3b77 <usb_pipe_register+0x67>
    3b26:	83 ec 0c             	sub    $0xc,%esp
    3b29:	50                   	push   %eax
    3b2a:	e8 31 e5 00 00       	call   12060 <async_exchange_begin@plt>
    3b2f:	83 c4 10             	add    $0x10,%esp
    3b32:	89 c6                	mov    %eax,%esi
    3b34:	85 c0                	test   %eax,%eax
    3b36:	74 38                	je     3b70 <usb_pipe_register+0x60>
    3b38:	8b 55 0c             	mov    0xc(%ebp),%edx
    3b3b:	50                   	push   %eax
    3b3c:	52                   	push   %edx
    3b3d:	8b 4b 10             	mov    0x10(%ebx),%ecx
    3b40:	51                   	push   %ecx
    3b41:	8b 43 0c             	mov    0xc(%ebx),%eax
    3b44:	50                   	push   %eax
    3b45:	8b 43 08             	mov    0x8(%ebx),%eax
    3b48:	50                   	push   %eax
    3b49:	8b 43 04             	mov    0x4(%ebx),%eax
    3b4c:	50                   	push   %eax
    3b4d:	0f bf 03             	movswl (%ebx),%eax
    3b50:	50                   	push   %eax
    3b51:	56                   	push   %esi
    3b52:	e8 b9 9b 00 00       	call   d710 <usb_register_endpoint>
    3b57:	83 c4 14             	add    $0x14,%esp
    3b5a:	56                   	push   %esi
    3b5b:	89 45 f4             	mov    %eax,-0xc(%ebp)
    3b5e:	e8 fd e2 00 00       	call   11e60 <async_exchange_end@plt>
    3b63:	83 c4 10             	add    $0x10,%esp
    3b66:	8b 45 f4             	mov    -0xc(%ebp),%eax
    3b69:	8d 65 f8             	lea    -0x8(%ebp),%esp
    3b6c:	5b                   	pop    %ebx
    3b6d:	5e                   	pop    %esi
    3b6e:	5d                   	pop    %ebp
    3b6f:	c3                   	ret    
    3b70:	b8 fe ff ff ff       	mov    $0xfffffffe,%eax
    3b75:	eb f2                	jmp    3b69 <usb_pipe_register+0x59>
    3b77:	50                   	push   %eax
    3b78:	68 2a 01 00 00       	push   $0x12a
    3b7d:	68 f0 fa 00 00       	push   $0xfaf0
    3b82:	68 fc fa 00 00       	push   $0xfafc
    3b87:	e8 e4 e2 00 00       	call   11e70 <assert_abort@plt>
    3b8c:	50                   	push   %eax
    3b8d:	68 29 01 00 00       	push   $0x129
    3b92:	68 f0 fa 00 00       	push   $0xfaf0
    3b97:	68 c7 fb 00 00       	push   $0xfbc7
    3b9c:	e8 cf e2 00 00       	call   11e70 <assert_abort@plt>
    3ba1:	eb 0d                	jmp    3bb0 <usb_pipe_unregister>
    3ba3:	90                   	nop
    3ba4:	90                   	nop
    3ba5:	90                   	nop
    3ba6:	90                   	nop
    3ba7:	90                   	nop
    3ba8:	90                   	nop
    3ba9:	90                   	nop
    3baa:	90                   	nop
    3bab:	90                   	nop
    3bac:	90                   	nop
    3bad:	90                   	nop
    3bae:	90                   	nop
    3baf:	90                   	nop

00003bb0 <usb_pipe_unregister>:
    3bb0:	55                   	push   %ebp
    3bb1:	89 e5                	mov    %esp,%ebp
    3bb3:	56                   	push   %esi
    3bb4:	53                   	push   %ebx
    3bb5:	83 ec 10             	sub    $0x10,%esp
    3bb8:	8b 5d 08             	mov    0x8(%ebp),%ebx
    3bbb:	85 db                	test   %ebx,%ebx
    3bbd:	74 5d                	je     3c1c <usb_pipe_unregister+0x6c>
    3bbf:	8b 43 18             	mov    0x18(%ebx),%eax
    3bc2:	85 c0                	test   %eax,%eax
    3bc4:	74 41                	je     3c07 <usb_pipe_unregister+0x57>
    3bc6:	83 ec 0c             	sub    $0xc,%esp
    3bc9:	50                   	push   %eax
    3bca:	e8 91 e4 00 00       	call   12060 <async_exchange_begin@plt>
    3bcf:	83 c4 10             	add    $0x10,%esp
    3bd2:	89 c6                	mov    %eax,%esi
    3bd4:	85 c0                	test   %eax,%eax
    3bd6:	74 28                	je     3c00 <usb_pipe_unregister+0x50>
    3bd8:	50                   	push   %eax
    3bd9:	0f bf 03             	movswl (%ebx),%eax
    3bdc:	8b 53 08             	mov    0x8(%ebx),%edx
    3bdf:	52                   	push   %edx
    3be0:	50                   	push   %eax
    3be1:	56                   	push   %esi
    3be2:	e8 99 9b 00 00       	call   d780 <usb_unregister_endpoint>
    3be7:	89 34 24             	mov    %esi,(%esp)
    3bea:	89 45 f4             	mov    %eax,-0xc(%ebp)
    3bed:	e8 6e e2 00 00       	call   11e60 <async_exchange_end@plt>
    3bf2:	83 c4 10             	add    $0x10,%esp
    3bf5:	8b 45 f4             	mov    -0xc(%ebp),%eax
    3bf8:	8d 65 f8             	lea    -0x8(%ebp),%esp
    3bfb:	5b                   	pop    %ebx
    3bfc:	5e                   	pop    %esi
    3bfd:	5d                   	pop    %ebp
    3bfe:	c3                   	ret    
    3bff:	90                   	nop
    3c00:	b8 fe ff ff ff       	mov    $0xfffffffe,%eax
    3c05:	eb f1                	jmp    3bf8 <usb_pipe_unregister+0x48>
    3c07:	51                   	push   %ecx
    3c08:	68 3d 01 00 00       	push   $0x13d
    3c0d:	68 f0 fa 00 00       	push   $0xfaf0
    3c12:	68 fc fa 00 00       	push   $0xfafc
    3c17:	e8 54 e2 00 00       	call   11e70 <assert_abort@plt>
    3c1c:	53                   	push   %ebx
    3c1d:	68 3c 01 00 00       	push   $0x13c
    3c22:	68 f0 fa 00 00       	push   $0xfaf0
    3c27:	68 c7 fb 00 00       	push   $0xfbc7
    3c2c:	e8 3f e2 00 00       	call   11e70 <assert_abort@plt>
    3c31:	66 90                	xchg   %ax,%ax
    3c33:	66 90                	xchg   %ax,%ax
    3c35:	66 90                	xchg   %ax,%ax
    3c37:	66 90                	xchg   %ax,%ax
    3c39:	66 90                	xchg   %ax,%ax
    3c3b:	66 90                	xchg   %ax,%ax
    3c3d:	66 90                	xchg   %ax,%ax
    3c3f:	90                   	nop

00003c40 <usb_pipe_initialize_from_configuration>:
    3c40:	55                   	push   %ebp
    3c41:	89 e5                	mov    %esp,%ebp
    3c43:	57                   	push   %edi
    3c44:	56                   	push   %esi
    3c45:	53                   	push   %ebx
    3c46:	83 ec 4c             	sub    $0x4c,%esp
    3c49:	8b 75 10             	mov    0x10(%ebp),%esi
    3c4c:	8b 4d 14             	mov    0x14(%ebp),%ecx
    3c4f:	85 f6                	test   %esi,%esi
    3c51:	0f 84 25 02 00 00    	je     3e7c <usb_pipe_initialize_from_configuration+0x23c>
    3c57:	83 f9 08             	cmp    $0x8,%ecx
    3c5a:	0f 86 10 02 00 00    	jbe    3e70 <usb_pipe_initialize_from_configuration+0x230>
    3c60:	8b 5d 0c             	mov    0xc(%ebp),%ebx
    3c63:	85 db                	test   %ebx,%ebx
    3c65:	74 31                	je     3c98 <usb_pipe_initialize_from_configuration+0x58>
    3c67:	8b 7d 0c             	mov    0xc(%ebp),%edi
    3c6a:	8b 45 08             	mov    0x8(%ebp),%eax
    3c6d:	83 c0 28             	add    $0x28,%eax
    3c70:	8d 14 7f             	lea    (%edi,%edi,2),%edx
    3c73:	8d 14 97             	lea    (%edi,%edx,4),%edx
    3c76:	8b 7d 08             	mov    0x8(%ebp),%edi
    3c79:	8d 54 97 28          	lea    0x28(%edi,%edx,4),%edx
    3c7d:	8d 76 00             	lea    0x0(%esi),%esi
    3c80:	c6 40 08 00          	movb   $0x0,0x8(%eax)
    3c84:	c7 00 00 00 00 00    	movl   $0x0,(%eax)
    3c8a:	c7 40 04 00 00 00 00 	movl   $0x0,0x4(%eax)
    3c91:	83 c0 34             	add    $0x34,%eax
    3c94:	39 d0                	cmp    %edx,%eax
    3c96:	75 e8                	jne    3c80 <usb_pipe_initialize_from_configuration+0x40>
    3c98:	8b 45 10             	mov    0x10(%ebp),%eax
    3c9b:	52                   	push   %edx
    3c9c:	89 45 dc             	mov    %eax,-0x24(%ebp)
    3c9f:	50                   	push   %eax
    3ca0:	8d 45 dc             	lea    -0x24(%ebp),%eax
    3ca3:	c7 45 d8 20 fb 00 00 	movl   $0xfb20,-0x28(%ebp)
    3caa:	50                   	push   %eax
    3cab:	8d 45 d8             	lea    -0x28(%ebp),%eax
    3cae:	50                   	push   %eax
    3caf:	c7 45 e4 00 00 00 00 	movl   $0x0,-0x1c(%ebp)
    3cb6:	89 4d e0             	mov    %ecx,-0x20(%ebp)
    3cb9:	e8 22 f5 ff ff       	call   31e0 <usb_dp_get_nested_descriptor>
    3cbe:	83 c4 10             	add    $0x10,%esp
    3cc1:	89 45 c8             	mov    %eax,-0x38(%ebp)
    3cc4:	85 c0                	test   %eax,%eax
    3cc6:	0f 84 ab 01 00 00    	je     3e77 <usb_pipe_initialize_from_configuration+0x237>
    3ccc:	8d 74 26 00          	lea    0x0(%esi,%eiz,1),%esi
    3cd0:	50                   	push   %eax
    3cd1:	8b 45 c8             	mov    -0x38(%ebp),%eax
    3cd4:	50                   	push   %eax
    3cd5:	8d 45 dc             	lea    -0x24(%ebp),%eax
    3cd8:	50                   	push   %eax
    3cd9:	8d 45 d8             	lea    -0x28(%ebp),%eax
    3cdc:	50                   	push   %eax
    3cdd:	e8 fe f4 ff ff       	call   31e0 <usb_dp_get_nested_descriptor>
    3ce2:	83 c4 10             	add    $0x10,%esp
    3ce5:	89 c6                	mov    %eax,%esi
    3ce7:	85 c0                	test   %eax,%eax
    3ce9:	75 24                	jne    3d0f <usb_pipe_initialize_from_configuration+0xcf>
    3ceb:	e9 48 01 00 00       	jmp    3e38 <usb_pipe_initialize_from_configuration+0x1f8>
    3cf0:	8b 45 c8             	mov    -0x38(%ebp),%eax
    3cf3:	56                   	push   %esi
    3cf4:	50                   	push   %eax
    3cf5:	8d 45 dc             	lea    -0x24(%ebp),%eax
    3cf8:	50                   	push   %eax
    3cf9:	8d 45 d8             	lea    -0x28(%ebp),%eax
    3cfc:	50                   	push   %eax
    3cfd:	e8 3e f8 ff ff       	call   3540 <usb_dp_get_sibling_descriptor>
    3d02:	83 c4 10             	add    $0x10,%esp
    3d05:	89 c6                	mov    %eax,%esi
    3d07:	85 c0                	test   %eax,%eax
    3d09:	0f 84 29 01 00 00    	je     3e38 <usb_pipe_initialize_from_configuration+0x1f8>
    3d0f:	80 7e 01 05          	cmpb   $0x5,0x1(%esi)
    3d13:	75 db                	jne    3cf0 <usb_pipe_initialize_from_configuration+0xb0>
    3d15:	8a 46 02             	mov    0x2(%esi),%al
    3d18:	8b 5d c8             	mov    -0x38(%ebp),%ebx
    3d1b:	83 e0 0f             	and    $0xf,%eax
    3d1e:	88 45 ce             	mov    %al,-0x32(%ebp)
    3d21:	8a 46 03             	mov    0x3(%esi),%al
    3d24:	83 e0 03             	and    $0x3,%eax
    3d27:	89 45 c4             	mov    %eax,-0x3c(%ebp)
    3d2a:	0f be 46 02          	movsbl 0x2(%esi),%eax
    3d2e:	83 f0 ff             	xor    $0xffffffff,%eax
    3d31:	c1 e8 1f             	shr    $0x1f,%eax
    3d34:	89 c7                	mov    %eax,%edi
    3d36:	31 c0                	xor    %eax,%eax
    3d38:	8a 43 05             	mov    0x5(%ebx),%al
    3d3b:	89 45 c0             	mov    %eax,-0x40(%ebp)
    3d3e:	31 c0                	xor    %eax,%eax
    3d40:	8a 43 06             	mov    0x6(%ebx),%al
    3d43:	89 45 b4             	mov    %eax,-0x4c(%ebp)
    3d46:	31 c0                	xor    %eax,%eax
    3d48:	8a 43 07             	mov    0x7(%ebx),%al
    3d4b:	89 45 b0             	mov    %eax,-0x50(%ebp)
    3d4e:	31 c0                	xor    %eax,%eax
    3d50:	8a 43 03             	mov    0x3(%ebx),%al
    3d53:	89 45 d4             	mov    %eax,-0x2c(%ebp)
    3d56:	31 c0                	xor    %eax,%eax
    3d58:	8a 43 02             	mov    0x2(%ebx),%al
    3d5b:	8b 5d 08             	mov    0x8(%ebp),%ebx
    3d5e:	89 45 d0             	mov    %eax,-0x30(%ebp)
    3d61:	8b 45 0c             	mov    0xc(%ebp),%eax
    3d64:	85 c0                	test   %eax,%eax
    3d66:	74 88                	je     3cf0 <usb_pipe_initialize_from_configuration+0xb0>
    3d68:	89 75 bc             	mov    %esi,-0x44(%ebp)
    3d6b:	89 c6                	mov    %eax,%esi
    3d6d:	eb 0b                	jmp    3d7a <usb_pipe_initialize_from_configuration+0x13a>
    3d6f:	90                   	nop
    3d70:	83 c3 34             	add    $0x34,%ebx
    3d73:	4e                   	dec    %esi
    3d74:	0f 84 ee 00 00 00    	je     3e68 <usb_pipe_initialize_from_configuration+0x228>
    3d7a:	8b 53 20             	mov    0x20(%ebx),%edx
    3d7d:	89 d0                	mov    %edx,%eax
    3d7f:	c1 e8 1f             	shr    $0x1f,%eax
    3d82:	39 55 d0             	cmp    %edx,-0x30(%ebp)
    3d85:	0f 94 c2             	sete   %dl
    3d88:	09 c2                	or     %eax,%edx
    3d8a:	8b 43 24             	mov    0x24(%ebx),%eax
    3d8d:	39 45 d4             	cmp    %eax,-0x2c(%ebp)
    3d90:	88 55 cf             	mov    %dl,-0x31(%ebp)
    3d93:	0f 94 c1             	sete   %cl
    3d96:	c1 e8 1f             	shr    $0x1f,%eax
    3d99:	09 c8                	or     %ecx,%eax
    3d9b:	8b 4b 1c             	mov    0x1c(%ebx),%ecx
    3d9e:	3b 79 04             	cmp    0x4(%ecx),%edi
    3da1:	75 cd                	jne    3d70 <usb_pipe_initialize_from_configuration+0x130>
    3da3:	8b 55 c4             	mov    -0x3c(%ebp),%edx
    3da6:	3b 11                	cmp    (%ecx),%edx
    3da8:	75 c6                	jne    3d70 <usb_pipe_initialize_from_configuration+0x130>
    3daa:	8b 51 08             	mov    0x8(%ecx),%edx
    3dad:	39 55 c0             	cmp    %edx,-0x40(%ebp)
    3db0:	74 05                	je     3db7 <usb_pipe_initialize_from_configuration+0x177>
    3db2:	83 ea 00             	sub    $0x0,%edx
    3db5:	79 b9                	jns    3d70 <usb_pipe_initialize_from_configuration+0x130>
    3db7:	8b 51 0c             	mov    0xc(%ecx),%edx
    3dba:	89 55 b8             	mov    %edx,-0x48(%ebp)
    3dbd:	83 ea 00             	sub    $0x0,%edx
    3dc0:	78 08                	js     3dca <usb_pipe_initialize_from_configuration+0x18a>
    3dc2:	8b 55 b8             	mov    -0x48(%ebp),%edx
    3dc5:	39 55 b4             	cmp    %edx,-0x4c(%ebp)
    3dc8:	75 a6                	jne    3d70 <usb_pipe_initialize_from_configuration+0x130>
    3dca:	8b 49 10             	mov    0x10(%ecx),%ecx
    3dcd:	39 4d b0             	cmp    %ecx,-0x50(%ebp)
    3dd0:	74 05                	je     3dd7 <usb_pipe_initialize_from_configuration+0x197>
    3dd2:	83 e9 00             	sub    $0x0,%ecx
    3dd5:	79 99                	jns    3d70 <usb_pipe_initialize_from_configuration+0x130>
    3dd7:	84 c0                	test   %al,%al
    3dd9:	74 95                	je     3d70 <usb_pipe_initialize_from_configuration+0x130>
    3ddb:	80 7d cf 00          	cmpb   $0x0,-0x31(%ebp)
    3ddf:	74 8f                	je     3d70 <usb_pipe_initialize_from_configuration+0x130>
    3de1:	8b 75 bc             	mov    -0x44(%ebp),%esi
    3de4:	80 7b 30 00          	cmpb   $0x0,0x30(%ebx)
    3de8:	0f 85 02 ff ff ff    	jne    3cf0 <usb_pipe_initialize_from_configuration+0xb0>
    3dee:	66 8b 56 04          	mov    0x4(%esi),%dx
    3df2:	8b 45 18             	mov    0x18(%ebp),%eax
    3df5:	51                   	push   %ecx
    3df6:	50                   	push   %eax
    3df7:	89 d0                	mov    %edx,%eax
    3df9:	81 e2 ff 03 00 00    	and    $0x3ff,%edx
    3dff:	66 c1 e8 0a          	shr    $0xa,%ax
    3e03:	83 e0 03             	and    $0x3,%eax
    3e06:	40                   	inc    %eax
    3e07:	50                   	push   %eax
    3e08:	8b 45 c4             	mov    -0x3c(%ebp),%eax
    3e0b:	57                   	push   %edi
    3e0c:	52                   	push   %edx
    3e0d:	50                   	push   %eax
    3e0e:	31 c0                	xor    %eax,%eax
    3e10:	8a 45 ce             	mov    -0x32(%ebp),%al
    3e13:	50                   	push   %eax
    3e14:	53                   	push   %ebx
    3e15:	e8 46 fc ff ff       	call   3a60 <usb_pipe_initialize>
    3e1a:	83 c4 20             	add    $0x20,%esp
    3e1d:	85 c0                	test   %eax,%eax
    3e1f:	0f 85 cb fe ff ff    	jne    3cf0 <usb_pipe_initialize_from_configuration+0xb0>
    3e25:	8b 45 c8             	mov    -0x38(%ebp),%eax
    3e28:	c6 43 30 01          	movb   $0x1,0x30(%ebx)
    3e2c:	89 73 28             	mov    %esi,0x28(%ebx)
    3e2f:	89 43 2c             	mov    %eax,0x2c(%ebx)
    3e32:	e9 b9 fe ff ff       	jmp    3cf0 <usb_pipe_initialize_from_configuration+0xb0>
    3e37:	90                   	nop
    3e38:	8b 45 c8             	mov    -0x38(%ebp),%eax
    3e3b:	50                   	push   %eax
    3e3c:	8b 45 10             	mov    0x10(%ebp),%eax
    3e3f:	50                   	push   %eax
    3e40:	8d 45 dc             	lea    -0x24(%ebp),%eax
    3e43:	50                   	push   %eax
    3e44:	8d 45 d8             	lea    -0x28(%ebp),%eax
    3e47:	50                   	push   %eax
    3e48:	e8 f3 f6 ff ff       	call   3540 <usb_dp_get_sibling_descriptor>
    3e4d:	83 c4 10             	add    $0x10,%esp
    3e50:	89 45 c8             	mov    %eax,-0x38(%ebp)
    3e53:	85 c0                	test   %eax,%eax
    3e55:	0f 85 75 fe ff ff    	jne    3cd0 <usb_pipe_initialize_from_configuration+0x90>
    3e5b:	8d 65 f4             	lea    -0xc(%ebp),%esp
    3e5e:	5b                   	pop    %ebx
    3e5f:	5e                   	pop    %esi
    3e60:	5f                   	pop    %edi
    3e61:	5d                   	pop    %ebp
    3e62:	c3                   	ret    
    3e63:	90                   	nop
    3e64:	8d 74 26 00          	lea    0x0(%esi,%eiz,1),%esi
    3e68:	8b 75 bc             	mov    -0x44(%ebp),%esi
    3e6b:	e9 80 fe ff ff       	jmp    3cf0 <usb_pipe_initialize_from_configuration+0xb0>
    3e70:	b8 f8 fe ff ff       	mov    $0xfffffef8,%eax
    3e75:	eb e4                	jmp    3e5b <usb_pipe_initialize_from_configuration+0x21b>
    3e77:	83 c8 ff             	or     $0xffffffff,%eax
    3e7a:	eb df                	jmp    3e5b <usb_pipe_initialize_from_configuration+0x21b>
    3e7c:	b8 f6 ff ff ff       	mov    $0xfffffff6,%eax
    3e81:	eb d8                	jmp    3e5b <usb_pipe_initialize_from_configuration+0x21b>
    3e83:	8d b6 00 00 00 00    	lea    0x0(%esi),%esi
    3e89:	8d bc 27 00 00 00 00 	lea    0x0(%edi,%eiz,1),%edi

00003e90 <usb_pipe_probe_default_control>:
    3e90:	55                   	push   %ebp
    3e91:	89 e5                	mov    %esp,%ebp
    3e93:	57                   	push   %edi
    3e94:	56                   	push   %esi
    3e95:	53                   	push   %ebx
    3e96:	83 ec 2c             	sub    $0x2c,%esp
    3e99:	8b 5d 08             	mov    0x8(%ebp),%ebx
    3e9c:	85 db                	test   %ebx,%ebx
    3e9e:	74 75                	je     3f15 <usb_pipe_probe_default_control+0x85>
    3ea0:	83 7b 08 02          	cmpl   $0x2,0x8(%ebx)
    3ea4:	75 62                	jne    3f08 <usb_pipe_probe_default_control+0x78>
    3ea6:	8b 43 04             	mov    0x4(%ebx),%eax
    3ea9:	85 c0                	test   %eax,%eax
    3eab:	75 5b                	jne    3f08 <usb_pipe_probe_default_control+0x78>
    3ead:	66 83 3b 00          	cmpw   $0x0,(%ebx)
    3eb1:	75 55                	jne    3f08 <usb_pipe_probe_default_control+0x78>
    3eb3:	c7 45 d4 03 00 00 00 	movl   $0x3,-0x2c(%ebp)
    3eba:	8d 7d dc             	lea    -0x24(%ebp),%edi
    3ebd:	8d 75 e0             	lea    -0x20(%ebp),%esi
    3ec0:	83 ec 0c             	sub    $0xc,%esp
    3ec3:	57                   	push   %edi
    3ec4:	6a 08                	push   $0x8
    3ec6:	56                   	push   %esi
    3ec7:	6a 00                	push   $0x0
    3ec9:	6a 00                	push   $0x0
    3ecb:	6a 01                	push   $0x1
    3ecd:	6a 00                	push   $0x0
    3ecf:	6a 00                	push   $0x0
    3ed1:	53                   	push   %ebx
    3ed2:	e8 a9 13 00 00       	call   5280 <usb_request_get_descriptor>
    3ed7:	83 c4 30             	add    $0x30,%esp
    3eda:	85 c0                	test   %eax,%eax
    3edc:	75 0b                	jne    3ee9 <usb_pipe_probe_default_control+0x59>
    3ede:	83 7d dc 08          	cmpl   $0x8,-0x24(%ebp)
    3ee2:	74 14                	je     3ef8 <usb_pipe_probe_default_control+0x68>
    3ee4:	b8 fd ff ff ff       	mov    $0xfffffffd,%eax
    3ee9:	ff 4d d4             	decl   -0x2c(%ebp)
    3eec:	75 d2                	jne    3ec0 <usb_pipe_probe_default_control+0x30>
    3eee:	8d 65 f4             	lea    -0xc(%ebp),%esp
    3ef1:	5b                   	pop    %ebx
    3ef2:	5e                   	pop    %esi
    3ef3:	5f                   	pop    %edi
    3ef4:	5d                   	pop    %ebp
    3ef5:	c3                   	ret    
    3ef6:	66 90                	xchg   %ax,%ax
    3ef8:	31 c9                	xor    %ecx,%ecx
    3efa:	8a 4d e7             	mov    -0x19(%ebp),%cl
    3efd:	89 4b 0c             	mov    %ecx,0xc(%ebx)
    3f00:	8d 65 f4             	lea    -0xc(%ebp),%esp
    3f03:	5b                   	pop    %ebx
    3f04:	5e                   	pop    %esi
    3f05:	5f                   	pop    %edi
    3f06:	5d                   	pop    %ebp
    3f07:	c3                   	ret    
    3f08:	8d 65 f4             	lea    -0xc(%ebp),%esp
    3f0b:	b8 f2 ff ff ff       	mov    $0xfffffff2,%eax
    3f10:	5b                   	pop    %ebx
    3f11:	5e                   	pop    %esi
    3f12:	5f                   	pop    %edi
    3f13:	5d                   	pop    %ebp
    3f14:	c3                   	ret    
    3f15:	52                   	push   %edx
    3f16:	68 56 01 00 00       	push   $0x156
    3f1b:	68 0e fb 00 00       	push   $0xfb0e
    3f20:	68 c7 fb 00 00       	push   $0xfbc7
    3f25:	e8 46 df 00 00       	call   11e70 <assert_abort@plt>
    3f2a:	66 90                	xchg   %ax,%ax
    3f2c:	66 90                	xchg   %ax,%ax
    3f2e:	66 90                	xchg   %ax,%ax

00003f30 <usb_device_create_match_ids_from_interface>:
    3f30:	55                   	push   %ebp
    3f31:	89 e5                	mov    %esp,%ebp
    3f33:	57                   	push   %edi
    3f34:	56                   	push   %esi
    3f35:	53                   	push   %ebx
    3f36:	83 ec 2c             	sub    $0x2c,%esp
    3f39:	8b 75 0c             	mov    0xc(%ebp),%esi
    3f3c:	8b 5d 10             	mov    0x10(%ebp),%ebx
    3f3f:	85 f6                	test   %esi,%esi
    3f41:	0f 84 11 08 00 00    	je     4758 <usb_device_create_match_ids_from_interface+0x828>
    3f47:	85 db                	test   %ebx,%ebx
    3f49:	0f 84 09 08 00 00    	je     4758 <usb_device_create_match_ids_from_interface+0x828>
    3f4f:	8a 46 05             	mov    0x5(%esi),%al
    3f52:	84 c0                	test   %al,%al
    3f54:	0f 84 be 04 00 00    	je     4418 <usb_device_create_match_ids_from_interface+0x4e8>
    3f5a:	83 ec 0c             	sub    $0xc,%esp
    3f5d:	25 ff 00 00 00       	and    $0xff,%eax
    3f62:	50                   	push   %eax
    3f63:	e8 18 23 00 00       	call   6280 <usb_str_class>
    3f68:	83 c4 10             	add    $0x10,%esp
    3f6b:	89 c7                	mov    %eax,%edi
    3f6d:	85 c0                	test   %eax,%eax
    3f6f:	0f 84 02 09 00 00    	je     4877 <usb_device_create_match_ids_from_interface+0x947>
    3f75:	8b 45 08             	mov    0x8(%ebp),%eax
    3f78:	85 c0                	test   %eax,%eax
    3f7a:	0f 84 d0 04 00 00    	je     4450 <usb_device_create_match_ids_from_interface+0x520>
    3f80:	8b 45 08             	mov    0x8(%ebp),%eax
    3f83:	8d 4d e4             	lea    -0x1c(%ebp),%ecx
    3f86:	89 4d d4             	mov    %ecx,-0x2c(%ebp)
    3f89:	66 8b 40 08          	mov    0x8(%eax),%ax
    3f8d:	66 85 c0             	test   %ax,%ax
    3f90:	0f 85 4a 02 00 00    	jne    41e0 <usb_device_create_match_ids_from_interface+0x2b0>
    3f96:	83 ec 0c             	sub    $0xc,%esp
    3f99:	31 c0                	xor    %eax,%eax
    3f9b:	8a 46 07             	mov    0x7(%esi),%al
    3f9e:	c7 45 e4 00 00 00 00 	movl   $0x0,-0x1c(%ebp)
    3fa5:	50                   	push   %eax
    3fa6:	31 c0                	xor    %eax,%eax
    3fa8:	8a 46 06             	mov    0x6(%esi),%al
    3fab:	50                   	push   %eax
    3fac:	8b 45 d4             	mov    -0x2c(%ebp),%eax
    3faf:	57                   	push   %edi
    3fb0:	68 64 fe 00 00       	push   $0xfe64
    3fb5:	50                   	push   %eax
    3fb6:	e8 35 e0 00 00       	call   11ff0 <asprintf@plt>
    3fbb:	83 c4 20             	add    $0x20,%esp
    3fbe:	83 f8 00             	cmp    $0x0,%eax
    3fc1:	0f 8e d1 01 00 00    	jle    4198 <usb_device_create_match_ids_from_interface+0x268>
    3fc7:	83 ec 0c             	sub    $0xc,%esp
    3fca:	8b 4d e4             	mov    -0x1c(%ebp),%ecx
    3fcd:	89 4d cc             	mov    %ecx,-0x34(%ebp)
    3fd0:	6a 10                	push   $0x10
    3fd2:	e8 e9 dd 00 00       	call   11dc0 <malloc@plt>
    3fd7:	83 c4 0c             	add    $0xc,%esp
    3fda:	89 45 d0             	mov    %eax,-0x30(%ebp)
    3fdd:	6a 10                	push   $0x10
    3fdf:	6a 00                	push   $0x0
    3fe1:	50                   	push   %eax
    3fe2:	e8 b9 df 00 00       	call   11fa0 <memset@plt>
    3fe7:	8b 55 d0             	mov    -0x30(%ebp),%edx
    3fea:	8b 4d cc             	mov    -0x34(%ebp),%ecx
    3fed:	8b 43 04             	mov    0x4(%ebx),%eax
    3ff0:	83 c4 10             	add    $0x10,%esp
    3ff3:	89 4a 08             	mov    %ecx,0x8(%edx)
    3ff6:	c7 42 0c a0 00 00 00 	movl   $0xa0,0xc(%edx)
    3ffd:	89 d9                	mov    %ebx,%ecx
    3fff:	39 c3                	cmp    %eax,%ebx
    4001:	75 0c                	jne    400f <usb_device_create_match_ids_from_interface+0xdf>
    4003:	e9 cb 07 00 00       	jmp    47d3 <usb_device_create_match_ids_from_interface+0x8a3>
    4008:	8b 40 04             	mov    0x4(%eax),%eax
    400b:	39 c3                	cmp    %eax,%ebx
    400d:	74 0b                	je     401a <usb_device_create_match_ids_from_interface+0xea>
    400f:	81 78 0c 9f 00 00 00 	cmpl   $0x9f,0xc(%eax)
    4016:	77 f0                	ja     4008 <usb_device_create_match_ids_from_interface+0xd8>
    4018:	89 c1                	mov    %eax,%ecx
    401a:	8b 01                	mov    (%ecx),%eax
    401c:	89 4a 04             	mov    %ecx,0x4(%edx)
    401f:	89 02                	mov    %eax,(%edx)
    4021:	8b 01                	mov    (%ecx),%eax
    4023:	89 50 04             	mov    %edx,0x4(%eax)
    4026:	89 11                	mov    %edx,(%ecx)
    4028:	31 c0                	xor    %eax,%eax
    402a:	c7 45 e4 00 00 00 00 	movl   $0x0,-0x1c(%ebp)
    4031:	8a 46 06             	mov    0x6(%esi),%al
    4034:	50                   	push   %eax
    4035:	8b 45 d4             	mov    -0x2c(%ebp),%eax
    4038:	57                   	push   %edi
    4039:	68 3c fe 00 00       	push   $0xfe3c
    403e:	50                   	push   %eax
    403f:	e8 ac df 00 00       	call   11ff0 <asprintf@plt>
    4044:	83 c4 10             	add    $0x10,%esp
    4047:	83 f8 00             	cmp    $0x0,%eax
    404a:	0f 8e b8 03 00 00    	jle    4408 <usb_device_create_match_ids_from_interface+0x4d8>
    4050:	83 ec 0c             	sub    $0xc,%esp
    4053:	8b 55 e4             	mov    -0x1c(%ebp),%edx
    4056:	89 55 d0             	mov    %edx,-0x30(%ebp)
    4059:	6a 10                	push   $0x10
    405b:	e8 60 dd 00 00       	call   11dc0 <malloc@plt>
    4060:	83 c4 0c             	add    $0xc,%esp
    4063:	89 c6                	mov    %eax,%esi
    4065:	6a 10                	push   $0x10
    4067:	6a 00                	push   $0x0
    4069:	50                   	push   %eax
    406a:	e8 31 df 00 00       	call   11fa0 <memset@plt>
    406f:	8b 55 d0             	mov    -0x30(%ebp),%edx
    4072:	8b 43 04             	mov    0x4(%ebx),%eax
    4075:	89 56 08             	mov    %edx,0x8(%esi)
    4078:	83 c4 10             	add    $0x10,%esp
    407b:	c7 46 0c 96 00 00 00 	movl   $0x96,0xc(%esi)
    4082:	89 da                	mov    %ebx,%edx
    4084:	39 c3                	cmp    %eax,%ebx
    4086:	0f 85 3f 01 00 00    	jne    41cb <usb_device_create_match_ids_from_interface+0x29b>
    408c:	89 da                	mov    %ebx,%edx
    408e:	66 90                	xchg   %ax,%ax
    4090:	8b 02                	mov    (%edx),%eax
    4092:	89 56 04             	mov    %edx,0x4(%esi)
    4095:	89 06                	mov    %eax,(%esi)
    4097:	8b 02                	mov    (%edx),%eax
    4099:	89 70 04             	mov    %esi,0x4(%eax)
    409c:	89 32                	mov    %esi,(%edx)
    409e:	50                   	push   %eax
    409f:	8b 45 d4             	mov    -0x2c(%ebp),%eax
    40a2:	57                   	push   %edi
    40a3:	c7 45 e4 00 00 00 00 	movl   $0x0,-0x1c(%ebp)
    40aa:	68 72 fb 00 00       	push   $0xfb72
    40af:	50                   	push   %eax
    40b0:	e8 3b df 00 00       	call   11ff0 <asprintf@plt>
    40b5:	83 c4 10             	add    $0x10,%esp
    40b8:	83 f8 00             	cmp    $0x0,%eax
    40bb:	0f 8e 27 03 00 00    	jle    43e8 <usb_device_create_match_ids_from_interface+0x4b8>
    40c1:	83 ec 0c             	sub    $0xc,%esp
    40c4:	8b 7d e4             	mov    -0x1c(%ebp),%edi
    40c7:	6a 10                	push   $0x10
    40c9:	e8 f2 dc 00 00       	call   11dc0 <malloc@plt>
    40ce:	83 c4 0c             	add    $0xc,%esp
    40d1:	89 c6                	mov    %eax,%esi
    40d3:	6a 10                	push   $0x10
    40d5:	6a 00                	push   $0x0
    40d7:	50                   	push   %eax
    40d8:	e8 c3 de 00 00       	call   11fa0 <memset@plt>
    40dd:	8b 43 04             	mov    0x4(%ebx),%eax
    40e0:	83 c4 10             	add    $0x10,%esp
    40e3:	89 7e 08             	mov    %edi,0x8(%esi)
    40e6:	c7 46 0c 8c 00 00 00 	movl   $0x8c,0xc(%esi)
    40ed:	89 da                	mov    %ebx,%edx
    40ef:	39 c3                	cmp    %eax,%ebx
    40f1:	75 0c                	jne    40ff <usb_device_create_match_ids_from_interface+0x1cf>
    40f3:	e9 55 07 00 00       	jmp    484d <usb_device_create_match_ids_from_interface+0x91d>
    40f8:	8b 40 04             	mov    0x4(%eax),%eax
    40fb:	39 c3                	cmp    %eax,%ebx
    40fd:	74 0b                	je     410a <usb_device_create_match_ids_from_interface+0x1da>
    40ff:	81 78 0c 8b 00 00 00 	cmpl   $0x8b,0xc(%eax)
    4106:	77 f0                	ja     40f8 <usb_device_create_match_ids_from_interface+0x1c8>
    4108:	89 c2                	mov    %eax,%edx
    410a:	8b 02                	mov    (%edx),%eax
    410c:	89 56 04             	mov    %edx,0x4(%esi)
    410f:	89 06                	mov    %eax,(%esi)
    4111:	8b 02                	mov    (%edx),%eax
    4113:	89 70 04             	mov    %esi,0x4(%eax)
    4116:	89 32                	mov    %esi,(%edx)
    4118:	8b 75 d4             	mov    -0x2c(%ebp),%esi
    411b:	c7 45 e4 00 00 00 00 	movl   $0x0,-0x1c(%ebp)
    4122:	51                   	push   %ecx
    4123:	51                   	push   %ecx
    4124:	68 89 fb 00 00       	push   $0xfb89
    4129:	56                   	push   %esi
    412a:	e8 c1 de 00 00       	call   11ff0 <asprintf@plt>
    412f:	83 c4 10             	add    $0x10,%esp
    4132:	83 f8 00             	cmp    $0x0,%eax
    4135:	0f 8e e5 02 00 00    	jle    4420 <usb_device_create_match_ids_from_interface+0x4f0>
    413b:	83 ec 0c             	sub    $0xc,%esp
    413e:	8b 7d e4             	mov    -0x1c(%ebp),%edi
    4141:	6a 10                	push   $0x10
    4143:	e8 78 dc 00 00       	call   11dc0 <malloc@plt>
    4148:	83 c4 0c             	add    $0xc,%esp
    414b:	89 c6                	mov    %eax,%esi
    414d:	6a 10                	push   $0x10
    414f:	6a 00                	push   $0x0
    4151:	50                   	push   %eax
    4152:	e8 49 de 00 00       	call   11fa0 <memset@plt>
    4157:	8b 43 04             	mov    0x4(%ebx),%eax
    415a:	83 c4 10             	add    $0x10,%esp
    415d:	89 7e 08             	mov    %edi,0x8(%esi)
    4160:	c7 46 0c 0a 00 00 00 	movl   $0xa,0xc(%esi)
    4167:	89 da                	mov    %ebx,%edx
    4169:	39 d8                	cmp    %ebx,%eax
    416b:	75 0a                	jne    4177 <usb_device_create_match_ids_from_interface+0x247>
    416d:	eb 10                	jmp    417f <usb_device_create_match_ids_from_interface+0x24f>
    416f:	90                   	nop
    4170:	8b 40 04             	mov    0x4(%eax),%eax
    4173:	39 d8                	cmp    %ebx,%eax
    4175:	74 08                	je     417f <usb_device_create_match_ids_from_interface+0x24f>
    4177:	83 78 0c 09          	cmpl   $0x9,0xc(%eax)
    417b:	77 f3                	ja     4170 <usb_device_create_match_ids_from_interface+0x240>
    417d:	89 c2                	mov    %eax,%edx
    417f:	8b 02                	mov    (%edx),%eax
    4181:	89 56 04             	mov    %edx,0x4(%esi)
    4184:	89 06                	mov    %eax,(%esi)
    4186:	8b 02                	mov    (%edx),%eax
    4188:	89 70 04             	mov    %esi,0x4(%eax)
    418b:	89 32                	mov    %esi,(%edx)
    418d:	8d 65 f4             	lea    -0xc(%ebp),%esp
    4190:	31 c0                	xor    %eax,%eax
    4192:	5b                   	pop    %ebx
    4193:	5e                   	pop    %esi
    4194:	5f                   	pop    %edi
    4195:	5d                   	pop    %ebp
    4196:	c3                   	ret    
    4197:	90                   	nop
    4198:	89 45 d0             	mov    %eax,-0x30(%ebp)
    419b:	0f 84 87 fe ff ff    	je     4028 <usb_device_create_match_ids_from_interface+0xf8>
    41a1:	83 ec 0c             	sub    $0xc,%esp
    41a4:	8b 7d e4             	mov    -0x1c(%ebp),%edi
    41a7:	57                   	push   %edi
    41a8:	e8 a3 df 00 00       	call   12150 <free@plt>
    41ad:	83 c4 10             	add    $0x10,%esp
    41b0:	8b 45 d0             	mov    -0x30(%ebp),%eax
    41b3:	8d 65 f4             	lea    -0xc(%ebp),%esp
    41b6:	5b                   	pop    %ebx
    41b7:	5e                   	pop    %esi
    41b8:	5f                   	pop    %edi
    41b9:	5d                   	pop    %ebp
    41ba:	c3                   	ret    
    41bb:	90                   	nop
    41bc:	8d 74 26 00          	lea    0x0(%esi,%eiz,1),%esi
    41c0:	8b 40 04             	mov    0x4(%eax),%eax
    41c3:	39 c3                	cmp    %eax,%ebx
    41c5:	0f 84 c5 fe ff ff    	je     4090 <usb_device_create_match_ids_from_interface+0x160>
    41cb:	81 78 0c 95 00 00 00 	cmpl   $0x95,0xc(%eax)
    41d2:	77 ec                	ja     41c0 <usb_device_create_match_ids_from_interface+0x290>
    41d4:	89 c2                	mov    %eax,%edx
    41d6:	e9 b5 fe ff ff       	jmp    4090 <usb_device_create_match_ids_from_interface+0x160>
    41db:	90                   	nop
    41dc:	8d 74 26 00          	lea    0x0(%esi,%eiz,1),%esi
    41e0:	8b 4d 08             	mov    0x8(%ebp),%ecx
    41e3:	83 ec 0c             	sub    $0xc,%esp
    41e6:	25 ff ff 00 00       	and    $0xffff,%eax
    41eb:	c7 45 e4 00 00 00 00 	movl   $0x0,-0x1c(%ebp)
    41f2:	66 8b 51 0c          	mov    0xc(%ecx),%dx
    41f6:	31 c9                	xor    %ecx,%ecx
    41f8:	8a 4e 07             	mov    0x7(%esi),%cl
    41fb:	51                   	push   %ecx
    41fc:	31 c9                	xor    %ecx,%ecx
    41fe:	8a 4e 06             	mov    0x6(%esi),%cl
    4201:	51                   	push   %ecx
    4202:	31 c9                	xor    %ecx,%ecx
    4204:	88 d1                	mov    %dl,%cl
    4206:	57                   	push   %edi
    4207:	0f b6 d6             	movzbl %dh,%edx
    420a:	51                   	push   %ecx
    420b:	8b 4d 08             	mov    0x8(%ebp),%ecx
    420e:	52                   	push   %edx
    420f:	31 d2                	xor    %edx,%edx
    4211:	66 8b 51 0a          	mov    0xa(%ecx),%dx
    4215:	52                   	push   %edx
    4216:	50                   	push   %eax
    4217:	8b 45 d4             	mov    -0x2c(%ebp),%eax
    421a:	68 cc fb 00 00       	push   $0xfbcc
    421f:	50                   	push   %eax
    4220:	e8 cb dd 00 00       	call   11ff0 <asprintf@plt>
    4225:	83 c4 30             	add    $0x30,%esp
    4228:	83 f8 00             	cmp    $0x0,%eax
    422b:	0f 8e c7 01 00 00    	jle    43f8 <usb_device_create_match_ids_from_interface+0x4c8>
    4231:	83 ec 0c             	sub    $0xc,%esp
    4234:	8b 4d e4             	mov    -0x1c(%ebp),%ecx
    4237:	89 4d cc             	mov    %ecx,-0x34(%ebp)
    423a:	6a 10                	push   $0x10
    423c:	e8 7f db 00 00       	call   11dc0 <malloc@plt>
    4241:	83 c4 0c             	add    $0xc,%esp
    4244:	89 45 d0             	mov    %eax,-0x30(%ebp)
    4247:	6a 10                	push   $0x10
    4249:	6a 00                	push   $0x0
    424b:	50                   	push   %eax
    424c:	e8 4f dd 00 00       	call   11fa0 <memset@plt>
    4251:	8b 55 d0             	mov    -0x30(%ebp),%edx
    4254:	8b 4d cc             	mov    -0x34(%ebp),%ecx
    4257:	8b 43 04             	mov    0x4(%ebx),%eax
    425a:	83 c4 10             	add    $0x10,%esp
    425d:	89 4a 08             	mov    %ecx,0x8(%edx)
    4260:	c7 42 0c fa 00 00 00 	movl   $0xfa,0xc(%edx)
    4267:	89 d9                	mov    %ebx,%ecx
    4269:	39 d8                	cmp    %ebx,%eax
    426b:	75 0a                	jne    4277 <usb_device_create_match_ids_from_interface+0x347>
    426d:	eb 13                	jmp    4282 <usb_device_create_match_ids_from_interface+0x352>
    426f:	90                   	nop
    4270:	8b 40 04             	mov    0x4(%eax),%eax
    4273:	39 d8                	cmp    %ebx,%eax
    4275:	74 0b                	je     4282 <usb_device_create_match_ids_from_interface+0x352>
    4277:	81 78 0c f9 00 00 00 	cmpl   $0xf9,0xc(%eax)
    427e:	77 f0                	ja     4270 <usb_device_create_match_ids_from_interface+0x340>
    4280:	89 c1                	mov    %eax,%ecx
    4282:	8b 01                	mov    (%ecx),%eax
    4284:	89 4a 04             	mov    %ecx,0x4(%edx)
    4287:	89 02                	mov    %eax,(%edx)
    4289:	8b 01                	mov    (%ecx),%eax
    428b:	89 50 04             	mov    %edx,0x4(%eax)
    428e:	89 11                	mov    %edx,(%ecx)
    4290:	8b 45 08             	mov    0x8(%ebp),%eax
    4293:	31 d2                	xor    %edx,%edx
    4295:	8a 56 06             	mov    0x6(%esi),%dl
    4298:	8b 4d 08             	mov    0x8(%ebp),%ecx
    429b:	66 8b 40 0c          	mov    0xc(%eax),%ax
    429f:	52                   	push   %edx
    42a0:	31 d2                	xor    %edx,%edx
    42a2:	57                   	push   %edi
    42a3:	88 c2                	mov    %al,%dl
    42a5:	c7 45 e4 00 00 00 00 	movl   $0x0,-0x1c(%ebp)
    42ac:	0f b6 c4             	movzbl %ah,%eax
    42af:	52                   	push   %edx
    42b0:	50                   	push   %eax
    42b1:	31 c0                	xor    %eax,%eax
    42b3:	66 8b 41 0a          	mov    0xa(%ecx),%ax
    42b7:	50                   	push   %eax
    42b8:	31 c0                	xor    %eax,%eax
    42ba:	66 8b 41 08          	mov    0x8(%ecx),%ax
    42be:	50                   	push   %eax
    42bf:	8b 45 d4             	mov    -0x2c(%ebp),%eax
    42c2:	68 30 fc 00 00       	push   $0xfc30
    42c7:	50                   	push   %eax
    42c8:	e8 23 dd 00 00       	call   11ff0 <asprintf@plt>
    42cd:	83 c4 20             	add    $0x20,%esp
    42d0:	83 f8 00             	cmp    $0x0,%eax
    42d3:	0f 8e 67 01 00 00    	jle    4440 <usb_device_create_match_ids_from_interface+0x510>
    42d9:	83 ec 0c             	sub    $0xc,%esp
    42dc:	8b 4d e4             	mov    -0x1c(%ebp),%ecx
    42df:	89 4d cc             	mov    %ecx,-0x34(%ebp)
    42e2:	6a 10                	push   $0x10
    42e4:	e8 d7 da 00 00       	call   11dc0 <malloc@plt>
    42e9:	83 c4 0c             	add    $0xc,%esp
    42ec:	89 45 d0             	mov    %eax,-0x30(%ebp)
    42ef:	6a 10                	push   $0x10
    42f1:	6a 00                	push   $0x0
    42f3:	50                   	push   %eax
    42f4:	e8 a7 dc 00 00       	call   11fa0 <memset@plt>
    42f9:	8b 55 d0             	mov    -0x30(%ebp),%edx
    42fc:	8b 4d cc             	mov    -0x34(%ebp),%ecx
    42ff:	8b 43 04             	mov    0x4(%ebx),%eax
    4302:	83 c4 10             	add    $0x10,%esp
    4305:	89 4a 08             	mov    %ecx,0x8(%edx)
    4308:	c7 42 0c f0 00 00 00 	movl   $0xf0,0xc(%edx)
    430f:	89 d9                	mov    %ebx,%ecx
    4311:	39 d8                	cmp    %ebx,%eax
    4313:	75 0a                	jne    431f <usb_device_create_match_ids_from_interface+0x3ef>
    4315:	eb 13                	jmp    432a <usb_device_create_match_ids_from_interface+0x3fa>
    4317:	90                   	nop
    4318:	8b 40 04             	mov    0x4(%eax),%eax
    431b:	39 d8                	cmp    %ebx,%eax
    431d:	74 0b                	je     432a <usb_device_create_match_ids_from_interface+0x3fa>
    431f:	81 78 0c ef 00 00 00 	cmpl   $0xef,0xc(%eax)
    4326:	77 f0                	ja     4318 <usb_device_create_match_ids_from_interface+0x3e8>
    4328:	89 c1                	mov    %eax,%ecx
    432a:	8b 01                	mov    (%ecx),%eax
    432c:	89 4a 04             	mov    %ecx,0x4(%edx)
    432f:	89 02                	mov    %eax,(%edx)
    4331:	8b 01                	mov    (%ecx),%eax
    4333:	89 50 04             	mov    %edx,0x4(%eax)
    4336:	89 11                	mov    %edx,(%ecx)
    4338:	8b 45 08             	mov    0x8(%ebp),%eax
    433b:	8b 4d 08             	mov    0x8(%ebp),%ecx
    433e:	c7 45 e4 00 00 00 00 	movl   $0x0,-0x1c(%ebp)
    4345:	66 8b 40 0c          	mov    0xc(%eax),%ax
    4349:	52                   	push   %edx
    434a:	31 d2                	xor    %edx,%edx
    434c:	57                   	push   %edi
    434d:	88 c2                	mov    %al,%dl
    434f:	0f b6 c4             	movzbl %ah,%eax
    4352:	52                   	push   %edx
    4353:	50                   	push   %eax
    4354:	31 c0                	xor    %eax,%eax
    4356:	66 8b 41 0a          	mov    0xa(%ecx),%ax
    435a:	50                   	push   %eax
    435b:	31 c0                	xor    %eax,%eax
    435d:	66 8b 41 08          	mov    0x8(%ecx),%ax
    4361:	8b 4d d4             	mov    -0x2c(%ebp),%ecx
    4364:	50                   	push   %eax
    4365:	68 84 fc 00 00       	push   $0xfc84
    436a:	51                   	push   %ecx
    436b:	e8 80 dc 00 00       	call   11ff0 <asprintf@plt>
    4370:	83 c4 20             	add    $0x20,%esp
    4373:	83 f8 00             	cmp    $0x0,%eax
    4376:	0f 8e e4 00 00 00    	jle    4460 <usb_device_create_match_ids_from_interface+0x530>
    437c:	83 ec 0c             	sub    $0xc,%esp
    437f:	8b 4d e4             	mov    -0x1c(%ebp),%ecx
    4382:	89 4d cc             	mov    %ecx,-0x34(%ebp)
