
ns:     file format elf32-i386


Disassembly of section .init:

000010b4 <__entry>:
    10b4:	66 8c d0             	mov    %ss,%ax
    10b7:	8e d8                	mov    %eax,%ds
    10b9:	8e c0                	mov    %eax,%es
    10bb:	8e e0                	mov    %eax,%fs
    10bd:	b8 01 00 00 00       	mov    $0x1,%eax
    10c2:	0f a2                	cpuid  
    10c4:	0f ba e2 0b          	bt     $0xb,%edx
    10c8:	73 0c                	jae    10d6 <__entry+0x22>
    10ca:	8d 05 c8 73 02 00    	lea    0x273c8,%eax
    10d0:	c7 00 bd 80 01 00    	movl   $0x180bd,(%eax)
    10d6:	6a 00                	push   $0x0
    10d8:	6a 00                	push   $0x0
    10da:	89 e5                	mov    %esp,%ebp
    10dc:	57                   	push   %edi
    10dd:	e8 3e 0b 00 00       	call   1c20 <__main>

Disassembly of section .text:

00001100 <main>:
    1100:	8d 4c 24 04          	lea    0x4(%esp),%ecx
    1104:	83 e4 f0             	and    $0xfffffff0,%esp
    1107:	ff 71 fc             	pushl  -0x4(%ecx)
    110a:	55                   	push   %ebp
    110b:	89 e5                	mov    %esp,%ebp
    110d:	57                   	push   %edi
    110e:	56                   	push   %esi
    110f:	53                   	push   %ebx
    1110:	51                   	push   %ecx
    1111:	83 ec 50             	sub    $0x50,%esp
    1114:	68 86 39 02 00       	push   $0x23986
    1119:	68 a4 39 02 00       	push   $0x239a4
    111e:	e8 cd 4a 00 00       	call   5bf0 <printf>
    1123:	e8 d8 01 00 00       	call   1300 <service_init>
    1128:	83 c4 10             	add    $0x10,%esp
    112b:	85 c0                	test   %eax,%eax
    112d:	74 0c                	je     113b <main+0x3b>
    112f:	8d 65 f0             	lea    -0x10(%ebp),%esp
    1132:	59                   	pop    %ecx
    1133:	5b                   	pop    %ebx
    1134:	5e                   	pop    %esi
    1135:	5f                   	pop    %edi
    1136:	5d                   	pop    %ebp
    1137:	8d 61 fc             	lea    -0x4(%ecx),%esp
    113a:	c3                   	ret    
    113b:	e8 e0 03 00 00       	call   1520 <clonable_init>
    1140:	85 c0                	test   %eax,%eax
    1142:	75 eb                	jne    112f <main+0x2f>
    1144:	e8 87 06 00 00       	call   17d0 <task_init>
    1149:	85 c0                	test   %eax,%eax
    114b:	75 e2                	jne    112f <main+0x2f>
    114d:	52                   	push   %edx
    114e:	52                   	push   %edx
    114f:	68 86 39 02 00       	push   $0x23986
    1154:	68 89 39 02 00       	push   $0x23989
    1159:	8d 75 c4             	lea    -0x3c(%ebp),%esi
    115c:	e8 8f 4a 00 00       	call   5bf0 <printf>
    1161:	83 c4 10             	add    $0x10,%esp
    1164:	8d 74 26 00          	lea    0x0(%esi,%eiz,1),%esi
    1168:	e8 f3 01 00 00       	call   1360 <process_pending_conn>
    116d:	50                   	push   %eax
    116e:	50                   	push   %eax
    116f:	6a 00                	push   $0x0
    1171:	56                   	push   %esi
    1172:	e8 69 b3 00 00       	call   c4e0 <ipc_wait_for_call_timeout>
    1177:	83 c4 10             	add    $0x10,%esp
    117a:	89 c3                	mov    %eax,%ebx
    117c:	8b 45 c4             	mov    -0x3c(%ebp),%eax
    117f:	3d 00 04 00 00       	cmp    $0x400,%eax
    1184:	74 72                	je     11f8 <main+0xf8>
    1186:	77 38                	ja     11c0 <main+0xc0>
    1188:	83 f8 03             	cmp    $0x3,%eax
    118b:	0f 84 9f 00 00 00    	je     1230 <main+0x130>
    1191:	83 f8 04             	cmp    $0x4,%eax
    1194:	74 6a                	je     1200 <main+0x100>
    1196:	85 c0                	test   %eax,%eax
    1198:	74 4e                	je     11e8 <main+0xe8>
    119a:	83 c8 ff             	or     $0xffffffff,%eax
    119d:	8d 76 00             	lea    0x0(%esi),%esi
    11a0:	f6 c3 02             	test   $0x2,%bl
    11a3:	75 c3                	jne    1168 <main+0x68>
    11a5:	52                   	push   %edx
    11a6:	52                   	push   %edx
    11a7:	6a 00                	push   $0x0
    11a9:	6a 00                	push   $0x0
    11ab:	6a 00                	push   $0x0
    11ad:	6a 00                	push   $0x0
    11af:	50                   	push   %eax
    11b0:	53                   	push   %ebx
    11b1:	e8 3a af 00 00       	call   c0f0 <ipc_answer_fast>
    11b6:	83 c4 20             	add    $0x20,%esp
    11b9:	eb ad                	jmp    1168 <main+0x68>
    11bb:	90                   	nop
    11bc:	8d 74 26 00          	lea    0x0(%esi,%eiz,1),%esi
    11c0:	3d 02 04 00 00       	cmp    $0x402,%eax
    11c5:	0f 84 ad 00 00 00    	je     1278 <main+0x178>
    11cb:	0f 82 8f 00 00 00    	jb     1260 <main+0x160>
    11d1:	3d 03 04 00 00       	cmp    $0x403,%eax
    11d6:	75 c2                	jne    119a <main+0x9a>
    11d8:	83 ec 0c             	sub    $0xc,%esp
    11db:	56                   	push   %esi
    11dc:	e8 af 08 00 00       	call   1a90 <ns_task_retval>
    11e1:	83 c4 10             	add    $0x10,%esp
    11e4:	eb ba                	jmp    11a0 <main+0xa0>
    11e6:	66 90                	xchg   %ax,%ax
    11e8:	83 ec 0c             	sub    $0xc,%esp
    11eb:	56                   	push   %esi
    11ec:	e8 1f 09 00 00       	call   1b10 <ns_task_disconnect>
    11f1:	83 c4 10             	add    $0x10,%esp
    11f4:	eb aa                	jmp    11a0 <main+0xa0>
    11f6:	66 90                	xchg   %ax,%ax
    11f8:	31 c0                	xor    %eax,%eax
    11fa:	eb a4                	jmp    11a0 <main+0xa0>
    11fc:	8d 74 26 00          	lea    0x0(%esi,%eiz,1),%esi
    1200:	83 ec 0c             	sub    $0xc,%esp
    1203:	8b 45 c8             	mov    -0x38(%ebp),%eax
    1206:	8b 7d cc             	mov    -0x34(%ebp),%edi
    1209:	89 45 b4             	mov    %eax,-0x4c(%ebp)
    120c:	57                   	push   %edi
    120d:	e8 2e 03 00 00       	call   1540 <service_clonable>
    1212:	83 c4 10             	add    $0x10,%esp
    1215:	84 c0                	test   %al,%al
    1217:	74 77                	je     1290 <main+0x190>
    1219:	8b 45 b4             	mov    -0x4c(%ebp),%eax
    121c:	53                   	push   %ebx
    121d:	56                   	push   %esi
    121e:	50                   	push   %eax
    121f:	57                   	push   %edi
    1220:	e8 0b 04 00 00       	call   1630 <connect_to_clonable>
    1225:	83 c4 10             	add    $0x10,%esp
    1228:	e9 3b ff ff ff       	jmp    1168 <main+0x68>
    122d:	8d 76 00             	lea    0x0(%esi),%esi
    1230:	83 ec 0c             	sub    $0xc,%esp
    1233:	8b 7d cc             	mov    -0x34(%ebp),%edi
    1236:	8b 45 d8             	mov    -0x28(%ebp),%eax
    1239:	57                   	push   %edi
    123a:	89 45 b4             	mov    %eax,-0x4c(%ebp)
    123d:	e8 fe 02 00 00       	call   1540 <service_clonable>
    1242:	83 c4 10             	add    $0x10,%esp
    1245:	84 c0                	test   %al,%al
    1247:	74 5f                	je     12a8 <main+0x1a8>
    1249:	8b 45 b4             	mov    -0x4c(%ebp),%eax
    124c:	53                   	push   %ebx
    124d:	56                   	push   %esi
    124e:	50                   	push   %eax
    124f:	57                   	push   %edi
    1250:	e8 fb 02 00 00       	call   1550 <register_clonable>
    1255:	83 c4 10             	add    $0x10,%esp
    1258:	e9 0b ff ff ff       	jmp    1168 <main+0x68>
    125d:	8d 76 00             	lea    0x0(%esi),%esi
    1260:	53                   	push   %ebx
    1261:	8b 4d cc             	mov    -0x34(%ebp),%ecx
    1264:	8b 5d c8             	mov    -0x38(%ebp),%ebx
    1267:	56                   	push   %esi
    1268:	51                   	push   %ecx
    1269:	53                   	push   %ebx
    126a:	e8 71 06 00 00       	call   18e0 <wait_for_task>
    126f:	83 c4 10             	add    $0x10,%esp
    1272:	e9 f1 fe ff ff       	jmp    1168 <main+0x68>
    1277:	90                   	nop
    1278:	83 ec 0c             	sub    $0xc,%esp
    127b:	56                   	push   %esi
    127c:	e8 3f 07 00 00       	call   19c0 <ns_task_id_intro>
    1281:	83 c4 10             	add    $0x10,%esp
    1284:	e9 17 ff ff ff       	jmp    11a0 <main+0xa0>
    1289:	8d b4 26 00 00 00 00 	lea    0x0(%esi,%eiz,1),%esi
    1290:	8b 45 b4             	mov    -0x4c(%ebp),%eax
    1293:	53                   	push   %ebx
    1294:	56                   	push   %esi
    1295:	50                   	push   %eax
    1296:	57                   	push   %edi
    1297:	e8 c4 01 00 00       	call   1460 <connect_to_service>
    129c:	83 c4 10             	add    $0x10,%esp
    129f:	e9 c4 fe ff ff       	jmp    1168 <main+0x68>
    12a4:	8d 74 26 00          	lea    0x0(%esi,%eiz,1),%esi
    12a8:	50                   	push   %eax
    12a9:	8b 45 b4             	mov    -0x4c(%ebp),%eax
    12ac:	56                   	push   %esi
    12ad:	50                   	push   %eax
    12ae:	57                   	push   %edi
    12af:	e8 3c 01 00 00       	call   13f0 <register_service>
    12b4:	83 c4 10             	add    $0x10,%esp
    12b7:	e9 e4 fe ff ff       	jmp    11a0 <main+0xa0>
    12bc:	66 90                	xchg   %ax,%ax
    12be:	66 90                	xchg   %ax,%ax

000012c0 <service_key_hash>:
    12c0:	55                   	push   %ebp
    12c1:	89 e5                	mov    %esp,%ebp
    12c3:	8b 45 08             	mov    0x8(%ebp),%eax
    12c6:	5d                   	pop    %ebp
    12c7:	8b 00                	mov    (%eax),%eax
    12c9:	c3                   	ret    
    12ca:	8d b6 00 00 00 00    	lea    0x0(%esi),%esi

000012d0 <service_hash>:
    12d0:	55                   	push   %ebp
    12d1:	89 e5                	mov    %esp,%ebp
    12d3:	8b 45 08             	mov    0x8(%ebp),%eax
    12d6:	5d                   	pop    %ebp
    12d7:	8b 40 08             	mov    0x8(%eax),%eax
    12da:	c3                   	ret    
    12db:	90                   	nop
    12dc:	8d 74 26 00          	lea    0x0(%esi,%eiz,1),%esi

000012e0 <service_key_equal>:
    12e0:	55                   	push   %ebp
    12e1:	89 e5                	mov    %esp,%ebp
    12e3:	8b 45 08             	mov    0x8(%ebp),%eax
    12e6:	8b 55 0c             	mov    0xc(%ebp),%edx
    12e9:	5d                   	pop    %ebp
    12ea:	8b 00                	mov    (%eax),%eax
    12ec:	39 42 08             	cmp    %eax,0x8(%edx)
    12ef:	0f 94 c0             	sete   %al
    12f2:	c3                   	ret    
    12f3:	8d b6 00 00 00 00    	lea    0x0(%esi),%esi
    12f9:	8d bc 27 00 00 00 00 	lea    0x0(%edi,%eiz,1),%edi

00001300 <service_init>:
    1300:	55                   	push   %ebp
    1301:	89 e5                	mov    %esp,%ebp
    1303:	83 ec 08             	sub    $0x8,%esp
    1306:	68 a0 71 02 00       	push   $0x271a0
    130b:	6a 00                	push   $0x0
    130d:	6a 00                	push   $0x0
    130f:	68 74 74 02 00       	push   $0x27474
    1314:	e8 07 11 01 00       	call   12420 <hash_table_create>
    1319:	83 c4 10             	add    $0x10,%esp
    131c:	84 c0                	test   %al,%al
    131e:	74 18                	je     1338 <service_init+0x38>
    1320:	c7 05 6c 74 02 00 6c 	movl   $0x2746c,0x2746c
    1327:	74 02 00 
    132a:	c7 05 70 74 02 00 6c 	movl   $0x2746c,0x27470
    1331:	74 02 00 
    1334:	31 c0                	xor    %eax,%eax
    1336:	c9                   	leave  
    1337:	c3                   	ret    
    1338:	50                   	push   %eax
    1339:	50                   	push   %eax
    133a:	68 86 39 02 00       	push   $0x23986
    133f:	68 c4 39 02 00       	push   $0x239c4
    1344:	e8 a7 48 00 00       	call   5bf0 <printf>
    1349:	83 c4 10             	add    $0x10,%esp
    134c:	b8 fe ff ff ff       	mov    $0xfffffffe,%eax
    1351:	c9                   	leave  
    1352:	c3                   	ret    
    1353:	8d b6 00 00 00 00    	lea    0x0(%esi),%esi
    1359:	8d bc 27 00 00 00 00 	lea    0x0(%edi,%eiz,1),%edi

00001360 <process_pending_conn>:
    1360:	55                   	push   %ebp
    1361:	89 e5                	mov    %esp,%ebp
    1363:	53                   	push   %ebx
    1364:	50                   	push   %eax
    1365:	eb 4c                	jmp    13b3 <process_pending_conn+0x53>
    1367:	90                   	nop
    1368:	52                   	push   %edx
    1369:	52                   	push   %edx
    136a:	6a 00                	push   $0x0
    136c:	6a 00                	push   $0x0
    136e:	8b 4b 14             	mov    0x14(%ebx),%ecx
    1371:	8b 53 0c             	mov    0xc(%ebx),%edx
    1374:	51                   	push   %ecx
    1375:	52                   	push   %edx
    1376:	8b 48 0c             	mov    0xc(%eax),%ecx
    1379:	51                   	push   %ecx
    137a:	8b 43 10             	mov    0x10(%ebx),%eax
    137d:	50                   	push   %eax
    137e:	e8 cd b1 00 00       	call   c550 <ipc_forward_fast>
    1383:	8b 13                	mov    (%ebx),%edx
    1385:	83 c4 20             	add    $0x20,%esp
    1388:	85 d2                	test   %edx,%edx
    138a:	74 0e                	je     139a <process_pending_conn+0x3a>
    138c:	8b 43 04             	mov    0x4(%ebx),%eax
    138f:	85 c0                	test   %eax,%eax
    1391:	74 07                	je     139a <process_pending_conn+0x3a>
    1393:	89 10                	mov    %edx,(%eax)
    1395:	8b 13                	mov    (%ebx),%edx
    1397:	89 42 04             	mov    %eax,0x4(%edx)
    139a:	83 ec 0c             	sub    $0xc,%esp
    139d:	c7 03 00 00 00 00    	movl   $0x0,(%ebx)
    13a3:	c7 43 04 00 00 00 00 	movl   $0x0,0x4(%ebx)
    13aa:	53                   	push   %ebx
    13ab:	e8 10 98 00 00       	call   abc0 <free>
    13b0:	83 c4 10             	add    $0x10,%esp
    13b3:	8b 1d 70 74 02 00    	mov    0x27470,%ebx
    13b9:	81 fb 6c 74 02 00    	cmp    $0x2746c,%ebx
    13bf:	74 22                	je     13e3 <process_pending_conn+0x83>
    13c1:	50                   	push   %eax
    13c2:	50                   	push   %eax
    13c3:	8d 43 08             	lea    0x8(%ebx),%eax
    13c6:	50                   	push   %eax
    13c7:	68 74 74 02 00       	push   $0x27474
    13cc:	e8 ef 15 01 00       	call   129c0 <hash_table_find>
    13d1:	83 c4 10             	add    $0x10,%esp
    13d4:	85 c0                	test   %eax,%eax
    13d6:	75 90                	jne    1368 <process_pending_conn+0x8>
    13d8:	8b 5b 04             	mov    0x4(%ebx),%ebx
    13db:	81 fb 6c 74 02 00    	cmp    $0x2746c,%ebx
    13e1:	75 de                	jne    13c1 <process_pending_conn+0x61>
    13e3:	8b 5d fc             	mov    -0x4(%ebp),%ebx
    13e6:	c9                   	leave  
    13e7:	c3                   	ret    
    13e8:	90                   	nop
    13e9:	8d b4 26 00 00 00 00 	lea    0x0(%esi,%eiz,1),%esi

000013f0 <register_service>:
    13f0:	55                   	push   %ebp
    13f1:	89 e5                	mov    %esp,%ebp
    13f3:	83 ec 10             	sub    $0x10,%esp
    13f6:	8d 45 08             	lea    0x8(%ebp),%eax
    13f9:	50                   	push   %eax
    13fa:	68 74 74 02 00       	push   $0x27474
    13ff:	e8 bc 15 01 00       	call   129c0 <hash_table_find>
    1404:	83 c4 10             	add    $0x10,%esp
    1407:	85 c0                	test   %eax,%eax
    1409:	75 3d                	jne    1448 <register_service+0x58>
    140b:	83 ec 0c             	sub    $0xc,%esp
    140e:	6a 14                	push   $0x14
    1410:	e8 fb 95 00 00       	call   aa10 <malloc>
    1415:	83 c4 10             	add    $0x10,%esp
    1418:	85 c0                	test   %eax,%eax
    141a:	74 34                	je     1450 <register_service+0x60>
    141c:	8b 55 08             	mov    0x8(%ebp),%edx
    141f:	89 50 08             	mov    %edx,0x8(%eax)
    1422:	8b 55 0c             	mov    0xc(%ebp),%edx
    1425:	89 50 0c             	mov    %edx,0xc(%eax)
    1428:	8b 55 10             	mov    0x10(%ebp),%edx
    142b:	8b 52 20             	mov    0x20(%edx),%edx
    142e:	89 50 10             	mov    %edx,0x10(%eax)
    1431:	52                   	push   %edx
    1432:	52                   	push   %edx
    1433:	50                   	push   %eax
    1434:	68 74 74 02 00       	push   $0x27474
    1439:	e8 92 13 01 00       	call   127d0 <hash_table_insert>
    143e:	83 c4 10             	add    $0x10,%esp
    1441:	31 c0                	xor    %eax,%eax
    1443:	c9                   	leave  
    1444:	c3                   	ret    
    1445:	8d 76 00             	lea    0x0(%esi),%esi
    1448:	b8 f7 ff ff ff       	mov    $0xfffffff7,%eax
    144d:	c9                   	leave  
    144e:	c3                   	ret    
    144f:	90                   	nop
    1450:	b8 fe ff ff ff       	mov    $0xfffffffe,%eax
    1455:	c9                   	leave  
    1456:	c3                   	ret    
    1457:	89 f6                	mov    %esi,%esi
    1459:	8d bc 27 00 00 00 00 	lea    0x0(%edi,%eiz,1),%edi

00001460 <connect_to_service>:
    1460:	55                   	push   %ebp
    1461:	89 e5                	mov    %esp,%ebp
    1463:	56                   	push   %esi
    1464:	53                   	push   %ebx
    1465:	8b 45 10             	mov    0x10(%ebp),%eax
    1468:	8b 58 0c             	mov    0xc(%eax),%ebx
    146b:	8b 70 10             	mov    0x10(%eax),%esi
    146e:	50                   	push   %eax
    146f:	50                   	push   %eax
    1470:	8d 45 08             	lea    0x8(%ebp),%eax
    1473:	50                   	push   %eax
    1474:	68 74 74 02 00       	push   $0x27474
    1479:	e8 42 15 01 00       	call   129c0 <hash_table_find>
    147e:	83 c4 10             	add    $0x10,%esp
    1481:	85 c0                	test   %eax,%eax
    1483:	74 23                	je     14a8 <connect_to_service+0x48>
    1485:	56                   	push   %esi
    1486:	56                   	push   %esi
    1487:	6a 00                	push   $0x0
    1489:	6a 00                	push   $0x0
    148b:	53                   	push   %ebx
    148c:	8b 55 0c             	mov    0xc(%ebp),%edx
    148f:	8b 48 0c             	mov    0xc(%eax),%ecx
    1492:	8b 5d 14             	mov    0x14(%ebp),%ebx
    1495:	52                   	push   %edx
    1496:	51                   	push   %ecx
    1497:	53                   	push   %ebx
    1498:	e8 b3 b0 00 00       	call   c550 <ipc_forward_fast>
    149d:	83 c4 20             	add    $0x20,%esp
    14a0:	8d 65 f8             	lea    -0x8(%ebp),%esp
    14a3:	5b                   	pop    %ebx
    14a4:	5e                   	pop    %esi
    14a5:	5d                   	pop    %ebp
    14a6:	c3                   	ret    
    14a7:	90                   	nop
    14a8:	83 c8 ff             	or     $0xffffffff,%eax
    14ab:	83 e6 01             	and    $0x1,%esi
    14ae:	75 28                	jne    14d8 <connect_to_service+0x78>
    14b0:	f6 45 14 02          	testb  $0x2,0x14(%ebp)
    14b4:	75 ea                	jne    14a0 <connect_to_service+0x40>
    14b6:	8b 4d 14             	mov    0x14(%ebp),%ecx
    14b9:	52                   	push   %edx
    14ba:	52                   	push   %edx
    14bb:	6a 00                	push   $0x0
    14bd:	6a 00                	push   $0x0
    14bf:	6a 00                	push   $0x0
    14c1:	6a 00                	push   $0x0
    14c3:	50                   	push   %eax
    14c4:	51                   	push   %ecx
    14c5:	e8 26 ac 00 00       	call   c0f0 <ipc_answer_fast>
    14ca:	83 c4 20             	add    $0x20,%esp
    14cd:	8d 65 f8             	lea    -0x8(%ebp),%esp
    14d0:	5b                   	pop    %ebx
    14d1:	5e                   	pop    %esi
    14d2:	5d                   	pop    %ebp
    14d3:	c3                   	ret    
    14d4:	8d 74 26 00          	lea    0x0(%esi,%eiz,1),%esi
    14d8:	83 ec 0c             	sub    $0xc,%esp
    14db:	6a 18                	push   $0x18
    14dd:	e8 2e 95 00 00       	call   aa10 <malloc>
    14e2:	83 c4 10             	add    $0x10,%esp
    14e5:	85 c0                	test   %eax,%eax
    14e7:	74 2f                	je     1518 <connect_to_service+0xb8>
    14e9:	8b 55 08             	mov    0x8(%ebp),%edx
    14ec:	8b 4d 0c             	mov    0xc(%ebp),%ecx
    14ef:	89 50 08             	mov    %edx,0x8(%eax)
    14f2:	8b 15 6c 74 02 00    	mov    0x2746c,%edx
    14f8:	89 48 0c             	mov    %ecx,0xc(%eax)
    14fb:	8b 4d 14             	mov    0x14(%ebp),%ecx
    14fe:	89 48 10             	mov    %ecx,0x10(%eax)
    1501:	89 58 14             	mov    %ebx,0x14(%eax)
    1504:	c7 40 04 6c 74 02 00 	movl   $0x2746c,0x4(%eax)
    150b:	89 10                	mov    %edx,(%eax)
    150d:	a3 6c 74 02 00       	mov    %eax,0x2746c
    1512:	89 42 04             	mov    %eax,0x4(%edx)
    1515:	eb 89                	jmp    14a0 <connect_to_service+0x40>
    1517:	90                   	nop
    1518:	b8 fe ff ff ff       	mov    $0xfffffffe,%eax
    151d:	eb 91                	jmp    14b0 <connect_to_service+0x50>
    151f:	90                   	nop

00001520 <clonable_init>:
    1520:	55                   	push   %ebp
    1521:	31 c0                	xor    %eax,%eax
    1523:	89 e5                	mov    %esp,%ebp
    1525:	c7 05 90 74 02 00 90 	movl   $0x27490,0x27490
    152c:	74 02 00 
    152f:	c7 05 94 74 02 00 90 	movl   $0x27490,0x27494
    1536:	74 02 00 
    1539:	5d                   	pop    %ebp
    153a:	c3                   	ret    
    153b:	90                   	nop
    153c:	8d 74 26 00          	lea    0x0(%esi,%eiz,1),%esi

00001540 <service_clonable>:
    1540:	55                   	push   %ebp
    1541:	89 e5                	mov    %esp,%ebp
    1543:	81 7d 08 6c 6f 61 64 	cmpl   $0x64616f6c,0x8(%ebp)
    154a:	5d                   	pop    %ebp
    154b:	0f 94 c0             	sete   %al
    154e:	c3                   	ret    
    154f:	90                   	nop

00001550 <register_clonable>:
    1550:	55                   	push   %ebp
    1551:	89 e5                	mov    %esp,%ebp
    1553:	57                   	push   %edi
    1554:	56                   	push   %esi
    1555:	53                   	push   %ebx
    1556:	83 ec 0c             	sub    $0xc,%esp
    1559:	8b 1d 94 74 02 00    	mov    0x27494,%ebx
    155f:	8b 75 0c             	mov    0xc(%ebp),%esi
    1562:	8b 7d 14             	mov    0x14(%ebp),%edi
    1565:	85 db                	test   %ebx,%ebx
    1567:	74 78                	je     15e1 <register_clonable+0x91>
    1569:	81 fb 90 74 02 00    	cmp    $0x27490,%ebx
    156f:	74 70                	je     15e1 <register_clonable+0x91>
    1571:	8b 13                	mov    (%ebx),%edx
    1573:	85 d2                	test   %edx,%edx
    1575:	74 0e                	je     1585 <register_clonable+0x35>
    1577:	8b 43 04             	mov    0x4(%ebx),%eax
    157a:	85 c0                	test   %eax,%eax
    157c:	74 07                	je     1585 <register_clonable+0x35>
    157e:	89 10                	mov    %edx,(%eax)
    1580:	8b 13                	mov    (%ebx),%edx
    1582:	89 42 04             	mov    %eax,0x4(%edx)
    1585:	c7 03 00 00 00 00    	movl   $0x0,(%ebx)
    158b:	c7 43 04 00 00 00 00 	movl   $0x0,0x4(%ebx)
    1592:	81 7b 08 6c 6f 61 64 	cmpl   $0x64616f6c,0x8(%ebx)
    1599:	75 74                	jne    160f <register_clonable+0xbf>
    159b:	50                   	push   %eax
    159c:	50                   	push   %eax
    159d:	6a 00                	push   $0x0
    159f:	6a 00                	push   $0x0
    15a1:	6a 00                	push   $0x0
    15a3:	6a 00                	push   $0x0
    15a5:	6a 00                	push   $0x0
    15a7:	57                   	push   %edi
    15a8:	e8 43 ab 00 00       	call   c0f0 <ipc_answer_fast>
    15ad:	83 c4 18             	add    $0x18,%esp
    15b0:	6a 00                	push   $0x0
    15b2:	6a 00                	push   $0x0
    15b4:	8b 53 14             	mov    0x14(%ebx),%edx
    15b7:	52                   	push   %edx
    15b8:	8b 4b 0c             	mov    0xc(%ebx),%ecx
    15bb:	51                   	push   %ecx
    15bc:	56                   	push   %esi
    15bd:	8b 7b 10             	mov    0x10(%ebx),%edi
    15c0:	57                   	push   %edi
    15c1:	e8 8a af 00 00       	call   c550 <ipc_forward_fast>
    15c6:	83 c4 14             	add    $0x14,%esp
    15c9:	53                   	push   %ebx
    15ca:	e8 f1 95 00 00       	call   abc0 <free>
    15cf:	89 75 08             	mov    %esi,0x8(%ebp)
    15d2:	83 c4 10             	add    $0x10,%esp
    15d5:	8d 65 f4             	lea    -0xc(%ebp),%esp
    15d8:	5b                   	pop    %ebx
    15d9:	5e                   	pop    %esi
    15da:	5f                   	pop    %edi
    15db:	5d                   	pop    %ebp
    15dc:	e9 4f af 00 00       	jmp    c530 <ipc_hangup>
    15e1:	50                   	push   %eax
    15e2:	50                   	push   %eax
    15e3:	68 86 39 02 00       	push   $0x23986
    15e8:	68 18 3a 02 00       	push   $0x23a18
    15ed:	e8 fe 45 00 00       	call   5bf0 <printf>
    15f2:	58                   	pop    %eax
    15f3:	5a                   	pop    %edx
    15f4:	6a 00                	push   $0x0
    15f6:	6a 00                	push   $0x0
    15f8:	6a 00                	push   $0x0
    15fa:	6a 00                	push   $0x0
    15fc:	6a f1                	push   $0xfffffff1
    15fe:	57                   	push   %edi
    15ff:	e8 ec aa 00 00       	call   c0f0 <ipc_answer_fast>
    1604:	83 c4 20             	add    $0x20,%esp
    1607:	8d 65 f4             	lea    -0xc(%ebp),%esp
    160a:	5b                   	pop    %ebx
    160b:	5e                   	pop    %esi
    160c:	5f                   	pop    %edi
    160d:	5d                   	pop    %ebp
    160e:	c3                   	ret    
    160f:	50                   	push   %eax
    1610:	6a 5b                	push   $0x5b
    1612:	68 ea 39 02 00       	push   $0x239ea
    1617:	68 3c 3a 02 00       	push   $0x23a3c
    161c:	e8 0f 5c 01 00       	call   17230 <assert_abort>
    1621:	eb 0d                	jmp    1630 <connect_to_clonable>
    1623:	90                   	nop
    1624:	90                   	nop
    1625:	90                   	nop
    1626:	90                   	nop
    1627:	90                   	nop
    1628:	90                   	nop
    1629:	90                   	nop
    162a:	90                   	nop
    162b:	90                   	nop
    162c:	90                   	nop
    162d:	90                   	nop
    162e:	90                   	nop
    162f:	90                   	nop

00001630 <connect_to_clonable>:
    1630:	55                   	push   %ebp
    1631:	89 e5                	mov    %esp,%ebp
    1633:	53                   	push   %ebx
    1634:	83 ec 14             	sub    $0x14,%esp
    1637:	81 7d 08 6c 6f 61 64 	cmpl   $0x64616f6c,0x8(%ebp)
    163e:	0f 85 ac 00 00 00    	jne    16f0 <connect_to_clonable+0xc0>
    1644:	83 ec 0c             	sub    $0xc,%esp
    1647:	6a 18                	push   $0x18
    1649:	e8 c2 93 00 00       	call   aa10 <malloc>
    164e:	83 c4 10             	add    $0x10,%esp
    1651:	89 c3                	mov    %eax,%ebx
    1653:	85 c0                	test   %eax,%eax
    1655:	74 51                	je     16a8 <connect_to_clonable+0x78>
    1657:	83 ec 0c             	sub    $0xc,%esp
    165a:	68 0f 3a 02 00       	push   $0x23a0f
    165f:	e8 5c 06 01 00       	call   11cc0 <loader_spawn>
    1664:	83 c4 10             	add    $0x10,%esp
    1667:	85 c0                	test   %eax,%eax
    1669:	78 5d                	js     16c8 <connect_to_clonable+0x98>
    166b:	8b 45 0c             	mov    0xc(%ebp),%eax
    166e:	c7 43 08 6c 6f 61 64 	movl   $0x64616f6c,0x8(%ebx)
    1675:	89 43 0c             	mov    %eax,0xc(%ebx)
    1678:	8b 45 14             	mov    0x14(%ebp),%eax
    167b:	89 43 10             	mov    %eax,0x10(%ebx)
    167e:	8b 45 10             	mov    0x10(%ebp),%eax
    1681:	c7 43 04 90 74 02 00 	movl   $0x27490,0x4(%ebx)
    1688:	8b 40 0c             	mov    0xc(%eax),%eax
    168b:	89 43 14             	mov    %eax,0x14(%ebx)
    168e:	a1 90 74 02 00       	mov    0x27490,%eax
    1693:	89 03                	mov    %eax,(%ebx)
    1695:	89 1d 90 74 02 00    	mov    %ebx,0x27490
    169b:	89 58 04             	mov    %ebx,0x4(%eax)
    169e:	8b 5d fc             	mov    -0x4(%ebp),%ebx
    16a1:	c9                   	leave  
    16a2:	c3                   	ret    
    16a3:	90                   	nop
    16a4:	8d 74 26 00          	lea    0x0(%esi,%eiz,1),%esi
    16a8:	8b 45 14             	mov    0x14(%ebp),%eax
    16ab:	53                   	push   %ebx
    16ac:	53                   	push   %ebx
    16ad:	6a 00                	push   $0x0
    16af:	6a 00                	push   $0x0
    16b1:	6a 00                	push   $0x0
    16b3:	6a 00                	push   $0x0
    16b5:	6a fe                	push   $0xfffffffe
    16b7:	50                   	push   %eax
    16b8:	e8 33 aa 00 00       	call   c0f0 <ipc_answer_fast>
    16bd:	83 c4 20             	add    $0x20,%esp
    16c0:	8b 5d fc             	mov    -0x4(%ebp),%ebx
    16c3:	c9                   	leave  
    16c4:	c3                   	ret    
    16c5:	8d 76 00             	lea    0x0(%esi),%esi
    16c8:	83 ec 0c             	sub    $0xc,%esp
    16cb:	89 45 f4             	mov    %eax,-0xc(%ebp)
    16ce:	53                   	push   %ebx
    16cf:	e8 ec 94 00 00       	call   abc0 <free>
    16d4:	58                   	pop    %eax
    16d5:	8b 4d 14             	mov    0x14(%ebp),%ecx
    16d8:	8b 45 f4             	mov    -0xc(%ebp),%eax
    16db:	5a                   	pop    %edx
    16dc:	6a 00                	push   $0x0
    16de:	6a 00                	push   $0x0
    16e0:	6a 00                	push   $0x0
    16e2:	6a 00                	push   $0x0
    16e4:	50                   	push   %eax
    16e5:	51                   	push   %ecx
    16e6:	e8 05 aa 00 00       	call   c0f0 <ipc_answer_fast>
    16eb:	83 c4 20             	add    $0x20,%esp
    16ee:	eb ae                	jmp    169e <connect_to_clonable+0x6e>
    16f0:	50                   	push   %eax
    16f1:	6a 73                	push   $0x73
    16f3:	68 ea 39 02 00       	push   $0x239ea
    16f8:	68 f5 39 02 00       	push   $0x239f5
    16fd:	e8 2e 5b 01 00       	call   17230 <assert_abort>
    1702:	66 90                	xchg   %ax,%ax
    1704:	66 90                	xchg   %ax,%ax
    1706:	66 90                	xchg   %ax,%ax
    1708:	66 90                	xchg   %ax,%ax
    170a:	66 90                	xchg   %ax,%ax
    170c:	66 90                	xchg   %ax,%ax
    170e:	66 90                	xchg   %ax,%ax

00001710 <task_key_hash>:
    1710:	55                   	push   %ebp
    1711:	89 e5                	mov    %esp,%ebp
    1713:	8b 45 08             	mov    0x8(%ebp),%eax
    1716:	5d                   	pop    %ebp
    1717:	8b 00                	mov    (%eax),%eax
    1719:	c3                   	ret    
    171a:	8d b6 00 00 00 00    	lea    0x0(%esi),%esi

00001720 <task_hash>:
    1720:	55                   	push   %ebp
    1721:	89 e5                	mov    %esp,%ebp
    1723:	8b 45 08             	mov    0x8(%ebp),%eax
    1726:	5d                   	pop    %ebp
    1727:	8b 40 08             	mov    0x8(%eax),%eax
    172a:	c3                   	ret    
    172b:	90                   	nop
    172c:	8d 74 26 00          	lea    0x0(%esi,%eiz,1),%esi

00001730 <task_key_equal>:
    1730:	55                   	push   %ebp
    1731:	89 e5                	mov    %esp,%ebp
    1733:	8b 45 0c             	mov    0xc(%ebp),%eax
    1736:	8b 4d 08             	mov    0x8(%ebp),%ecx
    1739:	5d                   	pop    %ebp
    173a:	8b 50 08             	mov    0x8(%eax),%edx
    173d:	8b 40 0c             	mov    0xc(%eax),%eax
    1740:	33 41 04             	xor    0x4(%ecx),%eax
    1743:	33 11                	xor    (%ecx),%edx
    1745:	09 c2                	or     %eax,%edx
    1747:	0f 94 c0             	sete   %al
    174a:	c3                   	ret    
    174b:	90                   	nop
    174c:	8d 74 26 00          	lea    0x0(%esi,%eiz,1),%esi

00001750 <p2i_key_hash>:
    1750:	55                   	push   %ebp
    1751:	89 e5                	mov    %esp,%ebp
    1753:	8b 45 08             	mov    0x8(%ebp),%eax
    1756:	5d                   	pop    %ebp
    1757:	8b 00                	mov    (%eax),%eax
    1759:	c3                   	ret    
    175a:	8d b6 00 00 00 00    	lea    0x0(%esi),%esi

00001760 <p2i_hash>:
    1760:	55                   	push   %ebp
    1761:	89 e5                	mov    %esp,%ebp
    1763:	8b 45 08             	mov    0x8(%ebp),%eax
    1766:	5d                   	pop    %ebp
    1767:	8b 40 08             	mov    0x8(%eax),%eax
    176a:	c3                   	ret    
    176b:	90                   	nop
    176c:	8d 74 26 00          	lea    0x0(%esi,%eiz,1),%esi

00001770 <p2i_key_equal>:
    1770:	55                   	push   %ebp
    1771:	89 e5                	mov    %esp,%ebp
    1773:	8b 45 0c             	mov    0xc(%ebp),%eax
    1776:	8b 55 08             	mov    0x8(%ebp),%edx
    1779:	5d                   	pop    %ebp
    177a:	8b 40 08             	mov    0x8(%eax),%eax
    177d:	39 02                	cmp    %eax,(%edx)
    177f:	0f 94 c0             	sete   %al
    1782:	c3                   	ret    
    1783:	8d b6 00 00 00 00    	lea    0x0(%esi),%esi
    1789:	8d bc 27 00 00 00 00 	lea    0x0(%edi,%eiz,1),%edi

00001790 <task_remove>:
    1790:	55                   	push   %ebp
    1791:	89 e5                	mov    %esp,%ebp
    1793:	5d                   	pop    %ebp
    1794:	e9 27 94 00 00       	jmp    abc0 <free>
    1799:	8d b4 26 00 00 00 00 	lea    0x0(%esi,%eiz,1),%esi

000017a0 <p2i_remove>:
    17a0:	55                   	push   %ebp
    17a1:	89 e5                	mov    %esp,%ebp
    17a3:	83 ec 08             	sub    $0x8,%esp
    17a6:	8b 45 08             	mov    0x8(%ebp),%eax
    17a9:	85 c0                	test   %eax,%eax
    17ab:	74 09                	je     17b6 <p2i_remove+0x16>
    17ad:	89 45 08             	mov    %eax,0x8(%ebp)
    17b0:	c9                   	leave  
    17b1:	e9 0a 94 00 00       	jmp    abc0 <free>
    17b6:	50                   	push   %eax
    17b7:	68 80 00 00 00       	push   $0x80
    17bc:	68 e5 3a 02 00       	push   $0x23ae5
    17c1:	68 5b 3a 02 00       	push   $0x23a5b
    17c6:	e8 65 5a 01 00       	call   17230 <assert_abort>
    17cb:	90                   	nop
    17cc:	8d 74 26 00          	lea    0x0(%esi,%eiz,1),%esi

000017d0 <task_init>:
    17d0:	55                   	push   %ebp
    17d1:	89 e5                	mov    %esp,%ebp
    17d3:	83 ec 08             	sub    $0x8,%esp
    17d6:	68 c8 71 02 00       	push   $0x271c8
    17db:	6a 00                	push   $0x0
    17dd:	6a 00                	push   $0x0
    17df:	68 bc 74 02 00       	push   $0x274bc
    17e4:	e8 37 0c 01 00       	call   12420 <hash_table_create>
    17e9:	83 c4 10             	add    $0x10,%esp
    17ec:	84 c0                	test   %al,%al
    17ee:	74 38                	je     1828 <task_init+0x58>
    17f0:	68 b4 71 02 00       	push   $0x271b4
    17f5:	6a 00                	push   $0x0
    17f7:	6a 00                	push   $0x0
    17f9:	68 a0 74 02 00       	push   $0x274a0
    17fe:	e8 1d 0c 01 00       	call   12420 <hash_table_create>
    1803:	83 c4 10             	add    $0x10,%esp
    1806:	84 c0                	test   %al,%al
    1808:	74 1e                	je     1828 <task_init+0x58>
    180a:	c7 05 98 74 02 00 98 	movl   $0x27498,0x27498
    1811:	74 02 00 
    1814:	c7 05 9c 74 02 00 98 	movl   $0x27498,0x2749c
    181b:	74 02 00 
    181e:	31 c0                	xor    %eax,%eax
    1820:	c9                   	leave  
    1821:	c3                   	ret    
    1822:	8d b6 00 00 00 00    	lea    0x0(%esi),%esi
    1828:	83 ec 0c             	sub    $0xc,%esp
    182b:	68 60 3a 02 00       	push   $0x23a60
    1830:	e8 bb 43 00 00       	call   5bf0 <printf>
    1835:	83 c4 10             	add    $0x10,%esp
    1838:	b8 fe ff ff ff       	mov    $0xfffffffe,%eax
    183d:	c9                   	leave  
    183e:	c3                   	ret    
    183f:	90                   	nop

00001840 <process_pending_wait>:
    1840:	55                   	push   %ebp
    1841:	89 e5                	mov    %esp,%ebp
    1843:	53                   	push   %ebx
    1844:	50                   	push   %eax
    1845:	eb 36                	jmp    187d <process_pending_wait+0x3d>
    1847:	90                   	nop
    1848:	8b 53 10             	mov    0x10(%ebx),%edx
    184b:	f6 c2 02             	test   $0x2,%dl
    184e:	74 68                	je     18b8 <process_pending_wait+0x78>
    1850:	8b 13                	mov    (%ebx),%edx
    1852:	85 d2                	test   %edx,%edx
    1854:	74 0e                	je     1864 <process_pending_wait+0x24>
    1856:	8b 43 04             	mov    0x4(%ebx),%eax
    1859:	85 c0                	test   %eax,%eax
    185b:	74 07                	je     1864 <process_pending_wait+0x24>
    185d:	89 10                	mov    %edx,(%eax)
    185f:	8b 13                	mov    (%ebx),%edx
    1861:	89 42 04             	mov    %eax,0x4(%edx)
    1864:	83 ec 0c             	sub    $0xc,%esp
    1867:	c7 03 00 00 00 00    	movl   $0x0,(%ebx)
    186d:	c7 43 04 00 00 00 00 	movl   $0x0,0x4(%ebx)
    1874:	53                   	push   %ebx
    1875:	e8 46 93 00 00       	call   abc0 <free>
    187a:	83 c4 10             	add    $0x10,%esp
    187d:	8b 1d 9c 74 02 00    	mov    0x2749c,%ebx
    1883:	81 fb 98 74 02 00    	cmp    $0x27498,%ebx
    1889:	74 28                	je     18b3 <process_pending_wait+0x73>
    188b:	50                   	push   %eax
    188c:	50                   	push   %eax
    188d:	8d 43 08             	lea    0x8(%ebx),%eax
    1890:	50                   	push   %eax
    1891:	68 bc 74 02 00       	push   $0x274bc
    1896:	e8 25 11 01 00       	call   129c0 <hash_table_find>
    189b:	83 c4 10             	add    $0x10,%esp
    189e:	85 c0                	test   %eax,%eax
    18a0:	74 06                	je     18a8 <process_pending_wait+0x68>
    18a2:	80 78 10 00          	cmpb   $0x0,0x10(%eax)
    18a6:	75 a0                	jne    1848 <process_pending_wait+0x8>
    18a8:	8b 5b 04             	mov    0x4(%ebx),%ebx
    18ab:	81 fb 98 74 02 00    	cmp    $0x27498,%ebx
    18b1:	75 d8                	jne    188b <process_pending_wait+0x4b>
    18b3:	8b 5d fc             	mov    -0x4(%ebp),%ebx
    18b6:	c9                   	leave  
    18b7:	c3                   	ret    
    18b8:	51                   	push   %ecx
    18b9:	51                   	push   %ecx
    18ba:	6a 00                	push   $0x0
    18bc:	6a 00                	push   $0x0
    18be:	8b 48 14             	mov    0x14(%eax),%ecx
    18c1:	8a 40 11             	mov    0x11(%eax),%al
    18c4:	83 f0 01             	xor    $0x1,%eax
    18c7:	51                   	push   %ecx
    18c8:	25 ff 00 00 00       	and    $0xff,%eax
    18cd:	50                   	push   %eax
    18ce:	6a 00                	push   $0x0
    18d0:	52                   	push   %edx
    18d1:	e8 1a a8 00 00       	call   c0f0 <ipc_answer_fast>
    18d6:	83 c4 20             	add    $0x20,%esp
    18d9:	e9 72 ff ff ff       	jmp    1850 <process_pending_wait+0x10>
    18de:	66 90                	xchg   %ax,%ax

000018e0 <wait_for_task>:
    18e0:	55                   	push   %ebp
    18e1:	89 e5                	mov    %esp,%ebp
    18e3:	83 ec 20             	sub    $0x20,%esp
    18e6:	8b 45 08             	mov    0x8(%ebp),%eax
    18e9:	89 45 f0             	mov    %eax,-0x10(%ebp)
    18ec:	8b 45 0c             	mov    0xc(%ebp),%eax
    18ef:	89 45 f4             	mov    %eax,-0xc(%ebp)
    18f2:	8d 45 f0             	lea    -0x10(%ebp),%eax
    18f5:	50                   	push   %eax
    18f6:	68 bc 74 02 00       	push   $0x274bc
    18fb:	e8 c0 10 01 00       	call   129c0 <hash_table_find>
    1900:	83 c4 10             	add    $0x10,%esp
    1903:	85 c0                	test   %eax,%eax
    1905:	0f 84 8d 00 00 00    	je     1998 <wait_for_task+0xb8>
    190b:	80 78 10 00          	cmpb   $0x0,0x10(%eax)
    190f:	75 3f                	jne    1950 <wait_for_task+0x70>
    1911:	83 ec 0c             	sub    $0xc,%esp
    1914:	6a 14                	push   $0x14
    1916:	e8 f5 90 00 00       	call   aa10 <malloc>
    191b:	83 c4 10             	add    $0x10,%esp
    191e:	85 c0                	test   %eax,%eax
    1920:	74 56                	je     1978 <wait_for_task+0x98>
    1922:	8b 55 f0             	mov    -0x10(%ebp),%edx
    1925:	8b 4d f4             	mov    -0xc(%ebp),%ecx
    1928:	89 50 08             	mov    %edx,0x8(%eax)
    192b:	8b 15 98 74 02 00    	mov    0x27498,%edx
    1931:	89 48 0c             	mov    %ecx,0xc(%eax)
    1934:	8b 4d 14             	mov    0x14(%ebp),%ecx
    1937:	89 48 10             	mov    %ecx,0x10(%eax)
    193a:	c7 40 04 98 74 02 00 	movl   $0x27498,0x4(%eax)
    1941:	89 10                	mov    %edx,(%eax)
    1943:	a3 98 74 02 00       	mov    %eax,0x27498
    1948:	89 42 04             	mov    %eax,0x4(%edx)
    194b:	c9                   	leave  
    194c:	c3                   	ret    
    194d:	8d 76 00             	lea    0x0(%esi),%esi
    1950:	51                   	push   %ecx
    1951:	51                   	push   %ecx
    1952:	6a 00                	push   $0x0
    1954:	6a 00                	push   $0x0
    1956:	8b 50 14             	mov    0x14(%eax),%edx
    1959:	8a 40 11             	mov    0x11(%eax),%al
    195c:	83 f0 01             	xor    $0x1,%eax
    195f:	8b 4d 14             	mov    0x14(%ebp),%ecx
    1962:	25 ff 00 00 00       	and    $0xff,%eax
    1967:	52                   	push   %edx
    1968:	50                   	push   %eax
    1969:	6a 00                	push   $0x0
    196b:	51                   	push   %ecx
    196c:	e8 7f a7 00 00       	call   c0f0 <ipc_answer_fast>
    1971:	83 c4 20             	add    $0x20,%esp
    1974:	c9                   	leave  
    1975:	c3                   	ret    
    1976:	66 90                	xchg   %ax,%ax
    1978:	f6 45 14 02          	testb  $0x2,0x14(%ebp)
    197c:	75 cd                	jne    194b <wait_for_task+0x6b>
    197e:	8b 55 14             	mov    0x14(%ebp),%edx
    1981:	50                   	push   %eax
    1982:	50                   	push   %eax
    1983:	6a 00                	push   $0x0
    1985:	6a 00                	push   $0x0
    1987:	6a 00                	push   $0x0
    1989:	6a 00                	push   $0x0
    198b:	6a fe                	push   $0xfffffffe
    198d:	52                   	push   %edx
    198e:	e8 5d a7 00 00       	call   c0f0 <ipc_answer_fast>
    1993:	83 c4 20             	add    $0x20,%esp
    1996:	c9                   	leave  
    1997:	c3                   	ret    
    1998:	50                   	push   %eax
    1999:	50                   	push   %eax
    199a:	8b 45 14             	mov    0x14(%ebp),%eax
    199d:	6a 00                	push   $0x0
    199f:	6a 00                	push   $0x0
    19a1:	6a 00                	push   $0x0
    19a3:	6a 00                	push   $0x0
    19a5:	6a ff                	push   $0xffffffff
    19a7:	50                   	push   %eax
    19a8:	e8 43 a7 00 00       	call   c0f0 <ipc_answer_fast>
    19ad:	83 c4 20             	add    $0x20,%esp
    19b0:	c9                   	leave  
    19b1:	c3                   	ret    
    19b2:	8d b4 26 00 00 00 00 	lea    0x0(%esi,%eiz,1),%esi
    19b9:	8d bc 27 00 00 00 00 	lea    0x0(%edi,%eiz,1),%edi

000019c0 <ns_task_id_intro>:
    19c0:	55                   	push   %ebp
    19c1:	89 e5                	mov    %esp,%ebp
    19c3:	57                   	push   %edi
    19c4:	56                   	push   %esi
    19c5:	53                   	push   %ebx
    19c6:	83 ec 24             	sub    $0x24,%esp
    19c9:	8b 5d 08             	mov    0x8(%ebp),%ebx
    19cc:	8d 43 20             	lea    0x20(%ebx),%eax
    19cf:	8b 73 04             	mov    0x4(%ebx),%esi
    19d2:	8b 7b 08             	mov    0x8(%ebx),%edi
    19d5:	50                   	push   %eax
    19d6:	68 a0 74 02 00       	push   $0x274a0
    19db:	e8 e0 0f 01 00       	call   129c0 <hash_table_find>
    19e0:	83 c4 10             	add    $0x10,%esp
    19e3:	85 c0                	test   %eax,%eax
    19e5:	75 79                	jne    1a60 <ns_task_id_intro+0xa0>
    19e7:	83 ec 0c             	sub    $0xc,%esp
    19ea:	6a 14                	push   $0x14
    19ec:	e8 1f 90 00 00       	call   aa10 <malloc>
    19f1:	83 c4 10             	add    $0x10,%esp
    19f4:	89 45 e4             	mov    %eax,-0x1c(%ebp)
    19f7:	85 c0                	test   %eax,%eax
    19f9:	74 75                	je     1a70 <ns_task_id_intro+0xb0>
    19fb:	83 ec 0c             	sub    $0xc,%esp
    19fe:	6a 18                	push   $0x18
    1a00:	e8 0b 90 00 00       	call   aa10 <malloc>
    1a05:	83 c4 10             	add    $0x10,%esp
    1a08:	8b 55 e4             	mov    -0x1c(%ebp),%edx
    1a0b:	85 c0                	test   %eax,%eax
    1a0d:	74 68                	je     1a77 <ns_task_id_intro+0xb7>
    1a0f:	8b 4b 20             	mov    0x20(%ebx),%ecx
    1a12:	89 72 0c             	mov    %esi,0xc(%edx)
    1a15:	89 4a 08             	mov    %ecx,0x8(%edx)
    1a18:	89 7a 10             	mov    %edi,0x10(%edx)
    1a1b:	89 45 e4             	mov    %eax,-0x1c(%ebp)
    1a1e:	50                   	push   %eax
    1a1f:	50                   	push   %eax
    1a20:	52                   	push   %edx
    1a21:	68 a0 74 02 00       	push   $0x274a0
    1a26:	e8 a5 0d 01 00       	call   127d0 <hash_table_insert>
    1a2b:	8b 45 e4             	mov    -0x1c(%ebp),%eax
    1a2e:	89 70 08             	mov    %esi,0x8(%eax)
    1a31:	89 78 0c             	mov    %edi,0xc(%eax)
    1a34:	c6 40 10 00          	movb   $0x0,0x10(%eax)
    1a38:	c6 40 11 00          	movb   $0x0,0x11(%eax)
    1a3c:	c7 40 14 ff ff ff ff 	movl   $0xffffffff,0x14(%eax)
    1a43:	5a                   	pop    %edx
    1a44:	59                   	pop    %ecx
    1a45:	50                   	push   %eax
    1a46:	68 bc 74 02 00       	push   $0x274bc
    1a4b:	e8 80 0d 01 00       	call   127d0 <hash_table_insert>
    1a50:	83 c4 10             	add    $0x10,%esp
    1a53:	31 c0                	xor    %eax,%eax
    1a55:	8d 65 f4             	lea    -0xc(%ebp),%esp
    1a58:	5b                   	pop    %ebx
    1a59:	5e                   	pop    %esi
    1a5a:	5f                   	pop    %edi
    1a5b:	5d                   	pop    %ebp
    1a5c:	c3                   	ret    
    1a5d:	8d 76 00             	lea    0x0(%esi),%esi
    1a60:	8d 65 f4             	lea    -0xc(%ebp),%esp
    1a63:	b8 f7 ff ff ff       	mov    $0xfffffff7,%eax
    1a68:	5b                   	pop    %ebx
    1a69:	5e                   	pop    %esi
    1a6a:	5f                   	pop    %edi
    1a6b:	5d                   	pop    %ebp
    1a6c:	c3                   	ret    
    1a6d:	8d 76 00             	lea    0x0(%esi),%esi
    1a70:	b8 fe ff ff ff       	mov    $0xfffffffe,%eax
    1a75:	eb de                	jmp    1a55 <ns_task_id_intro+0x95>
    1a77:	83 ec 0c             	sub    $0xc,%esp
    1a7a:	52                   	push   %edx
    1a7b:	e8 40 91 00 00       	call   abc0 <free>
    1a80:	83 c4 10             	add    $0x10,%esp
    1a83:	b8 fe ff ff ff       	mov    $0xfffffffe,%eax
    1a88:	eb cb                	jmp    1a55 <ns_task_id_intro+0x95>
    1a8a:	8d b6 00 00 00 00    	lea    0x0(%esi),%esi

00001a90 <ns_task_retval>:
    1a90:	55                   	push   %ebp
    1a91:	89 e5                	mov    %esp,%ebp
    1a93:	53                   	push   %ebx
    1a94:	83 ec 1c             	sub    $0x1c,%esp
    1a97:	8b 5d 08             	mov    0x8(%ebp),%ebx
    1a9a:	8b 43 20             	mov    0x20(%ebx),%eax
    1a9d:	89 45 ec             	mov    %eax,-0x14(%ebp)
    1aa0:	8d 45 ec             	lea    -0x14(%ebp),%eax
    1aa3:	50                   	push   %eax
    1aa4:	68 a0 74 02 00       	push   $0x274a0
    1aa9:	e8 12 0f 01 00       	call   129c0 <hash_table_find>
    1aae:	83 c4 10             	add    $0x10,%esp
    1ab1:	85 c0                	test   %eax,%eax
    1ab3:	74 43                	je     1af8 <ns_task_retval+0x68>
    1ab5:	8b 50 10             	mov    0x10(%eax),%edx
    1ab8:	8b 40 0c             	mov    0xc(%eax),%eax
    1abb:	89 45 f0             	mov    %eax,-0x10(%ebp)
    1abe:	50                   	push   %eax
    1abf:	50                   	push   %eax
    1ac0:	8d 45 f0             	lea    -0x10(%ebp),%eax
    1ac3:	50                   	push   %eax
    1ac4:	89 55 f4             	mov    %edx,-0xc(%ebp)
    1ac7:	68 bc 74 02 00       	push   $0x274bc
    1acc:	e8 ef 0e 01 00       	call   129c0 <hash_table_find>
    1ad1:	83 c4 10             	add    $0x10,%esp
    1ad4:	85 c0                	test   %eax,%eax
    1ad6:	74 28                	je     1b00 <ns_task_retval+0x70>
    1ad8:	80 78 10 00          	cmpb   $0x0,0x10(%eax)
    1adc:	75 22                	jne    1b00 <ns_task_retval+0x70>
    1ade:	8b 53 04             	mov    0x4(%ebx),%edx
    1ae1:	c6 40 10 01          	movb   $0x1,0x10(%eax)
    1ae5:	c6 40 11 01          	movb   $0x1,0x11(%eax)
    1ae9:	89 50 14             	mov    %edx,0x14(%eax)
    1aec:	e8 4f fd ff ff       	call   1840 <process_pending_wait>
    1af1:	31 c0                	xor    %eax,%eax
    1af3:	8b 5d fc             	mov    -0x4(%ebp),%ebx
    1af6:	c9                   	leave  
    1af7:	c3                   	ret    
    1af8:	83 c8 ff             	or     $0xffffffff,%eax
    1afb:	8b 5d fc             	mov    -0x4(%ebp),%ebx
    1afe:	c9                   	leave  
    1aff:	c3                   	ret    
    1b00:	b8 f2 ff ff ff       	mov    $0xfffffff2,%eax
    1b05:	eb ec                	jmp    1af3 <ns_task_retval+0x63>
    1b07:	89 f6                	mov    %esi,%esi
    1b09:	8d bc 27 00 00 00 00 	lea    0x0(%edi,%eiz,1),%edi

00001b10 <ns_task_disconnect>:
    1b10:	55                   	push   %ebp
    1b11:	89 e5                	mov    %esp,%ebp
    1b13:	53                   	push   %ebx
    1b14:	83 ec 1c             	sub    $0x1c,%esp
    1b17:	8b 5d 08             	mov    0x8(%ebp),%ebx
    1b1a:	8b 43 20             	mov    0x20(%ebx),%eax
    1b1d:	89 45 ec             	mov    %eax,-0x14(%ebp)
    1b20:	8d 45 ec             	lea    -0x14(%ebp),%eax
    1b23:	50                   	push   %eax
    1b24:	68 a0 74 02 00       	push   $0x274a0
    1b29:	e8 92 0e 01 00       	call   129c0 <hash_table_find>
    1b2e:	83 c4 10             	add    $0x10,%esp
    1b31:	85 c0                	test   %eax,%eax
    1b33:	74 5b                	je     1b90 <ns_task_disconnect+0x80>
    1b35:	8b 50 10             	mov    0x10(%eax),%edx
    1b38:	83 c3 20             	add    $0x20,%ebx
    1b3b:	8b 40 0c             	mov    0xc(%eax),%eax
    1b3e:	89 55 f4             	mov    %edx,-0xc(%ebp)
    1b41:	89 45 f0             	mov    %eax,-0x10(%ebp)
    1b44:	52                   	push   %edx
    1b45:	52                   	push   %edx
    1b46:	53                   	push   %ebx
    1b47:	68 a0 74 02 00       	push   $0x274a0
    1b4c:	e8 af 0f 01 00       	call   12b00 <hash_table_remove>
    1b51:	59                   	pop    %ecx
    1b52:	5b                   	pop    %ebx
    1b53:	8d 5d f0             	lea    -0x10(%ebp),%ebx
    1b56:	53                   	push   %ebx
    1b57:	68 bc 74 02 00       	push   $0x274bc
    1b5c:	e8 5f 0e 01 00       	call   129c0 <hash_table_find>
    1b61:	83 c4 10             	add    $0x10,%esp
    1b64:	85 c0                	test   %eax,%eax
    1b66:	74 20                	je     1b88 <ns_task_disconnect+0x78>
    1b68:	c6 40 10 01          	movb   $0x1,0x10(%eax)
    1b6c:	e8 cf fc ff ff       	call   1840 <process_pending_wait>
    1b71:	50                   	push   %eax
    1b72:	50                   	push   %eax
    1b73:	53                   	push   %ebx
    1b74:	68 bc 74 02 00       	push   $0x274bc
    1b79:	e8 82 0f 01 00       	call   12b00 <hash_table_remove>
    1b7e:	83 c4 10             	add    $0x10,%esp
    1b81:	31 c0                	xor    %eax,%eax
    1b83:	8b 5d fc             	mov    -0x4(%ebp),%ebx
    1b86:	c9                   	leave  
    1b87:	c3                   	ret    
    1b88:	31 c0                	xor    %eax,%eax
    1b8a:	8b 5d fc             	mov    -0x4(%ebp),%ebx
    1b8d:	c9                   	leave  
    1b8e:	c3                   	ret    
    1b8f:	90                   	nop
    1b90:	83 c8 ff             	or     $0xffffffff,%eax
    1b93:	8b 5d fc             	mov    -0x4(%ebp),%ebx
    1b96:	c9                   	leave  
    1b97:	c3                   	ret    
    1b98:	66 90                	xchg   %ax,%ax
    1b9a:	66 90                	xchg   %ax,%ax
    1b9c:	66 90                	xchg   %ax,%ax
    1b9e:	66 90                	xchg   %ax,%ax

00001ba0 <exit>:
    1ba0:	55                   	push   %ebp
    1ba1:	89 e5                	mov    %esp,%ebp
    1ba3:	83 ec 08             	sub    $0x8,%esp
    1ba6:	80 3d d8 74 02 00 00 	cmpb   $0x0,0x274d8
    1bad:	75 1a                	jne    1bc9 <exit+0x29>
    1baf:	50                   	push   %eax
    1bb0:	6a 09                	push   $0x9
    1bb2:	6a 00                	push   $0x0
    1bb4:	6a 00                	push   $0x0
    1bb6:	6a 00                	push   $0x0
    1bb8:	6a 00                	push   $0x0
    1bba:	6a 00                	push   $0x0
    1bbc:	6a 00                	push   $0x0
    1bbe:	ff 15 c8 73 02 00    	call   *0x273c8
    1bc4:	83 c4 20             	add    $0x20,%esp
    1bc7:	eb fe                	jmp    1bc7 <exit+0x27>
    1bc9:	e8 a2 17 00 00       	call   3370 <__stdio_done>
    1bce:	83 ec 0c             	sub    $0xc,%esp
    1bd1:	8b 55 08             	mov    0x8(%ebp),%edx
    1bd4:	52                   	push   %edx
    1bd5:	e8 66 13 00 00       	call   2f40 <task_retval>
    1bda:	65 a1 00 00 00 00    	mov    %gs:0x0,%eax
    1be0:	59                   	pop    %ecx
    1be1:	8b 48 04             	mov    0x4(%eax),%ecx
    1be4:	5a                   	pop    %edx
    1be5:	6a 00                	push   $0x0
    1be7:	51                   	push   %ecx
    1be8:	e8 e3 01 00 00       	call   1dd0 <fibril_teardown>
    1bed:	83 c4 10             	add    $0x10,%esp
    1bf0:	eb bd                	jmp    1baf <exit+0xf>
    1bf2:	8d b4 26 00 00 00 00 	lea    0x0(%esi,%eiz,1),%esi
    1bf9:	8d bc 27 00 00 00 00 	lea    0x0(%edi,%eiz,1),%edi

00001c00 <abort>:
    1c00:	55                   	push   %ebp
    1c01:	89 e5                	mov    %esp,%ebp
    1c03:	83 ec 0c             	sub    $0xc,%esp
    1c06:	6a 09                	push   $0x9
    1c08:	6a 00                	push   $0x0
    1c0a:	6a 00                	push   $0x0
    1c0c:	6a 00                	push   $0x0
    1c0e:	6a 00                	push   $0x0
    1c10:	6a 00                	push   $0x0
    1c12:	6a 01                	push   $0x1
    1c14:	ff 15 c8 73 02 00    	call   *0x273c8
    1c1a:	83 c4 20             	add    $0x20,%esp
    1c1d:	eb fe                	jmp    1c1d <abort+0x1d>
    1c1f:	90                   	nop

00001c20 <__main>:
    1c20:	55                   	push   %ebp
    1c21:	89 e5                	mov    %esp,%ebp
    1c23:	56                   	push   %esi
    1c24:	53                   	push   %ebx
    1c25:	8b 5d 08             	mov    0x8(%ebp),%ebx
    1c28:	e8 a3 8c 00 00       	call   a8d0 <__malloc_init>
    1c2d:	89 1d 60 74 02 00    	mov    %ebx,0x27460
    1c33:	85 db                	test   %ebx,%ebx
    1c35:	74 68                	je     1c9f <__main+0x7f>
    1c37:	8b 43 18             	mov    0x18(%ebx),%eax
    1c3a:	85 c0                	test   %eax,%eax
    1c3c:	74 61                	je     1c9f <__main+0x7f>
    1c3e:	a3 68 74 02 00       	mov    %eax,0x27468
    1c43:	e8 78 00 00 00       	call   1cc0 <fibril_setup>
    1c48:	85 c0                	test   %eax,%eax
    1c4a:	74 5c                	je     1ca8 <__main+0x88>
    1c4c:	8b 40 38             	mov    0x38(%eax),%eax
    1c4f:	65 a3 00 00 00 00    	mov    %eax,%gs:0x0
    1c55:	e8 26 c7 00 00       	call   e380 <__async_init>
    1c5a:	a1 60 74 02 00       	mov    0x27460,%eax
    1c5f:	c6 05 d8 74 02 00 01 	movb   $0x1,0x274d8
    1c66:	85 c0                	test   %eax,%eax
    1c68:	74 43                	je     1cad <__main+0x8d>
    1c6a:	83 ec 0c             	sub    $0xc,%esp
    1c6d:	8b 50 10             	mov    0x10(%eax),%edx
    1c70:	8b 58 08             	mov    0x8(%eax),%ebx
    1c73:	8b 70 0c             	mov    0xc(%eax),%esi
    1c76:	52                   	push   %edx
    1c77:	e8 54 14 00 00       	call   30d0 <__stdio_init>
    1c7c:	a1 60 74 02 00       	mov    0x27460,%eax
    1c81:	59                   	pop    %ecx
    1c82:	8b 40 04             	mov    0x4(%eax),%eax
    1c85:	50                   	push   %eax
    1c86:	e8 a5 4a 01 00       	call   16730 <chdir>
    1c8b:	83 c4 10             	add    $0x10,%esp
    1c8e:	50                   	push   %eax
    1c8f:	50                   	push   %eax
    1c90:	56                   	push   %esi
    1c91:	53                   	push   %ebx
    1c92:	e8 69 f4 ff ff       	call   1100 <main>
    1c97:	89 04 24             	mov    %eax,(%esp)
    1c9a:	e8 01 ff ff ff       	call   1ba0 <exit>
    1c9f:	e8 dc 55 01 00       	call   17280 <rtld_init_static>
    1ca4:	85 c0                	test   %eax,%eax
    1ca6:	74 9b                	je     1c43 <__main+0x23>
    1ca8:	e8 53 ff ff ff       	call   1c00 <abort>
    1cad:	83 ec 0c             	sub    $0xc,%esp
    1cb0:	31 f6                	xor    %esi,%esi
    1cb2:	31 db                	xor    %ebx,%ebx
    1cb4:	6a 00                	push   $0x0
    1cb6:	e8 15 14 00 00       	call   30d0 <__stdio_init>
    1cbb:	83 c4 10             	add    $0x10,%esp
    1cbe:	eb ce                	jmp    1c8e <__main+0x6e>

00001cc0 <fibril_setup>:
    1cc0:	55                   	push   %ebp
    1cc1:	89 e5                	mov    %esp,%ebp
    1cc3:	56                   	push   %esi
    1cc4:	53                   	push   %ebx
    1cc5:	e8 d6 09 00 00       	call   26a0 <tls_make>
    1cca:	85 c0                	test   %eax,%eax
    1ccc:	0f 84 e6 00 00 00    	je     1db8 <fibril_setup+0xf8>
    1cd2:	83 ec 0c             	sub    $0xc,%esp
    1cd5:	89 c6                	mov    %eax,%esi
    1cd7:	6a 50                	push   $0x50
    1cd9:	e8 32 8d 00 00       	call   aa10 <malloc>
    1cde:	83 c4 10             	add    $0x10,%esp
    1ce1:	89 c3                	mov    %eax,%ebx
    1ce3:	85 c0                	test   %eax,%eax
    1ce5:	0f 84 d1 00 00 00    	je     1dbc <fibril_setup+0xfc>
    1ceb:	89 46 04             	mov    %eax,0x4(%esi)
    1cee:	89 70 38             	mov    %esi,0x38(%eax)
    1cf1:	c7 40 34 00 00 00 00 	movl   $0x0,0x34(%eax)
    1cf8:	c7 40 30 00 00 00 00 	movl   $0x0,0x30(%eax)
    1cff:	c7 40 2c 00 00 00 00 	movl   $0x0,0x2c(%eax)
    1d06:	c7 40 3c 00 00 00 00 	movl   $0x0,0x3c(%eax)
    1d0d:	c7 40 40 00 00 00 00 	movl   $0x0,0x40(%eax)
    1d14:	c7 40 44 00 00 00 00 	movl   $0x0,0x44(%eax)
    1d1b:	c7 40 48 00 00 00 00 	movl   $0x0,0x48(%eax)
    1d22:	c7 40 4c 00 00 00 00 	movl   $0x0,0x4c(%eax)
    1d29:	83 c8 ff             	or     $0xffffffff,%eax
    1d2c:	f0 0f c1 05 f4 71 02 	lock xadd %eax,0x271f4
    1d33:	00 
    1d34:	48                   	dec    %eax
    1d35:	78 61                	js     1d98 <fibril_setup+0xd8>
    1d37:	8b 15 dc 71 02 00    	mov    0x271dc,%edx
    1d3d:	8d 43 08             	lea    0x8(%ebx),%eax
    1d40:	c7 43 0c dc 71 02 00 	movl   $0x271dc,0xc(%ebx)
    1d47:	89 53 08             	mov    %edx,0x8(%ebx)
    1d4a:	a3 dc 71 02 00       	mov    %eax,0x271dc
    1d4f:	89 42 04             	mov    %eax,0x4(%edx)
    1d52:	b8 01 00 00 00       	mov    $0x1,%eax
    1d57:	f0 0f c1 05 f4 71 02 	lock xadd %eax,0x271f4
    1d5e:	00 
    1d5f:	85 c0                	test   %eax,%eax
    1d61:	78 0d                	js     1d70 <fibril_setup+0xb0>
    1d63:	8d 65 f8             	lea    -0x8(%ebp),%esp
    1d66:	89 d8                	mov    %ebx,%eax
    1d68:	5b                   	pop    %ebx
    1d69:	5e                   	pop    %esi
    1d6a:	5d                   	pop    %ebp
    1d6b:	c3                   	ret    
    1d6c:	8d 74 26 00          	lea    0x0(%esi,%eiz,1),%esi
    1d70:	50                   	push   %eax
    1d71:	6a 0c                	push   $0xc
    1d73:	6a 00                	push   $0x0
    1d75:	6a 00                	push   $0x0
    1d77:	6a 00                	push   $0x0
    1d79:	6a 00                	push   $0x0
    1d7b:	6a 00                	push   $0x0
    1d7d:	68 f4 71 02 00       	push   $0x271f4
    1d82:	ff 15 c8 73 02 00    	call   *0x273c8
    1d88:	83 c4 20             	add    $0x20,%esp
    1d8b:	8d 65 f8             	lea    -0x8(%ebp),%esp
    1d8e:	89 d8                	mov    %ebx,%eax
    1d90:	5b                   	pop    %ebx
    1d91:	5e                   	pop    %esi
    1d92:	5d                   	pop    %ebp
    1d93:	c3                   	ret    
    1d94:	8d 74 26 00          	lea    0x0(%esi,%eiz,1),%esi
    1d98:	52                   	push   %edx
    1d99:	6a 0b                	push   $0xb
    1d9b:	6a 00                	push   $0x0
    1d9d:	6a 00                	push   $0x0
    1d9f:	6a 00                	push   $0x0
    1da1:	6a 00                	push   $0x0
    1da3:	6a 00                	push   $0x0
    1da5:	68 f4 71 02 00       	push   $0x271f4
    1daa:	ff 15 c8 73 02 00    	call   *0x273c8
    1db0:	83 c4 20             	add    $0x20,%esp
    1db3:	eb 82                	jmp    1d37 <fibril_setup+0x77>
    1db5:	8d 76 00             	lea    0x0(%esi),%esi
    1db8:	31 db                	xor    %ebx,%ebx
    1dba:	eb a7                	jmp    1d63 <fibril_setup+0xa3>
    1dbc:	83 ec 0c             	sub    $0xc,%esp
    1dbf:	56                   	push   %esi
    1dc0:	e8 6b 09 00 00       	call   2730 <tls_free>
    1dc5:	83 c4 10             	add    $0x10,%esp
    1dc8:	eb 99                	jmp    1d63 <fibril_setup+0xa3>
    1dca:	8d b6 00 00 00 00    	lea    0x0(%esi),%esi

00001dd0 <fibril_teardown>:
    1dd0:	55                   	push   %ebp
    1dd1:	89 e5                	mov    %esp,%ebp
    1dd3:	53                   	push   %ebx
    1dd4:	83 ec 14             	sub    $0x14,%esp
    1dd7:	8b 4d 0c             	mov    0xc(%ebp),%ecx
    1dda:	8b 5d 08             	mov    0x8(%ebp),%ebx
    1ddd:	84 c9                	test   %cl,%cl
    1ddf:	75 67                	jne    1e48 <fibril_teardown+0x78>
    1de1:	83 c8 ff             	or     $0xffffffff,%eax
    1de4:	f0 0f c1 05 f4 71 02 	lock xadd %eax,0x271f4
    1deb:	00 
    1dec:	48                   	dec    %eax
    1ded:	0f 88 ad 00 00 00    	js     1ea0 <fibril_teardown+0xd0>
    1df3:	8b 53 08             	mov    0x8(%ebx),%edx
    1df6:	85 d2                	test   %edx,%edx
    1df8:	74 7d                	je     1e77 <fibril_teardown+0xa7>
    1dfa:	8b 43 0c             	mov    0xc(%ebx),%eax
    1dfd:	85 c0                	test   %eax,%eax
    1dff:	74 6f                	je     1e70 <fibril_teardown+0xa0>
    1e01:	89 10                	mov    %edx,(%eax)
    1e03:	84 c9                	test   %cl,%cl
    1e05:	8b 53 08             	mov    0x8(%ebx),%edx
    1e08:	89 42 04             	mov    %eax,0x4(%edx)
    1e0b:	c7 43 08 00 00 00 00 	movl   $0x0,0x8(%ebx)
    1e12:	c7 43 0c 00 00 00 00 	movl   $0x0,0xc(%ebx)
    1e19:	75 11                	jne    1e2c <fibril_teardown+0x5c>
    1e1b:	b8 01 00 00 00       	mov    $0x1,%eax
    1e20:	f0 0f c1 05 f4 71 02 	lock xadd %eax,0x271f4
    1e27:	00 
    1e28:	85 c0                	test   %eax,%eax
    1e2a:	78 54                	js     1e80 <fibril_teardown+0xb0>
    1e2c:	83 ec 0c             	sub    $0xc,%esp
    1e2f:	8b 43 38             	mov    0x38(%ebx),%eax
    1e32:	50                   	push   %eax
    1e33:	e8 f8 08 00 00       	call   2730 <tls_free>
    1e38:	89 5d 08             	mov    %ebx,0x8(%ebp)
    1e3b:	83 c4 10             	add    $0x10,%esp
    1e3e:	8b 5d fc             	mov    -0x4(%ebp),%ebx
    1e41:	c9                   	leave  
    1e42:	e9 79 8d 00 00       	jmp    abc0 <free>
    1e47:	90                   	nop
    1e48:	8b 53 08             	mov    0x8(%ebx),%edx
    1e4b:	85 d2                	test   %edx,%edx
    1e4d:	74 11                	je     1e60 <fibril_teardown+0x90>
    1e4f:	8b 43 0c             	mov    0xc(%ebx),%eax
    1e52:	85 c0                	test   %eax,%eax
    1e54:	75 ab                	jne    1e01 <fibril_teardown+0x31>
    1e56:	c7 43 08 00 00 00 00 	movl   $0x0,0x8(%ebx)
    1e5d:	8d 76 00             	lea    0x0(%esi),%esi
    1e60:	c7 43 0c 00 00 00 00 	movl   $0x0,0xc(%ebx)
    1e67:	eb c3                	jmp    1e2c <fibril_teardown+0x5c>
    1e69:	8d b4 26 00 00 00 00 	lea    0x0(%esi,%eiz,1),%esi
    1e70:	c7 43 08 00 00 00 00 	movl   $0x0,0x8(%ebx)
    1e77:	c7 43 0c 00 00 00 00 	movl   $0x0,0xc(%ebx)
    1e7e:	eb 9b                	jmp    1e1b <fibril_teardown+0x4b>
    1e80:	52                   	push   %edx
    1e81:	6a 0c                	push   $0xc
    1e83:	6a 00                	push   $0x0
    1e85:	6a 00                	push   $0x0
    1e87:	6a 00                	push   $0x0
    1e89:	6a 00                	push   $0x0
    1e8b:	6a 00                	push   $0x0
    1e8d:	68 f4 71 02 00       	push   $0x271f4
    1e92:	ff 15 c8 73 02 00    	call   *0x273c8
    1e98:	83 c4 20             	add    $0x20,%esp
    1e9b:	eb 8f                	jmp    1e2c <fibril_teardown+0x5c>
    1e9d:	8d 76 00             	lea    0x0(%esi),%esi
    1ea0:	89 4d f4             	mov    %ecx,-0xc(%ebp)
    1ea3:	51                   	push   %ecx
    1ea4:	6a 0b                	push   $0xb
    1ea6:	6a 00                	push   $0x0
    1ea8:	6a 00                	push   $0x0
    1eaa:	6a 00                	push   $0x0
    1eac:	6a 00                	push   $0x0
    1eae:	6a 00                	push   $0x0
    1eb0:	68 f4 71 02 00       	push   $0x271f4
    1eb5:	ff 15 c8 73 02 00    	call   *0x273c8
    1ebb:	83 c4 20             	add    $0x20,%esp
    1ebe:	8b 4d f4             	mov    -0xc(%ebp),%ecx
    1ec1:	e9 2d ff ff ff       	jmp    1df3 <fibril_teardown+0x23>
    1ec6:	8d 76 00             	lea    0x0(%esi),%esi
    1ec9:	8d bc 27 00 00 00 00 	lea    0x0(%edi,%eiz,1),%edi

00001ed0 <fibril_switch>:
    1ed0:	55                   	push   %ebp
    1ed1:	83 c8 ff             	or     $0xffffffff,%eax
    1ed4:	89 e5                	mov    %esp,%ebp
    1ed6:	56                   	push   %esi
    1ed7:	53                   	push   %ebx
    1ed8:	83 ec 10             	sub    $0x10,%esp
    1edb:	f0 0f c1 05 f4 71 02 	lock xadd %eax,0x271f4
    1ee2:	00 
    1ee3:	48                   	dec    %eax
    1ee4:	0f 88 4e 01 00 00    	js     2038 <fibril_switch+0x168>
    1eea:	83 7d 08 01          	cmpl   $0x1,0x8(%ebp)
    1eee:	0f 84 8c 00 00 00    	je     1f80 <fibril_switch+0xb0>
    1ef4:	0f 82 f6 00 00 00    	jb     1ff0 <fibril_switch+0x120>
    1efa:	83 7d 08 02          	cmpl   $0x2,0x8(%ebp)
    1efe:	0f 84 ec 00 00 00    	je     1ff0 <fibril_switch+0x120>
    1f04:	83 7d 08 03          	cmpl   $0x3,0x8(%ebp)
    1f08:	74 76                	je     1f80 <fibril_switch+0xb0>
    1f0a:	65 a1 00 00 00 00    	mov    %gs:0x0,%eax
    1f10:	8b 40 04             	mov    0x4(%eax),%eax
    1f13:	89 45 f4             	mov    %eax,-0xc(%ebp)
    1f16:	83 7d 08 03          	cmpl   $0x3,0x8(%ebp)
    1f1a:	0f 84 64 01 00 00    	je     2084 <fibril_switch+0x1b4>
    1f20:	83 ec 0c             	sub    $0xc,%esp
    1f23:	83 c0 10             	add    $0x10,%eax
    1f26:	50                   	push   %eax
    1f27:	e8 c5 61 01 00       	call   180f1 <context_save>
    1f2c:	83 c4 10             	add    $0x10,%esp
    1f2f:	85 c0                	test   %eax,%eax
    1f31:	0f 85 b9 01 00 00    	jne    20f0 <fibril_switch+0x220>
    1f37:	8b 75 f4             	mov    -0xc(%ebp),%esi
    1f3a:	8b 46 3c             	mov    0x3c(%esi),%eax
    1f3d:	85 c0                	test   %eax,%eax
    1f3f:	0f 84 13 01 00 00    	je     2058 <fibril_switch+0x188>
    1f45:	8b 50 2c             	mov    0x2c(%eax),%edx
    1f48:	85 d2                	test   %edx,%edx
    1f4a:	74 0f                	je     1f5b <fibril_switch+0x8b>
    1f4c:	83 ec 0c             	sub    $0xc,%esp
    1f4f:	52                   	push   %edx
    1f50:	e8 6b 6a 01 00       	call   189c0 <as_area_destroy>
    1f55:	83 c4 10             	add    $0x10,%esp
    1f58:	8b 46 3c             	mov    0x3c(%esi),%eax
    1f5b:	56                   	push   %esi
    1f5c:	56                   	push   %esi
    1f5d:	6a 01                	push   $0x1
    1f5f:	50                   	push   %eax
    1f60:	e8 6b fe ff ff       	call   1dd0 <fibril_teardown>
    1f65:	8b 45 f4             	mov    -0xc(%ebp),%eax
    1f68:	83 c4 10             	add    $0x10,%esp
    1f6b:	c7 40 3c 00 00 00 00 	movl   $0x0,0x3c(%eax)
    1f72:	b8 01 00 00 00       	mov    $0x1,%eax
    1f77:	8d 65 f8             	lea    -0x8(%ebp),%esp
    1f7a:	5b                   	pop    %ebx
    1f7b:	5e                   	pop    %esi
    1f7c:	5d                   	pop    %ebp
    1f7d:	c3                   	ret    
    1f7e:	66 90                	xchg   %ax,%ax
    1f80:	a1 a0 73 02 00       	mov    0x273a0,%eax
    1f85:	85 c0                	test   %eax,%eax
    1f87:	0f 8f a8 01 00 00    	jg     2135 <fibril_switch+0x265>
    1f8d:	be 01 00 00 00       	mov    $0x1,%esi
    1f92:	bb e4 71 02 00       	mov    $0x271e4,%ebx
    1f97:	eb 1a                	jmp    1fb3 <fibril_switch+0xe3>
    1f99:	8d b4 26 00 00 00 00 	lea    0x0(%esi,%eiz,1),%esi
    1fa0:	e8 9b c3 00 00       	call   e340 <async_create_manager>
    1fa5:	83 c8 ff             	or     $0xffffffff,%eax
    1fa8:	f0 0f c1 05 f4 71 02 	lock xadd %eax,0x271f4
    1faf:	00 
    1fb0:	48                   	dec    %eax
    1fb1:	78 65                	js     2018 <fibril_switch+0x148>
    1fb3:	81 7b 04 e4 71 02 00 	cmpl   $0x271e4,0x4(%ebx)
    1fba:	0f 85 4a ff ff ff    	jne    1f0a <fibril_switch+0x3a>
    1fc0:	89 f0                	mov    %esi,%eax
    1fc2:	f0 0f c1 05 f4 71 02 	lock xadd %eax,0x271f4
    1fc9:	00 
    1fca:	85 c0                	test   %eax,%eax
    1fcc:	79 d2                	jns    1fa0 <fibril_switch+0xd0>
    1fce:	50                   	push   %eax
    1fcf:	6a 0c                	push   $0xc
    1fd1:	6a 00                	push   $0x0
    1fd3:	6a 00                	push   $0x0
    1fd5:	6a 00                	push   $0x0
    1fd7:	6a 00                	push   $0x0
    1fd9:	6a 00                	push   $0x0
    1fdb:	68 f4 71 02 00       	push   $0x271f4
    1fe0:	ff 15 c8 73 02 00    	call   *0x273c8
    1fe6:	83 c4 20             	add    $0x20,%esp
    1fe9:	eb b5                	jmp    1fa0 <fibril_switch+0xd0>
    1feb:	90                   	nop
    1fec:	8d 74 26 00          	lea    0x0(%esi,%eiz,1),%esi
    1ff0:	81 3d f0 71 02 00 ec 	cmpl   $0x271ec,0x271f0
    1ff7:	71 02 00 
    1ffa:	0f 85 0a ff ff ff    	jne    1f0a <fibril_switch+0x3a>
    2000:	b8 01 00 00 00       	mov    $0x1,%eax
    2005:	f0 0f c1 05 f4 71 02 	lock xadd %eax,0x271f4
    200c:	00 
    200d:	85 c0                	test   %eax,%eax
    200f:	78 51                	js     2062 <fibril_switch+0x192>
    2011:	31 c0                	xor    %eax,%eax
    2013:	e9 5f ff ff ff       	jmp    1f77 <fibril_switch+0xa7>
    2018:	50                   	push   %eax
    2019:	6a 0b                	push   $0xb
    201b:	6a 00                	push   $0x0
    201d:	6a 00                	push   $0x0
    201f:	6a 00                	push   $0x0
    2021:	6a 00                	push   $0x0
    2023:	6a 00                	push   $0x0
    2025:	68 f4 71 02 00       	push   $0x271f4
    202a:	ff 15 c8 73 02 00    	call   *0x273c8
    2030:	83 c4 20             	add    $0x20,%esp
    2033:	e9 5a ff ff ff       	jmp    1f92 <fibril_switch+0xc2>
    2038:	50                   	push   %eax
    2039:	6a 0b                	push   $0xb
    203b:	6a 00                	push   $0x0
    203d:	6a 00                	push   $0x0
    203f:	6a 00                	push   $0x0
    2041:	6a 00                	push   $0x0
    2043:	6a 00                	push   $0x0
    2045:	68 f4 71 02 00       	push   $0x271f4
    204a:	ff 15 c8 73 02 00    	call   *0x273c8
    2050:	83 c4 20             	add    $0x20,%esp
    2053:	e9 92 fe ff ff       	jmp    1eea <fibril_switch+0x1a>
    2058:	b8 01 00 00 00       	mov    $0x1,%eax
    205d:	e9 15 ff ff ff       	jmp    1f77 <fibril_switch+0xa7>
    2062:	50                   	push   %eax
    2063:	6a 0c                	push   $0xc
    2065:	6a 00                	push   $0x0
    2067:	6a 00                	push   $0x0
    2069:	6a 00                	push   $0x0
    206b:	6a 00                	push   $0x0
    206d:	6a 00                	push   $0x0
    206f:	68 f4 71 02 00       	push   $0x271f4
    2074:	ff 15 c8 73 02 00    	call   *0x273c8
    207a:	83 c4 20             	add    $0x20,%esp
    207d:	31 c0                	xor    %eax,%eax
    207f:	e9 f3 fe ff ff       	jmp    1f77 <fibril_switch+0xa7>
    2084:	8b 1d e8 71 02 00    	mov    0x271e8,%ebx
    208a:	81 fb e4 71 02 00    	cmp    $0x271e4,%ebx
    2090:	75 02                	jne    2094 <fibril_switch+0x1c4>
    2092:	31 db                	xor    %ebx,%ebx
    2094:	89 43 3c             	mov    %eax,0x3c(%ebx)
    2097:	8b 13                	mov    (%ebx),%edx
    2099:	85 d2                	test   %edx,%edx
    209b:	74 0e                	je     20ab <fibril_switch+0x1db>
    209d:	8b 43 04             	mov    0x4(%ebx),%eax
    20a0:	85 c0                	test   %eax,%eax
    20a2:	74 07                	je     20ab <fibril_switch+0x1db>
    20a4:	89 10                	mov    %edx,(%eax)
    20a6:	8b 13                	mov    (%ebx),%edx
    20a8:	89 42 04             	mov    %eax,0x4(%edx)
    20ab:	c7 03 00 00 00 00    	movl   $0x0,(%ebx)
    20b1:	c7 43 04 00 00 00 00 	movl   $0x0,0x4(%ebx)
    20b8:	b8 01 00 00 00       	mov    $0x1,%eax
    20bd:	f0 0f c1 05 f4 71 02 	lock xadd %eax,0x271f4
    20c4:	00 
    20c5:	85 c0                	test   %eax,%eax
    20c7:	79 1b                	jns    20e4 <fibril_switch+0x214>
    20c9:	50                   	push   %eax
    20ca:	6a 0c                	push   $0xc
    20cc:	6a 00                	push   $0x0
    20ce:	6a 00                	push   $0x0
    20d0:	6a 00                	push   $0x0
    20d2:	6a 00                	push   $0x0
    20d4:	6a 00                	push   $0x0
    20d6:	68 f4 71 02 00       	push   $0x271f4
    20db:	ff 15 c8 73 02 00    	call   *0x273c8
    20e1:	83 c4 20             	add    $0x20,%esp
    20e4:	83 ec 0c             	sub    $0xc,%esp
    20e7:	83 c3 10             	add    $0x10,%ebx
    20ea:	53                   	push   %ebx
    20eb:	e8 26 60 01 00       	call   18116 <context_restore>
    20f0:	8b 5d 08             	mov    0x8(%ebp),%ebx
    20f3:	85 db                	test   %ebx,%ebx
    20f5:	74 7c                	je     2173 <fibril_switch+0x2a3>
    20f7:	83 7d 08 02          	cmpl   $0x2,0x8(%ebp)
    20fb:	75 4d                	jne    214a <fibril_switch+0x27a>
    20fd:	8b 4d f4             	mov    -0xc(%ebp),%ecx
    2100:	a1 e4 71 02 00       	mov    0x271e4,%eax
    2105:	89 01                	mov    %eax,(%ecx)
    2107:	c7 41 04 e4 71 02 00 	movl   $0x271e4,0x4(%ecx)
    210e:	a1 e4 71 02 00       	mov    0x271e4,%eax
    2113:	89 0d e4 71 02 00    	mov    %ecx,0x271e4
    2119:	89 48 04             	mov    %ecx,0x4(%eax)
    211c:	8b 1d f0 71 02 00    	mov    0x271f0,%ebx
    2122:	81 fb ec 71 02 00    	cmp    $0x271ec,%ebx
    2128:	0f 85 69 ff ff ff    	jne    2097 <fibril_switch+0x1c7>
    212e:	a1 00 00 00 00       	mov    0x0,%eax
    2133:	0f 0b                	ud2    
    2135:	50                   	push   %eax
    2136:	68 a9 00 00 00       	push   $0xa9
    213b:	68 83 3a 02 00       	push   $0x23a83
    2140:	68 b0 3a 02 00       	push   $0x23ab0
    2145:	e8 e6 50 01 00       	call   17230 <assert_abort>
    214a:	83 7d 08 01          	cmpl   $0x1,0x8(%ebp)
    214e:	75 44                	jne    2194 <fibril_switch+0x2c4>
    2150:	8b 45 f4             	mov    -0xc(%ebp),%eax
    2153:	8b 1d e8 71 02 00    	mov    0x271e8,%ebx
    2159:	8b 50 4c             	mov    0x4c(%eax),%edx
    215c:	42                   	inc    %edx
    215d:	81 fb e4 71 02 00    	cmp    $0x271e4,%ebx
    2163:	89 50 4c             	mov    %edx,0x4c(%eax)
    2166:	0f 85 2b ff ff ff    	jne    2097 <fibril_switch+0x1c7>
    216c:	31 db                	xor    %ebx,%ebx
    216e:	e9 24 ff ff ff       	jmp    2097 <fibril_switch+0x1c7>
    2173:	8b 4d f4             	mov    -0xc(%ebp),%ecx
    2176:	a1 ec 71 02 00       	mov    0x271ec,%eax
    217b:	89 01                	mov    %eax,(%ecx)
    217d:	c7 41 04 ec 71 02 00 	movl   $0x271ec,0x4(%ecx)
    2184:	a1 ec 71 02 00       	mov    0x271ec,%eax
    2189:	89 0d ec 71 02 00    	mov    %ecx,0x271ec
    218f:	89 48 04             	mov    %ecx,0x4(%eax)
    2192:	eb 88                	jmp    211c <fibril_switch+0x24c>
    2194:	51                   	push   %ecx
    2195:	68 da 00 00 00       	push   $0xda
    219a:	68 83 3a 02 00       	push   $0x23a83
    219f:	68 94 3a 02 00       	push   $0x23a94
    21a4:	e8 87 50 01 00       	call   17230 <assert_abort>
    21a9:	8d b4 26 00 00 00 00 	lea    0x0(%esi,%eiz,1),%esi

000021b0 <fibril_main>:
    21b0:	55                   	push   %ebp
    21b1:	89 e5                	mov    %esp,%ebp
    21b3:	53                   	push   %ebx
    21b4:	83 ec 10             	sub    $0x10,%esp
    21b7:	65 a1 00 00 00 00    	mov    %gs:0x0,%eax
    21bd:	8b 58 04             	mov    0x4(%eax),%ebx
    21c0:	8b 53 30             	mov    0x30(%ebx),%edx
    21c3:	52                   	push   %edx
    21c4:	ff 53 34             	call   *0x34(%ebx)
    21c7:	89 43 40             	mov    %eax,0x40(%ebx)
    21ca:	83 c8 ff             	or     $0xffffffff,%eax
    21cd:	f0 0f c1 05 a0 73 02 	lock xadd %eax,0x273a0
    21d4:	00 
    21d5:	83 c4 10             	add    $0x10,%esp
    21d8:	48                   	dec    %eax
    21d9:	78 15                	js     21f0 <fibril_main+0x40>
    21db:	83 ec 0c             	sub    $0xc,%esp
    21de:	6a 03                	push   $0x3
    21e0:	e8 eb fc ff ff       	call   1ed0 <fibril_switch>
    21e5:	83 c4 10             	add    $0x10,%esp
    21e8:	8b 5d fc             	mov    -0x4(%ebp),%ebx
    21eb:	c9                   	leave  
    21ec:	c3                   	ret    
    21ed:	8d 76 00             	lea    0x0(%esi),%esi
    21f0:	50                   	push   %eax
    21f1:	6a 0b                	push   $0xb
    21f3:	6a 00                	push   $0x0
    21f5:	6a 00                	push   $0x0
    21f7:	6a 00                	push   $0x0
    21f9:	6a 00                	push   $0x0
    21fb:	6a 00                	push   $0x0
    21fd:	68 a0 73 02 00       	push   $0x273a0
    2202:	ff 15 c8 73 02 00    	call   *0x273c8
    2208:	83 c4 20             	add    $0x20,%esp
    220b:	eb ce                	jmp    21db <fibril_main+0x2b>
    220d:	8d 76 00             	lea    0x0(%esi),%esi

00002210 <fibril_create_generic>:
    2210:	55                   	push   %ebp
    2211:	89 e5                	mov    %esp,%ebp
    2213:	53                   	push   %ebx
    2214:	83 ec 14             	sub    $0x14,%esp
    2217:	e8 84 04 00 00       	call   26a0 <tls_make>
    221c:	85 c0                	test   %eax,%eax
    221e:	0f 84 6c 01 00 00    	je     2390 <fibril_create_generic+0x180>
    2224:	83 ec 0c             	sub    $0xc,%esp
    2227:	89 c3                	mov    %eax,%ebx
    2229:	6a 50                	push   $0x50
    222b:	e8 e0 87 00 00       	call   aa10 <malloc>
    2230:	83 c4 10             	add    $0x10,%esp
    2233:	89 45 f4             	mov    %eax,-0xc(%ebp)
    2236:	85 c0                	test   %eax,%eax
    2238:	0f 84 42 01 00 00    	je     2380 <fibril_create_generic+0x170>
    223e:	89 43 04             	mov    %eax,0x4(%ebx)
    2241:	89 58 38             	mov    %ebx,0x38(%eax)
    2244:	c7 40 34 00 00 00 00 	movl   $0x0,0x34(%eax)
    224b:	c7 40 30 00 00 00 00 	movl   $0x0,0x30(%eax)
    2252:	c7 40 2c 00 00 00 00 	movl   $0x0,0x2c(%eax)
    2259:	c7 40 3c 00 00 00 00 	movl   $0x0,0x3c(%eax)
    2260:	c7 40 40 00 00 00 00 	movl   $0x0,0x40(%eax)
    2267:	c7 40 44 00 00 00 00 	movl   $0x0,0x44(%eax)
    226e:	c7 40 48 00 00 00 00 	movl   $0x0,0x48(%eax)
    2275:	c7 40 4c 00 00 00 00 	movl   $0x0,0x4c(%eax)
    227c:	83 c8 ff             	or     $0xffffffff,%eax
    227f:	f0 0f c1 05 f4 71 02 	lock xadd %eax,0x271f4
    2286:	00 
    2287:	48                   	dec    %eax
    2288:	0f 88 d2 00 00 00    	js     2360 <fibril_create_generic+0x150>
    228e:	8b 5d f4             	mov    -0xc(%ebp),%ebx
    2291:	8b 15 dc 71 02 00    	mov    0x271dc,%edx
    2297:	89 d8                	mov    %ebx,%eax
    2299:	83 c0 08             	add    $0x8,%eax
    229c:	c7 43 0c dc 71 02 00 	movl   $0x271dc,0xc(%ebx)
    22a3:	89 53 08             	mov    %edx,0x8(%ebx)
    22a6:	a3 dc 71 02 00       	mov    %eax,0x271dc
    22ab:	89 42 04             	mov    %eax,0x4(%edx)
    22ae:	b8 01 00 00 00       	mov    $0x1,%eax
    22b3:	f0 0f c1 05 f4 71 02 	lock xadd %eax,0x271f4
    22ba:	00 
    22bb:	85 c0                	test   %eax,%eax
    22bd:	0f 88 7d 00 00 00    	js     2340 <fibril_create_generic+0x130>
    22c3:	8b 45 10             	mov    0x10(%ebp),%eax
    22c6:	85 c0                	test   %eax,%eax
    22c8:	74 66                	je     2330 <fibril_create_generic+0x120>
    22ca:	8b 5d 10             	mov    0x10(%ebp),%ebx
    22cd:	6a 00                	push   $0x0
    22cf:	6a 3b                	push   $0x3b
    22d1:	53                   	push   %ebx
    22d2:	6a ff                	push   $0xffffffff
    22d4:	e8 87 66 01 00       	call   18960 <as_area_create>
    22d9:	8b 55 f4             	mov    -0xc(%ebp),%edx
    22dc:	83 c4 10             	add    $0x10,%esp
    22df:	89 42 2c             	mov    %eax,0x2c(%edx)
    22e2:	40                   	inc    %eax
    22e3:	0f 84 af 00 00 00    	je     2398 <fibril_create_generic+0x188>
    22e9:	8b 45 08             	mov    0x8(%ebp),%eax
    22ec:	83 ec 0c             	sub    $0xc,%esp
    22ef:	89 42 34             	mov    %eax,0x34(%edx)
    22f2:	8b 45 0c             	mov    0xc(%ebp),%eax
    22f5:	89 42 30             	mov    %eax,0x30(%edx)
    22f8:	8d 42 10             	lea    0x10(%edx),%eax
    22fb:	50                   	push   %eax
    22fc:	e8 f0 5d 01 00       	call   180f1 <context_save>
    2301:	8b 4d f4             	mov    -0xc(%ebp),%ecx
    2304:	8b 55 10             	mov    0x10(%ebp),%edx
    2307:	83 c4 10             	add    $0x10,%esp
    230a:	8b 5d fc             	mov    -0x4(%ebp),%ebx
    230d:	8b 41 2c             	mov    0x2c(%ecx),%eax
    2310:	c7 41 14 b0 21 00 00 	movl   $0x21b0,0x14(%ecx)
    2317:	c7 41 24 00 00 00 00 	movl   $0x0,0x24(%ecx)
    231e:	8d 44 10 f8          	lea    -0x8(%eax,%edx,1),%eax
    2322:	89 41 10             	mov    %eax,0x10(%ecx)
    2325:	8b 41 38             	mov    0x38(%ecx),%eax
    2328:	89 41 28             	mov    %eax,0x28(%ecx)
    232b:	89 c8                	mov    %ecx,%eax
    232d:	c9                   	leave  
    232e:	c3                   	ret    
    232f:	90                   	nop
    2330:	e8 cb 4e 01 00       	call   17200 <stack_size_get>
    2335:	89 45 10             	mov    %eax,0x10(%ebp)
    2338:	eb 90                	jmp    22ca <fibril_create_generic+0xba>
    233a:	8d b6 00 00 00 00    	lea    0x0(%esi),%esi
    2340:	50                   	push   %eax
    2341:	6a 0c                	push   $0xc
    2343:	6a 00                	push   $0x0
    2345:	6a 00                	push   $0x0
    2347:	6a 00                	push   $0x0
    2349:	6a 00                	push   $0x0
    234b:	6a 00                	push   $0x0
    234d:	68 f4 71 02 00       	push   $0x271f4
    2352:	ff 15 c8 73 02 00    	call   *0x273c8
    2358:	83 c4 20             	add    $0x20,%esp
    235b:	e9 63 ff ff ff       	jmp    22c3 <fibril_create_generic+0xb3>
    2360:	50                   	push   %eax
    2361:	6a 0b                	push   $0xb
    2363:	6a 00                	push   $0x0
    2365:	6a 00                	push   $0x0
    2367:	6a 00                	push   $0x0
    2369:	6a 00                	push   $0x0
    236b:	6a 00                	push   $0x0
    236d:	68 f4 71 02 00       	push   $0x271f4
    2372:	ff 15 c8 73 02 00    	call   *0x273c8
    2378:	83 c4 20             	add    $0x20,%esp
    237b:	e9 0e ff ff ff       	jmp    228e <fibril_create_generic+0x7e>
    2380:	83 ec 0c             	sub    $0xc,%esp
    2383:	53                   	push   %ebx
    2384:	e8 a7 03 00 00       	call   2730 <tls_free>
    2389:	83 c4 10             	add    $0x10,%esp
    238c:	8d 74 26 00          	lea    0x0(%esi,%eiz,1),%esi
    2390:	31 c0                	xor    %eax,%eax
    2392:	8b 5d fc             	mov    -0x4(%ebp),%ebx
    2395:	c9                   	leave  
    2396:	c3                   	ret    
    2397:	90                   	nop
    2398:	51                   	push   %ecx
    2399:	51                   	push   %ecx
    239a:	6a 00                	push   $0x0
    239c:	52                   	push   %edx
    239d:	e8 2e fa ff ff       	call   1dd0 <fibril_teardown>
    23a2:	83 c4 10             	add    $0x10,%esp
    23a5:	31 c0                	xor    %eax,%eax
    23a7:	eb e9                	jmp    2392 <fibril_create_generic+0x182>
    23a9:	8d b4 26 00 00 00 00 	lea    0x0(%esi,%eiz,1),%esi

000023b0 <fibril_destroy>:
    23b0:	55                   	push   %ebp
    23b1:	89 e5                	mov    %esp,%ebp
    23b3:	53                   	push   %ebx
    23b4:	83 ec 10             	sub    $0x10,%esp
    23b7:	8b 5d 08             	mov    0x8(%ebp),%ebx
    23ba:	8b 43 2c             	mov    0x2c(%ebx),%eax
    23bd:	50                   	push   %eax
    23be:	e8 fd 65 01 00       	call   189c0 <as_area_destroy>
    23c3:	83 c8 ff             	or     $0xffffffff,%eax
    23c6:	f0 0f c1 05 f4 71 02 	lock xadd %eax,0x271f4
    23cd:	00 
    23ce:	83 c4 10             	add    $0x10,%esp
    23d1:	48                   	dec    %eax
    23d2:	78 74                	js     2448 <fibril_destroy+0x98>
    23d4:	8b 53 08             	mov    0x8(%ebx),%edx
    23d7:	85 d2                	test   %edx,%edx
    23d9:	74 0f                	je     23ea <fibril_destroy+0x3a>
    23db:	8b 43 0c             	mov    0xc(%ebx),%eax
    23de:	85 c0                	test   %eax,%eax
    23e0:	74 08                	je     23ea <fibril_destroy+0x3a>
    23e2:	89 10                	mov    %edx,(%eax)
    23e4:	8b 53 08             	mov    0x8(%ebx),%edx
    23e7:	89 42 04             	mov    %eax,0x4(%edx)
    23ea:	c7 43 08 00 00 00 00 	movl   $0x0,0x8(%ebx)
    23f1:	c7 43 0c 00 00 00 00 	movl   $0x0,0xc(%ebx)
    23f8:	b8 01 00 00 00       	mov    $0x1,%eax
    23fd:	f0 0f c1 05 f4 71 02 	lock xadd %eax,0x271f4
    2404:	00 
    2405:	85 c0                	test   %eax,%eax
    2407:	78 1f                	js     2428 <fibril_destroy+0x78>
    2409:	83 ec 0c             	sub    $0xc,%esp
    240c:	8b 43 38             	mov    0x38(%ebx),%eax
    240f:	50                   	push   %eax
    2410:	e8 1b 03 00 00       	call   2730 <tls_free>
    2415:	89 5d 08             	mov    %ebx,0x8(%ebp)
    2418:	83 c4 10             	add    $0x10,%esp
    241b:	8b 5d fc             	mov    -0x4(%ebp),%ebx
    241e:	c9                   	leave  
    241f:	e9 9c 87 00 00       	jmp    abc0 <free>
    2424:	8d 74 26 00          	lea    0x0(%esi,%eiz,1),%esi
    2428:	52                   	push   %edx
    2429:	6a 0c                	push   $0xc
    242b:	6a 00                	push   $0x0
    242d:	6a 00                	push   $0x0
    242f:	6a 00                	push   $0x0
    2431:	6a 00                	push   $0x0
    2433:	6a 00                	push   $0x0
    2435:	68 f4 71 02 00       	push   $0x271f4
    243a:	ff 15 c8 73 02 00    	call   *0x273c8
    2440:	83 c4 20             	add    $0x20,%esp
    2443:	eb c4                	jmp    2409 <fibril_destroy+0x59>
    2445:	8d 76 00             	lea    0x0(%esi),%esi
    2448:	51                   	push   %ecx
    2449:	6a 0b                	push   $0xb
    244b:	6a 00                	push   $0x0
    244d:	6a 00                	push   $0x0
    244f:	6a 00                	push   $0x0
    2451:	6a 00                	push   $0x0
    2453:	6a 00                	push   $0x0
    2455:	68 f4 71 02 00       	push   $0x271f4
    245a:	ff 15 c8 73 02 00    	call   *0x273c8
    2460:	83 c4 20             	add    $0x20,%esp
    2463:	e9 6c ff ff ff       	jmp    23d4 <fibril_destroy+0x24>
    2468:	90                   	nop
    2469:	8d b4 26 00 00 00 00 	lea    0x0(%esi,%eiz,1),%esi

00002470 <fibril_add_ready>:
    2470:	55                   	push   %ebp
    2471:	83 c8 ff             	or     $0xffffffff,%eax
    2474:	89 e5                	mov    %esp,%ebp
    2476:	53                   	push   %ebx
    2477:	51                   	push   %ecx
    2478:	8b 5d 08             	mov    0x8(%ebp),%ebx
    247b:	f0 0f c1 05 f4 71 02 	lock xadd %eax,0x271f4
    2482:	00 
    2483:	48                   	dec    %eax
    2484:	78 52                	js     24d8 <fibril_add_ready+0x68>
    2486:	a1 ec 71 02 00       	mov    0x271ec,%eax
    248b:	c7 43 04 ec 71 02 00 	movl   $0x271ec,0x4(%ebx)
    2492:	89 03                	mov    %eax,(%ebx)
    2494:	a1 ec 71 02 00       	mov    0x271ec,%eax
    2499:	89 1d ec 71 02 00    	mov    %ebx,0x271ec
    249f:	89 58 04             	mov    %ebx,0x4(%eax)
    24a2:	b8 01 00 00 00       	mov    $0x1,%eax
    24a7:	f0 0f c1 05 f4 71 02 	lock xadd %eax,0x271f4
    24ae:	00 
    24af:	85 c0                	test   %eax,%eax
    24b1:	78 05                	js     24b8 <fibril_add_ready+0x48>
    24b3:	8b 5d fc             	mov    -0x4(%ebp),%ebx
    24b6:	c9                   	leave  
    24b7:	c3                   	ret    
    24b8:	50                   	push   %eax
    24b9:	6a 0c                	push   $0xc
    24bb:	6a 00                	push   $0x0
    24bd:	6a 00                	push   $0x0
    24bf:	6a 00                	push   $0x0
    24c1:	6a 00                	push   $0x0
    24c3:	6a 00                	push   $0x0
    24c5:	68 f4 71 02 00       	push   $0x271f4
    24ca:	ff 15 c8 73 02 00    	call   *0x273c8
    24d0:	83 c4 20             	add    $0x20,%esp
    24d3:	8b 5d fc             	mov    -0x4(%ebp),%ebx
    24d6:	c9                   	leave  
    24d7:	c3                   	ret    
    24d8:	52                   	push   %edx
    24d9:	6a 0b                	push   $0xb
    24db:	6a 00                	push   $0x0
    24dd:	6a 00                	push   $0x0
    24df:	6a 00                	push   $0x0
    24e1:	6a 00                	push   $0x0
    24e3:	6a 00                	push   $0x0
    24e5:	68 f4 71 02 00       	push   $0x271f4
    24ea:	ff 15 c8 73 02 00    	call   *0x273c8
    24f0:	83 c4 20             	add    $0x20,%esp
    24f3:	eb 91                	jmp    2486 <fibril_add_ready+0x16>
    24f5:	8d 74 26 00          	lea    0x0(%esi,%eiz,1),%esi
    24f9:	8d bc 27 00 00 00 00 	lea    0x0(%edi,%eiz,1),%edi

00002500 <fibril_add_manager>:
    2500:	55                   	push   %ebp
    2501:	83 c8 ff             	or     $0xffffffff,%eax
    2504:	89 e5                	mov    %esp,%ebp
    2506:	53                   	push   %ebx
    2507:	51                   	push   %ecx
    2508:	8b 5d 08             	mov    0x8(%ebp),%ebx
    250b:	f0 0f c1 05 f4 71 02 	lock xadd %eax,0x271f4
    2512:	00 
    2513:	48                   	dec    %eax
    2514:	78 52                	js     2568 <fibril_add_manager+0x68>
    2516:	a1 e4 71 02 00       	mov    0x271e4,%eax
    251b:	c7 43 04 e4 71 02 00 	movl   $0x271e4,0x4(%ebx)
    2522:	89 03                	mov    %eax,(%ebx)
    2524:	a1 e4 71 02 00       	mov    0x271e4,%eax
    2529:	89 1d e4 71 02 00    	mov    %ebx,0x271e4
    252f:	89 58 04             	mov    %ebx,0x4(%eax)
    2532:	b8 01 00 00 00       	mov    $0x1,%eax
    2537:	f0 0f c1 05 f4 71 02 	lock xadd %eax,0x271f4
    253e:	00 
    253f:	85 c0                	test   %eax,%eax
    2541:	78 05                	js     2548 <fibril_add_manager+0x48>
    2543:	8b 5d fc             	mov    -0x4(%ebp),%ebx
    2546:	c9                   	leave  
    2547:	c3                   	ret    
    2548:	50                   	push   %eax
    2549:	6a 0c                	push   $0xc
    254b:	6a 00                	push   $0x0
    254d:	6a 00                	push   $0x0
    254f:	6a 00                	push   $0x0
    2551:	6a 00                	push   $0x0
    2553:	6a 00                	push   $0x0
    2555:	68 f4 71 02 00       	push   $0x271f4
    255a:	ff 15 c8 73 02 00    	call   *0x273c8
    2560:	83 c4 20             	add    $0x20,%esp
    2563:	8b 5d fc             	mov    -0x4(%ebp),%ebx
    2566:	c9                   	leave  
    2567:	c3                   	ret    
    2568:	52                   	push   %edx
    2569:	6a 0b                	push   $0xb
    256b:	6a 00                	push   $0x0
    256d:	6a 00                	push   $0x0
    256f:	6a 00                	push   $0x0
    2571:	6a 00                	push   $0x0
    2573:	6a 00                	push   $0x0
    2575:	68 f4 71 02 00       	push   $0x271f4
    257a:	ff 15 c8 73 02 00    	call   *0x273c8
    2580:	83 c4 20             	add    $0x20,%esp
    2583:	eb 91                	jmp    2516 <fibril_add_manager+0x16>
    2585:	8d 74 26 00          	lea    0x0(%esi,%eiz,1),%esi
    2589:	8d bc 27 00 00 00 00 	lea    0x0(%edi,%eiz,1),%edi

00002590 <fibril_remove_manager>:
    2590:	55                   	push   %ebp
    2591:	83 c8 ff             	or     $0xffffffff,%eax
    2594:	89 e5                	mov    %esp,%ebp
    2596:	83 ec 08             	sub    $0x8,%esp
    2599:	f0 0f c1 05 f4 71 02 	lock xadd %eax,0x271f4
    25a0:	00 
    25a1:	48                   	dec    %eax
    25a2:	78 64                	js     2608 <fibril_remove_manager+0x78>
    25a4:	a1 e8 71 02 00       	mov    0x271e8,%eax
    25a9:	3d e4 71 02 00       	cmp    $0x271e4,%eax
    25ae:	74 21                	je     25d1 <fibril_remove_manager+0x41>
    25b0:	8b 08                	mov    (%eax),%ecx
    25b2:	85 c9                	test   %ecx,%ecx
    25b4:	74 0e                	je     25c4 <fibril_remove_manager+0x34>
    25b6:	8b 50 04             	mov    0x4(%eax),%edx
    25b9:	85 d2                	test   %edx,%edx
    25bb:	74 07                	je     25c4 <fibril_remove_manager+0x34>
    25bd:	89 0a                	mov    %ecx,(%edx)
    25bf:	8b 08                	mov    (%eax),%ecx
    25c1:	89 51 04             	mov    %edx,0x4(%ecx)
    25c4:	c7 00 00 00 00 00    	movl   $0x0,(%eax)
    25ca:	c7 40 04 00 00 00 00 	movl   $0x0,0x4(%eax)
    25d1:	b8 01 00 00 00       	mov    $0x1,%eax
    25d6:	f0 0f c1 05 f4 71 02 	lock xadd %eax,0x271f4
    25dd:	00 
    25de:	85 c0                	test   %eax,%eax
    25e0:	78 06                	js     25e8 <fibril_remove_manager+0x58>
    25e2:	c9                   	leave  
    25e3:	c3                   	ret    
    25e4:	8d 74 26 00          	lea    0x0(%esi,%eiz,1),%esi
    25e8:	50                   	push   %eax
    25e9:	6a 0c                	push   $0xc
    25eb:	6a 00                	push   $0x0
    25ed:	6a 00                	push   $0x0
    25ef:	6a 00                	push   $0x0
    25f1:	6a 00                	push   $0x0
    25f3:	6a 00                	push   $0x0
    25f5:	68 f4 71 02 00       	push   $0x271f4
    25fa:	ff 15 c8 73 02 00    	call   *0x273c8
    2600:	83 c4 20             	add    $0x20,%esp
    2603:	c9                   	leave  
    2604:	c3                   	ret    
    2605:	8d 76 00             	lea    0x0(%esi),%esi
    2608:	52                   	push   %edx
    2609:	6a 0b                	push   $0xb
    260b:	6a 00                	push   $0x0
    260d:	6a 00                	push   $0x0
    260f:	6a 00                	push   $0x0
    2611:	6a 00                	push   $0x0
    2613:	6a 00                	push   $0x0
    2615:	68 f4 71 02 00       	push   $0x271f4
    261a:	ff 15 c8 73 02 00    	call   *0x273c8
    2620:	83 c4 20             	add    $0x20,%esp
    2623:	e9 7c ff ff ff       	jmp    25a4 <fibril_remove_manager+0x14>
    2628:	90                   	nop
    2629:	8d b4 26 00 00 00 00 	lea    0x0(%esi,%eiz,1),%esi

00002630 <fibril_get_id>:
    2630:	55                   	push   %ebp
    2631:	89 e5                	mov    %esp,%ebp
    2633:	65 a1 00 00 00 00    	mov    %gs:0x0,%eax
    2639:	8b 40 04             	mov    0x4(%eax),%eax
    263c:	5d                   	pop    %ebp
    263d:	c3                   	ret    
    263e:	66 90                	xchg   %ax,%ax

00002640 <tls_get_size>:
    2640:	55                   	push   %ebp
    2641:	a1 68 74 02 00       	mov    0x27468,%eax
    2646:	89 e5                	mov    %esp,%ebp
    2648:	85 c0                	test   %eax,%eax
    264a:	74 0c                	je     2658 <tls_get_size+0x18>
    264c:	8b 80 ac 00 00 00    	mov    0xac(%eax),%eax
    2652:	5d                   	pop    %ebp
    2653:	c3                   	ret    
    2654:	8d 74 26 00          	lea    0x0(%esi,%eiz,1),%esi
    2658:	b8 58 74 02 00       	mov    $0x27458,%eax
    265d:	5d                   	pop    %ebp
    265e:	2d 50 74 02 00       	sub    $0x27450,%eax
    2663:	c3                   	ret    
    2664:	8d b6 00 00 00 00    	lea    0x0(%esi),%esi
    266a:	8d bf 00 00 00 00    	lea    0x0(%edi),%edi

00002670 <tls_get>:
    2670:	55                   	push   %ebp
    2671:	89 e5                	mov    %esp,%ebp
    2673:	65 a1 00 00 00 00    	mov    %gs:0x0,%eax
    2679:	8b 15 68 74 02 00    	mov    0x27468,%edx
    267f:	85 d2                	test   %edx,%edx
    2681:	74 0d                	je     2690 <tls_get+0x20>
    2683:	8b 92 ac 00 00 00    	mov    0xac(%edx),%edx
    2689:	5d                   	pop    %ebp
    268a:	29 d0                	sub    %edx,%eax
    268c:	c3                   	ret    
    268d:	8d 76 00             	lea    0x0(%esi),%esi
    2690:	ba 58 74 02 00       	mov    $0x27458,%edx
    2695:	5d                   	pop    %ebp
    2696:	81 ea 50 74 02 00    	sub    $0x27450,%edx
    269c:	29 d0                	sub    %edx,%eax
    269e:	c3                   	ret    
    269f:	90                   	nop

000026a0 <tls_make>:
    26a0:	55                   	push   %ebp
    26a1:	89 e5                	mov    %esp,%ebp
    26a3:	56                   	push   %esi
    26a4:	53                   	push   %ebx
    26a5:	83 ec 10             	sub    $0x10,%esp
    26a8:	a1 68 74 02 00       	mov    0x27468,%eax
    26ad:	85 c0                	test   %eax,%eax
    26af:	74 17                	je     26c8 <tls_make+0x28>
    26b1:	83 ec 0c             	sub    $0xc,%esp
    26b4:	50                   	push   %eax
    26b5:	e8 96 4d 01 00       	call   17450 <rtld_tls_make>
    26ba:	83 c4 10             	add    $0x10,%esp
    26bd:	89 c3                	mov    %eax,%ebx
    26bf:	8d 65 f8             	lea    -0x8(%ebp),%esp
    26c2:	89 d8                	mov    %ebx,%eax
    26c4:	5b                   	pop    %ebx
    26c5:	5e                   	pop    %esi
    26c6:	5d                   	pop    %ebp
    26c7:	c3                   	ret    
    26c8:	be 58 74 02 00       	mov    $0x27458,%esi
    26cd:	53                   	push   %ebx
    26ce:	89 f0                	mov    %esi,%eax
    26d0:	53                   	push   %ebx
    26d1:	2d 50 74 02 00       	sub    $0x27450,%eax
    26d6:	50                   	push   %eax
    26d7:	8d 45 f4             	lea    -0xc(%ebp),%eax
    26da:	50                   	push   %eax
    26db:	e8 60 5a 01 00       	call   18140 <tls_alloc_arch>
    26e0:	83 c4 10             	add    $0x10,%esp
    26e3:	89 c3                	mov    %eax,%ebx
    26e5:	85 c0                	test   %eax,%eax
    26e7:	74 d6                	je     26bf <tls_make+0x1f>
    26e9:	50                   	push   %eax
    26ea:	b8 50 74 02 00       	mov    $0x27450,%eax
    26ef:	8b 55 f4             	mov    -0xc(%ebp),%edx
    26f2:	2d 50 74 02 00       	sub    $0x27450,%eax
    26f7:	50                   	push   %eax
    26f8:	68 50 74 02 00       	push   $0x27450
    26fd:	52                   	push   %edx
    26fe:	e8 7d 8a 01 00       	call   1b180 <memcpy>
    2703:	b8 50 74 02 00       	mov    $0x27450,%eax
    2708:	83 c4 0c             	add    $0xc,%esp
    270b:	8b 4d f4             	mov    -0xc(%ebp),%ecx
    270e:	2d 50 74 02 00       	sub    $0x27450,%eax
    2713:	81 ee 50 74 02 00    	sub    $0x27450,%esi
    2719:	01 c8                	add    %ecx,%eax
    271b:	56                   	push   %esi
    271c:	6a 00                	push   $0x0
    271e:	50                   	push   %eax
    271f:	e8 ac 89 01 00       	call   1b0d0 <memset>
    2724:	83 c4 10             	add    $0x10,%esp
    2727:	8d 65 f8             	lea    -0x8(%ebp),%esp
    272a:	89 d8                	mov    %ebx,%eax
    272c:	5b                   	pop    %ebx
    272d:	5e                   	pop    %esi
    272e:	5d                   	pop    %ebp
    272f:	c3                   	ret    

00002730 <tls_free>:
    2730:	55                   	push   %ebp
    2731:	89 e5                	mov    %esp,%ebp
    2733:	53                   	push   %ebx
    2734:	83 ec 10             	sub    $0x10,%esp
    2737:	8b 5d 08             	mov    0x8(%ebp),%ebx
    273a:	8b 4b 08             	mov    0x8(%ebx),%ecx
    273d:	51                   	push   %ecx
    273e:	e8 7d 84 00 00       	call   abc0 <free>
    2743:	a1 68 74 02 00       	mov    0x27468,%eax
    2748:	83 c4 10             	add    $0x10,%esp
    274b:	85 c0                	test   %eax,%eax
    274d:	74 19                	je     2768 <tls_free+0x38>
    274f:	8b 80 ac 00 00 00    	mov    0xac(%eax),%eax
    2755:	52                   	push   %edx
    2756:	52                   	push   %edx
    2757:	50                   	push   %eax
    2758:	53                   	push   %ebx
    2759:	e8 f2 59 01 00       	call   18150 <tls_free_arch>
    275e:	83 c4 10             	add    $0x10,%esp
    2761:	8b 5d fc             	mov    -0x4(%ebp),%ebx
    2764:	c9                   	leave  
    2765:	c3                   	ret    
    2766:	66 90                	xchg   %ax,%ax
    2768:	b8 58 74 02 00       	mov    $0x27458,%eax
    276d:	2d 50 74 02 00       	sub    $0x27450,%eax
    2772:	eb e1                	jmp    2755 <tls_free+0x25>
    2774:	8d b6 00 00 00 00    	lea    0x0(%esi),%esi
    277a:	8d bf 00 00 00 00    	lea    0x0(%edi),%edi

00002780 <tls_alloc_variant_2>:
    2780:	55                   	push   %ebp
    2781:	89 e5                	mov    %esp,%ebp
    2783:	53                   	push   %ebx
    2784:	83 ec 0c             	sub    $0xc,%esp
    2787:	bb 04 00 00 00       	mov    $0x4,%ebx
    278c:	8b 45 0c             	mov    0xc(%ebp),%eax
    278f:	8d 90 03 00 00 00    	lea    0x3(%eax),%edx
    2795:	89 d8                	mov    %ebx,%eax
    2797:	f7 d8                	neg    %eax
    2799:	21 c2                	and    %eax,%edx
    279b:	89 d3                	mov    %edx,%ebx
    279d:	8d 42 0c             	lea    0xc(%edx),%eax
    27a0:	50                   	push   %eax
    27a1:	68 04 00 00 00       	push   $0x4
    27a6:	e8 f5 82 00 00       	call   aaa0 <memalign>
    27ab:	8b 55 08             	mov    0x8(%ebp),%edx
    27ae:	83 c4 10             	add    $0x10,%esp
    27b1:	85 c0                	test   %eax,%eax
    27b3:	89 02                	mov    %eax,(%edx)
    27b5:	74 11                	je     27c8 <tls_alloc_variant_2+0x48>
    27b7:	01 d8                	add    %ebx,%eax
    27b9:	89 00                	mov    %eax,(%eax)
    27bb:	c7 40 08 00 00 00 00 	movl   $0x0,0x8(%eax)
    27c2:	8b 5d fc             	mov    -0x4(%ebp),%ebx
    27c5:	c9                   	leave  
    27c6:	c3                   	ret    
    27c7:	90                   	nop
    27c8:	31 c0                	xor    %eax,%eax
    27ca:	eb f6                	jmp    27c2 <tls_alloc_variant_2+0x42>
    27cc:	8d 74 26 00          	lea    0x0(%esi,%eiz,1),%esi

000027d0 <tls_free_variant_2>:
    27d0:	55                   	push   %ebp
    27d1:	ba 04 00 00 00       	mov    $0x4,%edx
    27d6:	89 e5                	mov    %esp,%ebp
    27d8:	f7 da                	neg    %edx
    27da:	8b 45 0c             	mov    0xc(%ebp),%eax
    27dd:	05 03 00 00 00       	add    $0x3,%eax
    27e2:	21 d0                	and    %edx,%eax
    27e4:	8b 55 08             	mov    0x8(%ebp),%edx
    27e7:	29 c2                	sub    %eax,%edx
    27e9:	89 55 08             	mov    %edx,0x8(%ebp)
    27ec:	5d                   	pop    %ebp
    27ed:	e9 ce 83 00 00       	jmp    abc0 <free>
    27f2:	66 90                	xchg   %ax,%ax
    27f4:	66 90                	xchg   %ax,%ax
    27f6:	66 90                	xchg   %ax,%ax
    27f8:	66 90                	xchg   %ax,%ax
    27fa:	66 90                	xchg   %ax,%ax
    27fc:	66 90                	xchg   %ax,%ax
    27fe:	66 90                	xchg   %ax,%ax

00002800 <task_get_id>:
    2800:	55                   	push   %ebp
    2801:	89 e5                	mov    %esp,%ebp
    2803:	83 ec 1c             	sub    $0x1c,%esp
    2806:	8d 45 f0             	lea    -0x10(%ebp),%eax
    2809:	6a 06                	push   $0x6
    280b:	6a 00                	push   $0x0
    280d:	6a 00                	push   $0x0
    280f:	6a 00                	push   $0x0
    2811:	6a 00                	push   $0x0
    2813:	6a 00                	push   $0x0
    2815:	50                   	push   %eax
    2816:	ff 15 c8 73 02 00    	call   *0x273c8
    281c:	8b 45 f0             	mov    -0x10(%ebp),%eax
    281f:	8b 55 f4             	mov    -0xc(%ebp),%edx
    2822:	c9                   	leave  
    2823:	c3                   	ret    
    2824:	8d b6 00 00 00 00    	lea    0x0(%esi),%esi
    282a:	8d bf 00 00 00 00    	lea    0x0(%edi),%edi

00002830 <task_set_name>:
    2830:	55                   	push   %ebp
    2831:	89 e5                	mov    %esp,%ebp
    2833:	56                   	push   %esi
    2834:	53                   	push   %ebx
    2835:	8b 5d 08             	mov    0x8(%ebp),%ebx
    2838:	85 db                	test   %ebx,%ebx
    283a:	74 27                	je     2863 <task_set_name+0x33>
    283c:	83 ec 0c             	sub    $0xc,%esp
    283f:	8b 35 c8 73 02 00    	mov    0x273c8,%esi
    2845:	53                   	push   %ebx
    2846:	e8 a5 91 01 00       	call   1b9f0 <str_size>
    284b:	83 c4 0c             	add    $0xc,%esp
    284e:	6a 07                	push   $0x7
    2850:	6a 00                	push   $0x0
    2852:	6a 00                	push   $0x0
    2854:	6a 00                	push   $0x0
    2856:	6a 00                	push   $0x0
    2858:	50                   	push   %eax
    2859:	53                   	push   %ebx
    285a:	ff d6                	call   *%esi
    285c:	8d 65 f8             	lea    -0x8(%ebp),%esp
    285f:	5b                   	pop    %ebx
    2860:	5e                   	pop    %esi
    2861:	5d                   	pop    %ebp
    2862:	c3                   	ret    
    2863:	50                   	push   %eax
    2864:	6a 4a                	push   $0x4a
    2866:	68 dd 3a 02 00       	push   $0x23add
    286b:	68 ec 3a 02 00       	push   $0x23aec
    2870:	e8 bb 49 01 00       	call   17230 <assert_abort>
    2875:	8d 74 26 00          	lea    0x0(%esi,%eiz,1),%esi
    2879:	8d bc 27 00 00 00 00 	lea    0x0(%edi,%eiz,1),%edi

00002880 <task_kill>:
    2880:	55                   	push   %ebp
    2881:	89 e5                	mov    %esp,%ebp
    2883:	83 ec 1c             	sub    $0x1c,%esp
    2886:	8b 45 08             	mov    0x8(%ebp),%eax
    2889:	6a 08                	push   $0x8
    288b:	89 45 f0             	mov    %eax,-0x10(%ebp)
    288e:	8b 45 0c             	mov    0xc(%ebp),%eax
    2891:	89 45 f4             	mov    %eax,-0xc(%ebp)
    2894:	8d 45 f0             	lea    -0x10(%ebp),%eax
    2897:	6a 00                	push   $0x0
    2899:	6a 00                	push   $0x0
    289b:	6a 00                	push   $0x0
    289d:	6a 00                	push   $0x0
    289f:	6a 00                	push   $0x0
    28a1:	50                   	push   %eax
    28a2:	ff 15 c8 73 02 00    	call   *0x273c8
    28a8:	c9                   	leave  
    28a9:	c3                   	ret    
    28aa:	8d b6 00 00 00 00    	lea    0x0(%esi),%esi

000028b0 <task_setup_wait>:
    28b0:	55                   	push   %ebp
    28b1:	89 e5                	mov    %esp,%ebp
    28b3:	57                   	push   %edi
    28b4:	56                   	push   %esi
    28b5:	53                   	push   %ebx
    28b6:	83 ec 18             	sub    $0x18,%esp
    28b9:	a1 64 74 02 00       	mov    0x27464,%eax
    28be:	8b 7d 08             	mov    0x8(%ebp),%edi
    28c1:	8b 75 0c             	mov    0xc(%ebp),%esi
    28c4:	50                   	push   %eax
    28c5:	e8 76 d8 00 00       	call   10140 <async_exchange_begin>
    28ca:	83 c4 0c             	add    $0xc,%esp
    28cd:	8b 55 10             	mov    0x10(%ebp),%edx
    28d0:	89 c3                	mov    %eax,%ebx
    28d2:	52                   	push   %edx
    28d3:	6a 00                	push   $0x0
    28d5:	6a 00                	push   $0x0
    28d7:	56                   	push   %esi
    28d8:	57                   	push   %edi
    28d9:	68 01 04 00 00       	push   $0x401
    28de:	50                   	push   %eax
    28df:	e8 9c bb 00 00       	call   e480 <async_send_fast>
    28e4:	8b 55 10             	mov    0x10(%ebp),%edx
    28e7:	83 c4 14             	add    $0x14,%esp
    28ea:	89 42 24             	mov    %eax,0x24(%edx)
    28ed:	53                   	push   %ebx
    28ee:	e8 3d db 00 00       	call   10430 <async_exchange_end>
    28f3:	8d 65 f4             	lea    -0xc(%ebp),%esp
    28f6:	31 c0                	xor    %eax,%eax
    28f8:	5b                   	pop    %ebx
    28f9:	5e                   	pop    %esi
    28fa:	5f                   	pop    %edi
    28fb:	5d                   	pop    %ebp
    28fc:	c3                   	ret    
    28fd:	8d 76 00             	lea    0x0(%esi),%esi

00002900 <task_spawnvf>:
    2900:	55                   	push   %ebp
    2901:	89 e5                	mov    %esp,%ebp
    2903:	53                   	push   %ebx
    2904:	83 ec 24             	sub    $0x24,%esp
    2907:	e8 e4 f3 00 00       	call   11cf0 <loader_connect>
    290c:	85 c0                	test   %eax,%eax
    290e:	0f 84 d4 00 00 00    	je     29e8 <task_spawnvf+0xe8>
    2914:	89 c3                	mov    %eax,%ebx
    2916:	8d 45 f0             	lea    -0x10(%ebp),%eax
    2919:	52                   	push   %edx
    291a:	52                   	push   %edx
    291b:	50                   	push   %eax
    291c:	53                   	push   %ebx
    291d:	e8 1e f4 00 00       	call   11d40 <loader_get_task_id>
    2922:	83 c4 10             	add    $0x10,%esp
    2925:	85 c0                	test   %eax,%eax
    2927:	74 17                	je     2940 <task_spawnvf+0x40>
    2929:	83 ec 0c             	sub    $0xc,%esp
    292c:	89 45 e4             	mov    %eax,-0x1c(%ebp)
    292f:	53                   	push   %ebx
    2930:	e8 3b f9 00 00       	call   12270 <loader_abort>
    2935:	83 c4 10             	add    $0x10,%esp
    2938:	8b 45 e4             	mov    -0x1c(%ebp),%eax
    293b:	8b 5d fc             	mov    -0x4(%ebp),%ebx
    293e:	c9                   	leave  
    293f:	c3                   	ret    
    2940:	83 ec 0c             	sub    $0xc,%esp
    2943:	53                   	push   %ebx
    2944:	e8 87 f4 00 00       	call   11dd0 <loader_set_cwd>
    2949:	83 c4 10             	add    $0x10,%esp
    294c:	85 c0                	test   %eax,%eax
    294e:	75 d9                	jne    2929 <task_spawnvf+0x29>
    2950:	50                   	push   %eax
    2951:	50                   	push   %eax
    2952:	8b 45 10             	mov    0x10(%ebp),%eax
    2955:	50                   	push   %eax
    2956:	53                   	push   %ebx
    2957:	e8 74 f5 00 00       	call   11ed0 <loader_set_pathname>
    295c:	83 c4 10             	add    $0x10,%esp
    295f:	85 c0                	test   %eax,%eax
    2961:	75 c6                	jne    2929 <task_spawnvf+0x29>
    2963:	50                   	push   %eax
    2964:	50                   	push   %eax
    2965:	8b 45 14             	mov    0x14(%ebp),%eax
    2968:	50                   	push   %eax
    2969:	53                   	push   %ebx
    296a:	e8 21 f6 00 00       	call   11f90 <loader_set_args>
    296f:	83 c4 10             	add    $0x10,%esp
    2972:	85 c0                	test   %eax,%eax
    2974:	75 b3                	jne    2929 <task_spawnvf+0x29>
    2976:	50                   	push   %eax
    2977:	50                   	push   %eax
    2978:	8b 45 18             	mov    0x18(%ebp),%eax
    297b:	50                   	push   %eax
    297c:	53                   	push   %ebx
    297d:	e8 2e f7 00 00       	call   120b0 <loader_set_files>
    2982:	83 c4 10             	add    $0x10,%esp
    2985:	85 c0                	test   %eax,%eax
    2987:	75 a0                	jne    2929 <task_spawnvf+0x29>
    2989:	83 ec 0c             	sub    $0xc,%esp
    298c:	53                   	push   %ebx
    298d:	e8 1e f8 00 00       	call   121b0 <loader_load_program>
    2992:	83 c4 10             	add    $0x10,%esp
    2995:	85 c0                	test   %eax,%eax
    2997:	75 90                	jne    2929 <task_spawnvf+0x29>
    2999:	8b 4d 0c             	mov    0xc(%ebp),%ecx
    299c:	85 c9                	test   %ecx,%ecx
    299e:	74 52                	je     29f2 <task_spawnvf+0xf2>
    29a0:	52                   	push   %edx
    29a1:	ff 75 0c             	pushl  0xc(%ebp)
    29a4:	ff 75 f4             	pushl  -0xc(%ebp)
    29a7:	ff 75 f0             	pushl  -0x10(%ebp)
    29aa:	e8 01 ff ff ff       	call   28b0 <task_setup_wait>
    29af:	83 c4 10             	add    $0x10,%esp
    29b2:	85 c0                	test   %eax,%eax
    29b4:	0f 85 6f ff ff ff    	jne    2929 <task_spawnvf+0x29>
    29ba:	83 ec 0c             	sub    $0xc,%esp
    29bd:	53                   	push   %ebx
    29be:	e8 3d f8 00 00       	call   12200 <loader_run>
    29c3:	83 c4 10             	add    $0x10,%esp
    29c6:	85 c0                	test   %eax,%eax
    29c8:	74 3c                	je     2a06 <task_spawnvf+0x106>
    29ca:	89 45 e4             	mov    %eax,-0x1c(%ebp)
    29cd:	8b 45 0c             	mov    0xc(%ebp),%eax
    29d0:	83 ec 0c             	sub    $0xc,%esp
    29d3:	8b 40 24             	mov    0x24(%eax),%eax
    29d6:	50                   	push   %eax
    29d7:	e8 f4 c2 00 00       	call   ecd0 <async_forget>
    29dc:	83 c4 10             	add    $0x10,%esp
    29df:	8b 45 e4             	mov    -0x1c(%ebp),%eax
    29e2:	e9 42 ff ff ff       	jmp    2929 <task_spawnvf+0x29>
    29e7:	90                   	nop
    29e8:	b8 fc ff ff ff       	mov    $0xfffffffc,%eax
    29ed:	e9 49 ff ff ff       	jmp    293b <task_spawnvf+0x3b>
    29f2:	83 ec 0c             	sub    $0xc,%esp
    29f5:	53                   	push   %ebx
    29f6:	e8 05 f8 00 00       	call   12200 <loader_run>
    29fb:	83 c4 10             	add    $0x10,%esp
    29fe:	85 c0                	test   %eax,%eax
    2a00:	0f 85 23 ff ff ff    	jne    2929 <task_spawnvf+0x29>
    2a06:	83 7d 08 00          	cmpl   $0x0,0x8(%ebp)
    2a0a:	74 15                	je     2a21 <task_spawnvf+0x121>
    2a0c:	8b 4d 08             	mov    0x8(%ebp),%ecx
    2a0f:	8b 45 f0             	mov    -0x10(%ebp),%eax
    2a12:	8b 55 f4             	mov    -0xc(%ebp),%edx
    2a15:	89 01                	mov    %eax,(%ecx)
    2a17:	89 51 04             	mov    %edx,0x4(%ecx)
    2a1a:	31 c0                	xor    %eax,%eax
    2a1c:	e9 1a ff ff ff       	jmp    293b <task_spawnvf+0x3b>
    2a21:	31 c0                	xor    %eax,%eax
    2a23:	e9 13 ff ff ff       	jmp    293b <task_spawnvf+0x3b>
    2a28:	90                   	nop
    2a29:	8d b4 26 00 00 00 00 	lea    0x0(%esi,%eiz,1),%esi

00002a30 <task_spawnl>:
    2a30:	55                   	push   %ebp
    2a31:	31 d2                	xor    %edx,%edx
    2a33:	89 e5                	mov    %esp,%ebp
    2a35:	56                   	push   %esi
    2a36:	53                   	push   %ebx
    2a37:	83 ec 30             	sub    $0x30,%esp
    2a3a:	8d 45 14             	lea    0x14(%ebp),%eax
    2a3d:	8d 76 00             	lea    0x0(%esi),%esi
    2a40:	83 c0 04             	add    $0x4,%eax
    2a43:	8b 58 fc             	mov    -0x4(%eax),%ebx
    2a46:	42                   	inc    %edx
    2a47:	85 db                	test   %ebx,%ebx
    2a49:	75 f5                	jne    2a40 <task_spawnl+0x10>
    2a4b:	c1 e2 02             	shl    $0x2,%edx
    2a4e:	83 ec 0c             	sub    $0xc,%esp
    2a51:	52                   	push   %edx
    2a52:	e8 b9 7f 00 00       	call   aa10 <malloc>
    2a57:	83 c4 10             	add    $0x10,%esp
    2a5a:	89 c3                	mov    %eax,%ebx
    2a5c:	85 c0                	test   %eax,%eax
    2a5e:	0f 84 cb 00 00 00    	je     2b2f <task_spawnl+0xff>
    2a64:	31 c0                	xor    %eax,%eax
    2a66:	66 90                	xchg   %ax,%ax
    2a68:	8b 54 85 14          	mov    0x14(%ebp,%eax,4),%edx
    2a6c:	40                   	inc    %eax
    2a6d:	85 d2                	test   %edx,%edx
    2a6f:	89 54 83 fc          	mov    %edx,-0x4(%ebx,%eax,4)
    2a73:	75 f3                	jne    2a68 <task_spawnl+0x38>
    2a75:	a1 e4 74 02 00       	mov    0x274e4,%eax
    2a7a:	85 c0                	test   %eax,%eax
    2a7c:	0f 84 a6 00 00 00    	je     2b28 <task_spawnl+0xf8>
    2a82:	8d 75 dc             	lea    -0x24(%ebp),%esi
    2a85:	51                   	push   %ecx
    2a86:	51                   	push   %ecx
    2a87:	56                   	push   %esi
    2a88:	50                   	push   %eax
    2a89:	e8 22 31 00 00       	call   5bb0 <vfs_fhandle>
    2a8e:	83 c4 10             	add    $0x10,%esp
    2a91:	89 f2                	mov    %esi,%edx
    2a93:	85 c0                	test   %eax,%eax
    2a95:	0f 85 8d 00 00 00    	jne    2b28 <task_spawnl+0xf8>
    2a9b:	a1 e0 74 02 00       	mov    0x274e0,%eax
    2aa0:	89 55 e8             	mov    %edx,-0x18(%ebp)
    2aa3:	85 c0                	test   %eax,%eax
    2aa5:	74 79                	je     2b20 <task_spawnl+0xf0>
    2aa7:	8d 75 e0             	lea    -0x20(%ebp),%esi
    2aaa:	52                   	push   %edx
    2aab:	52                   	push   %edx
    2aac:	56                   	push   %esi
    2aad:	50                   	push   %eax
    2aae:	e8 fd 30 00 00       	call   5bb0 <vfs_fhandle>
    2ab3:	83 c4 10             	add    $0x10,%esp
    2ab6:	89 f2                	mov    %esi,%edx
    2ab8:	85 c0                	test   %eax,%eax
    2aba:	75 64                	jne    2b20 <task_spawnl+0xf0>
    2abc:	a1 dc 74 02 00       	mov    0x274dc,%eax
    2ac1:	89 55 ec             	mov    %edx,-0x14(%ebp)
    2ac4:	85 c0                	test   %eax,%eax
    2ac6:	74 15                	je     2add <task_spawnl+0xad>
    2ac8:	56                   	push   %esi
    2ac9:	56                   	push   %esi
    2aca:	8d 75 e4             	lea    -0x1c(%ebp),%esi
    2acd:	56                   	push   %esi
    2ace:	50                   	push   %eax
    2acf:	e8 dc 30 00 00       	call   5bb0 <vfs_fhandle>
    2ad4:	83 c4 10             	add    $0x10,%esp
    2ad7:	89 f2                	mov    %esi,%edx
    2ad9:	85 c0                	test   %eax,%eax
    2adb:	74 02                	je     2adf <task_spawnl+0xaf>
    2add:	31 d2                	xor    %edx,%edx
    2adf:	83 ec 0c             	sub    $0xc,%esp
    2ae2:	8d 45 e8             	lea    -0x18(%ebp),%eax
    2ae5:	8b 4d 08             	mov    0x8(%ebp),%ecx
    2ae8:	89 55 f0             	mov    %edx,-0x10(%ebp)
    2aeb:	50                   	push   %eax
    2aec:	8b 55 0c             	mov    0xc(%ebp),%edx
    2aef:	8b 45 10             	mov    0x10(%ebp),%eax
    2af2:	53                   	push   %ebx
    2af3:	c7 45 f4 00 00 00 00 	movl   $0x0,-0xc(%ebp)
    2afa:	50                   	push   %eax
    2afb:	52                   	push   %edx
    2afc:	51                   	push   %ecx
    2afd:	e8 fe fd ff ff       	call   2900 <task_spawnvf>
    2b02:	83 c4 14             	add    $0x14,%esp
    2b05:	53                   	push   %ebx
    2b06:	89 45 d4             	mov    %eax,-0x2c(%ebp)
    2b09:	e8 b2 80 00 00       	call   abc0 <free>
    2b0e:	83 c4 10             	add    $0x10,%esp
    2b11:	8b 45 d4             	mov    -0x2c(%ebp),%eax
    2b14:	8d 65 f8             	lea    -0x8(%ebp),%esp
    2b17:	5b                   	pop    %ebx
    2b18:	5e                   	pop    %esi
    2b19:	5d                   	pop    %ebp
    2b1a:	c3                   	ret    
    2b1b:	90                   	nop
    2b1c:	8d 74 26 00          	lea    0x0(%esi,%eiz,1),%esi
    2b20:	31 d2                	xor    %edx,%edx
    2b22:	eb 98                	jmp    2abc <task_spawnl+0x8c>
    2b24:	8d 74 26 00          	lea    0x0(%esi,%eiz,1),%esi
    2b28:	31 d2                	xor    %edx,%edx
    2b2a:	e9 6c ff ff ff       	jmp    2a9b <task_spawnl+0x6b>
    2b2f:	b8 fe ff ff ff       	mov    $0xfffffffe,%eax
    2b34:	eb de                	jmp    2b14 <task_spawnl+0xe4>
    2b36:	8d 76 00             	lea    0x0(%esi),%esi
    2b39:	8d bc 27 00 00 00 00 	lea    0x0(%edi,%eiz,1),%edi

00002b40 <task_spawn>:
    2b40:	55                   	push   %ebp
    2b41:	89 e5                	mov    %esp,%ebp
    2b43:	56                   	push   %esi
    2b44:	53                   	push   %ebx
    2b45:	83 ec 3c             	sub    $0x3c,%esp
    2b48:	8b 45 14             	mov    0x14(%ebp),%eax
    2b4b:	8b 75 18             	mov    0x18(%ebp),%esi
    2b4e:	c1 e0 02             	shl    $0x2,%eax
    2b51:	50                   	push   %eax
    2b52:	e8 b9 7e 00 00       	call   aa10 <malloc>
    2b57:	83 c4 10             	add    $0x10,%esp
    2b5a:	85 c0                	test   %eax,%eax
    2b5c:	0f 84 cd 00 00 00    	je     2c2f <task_spawn+0xef>
    2b62:	89 c3                	mov    %eax,%ebx
    2b64:	31 c0                	xor    %eax,%eax
    2b66:	66 90                	xchg   %ax,%ax
    2b68:	8b 14 86             	mov    (%esi,%eax,4),%edx
    2b6b:	40                   	inc    %eax
    2b6c:	85 d2                	test   %edx,%edx
    2b6e:	89 54 83 fc          	mov    %edx,-0x4(%ebx,%eax,4)
    2b72:	75 f4                	jne    2b68 <task_spawn+0x28>
    2b74:	a1 e4 74 02 00       	mov    0x274e4,%eax
    2b79:	85 c0                	test   %eax,%eax
    2b7b:	0f 84 a7 00 00 00    	je     2c28 <task_spawn+0xe8>
    2b81:	8d 75 dc             	lea    -0x24(%ebp),%esi
    2b84:	51                   	push   %ecx
    2b85:	51                   	push   %ecx
    2b86:	56                   	push   %esi
    2b87:	50                   	push   %eax
    2b88:	e8 23 30 00 00       	call   5bb0 <vfs_fhandle>
    2b8d:	83 c4 10             	add    $0x10,%esp
    2b90:	89 f2                	mov    %esi,%edx
    2b92:	85 c0                	test   %eax,%eax
    2b94:	0f 85 8e 00 00 00    	jne    2c28 <task_spawn+0xe8>
    2b9a:	a1 e0 74 02 00       	mov    0x274e0,%eax
    2b9f:	89 55 e8             	mov    %edx,-0x18(%ebp)
    2ba2:	85 c0                	test   %eax,%eax
    2ba4:	74 7a                	je     2c20 <task_spawn+0xe0>
    2ba6:	8d 75 e0             	lea    -0x20(%ebp),%esi
    2ba9:	52                   	push   %edx
    2baa:	52                   	push   %edx
    2bab:	56                   	push   %esi
    2bac:	50                   	push   %eax
    2bad:	e8 fe 2f 00 00       	call   5bb0 <vfs_fhandle>
    2bb2:	83 c4 10             	add    $0x10,%esp
    2bb5:	89 f2                	mov    %esi,%edx
    2bb7:	85 c0                	test   %eax,%eax
    2bb9:	75 65                	jne    2c20 <task_spawn+0xe0>
    2bbb:	a1 dc 74 02 00       	mov    0x274dc,%eax
    2bc0:	89 55 ec             	mov    %edx,-0x14(%ebp)
    2bc3:	85 c0                	test   %eax,%eax
    2bc5:	74 15                	je     2bdc <task_spawn+0x9c>
    2bc7:	56                   	push   %esi
    2bc8:	56                   	push   %esi
    2bc9:	8d 75 e4             	lea    -0x1c(%ebp),%esi
    2bcc:	56                   	push   %esi
    2bcd:	50                   	push   %eax
    2bce:	e8 dd 2f 00 00       	call   5bb0 <vfs_fhandle>
    2bd3:	83 c4 10             	add    $0x10,%esp
    2bd6:	89 f2                	mov    %esi,%edx
    2bd8:	85 c0                	test   %eax,%eax
    2bda:	74 02                	je     2bde <task_spawn+0x9e>
    2bdc:	31 d2                	xor    %edx,%edx
    2bde:	83 ec 0c             	sub    $0xc,%esp
    2be1:	8d 45 e8             	lea    -0x18(%ebp),%eax
    2be4:	8b 4d 08             	mov    0x8(%ebp),%ecx
    2be7:	89 55 f0             	mov    %edx,-0x10(%ebp)
    2bea:	50                   	push   %eax
    2beb:	8b 55 0c             	mov    0xc(%ebp),%edx
    2bee:	8b 45 10             	mov    0x10(%ebp),%eax
    2bf1:	53                   	push   %ebx
    2bf2:	c7 45 f4 00 00 00 00 	movl   $0x0,-0xc(%ebp)
    2bf9:	50                   	push   %eax
    2bfa:	52                   	push   %edx
    2bfb:	51                   	push   %ecx
    2bfc:	e8 ff fc ff ff       	call   2900 <task_spawnvf>
    2c01:	83 c4 14             	add    $0x14,%esp
    2c04:	53                   	push   %ebx
    2c05:	89 45 d4             	mov    %eax,-0x2c(%ebp)
    2c08:	e8 b3 7f 00 00       	call   abc0 <free>
    2c0d:	83 c4 10             	add    $0x10,%esp
    2c10:	8b 45 d4             	mov    -0x2c(%ebp),%eax
    2c13:	8d 65 f8             	lea    -0x8(%ebp),%esp
    2c16:	5b                   	pop    %ebx
    2c17:	5e                   	pop    %esi
    2c18:	5d                   	pop    %ebp
    2c19:	c3                   	ret    
    2c1a:	8d b6 00 00 00 00    	lea    0x0(%esi),%esi
    2c20:	31 d2                	xor    %edx,%edx
    2c22:	eb 97                	jmp    2bbb <task_spawn+0x7b>
    2c24:	8d 74 26 00          	lea    0x0(%esi,%eiz,1),%esi
    2c28:	31 d2                	xor    %edx,%edx
    2c2a:	e9 6b ff ff ff       	jmp    2b9a <task_spawn+0x5a>
    2c2f:	b8 fe ff ff ff       	mov    $0xfffffffe,%eax
    2c34:	eb dd                	jmp    2c13 <task_spawn+0xd3>
    2c36:	8d 76 00             	lea    0x0(%esi),%esi
    2c39:	8d bc 27 00 00 00 00 	lea    0x0(%edi,%eiz,1),%edi

00002c40 <task_spawnv>:
    2c40:	55                   	push   %ebp
    2c41:	89 e5                	mov    %esp,%ebp
    2c43:	53                   	push   %ebx
    2c44:	83 ec 44             	sub    $0x44,%esp
    2c47:	a1 e4 74 02 00       	mov    0x274e4,%eax
    2c4c:	85 c0                	test   %eax,%eax
    2c4e:	0f 84 ac 00 00 00    	je     2d00 <task_spawnv+0xc0>
    2c54:	53                   	push   %ebx
    2c55:	53                   	push   %ebx
    2c56:	8d 5d d4             	lea    -0x2c(%ebp),%ebx
    2c59:	53                   	push   %ebx
    2c5a:	50                   	push   %eax
    2c5b:	e8 50 2f 00 00       	call   5bb0 <vfs_fhandle>
    2c60:	83 c4 10             	add    $0x10,%esp
    2c63:	89 da                	mov    %ebx,%edx
    2c65:	85 c0                	test   %eax,%eax
    2c67:	0f 85 93 00 00 00    	jne    2d00 <task_spawnv+0xc0>
    2c6d:	a1 e0 74 02 00       	mov    0x274e0,%eax
    2c72:	89 55 e8             	mov    %edx,-0x18(%ebp)
    2c75:	85 c0                	test   %eax,%eax
    2c77:	74 7f                	je     2cf8 <task_spawnv+0xb8>
    2c79:	8d 5d d8             	lea    -0x28(%ebp),%ebx
    2c7c:	51                   	push   %ecx
    2c7d:	51                   	push   %ecx
    2c7e:	53                   	push   %ebx
    2c7f:	50                   	push   %eax
    2c80:	e8 2b 2f 00 00       	call   5bb0 <vfs_fhandle>
    2c85:	83 c4 10             	add    $0x10,%esp
    2c88:	89 da                	mov    %ebx,%edx
    2c8a:	85 c0                	test   %eax,%eax
    2c8c:	75 6a                	jne    2cf8 <task_spawnv+0xb8>
    2c8e:	a1 dc 74 02 00       	mov    0x274dc,%eax
    2c93:	89 55 ec             	mov    %edx,-0x14(%ebp)
    2c96:	85 c0                	test   %eax,%eax
    2c98:	74 15                	je     2caf <task_spawnv+0x6f>
    2c9a:	8d 5d dc             	lea    -0x24(%ebp),%ebx
    2c9d:	52                   	push   %edx
    2c9e:	52                   	push   %edx
    2c9f:	53                   	push   %ebx
    2ca0:	50                   	push   %eax
    2ca1:	e8 0a 2f 00 00       	call   5bb0 <vfs_fhandle>
    2ca6:	83 c4 10             	add    $0x10,%esp
    2ca9:	89 da                	mov    %ebx,%edx
    2cab:	85 c0                	test   %eax,%eax
    2cad:	74 02                	je     2cb1 <task_spawnv+0x71>
    2caf:	31 d2                	xor    %edx,%edx
    2cb1:	89 55 f0             	mov    %edx,-0x10(%ebp)
    2cb4:	c7 45 f4 00 00 00 00 	movl   $0x0,-0xc(%ebp)
    2cbb:	e8 30 f0 00 00       	call   11cf0 <loader_connect>
    2cc0:	89 c3                	mov    %eax,%ebx
    2cc2:	85 c0                	test   %eax,%eax
    2cc4:	0f 84 ee 00 00 00    	je     2db8 <task_spawnv+0x178>
    2cca:	50                   	push   %eax
    2ccb:	50                   	push   %eax
    2ccc:	8d 45 e0             	lea    -0x20(%ebp),%eax
    2ccf:	50                   	push   %eax
    2cd0:	53                   	push   %ebx
    2cd1:	e8 6a f0 00 00       	call   11d40 <loader_get_task_id>
    2cd6:	83 c4 10             	add    $0x10,%esp
    2cd9:	85 c0                	test   %eax,%eax
    2cdb:	74 2b                	je     2d08 <task_spawnv+0xc8>
    2cdd:	83 ec 0c             	sub    $0xc,%esp
    2ce0:	89 45 c4             	mov    %eax,-0x3c(%ebp)
    2ce3:	53                   	push   %ebx
    2ce4:	e8 87 f5 00 00       	call   12270 <loader_abort>
    2ce9:	83 c4 10             	add    $0x10,%esp
    2cec:	8b 45 c4             	mov    -0x3c(%ebp),%eax
    2cef:	8b 5d fc             	mov    -0x4(%ebp),%ebx
    2cf2:	c9                   	leave  
    2cf3:	c3                   	ret    
    2cf4:	8d 74 26 00          	lea    0x0(%esi,%eiz,1),%esi
    2cf8:	31 d2                	xor    %edx,%edx
    2cfa:	eb 92                	jmp    2c8e <task_spawnv+0x4e>
    2cfc:	8d 74 26 00          	lea    0x0(%esi,%eiz,1),%esi
    2d00:	31 d2                	xor    %edx,%edx
    2d02:	e9 66 ff ff ff       	jmp    2c6d <task_spawnv+0x2d>
    2d07:	90                   	nop
    2d08:	83 ec 0c             	sub    $0xc,%esp
    2d0b:	53                   	push   %ebx
    2d0c:	e8 bf f0 00 00       	call   11dd0 <loader_set_cwd>
    2d11:	83 c4 10             	add    $0x10,%esp
    2d14:	85 c0                	test   %eax,%eax
    2d16:	75 c5                	jne    2cdd <task_spawnv+0x9d>
    2d18:	50                   	push   %eax
    2d19:	50                   	push   %eax
    2d1a:	8b 45 10             	mov    0x10(%ebp),%eax
    2d1d:	50                   	push   %eax
    2d1e:	53                   	push   %ebx
    2d1f:	e8 ac f1 00 00       	call   11ed0 <loader_set_pathname>
    2d24:	83 c4 10             	add    $0x10,%esp
    2d27:	85 c0                	test   %eax,%eax
    2d29:	75 b2                	jne    2cdd <task_spawnv+0x9d>
    2d2b:	50                   	push   %eax
    2d2c:	50                   	push   %eax
    2d2d:	8b 45 14             	mov    0x14(%ebp),%eax
    2d30:	50                   	push   %eax
    2d31:	53                   	push   %ebx
    2d32:	e8 59 f2 00 00       	call   11f90 <loader_set_args>
    2d37:	83 c4 10             	add    $0x10,%esp
    2d3a:	85 c0                	test   %eax,%eax
    2d3c:	75 9f                	jne    2cdd <task_spawnv+0x9d>
    2d3e:	50                   	push   %eax
    2d3f:	50                   	push   %eax
    2d40:	8d 45 e8             	lea    -0x18(%ebp),%eax
    2d43:	50                   	push   %eax
    2d44:	53                   	push   %ebx
    2d45:	e8 66 f3 00 00       	call   120b0 <loader_set_files>
    2d4a:	83 c4 10             	add    $0x10,%esp
    2d4d:	85 c0                	test   %eax,%eax
    2d4f:	75 8c                	jne    2cdd <task_spawnv+0x9d>
    2d51:	83 ec 0c             	sub    $0xc,%esp
    2d54:	53                   	push   %ebx
    2d55:	e8 56 f4 00 00       	call   121b0 <loader_load_program>
    2d5a:	83 c4 10             	add    $0x10,%esp
    2d5d:	85 c0                	test   %eax,%eax
    2d5f:	0f 85 78 ff ff ff    	jne    2cdd <task_spawnv+0x9d>
    2d65:	8b 4d 0c             	mov    0xc(%ebp),%ecx
    2d68:	85 c9                	test   %ecx,%ecx
    2d6a:	74 56                	je     2dc2 <task_spawnv+0x182>
    2d6c:	52                   	push   %edx
    2d6d:	ff 75 0c             	pushl  0xc(%ebp)
    2d70:	ff 75 e4             	pushl  -0x1c(%ebp)
    2d73:	ff 75 e0             	pushl  -0x20(%ebp)
    2d76:	e8 35 fb ff ff       	call   28b0 <task_setup_wait>
    2d7b:	83 c4 10             	add    $0x10,%esp
    2d7e:	85 c0                	test   %eax,%eax
    2d80:	0f 85 57 ff ff ff    	jne    2cdd <task_spawnv+0x9d>
    2d86:	83 ec 0c             	sub    $0xc,%esp
    2d89:	53                   	push   %ebx
    2d8a:	e8 71 f4 00 00       	call   12200 <loader_run>
    2d8f:	83 c4 10             	add    $0x10,%esp
    2d92:	85 c0                	test   %eax,%eax
    2d94:	74 40                	je     2dd6 <task_spawnv+0x196>
    2d96:	89 45 c4             	mov    %eax,-0x3c(%ebp)
    2d99:	8b 45 0c             	mov    0xc(%ebp),%eax
    2d9c:	83 ec 0c             	sub    $0xc,%esp
    2d9f:	8b 40 24             	mov    0x24(%eax),%eax
    2da2:	50                   	push   %eax
    2da3:	e8 28 bf 00 00       	call   ecd0 <async_forget>
    2da8:	83 c4 10             	add    $0x10,%esp
    2dab:	8b 45 c4             	mov    -0x3c(%ebp),%eax
    2dae:	e9 2a ff ff ff       	jmp    2cdd <task_spawnv+0x9d>
    2db3:	90                   	nop
    2db4:	8d 74 26 00          	lea    0x0(%esi,%eiz,1),%esi
    2db8:	b8 fc ff ff ff       	mov    $0xfffffffc,%eax
    2dbd:	e9 2d ff ff ff       	jmp    2cef <task_spawnv+0xaf>
    2dc2:	83 ec 0c             	sub    $0xc,%esp
    2dc5:	53                   	push   %ebx
    2dc6:	e8 35 f4 00 00       	call   12200 <loader_run>
    2dcb:	83 c4 10             	add    $0x10,%esp
    2dce:	85 c0                	test   %eax,%eax
    2dd0:	0f 85 07 ff ff ff    	jne    2cdd <task_spawnv+0x9d>
    2dd6:	83 7d 08 00          	cmpl   $0x0,0x8(%ebp)
    2dda:	74 15                	je     2df1 <task_spawnv+0x1b1>
    2ddc:	8b 4d 08             	mov    0x8(%ebp),%ecx
    2ddf:	8b 45 e0             	mov    -0x20(%ebp),%eax
    2de2:	8b 55 e4             	mov    -0x1c(%ebp),%edx
    2de5:	89 01                	mov    %eax,(%ecx)
    2de7:	89 51 04             	mov    %edx,0x4(%ecx)
    2dea:	31 c0                	xor    %eax,%eax
    2dec:	e9 fe fe ff ff       	jmp    2cef <task_spawnv+0xaf>
    2df1:	31 c0                	xor    %eax,%eax
    2df3:	e9 f7 fe ff ff       	jmp    2cef <task_spawnv+0xaf>
    2df8:	90                   	nop
    2df9:	8d b4 26 00 00 00 00 	lea    0x0(%esi,%eiz,1),%esi

00002e00 <task_cancel_wait>:
    2e00:	55                   	push   %ebp
    2e01:	89 e5                	mov    %esp,%ebp
    2e03:	8b 45 08             	mov    0x8(%ebp),%eax
    2e06:	8b 40 24             	mov    0x24(%eax),%eax
    2e09:	89 45 08             	mov    %eax,0x8(%ebp)
    2e0c:	5d                   	pop    %ebp
    2e0d:	e9 be be 00 00       	jmp    ecd0 <async_forget>
    2e12:	8d b4 26 00 00 00 00 	lea    0x0(%esi,%eiz,1),%esi
    2e19:	8d bc 27 00 00 00 00 	lea    0x0(%edi,%eiz,1),%edi

00002e20 <task_wait>:
    2e20:	55                   	push   %ebp
    2e21:	89 e5                	mov    %esp,%ebp
    2e23:	57                   	push   %edi
    2e24:	56                   	push   %esi
    2e25:	53                   	push   %ebx
    2e26:	83 ec 1c             	sub    $0x1c,%esp
    2e29:	8b 75 0c             	mov    0xc(%ebp),%esi
    2e2c:	8b 5d 08             	mov    0x8(%ebp),%ebx
    2e2f:	8b 7d 10             	mov    0x10(%ebp),%edi
    2e32:	85 f6                	test   %esi,%esi
    2e34:	74 2f                	je     2e65 <task_wait+0x45>
    2e36:	85 ff                	test   %edi,%edi
    2e38:	74 40                	je     2e7a <task_wait+0x5a>
    2e3a:	50                   	push   %eax
    2e3b:	50                   	push   %eax
    2e3c:	8b 53 24             	mov    0x24(%ebx),%edx
    2e3f:	8d 45 e4             	lea    -0x1c(%ebp),%eax
    2e42:	50                   	push   %eax
    2e43:	52                   	push   %edx
    2e44:	e8 b7 b7 00 00       	call   e600 <async_wait_for>
    2e49:	8b 45 e4             	mov    -0x1c(%ebp),%eax
    2e4c:	83 c4 10             	add    $0x10,%esp
    2e4f:	85 c0                	test   %eax,%eax
    2e51:	75 0a                	jne    2e5d <task_wait+0x3d>
    2e53:	8b 53 04             	mov    0x4(%ebx),%edx
    2e56:	89 16                	mov    %edx,(%esi)
    2e58:	8b 53 08             	mov    0x8(%ebx),%edx
    2e5b:	89 17                	mov    %edx,(%edi)
    2e5d:	8d 65 f4             	lea    -0xc(%ebp),%esp
    2e60:	5b                   	pop    %ebx
    2e61:	5e                   	pop    %esi
    2e62:	5f                   	pop    %edi
    2e63:	5d                   	pop    %ebp
    2e64:	c3                   	ret    
    2e65:	53                   	push   %ebx
    2e66:	68 58 01 00 00       	push   $0x158
    2e6b:	68 dd 3a 02 00       	push   $0x23add
    2e70:	68 f1 3a 02 00       	push   $0x23af1
    2e75:	e8 b6 43 01 00       	call   17230 <assert_abort>
    2e7a:	51                   	push   %ecx
    2e7b:	68 59 01 00 00       	push   $0x159
    2e80:	68 dd 3a 02 00       	push   $0x23add
    2e85:	68 f7 3a 02 00       	push   $0x23af7
    2e8a:	e8 a1 43 01 00       	call   17230 <assert_abort>
    2e8f:	90                   	nop

00002e90 <task_wait_task_id>:
    2e90:	55                   	push   %ebp
    2e91:	89 e5                	mov    %esp,%ebp
    2e93:	57                   	push   %edi
    2e94:	56                   	push   %esi
    2e95:	53                   	push   %ebx
    2e96:	83 ec 48             	sub    $0x48,%esp
    2e99:	a1 64 74 02 00       	mov    0x27464,%eax
    2e9e:	8b 7d 08             	mov    0x8(%ebp),%edi
    2ea1:	8b 75 0c             	mov    0xc(%ebp),%esi
    2ea4:	50                   	push   %eax
    2ea5:	e8 96 d2 00 00       	call   10140 <async_exchange_begin>
    2eaa:	83 c4 0c             	add    $0xc,%esp
    2ead:	89 c3                	mov    %eax,%ebx
    2eaf:	8d 45 c0             	lea    -0x40(%ebp),%eax
    2eb2:	50                   	push   %eax
    2eb3:	6a 00                	push   $0x0
    2eb5:	6a 00                	push   $0x0
    2eb7:	56                   	push   %esi
    2eb8:	57                   	push   %edi
    2eb9:	68 01 04 00 00       	push   $0x401
    2ebe:	53                   	push   %ebx
    2ebf:	e8 bc b5 00 00       	call   e480 <async_send_fast>
    2ec4:	83 c4 14             	add    $0x14,%esp
    2ec7:	89 45 e4             	mov    %eax,-0x1c(%ebp)
    2eca:	53                   	push   %ebx
    2ecb:	e8 60 d5 00 00       	call   10430 <async_exchange_end>
    2ed0:	8b 45 10             	mov    0x10(%ebp),%eax
    2ed3:	83 c4 10             	add    $0x10,%esp
    2ed6:	85 c0                	test   %eax,%eax
    2ed8:	74 4d                	je     2f27 <task_wait_task_id+0x97>
    2eda:	8b 5d 14             	mov    0x14(%ebp),%ebx
    2edd:	85 db                	test   %ebx,%ebx
    2edf:	74 31                	je     2f12 <task_wait_task_id+0x82>
    2ee1:	8b 55 e4             	mov    -0x1c(%ebp),%edx
    2ee4:	50                   	push   %eax
    2ee5:	50                   	push   %eax
    2ee6:	8d 45 bc             	lea    -0x44(%ebp),%eax
    2ee9:	50                   	push   %eax
    2eea:	52                   	push   %edx
    2eeb:	e8 10 b7 00 00       	call   e600 <async_wait_for>
    2ef0:	8b 45 bc             	mov    -0x44(%ebp),%eax
    2ef3:	83 c4 10             	add    $0x10,%esp
    2ef6:	85 c0                	test   %eax,%eax
    2ef8:	75 10                	jne    2f0a <task_wait_task_id+0x7a>
    2efa:	8b 4d 10             	mov    0x10(%ebp),%ecx
    2efd:	8b 55 c4             	mov    -0x3c(%ebp),%edx
    2f00:	89 11                	mov    %edx,(%ecx)
    2f02:	8b 4d 14             	mov    0x14(%ebp),%ecx
    2f05:	8b 55 c8             	mov    -0x38(%ebp),%edx
    2f08:	89 11                	mov    %edx,(%ecx)
    2f0a:	8d 65 f4             	lea    -0xc(%ebp),%esp
    2f0d:	5b                   	pop    %ebx
    2f0e:	5e                   	pop    %esi
    2f0f:	5f                   	pop    %edi
    2f10:	5d                   	pop    %ebp
    2f11:	c3                   	ret    
    2f12:	51                   	push   %ecx
    2f13:	68 59 01 00 00       	push   $0x159
    2f18:	68 dd 3a 02 00       	push   $0x23add
    2f1d:	68 f7 3a 02 00       	push   $0x23af7
    2f22:	e8 09 43 01 00       	call   17230 <assert_abort>
    2f27:	56                   	push   %esi
    2f28:	68 58 01 00 00       	push   $0x158
    2f2d:	68 dd 3a 02 00       	push   $0x23add
    2f32:	68 f1 3a 02 00       	push   $0x23af1
    2f37:	e8 f4 42 01 00       	call   17230 <assert_abort>
    2f3c:	8d 74 26 00          	lea    0x0(%esi,%eiz,1),%esi

00002f40 <task_retval>:
    2f40:	55                   	push   %ebp
    2f41:	89 e5                	mov    %esp,%ebp
    2f43:	53                   	push   %ebx
    2f44:	83 ec 20             	sub    $0x20,%esp
    2f47:	a1 64 74 02 00       	mov    0x27464,%eax
    2f4c:	50                   	push   %eax
    2f4d:	e8 ee d1 00 00       	call   10140 <async_exchange_begin>
    2f52:	83 c4 0c             	add    $0xc,%esp
    2f55:	8b 55 08             	mov    0x8(%ebp),%edx
    2f58:	89 c3                	mov    %eax,%ebx
    2f5a:	6a 00                	push   $0x0
    2f5c:	6a 00                	push   $0x0
    2f5e:	6a 00                	push   $0x0
    2f60:	6a 00                	push   $0x0
    2f62:	6a 00                	push   $0x0
    2f64:	6a 00                	push   $0x0
    2f66:	6a 00                	push   $0x0
    2f68:	6a 00                	push   $0x0
    2f6a:	52                   	push   %edx
    2f6b:	68 03 04 00 00       	push   $0x403
    2f70:	50                   	push   %eax
    2f71:	e8 ca bf 00 00       	call   ef40 <async_req_fast>
    2f76:	83 c4 24             	add    $0x24,%esp
    2f79:	89 45 f4             	mov    %eax,-0xc(%ebp)
    2f7c:	53                   	push   %ebx
    2f7d:	e8 ae d4 00 00       	call   10430 <async_exchange_end>
    2f82:	8b 45 f4             	mov    -0xc(%ebp),%eax
    2f85:	8b 5d fc             	mov    -0x4(%ebp),%ebx
    2f88:	c9                   	leave  
    2f89:	c3                   	ret    
    2f8a:	66 90                	xchg   %ax,%ax
    2f8c:	66 90                	xchg   %ax,%ax
    2f8e:	66 90                	xchg   %ax,%ax

00002f90 <_fflushbuf>:
    2f90:	8b 50 24             	mov    0x24(%eax),%edx
    2f93:	85 d2                	test   %edx,%edx
    2f95:	74 45                	je     2fdc <_fflushbuf+0x4c>
    2f97:	8b 48 20             	mov    0x20(%eax),%ecx
    2f9a:	85 c9                	test   %ecx,%ecx
    2f9c:	74 3e                	je     2fdc <_fflushbuf+0x4c>
    2f9e:	8b 48 0c             	mov    0xc(%eax),%ecx
    2fa1:	85 c9                	test   %ecx,%ecx
    2fa3:	75 37                	jne    2fdc <_fflushbuf+0x4c>
    2fa5:	55                   	push   %ebp
    2fa6:	89 e5                	mov    %esp,%ebp
    2fa8:	57                   	push   %edi
    2fa9:	56                   	push   %esi
    2faa:	53                   	push   %ebx
    2fab:	83 ec 2c             	sub    $0x2c,%esp
    2fae:	89 c3                	mov    %eax,%ebx
    2fb0:	8b 48 30             	mov    0x30(%eax),%ecx
    2fb3:	2b 48 34             	sub    0x34(%eax),%ecx
    2fb6:	89 cf                	mov    %ecx,%edi
    2fb8:	74 0e                	je     2fc8 <_fflushbuf+0x38>
    2fba:	8b 40 2c             	mov    0x2c(%eax),%eax
    2fbd:	83 f8 02             	cmp    $0x2,%eax
    2fc0:	74 1e                	je     2fe0 <_fflushbuf+0x50>
    2fc2:	48                   	dec    %eax
    2fc3:	74 43                	je     3008 <_fflushbuf+0x78>
    2fc5:	8b 53 24             	mov    0x24(%ebx),%edx
    2fc8:	89 53 30             	mov    %edx,0x30(%ebx)
    2fcb:	89 53 34             	mov    %edx,0x34(%ebx)
    2fce:	c7 43 2c 00 00 00 00 	movl   $0x0,0x2c(%ebx)
    2fd5:	8d 65 f4             	lea    -0xc(%ebp),%esp
    2fd8:	5b                   	pop    %ebx
    2fd9:	5e                   	pop    %esi
    2fda:	5f                   	pop    %edi
    2fdb:	5d                   	pop    %ebp
    2fdc:	c3                   	ret    
    2fdd:	8d 76 00             	lea    0x0(%esi),%esi
    2fe0:	89 c8                	mov    %ecx,%eax
    2fe2:	6a 01                	push   $0x1
    2fe4:	f7 d8                	neg    %eax
    2fe6:	89 c2                	mov    %eax,%edx
    2fe8:	c1 fa 1f             	sar    $0x1f,%edx
    2feb:	52                   	push   %edx
    2fec:	50                   	push   %eax
    2fed:	8b 43 08             	mov    0x8(%ebx),%eax
    2ff0:	50                   	push   %eax
    2ff1:	e8 da 28 01 00       	call   158d0 <lseek>
    2ff6:	21 d0                	and    %edx,%eax
    2ff8:	83 c4 10             	add    $0x10,%esp
    2ffb:	40                   	inc    %eax
    2ffc:	0f 84 bf 00 00 00    	je     30c1 <_fflushbuf+0x131>
    3002:	8b 43 2c             	mov    0x2c(%ebx),%eax
    3005:	eb bb                	jmp    2fc2 <_fflushbuf+0x32>
    3007:	90                   	nop
    3008:	8b 43 34             	mov    0x34(%ebx),%eax
    300b:	31 f6                	xor    %esi,%esi
    300d:	89 45 d4             	mov    %eax,-0x2c(%ebp)
    3010:	8b 43 0c             	mov    0xc(%ebx),%eax
    3013:	eb 3f                	jmp    3054 <_fflushbuf+0xc4>
    3015:	8d 76 00             	lea    0x0(%esi),%esi
    3018:	50                   	push   %eax
    3019:	8d 45 e4             	lea    -0x1c(%ebp),%eax
    301c:	50                   	push   %eax
    301d:	8b 45 d4             	mov    -0x2c(%ebp),%eax
    3020:	01 f0                	add    %esi,%eax
    3022:	57                   	push   %edi
    3023:	c7 45 e4 00 00 00 00 	movl   $0x0,-0x1c(%ebp)
    302a:	50                   	push   %eax
    302b:	e8 a0 2c 00 00       	call   5cd0 <kio_write>
    3030:	83 c4 10             	add    $0x10,%esp
    3033:	89 45 d0             	mov    %eax,-0x30(%ebp)
    3036:	85 c0                	test   %eax,%eax
    3038:	74 46                	je     3080 <_fflushbuf+0xf0>
    303a:	e8 61 5f 01 00       	call   18fa0 <__errno>
    303f:	8b 55 d0             	mov    -0x30(%ebp),%edx
    3042:	89 10                	mov    %edx,(%eax)
    3044:	c7 43 0c 01 00 00 00 	movl   $0x1,0xc(%ebx)
    304b:	b8 01 00 00 00       	mov    $0x1,%eax
    3050:	85 ff                	test   %edi,%edi
    3052:	74 4c                	je     30a0 <_fflushbuf+0x110>
    3054:	85 c0                	test   %eax,%eax
    3056:	75 60                	jne    30b8 <_fflushbuf+0x128>
    3058:	8b 43 14             	mov    0x14(%ebx),%eax
    305b:	85 c0                	test   %eax,%eax
    305d:	75 b9                	jne    3018 <_fflushbuf+0x88>
    305f:	8b 45 d4             	mov    -0x2c(%ebp),%eax
    3062:	52                   	push   %edx
    3063:	57                   	push   %edi
    3064:	01 f0                	add    %esi,%eax
    3066:	8b 4b 08             	mov    0x8(%ebx),%ecx
    3069:	50                   	push   %eax
    306a:	51                   	push   %ecx
    306b:	e8 50 26 01 00       	call   156c0 <write>
    3070:	83 c4 10             	add    $0x10,%esp
    3073:	85 c0                	test   %eax,%eax
    3075:	78 11                	js     3088 <_fflushbuf+0xf8>
    3077:	29 c7                	sub    %eax,%edi
    3079:	01 c6                	add    %eax,%esi
    307b:	8b 43 0c             	mov    0xc(%ebx),%eax
    307e:	eb d0                	jmp    3050 <_fflushbuf+0xc0>
    3080:	8b 45 e4             	mov    -0x1c(%ebp),%eax
    3083:	eb f2                	jmp    3077 <_fflushbuf+0xe7>
    3085:	8d 76 00             	lea    0x0(%esi),%esi
    3088:	c7 45 e4 00 00 00 00 	movl   $0x0,-0x1c(%ebp)
    308f:	e8 0c 5f 01 00       	call   18fa0 <__errno>
    3094:	8b 00                	mov    (%eax),%eax
    3096:	85 c0                	test   %eax,%eax
    3098:	75 aa                	jne    3044 <_fflushbuf+0xb4>
    309a:	31 c0                	xor    %eax,%eax
    309c:	eb d9                	jmp    3077 <_fflushbuf+0xe7>
    309e:	66 90                	xchg   %ax,%ax
    30a0:	85 f6                	test   %esi,%esi
    30a2:	74 07                	je     30ab <_fflushbuf+0x11b>
    30a4:	c7 43 1c 01 00 00 00 	movl   $0x1,0x1c(%ebx)
    30ab:	85 c0                	test   %eax,%eax
    30ad:	0f 84 12 ff ff ff    	je     2fc5 <_fflushbuf+0x35>
    30b3:	e9 1d ff ff ff       	jmp    2fd5 <_fflushbuf+0x45>
    30b8:	85 f6                	test   %esi,%esi
    30ba:	75 e8                	jne    30a4 <_fflushbuf+0x114>
    30bc:	e9 14 ff ff ff       	jmp    2fd5 <_fflushbuf+0x45>
    30c1:	c7 43 0c 01 00 00 00 	movl   $0x1,0xc(%ebx)
    30c8:	e9 08 ff ff ff       	jmp    2fd5 <_fflushbuf+0x45>
    30cd:	8d 76 00             	lea    0x0(%esi),%esi

000030d0 <__stdio_init>:
    30d0:	55                   	push   %ebp
    30d1:	89 e5                	mov    %esp,%ebp
    30d3:	56                   	push   %esi
    30d4:	53                   	push   %ebx
    30d5:	8b 75 08             	mov    0x8(%ebp),%esi
    30d8:	85 f6                	test   %esi,%esi
    30da:	0f 8e 00 02 00 00    	jle    32e0 <__stdio_init+0x210>
    30e0:	83 ec 0c             	sub    $0xc,%esp
    30e3:	6a 40                	push   $0x40
    30e5:	e8 26 79 00 00       	call   aa10 <malloc>
    30ea:	83 c4 10             	add    $0x10,%esp
    30ed:	89 c3                	mov    %eax,%ebx
    30ef:	85 c0                	test   %eax,%eax
    30f1:	0f 84 51 02 00 00    	je     3348 <__stdio_init+0x278>
    30f7:	c7 40 04 00 72 02 00 	movl   $0x27200,0x4(%eax)
    30fe:	c7 40 08 00 00 00 00 	movl   $0x0,0x8(%eax)
    3105:	c7 40 0c 00 00 00 00 	movl   $0x0,0xc(%eax)
    310c:	c7 40 10 00 00 00 00 	movl   $0x0,0x10(%eax)
    3113:	c7 40 14 00 00 00 00 	movl   $0x0,0x14(%eax)
    311a:	c7 40 18 00 00 00 00 	movl   $0x0,0x18(%eax)
    3121:	c7 40 1c 00 00 00 00 	movl   $0x0,0x1c(%eax)
    3128:	c7 40 20 00 00 00 00 	movl   $0x0,0x20(%eax)
    312f:	c7 40 24 00 00 00 00 	movl   $0x0,0x24(%eax)
    3136:	c7 40 28 00 00 00 00 	movl   $0x0,0x28(%eax)
    313d:	c7 40 30 00 00 00 00 	movl   $0x0,0x30(%eax)
    3144:	c7 40 34 00 00 00 00 	movl   $0x0,0x34(%eax)
    314b:	c7 40 2c 00 00 00 00 	movl   $0x0,0x2c(%eax)
    3152:	c7 40 3c 00 00 00 00 	movl   $0x0,0x3c(%eax)
    3159:	a1 00 72 02 00       	mov    0x27200,%eax
    315e:	89 1d 00 72 02 00    	mov    %ebx,0x27200
    3164:	89 03                	mov    %eax,(%ebx)
    3166:	89 58 04             	mov    %ebx,0x4(%eax)
    3169:	89 1d e4 74 02 00    	mov    %ebx,0x274e4
    316f:	83 fe 01             	cmp    $0x1,%esi
    3172:	0f 84 f0 01 00 00    	je     3368 <__stdio_init+0x298>
    3178:	83 ec 0c             	sub    $0xc,%esp
    317b:	6a 40                	push   $0x40
    317d:	e8 8e 78 00 00       	call   aa10 <malloc>
    3182:	83 c4 10             	add    $0x10,%esp
    3185:	89 c3                	mov    %eax,%ebx
    3187:	85 c0                	test   %eax,%eax
    3189:	0f 84 c9 01 00 00    	je     3358 <__stdio_init+0x288>
    318f:	c7 40 04 00 72 02 00 	movl   $0x27200,0x4(%eax)
    3196:	c7 40 08 01 00 00 00 	movl   $0x1,0x8(%eax)
    319d:	c7 40 0c 00 00 00 00 	movl   $0x0,0xc(%eax)
    31a4:	c7 40 10 00 00 00 00 	movl   $0x0,0x10(%eax)
    31ab:	c7 40 14 00 00 00 00 	movl   $0x0,0x14(%eax)
    31b2:	c7 40 18 00 00 00 00 	movl   $0x0,0x18(%eax)
    31b9:	c7 40 1c 00 00 00 00 	movl   $0x0,0x1c(%eax)
    31c0:	c7 40 20 01 00 00 00 	movl   $0x1,0x20(%eax)
    31c7:	c7 40 24 00 00 00 00 	movl   $0x0,0x24(%eax)
    31ce:	c7 40 28 00 10 00 00 	movl   $0x1000,0x28(%eax)
    31d5:	c7 40 30 00 00 00 00 	movl   $0x0,0x30(%eax)
    31dc:	c7 40 34 00 00 00 00 	movl   $0x0,0x34(%eax)
    31e3:	c7 40 2c 00 00 00 00 	movl   $0x0,0x2c(%eax)
    31ea:	c7 40 3c 00 00 00 00 	movl   $0x0,0x3c(%eax)
    31f1:	a1 00 72 02 00       	mov    0x27200,%eax
    31f6:	89 1d 00 72 02 00    	mov    %ebx,0x27200
    31fc:	89 03                	mov    %eax,(%ebx)
    31fe:	89 58 04             	mov    %ebx,0x4(%eax)
    3201:	89 1d e0 74 02 00    	mov    %ebx,0x274e0
    3207:	a1 00 72 02 00       	mov    0x27200,%eax
    320c:	83 fe 02             	cmp    $0x2,%esi
    320f:	75 37                	jne    3248 <__stdio_init+0x178>
    3211:	c7 05 24 72 02 00 00 	movl   $0x27200,0x27224
    3218:	72 02 00 
    321b:	c7 05 dc 74 02 00 20 	movl   $0x27220,0x274dc
    3222:	72 02 00 
    3225:	c7 40 04 20 72 02 00 	movl   $0x27220,0x4(%eax)
    322c:	a3 20 72 02 00       	mov    %eax,0x27220
    3231:	c7 05 00 72 02 00 20 	movl   $0x27220,0x27200
    3238:	72 02 00 
    323b:	8d 65 f8             	lea    -0x8(%ebp),%esp
    323e:	5b                   	pop    %ebx
    323f:	5e                   	pop    %esi
    3240:	5d                   	pop    %ebp
    3241:	c3                   	ret    
    3242:	8d b6 00 00 00 00    	lea    0x0(%esi),%esi
    3248:	83 ec 0c             	sub    $0xc,%esp
    324b:	6a 40                	push   $0x40
    324d:	e8 be 77 00 00       	call   aa10 <malloc>
    3252:	83 c4 10             	add    $0x10,%esp
    3255:	89 c3                	mov    %eax,%ebx
    3257:	85 c0                	test   %eax,%eax
    3259:	0f 84 d5 00 00 00    	je     3334 <__stdio_init+0x264>
    325f:	c7 40 04 00 72 02 00 	movl   $0x27200,0x4(%eax)
    3266:	c7 40 08 02 00 00 00 	movl   $0x2,0x8(%eax)
    326d:	c7 40 0c 00 00 00 00 	movl   $0x0,0xc(%eax)
    3274:	c7 40 10 00 00 00 00 	movl   $0x0,0x10(%eax)
    327b:	c7 40 14 00 00 00 00 	movl   $0x0,0x14(%eax)
    3282:	c7 40 18 00 00 00 00 	movl   $0x0,0x18(%eax)
    3289:	c7 40 1c 00 00 00 00 	movl   $0x0,0x1c(%eax)
    3290:	c7 40 20 00 00 00 00 	movl   $0x0,0x20(%eax)
    3297:	c7 40 24 00 00 00 00 	movl   $0x0,0x24(%eax)
    329e:	c7 40 28 00 00 00 00 	movl   $0x0,0x28(%eax)
    32a5:	c7 40 30 00 00 00 00 	movl   $0x0,0x30(%eax)
    32ac:	c7 40 34 00 00 00 00 	movl   $0x0,0x34(%eax)
    32b3:	c7 40 2c 00 00 00 00 	movl   $0x0,0x2c(%eax)
    32ba:	c7 40 3c 00 00 00 00 	movl   $0x0,0x3c(%eax)
    32c1:	a1 00 72 02 00       	mov    0x27200,%eax
    32c6:	89 1d 00 72 02 00    	mov    %ebx,0x27200
    32cc:	89 03                	mov    %eax,(%ebx)
    32ce:	89 58 04             	mov    %ebx,0x4(%eax)
    32d1:	89 1d dc 74 02 00    	mov    %ebx,0x274dc
    32d7:	8d 65 f8             	lea    -0x8(%ebp),%esp
    32da:	5b                   	pop    %ebx
    32db:	5e                   	pop    %esi
    32dc:	5d                   	pop    %ebp
    32dd:	c3                   	ret    
    32de:	66 90                	xchg   %ax,%ax
    32e0:	a1 00 72 02 00       	mov    0x27200,%eax
    32e5:	c7 05 a4 72 02 00 00 	movl   $0x27200,0x272a4
    32ec:	72 02 00 
    32ef:	a3 a0 72 02 00       	mov    %eax,0x272a0
    32f4:	c7 05 e4 74 02 00 a0 	movl   $0x272a0,0x274e4
    32fb:	72 02 00 
    32fe:	c7 40 04 a0 72 02 00 	movl   $0x272a0,0x4(%eax)
    3305:	b8 a0 72 02 00       	mov    $0x272a0,%eax
    330a:	c7 05 64 72 02 00 00 	movl   $0x27200,0x27264
    3311:	72 02 00 
    3314:	a3 60 72 02 00       	mov    %eax,0x27260
    3319:	c7 40 04 60 72 02 00 	movl   $0x27260,0x4(%eax)
    3320:	c7 05 e0 74 02 00 60 	movl   $0x27260,0x274e0
    3327:	72 02 00 
    332a:	b8 60 72 02 00       	mov    $0x27260,%eax
    332f:	e9 dd fe ff ff       	jmp    3211 <__stdio_init+0x141>
    3334:	e8 67 5c 01 00       	call   18fa0 <__errno>
    3339:	c7 00 fe ff ff ff    	movl   $0xfffffffe,(%eax)
    333f:	eb 90                	jmp    32d1 <__stdio_init+0x201>
    3341:	8d b4 26 00 00 00 00 	lea    0x0(%esi,%eiz,1),%esi
    3348:	e8 53 5c 01 00       	call   18fa0 <__errno>
    334d:	c7 00 fe ff ff ff    	movl   $0xfffffffe,(%eax)
    3353:	e9 11 fe ff ff       	jmp    3169 <__stdio_init+0x99>
    3358:	e8 43 5c 01 00       	call   18fa0 <__errno>
    335d:	c7 00 fe ff ff ff    	movl   $0xfffffffe,(%eax)
    3363:	e9 99 fe ff ff       	jmp    3201 <__stdio_init+0x131>
    3368:	a1 00 72 02 00       	mov    0x27200,%eax
    336d:	eb 9b                	jmp    330a <__stdio_init+0x23a>
    336f:	90                   	nop

00003370 <__stdio_done>:
    3370:	55                   	push   %ebp
    3371:	89 e5                	mov    %esp,%ebp
    3373:	57                   	push   %edi
    3374:	56                   	push   %esi
    3375:	53                   	push   %ebx
    3376:	83 ec 2c             	sub    $0x2c,%esp
    3379:	8b 1d 04 72 02 00    	mov    0x27204,%ebx
    337f:	81 fb 00 72 02 00    	cmp    $0x27200,%ebx
    3385:	0f 84 ed 00 00 00    	je     3478 <__stdio_done+0x108>
    338b:	8b 43 0c             	mov    0xc(%ebx),%eax
    338e:	85 c0                	test   %eax,%eax
    3390:	0f 85 1a 01 00 00    	jne    34b0 <__stdio_done+0x140>
    3396:	8b 53 24             	mov    0x24(%ebx),%edx
    3399:	85 d2                	test   %edx,%edx
    339b:	74 2b                	je     33c8 <__stdio_done+0x58>
    339d:	8b 7b 20             	mov    0x20(%ebx),%edi
    33a0:	85 ff                	test   %edi,%edi
    33a2:	74 24                	je     33c8 <__stdio_done+0x58>
    33a4:	8b 4b 30             	mov    0x30(%ebx),%ecx
    33a7:	8b 73 34             	mov    0x34(%ebx),%esi
    33aa:	29 f1                	sub    %esi,%ecx
    33ac:	89 cf                	mov    %ecx,%edi
    33ae:	85 c9                	test   %ecx,%ecx
    33b0:	0f 85 5a 01 00 00    	jne    3510 <__stdio_done+0x1a0>
    33b6:	89 53 30             	mov    %edx,0x30(%ebx)
    33b9:	89 53 34             	mov    %edx,0x34(%ebx)
    33bc:	c7 43 2c 00 00 00 00 	movl   $0x0,0x2c(%ebx)
    33c3:	90                   	nop
    33c4:	8d 74 26 00          	lea    0x0(%esi,%eiz,1),%esi
    33c8:	8b 43 14             	mov    0x14(%ebx),%eax
    33cb:	85 c0                	test   %eax,%eax
    33cd:	0f 85 25 01 00 00    	jne    34f8 <__stdio_done+0x188>
    33d3:	8b 43 08             	mov    0x8(%ebx),%eax
    33d6:	85 c0                	test   %eax,%eax
    33d8:	0f 88 6a 01 00 00    	js     3548 <__stdio_done+0x1d8>
    33de:	8b 53 1c             	mov    0x1c(%ebx),%edx
    33e1:	85 d2                	test   %edx,%edx
    33e3:	0f 85 ef 00 00 00    	jne    34d8 <__stdio_done+0x168>
    33e9:	8b 53 18             	mov    0x18(%ebx),%edx
    33ec:	85 d2                	test   %edx,%edx
    33ee:	74 17                	je     3407 <__stdio_done+0x97>
    33f0:	83 ec 0c             	sub    $0xc,%esp
    33f3:	52                   	push   %edx
    33f4:	e8 47 cc 00 00       	call   10040 <async_hangup>
    33f9:	8b 43 08             	mov    0x8(%ebx),%eax
    33fc:	83 c4 10             	add    $0x10,%esp
    33ff:	85 c0                	test   %eax,%eax
    3401:	0f 88 c1 00 00 00    	js     34c8 <__stdio_done+0x158>
    3407:	83 ec 0c             	sub    $0xc,%esp
    340a:	50                   	push   %eax
    340b:	e8 a0 20 01 00       	call   154b0 <close>
    3410:	8b 13                	mov    (%ebx),%edx
    3412:	83 c4 10             	add    $0x10,%esp
    3415:	85 d2                	test   %edx,%edx
    3417:	74 0e                	je     3427 <__stdio_done+0xb7>
    3419:	8b 43 04             	mov    0x4(%ebx),%eax
    341c:	85 c0                	test   %eax,%eax
    341e:	74 07                	je     3427 <__stdio_done+0xb7>
    3420:	89 10                	mov    %edx,(%eax)
    3422:	8b 13                	mov    (%ebx),%edx
    3424:	89 42 04             	mov    %eax,0x4(%edx)
    3427:	c7 03 00 00 00 00    	movl   $0x0,(%ebx)
    342d:	81 fb a0 72 02 00    	cmp    $0x272a0,%ebx
    3433:	c7 43 04 00 00 00 00 	movl   $0x0,0x4(%ebx)
    343a:	0f 95 c2             	setne  %dl
    343d:	81 fb 60 72 02 00    	cmp    $0x27260,%ebx
    3443:	0f 95 c0             	setne  %al
    3446:	84 c2                	test   %al,%dl
    3448:	0f 84 2b ff ff ff    	je     3379 <__stdio_done+0x9>
    344e:	81 fb 20 72 02 00    	cmp    $0x27220,%ebx
    3454:	0f 84 1f ff ff ff    	je     3379 <__stdio_done+0x9>
    345a:	83 ec 0c             	sub    $0xc,%esp
    345d:	53                   	push   %ebx
    345e:	e8 5d 77 00 00       	call   abc0 <free>
    3463:	8b 1d 04 72 02 00    	mov    0x27204,%ebx
    3469:	83 c4 10             	add    $0x10,%esp
    346c:	81 fb 00 72 02 00    	cmp    $0x27200,%ebx
    3472:	0f 85 13 ff ff ff    	jne    338b <__stdio_done+0x1b>
    3478:	8d 65 f4             	lea    -0xc(%ebp),%esp
    347b:	5b                   	pop    %ebx
    347c:	5e                   	pop    %esi
    347d:	5f                   	pop    %edi
    347e:	5d                   	pop    %ebp
    347f:	c3                   	ret    
    3480:	89 c8                	mov    %ecx,%eax
    3482:	6a 01                	push   $0x1
    3484:	f7 d8                	neg    %eax
    3486:	89 c2                	mov    %eax,%edx
    3488:	c1 fa 1f             	sar    $0x1f,%edx
    348b:	52                   	push   %edx
    348c:	50                   	push   %eax
    348d:	8b 43 08             	mov    0x8(%ebx),%eax
    3490:	50                   	push   %eax
    3491:	e8 3a 24 01 00       	call   158d0 <lseek>
    3496:	21 d0                	and    %edx,%eax
    3498:	83 c4 10             	add    $0x10,%esp
    349b:	40                   	inc    %eax
    349c:	0f 85 96 01 00 00    	jne    3638 <__stdio_done+0x2c8>
    34a2:	c7 43 0c 01 00 00 00 	movl   $0x1,0xc(%ebx)
    34a9:	8d b4 26 00 00 00 00 	lea    0x0(%esi,%eiz,1),%esi
    34b0:	8b 53 18             	mov    0x18(%ebx),%edx
    34b3:	85 d2                	test   %edx,%edx
    34b5:	0f 85 35 ff ff ff    	jne    33f0 <__stdio_done+0x80>
    34bb:	8b 43 08             	mov    0x8(%ebx),%eax
    34be:	85 c0                	test   %eax,%eax
    34c0:	0f 89 41 ff ff ff    	jns    3407 <__stdio_done+0x97>
    34c6:	66 90                	xchg   %ax,%ax
    34c8:	8b 13                	mov    (%ebx),%edx
    34ca:	85 d2                	test   %edx,%edx
    34cc:	0f 85 47 ff ff ff    	jne    3419 <__stdio_done+0xa9>
    34d2:	e9 56 ff ff ff       	jmp    342d <__stdio_done+0xbd>
    34d7:	90                   	nop
    34d8:	83 ec 0c             	sub    $0xc,%esp
    34db:	c7 43 1c 00 00 00 00 	movl   $0x0,0x1c(%ebx)
    34e2:	50                   	push   %eax
    34e3:	e8 38 23 01 00       	call   15820 <fsync>
    34e8:	8b 53 18             	mov    0x18(%ebx),%edx
    34eb:	83 c4 10             	add    $0x10,%esp
    34ee:	85 d2                	test   %edx,%edx
    34f0:	0f 85 fa fe ff ff    	jne    33f0 <__stdio_done+0x80>
    34f6:	eb c3                	jmp    34bb <__stdio_done+0x14b>
    34f8:	e8 03 28 00 00       	call   5d00 <kio_update>
    34fd:	8b 53 18             	mov    0x18(%ebx),%edx
    3500:	85 d2                	test   %edx,%edx
    3502:	0f 85 e8 fe ff ff    	jne    33f0 <__stdio_done+0x80>
    3508:	eb b1                	jmp    34bb <__stdio_done+0x14b>
    350a:	8d b6 00 00 00 00    	lea    0x0(%esi),%esi
    3510:	8b 53 2c             	mov    0x2c(%ebx),%edx
    3513:	83 fa 02             	cmp    $0x2,%edx
    3516:	0f 84 64 ff ff ff    	je     3480 <__stdio_done+0x110>
    351c:	4a                   	dec    %edx
    351d:	74 49                	je     3568 <__stdio_done+0x1f8>
    351f:	8b 53 24             	mov    0x24(%ebx),%edx
    3522:	c7 43 2c 00 00 00 00 	movl   $0x0,0x2c(%ebx)
    3529:	89 53 30             	mov    %edx,0x30(%ebx)
    352c:	89 53 34             	mov    %edx,0x34(%ebx)
    352f:	85 c0                	test   %eax,%eax
    3531:	0f 84 91 fe ff ff    	je     33c8 <__stdio_done+0x58>
    3537:	8b 53 18             	mov    0x18(%ebx),%edx
    353a:	85 d2                	test   %edx,%edx
    353c:	0f 85 ae fe ff ff    	jne    33f0 <__stdio_done+0x80>
    3542:	e9 74 ff ff ff       	jmp    34bb <__stdio_done+0x14b>
    3547:	90                   	nop
    3548:	8b 53 18             	mov    0x18(%ebx),%edx
    354b:	85 d2                	test   %edx,%edx
    354d:	0f 85 9d fe ff ff    	jne    33f0 <__stdio_done+0x80>
    3553:	8b 13                	mov    (%ebx),%edx
    3555:	85 d2                	test   %edx,%edx
    3557:	0f 85 bc fe ff ff    	jne    3419 <__stdio_done+0xa9>
    355d:	e9 cb fe ff ff       	jmp    342d <__stdio_done+0xbd>
    3562:	8d b6 00 00 00 00    	lea    0x0(%esi),%esi
    3568:	8b 73 34             	mov    0x34(%ebx),%esi
    356b:	89 75 d4             	mov    %esi,-0x2c(%ebp)
    356e:	31 f6                	xor    %esi,%esi
    3570:	eb 42                	jmp    35b4 <__stdio_done+0x244>
    3572:	8d b6 00 00 00 00    	lea    0x0(%esi),%esi
    3578:	50                   	push   %eax
    3579:	8d 45 e4             	lea    -0x1c(%ebp),%eax
    357c:	50                   	push   %eax
    357d:	8b 45 d4             	mov    -0x2c(%ebp),%eax
    3580:	01 f0                	add    %esi,%eax
    3582:	57                   	push   %edi
    3583:	c7 45 e4 00 00 00 00 	movl   $0x0,-0x1c(%ebp)
    358a:	50                   	push   %eax
    358b:	e8 40 27 00 00       	call   5cd0 <kio_write>
    3590:	83 c4 10             	add    $0x10,%esp
    3593:	89 45 d0             	mov    %eax,-0x30(%ebp)
    3596:	85 c0                	test   %eax,%eax
    3598:	74 76                	je     3610 <__stdio_done+0x2a0>
    359a:	e8 01 5a 01 00       	call   18fa0 <__errno>
    359f:	8b 55 d0             	mov    -0x30(%ebp),%edx
    35a2:	89 10                	mov    %edx,(%eax)
    35a4:	c7 43 0c 01 00 00 00 	movl   $0x1,0xc(%ebx)
    35ab:	b8 01 00 00 00       	mov    $0x1,%eax
    35b0:	85 ff                	test   %edi,%edi
    35b2:	74 32                	je     35e6 <__stdio_done+0x276>
    35b4:	85 c0                	test   %eax,%eax
    35b6:	0f 85 87 00 00 00    	jne    3643 <__stdio_done+0x2d3>
    35bc:	8b 43 14             	mov    0x14(%ebx),%eax
    35bf:	85 c0                	test   %eax,%eax
    35c1:	75 b5                	jne    3578 <__stdio_done+0x208>
    35c3:	50                   	push   %eax
    35c4:	8b 45 d4             	mov    -0x2c(%ebp),%eax
    35c7:	57                   	push   %edi
    35c8:	01 f0                	add    %esi,%eax
    35ca:	50                   	push   %eax
    35cb:	8b 43 08             	mov    0x8(%ebx),%eax
    35ce:	50                   	push   %eax
    35cf:	e8 ec 20 01 00       	call   156c0 <write>
    35d4:	83 c4 10             	add    $0x10,%esp
    35d7:	85 c0                	test   %eax,%eax
    35d9:	78 3d                	js     3618 <__stdio_done+0x2a8>
    35db:	29 c7                	sub    %eax,%edi
    35dd:	01 c6                	add    %eax,%esi
    35df:	8b 43 0c             	mov    0xc(%ebx),%eax
    35e2:	85 ff                	test   %edi,%edi
    35e4:	75 ce                	jne    35b4 <__stdio_done+0x244>
    35e6:	85 f6                	test   %esi,%esi
    35e8:	74 07                	je     35f1 <__stdio_done+0x281>
    35ea:	c7 43 1c 01 00 00 00 	movl   $0x1,0x1c(%ebx)
    35f1:	85 c0                	test   %eax,%eax
    35f3:	0f 85 b7 fe ff ff    	jne    34b0 <__stdio_done+0x140>
    35f9:	8b 43 24             	mov    0x24(%ebx),%eax
    35fc:	c7 43 2c 00 00 00 00 	movl   $0x0,0x2c(%ebx)
    3603:	89 43 30             	mov    %eax,0x30(%ebx)
    3606:	89 43 34             	mov    %eax,0x34(%ebx)
    3609:	e9 ba fd ff ff       	jmp    33c8 <__stdio_done+0x58>
    360e:	66 90                	xchg   %ax,%ax
    3610:	8b 45 e4             	mov    -0x1c(%ebp),%eax
    3613:	eb c6                	jmp    35db <__stdio_done+0x26b>
    3615:	8d 76 00             	lea    0x0(%esi),%esi
    3618:	c7 45 e4 00 00 00 00 	movl   $0x0,-0x1c(%ebp)
    361f:	e8 7c 59 01 00       	call   18fa0 <__errno>
    3624:	8b 08                	mov    (%eax),%ecx
    3626:	85 c9                	test   %ecx,%ecx
    3628:	0f 85 76 ff ff ff    	jne    35a4 <__stdio_done+0x234>
    362e:	31 c0                	xor    %eax,%eax
    3630:	eb a9                	jmp    35db <__stdio_done+0x26b>
    3632:	8d b6 00 00 00 00    	lea    0x0(%esi),%esi
    3638:	8b 53 2c             	mov    0x2c(%ebx),%edx
    363b:	8b 43 0c             	mov    0xc(%ebx),%eax
    363e:	e9 d9 fe ff ff       	jmp    351c <__stdio_done+0x1ac>
    3643:	85 f6                	test   %esi,%esi
    3645:	0f 84 65 fe ff ff    	je     34b0 <__stdio_done+0x140>
    364b:	eb 9d                	jmp    35ea <__stdio_done+0x27a>
    364d:	8d 76 00             	lea    0x0(%esi),%esi

00003650 <setvbuf>:
    3650:	55                   	push   %ebp
    3651:	89 e5                	mov    %esp,%ebp
    3653:	8b 45 08             	mov    0x8(%ebp),%eax
    3656:	8b 4d 10             	mov    0x10(%ebp),%ecx
    3659:	8b 55 0c             	mov    0xc(%ebp),%edx
    365c:	89 48 20             	mov    %ecx,0x20(%eax)
    365f:	8b 4d 14             	mov    0x14(%ebp),%ecx
    3662:	89 50 24             	mov    %edx,0x24(%eax)
    3665:	89 48 28             	mov    %ecx,0x28(%eax)
    3668:	89 50 30             	mov    %edx,0x30(%eax)
    366b:	89 50 34             	mov    %edx,0x34(%eax)
    366e:	c7 40 2c 00 00 00 00 	movl   $0x0,0x2c(%eax)
    3675:	5d                   	pop    %ebp
    3676:	c3                   	ret    
    3677:	89 f6                	mov    %esi,%esi
    3679:	8d bc 27 00 00 00 00 	lea    0x0(%edi,%eiz,1),%edi

00003680 <setbuf>:
    3680:	55                   	push   %ebp
    3681:	89 e5                	mov    %esp,%ebp
    3683:	8b 55 0c             	mov    0xc(%ebp),%edx
    3686:	8b 45 08             	mov    0x8(%ebp),%eax
    3689:	85 d2                	test   %edx,%edx
    368b:	74 23                	je     36b0 <setbuf+0x30>
    368d:	c7 40 20 02 00 00 00 	movl   $0x2,0x20(%eax)
    3694:	89 50 24             	mov    %edx,0x24(%eax)
    3697:	c7 40 28 00 10 00 00 	movl   $0x1000,0x28(%eax)
    369e:	89 50 30             	mov    %edx,0x30(%eax)
    36a1:	89 50 34             	mov    %edx,0x34(%eax)
    36a4:	c7 40 2c 00 00 00 00 	movl   $0x0,0x2c(%eax)
    36ab:	5d                   	pop    %ebp
    36ac:	c3                   	ret    
    36ad:	8d 76 00             	lea    0x0(%esi),%esi
    36b0:	c7 40 20 00 00 00 00 	movl   $0x0,0x20(%eax)
    36b7:	c7 40 24 00 00 00 00 	movl   $0x0,0x24(%eax)
    36be:	c7 40 28 00 10 00 00 	movl   $0x1000,0x28(%eax)
    36c5:	c7 40 30 00 00 00 00 	movl   $0x0,0x30(%eax)
    36cc:	c7 40 34 00 00 00 00 	movl   $0x0,0x34(%eax)
    36d3:	c7 40 2c 00 00 00 00 	movl   $0x0,0x2c(%eax)
    36da:	5d                   	pop    %ebp
    36db:	c3                   	ret    
    36dc:	8d 74 26 00          	lea    0x0(%esi,%eiz,1),%esi

000036e0 <fopen>:
    36e0:	55                   	push   %ebp
    36e1:	89 e5                	mov    %esp,%ebp
    36e3:	56                   	push   %esi
    36e4:	53                   	push   %ebx
    36e5:	8b 45 0c             	mov    0xc(%ebp),%eax
    36e8:	8a 08                	mov    (%eax),%cl
    36ea:	84 c9                	test   %cl,%cl
    36ec:	74 4a                	je     3738 <fopen+0x58>
    36ee:	8a 50 01             	mov    0x1(%eax),%dl
    36f1:	80 fa 62             	cmp    $0x62,%dl
    36f4:	74 5a                	je     3750 <fopen+0x70>
    36f6:	80 fa 74             	cmp    $0x74,%dl
    36f9:	74 55                	je     3750 <fopen+0x70>
    36fb:	8d 58 01             	lea    0x1(%eax),%ebx
    36fe:	31 c0                	xor    %eax,%eax
    3700:	80 fa 2b             	cmp    $0x2b,%dl
    3703:	74 58                	je     375d <fopen+0x7d>
    3705:	84 d2                	test   %dl,%dl
    3707:	75 2f                	jne    3738 <fopen+0x58>
    3709:	80 f9 72             	cmp    $0x72,%cl
    370c:	0f 84 5e 01 00 00    	je     3870 <fopen+0x190>
    3712:	80 f9 77             	cmp    $0x77,%cl
    3715:	74 51                	je     3768 <fopen+0x88>
    3717:	80 f9 61             	cmp    $0x61,%cl
    371a:	75 1c                	jne    3738 <fopen+0x58>
    371c:	84 c0                	test   %al,%al
    371e:	0f 84 5c 01 00 00    	je     3880 <fopen+0x1a0>
    3724:	e8 77 58 01 00       	call   18fa0 <__errno>
    3729:	31 db                	xor    %ebx,%ebx
    372b:	c7 00 f5 ff ff ff    	movl   $0xfffffff5,(%eax)
    3731:	eb 12                	jmp    3745 <fopen+0x65>
    3733:	90                   	nop
    3734:	8d 74 26 00          	lea    0x0(%esi,%eiz,1),%esi
    3738:	e8 63 58 01 00       	call   18fa0 <__errno>
    373d:	31 db                	xor    %ebx,%ebx
    373f:	c7 00 f2 ff ff ff    	movl   $0xfffffff2,(%eax)
    3745:	8d 65 f8             	lea    -0x8(%ebp),%esp
    3748:	89 d8                	mov    %ebx,%eax
    374a:	5b                   	pop    %ebx
    374b:	5e                   	pop    %esi
    374c:	5d                   	pop    %ebp
    374d:	c3                   	ret    
    374e:	66 90                	xchg   %ax,%ax
    3750:	8a 50 02             	mov    0x2(%eax),%dl
    3753:	8d 58 02             	lea    0x2(%eax),%ebx
    3756:	31 c0                	xor    %eax,%eax
    3758:	80 fa 2b             	cmp    $0x2b,%dl
    375b:	75 a8                	jne    3705 <fopen+0x25>
    375d:	8a 53 01             	mov    0x1(%ebx),%dl
    3760:	b0 01                	mov    $0x1,%al
    3762:	eb a1                	jmp    3705 <fopen+0x25>
    3764:	8d 74 26 00          	lea    0x0(%esi,%eiz,1),%esi
    3768:	3c 01                	cmp    $0x1,%al
    376a:	19 f6                	sbb    %esi,%esi
    376c:	83 e6 20             	and    $0x20,%esi
    376f:	83 c6 25             	add    $0x25,%esi
    3772:	83 ec 0c             	sub    $0xc,%esp
    3775:	6a 40                	push   $0x40
    3777:	e8 94 72 00 00       	call   aa10 <malloc>
    377c:	83 c4 10             	add    $0x10,%esp
    377f:	89 c3                	mov    %eax,%ebx
    3781:	85 c0                	test   %eax,%eax
    3783:	0f 84 07 01 00 00    	je     3890 <fopen+0x1b0>
    3789:	8b 55 08             	mov    0x8(%ebp),%edx
    378c:	50                   	push   %eax
    378d:	68 b6 01 00 00       	push   $0x1b6
    3792:	56                   	push   %esi
    3793:	52                   	push   %edx
    3794:	e8 b7 1b 01 00       	call   15350 <open>
    3799:	83 c4 10             	add    $0x10,%esp
    379c:	89 43 08             	mov    %eax,0x8(%ebx)
    379f:	85 c0                	test   %eax,%eax
    37a1:	0f 88 f9 00 00 00    	js     38a0 <fopen+0x1c0>
    37a7:	c7 43 0c 00 00 00 00 	movl   $0x0,0xc(%ebx)
    37ae:	c7 43 10 00 00 00 00 	movl   $0x0,0x10(%ebx)
    37b5:	c7 43 14 00 00 00 00 	movl   $0x0,0x14(%ebx)
    37bc:	c7 43 18 00 00 00 00 	movl   $0x0,0x18(%ebx)
    37c3:	c7 43 1c 00 00 00 00 	movl   $0x0,0x1c(%ebx)
    37ca:	83 f8 01             	cmp    $0x1,%eax
    37cd:	74 61                	je     3830 <fopen+0x150>
    37cf:	83 f8 02             	cmp    $0x2,%eax
    37d2:	74 6c                	je     3840 <fopen+0x160>
    37d4:	85 c0                	test   %eax,%eax
    37d6:	74 68                	je     3840 <fopen+0x160>
    37d8:	c7 43 20 02 00 00 00 	movl   $0x2,0x20(%ebx)
    37df:	c7 43 24 00 00 00 00 	movl   $0x0,0x24(%ebx)
    37e6:	c7 43 28 00 10 00 00 	movl   $0x1000,0x28(%ebx)
    37ed:	c7 43 30 00 00 00 00 	movl   $0x0,0x30(%ebx)
    37f4:	c7 43 34 00 00 00 00 	movl   $0x0,0x34(%ebx)
    37fb:	c7 43 2c 00 00 00 00 	movl   $0x0,0x2c(%ebx)
    3802:	a1 00 72 02 00       	mov    0x27200,%eax
    3807:	c7 43 3c 00 00 00 00 	movl   $0x0,0x3c(%ebx)
    380e:	89 03                	mov    %eax,(%ebx)
    3810:	c7 43 04 00 72 02 00 	movl   $0x27200,0x4(%ebx)
    3817:	89 1d 00 72 02 00    	mov    %ebx,0x27200
    381d:	89 58 04             	mov    %ebx,0x4(%eax)
    3820:	8d 65 f8             	lea    -0x8(%ebp),%esp
    3823:	89 d8                	mov    %ebx,%eax
    3825:	5b                   	pop    %ebx
    3826:	5e                   	pop    %esi
    3827:	5d                   	pop    %ebp
    3828:	c3                   	ret    
    3829:	8d b4 26 00 00 00 00 	lea    0x0(%esi,%eiz,1),%esi
    3830:	c7 43 20 01 00 00 00 	movl   $0x1,0x20(%ebx)
    3837:	eb a6                	jmp    37df <fopen+0xff>
    3839:	8d b4 26 00 00 00 00 	lea    0x0(%esi,%eiz,1),%esi
    3840:	c7 43 20 00 00 00 00 	movl   $0x0,0x20(%ebx)
    3847:	c7 43 24 00 00 00 00 	movl   $0x0,0x24(%ebx)
    384e:	c7 43 28 00 00 00 00 	movl   $0x0,0x28(%ebx)
    3855:	c7 43 30 00 00 00 00 	movl   $0x0,0x30(%ebx)
    385c:	c7 43 34 00 00 00 00 	movl   $0x0,0x34(%ebx)
    3863:	c7 43 2c 00 00 00 00 	movl   $0x0,0x2c(%ebx)
    386a:	eb 96                	jmp    3802 <fopen+0x122>
    386c:	8d 74 26 00          	lea    0x0(%esi,%eiz,1),%esi
    3870:	3c 01                	cmp    $0x1,%al
    3872:	19 f6                	sbb    %esi,%esi
    3874:	83 e6 f0             	and    $0xfffffff0,%esi
    3877:	83 c6 20             	add    $0x20,%esi
    387a:	e9 f3 fe ff ff       	jmp    3772 <fopen+0x92>
    387f:	90                   	nop
    3880:	be 49 00 00 00       	mov    $0x49,%esi
    3885:	e9 e8 fe ff ff       	jmp    3772 <fopen+0x92>
    388a:	8d b6 00 00 00 00    	lea    0x0(%esi),%esi
    3890:	e8 0b 57 01 00       	call   18fa0 <__errno>
    3895:	c7 00 fe ff ff ff    	movl   $0xfffffffe,(%eax)
    389b:	e9 a5 fe ff ff       	jmp    3745 <fopen+0x65>
    38a0:	83 ec 0c             	sub    $0xc,%esp
    38a3:	53                   	push   %ebx
    38a4:	31 db                	xor    %ebx,%ebx
    38a6:	e8 15 73 00 00       	call   abc0 <free>
    38ab:	83 c4 10             	add    $0x10,%esp
    38ae:	e9 92 fe ff ff       	jmp    3745 <fopen+0x65>
    38b3:	8d b6 00 00 00 00    	lea    0x0(%esi),%esi
    38b9:	8d bc 27 00 00 00 00 	lea    0x0(%edi,%eiz,1),%edi

000038c0 <fdopen>:
    38c0:	55                   	push   %ebp
    38c1:	89 e5                	mov    %esp,%ebp
    38c3:	56                   	push   %esi
    38c4:	53                   	push   %ebx
    38c5:	83 ec 0c             	sub    $0xc,%esp
    38c8:	8b 75 08             	mov    0x8(%ebp),%esi
    38cb:	6a 40                	push   $0x40
    38cd:	e8 3e 71 00 00       	call   aa10 <malloc>
    38d2:	83 c4 10             	add    $0x10,%esp
    38d5:	89 c3                	mov    %eax,%ebx
    38d7:	85 c0                	test   %eax,%eax
    38d9:	0f 84 c9 00 00 00    	je     39a8 <fdopen+0xe8>
    38df:	89 70 08             	mov    %esi,0x8(%eax)
    38e2:	c7 40 0c 00 00 00 00 	movl   $0x0,0xc(%eax)
    38e9:	c7 40 10 00 00 00 00 	movl   $0x0,0x10(%eax)
    38f0:	c7 40 14 00 00 00 00 	movl   $0x0,0x14(%eax)
    38f7:	c7 40 18 00 00 00 00 	movl   $0x0,0x18(%eax)
    38fe:	c7 40 1c 00 00 00 00 	movl   $0x0,0x1c(%eax)
    3905:	83 fe 01             	cmp    $0x1,%esi
    3908:	0f 84 8a 00 00 00    	je     3998 <fdopen+0xd8>
    390e:	83 fe 02             	cmp    $0x2,%esi
    3911:	74 55                	je     3968 <fdopen+0xa8>
    3913:	85 f6                	test   %esi,%esi
    3915:	74 51                	je     3968 <fdopen+0xa8>
    3917:	c7 40 20 02 00 00 00 	movl   $0x2,0x20(%eax)
    391e:	c7 43 24 00 00 00 00 	movl   $0x0,0x24(%ebx)
    3925:	c7 43 28 00 10 00 00 	movl   $0x1000,0x28(%ebx)
    392c:	c7 43 30 00 00 00 00 	movl   $0x0,0x30(%ebx)
    3933:	c7 43 34 00 00 00 00 	movl   $0x0,0x34(%ebx)
    393a:	c7 43 2c 00 00 00 00 	movl   $0x0,0x2c(%ebx)
    3941:	a1 00 72 02 00       	mov    0x27200,%eax
    3946:	c7 43 3c 00 00 00 00 	movl   $0x0,0x3c(%ebx)
    394d:	c7 43 04 00 72 02 00 	movl   $0x27200,0x4(%ebx)
    3954:	89 03                	mov    %eax,(%ebx)
    3956:	89 1d 00 72 02 00    	mov    %ebx,0x27200
    395c:	89 58 04             	mov    %ebx,0x4(%eax)
    395f:	8d 65 f8             	lea    -0x8(%ebp),%esp
    3962:	89 d8                	mov    %ebx,%eax
    3964:	5b                   	pop    %ebx
    3965:	5e                   	pop    %esi
    3966:	5d                   	pop    %ebp
    3967:	c3                   	ret    
    3968:	c7 43 20 00 00 00 00 	movl   $0x0,0x20(%ebx)
    396f:	c7 43 24 00 00 00 00 	movl   $0x0,0x24(%ebx)
    3976:	c7 43 28 00 00 00 00 	movl   $0x0,0x28(%ebx)
    397d:	c7 43 30 00 00 00 00 	movl   $0x0,0x30(%ebx)
    3984:	c7 43 34 00 00 00 00 	movl   $0x0,0x34(%ebx)
    398b:	c7 43 2c 00 00 00 00 	movl   $0x0,0x2c(%ebx)
    3992:	eb ad                	jmp    3941 <fdopen+0x81>
    3994:	8d 74 26 00          	lea    0x0(%esi,%eiz,1),%esi
    3998:	c7 40 20 01 00 00 00 	movl   $0x1,0x20(%eax)
    399f:	e9 7a ff ff ff       	jmp    391e <fdopen+0x5e>
    39a4:	8d 74 26 00          	lea    0x0(%esi,%eiz,1),%esi
    39a8:	e8 f3 55 01 00       	call   18fa0 <__errno>
    39ad:	c7 00 fe ff ff ff    	movl   $0xfffffffe,(%eax)
    39b3:	eb aa                	jmp    395f <fdopen+0x9f>
    39b5:	8d 74 26 00          	lea    0x0(%esi,%eiz,1),%esi
    39b9:	8d bc 27 00 00 00 00 	lea    0x0(%edi,%eiz,1),%edi

000039c0 <fclose>:
    39c0:	55                   	push   %ebp
    39c1:	89 e5                	mov    %esp,%ebp
    39c3:	57                   	push   %edi
    39c4:	56                   	push   %esi
    39c5:	53                   	push   %ebx
    39c6:	83 ec 2c             	sub    $0x2c,%esp
    39c9:	8b 5d 08             	mov    0x8(%ebp),%ebx
    39cc:	8b 43 0c             	mov    0xc(%ebx),%eax
    39cf:	85 c0                	test   %eax,%eax
    39d1:	0f 85 e9 00 00 00    	jne    3ac0 <fclose+0x100>
    39d7:	8b 53 24             	mov    0x24(%ebx),%edx
    39da:	85 d2                	test   %edx,%edx
    39dc:	74 40                	je     3a1e <fclose+0x5e>
    39de:	8b 4b 20             	mov    0x20(%ebx),%ecx
    39e1:	85 c9                	test   %ecx,%ecx
    39e3:	74 39                	je     3a1e <fclose+0x5e>
    39e5:	8b 4b 30             	mov    0x30(%ebx),%ecx
    39e8:	89 cf                	mov    %ecx,%edi
    39ea:	2b 7b 34             	sub    0x34(%ebx),%edi
    39ed:	0f 84 45 01 00 00    	je     3b38 <fclose+0x178>
    39f3:	8b 53 2c             	mov    0x2c(%ebx),%edx
    39f6:	83 fa 02             	cmp    $0x2,%edx
    39f9:	0f 84 79 01 00 00    	je     3b78 <fclose+0x1b8>
    39ff:	4a                   	dec    %edx
    3a00:	0f 84 a2 01 00 00    	je     3ba8 <fclose+0x1e8>
    3a06:	8b 53 24             	mov    0x24(%ebx),%edx
    3a09:	c7 43 2c 00 00 00 00 	movl   $0x0,0x2c(%ebx)
    3a10:	89 53 30             	mov    %edx,0x30(%ebx)
    3a13:	89 53 34             	mov    %edx,0x34(%ebx)
    3a16:	85 c0                	test   %eax,%eax
    3a18:	0f 85 a2 00 00 00    	jne    3ac0 <fclose+0x100>
    3a1e:	8b 73 14             	mov    0x14(%ebx),%esi
    3a21:	85 f6                	test   %esi,%esi
    3a23:	0f 85 27 01 00 00    	jne    3b50 <fclose+0x190>
    3a29:	8b 43 08             	mov    0x8(%ebx),%eax
    3a2c:	85 c0                	test   %eax,%eax
    3a2e:	0f 88 34 01 00 00    	js     3b68 <fclose+0x1a8>
    3a34:	8b 53 1c             	mov    0x1c(%ebx),%edx
    3a37:	85 d2                	test   %edx,%edx
    3a39:	0f 85 c1 00 00 00    	jne    3b00 <fclose+0x140>
    3a3f:	8b 53 18             	mov    0x18(%ebx),%edx
    3a42:	85 d2                	test   %edx,%edx
    3a44:	0f 84 8e 00 00 00    	je     3ad8 <fclose+0x118>
    3a4a:	83 ec 0c             	sub    $0xc,%esp
    3a4d:	52                   	push   %edx
    3a4e:	e8 ed c5 00 00       	call   10040 <async_hangup>
    3a53:	8b 43 08             	mov    0x8(%ebx),%eax
    3a56:	83 c4 10             	add    $0x10,%esp
    3a59:	85 c0                	test   %eax,%eax
    3a5b:	79 7b                	jns    3ad8 <fclose+0x118>
    3a5d:	8b 0b                	mov    (%ebx),%ecx
    3a5f:	31 c0                	xor    %eax,%eax
    3a61:	85 c9                	test   %ecx,%ecx
    3a63:	74 14                	je     3a79 <fclose+0xb9>
    3a65:	8b 53 04             	mov    0x4(%ebx),%edx
    3a68:	85 d2                	test   %edx,%edx
    3a6a:	74 07                	je     3a73 <fclose+0xb3>
    3a6c:	89 0a                	mov    %ecx,(%edx)
    3a6e:	8b 0b                	mov    (%ebx),%ecx
    3a70:	89 51 04             	mov    %edx,0x4(%ecx)
    3a73:	c7 03 00 00 00 00    	movl   $0x0,(%ebx)
    3a79:	81 fb a0 72 02 00    	cmp    $0x272a0,%ebx
    3a7f:	c7 43 04 00 00 00 00 	movl   $0x0,0x4(%ebx)
    3a86:	0f 95 c1             	setne  %cl
    3a89:	81 fb 60 72 02 00    	cmp    $0x27260,%ebx
    3a8f:	0f 95 c2             	setne  %dl
    3a92:	84 d1                	test   %dl,%cl
    3a94:	74 1a                	je     3ab0 <fclose+0xf0>
    3a96:	81 fb 20 72 02 00    	cmp    $0x27220,%ebx
    3a9c:	74 12                	je     3ab0 <fclose+0xf0>
    3a9e:	83 ec 0c             	sub    $0xc,%esp
    3aa1:	89 45 d4             	mov    %eax,-0x2c(%ebp)
    3aa4:	53                   	push   %ebx
    3aa5:	e8 16 71 00 00       	call   abc0 <free>
    3aaa:	83 c4 10             	add    $0x10,%esp
    3aad:	8b 45 d4             	mov    -0x2c(%ebp),%eax
    3ab0:	8d 65 f4             	lea    -0xc(%ebp),%esp
    3ab3:	5b                   	pop    %ebx
    3ab4:	5e                   	pop    %esi
    3ab5:	5f                   	pop    %edi
    3ab6:	5d                   	pop    %ebp
    3ab7:	c3                   	ret    
    3ab8:	c7 43 0c 01 00 00 00 	movl   $0x1,0xc(%ebx)
    3abf:	90                   	nop
    3ac0:	8b 53 18             	mov    0x18(%ebx),%edx
    3ac3:	85 d2                	test   %edx,%edx
    3ac5:	0f 85 7f ff ff ff    	jne    3a4a <fclose+0x8a>
    3acb:	8b 43 08             	mov    0x8(%ebx),%eax
    3ace:	85 c0                	test   %eax,%eax
    3ad0:	78 8b                	js     3a5d <fclose+0x9d>
    3ad2:	8d b6 00 00 00 00    	lea    0x0(%esi),%esi
    3ad8:	83 ec 0c             	sub    $0xc,%esp
    3adb:	50                   	push   %eax
    3adc:	e8 cf 19 01 00       	call   154b0 <close>
    3ae1:	83 c4 10             	add    $0x10,%esp
    3ae4:	85 c0                	test   %eax,%eax
    3ae6:	0f 95 c0             	setne  %al
    3ae9:	25 ff 00 00 00       	and    $0xff,%eax
    3aee:	8b 0b                	mov    (%ebx),%ecx
    3af0:	f7 d8                	neg    %eax
    3af2:	85 c9                	test   %ecx,%ecx
    3af4:	0f 85 6b ff ff ff    	jne    3a65 <fclose+0xa5>
    3afa:	e9 74 ff ff ff       	jmp    3a73 <fclose+0xb3>
    3aff:	90                   	nop
    3b00:	83 ec 0c             	sub    $0xc,%esp
    3b03:	c7 43 1c 00 00 00 00 	movl   $0x0,0x1c(%ebx)
    3b0a:	50                   	push   %eax
    3b0b:	e8 10 1d 01 00       	call   15820 <fsync>
    3b10:	8b 53 18             	mov    0x18(%ebx),%edx
    3b13:	83 c4 10             	add    $0x10,%esp
    3b16:	85 d2                	test   %edx,%edx
    3b18:	0f 85 2c ff ff ff    	jne    3a4a <fclose+0x8a>
    3b1e:	eb ab                	jmp    3acb <fclose+0x10b>
    3b20:	85 f6                	test   %esi,%esi
    3b22:	74 07                	je     3b2b <fclose+0x16b>
    3b24:	c7 43 1c 01 00 00 00 	movl   $0x1,0x1c(%ebx)
    3b2b:	85 c0                	test   %eax,%eax
    3b2d:	75 91                	jne    3ac0 <fclose+0x100>
    3b2f:	8b 53 24             	mov    0x24(%ebx),%edx
    3b32:	8d b6 00 00 00 00    	lea    0x0(%esi),%esi
    3b38:	8b 73 14             	mov    0x14(%ebx),%esi
    3b3b:	89 53 30             	mov    %edx,0x30(%ebx)
    3b3e:	89 53 34             	mov    %edx,0x34(%ebx)
    3b41:	c7 43 2c 00 00 00 00 	movl   $0x0,0x2c(%ebx)
    3b48:	85 f6                	test   %esi,%esi
    3b4a:	0f 84 d9 fe ff ff    	je     3a29 <fclose+0x69>
    3b50:	e8 ab 21 00 00       	call   5d00 <kio_update>
    3b55:	8b 53 18             	mov    0x18(%ebx),%edx
    3b58:	85 d2                	test   %edx,%edx
    3b5a:	0f 85 ea fe ff ff    	jne    3a4a <fclose+0x8a>
    3b60:	e9 66 ff ff ff       	jmp    3acb <fclose+0x10b>
    3b65:	8d 76 00             	lea    0x0(%esi),%esi
    3b68:	8b 53 18             	mov    0x18(%ebx),%edx
    3b6b:	85 d2                	test   %edx,%edx
    3b6d:	0f 85 d7 fe ff ff    	jne    3a4a <fclose+0x8a>
    3b73:	e9 e5 fe ff ff       	jmp    3a5d <fclose+0x9d>
    3b78:	89 f8                	mov    %edi,%eax
    3b7a:	6a 01                	push   $0x1
    3b7c:	f7 d8                	neg    %eax
    3b7e:	89 c2                	mov    %eax,%edx
    3b80:	c1 fa 1f             	sar    $0x1f,%edx
    3b83:	52                   	push   %edx
    3b84:	50                   	push   %eax
    3b85:	8b 43 08             	mov    0x8(%ebx),%eax
    3b88:	50                   	push   %eax
    3b89:	e8 42 1d 01 00       	call   158d0 <lseek>
    3b8e:	21 d0                	and    %edx,%eax
    3b90:	83 c4 10             	add    $0x10,%esp
    3b93:	40                   	inc    %eax
    3b94:	0f 84 1e ff ff ff    	je     3ab8 <fclose+0xf8>
    3b9a:	8b 53 2c             	mov    0x2c(%ebx),%edx
    3b9d:	8b 43 0c             	mov    0xc(%ebx),%eax
    3ba0:	e9 5a fe ff ff       	jmp    39ff <fclose+0x3f>
    3ba5:	8d 76 00             	lea    0x0(%esi),%esi
    3ba8:	8b 73 34             	mov    0x34(%ebx),%esi
    3bab:	89 75 d4             	mov    %esi,-0x2c(%ebp)
    3bae:	31 f6                	xor    %esi,%esi
    3bb0:	eb 46                	jmp    3bf8 <fclose+0x238>
    3bb2:	8d b6 00 00 00 00    	lea    0x0(%esi),%esi
    3bb8:	50                   	push   %eax
    3bb9:	8d 45 e4             	lea    -0x1c(%ebp),%eax
    3bbc:	50                   	push   %eax
    3bbd:	8b 45 d4             	mov    -0x2c(%ebp),%eax
    3bc0:	01 f0                	add    %esi,%eax
    3bc2:	57                   	push   %edi
    3bc3:	c7 45 e4 00 00 00 00 	movl   $0x0,-0x1c(%ebp)
    3bca:	50                   	push   %eax
    3bcb:	e8 00 21 00 00       	call   5cd0 <kio_write>
    3bd0:	83 c4 10             	add    $0x10,%esp
    3bd3:	89 45 d0             	mov    %eax,-0x30(%ebp)
    3bd6:	85 c0                	test   %eax,%eax
    3bd8:	74 4e                	je     3c28 <fclose+0x268>
    3bda:	e8 c1 53 01 00       	call   18fa0 <__errno>
    3bdf:	8b 55 d0             	mov    -0x30(%ebp),%edx
    3be2:	89 10                	mov    %edx,(%eax)
    3be4:	c7 43 0c 01 00 00 00 	movl   $0x1,0xc(%ebx)
    3beb:	b8 01 00 00 00       	mov    $0x1,%eax
    3bf0:	85 ff                	test   %edi,%edi
    3bf2:	0f 84 28 ff ff ff    	je     3b20 <fclose+0x160>
    3bf8:	85 c0                	test   %eax,%eax
    3bfa:	75 4a                	jne    3c46 <fclose+0x286>
    3bfc:	8b 43 14             	mov    0x14(%ebx),%eax
    3bff:	85 c0                	test   %eax,%eax
    3c01:	75 b5                	jne    3bb8 <fclose+0x1f8>
    3c03:	50                   	push   %eax
    3c04:	8b 45 d4             	mov    -0x2c(%ebp),%eax
    3c07:	57                   	push   %edi
    3c08:	01 f0                	add    %esi,%eax
    3c0a:	50                   	push   %eax
    3c0b:	8b 43 08             	mov    0x8(%ebx),%eax
    3c0e:	50                   	push   %eax
    3c0f:	e8 ac 1a 01 00       	call   156c0 <write>
    3c14:	83 c4 10             	add    $0x10,%esp
    3c17:	85 c0                	test   %eax,%eax
    3c19:	78 15                	js     3c30 <fclose+0x270>
    3c1b:	29 c7                	sub    %eax,%edi
    3c1d:	01 c6                	add    %eax,%esi
    3c1f:	8b 43 0c             	mov    0xc(%ebx),%eax
    3c22:	eb cc                	jmp    3bf0 <fclose+0x230>
    3c24:	8d 74 26 00          	lea    0x0(%esi,%eiz,1),%esi
    3c28:	8b 45 e4             	mov    -0x1c(%ebp),%eax
    3c2b:	eb ee                	jmp    3c1b <fclose+0x25b>
    3c2d:	8d 76 00             	lea    0x0(%esi),%esi
    3c30:	c7 45 e4 00 00 00 00 	movl   $0x0,-0x1c(%ebp)
    3c37:	e8 64 53 01 00       	call   18fa0 <__errno>
    3c3c:	8b 08                	mov    (%eax),%ecx
    3c3e:	85 c9                	test   %ecx,%ecx
    3c40:	75 a2                	jne    3be4 <fclose+0x224>
    3c42:	31 c0                	xor    %eax,%eax
    3c44:	eb d5                	jmp    3c1b <fclose+0x25b>
    3c46:	85 f6                	test   %esi,%esi
    3c48:	0f 84 72 fe ff ff    	je     3ac0 <fclose+0x100>
    3c4e:	e9 d1 fe ff ff       	jmp    3b24 <fclose+0x164>
    3c53:	8d b6 00 00 00 00    	lea    0x0(%esi),%esi
    3c59:	8d bc 27 00 00 00 00 	lea    0x0(%edi,%eiz,1),%edi

00003c60 <freopen>:
    3c60:	55                   	push   %ebp
    3c61:	89 e5                	mov    %esp,%ebp
    3c63:	57                   	push   %edi
    3c64:	56                   	push   %esi
    3c65:	53                   	push   %ebx
    3c66:	83 ec 2c             	sub    $0x2c,%esp
    3c69:	8b 75 08             	mov    0x8(%ebp),%esi
    3c6c:	8b 5d 10             	mov    0x10(%ebp),%ebx
    3c6f:	85 f6                	test   %esi,%esi
    3c71:	0f 84 e9 01 00 00    	je     3e60 <freopen+0x200>
    3c77:	8b 43 0c             	mov    0xc(%ebx),%eax
    3c7a:	85 c0                	test   %eax,%eax
    3c7c:	0f 85 2e 01 00 00    	jne    3db0 <freopen+0x150>
    3c82:	8b 53 24             	mov    0x24(%ebx),%edx
    3c85:	85 d2                	test   %edx,%edx
    3c87:	74 3e                	je     3cc7 <freopen+0x67>
    3c89:	8b 4b 20             	mov    0x20(%ebx),%ecx
    3c8c:	85 c9                	test   %ecx,%ecx
    3c8e:	74 37                	je     3cc7 <freopen+0x67>
    3c90:	8b 7b 30             	mov    0x30(%ebx),%edi
    3c93:	2b 7b 34             	sub    0x34(%ebx),%edi
    3c96:	0f 84 84 01 00 00    	je     3e20 <freopen+0x1c0>
    3c9c:	8b 53 2c             	mov    0x2c(%ebx),%edx
    3c9f:	83 fa 02             	cmp    $0x2,%edx
    3ca2:	0f 84 c0 01 00 00    	je     3e68 <freopen+0x208>
    3ca8:	4a                   	dec    %edx
    3ca9:	0f 84 e9 01 00 00    	je     3e98 <freopen+0x238>
    3caf:	8b 53 24             	mov    0x24(%ebx),%edx
    3cb2:	c7 43 2c 00 00 00 00 	movl   $0x0,0x2c(%ebx)
    3cb9:	89 53 30             	mov    %edx,0x30(%ebx)
    3cbc:	89 53 34             	mov    %edx,0x34(%ebx)
    3cbf:	85 c0                	test   %eax,%eax
    3cc1:	0f 85 e9 00 00 00    	jne    3db0 <freopen+0x150>
    3cc7:	8b 7b 14             	mov    0x14(%ebx),%edi
    3cca:	85 ff                	test   %edi,%edi
    3ccc:	0f 85 66 01 00 00    	jne    3e38 <freopen+0x1d8>
    3cd2:	8b 43 08             	mov    0x8(%ebx),%eax
    3cd5:	85 c0                	test   %eax,%eax
    3cd7:	0f 88 73 01 00 00    	js     3e50 <freopen+0x1f0>
    3cdd:	8b 4b 1c             	mov    0x1c(%ebx),%ecx
    3ce0:	85 c9                	test   %ecx,%ecx
    3ce2:	0f 85 00 01 00 00    	jne    3de8 <freopen+0x188>
    3ce8:	8b 53 18             	mov    0x18(%ebx),%edx
    3ceb:	85 d2                	test   %edx,%edx
    3ced:	0f 84 d5 00 00 00    	je     3dc8 <freopen+0x168>
    3cf3:	83 ec 0c             	sub    $0xc,%esp
    3cf6:	52                   	push   %edx
    3cf7:	e8 44 c3 00 00       	call   10040 <async_hangup>
    3cfc:	8b 43 08             	mov    0x8(%ebx),%eax
    3cff:	83 c4 10             	add    $0x10,%esp
    3d02:	85 c0                	test   %eax,%eax
    3d04:	0f 89 be 00 00 00    	jns    3dc8 <freopen+0x168>
    3d0a:	8b 13                	mov    (%ebx),%edx
    3d0c:	85 d2                	test   %edx,%edx
    3d0e:	74 14                	je     3d24 <freopen+0xc4>
    3d10:	8b 43 04             	mov    0x4(%ebx),%eax
    3d13:	85 c0                	test   %eax,%eax
    3d15:	74 07                	je     3d1e <freopen+0xbe>
    3d17:	89 10                	mov    %edx,(%eax)
    3d19:	8b 13                	mov    (%ebx),%edx
    3d1b:	89 42 04             	mov    %eax,0x4(%edx)
    3d1e:	c7 03 00 00 00 00    	movl   $0x0,(%ebx)
    3d24:	c7 43 04 00 00 00 00 	movl   $0x0,0x4(%ebx)
    3d2b:	8b 55 0c             	mov    0xc(%ebp),%edx
    3d2e:	50                   	push   %eax
    3d2f:	50                   	push   %eax
    3d30:	52                   	push   %edx
    3d31:	56                   	push   %esi
    3d32:	e8 a9 f9 ff ff       	call   36e0 <fopen>
    3d37:	83 c4 10             	add    $0x10,%esp
    3d3a:	85 c0                	test   %eax,%eax
    3d3c:	0f 84 06 02 00 00    	je     3f48 <freopen+0x2e8>
    3d42:	8b 08                	mov    (%eax),%ecx
    3d44:	85 c9                	test   %ecx,%ecx
    3d46:	74 0e                	je     3d56 <freopen+0xf6>
    3d48:	8b 50 04             	mov    0x4(%eax),%edx
    3d4b:	85 d2                	test   %edx,%edx
    3d4d:	74 07                	je     3d56 <freopen+0xf6>
    3d4f:	89 0a                	mov    %ecx,(%edx)
    3d51:	8b 08                	mov    (%eax),%ecx
    3d53:	89 51 04             	mov    %edx,0x4(%ecx)
    3d56:	c7 00 00 00 00 00    	movl   $0x0,(%eax)
    3d5c:	c7 40 04 00 00 00 00 	movl   $0x0,0x4(%eax)
    3d63:	89 c6                	mov    %eax,%esi
    3d65:	b9 10 00 00 00       	mov    $0x10,%ecx
    3d6a:	89 df                	mov    %ebx,%edi
    3d6c:	8b 15 00 72 02 00    	mov    0x27200,%edx
    3d72:	f3 a5                	rep movsl %ds:(%esi),%es:(%edi)
    3d74:	89 13                	mov    %edx,(%ebx)
    3d76:	83 ec 0c             	sub    $0xc,%esp
    3d79:	8b 15 00 72 02 00    	mov    0x27200,%edx
    3d7f:	c7 43 04 00 72 02 00 	movl   $0x27200,0x4(%ebx)
    3d86:	89 1d 00 72 02 00    	mov    %ebx,0x27200
    3d8c:	89 5a 04             	mov    %ebx,0x4(%edx)
    3d8f:	50                   	push   %eax
    3d90:	e8 2b 6e 00 00       	call   abc0 <free>
    3d95:	83 c4 10             	add    $0x10,%esp
    3d98:	89 d8                	mov    %ebx,%eax
    3d9a:	8d 65 f4             	lea    -0xc(%ebp),%esp
    3d9d:	5b                   	pop    %ebx
    3d9e:	5e                   	pop    %esi
    3d9f:	5f                   	pop    %edi
    3da0:	5d                   	pop    %ebp
    3da1:	c3                   	ret    
    3da2:	c7 43 0c 01 00 00 00 	movl   $0x1,0xc(%ebx)
    3da9:	8d b4 26 00 00 00 00 	lea    0x0(%esi,%eiz,1),%esi
    3db0:	8b 53 18             	mov    0x18(%ebx),%edx
    3db3:	85 d2                	test   %edx,%edx
    3db5:	0f 85 38 ff ff ff    	jne    3cf3 <freopen+0x93>
    3dbb:	8b 43 08             	mov    0x8(%ebx),%eax
    3dbe:	85 c0                	test   %eax,%eax
    3dc0:	0f 88 44 ff ff ff    	js     3d0a <freopen+0xaa>
    3dc6:	66 90                	xchg   %ax,%ax
    3dc8:	83 ec 0c             	sub    $0xc,%esp
    3dcb:	50                   	push   %eax
    3dcc:	e8 df 16 01 00       	call   154b0 <close>
    3dd1:	8b 13                	mov    (%ebx),%edx
    3dd3:	83 c4 10             	add    $0x10,%esp
    3dd6:	85 d2                	test   %edx,%edx
    3dd8:	0f 85 32 ff ff ff    	jne    3d10 <freopen+0xb0>
    3dde:	e9 3b ff ff ff       	jmp    3d1e <freopen+0xbe>
    3de3:	90                   	nop
    3de4:	8d 74 26 00          	lea    0x0(%esi,%eiz,1),%esi
    3de8:	83 ec 0c             	sub    $0xc,%esp
    3deb:	c7 43 1c 00 00 00 00 	movl   $0x0,0x1c(%ebx)
    3df2:	50                   	push   %eax
    3df3:	e8 28 1a 01 00       	call   15820 <fsync>
    3df8:	8b 53 18             	mov    0x18(%ebx),%edx
    3dfb:	83 c4 10             	add    $0x10,%esp
    3dfe:	85 d2                	test   %edx,%edx
    3e00:	0f 85 ed fe ff ff    	jne    3cf3 <freopen+0x93>
    3e06:	eb b3                	jmp    3dbb <freopen+0x15b>
    3e08:	89 f7                	mov    %esi,%edi
    3e0a:	8b 75 08             	mov    0x8(%ebp),%esi
    3e0d:	85 ff                	test   %edi,%edi
    3e0f:	74 07                	je     3e18 <freopen+0x1b8>
    3e11:	c7 43 1c 01 00 00 00 	movl   $0x1,0x1c(%ebx)
    3e18:	85 c0                	test   %eax,%eax
    3e1a:	75 94                	jne    3db0 <freopen+0x150>
    3e1c:	8b 53 24             	mov    0x24(%ebx),%edx
    3e1f:	90                   	nop
    3e20:	8b 7b 14             	mov    0x14(%ebx),%edi
    3e23:	89 53 30             	mov    %edx,0x30(%ebx)
    3e26:	89 53 34             	mov    %edx,0x34(%ebx)
    3e29:	c7 43 2c 00 00 00 00 	movl   $0x0,0x2c(%ebx)
    3e30:	85 ff                	test   %edi,%edi
    3e32:	0f 84 9a fe ff ff    	je     3cd2 <freopen+0x72>
    3e38:	e8 c3 1e 00 00       	call   5d00 <kio_update>
    3e3d:	8b 53 18             	mov    0x18(%ebx),%edx
    3e40:	85 d2                	test   %edx,%edx
    3e42:	0f 85 ab fe ff ff    	jne    3cf3 <freopen+0x93>
    3e48:	e9 6e ff ff ff       	jmp    3dbb <freopen+0x15b>
    3e4d:	8d 76 00             	lea    0x0(%esi),%esi
    3e50:	8b 53 18             	mov    0x18(%ebx),%edx
    3e53:	85 d2                	test   %edx,%edx
    3e55:	0f 85 98 fe ff ff    	jne    3cf3 <freopen+0x93>
    3e5b:	e9 aa fe ff ff       	jmp    3d0a <freopen+0xaa>
    3e60:	31 c0                	xor    %eax,%eax
    3e62:	e9 33 ff ff ff       	jmp    3d9a <freopen+0x13a>
    3e67:	90                   	nop
    3e68:	89 f8                	mov    %edi,%eax
    3e6a:	6a 01                	push   $0x1
    3e6c:	f7 d8                	neg    %eax
    3e6e:	89 c2                	mov    %eax,%edx
    3e70:	c1 fa 1f             	sar    $0x1f,%edx
    3e73:	52                   	push   %edx
    3e74:	50                   	push   %eax
    3e75:	8b 43 08             	mov    0x8(%ebx),%eax
    3e78:	50                   	push   %eax
    3e79:	e8 52 1a 01 00       	call   158d0 <lseek>
    3e7e:	21 d0                	and    %edx,%eax
    3e80:	83 c4 10             	add    $0x10,%esp
    3e83:	40                   	inc    %eax
    3e84:	0f 84 18 ff ff ff    	je     3da2 <freopen+0x142>
    3e8a:	8b 53 2c             	mov    0x2c(%ebx),%edx
    3e8d:	8b 43 0c             	mov    0xc(%ebx),%eax
    3e90:	e9 13 fe ff ff       	jmp    3ca8 <freopen+0x48>
    3e95:	8d 76 00             	lea    0x0(%esi),%esi
    3e98:	8b 4b 34             	mov    0x34(%ebx),%ecx
    3e9b:	89 75 08             	mov    %esi,0x8(%ebp)
    3e9e:	89 4d d4             	mov    %ecx,-0x2c(%ebp)
    3ea1:	31 c9                	xor    %ecx,%ecx
    3ea3:	89 ce                	mov    %ecx,%esi
    3ea5:	eb 41                	jmp    3ee8 <freopen+0x288>
    3ea7:	90                   	nop
    3ea8:	50                   	push   %eax
    3ea9:	8d 45 e4             	lea    -0x1c(%ebp),%eax
    3eac:	50                   	push   %eax
    3ead:	8b 45 d4             	mov    -0x2c(%ebp),%eax
    3eb0:	01 f0                	add    %esi,%eax
    3eb2:	57                   	push   %edi
    3eb3:	c7 45 e4 00 00 00 00 	movl   $0x0,-0x1c(%ebp)
    3eba:	50                   	push   %eax
    3ebb:	e8 10 1e 00 00       	call   5cd0 <kio_write>
    3ec0:	83 c4 10             	add    $0x10,%esp
    3ec3:	89 45 d0             	mov    %eax,-0x30(%ebp)
    3ec6:	85 c0                	test   %eax,%eax
    3ec8:	74 4e                	je     3f18 <freopen+0x2b8>
    3eca:	e8 d1 50 01 00       	call   18fa0 <__errno>
    3ecf:	8b 55 d0             	mov    -0x30(%ebp),%edx
    3ed2:	89 10                	mov    %edx,(%eax)
    3ed4:	c7 43 0c 01 00 00 00 	movl   $0x1,0xc(%ebx)
    3edb:	b8 01 00 00 00       	mov    $0x1,%eax
    3ee0:	85 ff                	test   %edi,%edi
    3ee2:	0f 84 20 ff ff ff    	je     3e08 <freopen+0x1a8>
    3ee8:	85 c0                	test   %eax,%eax
    3eea:	75 4a                	jne    3f36 <freopen+0x2d6>
    3eec:	8b 43 14             	mov    0x14(%ebx),%eax
    3eef:	85 c0                	test   %eax,%eax
    3ef1:	75 b5                	jne    3ea8 <freopen+0x248>
    3ef3:	50                   	push   %eax
    3ef4:	8b 45 d4             	mov    -0x2c(%ebp),%eax
    3ef7:	57                   	push   %edi
    3ef8:	01 f0                	add    %esi,%eax
    3efa:	50                   	push   %eax
    3efb:	8b 43 08             	mov    0x8(%ebx),%eax
    3efe:	50                   	push   %eax
    3eff:	e8 bc 17 01 00       	call   156c0 <write>
    3f04:	83 c4 10             	add    $0x10,%esp
    3f07:	85 c0                	test   %eax,%eax
    3f09:	78 15                	js     3f20 <freopen+0x2c0>
    3f0b:	29 c7                	sub    %eax,%edi
    3f0d:	01 c6                	add    %eax,%esi
    3f0f:	8b 43 0c             	mov    0xc(%ebx),%eax
    3f12:	eb cc                	jmp    3ee0 <freopen+0x280>
    3f14:	8d 74 26 00          	lea    0x0(%esi,%eiz,1),%esi
    3f18:	8b 45 e4             	mov    -0x1c(%ebp),%eax
    3f1b:	eb ee                	jmp    3f0b <freopen+0x2ab>
    3f1d:	8d 76 00             	lea    0x0(%esi),%esi
    3f20:	c7 45 e4 00 00 00 00 	movl   $0x0,-0x1c(%ebp)
    3f27:	e8 74 50 01 00       	call   18fa0 <__errno>
    3f2c:	8b 00                	mov    (%eax),%eax
    3f2e:	85 c0                	test   %eax,%eax
    3f30:	75 a2                	jne    3ed4 <freopen+0x274>
    3f32:	31 c0                	xor    %eax,%eax
    3f34:	eb d5                	jmp    3f0b <freopen+0x2ab>
    3f36:	89 f7                	mov    %esi,%edi
    3f38:	8b 75 08             	mov    0x8(%ebp),%esi
    3f3b:	85 ff                	test   %edi,%edi
    3f3d:	0f 84 6d fe ff ff    	je     3db0 <freopen+0x150>
    3f43:	e9 c9 fe ff ff       	jmp    3e11 <freopen+0x1b1>
    3f48:	83 ec 0c             	sub    $0xc,%esp
    3f4b:	89 45 d4             	mov    %eax,-0x2c(%ebp)
    3f4e:	53                   	push   %ebx
    3f4f:	e8 6c 6c 00 00       	call   abc0 <free>
    3f54:	83 c4 10             	add    $0x10,%esp
    3f57:	8b 45 d4             	mov    -0x2c(%ebp),%eax
    3f5a:	e9 3b fe ff ff       	jmp    3d9a <freopen+0x13a>
    3f5f:	90                   	nop

00003f60 <fread>:
    3f60:	55                   	push   %ebp
    3f61:	89 e5                	mov    %esp,%ebp
    3f63:	57                   	push   %edi
    3f64:	56                   	push   %esi
    3f65:	53                   	push   %ebx
    3f66:	83 ec 1c             	sub    $0x1c,%esp
    3f69:	8b 45 0c             	mov    0xc(%ebp),%eax
    3f6c:	8b 55 08             	mov    0x8(%ebp),%edx
    3f6f:	8b 7d 10             	mov    0x10(%ebp),%edi
    3f72:	8b 5d 14             	mov    0x14(%ebp),%ebx
    3f75:	85 c0                	test   %eax,%eax
    3f77:	0f 84 ef 00 00 00    	je     406c <fread+0x10c>
    3f7d:	85 ff                	test   %edi,%edi
    3f7f:	0f 84 e7 00 00 00    	je     406c <fread+0x10c>
    3f85:	8b 45 0c             	mov    0xc(%ebp),%eax
    3f88:	0f af f8             	imul   %eax,%edi
    3f8b:	8b 43 3c             	mov    0x3c(%ebx),%eax
    3f8e:	85 c0                	test   %eax,%eax
    3f90:	0f 8e e1 01 00 00    	jle    4177 <fread+0x217>
    3f96:	85 ff                	test   %edi,%edi
    3f98:	0f 84 e7 01 00 00    	je     4185 <fread+0x225>
    3f9e:	89 d6                	mov    %edx,%esi
    3fa0:	eb 0e                	jmp    3fb0 <fread+0x50>
    3fa2:	8d b6 00 00 00 00    	lea    0x0(%esi),%esi
    3fa8:	85 ff                	test   %edi,%edi
    3faa:	0f 84 10 01 00 00    	je     40c0 <fread+0x160>
    3fb0:	48                   	dec    %eax
    3fb1:	46                   	inc    %esi
    3fb2:	89 43 3c             	mov    %eax,0x3c(%ebx)
    3fb5:	89 f1                	mov    %esi,%ecx
    3fb7:	8a 44 03 38          	mov    0x38(%ebx,%eax,1),%al
    3fbb:	29 d1                	sub    %edx,%ecx
    3fbd:	88 46 ff             	mov    %al,-0x1(%esi)
    3fc0:	4f                   	dec    %edi
    3fc1:	8b 43 3c             	mov    0x3c(%ebx),%eax
    3fc4:	85 c0                	test   %eax,%eax
    3fc6:	7f e0                	jg     3fa8 <fread+0x48>
    3fc8:	89 4d e4             	mov    %ecx,-0x1c(%ebp)
    3fcb:	8b 43 20             	mov    0x20(%ebx),%eax
    3fce:	85 c0                	test   %eax,%eax
    3fd0:	0f 84 07 01 00 00    	je     40dd <fread+0x17d>
    3fd6:	83 7b 2c 01          	cmpl   $0x1,0x2c(%ebx)
    3fda:	0f 84 5e 01 00 00    	je     413e <fread+0x1de>
    3fe0:	8b 43 24             	mov    0x24(%ebx),%eax
    3fe3:	85 c0                	test   %eax,%eax
    3fe5:	0f 84 6b 01 00 00    	je     4156 <fread+0x1f6>
    3feb:	8b 43 0c             	mov    0xc(%ebx),%eax
    3fee:	85 c0                	test   %eax,%eax
    3ff0:	75 65                	jne    4057 <fread+0xf7>
    3ff2:	8b 43 10             	mov    0x10(%ebx),%eax
    3ff5:	85 c0                	test   %eax,%eax
    3ff7:	75 5e                	jne    4057 <fread+0xf7>
    3ff9:	85 ff                	test   %edi,%edi
    3ffb:	74 5a                	je     4057 <fread+0xf7>
    3ffd:	8b 53 34             	mov    0x34(%ebx),%edx
    4000:	8b 4b 30             	mov    0x30(%ebx),%ecx
    4003:	39 d1                	cmp    %edx,%ecx
    4005:	74 6f                	je     4076 <fread+0x116>
    4007:	8b 43 10             	mov    0x10(%ebx),%eax
    400a:	85 c0                	test   %eax,%eax
    400c:	75 49                	jne    4057 <fread+0xf7>
    400e:	8b 53 34             	mov    0x34(%ebx),%edx
    4011:	29 d1                	sub    %edx,%ecx
    4013:	39 f9                	cmp    %edi,%ecx
    4015:	76 02                	jbe    4019 <fread+0xb9>
    4017:	89 f9                	mov    %edi,%ecx
    4019:	85 c9                	test   %ecx,%ecx
    401b:	74 4a                	je     4067 <fread+0x107>
    401d:	31 c0                	xor    %eax,%eax
    401f:	eb 0a                	jmp    402b <fread+0xcb>
    4021:	8d b4 26 00 00 00 00 	lea    0x0(%esi,%eiz,1),%esi
    4028:	8b 53 34             	mov    0x34(%ebx),%edx
    402b:	8a 14 02             	mov    (%edx,%eax,1),%dl
    402e:	88 14 06             	mov    %dl,(%esi,%eax,1)
    4031:	40                   	inc    %eax
    4032:	39 c8                	cmp    %ecx,%eax
    4034:	75 f2                	jne    4028 <fread+0xc8>
    4036:	8b 53 34             	mov    0x34(%ebx),%edx
    4039:	8b 4b 0c             	mov    0xc(%ebx),%ecx
    403c:	01 c2                	add    %eax,%edx
    403e:	01 c6                	add    %eax,%esi
    4040:	29 c7                	sub    %eax,%edi
    4042:	01 45 e4             	add    %eax,-0x1c(%ebp)
    4045:	89 53 34             	mov    %edx,0x34(%ebx)
    4048:	85 c9                	test   %ecx,%ecx
    404a:	75 0b                	jne    4057 <fread+0xf7>
    404c:	8b 4b 10             	mov    0x10(%ebx),%ecx
    404f:	85 c9                	test   %ecx,%ecx
    4051:	75 04                	jne    4057 <fread+0xf7>
    4053:	85 ff                	test   %edi,%edi
    4055:	75 a9                	jne    4000 <fread+0xa0>
    4057:	8b 45 e4             	mov    -0x1c(%ebp),%eax
    405a:	31 d2                	xor    %edx,%edx
    405c:	f7 75 0c             	divl   0xc(%ebp)
    405f:	8d 65 f4             	lea    -0xc(%ebp),%esp
    4062:	5b                   	pop    %ebx
    4063:	5e                   	pop    %esi
    4064:	5f                   	pop    %edi
    4065:	5d                   	pop    %ebp
    4066:	c3                   	ret    
    4067:	89 53 34             	mov    %edx,0x34(%ebx)
    406a:	eb e0                	jmp    404c <fread+0xec>
    406c:	8d 65 f4             	lea    -0xc(%ebp),%esp
    406f:	31 c0                	xor    %eax,%eax
    4071:	5b                   	pop    %ebx
    4072:	5e                   	pop    %esi
    4073:	5f                   	pop    %edi
    4074:	5d                   	pop    %ebp
    4075:	c3                   	ret    
    4076:	8b 43 24             	mov    0x24(%ebx),%eax
    4079:	89 43 34             	mov    %eax,0x34(%ebx)
    407c:	89 43 30             	mov    %eax,0x30(%ebx)
    407f:	52                   	push   %edx
    4080:	8b 4b 28             	mov    0x28(%ebx),%ecx
    4083:	51                   	push   %ecx
    4084:	50                   	push   %eax
    4085:	8b 43 08             	mov    0x8(%ebx),%eax
    4088:	50                   	push   %eax
    4089:	e8 d2 14 01 00       	call   15560 <read>
    408e:	83 c4 10             	add    $0x10,%esp
    4091:	85 c0                	test   %eax,%eax
    4093:	0f 88 b1 00 00 00    	js     414a <fread+0x1ea>
    4099:	74 36                	je     40d1 <fread+0x171>
    409b:	8b 53 30             	mov    0x30(%ebx),%edx
    409e:	c7 43 2c 02 00 00 00 	movl   $0x2,0x2c(%ebx)
    40a5:	01 d0                	add    %edx,%eax
    40a7:	89 c1                	mov    %eax,%ecx
    40a9:	89 43 30             	mov    %eax,0x30(%ebx)
    40ac:	8b 43 0c             	mov    0xc(%ebx),%eax
    40af:	85 c0                	test   %eax,%eax
    40b1:	0f 84 50 ff ff ff    	je     4007 <fread+0xa7>
    40b7:	eb 9e                	jmp    4057 <fread+0xf7>
    40b9:	8d b4 26 00 00 00 00 	lea    0x0(%esi,%eiz,1),%esi
    40c0:	89 4d e4             	mov    %ecx,-0x1c(%ebp)
    40c3:	8b 43 20             	mov    0x20(%ebx),%eax
    40c6:	85 c0                	test   %eax,%eax
    40c8:	74 60                	je     412a <fread+0x1ca>
    40ca:	31 ff                	xor    %edi,%edi
    40cc:	e9 05 ff ff ff       	jmp    3fd6 <fread+0x76>
    40d1:	c7 43 10 01 00 00 00 	movl   $0x1,0x10(%ebx)
    40d8:	e9 7a ff ff ff       	jmp    4057 <fread+0xf7>
    40dd:	31 f6                	xor    %esi,%esi
    40df:	85 ff                	test   %edi,%edi
    40e1:	74 49                	je     412c <fread+0x1cc>
    40e3:	89 55 08             	mov    %edx,0x8(%ebp)
    40e6:	eb 0b                	jmp    40f3 <fread+0x193>
    40e8:	c7 43 10 01 00 00 00 	movl   $0x1,0x10(%ebx)
    40ef:	85 ff                	test   %edi,%edi
    40f1:	74 39                	je     412c <fread+0x1cc>
    40f3:	8b 53 0c             	mov    0xc(%ebx),%edx
    40f6:	85 d2                	test   %edx,%edx
    40f8:	75 32                	jne    412c <fread+0x1cc>
    40fa:	8b 43 10             	mov    0x10(%ebx),%eax
    40fd:	85 c0                	test   %eax,%eax
    40ff:	75 2b                	jne    412c <fread+0x1cc>
    4101:	8b 45 08             	mov    0x8(%ebp),%eax
    4104:	51                   	push   %ecx
    4105:	01 f0                	add    %esi,%eax
    4107:	57                   	push   %edi
    4108:	50                   	push   %eax
    4109:	8b 43 08             	mov    0x8(%ebx),%eax
    410c:	50                   	push   %eax
    410d:	e8 4e 14 01 00       	call   15560 <read>
    4112:	83 c4 10             	add    $0x10,%esp
    4115:	85 c0                	test   %eax,%eax
    4117:	78 08                	js     4121 <fread+0x1c1>
    4119:	74 cd                	je     40e8 <fread+0x188>
    411b:	29 c7                	sub    %eax,%edi
    411d:	01 c6                	add    %eax,%esi
    411f:	eb ce                	jmp    40ef <fread+0x18f>
    4121:	c7 43 0c 01 00 00 00 	movl   $0x1,0xc(%ebx)
    4128:	eb c5                	jmp    40ef <fread+0x18f>
    412a:	31 f6                	xor    %esi,%esi
    412c:	8b 45 e4             	mov    -0x1c(%ebp),%eax
    412f:	31 d2                	xor    %edx,%edx
    4131:	01 f0                	add    %esi,%eax
    4133:	f7 75 0c             	divl   0xc(%ebp)
    4136:	8d 65 f4             	lea    -0xc(%ebp),%esp
    4139:	5b                   	pop    %ebx
    413a:	5e                   	pop    %esi
    413b:	5f                   	pop    %edi
    413c:	5d                   	pop    %ebp
    413d:	c3                   	ret    
    413e:	89 d8                	mov    %ebx,%eax
    4140:	e8 4b ee ff ff       	call   2f90 <_fflushbuf>
    4145:	e9 96 fe ff ff       	jmp    3fe0 <fread+0x80>
    414a:	c7 43 0c 01 00 00 00 	movl   $0x1,0xc(%ebx)
    4151:	e9 01 ff ff ff       	jmp    4057 <fread+0xf7>
    4156:	83 ec 0c             	sub    $0xc,%esp
    4159:	8b 43 28             	mov    0x28(%ebx),%eax
    415c:	50                   	push   %eax
    415d:	e8 ae 68 00 00       	call   aa10 <malloc>
    4162:	83 c4 10             	add    $0x10,%esp
    4165:	89 43 24             	mov    %eax,0x24(%ebx)
    4168:	85 c0                	test   %eax,%eax
    416a:	74 27                	je     4193 <fread+0x233>
    416c:	89 43 30             	mov    %eax,0x30(%ebx)
    416f:	89 43 34             	mov    %eax,0x34(%ebx)
    4172:	e9 74 fe ff ff       	jmp    3feb <fread+0x8b>
    4177:	89 d6                	mov    %edx,%esi
    4179:	c7 45 e4 00 00 00 00 	movl   $0x0,-0x1c(%ebp)
    4180:	e9 46 fe ff ff       	jmp    3fcb <fread+0x6b>
    4185:	c7 45 e4 00 00 00 00 	movl   $0x0,-0x1c(%ebp)
    418c:	89 d6                	mov    %edx,%esi
    418e:	e9 30 ff ff ff       	jmp    40c3 <fread+0x163>
    4193:	e8 08 4e 01 00       	call   18fa0 <__errno>
    4198:	c7 00 fe ff ff ff    	movl   $0xfffffffe,(%eax)
    419e:	31 c0                	xor    %eax,%eax
    41a0:	e9 ba fe ff ff       	jmp    405f <fread+0xff>
    41a5:	8d 74 26 00          	lea    0x0(%esi,%eiz,1),%esi
    41a9:	8d bc 27 00 00 00 00 	lea    0x0(%edi,%eiz,1),%edi

000041b0 <fgets>:
    41b0:	55                   	push   %ebp
    41b1:	89 e5                	mov    %esp,%ebp
    41b3:	57                   	push   %edi
    41b4:	56                   	push   %esi
    41b5:	53                   	push   %ebx
    41b6:	83 ec 3c             	sub    $0x3c,%esp
    41b9:	c7 45 d4 00 00 00 00 	movl   $0x0,-0x2c(%ebp)
    41c0:	8b 45 0c             	mov    0xc(%ebp),%eax
    41c3:	8b 7d 10             	mov    0x10(%ebp),%edi
    41c6:	48                   	dec    %eax
    41c7:	89 fb                	mov    %edi,%ebx
    41c9:	89 45 cc             	mov    %eax,-0x34(%ebp)
    41cc:	8d 74 26 00          	lea    0x0(%esi,%eiz,1),%esi
    41d0:	8b 75 cc             	mov    -0x34(%ebp),%esi
    41d3:	39 75 d4             	cmp    %esi,-0x2c(%ebp)
    41d6:	0f 8d c7 01 00 00    	jge    43a3 <fgets+0x1f3>
    41dc:	8b 3d e0 74 02 00    	mov    0x274e0,%edi
    41e2:	85 ff                	test   %edi,%edi
    41e4:	74 62                	je     4248 <fgets+0x98>
    41e6:	8b 47 0c             	mov    0xc(%edi),%eax
    41e9:	85 c0                	test   %eax,%eax
    41eb:	75 5b                	jne    4248 <fgets+0x98>
    41ed:	8b 57 24             	mov    0x24(%edi),%edx
    41f0:	85 d2                	test   %edx,%edx
    41f2:	74 24                	je     4218 <fgets+0x68>
    41f4:	8b 77 20             	mov    0x20(%edi),%esi
    41f7:	85 f6                	test   %esi,%esi
    41f9:	74 1d                	je     4218 <fgets+0x68>
    41fb:	8b 77 30             	mov    0x30(%edi),%esi
    41fe:	8b 4f 34             	mov    0x34(%edi),%ecx
    4201:	29 ce                	sub    %ecx,%esi
    4203:	85 f6                	test   %esi,%esi
    4205:	0f 85 47 02 00 00    	jne    4452 <fgets+0x2a2>
    420b:	89 57 30             	mov    %edx,0x30(%edi)
    420e:	89 57 34             	mov    %edx,0x34(%edi)
    4211:	c7 47 2c 00 00 00 00 	movl   $0x0,0x2c(%edi)
    4218:	8b 47 14             	mov    0x14(%edi),%eax
    421b:	85 c0                	test   %eax,%eax
    421d:	0f 85 25 02 00 00    	jne    4448 <fgets+0x298>
    4223:	8b 47 08             	mov    0x8(%edi),%eax
    4226:	85 c0                	test   %eax,%eax
    4228:	78 1e                	js     4248 <fgets+0x98>
    422a:	8b 57 1c             	mov    0x1c(%edi),%edx
    422d:	85 d2                	test   %edx,%edx
    422f:	74 17                	je     4248 <fgets+0x98>
    4231:	83 ec 0c             	sub    $0xc,%esp
    4234:	c7 47 1c 00 00 00 00 	movl   $0x0,0x1c(%edi)
    423b:	50                   	push   %eax
    423c:	e8 df 15 01 00       	call   15820 <fsync>
    4241:	83 c4 10             	add    $0x10,%esp
    4244:	8d 74 26 00          	lea    0x0(%esi,%eiz,1),%esi
    4248:	8b 3d dc 74 02 00    	mov    0x274dc,%edi
    424e:	85 ff                	test   %edi,%edi
    4250:	74 5e                	je     42b0 <fgets+0x100>
    4252:	8b 47 0c             	mov    0xc(%edi),%eax
    4255:	85 c0                	test   %eax,%eax
    4257:	75 57                	jne    42b0 <fgets+0x100>
    4259:	8b 57 24             	mov    0x24(%edi),%edx
    425c:	85 d2                	test   %edx,%edx
    425e:	74 24                	je     4284 <fgets+0xd4>
    4260:	8b 77 20             	mov    0x20(%edi),%esi
    4263:	85 f6                	test   %esi,%esi
    4265:	74 1d                	je     4284 <fgets+0xd4>
    4267:	8b 77 30             	mov    0x30(%edi),%esi
    426a:	8b 4f 34             	mov    0x34(%edi),%ecx
    426d:	29 ce                	sub    %ecx,%esi
    426f:	85 f6                	test   %esi,%esi
    4271:	0f 85 0b 02 00 00    	jne    4482 <fgets+0x2d2>
    4277:	89 57 30             	mov    %edx,0x30(%edi)
    427a:	89 57 34             	mov    %edx,0x34(%edi)
    427d:	c7 47 2c 00 00 00 00 	movl   $0x0,0x2c(%edi)
    4284:	8b 47 14             	mov    0x14(%edi),%eax
    4287:	85 c0                	test   %eax,%eax
    4289:	0f 85 51 01 00 00    	jne    43e0 <fgets+0x230>
    428f:	8b 47 08             	mov    0x8(%edi),%eax
    4292:	85 c0                	test   %eax,%eax
    4294:	78 1a                	js     42b0 <fgets+0x100>
    4296:	8b 4f 1c             	mov    0x1c(%edi),%ecx
    4299:	85 c9                	test   %ecx,%ecx
    429b:	74 13                	je     42b0 <fgets+0x100>
    429d:	83 ec 0c             	sub    $0xc,%esp
    42a0:	c7 47 1c 00 00 00 00 	movl   $0x0,0x1c(%edi)
    42a7:	50                   	push   %eax
    42a8:	e8 73 15 01 00       	call   15820 <fsync>
    42ad:	83 c4 10             	add    $0x10,%esp
    42b0:	8b 43 3c             	mov    0x3c(%ebx),%eax
    42b3:	85 c0                	test   %eax,%eax
    42b5:	0f 8e 35 01 00 00    	jle    43f0 <fgets+0x240>
    42bb:	48                   	dec    %eax
    42bc:	8b 53 20             	mov    0x20(%ebx),%edx
    42bf:	89 43 3c             	mov    %eax,0x3c(%ebx)
    42c2:	85 d2                	test   %edx,%edx
    42c4:	8a 44 03 38          	mov    0x38(%ebx,%eax,1),%al
    42c8:	88 45 e3             	mov    %al,-0x1d(%ebp)
    42cb:	0f 84 af 00 00 00    	je     4380 <fgets+0x1d0>
    42d1:	31 d2                	xor    %edx,%edx
    42d3:	be 01 00 00 00       	mov    $0x1,%esi
    42d8:	8d 7d e4             	lea    -0x1c(%ebp),%edi
    42db:	8b 43 24             	mov    0x24(%ebx),%eax
    42de:	83 7b 2c 01          	cmpl   $0x1,0x2c(%ebx)
    42e2:	89 45 d0             	mov    %eax,-0x30(%ebp)
    42e5:	0f 84 c7 01 00 00    	je     44b2 <fgets+0x302>
    42eb:	8b 45 d0             	mov    -0x30(%ebp),%eax
    42ee:	85 c0                	test   %eax,%eax
    42f0:	0f 84 82 02 00 00    	je     4578 <fgets+0x3c8>
    42f6:	8b 43 0c             	mov    0xc(%ebx),%eax
    42f9:	85 c0                	test   %eax,%eax
    42fb:	0f 85 d2 00 00 00    	jne    43d3 <fgets+0x223>
    4301:	8b 43 10             	mov    0x10(%ebx),%eax
    4304:	85 c0                	test   %eax,%eax
    4306:	0f 85 c7 00 00 00    	jne    43d3 <fgets+0x223>
    430c:	84 d2                	test   %dl,%dl
    430e:	0f 84 bf 00 00 00    	je     43d3 <fgets+0x223>
    4314:	8b 53 30             	mov    0x30(%ebx),%edx
    4317:	8b 43 34             	mov    0x34(%ebx),%eax
    431a:	39 d0                	cmp    %edx,%eax
    431c:	74 1b                	je     4339 <fgets+0x189>
    431e:	66 90                	xchg   %ax,%ax
    4320:	8b 43 10             	mov    0x10(%ebx),%eax
    4323:	85 c0                	test   %eax,%eax
    4325:	0f 85 a8 00 00 00    	jne    43d3 <fgets+0x223>
    432b:	8b 43 34             	mov    0x34(%ebx),%eax
    432e:	39 c2                	cmp    %eax,%edx
    4330:	75 46                	jne    4378 <fgets+0x1c8>
    4332:	89 53 34             	mov    %edx,0x34(%ebx)
    4335:	39 d0                	cmp    %edx,%eax
    4337:	75 e7                	jne    4320 <fgets+0x170>
    4339:	8b 43 24             	mov    0x24(%ebx),%eax
    433c:	89 43 34             	mov    %eax,0x34(%ebx)
    433f:	89 43 30             	mov    %eax,0x30(%ebx)
    4342:	52                   	push   %edx
    4343:	8b 4b 28             	mov    0x28(%ebx),%ecx
    4346:	51                   	push   %ecx
    4347:	50                   	push   %eax
    4348:	8b 43 08             	mov    0x8(%ebx),%eax
    434b:	50                   	push   %eax
    434c:	e8 0f 12 01 00       	call   15560 <read>
    4351:	83 c4 10             	add    $0x10,%esp
    4354:	85 c0                	test   %eax,%eax
    4356:	0f 88 47 02 00 00    	js     45a3 <fgets+0x3f3>
    435c:	74 6e                	je     43cc <fgets+0x21c>
    435e:	8b 53 30             	mov    0x30(%ebx),%edx
    4361:	8b 4b 0c             	mov    0xc(%ebx),%ecx
    4364:	01 d0                	add    %edx,%eax
    4366:	c7 43 2c 02 00 00 00 	movl   $0x2,0x2c(%ebx)
    436d:	89 c2                	mov    %eax,%edx
    436f:	89 43 30             	mov    %eax,0x30(%ebx)
    4372:	85 c9                	test   %ecx,%ecx
    4374:	74 aa                	je     4320 <fgets+0x170>
    4376:	eb 5b                	jmp    43d3 <fgets+0x223>
    4378:	8a 08                	mov    (%eax),%cl
    437a:	40                   	inc    %eax
    437b:	88 0f                	mov    %cl,(%edi)
    437d:	89 43 34             	mov    %eax,0x34(%ebx)
    4380:	0f be 45 e3          	movsbl -0x1d(%ebp),%eax
    4384:	83 f8 ff             	cmp    $0xffffffff,%eax
    4387:	74 1a                	je     43a3 <fgets+0x1f3>
    4389:	8b 75 d4             	mov    -0x2c(%ebp),%esi
    438c:	8b 4d 08             	mov    0x8(%ebp),%ecx
    438f:	46                   	inc    %esi
    4390:	83 f8 0a             	cmp    $0xa,%eax
    4393:	89 75 d4             	mov    %esi,-0x2c(%ebp)
    4396:	8b 75 d4             	mov    -0x2c(%ebp),%esi
    4399:	88 44 31 ff          	mov    %al,-0x1(%ecx,%esi,1)
    439d:	0f 85 2d fe ff ff    	jne    41d0 <fgets+0x20>
    43a3:	89 df                	mov    %ebx,%edi
    43a5:	8b 4f 0c             	mov    0xc(%edi),%ecx
    43a8:	85 c9                	test   %ecx,%ecx
    43aa:	0f 85 98 04 00 00    	jne    4848 <fgets+0x698>
    43b0:	8b 45 d4             	mov    -0x2c(%ebp),%eax
    43b3:	85 c0                	test   %eax,%eax
    43b5:	0f 84 8d 04 00 00    	je     4848 <fgets+0x698>
    43bb:	8b 75 08             	mov    0x8(%ebp),%esi
    43be:	c6 04 06 00          	movb   $0x0,(%esi,%eax,1)
    43c2:	8d 65 f4             	lea    -0xc(%ebp),%esp
    43c5:	89 f0                	mov    %esi,%eax
    43c7:	5b                   	pop    %ebx
    43c8:	5e                   	pop    %esi
    43c9:	5f                   	pop    %edi
    43ca:	5d                   	pop    %ebp
    43cb:	c3                   	ret    
    43cc:	c7 43 10 01 00 00 00 	movl   $0x1,0x10(%ebx)
    43d3:	85 f6                	test   %esi,%esi
    43d5:	74 cc                	je     43a3 <fgets+0x1f3>
    43d7:	eb a7                	jmp    4380 <fgets+0x1d0>
    43d9:	8d b4 26 00 00 00 00 	lea    0x0(%esi,%eiz,1),%esi
    43e0:	e8 1b 19 00 00       	call   5d00 <kio_update>
    43e5:	8b 43 3c             	mov    0x3c(%ebx),%eax
    43e8:	85 c0                	test   %eax,%eax
    43ea:	0f 8f cb fe ff ff    	jg     42bb <fgets+0x10b>
    43f0:	8b 53 20             	mov    0x20(%ebx),%edx
    43f3:	85 d2                	test   %edx,%edx
    43f5:	0f 85 c6 04 00 00    	jne    48c1 <fgets+0x711>
    43fb:	bf 01 00 00 00       	mov    $0x1,%edi
    4400:	31 f6                	xor    %esi,%esi
    4402:	8d b6 00 00 00 00    	lea    0x0(%esi),%esi
    4408:	8b 43 0c             	mov    0xc(%ebx),%eax
    440b:	85 c0                	test   %eax,%eax
    440d:	75 c4                	jne    43d3 <fgets+0x223>
    440f:	8b 43 10             	mov    0x10(%ebx),%eax
    4412:	85 c0                	test   %eax,%eax
    4414:	75 bd                	jne    43d3 <fgets+0x223>
    4416:	50                   	push   %eax
    4417:	8d 45 e3             	lea    -0x1d(%ebp),%eax
    441a:	57                   	push   %edi
    441b:	01 f0                	add    %esi,%eax
    441d:	50                   	push   %eax
    441e:	8b 43 08             	mov    0x8(%ebx),%eax
    4421:	50                   	push   %eax
    4422:	e8 39 11 01 00       	call   15560 <read>
    4427:	83 c4 10             	add    $0x10,%esp
    442a:	85 c0                	test   %eax,%eax
    442c:	0f 88 8c 01 00 00    	js     45be <fgets+0x40e>
    4432:	0f 85 77 01 00 00    	jne    45af <fgets+0x3ff>
    4438:	8b 43 0c             	mov    0xc(%ebx),%eax
    443b:	c7 43 10 01 00 00 00 	movl   $0x1,0x10(%ebx)
    4442:	85 c0                	test   %eax,%eax
    4444:	74 c9                	je     440f <fgets+0x25f>
    4446:	eb 8b                	jmp    43d3 <fgets+0x223>
    4448:	e8 b3 18 00 00       	call   5d00 <kio_update>
    444d:	e9 f6 fd ff ff       	jmp    4248 <fgets+0x98>
    4452:	8b 57 2c             	mov    0x2c(%edi),%edx
    4455:	83 fa 02             	cmp    $0x2,%edx
    4458:	0f 84 2d 02 00 00    	je     468b <fgets+0x4db>
    445e:	4a                   	dec    %edx
    445f:	0f 84 55 02 00 00    	je     46ba <fgets+0x50a>
    4465:	8b 57 24             	mov    0x24(%edi),%edx
    4468:	c7 47 2c 00 00 00 00 	movl   $0x0,0x2c(%edi)
    446f:	89 57 30             	mov    %edx,0x30(%edi)
    4472:	89 57 34             	mov    %edx,0x34(%edi)
    4475:	85 c0                	test   %eax,%eax
    4477:	0f 84 9b fd ff ff    	je     4218 <fgets+0x68>
    447d:	e9 c6 fd ff ff       	jmp    4248 <fgets+0x98>
    4482:	8b 57 2c             	mov    0x2c(%edi),%edx
    4485:	83 fa 02             	cmp    $0x2,%edx
    4488:	0f 84 e4 02 00 00    	je     4772 <fgets+0x5c2>
    448e:	4a                   	dec    %edx
    448f:	0f 84 35 01 00 00    	je     45ca <fgets+0x41a>
    4495:	8b 57 24             	mov    0x24(%edi),%edx
    4498:	c7 47 2c 00 00 00 00 	movl   $0x0,0x2c(%edi)
    449f:	89 57 30             	mov    %edx,0x30(%edi)
    44a2:	89 57 34             	mov    %edx,0x34(%edi)
    44a5:	85 c0                	test   %eax,%eax
    44a7:	0f 84 d7 fd ff ff    	je     4284 <fgets+0xd4>
    44ad:	e9 fe fd ff ff       	jmp    42b0 <fgets+0x100>
    44b2:	85 c0                	test   %eax,%eax
    44b4:	0f 84 be 00 00 00    	je     4578 <fgets+0x3c8>
    44ba:	8b 43 0c             	mov    0xc(%ebx),%eax
    44bd:	85 c0                	test   %eax,%eax
    44bf:	0f 85 0e ff ff ff    	jne    43d3 <fgets+0x223>
    44c5:	8b 4b 34             	mov    0x34(%ebx),%ecx
    44c8:	8b 43 30             	mov    0x30(%ebx),%eax
    44cb:	29 c8                	sub    %ecx,%eax
    44cd:	89 4d c0             	mov    %ecx,-0x40(%ebp)
    44d0:	89 45 c4             	mov    %eax,-0x3c(%ebp)
    44d3:	0f 84 84 00 00 00    	je     455d <fgets+0x3ad>
    44d9:	89 75 c8             	mov    %esi,-0x38(%ebp)
    44dc:	c7 45 d0 00 00 00 00 	movl   $0x0,-0x30(%ebp)
    44e3:	89 d6                	mov    %edx,%esi
    44e5:	8b 4b 14             	mov    0x14(%ebx),%ecx
    44e8:	85 c9                	test   %ecx,%ecx
    44ea:	0f 84 d1 02 00 00    	je     47c1 <fgets+0x611>
    44f0:	50                   	push   %eax
    44f1:	8d 45 e4             	lea    -0x1c(%ebp),%eax
    44f4:	50                   	push   %eax
    44f5:	8b 45 c4             	mov    -0x3c(%ebp),%eax
    44f8:	50                   	push   %eax
    44f9:	8b 55 d0             	mov    -0x30(%ebp),%edx
    44fc:	8b 45 c0             	mov    -0x40(%ebp),%eax
    44ff:	c7 45 e4 00 00 00 00 	movl   $0x0,-0x1c(%ebp)
    4506:	01 d0                	add    %edx,%eax
    4508:	50                   	push   %eax
    4509:	e8 c2 17 00 00       	call   5cd0 <kio_write>
    450e:	83 c4 10             	add    $0x10,%esp
    4511:	85 c0                	test   %eax,%eax
    4513:	0f 84 0c 03 00 00    	je     4825 <fgets+0x675>
    4519:	89 f2                	mov    %esi,%edx
    451b:	89 45 c0             	mov    %eax,-0x40(%ebp)
    451e:	88 55 c4             	mov    %dl,-0x3c(%ebp)
    4521:	e8 7a 4a 01 00       	call   18fa0 <__errno>
    4526:	8b 4d c0             	mov    -0x40(%ebp),%ecx
    4529:	8b 75 c8             	mov    -0x38(%ebp),%esi
    452c:	89 08                	mov    %ecx,(%eax)
    452e:	8a 55 c4             	mov    -0x3c(%ebp),%dl
    4531:	c7 43 0c 01 00 00 00 	movl   $0x1,0xc(%ebx)
    4538:	b9 01 00 00 00       	mov    $0x1,%ecx
    453d:	8b 45 d0             	mov    -0x30(%ebp),%eax
    4540:	85 c0                	test   %eax,%eax
    4542:	0f 84 57 03 00 00    	je     489f <fgets+0x6ef>
    4548:	c7 43 1c 01 00 00 00 	movl   $0x1,0x1c(%ebx)
    454f:	85 c9                	test   %ecx,%ecx
    4551:	0f 85 48 03 00 00    	jne    489f <fgets+0x6ef>
    4557:	8b 43 24             	mov    0x24(%ebx),%eax
    455a:	89 45 d0             	mov    %eax,-0x30(%ebp)
    455d:	8b 45 d0             	mov    -0x30(%ebp),%eax
    4560:	c7 43 2c 00 00 00 00 	movl   $0x0,0x2c(%ebx)
    4567:	89 43 30             	mov    %eax,0x30(%ebx)
    456a:	89 43 34             	mov    %eax,0x34(%ebx)
    456d:	8b 45 d0             	mov    -0x30(%ebp),%eax
    4570:	85 c0                	test   %eax,%eax
    4572:	0f 85 7e fd ff ff    	jne    42f6 <fgets+0x146>
    4578:	83 ec 0c             	sub    $0xc,%esp
    457b:	8b 43 28             	mov    0x28(%ebx),%eax
    457e:	88 55 d0             	mov    %dl,-0x30(%ebp)
    4581:	50                   	push   %eax
    4582:	e8 89 64 00 00       	call   aa10 <malloc>
    4587:	83 c4 10             	add    $0x10,%esp
    458a:	89 43 24             	mov    %eax,0x24(%ebx)
    458d:	85 c0                	test   %eax,%eax
    458f:	8a 55 d0             	mov    -0x30(%ebp),%dl
    4592:	0f 84 17 03 00 00    	je     48af <fgets+0x6ff>
    4598:	89 43 30             	mov    %eax,0x30(%ebx)
    459b:	89 43 34             	mov    %eax,0x34(%ebx)
    459e:	e9 53 fd ff ff       	jmp    42f6 <fgets+0x146>
    45a3:	c7 43 0c 01 00 00 00 	movl   $0x1,0xc(%ebx)
    45aa:	e9 24 fe ff ff       	jmp    43d3 <fgets+0x223>
    45af:	01 c6                	add    %eax,%esi
    45b1:	29 c7                	sub    %eax,%edi
    45b3:	0f 85 4f fe ff ff    	jne    4408 <fgets+0x258>
    45b9:	e9 15 fe ff ff       	jmp    43d3 <fgets+0x223>
    45be:	c7 43 0c 01 00 00 00 	movl   $0x1,0xc(%ebx)
    45c5:	e9 3e fe ff ff       	jmp    4408 <fgets+0x258>
    45ca:	8b 57 34             	mov    0x34(%edi),%edx
    45cd:	c7 45 d0 00 00 00 00 	movl   $0x0,-0x30(%ebp)
    45d4:	89 55 c8             	mov    %edx,-0x38(%ebp)
    45d7:	eb 43                	jmp    461c <fgets+0x46c>
    45d9:	50                   	push   %eax
    45da:	8d 45 e4             	lea    -0x1c(%ebp),%eax
    45dd:	50                   	push   %eax
    45de:	8b 55 d0             	mov    -0x30(%ebp),%edx
    45e1:	8b 45 c8             	mov    -0x38(%ebp),%eax
    45e4:	56                   	push   %esi
    45e5:	01 d0                	add    %edx,%eax
    45e7:	c7 45 e4 00 00 00 00 	movl   $0x0,-0x1c(%ebp)
    45ee:	50                   	push   %eax
    45ef:	e8 dc 16 00 00       	call   5cd0 <kio_write>
    45f4:	83 c4 10             	add    $0x10,%esp
    45f7:	89 45 c4             	mov    %eax,-0x3c(%ebp)
    45fa:	85 c0                	test   %eax,%eax
    45fc:	0f 84 84 00 00 00    	je     4686 <fgets+0x4d6>
    4602:	e8 99 49 01 00       	call   18fa0 <__errno>
    4607:	8b 55 c4             	mov    -0x3c(%ebp),%edx
    460a:	89 10                	mov    %edx,(%eax)
    460c:	c7 47 0c 01 00 00 00 	movl   $0x1,0xc(%edi)
    4613:	b8 01 00 00 00       	mov    $0x1,%eax
    4618:	85 f6                	test   %esi,%esi
    461a:	74 3f                	je     465b <fgets+0x4ab>
    461c:	85 c0                	test   %eax,%eax
    461e:	0f 85 2e 02 00 00    	jne    4852 <fgets+0x6a2>
    4624:	8b 4f 14             	mov    0x14(%edi),%ecx
    4627:	85 c9                	test   %ecx,%ecx
    4629:	75 ae                	jne    45d9 <fgets+0x429>
    462b:	8b 55 d0             	mov    -0x30(%ebp),%edx
    462e:	50                   	push   %eax
    462f:	8b 45 c8             	mov    -0x38(%ebp),%eax
    4632:	56                   	push   %esi
    4633:	01 d0                	add    %edx,%eax
    4635:	8b 4f 08             	mov    0x8(%edi),%ecx
    4638:	50                   	push   %eax
    4639:	51                   	push   %ecx
    463a:	e8 81 10 01 00       	call   156c0 <write>
    463f:	83 c4 10             	add    $0x10,%esp
    4642:	85 c0                	test   %eax,%eax
    4644:	0f 88 be 01 00 00    	js     4808 <fgets+0x658>
    464a:	8b 4d d0             	mov    -0x30(%ebp),%ecx
    464d:	29 c6                	sub    %eax,%esi
    464f:	01 c1                	add    %eax,%ecx
    4651:	8b 47 0c             	mov    0xc(%edi),%eax
    4654:	89 4d d0             	mov    %ecx,-0x30(%ebp)
    4657:	85 f6                	test   %esi,%esi
    4659:	75 c1                	jne    461c <fgets+0x46c>
    465b:	8b 55 d0             	mov    -0x30(%ebp),%edx
    465e:	85 d2                	test   %edx,%edx
    4660:	74 07                	je     4669 <fgets+0x4b9>
    4662:	c7 47 1c 01 00 00 00 	movl   $0x1,0x1c(%edi)
    4669:	85 c0                	test   %eax,%eax
    466b:	0f 85 3f fc ff ff    	jne    42b0 <fgets+0x100>
    4671:	8b 47 24             	mov    0x24(%edi),%eax
    4674:	c7 47 2c 00 00 00 00 	movl   $0x0,0x2c(%edi)
    467b:	89 47 30             	mov    %eax,0x30(%edi)
    467e:	89 47 34             	mov    %eax,0x34(%edi)
    4681:	e9 fe fb ff ff       	jmp    4284 <fgets+0xd4>
    4686:	8b 45 e4             	mov    -0x1c(%ebp),%eax
    4689:	eb bf                	jmp    464a <fgets+0x49a>
    468b:	89 f0                	mov    %esi,%eax
    468d:	6a 01                	push   $0x1
    468f:	f7 d8                	neg    %eax
    4691:	89 c2                	mov    %eax,%edx
    4693:	c1 fa 1f             	sar    $0x1f,%edx
    4696:	52                   	push   %edx
    4697:	50                   	push   %eax
    4698:	8b 47 08             	mov    0x8(%edi),%eax
    469b:	50                   	push   %eax
    469c:	e8 2f 12 01 00       	call   158d0 <lseek>
    46a1:	21 d0                	and    %edx,%eax
    46a3:	83 c4 10             	add    $0x10,%esp
    46a6:	40                   	inc    %eax
    46a7:	0f 84 d1 01 00 00    	je     487e <fgets+0x6ce>
    46ad:	8b 57 2c             	mov    0x2c(%edi),%edx
    46b0:	8b 47 0c             	mov    0xc(%edi),%eax
    46b3:	4a                   	dec    %edx
    46b4:	0f 85 ab fd ff ff    	jne    4465 <fgets+0x2b5>
    46ba:	8b 57 34             	mov    0x34(%edi),%edx
    46bd:	c7 45 d0 00 00 00 00 	movl   $0x0,-0x30(%ebp)
    46c4:	89 55 c8             	mov    %edx,-0x38(%ebp)
    46c7:	eb 43                	jmp    470c <fgets+0x55c>
    46c9:	50                   	push   %eax
    46ca:	8d 45 e4             	lea    -0x1c(%ebp),%eax
    46cd:	50                   	push   %eax
    46ce:	8b 55 d0             	mov    -0x30(%ebp),%edx
    46d1:	8b 45 c8             	mov    -0x38(%ebp),%eax
    46d4:	56                   	push   %esi
    46d5:	01 d0                	add    %edx,%eax
    46d7:	c7 45 e4 00 00 00 00 	movl   $0x0,-0x1c(%ebp)
    46de:	50                   	push   %eax
    46df:	e8 ec 15 00 00       	call   5cd0 <kio_write>
    46e4:	83 c4 10             	add    $0x10,%esp
    46e7:	89 45 c4             	mov    %eax,-0x3c(%ebp)
    46ea:	85 c0                	test   %eax,%eax
    46ec:	0f 84 ad 00 00 00    	je     479f <fgets+0x5ef>
    46f2:	e8 a9 48 01 00       	call   18fa0 <__errno>
    46f7:	8b 55 c4             	mov    -0x3c(%ebp),%edx
    46fa:	89 10                	mov    %edx,(%eax)
    46fc:	c7 47 0c 01 00 00 00 	movl   $0x1,0xc(%edi)
    4703:	b8 01 00 00 00       	mov    $0x1,%eax
    4708:	85 f6                	test   %esi,%esi
    470a:	74 3b                	je     4747 <fgets+0x597>
    470c:	85 c0                	test   %eax,%eax
    470e:	0f 85 4e 01 00 00    	jne    4862 <fgets+0x6b2>
    4714:	8b 4f 14             	mov    0x14(%edi),%ecx
    4717:	85 c9                	test   %ecx,%ecx
    4719:	75 ae                	jne    46c9 <fgets+0x519>
    471b:	8b 55 d0             	mov    -0x30(%ebp),%edx
    471e:	50                   	push   %eax
    471f:	8b 45 c8             	mov    -0x38(%ebp),%eax
    4722:	56                   	push   %esi
    4723:	01 d0                	add    %edx,%eax
    4725:	8b 4f 08             	mov    0x8(%edi),%ecx
    4728:	50                   	push   %eax
    4729:	51                   	push   %ecx
    472a:	e8 91 0f 01 00       	call   156c0 <write>
    472f:	83 c4 10             	add    $0x10,%esp
    4732:	85 c0                	test   %eax,%eax
    4734:	78 6e                	js     47a4 <fgets+0x5f4>
    4736:	8b 55 d0             	mov    -0x30(%ebp),%edx
    4739:	29 c6                	sub    %eax,%esi
    473b:	01 c2                	add    %eax,%edx
    473d:	8b 47 0c             	mov    0xc(%edi),%eax
    4740:	89 55 d0             	mov    %edx,-0x30(%ebp)
    4743:	85 f6                	test   %esi,%esi
    4745:	75 c5                	jne    470c <fgets+0x55c>
    4747:	8b 75 d0             	mov    -0x30(%ebp),%esi
    474a:	85 f6                	test   %esi,%esi
    474c:	74 07                	je     4755 <fgets+0x5a5>
    474e:	c7 47 1c 01 00 00 00 	movl   $0x1,0x1c(%edi)
    4755:	85 c0                	test   %eax,%eax
    4757:	0f 85 eb fa ff ff    	jne    4248 <fgets+0x98>
    475d:	8b 47 24             	mov    0x24(%edi),%eax
    4760:	c7 47 2c 00 00 00 00 	movl   $0x0,0x2c(%edi)
    4767:	89 47 30             	mov    %eax,0x30(%edi)
    476a:	89 47 34             	mov    %eax,0x34(%edi)
    476d:	e9 a6 fa ff ff       	jmp    4218 <fgets+0x68>
    4772:	89 f0                	mov    %esi,%eax
    4774:	6a 01                	push   $0x1
    4776:	f7 d8                	neg    %eax
    4778:	89 c2                	mov    %eax,%edx
    477a:	c1 fa 1f             	sar    $0x1f,%edx
    477d:	52                   	push   %edx
    477e:	50                   	push   %eax
    477f:	8b 47 08             	mov    0x8(%edi),%eax
    4782:	50                   	push   %eax
    4783:	e8 48 11 01 00       	call   158d0 <lseek>
    4788:	21 d0                	and    %edx,%eax
    478a:	83 c4 10             	add    $0x10,%esp
    478d:	40                   	inc    %eax
    478e:	0f 84 de 00 00 00    	je     4872 <fgets+0x6c2>
    4794:	8b 57 2c             	mov    0x2c(%edi),%edx
    4797:	8b 47 0c             	mov    0xc(%edi),%eax
    479a:	e9 ef fc ff ff       	jmp    448e <fgets+0x2de>
    479f:	8b 45 e4             	mov    -0x1c(%ebp),%eax
    47a2:	eb 92                	jmp    4736 <fgets+0x586>
    47a4:	c7 45 e4 00 00 00 00 	movl   $0x0,-0x1c(%ebp)
    47ab:	e8 f0 47 01 00       	call   18fa0 <__errno>
    47b0:	8b 08                	mov    (%eax),%ecx
    47b2:	85 c9                	test   %ecx,%ecx
    47b4:	0f 85 42 ff ff ff    	jne    46fc <fgets+0x54c>
    47ba:	31 c0                	xor    %eax,%eax
    47bc:	e9 75 ff ff ff       	jmp    4736 <fgets+0x586>
    47c1:	50                   	push   %eax
    47c2:	8b 45 c4             	mov    -0x3c(%ebp),%eax
    47c5:	50                   	push   %eax
    47c6:	8b 55 d0             	mov    -0x30(%ebp),%edx
    47c9:	8b 45 c0             	mov    -0x40(%ebp),%eax
    47cc:	8b 4b 08             	mov    0x8(%ebx),%ecx
    47cf:	01 d0                	add    %edx,%eax
    47d1:	50                   	push   %eax
    47d2:	51                   	push   %ecx
    47d3:	e8 e8 0e 01 00       	call   156c0 <write>
    47d8:	83 c4 10             	add    $0x10,%esp
    47db:	85 c0                	test   %eax,%eax
    47dd:	78 4b                	js     482a <fgets+0x67a>
    47df:	8b 55 d0             	mov    -0x30(%ebp),%edx
    47e2:	8b 4b 0c             	mov    0xc(%ebx),%ecx
    47e5:	01 c2                	add    %eax,%edx
    47e7:	29 45 c4             	sub    %eax,-0x3c(%ebp)
    47ea:	89 55 d0             	mov    %edx,-0x30(%ebp)
    47ed:	0f 84 97 00 00 00    	je     488a <fgets+0x6da>
    47f3:	85 c9                	test   %ecx,%ecx
    47f5:	0f 84 ea fc ff ff    	je     44e5 <fgets+0x335>
    47fb:	89 f2                	mov    %esi,%edx
    47fd:	8b 75 c8             	mov    -0x38(%ebp),%esi
    4800:	e9 38 fd ff ff       	jmp    453d <fgets+0x38d>
    4805:	8d 76 00             	lea    0x0(%esi),%esi
    4808:	c7 45 e4 00 00 00 00 	movl   $0x0,-0x1c(%ebp)
    480f:	e8 8c 47 01 00       	call   18fa0 <__errno>
    4814:	8b 00                	mov    (%eax),%eax
    4816:	85 c0                	test   %eax,%eax
    4818:	0f 85 ee fd ff ff    	jne    460c <fgets+0x45c>
    481e:	31 c0                	xor    %eax,%eax
    4820:	e9 25 fe ff ff       	jmp    464a <fgets+0x49a>
    4825:	8b 45 e4             	mov    -0x1c(%ebp),%eax
    4828:	eb b5                	jmp    47df <fgets+0x62f>
    482a:	c7 45 e4 00 00 00 00 	movl   $0x0,-0x1c(%ebp)
    4831:	e8 6a 47 01 00       	call   18fa0 <__errno>
    4836:	8b 08                	mov    (%eax),%ecx
    4838:	85 c9                	test   %ecx,%ecx
    483a:	0f 85 8d 00 00 00    	jne    48cd <fgets+0x71d>
    4840:	31 c0                	xor    %eax,%eax
    4842:	eb 9b                	jmp    47df <fgets+0x62f>
    4844:	8d 74 26 00          	lea    0x0(%esi,%eiz,1),%esi
    4848:	8d 65 f4             	lea    -0xc(%ebp),%esp
    484b:	31 c0                	xor    %eax,%eax
    484d:	5b                   	pop    %ebx
    484e:	5e                   	pop    %esi
    484f:	5f                   	pop    %edi
    4850:	5d                   	pop    %ebp
    4851:	c3                   	ret    
    4852:	8b 75 d0             	mov    -0x30(%ebp),%esi
    4855:	85 f6                	test   %esi,%esi
    4857:	0f 84 53 fa ff ff    	je     42b0 <fgets+0x100>
    485d:	e9 00 fe ff ff       	jmp    4662 <fgets+0x4b2>
    4862:	8b 4d d0             	mov    -0x30(%ebp),%ecx
    4865:	85 c9                	test   %ecx,%ecx
    4867:	0f 84 db f9 ff ff    	je     4248 <fgets+0x98>
    486d:	e9 dc fe ff ff       	jmp    474e <fgets+0x59e>
    4872:	c7 47 0c 01 00 00 00 	movl   $0x1,0xc(%edi)
    4879:	e9 32 fa ff ff       	jmp    42b0 <fgets+0x100>
    487e:	c7 47 0c 01 00 00 00 	movl   $0x1,0xc(%edi)
    4885:	e9 be f9 ff ff       	jmp    4248 <fgets+0x98>
    488a:	8b 45 d0             	mov    -0x30(%ebp),%eax
    488d:	89 f2                	mov    %esi,%edx
    488f:	85 c0                	test   %eax,%eax
    4891:	8b 75 c8             	mov    -0x38(%ebp),%esi
    4894:	0f 84 b5 fc ff ff    	je     454f <fgets+0x39f>
    489a:	e9 a9 fc ff ff       	jmp    4548 <fgets+0x398>
    489f:	8b 43 24             	mov    0x24(%ebx),%eax
    48a2:	85 c0                	test   %eax,%eax
    48a4:	0f 85 29 fb ff ff    	jne    43d3 <fgets+0x223>
    48aa:	e9 c9 fc ff ff       	jmp    4578 <fgets+0x3c8>
    48af:	e8 ec 46 01 00       	call   18fa0 <__errno>
    48b4:	89 df                	mov    %ebx,%edi
    48b6:	c7 00 fe ff ff ff    	movl   $0xfffffffe,(%eax)
    48bc:	e9 e4 fa ff ff       	jmp    43a5 <fgets+0x1f5>
    48c1:	b2 01                	mov    $0x1,%dl
    48c3:	31 f6                	xor    %esi,%esi
    48c5:	8d 7d e3             	lea    -0x1d(%ebp),%edi
    48c8:	e9 0e fa ff ff       	jmp    42db <fgets+0x12b>
    48cd:	89 f2                	mov    %esi,%edx
    48cf:	8b 75 c8             	mov    -0x38(%ebp),%esi
    48d2:	e9 5a fc ff ff       	jmp    4531 <fgets+0x381>
    48d7:	89 f6                	mov    %esi,%esi
    48d9:	8d bc 27 00 00 00 00 	lea    0x0(%edi,%eiz,1),%edi

000048e0 <ungetc>:
    48e0:	55                   	push   %ebp
    48e1:	89 e5                	mov    %esp,%ebp
    48e3:	53                   	push   %ebx
    48e4:	8b 45 08             	mov    0x8(%ebp),%eax
    48e7:	8b 55 0c             	mov    0xc(%ebp),%edx
    48ea:	83 f8 ff             	cmp    $0xffffffff,%eax
    48ed:	74 21                	je     4910 <ungetc+0x30>
    48ef:	8b 4a 3c             	mov    0x3c(%edx),%ecx
    48f2:	85 c9                	test   %ecx,%ecx
    48f4:	7f 1a                	jg     4910 <ungetc+0x30>
    48f6:	8d 59 01             	lea    0x1(%ecx),%ebx
    48f9:	89 5a 3c             	mov    %ebx,0x3c(%edx)
    48fc:	88 44 0a 38          	mov    %al,0x38(%edx,%ecx,1)
    4900:	c7 42 10 00 00 00 00 	movl   $0x0,0x10(%edx)
    4907:	25 ff 00 00 00       	and    $0xff,%eax
    490c:	5b                   	pop    %ebx
    490d:	5d                   	pop    %ebp
    490e:	c3                   	ret    
    490f:	90                   	nop
    4910:	83 c8 ff             	or     $0xffffffff,%eax
    4913:	5b                   	pop    %ebx
    4914:	5d                   	pop    %ebp
    4915:	c3                   	ret    
    4916:	8d 76 00             	lea    0x0(%esi),%esi
    4919:	8d bc 27 00 00 00 00 	lea    0x0(%edi,%eiz,1),%edi

00004920 <fseek>:
    4920:	55                   	push   %ebp
    4921:	89 e5                	mov    %esp,%ebp
    4923:	57                   	push   %edi
    4924:	56                   	push   %esi
    4925:	53                   	push   %ebx
    4926:	83 ec 3c             	sub    $0x3c,%esp
    4929:	8b 5d 08             	mov    0x8(%ebp),%ebx
    492c:	8b 75 0c             	mov    0xc(%ebp),%esi
    492f:	8b 7d 10             	mov    0x10(%ebp),%edi
    4932:	8b 4b 0c             	mov    0xc(%ebx),%ecx
    4935:	85 c9                	test   %ecx,%ecx
    4937:	75 42                	jne    497b <fseek+0x5b>
    4939:	8b 43 24             	mov    0x24(%ebx),%eax
    493c:	85 c0                	test   %eax,%eax
    493e:	74 78                	je     49b8 <fseek+0x98>
    4940:	8b 53 20             	mov    0x20(%ebx),%edx
    4943:	85 d2                	test   %edx,%edx
    4945:	74 71                	je     49b8 <fseek+0x98>
    4947:	8b 53 30             	mov    0x30(%ebx),%edx
    494a:	2b 53 34             	sub    0x34(%ebx),%edx
    494d:	89 55 d0             	mov    %edx,-0x30(%ebp)
    4950:	74 56                	je     49a8 <fseek+0x88>
    4952:	8b 43 2c             	mov    0x2c(%ebx),%eax
    4955:	31 d2                	xor    %edx,%edx
    4957:	83 f8 02             	cmp    $0x2,%eax
    495a:	0f 84 90 00 00 00    	je     49f0 <fseek+0xd0>
    4960:	48                   	dec    %eax
    4961:	0f 84 c1 00 00 00    	je     4a28 <fseek+0x108>
    4967:	8b 43 24             	mov    0x24(%ebx),%eax
    496a:	c7 43 2c 00 00 00 00 	movl   $0x0,0x2c(%ebx)
