Archive member included to satisfy reference by file (symbol)

../../../../lib/usbhost/libusbhost.a(ddf_helpers.o)
                              main.o (hcd_ddf_add_hc)
../../../../lib/usbhost/libusbhost.a(endpoint.o)
                              ehci_endpoint.o (endpoint_set_hc_data)
../../../../lib/usbhost/libusbhost.a(hcd.o)
                              ../../../../lib/usbhost/libusbhost.a(ddf_helpers.o) (hcd_init)
../../../../lib/usbhost/libusbhost.a(usb_bus.o)
                              ../../../../lib/usbhost/libusbhost.a(ddf_helpers.o) (bandwidth_count_usb11)
../../../../lib/usbhost/libusbhost.a(usb_transfer_batch.o)
                              ../../../../lib/usbhost/libusbhost.a(hcd.o) (usb_transfer_batch_create)
../../../../lib/usbvirt/libusbvirt.a(stdreq.o)
                              ehci_rh.o (req_nop)
../../../../lib/usbvirt/libusbvirt.a(virthub_base.o)
                              ehci_rh.o (virthub_get_data)
../../../../lib/usbvirt/libusbvirt.a(virthub_descriptors.o)
                              ../../../../lib/usbvirt/libusbvirt.a(virthub_base.o) (virthub_interface_descriptor_ex)
../../../../lib/usbvirt/libusbvirt.a(transfer.o)
                              ../../../../lib/usbvirt/libusbvirt.a(virthub_base.o) (usbvirt_control_write)
../../../../lib/usbvirt/libusbvirt.a(ctrltransfer.o)
                              ../../../../lib/usbvirt/libusbvirt.a(transfer.o) (process_control_transfer)
../../../../lib/usb/libusb.a(class.o)
                              ../../../../lib/usbhost/libusbhost.a(ddf_helpers.o) (usb_str_class)
../../../../lib/usb/libusb.a(debug.o)
                              ../../../../lib/usbvirt/libusbvirt.a(transfer.o) (usb_debug_str_buffer)
../../../../lib/usb/libusb.a(usb.o)
                              ../../../../lib/usbhost/libusbhost.a(ddf_helpers.o) (usb_str_transfer_type)
../../../../lib/drv/libdrv.a(driver.o)
                              ../../../../lib/usbhost/libusbhost.a(ddf_helpers.o) (ddf_dev_data_alloc)
../../../../lib/drv/libdrv.a(dev_iface.o)
                              ../../../../lib/drv/libdrv.a(driver.o) (get_remote_iface)
../../../../lib/drv/libdrv.a(interrupt.o)
                              ../../../../lib/usbhost/libusbhost.a(ddf_helpers.o) (register_interrupt_handler)
../../../../lib/drv/libdrv.a(logbuf.o)
                              ../../../../lib/usb/libusb.a(debug.o) (ddf_dump_buffer)
../../../../lib/drv/libdrv.a(remote_audio_mixer.o)
                              ../../../../lib/drv/libdrv.a(dev_iface.o) (remote_audio_mixer_iface)
../../../../lib/drv/libdrv.a(remote_audio_pcm.o)
                              ../../../../lib/drv/libdrv.a(dev_iface.o) (remote_audio_pcm_iface)
../../../../lib/drv/libdrv.a(remote_hw_res.o)
                              ../../../../lib/drv/libdrv.a(dev_iface.o) (remote_hw_res_iface)
../../../../lib/drv/libdrv.a(remote_pio_window.o)
                              ../../../../lib/drv/libdrv.a(dev_iface.o) (remote_pio_window_iface)
../../../../lib/drv/libdrv.a(remote_char_dev.o)
                              ../../../../lib/drv/libdrv.a(dev_iface.o) (remote_char_dev_iface)
../../../../lib/drv/libdrv.a(remote_nic.o)
                              ../../../../lib/drv/libdrv.a(dev_iface.o) (remote_nic_iface)
../../../../lib/drv/libdrv.a(remote_ieee80211.o)
                              ../../../../lib/drv/libdrv.a(dev_iface.o) (remote_ieee80211_iface)
../../../../lib/drv/libdrv.a(remote_usb.o)
                              ../../../../lib/drv/libdrv.a(dev_iface.o) (remote_usb_iface)
../../../../lib/drv/libdrv.a(remote_pci.o)
                              res.o (pci_config_space_read_32)
../../../../lib/drv/libdrv.a(remote_usbhc.o)
                              ../../../../lib/drv/libdrv.a(dev_iface.o) (remote_usbhc_iface)
../../../../lib/drv/libdrv.a(remote_usbhid.o)
                              ../../../../lib/drv/libdrv.a(dev_iface.o) (remote_usbhid_iface)
../../../../lib/drv/libdrv.a(remote_clock_dev.o)
                              ../../../../lib/drv/libdrv.a(dev_iface.o) (remote_clock_dev_iface)
../../../../lib/drv/libdrv.a(remote_led_dev.o)
                              ../../../../lib/drv/libdrv.a(dev_iface.o) (remote_led_dev_iface)
../../../../lib/drv/libdrv.a(remote_battery_dev.o)
                              ../../../../lib/drv/libdrv.a(dev_iface.o) (remote_battery_dev_iface)
../../../../lib/drv/libdrv.a(remote_ahci.o)
                              ../../../../lib/drv/libdrv.a(dev_iface.o) (remote_ahci_iface)
../../../../lib/drv/libdrv.a(log.o)
                              ../../../../lib/drv/libdrv.a(remote_audio_pcm.o) (ddf_msg)

Allocating common symbols
Common symbol       size              file

assert              0x4               ehci_endpoint.o
static_assert       0x4               ../../../../lib/drv/libdrv.a(remote_usb.o)

Discarded input sections

 .debug_line    0x0000000000000000       0x53 /home/ayyuce/Desktop/HlnOS/HelenOS/uspace/lib/c/arch/ia32/src/entry.o
 .debug_info    0x0000000000000000       0x6c /home/ayyuce/Desktop/HlnOS/HelenOS/uspace/lib/c/arch/ia32/src/entry.o
 .debug_abbrev  0x0000000000000000       0x14 /home/ayyuce/Desktop/HlnOS/HelenOS/uspace/lib/c/arch/ia32/src/entry.o
 .debug_aranges
                0x0000000000000000       0x20 /home/ayyuce/Desktop/HlnOS/HelenOS/uspace/lib/c/arch/ia32/src/entry.o
 .debug_info    0x0000000000000000     0x174e ehci_batch.o
 .debug_abbrev  0x0000000000000000      0x348 ehci_batch.o
 .debug_loc     0x0000000000000000      0x875 ehci_batch.o
 .debug_aranges
                0x0000000000000000       0x20 ehci_batch.o
 .debug_ranges  0x0000000000000000      0x258 ehci_batch.o
 .debug_line    0x0000000000000000      0x7a8 ehci_batch.o
 .debug_str     0x0000000000000000      0xfa8 ehci_batch.o
 .comment       0x0000000000000000       0x12 ehci_batch.o
 .note.GNU-stack
                0x0000000000000000        0x0 ehci_batch.o
 .eh_frame      0x0000000000000000      0x14c ehci_batch.o
 .debug_info    0x0000000000000000     0x1aee ehci_endpoint.o
 .debug_abbrev  0x0000000000000000      0x2f8 ehci_endpoint.o
 .debug_loc     0x0000000000000000      0x2ba ehci_endpoint.o
 .debug_aranges
                0x0000000000000000       0x20 ehci_endpoint.o
 .debug_ranges  0x0000000000000000       0x68 ehci_endpoint.o
 .debug_line    0x0000000000000000      0x58c ehci_endpoint.o
 .debug_str     0x0000000000000000     0x159b ehci_endpoint.o
 .comment       0x0000000000000000       0x12 ehci_endpoint.o
 .note.GNU-stack
                0x0000000000000000        0x0 ehci_endpoint.o
 .eh_frame      0x0000000000000000       0xd8 ehci_endpoint.o
 .debug_info    0x0000000000000000     0x27c2 ehci_rh.o
 .debug_abbrev  0x0000000000000000      0x3b3 ehci_rh.o
 .debug_loc     0x0000000000000000      0xdc1 ehci_rh.o
 .debug_aranges
                0x0000000000000000       0x20 ehci_rh.o
 .debug_ranges  0x0000000000000000      0x240 ehci_rh.o
 .debug_line    0x0000000000000000      0x804 ehci_rh.o
 .debug_str     0x0000000000000000     0x1b71 ehci_rh.o
 .comment       0x0000000000000000       0x12 ehci_rh.o
 .note.GNU-stack
                0x0000000000000000        0x0 ehci_rh.o
 .eh_frame      0x0000000000000000      0x280 ehci_rh.o
 .debug_info    0x0000000000000000      0xec1 endpoint_list.o
 .debug_abbrev  0x0000000000000000      0x26e endpoint_list.o
 .debug_loc     0x0000000000000000      0x3de endpoint_list.o
 .debug_aranges
                0x0000000000000000       0x20 endpoint_list.o
 .debug_ranges  0x0000000000000000      0x158 endpoint_list.o
 .debug_line    0x0000000000000000      0x474 endpoint_list.o
 .debug_str     0x0000000000000000      0xa93 endpoint_list.o
 .comment       0x0000000000000000       0x12 endpoint_list.o
 .note.GNU-stack
                0x0000000000000000        0x0 endpoint_list.o
 .eh_frame      0x0000000000000000       0xe0 endpoint_list.o
 .debug_info    0x0000000000000000     0x2c47 hc.o
 .debug_abbrev  0x0000000000000000      0x46a hc.o
 .debug_loc     0x0000000000000000      0x87f hc.o
 .debug_aranges
                0x0000000000000000       0x28 hc.o
 .debug_ranges  0x0000000000000000      0x168 hc.o
 .debug_line    0x0000000000000000      0x8dc hc.o
 .debug_str     0x0000000000000000     0x1c33 hc.o
 .comment       0x0000000000000000       0x12 hc.o
 .note.GNU-stack
                0x0000000000000000        0x0 hc.o
 .eh_frame      0x0000000000000000      0x234 hc.o
 .debug_info    0x0000000000000000      0x89c hw_struct/queue_head.o
 .debug_abbrev  0x0000000000000000      0x17d hw_struct/queue_head.o
 .debug_loc     0x0000000000000000       0x29 hw_struct/queue_head.o
 .debug_aranges
                0x0000000000000000       0x20 hw_struct/queue_head.o
 .debug_line    0x0000000000000000      0x2b3 hw_struct/queue_head.o
 .debug_str     0x0000000000000000      0xa0a hw_struct/queue_head.o
 .comment       0x0000000000000000       0x12 hw_struct/queue_head.o
 .note.GNU-stack
                0x0000000000000000        0x0 hw_struct/queue_head.o
 .eh_frame      0x0000000000000000       0x58 hw_struct/queue_head.o
 .debug_info    0x0000000000000000      0x605 hw_struct/transfer_descriptor.o
 .debug_abbrev  0x0000000000000000      0x218 hw_struct/transfer_descriptor.o
 .debug_loc     0x0000000000000000      0x17a hw_struct/transfer_descriptor.o
 .debug_aranges
                0x0000000000000000       0x20 hw_struct/transfer_descriptor.o
 .debug_ranges  0x0000000000000000       0x30 hw_struct/transfer_descriptor.o
 .debug_line    0x0000000000000000      0x2c8 hw_struct/transfer_descriptor.o
 .debug_str     0x0000000000000000      0x7f6 hw_struct/transfer_descriptor.o
 .comment       0x0000000000000000       0x12 hw_struct/transfer_descriptor.o
 .note.GNU-stack
                0x0000000000000000        0x0 hw_struct/transfer_descriptor.o
 .eh_frame      0x0000000000000000       0x7c hw_struct/transfer_descriptor.o
 .debug_info    0x0000000000000000     0x1e7b main.o
 .debug_abbrev  0x0000000000000000      0x2bf main.o
 .debug_loc     0x0000000000000000      0x10d main.o
 .debug_aranges
                0x0000000000000000       0x28 main.o
 .debug_ranges  0x0000000000000000       0x30 main.o
 .debug_line    0x0000000000000000      0x570 main.o
 .debug_str     0x0000000000000000     0x18d9 main.o
 .comment       0x0000000000000000       0x12 main.o
 .note.GNU-stack
                0x0000000000000000        0x0 main.o
 .eh_frame      0x0000000000000000       0xd8 main.o
 .debug_info    0x0000000000000000      0x9ed res.o
 .debug_abbrev  0x0000000000000000      0x216 res.o
 .debug_loc     0x0000000000000000      0x41b res.o
 .debug_aranges
                0x0000000000000000       0x20 res.o
 .debug_ranges  0x0000000000000000       0x58 res.o
 .debug_line    0x0000000000000000      0x345 res.o
 .debug_str     0x0000000000000000      0xa3c res.o
 .comment       0x0000000000000000       0x12 res.o
 .note.GNU-stack
                0x0000000000000000        0x0 res.o
 .eh_frame      0x0000000000000000       0x48 res.o
 .debug_info    0x0000000000000000     0x40d0 ../../../../lib/usbhost/libusbhost.a(ddf_helpers.o)
 .debug_abbrev  0x0000000000000000      0x563 ../../../../lib/usbhost/libusbhost.a(ddf_helpers.o)
 .debug_loc     0x0000000000000000     0x1d68 ../../../../lib/usbhost/libusbhost.a(ddf_helpers.o)
 .debug_aranges
                0x0000000000000000       0x20 ../../../../lib/usbhost/libusbhost.a(ddf_helpers.o)
 .debug_ranges  0x0000000000000000      0x5f0 ../../../../lib/usbhost/libusbhost.a(ddf_helpers.o)
 .debug_line    0x0000000000000000      0xc00 ../../../../lib/usbhost/libusbhost.a(ddf_helpers.o)
 .debug_str     0x0000000000000000     0x1da3 ../../../../lib/usbhost/libusbhost.a(ddf_helpers.o)
 .comment       0x0000000000000000       0x12 ../../../../lib/usbhost/libusbhost.a(ddf_helpers.o)
 .note.GNU-stack
                0x0000000000000000        0x0 ../../../../lib/usbhost/libusbhost.a(ddf_helpers.o)
 .eh_frame      0x0000000000000000      0x470 ../../../../lib/usbhost/libusbhost.a(ddf_helpers.o)
 .debug_info    0x0000000000000000      0xd20 ../../../../lib/usbhost/libusbhost.a(endpoint.o)
 .debug_abbrev  0x0000000000000000      0x2b8 ../../../../lib/usbhost/libusbhost.a(endpoint.o)
 .debug_loc     0x0000000000000000      0x35e ../../../../lib/usbhost/libusbhost.a(endpoint.o)
 .debug_aranges
                0x0000000000000000       0x20 ../../../../lib/usbhost/libusbhost.a(endpoint.o)
 .debug_ranges  0x0000000000000000       0x90 ../../../../lib/usbhost/libusbhost.a(endpoint.o)
 .debug_line    0x0000000000000000      0x2ca ../../../../lib/usbhost/libusbhost.a(endpoint.o)
 .debug_str     0x0000000000000000      0xa1c ../../../../lib/usbhost/libusbhost.a(endpoint.o)
 .comment       0x0000000000000000       0x12 ../../../../lib/usbhost/libusbhost.a(endpoint.o)
 .note.GNU-stack
                0x0000000000000000        0x0 ../../../../lib/usbhost/libusbhost.a(endpoint.o)
 .eh_frame      0x0000000000000000      0x1d8 ../../../../lib/usbhost/libusbhost.a(endpoint.o)
 .debug_info    0x0000000000000000     0x15f1 ../../../../lib/usbhost/libusbhost.a(hcd.o)
 .debug_abbrev  0x0000000000000000      0x3c8 ../../../../lib/usbhost/libusbhost.a(hcd.o)
 .debug_loc     0x0000000000000000      0x6b2 ../../../../lib/usbhost/libusbhost.a(hcd.o)
 .debug_aranges
                0x0000000000000000       0x20 ../../../../lib/usbhost/libusbhost.a(hcd.o)
 .debug_ranges  0x0000000000000000       0x80 ../../../../lib/usbhost/libusbhost.a(hcd.o)
 .debug_line    0x0000000000000000      0x3c2 ../../../../lib/usbhost/libusbhost.a(hcd.o)
 .debug_str     0x0000000000000000      0xe79 ../../../../lib/usbhost/libusbhost.a(hcd.o)
 .comment       0x0000000000000000       0x12 ../../../../lib/usbhost/libusbhost.a(hcd.o)
 .note.GNU-stack
                0x0000000000000000        0x0 ../../../../lib/usbhost/libusbhost.a(hcd.o)
 .eh_frame      0x0000000000000000      0x258 ../../../../lib/usbhost/libusbhost.a(hcd.o)
 .debug_info    0x0000000000000000     0x17e0 ../../../../lib/usbhost/libusbhost.a(usb_bus.o)
 .debug_abbrev  0x0000000000000000      0x3d7 ../../../../lib/usbhost/libusbhost.a(usb_bus.o)
 .debug_loc     0x0000000000000000      0xaea ../../../../lib/usbhost/libusbhost.a(usb_bus.o)
 .debug_aranges
                0x0000000000000000       0x28 ../../../../lib/usbhost/libusbhost.a(usb_bus.o)
 .debug_ranges  0x0000000000000000      0x268 ../../../../lib/usbhost/libusbhost.a(usb_bus.o)
 .debug_line    0x0000000000000000      0x5b2 ../../../../lib/usbhost/libusbhost.a(usb_bus.o)
 .debug_str     0x0000000000000000      0xcdc ../../../../lib/usbhost/libusbhost.a(usb_bus.o)
 .comment       0x0000000000000000       0x12 ../../../../lib/usbhost/libusbhost.a(usb_bus.o)
 .note.GNU-stack
                0x0000000000000000        0x0 ../../../../lib/usbhost/libusbhost.a(usb_bus.o)
 .eh_frame      0x0000000000000000      0x2e4 ../../../../lib/usbhost/libusbhost.a(usb_bus.o)
 .debug_info    0x0000000000000000      0xa7f ../../../../lib/usbhost/libusbhost.a(usb_transfer_batch.o)
 .debug_abbrev  0x0000000000000000      0x1c4 ../../../../lib/usbhost/libusbhost.a(usb_transfer_batch.o)
 .debug_loc     0x0000000000000000       0xe7 ../../../../lib/usbhost/libusbhost.a(usb_transfer_batch.o)
 .debug_aranges
                0x0000000000000000       0x20 ../../../../lib/usbhost/libusbhost.a(usb_transfer_batch.o)
 .debug_ranges  0x0000000000000000       0x18 ../../../../lib/usbhost/libusbhost.a(usb_transfer_batch.o)
 .debug_line    0x0000000000000000      0x2a8 ../../../../lib/usbhost/libusbhost.a(usb_transfer_batch.o)
 .debug_str     0x0000000000000000      0xafe ../../../../lib/usbhost/libusbhost.a(usb_transfer_batch.o)
 .comment       0x0000000000000000       0x12 ../../../../lib/usbhost/libusbhost.a(usb_transfer_batch.o)
 .note.GNU-stack
                0x0000000000000000        0x0 ../../../../lib/usbhost/libusbhost.a(usb_transfer_batch.o)
 .eh_frame      0x0000000000000000       0xd4 ../../../../lib/usbhost/libusbhost.a(usb_transfer_batch.o)
 .debug_info    0x0000000000000000      0xe78 ../../../../lib/usbvirt/libusbvirt.a(stdreq.o)
 .debug_abbrev  0x0000000000000000      0x294 ../../../../lib/usbvirt/libusbvirt.a(stdreq.o)
 .debug_loc     0x0000000000000000      0x509 ../../../../lib/usbvirt/libusbvirt.a(stdreq.o)
 .debug_aranges
                0x0000000000000000       0x20 ../../../../lib/usbvirt/libusbvirt.a(stdreq.o)
 .debug_ranges  0x0000000000000000       0x48 ../../../../lib/usbvirt/libusbvirt.a(stdreq.o)
 .debug_line    0x0000000000000000      0x2a9 ../../../../lib/usbvirt/libusbvirt.a(stdreq.o)
 .debug_str     0x0000000000000000     0x10a4 ../../../../lib/usbvirt/libusbvirt.a(stdreq.o)
 .comment       0x0000000000000000       0x12 ../../../../lib/usbvirt/libusbvirt.a(stdreq.o)
 .note.GNU-stack
                0x0000000000000000        0x0 ../../../../lib/usbvirt/libusbvirt.a(stdreq.o)
 .eh_frame      0x0000000000000000      0x150 ../../../../lib/usbvirt/libusbvirt.a(stdreq.o)
 .debug_info    0x0000000000000000      0xe6b ../../../../lib/usbvirt/libusbvirt.a(virthub_base.o)
 .debug_abbrev  0x0000000000000000      0x25f ../../../../lib/usbvirt/libusbvirt.a(virthub_base.o)
 .debug_loc     0x0000000000000000      0x244 ../../../../lib/usbvirt/libusbvirt.a(virthub_base.o)
 .debug_aranges
                0x0000000000000000       0x20 ../../../../lib/usbvirt/libusbvirt.a(virthub_base.o)
 .debug_line    0x0000000000000000      0x2ef ../../../../lib/usbvirt/libusbvirt.a(virthub_base.o)
 .debug_str     0x0000000000000000     0x10c2 ../../../../lib/usbvirt/libusbvirt.a(virthub_base.o)
 .comment       0x0000000000000000       0x12 ../../../../lib/usbvirt/libusbvirt.a(virthub_base.o)
 .note.GNU-stack
                0x0000000000000000        0x0 ../../../../lib/usbvirt/libusbvirt.a(virthub_base.o)
 .eh_frame      0x0000000000000000      0x140 ../../../../lib/usbvirt/libusbvirt.a(virthub_base.o)
 .debug_info    0x0000000000000000      0x767 ../../../../lib/usbvirt/libusbvirt.a(virthub_descriptors.o)
 .debug_abbrev  0x0000000000000000       0xf3 ../../../../lib/usbvirt/libusbvirt.a(virthub_descriptors.o)
 .debug_aranges
                0x0000000000000000       0x18 ../../../../lib/usbvirt/libusbvirt.a(virthub_descriptors.o)
 .debug_line    0x0000000000000000      0x1f8 ../../../../lib/usbvirt/libusbvirt.a(virthub_descriptors.o)
 .debug_str     0x0000000000000000      0xe3b ../../../../lib/usbvirt/libusbvirt.a(virthub_descriptors.o)
 .comment       0x0000000000000000       0x12 ../../../../lib/usbvirt/libusbvirt.a(virthub_descriptors.o)
 .note.GNU-stack
                0x0000000000000000        0x0 ../../../../lib/usbvirt/libusbvirt.a(virthub_descriptors.o)
 .debug_info    0x0000000000000000      0xdee ../../../../lib/usbvirt/libusbvirt.a(transfer.o)
 .debug_abbrev  0x0000000000000000      0x2a3 ../../../../lib/usbvirt/libusbvirt.a(transfer.o)
 .debug_loc     0x0000000000000000      0x553 ../../../../lib/usbvirt/libusbvirt.a(transfer.o)
 .debug_aranges
                0x0000000000000000       0x20 ../../../../lib/usbvirt/libusbvirt.a(transfer.o)
 .debug_ranges  0x0000000000000000       0x40 ../../../../lib/usbvirt/libusbvirt.a(transfer.o)
 .debug_line    0x0000000000000000      0x290 ../../../../lib/usbvirt/libusbvirt.a(transfer.o)
 .debug_str     0x0000000000000000      0xde3 ../../../../lib/usbvirt/libusbvirt.a(transfer.o)
 .comment       0x0000000000000000       0x12 ../../../../lib/usbvirt/libusbvirt.a(transfer.o)
 .note.GNU-stack
                0x0000000000000000        0x0 ../../../../lib/usbvirt/libusbvirt.a(transfer.o)
 .eh_frame      0x0000000000000000       0xf0 ../../../../lib/usbvirt/libusbvirt.a(transfer.o)
 .debug_info    0x0000000000000000      0xa4f ../../../../lib/usbvirt/libusbvirt.a(ctrltransfer.o)
 .debug_abbrev  0x0000000000000000      0x1c3 ../../../../lib/usbvirt/libusbvirt.a(ctrltransfer.o)
 .debug_loc     0x0000000000000000       0x26 ../../../../lib/usbvirt/libusbvirt.a(ctrltransfer.o)
 .debug_aranges
                0x0000000000000000       0x20 ../../../../lib/usbvirt/libusbvirt.a(ctrltransfer.o)
 .debug_line    0x0000000000000000      0x243 ../../../../lib/usbvirt/libusbvirt.a(ctrltransfer.o)
 .debug_str     0x0000000000000000      0xd51 ../../../../lib/usbvirt/libusbvirt.a(ctrltransfer.o)
 .comment       0x0000000000000000       0x12 ../../../../lib/usbvirt/libusbvirt.a(ctrltransfer.o)
 .note.GNU-stack
                0x0000000000000000        0x0 ../../../../lib/usbvirt/libusbvirt.a(ctrltransfer.o)
 .eh_frame      0x0000000000000000       0x58 ../../../../lib/usbvirt/libusbvirt.a(ctrltransfer.o)
 .debug_info    0x0000000000000000       0xf2 ../../../../lib/usb/libusb.a(class.o)
 .debug_abbrev  0x0000000000000000       0x7f ../../../../lib/usb/libusb.a(class.o)
 .debug_loc     0x0000000000000000       0x1f ../../../../lib/usb/libusb.a(class.o)
 .debug_aranges
                0x0000000000000000       0x20 ../../../../lib/usb/libusb.a(class.o)
 .debug_line    0x0000000000000000       0xe9 ../../../../lib/usb/libusb.a(class.o)
 .debug_str     0x0000000000000000      0x2db ../../../../lib/usb/libusb.a(class.o)
 .comment       0x0000000000000000       0x12 ../../../../lib/usb/libusb.a(class.o)
 .note.GNU-stack
                0x0000000000000000        0x0 ../../../../lib/usb/libusb.a(class.o)
 .eh_frame      0x0000000000000000       0xa8 ../../../../lib/usb/libusb.a(class.o)
 .debug_info    0x0000000000000000      0x330 ../../../../lib/usb/libusb.a(debug.o)
 .debug_abbrev  0x0000000000000000       0xf3 ../../../../lib/usb/libusb.a(debug.o)
 .debug_aranges
                0x0000000000000000       0x20 ../../../../lib/usb/libusb.a(debug.o)
 .debug_line    0x0000000000000000      0x111 ../../../../lib/usb/libusb.a(debug.o)
 .debug_str     0x0000000000000000      0x639 ../../../../lib/usb/libusb.a(debug.o)
 .comment       0x0000000000000000       0x12 ../../../../lib/usb/libusb.a(debug.o)
 .note.GNU-stack
                0x0000000000000000        0x0 ../../../../lib/usb/libusb.a(debug.o)
 .eh_frame      0x0000000000000000       0x44 ../../../../lib/usb/libusb.a(debug.o)
 .debug_info    0x0000000000000000      0x373 ../../../../lib/usb/libusb.a(usb.o)
 .debug_abbrev  0x0000000000000000      0x12d ../../../../lib/usb/libusb.a(usb.o)
 .debug_aranges
                0x0000000000000000       0x20 ../../../../lib/usb/libusb.a(usb.o)
 .debug_line    0x0000000000000000       0xeb ../../../../lib/usb/libusb.a(usb.o)
 .debug_str     0x0000000000000000      0x521 ../../../../lib/usb/libusb.a(usb.o)
 .comment       0x0000000000000000       0x12 ../../../../lib/usb/libusb.a(usb.o)
 .note.GNU-stack
                0x0000000000000000        0x0 ../../../../lib/usb/libusb.a(usb.o)
 .eh_frame      0x0000000000000000       0xcc ../../../../lib/usb/libusb.a(usb.o)
 .debug_info    0x0000000000000000     0x2c13 ../../../../lib/drv/libdrv.a(driver.o)
 .debug_abbrev  0x0000000000000000      0x43e ../../../../lib/drv/libdrv.a(driver.o)
 .debug_loc     0x0000000000000000      0xd65 ../../../../lib/drv/libdrv.a(driver.o)
 .debug_aranges
                0x0000000000000000       0x20 ../../../../lib/drv/libdrv.a(driver.o)
 .debug_ranges  0x0000000000000000      0x450 ../../../../lib/drv/libdrv.a(driver.o)
 .debug_line    0x0000000000000000      0x826 ../../../../lib/drv/libdrv.a(driver.o)
 .debug_str     0x0000000000000000     0x16bc ../../../../lib/drv/libdrv.a(driver.o)
 .comment       0x0000000000000000       0x12 ../../../../lib/drv/libdrv.a(driver.o)
 .note.GNU-stack
                0x0000000000000000        0x0 ../../../../lib/drv/libdrv.a(driver.o)
 .eh_frame      0x0000000000000000      0x4a4 ../../../../lib/drv/libdrv.a(driver.o)
 .debug_info    0x0000000000000000      0x592 ../../../../lib/drv/libdrv.a(dev_iface.o)
 .debug_abbrev  0x0000000000000000      0x190 ../../../../lib/drv/libdrv.a(dev_iface.o)
 .debug_loc     0x0000000000000000       0x4a ../../../../lib/drv/libdrv.a(dev_iface.o)
 .debug_aranges
                0x0000000000000000       0x20 ../../../../lib/drv/libdrv.a(dev_iface.o)
 .debug_line    0x0000000000000000      0x2c0 ../../../../lib/drv/libdrv.a(dev_iface.o)
 .debug_str     0x0000000000000000      0x963 ../../../../lib/drv/libdrv.a(dev_iface.o)
 .comment       0x0000000000000000       0x12 ../../../../lib/drv/libdrv.a(dev_iface.o)
 .note.GNU-stack
                0x0000000000000000        0x0 ../../../../lib/drv/libdrv.a(dev_iface.o)
 .eh_frame      0x0000000000000000       0x84 ../../../../lib/drv/libdrv.a(dev_iface.o)
 .debug_info    0x0000000000000000      0x632 ../../../../lib/drv/libdrv.a(interrupt.o)
 .debug_abbrev  0x0000000000000000      0x161 ../../../../lib/drv/libdrv.a(interrupt.o)
 .debug_loc     0x0000000000000000       0x33 ../../../../lib/drv/libdrv.a(interrupt.o)
 .debug_aranges
                0x0000000000000000       0x20 ../../../../lib/drv/libdrv.a(interrupt.o)
 .debug_line    0x0000000000000000      0x1f2 ../../../../lib/drv/libdrv.a(interrupt.o)
 .debug_str     0x0000000000000000      0x8cf ../../../../lib/drv/libdrv.a(interrupt.o)
 .comment       0x0000000000000000       0x12 ../../../../lib/drv/libdrv.a(interrupt.o)
 .note.GNU-stack
                0x0000000000000000        0x0 ../../../../lib/drv/libdrv.a(interrupt.o)
 .eh_frame      0x0000000000000000       0x58 ../../../../lib/drv/libdrv.a(interrupt.o)
 .debug_info    0x0000000000000000      0x428 ../../../../lib/drv/libdrv.a(logbuf.o)
 .debug_abbrev  0x0000000000000000      0x187 ../../../../lib/drv/libdrv.a(logbuf.o)
 .debug_loc     0x0000000000000000      0x3d3 ../../../../lib/drv/libdrv.a(logbuf.o)
 .debug_aranges
                0x0000000000000000       0x20 ../../../../lib/drv/libdrv.a(logbuf.o)
 .debug_ranges  0x0000000000000000       0x80 ../../../../lib/drv/libdrv.a(logbuf.o)
 .debug_line    0x0000000000000000      0x143 ../../../../lib/drv/libdrv.a(logbuf.o)
 .debug_str     0x0000000000000000      0x30e ../../../../lib/drv/libdrv.a(logbuf.o)
 .comment       0x0000000000000000       0x12 ../../../../lib/drv/libdrv.a(logbuf.o)
 .note.GNU-stack
                0x0000000000000000        0x0 ../../../../lib/drv/libdrv.a(logbuf.o)
 .eh_frame      0x0000000000000000       0x68 ../../../../lib/drv/libdrv.a(logbuf.o)
 .debug_info    0x0000000000000000      0xc03 ../../../../lib/drv/libdrv.a(remote_audio_mixer.o)
 .debug_abbrev  0x0000000000000000      0x254 ../../../../lib/drv/libdrv.a(remote_audio_mixer.o)
 .debug_loc     0x0000000000000000      0x3d1 ../../../../lib/drv/libdrv.a(remote_audio_mixer.o)
 .debug_aranges
                0x0000000000000000       0x20 ../../../../lib/drv/libdrv.a(remote_audio_mixer.o)
 .debug_ranges  0x0000000000000000       0x80 ../../../../lib/drv/libdrv.a(remote_audio_mixer.o)
 .debug_line    0x0000000000000000      0x31a ../../../../lib/drv/libdrv.a(remote_audio_mixer.o)
 .debug_str     0x0000000000000000      0xb88 ../../../../lib/drv/libdrv.a(remote_audio_mixer.o)
 .comment       0x0000000000000000       0x12 ../../../../lib/drv/libdrv.a(remote_audio_mixer.o)
 .note.GNU-stack
                0x0000000000000000        0x0 ../../../../lib/drv/libdrv.a(remote_audio_mixer.o)
 .eh_frame      0x0000000000000000      0x1c4 ../../../../lib/drv/libdrv.a(remote_audio_mixer.o)
 .debug_info    0x0000000000000000     0x2298 ../../../../lib/drv/libdrv.a(remote_audio_pcm.o)
 .debug_abbrev  0x0000000000000000      0x3d2 ../../../../lib/drv/libdrv.a(remote_audio_pcm.o)
 .debug_loc     0x0000000000000000      0xef5 ../../../../lib/drv/libdrv.a(remote_audio_pcm.o)
 .debug_aranges
                0x0000000000000000       0x20 ../../../../lib/drv/libdrv.a(remote_audio_pcm.o)
 .debug_ranges  0x0000000000000000       0xb8 ../../../../lib/drv/libdrv.a(remote_audio_pcm.o)
 .debug_line    0x0000000000000000      0x647 ../../../../lib/drv/libdrv.a(remote_audio_pcm.o)
 .debug_str     0x0000000000000000     0x198d ../../../../lib/drv/libdrv.a(remote_audio_pcm.o)
 .comment       0x0000000000000000       0x12 ../../../../lib/drv/libdrv.a(remote_audio_pcm.o)
 .note.GNU-stack
                0x0000000000000000        0x0 ../../../../lib/drv/libdrv.a(remote_audio_pcm.o)
 .eh_frame      0x0000000000000000      0x63c ../../../../lib/drv/libdrv.a(remote_audio_pcm.o)
 .debug_info    0x0000000000000000      0x9fb ../../../../lib/drv/libdrv.a(remote_hw_res.o)
 .debug_abbrev  0x0000000000000000      0x1f5 ../../../../lib/drv/libdrv.a(remote_hw_res.o)
 .debug_loc     0x0000000000000000      0x255 ../../../../lib/drv/libdrv.a(remote_hw_res.o)
 .debug_aranges
                0x0000000000000000       0x20 ../../../../lib/drv/libdrv.a(remote_hw_res.o)
 .debug_line    0x0000000000000000      0x26d ../../../../lib/drv/libdrv.a(remote_hw_res.o)
 .debug_str     0x0000000000000000      0xb5c ../../../../lib/drv/libdrv.a(remote_hw_res.o)
 .comment       0x0000000000000000       0x12 ../../../../lib/drv/libdrv.a(remote_hw_res.o)
 .note.GNU-stack
                0x0000000000000000        0x0 ../../../../lib/drv/libdrv.a(remote_hw_res.o)
 .eh_frame      0x0000000000000000       0xf0 ../../../../lib/drv/libdrv.a(remote_hw_res.o)
 .debug_info    0x0000000000000000      0x624 ../../../../lib/drv/libdrv.a(remote_pio_window.o)
 .debug_abbrev  0x0000000000000000      0x1af ../../../../lib/drv/libdrv.a(remote_pio_window.o)
 .debug_loc     0x0000000000000000       0x54 ../../../../lib/drv/libdrv.a(remote_pio_window.o)
 .debug_aranges
                0x0000000000000000       0x20 ../../../../lib/drv/libdrv.a(remote_pio_window.o)
 .debug_line    0x0000000000000000      0x245 ../../../../lib/drv/libdrv.a(remote_pio_window.o)
 .debug_str     0x0000000000000000      0x970 ../../../../lib/drv/libdrv.a(remote_pio_window.o)
 .comment       0x0000000000000000       0x12 ../../../../lib/drv/libdrv.a(remote_pio_window.o)
 .note.GNU-stack
                0x0000000000000000        0x0 ../../../../lib/drv/libdrv.a(remote_pio_window.o)
 .eh_frame      0x0000000000000000       0x58 ../../../../lib/drv/libdrv.a(remote_pio_window.o)
 .debug_info    0x0000000000000000      0x9f8 ../../../../lib/drv/libdrv.a(remote_char_dev.o)
 .debug_abbrev  0x0000000000000000      0x243 ../../../../lib/drv/libdrv.a(remote_char_dev.o)
 .debug_loc     0x0000000000000000      0x304 ../../../../lib/drv/libdrv.a(remote_char_dev.o)
 .debug_aranges
                0x0000000000000000       0x20 ../../../../lib/drv/libdrv.a(remote_char_dev.o)
 .debug_ranges  0x0000000000000000       0x40 ../../../../lib/drv/libdrv.a(remote_char_dev.o)
 .debug_line    0x0000000000000000      0x29f ../../../../lib/drv/libdrv.a(remote_char_dev.o)
 .debug_str     0x0000000000000000      0xa95 ../../../../lib/drv/libdrv.a(remote_char_dev.o)
 .comment       0x0000000000000000       0x12 ../../../../lib/drv/libdrv.a(remote_char_dev.o)
 .note.GNU-stack
                0x0000000000000000        0x0 ../../../../lib/drv/libdrv.a(remote_char_dev.o)
 .eh_frame      0x0000000000000000      0x120 ../../../../lib/drv/libdrv.a(remote_char_dev.o)
 .debug_info    0x0000000000000000     0x55bd ../../../../lib/drv/libdrv.a(remote_nic.o)
 .debug_abbrev  0x0000000000000000      0x35f ../../../../lib/drv/libdrv.a(remote_nic.o)
 .debug_loc     0x0000000000000000     0x25cf ../../../../lib/drv/libdrv.a(remote_nic.o)
 .debug_aranges
                0x0000000000000000       0x20 ../../../../lib/drv/libdrv.a(remote_nic.o)
 .debug_ranges  0x0000000000000000      0x180 ../../../../lib/drv/libdrv.a(remote_nic.o)
 .debug_line    0x0000000000000000      0xc19 ../../../../lib/drv/libdrv.a(remote_nic.o)
 .debug_str     0x0000000000000000     0x261b ../../../../lib/drv/libdrv.a(remote_nic.o)
 .comment       0x0000000000000000       0x12 ../../../../lib/drv/libdrv.a(remote_nic.o)
 .note.GNU-stack
                0x0000000000000000        0x0 ../../../../lib/drv/libdrv.a(remote_nic.o)
 .eh_frame      0x0000000000000000     0x1028 ../../../../lib/drv/libdrv.a(remote_nic.o)
 .debug_info    0x0000000000000000     0x1192 ../../../../lib/drv/libdrv.a(remote_ieee80211.o)
 .debug_abbrev  0x0000000000000000      0x38d ../../../../lib/drv/libdrv.a(remote_ieee80211.o)
 .debug_loc     0x0000000000000000      0x489 ../../../../lib/drv/libdrv.a(remote_ieee80211.o)
 .debug_aranges
                0x0000000000000000       0x20 ../../../../lib/drv/libdrv.a(remote_ieee80211.o)
 .debug_ranges  0x0000000000000000       0x70 ../../../../lib/drv/libdrv.a(remote_ieee80211.o)
 .debug_line    0x0000000000000000      0x408 ../../../../lib/drv/libdrv.a(remote_ieee80211.o)
 .debug_str     0x0000000000000000      0xeb5 ../../../../lib/drv/libdrv.a(remote_ieee80211.o)
 .comment       0x0000000000000000       0x12 ../../../../lib/drv/libdrv.a(remote_ieee80211.o)
 .note.GNU-stack
                0x0000000000000000        0x0 ../../../../lib/drv/libdrv.a(remote_ieee80211.o)
 .eh_frame      0x0000000000000000      0x144 ../../../../lib/drv/libdrv.a(remote_ieee80211.o)
 .debug_info    0x0000000000000000     0x1888 ../../../../lib/drv/libdrv.a(remote_usb.o)
 .debug_abbrev  0x0000000000000000      0x3a7 ../../../../lib/drv/libdrv.a(remote_usb.o)
 .debug_loc     0x0000000000000000      0x886 ../../../../lib/drv/libdrv.a(remote_usb.o)
 .debug_aranges
                0x0000000000000000       0x20 ../../../../lib/drv/libdrv.a(remote_usb.o)
 .debug_ranges  0x0000000000000000       0xd8 ../../../../lib/drv/libdrv.a(remote_usb.o)
 .debug_line    0x0000000000000000      0x4aa ../../../../lib/drv/libdrv.a(remote_usb.o)
 .debug_str     0x0000000000000000     0x1125 ../../../../lib/drv/libdrv.a(remote_usb.o)
 .comment       0x0000000000000000       0x12 ../../../../lib/drv/libdrv.a(remote_usb.o)
 .note.GNU-stack
                0x0000000000000000        0x0 ../../../../lib/drv/libdrv.a(remote_usb.o)
 .eh_frame      0x0000000000000000      0x4a8 ../../../../lib/drv/libdrv.a(remote_usb.o)
 .debug_info    0x0000000000000000     0x10b2 ../../../../lib/drv/libdrv.a(remote_pci.o)
 .debug_abbrev  0x0000000000000000      0x260 ../../../../lib/drv/libdrv.a(remote_pci.o)
 .debug_loc     0x0000000000000000      0x70c ../../../../lib/drv/libdrv.a(remote_pci.o)
 .debug_aranges
                0x0000000000000000       0x20 ../../../../lib/drv/libdrv.a(remote_pci.o)
 .debug_line    0x0000000000000000      0x2de ../../../../lib/drv/libdrv.a(remote_pci.o)
 .debug_str     0x0000000000000000      0xbdb ../../../../lib/drv/libdrv.a(remote_pci.o)
 .comment       0x0000000000000000       0x12 ../../../../lib/drv/libdrv.a(remote_pci.o)
 .note.GNU-stack
                0x0000000000000000        0x0 ../../../../lib/drv/libdrv.a(remote_pci.o)
 .eh_frame      0x0000000000000000      0x254 ../../../../lib/drv/libdrv.a(remote_pci.o)
 .debug_info    0x0000000000000000      0xdc9 ../../../../lib/drv/libdrv.a(remote_usbhc.o)
 .debug_abbrev  0x0000000000000000      0x331 ../../../../lib/drv/libdrv.a(remote_usbhc.o)
 .debug_loc     0x0000000000000000      0x41d ../../../../lib/drv/libdrv.a(remote_usbhc.o)
 .debug_aranges
                0x0000000000000000       0x20 ../../../../lib/drv/libdrv.a(remote_usbhc.o)
 .debug_ranges  0x0000000000000000       0xd8 ../../../../lib/drv/libdrv.a(remote_usbhc.o)
 .debug_line    0x0000000000000000      0x37d ../../../../lib/drv/libdrv.a(remote_usbhc.o)
 .debug_str     0x0000000000000000      0xbd1 ../../../../lib/drv/libdrv.a(remote_usbhc.o)
 .comment       0x0000000000000000       0x12 ../../../../lib/drv/libdrv.a(remote_usbhc.o)
 .note.GNU-stack
                0x0000000000000000        0x0 ../../../../lib/drv/libdrv.a(remote_usbhc.o)
 .eh_frame      0x0000000000000000      0x19c ../../../../lib/drv/libdrv.a(remote_usbhc.o)
 .debug_info    0x0000000000000000      0xe2c ../../../../lib/drv/libdrv.a(remote_usbhid.o)
 .debug_abbrev  0x0000000000000000      0x2da ../../../../lib/drv/libdrv.a(remote_usbhid.o)
 .debug_loc     0x0000000000000000      0x64b ../../../../lib/drv/libdrv.a(remote_usbhid.o)
 .debug_aranges
                0x0000000000000000       0x20 ../../../../lib/drv/libdrv.a(remote_usbhid.o)
 .debug_ranges  0x0000000000000000       0x18 ../../../../lib/drv/libdrv.a(remote_usbhid.o)
 .debug_line    0x0000000000000000      0x347 ../../../../lib/drv/libdrv.a(remote_usbhid.o)
 .debug_str     0x0000000000000000      0xcbb ../../../../lib/drv/libdrv.a(remote_usbhid.o)
 .comment       0x0000000000000000       0x12 ../../../../lib/drv/libdrv.a(remote_usbhid.o)
 .note.GNU-stack
                0x0000000000000000        0x0 ../../../../lib/drv/libdrv.a(remote_usbhid.o)
 .eh_frame      0x0000000000000000      0x21c ../../../../lib/drv/libdrv.a(remote_usbhid.o)
 .debug_info    0x0000000000000000      0x77c ../../../../lib/drv/libdrv.a(remote_clock_dev.o)
 .debug_abbrev  0x0000000000000000      0x1be ../../../../lib/drv/libdrv.a(remote_clock_dev.o)
 .debug_loc     0x0000000000000000       0x94 ../../../../lib/drv/libdrv.a(remote_clock_dev.o)
 .debug_aranges
                0x0000000000000000       0x20 ../../../../lib/drv/libdrv.a(remote_clock_dev.o)
 .debug_line    0x0000000000000000      0x279 ../../../../lib/drv/libdrv.a(remote_clock_dev.o)
 .debug_str     0x0000000000000000      0x9f3 ../../../../lib/drv/libdrv.a(remote_clock_dev.o)
 .comment       0x0000000000000000       0x12 ../../../../lib/drv/libdrv.a(remote_clock_dev.o)
 .note.GNU-stack
                0x0000000000000000        0x0 ../../../../lib/drv/libdrv.a(remote_clock_dev.o)
 .eh_frame      0x0000000000000000       0xa4 ../../../../lib/drv/libdrv.a(remote_clock_dev.o)
 .debug_info    0x0000000000000000      0x5a6 ../../../../lib/drv/libdrv.a(remote_led_dev.o)
 .debug_abbrev  0x0000000000000000      0x192 ../../../../lib/drv/libdrv.a(remote_led_dev.o)
 .debug_loc     0x0000000000000000       0x91 ../../../../lib/drv/libdrv.a(remote_led_dev.o)
 .debug_aranges
                0x0000000000000000       0x20 ../../../../lib/drv/libdrv.a(remote_led_dev.o)
 .debug_line    0x0000000000000000      0x24c ../../../../lib/drv/libdrv.a(remote_led_dev.o)
 .debug_str     0x0000000000000000      0x912 ../../../../lib/drv/libdrv.a(remote_led_dev.o)
 .comment       0x0000000000000000       0x12 ../../../../lib/drv/libdrv.a(remote_led_dev.o)
 .note.GNU-stack
                0x0000000000000000        0x0 ../../../../lib/drv/libdrv.a(remote_led_dev.o)
 .eh_frame      0x0000000000000000       0x44 ../../../../lib/drv/libdrv.a(remote_led_dev.o)
 .debug_info    0x0000000000000000      0x7f2 ../../../../lib/drv/libdrv.a(remote_battery_dev.o)
 .debug_abbrev  0x0000000000000000      0x1bc ../../../../lib/drv/libdrv.a(remote_battery_dev.o)
 .debug_loc     0x0000000000000000       0xb6 ../../../../lib/drv/libdrv.a(remote_battery_dev.o)
 .debug_aranges
                0x0000000000000000       0x20 ../../../../lib/drv/libdrv.a(remote_battery_dev.o)
 .debug_line    0x0000000000000000      0x250 ../../../../lib/drv/libdrv.a(remote_battery_dev.o)
 .debug_str     0x0000000000000000      0xa5e ../../../../lib/drv/libdrv.a(remote_battery_dev.o)
 .comment       0x0000000000000000       0x12 ../../../../lib/drv/libdrv.a(remote_battery_dev.o)
 .note.GNU-stack
                0x0000000000000000        0x0 ../../../../lib/drv/libdrv.a(remote_battery_dev.o)
 .eh_frame      0x0000000000000000       0xc0 ../../../../lib/drv/libdrv.a(remote_battery_dev.o)
 .debug_info    0x0000000000000000      0xee6 ../../../../lib/drv/libdrv.a(remote_ahci.o)
 .debug_abbrev  0x0000000000000000      0x251 ../../../../lib/drv/libdrv.a(remote_ahci.o)
 .debug_loc     0x0000000000000000      0x413 ../../../../lib/drv/libdrv.a(remote_ahci.o)
 .debug_aranges
                0x0000000000000000       0x20 ../../../../lib/drv/libdrv.a(remote_ahci.o)
 .debug_line    0x0000000000000000      0x314 ../../../../lib/drv/libdrv.a(remote_ahci.o)
 .debug_str     0x0000000000000000      0xcf0 ../../../../lib/drv/libdrv.a(remote_ahci.o)
 .comment       0x0000000000000000       0x12 ../../../../lib/drv/libdrv.a(remote_ahci.o)
 .note.GNU-stack
                0x0000000000000000        0x0 ../../../../lib/drv/libdrv.a(remote_ahci.o)
 .eh_frame      0x0000000000000000      0x244 ../../../../lib/drv/libdrv.a(remote_ahci.o)
 .debug_info    0x0000000000000000      0x183 ../../../../lib/drv/libdrv.a(log.o)
 .debug_abbrev  0x0000000000000000      0x108 ../../../../lib/drv/libdrv.a(log.o)
 .debug_loc     0x0000000000000000       0x20 ../../../../lib/drv/libdrv.a(log.o)
 .debug_aranges
                0x0000000000000000       0x20 ../../../../lib/drv/libdrv.a(log.o)
 .debug_line    0x0000000000000000       0xe4 ../../../../lib/drv/libdrv.a(log.o)
 .debug_str     0x0000000000000000      0x233 ../../../../lib/drv/libdrv.a(log.o)
 .comment       0x0000000000000000       0x12 ../../../../lib/drv/libdrv.a(log.o)
 .note.GNU-stack
                0x0000000000000000        0x0 ../../../../lib/drv/libdrv.a(log.o)
 .eh_frame      0x0000000000000000       0x58 ../../../../lib/drv/libdrv.a(log.o)

Memory Configuration

Name             Origin             Length             Attributes
*default*        0x0000000000000000 0xffffffffffffffff

Linker script and memory map

LOAD /home/ayyuce/Desktop/HlnOS/HelenOS/uspace/lib/c/arch/ia32/src/entry.o
                0x00000000000010f4                . = (0x1000 + SIZEOF_HEADERS)

.init           0x00000000000010f4       0x2e
 *(.init)
 .init          0x00000000000010f4       0x2e /home/ayyuce/Desktop/HlnOS/HelenOS/uspace/lib/c/arch/ia32/src/entry.o
                0x00000000000010f4                __entry

.text           0x0000000000001140    0x15a90
 *(.text .text.*)
 .text          0x0000000000001140        0x0 /home/ayyuce/Desktop/HlnOS/HelenOS/uspace/lib/c/arch/ia32/src/entry.o
 .text          0x0000000000001140      0xd30 ehci_batch.o
                0x0000000000001610                ehci_transfer_batch_finish_dispose
                0x00000000000016e0                ehci_transfer_batch_get
                0x0000000000001b70                ehci_transfer_batch_is_complete
                0x0000000000001df0                ehci_transfer_batch_commit
 .text          0x0000000000001e70      0x2e3 ehci_endpoint.o
                0x0000000000001f90                ehci_endpoint_init
                0x00000000000020c0                ehci_endpoint_fini
 *fill*         0x0000000000002153        0xd 
 .text          0x0000000000002160     0x1052 ehci_rh.o
                0x0000000000002a90                ehci_rh_init
                0x0000000000002cf0                ehci_rh_schedule
                0x0000000000002eb0                ehci_rh_interrupt
 *fill*         0x00000000000031b2        0xe 
 .text          0x00000000000031c0      0x59d endpoint_list.o
                0x00000000000031c0                endpoint_list_init
                0x00000000000032c0                endpoint_list_chain
                0x00000000000033e0                endpoint_list_append_ep
                0x00000000000035c0                endpoint_list_remove_ep
 *fill*         0x000000000000375d        0x3 
 .text          0x0000000000003760      0xe81 hc.o
                0x0000000000003760                ehci_hc_gen_irq_code
                0x0000000000003920                hc_init
                0x0000000000003fe0                hc_fini
                0x0000000000004010                hc_enqueue_endpoint
                0x00000000000040f0                hc_dequeue_endpoint
                0x0000000000004240                ehci_hc_status
                0x0000000000004300                ehci_hc_schedule
                0x0000000000004430                ehci_hc_interrupt
 .text.unlikely
                0x00000000000045e1       0x17 hc.o
 *fill*         0x00000000000045f8        0x8 
 .text          0x0000000000004600      0x13a hw_struct/queue_head.o
                0x0000000000004600                qh_init
 *fill*         0x000000000000473a        0x6 
 .text          0x0000000000004740      0x1ff hw_struct/transfer_descriptor.o
                0x0000000000004740                td_error
                0x00000000000047a0                td_init
 *fill*         0x000000000000493f        0x1 
 .text          0x0000000000004940      0x19b main.o
 *fill*         0x0000000000004adb        0x5 
 .text.startup  0x0000000000004ae0       0x3d main.o
                0x0000000000004ae0                main
 *fill*         0x0000000000004b1d        0x3 
 .text          0x0000000000004b20      0x463 res.o
                0x0000000000004b20                disable_legacy
 *fill*         0x0000000000004f83        0xd 
 .text          0x0000000000004f90     0x1e0e ../../../../lib/usbhost/libusbhost.a(ddf_helpers.o)
                0x00000000000050c0                ddf_hcd_gen_irq_handler
                0x0000000000006360                dev_to_hcd
                0x00000000000063a0                hcd_ddf_setup_root_hub
                0x0000000000006430                hcd_ddf_setup_hc
                0x0000000000006580                hcd_ddf_clean_hc
                0x00000000000065f0                hcd_ddf_enable_interrupts
                0x0000000000006650                hcd_ddf_get_registers
                0x0000000000006720                hcd_ddf_setup_interrupts
                0x00000000000068d0                hcd_ddf_add_hc
 *fill*         0x0000000000006d9e        0x2 
 .text          0x0000000000006da0      0x463 ../../../../lib/usbhost/libusbhost.a(endpoint.o)
                0x0000000000006da0                endpoint_create
                0x0000000000006e60                endpoint_destroy
                0x0000000000006ec0                endpoint_add_ref
                0x0000000000006ed0                endpoint_del_ref
                0x0000000000006f40                endpoint_set_hc_data
                0x0000000000006fa0                endpoint_clear_hc_data
                0x0000000000006ff0                endpoint_use
                0x0000000000007060                endpoint_release
                0x0000000000007100                endpoint_toggle_get
                0x0000000000007180                endpoint_toggle_set
 *fill*         0x0000000000007203        0xd 
 .text          0x0000000000007210      0x6e6 ../../../../lib/usbhost/libusbhost.a(hcd.o)
                0x0000000000007430                hcd_init
                0x0000000000007490                hcd_request_address
                0x00000000000074e0                hcd_release_address
                0x0000000000007520                hcd_reserve_default_address
                0x0000000000007560                hcd_add_ep
                0x00000000000075c0                hcd_remove_ep
                0x0000000000007610                hcd_send_batch
                0x0000000000007830                hcd_send_batch_sync
 *fill*         0x00000000000078f6        0xa 
 .text          0x0000000000007900      0xdec ../../../../lib/usbhost/libusbhost.a(usb_bus.o)
                0x00000000000079f0                bandwidth_count_usb11
                0x0000000000007a90                bandwidth_count_usb20
                0x0000000000007aa0                usb_bus_init
                0x0000000000007b30                usb_bus_register_ep
                0x0000000000007ca0                usb_bus_unregister_ep
                0x0000000000007de0                usb_bus_find_ep
                0x0000000000007e60                usb_bus_add_ep
                0x00000000000080a0                usb_bus_remove_ep
                0x0000000000008190                usb_bus_reset_toggle
                0x00000000000082a0                usb_bus_remove_address
                0x0000000000008420                usb_bus_request_address
                0x0000000000008660                usb_bus_get_speed
 .text.unlikely
                0x00000000000086ec       0x17 ../../../../lib/usbhost/libusbhost.a(usb_bus.o)
 *fill*         0x0000000000008703        0xd 
 .text          0x0000000000008710      0x282 ../../../../lib/usbhost/libusbhost.a(usb_transfer_batch.o)
                0x0000000000008710                usb_transfer_batch_create
                0x00000000000087f0                usb_transfer_batch_destroy
                0x0000000000008890                usb_transfer_batch_finish_error
 *fill*         0x0000000000008992        0xe 
 .text          0x00000000000089a0      0x2e7 ../../../../lib/usbvirt/libusbvirt.a(stdreq.o)
                0x0000000000008c40                usbvirt_control_reply_helper
                0x0000000000008c80                req_nop
 *fill*         0x0000000000008c87        0x9 
 .text          0x0000000000008c90      0x3df ../../../../lib/usbvirt/libusbvirt.a(virthub_base.o)
                0x0000000000008c90                virthub_get_data
                0x0000000000008cd0                virthub_base_init
                0x0000000000008e50                virthub_base_get_address
                0x0000000000008e80                virthub_base_request
                0x0000000000008fb0                virthub_base_get_hub_descriptor
                0x0000000000009030                virthub_base_get_null_status
 .text          0x000000000000906f        0x0 ../../../../lib/usbvirt/libusbvirt.a(virthub_descriptors.o)
 *fill*         0x000000000000906f        0x1 
 .text          0x0000000000009070      0x2a7 ../../../../lib/usbvirt/libusbvirt.a(transfer.o)
                0x0000000000009070                usbvirt_control_write
                0x0000000000009160                usbvirt_control_read
                0x0000000000009260                usbvirt_data_out
                0x00000000000092b0                usbvirt_data_in
 *fill*         0x0000000000009317        0x9 
 .text          0x0000000000009320       0xb9 ../../../../lib/usbvirt/libusbvirt.a(ctrltransfer.o)
                0x0000000000009320                process_control_transfer
 *fill*         0x00000000000093d9        0x7 
 .text          0x00000000000093e0      0x13f ../../../../lib/usb/libusb.a(class.o)
                0x00000000000093e0                usb_str_class
 *fill*         0x000000000000951f        0x1 
 .text          0x0000000000009520       0x85 ../../../../lib/usb/libusb.a(debug.o)
                0x0000000000009520                usb_debug_str_buffer
 *fill*         0x00000000000095a5        0xb 
 .text          0x00000000000095b0       0xe5 ../../../../lib/usb/libusb.a(usb.o)
                0x00000000000095b0                usb_str_transfer_type
                0x00000000000095d0                usb_str_transfer_type_short
                0x00000000000095f0                usb_str_direction
                0x0000000000009610                usb_str_speed
                0x0000000000009630                usb_request_needs_toggle_reset
 *fill*         0x0000000000009695        0xb 
 .text          0x00000000000096a0     0x118c ../../../../lib/drv/libdrv.a(driver.o)
                0x0000000000009fa0                ddf_dev_data_alloc
                0x0000000000009fe0                ddf_dev_data_get
                0x0000000000009ff0                ddf_dev_get_handle
                0x000000000000a000                ddf_dev_get_name
                0x000000000000a010                ddf_dev_parent_sess_create
                0x000000000000a050                ddf_dev_parent_sess_get
                0x000000000000a060                ddf_fun_set_name
                0x000000000000a0b0                ddf_fun_get_dev
                0x000000000000a0c0                ddf_fun_get_handle
                0x000000000000a0d0                ddf_fun_create
                0x000000000000a1e0                ddf_fun_data_alloc
                0x000000000000a240                ddf_fun_data_get
                0x000000000000a250                ddf_fun_get_name
                0x000000000000a260                ddf_fun_destroy
                0x000000000000a390                ddf_fun_bind
                0x000000000000a4c0                ddf_fun_unbind
                0x000000000000a560                ddf_fun_online
                0x000000000000a590                ddf_fun_offline
                0x000000000000a5c0                ddf_fun_add_match_id
                0x000000000000a680                ddf_fun_set_ops
                0x000000000000a6b0                ddf_fun_set_conn_handler
                0x000000000000a6e0                ddf_fun_add_to_category
                0x000000000000a730                ddf_driver_main
 *fill*         0x000000000000a82c        0x4 
 .text          0x000000000000a830       0x5c ../../../../lib/drv/libdrv.a(dev_iface.o)
                0x000000000000a830                get_remote_iface
                0x000000000000a860                get_remote_method
                0x000000000000a880                is_valid_iface_idx
 *fill*         0x000000000000a88c        0x4 
 .text          0x000000000000a890       0x37 ../../../../lib/drv/libdrv.a(interrupt.o)
                0x000000000000a890                register_interrupt_handler
                0x000000000000a8b0                unregister_interrupt_handler
 *fill*         0x000000000000a8c7        0x9 
 .text          0x000000000000a8d0      0x2c6 ../../../../lib/drv/libdrv.a(logbuf.o)
                0x000000000000a8d0                ddf_dump_buffer
 *fill*         0x000000000000ab96        0xa 
 .text          0x000000000000aba0      0x53f ../../../../lib/drv/libdrv.a(remote_audio_mixer.o)
                0x000000000000ae60                audio_mixer_get_info
                0x000000000000af50                audio_mixer_get_item_info
                0x000000000000b050                audio_mixer_set_item_level
                0x000000000000b090                audio_mixer_get_item_level
 *fill*         0x000000000000b0df        0x1 
 .text          0x000000000000b0e0     0x1116 ../../../../lib/drv/libdrv.a(remote_audio_pcm.o)
                0x000000000000b7a0                audio_pcm_cap_str
                0x000000000000b7c0                audio_pcm_event_str
                0x000000000000b7e0                audio_pcm_open_default
                0x000000000000b880                audio_pcm_open
                0x000000000000b8c0                audio_pcm_open_service
                0x000000000000b8e0                audio_pcm_close
                0x000000000000b900                audio_pcm_get_info_str
                0x000000000000b9f0                audio_pcm_query_cap
                0x000000000000ba50                audio_pcm_get_buffer_pos
                0x000000000000bad0                audio_pcm_test_format
                0x000000000000bc00                audio_pcm_register_event_callback
                0x000000000000bc90                audio_pcm_unregister_event_callback
                0x000000000000bce0                audio_pcm_get_buffer
                0x000000000000bd90                audio_pcm_release_buffer
                0x000000000000bde0                audio_pcm_start_playback_fragment
                0x000000000000be70                audio_pcm_last_playback_fragment
                0x000000000000bec0                audio_pcm_start_playback
                0x000000000000bf50                audio_pcm_stop_playback_immediate
                0x000000000000bfa0                audio_pcm_stop_playback
                0x000000000000bff0                audio_pcm_start_capture_fragment
                0x000000000000c080                audio_pcm_start_capture
                0x000000000000c110                audio_pcm_last_capture_fragment
                0x000000000000c160                audio_pcm_stop_capture_immediate
                0x000000000000c1b0                audio_pcm_stop_capture
 *fill*         0x000000000000c1f6        0xa 
 .text          0x000000000000c200      0x1dd ../../../../lib/drv/libdrv.a(remote_hw_res.o)
 *fill*         0x000000000000c3dd        0x3 
 .text          0x000000000000c3e0       0x95 ../../../../lib/drv/libdrv.a(remote_pio_window.o)
 *fill*         0x000000000000c475        0xb 
 .text          0x000000000000c480      0x341 ../../../../lib/drv/libdrv.a(remote_char_dev.o)
                0x000000000000c670                char_dev_read
                0x000000000000c720                char_dev_write
 *fill*         0x000000000000c7c1        0xf 
 .text          0x000000000000c7d0     0x3596 ../../../../lib/drv/libdrv.a(remote_nic.o)
                0x000000000000e6a0                nic_send_frame
                0x000000000000e730                nic_callback_create
                0x000000000000e7d0                nic_get_state
                0x000000000000e840                nic_set_state
                0x000000000000e890                nic_get_address
                0x000000000000e920                nic_set_address
                0x000000000000e9b0                nic_get_stats
                0x000000000000ea50                nic_get_device_info
                0x000000000000eae0                nic_get_cable_state
                0x000000000000eb50                nic_get_operation_mode
                0x000000000000ebd0                nic_set_operation_mode
                0x000000000000ec20                nic_autoneg_enable
                0x000000000000ec70                nic_autoneg_disable
                0x000000000000ecc0                nic_autoneg_probe
                0x000000000000ed50                nic_autoneg_restart
                0x000000000000eda0                nic_get_pause
                0x000000000000ee20                nic_set_pause
                0x000000000000ee80                nic_unicast_get_mode
                0x000000000000ef50                nic_unicast_set_mode
                0x000000000000f030                nic_multicast_get_mode
                0x000000000000f100                nic_multicast_set_mode
                0x000000000000f1e0                nic_broadcast_get_mode
                0x000000000000f250                nic_broadcast_set_mode
                0x000000000000f2a0                nic_defective_get_mode
                0x000000000000f310                nic_defective_set_mode
                0x000000000000f360                nic_blocked_sources_get
                0x000000000000f400                nic_blocked_sources_set
                0x000000000000f4f0                nic_vlan_get_mask
                0x000000000000f590                nic_vlan_set_mask
                0x000000000000f630                nic_vlan_set_tag
                0x000000000000f6a0                nic_wol_virtue_add
                0x000000000000f780                nic_wol_virtue_remove
                0x000000000000f7d0                nic_wol_virtue_probe
                0x000000000000f890                nic_wol_virtue_list
                0x000000000000f9a0                nic_wol_virtue_get_caps
                0x000000000000fa20                nic_wol_load_info
                0x000000000000faf0                nic_offload_probe
                0x000000000000fb90                nic_offload_set
                0x000000000000fbe0                nic_poll_get_mode
                0x000000000000fc80                nic_poll_set_mode
                0x000000000000fd20                nic_poll_now
 *fill*         0x000000000000fd66        0xa 
 .text          0x000000000000fd70      0x690 ../../../../lib/drv/libdrv.a(remote_ieee80211.o)
                0x000000000000ffb0                ieee80211_get_scan_results
                0x0000000000010040                ieee80211_connect
                0x0000000000010200                ieee80211_disconnect
 .text          0x0000000000010400      0xb5c ../../../../lib/drv/libdrv.a(remote_usb.o)
                0x0000000000010b00                usb_dev_connect
                0x0000000000010b20                usb_dev_connect_to_self
                0x0000000000010b40                usb_dev_disconnect
                0x0000000000010b60                usb_get_my_interface
                0x0000000000010bb0                usb_get_my_device_handle
                0x0000000000010c00                usb_reserve_default_address
                0x0000000000010c40                usb_release_default_address
                0x0000000000010c80                usb_device_enumerate
                0x0000000000010cc0                usb_device_remove
                0x0000000000010d00                usb_register_endpoint
                0x0000000000010d70                usb_unregister_endpoint
                0x0000000000010db0                usb_read
                0x0000000000010ea0                usb_write
 *fill*         0x0000000000010f5c        0x4 
 .text          0x0000000000010f60      0x55a ../../../../lib/drv/libdrv.a(remote_pci.o)
                0x0000000000011290                pci_config_space_read_8
                0x00000000000112f0                pci_config_space_read_16
                0x0000000000011350                pci_config_space_read_32
                0x00000000000113b0                pci_config_space_write_8
                0x0000000000011410                pci_config_space_write_16
                0x0000000000011470                pci_config_space_write_32
 *fill*         0x00000000000114ba        0x6 
 .text          0x00000000000114c0      0x5ec ../../../../lib/drv/libdrv.a(remote_usbhc.o)
                0x00000000000118e0                usbhc_read
                0x00000000000119e0                usbhc_write
 *fill*         0x0000000000011aac        0x4 
 .text          0x0000000000011ab0      0x6fb ../../../../lib/drv/libdrv.a(remote_usbhid.o)
                0x0000000000011e40                usbhid_dev_get_event_length
                0x0000000000011eb0                usbhid_dev_get_event
                0x0000000000012020                usbhid_dev_get_report_descriptor_length
                0x0000000000012090                usbhid_dev_get_report_descriptor
 *fill*         0x00000000000121ab        0x5 
 .text          0x00000000000121b0      0x164 ../../../../lib/drv/libdrv.a(remote_clock_dev.o)
 *fill*         0x0000000000012314        0xc 
 .text          0x0000000000012320       0x4b ../../../../lib/drv/libdrv.a(remote_led_dev.o)
 *fill*         0x000000000001236b        0x5 
 .text          0x0000000000012370      0x197 ../../../../lib/drv/libdrv.a(remote_battery_dev.o)
                0x0000000000012450                battery_status_get
                0x00000000000124b0                battery_charge_level_get
 *fill*         0x0000000000012507        0x9 
 .text          0x0000000000012510      0x57f ../../../../lib/drv/libdrv.a(remote_ahci.o)
                0x00000000000127b0                ahci_get_sess
                0x0000000000012850                ahci_get_sata_device_name
                0x00000000000128c0                ahci_get_num_blocks
                0x0000000000012940                ahci_get_block_size
                0x00000000000129b0                ahci_read_blocks
                0x0000000000012a20                ahci_write_blocks
 *fill*         0x0000000000012a8f        0x1 
 .text          0x0000000000012a90       0x2e ../../../../lib/drv/libdrv.a(log.o)
                0x0000000000012a90                ddf_log_init
                0x0000000000012aa0                ddf_msg
 *(.rodata .rodata.*)
 .rodata.str1.1
                0x0000000000012abe       0xa0 ehci_batch.o
                                         0xb3 (size before relaxing)
 *fill*         0x0000000000012b5e        0x2 
 .rodata.str1.4
                0x0000000000012b60      0x571 ehci_batch.o
 *fill*         0x00000000000130d1        0x3 
 .rodata        0x00000000000130d4       0x18 ehci_batch.o
 .rodata.str1.1
                0x00000000000130ec       0x5c ehci_endpoint.o
                                         0x79 (size before relaxing)
 .rodata.str1.4
                0x0000000000013148       0x87 ehci_endpoint.o
 .rodata.str1.1
                0x00000000000131cf      0x200 ehci_rh.o
                                        0x215 (size before relaxing)
 *fill*         0x00000000000133cf        0x1 
 .rodata.str1.4
                0x00000000000133d0      0x2c2 ehci_rh.o
                                        0x41a (size before relaxing)
 *fill*         0x0000000000013692        0xe 
 .rodata        0x00000000000136a0       0xe4 ehci_rh.o
 .rodata.str1.1
                0x0000000000013784       0x70 endpoint_list.o
                                         0x9c (size before relaxing)
 .rodata.str1.4
                0x00000000000137f4      0x189 endpoint_list.o
 .rodata.str1.1
                0x000000000001397d      0x1ee hc.o
                                        0x203 (size before relaxing)
 *fill*         0x0000000000013b6b        0x1 
 .rodata.str1.4
                0x0000000000013b6c      0x3e5 hc.o
 *fill*         0x0000000000013f51        0xf 
 .rodata        0x0000000000013f60       0x6c hc.o
 .rodata.str1.1
                0x0000000000013fcc       0x35 hw_struct/queue_head.o
                                         0x3e (size before relaxing)
 *fill*         0x0000000000014001        0x3 
 .rodata        0x0000000000014004        0xc hw_struct/queue_head.o
 .rodata.str1.4
                0x0000000000014010       0x46 hw_struct/transfer_descriptor.o
 .rodata.str1.1
                0x0000000000014056       0x20 hw_struct/transfer_descriptor.o
                                         0x2c (size before relaxing)
 *fill*         0x0000000000014076        0x2 
 .rodata        0x0000000000014078        0xc hw_struct/transfer_descriptor.o
 .rodata.str1.1
                0x0000000000014084       0x33 main.o
                                         0x37 (size before relaxing)
 *fill*         0x00000000000140b7        0x1 
 .rodata.str1.4
                0x00000000000140b8       0x21 main.o
 *fill*         0x00000000000140d9        0x7 
 .rodata        0x00000000000140e0       0x50 main.o
 .rodata.str1.1
                0x0000000000014130       0x76 res.o
                                         0x90 (size before relaxing)
 *fill*         0x00000000000141a6        0x2 
 .rodata.str1.4
                0x00000000000141a8      0x216 res.o
 .rodata.str1.1
                0x00000000000143be      0x168 ../../../../lib/usbhost/libusbhost.a(ddf_helpers.o)
                                        0x181 (size before relaxing)
 *fill*         0x0000000000014526        0x2 
 .rodata.str1.4
                0x0000000000014528      0x647 ../../../../lib/usbhost/libusbhost.a(ddf_helpers.o)
 *fill*         0x0000000000014b6f        0x1 
 .rodata        0x0000000000014b70       0x1c ../../../../lib/usbhost/libusbhost.a(ddf_helpers.o)
 .rodata.str1.1
                0x0000000000014b8c       0x3c ../../../../lib/usbhost/libusbhost.a(endpoint.o)
                                         0x45 (size before relaxing)
 .rodata.str1.4
                0x0000000000014bc8       0x1f ../../../../lib/usbhost/libusbhost.a(endpoint.o)
 .rodata.str1.1
                0x0000000000014be7       0x46 ../../../../lib/usbhost/libusbhost.a(hcd.o)
                                         0x4f (size before relaxing)
 *fill*         0x0000000000014c2d        0x3 
 .rodata.str1.4
                0x0000000000014c30       0xda ../../../../lib/usbhost/libusbhost.a(hcd.o)
 .rodata.str1.1
                0x0000000000014d0a       0x52 ../../../../lib/usbhost/libusbhost.a(usb_bus.o)
                                         0x66 (size before relaxing)
 .rodata.str1.4
                0x0000000000014d5c       0xba ../../../../lib/usbhost/libusbhost.a(usb_bus.o)
 *fill*         0x0000000000014e16        0x2 
 .rodata.str1.4
                0x0000000000014e18       0x5f ../../../../lib/usbhost/libusbhost.a(usb_transfer_batch.o)
 .rodata.str1.1
                0x0000000000014e77       0x19 ../../../../lib/usbhost/libusbhost.a(usb_transfer_batch.o)
                                         0x22 (size before relaxing)
 .rodata.str1.1
                0x0000000000014e90       0x62 ../../../../lib/usbvirt/libusbvirt.a(stdreq.o)
 .rodata.str1.1
                0x0000000000014ef2       0x31 ../../../../lib/usbvirt/libusbvirt.a(virthub_base.o)
                                         0x43 (size before relaxing)
 *fill*         0x0000000000014f23        0x1 
 .rodata        0x0000000000014f24       0x3a ../../../../lib/usbvirt/libusbvirt.a(virthub_descriptors.o)
                0x0000000000014f24                virthub_interface_descriptor_ex
                0x0000000000014f2c                virthub_configuration_descriptor_without_hub_size
                0x0000000000014f38                virthub_endpoint_descriptor
                0x0000000000014f40                virthub_interface_descriptor
                0x0000000000014f4c                virthub_device_descriptor
 .rodata.str1.1
                0x0000000000014f5e       0x1b ../../../../lib/usbvirt/libusbvirt.a(transfer.o)
                                         0x1f (size before relaxing)
 *fill*         0x0000000000014f79        0x3 
 .rodata.str1.4
                0x0000000000014f7c       0x29 ../../../../lib/usbvirt/libusbvirt.a(transfer.o)
 .rodata.str1.1
                0x0000000000014fa5       0x2d ../../../../lib/usbvirt/libusbvirt.a(ctrltransfer.o)
                                         0x37 (size before relaxing)
 .rodata.str1.1
                0x0000000000014fd2       0xb1 ../../../../lib/usb/libusb.a(class.o)
                                         0xb5 (size before relaxing)
 .rodata.str1.1
                0x0000000000015083       0x66 ../../../../lib/usb/libusb.a(usb.o)
                                         0x6a (size before relaxing)
 *fill*         0x00000000000150e9        0x3 
 .rodata        0x00000000000150ec       0x38 ../../../../lib/usb/libusb.a(usb.o)
 .rodata.str1.1
                0x0000000000015124      0x156 ../../../../lib/drv/libdrv.a(driver.o)
 *fill*         0x000000000001527a        0x2 
 .rodata.str1.4
                0x000000000001527c      0x1b0 ../../../../lib/drv/libdrv.a(driver.o)
 .rodata        0x000000000001542c       0x14 ../../../../lib/drv/libdrv.a(driver.o)
 .rodata.str1.1
                0x0000000000015440       0x14 ../../../../lib/drv/libdrv.a(dev_iface.o)
                                         0x2c (size before relaxing)
 *fill*         0x0000000000015454        0xc 
 .rodata        0x0000000000015460       0x3c ../../../../lib/drv/libdrv.a(dev_iface.o)
 .rodata.str1.1
                0x000000000001549c       0x52 ../../../../lib/drv/libdrv.a(logbuf.o)
                                         0x59 (size before relaxing)
 *fill*         0x00000000000154ee        0x2 
 .rodata        0x00000000000154f0       0x18 ../../../../lib/drv/libdrv.a(remote_audio_mixer.o)
                0x00000000000154f0                remote_audio_mixer_iface
 .rodata.str1.1
                0x0000000000015508      0x1c4 ../../../../lib/drv/libdrv.a(remote_audio_pcm.o)
 .rodata.str1.4
                0x00000000000156cc       0x88 ../../../../lib/drv/libdrv.a(remote_audio_pcm.o)
 *fill*         0x0000000000015754        0xc 
 .rodata        0x0000000000015760     0x1070 ../../../../lib/drv/libdrv.a(remote_audio_pcm.o)
                0x0000000000016794                remote_audio_pcm_iface
 .rodata        0x00000000000167d0       0x18 ../../../../lib/drv/libdrv.a(remote_hw_res.o)
                0x00000000000167d0                remote_hw_res_iface
 .rodata        0x00000000000167e8        0xc ../../../../lib/drv/libdrv.a(remote_pio_window.o)
                0x00000000000167e8                remote_pio_window_iface
 .rodata        0x00000000000167f4       0x10 ../../../../lib/drv/libdrv.a(remote_char_dev.o)
                0x00000000000167f4                remote_char_dev_iface
 .rodata.str1.1
                0x0000000000016804       0xcc ../../../../lib/drv/libdrv.a(remote_nic.o)
                                         0xe4 (size before relaxing)
 *fill*         0x00000000000168d0       0x10 
 .rodata        0x00000000000168e0       0xc4 ../../../../lib/drv/libdrv.a(remote_nic.o)
                0x00000000000168e0                remote_nic_iface
 .rodata.str1.1
                0x00000000000169a4       0x68 ../../../../lib/drv/libdrv.a(remote_ieee80211.o)
                                         0x69 (size before relaxing)
 .rodata.str1.4
                0x0000000000016a0c       0x22 ../../../../lib/drv/libdrv.a(remote_ieee80211.o)
 *fill*         0x0000000000016a2e        0x2 
 .rodata        0x0000000000016a30       0x14 ../../../../lib/drv/libdrv.a(remote_ieee80211.o)
                0x0000000000016a30                remote_ieee80211_iface
 .rodata.str1.1
                0x0000000000016a44       0x20 ../../../../lib/drv/libdrv.a(remote_usb.o)
                                         0x24 (size before relaxing)
 *fill*         0x0000000000016a64       0x1c 
 .rodata        0x0000000000016a80       0x48 ../../../../lib/drv/libdrv.a(remote_usb.o)
                0x0000000000016a80                remote_usb_iface
 .rodata.str1.1
                0x0000000000016ac8       0x15 ../../../../lib/drv/libdrv.a(remote_pci.o)
                                         0x1b (size before relaxing)
 *fill*         0x0000000000016add        0x3 
 .rodata        0x0000000000016ae0       0x20 ../../../../lib/drv/libdrv.a(remote_pci.o)
                0x0000000000016ae0                remote_pci_iface
 .rodata.str1.1
                0x0000000000016b00       0x17 ../../../../lib/drv/libdrv.a(remote_usbhc.o)
                                         0x26 (size before relaxing)
 *fill*         0x0000000000016b17        0x1 
 .rodata        0x0000000000016b18       0x10 ../../../../lib/drv/libdrv.a(remote_usbhc.o)
                0x0000000000016b18                remote_usbhc_iface
 .rodata.str1.4
                0x0000000000016b28       0x24 ../../../../lib/drv/libdrv.a(remote_usbhid.o)
                                         0x22 (size before relaxing)
 .rodata.str1.1
                0x0000000000016b4c       0x1b ../../../../lib/drv/libdrv.a(remote_usbhid.o)
 *fill*         0x0000000000016b67        0x1 
 .rodata        0x0000000000016b68       0x18 ../../../../lib/drv/libdrv.a(remote_usbhid.o)
                0x0000000000016b68                remote_usbhid_iface
 .rodata        0x0000000000016b80       0x10 ../../../../lib/drv/libdrv.a(remote_clock_dev.o)
                0x0000000000016b80                remote_clock_dev_iface
 .rodata        0x0000000000016b90        0xc ../../../../lib/drv/libdrv.a(remote_led_dev.o)
                0x0000000000016b90                remote_led_dev_iface
 .rodata        0x0000000000016b9c       0x10 ../../../../lib/drv/libdrv.a(remote_battery_dev.o)
                0x0000000000016b9c                remote_battery_dev_iface
 .rodata.str1.1
                0x0000000000016bac        0x6 ../../../../lib/drv/libdrv.a(remote_ahci.o)
 *fill*         0x0000000000016bb2        0x2 
 .rodata        0x0000000000016bb4       0x1c ../../../../lib/drv/libdrv.a(remote_ahci.o)
                0x0000000000016bb4                remote_ahci_iface

.rel.plt        0x0000000000016bd0      0x338
 *(.rel.plt)
 .rel.plt       0x0000000000016bd0      0x338 /home/ayyuce/Desktop/HlnOS/HelenOS/uspace/lib/c/arch/ia32/src/entry.o

.rel.dyn        0x0000000000016f08       0x10
 *(.rel.*)
 .rel.got       0x0000000000016f08        0x0 /home/ayyuce/Desktop/HlnOS/HelenOS/uspace/lib/c/arch/ia32/src/entry.o
 .rel.bss       0x0000000000016f08       0x10 /home/ayyuce/Desktop/HlnOS/HelenOS/uspace/lib/c/arch/ia32/src/entry.o
 .rel.init      0x0000000000016f18        0x0 /home/ayyuce/Desktop/HlnOS/HelenOS/uspace/lib/c/arch/ia32/src/entry.o
 .rel.text      0x0000000000016f18        0x0 /home/ayyuce/Desktop/HlnOS/HelenOS/uspace/lib/c/arch/ia32/src/entry.o
 .rel.text.unlikely
                0x0000000000016f18        0x0 /home/ayyuce/Desktop/HlnOS/HelenOS/uspace/lib/c/arch/ia32/src/entry.o
 .rel.text.startup
                0x0000000000016f18        0x0 /home/ayyuce/Desktop/HlnOS/HelenOS/uspace/lib/c/arch/ia32/src/entry.o

.plt            0x0000000000016f20      0x680
 *(.plt)
 .plt           0x0000000000016f20      0x680 /home/ayyuce/Desktop/HlnOS/HelenOS/uspace/lib/c/arch/ia32/src/entry.o
                0x0000000000016f30                __main
                0x0000000000016f40                loc_category_get_id
                0x0000000000016f50                devman_device_connect
                0x0000000000016f60                task_retval
                0x0000000000016f70                loc_service_connect
                0x0000000000016f80                inetcfg_sroute_get
                0x0000000000016f90                printf
                0x0000000000016fa0                async_hangup
                0x0000000000016fb0                hw_res_enable_interrupt
                0x0000000000016fc0                async_wait_for
                0x0000000000016fd0                inetcfg_addr_get
                0x0000000000016fe0                devman_parent_device_connect
                0x0000000000016ff0                snprintf
                0x0000000000017000                log_init
                0x0000000000017010                async_data_write_start
                0x0000000000017020                fibril_mutex_is_locked
                0x0000000000017030                devman_drv_fun_online
                0x0000000000017040                async_data_read_finalize
                0x0000000000017050                async_share_in_start
                0x0000000000017060                async_irq_unsubscribe
                0x0000000000017070                memcpy
                0x0000000000017080                pio_enable_range
                0x0000000000017090                pio_read_32
                0x00000000000170a0                malloc
                0x00000000000170b0                devman_add_device_to_category
                0x00000000000170c0                async_share_out_receive
                0x00000000000170d0                fibril_condvar_signal
                0x00000000000170e0                async_irq_subscribe
                0x00000000000170f0                async_req_fast
                0x0000000000017100                str_append
                0x0000000000017110                async_answer_0
                0x0000000000017120                fibril_condvar_wait
                0x0000000000017130                async_send_fast
                0x0000000000017140                log_msg
                0x0000000000017150                logctl_set_log_level
                0x0000000000017160                async_data_read
                0x0000000000017170                log_msgv
                0x0000000000017180                devman_add_function
                0x0000000000017190                pio_read_8
                0x00000000000171a0                async_exchange_end
                0x00000000000171b0                assert_abort
                0x00000000000171c0                inetcfg_get_sroute_list
                0x00000000000171d0                calloc
                0x00000000000171e0                inetcfg_addr_delete
                0x00000000000171f0                dmamem_unmap_anonymous
                0x0000000000017200                devman_remove_function
                0x0000000000017210                fibril_condvar_initialize
                0x0000000000017220                async_share_out_finalize
                0x0000000000017230                str_test_prefix
                0x0000000000017240                fibril_condvar_broadcast
                0x0000000000017250                async_answer_2
                0x0000000000017260                fibril_mutex_unlock
                0x0000000000017270                async_callback_receive_start
                0x0000000000017280                str_dup
                0x0000000000017290                fibril_mutex_initialize
                0x00000000000172a0                async_answer_4
                0x00000000000172b0                inetcfg_get_addr_list
                0x00000000000172c0                async_send_slow
                0x00000000000172d0                pio_write_32
                0x00000000000172e0                inetcfg_link_get
                0x00000000000172f0                as_get_physical_mapping
                0x0000000000017300                devman_drv_fun_offline
                0x0000000000017310                udelay
                0x0000000000017320                async_create_callback_port
                0x0000000000017330                dhcp_discover
                0x0000000000017340                devman_driver_register
                0x0000000000017350                memset
                0x0000000000017360                async_data_read_receive
                0x0000000000017370                async_data_read_start
                0x0000000000017380                dmamem_map_anonymous
                0x0000000000017390                async_share_in_receive
                0x00000000000173a0                str_cpy
                0x00000000000173b0                list_member
                0x00000000000173c0                async_usleep
                0x00000000000173d0                asprintf
                0x00000000000173e0                inetcfg_sroute_delete
                0x00000000000173f0                loc_category_get_svcs
                0x0000000000017400                async_get_call_timeout
                0x0000000000017410                str_size
                0x0000000000017420                list_count
                0x0000000000017430                str_lcmp
                0x0000000000017440                async_answer_1
                0x0000000000017450                async_exchange_begin
                0x0000000000017460                str_error
                0x0000000000017470                devman_fun_get_handle
                0x0000000000017480                async_share_in_finalize
                0x0000000000017490                async_answer_3
                0x00000000000174a0                async_share_out_start
                0x00000000000174b0                async_create_port
                0x00000000000174c0                async_data_write_finalize
                0x00000000000174d0                async_data_write_accept
                0x00000000000174e0                async_forget
                0x00000000000174f0                fibril_create_generic
                0x0000000000017500                hw_res_get_list_parsed
                0x0000000000017510                fibril_add_ready
                0x0000000000017520                fibril_switch
                0x0000000000017530                inetcfg_get_link_list
                0x0000000000017540                __syscall_fast
                0x0000000000017550                async_set_fallback_port_handler
                0x0000000000017560                async_data_write_receive
                0x0000000000017570                free
                0x0000000000017580                devman_fun_get_name
                0x0000000000017590                fibril_mutex_lock

.dynsym         0x00000000000175a0      0x6c0
 *(.dynsym)
 .dynsym        0x00000000000175a0      0x6c0 /home/ayyuce/Desktop/HlnOS/HelenOS/uspace/lib/c/arch/ia32/src/entry.o

.dynstr         0x0000000000017c60      0x768
 *(.dynstr)
 .dynstr        0x0000000000017c60      0x768 /home/ayyuce/Desktop/HlnOS/HelenOS/uspace/lib/c/arch/ia32/src/entry.o

.hash           0x00000000000183c8      0x33c
 *(.hash)
 .hash          0x00000000000183c8      0x33c /home/ayyuce/Desktop/HlnOS/HelenOS/uspace/lib/c/arch/ia32/src/entry.o

.interp         0x0000000000018704       0x13
 *(.interp)
 .interp        0x0000000000018704       0x13 /home/ayyuce/Desktop/HlnOS/HelenOS/uspace/lib/c/arch/ia32/src/entry.o
                0x0000000000019717                . = (. + 0x1000)

.dynamic        0x0000000000019718       0xa8
 *(.dynamic)
 .dynamic       0x0000000000019718       0xa8 /home/ayyuce/Desktop/HlnOS/HelenOS/uspace/lib/c/arch/ia32/src/entry.o
                0x0000000000019718                _DYNAMIC

.data           0x00000000000197c0      0x1c4
 *(.data)
 .data          0x00000000000197c0        0x0 /home/ayyuce/Desktop/HlnOS/HelenOS/uspace/lib/c/arch/ia32/src/entry.o
 .data          0x00000000000197c0        0x0 ehci_batch.o
 .data          0x00000000000197c0        0x0 ehci_endpoint.o
 .data          0x00000000000197c0       0x88 ehci_rh.o
 .data          0x0000000000019848        0x0 endpoint_list.o
 .data          0x0000000000019848        0x0 hc.o
 .data          0x0000000000019848        0x0 hw_struct/queue_head.o
 .data          0x0000000000019848        0x0 hw_struct/transfer_descriptor.o
 .data          0x0000000000019848        0x0 main.o
 .data          0x0000000000019848        0x0 res.o
 *fill*         0x0000000000019848       0x18 
 .data          0x0000000000019860       0x88 ../../../../lib/usbhost/libusbhost.a(ddf_helpers.o)
 .data          0x00000000000198e8        0x0 ../../../../lib/usbhost/libusbhost.a(endpoint.o)
 .data          0x00000000000198e8        0x0 ../../../../lib/usbhost/libusbhost.a(hcd.o)
 .data          0x00000000000198e8        0x0 ../../../../lib/usbhost/libusbhost.a(usb_bus.o)
 .data          0x00000000000198e8        0x0 ../../../../lib/usbhost/libusbhost.a(usb_transfer_batch.o)
 *fill*         0x00000000000198e8       0x18 
 .data          0x0000000000019900       0x54 ../../../../lib/usbvirt/libusbvirt.a(stdreq.o)
                0x0000000000019900                library_handlers
 .data          0x0000000000019954        0x0 ../../../../lib/usbvirt/libusbvirt.a(virthub_base.o)
 .data          0x0000000000019954        0x0 ../../../../lib/usbvirt/libusbvirt.a(virthub_descriptors.o)
 .data          0x0000000000019954        0x0 ../../../../lib/usbvirt/libusbvirt.a(transfer.o)
 .data          0x0000000000019954        0x0 ../../../../lib/usbvirt/libusbvirt.a(ctrltransfer.o)
 .data          0x0000000000019954        0x0 ../../../../lib/usb/libusb.a(class.o)
 .data          0x0000000000019954        0x0 ../../../../lib/usb/libusb.a(debug.o)
 .data          0x0000000000019954        0x0 ../../../../lib/usb/libusb.a(usb.o)
 .data          0x0000000000019954       0x30 ../../../../lib/drv/libdrv.a(driver.o)
                0x0000000000019954                functions_mutex
                0x0000000000019964                functions
                0x000000000001996c                devices_mutex
                0x000000000001997c                devices
 .data          0x0000000000019984        0x0 ../../../../lib/drv/libdrv.a(dev_iface.o)
 .data          0x0000000000019984        0x0 ../../../../lib/drv/libdrv.a(interrupt.o)
 .data          0x0000000000019984        0x0 ../../../../lib/drv/libdrv.a(logbuf.o)
 .data          0x0000000000019984        0x0 ../../../../lib/drv/libdrv.a(remote_audio_mixer.o)
 .data          0x0000000000019984        0x0 ../../../../lib/drv/libdrv.a(remote_audio_pcm.o)
 .data          0x0000000000019984        0x0 ../../../../lib/drv/libdrv.a(remote_hw_res.o)
 .data          0x0000000000019984        0x0 ../../../../lib/drv/libdrv.a(remote_pio_window.o)
 .data          0x0000000000019984        0x0 ../../../../lib/drv/libdrv.a(remote_char_dev.o)
 .data          0x0000000000019984        0x0 ../../../../lib/drv/libdrv.a(remote_nic.o)
 .data          0x0000000000019984        0x0 ../../../../lib/drv/libdrv.a(remote_ieee80211.o)
 .data          0x0000000000019984        0x0 ../../../../lib/drv/libdrv.a(remote_usb.o)
 .data          0x0000000000019984        0x0 ../../../../lib/drv/libdrv.a(remote_pci.o)
 .data          0x0000000000019984        0x0 ../../../../lib/drv/libdrv.a(remote_usbhc.o)
 .data          0x0000000000019984        0x0 ../../../../lib/drv/libdrv.a(remote_usbhid.o)
 .data          0x0000000000019984        0x0 ../../../../lib/drv/libdrv.a(remote_clock_dev.o)
 .data          0x0000000000019984        0x0 ../../../../lib/drv/libdrv.a(remote_led_dev.o)
 .data          0x0000000000019984        0x0 ../../../../lib/drv/libdrv.a(remote_battery_dev.o)
 .data          0x0000000000019984        0x0 ../../../../lib/drv/libdrv.a(remote_ahci.o)
 .data          0x0000000000019984        0x0 ../../../../lib/drv/libdrv.a(log.o)

.data.rel
 *(.data.rel .data.rel.*)

.got            0x0000000000019984        0x0
 *(.got)
 .got           0x0000000000019984        0x0 /home/ayyuce/Desktop/HlnOS/HelenOS/uspace/lib/c/arch/ia32/src/entry.o

.got.plt        0x0000000000019984      0x1a8
 *(.got.plt)
 .got.plt       0x0000000000019984      0x1a8 /home/ayyuce/Desktop/HlnOS/HelenOS/uspace/lib/c/arch/ia32/src/entry.o
                0x0000000000019984                _GLOBAL_OFFSET_TABLE_

.tdata
 *(.tdata)
 *(.gnu.linkonce.tb.*)

.tbss           0x0000000000019b2c      0x1e4
 *(.tbss)
 .tbss          0x0000000000019b2c      0x1e4 ../../../../lib/usb/libusb.a(debug.o)

.bss            0x0000000000019b30       0x19
 *(.dynbss)
 *fill*         0x0000000000019b30        0x0 
 .dynbss        0x0000000000019b30        0x8 /home/ayyuce/Desktop/HlnOS/HelenOS/uspace/lib/c/arch/ia32/src/entry.o
                0x0000000000019b30                __syscall_fast_func
                0x0000000000019b34                async_futex
 *(COMMON)
 COMMON         0x0000000000019b38        0x4 ehci_endpoint.o
                0x0000000000019b38                assert
 COMMON         0x0000000000019b3c        0x4 ../../../../lib/drv/libdrv.a(remote_usb.o)
                0x0000000000019b3c                static_assert
 *(.bss)
 .bss           0x0000000000019b40        0x0 /home/ayyuce/Desktop/HlnOS/HelenOS/uspace/lib/c/arch/ia32/src/entry.o
 .bss           0x0000000000019b40        0x0 ehci_batch.o
 .bss           0x0000000000019b40        0x0 ehci_endpoint.o
 .bss           0x0000000000019b40        0x0 ehci_rh.o
 .bss           0x0000000000019b40        0x0 endpoint_list.o
 .bss           0x0000000000019b40        0x0 hc.o
 .bss           0x0000000000019b40        0x0 hw_struct/queue_head.o
 .bss           0x0000000000019b40        0x0 hw_struct/transfer_descriptor.o
 .bss           0x0000000000019b40        0x0 main.o
 .bss           0x0000000000019b40        0x0 res.o
 .bss           0x0000000000019b40        0x0 ../../../../lib/usbhost/libusbhost.a(ddf_helpers.o)
 .bss           0x0000000000019b40        0x0 ../../../../lib/usbhost/libusbhost.a(endpoint.o)
 .bss           0x0000000000019b40        0x0 ../../../../lib/usbhost/libusbhost.a(hcd.o)
 .bss           0x0000000000019b40        0x0 ../../../../lib/usbhost/libusbhost.a(usb_bus.o)
 .bss           0x0000000000019b40        0x0 ../../../../lib/usbhost/libusbhost.a(usb_transfer_batch.o)
 .bss           0x0000000000019b40        0x0 ../../../../lib/usbvirt/libusbvirt.a(stdreq.o)
 .bss           0x0000000000019b40        0x0 ../../../../lib/usbvirt/libusbvirt.a(virthub_base.o)
 .bss           0x0000000000019b40        0x0 ../../../../lib/usbvirt/libusbvirt.a(virthub_descriptors.o)
 .bss           0x0000000000019b40        0x0 ../../../../lib/usbvirt/libusbvirt.a(transfer.o)
 .bss           0x0000000000019b40        0x0 ../../../../lib/usbvirt/libusbvirt.a(ctrltransfer.o)
 .bss           0x0000000000019b40        0x0 ../../../../lib/usb/libusb.a(class.o)
 .bss           0x0000000000019b40        0x0 ../../../../lib/usb/libusb.a(debug.o)
 .bss           0x0000000000019b40        0x0 ../../../../lib/usb/libusb.a(usb.o)
 .bss           0x0000000000019b40        0x4 ../../../../lib/drv/libdrv.a(driver.o)
 .bss           0x0000000000019b44        0x0 ../../../../lib/drv/libdrv.a(dev_iface.o)
 .bss           0x0000000000019b44        0x0 ../../../../lib/drv/libdrv.a(interrupt.o)
 .bss           0x0000000000019b44        0x0 ../../../../lib/drv/libdrv.a(logbuf.o)
 .bss           0x0000000000019b44        0x0 ../../../../lib/drv/libdrv.a(remote_audio_mixer.o)
 .bss           0x0000000000019b44        0x5 ../../../../lib/drv/libdrv.a(remote_audio_pcm.o)
 .bss           0x0000000000019b49        0x0 ../../../../lib/drv/libdrv.a(remote_hw_res.o)
 .bss           0x0000000000019b49        0x0 ../../../../lib/drv/libdrv.a(remote_pio_window.o)
 .bss           0x0000000000019b49        0x0 ../../../../lib/drv/libdrv.a(remote_char_dev.o)
 .bss           0x0000000000019b49        0x0 ../../../../lib/drv/libdrv.a(remote_nic.o)
 .bss           0x0000000000019b49        0x0 ../../../../lib/drv/libdrv.a(remote_ieee80211.o)
 .bss           0x0000000000019b49        0x0 ../../../../lib/drv/libdrv.a(remote_usb.o)
 .bss           0x0000000000019b49        0x0 ../../../../lib/drv/libdrv.a(remote_pci.o)
 .bss           0x0000000000019b49        0x0 ../../../../lib/drv/libdrv.a(remote_usbhc.o)
 .bss           0x0000000000019b49        0x0 ../../../../lib/drv/libdrv.a(remote_usbhid.o)
 .bss           0x0000000000019b49        0x0 ../../../../lib/drv/libdrv.a(remote_clock_dev.o)
 .bss           0x0000000000019b49        0x0 ../../../../lib/drv/libdrv.a(remote_led_dev.o)
 .bss           0x0000000000019b49        0x0 ../../../../lib/drv/libdrv.a(remote_battery_dev.o)
 .bss           0x0000000000019b49        0x0 ../../../../lib/drv/libdrv.a(remote_ahci.o)
 .bss           0x0000000000019b49        0x0 ../../../../lib/drv/libdrv.a(log.o)

/DISCARD/
 *(*)
LOAD ehci_batch.o
LOAD ehci_endpoint.o
LOAD ehci_rh.o
LOAD endpoint_list.o
LOAD hc.o
LOAD hw_struct/queue_head.o
LOAD hw_struct/transfer_descriptor.o
LOAD main.o
LOAD res.o
LOAD ../../../../lib/usbhost/libusbhost.a
LOAD ../../../../lib/usbvirt/libusbvirt.a
LOAD ../../../../lib/usb/libusb.a
LOAD ../../../../lib/drv/libdrv.a
LOAD ../../../../lib/c/libc.so.0
LOAD ../../../../lib/softint/libsoftint.so.0
OUTPUT(ehci elf32-i386)
