
ehci:     file format elf32-i386


Disassembly of section .init:

000010f4 <__entry>:
    10f4:	66 8c d0             	mov    %ss,%ax
    10f7:	8e d8                	mov    %eax,%ds
    10f9:	8e c0                	mov    %eax,%es
    10fb:	8e e0                	mov    %eax,%fs
    10fd:	b8 01 00 00 00       	mov    $0x1,%eax
    1102:	0f a2                	cpuid  
    1104:	0f ba e2 0b          	bt     $0xb,%edx
    1108:	73 0c                	jae    1116 <__entry+0x22>
    110a:	8d 05 30 9b 01 00    	lea    0x19b30,%eax
    1110:	c7 00 40 75 01 00    	movl   $0x17540,(%eax)
    1116:	6a 00                	push   $0x0
    1118:	6a 00                	push   $0x0
    111a:	89 e5                	mov    %esp,%ebp
    111c:	57                   	push   %edi
    111d:	e8 0e 5e 01 00       	call   16f30 <__main@plt>

Disassembly of section .text:

00001140 <batch_data>:
    1140:	55                   	push   %ebp
    1141:	89 e5                	mov    %esp,%ebp
    1143:	57                   	push   %edi
    1144:	56                   	push   %esi
    1145:	53                   	push   %ebx
    1146:	83 ec 3c             	sub    $0x3c,%esp
    1149:	8b 7d 08             	mov    0x8(%ebp),%edi
    114c:	85 ff                	test   %edi,%edi
    114e:	0f 84 ab 01 00 00    	je     12ff <batch_data+0x1bf>
    1154:	8b 77 18             	mov    0x18(%edi),%esi
    1157:	85 f6                	test   %esi,%esi
    1159:	0f 84 8b 01 00 00    	je     12ea <batch_data+0x1aa>
    115f:	83 7d 0c 01          	cmpl   $0x1,0xc(%ebp)
    1163:	0f 87 6c 01 00 00    	ja     12d5 <batch_data+0x195>
    1169:	8b 47 08             	mov    0x8(%edi),%eax
    116c:	8b 58 14             	mov    0x14(%eax),%ebx
    116f:	8b 70 10             	mov    0x10(%eax),%esi
    1172:	8b 48 0c             	mov    0xc(%eax),%ecx
    1175:	8b 50 18             	mov    0x18(%eax),%edx
    1178:	89 55 d4             	mov    %edx,-0x2c(%ebp)
    117b:	8b 50 08             	mov    0x8(%eax),%edx
    117e:	89 55 d0             	mov    %edx,-0x30(%ebp)
    1181:	8b 50 04             	mov    0x4(%eax),%edx
    1184:	89 55 cc             	mov    %edx,-0x34(%ebp)
    1187:	52                   	push   %edx
    1188:	52                   	push   %edx
    1189:	8d 55 e4             	lea    -0x1c(%ebp),%edx
    118c:	52                   	push   %edx
    118d:	89 4d c8             	mov    %ecx,-0x38(%ebp)
    1190:	50                   	push   %eax
    1191:	e8 5a 61 01 00       	call   172f0 <as_get_physical_mapping@plt>
    1196:	83 c4 10             	add    $0x10,%esp
    1199:	31 d2                	xor    %edx,%edx
    119b:	8b 4d c8             	mov    -0x38(%ebp),%ecx
    119e:	85 c0                	test   %eax,%eax
    11a0:	75 03                	jne    11a5 <batch_data+0x65>
    11a2:	8b 55 e4             	mov    -0x1c(%ebp),%edx
    11a5:	50                   	push   %eax
    11a6:	8b 45 d4             	mov    -0x2c(%ebp),%eax
    11a9:	53                   	push   %ebx
    11aa:	56                   	push   %esi
    11ab:	51                   	push   %ecx
    11ac:	50                   	push   %eax
    11ad:	8b 45 d0             	mov    -0x30(%ebp),%eax
    11b0:	50                   	push   %eax
    11b1:	8b 45 cc             	mov    -0x34(%ebp),%eax
    11b4:	50                   	push   %eax
    11b5:	8b 47 18             	mov    0x18(%edi),%eax
    11b8:	52                   	push   %edx
    11b9:	50                   	push   %eax
    11ba:	68 94 2b 01 00       	push   $0x12b94
    11bf:	6a 05                	push   $0x5
    11c1:	6a ff                	push   $0xffffffff
    11c3:	e8 78 5f 01 00       	call   17140 <log_msg@plt>
    11c8:	8b 47 18             	mov    0x18(%edi),%eax
    11cb:	8b 77 14             	mov    0x14(%edi),%esi
    11ce:	83 c4 30             	add    $0x30,%esp
    11d1:	89 75 cc             	mov    %esi,-0x34(%ebp)
    11d4:	8b 40 14             	mov    0x14(%eax),%eax
    11d7:	c7 45 d0 00 00 00 00 	movl   $0x0,-0x30(%ebp)
    11de:	89 45 d4             	mov    %eax,-0x2c(%ebp)
    11e1:	85 c0                	test   %eax,%eax
    11e3:	0f 85 9c 00 00 00    	jne    1285 <batch_data+0x145>
    11e9:	e9 ca 00 00 00       	jmp    12b8 <batch_data+0x178>
    11ee:	66 90                	xchg   %ax,%ax
    11f0:	8b 5d d0             	mov    -0x30(%ebp),%ebx
    11f3:	8b 4c 98 04          	mov    0x4(%eax,%ebx,4),%ecx
    11f7:	c1 e3 02             	shl    $0x2,%ebx
    11fa:	83 ec 04             	sub    $0x4,%esp
    11fd:	52                   	push   %edx
    11fe:	8b 55 cc             	mov    -0x34(%ebp),%edx
    1201:	6a ff                	push   $0xffffffff
    1203:	56                   	push   %esi
    1204:	52                   	push   %edx
    1205:	8b 55 0c             	mov    0xc(%ebp),%edx
    1208:	52                   	push   %edx
    1209:	51                   	push   %ecx
    120a:	8b 0c 18             	mov    (%eax,%ebx,1),%ecx
    120d:	51                   	push   %ecx
    120e:	e8 8d 35 00 00       	call   47a0 <td_init>
    1213:	8b 47 0c             	mov    0xc(%edi),%eax
    1216:	83 c4 18             	add    $0x18,%esp
    1219:	8b 04 18             	mov    (%eax,%ebx,1),%eax
    121c:	8b 48 04             	mov    0x4(%eax),%ecx
    121f:	8b 10                	mov    (%eax),%edx
    1221:	89 4d c4             	mov    %ecx,-0x3c(%ebp)
    1224:	8d 4d e4             	lea    -0x1c(%ebp),%ecx
    1227:	8b 58 08             	mov    0x8(%eax),%ebx
    122a:	89 55 c8             	mov    %edx,-0x38(%ebp)
    122d:	51                   	push   %ecx
    122e:	50                   	push   %eax
    122f:	e8 bc 60 01 00       	call   172f0 <as_get_physical_mapping@plt>
    1234:	83 c4 10             	add    $0x10,%esp
    1237:	31 d2                	xor    %edx,%edx
    1239:	8b 4d c4             	mov    -0x3c(%ebp),%ecx
    123c:	85 c0                	test   %eax,%eax
    123e:	75 03                	jne    1243 <batch_data+0x103>
    1240:	8b 55 e4             	mov    -0x1c(%ebp),%edx
    1243:	8b 45 c8             	mov    -0x38(%ebp),%eax
    1246:	51                   	push   %ecx
    1247:	50                   	push   %eax
    1248:	8b 47 18             	mov    0x18(%edi),%eax
    124b:	53                   	push   %ebx
    124c:	52                   	push   %edx
    124d:	50                   	push   %eax
    124e:	68 cc 2b 01 00       	push   $0x12bcc
    1253:	6a 05                	push   $0x5
    1255:	6a ff                	push   $0xffffffff
    1257:	e8 e4 5e 01 00       	call   17140 <log_msg@plt>
    125c:	8b 45 cc             	mov    -0x34(%ebp),%eax
    125f:	01 f0                	add    %esi,%eax
    1261:	83 c4 20             	add    $0x20,%esp
    1264:	89 45 cc             	mov    %eax,-0x34(%ebp)
    1267:	8b 45 d4             	mov    -0x2c(%ebp),%eax
    126a:	29 f0                	sub    %esi,%eax
    126c:	89 45 d4             	mov    %eax,-0x2c(%ebp)
    126f:	8b 45 d0             	mov    -0x30(%ebp),%eax
    1272:	39 47 10             	cmp    %eax,0x10(%edi)
    1275:	76 49                	jbe    12c0 <batch_data+0x180>
    1277:	8b 45 d0             	mov    -0x30(%ebp),%eax
    127a:	8b 55 d4             	mov    -0x2c(%ebp),%edx
    127d:	40                   	inc    %eax
    127e:	85 d2                	test   %edx,%edx
    1280:	89 45 d0             	mov    %eax,-0x30(%ebp)
    1283:	74 33                	je     12b8 <batch_data+0x178>
    1285:	8b 45 d4             	mov    -0x2c(%ebp),%eax
    1288:	89 c6                	mov    %eax,%esi
    128a:	3d 00 40 00 00       	cmp    $0x4000,%eax
    128f:	76 05                	jbe    1296 <batch_data+0x156>
    1291:	be 00 40 00 00       	mov    $0x4000,%esi
    1296:	31 d2                	xor    %edx,%edx
    1298:	39 c6                	cmp    %eax,%esi
    129a:	0f 94 c2             	sete   %dl
    129d:	39 c6                	cmp    %eax,%esi
    129f:	8b 47 0c             	mov    0xc(%edi),%eax
    12a2:	0f 85 48 ff ff ff    	jne    11f0 <batch_data+0xb0>
    12a8:	31 c9                	xor    %ecx,%ecx
    12aa:	8b 5d d0             	mov    -0x30(%ebp),%ebx
    12ad:	e9 45 ff ff ff       	jmp    11f7 <batch_data+0xb7>
    12b2:	8d b6 00 00 00 00    	lea    0x0(%esi),%esi
    12b8:	8d 65 f4             	lea    -0xc(%ebp),%esp
    12bb:	5b                   	pop    %ebx
    12bc:	5e                   	pop    %esi
    12bd:	5f                   	pop    %edi
    12be:	5d                   	pop    %ebp
    12bf:	c3                   	ret    
    12c0:	51                   	push   %ecx
    12c1:	68 82 01 00 00       	push   $0x182
    12c6:	68 be 2a 01 00       	push   $0x12abe
    12cb:	68 f4 2b 01 00       	push   $0x12bf4
    12d0:	e8 db 5e 01 00       	call   171b0 <assert_abort@plt>
    12d5:	51                   	push   %ecx
    12d6:	68 63 01 00 00       	push   $0x163
    12db:	68 be 2a 01 00       	push   $0x12abe
    12e0:	68 60 2b 01 00       	push   $0x12b60
    12e5:	e8 c6 5e 01 00       	call   171b0 <assert_abort@plt>
    12ea:	53                   	push   %ebx
    12eb:	68 62 01 00 00       	push   $0x162
    12f0:	68 be 2a 01 00       	push   $0x12abe
    12f5:	68 d6 2a 01 00       	push   $0x12ad6
    12fa:	e8 b1 5e 01 00       	call   171b0 <assert_abort@plt>
    12ff:	57                   	push   %edi
    1300:	68 61 01 00 00       	push   $0x161
    1305:	68 be 2a 01 00       	push   $0x12abe
    130a:	68 cb 2a 01 00       	push   $0x12acb
    130f:	e8 9c 5e 01 00       	call   171b0 <assert_abort@plt>
    1314:	8d b6 00 00 00 00    	lea    0x0(%esi),%esi
    131a:	8d bf 00 00 00 00    	lea    0x0(%edi),%edi

00001320 <batch_control>:
    1320:	55                   	push   %ebp
    1321:	89 e5                	mov    %esp,%ebp
    1323:	57                   	push   %edi
    1324:	56                   	push   %esi
    1325:	53                   	push   %ebx
    1326:	83 ec 4c             	sub    $0x4c,%esp
    1329:	8b 7d 08             	mov    0x8(%ebp),%edi
    132c:	85 ff                	test   %edi,%edi
    132e:	0f 84 9d 02 00 00    	je     15d1 <batch_control+0x2b1>
    1334:	8b 77 18             	mov    0x18(%edi),%esi
    1337:	85 f6                	test   %esi,%esi
    1339:	0f 84 a7 02 00 00    	je     15e6 <batch_control+0x2c6>
    133f:	83 7d 0c 01          	cmpl   $0x1,0xc(%ebp)
    1343:	0f 87 b2 02 00 00    	ja     15fb <batch_control+0x2db>
    1349:	8b 47 08             	mov    0x8(%edi),%eax
    134c:	8b 58 14             	mov    0x14(%eax),%ebx
    134f:	8b 70 10             	mov    0x10(%eax),%esi
    1352:	8b 48 0c             	mov    0xc(%eax),%ecx
    1355:	8b 50 18             	mov    0x18(%eax),%edx
    1358:	89 55 d4             	mov    %edx,-0x2c(%ebp)
    135b:	8b 50 08             	mov    0x8(%eax),%edx
    135e:	89 55 d0             	mov    %edx,-0x30(%ebp)
    1361:	8b 50 04             	mov    0x4(%eax),%edx
    1364:	89 55 cc             	mov    %edx,-0x34(%ebp)
    1367:	52                   	push   %edx
    1368:	52                   	push   %edx
    1369:	8d 55 e4             	lea    -0x1c(%ebp),%edx
    136c:	52                   	push   %edx
    136d:	89 4d c8             	mov    %ecx,-0x38(%ebp)
    1370:	50                   	push   %eax
    1371:	e8 7a 5f 01 00       	call   172f0 <as_get_physical_mapping@plt>
    1376:	83 c4 10             	add    $0x10,%esp
    1379:	31 d2                	xor    %edx,%edx
    137b:	8b 4d c8             	mov    -0x38(%ebp),%ecx
    137e:	85 c0                	test   %eax,%eax
    1380:	75 03                	jne    1385 <batch_control+0x65>
    1382:	8b 55 e4             	mov    -0x1c(%ebp),%edx
    1385:	50                   	push   %eax
    1386:	8b 45 d4             	mov    -0x2c(%ebp),%eax
    1389:	53                   	push   %ebx
    138a:	56                   	push   %esi
    138b:	51                   	push   %ecx
    138c:	50                   	push   %eax
    138d:	8b 45 d0             	mov    -0x30(%ebp),%eax
    1390:	50                   	push   %eax
    1391:	8b 45 cc             	mov    -0x34(%ebp),%eax
    1394:	50                   	push   %eax
    1395:	8b 47 18             	mov    0x18(%edi),%eax
    1398:	52                   	push   %edx
    1399:	50                   	push   %eax
    139a:	68 18 2c 01 00       	push   $0x12c18
    139f:	6a 05                	push   $0x5
    13a1:	6a ff                	push   $0xffffffff
    13a3:	e8 98 5d 01 00       	call   17140 <log_msg@plt>
    13a8:	8b 45 0c             	mov    0xc(%ebp),%eax
    13ab:	83 c4 2c             	add    $0x2c,%esp
    13ae:	8b 57 18             	mov    0x18(%edi),%edx
    13b1:	8b 5f 14             	mov    0x14(%edi),%ebx
    13b4:	8b 04 85 d4 30 01 00 	mov    0x130d4(,%eax,4),%eax
    13bb:	89 45 b4             	mov    %eax,-0x4c(%ebp)
    13be:	8b 47 0c             	mov    0xc(%edi),%eax
    13c1:	6a 00                	push   $0x0
    13c3:	6a 00                	push   $0x0
    13c5:	8b 52 20             	mov    0x20(%edx),%edx
    13c8:	8b 48 04             	mov    0x4(%eax),%ecx
    13cb:	52                   	push   %edx
    13cc:	53                   	push   %ebx
    13cd:	6a 02                	push   $0x2
    13cf:	51                   	push   %ecx
    13d0:	8b 30                	mov    (%eax),%esi
    13d2:	56                   	push   %esi
    13d3:	e8 c8 33 00 00       	call   47a0 <td_init>
    13d8:	8b 47 0c             	mov    0xc(%edi),%eax
    13db:	83 c4 18             	add    $0x18,%esp
    13de:	8b 00                	mov    (%eax),%eax
    13e0:	8b 70 04             	mov    0x4(%eax),%esi
    13e3:	8b 10                	mov    (%eax),%edx
    13e5:	89 55 d4             	mov    %edx,-0x2c(%ebp)
    13e8:	8b 48 08             	mov    0x8(%eax),%ecx
    13eb:	8d 55 e4             	lea    -0x1c(%ebp),%edx
    13ee:	89 4d d0             	mov    %ecx,-0x30(%ebp)
    13f1:	52                   	push   %edx
    13f2:	50                   	push   %eax
    13f3:	e8 f8 5e 01 00       	call   172f0 <as_get_physical_mapping@plt>
    13f8:	83 c4 10             	add    $0x10,%esp
    13fb:	31 d2                	xor    %edx,%edx
    13fd:	8b 4d d0             	mov    -0x30(%ebp),%ecx
    1400:	85 c0                	test   %eax,%eax
    1402:	75 03                	jne    1407 <batch_control+0xe7>
    1404:	8b 55 e4             	mov    -0x1c(%ebp),%edx
    1407:	56                   	push   %esi
    1408:	8b 47 18             	mov    0x18(%edi),%eax
    140b:	8b 75 d4             	mov    -0x2c(%ebp),%esi
    140e:	56                   	push   %esi
    140f:	51                   	push   %ecx
    1410:	52                   	push   %edx
    1411:	50                   	push   %eax
    1412:	68 50 2c 01 00       	push   $0x12c50
    1417:	6a 05                	push   $0x5
    1419:	6a ff                	push   $0xffffffff
    141b:	e8 20 5d 01 00       	call   17140 <log_msg@plt>
    1420:	8b 47 18             	mov    0x18(%edi),%eax
    1423:	83 c4 20             	add    $0x20,%esp
    1426:	c7 45 d0 01 00 00 00 	movl   $0x1,-0x30(%ebp)
    142d:	c7 45 c8 00 00 00 00 	movl   $0x0,-0x38(%ebp)
    1434:	8b 50 20             	mov    0x20(%eax),%edx
    1437:	8b 40 14             	mov    0x14(%eax),%eax
    143a:	01 d3                	add    %edx,%ebx
    143c:	89 45 d4             	mov    %eax,-0x2c(%ebp)
    143f:	89 5d cc             	mov    %ebx,-0x34(%ebp)
    1442:	85 c0                	test   %eax,%eax
    1444:	0f 84 4a 01 00 00    	je     1594 <batch_control+0x274>
    144a:	8d b6 00 00 00 00    	lea    0x0(%esi),%esi
    1450:	8b 45 d4             	mov    -0x2c(%ebp),%eax
    1453:	89 c6                	mov    %eax,%esi
    1455:	3d 00 40 00 00       	cmp    $0x4000,%eax
    145a:	76 05                	jbe    1461 <batch_control+0x141>
    145c:	be 00 40 00 00       	mov    $0x4000,%esi
    1461:	8b 55 c8             	mov    -0x38(%ebp),%edx
    1464:	8b 5d d0             	mov    -0x30(%ebp),%ebx
    1467:	b8 01 00 00 00       	mov    $0x1,%eax
    146c:	83 ec 04             	sub    $0x4,%esp
    146f:	29 d0                	sub    %edx,%eax
    1471:	43                   	inc    %ebx
    1472:	89 c2                	mov    %eax,%edx
    1474:	89 45 c8             	mov    %eax,-0x38(%ebp)
    1477:	8d 0c 9d 00 00 00 00 	lea    0x0(,%ebx,4),%ecx
    147e:	8b 47 0c             	mov    0xc(%edi),%eax
    1481:	6a 00                	push   $0x0
    1483:	52                   	push   %edx
    1484:	8b 55 cc             	mov    -0x34(%ebp),%edx
    1487:	56                   	push   %esi
    1488:	52                   	push   %edx
    1489:	8b 55 0c             	mov    0xc(%ebp),%edx
    148c:	52                   	push   %edx
    148d:	8b 14 08             	mov    (%eax,%ecx,1),%edx
    1490:	52                   	push   %edx
    1491:	89 5d c4             	mov    %ebx,-0x3c(%ebp)
    1494:	89 4d b8             	mov    %ecx,-0x48(%ebp)
    1497:	8d 59 fc             	lea    -0x4(%ecx),%ebx
    149a:	8b 4c 08 fc          	mov    -0x4(%eax,%ecx,1),%ecx
    149e:	51                   	push   %ecx
    149f:	e8 fc 32 00 00       	call   47a0 <td_init>
    14a4:	8b 47 0c             	mov    0xc(%edi),%eax
    14a7:	83 c4 18             	add    $0x18,%esp
    14aa:	8b 04 18             	mov    (%eax,%ebx,1),%eax
    14ad:	8b 48 04             	mov    0x4(%eax),%ecx
    14b0:	8b 10                	mov    (%eax),%edx
    14b2:	89 55 c0             	mov    %edx,-0x40(%ebp)
    14b5:	8d 55 e4             	lea    -0x1c(%ebp),%edx
    14b8:	8b 58 08             	mov    0x8(%eax),%ebx
    14bb:	89 4d bc             	mov    %ecx,-0x44(%ebp)
    14be:	52                   	push   %edx
    14bf:	50                   	push   %eax
    14c0:	e8 2b 5e 01 00       	call   172f0 <as_get_physical_mapping@plt>
    14c5:	83 c4 10             	add    $0x10,%esp
    14c8:	31 d2                	xor    %edx,%edx
    14ca:	8b 4d bc             	mov    -0x44(%ebp),%ecx
    14cd:	85 c0                	test   %eax,%eax
    14cf:	75 03                	jne    14d4 <batch_control+0x1b4>
    14d1:	8b 55 e4             	mov    -0x1c(%ebp),%edx
    14d4:	8b 45 c0             	mov    -0x40(%ebp),%eax
    14d7:	51                   	push   %ecx
    14d8:	50                   	push   %eax
    14d9:	8b 47 18             	mov    0x18(%edi),%eax
    14dc:	53                   	push   %ebx
    14dd:	52                   	push   %edx
    14de:	50                   	push   %eax
    14df:	68 88 2c 01 00       	push   $0x12c88
    14e4:	6a 05                	push   $0x5
    14e6:	6a ff                	push   $0xffffffff
    14e8:	e8 53 5c 01 00       	call   17140 <log_msg@plt>
    14ed:	8b 45 cc             	mov    -0x34(%ebp),%eax
    14f0:	01 f0                	add    %esi,%eax
    14f2:	83 c4 20             	add    $0x20,%esp
    14f5:	89 45 cc             	mov    %eax,-0x34(%ebp)
    14f8:	8b 45 d4             	mov    -0x2c(%ebp),%eax
    14fb:	29 f0                	sub    %esi,%eax
    14fd:	89 45 d4             	mov    %eax,-0x2c(%ebp)
    1500:	8b 47 10             	mov    0x10(%edi),%eax
    1503:	48                   	dec    %eax
    1504:	3b 45 d0             	cmp    -0x30(%ebp),%eax
    1507:	0f 86 9a 00 00 00    	jbe    15a7 <batch_control+0x287>
    150d:	8b 75 c4             	mov    -0x3c(%ebp),%esi
    1510:	8b 55 d4             	mov    -0x2c(%ebp),%edx
    1513:	89 75 d0             	mov    %esi,-0x30(%ebp)
    1516:	85 d2                	test   %edx,%edx
    1518:	0f 85 32 ff ff ff    	jne    1450 <batch_control+0x130>
    151e:	8b 5d b8             	mov    -0x48(%ebp),%ebx
    1521:	89 f2                	mov    %esi,%edx
    1523:	39 c2                	cmp    %eax,%edx
    1525:	0f 85 91 00 00 00    	jne    15bc <batch_control+0x29c>
    152b:	52                   	push   %edx
    152c:	6a 01                	push   $0x1
    152e:	6a 01                	push   $0x1
    1530:	6a 00                	push   $0x0
    1532:	6a 00                	push   $0x0
    1534:	8b 4d b4             	mov    -0x4c(%ebp),%ecx
    1537:	8b 47 0c             	mov    0xc(%edi),%eax
    153a:	51                   	push   %ecx
    153b:	6a 00                	push   $0x0
    153d:	8b 34 18             	mov    (%eax,%ebx,1),%esi
    1540:	56                   	push   %esi
    1541:	e8 5a 32 00 00       	call   47a0 <td_init>
    1546:	8b 47 0c             	mov    0xc(%edi),%eax
    1549:	83 c4 18             	add    $0x18,%esp
    154c:	8d 55 e4             	lea    -0x1c(%ebp),%edx
    154f:	8b 04 18             	mov    (%eax,%ebx,1),%eax
    1552:	8b 48 04             	mov    0x4(%eax),%ecx
    1555:	8b 30                	mov    (%eax),%esi
    1557:	89 4d d4             	mov    %ecx,-0x2c(%ebp)
    155a:	8b 58 08             	mov    0x8(%eax),%ebx
    155d:	52                   	push   %edx
    155e:	50                   	push   %eax
    155f:	e8 8c 5d 01 00       	call   172f0 <as_get_physical_mapping@plt>
    1564:	83 c4 10             	add    $0x10,%esp
    1567:	31 d2                	xor    %edx,%edx
    1569:	8b 4d d4             	mov    -0x2c(%ebp),%ecx
    156c:	85 c0                	test   %eax,%eax
    156e:	75 03                	jne    1573 <batch_control+0x253>
    1570:	8b 55 e4             	mov    -0x1c(%ebp),%edx
    1573:	8b 47 18             	mov    0x18(%edi),%eax
    1576:	51                   	push   %ecx
    1577:	56                   	push   %esi
    1578:	53                   	push   %ebx
    1579:	52                   	push   %edx
    157a:	50                   	push   %eax
    157b:	68 10 2d 01 00       	push   $0x12d10
    1580:	6a 05                	push   $0x5
    1582:	6a ff                	push   $0xffffffff
    1584:	e8 b7 5b 01 00       	call   17140 <log_msg@plt>
    1589:	83 c4 20             	add    $0x20,%esp
    158c:	8d 65 f4             	lea    -0xc(%ebp),%esp
    158f:	5b                   	pop    %ebx
    1590:	5e                   	pop    %esi
    1591:	5f                   	pop    %edi
    1592:	5d                   	pop    %ebp
    1593:	c3                   	ret    
    1594:	8b 47 10             	mov    0x10(%edi),%eax
    1597:	bb 04 00 00 00       	mov    $0x4,%ebx
    159c:	48                   	dec    %eax
    159d:	ba 01 00 00 00       	mov    $0x1,%edx
    15a2:	e9 7c ff ff ff       	jmp    1523 <batch_control+0x203>
    15a7:	51                   	push   %ecx
    15a8:	68 48 01 00 00       	push   $0x148
    15ad:	68 be 2a 01 00       	push   $0x12abe
    15b2:	68 c0 2c 01 00       	push   $0x12cc0
    15b7:	e8 f4 5b 01 00       	call   171b0 <assert_abort@plt>
    15bc:	57                   	push   %edi
    15bd:	68 4d 01 00 00       	push   $0x14d
    15c2:	68 be 2a 01 00       	push   $0x12abe
    15c7:	68 e8 2c 01 00       	push   $0x12ce8
    15cc:	e8 df 5b 01 00       	call   171b0 <assert_abort@plt>
    15d1:	57                   	push   %edi
    15d2:	68 16 01 00 00       	push   $0x116
    15d7:	68 be 2a 01 00       	push   $0x12abe
    15dc:	68 cb 2a 01 00       	push   $0x12acb
    15e1:	e8 ca 5b 01 00       	call   171b0 <assert_abort@plt>
    15e6:	53                   	push   %ebx
    15e7:	68 17 01 00 00       	push   $0x117
    15ec:	68 be 2a 01 00       	push   $0x12abe
    15f1:	68 d6 2a 01 00       	push   $0x12ad6
    15f6:	e8 b5 5b 01 00       	call   171b0 <assert_abort@plt>
    15fb:	51                   	push   %ecx
    15fc:	68 18 01 00 00       	push   $0x118
    1601:	68 be 2a 01 00       	push   $0x12abe
    1606:	68 60 2b 01 00       	push   $0x12b60
    160b:	e8 a0 5b 01 00       	call   171b0 <assert_abort@plt>

00001610 <ehci_transfer_batch_finish_dispose>:
    1610:	55                   	push   %ebp
    1611:	89 e5                	mov    %esp,%ebp
    1613:	56                   	push   %esi
    1614:	53                   	push   %ebx
    1615:	8b 75 08             	mov    0x8(%ebp),%esi
    1618:	85 f6                	test   %esi,%esi
    161a:	0f 84 93 00 00 00    	je     16b3 <ehci_transfer_batch_finish_dispose+0xa3>
    1620:	8b 46 18             	mov    0x18(%esi),%eax
    1623:	85 c0                	test   %eax,%eax
    1625:	0f 84 9a 00 00 00    	je     16c5 <ehci_transfer_batch_finish_dispose+0xb5>
    162b:	8b 48 28             	mov    0x28(%eax),%ecx
    162e:	51                   	push   %ecx
    162f:	8b 58 24             	mov    0x24(%eax),%ebx
    1632:	53                   	push   %ebx
    1633:	8b 50 20             	mov    0x20(%eax),%edx
    1636:	8b 4e 14             	mov    0x14(%esi),%ecx
    1639:	01 ca                	add    %ecx,%edx
    163b:	52                   	push   %edx
    163c:	50                   	push   %eax
    163d:	e8 4e 72 00 00       	call   8890 <usb_transfer_batch_finish_error>
    1642:	8b 46 0c             	mov    0xc(%esi),%eax
    1645:	83 c4 10             	add    $0x10,%esp
    1648:	85 c0                	test   %eax,%eax
    164a:	74 30                	je     167c <ehci_transfer_batch_finish_dispose+0x6c>
    164c:	8b 56 10             	mov    0x10(%esi),%edx
    164f:	85 d2                	test   %edx,%edx
    1651:	74 1d                	je     1670 <ehci_transfer_batch_finish_dispose+0x60>
    1653:	31 db                	xor    %ebx,%ebx
    1655:	8d 76 00             	lea    0x0(%esi),%esi
    1658:	83 ec 0c             	sub    $0xc,%esp
    165b:	8b 04 98             	mov    (%eax,%ebx,4),%eax
    165e:	43                   	inc    %ebx
    165f:	50                   	push   %eax
    1660:	e8 8b 5b 01 00       	call   171f0 <dmamem_unmap_anonymous@plt>
    1665:	83 c4 10             	add    $0x10,%esp
    1668:	8b 46 0c             	mov    0xc(%esi),%eax
    166b:	3b 5e 10             	cmp    0x10(%esi),%ebx
    166e:	72 e8                	jb     1658 <ehci_transfer_batch_finish_dispose+0x48>
    1670:	83 ec 0c             	sub    $0xc,%esp
    1673:	50                   	push   %eax
    1674:	e8 f7 5e 01 00       	call   17570 <free@plt>
    1679:	83 c4 10             	add    $0x10,%esp
    167c:	83 ec 0c             	sub    $0xc,%esp
    167f:	8b 46 18             	mov    0x18(%esi),%eax
    1682:	50                   	push   %eax
    1683:	e8 68 71 00 00       	call   87f0 <usb_transfer_batch_destroy>
    1688:	8b 4e 14             	mov    0x14(%esi),%ecx
    168b:	5a                   	pop    %edx
    168c:	51                   	push   %ecx
    168d:	e8 5e 5b 01 00       	call   171f0 <dmamem_unmap_anonymous@plt>
    1692:	89 34 24             	mov    %esi,(%esp)
    1695:	e8 d6 5e 01 00       	call   17570 <free@plt>
    169a:	56                   	push   %esi
    169b:	68 ec 2a 01 00       	push   $0x12aec
    16a0:	6a 05                	push   $0x5
    16a2:	6a ff                	push   $0xffffffff
    16a4:	e8 97 5a 01 00       	call   17140 <log_msg@plt>
    16a9:	83 c4 20             	add    $0x20,%esp
    16ac:	8d 65 f8             	lea    -0x8(%ebp),%esp
    16af:	5b                   	pop    %ebx
    16b0:	5e                   	pop    %esi
    16b1:	5d                   	pop    %ebp
    16b2:	c3                   	ret    
    16b3:	56                   	push   %esi
    16b4:	6a 53                	push   $0x53
    16b6:	68 be 2a 01 00       	push   $0x12abe
    16bb:	68 cb 2a 01 00       	push   $0x12acb
    16c0:	e8 eb 5a 01 00       	call   171b0 <assert_abort@plt>
    16c5:	53                   	push   %ebx
    16c6:	6a 54                	push   $0x54
    16c8:	68 be 2a 01 00       	push   $0x12abe
    16cd:	68 d6 2a 01 00       	push   $0x12ad6
    16d2:	e8 d9 5a 01 00       	call   171b0 <assert_abort@plt>
    16d7:	89 f6                	mov    %esi,%esi
    16d9:	8d bc 27 00 00 00 00 	lea    0x0(%edi,%eiz,1),%edi

000016e0 <ehci_transfer_batch_get>:
    16e0:	55                   	push   %ebp
    16e1:	89 e5                	mov    %esp,%ebp
    16e3:	57                   	push   %edi
    16e4:	56                   	push   %esi
    16e5:	53                   	push   %ebx
    16e6:	83 ec 3c             	sub    $0x3c,%esp
    16e9:	8b 45 08             	mov    0x8(%ebp),%eax
    16ec:	85 c0                	test   %eax,%eax
    16ee:	0f 84 6a 04 00 00    	je     1b5e <ehci_transfer_batch_get+0x47e>
    16f4:	57                   	push   %edi
    16f5:	57                   	push   %edi
    16f6:	6a 1c                	push   $0x1c
    16f8:	6a 01                	push   $0x1
    16fa:	e8 d1 5a 01 00       	call   171d0 <calloc@plt>
    16ff:	83 c4 10             	add    $0x10,%esp
    1702:	89 c3                	mov    %eax,%ebx
    1704:	85 c0                	test   %eax,%eax
    1706:	0f 84 d2 03 00 00    	je     1ade <ehci_transfer_batch_get+0x3fe>
    170c:	c7 00 00 00 00 00    	movl   $0x0,(%eax)
    1712:	c7 40 04 00 00 00 00 	movl   $0x0,0x4(%eax)
    1719:	8b 55 08             	mov    0x8(%ebp),%edx
    171c:	8b 45 08             	mov    0x8(%ebp),%eax
    171f:	8b 12                	mov    (%edx),%edx
    1721:	8b 40 14             	mov    0x14(%eax),%eax
    1724:	89 45 d4             	mov    %eax,-0x2c(%ebp)
    1727:	05 ff 3f 00 00       	add    $0x3fff,%eax
    172c:	c1 e8 0e             	shr    $0xe,%eax
    172f:	8b 4a 14             	mov    0x14(%edx),%ecx
    1732:	89 43 10             	mov    %eax,0x10(%ebx)
    1735:	85 c9                	test   %ecx,%ecx
    1737:	0f 84 53 02 00 00    	je     1990 <ehci_transfer_batch_get+0x2b0>
    173d:	52                   	push   %edx
    173e:	52                   	push   %edx
    173f:	6a 04                	push   $0x4
    1741:	50                   	push   %eax
    1742:	e8 89 5a 01 00       	call   171d0 <calloc@plt>
    1747:	83 c4 10             	add    $0x10,%esp
    174a:	89 c6                	mov    %eax,%esi
    174c:	89 43 0c             	mov    %eax,0xc(%ebx)
    174f:	85 c0                	test   %eax,%eax
    1751:	0f 84 6d 03 00 00    	je     1ac4 <ehci_transfer_batch_get+0x3e4>
    1757:	8b 45 08             	mov    0x8(%ebp),%eax
    175a:	8b 00                	mov    (%eax),%eax
    175c:	85 c0                	test   %eax,%eax
    175e:	0f 84 d3 03 00 00    	je     1b37 <ehci_transfer_batch_get+0x457>
    1764:	8b 40 4c             	mov    0x4c(%eax),%eax
    1767:	8b 00                	mov    (%eax),%eax
    1769:	89 43 08             	mov    %eax,0x8(%ebx)
    176c:	8b 43 10             	mov    0x10(%ebx),%eax
    176f:	85 c0                	test   %eax,%eax
    1771:	0f 84 19 01 00 00    	je     1890 <ehci_transfer_batch_get+0x1b0>
    1777:	31 ff                	xor    %edi,%edi
    1779:	eb 46                	jmp    17c1 <ehci_transfer_batch_get+0xe1>
    177b:	90                   	nop
    177c:	8d 74 26 00          	lea    0x0(%esi,%eiz,1),%esi
    1780:	50                   	push   %eax
    1781:	8b 45 e4             	mov    -0x1c(%ebp),%eax
    1784:	68 00 10 00 00       	push   $0x1000
    1789:	6a 05                	push   $0x5
    178b:	50                   	push   %eax
    178c:	e8 bf 5b 01 00       	call   17350 <memset@plt>
    1791:	8b 45 e4             	mov    -0x1c(%ebp),%eax
    1794:	8b 4d d4             	mov    -0x2c(%ebp),%ecx
    1797:	89 06                	mov    %eax,(%esi)
    1799:	8b 43 0c             	mov    0xc(%ebx),%eax
    179c:	83 c4 10             	add    $0x10,%esp
    179f:	8b 04 08             	mov    (%eax,%ecx,1),%eax
    17a2:	85 c0                	test   %eax,%eax
    17a4:	74 60                	je     1806 <ehci_transfer_batch_get+0x126>
    17a6:	47                   	inc    %edi
    17a7:	52                   	push   %edx
    17a8:	6a 34                	push   $0x34
    17aa:	6a 00                	push   $0x0
    17ac:	50                   	push   %eax
    17ad:	e8 9e 5b 01 00       	call   17350 <memset@plt>
    17b2:	83 c4 10             	add    $0x10,%esp
    17b5:	39 7b 10             	cmp    %edi,0x10(%ebx)
    17b8:	0f 86 d2 00 00 00    	jbe    1890 <ehci_transfer_batch_get+0x1b0>
    17be:	8b 73 0c             	mov    0xc(%ebx),%esi
    17c1:	8d 04 bd 00 00 00 00 	lea    0x0(,%edi,4),%eax
    17c8:	c7 45 e4 ff ff ff ff 	movl   $0xffffffff,-0x1c(%ebp)
    17cf:	89 45 d4             	mov    %eax,-0x2c(%ebp)
    17d2:	01 c6                	add    %eax,%esi
    17d4:	50                   	push   %eax
    17d5:	50                   	push   %eax
    17d6:	8d 45 e4             	lea    -0x1c(%ebp),%eax
    17d9:	50                   	push   %eax
    17da:	8d 45 e0             	lea    -0x20(%ebp),%eax
    17dd:	50                   	push   %eax
    17de:	6a 00                	push   $0x0
    17e0:	6a 03                	push   $0x3
    17e2:	6a 00                	push   $0x0
    17e4:	68 00 10 00 00       	push   $0x1000
    17e9:	e8 92 5b 01 00       	call   17380 <dmamem_map_anonymous@plt>
    17ee:	83 c4 20             	add    $0x20,%esp
    17f1:	85 c0                	test   %eax,%eax
    17f3:	74 8b                	je     1780 <ehci_transfer_batch_get+0xa0>
    17f5:	31 c0                	xor    %eax,%eax
    17f7:	8b 4d d4             	mov    -0x2c(%ebp),%ecx
    17fa:	89 06                	mov    %eax,(%esi)
    17fc:	8b 43 0c             	mov    0xc(%ebx),%eax
    17ff:	8b 04 08             	mov    (%eax,%ecx,1),%eax
    1802:	85 c0                	test   %eax,%eax
    1804:	75 a0                	jne    17a6 <ehci_transfer_batch_get+0xc6>
    1806:	83 ec 0c             	sub    $0xc,%esp
    1809:	8b 4d 08             	mov    0x8(%ebp),%ecx
    180c:	57                   	push   %edi
    180d:	51                   	push   %ecx
    180e:	68 b0 2d 01 00       	push   $0x12db0
    1813:	6a 01                	push   $0x1
    1815:	6a ff                	push   $0xffffffff
    1817:	e8 24 59 01 00       	call   17140 <log_msg@plt>
    181c:	83 c4 20             	add    $0x20,%esp
    181f:	8b 43 0c             	mov    0xc(%ebx),%eax
    1822:	85 c0                	test   %eax,%eax
    1824:	74 2e                	je     1854 <ehci_transfer_batch_get+0x174>
    1826:	8b 53 10             	mov    0x10(%ebx),%edx
    1829:	85 d2                	test   %edx,%edx
    182b:	74 1b                	je     1848 <ehci_transfer_batch_get+0x168>
    182d:	31 f6                	xor    %esi,%esi
    182f:	90                   	nop
    1830:	83 ec 0c             	sub    $0xc,%esp
    1833:	8b 04 b0             	mov    (%eax,%esi,4),%eax
    1836:	46                   	inc    %esi
    1837:	50                   	push   %eax
    1838:	e8 b3 59 01 00       	call   171f0 <dmamem_unmap_anonymous@plt>
    183d:	83 c4 10             	add    $0x10,%esp
    1840:	8b 43 0c             	mov    0xc(%ebx),%eax
    1843:	3b 73 10             	cmp    0x10(%ebx),%esi
    1846:	72 e8                	jb     1830 <ehci_transfer_batch_get+0x150>
    1848:	83 ec 0c             	sub    $0xc,%esp
    184b:	50                   	push   %eax
    184c:	e8 1f 5d 01 00       	call   17570 <free@plt>
    1851:	83 c4 10             	add    $0x10,%esp
    1854:	83 ec 0c             	sub    $0xc,%esp
    1857:	8b 4b 18             	mov    0x18(%ebx),%ecx
    185a:	51                   	push   %ecx
    185b:	e8 90 6f 00 00       	call   87f0 <usb_transfer_batch_destroy>
    1860:	8b 7b 14             	mov    0x14(%ebx),%edi
    1863:	5e                   	pop    %esi
    1864:	57                   	push   %edi
    1865:	e8 86 59 01 00       	call   171f0 <dmamem_unmap_anonymous@plt>
    186a:	89 1c 24             	mov    %ebx,(%esp)
    186d:	e8 fe 5c 01 00       	call   17570 <free@plt>
    1872:	53                   	push   %ebx
    1873:	68 ec 2a 01 00       	push   $0x12aec
    1878:	6a 05                	push   $0x5
    187a:	6a ff                	push   $0xffffffff
    187c:	e8 bf 58 01 00       	call   17140 <log_msg@plt>
    1881:	83 c4 20             	add    $0x20,%esp
    1884:	8d 65 f4             	lea    -0xc(%ebp),%esp
    1887:	31 db                	xor    %ebx,%ebx
    1889:	89 d8                	mov    %ebx,%eax
    188b:	5b                   	pop    %ebx
    188c:	5e                   	pop    %esi
    188d:	5f                   	pop    %edi
    188e:	5d                   	pop    %ebp
    188f:	c3                   	ret    
    1890:	8b 45 08             	mov    0x8(%ebp),%eax
    1893:	8b 55 08             	mov    0x8(%ebp),%edx
    1896:	8b 40 14             	mov    0x14(%eax),%eax
    1899:	03 42 20             	add    0x20(%edx),%eax
    189c:	0f 85 fe 00 00 00    	jne    19a0 <ehci_transfer_batch_get+0x2c0>
    18a2:	8b 45 08             	mov    0x8(%ebp),%eax
    18a5:	89 43 18             	mov    %eax,0x18(%ebx)
    18a8:	8b 78 04             	mov    0x4(%eax),%edi
    18ab:	85 ff                	test   %edi,%edi
    18ad:	0f 84 b1 01 00 00    	je     1a64 <ehci_transfer_batch_get+0x384>
    18b3:	8b 70 08             	mov    0x8(%eax),%esi
    18b6:	85 f6                	test   %esi,%esi
    18b8:	0f 85 64 02 00 00    	jne    1b22 <ehci_transfer_batch_get+0x442>
    18be:	8b 00                	mov    (%eax),%eax
    18c0:	85 c0                	test   %eax,%eax
    18c2:	0f 84 df 01 00 00    	je     1aa7 <ehci_transfer_batch_get+0x3c7>
    18c8:	8b 50 14             	mov    0x14(%eax),%edx
    18cb:	85 d2                	test   %edx,%edx
    18cd:	0f 84 85 01 00 00    	je     1a58 <ehci_transfer_batch_get+0x378>
    18d3:	8b 70 10             	mov    0x10(%eax),%esi
    18d6:	85 f6                	test   %esi,%esi
    18d8:	0f 85 6b 02 00 00    	jne    1b49 <ehci_transfer_batch_get+0x469>
    18de:	8b 04 95 dc 30 01 00 	mov    0x130dc(,%edx,4),%eax
    18e5:	85 c0                	test   %eax,%eax
    18e7:	0f 84 20 02 00 00    	je     1b0d <ehci_transfer_batch_get+0x42d>
    18ed:	52                   	push   %edx
    18ee:	52                   	push   %edx
    18ef:	56                   	push   %esi
    18f0:	53                   	push   %ebx
    18f1:	ff d0                	call   *%eax
    18f3:	8b 45 08             	mov    0x8(%ebp),%eax
    18f6:	8b 4d 08             	mov    0x8(%ebp),%ecx
    18f9:	8b 00                	mov    (%eax),%eax
    18fb:	8b 49 14             	mov    0x14(%ecx),%ecx
    18fe:	8b 50 1c             	mov    0x1c(%eax),%edx
    1901:	8b 78 10             	mov    0x10(%eax),%edi
    1904:	89 55 d4             	mov    %edx,-0x2c(%ebp)
    1907:	89 4d d0             	mov    %ecx,-0x30(%ebp)
    190a:	59                   	pop    %ecx
    190b:	57                   	push   %edi
    190c:	e8 df 7c 00 00       	call   95f0 <usb_str_direction>
    1911:	8b 7d 08             	mov    0x8(%ebp),%edi
    1914:	89 45 cc             	mov    %eax,-0x34(%ebp)
    1917:	58                   	pop    %eax
    1918:	8b 07                	mov    (%edi),%eax
    191a:	8b 40 14             	mov    0x14(%eax),%eax
    191d:	50                   	push   %eax
    191e:	e8 ad 7c 00 00       	call   95d0 <usb_str_transfer_type_short>
    1923:	8b 7d 08             	mov    0x8(%ebp),%edi
    1926:	89 45 c8             	mov    %eax,-0x38(%ebp)
    1929:	58                   	pop    %eax
    192a:	8b 07                	mov    (%edi),%eax
    192c:	8b 40 18             	mov    0x18(%eax),%eax
    192f:	50                   	push   %eax
    1930:	e8 db 7c 00 00       	call   9610 <usb_str_speed>
    1935:	8b 7d 08             	mov    0x8(%ebp),%edi
    1938:	89 45 c0             	mov    %eax,-0x40(%ebp)
    193b:	8b 07                	mov    (%edi),%eax
    193d:	0f bf 50 0e          	movswl 0xe(%eax),%edx
    1941:	0f bf 78 0c          	movswl 0xc(%eax),%edi
    1945:	89 55 c4             	mov    %edx,-0x3c(%ebp)
    1948:	89 34 24             	mov    %esi,(%esp)
    194b:	e8 a0 7c 00 00       	call   95f0 <usb_str_direction>
    1950:	8b 55 d4             	mov    -0x2c(%ebp),%edx
    1953:	8b 4d d0             	mov    -0x30(%ebp),%ecx
    1956:	52                   	push   %edx
    1957:	8b 75 cc             	mov    -0x34(%ebp),%esi
    195a:	51                   	push   %ecx
    195b:	8b 55 c8             	mov    -0x38(%ebp),%edx
    195e:	8b 4d c0             	mov    -0x40(%ebp),%ecx
    1961:	56                   	push   %esi
    1962:	52                   	push   %edx
    1963:	8b 55 c4             	mov    -0x3c(%ebp),%edx
    1966:	51                   	push   %ecx
    1967:	8b 4d 08             	mov    0x8(%ebp),%ecx
    196a:	52                   	push   %edx
    196b:	57                   	push   %edi
    196c:	50                   	push   %eax
    196d:	51                   	push   %ecx
    196e:	68 84 2f 01 00       	push   $0x12f84
    1973:	6a 04                	push   $0x4
    1975:	6a ff                	push   $0xffffffff
    1977:	e8 c4 57 01 00       	call   17140 <log_msg@plt>
    197c:	83 c4 40             	add    $0x40,%esp
    197f:	8d 65 f4             	lea    -0xc(%ebp),%esp
    1982:	89 d8                	mov    %ebx,%eax
    1984:	5b                   	pop    %ebx
    1985:	5e                   	pop    %esi
    1986:	5f                   	pop    %edi
    1987:	5d                   	pop    %ebp
    1988:	c3                   	ret    
    1989:	8d b4 26 00 00 00 00 	lea    0x0(%esi,%eiz,1),%esi
    1990:	83 c0 02             	add    $0x2,%eax
    1993:	89 43 10             	mov    %eax,0x10(%ebx)
    1996:	e9 a2 fd ff ff       	jmp    173d <ehci_transfer_batch_get+0x5d>
    199b:	90                   	nop
    199c:	8d 74 26 00          	lea    0x0(%esi,%eiz,1),%esi
    19a0:	8d b0 ff 0f 00 00    	lea    0xfff(%eax),%esi
    19a6:	50                   	push   %eax
    19a7:	50                   	push   %eax
    19a8:	8d 45 e4             	lea    -0x1c(%ebp),%eax
    19ab:	50                   	push   %eax
    19ac:	81 e6 00 f0 ff ff    	and    $0xfffff000,%esi
    19b2:	8d 45 e0             	lea    -0x20(%ebp),%eax
    19b5:	c7 45 e4 ff ff ff ff 	movl   $0xffffffff,-0x1c(%ebp)
    19bc:	50                   	push   %eax
    19bd:	6a 00                	push   $0x0
    19bf:	6a 03                	push   $0x3
    19c1:	6a 00                	push   $0x0
    19c3:	56                   	push   %esi
    19c4:	e8 b7 59 01 00       	call   17380 <dmamem_map_anonymous@plt>
    19c9:	83 c4 20             	add    $0x20,%esp
    19cc:	85 c0                	test   %eax,%eax
    19ce:	75 61                	jne    1a31 <ehci_transfer_batch_get+0x351>
    19d0:	50                   	push   %eax
    19d1:	8b 45 e4             	mov    -0x1c(%ebp),%eax
    19d4:	56                   	push   %esi
    19d5:	6a 05                	push   $0x5
    19d7:	50                   	push   %eax
    19d8:	e8 73 59 01 00       	call   17350 <memset@plt>
    19dd:	8b 45 e4             	mov    -0x1c(%ebp),%eax
    19e0:	83 c4 10             	add    $0x10,%esp
    19e3:	89 43 14             	mov    %eax,0x14(%ebx)
    19e6:	85 c0                	test   %eax,%eax
    19e8:	74 4e                	je     1a38 <ehci_transfer_batch_get+0x358>
    19ea:	8b 55 08             	mov    0x8(%ebp),%edx
    19ed:	57                   	push   %edi
    19ee:	83 c2 18             	add    $0x18,%edx
    19f1:	8b 4a 08             	mov    0x8(%edx),%ecx
    19f4:	51                   	push   %ecx
    19f5:	52                   	push   %edx
    19f6:	50                   	push   %eax
    19f7:	e8 74 56 01 00       	call   17070 <memcpy@plt>
    19fc:	8b 45 08             	mov    0x8(%ebp),%eax
    19ff:	83 c4 10             	add    $0x10,%esp
    1a02:	8b 00                	mov    (%eax),%eax
    1a04:	8b 70 10             	mov    0x10(%eax),%esi
    1a07:	85 f6                	test   %esi,%esi
    1a09:	0f 84 93 fe ff ff    	je     18a2 <ehci_transfer_batch_get+0x1c2>
    1a0f:	50                   	push   %eax
    1a10:	8b 45 08             	mov    0x8(%ebp),%eax
    1a13:	8b 50 14             	mov    0x14(%eax),%edx
    1a16:	8b 48 10             	mov    0x10(%eax),%ecx
    1a19:	52                   	push   %edx
    1a1a:	51                   	push   %ecx
    1a1b:	8b 40 20             	mov    0x20(%eax),%eax
    1a1e:	8b 73 14             	mov    0x14(%ebx),%esi
    1a21:	01 f0                	add    %esi,%eax
    1a23:	50                   	push   %eax
    1a24:	e8 47 56 01 00       	call   17070 <memcpy@plt>
    1a29:	83 c4 10             	add    $0x10,%esp
    1a2c:	e9 71 fe ff ff       	jmp    18a2 <ehci_transfer_batch_get+0x1c2>
    1a31:	c7 43 14 00 00 00 00 	movl   $0x0,0x14(%ebx)
    1a38:	8b 7d 08             	mov    0x8(%ebp),%edi
    1a3b:	57                   	push   %edi
    1a3c:	68 d4 2d 01 00       	push   $0x12dd4
    1a41:	6a 01                	push   $0x1
    1a43:	6a ff                	push   $0xffffffff
    1a45:	e8 f6 56 01 00       	call   17140 <log_msg@plt>
    1a4a:	83 c4 10             	add    $0x10,%esp
    1a4d:	e9 cd fd ff ff       	jmp    181f <ehci_transfer_batch_get+0x13f>
    1a52:	8d b6 00 00 00 00    	lea    0x0(%esi),%esi
    1a58:	31 f6                	xor    %esi,%esi
    1a5a:	b8 20 13 00 00       	mov    $0x1320,%eax
    1a5f:	e9 89 fe ff ff       	jmp    18ed <ehci_transfer_batch_get+0x20d>
    1a64:	8b 50 08             	mov    0x8(%eax),%edx
    1a67:	85 d2                	test   %edx,%edx
    1a69:	0f 84 89 00 00 00    	je     1af8 <ehci_transfer_batch_get+0x418>
    1a6f:	8b 00                	mov    (%eax),%eax
    1a71:	85 c0                	test   %eax,%eax
    1a73:	74 3f                	je     1ab4 <ehci_transfer_batch_get+0x3d4>
    1a75:	8b 50 14             	mov    0x14(%eax),%edx
    1a78:	85 d2                	test   %edx,%edx
    1a7a:	74 24                	je     1aa0 <ehci_transfer_batch_get+0x3c0>
    1a7c:	8b 70 10             	mov    0x10(%eax),%esi
    1a7f:	83 fe 01             	cmp    $0x1,%esi
    1a82:	0f 84 56 fe ff ff    	je     18de <ehci_transfer_batch_get+0x1fe>
    1a88:	57                   	push   %edi
    1a89:	68 90 00 00 00       	push   $0x90
    1a8e:	68 00 2e 01 00       	push   $0x12e00
    1a93:	68 dc 2e 01 00       	push   $0x12edc
    1a98:	e8 13 57 01 00       	call   171b0 <assert_abort@plt>
    1a9d:	8d 76 00             	lea    0x0(%esi),%esi
    1aa0:	be 01 00 00 00       	mov    $0x1,%esi
    1aa5:	eb b3                	jmp    1a5a <ehci_transfer_batch_get+0x37a>
    1aa7:	8b 15 14 00 00 00    	mov    0x14,%edx
    1aad:	31 f6                	xor    %esi,%esi
    1aaf:	e9 2a fe ff ff       	jmp    18de <ehci_transfer_batch_get+0x1fe>
    1ab4:	8b 15 14 00 00 00    	mov    0x14,%edx
    1aba:	be 01 00 00 00       	mov    $0x1,%esi
    1abf:	e9 1a fe ff ff       	jmp    18de <ehci_transfer_batch_get+0x1fe>
    1ac4:	8b 45 08             	mov    0x8(%ebp),%eax
    1ac7:	50                   	push   %eax
    1ac8:	68 78 2d 01 00       	push   $0x12d78
    1acd:	6a 01                	push   $0x1
    1acf:	6a ff                	push   $0xffffffff
    1ad1:	e8 6a 56 01 00       	call   17140 <log_msg@plt>
    1ad6:	83 c4 10             	add    $0x10,%esp
    1ad9:	e9 41 fd ff ff       	jmp    181f <ehci_transfer_batch_get+0x13f>
    1ade:	8b 75 08             	mov    0x8(%ebp),%esi
    1ae1:	56                   	push   %esi
    1ae2:	68 48 2d 01 00       	push   $0x12d48
    1ae7:	6a 01                	push   $0x1
    1ae9:	6a ff                	push   $0xffffffff
    1aeb:	e8 50 56 01 00       	call   17140 <log_msg@plt>
    1af0:	83 c4 10             	add    $0x10,%esp
    1af3:	e9 87 fe ff ff       	jmp    197f <ehci_transfer_batch_get+0x29f>
    1af8:	56                   	push   %esi
    1af9:	68 93 00 00 00       	push   $0x93
    1afe:	68 00 2e 01 00       	push   $0x12e00
    1b03:	68 b1 51 01 00       	push   $0x151b1
    1b08:	e8 a3 56 01 00       	call   171b0 <assert_abort@plt>
    1b0d:	53                   	push   %ebx
    1b0e:	68 a4 00 00 00       	push   $0xa4
    1b13:	68 be 2a 01 00       	push   $0x12abe
    1b18:	68 58 2f 01 00       	push   $0x12f58
    1b1d:	e8 8e 56 01 00       	call   171b0 <assert_abort@plt>
    1b22:	53                   	push   %ebx
    1b23:	68 86 00 00 00       	push   $0x86
    1b28:	68 00 2e 01 00       	push   $0x12e00
    1b2d:	68 40 2e 01 00       	push   $0x12e40
    1b32:	e8 79 56 01 00       	call   171b0 <assert_abort@plt>
    1b37:	50                   	push   %eax
    1b38:	6a 3e                	push   $0x3e
    1b3a:	68 00 2b 01 00       	push   $0x12b00
    1b3f:	68 10 2b 01 00       	push   $0x12b10
    1b44:	e8 67 56 01 00       	call   171b0 <assert_abort@plt>
    1b49:	51                   	push   %ecx
    1b4a:	68 89 00 00 00       	push   $0x89
    1b4f:	68 00 2e 01 00       	push   $0x12e00
    1b54:	68 60 2e 01 00       	push   $0x12e60
    1b59:	e8 52 56 01 00       	call   171b0 <assert_abort@plt>
    1b5e:	50                   	push   %eax
    1b5f:	6a 66                	push   $0x66
    1b61:	68 be 2a 01 00       	push   $0x12abe
    1b66:	68 e2 2a 01 00       	push   $0x12ae2
    1b6b:	e8 40 56 01 00       	call   171b0 <assert_abort@plt>

00001b70 <ehci_transfer_batch_is_complete>:
    1b70:	55                   	push   %ebp
    1b71:	89 e5                	mov    %esp,%ebp
    1b73:	57                   	push   %edi
    1b74:	56                   	push   %esi
    1b75:	53                   	push   %ebx
    1b76:	83 ec 1c             	sub    $0x1c,%esp
    1b79:	8b 75 08             	mov    0x8(%ebp),%esi
    1b7c:	85 f6                	test   %esi,%esi
    1b7e:	0f 84 3c 02 00 00    	je     1dc0 <ehci_transfer_batch_is_complete+0x250>
    1b84:	8b 46 18             	mov    0x18(%esi),%eax
    1b87:	85 c0                	test   %eax,%eax
    1b89:	0f 84 1c 02 00 00    	je     1dab <ehci_transfer_batch_is_complete+0x23b>
    1b8f:	83 ec 0c             	sub    $0xc,%esp
    1b92:	8b 7e 10             	mov    0x10(%esi),%edi
    1b95:	57                   	push   %edi
    1b96:	50                   	push   %eax
    1b97:	68 b8 2f 01 00       	push   $0x12fb8
    1b9c:	6a 04                	push   $0x4
    1b9e:	6a ff                	push   $0xffffffff
    1ba0:	e8 9b 55 01 00       	call   17140 <log_msg@plt>
    1ba5:	8b 46 08             	mov    0x8(%esi),%eax
    1ba8:	83 c4 18             	add    $0x18,%esp
    1bab:	8b 58 14             	mov    0x14(%eax),%ebx
    1bae:	89 5d e4             	mov    %ebx,-0x1c(%ebp)
    1bb1:	8b 58 10             	mov    0x10(%eax),%ebx
    1bb4:	8b 48 0c             	mov    0xc(%eax),%ecx
    1bb7:	8b 50 18             	mov    0x18(%eax),%edx
    1bba:	8b 78 08             	mov    0x8(%eax),%edi
    1bbd:	8b 40 04             	mov    0x4(%eax),%eax
    1bc0:	ff 75 e4             	pushl  -0x1c(%ebp)
    1bc3:	53                   	push   %ebx
    1bc4:	51                   	push   %ecx
    1bc5:	52                   	push   %edx
    1bc6:	57                   	push   %edi
    1bc7:	50                   	push   %eax
    1bc8:	8b 46 18             	mov    0x18(%esi),%eax
    1bcb:	50                   	push   %eax
    1bcc:	68 e8 2f 01 00       	push   $0x12fe8
    1bd1:	6a 05                	push   $0x5
    1bd3:	6a ff                	push   $0xffffffff
    1bd5:	e8 66 55 01 00       	call   17140 <log_msg@plt>
    1bda:	8b 56 08             	mov    0x8(%esi),%edx
    1bdd:	83 c4 30             	add    $0x30,%esp
    1be0:	85 d2                	test   %edx,%edx
    1be2:	0f 84 99 01 00 00    	je     1d81 <ehci_transfer_batch_is_complete+0x211>
    1be8:	8b 42 18             	mov    0x18(%edx),%eax
    1beb:	a8 40                	test   $0x40,%al
    1bed:	75 16                	jne    1c05 <ehci_transfer_batch_is_complete+0x95>
    1bef:	8b 42 10             	mov    0x10(%edx),%eax
    1bf2:	a8 01                	test   $0x1,%al
    1bf4:	0f 84 56 01 00 00    	je     1d50 <ehci_transfer_batch_is_complete+0x1e0>
    1bfa:	8b 42 18             	mov    0x18(%edx),%eax
    1bfd:	a8 80                	test   $0x80,%al
    1bff:	0f 85 4b 01 00 00    	jne    1d50 <ehci_transfer_batch_is_complete+0x1e0>
    1c05:	8b 46 18             	mov    0x18(%esi),%eax
    1c08:	8b 48 14             	mov    0x14(%eax),%ecx
    1c0b:	89 48 24             	mov    %ecx,0x24(%eax)
    1c0e:	8b 4e 10             	mov    0x10(%esi),%ecx
    1c11:	85 c9                	test   %ecx,%ecx
    1c13:	0f 84 f4 00 00 00    	je     1d0d <ehci_transfer_batch_is_complete+0x19d>
    1c19:	8b 56 0c             	mov    0xc(%esi),%edx
    1c1c:	8b 12                	mov    (%edx),%edx
    1c1e:	85 d2                	test   %edx,%edx
    1c20:	0f 84 34 01 00 00    	je     1d5a <ehci_transfer_batch_is_complete+0x1ea>
    1c26:	31 db                	xor    %ebx,%ebx
    1c28:	eb 43                	jmp    1c6d <ehci_transfer_batch_is_complete+0xfd>
    1c2a:	8d b6 00 00 00 00    	lea    0x0(%esi),%esi
    1c30:	8b 4e 0c             	mov    0xc(%esi),%ecx
    1c33:	8b 14 39             	mov    (%ecx,%edi,1),%edx
    1c36:	85 d2                	test   %edx,%edx
    1c38:	0f 84 31 01 00 00    	je     1d6f <ehci_transfer_batch_is_complete+0x1ff>
    1c3e:	8b 52 08             	mov    0x8(%edx),%edx
    1c41:	8b 78 24             	mov    0x24(%eax),%edi
    1c44:	c1 ea 10             	shr    $0x10,%edx
    1c47:	43                   	inc    %ebx
    1c48:	81 e2 ff 7f 00 00    	and    $0x7fff,%edx
    1c4e:	29 d7                	sub    %edx,%edi
    1c50:	39 5e 10             	cmp    %ebx,0x10(%esi)
    1c53:	89 fa                	mov    %edi,%edx
    1c55:	89 78 24             	mov    %edi,0x24(%eax)
    1c58:	0f 86 a3 00 00 00    	jbe    1d01 <ehci_transfer_batch_is_complete+0x191>
    1c5e:	8b 7d e0             	mov    -0x20(%ebp),%edi
    1c61:	8b 54 39 04          	mov    0x4(%ecx,%edi,1),%edx
    1c65:	85 d2                	test   %edx,%edx
    1c67:	0f 84 ed 00 00 00    	je     1d5a <ehci_transfer_batch_is_complete+0x1ea>
    1c6d:	8d 3c 9d 00 00 00 00 	lea    0x0(,%ebx,4),%edi
    1c74:	8b 4a 04             	mov    0x4(%edx),%ecx
    1c77:	89 7d e0             	mov    %edi,-0x20(%ebp)
    1c7a:	8b 3a                	mov    (%edx),%edi
    1c7c:	8b 52 08             	mov    0x8(%edx),%edx
    1c7f:	51                   	push   %ecx
    1c80:	57                   	push   %edi
    1c81:	8d 3c 9d 00 00 00 00 	lea    0x0(,%ebx,4),%edi
    1c88:	52                   	push   %edx
    1c89:	53                   	push   %ebx
    1c8a:	50                   	push   %eax
    1c8b:	68 18 30 01 00       	push   $0x13018
    1c90:	6a 04                	push   $0x4
    1c92:	6a ff                	push   $0xffffffff
    1c94:	e8 a7 54 01 00       	call   17140 <log_msg@plt>
    1c99:	8b 46 0c             	mov    0xc(%esi),%eax
    1c9c:	83 c4 14             	add    $0x14,%esp
    1c9f:	8b 56 18             	mov    0x18(%esi),%edx
    1ca2:	8b 04 38             	mov    (%eax,%edi,1),%eax
    1ca5:	89 55 e4             	mov    %edx,-0x1c(%ebp)
    1ca8:	50                   	push   %eax
    1ca9:	e8 92 2a 00 00       	call   4740 <td_error>
    1cae:	8b 55 e4             	mov    -0x1c(%ebp),%edx
    1cb1:	83 c4 10             	add    $0x10,%esp
    1cb4:	89 42 28             	mov    %eax,0x28(%edx)
    1cb7:	8b 46 18             	mov    0x18(%esi),%eax
    1cba:	8b 50 28             	mov    0x28(%eax),%edx
    1cbd:	85 d2                	test   %edx,%edx
    1cbf:	0f 84 6b ff ff ff    	je     1c30 <ehci_transfer_batch_is_complete+0xc0>
    1cc5:	8b 4e 0c             	mov    0xc(%esi),%ecx
    1cc8:	8b 7d e0             	mov    -0x20(%ebp),%edi
    1ccb:	8b 0c 39             	mov    (%ecx,%edi,1),%ecx
    1cce:	8b 49 08             	mov    0x8(%ecx),%ecx
    1cd1:	57                   	push   %edi
    1cd2:	52                   	push   %edx
    1cd3:	51                   	push   %ecx
    1cd4:	53                   	push   %ebx
    1cd5:	50                   	push   %eax
    1cd6:	68 5c 30 01 00       	push   $0x1305c
    1cdb:	6a 04                	push   $0x4
    1cdd:	6a ff                	push   $0xffffffff
    1cdf:	e8 5c 54 01 00       	call   17140 <log_msg@plt>
    1ce4:	8b 46 08             	mov    0x8(%esi),%eax
    1ce7:	83 c4 20             	add    $0x20,%esp
    1cea:	85 c0                	test   %eax,%eax
    1cec:	0f 84 e3 00 00 00    	je     1dd5 <ehci_transfer_batch_is_complete+0x265>
    1cf2:	8b 50 18             	mov    0x18(%eax),%edx
    1cf5:	83 e2 bf             	and    $0xffffffbf,%edx
    1cf8:	89 50 18             	mov    %edx,0x18(%eax)
    1cfb:	8b 46 18             	mov    0x18(%esi),%eax
    1cfe:	8b 50 24             	mov    0x24(%eax),%edx
    1d01:	3b 50 14             	cmp    0x14(%eax),%edx
    1d04:	0f 87 8c 00 00 00    	ja     1d96 <ehci_transfer_batch_is_complete+0x226>
    1d0a:	8b 56 08             	mov    0x8(%esi),%edx
    1d0d:	83 ec 0c             	sub    $0xc,%esp
    1d10:	c7 42 10 01 00 00 00 	movl   $0x1,0x10(%edx)
    1d17:	8b 40 28             	mov    0x28(%eax),%eax
    1d1a:	c7 42 0c 01 00 00 00 	movl   $0x1,0xc(%edx)
    1d21:	50                   	push   %eax
    1d22:	e8 39 57 01 00       	call   17460 <str_error@plt>
    1d27:	8b 56 18             	mov    0x18(%esi),%edx
    1d2a:	89 04 24             	mov    %eax,(%esp)
    1d2d:	52                   	push   %edx
    1d2e:	68 48 2b 01 00       	push   $0x12b48
    1d33:	6a 04                	push   $0x4
    1d35:	6a ff                	push   $0xffffffff
    1d37:	e8 04 54 01 00       	call   17140 <log_msg@plt>
    1d3c:	83 c4 20             	add    $0x20,%esp
    1d3f:	8d 65 f4             	lea    -0xc(%ebp),%esp
    1d42:	b0 01                	mov    $0x1,%al
    1d44:	5b                   	pop    %ebx
    1d45:	5e                   	pop    %esi
    1d46:	5f                   	pop    %edi
    1d47:	5d                   	pop    %ebp
    1d48:	c3                   	ret    
    1d49:	8d b4 26 00 00 00 00 	lea    0x0(%esi,%eiz,1),%esi
    1d50:	8d 65 f4             	lea    -0xc(%ebp),%esp
    1d53:	31 c0                	xor    %eax,%eax
    1d55:	5b                   	pop    %ebx
    1d56:	5e                   	pop    %esi
    1d57:	5f                   	pop    %edi
    1d58:	5d                   	pop    %ebp
    1d59:	c3                   	ret    
    1d5a:	50                   	push   %eax
    1d5b:	68 d5 00 00 00       	push   $0xd5
    1d60:	68 be 2a 01 00       	push   $0x12abe
    1d65:	68 2a 2b 01 00       	push   $0x12b2a
    1d6a:	e8 41 54 01 00       	call   171b0 <assert_abort@plt>
    1d6f:	50                   	push   %eax
    1d70:	6a 56                	push   $0x56
    1d72:	68 3c 30 01 00       	push   $0x1303c
    1d77:	68 45 2b 01 00       	push   $0x12b45
    1d7c:	e8 2f 54 01 00       	call   171b0 <assert_abort@plt>
    1d81:	53                   	push   %ebx
    1d82:	68 b9 00 00 00       	push   $0xb9
    1d87:	68 13 2b 01 00       	push   $0x12b13
    1d8c:	68 0f 31 01 00       	push   $0x1310f
    1d91:	e8 1a 54 01 00       	call   171b0 <assert_abort@plt>
    1d96:	51                   	push   %ecx
    1d97:	68 f7 00 00 00       	push   $0xf7
    1d9c:	68 be 2a 01 00       	push   $0x12abe
    1da1:	68 84 30 01 00       	push   $0x13084
    1da6:	e8 05 54 01 00       	call   171b0 <assert_abort@plt>
    1dab:	52                   	push   %edx
    1dac:	68 bd 00 00 00       	push   $0xbd
    1db1:	68 be 2a 01 00       	push   $0x12abe
    1db6:	68 d6 2a 01 00       	push   $0x12ad6
    1dbb:	e8 f0 53 01 00       	call   171b0 <assert_abort@plt>
    1dc0:	51                   	push   %ecx
    1dc1:	68 bc 00 00 00       	push   $0xbc
    1dc6:	68 be 2a 01 00       	push   $0x12abe
    1dcb:	68 cb 2a 01 00       	push   $0x12acb
    1dd0:	e8 db 53 01 00       	call   171b0 <assert_abort@plt>
    1dd5:	53                   	push   %ebx
    1dd6:	68 bf 00 00 00       	push   $0xbf
    1ddb:	68 13 2b 01 00       	push   $0x12b13
    1de0:	68 0f 31 01 00       	push   $0x1310f
    1de5:	e8 c6 53 01 00       	call   171b0 <assert_abort@plt>
    1dea:	8d b6 00 00 00 00    	lea    0x0(%esi),%esi

00001df0 <ehci_transfer_batch_commit>:
    1df0:	55                   	push   %ebp
    1df1:	89 e5                	mov    %esp,%ebp
    1df3:	53                   	push   %ebx
    1df4:	83 ec 14             	sub    $0x14,%esp
    1df7:	8b 45 08             	mov    0x8(%ebp),%eax
    1dfa:	85 c0                	test   %eax,%eax
    1dfc:	74 33                	je     1e31 <ehci_transfer_batch_commit+0x41>
    1dfe:	8b 50 0c             	mov    0xc(%eax),%edx
    1e01:	8b 58 08             	mov    0x8(%eax),%ebx
    1e04:	85 db                	test   %ebx,%ebx
    1e06:	8b 12                	mov    (%edx),%edx
    1e08:	74 51                	je     1e5b <ehci_transfer_batch_commit+0x6b>
    1e0a:	85 d2                	test   %edx,%edx
    1e0c:	74 38                	je     1e46 <ehci_transfer_batch_commit+0x56>
    1e0e:	50                   	push   %eax
    1e0f:	50                   	push   %eax
    1e10:	8d 45 f4             	lea    -0xc(%ebp),%eax
    1e13:	50                   	push   %eax
    1e14:	52                   	push   %edx
    1e15:	e8 d6 54 01 00       	call   172f0 <as_get_physical_mapping@plt>
    1e1a:	83 c4 10             	add    $0x10,%esp
    1e1d:	31 d2                	xor    %edx,%edx
    1e1f:	85 c0                	test   %eax,%eax
    1e21:	75 06                	jne    1e29 <ehci_transfer_batch_commit+0x39>
    1e23:	8b 55 f4             	mov    -0xc(%ebp),%edx
    1e26:	83 e2 f0             	and    $0xfffffff0,%edx
    1e29:	89 53 10             	mov    %edx,0x10(%ebx)
    1e2c:	8b 5d fc             	mov    -0x4(%ebp),%ebx
    1e2f:	c9                   	leave  
    1e30:	c3                   	ret    
    1e31:	53                   	push   %ebx
    1e32:	68 07 01 00 00       	push   $0x107
    1e37:	68 be 2a 01 00       	push   $0x12abe
    1e3c:	68 cb 2a 01 00       	push   $0x12acb
    1e41:	e8 6a 53 01 00       	call   171b0 <assert_abort@plt>
    1e46:	52                   	push   %edx
    1e47:	68 c6 00 00 00       	push   $0xc6
    1e4c:	68 13 2b 01 00       	push   $0x12b13
    1e51:	68 45 2b 01 00       	push   $0x12b45
    1e56:	e8 55 53 01 00       	call   171b0 <assert_abort@plt>
    1e5b:	51                   	push   %ecx
    1e5c:	68 c5 00 00 00       	push   $0xc5
    1e61:	68 13 2b 01 00       	push   $0x12b13
    1e66:	68 0f 31 01 00       	push   $0x1310f
    1e6b:	e8 40 53 01 00       	call   171b0 <assert_abort@plt>

00001e70 <ehci_ep_toggle_set>:
    1e70:	55                   	push   %ebp
    1e71:	89 e5                	mov    %esp,%ebp
    1e73:	53                   	push   %ebx
    1e74:	50                   	push   %eax
    1e75:	8b 5d 08             	mov    0x8(%ebp),%ebx
    1e78:	85 db                	test   %ebx,%ebx
    1e7a:	74 7c                	je     1ef8 <ehci_ep_toggle_set+0x88>
    1e7c:	8b 03                	mov    (%ebx),%eax
    1e7e:	85 c0                	test   %eax,%eax
    1e80:	74 64                	je     1ee6 <ehci_ep_toggle_set+0x76>
    1e82:	8b 50 08             	mov    0x8(%eax),%edx
    1e85:	80 e6 40             	and    $0x40,%dh
    1e88:	75 1e                	jne    1ea8 <ehci_ep_toggle_set+0x38>
    1e8a:	8b 55 0c             	mov    0xc(%ebp),%edx
    1e8d:	85 d2                	test   %edx,%edx
    1e8f:	8b 50 18             	mov    0x18(%eax),%edx
    1e92:	75 44                	jne    1ed8 <ehci_ep_toggle_set+0x68>
    1e94:	81 e2 ff ff ff 7f    	and    $0x7fffffff,%edx
    1e9a:	8b 5d fc             	mov    -0x4(%ebp),%ebx
    1e9d:	89 50 18             	mov    %edx,0x18(%eax)
    1ea0:	c9                   	leave  
    1ea1:	c3                   	ret    
    1ea2:	8d b6 00 00 00 00    	lea    0x0(%esi),%esi
    1ea8:	53                   	push   %ebx
    1ea9:	68 48 31 01 00       	push   $0x13148
    1eae:	6a 02                	push   $0x2
    1eb0:	6a ff                	push   $0xffffffff
    1eb2:	e8 89 52 01 00       	call   17140 <log_msg@plt>
    1eb7:	8b 03                	mov    (%ebx),%eax
    1eb9:	83 c4 10             	add    $0x10,%esp
    1ebc:	85 c0                	test   %eax,%eax
    1ebe:	75 ca                	jne    1e8a <ehci_ep_toggle_set+0x1a>
    1ec0:	51                   	push   %ecx
    1ec1:	68 aa 00 00 00       	push   $0xaa
    1ec6:	68 13 2b 01 00       	push   $0x12b13
    1ecb:	68 0f 31 01 00       	push   $0x1310f
    1ed0:	e8 db 52 01 00       	call   171b0 <assert_abort@plt>
    1ed5:	8d 76 00             	lea    0x0(%esi),%esi
    1ed8:	81 ca 00 00 00 80    	or     $0x80000000,%edx
    1ede:	8b 5d fc             	mov    -0x4(%ebp),%ebx
    1ee1:	89 50 18             	mov    %edx,0x18(%eax)
    1ee4:	c9                   	leave  
    1ee5:	c3                   	ret    
    1ee6:	53                   	push   %ebx
    1ee7:	6a 34                	push   $0x34
    1ee9:	68 ec 30 01 00       	push   $0x130ec
    1eee:	68 05 31 01 00       	push   $0x13105
    1ef3:	e8 b8 52 01 00       	call   171b0 <assert_abort@plt>
    1ef8:	50                   	push   %eax
    1ef9:	6a 33                	push   $0x33
    1efb:	68 ec 30 01 00       	push   $0x130ec
    1f00:	68 fc 30 01 00       	push   $0x130fc
    1f05:	e8 a6 52 01 00       	call   171b0 <assert_abort@plt>
    1f0a:	8d b6 00 00 00 00    	lea    0x0(%esi),%esi

00001f10 <ehci_ep_toggle_get>:
    1f10:	55                   	push   %ebp
    1f11:	89 e5                	mov    %esp,%ebp
    1f13:	53                   	push   %ebx
    1f14:	53                   	push   %ebx
    1f15:	8b 5d 08             	mov    0x8(%ebp),%ebx
    1f18:	85 db                	test   %ebx,%ebx
    1f1a:	74 5b                	je     1f77 <ehci_ep_toggle_get+0x67>
    1f1c:	8b 03                	mov    (%ebx),%eax
    1f1e:	85 c0                	test   %eax,%eax
    1f20:	74 43                	je     1f65 <ehci_ep_toggle_get+0x55>
    1f22:	8b 50 08             	mov    0x8(%eax),%edx
    1f25:	80 e6 40             	and    $0x40,%dh
    1f28:	75 0e                	jne    1f38 <ehci_ep_toggle_get+0x28>
    1f2a:	8b 40 18             	mov    0x18(%eax),%eax
    1f2d:	8b 5d fc             	mov    -0x4(%ebp),%ebx
    1f30:	c1 e8 1f             	shr    $0x1f,%eax
    1f33:	c9                   	leave  
    1f34:	c3                   	ret    
    1f35:	8d 76 00             	lea    0x0(%esi),%esi
    1f38:	53                   	push   %ebx
    1f39:	68 7c 31 01 00       	push   $0x1317c
    1f3e:	6a 02                	push   $0x2
    1f40:	6a ff                	push   $0xffffffff
    1f42:	e8 f9 51 01 00       	call   17140 <log_msg@plt>
    1f47:	8b 03                	mov    (%ebx),%eax
    1f49:	83 c4 10             	add    $0x10,%esp
    1f4c:	85 c0                	test   %eax,%eax
    1f4e:	75 da                	jne    1f2a <ehci_ep_toggle_get+0x1a>
    1f50:	50                   	push   %eax
    1f51:	68 b3 00 00 00       	push   $0xb3
    1f56:	68 13 2b 01 00       	push   $0x12b13
    1f5b:	68 0f 31 01 00       	push   $0x1310f
    1f60:	e8 4b 52 01 00       	call   171b0 <assert_abort@plt>
    1f65:	52                   	push   %edx
    1f66:	6a 44                	push   $0x44
    1f68:	68 ec 30 01 00       	push   $0x130ec
    1f6d:	68 05 31 01 00       	push   $0x13105
    1f72:	e8 39 52 01 00       	call   171b0 <assert_abort@plt>
    1f77:	51                   	push   %ecx
    1f78:	6a 43                	push   $0x43
    1f7a:	68 ec 30 01 00       	push   $0x130ec
    1f7f:	68 fc 30 01 00       	push   $0x130fc
    1f84:	e8 27 52 01 00       	call   171b0 <assert_abort@plt>
    1f89:	8d b4 26 00 00 00 00 	lea    0x0(%esi,%eiz,1),%esi

00001f90 <ehci_endpoint_init>:
    1f90:	55                   	push   %ebp
    1f91:	89 e5                	mov    %esp,%ebp
    1f93:	57                   	push   %edi
    1f94:	56                   	push   %esi
    1f95:	53                   	push   %ebx
    1f96:	83 ec 1c             	sub    $0x1c,%esp
    1f99:	8b 75 0c             	mov    0xc(%ebp),%esi
    1f9c:	8b 45 08             	mov    0x8(%ebp),%eax
    1f9f:	85 f6                	test   %esi,%esi
    1fa1:	0f 84 e8 00 00 00    	je     208f <ehci_endpoint_init+0xff>
    1fa7:	85 c0                	test   %eax,%eax
    1fa9:	0f 84 f2 00 00 00    	je     20a1 <ehci_endpoint_init+0x111>
    1faf:	83 ec 0c             	sub    $0xc,%esp
    1fb2:	8b b8 38 08 00 00    	mov    0x838(%eax),%edi
    1fb8:	6a 0c                	push   $0xc
    1fba:	e8 e1 50 01 00       	call   170a0 <malloc@plt>
    1fbf:	83 c4 10             	add    $0x10,%esp
    1fc2:	89 c3                	mov    %eax,%ebx
    1fc4:	85 c0                	test   %eax,%eax
    1fc6:	0f 84 bc 00 00 00    	je     2088 <ehci_endpoint_init+0xf8>
    1fcc:	50                   	push   %eax
    1fcd:	50                   	push   %eax
    1fce:	8d 45 e4             	lea    -0x1c(%ebp),%eax
    1fd1:	c7 45 e4 ff ff ff ff 	movl   $0xffffffff,-0x1c(%ebp)
    1fd8:	50                   	push   %eax
    1fd9:	8d 45 e0             	lea    -0x20(%ebp),%eax
    1fdc:	50                   	push   %eax
    1fdd:	6a 00                	push   $0x0
    1fdf:	6a 03                	push   $0x3
    1fe1:	6a 00                	push   $0x0
    1fe3:	68 00 10 00 00       	push   $0x1000
    1fe8:	e8 93 53 01 00       	call   17380 <dmamem_map_anonymous@plt>
    1fed:	83 c4 20             	add    $0x20,%esp
    1ff0:	85 c0                	test   %eax,%eax
    1ff2:	75 74                	jne    2068 <ehci_endpoint_init+0xd8>
    1ff4:	8b 4d e4             	mov    -0x1c(%ebp),%ecx
    1ff7:	52                   	push   %edx
    1ff8:	68 00 10 00 00       	push   $0x1000
    1ffd:	6a 05                	push   $0x5
    1fff:	51                   	push   %ecx
    2000:	e8 4b 53 01 00       	call   17350 <memset@plt>
    2005:	8b 45 e4             	mov    -0x1c(%ebp),%eax
    2008:	83 c4 10             	add    $0x10,%esp
    200b:	89 03                	mov    %eax,(%ebx)
    200d:	85 c0                	test   %eax,%eax
    200f:	74 5d                	je     206e <ehci_endpoint_init+0xde>
    2011:	83 ec 0c             	sub    $0xc,%esp
    2014:	56                   	push   %esi
    2015:	53                   	push   %ebx
    2016:	68 16 31 01 00       	push   $0x13116
    201b:	6a 05                	push   $0x5
    201d:	6a ff                	push   $0xffffffff
    201f:	e8 1c 51 01 00       	call   17140 <log_msg@plt>
    2024:	83 c4 18             	add    $0x18,%esp
    2027:	8b 03                	mov    (%ebx),%eax
    2029:	c7 43 04 00 00 00 00 	movl   $0x0,0x4(%ebx)
    2030:	c7 43 08 00 00 00 00 	movl   $0x0,0x8(%ebx)
    2037:	56                   	push   %esi
    2038:	50                   	push   %eax
    2039:	e8 c2 25 00 00       	call   4600 <qh_init>
    203e:	68 70 1e 00 00       	push   $0x1e70
    2043:	68 10 1f 00 00       	push   $0x1f10
    2048:	53                   	push   %ebx
    2049:	56                   	push   %esi
    204a:	e8 f1 4e 00 00       	call   6f40 <endpoint_set_hc_data>
    204f:	83 c4 18             	add    $0x18,%esp
    2052:	56                   	push   %esi
    2053:	57                   	push   %edi
    2054:	e8 b7 1f 00 00       	call   4010 <hc_enqueue_endpoint>
    2059:	83 c4 10             	add    $0x10,%esp
    205c:	31 c0                	xor    %eax,%eax
    205e:	8d 65 f4             	lea    -0xc(%ebp),%esp
    2061:	5b                   	pop    %ebx
    2062:	5e                   	pop    %esi
    2063:	5f                   	pop    %edi
    2064:	5d                   	pop    %ebp
    2065:	c3                   	ret    
    2066:	66 90                	xchg   %ax,%ax
    2068:	c7 03 00 00 00 00    	movl   $0x0,(%ebx)
    206e:	83 ec 0c             	sub    $0xc,%esp
    2071:	53                   	push   %ebx
    2072:	e8 f9 54 01 00       	call   17570 <free@plt>
    2077:	83 c4 10             	add    $0x10,%esp
    207a:	b8 fe ff ff ff       	mov    $0xfffffffe,%eax
    207f:	eb dd                	jmp    205e <ehci_endpoint_init+0xce>
    2081:	8d b4 26 00 00 00 00 	lea    0x0(%esi,%eiz,1),%esi
    2088:	b8 fe ff ff ff       	mov    $0xfffffffe,%eax
    208d:	eb cf                	jmp    205e <ehci_endpoint_init+0xce>
    208f:	50                   	push   %eax
    2090:	6a 51                	push   $0x51
    2092:	68 ec 30 01 00       	push   $0x130ec
    2097:	68 10 2b 01 00       	push   $0x12b10
    209c:	e8 0f 51 01 00       	call   171b0 <assert_abort@plt>
    20a1:	50                   	push   %eax
    20a2:	6a 63                	push   $0x63
    20a4:	68 a0 31 01 00       	push   $0x131a0
    20a9:	68 12 31 01 00       	push   $0x13112
    20ae:	e8 fd 50 01 00       	call   171b0 <assert_abort@plt>
    20b3:	8d b6 00 00 00 00    	lea    0x0(%esi),%esi
    20b9:	8d bc 27 00 00 00 00 	lea    0x0(%edi,%eiz,1),%edi

000020c0 <ehci_endpoint_fini>:
    20c0:	55                   	push   %ebp
    20c1:	89 e5                	mov    %esp,%ebp
    20c3:	56                   	push   %esi
    20c4:	53                   	push   %ebx
    20c5:	8b 45 08             	mov    0x8(%ebp),%eax
    20c8:	8b 5d 0c             	mov    0xc(%ebp),%ebx
    20cb:	85 c0                	test   %eax,%eax
    20cd:	74 72                	je     2141 <ehci_endpoint_fini+0x81>
    20cf:	85 db                	test   %ebx,%ebx
    20d1:	74 5c                	je     212f <ehci_endpoint_fini+0x6f>
    20d3:	8b 73 4c             	mov    0x4c(%ebx),%esi
    20d6:	52                   	push   %edx
    20d7:	52                   	push   %edx
    20d8:	53                   	push   %ebx
    20d9:	8b 88 38 08 00 00    	mov    0x838(%eax),%ecx
    20df:	51                   	push   %ecx
    20e0:	e8 0b 20 00 00       	call   40f0 <hc_dequeue_endpoint>
    20e5:	89 1c 24             	mov    %ebx,(%esp)
    20e8:	e8 b3 4e 00 00       	call   6fa0 <endpoint_clear_hc_data>
    20ed:	89 1c 24             	mov    %ebx,(%esp)
    20f0:	56                   	push   %esi
    20f1:	68 2e 31 01 00       	push   $0x1312e
    20f6:	6a 05                	push   $0x5
    20f8:	6a ff                	push   $0xffffffff
    20fa:	e8 41 50 01 00       	call   17140 <log_msg@plt>
    20ff:	83 c4 20             	add    $0x20,%esp
    2102:	85 f6                	test   %esi,%esi
    2104:	74 22                	je     2128 <ehci_endpoint_fini+0x68>
    2106:	83 ec 0c             	sub    $0xc,%esp
    2109:	8b 06                	mov    (%esi),%eax
    210b:	50                   	push   %eax
    210c:	e8 df 50 01 00       	call   171f0 <dmamem_unmap_anonymous@plt>
    2111:	89 75 08             	mov    %esi,0x8(%ebp)
    2114:	83 c4 10             	add    $0x10,%esp
    2117:	8d 65 f8             	lea    -0x8(%ebp),%esp
    211a:	5b                   	pop    %ebx
    211b:	5e                   	pop    %esi
    211c:	5d                   	pop    %ebp
    211d:	e9 4e 54 01 00       	jmp    17570 <free@plt>
    2122:	8d b6 00 00 00 00    	lea    0x0(%esi),%esi
    2128:	8d 65 f8             	lea    -0x8(%ebp),%esp
    212b:	5b                   	pop    %ebx
    212c:	5e                   	pop    %esi
    212d:	5d                   	pop    %ebp
    212e:	c3                   	ret    
    212f:	53                   	push   %ebx
    2130:	6a 6f                	push   $0x6f
    2132:	68 ec 30 01 00       	push   $0x130ec
    2137:	68 10 2b 01 00       	push   $0x12b10
    213c:	e8 6f 50 01 00       	call   171b0 <assert_abort@plt>
    2141:	56                   	push   %esi
    2142:	6a 6e                	push   $0x6e
    2144:	68 ec 30 01 00       	push   $0x130ec
    2149:	68 12 31 01 00       	push   $0x13112
    214e:	e8 5d 50 01 00       	call   171b0 <assert_abort@plt>
    2153:	66 90                	xchg   %ax,%ax
    2155:	66 90                	xchg   %ax,%ax
    2157:	66 90                	xchg   %ax,%ax
    2159:	66 90                	xchg   %ax,%ax
    215b:	66 90                	xchg   %ax,%ax
    215d:	66 90                	xchg   %ax,%ax
    215f:	90                   	nop

00002160 <req_get_port_status>:
    2160:	55                   	push   %ebp
    2161:	89 e5                	mov    %esp,%ebp
    2163:	57                   	push   %edi
    2164:	56                   	push   %esi
    2165:	53                   	push   %ebx
    2166:	83 ec 28             	sub    $0x28,%esp
    2169:	8b 4d 08             	mov    0x8(%ebp),%ecx
    216c:	8b 7d 0c             	mov    0xc(%ebp),%edi
    216f:	51                   	push   %ecx
    2170:	e8 1b 6b 00 00       	call   8c90 <virthub_get_data>
    2175:	83 c4 10             	add    $0x10,%esp
    2178:	85 c0                	test   %eax,%eax
    217a:	0f 84 67 01 00 00    	je     22e7 <req_get_port_status+0x187>
    2180:	66 83 7f 06 04       	cmpw   $0x4,0x6(%edi)
    2185:	0f 85 55 01 00 00    	jne    22e0 <req_get_port_status+0x180>
    218b:	89 c3                	mov    %eax,%ebx
    218d:	31 c0                	xor    %eax,%eax
    218f:	66 8b 47 04          	mov    0x4(%edi),%ax
    2193:	8d 70 ff             	lea    -0x1(%eax),%esi
    2196:	3b 73 68             	cmp    0x68(%ebx),%esi
    2199:	0f 87 31 01 00 00    	ja     22d0 <req_get_port_status+0x170>
    219f:	66 83 7f 02 00       	cmpw   $0x0,0x2(%edi)
    21a4:	0f 85 26 01 00 00    	jne    22d0 <req_get_port_status+0x170>
    21aa:	8b 53 64             	mov    0x64(%ebx),%edx
    21ad:	83 ec 0c             	sub    $0xc,%esp
    21b0:	8d 44 82 40          	lea    0x40(%edx,%eax,4),%eax
    21b4:	50                   	push   %eax
    21b5:	e8 d6 4e 01 00       	call   17090 <pio_read_32@plt>
    21ba:	31 d2                	xor    %edx,%edx
    21bc:	89 c7                	mov    %eax,%edi
    21be:	83 c4 0c             	add    $0xc,%esp
    21c1:	83 e7 01             	and    $0x1,%edi
    21c4:	a8 04                	test   $0x4,%al
    21c6:	0f 95 c2             	setne  %dl
    21c9:	01 d2                	add    %edx,%edx
    21cb:	31 c9                	xor    %ecx,%ecx
    21cd:	09 d7                	or     %edx,%edi
    21cf:	88 c2                	mov    %al,%dl
    21d1:	c0 ea 07             	shr    $0x7,%dl
    21d4:	81 e2 ff 00 00 00    	and    $0xff,%edx
    21da:	c1 e2 02             	shl    $0x2,%edx
    21dd:	09 fa                	or     %edi,%edx
    21df:	a8 10                	test   $0x10,%al
    21e1:	0f 95 c1             	setne  %cl
    21e4:	c1 e1 03             	shl    $0x3,%ecx
    21e7:	09 ca                	or     %ecx,%edx
    21e9:	31 c9                	xor    %ecx,%ecx
    21eb:	f6 c4 01             	test   $0x1,%ah
    21ee:	0f 95 c1             	setne  %cl
    21f1:	c1 e1 04             	shl    $0x4,%ecx
    21f4:	09 ca                	or     %ecx,%edx
    21f6:	31 c9                	xor    %ecx,%ecx
    21f8:	f6 c4 10             	test   $0x10,%ah
    21fb:	0f 95 c1             	setne  %cl
    21fe:	c1 e1 08             	shl    $0x8,%ecx
    2201:	09 ca                	or     %ecx,%edx
    2203:	89 c1                	mov    %eax,%ecx
    2205:	81 e1 00 0c 00 00    	and    $0xc00,%ecx
    220b:	81 f9 00 04 00 00    	cmp    $0x400,%ecx
    2211:	0f 94 c1             	sete   %cl
    2214:	81 e1 ff 00 00 00    	and    $0xff,%ecx
    221a:	c1 e1 09             	shl    $0x9,%ecx
    221d:	09 d1                	or     %edx,%ecx
    221f:	31 d2                	xor    %edx,%edx
    2221:	f6 c4 20             	test   $0x20,%ah
    2224:	0f 94 c2             	sete   %dl
    2227:	c1 e2 0a             	shl    $0xa,%edx
    222a:	09 d1                	or     %edx,%ecx
    222c:	31 d2                	xor    %edx,%edx
    222e:	a9 00 00 0f 00       	test   $0xf0000,%eax
    2233:	0f 95 c2             	setne  %dl
    2236:	c1 e2 0b             	shl    $0xb,%edx
    2239:	09 d1                	or     %edx,%ecx
    223b:	31 d2                	xor    %edx,%edx
    223d:	f6 c4 c0             	test   $0xc0,%ah
    2240:	0f 95 c2             	setne  %dl
    2243:	c1 e2 0c             	shl    $0xc,%edx
    2246:	09 d1                	or     %edx,%ecx
    2248:	31 d2                	xor    %edx,%edx
    224a:	a8 02                	test   $0x2,%al
    224c:	0f 95 c2             	setne  %dl
    224f:	c1 e2 10             	shl    $0x10,%edx
    2252:	09 d1                	or     %edx,%ecx
    2254:	31 d2                	xor    %edx,%edx
    2256:	a8 08                	test   $0x8,%al
    2258:	0f 95 c2             	setne  %dl
    225b:	c1 e2 11             	shl    $0x11,%edx
    225e:	09 d1                	or     %edx,%ecx
    2260:	31 d2                	xor    %edx,%edx
    2262:	80 bc 33 8b 00 00 00 	cmpb   $0x0,0x8b(%ebx,%esi,1)
    2269:	00 
    226a:	0f 95 c2             	setne  %dl
    226d:	c1 e2 12             	shl    $0x12,%edx
    2270:	09 d1                	or     %edx,%ecx
    2272:	31 d2                	xor    %edx,%edx
    2274:	a8 20                	test   $0x20,%al
    2276:	0f 95 c2             	setne  %dl
    2279:	c1 e2 13             	shl    $0x13,%edx
    227c:	09 d1                	or     %edx,%ecx
    227e:	31 d2                	xor    %edx,%edx
    2280:	80 7c 33 7c 00       	cmpb   $0x0,0x7c(%ebx,%esi,1)
    2285:	0f 95 c2             	setne  %dl
    2288:	c1 e2 14             	shl    $0x14,%edx
    228b:	50                   	push   %eax
    228c:	09 ca                	or     %ecx,%edx
    228e:	52                   	push   %edx
    228f:	56                   	push   %esi
    2290:	53                   	push   %ebx
    2291:	68 dd 31 01 00       	push   $0x131dd
    2296:	6a 05                	push   $0x5
    2298:	6a ff                	push   $0xffffffff
    229a:	89 55 e4             	mov    %edx,-0x1c(%ebp)
    229d:	e8 9e 4e 01 00       	call   17140 <log_msg@plt>
    22a2:	83 c4 1c             	add    $0x1c,%esp
    22a5:	8d 45 e4             	lea    -0x1c(%ebp),%eax
    22a8:	6a 04                	push   $0x4
    22aa:	50                   	push   %eax
    22ab:	8b 45 10             	mov    0x10(%ebp),%eax
    22ae:	50                   	push   %eax
    22af:	e8 bc 4d 01 00       	call   17070 <memcpy@plt>
    22b4:	8b 45 14             	mov    0x14(%ebp),%eax
    22b7:	83 c4 10             	add    $0x10,%esp
    22ba:	c7 00 04 00 00 00    	movl   $0x4,(%eax)
    22c0:	31 c0                	xor    %eax,%eax
    22c2:	8d 65 f4             	lea    -0xc(%ebp),%esp
    22c5:	5b                   	pop    %ebx
    22c6:	5e                   	pop    %esi
    22c7:	5f                   	pop    %edi
    22c8:	5d                   	pop    %ebp
    22c9:	c3                   	ret    
    22ca:	8d b6 00 00 00 00    	lea    0x0(%esi),%esi
    22d0:	8d 65 f4             	lea    -0xc(%ebp),%esp
    22d3:	b8 f2 ff ff ff       	mov    $0xfffffff2,%eax
    22d8:	5b                   	pop    %ebx
    22d9:	5e                   	pop    %esi
    22da:	5f                   	pop    %edi
    22db:	5d                   	pop    %ebp
    22dc:	c3                   	ret    
    22dd:	8d 76 00             	lea    0x0(%esi),%esi
    22e0:	b8 d3 fe ff ff       	mov    $0xfffffed3,%eax
    22e5:	eb db                	jmp    22c2 <req_get_port_status+0x162>
    22e7:	52                   	push   %edx
    22e8:	68 13 01 00 00       	push   $0x113
    22ed:	68 cf 31 01 00       	push   $0x131cf
    22f2:	68 d9 31 01 00       	push   $0x131d9
    22f7:	e8 b4 4e 01 00       	call   171b0 <assert_abort@plt>
    22fc:	8d 74 26 00          	lea    0x0(%esi,%eiz,1),%esi

00002300 <req_clear_hub_feature>:
    2300:	55                   	push   %ebp
    2301:	89 e5                	mov    %esp,%ebp
    2303:	83 ec 14             	sub    $0x14,%esp
    2306:	8b 55 08             	mov    0x8(%ebp),%edx
    2309:	52                   	push   %edx
    230a:	e8 81 69 00 00       	call   8c90 <virthub_get_data>
    230f:	83 c4 10             	add    $0x10,%esp
    2312:	85 c0                	test   %eax,%eax
    2314:	74 07                	je     231d <req_clear_hub_feature+0x1d>
    2316:	b8 d3 fe ff ff       	mov    $0xfffffed3,%eax
    231b:	c9                   	leave  
    231c:	c3                   	ret    
    231d:	50                   	push   %eax
    231e:	68 f6 00 00 00       	push   $0xf6
    2323:	68 cf 31 01 00       	push   $0x131cf
    2328:	68 d9 31 01 00       	push   $0x131d9
    232d:	e8 7e 4e 01 00       	call   171b0 <assert_abort@plt>
    2332:	8d b4 26 00 00 00 00 	lea    0x0(%esi,%eiz,1),%esi
    2339:	8d bc 27 00 00 00 00 	lea    0x0(%edi,%eiz,1),%edi

00002340 <req_get_status>:
    2340:	55                   	push   %ebp
    2341:	89 e5                	mov    %esp,%ebp
    2343:	83 ec 24             	sub    $0x24,%esp
    2346:	8b 45 08             	mov    0x8(%ebp),%eax
    2349:	50                   	push   %eax
    234a:	e8 41 69 00 00       	call   8c90 <virthub_get_data>
    234f:	83 c4 10             	add    $0x10,%esp
    2352:	85 c0                	test   %eax,%eax
    2354:	74 39                	je     238f <req_get_status+0x4f>
    2356:	8b 45 0c             	mov    0xc(%ebp),%eax
    2359:	66 83 78 06 04       	cmpw   $0x4,0x6(%eax)
    235e:	75 28                	jne    2388 <req_get_status+0x48>
    2360:	8b 55 10             	mov    0x10(%ebp),%edx
    2363:	50                   	push   %eax
    2364:	8d 45 f4             	lea    -0xc(%ebp),%eax
    2367:	6a 04                	push   $0x4
    2369:	c7 45 f4 00 00 00 00 	movl   $0x0,-0xc(%ebp)
    2370:	50                   	push   %eax
    2371:	52                   	push   %edx
    2372:	e8 f9 4c 01 00       	call   17070 <memcpy@plt>
    2377:	8b 45 14             	mov    0x14(%ebp),%eax
    237a:	83 c4 10             	add    $0x10,%esp
    237d:	c7 00 04 00 00 00    	movl   $0x4,(%eax)
    2383:	31 c0                	xor    %eax,%eax
    2385:	c9                   	leave  
    2386:	c3                   	ret    
    2387:	90                   	nop
    2388:	b8 d3 fe ff ff       	mov    $0xfffffed3,%eax
    238d:	c9                   	leave  
    238e:	c3                   	ret    
    238f:	51                   	push   %ecx
    2390:	68 df 00 00 00       	push   $0xdf
    2395:	68 cf 31 01 00       	push   $0x131cf
    239a:	68 d9 31 01 00       	push   $0x131d9
    239f:	e8 0c 4e 01 00       	call   171b0 <assert_abort@plt>
    23a4:	8d b6 00 00 00 00    	lea    0x0(%esi),%esi
    23aa:	8d bf 00 00 00 00    	lea    0x0(%edi),%edi

000023b0 <req_status_change_handler>:
    23b0:	55                   	push   %ebp
    23b1:	89 e5                	mov    %esp,%ebp
    23b3:	57                   	push   %edi
    23b4:	56                   	push   %esi
    23b5:	53                   	push   %ebx
    23b6:	83 ec 38             	sub    $0x38,%esp
    23b9:	8b 45 08             	mov    0x8(%ebp),%eax
    23bc:	50                   	push   %eax
    23bd:	e8 ce 68 00 00       	call   8c90 <virthub_get_data>
    23c2:	83 c4 10             	add    $0x10,%esp
    23c5:	85 c0                	test   %eax,%eax
    23c7:	0f 84 13 01 00 00    	je     24e0 <req_status_change_handler+0x130>
    23cd:	8b 50 68             	mov    0x68(%eax),%edx
    23d0:	89 c7                	mov    %eax,%edi
    23d2:	8d 42 08             	lea    0x8(%edx),%eax
    23d5:	c1 e8 03             	shr    $0x3,%eax
    23d8:	3b 45 18             	cmp    0x18(%ebp),%eax
    23db:	0f 87 f8 00 00 00    	ja     24d9 <req_status_change_handler+0x129>
    23e1:	66 c7 45 e6 00 00    	movw   $0x0,-0x1a(%ebp)
    23e7:	85 d2                	test   %edx,%edx
    23e9:	0f 84 e6 00 00 00    	je     24d5 <req_status_change_handler+0x125>
    23ef:	bb 44 00 00 00       	mov    $0x44,%ebx
    23f4:	31 f6                	xor    %esi,%esi
    23f6:	eb 16                	jmp    240e <req_status_change_handler+0x5e>
    23f8:	b8 02 00 00 00       	mov    $0x2,%eax
    23fd:	89 f1                	mov    %esi,%ecx
    23ff:	d3 e0                	shl    %cl,%eax
    2401:	66 09 45 e6          	or     %ax,-0x1a(%ebp)
    2405:	46                   	inc    %esi
    2406:	83 c3 04             	add    $0x4,%ebx
    2409:	39 77 68             	cmp    %esi,0x68(%edi)
    240c:	76 6a                	jbe    2478 <req_status_change_handler+0xc8>
    240e:	83 ec 0c             	sub    $0xc,%esp
    2411:	8b 47 64             	mov    0x64(%edi),%eax
    2414:	01 d8                	add    %ebx,%eax
    2416:	50                   	push   %eax
    2417:	e8 74 4c 01 00       	call   17090 <pio_read_32@plt>
    241c:	83 c4 10             	add    $0x10,%esp
    241f:	a8 2a                	test   $0x2a,%al
    2421:	75 07                	jne    242a <req_status_change_handler+0x7a>
    2423:	80 7c 37 7c 00       	cmpb   $0x0,0x7c(%edi,%esi,1)
    2428:	74 db                	je     2405 <req_status_change_handler+0x55>
    242a:	25 02 0c 00 00       	and    $0xc02,%eax
    242f:	3d 02 04 00 00       	cmp    $0x402,%eax
    2434:	75 c2                	jne    23f8 <req_status_change_handler+0x48>
    2436:	83 ec 0c             	sub    $0xc,%esp
    2439:	8b 57 64             	mov    0x64(%edi),%edx
    243c:	01 da                	add    %ebx,%edx
    243e:	46                   	inc    %esi
    243f:	52                   	push   %edx
    2440:	89 55 d0             	mov    %edx,-0x30(%ebp)
    2443:	e8 48 4c 01 00       	call   17090 <pio_read_32@plt>
    2448:	c7 04 24 0a 00 00 00 	movl   $0xa,(%esp)
    244f:	89 45 d4             	mov    %eax,-0x2c(%ebp)
    2452:	e8 b9 4e 01 00       	call   17310 <udelay@plt>
    2457:	59                   	pop    %ecx
    2458:	58                   	pop    %eax
    2459:	8b 45 d4             	mov    -0x2c(%ebp),%eax
    245c:	8b 55 d0             	mov    -0x30(%ebp),%edx
    245f:	80 cc 20             	or     $0x20,%ah
    2462:	83 c3 04             	add    $0x4,%ebx
    2465:	50                   	push   %eax
    2466:	52                   	push   %edx
    2467:	e8 64 4e 01 00       	call   172d0 <pio_write_32@plt>
    246c:	83 c4 10             	add    $0x10,%esp
    246f:	39 77 68             	cmp    %esi,0x68(%edi)
    2472:	77 9a                	ja     240e <req_status_change_handler+0x5e>
    2474:	8d 74 26 00          	lea    0x0(%esi,%eiz,1),%esi
    2478:	31 c0                	xor    %eax,%eax
    247a:	66 8b 45 e6          	mov    -0x1a(%ebp),%ax
    247e:	83 ec 0c             	sub    $0xc,%esp
    2481:	50                   	push   %eax
    2482:	57                   	push   %edi
    2483:	68 d0 33 01 00       	push   $0x133d0
    2488:	6a 05                	push   $0x5
    248a:	6a ff                	push   $0xffffffff
    248c:	e8 af 4c 01 00       	call   17140 <log_msg@plt>
    2491:	83 c4 20             	add    $0x20,%esp
    2494:	66 83 7d e6 00       	cmpw   $0x0,-0x1a(%ebp)
    2499:	74 33                	je     24ce <req_status_change_handler+0x11e>
    249b:	50                   	push   %eax
    249c:	8b 55 14             	mov    0x14(%ebp),%edx
    249f:	8b 47 68             	mov    0x68(%edi),%eax
    24a2:	83 c0 08             	add    $0x8,%eax
    24a5:	c1 e8 03             	shr    $0x3,%eax
    24a8:	50                   	push   %eax
    24a9:	8d 45 e6             	lea    -0x1a(%ebp),%eax
    24ac:	50                   	push   %eax
    24ad:	52                   	push   %edx
    24ae:	e8 bd 4b 01 00       	call   17070 <memcpy@plt>
    24b3:	8b 47 68             	mov    0x68(%edi),%eax
    24b6:	83 c0 08             	add    $0x8,%eax
    24b9:	8b 55 1c             	mov    0x1c(%ebp),%edx
    24bc:	c1 e8 03             	shr    $0x3,%eax
    24bf:	83 c4 10             	add    $0x10,%esp
    24c2:	89 02                	mov    %eax,(%edx)
    24c4:	31 c0                	xor    %eax,%eax
    24c6:	8d 65 f4             	lea    -0xc(%ebp),%esp
    24c9:	5b                   	pop    %ebx
    24ca:	5e                   	pop    %esi
    24cb:	5f                   	pop    %edi
    24cc:	5d                   	pop    %ebp
    24cd:	c3                   	ret    
    24ce:	b8 d1 fe ff ff       	mov    $0xfffffed1,%eax
    24d3:	eb f1                	jmp    24c6 <req_status_change_handler+0x116>
    24d5:	31 c0                	xor    %eax,%eax
    24d7:	eb a5                	jmp    247e <req_status_change_handler+0xce>
    24d9:	b8 d3 fe ff ff       	mov    $0xfffffed3,%eax
    24de:	eb e6                	jmp    24c6 <req_status_change_handler+0x116>
    24e0:	50                   	push   %eax
    24e1:	68 01 02 00 00       	push   $0x201
    24e6:	68 cf 31 01 00       	push   $0x131cf
    24eb:	68 d9 31 01 00       	push   $0x131d9
    24f0:	e8 bb 4c 01 00       	call   171b0 <assert_abort@plt>
    24f5:	8d 74 26 00          	lea    0x0(%esi,%eiz,1),%esi
    24f9:	8d bc 27 00 00 00 00 	lea    0x0(%edi,%eiz,1),%edi

00002500 <req_set_port_feature>:
    2500:	55                   	push   %ebp
    2501:	89 e5                	mov    %esp,%ebp
    2503:	57                   	push   %edi
    2504:	56                   	push   %esi
    2505:	53                   	push   %ebx
    2506:	83 ec 28             	sub    $0x28,%esp
    2509:	8b 5d 08             	mov    0x8(%ebp),%ebx
    250c:	8b 75 0c             	mov    0xc(%ebp),%esi
    250f:	53                   	push   %ebx
    2510:	e8 7b 67 00 00       	call   8c90 <virthub_get_data>
    2515:	83 c4 10             	add    $0x10,%esp
    2518:	85 c0                	test   %eax,%eax
    251a:	0f 84 3a 02 00 00    	je     275a <req_set_port_feature+0x25a>
    2520:	66 83 7e 06 00       	cmpw   $0x0,0x6(%esi)
    2525:	0f 85 f5 01 00 00    	jne    2720 <req_set_port_feature+0x220>
    252b:	31 d2                	xor    %edx,%edx
    252d:	89 c3                	mov    %eax,%ebx
    252f:	66 8b 56 04          	mov    0x4(%esi),%dx
    2533:	8d 7a ff             	lea    -0x1(%edx),%edi
    2536:	3b 78 68             	cmp    0x68(%eax),%edi
    2539:	0f 87 f1 01 00 00    	ja     2730 <req_set_port_feature+0x230>
    253f:	66 8b 46 02          	mov    0x2(%esi),%ax
    2543:	66 83 f8 02          	cmp    $0x2,%ax
    2547:	0f 84 8b 01 00 00    	je     26d8 <req_set_port_feature+0x1d8>
    254d:	76 59                	jbe    25a8 <req_set_port_feature+0xa8>
    254f:	66 83 f8 04          	cmp    $0x4,%ax
    2553:	0f 84 cf 00 00 00    	je     2628 <req_set_port_feature+0x128>
    2559:	66 83 f8 08          	cmp    $0x8,%ax
    255d:	0f 85 9d 00 00 00    	jne    2600 <req_set_port_feature+0x100>
    2563:	83 ec 0c             	sub    $0xc,%esp
    2566:	89 55 e4             	mov    %edx,-0x1c(%ebp)
    2569:	57                   	push   %edi
    256a:	53                   	push   %ebx
    256b:	68 4f 32 01 00       	push   $0x1324f
    2570:	6a 05                	push   $0x5
    2572:	6a ff                	push   $0xffffffff
    2574:	e8 c7 4b 01 00       	call   17140 <log_msg@plt>
    2579:	8b 43 64             	mov    0x64(%ebx),%eax
    257c:	8b 55 e4             	mov    -0x1c(%ebp),%edx
    257f:	83 c4 14             	add    $0x14,%esp
    2582:	8d 74 90 40          	lea    0x40(%eax,%edx,4),%esi
    2586:	56                   	push   %esi
    2587:	e8 04 4b 01 00       	call   17090 <pio_read_32@plt>
    258c:	89 c3                	mov    %eax,%ebx
    258e:	c7 04 24 0a 00 00 00 	movl   $0xa,(%esp)
    2595:	80 cf 10             	or     $0x10,%bh
    2598:	e8 73 4d 01 00       	call   17310 <udelay@plt>
    259d:	59                   	pop    %ecx
    259e:	5f                   	pop    %edi
    259f:	eb 49                	jmp    25ea <req_set_port_feature+0xea>
    25a1:	8d b4 26 00 00 00 00 	lea    0x0(%esi,%eiz,1),%esi
    25a8:	66 83 f8 01          	cmp    $0x1,%ax
    25ac:	75 52                	jne    2600 <req_set_port_feature+0x100>
    25ae:	83 ec 0c             	sub    $0xc,%esp
    25b1:	89 55 e4             	mov    %edx,-0x1c(%ebp)
    25b4:	57                   	push   %edi
    25b5:	53                   	push   %ebx
    25b6:	68 fb 31 01 00       	push   $0x131fb
    25bb:	6a 05                	push   $0x5
    25bd:	6a ff                	push   $0xffffffff
    25bf:	e8 7c 4b 01 00       	call   17140 <log_msg@plt>
    25c4:	8b 43 64             	mov    0x64(%ebx),%eax
    25c7:	8b 55 e4             	mov    -0x1c(%ebp),%edx
    25ca:	83 c4 14             	add    $0x14,%esp
    25cd:	8d 74 90 40          	lea    0x40(%eax,%edx,4),%esi
    25d1:	56                   	push   %esi
    25d2:	e8 b9 4a 01 00       	call   17090 <pio_read_32@plt>
    25d7:	89 c3                	mov    %eax,%ebx
    25d9:	c7 04 24 0a 00 00 00 	movl   $0xa,(%esp)
    25e0:	83 cb 04             	or     $0x4,%ebx
    25e3:	e8 28 4d 01 00       	call   17310 <udelay@plt>
    25e8:	58                   	pop    %eax
    25e9:	5a                   	pop    %edx
    25ea:	53                   	push   %ebx
    25eb:	56                   	push   %esi
    25ec:	e8 df 4c 01 00       	call   172d0 <pio_write_32@plt>
    25f1:	83 c4 10             	add    $0x10,%esp
    25f4:	31 c0                	xor    %eax,%eax
    25f6:	8d 65 f4             	lea    -0xc(%ebp),%esp
    25f9:	5b                   	pop    %ebx
    25fa:	5e                   	pop    %esi
    25fb:	5f                   	pop    %edi
    25fc:	5d                   	pop    %ebp
    25fd:	c3                   	ret    
    25fe:	66 90                	xchg   %ax,%ax
    2600:	25 ff ff 00 00       	and    $0xffff,%eax
    2605:	52                   	push   %edx
    2606:	52                   	push   %edx
    2607:	50                   	push   %eax
    2608:	57                   	push   %edi
    2609:	53                   	push   %ebx
    260a:	68 20 34 01 00       	push   $0x13420
    260f:	6a 02                	push   $0x2
    2611:	6a ff                	push   $0xffffffff
    2613:	e8 28 4b 01 00       	call   17140 <log_msg@plt>
    2618:	83 c4 20             	add    $0x20,%esp
    261b:	8d 65 f4             	lea    -0xc(%ebp),%esp
    261e:	b8 f5 ff ff ff       	mov    $0xfffffff5,%eax
    2623:	5b                   	pop    %ebx
    2624:	5e                   	pop    %esi
    2625:	5f                   	pop    %edi
    2626:	5d                   	pop    %ebp
    2627:	c3                   	ret    
    2628:	83 ec 0c             	sub    $0xc,%esp
    262b:	89 55 e4             	mov    %edx,-0x1c(%ebp)
    262e:	57                   	push   %edi
    262f:	53                   	push   %ebx
    2630:	68 34 32 01 00       	push   $0x13234
    2635:	6a 05                	push   $0x5
    2637:	6a ff                	push   $0xffffffff
    2639:	e8 02 4b 01 00       	call   17140 <log_msg@plt>
    263e:	8b 43 64             	mov    0x64(%ebx),%eax
    2641:	8b 55 e4             	mov    -0x1c(%ebp),%edx
    2644:	83 c4 14             	add    $0x14,%esp
    2647:	8d 54 90 40          	lea    0x40(%eax,%edx,4),%edx
    264b:	52                   	push   %edx
    264c:	89 55 e4             	mov    %edx,-0x1c(%ebp)
    264f:	e8 3c 4a 01 00       	call   17090 <pio_read_32@plt>
    2654:	c7 04 24 0a 00 00 00 	movl   $0xa,(%esp)
    265b:	89 c6                	mov    %eax,%esi
    265d:	e8 ae 4c 01 00       	call   17310 <udelay@plt>
    2662:	81 ce 00 01 00 00    	or     $0x100,%esi
    2668:	58                   	pop    %eax
    2669:	5a                   	pop    %edx
    266a:	8b 55 e4             	mov    -0x1c(%ebp),%edx
    266d:	56                   	push   %esi
    266e:	52                   	push   %edx
    266f:	e8 5c 4c 01 00       	call   172d0 <pio_write_32@plt>
    2674:	c7 04 24 08 00 00 00 	movl   $0x8,(%esp)
    267b:	e8 20 4a 01 00       	call   170a0 <malloc@plt>
    2680:	83 c4 10             	add    $0x10,%esp
    2683:	89 c6                	mov    %eax,%esi
    2685:	85 c0                	test   %eax,%eax
    2687:	0f 84 c3 00 00 00    	je     2750 <req_set_port_feature+0x250>
    268d:	89 18                	mov    %ebx,(%eax)
    268f:	89 78 04             	mov    %edi,0x4(%eax)
    2692:	50                   	push   %eax
    2693:	6a 00                	push   $0x0
    2695:	56                   	push   %esi
    2696:	68 e0 2f 00 00       	push   $0x2fe0
    269b:	e8 50 4e 01 00       	call   174f0 <fibril_create_generic@plt>
    26a0:	83 c4 10             	add    $0x10,%esp
    26a3:	85 c0                	test   %eax,%eax
    26a5:	0f 84 8f 00 00 00    	je     273a <req_set_port_feature+0x23a>
    26ab:	83 ec 0c             	sub    $0xc,%esp
    26ae:	50                   	push   %eax
    26af:	e8 5c 4e 01 00       	call   17510 <fibril_add_ready@plt>
    26b4:	89 3c 24             	mov    %edi,(%esp)
    26b7:	53                   	push   %ebx
    26b8:	68 f8 33 01 00       	push   $0x133f8
    26bd:	6a 05                	push   $0x5
    26bf:	6a ff                	push   $0xffffffff
    26c1:	e8 7a 4a 01 00       	call   17140 <log_msg@plt>
    26c6:	83 c4 20             	add    $0x20,%esp
    26c9:	8d 65 f4             	lea    -0xc(%ebp),%esp
    26cc:	31 c0                	xor    %eax,%eax
    26ce:	5b                   	pop    %ebx
    26cf:	5e                   	pop    %esi
    26d0:	5f                   	pop    %edi
    26d1:	5d                   	pop    %ebp
    26d2:	c3                   	ret    
    26d3:	90                   	nop
    26d4:	8d 74 26 00          	lea    0x0(%esi,%eiz,1),%esi
    26d8:	83 ec 0c             	sub    $0xc,%esp
    26db:	89 55 e4             	mov    %edx,-0x1c(%ebp)
    26de:	57                   	push   %edi
    26df:	53                   	push   %ebx
    26e0:	68 17 32 01 00       	push   $0x13217
    26e5:	6a 05                	push   $0x5
    26e7:	6a ff                	push   $0xffffffff
    26e9:	e8 52 4a 01 00       	call   17140 <log_msg@plt>
    26ee:	8b 43 64             	mov    0x64(%ebx),%eax
    26f1:	8b 55 e4             	mov    -0x1c(%ebp),%edx
    26f4:	83 c4 14             	add    $0x14,%esp
    26f7:	8d 74 90 40          	lea    0x40(%eax,%edx,4),%esi
    26fb:	56                   	push   %esi
    26fc:	e8 8f 49 01 00       	call   17090 <pio_read_32@plt>
    2701:	89 c3                	mov    %eax,%ebx
    2703:	c7 04 24 0a 00 00 00 	movl   $0xa,(%esp)
    270a:	80 cb 80             	or     $0x80,%bl
    270d:	e8 fe 4b 01 00       	call   17310 <udelay@plt>
    2712:	59                   	pop    %ecx
    2713:	5f                   	pop    %edi
    2714:	e9 d1 fe ff ff       	jmp    25ea <req_set_port_feature+0xea>
    2719:	8d b4 26 00 00 00 00 	lea    0x0(%esi,%eiz,1),%esi
    2720:	b8 d3 fe ff ff       	mov    $0xfffffed3,%eax
    2725:	e9 cc fe ff ff       	jmp    25f6 <req_set_port_feature+0xf6>
    272a:	8d b6 00 00 00 00    	lea    0x0(%esi),%esi
    2730:	b8 f2 ff ff ff       	mov    $0xfffffff2,%eax
    2735:	e9 bc fe ff ff       	jmp    25f6 <req_set_port_feature+0xf6>
    273a:	83 ec 0c             	sub    $0xc,%esp
    273d:	56                   	push   %esi
    273e:	e8 2d 4e 01 00       	call   17570 <free@plt>
    2743:	83 c4 10             	add    $0x10,%esp
    2746:	b8 fe ff ff ff       	mov    $0xfffffffe,%eax
    274b:	e9 a6 fe ff ff       	jmp    25f6 <req_set_port_feature+0xf6>
    2750:	b8 fe ff ff ff       	mov    $0xfffffffe,%eax
    2755:	e9 9c fe ff ff       	jmp    25f6 <req_set_port_feature+0xf6>
    275a:	51                   	push   %ecx
    275b:	68 d1 01 00 00       	push   $0x1d1
    2760:	68 cf 31 01 00       	push   $0x131cf
    2765:	68 d9 31 01 00       	push   $0x131d9
    276a:	e8 41 4a 01 00       	call   171b0 <assert_abort@plt>
    276f:	90                   	nop

00002770 <req_clear_port_feature>:
    2770:	55                   	push   %ebp
    2771:	89 e5                	mov    %esp,%ebp
    2773:	57                   	push   %edi
    2774:	56                   	push   %esi
    2775:	53                   	push   %ebx
    2776:	83 ec 28             	sub    $0x28,%esp
    2779:	8b 5d 08             	mov    0x8(%ebp),%ebx
    277c:	8b 7d 0c             	mov    0xc(%ebp),%edi
    277f:	53                   	push   %ebx
    2780:	e8 0b 65 00 00       	call   8c90 <virthub_get_data>
    2785:	83 c4 10             	add    $0x10,%esp
    2788:	85 c0                	test   %eax,%eax
    278a:	0f 84 ea 02 00 00    	je     2a7a <req_clear_port_feature+0x30a>
    2790:	66 83 7f 06 00       	cmpw   $0x0,0x6(%edi)
    2795:	0f 85 a5 02 00 00    	jne    2a40 <req_clear_port_feature+0x2d0>
    279b:	31 db                	xor    %ebx,%ebx
    279d:	89 c6                	mov    %eax,%esi
    279f:	66 8b 5f 04          	mov    0x4(%edi),%bx
    27a3:	4b                   	dec    %ebx
    27a4:	3b 58 68             	cmp    0x68(%eax),%ebx
    27a7:	0f 87 a3 02 00 00    	ja     2a50 <req_clear_port_feature+0x2e0>
    27ad:	66 8b 47 02          	mov    0x2(%edi),%ax
    27b1:	66 83 f8 14          	cmp    $0x14,%ax
    27b5:	0f 87 55 02 00 00    	ja     2a10 <req_clear_port_feature+0x2a0>
    27bb:	31 d2                	xor    %edx,%edx
    27bd:	66 89 c2             	mov    %ax,%dx
    27c0:	ff 24 95 a0 36 01 00 	jmp    *0x136a0(,%edx,4)
    27c7:	90                   	nop
    27c8:	83 ec 0c             	sub    $0xc,%esp
    27cb:	53                   	push   %ebx
    27cc:	56                   	push   %esi
    27cd:	68 04 35 01 00       	push   $0x13504
    27d2:	6a 05                	push   $0x5
    27d4:	6a ff                	push   $0xffffffff
    27d6:	e8 65 49 01 00       	call   17140 <log_msg@plt>
    27db:	c6 44 1e 7c 00       	movb   $0x0,0x7c(%esi,%ebx,1)
    27e0:	83 c4 20             	add    $0x20,%esp
    27e3:	31 d2                	xor    %edx,%edx
    27e5:	8d 65 f4             	lea    -0xc(%ebp),%esp
    27e8:	89 d0                	mov    %edx,%eax
    27ea:	5b                   	pop    %ebx
    27eb:	5e                   	pop    %esi
    27ec:	5f                   	pop    %edi
    27ed:	5d                   	pop    %ebp
    27ee:	c3                   	ret    
    27ef:	90                   	nop
    27f0:	83 ec 0c             	sub    $0xc,%esp
    27f3:	53                   	push   %ebx
    27f4:	56                   	push   %esi
    27f5:	68 87 32 01 00       	push   $0x13287
    27fa:	6a 05                	push   $0x5
    27fc:	6a ff                	push   $0xffffffff
    27fe:	e8 3d 49 01 00       	call   17140 <log_msg@plt>
    2803:	8b 46 64             	mov    0x64(%esi),%eax
    2806:	83 c4 14             	add    $0x14,%esp
    2809:	8d 74 98 44          	lea    0x44(%eax,%ebx,4),%esi
    280d:	56                   	push   %esi
    280e:	e8 7d 48 01 00       	call   17090 <pio_read_32@plt>
    2813:	89 c3                	mov    %eax,%ebx
    2815:	c7 04 24 0a 00 00 00 	movl   $0xa,(%esp)
    281c:	83 e3 fb             	and    $0xfffffffb,%ebx
    281f:	e8 ec 4a 01 00       	call   17310 <udelay@plt>
    2824:	59                   	pop    %ecx
    2825:	5f                   	pop    %edi
    2826:	53                   	push   %ebx
    2827:	56                   	push   %esi
    2828:	e8 a3 4a 01 00       	call   172d0 <pio_write_32@plt>
    282d:	83 c4 10             	add    $0x10,%esp
    2830:	8d 65 f4             	lea    -0xc(%ebp),%esp
    2833:	31 d2                	xor    %edx,%edx
    2835:	89 d0                	mov    %edx,%eax
    2837:	5b                   	pop    %ebx
    2838:	5e                   	pop    %esi
    2839:	5f                   	pop    %edi
    283a:	5d                   	pop    %ebp
    283b:	c3                   	ret    
    283c:	8d 74 26 00          	lea    0x0(%esi,%eiz,1),%esi
    2840:	83 ec 0c             	sub    $0xc,%esp
    2843:	8d 3c 9d 44 00 00 00 	lea    0x44(,%ebx,4),%edi
    284a:	53                   	push   %ebx
    284b:	56                   	push   %esi
    284c:	68 44 34 01 00       	push   $0x13444
    2851:	6a 05                	push   $0x5
    2853:	6a ff                	push   $0xffffffff
    2855:	e8 e6 48 01 00       	call   17140 <log_msg@plt>
    285a:	83 c4 14             	add    $0x14,%esp
    285d:	8b 46 64             	mov    0x64(%esi),%eax
    2860:	01 f8                	add    %edi,%eax
    2862:	50                   	push   %eax
    2863:	e8 28 48 01 00       	call   17090 <pio_read_32@plt>
    2868:	83 c4 10             	add    $0x10,%esp
    286b:	31 d2                	xor    %edx,%edx
    286d:	a8 80                	test   $0x80,%al
    286f:	0f 84 70 ff ff ff    	je     27e5 <req_clear_port_feature+0x75>
    2875:	83 ec 0c             	sub    $0xc,%esp
    2878:	8b 4e 64             	mov    0x64(%esi),%ecx
    287b:	01 f9                	add    %edi,%ecx
    287d:	89 55 e0             	mov    %edx,-0x20(%ebp)
    2880:	51                   	push   %ecx
    2881:	89 4d e4             	mov    %ecx,-0x1c(%ebp)
    2884:	e8 07 48 01 00       	call   17090 <pio_read_32@plt>
    2889:	c7 04 24 0a 00 00 00 	movl   $0xa,(%esp)
    2890:	89 c7                	mov    %eax,%edi
    2892:	e8 79 4a 01 00       	call   17310 <udelay@plt>
    2897:	83 cf 40             	or     $0x40,%edi
    289a:	8b 4d e4             	mov    -0x1c(%ebp),%ecx
    289d:	58                   	pop    %eax
    289e:	5a                   	pop    %edx
    289f:	57                   	push   %edi
    28a0:	51                   	push   %ecx
    28a1:	e8 2a 4a 01 00       	call   172d0 <pio_write_32@plt>
    28a6:	c7 04 24 08 00 00 00 	movl   $0x8,(%esp)
    28ad:	e8 ee 47 01 00       	call   170a0 <malloc@plt>
    28b2:	83 c4 10             	add    $0x10,%esp
    28b5:	89 c7                	mov    %eax,%edi
    28b7:	85 c0                	test   %eax,%eax
    28b9:	0f 84 b1 01 00 00    	je     2a70 <req_clear_port_feature+0x300>
    28bf:	89 30                	mov    %esi,(%eax)
    28c1:	89 58 04             	mov    %ebx,0x4(%eax)
    28c4:	51                   	push   %ecx
    28c5:	6a 00                	push   $0x0
    28c7:	50                   	push   %eax
    28c8:	68 30 31 00 00       	push   $0x3130
    28cd:	e8 1e 4c 01 00       	call   174f0 <fibril_create_generic@plt>
    28d2:	83 c4 10             	add    $0x10,%esp
    28d5:	8b 55 e0             	mov    -0x20(%ebp),%edx
    28d8:	85 c0                	test   %eax,%eax
    28da:	0f 84 7a 01 00 00    	je     2a5a <req_clear_port_feature+0x2ea>
    28e0:	83 ec 0c             	sub    $0xc,%esp
    28e3:	89 55 e4             	mov    %edx,-0x1c(%ebp)
    28e6:	50                   	push   %eax
    28e7:	e8 24 4c 01 00       	call   17510 <fibril_add_ready@plt>
    28ec:	89 1c 24             	mov    %ebx,(%esp)
    28ef:	56                   	push   %esi
    28f0:	68 f8 33 01 00       	push   $0x133f8
    28f5:	6a 05                	push   $0x5
    28f7:	6a ff                	push   $0xffffffff
    28f9:	e8 42 48 01 00       	call   17140 <log_msg@plt>
    28fe:	83 c4 20             	add    $0x20,%esp
    2901:	8b 55 e4             	mov    -0x1c(%ebp),%edx
    2904:	e9 dc fe ff ff       	jmp    27e5 <req_clear_port_feature+0x75>
    2909:	8d b4 26 00 00 00 00 	lea    0x0(%esi,%eiz,1),%esi
    2910:	83 ec 0c             	sub    $0xc,%esp
    2913:	53                   	push   %ebx
    2914:	56                   	push   %esi
    2915:	68 6a 32 01 00       	push   $0x1326a
    291a:	6a 05                	push   $0x5
    291c:	6a ff                	push   $0xffffffff
    291e:	e8 1d 48 01 00       	call   17140 <log_msg@plt>
    2923:	8b 46 64             	mov    0x64(%esi),%eax
    2926:	83 c4 14             	add    $0x14,%esp
    2929:	8d 74 98 44          	lea    0x44(%eax,%ebx,4),%esi
    292d:	56                   	push   %esi
    292e:	e8 5d 47 01 00       	call   17090 <pio_read_32@plt>
    2933:	89 c3                	mov    %eax,%ebx
    2935:	c7 04 24 0a 00 00 00 	movl   $0xa,(%esp)
    293c:	80 e7 ef             	and    $0xef,%bh
    293f:	e8 cc 49 01 00       	call   17310 <udelay@plt>
    2944:	58                   	pop    %eax
    2945:	5a                   	pop    %edx
    2946:	e9 db fe ff ff       	jmp    2826 <req_clear_port_feature+0xb6>
    294b:	90                   	nop
    294c:	8d 74 26 00          	lea    0x0(%esi,%eiz,1),%esi
    2950:	83 ec 0c             	sub    $0xc,%esp
    2953:	53                   	push   %ebx
    2954:	56                   	push   %esi
    2955:	68 64 34 01 00       	push   $0x13464
    295a:	6a 05                	push   $0x5
    295c:	6a ff                	push   $0xffffffff
    295e:	e8 dd 47 01 00       	call   17140 <log_msg@plt>
    2963:	8b 46 64             	mov    0x64(%esi),%eax
    2966:	83 c4 14             	add    $0x14,%esp
    2969:	8d 74 98 44          	lea    0x44(%eax,%ebx,4),%esi
    296d:	56                   	push   %esi
    296e:	e8 1d 47 01 00       	call   17090 <pio_read_32@plt>
    2973:	89 c3                	mov    %eax,%ebx
    2975:	c7 04 24 0a 00 00 00 	movl   $0xa,(%esp)
    297c:	83 cb 02             	or     $0x2,%ebx
    297f:	e8 8c 49 01 00       	call   17310 <udelay@plt>
    2984:	58                   	pop    %eax
    2985:	5a                   	pop    %edx
    2986:	e9 9b fe ff ff       	jmp    2826 <req_clear_port_feature+0xb6>
    298b:	90                   	nop
    298c:	8d 74 26 00          	lea    0x0(%esi,%eiz,1),%esi
    2990:	83 ec 0c             	sub    $0xc,%esp
    2993:	53                   	push   %ebx
    2994:	56                   	push   %esi
    2995:	68 90 34 01 00       	push   $0x13490
    299a:	eb be                	jmp    295a <req_clear_port_feature+0x1ea>
    299c:	8d 74 26 00          	lea    0x0(%esi,%eiz,1),%esi
    29a0:	83 ec 0c             	sub    $0xc,%esp
    29a3:	53                   	push   %ebx
    29a4:	56                   	push   %esi
    29a5:	68 dc 34 01 00       	push   $0x134dc
    29aa:	6a 05                	push   $0x5
    29ac:	6a ff                	push   $0xffffffff
    29ae:	e8 8d 47 01 00       	call   17140 <log_msg@plt>
    29b3:	c6 84 1e 8b 00 00 00 	movb   $0x0,0x8b(%esi,%ebx,1)
    29ba:	00 
    29bb:	83 c4 20             	add    $0x20,%esp
    29be:	8d 65 f4             	lea    -0xc(%ebp),%esp
    29c1:	31 d2                	xor    %edx,%edx
    29c3:	89 d0                	mov    %edx,%eax
    29c5:	5b                   	pop    %ebx
    29c6:	5e                   	pop    %esi
    29c7:	5f                   	pop    %edi
    29c8:	5d                   	pop    %ebp
    29c9:	c3                   	ret    
    29ca:	8d b6 00 00 00 00    	lea    0x0(%esi),%esi
    29d0:	83 ec 0c             	sub    $0xc,%esp
    29d3:	53                   	push   %ebx
    29d4:	56                   	push   %esi
    29d5:	68 b8 34 01 00       	push   $0x134b8
    29da:	6a 05                	push   $0x5
    29dc:	6a ff                	push   $0xffffffff
    29de:	e8 5d 47 01 00       	call   17140 <log_msg@plt>
    29e3:	8b 46 64             	mov    0x64(%esi),%eax
    29e6:	83 c4 14             	add    $0x14,%esp
    29e9:	8d 74 98 44          	lea    0x44(%eax,%ebx,4),%esi
    29ed:	56                   	push   %esi
    29ee:	e8 9d 46 01 00       	call   17090 <pio_read_32@plt>
    29f3:	89 c3                	mov    %eax,%ebx
    29f5:	c7 04 24 0a 00 00 00 	movl   $0xa,(%esp)
    29fc:	83 cb 20             	or     $0x20,%ebx
    29ff:	e8 0c 49 01 00       	call   17310 <udelay@plt>
    2a04:	59                   	pop    %ecx
    2a05:	5f                   	pop    %edi
    2a06:	e9 1b fe ff ff       	jmp    2826 <req_clear_port_feature+0xb6>
    2a0b:	90                   	nop
    2a0c:	8d 74 26 00          	lea    0x0(%esi,%eiz,1),%esi
    2a10:	25 ff ff 00 00       	and    $0xffff,%eax
    2a15:	52                   	push   %edx
    2a16:	52                   	push   %edx
    2a17:	50                   	push   %eax
    2a18:	53                   	push   %ebx
    2a19:	56                   	push   %esi
    2a1a:	68 28 35 01 00       	push   $0x13528
    2a1f:	6a 02                	push   $0x2
    2a21:	6a ff                	push   $0xffffffff
    2a23:	e8 18 47 01 00       	call   17140 <log_msg@plt>
    2a28:	83 c4 20             	add    $0x20,%esp
    2a2b:	8d 65 f4             	lea    -0xc(%ebp),%esp
    2a2e:	ba f5 ff ff ff       	mov    $0xfffffff5,%edx
    2a33:	5b                   	pop    %ebx
    2a34:	89 d0                	mov    %edx,%eax
    2a36:	5e                   	pop    %esi
    2a37:	5f                   	pop    %edi
    2a38:	5d                   	pop    %ebp
    2a39:	c3                   	ret    
    2a3a:	8d b6 00 00 00 00    	lea    0x0(%esi),%esi
    2a40:	ba d3 fe ff ff       	mov    $0xfffffed3,%edx
    2a45:	e9 9b fd ff ff       	jmp    27e5 <req_clear_port_feature+0x75>
    2a4a:	8d b6 00 00 00 00    	lea    0x0(%esi),%esi
    2a50:	ba f2 ff ff ff       	mov    $0xfffffff2,%edx
    2a55:	e9 8b fd ff ff       	jmp    27e5 <req_clear_port_feature+0x75>
    2a5a:	83 ec 0c             	sub    $0xc,%esp
    2a5d:	57                   	push   %edi
    2a5e:	e8 0d 4b 01 00       	call   17570 <free@plt>
    2a63:	83 c4 10             	add    $0x10,%esp
    2a66:	ba fe ff ff ff       	mov    $0xfffffffe,%edx
    2a6b:	e9 75 fd ff ff       	jmp    27e5 <req_clear_port_feature+0x75>
    2a70:	ba fe ff ff ff       	mov    $0xfffffffe,%edx
    2a75:	e9 6b fd ff ff       	jmp    27e5 <req_clear_port_feature+0x75>
    2a7a:	51                   	push   %ecx
    2a7b:	68 82 01 00 00       	push   $0x182
    2a80:	68 cf 31 01 00       	push   $0x131cf
    2a85:	68 d9 31 01 00       	push   $0x131d9
    2a8a:	e8 21 47 01 00       	call   171b0 <assert_abort@plt>
    2a8f:	90                   	nop

00002a90 <ehci_rh_init>:
    2a90:	55                   	push   %ebp
    2a91:	89 e5                	mov    %esp,%ebp
    2a93:	57                   	push   %edi
    2a94:	56                   	push   %esi
    2a95:	53                   	push   %ebx
    2a96:	83 ec 1c             	sub    $0x1c,%esp
    2a99:	8b 5d 08             	mov    0x8(%ebp),%ebx
    2a9c:	8b 75 10             	mov    0x10(%ebp),%esi
    2a9f:	85 db                	test   %ebx,%ebx
    2aa1:	0f 84 32 02 00 00    	je     2cd9 <ehci_rh_init+0x249>
    2aa7:	83 ec 0c             	sub    $0xc,%esp
    2aaa:	8b 45 0c             	mov    0xc(%ebp),%eax
    2aad:	83 c0 04             	add    $0x4,%eax
    2ab0:	89 73 64             	mov    %esi,0x64(%ebx)
    2ab3:	89 c7                	mov    %eax,%edi
    2ab5:	50                   	push   %eax
    2ab6:	89 45 e4             	mov    %eax,-0x1c(%ebp)
    2ab9:	e8 d2 45 01 00       	call   17090 <pio_read_32@plt>
    2abe:	83 e0 0f             	and    $0xf,%eax
    2ac1:	89 43 68             	mov    %eax,0x68(%ebx)
    2ac4:	89 3c 24             	mov    %edi,(%esp)
    2ac7:	e8 c4 45 01 00       	call   17090 <pio_read_32@plt>
    2acc:	89 04 24             	mov    %eax,(%esp)
    2acf:	53                   	push   %ebx
    2ad0:	68 a5 32 01 00       	push   $0x132a5
    2ad5:	6a 05                	push   $0x5
    2ad7:	6a ff                	push   $0xffffffff
    2ad9:	e8 62 46 01 00       	call   17140 <log_msg@plt>
    2ade:	83 c4 14             	add    $0x14,%esp
    2ae1:	8b 43 68             	mov    0x68(%ebx),%eax
    2ae4:	50                   	push   %eax
    2ae5:	53                   	push   %ebx
    2ae6:	68 bd 32 01 00       	push   $0x132bd
    2aeb:	6a 03                	push   $0x3
    2aed:	6a ff                	push   $0xffffffff
    2aef:	e8 4c 46 01 00       	call   17140 <log_msg@plt>
    2af4:	83 c4 14             	add    $0x14,%esp
    2af7:	57                   	push   %edi
    2af8:	e8 93 45 01 00       	call   17090 <pio_read_32@plt>
    2afd:	83 c4 10             	add    $0x10,%esp
    2b00:	a8 10                	test   $0x10,%al
    2b02:	0f 84 a8 01 00 00    	je     2cb0 <ehci_rh_init+0x220>
    2b08:	53                   	push   %ebx
    2b09:	68 50 35 01 00       	push   $0x13550
    2b0e:	6a 03                	push   $0x3
    2b10:	6a ff                	push   $0xffffffff
    2b12:	e8 29 46 01 00       	call   17140 <log_msg@plt>
    2b17:	83 c4 10             	add    $0x10,%esp
    2b1a:	8b 43 68             	mov    0x68(%ebx),%eax
    2b1d:	8d 7e 44             	lea    0x44(%esi),%edi
    2b20:	31 f6                	xor    %esi,%esi
    2b22:	85 c0                	test   %eax,%eax
    2b24:	74 2a                	je     2b50 <ehci_rh_init+0xc0>
    2b26:	66 90                	xchg   %ax,%ax
    2b28:	83 ec 0c             	sub    $0xc,%esp
    2b2b:	57                   	push   %edi
    2b2c:	e8 5f 45 01 00       	call   17090 <pio_read_32@plt>
    2b31:	5a                   	pop    %edx
    2b32:	59                   	pop    %ecx
    2b33:	50                   	push   %eax
    2b34:	56                   	push   %esi
    2b35:	46                   	inc    %esi
    2b36:	53                   	push   %ebx
    2b37:	68 f2 32 01 00       	push   $0x132f2
    2b3c:	6a 05                	push   $0x5
    2b3e:	6a ff                	push   $0xffffffff
    2b40:	83 c7 04             	add    $0x4,%edi
    2b43:	e8 f8 45 01 00       	call   17140 <log_msg@plt>
    2b48:	83 c4 20             	add    $0x20,%esp
    2b4b:	39 73 68             	cmp    %esi,0x68(%ebx)
    2b4e:	77 d8                	ja     2b28 <ehci_rh_init+0x98>
    2b50:	83 ec 0c             	sub    $0xc,%esp
    2b53:	c6 43 7c 00          	movb   $0x0,0x7c(%ebx)
    2b57:	c6 83 8b 00 00 00 00 	movb   $0x0,0x8b(%ebx)
    2b5e:	c6 43 7d 00          	movb   $0x0,0x7d(%ebx)
    2b62:	c6 83 8c 00 00 00 00 	movb   $0x0,0x8c(%ebx)
    2b69:	c6 43 7e 00          	movb   $0x0,0x7e(%ebx)
    2b6d:	c6 83 8d 00 00 00 00 	movb   $0x0,0x8d(%ebx)
    2b74:	c6 43 7f 00          	movb   $0x0,0x7f(%ebx)
    2b78:	c6 83 8e 00 00 00 00 	movb   $0x0,0x8e(%ebx)
    2b7f:	c6 83 80 00 00 00 00 	movb   $0x0,0x80(%ebx)
    2b86:	c6 83 8f 00 00 00 00 	movb   $0x0,0x8f(%ebx)
    2b8d:	c6 83 81 00 00 00 00 	movb   $0x0,0x81(%ebx)
    2b94:	c6 83 90 00 00 00 00 	movb   $0x0,0x90(%ebx)
    2b9b:	c6 83 82 00 00 00 00 	movb   $0x0,0x82(%ebx)
    2ba2:	c6 83 91 00 00 00 00 	movb   $0x0,0x91(%ebx)
    2ba9:	c6 83 83 00 00 00 00 	movb   $0x0,0x83(%ebx)
    2bb0:	c6 83 92 00 00 00 00 	movb   $0x0,0x92(%ebx)
    2bb7:	c6 83 84 00 00 00 00 	movb   $0x0,0x84(%ebx)
    2bbe:	c6 83 93 00 00 00 00 	movb   $0x0,0x93(%ebx)
    2bc5:	c6 83 85 00 00 00 00 	movb   $0x0,0x85(%ebx)
    2bcc:	c6 83 94 00 00 00 00 	movb   $0x0,0x94(%ebx)
    2bd3:	c6 83 86 00 00 00 00 	movb   $0x0,0x86(%ebx)
    2bda:	c6 83 95 00 00 00 00 	movb   $0x0,0x95(%ebx)
    2be1:	c6 83 87 00 00 00 00 	movb   $0x0,0x87(%ebx)
    2be8:	c6 83 96 00 00 00 00 	movb   $0x0,0x96(%ebx)
    2bef:	c6 83 88 00 00 00 00 	movb   $0x0,0x88(%ebx)
    2bf6:	c6 83 97 00 00 00 00 	movb   $0x0,0x97(%ebx)
    2bfd:	c6 83 89 00 00 00 00 	movb   $0x0,0x89(%ebx)
    2c04:	c6 83 98 00 00 00 00 	movb   $0x0,0x98(%ebx)
    2c0b:	c6 83 8a 00 00 00 00 	movb   $0x0,0x8a(%ebx)
    2c12:	c6 83 99 00 00 00 00 	movb   $0x0,0x99(%ebx)
    2c19:	8b 75 e4             	mov    -0x1c(%ebp),%esi
    2c1c:	56                   	push   %esi
    2c1d:	e8 6e 44 01 00       	call   17090 <pio_read_32@plt>
    2c22:	8b 4b 68             	mov    0x68(%ebx),%ecx
    2c25:	83 c4 10             	add    $0x10,%esp
    2c28:	8d 51 08             	lea    0x8(%ecx),%edx
    2c2b:	c1 ea 03             	shr    $0x3,%edx
    2c2e:	8d 54 12 07          	lea    0x7(%edx,%edx,1),%edx
    2c32:	83 fa 0b             	cmp    $0xb,%edx
    2c35:	0f 87 8c 00 00 00    	ja     2cc7 <ehci_rh_init+0x237>
    2c3b:	88 53 6c             	mov    %dl,0x6c(%ebx)
    2c3e:	89 c2                	mov    %eax,%edx
    2c40:	83 e2 10             	and    $0x10,%edx
    2c43:	88 4b 6e             	mov    %cl,0x6e(%ebx)
    2c46:	83 fa 01             	cmp    $0x1,%edx
    2c49:	c6 43 6d 29          	movb   $0x29,0x6d(%ebx)
    2c4d:	19 c9                	sbb    %ecx,%ecx
    2c4f:	83 e1 09             	and    $0x9,%ecx
    2c52:	83 e9 17             	sub    $0x17,%ecx
    2c55:	83 fa 01             	cmp    $0x1,%edx
    2c58:	19 d2                	sbb    %edx,%edx
    2c5a:	83 e2 09             	and    $0x9,%edx
    2c5d:	83 c2 69             	add    $0x69,%edx
    2c60:	a9 00 00 01 00       	test   $0x10000,%eax
    2c65:	74 02                	je     2c69 <ehci_rh_init+0x1d9>
    2c67:	88 ca                	mov    %cl,%dl
    2c69:	88 53 6f             	mov    %dl,0x6f(%ebx)
    2c6c:	c6 43 70 00          	movb   $0x0,0x70(%ebx)
    2c70:	c6 43 71 32          	movb   $0x32,0x71(%ebx)
    2c74:	c6 43 72 00          	movb   $0x0,0x72(%ebx)
    2c78:	c6 43 73 ff          	movb   $0xff,0x73(%ebx)
    2c7c:	c6 43 74 ff          	movb   $0xff,0x74(%ebx)
    2c80:	c6 43 75 ff          	movb   $0xff,0x75(%ebx)
    2c84:	c6 43 76 ff          	movb   $0xff,0x76(%ebx)
    2c88:	c7 43 78 00 00 00 00 	movl   $0x0,0x78(%ebx)
    2c8f:	8b 55 14             	mov    0x14(%ebp),%edx
    2c92:	50                   	push   %eax
    2c93:	8d 43 6c             	lea    0x6c(%ebx),%eax
    2c96:	6a 01                	push   $0x1
    2c98:	50                   	push   %eax
    2c99:	6a 00                	push   $0x0
    2c9b:	53                   	push   %ebx
    2c9c:	68 c0 97 01 00       	push   $0x197c0
    2ca1:	52                   	push   %edx
    2ca2:	53                   	push   %ebx
    2ca3:	e8 28 60 00 00       	call   8cd0 <virthub_base_init>
    2ca8:	8d 65 f4             	lea    -0xc(%ebp),%esp
    2cab:	5b                   	pop    %ebx
    2cac:	5e                   	pop    %esi
    2cad:	5f                   	pop    %edi
    2cae:	5d                   	pop    %ebp
    2caf:	c3                   	ret    
    2cb0:	53                   	push   %ebx
    2cb1:	68 d6 32 01 00       	push   $0x132d6
    2cb6:	6a 03                	push   $0x3
    2cb8:	6a ff                	push   $0xffffffff
    2cba:	e8 81 44 01 00       	call   17140 <log_msg@plt>
    2cbf:	83 c4 10             	add    $0x10,%esp
    2cc2:	e9 53 fe ff ff       	jmp    2b1a <ehci_rh_init+0x8a>
    2cc7:	51                   	push   %ecx
    2cc8:	6a 43                	push   $0x43
    2cca:	68 cf 31 01 00       	push   $0x131cf
    2ccf:	68 74 35 01 00       	push   $0x13574
    2cd4:	e8 d7 44 01 00       	call   171b0 <assert_abort@plt>
    2cd9:	50                   	push   %eax
    2cda:	6a 67                	push   $0x67
    2cdc:	68 cf 31 01 00       	push   $0x131cf
    2ce1:	68 fc 30 01 00       	push   $0x130fc
    2ce6:	e8 c5 44 01 00       	call   171b0 <assert_abort@plt>
    2ceb:	90                   	nop
    2cec:	8d 74 26 00          	lea    0x0(%esi,%eiz,1),%esi

00002cf0 <ehci_rh_schedule>:
    2cf0:	55                   	push   %ebp
    2cf1:	89 e5                	mov    %esp,%ebp
    2cf3:	57                   	push   %edi
    2cf4:	56                   	push   %esi
    2cf5:	53                   	push   %ebx
    2cf6:	83 ec 1c             	sub    $0x1c,%esp
    2cf9:	8b 75 08             	mov    0x8(%ebp),%esi
    2cfc:	8b 5d 0c             	mov    0xc(%ebp),%ebx
    2cff:	85 f6                	test   %esi,%esi
    2d01:	0f 84 23 01 00 00    	je     2e2a <ehci_rh_schedule+0x13a>
    2d07:	85 db                	test   %ebx,%ebx
    2d09:	0f 84 30 01 00 00    	je     2e3f <ehci_rh_schedule+0x14f>
    2d0f:	8b 03                	mov    (%ebx),%eax
    2d11:	8d 7b 24             	lea    0x24(%ebx),%edi
    2d14:	8b 4b 14             	mov    0x14(%ebx),%ecx
    2d17:	8b 50 0c             	mov    0xc(%eax),%edx
    2d1a:	89 55 e0             	mov    %edx,-0x20(%ebp)
    2d1d:	8b 53 10             	mov    0x10(%ebx),%edx
    2d20:	89 55 e4             	mov    %edx,-0x1c(%ebp)
    2d23:	8d 53 18             	lea    0x18(%ebx),%edx
    2d26:	83 7b 04 00          	cmpl   $0x0,0x4(%ebx)
    2d2a:	0f 84 b8 00 00 00    	je     2de8 <ehci_rh_schedule+0xf8>
    2d30:	83 7b 08 00          	cmpl   $0x0,0x8(%ebx)
    2d34:	0f 85 1a 01 00 00    	jne    2e54 <ehci_rh_schedule+0x164>
    2d3a:	83 78 14 00          	cmpl   $0x0,0x14(%eax)
    2d3e:	74 70                	je     2db0 <ehci_rh_schedule+0xc0>
    2d40:	8b 40 10             	mov    0x10(%eax),%eax
    2d43:	85 c0                	test   %eax,%eax
    2d45:	0f 85 1e 01 00 00    	jne    2e69 <ehci_rh_schedule+0x179>
    2d4b:	83 ec 04             	sub    $0x4,%esp
    2d4e:	57                   	push   %edi
    2d4f:	8b 7d e0             	mov    -0x20(%ebp),%edi
    2d52:	51                   	push   %ecx
    2d53:	8b 4d e4             	mov    -0x1c(%ebp),%ecx
    2d56:	51                   	push   %ecx
    2d57:	52                   	push   %edx
    2d58:	50                   	push   %eax
    2d59:	57                   	push   %edi
    2d5a:	56                   	push   %esi
    2d5b:	e8 20 61 00 00       	call   8e80 <virthub_base_request>
    2d60:	83 c4 20             	add    $0x20,%esp
    2d63:	89 43 28             	mov    %eax,0x28(%ebx)
    2d66:	3d d1 fe ff ff       	cmp    $0xfffffed1,%eax
    2d6b:	74 4b                	je     2db8 <ehci_rh_schedule+0xc8>
    2d6d:	50                   	push   %eax
    2d6e:	8b 43 24             	mov    0x24(%ebx),%eax
    2d71:	50                   	push   %eax
    2d72:	6a 00                	push   $0x0
    2d74:	53                   	push   %ebx
    2d75:	e8 16 5b 00 00       	call   8890 <usb_transfer_batch_finish_error>
    2d7a:	89 1c 24             	mov    %ebx,(%esp)
    2d7d:	e8 6e 5a 00 00       	call   87f0 <usb_transfer_batch_destroy>
    2d82:	8b 4b 28             	mov    0x28(%ebx),%ecx
    2d85:	5a                   	pop    %edx
    2d86:	51                   	push   %ecx
    2d87:	e8 d4 46 01 00       	call   17460 <str_error@plt>
    2d8c:	5f                   	pop    %edi
    2d8d:	5a                   	pop    %edx
    2d8e:	50                   	push   %eax
    2d8f:	53                   	push   %ebx
    2d90:	56                   	push   %esi
    2d91:	68 f8 35 01 00       	push   $0x135f8
    2d96:	6a 04                	push   $0x4
    2d98:	6a ff                	push   $0xffffffff
    2d9a:	e8 a1 43 01 00       	call   17140 <log_msg@plt>
    2d9f:	83 c4 20             	add    $0x20,%esp
    2da2:	8d 65 f4             	lea    -0xc(%ebp),%esp
    2da5:	31 c0                	xor    %eax,%eax
    2da7:	5b                   	pop    %ebx
    2da8:	5e                   	pop    %esi
    2da9:	5f                   	pop    %edi
    2daa:	5d                   	pop    %ebp
    2dab:	c3                   	ret    
    2dac:	8d 74 26 00          	lea    0x0(%esi,%eiz,1),%esi
    2db0:	31 c0                	xor    %eax,%eax
    2db2:	eb 97                	jmp    2d4b <ehci_rh_schedule+0x5b>
    2db4:	8d 74 26 00          	lea    0x0(%esi,%eiz,1),%esi
    2db8:	83 ec 0c             	sub    $0xc,%esp
    2dbb:	53                   	push   %ebx
    2dbc:	56                   	push   %esi
    2dbd:	68 a0 35 01 00       	push   $0x135a0
    2dc2:	6a 04                	push   $0x4
    2dc4:	6a ff                	push   $0xffffffff
    2dc6:	e8 75 43 01 00       	call   17140 <log_msg@plt>
    2dcb:	8b 7e 78             	mov    0x78(%esi),%edi
    2dce:	83 c4 20             	add    $0x20,%esp
    2dd1:	85 ff                	test   %edi,%edi
    2dd3:	0f 85 a5 00 00 00    	jne    2e7e <ehci_rh_schedule+0x18e>
    2dd9:	89 5e 78             	mov    %ebx,0x78(%esi)
    2ddc:	8d 65 f4             	lea    -0xc(%ebp),%esp
    2ddf:	31 c0                	xor    %eax,%eax
    2de1:	5b                   	pop    %ebx
    2de2:	5e                   	pop    %esi
    2de3:	5f                   	pop    %edi
    2de4:	5d                   	pop    %ebp
    2de5:	c3                   	ret    
    2de6:	66 90                	xchg   %ax,%ax
    2de8:	83 7b 08 00          	cmpl   $0x0,0x8(%ebx)
    2dec:	0f 84 a1 00 00 00    	je     2e93 <ehci_rh_schedule+0x1a3>
    2df2:	83 78 14 00          	cmpl   $0x0,0x14(%eax)
    2df6:	74 28                	je     2e20 <ehci_rh_schedule+0x130>
    2df8:	8b 40 10             	mov    0x10(%eax),%eax
    2dfb:	83 f8 01             	cmp    $0x1,%eax
    2dfe:	0f 84 47 ff ff ff    	je     2d4b <ehci_rh_schedule+0x5b>
    2e04:	50                   	push   %eax
    2e05:	68 90 00 00 00       	push   $0x90
    2e0a:	68 00 2e 01 00       	push   $0x12e00
    2e0f:	68 dc 2e 01 00       	push   $0x12edc
    2e14:	e8 97 43 01 00       	call   171b0 <assert_abort@plt>
    2e19:	8d b4 26 00 00 00 00 	lea    0x0(%esi,%eiz,1),%esi
    2e20:	b8 01 00 00 00       	mov    $0x1,%eax
    2e25:	e9 21 ff ff ff       	jmp    2d4b <ehci_rh_schedule+0x5b>
    2e2a:	52                   	push   %edx
    2e2b:	68 8f 00 00 00       	push   $0x8f
    2e30:	68 cf 31 01 00       	push   $0x131cf
    2e35:	68 fc 30 01 00       	push   $0x130fc
    2e3a:	e8 71 43 01 00       	call   171b0 <assert_abort@plt>
    2e3f:	50                   	push   %eax
    2e40:	68 90 00 00 00       	push   $0x90
    2e45:	68 cf 31 01 00       	push   $0x131cf
    2e4a:	68 e6 2a 01 00       	push   $0x12ae6
    2e4f:	e8 5c 43 01 00       	call   171b0 <assert_abort@plt>
    2e54:	50                   	push   %eax
    2e55:	68 86 00 00 00       	push   $0x86
    2e5a:	68 00 2e 01 00       	push   $0x12e00
    2e5f:	68 40 2e 01 00       	push   $0x12e40
    2e64:	e8 47 43 01 00       	call   171b0 <assert_abort@plt>
    2e69:	50                   	push   %eax
    2e6a:	68 89 00 00 00       	push   $0x89
    2e6f:	68 00 2e 01 00       	push   $0x12e00
    2e74:	68 60 2e 01 00       	push   $0x12e60
    2e79:	e8 32 43 01 00       	call   171b0 <assert_abort@plt>
    2e7e:	51                   	push   %ecx
    2e7f:	68 9e 00 00 00       	push   $0x9e
    2e84:	68 cf 31 01 00       	push   $0x131cf
    2e89:	68 c8 35 01 00       	push   $0x135c8
    2e8e:	e8 1d 43 01 00       	call   171b0 <assert_abort@plt>
    2e93:	50                   	push   %eax
    2e94:	68 93 00 00 00       	push   $0x93
    2e99:	68 00 2e 01 00       	push   $0x12e00
    2e9e:	68 b1 51 01 00       	push   $0x151b1
    2ea3:	e8 08 43 01 00       	call   171b0 <assert_abort@plt>
    2ea8:	90                   	nop
    2ea9:	8d b4 26 00 00 00 00 	lea    0x0(%esi,%eiz,1),%esi

00002eb0 <ehci_rh_interrupt>:
    2eb0:	55                   	push   %ebp
    2eb1:	89 e5                	mov    %esp,%ebp
    2eb3:	57                   	push   %edi
    2eb4:	56                   	push   %esi
    2eb5:	53                   	push   %ebx
    2eb6:	83 ec 28             	sub    $0x28,%esp
    2eb9:	8b 75 08             	mov    0x8(%ebp),%esi
    2ebc:	8b 5e 78             	mov    0x78(%esi),%ebx
    2ebf:	c7 46 78 00 00 00 00 	movl   $0x0,0x78(%esi)
    2ec6:	53                   	push   %ebx
    2ec7:	56                   	push   %esi
    2ec8:	68 28 36 01 00       	push   $0x13628
    2ecd:	6a 05                	push   $0x5
    2ecf:	6a ff                	push   $0xffffffff
    2ed1:	e8 6a 42 01 00       	call   17140 <log_msg@plt>
    2ed6:	83 c4 20             	add    $0x20,%esp
    2ed9:	85 db                	test   %ebx,%ebx
    2edb:	74 6b                	je     2f48 <ehci_rh_interrupt+0x98>
    2edd:	8b 03                	mov    (%ebx),%eax
    2edf:	8d 7b 24             	lea    0x24(%ebx),%edi
    2ee2:	8b 4b 14             	mov    0x14(%ebx),%ecx
    2ee5:	8b 50 0c             	mov    0xc(%eax),%edx
    2ee8:	89 55 e0             	mov    %edx,-0x20(%ebp)
    2eeb:	8b 53 10             	mov    0x10(%ebx),%edx
    2eee:	89 55 e4             	mov    %edx,-0x1c(%ebp)
    2ef1:	8d 53 18             	lea    0x18(%ebx),%edx
    2ef4:	83 7b 04 00          	cmpl   $0x0,0x4(%ebx)
    2ef8:	74 66                	je     2f60 <ehci_rh_interrupt+0xb0>
    2efa:	83 7b 08 00          	cmpl   $0x0,0x8(%ebx)
    2efe:	0f 85 96 00 00 00    	jne    2f9a <ehci_rh_interrupt+0xea>
    2f04:	83 78 14 00          	cmpl   $0x0,0x14(%eax)
    2f08:	74 4e                	je     2f58 <ehci_rh_interrupt+0xa8>
    2f0a:	8b 40 10             	mov    0x10(%eax),%eax
    2f0d:	85 c0                	test   %eax,%eax
    2f0f:	0f 85 9a 00 00 00    	jne    2faf <ehci_rh_interrupt+0xff>
    2f15:	83 ec 04             	sub    $0x4,%esp
    2f18:	57                   	push   %edi
    2f19:	8b 7d e0             	mov    -0x20(%ebp),%edi
    2f1c:	51                   	push   %ecx
    2f1d:	8b 4d e4             	mov    -0x1c(%ebp),%ecx
    2f20:	51                   	push   %ecx
    2f21:	52                   	push   %edx
    2f22:	50                   	push   %eax
    2f23:	57                   	push   %edi
    2f24:	56                   	push   %esi
    2f25:	e8 56 5f 00 00       	call   8e80 <virthub_base_request>
    2f2a:	83 c4 20             	add    $0x20,%esp
    2f2d:	89 43 28             	mov    %eax,0x28(%ebx)
    2f30:	50                   	push   %eax
    2f31:	8b 43 24             	mov    0x24(%ebx),%eax
    2f34:	50                   	push   %eax
    2f35:	6a 00                	push   $0x0
    2f37:	53                   	push   %ebx
    2f38:	e8 53 59 00 00       	call   8890 <usb_transfer_batch_finish_error>
    2f3d:	89 1c 24             	mov    %ebx,(%esp)
    2f40:	e8 ab 58 00 00       	call   87f0 <usb_transfer_batch_destroy>
    2f45:	83 c4 10             	add    $0x10,%esp
    2f48:	8d 65 f4             	lea    -0xc(%ebp),%esp
    2f4b:	31 c0                	xor    %eax,%eax
    2f4d:	5b                   	pop    %ebx
    2f4e:	5e                   	pop    %esi
    2f4f:	5f                   	pop    %edi
    2f50:	5d                   	pop    %ebp
    2f51:	c3                   	ret    
    2f52:	8d b6 00 00 00 00    	lea    0x0(%esi),%esi
    2f58:	31 c0                	xor    %eax,%eax
    2f5a:	eb b9                	jmp    2f15 <ehci_rh_interrupt+0x65>
    2f5c:	8d 74 26 00          	lea    0x0(%esi,%eiz,1),%esi
    2f60:	83 7b 08 00          	cmpl   $0x0,0x8(%ebx)
    2f64:	74 5e                	je     2fc4 <ehci_rh_interrupt+0x114>
    2f66:	83 78 14 00          	cmpl   $0x0,0x14(%eax)
    2f6a:	74 24                	je     2f90 <ehci_rh_interrupt+0xe0>
    2f6c:	8b 40 10             	mov    0x10(%eax),%eax
    2f6f:	83 f8 01             	cmp    $0x1,%eax
    2f72:	74 a1                	je     2f15 <ehci_rh_interrupt+0x65>
    2f74:	50                   	push   %eax
    2f75:	68 90 00 00 00       	push   $0x90
    2f7a:	68 00 2e 01 00       	push   $0x12e00
    2f7f:	68 dc 2e 01 00       	push   $0x12edc
    2f84:	e8 27 42 01 00       	call   171b0 <assert_abort@plt>
    2f89:	8d b4 26 00 00 00 00 	lea    0x0(%esi,%eiz,1),%esi
    2f90:	b8 01 00 00 00       	mov    $0x1,%eax
    2f95:	e9 7b ff ff ff       	jmp    2f15 <ehci_rh_interrupt+0x65>
    2f9a:	50                   	push   %eax
    2f9b:	68 86 00 00 00       	push   $0x86
    2fa0:	68 00 2e 01 00       	push   $0x12e00
    2fa5:	68 40 2e 01 00       	push   $0x12e40
    2faa:	e8 01 42 01 00       	call   171b0 <assert_abort@plt>
    2faf:	50                   	push   %eax
    2fb0:	68 89 00 00 00       	push   $0x89
    2fb5:	68 00 2e 01 00       	push   $0x12e00
    2fba:	68 60 2e 01 00       	push   $0x12e60
    2fbf:	e8 ec 41 01 00       	call   171b0 <assert_abort@plt>
    2fc4:	50                   	push   %eax
    2fc5:	68 93 00 00 00       	push   $0x93
    2fca:	68 00 2e 01 00       	push   $0x12e00
    2fcf:	68 b1 51 01 00       	push   $0x151b1
    2fd4:	e8 d7 41 01 00       	call   171b0 <assert_abort@plt>
    2fd9:	8d b4 26 00 00 00 00 	lea    0x0(%esi,%eiz,1),%esi

00002fe0 <stop_reset>:
    2fe0:	55                   	push   %ebp
    2fe1:	89 e5                	mov    %esp,%ebp
    2fe3:	57                   	push   %edi
    2fe4:	56                   	push   %esi
    2fe5:	53                   	push   %ebx
    2fe6:	83 ec 18             	sub    $0x18,%esp
    2fe9:	8b 5d 08             	mov    0x8(%ebp),%ebx
    2fec:	68 50 c3 00 00       	push   $0xc350
    2ff1:	e8 ca 43 01 00       	call   173c0 <async_usleep@plt>
    2ff6:	8b 43 04             	mov    0x4(%ebx),%eax
    2ff9:	5f                   	pop    %edi
    2ffa:	50                   	push   %eax
    2ffb:	8b 03                	mov    (%ebx),%eax
    2ffd:	50                   	push   %eax
    2ffe:	68 08 33 01 00       	push   $0x13308
    3003:	6a 04                	push   $0x4
    3005:	6a ff                	push   $0xffffffff
    3007:	e8 34 41 01 00       	call   17140 <log_msg@plt>
    300c:	8b 03                	mov    (%ebx),%eax
    300e:	8b 53 04             	mov    0x4(%ebx),%edx
    3011:	8b 40 64             	mov    0x64(%eax),%eax
    3014:	83 c4 14             	add    $0x14,%esp
    3017:	8d 7c 90 44          	lea    0x44(%eax,%edx,4),%edi
    301b:	57                   	push   %edi
    301c:	e8 6f 40 01 00       	call   17090 <pio_read_32@plt>
    3021:	89 c6                	mov    %eax,%esi
    3023:	c7 04 24 0a 00 00 00 	movl   $0xa,(%esp)
    302a:	81 e6 ff fe ff ff    	and    $0xfffffeff,%esi
    3030:	e8 db 42 01 00       	call   17310 <udelay@plt>
    3035:	58                   	pop    %eax
    3036:	5a                   	pop    %edx
    3037:	56                   	push   %esi
    3038:	57                   	push   %edi
    3039:	e8 92 42 01 00       	call   172d0 <pio_write_32@plt>
    303e:	83 c4 10             	add    $0x10,%esp
    3041:	eb 12                	jmp    3055 <stop_reset+0x75>
    3043:	90                   	nop
    3044:	8d 74 26 00          	lea    0x0(%esi,%eiz,1),%esi
    3048:	83 ec 0c             	sub    $0xc,%esp
    304b:	6a 01                	push   $0x1
    304d:	e8 6e 43 01 00       	call   173c0 <async_usleep@plt>
    3052:	83 c4 10             	add    $0x10,%esp
    3055:	8b 03                	mov    (%ebx),%eax
    3057:	8b 53 04             	mov    0x4(%ebx),%edx
    305a:	83 ec 0c             	sub    $0xc,%esp
    305d:	8b 40 64             	mov    0x64(%eax),%eax
    3060:	8d 44 90 44          	lea    0x44(%eax,%edx,4),%eax
    3064:	50                   	push   %eax
    3065:	e8 26 40 01 00       	call   17090 <pio_read_32@plt>
    306a:	83 c4 10             	add    $0x10,%esp
    306d:	f6 c4 01             	test   $0x1,%ah
    3070:	75 d6                	jne    3048 <stop_reset+0x68>
    3072:	83 ec 0c             	sub    $0xc,%esp
    3075:	8b 4b 04             	mov    0x4(%ebx),%ecx
    3078:	8b 33                	mov    (%ebx),%esi
    307a:	51                   	push   %ecx
    307b:	56                   	push   %esi
    307c:	68 22 33 01 00       	push   $0x13322
    3081:	6a 04                	push   $0x4
    3083:	6a ff                	push   $0xffffffff
    3085:	e8 b6 40 01 00       	call   17140 <log_msg@plt>
    308a:	8b 03                	mov    (%ebx),%eax
    308c:	8b 53 04             	mov    0x4(%ebx),%edx
    308f:	83 c4 14             	add    $0x14,%esp
    3092:	8b 40 64             	mov    0x64(%eax),%eax
    3095:	8d 44 90 44          	lea    0x44(%eax,%edx,4),%eax
    3099:	50                   	push   %eax
    309a:	e8 f1 3f 01 00       	call   17090 <pio_read_32@plt>
    309f:	83 c4 10             	add    $0x10,%esp
    30a2:	a8 04                	test   $0x4,%al
    30a4:	75 62                	jne    3108 <stop_reset+0x128>
    30a6:	8b 03                	mov    (%ebx),%eax
    30a8:	8b 53 04             	mov    0x4(%ebx),%edx
    30ab:	83 ec 0c             	sub    $0xc,%esp
    30ae:	8b 40 64             	mov    0x64(%eax),%eax
    30b1:	8d 44 90 44          	lea    0x44(%eax,%edx,4),%eax
    30b5:	50                   	push   %eax
    30b6:	e8 d5 3f 01 00       	call   17090 <pio_read_32@plt>
    30bb:	5a                   	pop    %edx
    30bc:	59                   	pop    %ecx
    30bd:	50                   	push   %eax
    30be:	8b 3b                	mov    (%ebx),%edi
    30c0:	8b 73 04             	mov    0x4(%ebx),%esi
    30c3:	56                   	push   %esi
    30c4:	57                   	push   %edi
    30c5:	68 50 36 01 00       	push   $0x13650
    30ca:	6a 03                	push   $0x3
    30cc:	6a ff                	push   $0xffffffff
    30ce:	e8 6d 40 01 00       	call   17140 <log_msg@plt>
    30d3:	8b 03                	mov    (%ebx),%eax
    30d5:	8b 53 04             	mov    0x4(%ebx),%edx
    30d8:	83 c4 14             	add    $0x14,%esp
    30db:	8b 40 64             	mov    0x64(%eax),%eax
    30de:	8d 7c 90 44          	lea    0x44(%eax,%edx,4),%edi
    30e2:	57                   	push   %edi
    30e3:	e8 a8 3f 01 00       	call   17090 <pio_read_32@plt>
    30e8:	89 c6                	mov    %eax,%esi
    30ea:	c7 04 24 0a 00 00 00 	movl   $0xa,(%esp)
    30f1:	81 ce 00 20 00 00    	or     $0x2000,%esi
    30f7:	e8 14 42 01 00       	call   17310 <udelay@plt>
    30fc:	58                   	pop    %eax
    30fd:	5a                   	pop    %edx
    30fe:	56                   	push   %esi
    30ff:	57                   	push   %edi
    3100:	e8 cb 41 01 00       	call   172d0 <pio_write_32@plt>
    3105:	83 c4 10             	add    $0x10,%esp
    3108:	8b 53 04             	mov    0x4(%ebx),%edx
    310b:	83 ec 0c             	sub    $0xc,%esp
    310e:	8b 03                	mov    (%ebx),%eax
    3110:	c6 44 10 7c 01       	movb   $0x1,0x7c(%eax,%edx,1)
    3115:	50                   	push   %eax
    3116:	e8 95 fd ff ff       	call   2eb0 <ehci_rh_interrupt>
    311b:	89 1c 24             	mov    %ebx,(%esp)
    311e:	e8 4d 44 01 00       	call   17570 <free@plt>
    3123:	8d 65 f4             	lea    -0xc(%ebp),%esp
    3126:	31 c0                	xor    %eax,%eax
    3128:	5b                   	pop    %ebx
    3129:	5e                   	pop    %esi
    312a:	5f                   	pop    %edi
    312b:	5d                   	pop    %ebp
    312c:	c3                   	ret    
    312d:	8d 76 00             	lea    0x0(%esi),%esi

00003130 <stop_resume>:
    3130:	55                   	push   %ebp
    3131:	89 e5                	mov    %esp,%ebp
    3133:	57                   	push   %edi
    3134:	56                   	push   %esi
    3135:	53                   	push   %ebx
    3136:	83 ec 18             	sub    $0x18,%esp
    3139:	8b 5d 08             	mov    0x8(%ebp),%ebx
    313c:	68 20 4e 00 00       	push   $0x4e20
    3141:	e8 7a 42 01 00       	call   173c0 <async_usleep@plt>
    3146:	8b 0b                	mov    (%ebx),%ecx
    3148:	8b 53 04             	mov    0x4(%ebx),%edx
    314b:	58                   	pop    %eax
    314c:	52                   	push   %edx
    314d:	51                   	push   %ecx
    314e:	68 3c 33 01 00       	push   $0x1333c
    3153:	6a 04                	push   $0x4
    3155:	6a ff                	push   $0xffffffff
    3157:	e8 e4 3f 01 00       	call   17140 <log_msg@plt>
    315c:	8b 03                	mov    (%ebx),%eax
    315e:	8b 53 04             	mov    0x4(%ebx),%edx
    3161:	8b 40 64             	mov    0x64(%eax),%eax
    3164:	83 c4 14             	add    $0x14,%esp
    3167:	8d 7c 90 44          	lea    0x44(%eax,%edx,4),%edi
    316b:	57                   	push   %edi
    316c:	e8 1f 3f 01 00       	call   17090 <pio_read_32@plt>
    3171:	89 c6                	mov    %eax,%esi
    3173:	c7 04 24 0a 00 00 00 	movl   $0xa,(%esp)
    317a:	83 e6 bf             	and    $0xffffffbf,%esi
    317d:	e8 8e 41 01 00       	call   17310 <udelay@plt>
    3182:	58                   	pop    %eax
    3183:	5a                   	pop    %edx
    3184:	56                   	push   %esi
    3185:	57                   	push   %edi
    3186:	e8 45 41 01 00       	call   172d0 <pio_write_32@plt>
    318b:	8b 53 04             	mov    0x4(%ebx),%edx
    318e:	8b 03                	mov    (%ebx),%eax
    3190:	c6 84 10 8b 00 00 00 	movb   $0x1,0x8b(%eax,%edx,1)
    3197:	01 
    3198:	89 04 24             	mov    %eax,(%esp)
    319b:	e8 10 fd ff ff       	call   2eb0 <ehci_rh_interrupt>
    31a0:	89 1c 24             	mov    %ebx,(%esp)
    31a3:	e8 c8 43 01 00       	call   17570 <free@plt>
    31a8:	8d 65 f4             	lea    -0xc(%ebp),%esp
    31ab:	31 c0                	xor    %eax,%eax
    31ad:	5b                   	pop    %ebx
    31ae:	5e                   	pop    %esi
    31af:	5f                   	pop    %edi
    31b0:	5d                   	pop    %ebp
    31b1:	c3                   	ret    
    31b2:	66 90                	xchg   %ax,%ax
    31b4:	66 90                	xchg   %ax,%ax
    31b6:	66 90                	xchg   %ax,%ax
    31b8:	66 90                	xchg   %ax,%ax
    31ba:	66 90                	xchg   %ax,%ax
    31bc:	66 90                	xchg   %ax,%ax
    31be:	66 90                	xchg   %ax,%ax

000031c0 <endpoint_list_init>:
    31c0:	55                   	push   %ebp
    31c1:	89 e5                	mov    %esp,%ebp
    31c3:	57                   	push   %edi
    31c4:	56                   	push   %esi
    31c5:	53                   	push   %ebx
    31c6:	83 ec 1c             	sub    $0x1c,%esp
    31c9:	8b 5d 08             	mov    0x8(%ebp),%ebx
    31cc:	8b 75 0c             	mov    0xc(%ebp),%esi
    31cf:	85 db                	test   %ebx,%ebx
    31d1:	0f 84 cd 00 00 00    	je     32a4 <endpoint_list_init+0xe4>
    31d7:	89 73 14             	mov    %esi,0x14(%ebx)
    31da:	8d 7d e4             	lea    -0x1c(%ebp),%edi
    31dd:	50                   	push   %eax
    31de:	50                   	push   %eax
    31df:	8d 45 e0             	lea    -0x20(%ebp),%eax
    31e2:	57                   	push   %edi
    31e3:	c7 45 e4 ff ff ff ff 	movl   $0xffffffff,-0x1c(%ebp)
    31ea:	50                   	push   %eax
    31eb:	6a 00                	push   $0x0
    31ed:	6a 03                	push   $0x3
    31ef:	6a 00                	push   $0x0
    31f1:	68 00 10 00 00       	push   $0x1000
    31f6:	e8 85 41 01 00       	call   17380 <dmamem_map_anonymous@plt>
    31fb:	83 c4 20             	add    $0x20,%esp
    31fe:	85 c0                	test   %eax,%eax
    3200:	75 7e                	jne    3280 <endpoint_list_init+0xc0>
    3202:	50                   	push   %eax
    3203:	8b 45 e4             	mov    -0x1c(%ebp),%eax
    3206:	68 00 10 00 00       	push   $0x1000
    320b:	6a 05                	push   $0x5
    320d:	50                   	push   %eax
    320e:	e8 3d 41 01 00       	call   17350 <memset@plt>
    3213:	8b 45 e4             	mov    -0x1c(%ebp),%eax
    3216:	83 c4 10             	add    $0x10,%esp
    3219:	89 43 10             	mov    %eax,0x10(%ebx)
    321c:	85 c0                	test   %eax,%eax
    321e:	74 67                	je     3287 <endpoint_list_init+0xc7>
    3220:	51                   	push   %ecx
    3221:	51                   	push   %ecx
    3222:	6a 00                	push   $0x0
    3224:	50                   	push   %eax
    3225:	e8 d6 13 00 00       	call   4600 <qh_init>
    322a:	8d 43 18             	lea    0x18(%ebx),%eax
    322d:	89 43 18             	mov    %eax,0x18(%ebx)
    3230:	89 43 1c             	mov    %eax,0x1c(%ebx)
    3233:	89 1c 24             	mov    %ebx,(%esp)
    3236:	e8 55 40 01 00       	call   17290 <fibril_mutex_initialize@plt>
    323b:	8b 4b 10             	mov    0x10(%ebx),%ecx
    323e:	58                   	pop    %eax
    323f:	5a                   	pop    %edx
    3240:	57                   	push   %edi
    3241:	51                   	push   %ecx
    3242:	e8 a9 40 01 00       	call   172f0 <as_get_physical_mapping@plt>
    3247:	83 c4 10             	add    $0x10,%esp
    324a:	31 d2                	xor    %edx,%edx
    324c:	85 c0                	test   %eax,%eax
    324e:	74 28                	je     3278 <endpoint_list_init+0xb8>
    3250:	50                   	push   %eax
    3251:	52                   	push   %edx
    3252:	8b 53 10             	mov    0x10(%ebx),%edx
    3255:	52                   	push   %edx
    3256:	56                   	push   %esi
    3257:	53                   	push   %ebx
    3258:	68 20 38 01 00       	push   $0x13820
    325d:	6a 05                	push   $0x5
    325f:	6a ff                	push   $0xffffffff
    3261:	e8 da 3e 01 00       	call   17140 <log_msg@plt>
    3266:	83 c4 20             	add    $0x20,%esp
    3269:	31 c0                	xor    %eax,%eax
    326b:	8d 65 f4             	lea    -0xc(%ebp),%esp
    326e:	5b                   	pop    %ebx
    326f:	5e                   	pop    %esi
    3270:	5f                   	pop    %edi
    3271:	5d                   	pop    %ebp
    3272:	c3                   	ret    
    3273:	90                   	nop
    3274:	8d 74 26 00          	lea    0x0(%esi,%eiz,1),%esi
    3278:	8b 55 e4             	mov    -0x1c(%ebp),%edx
    327b:	eb d3                	jmp    3250 <endpoint_list_init+0x90>
    327d:	8d 76 00             	lea    0x0(%esi),%esi
    3280:	c7 43 10 00 00 00 00 	movl   $0x0,0x10(%ebx)
    3287:	83 ec 0c             	sub    $0xc,%esp
    328a:	56                   	push   %esi
    328b:	53                   	push   %ebx
    328c:	68 f4 37 01 00       	push   $0x137f4
    3291:	6a 01                	push   $0x1
    3293:	6a ff                	push   $0xffffffff
    3295:	e8 a6 3e 01 00       	call   17140 <log_msg@plt>
    329a:	83 c4 20             	add    $0x20,%esp
    329d:	b8 fe ff ff ff       	mov    $0xfffffffe,%eax
    32a2:	eb c7                	jmp    326b <endpoint_list_init+0xab>
    32a4:	50                   	push   %eax
    32a5:	6a 36                	push   $0x36
    32a7:	68 84 37 01 00       	push   $0x13784
    32ac:	68 fc 30 01 00       	push   $0x130fc
    32b1:	e8 fa 3e 01 00       	call   171b0 <assert_abort@plt>
    32b6:	8d 76 00             	lea    0x0(%esi),%esi
    32b9:	8d bc 27 00 00 00 00 	lea    0x0(%edi,%eiz,1),%edi

000032c0 <endpoint_list_chain>:
    32c0:	55                   	push   %ebp
    32c1:	89 e5                	mov    %esp,%ebp
    32c3:	56                   	push   %esi
    32c4:	53                   	push   %ebx
    32c5:	83 ec 10             	sub    $0x10,%esp
    32c8:	8b 5d 08             	mov    0x8(%ebp),%ebx
    32cb:	8b 75 0c             	mov    0xc(%ebp),%esi
    32ce:	85 db                	test   %ebx,%ebx
    32d0:	0f 84 f5 00 00 00    	je     33cb <endpoint_list_chain+0x10b>
    32d6:	85 f6                	test   %esi,%esi
    32d8:	0f 84 db 00 00 00    	je     33b9 <endpoint_list_chain+0xf9>
    32de:	8b 53 10             	mov    0x10(%ebx),%edx
    32e1:	85 d2                	test   %edx,%edx
    32e3:	0f 84 be 00 00 00    	je     33a7 <endpoint_list_chain+0xe7>
    32e9:	8b 46 10             	mov    0x10(%esi),%eax
    32ec:	85 c0                	test   %eax,%eax
    32ee:	0f 84 a1 00 00 00    	je     3395 <endpoint_list_chain+0xd5>
    32f4:	50                   	push   %eax
    32f5:	8b 46 14             	mov    0x14(%esi),%eax
    32f8:	50                   	push   %eax
    32f9:	56                   	push   %esi
    32fa:	8b 43 14             	mov    0x14(%ebx),%eax
    32fd:	50                   	push   %eax
    32fe:	53                   	push   %ebx
    32ff:	68 54 38 01 00       	push   $0x13854
    3304:	6a 05                	push   $0x5
    3306:	6a ff                	push   $0xffffffff
    3308:	e8 33 3e 01 00       	call   17140 <log_msg@plt>
    330d:	8b 5b 10             	mov    0x10(%ebx),%ebx
    3310:	83 c4 20             	add    $0x20,%esp
    3313:	8b 46 10             	mov    0x10(%esi),%eax
    3316:	85 db                	test   %ebx,%ebx
    3318:	74 66                	je     3380 <endpoint_list_chain+0xc0>
    331a:	85 c0                	test   %eax,%eax
    331c:	74 4d                	je     336b <endpoint_list_chain+0xab>
    331e:	52                   	push   %edx
    331f:	52                   	push   %edx
    3320:	8d 55 f4             	lea    -0xc(%ebp),%edx
    3323:	52                   	push   %edx
    3324:	50                   	push   %eax
    3325:	e8 c6 3f 01 00       	call   172f0 <as_get_physical_mapping@plt>
    332a:	83 c4 10             	add    $0x10,%esp
    332d:	85 c0                	test   %eax,%eax
    332f:	75 17                	jne    3348 <endpoint_list_chain+0x88>
    3331:	8b 45 f4             	mov    -0xc(%ebp),%eax
    3334:	a8 0f                	test   $0xf,%al
    3336:	75 1e                	jne    3356 <endpoint_list_chain+0x96>
    3338:	83 c8 02             	or     $0x2,%eax
    333b:	89 03                	mov    %eax,(%ebx)
    333d:	8d 65 f8             	lea    -0x8(%ebp),%esp
    3340:	5b                   	pop    %ebx
    3341:	5e                   	pop    %esi
    3342:	5d                   	pop    %ebp
    3343:	c3                   	ret    
    3344:	8d 74 26 00          	lea    0x0(%esi,%eiz,1),%esi
    3348:	b8 02 00 00 00       	mov    $0x2,%eax
    334d:	89 03                	mov    %eax,(%ebx)
    334f:	8d 65 f8             	lea    -0x8(%ebp),%esp
    3352:	5b                   	pop    %ebx
    3353:	5e                   	pop    %esi
    3354:	5d                   	pop    %ebp
    3355:	c3                   	ret    
    3356:	50                   	push   %eax
    3357:	68 98 00 00 00       	push   $0x98
    335c:	68 13 2b 01 00       	push   $0x12b13
    3361:	68 7c 38 01 00       	push   $0x1387c
    3366:	e8 45 3e 01 00       	call   171b0 <assert_abort@plt>
    336b:	51                   	push   %ecx
    336c:	68 96 00 00 00       	push   $0x96
    3371:	68 13 2b 01 00       	push   $0x12b13
    3376:	68 94 37 01 00       	push   $0x13794
    337b:	e8 30 3e 01 00       	call   171b0 <assert_abort@plt>
    3380:	53                   	push   %ebx
    3381:	68 95 00 00 00       	push   $0x95
    3386:	68 13 2b 01 00       	push   $0x12b13
    338b:	68 0f 31 01 00       	push   $0x1310f
    3390:	e8 1b 3e 01 00       	call   171b0 <assert_abort@plt>
    3395:	50                   	push   %eax
    3396:	6a 4f                	push   $0x4f
    3398:	68 84 37 01 00       	push   $0x13784
    339d:	68 ad 37 01 00       	push   $0x137ad
    33a2:	e8 09 3e 01 00       	call   171b0 <assert_abort@plt>
    33a7:	50                   	push   %eax
    33a8:	6a 4e                	push   $0x4e
    33aa:	68 84 37 01 00       	push   $0x13784
    33af:	68 99 37 01 00       	push   $0x13799
    33b4:	e8 f7 3d 01 00       	call   171b0 <assert_abort@plt>
    33b9:	51                   	push   %ecx
    33ba:	6a 4d                	push   $0x4d
    33bc:	68 84 37 01 00       	push   $0x13784
    33c1:	68 94 37 01 00       	push   $0x13794
    33c6:	e8 e5 3d 01 00       	call   171b0 <assert_abort@plt>
    33cb:	53                   	push   %ebx
    33cc:	6a 4c                	push   $0x4c
    33ce:	68 84 37 01 00       	push   $0x13784
    33d3:	68 fc 30 01 00       	push   $0x130fc
    33d8:	e8 d3 3d 01 00       	call   171b0 <assert_abort@plt>
    33dd:	8d 76 00             	lea    0x0(%esi),%esi

000033e0 <endpoint_list_append_ep>:
    33e0:	55                   	push   %ebp
    33e1:	89 e5                	mov    %esp,%ebp
    33e3:	57                   	push   %edi
    33e4:	56                   	push   %esi
    33e5:	53                   	push   %ebx
    33e6:	83 ec 2c             	sub    $0x2c,%esp
    33e9:	8b 5d 08             	mov    0x8(%ebp),%ebx
    33ec:	8b 75 0c             	mov    0xc(%ebp),%esi
    33ef:	85 db                	test   %ebx,%ebx
    33f1:	0f 84 6f 01 00 00    	je     3566 <endpoint_list_append_ep+0x186>
    33f7:	85 f6                	test   %esi,%esi
    33f9:	0f 84 55 01 00 00    	je     3554 <endpoint_list_append_ep+0x174>
    33ff:	8b 06                	mov    (%esi),%eax
    3401:	85 c0                	test   %eax,%eax
    3403:	0f 84 39 01 00 00    	je     3542 <endpoint_list_append_ep+0x162>
    3409:	57                   	push   %edi
    340a:	57                   	push   %edi
    340b:	8b 43 14             	mov    0x14(%ebx),%eax
    340e:	56                   	push   %esi
    340f:	50                   	push   %eax
    3410:	53                   	push   %ebx
    3411:	68 a4 38 01 00       	push   $0x138a4
    3416:	6a 05                	push   $0x5
    3418:	6a ff                	push   $0xffffffff
    341a:	e8 21 3d 01 00       	call   17140 <log_msg@plt>
    341f:	83 c4 14             	add    $0x14,%esp
    3422:	53                   	push   %ebx
    3423:	e8 68 41 01 00       	call   17590 <fibril_mutex_lock@plt>
    3428:	8d 53 18             	lea    0x18(%ebx),%edx
    342b:	83 c4 10             	add    $0x10,%esp
    342e:	3b 53 1c             	cmp    0x1c(%ebx),%edx
    3431:	0f 84 a9 00 00 00    	je     34e0 <endpoint_list_append_ep+0x100>
    3437:	8b 43 18             	mov    0x18(%ebx),%eax
    343a:	39 c2                	cmp    %eax,%edx
    343c:	0f 84 ae 00 00 00    	je     34f0 <endpoint_list_append_ep+0x110>
    3442:	83 e8 04             	sub    $0x4,%eax
    3445:	8b 38                	mov    (%eax),%edi
    3447:	85 ff                	test   %edi,%edi
    3449:	0f 84 3e 01 00 00    	je     358d <endpoint_list_append_ep+0x1ad>
    344f:	8b 06                	mov    (%esi),%eax
    3451:	8b 0f                	mov    (%edi),%ecx
    3453:	89 08                	mov    %ecx,(%eax)
    3455:	8b 06                	mov    (%esi),%eax
    3457:	85 c0                	test   %eax,%eax
    3459:	0f 84 40 01 00 00    	je     359f <endpoint_list_append_ep+0x1bf>
    345f:	8d 4d e4             	lea    -0x1c(%ebp),%ecx
    3462:	89 55 d4             	mov    %edx,-0x2c(%ebp)
    3465:	52                   	push   %edx
    3466:	52                   	push   %edx
    3467:	51                   	push   %ecx
    3468:	50                   	push   %eax
    3469:	e8 82 3e 01 00       	call   172f0 <as_get_physical_mapping@plt>
    346e:	83 c4 10             	add    $0x10,%esp
    3471:	8b 55 d4             	mov    -0x2c(%ebp),%edx
    3474:	85 c0                	test   %eax,%eax
    3476:	75 60                	jne    34d8 <endpoint_list_append_ep+0xf8>
    3478:	8b 45 e4             	mov    -0x1c(%ebp),%eax
    347b:	a8 0f                	test   $0xf,%al
    347d:	0f 85 f5 00 00 00    	jne    3578 <endpoint_list_append_ep+0x198>
    3483:	83 c8 02             	or     $0x2,%eax
    3486:	89 07                	mov    %eax,(%edi)
    3488:	8b 4b 18             	mov    0x18(%ebx),%ecx
    348b:	8d 46 04             	lea    0x4(%esi),%eax
    348e:	89 4e 04             	mov    %ecx,0x4(%esi)
    3491:	89 56 08             	mov    %edx,0x8(%esi)
    3494:	8b 4b 18             	mov    0x18(%ebx),%ecx
    3497:	89 41 04             	mov    %eax,0x4(%ecx)
    349a:	89 43 18             	mov    %eax,0x18(%ebx)
    349d:	8b 43 1c             	mov    0x1c(%ebx),%eax
    34a0:	39 c2                	cmp    %eax,%edx
    34a2:	74 44                	je     34e8 <endpoint_list_append_ep+0x108>
    34a4:	83 e8 04             	sub    $0x4,%eax
    34a7:	8b 08                	mov    (%eax),%ecx
    34a9:	51                   	push   %ecx
    34aa:	50                   	push   %eax
    34ab:	56                   	push   %esi
    34ac:	8b 73 14             	mov    0x14(%ebx),%esi
    34af:	56                   	push   %esi
    34b0:	53                   	push   %ebx
    34b1:	68 c8 38 01 00       	push   $0x138c8
    34b6:	6a 04                	push   $0x4
    34b8:	6a ff                	push   $0xffffffff
    34ba:	e8 81 3c 01 00       	call   17140 <log_msg@plt>
    34bf:	83 c4 20             	add    $0x20,%esp
    34c2:	3b 7b 10             	cmp    0x10(%ebx),%edi
    34c5:	74 39                	je     3500 <endpoint_list_append_ep+0x120>
    34c7:	83 ec 0c             	sub    $0xc,%esp
    34ca:	53                   	push   %ebx
    34cb:	e8 90 3d 01 00       	call   17260 <fibril_mutex_unlock@plt>
    34d0:	8d 65 f4             	lea    -0xc(%ebp),%esp
    34d3:	5b                   	pop    %ebx
    34d4:	5e                   	pop    %esi
    34d5:	5f                   	pop    %edi
    34d6:	5d                   	pop    %ebp
    34d7:	c3                   	ret    
    34d8:	b8 02 00 00 00       	mov    $0x2,%eax
    34dd:	eb a7                	jmp    3486 <endpoint_list_append_ep+0xa6>
    34df:	90                   	nop
    34e0:	8b 7b 10             	mov    0x10(%ebx),%edi
    34e3:	e9 5f ff ff ff       	jmp    3447 <endpoint_list_append_ep+0x67>
    34e8:	b8 fc ff ff ff       	mov    $0xfffffffc,%eax
    34ed:	eb b8                	jmp    34a7 <endpoint_list_append_ep+0xc7>
    34ef:	90                   	nop
    34f0:	b8 fc ff ff ff       	mov    $0xfffffffc,%eax
    34f5:	e9 4b ff ff ff       	jmp    3445 <endpoint_list_append_ep+0x65>
    34fa:	8d b6 00 00 00 00    	lea    0x0(%esi),%esi
    3500:	8b 17                	mov    (%edi),%edx
    3502:	8d 45 e4             	lea    -0x1c(%ebp),%eax
    3505:	8b 77 18             	mov    0x18(%edi),%esi
    3508:	89 55 d4             	mov    %edx,-0x2c(%ebp)
    350b:	52                   	push   %edx
    350c:	52                   	push   %edx
    350d:	50                   	push   %eax
    350e:	57                   	push   %edi
    350f:	e8 dc 3d 01 00       	call   172f0 <as_get_physical_mapping@plt>
    3514:	83 c4 10             	add    $0x10,%esp
    3517:	31 c9                	xor    %ecx,%ecx
    3519:	8b 55 d4             	mov    -0x2c(%ebp),%edx
    351c:	85 c0                	test   %eax,%eax
    351e:	75 03                	jne    3523 <endpoint_list_append_ep+0x143>
    3520:	8b 4d e4             	mov    -0x1c(%ebp),%ecx
    3523:	83 ec 0c             	sub    $0xc,%esp
    3526:	8b 43 14             	mov    0x14(%ebx),%eax
    3529:	52                   	push   %edx
    352a:	56                   	push   %esi
    352b:	51                   	push   %ecx
    352c:	57                   	push   %edi
    352d:	50                   	push   %eax
    352e:	53                   	push   %ebx
    352f:	68 fc 38 01 00       	push   $0x138fc
    3534:	6a 05                	push   $0x5
    3536:	6a ff                	push   $0xffffffff
    3538:	e8 03 3c 01 00       	call   17140 <log_msg@plt>
    353d:	83 c4 30             	add    $0x30,%esp
    3540:	eb 85                	jmp    34c7 <endpoint_list_append_ep+0xe7>
    3542:	50                   	push   %eax
    3543:	6a 62                	push   $0x62
    3545:	68 84 37 01 00       	push   $0x13784
    354a:	68 bd 37 01 00       	push   $0x137bd
    354f:	e8 5c 3c 01 00       	call   171b0 <assert_abort@plt>
    3554:	50                   	push   %eax
    3555:	6a 61                	push   $0x61
    3557:	68 84 37 01 00       	push   $0x13784
    355c:	68 10 2b 01 00       	push   $0x12b10
    3561:	e8 4a 3c 01 00       	call   171b0 <assert_abort@plt>
    3566:	50                   	push   %eax
    3567:	6a 60                	push   $0x60
    3569:	68 84 37 01 00       	push   $0x13784
    356e:	68 fc 30 01 00       	push   $0x130fc
    3573:	e8 38 3c 01 00       	call   171b0 <assert_abort@plt>
    3578:	57                   	push   %edi
    3579:	68 98 00 00 00       	push   $0x98
    357e:	68 13 2b 01 00       	push   $0x12b13
    3583:	68 7c 38 01 00       	push   $0x1387c
    3588:	e8 23 3c 01 00       	call   171b0 <assert_abort@plt>
    358d:	53                   	push   %ebx
    358e:	6a 73                	push   $0x73
    3590:	68 84 37 01 00       	push   $0x13784
    3595:	68 c4 37 01 00       	push   $0x137c4
    359a:	e8 11 3c 01 00       	call   171b0 <assert_abort@plt>
    359f:	51                   	push   %ecx
    35a0:	68 96 00 00 00       	push   $0x96
    35a5:	68 13 2b 01 00       	push   $0x12b13
    35aa:	68 94 37 01 00       	push   $0x13794
    35af:	e8 fc 3b 01 00       	call   171b0 <assert_abort@plt>
    35b4:	8d b6 00 00 00 00    	lea    0x0(%esi),%esi
    35ba:	8d bf 00 00 00 00    	lea    0x0(%edi),%edi

000035c0 <endpoint_list_remove_ep>:
    35c0:	55                   	push   %ebp
    35c1:	89 e5                	mov    %esp,%ebp
    35c3:	57                   	push   %edi
    35c4:	56                   	push   %esi
    35c5:	53                   	push   %ebx
    35c6:	83 ec 2c             	sub    $0x2c,%esp
    35c9:	8b 75 08             	mov    0x8(%ebp),%esi
    35cc:	8b 5d 0c             	mov    0xc(%ebp),%ebx
    35cf:	85 f6                	test   %esi,%esi
    35d1:	0f 84 71 01 00 00    	je     3748 <endpoint_list_remove_ep+0x188>
    35d7:	8b 46 10             	mov    0x10(%esi),%eax
    35da:	85 c0                	test   %eax,%eax
    35dc:	0f 84 51 01 00 00    	je     3733 <endpoint_list_remove_ep+0x173>
    35e2:	85 db                	test   %ebx,%ebx
    35e4:	0f 84 34 01 00 00    	je     371e <endpoint_list_remove_ep+0x15e>
    35ea:	8b 3b                	mov    (%ebx),%edi
    35ec:	85 ff                	test   %edi,%edi
    35ee:	0f 84 15 01 00 00    	je     3709 <endpoint_list_remove_ep+0x149>
    35f4:	83 ec 0c             	sub    $0xc,%esp
    35f7:	56                   	push   %esi
    35f8:	e8 93 3f 01 00       	call   17590 <fibril_mutex_lock@plt>
    35fd:	8b 4e 14             	mov    0x14(%esi),%ecx
    3600:	58                   	pop    %eax
    3601:	5a                   	pop    %edx
    3602:	53                   	push   %ebx
    3603:	51                   	push   %ecx
    3604:	56                   	push   %esi
    3605:	68 d6 37 01 00       	push   $0x137d6
    360a:	6a 05                	push   $0x5
    360c:	6a ff                	push   $0xffffffff
    360e:	e8 2d 3b 01 00       	call   17140 <log_msg@plt>
    3613:	8b 46 1c             	mov    0x1c(%esi),%eax
    3616:	8d 56 18             	lea    0x18(%esi),%edx
    3619:	83 c4 20             	add    $0x20,%esp
    361c:	39 d0                	cmp    %edx,%eax
    361e:	74 0b                	je     362b <endpoint_list_remove_ep+0x6b>
    3620:	8d 53 04             	lea    0x4(%ebx),%edx
    3623:	39 d0                	cmp    %edx,%eax
    3625:	0f 84 a5 00 00 00    	je     36d0 <endpoint_list_remove_ep+0x110>
    362b:	8b 43 04             	mov    0x4(%ebx),%eax
    362e:	c7 45 d0 cc 37 01 00 	movl   $0x137cc,-0x30(%ebp)
    3635:	8b 78 fc             	mov    -0x4(%eax),%edi
    3638:	85 ff                	test   %edi,%edi
    363a:	0f 84 b4 00 00 00    	je     36f4 <endpoint_list_remove_ep+0x134>
    3640:	8b 07                	mov    (%edi),%eax
    3642:	83 e0 f0             	and    $0xfffffff0,%eax
    3645:	89 45 d4             	mov    %eax,-0x2c(%ebp)
    3648:	50                   	push   %eax
    3649:	50                   	push   %eax
    364a:	8d 45 e4             	lea    -0x1c(%ebp),%eax
    364d:	50                   	push   %eax
    364e:	8b 03                	mov    (%ebx),%eax
    3650:	50                   	push   %eax
    3651:	e8 9a 3c 01 00       	call   172f0 <as_get_physical_mapping@plt>
    3656:	83 c4 10             	add    $0x10,%esp
    3659:	31 c9                	xor    %ecx,%ecx
    365b:	85 c0                	test   %eax,%eax
    365d:	74 69                	je     36c8 <endpoint_list_remove_ep+0x108>
    365f:	3b 4d d4             	cmp    -0x2c(%ebp),%ecx
    3662:	75 7b                	jne    36df <endpoint_list_remove_ep+0x11f>
    3664:	8b 03                	mov    (%ebx),%eax
    3666:	8b 00                	mov    (%eax),%eax
    3668:	89 07                	mov    %eax,(%edi)
    366a:	8b 03                	mov    (%ebx),%eax
    366c:	8b 00                	mov    (%eax),%eax
    366e:	50                   	push   %eax
    366f:	8b 45 d0             	mov    -0x30(%ebp),%eax
    3672:	50                   	push   %eax
    3673:	53                   	push   %ebx
    3674:	8b 56 14             	mov    0x14(%esi),%edx
    3677:	52                   	push   %edx
    3678:	56                   	push   %esi
    3679:	68 4c 39 01 00       	push   $0x1394c
    367e:	6a 04                	push   $0x4
    3680:	6a ff                	push   $0xffffffff
    3682:	e8 b9 3a 01 00       	call   17140 <log_msg@plt>
    3687:	8b 53 04             	mov    0x4(%ebx),%edx
    368a:	83 c4 20             	add    $0x20,%esp
    368d:	85 d2                	test   %edx,%edx
    368f:	74 0f                	je     36a0 <endpoint_list_remove_ep+0xe0>
    3691:	8b 43 08             	mov    0x8(%ebx),%eax
    3694:	85 c0                	test   %eax,%eax
    3696:	74 08                	je     36a0 <endpoint_list_remove_ep+0xe0>
    3698:	89 10                	mov    %edx,(%eax)
    369a:	8b 53 04             	mov    0x4(%ebx),%edx
    369d:	89 42 04             	mov    %eax,0x4(%edx)
    36a0:	83 ec 0c             	sub    $0xc,%esp
    36a3:	c7 43 04 00 00 00 00 	movl   $0x0,0x4(%ebx)
    36aa:	c7 43 08 00 00 00 00 	movl   $0x0,0x8(%ebx)
    36b1:	56                   	push   %esi
    36b2:	e8 a9 3b 01 00       	call   17260 <fibril_mutex_unlock@plt>
    36b7:	83 c4 10             	add    $0x10,%esp
    36ba:	8d 65 f4             	lea    -0xc(%ebp),%esp
    36bd:	5b                   	pop    %ebx
    36be:	5e                   	pop    %esi
    36bf:	5f                   	pop    %edi
    36c0:	5d                   	pop    %ebp
    36c1:	c3                   	ret    
    36c2:	8d b6 00 00 00 00    	lea    0x0(%esi),%esi
    36c8:	8b 4d e4             	mov    -0x1c(%ebp),%ecx
    36cb:	eb 92                	jmp    365f <endpoint_list_remove_ep+0x9f>
    36cd:	8d 76 00             	lea    0x0(%esi),%esi
    36d0:	8b 7e 10             	mov    0x10(%esi),%edi
    36d3:	c7 45 d0 d0 37 01 00 	movl   $0x137d0,-0x30(%ebp)
    36da:	e9 59 ff ff ff       	jmp    3638 <endpoint_list_remove_ep+0x78>
    36df:	51                   	push   %ecx
    36e0:	68 a9 00 00 00       	push   $0xa9
    36e5:	68 84 37 01 00       	push   $0x13784
    36ea:	68 20 39 01 00       	push   $0x13920
    36ef:	e8 bc 3a 01 00       	call   171b0 <assert_abort@plt>
    36f4:	50                   	push   %eax
    36f5:	68 9e 00 00 00       	push   $0x9e
    36fa:	68 13 2b 01 00       	push   $0x12b13
    36ff:	68 0f 31 01 00       	push   $0x1310f
    3704:	e8 a7 3a 01 00       	call   171b0 <assert_abort@plt>
    3709:	53                   	push   %ebx
    370a:	68 97 00 00 00       	push   $0x97
    370f:	68 84 37 01 00       	push   $0x13784
    3714:	68 bd 37 01 00       	push   $0x137bd
    3719:	e8 92 3a 01 00       	call   171b0 <assert_abort@plt>
    371e:	50                   	push   %eax
    371f:	68 96 00 00 00       	push   $0x96
    3724:	68 84 37 01 00       	push   $0x13784
    3729:	68 10 2b 01 00       	push   $0x12b10
    372e:	e8 7d 3a 01 00       	call   171b0 <assert_abort@plt>
    3733:	50                   	push   %eax
    3734:	68 95 00 00 00       	push   $0x95
    3739:	68 84 37 01 00       	push   $0x13784
    373e:	68 99 37 01 00       	push   $0x13799
    3743:	e8 68 3a 01 00       	call   171b0 <assert_abort@plt>
    3748:	50                   	push   %eax
    3749:	68 94 00 00 00       	push   $0x94
    374e:	68 84 37 01 00       	push   $0x13784
    3753:	68 fc 30 01 00       	push   $0x130fc
    3758:	e8 53 3a 01 00       	call   171b0 <assert_abort@plt>
    375d:	66 90                	xchg   %ax,%ax
    375f:	90                   	nop

00003760 <ehci_hc_gen_irq_code>:
    3760:	55                   	push   %ebp
    3761:	89 e5                	mov    %esp,%ebp
    3763:	57                   	push   %edi
    3764:	56                   	push   %esi
    3765:	53                   	push   %ebx
    3766:	83 ec 3c             	sub    $0x3c,%esp
    3769:	8b 5d 08             	mov    0x8(%ebp),%ebx
    376c:	85 db                	test   %ebx,%ebx
    376e:	0f 84 93 01 00 00    	je     3907 <ehci_hc_gen_irq_code+0x1a7>
    3774:	8b 75 0c             	mov    0xc(%ebp),%esi
    3777:	85 f6                	test   %esi,%esi
    3779:	0f 84 76 01 00 00    	je     38f5 <ehci_hc_gen_irq_code+0x195>
    377f:	8b 45 0c             	mov    0xc(%ebp),%eax
    3782:	83 38 01             	cmpl   $0x1,(%eax)
    3785:	0f 85 35 01 00 00    	jne    38c0 <ehci_hc_gen_irq_code+0x160>
    378b:	83 78 10 01          	cmpl   $0x1,0x10(%eax)
    378f:	0f 85 2b 01 00 00    	jne    38c0 <ehci_hc_gen_irq_code+0x160>
    3795:	8b 70 14             	mov    0x14(%eax),%esi
    3798:	b9 06 00 00 00       	mov    $0x6,%ecx
    379d:	8d 7d d0             	lea    -0x30(%ebp),%edi
    37a0:	f3 a5                	rep movsl %ds:(%esi),%es:(%edi)
    37a2:	83 7d e0 43          	cmpl   $0x43,-0x20(%ebp)
    37a6:	0f 86 24 01 00 00    	jbe    38d0 <ehci_hc_gen_irq_code+0x170>
    37ac:	83 ec 0c             	sub    $0xc,%esp
    37af:	6a 08                	push   $0x8
    37b1:	e8 ea 38 01 00       	call   170a0 <malloc@plt>
    37b6:	83 c4 10             	add    $0x10,%esp
    37b9:	89 43 04             	mov    %eax,0x4(%ebx)
    37bc:	85 c0                	test   %eax,%eax
    37be:	0f 84 14 01 00 00    	je     38d8 <ehci_hc_gen_irq_code+0x178>
    37c4:	83 ec 0c             	sub    $0xc,%esp
    37c7:	6a 64                	push   $0x64
    37c9:	e8 d2 38 01 00       	call   170a0 <malloc@plt>
    37ce:	83 c4 10             	add    $0x10,%esp
    37d1:	89 43 0c             	mov    %eax,0xc(%ebx)
    37d4:	85 c0                	test   %eax,%eax
    37d6:	0f 84 03 01 00 00    	je     38df <ehci_hc_gen_irq_code+0x17f>
    37dc:	c7 03 01 00 00 00    	movl   $0x1,(%ebx)
    37e2:	c7 43 08 05 00 00 00 	movl   $0x5,0x8(%ebx)
    37e9:	51                   	push   %ecx
    37ea:	6a 08                	push   $0x8
    37ec:	68 c4 3f 01 00       	push   $0x13fc4
    37f1:	8b 73 04             	mov    0x4(%ebx),%esi
    37f4:	56                   	push   %esi
    37f5:	e8 76 38 01 00       	call   17070 <memcpy@plt>
    37fa:	83 c4 0c             	add    $0xc,%esp
    37fd:	8b 43 04             	mov    0x4(%ebx),%eax
    3800:	8b 55 d0             	mov    -0x30(%ebp),%edx
    3803:	89 10                	mov    %edx,(%eax)
    3805:	6a 64                	push   $0x64
    3807:	68 60 3f 01 00       	push   $0x13f60
    380c:	8b 7b 0c             	mov    0xc(%ebx),%edi
    380f:	57                   	push   %edi
    3810:	e8 5b 38 01 00       	call   17070 <memcpy@plt>
    3815:	58                   	pop    %eax
    3816:	8d 45 cc             	lea    -0x34(%ebp),%eax
    3819:	5a                   	pop    %edx
    381a:	50                   	push   %eax
    381b:	8d 45 d0             	lea    -0x30(%ebp),%eax
    381e:	c7 45 cc 00 00 00 00 	movl   $0x0,-0x34(%ebp)
    3825:	50                   	push   %eax
    3826:	e8 55 38 01 00       	call   17080 <pio_enable_range@plt>
    382b:	83 c4 10             	add    $0x10,%esp
    382e:	85 c0                	test   %eax,%eax
    3830:	75 66                	jne    3898 <ehci_hc_gen_irq_code+0x138>
    3832:	83 ec 0c             	sub    $0xc,%esp
    3835:	8b 45 cc             	mov    -0x34(%ebp),%eax
    3838:	50                   	push   %eax
    3839:	e8 52 39 01 00       	call   17190 <pio_read_8@plt>
    383e:	8b 4d d0             	mov    -0x30(%ebp),%ecx
    3841:	25 ff 00 00 00       	and    $0xff,%eax
    3846:	8b 53 0c             	mov    0xc(%ebx),%edx
    3849:	01 c8                	add    %ecx,%eax
    384b:	83 c0 04             	add    $0x4,%eax
    384e:	83 c2 1c             	add    $0x1c,%edx
    3851:	89 42 e8             	mov    %eax,-0x18(%edx)
    3854:	89 42 24             	mov    %eax,0x24(%edx)
    3857:	5b                   	pop    %ebx
    3858:	5e                   	pop    %esi
    3859:	6a 37                	push   $0x37
    385b:	52                   	push   %edx
    385c:	e8 6f 3a 01 00       	call   172d0 <pio_write_32@plt>
    3861:	5f                   	pop    %edi
    3862:	58                   	pop    %eax
    3863:	8b 45 0c             	mov    0xc(%ebp),%eax
    3866:	8b 40 04             	mov    0x4(%eax),%eax
    3869:	8b 00                	mov    (%eax),%eax
    386b:	50                   	push   %eax
    386c:	8b 45 e0             	mov    -0x20(%ebp),%eax
    386f:	50                   	push   %eax
    3870:	8b 45 d0             	mov    -0x30(%ebp),%eax
    3873:	50                   	push   %eax
    3874:	68 6c 3b 01 00       	push   $0x13b6c
    3879:	6a 04                	push   $0x4
    387b:	6a ff                	push   $0xffffffff
    387d:	e8 be 38 01 00       	call   17140 <log_msg@plt>
    3882:	8b 45 0c             	mov    0xc(%ebp),%eax
    3885:	8b 40 04             	mov    0x4(%eax),%eax
    3888:	83 c4 20             	add    $0x20,%esp
    388b:	8b 00                	mov    (%eax),%eax
    388d:	8d 65 f4             	lea    -0xc(%ebp),%esp
    3890:	5b                   	pop    %ebx
    3891:	5e                   	pop    %esi
    3892:	5f                   	pop    %edi
    3893:	5d                   	pop    %ebp
    3894:	c3                   	ret    
    3895:	8d 76 00             	lea    0x0(%esi),%esi
    3898:	83 ec 0c             	sub    $0xc,%esp
    389b:	89 45 c4             	mov    %eax,-0x3c(%ebp)
    389e:	8b 43 04             	mov    0x4(%ebx),%eax
    38a1:	50                   	push   %eax
    38a2:	e8 c9 3c 01 00       	call   17570 <free@plt>
    38a7:	8b 53 0c             	mov    0xc(%ebx),%edx
    38aa:	58                   	pop    %eax
    38ab:	52                   	push   %edx
    38ac:	e8 bf 3c 01 00       	call   17570 <free@plt>
    38b1:	8b 45 c4             	mov    -0x3c(%ebp),%eax
    38b4:	83 c4 10             	add    $0x10,%esp
    38b7:	8d 65 f4             	lea    -0xc(%ebp),%esp
    38ba:	5b                   	pop    %ebx
    38bb:	5e                   	pop    %esi
    38bc:	5f                   	pop    %edi
    38bd:	5d                   	pop    %ebp
    38be:	c3                   	ret    
    38bf:	90                   	nop
    38c0:	8d 65 f4             	lea    -0xc(%ebp),%esp
    38c3:	b8 f2 ff ff ff       	mov    $0xfffffff2,%eax
    38c8:	5b                   	pop    %ebx
    38c9:	5e                   	pop    %esi
    38ca:	5f                   	pop    %edi
    38cb:	5d                   	pop    %ebp
    38cc:	c3                   	ret    
    38cd:	8d 76 00             	lea    0x0(%esi),%esi
    38d0:	b8 f0 ff ff ff       	mov    $0xfffffff0,%eax
    38d5:	eb b6                	jmp    388d <ehci_hc_gen_irq_code+0x12d>
    38d7:	90                   	nop
    38d8:	b8 fe ff ff ff       	mov    $0xfffffffe,%eax
    38dd:	eb ae                	jmp    388d <ehci_hc_gen_irq_code+0x12d>
    38df:	83 ec 0c             	sub    $0xc,%esp
    38e2:	8b 4b 04             	mov    0x4(%ebx),%ecx
    38e5:	51                   	push   %ecx
    38e6:	e8 85 3c 01 00       	call   17570 <free@plt>
    38eb:	83 c4 10             	add    $0x10,%esp
    38ee:	b8 fe ff ff ff       	mov    $0xfffffffe,%eax
    38f3:	eb 98                	jmp    388d <ehci_hc_gen_irq_code+0x12d>
    38f5:	53                   	push   %ebx
    38f6:	6a 67                	push   $0x67
    38f8:	68 12 6b 01 00       	push   $0x16b12
    38fd:	68 92 39 01 00       	push   $0x13992
    3902:	e8 a9 38 01 00       	call   171b0 <assert_abort@plt>
    3907:	57                   	push   %edi
    3908:	6a 66                	push   $0x66
    390a:	68 12 6b 01 00       	push   $0x16b12
    390f:	68 8d 39 01 00       	push   $0x1398d
    3914:	e8 97 38 01 00       	call   171b0 <assert_abort@plt>
    3919:	8d b4 26 00 00 00 00 	lea    0x0(%esi,%eiz,1),%esi

00003920 <hc_init>:
    3920:	55                   	push   %ebp
    3921:	89 e5                	mov    %esp,%ebp
    3923:	57                   	push   %edi
    3924:	56                   	push   %esi
    3925:	53                   	push   %ebx
    3926:	83 ec 3c             	sub    $0x3c,%esp
    3929:	8b 5d 08             	mov    0x8(%ebp),%ebx
    392c:	8b 75 0c             	mov    0xc(%ebp),%esi
    392f:	85 db                	test   %ebx,%ebx
    3931:	0f 84 51 06 00 00    	je     3f88 <hc_init+0x668>
    3937:	85 f6                	test   %esi,%esi
    3939:	0f 84 5e 06 00 00    	je     3f9d <hc_init+0x67d>
    393f:	83 7e 10 01          	cmpl   $0x1,0x10(%esi)
    3943:	0f 85 9f 05 00 00    	jne    3ee8 <hc_init+0x5c8>
    3949:	8b 46 14             	mov    0x14(%esi),%eax
    394c:	83 78 10 57          	cmpl   $0x57,0x10(%eax)
    3950:	0f 86 92 05 00 00    	jbe    3ee8 <hc_init+0x5c8>
    3956:	51                   	push   %ecx
    3957:	51                   	push   %ecx
    3958:	53                   	push   %ebx
    3959:	50                   	push   %eax
    395a:	e8 21 37 01 00       	call   17080 <pio_enable_range@plt>
    395f:	83 c4 10             	add    $0x10,%esp
    3962:	89 45 d4             	mov    %eax,-0x2c(%ebp)
    3965:	85 c0                	test   %eax,%eax
    3967:	0f 85 c3 04 00 00    	jne    3e30 <hc_init+0x510>
    396d:	8b 46 14             	mov    0x14(%esi),%eax
    3970:	51                   	push   %ecx
    3971:	8b 78 10             	mov    0x10(%eax),%edi
    3974:	8b 50 04             	mov    0x4(%eax),%edx
    3977:	57                   	push   %edi
    3978:	52                   	push   %edx
    3979:	8b 08                	mov    (%eax),%ecx
    397b:	51                   	push   %ecx
    397c:	53                   	push   %ebx
    397d:	68 d4 3b 01 00       	push   $0x13bd4
    3982:	6a 03                	push   $0x3
    3984:	6a ff                	push   $0xffffffff
    3986:	e8 b5 37 01 00       	call   17140 <log_msg@plt>
    398b:	83 c4 14             	add    $0x14,%esp
    398e:	8b 3b                	mov    (%ebx),%edi
    3990:	57                   	push   %edi
    3991:	e8 fa 37 01 00       	call   17190 <pio_read_8@plt>
    3996:	88 c1                	mov    %al,%cl
    3998:	31 c0                	xor    %eax,%eax
    399a:	88 c8                	mov    %cl,%al
    399c:	01 c7                	add    %eax,%edi
    399e:	8b 46 14             	mov    0x14(%esi),%eax
    39a1:	89 7b 04             	mov    %edi,0x4(%ebx)
    39a4:	8b 30                	mov    (%eax),%esi
    39a6:	8b 78 04             	mov    0x4(%eax),%edi
    39a9:	58                   	pop    %eax
    39aa:	8b 03                	mov    (%ebx),%eax
    39ac:	50                   	push   %eax
    39ad:	e8 de 37 01 00       	call   17190 <pio_read_8@plt>
    39b2:	88 c1                	mov    %al,%cl
    39b4:	58                   	pop    %eax
    39b5:	31 c0                	xor    %eax,%eax
    39b7:	5a                   	pop    %edx
    39b8:	88 c8                	mov    %cl,%al
    39ba:	31 d2                	xor    %edx,%edx
    39bc:	01 c6                	add    %eax,%esi
    39be:	11 d7                	adc    %edx,%edi
    39c0:	57                   	push   %edi
    39c1:	56                   	push   %esi
    39c2:	53                   	push   %ebx
    39c3:	68 08 3c 01 00       	push   $0x13c08
    39c8:	6a 03                	push   $0x3
    39ca:	6a ff                	push   $0xffffffff
    39cc:	e8 6f 37 01 00       	call   17140 <log_msg@plt>
    39d1:	83 c4 14             	add    $0x14,%esp
    39d4:	8d 43 4c             	lea    0x4c(%ebx),%eax
    39d7:	8d 73 0c             	lea    0xc(%ebx),%esi
    39da:	89 43 4c             	mov    %eax,0x4c(%ebx)
    39dd:	89 43 50             	mov    %eax,0x50(%ebx)
    39e0:	8d 43 54             	lea    0x54(%ebx),%eax
    39e3:	50                   	push   %eax
    39e4:	e8 a7 38 01 00       	call   17290 <fibril_mutex_initialize@plt>
    39e9:	8d 43 64             	lea    0x64(%ebx),%eax
    39ec:	89 04 24             	mov    %eax,(%esp)
    39ef:	e8 1c 38 01 00       	call   17210 <fibril_condvar_initialize@plt>
    39f4:	89 34 24             	mov    %esi,(%esp)
    39f7:	53                   	push   %ebx
    39f8:	68 34 3c 01 00       	push   $0x13c34
    39fd:	6a 05                	push   $0x5
    39ff:	6a ff                	push   $0xffffffff
    3a01:	e8 3a 37 01 00       	call   17140 <log_msg@plt>
    3a06:	83 c4 18             	add    $0x18,%esp
    3a09:	68 99 39 01 00       	push   $0x13999
    3a0e:	56                   	push   %esi
    3a0f:	e8 ac f7 ff ff       	call   31c0 <endpoint_list_init>
    3a14:	83 c4 10             	add    $0x10,%esp
    3a17:	89 45 d4             	mov    %eax,-0x2c(%ebp)
    3a1a:	85 c0                	test   %eax,%eax
    3a1c:	0f 85 3e 04 00 00    	jne    3e60 <hc_init+0x540>
    3a22:	52                   	push   %edx
    3a23:	52                   	push   %edx
    3a24:	56                   	push   %esi
    3a25:	56                   	push   %esi
    3a26:	8d 73 2c             	lea    0x2c(%ebx),%esi
    3a29:	e8 92 f8 ff ff       	call   32c0 <endpoint_list_chain>
    3a2e:	89 34 24             	mov    %esi,(%esp)
    3a31:	53                   	push   %ebx
    3a32:	68 84 3c 01 00       	push   $0x13c84
    3a37:	6a 05                	push   $0x5
    3a39:	6a ff                	push   $0xffffffff
    3a3b:	e8 00 37 01 00       	call   17140 <log_msg@plt>
    3a40:	83 c4 18             	add    $0x18,%esp
    3a43:	68 9f 39 01 00       	push   $0x1399f
    3a48:	56                   	push   %esi
    3a49:	e8 72 f7 ff ff       	call   31c0 <endpoint_list_init>
    3a4e:	83 c4 10             	add    $0x10,%esp
    3a51:	89 45 d4             	mov    %eax,-0x2c(%ebp)
    3a54:	85 c0                	test   %eax,%eax
    3a56:	0f 85 54 04 00 00    	jne    3eb0 <hc_init+0x590>
    3a5c:	50                   	push   %eax
    3a5d:	50                   	push   %eax
    3a5e:	8d 45 e4             	lea    -0x1c(%ebp),%eax
    3a61:	c7 45 e4 ff ff ff ff 	movl   $0xffffffff,-0x1c(%ebp)
    3a68:	50                   	push   %eax
    3a69:	8d 45 e0             	lea    -0x20(%ebp),%eax
    3a6c:	50                   	push   %eax
    3a6d:	6a 00                	push   $0x0
    3a6f:	6a 03                	push   $0x3
    3a71:	6a 00                	push   $0x0
    3a73:	68 00 10 00 00       	push   $0x1000
    3a78:	e8 03 39 01 00       	call   17380 <dmamem_map_anonymous@plt>
    3a7d:	83 c4 20             	add    $0x20,%esp
    3a80:	85 c0                	test   %eax,%eax
    3a82:	0f 85 9f 04 00 00    	jne    3f27 <hc_init+0x607>
    3a88:	50                   	push   %eax
    3a89:	8b 45 e4             	mov    -0x1c(%ebp),%eax
    3a8c:	68 00 10 00 00       	push   $0x1000
    3a91:	6a 05                	push   $0x5
    3a93:	50                   	push   %eax
    3a94:	e8 b7 38 01 00       	call   17350 <memset@plt>
    3a99:	8b 45 e4             	mov    -0x1c(%ebp),%eax
    3a9c:	83 c4 10             	add    $0x10,%esp
    3a9f:	89 43 08             	mov    %eax,0x8(%ebx)
    3aa2:	85 c0                	test   %eax,%eax
    3aa4:	0f 84 84 04 00 00    	je     3f2e <hc_init+0x60e>
    3aaa:	53                   	push   %ebx
    3aab:	68 d8 3c 01 00       	push   $0x13cd8
    3ab0:	6a 05                	push   $0x5
    3ab2:	6a ff                	push   $0xffffffff
    3ab4:	31 ff                	xor    %edi,%edi
    3ab6:	e8 85 36 01 00       	call   17140 <log_msg@plt>
    3abb:	83 c4 10             	add    $0x10,%esp
    3abe:	66 90                	xchg   %ax,%ax
    3ac0:	8b 73 08             	mov    0x8(%ebx),%esi
    3ac3:	50                   	push   %eax
    3ac4:	50                   	push   %eax
    3ac5:	8d 45 e4             	lea    -0x1c(%ebp),%eax
    3ac8:	50                   	push   %eax
    3ac9:	8b 43 3c             	mov    0x3c(%ebx),%eax
    3acc:	50                   	push   %eax
    3acd:	e8 1e 38 01 00       	call   172f0 <as_get_physical_mapping@plt>
    3ad2:	01 fe                	add    %edi,%esi
    3ad4:	83 c4 10             	add    $0x10,%esp
    3ad7:	ba 02 00 00 00       	mov    $0x2,%edx
    3adc:	85 c0                	test   %eax,%eax
    3ade:	75 09                	jne    3ae9 <hc_init+0x1c9>
    3ae0:	8b 55 e4             	mov    -0x1c(%ebp),%edx
    3ae3:	83 e2 f0             	and    $0xfffffff0,%edx
    3ae6:	83 ca 02             	or     $0x2,%edx
    3ae9:	83 c7 04             	add    $0x4,%edi
    3aec:	89 16                	mov    %edx,(%esi)
    3aee:	81 ff 00 10 00 00    	cmp    $0x1000,%edi
    3af4:	75 ca                	jne    3ac0 <hc_init+0x1a0>
    3af6:	83 ec 0c             	sub    $0xc,%esp
    3af9:	8d 73 6c             	lea    0x6c(%ebx),%esi
    3afc:	56                   	push   %esi
    3afd:	53                   	push   %ebx
    3afe:	68 5a 3a 01 00       	push   $0x13a5a
    3b03:	6a 03                	push   $0x3
    3b05:	6a ff                	push   $0xffffffff
    3b07:	e8 34 36 01 00       	call   17140 <log_msg@plt>
    3b0c:	83 c4 20             	add    $0x20,%esp
    3b0f:	8b 13                	mov    (%ebx),%edx
    3b11:	8b 43 04             	mov    0x4(%ebx),%eax
    3b14:	68 77 3a 01 00       	push   $0x13a77
    3b19:	50                   	push   %eax
    3b1a:	52                   	push   %edx
    3b1b:	56                   	push   %esi
    3b1c:	e8 6f ef ff ff       	call   2a90 <ehci_rh_init>
    3b21:	53                   	push   %ebx
    3b22:	68 7f 3a 01 00       	push   $0x13a7f
    3b27:	6a 04                	push   $0x4
    3b29:	6a ff                	push   $0xffffffff
    3b2b:	e8 10 36 01 00       	call   17140 <log_msg@plt>
    3b30:	83 c4 14             	add    $0x14,%esp
    3b33:	8b 43 04             	mov    0x4(%ebx),%eax
    3b36:	83 c0 04             	add    $0x4,%eax
    3b39:	50                   	push   %eax
    3b3a:	e8 51 35 01 00       	call   17090 <pio_read_32@plt>
    3b3f:	83 c4 10             	add    $0x10,%esp
    3b42:	f6 c4 10             	test   $0x10,%ah
    3b45:	0f 85 b5 03 00 00    	jne    3f00 <hc_init+0x5e0>
    3b4b:	51                   	push   %ecx
    3b4c:	51                   	push   %ecx
    3b4d:	8b 43 04             	mov    0x4(%ebx),%eax
    3b50:	6a 00                	push   $0x0
    3b52:	83 c0 08             	add    $0x8,%eax
    3b55:	50                   	push   %eax
    3b56:	e8 75 37 01 00       	call   172d0 <pio_write_32@plt>
    3b5b:	8b 43 04             	mov    0x4(%ebx),%eax
    3b5e:	5e                   	pop    %esi
    3b5f:	83 c0 04             	add    $0x4,%eax
    3b62:	5f                   	pop    %edi
    3b63:	6a 3f                	push   $0x3f
    3b65:	50                   	push   %eax
    3b66:	e8 65 37 01 00       	call   172d0 <pio_write_32@plt>
    3b6b:	8b 4b 04             	mov    0x4(%ebx),%ecx
    3b6e:	58                   	pop    %eax
    3b6f:	5a                   	pop    %edx
    3b70:	6a 00                	push   $0x0
    3b72:	51                   	push   %ecx
    3b73:	e8 58 37 01 00       	call   172d0 <pio_write_32@plt>
    3b78:	83 c4 10             	add    $0x10,%esp
    3b7b:	eb 10                	jmp    3b8d <hc_init+0x26d>
    3b7d:	8d 76 00             	lea    0x0(%esi),%esi
    3b80:	83 ec 0c             	sub    $0xc,%esp
    3b83:	6a 01                	push   $0x1
    3b85:	e8 36 38 01 00       	call   173c0 <async_usleep@plt>
    3b8a:	83 c4 10             	add    $0x10,%esp
    3b8d:	83 ec 0c             	sub    $0xc,%esp
    3b90:	8b 43 04             	mov    0x4(%ebx),%eax
    3b93:	83 c0 04             	add    $0x4,%eax
    3b96:	50                   	push   %eax
    3b97:	e8 f4 34 01 00       	call   17090 <pio_read_32@plt>
    3b9c:	83 c4 10             	add    $0x10,%esp
    3b9f:	f6 c4 10             	test   $0x10,%ah
    3ba2:	74 dc                	je     3b80 <hc_init+0x260>
    3ba4:	53                   	push   %ebx
    3ba5:	68 a3 39 01 00       	push   $0x139a3
    3baa:	6a 03                	push   $0x3
    3bac:	6a ff                	push   $0xffffffff
    3bae:	e8 8d 35 01 00       	call   17140 <log_msg@plt>
    3bb3:	83 c4 10             	add    $0x10,%esp
    3bb6:	83 ec 0c             	sub    $0xc,%esp
    3bb9:	8b 53 04             	mov    0x4(%ebx),%edx
    3bbc:	89 55 d0             	mov    %edx,-0x30(%ebp)
    3bbf:	52                   	push   %edx
    3bc0:	e8 cb 34 01 00       	call   17090 <pio_read_32@plt>
    3bc5:	89 c6                	mov    %eax,%esi
    3bc7:	c7 04 24 0a 00 00 00 	movl   $0xa,(%esp)
    3bce:	83 ce 02             	or     $0x2,%esi
    3bd1:	e8 3a 37 01 00       	call   17310 <udelay@plt>
    3bd6:	58                   	pop    %eax
    3bd7:	5a                   	pop    %edx
    3bd8:	8b 55 d0             	mov    -0x30(%ebp),%edx
    3bdb:	56                   	push   %esi
    3bdc:	52                   	push   %edx
    3bdd:	e8 ee 36 01 00       	call   172d0 <pio_write_32@plt>
    3be2:	53                   	push   %ebx
    3be3:	68 da 39 01 00       	push   $0x139da
    3be8:	6a 03                	push   $0x3
    3bea:	6a ff                	push   $0xffffffff
    3bec:	e8 4f 35 01 00       	call   17140 <log_msg@plt>
    3bf1:	83 c4 20             	add    $0x20,%esp
    3bf4:	eb 0f                	jmp    3c05 <hc_init+0x2e5>
    3bf6:	66 90                	xchg   %ax,%ax
    3bf8:	83 ec 0c             	sub    $0xc,%esp
    3bfb:	6a 01                	push   $0x1
    3bfd:	e8 be 37 01 00       	call   173c0 <async_usleep@plt>
    3c02:	83 c4 10             	add    $0x10,%esp
    3c05:	83 ec 0c             	sub    $0xc,%esp
    3c08:	8b 43 04             	mov    0x4(%ebx),%eax
    3c0b:	50                   	push   %eax
    3c0c:	e8 7f 34 01 00       	call   17090 <pio_read_32@plt>
    3c11:	83 c4 10             	add    $0x10,%esp
    3c14:	a8 02                	test   $0x2,%al
    3c16:	75 e0                	jne    3bf8 <hc_init+0x2d8>
    3c18:	53                   	push   %ebx
    3c19:	68 f8 39 01 00       	push   $0x139f8
    3c1e:	6a 04                	push   $0x4
    3c20:	6a ff                	push   $0xffffffff
    3c22:	e8 19 35 01 00       	call   17140 <log_msg@plt>
    3c27:	8b 43 04             	mov    0x4(%ebx),%eax
    3c2a:	83 c0 10             	add    $0x10,%eax
    3c2d:	5e                   	pop    %esi
    3c2e:	5f                   	pop    %edi
    3c2f:	6a 00                	push   $0x0
    3c31:	50                   	push   %eax
    3c32:	e8 99 36 01 00       	call   172d0 <pio_write_32@plt>
    3c37:	8b 43 08             	mov    0x8(%ebx),%eax
    3c3a:	83 c4 10             	add    $0x10,%esp
    3c3d:	85 c0                	test   %eax,%eax
    3c3f:	0f 84 2e 03 00 00    	je     3f73 <hc_init+0x653>
    3c45:	8d 4d e4             	lea    -0x1c(%ebp),%ecx
    3c48:	52                   	push   %edx
    3c49:	52                   	push   %edx
    3c4a:	51                   	push   %ecx
    3c4b:	50                   	push   %eax
    3c4c:	e8 9f 36 01 00       	call   172f0 <as_get_physical_mapping@plt>
    3c51:	83 c4 10             	add    $0x10,%esp
    3c54:	85 c0                	test   %eax,%eax
    3c56:	0f 85 c4 02 00 00    	jne    3f20 <hc_init+0x600>
    3c5c:	8b 55 e4             	mov    -0x1c(%ebp),%edx
    3c5f:	89 d0                	mov    %edx,%eax
    3c61:	25 00 f0 ff ff       	and    $0xfffff000,%eax
    3c66:	39 c2                	cmp    %eax,%edx
    3c68:	0f 85 59 03 00 00    	jne    3fc7 <hc_init+0x6a7>
    3c6e:	52                   	push   %edx
    3c6f:	52                   	push   %edx
    3c70:	50                   	push   %eax
    3c71:	8b 43 04             	mov    0x4(%ebx),%eax
    3c74:	83 c0 14             	add    $0x14,%eax
    3c77:	50                   	push   %eax
    3c78:	e8 53 36 01 00       	call   172d0 <pio_write_32@plt>
    3c7d:	8b 53 04             	mov    0x4(%ebx),%edx
    3c80:	89 14 24             	mov    %edx,(%esp)
    3c83:	89 55 d0             	mov    %edx,-0x30(%ebp)
    3c86:	e8 05 34 01 00       	call   17090 <pio_read_32@plt>
    3c8b:	c7 04 24 0a 00 00 00 	movl   $0xa,(%esp)
    3c92:	89 c6                	mov    %eax,%esi
    3c94:	e8 77 36 01 00       	call   17310 <udelay@plt>
    3c99:	83 ce 10             	or     $0x10,%esi
    3c9c:	8b 55 d0             	mov    -0x30(%ebp),%edx
    3c9f:	59                   	pop    %ecx
    3ca0:	5f                   	pop    %edi
    3ca1:	56                   	push   %esi
    3ca2:	52                   	push   %edx
    3ca3:	e8 28 36 01 00       	call   172d0 <pio_write_32@plt>
    3ca8:	53                   	push   %ebx
    3ca9:	68 34 3d 01 00       	push   $0x13d34
    3cae:	6a 04                	push   $0x4
    3cb0:	6a ff                	push   $0xffffffff
    3cb2:	e8 89 34 01 00       	call   17140 <log_msg@plt>
    3cb7:	83 c4 18             	add    $0x18,%esp
    3cba:	8d 45 e4             	lea    -0x1c(%ebp),%eax
    3cbd:	50                   	push   %eax
    3cbe:	8b 43 1c             	mov    0x1c(%ebx),%eax
    3cc1:	50                   	push   %eax
    3cc2:	e8 29 36 01 00       	call   172f0 <as_get_physical_mapping@plt>
    3cc7:	83 c4 10             	add    $0x10,%esp
    3cca:	85 c0                	test   %eax,%eax
    3ccc:	0f 85 46 02 00 00    	jne    3f18 <hc_init+0x5f8>
    3cd2:	8b 55 e4             	mov    -0x1c(%ebp),%edx
    3cd5:	89 d0                	mov    %edx,%eax
    3cd7:	83 e0 f0             	and    $0xfffffff0,%eax
    3cda:	39 c2                	cmp    %eax,%edx
    3cdc:	0f 85 d0 02 00 00    	jne    3fb2 <hc_init+0x692>
    3ce2:	52                   	push   %edx
    3ce3:	52                   	push   %edx
    3ce4:	50                   	push   %eax
    3ce5:	8b 43 04             	mov    0x4(%ebx),%eax
    3ce8:	83 c0 18             	add    $0x18,%eax
    3ceb:	50                   	push   %eax
    3cec:	e8 df 35 01 00       	call   172d0 <pio_write_32@plt>
    3cf1:	8b 7b 04             	mov    0x4(%ebx),%edi
    3cf4:	89 3c 24             	mov    %edi,(%esp)
    3cf7:	e8 94 33 01 00       	call   17090 <pio_read_32@plt>
    3cfc:	89 c6                	mov    %eax,%esi
    3cfe:	c7 04 24 0a 00 00 00 	movl   $0xa,(%esp)
    3d05:	83 ce 20             	or     $0x20,%esi
    3d08:	e8 03 36 01 00       	call   17310 <udelay@plt>
    3d0d:	59                   	pop    %ecx
    3d0e:	58                   	pop    %eax
    3d0f:	56                   	push   %esi
    3d10:	57                   	push   %edi
    3d11:	e8 ba 35 01 00       	call   172d0 <pio_write_32@plt>
    3d16:	53                   	push   %ebx
    3d17:	68 2a 3a 01 00       	push   $0x13a2a
    3d1c:	6a 04                	push   $0x4
    3d1e:	6a ff                	push   $0xffffffff
    3d20:	e8 1b 34 01 00       	call   17140 <log_msg@plt>
    3d25:	83 c4 14             	add    $0x14,%esp
    3d28:	8b 7b 04             	mov    0x4(%ebx),%edi
    3d2b:	57                   	push   %edi
    3d2c:	e8 5f 33 01 00       	call   17090 <pio_read_32@plt>
    3d31:	89 c6                	mov    %eax,%esi
    3d33:	c7 04 24 0a 00 00 00 	movl   $0xa,(%esp)
    3d3a:	83 ce 01             	or     $0x1,%esi
    3d3d:	e8 ce 35 01 00       	call   17310 <udelay@plt>
    3d42:	58                   	pop    %eax
    3d43:	5a                   	pop    %edx
    3d44:	56                   	push   %esi
    3d45:	57                   	push   %edi
    3d46:	e8 85 35 01 00       	call   172d0 <pio_write_32@plt>
    3d4b:	8b 43 04             	mov    0x4(%ebx),%eax
    3d4e:	8d 70 40             	lea    0x40(%eax),%esi
    3d51:	89 34 24             	mov    %esi,(%esp)
    3d54:	e8 37 33 01 00       	call   17090 <pio_read_32@plt>
    3d59:	89 c7                	mov    %eax,%edi
    3d5b:	c7 04 24 0a 00 00 00 	movl   $0xa,(%esp)
    3d62:	83 cf 01             	or     $0x1,%edi
    3d65:	e8 a6 35 01 00       	call   17310 <udelay@plt>
    3d6a:	59                   	pop    %ecx
    3d6b:	58                   	pop    %eax
    3d6c:	57                   	push   %edi
    3d6d:	56                   	push   %esi
    3d6e:	e8 5d 35 01 00       	call   172d0 <pio_write_32@plt>
    3d73:	53                   	push   %ebx
    3d74:	68 46 3a 01 00       	push   $0x13a46
    3d79:	6a 04                	push   $0x4
    3d7b:	6a ff                	push   $0xffffffff
    3d7d:	e8 be 33 01 00       	call   17140 <log_msg@plt>
    3d82:	83 c4 14             	add    $0x14,%esp
    3d85:	8b 43 04             	mov    0x4(%ebx),%eax
    3d88:	83 c0 40             	add    $0x40,%eax
    3d8b:	50                   	push   %eax
    3d8c:	e8 ff 32 01 00       	call   17090 <pio_read_32@plt>
    3d91:	8b 53 04             	mov    0x4(%ebx),%edx
    3d94:	89 45 c4             	mov    %eax,-0x3c(%ebp)
    3d97:	89 55 c8             	mov    %edx,-0x38(%ebp)
    3d9a:	8d 42 08             	lea    0x8(%edx),%eax
    3d9d:	89 04 24             	mov    %eax,(%esp)
    3da0:	e8 eb 32 01 00       	call   17090 <pio_read_32@plt>
    3da5:	8b 7b 04             	mov    0x4(%ebx),%edi
    3da8:	89 45 d0             	mov    %eax,-0x30(%ebp)
    3dab:	8d 47 04             	lea    0x4(%edi),%eax
    3dae:	83 c7 08             	add    $0x8,%edi
    3db1:	89 04 24             	mov    %eax,(%esp)
    3db4:	e8 d7 32 01 00       	call   17090 <pio_read_32@plt>
    3db9:	8b 73 04             	mov    0x4(%ebx),%esi
    3dbc:	89 45 cc             	mov    %eax,-0x34(%ebp)
    3dbf:	89 34 24             	mov    %esi,(%esp)
    3dc2:	e8 c9 32 01 00       	call   17090 <pio_read_32@plt>
    3dc7:	8b 55 c8             	mov    -0x38(%ebp),%edx
    3dca:	8b 4d c4             	mov    -0x3c(%ebp),%ecx
    3dcd:	83 c2 40             	add    $0x40,%edx
    3dd0:	51                   	push   %ecx
    3dd1:	83 c6 04             	add    $0x4,%esi
    3dd4:	52                   	push   %edx
    3dd5:	8b 4d cc             	mov    -0x34(%ebp),%ecx
    3dd8:	8b 55 d0             	mov    -0x30(%ebp),%edx
    3ddb:	52                   	push   %edx
    3ddc:	57                   	push   %edi
    3ddd:	51                   	push   %ecx
    3dde:	56                   	push   %esi
    3ddf:	8b 73 04             	mov    0x4(%ebx),%esi
    3de2:	50                   	push   %eax
    3de3:	56                   	push   %esi
    3de4:	53                   	push   %ebx
    3de5:	68 84 3d 01 00       	push   $0x13d84
    3dea:	6a 05                	push   $0x5
    3dec:	6a ff                	push   $0xffffffff
    3dee:	e8 4d 33 01 00       	call   17140 <log_msg@plt>
    3df3:	83 c4 34             	add    $0x34,%esp
    3df6:	8b 43 04             	mov    0x4(%ebx),%eax
    3df9:	83 c0 04             	add    $0x4,%eax
    3dfc:	50                   	push   %eax
    3dfd:	e8 8e 32 01 00       	call   17090 <pio_read_32@plt>
    3e02:	5f                   	pop    %edi
    3e03:	5a                   	pop    %edx
    3e04:	50                   	push   %eax
    3e05:	8b 43 04             	mov    0x4(%ebx),%eax
    3e08:	83 c0 04             	add    $0x4,%eax
    3e0b:	50                   	push   %eax
    3e0c:	e8 bf 34 01 00       	call   172d0 <pio_write_32@plt>
    3e11:	8b 43 04             	mov    0x4(%ebx),%eax
    3e14:	59                   	pop    %ecx
    3e15:	83 c0 08             	add    $0x8,%eax
    3e18:	5e                   	pop    %esi
    3e19:	6a 37                	push   $0x37
    3e1b:	50                   	push   %eax
    3e1c:	e8 af 34 01 00       	call   172d0 <pio_write_32@plt>
    3e21:	8b 45 d4             	mov    -0x2c(%ebp),%eax
    3e24:	83 c4 10             	add    $0x10,%esp
    3e27:	8d 65 f4             	lea    -0xc(%ebp),%esp
    3e2a:	5b                   	pop    %ebx
    3e2b:	5e                   	pop    %esi
    3e2c:	5f                   	pop    %edi
    3e2d:	5d                   	pop    %ebp
    3e2e:	c3                   	ret    
    3e2f:	90                   	nop
    3e30:	83 ec 0c             	sub    $0xc,%esp
    3e33:	50                   	push   %eax
    3e34:	e8 27 36 01 00       	call   17460 <str_error@plt>
    3e39:	89 04 24             	mov    %eax,(%esp)
    3e3c:	53                   	push   %ebx
    3e3d:	68 9c 3b 01 00       	push   $0x13b9c
    3e42:	6a 01                	push   $0x1
    3e44:	6a ff                	push   $0xffffffff
    3e46:	e8 f5 32 01 00       	call   17140 <log_msg@plt>
    3e4b:	8b 45 d4             	mov    -0x2c(%ebp),%eax
    3e4e:	83 c4 20             	add    $0x20,%esp
    3e51:	8d 65 f4             	lea    -0xc(%ebp),%esp
    3e54:	5b                   	pop    %ebx
    3e55:	5e                   	pop    %esi
    3e56:	5f                   	pop    %edi
    3e57:	5d                   	pop    %ebp
    3e58:	c3                   	ret    
    3e59:	8d b4 26 00 00 00 00 	lea    0x0(%esi,%eiz,1),%esi
    3e60:	83 ec 0c             	sub    $0xc,%esp
    3e63:	50                   	push   %eax
    3e64:	e8 f7 35 01 00       	call   17460 <str_error@plt>
    3e69:	89 04 24             	mov    %eax,(%esp)
    3e6c:	53                   	push   %ebx
    3e6d:	68 5c 3c 01 00       	push   $0x13c5c
    3e72:	6a 01                	push   $0x1
    3e74:	6a ff                	push   $0xffffffff
    3e76:	e8 c5 32 01 00       	call   17140 <log_msg@plt>
    3e7b:	83 c4 20             	add    $0x20,%esp
    3e7e:	83 ec 0c             	sub    $0xc,%esp
    3e81:	8b 4d d4             	mov    -0x2c(%ebp),%ecx
    3e84:	51                   	push   %ecx
    3e85:	e8 d6 35 01 00       	call   17460 <str_error@plt>
    3e8a:	89 04 24             	mov    %eax,(%esp)
    3e8d:	53                   	push   %ebx
    3e8e:	68 8c 3e 01 00       	push   $0x13e8c
    3e93:	6a 01                	push   $0x1
    3e95:	6a ff                	push   $0xffffffff
    3e97:	e8 a4 32 01 00       	call   17140 <log_msg@plt>
    3e9c:	8b 45 d4             	mov    -0x2c(%ebp),%eax
    3e9f:	83 c4 20             	add    $0x20,%esp
    3ea2:	8d 65 f4             	lea    -0xc(%ebp),%esp
    3ea5:	5b                   	pop    %ebx
    3ea6:	5e                   	pop    %esi
    3ea7:	5f                   	pop    %edi
    3ea8:	5d                   	pop    %ebp
    3ea9:	c3                   	ret    
    3eaa:	8d b6 00 00 00 00    	lea    0x0(%esi),%esi
    3eb0:	83 ec 0c             	sub    $0xc,%esp
    3eb3:	50                   	push   %eax
    3eb4:	e8 a7 35 01 00       	call   17460 <str_error@plt>
    3eb9:	89 04 24             	mov    %eax,(%esp)
    3ebc:	53                   	push   %ebx
    3ebd:	68 b0 3c 01 00       	push   $0x13cb0
    3ec2:	6a 01                	push   $0x1
    3ec4:	6a ff                	push   $0xffffffff
    3ec6:	e8 75 32 01 00       	call   17140 <log_msg@plt>
    3ecb:	83 c4 14             	add    $0x14,%esp
    3ece:	8b 43 1c             	mov    0x1c(%ebx),%eax
    3ed1:	50                   	push   %eax
    3ed2:	e8 19 33 01 00       	call   171f0 <dmamem_unmap_anonymous@plt>
    3ed7:	c7 43 1c 00 00 00 00 	movl   $0x0,0x1c(%ebx)
    3ede:	83 c4 10             	add    $0x10,%esp
    3ee1:	eb 9b                	jmp    3e7e <hc_init+0x55e>
    3ee3:	90                   	nop
    3ee4:	8d 74 26 00          	lea    0x0(%esi,%eiz,1),%esi
    3ee8:	c7 45 d4 f2 ff ff ff 	movl   $0xfffffff2,-0x2c(%ebp)
    3eef:	8b 45 d4             	mov    -0x2c(%ebp),%eax
    3ef2:	8d 65 f4             	lea    -0xc(%ebp),%esp
    3ef5:	5b                   	pop    %ebx
    3ef6:	5e                   	pop    %esi
    3ef7:	5f                   	pop    %edi
    3ef8:	5d                   	pop    %ebp
    3ef9:	c3                   	ret    
    3efa:	8d b6 00 00 00 00    	lea    0x0(%esi),%esi
    3f00:	53                   	push   %ebx
    3f01:	68 bc 39 01 00       	push   $0x139bc
    3f06:	6a 03                	push   $0x3
    3f08:	6a ff                	push   $0xffffffff
    3f0a:	e8 31 32 01 00       	call   17140 <log_msg@plt>
    3f0f:	83 c4 10             	add    $0x10,%esp
    3f12:	e9 9f fc ff ff       	jmp    3bb6 <hc_init+0x296>
    3f17:	90                   	nop
    3f18:	31 c0                	xor    %eax,%eax
    3f1a:	e9 c3 fd ff ff       	jmp    3ce2 <hc_init+0x3c2>
    3f1f:	90                   	nop
    3f20:	31 c0                	xor    %eax,%eax
    3f22:	e9 47 fd ff ff       	jmp    3c6e <hc_init+0x34e>
    3f27:	c7 43 08 00 00 00 00 	movl   $0x0,0x8(%ebx)
    3f2e:	53                   	push   %ebx
    3f2f:	68 60 3e 01 00       	push   $0x13e60
    3f34:	6a 01                	push   $0x1
    3f36:	6a ff                	push   $0xffffffff
    3f38:	e8 03 32 01 00       	call   17140 <log_msg@plt>
    3f3d:	83 c4 10             	add    $0x10,%esp
    3f40:	83 ec 0c             	sub    $0xc,%esp
    3f43:	8b 73 1c             	mov    0x1c(%ebx),%esi
    3f46:	56                   	push   %esi
    3f47:	e8 a4 32 01 00       	call   171f0 <dmamem_unmap_anonymous@plt>
    3f4c:	c7 43 1c 00 00 00 00 	movl   $0x0,0x1c(%ebx)
    3f53:	8b 43 3c             	mov    0x3c(%ebx),%eax
    3f56:	5f                   	pop    %edi
    3f57:	50                   	push   %eax
    3f58:	e8 93 32 01 00       	call   171f0 <dmamem_unmap_anonymous@plt>
    3f5d:	c7 43 3c 00 00 00 00 	movl   $0x0,0x3c(%ebx)
    3f64:	83 c4 10             	add    $0x10,%esp
    3f67:	c7 45 d4 fe ff ff ff 	movl   $0xfffffffe,-0x2c(%ebp)
    3f6e:	e9 0b ff ff ff       	jmp    3e7e <hc_init+0x55e>
    3f73:	51                   	push   %ecx
    3f74:	68 93 01 00 00       	push   $0x193
    3f79:	68 12 6b 01 00       	push   $0x16b12
    3f7e:	68 0d 3a 01 00       	push   $0x13a0d
    3f83:	e8 28 32 01 00       	call   171b0 <assert_abort@plt>
    3f88:	56                   	push   %esi
    3f89:	68 a0 00 00 00       	push   $0xa0
    3f8e:	68 12 6b 01 00       	push   $0x16b12
    3f93:	68 fc 30 01 00       	push   $0x130fc
    3f98:	e8 13 32 01 00       	call   171b0 <assert_abort@plt>
    3f9d:	53                   	push   %ebx
    3f9e:	68 a1 00 00 00       	push   $0xa1
    3fa3:	68 12 6b 01 00       	push   $0x16b12
    3fa8:	68 92 39 01 00       	push   $0x13992
    3fad:	e8 fe 31 01 00       	call   171b0 <assert_abort@plt>
    3fb2:	57                   	push   %edi
    3fb3:	68 9e 01 00 00       	push   $0x19e
    3fb8:	68 12 6b 01 00       	push   $0x16b12
    3fbd:	68 54 3d 01 00       	push   $0x13d54
    3fc2:	e8 e9 31 01 00       	call   171b0 <assert_abort@plt>
    3fc7:	50                   	push   %eax
    3fc8:	68 96 01 00 00       	push   $0x196
    3fcd:	68 12 6b 01 00       	push   $0x16b12
    3fd2:	68 fc 3c 01 00       	push   $0x13cfc
    3fd7:	e8 d4 31 01 00       	call   171b0 <assert_abort@plt>
    3fdc:	8d 74 26 00          	lea    0x0(%esi,%eiz,1),%esi

00003fe0 <hc_fini>:
    3fe0:	55                   	push   %ebp
    3fe1:	89 e5                	mov    %esp,%ebp
    3fe3:	83 ec 08             	sub    $0x8,%esp
    3fe6:	8b 4d 08             	mov    0x8(%ebp),%ecx
    3fe9:	85 c9                	test   %ecx,%ecx
    3feb:	74 02                	je     3fef <hc_fini+0xf>
    3fed:	c9                   	leave  
    3fee:	c3                   	ret    
    3fef:	50                   	push   %eax
    3ff0:	68 d1 00 00 00       	push   $0xd1
    3ff5:	68 12 6b 01 00       	push   $0x16b12
    3ffa:	68 fc 30 01 00       	push   $0x130fc
    3fff:	e8 ac 31 01 00       	call   171b0 <assert_abort@plt>
    4004:	8d b6 00 00 00 00    	lea    0x0(%esi),%esi
    400a:	8d bf 00 00 00 00    	lea    0x0(%edi),%edi

00004010 <hc_enqueue_endpoint>:
    4010:	55                   	push   %ebp
    4011:	89 e5                	mov    %esp,%ebp
    4013:	57                   	push   %edi
    4014:	56                   	push   %esi
    4015:	53                   	push   %ebx
    4016:	83 ec 1c             	sub    $0x1c,%esp
    4019:	8b 75 08             	mov    0x8(%ebp),%esi
    401c:	8b 5d 0c             	mov    0xc(%ebp),%ebx
    401f:	85 f6                	test   %esi,%esi
    4021:	0f 84 a6 00 00 00    	je     40cd <hc_enqueue_endpoint+0xbd>
    4027:	85 db                	test   %ebx,%ebx
    4029:	0f 84 89 00 00 00    	je     40b8 <hc_enqueue_endpoint+0xa8>
    402f:	83 ec 0c             	sub    $0xc,%esp
    4032:	8b 43 4c             	mov    0x4c(%ebx),%eax
    4035:	89 45 e4             	mov    %eax,-0x1c(%ebp)
    4038:	8b 43 10             	mov    0x10(%ebx),%eax
    403b:	50                   	push   %eax
    403c:	e8 af 55 00 00       	call   95f0 <usb_str_direction>
    4041:	8b 4b 14             	mov    0x14(%ebx),%ecx
    4044:	5a                   	pop    %edx
    4045:	89 c7                	mov    %eax,%edi
    4047:	51                   	push   %ecx
    4048:	e8 83 55 00 00       	call   95d0 <usb_str_transfer_type_short>
    404d:	57                   	push   %edi
    404e:	50                   	push   %eax
    404f:	0f bf 43 0e          	movswl 0xe(%ebx),%eax
    4053:	50                   	push   %eax
    4054:	0f bf 43 0c          	movswl 0xc(%ebx),%eax
    4058:	50                   	push   %eax
    4059:	56                   	push   %esi
    405a:	68 c4 3e 01 00       	push   $0x13ec4
    405f:	6a 04                	push   $0x4
    4061:	6a ff                	push   $0xffffffff
    4063:	e8 d8 30 01 00       	call   17140 <log_msg@plt>
    4068:	8b 43 14             	mov    0x14(%ebx),%eax
    406b:	83 c4 30             	add    $0x30,%esp
    406e:	83 f8 02             	cmp    $0x2,%eax
    4071:	74 2d                	je     40a0 <hc_enqueue_endpoint+0x90>
    4073:	83 f8 03             	cmp    $0x3,%eax
    4076:	74 10                	je     4088 <hc_enqueue_endpoint+0x78>
    4078:	85 c0                	test   %eax,%eax
    407a:	74 24                	je     40a0 <hc_enqueue_endpoint+0x90>
    407c:	8d 65 f4             	lea    -0xc(%ebp),%esp
    407f:	5b                   	pop    %ebx
    4080:	5e                   	pop    %esi
    4081:	5f                   	pop    %edi
    4082:	5d                   	pop    %ebp
    4083:	c3                   	ret    
    4084:	8d 74 26 00          	lea    0x0(%esi,%eiz,1),%esi
    4088:	8b 45 e4             	mov    -0x1c(%ebp),%eax
    408b:	83 c6 2c             	add    $0x2c,%esi
    408e:	89 75 08             	mov    %esi,0x8(%ebp)
    4091:	89 45 0c             	mov    %eax,0xc(%ebp)
    4094:	8d 65 f4             	lea    -0xc(%ebp),%esp
    4097:	5b                   	pop    %ebx
    4098:	5e                   	pop    %esi
    4099:	5f                   	pop    %edi
    409a:	5d                   	pop    %ebp
    409b:	e9 40 f3 ff ff       	jmp    33e0 <endpoint_list_append_ep>
    40a0:	8b 45 e4             	mov    -0x1c(%ebp),%eax
    40a3:	83 c6 0c             	add    $0xc,%esi
    40a6:	89 75 08             	mov    %esi,0x8(%ebp)
    40a9:	89 45 0c             	mov    %eax,0xc(%ebp)
    40ac:	8d 65 f4             	lea    -0xc(%ebp),%esp
    40af:	5b                   	pop    %ebx
    40b0:	5e                   	pop    %esi
    40b1:	5f                   	pop    %edi
    40b2:	5d                   	pop    %ebp
    40b3:	e9 28 f3 ff ff       	jmp    33e0 <endpoint_list_append_ep>
    40b8:	53                   	push   %ebx
    40b9:	68 dd 00 00 00       	push   $0xdd
    40be:	68 12 6b 01 00       	push   $0x16b12
    40c3:	68 10 2b 01 00       	push   $0x12b10
    40c8:	e8 e3 30 01 00       	call   171b0 <assert_abort@plt>
    40cd:	56                   	push   %esi
    40ce:	68 dc 00 00 00       	push   $0xdc
    40d3:	68 12 6b 01 00       	push   $0x16b12
    40d8:	68 fc 30 01 00       	push   $0x130fc
    40dd:	e8 ce 30 01 00       	call   171b0 <assert_abort@plt>
    40e2:	8d b4 26 00 00 00 00 	lea    0x0(%esi,%eiz,1),%esi
    40e9:	8d bc 27 00 00 00 00 	lea    0x0(%edi,%eiz,1),%edi

000040f0 <hc_dequeue_endpoint>:
    40f0:	55                   	push   %ebp
    40f1:	89 e5                	mov    %esp,%ebp
    40f3:	57                   	push   %edi
    40f4:	56                   	push   %esi
    40f5:	53                   	push   %ebx
    40f6:	83 ec 1c             	sub    $0x1c,%esp
    40f9:	8b 75 08             	mov    0x8(%ebp),%esi
    40fc:	8b 5d 0c             	mov    0xc(%ebp),%ebx
    40ff:	85 f6                	test   %esi,%esi
    4101:	0f 84 1e 01 00 00    	je     4225 <hc_dequeue_endpoint+0x135>
    4107:	85 db                	test   %ebx,%ebx
    4109:	0f 84 01 01 00 00    	je     4210 <hc_dequeue_endpoint+0x120>
    410f:	83 ec 0c             	sub    $0xc,%esp
    4112:	8b 43 4c             	mov    0x4c(%ebx),%eax
    4115:	89 45 e4             	mov    %eax,-0x1c(%ebp)
    4118:	8b 43 10             	mov    0x10(%ebx),%eax
    411b:	50                   	push   %eax
    411c:	e8 cf 54 00 00       	call   95f0 <usb_str_direction>
    4121:	89 c7                	mov    %eax,%edi
    4123:	58                   	pop    %eax
    4124:	8b 43 14             	mov    0x14(%ebx),%eax
    4127:	50                   	push   %eax
    4128:	e8 a3 54 00 00       	call   95d0 <usb_str_transfer_type_short>
    412d:	57                   	push   %edi
    412e:	50                   	push   %eax
    412f:	0f bf 43 0e          	movswl 0xe(%ebx),%eax
    4133:	50                   	push   %eax
    4134:	0f bf 43 0c          	movswl 0xc(%ebx),%eax
    4138:	50                   	push   %eax
    4139:	56                   	push   %esi
    413a:	68 e4 3e 01 00       	push   $0x13ee4
    413f:	6a 04                	push   $0x4
    4141:	6a ff                	push   $0xffffffff
    4143:	e8 f8 2f 01 00       	call   17140 <log_msg@plt>
    4148:	8b 43 14             	mov    0x14(%ebx),%eax
    414b:	83 c4 30             	add    $0x30,%esp
    414e:	83 f8 01             	cmp    $0x1,%eax
    4151:	0f 84 b1 00 00 00    	je     4208 <hc_dequeue_endpoint+0x118>
    4157:	72 27                	jb     4180 <hc_dequeue_endpoint+0x90>
    4159:	83 f8 02             	cmp    $0x2,%eax
    415c:	74 22                	je     4180 <hc_dequeue_endpoint+0x90>
    415e:	83 f8 03             	cmp    $0x3,%eax
    4161:	75 2f                	jne    4192 <hc_dequeue_endpoint+0xa2>
    4163:	8b 45 e4             	mov    -0x1c(%ebp),%eax
    4166:	83 c6 2c             	add    $0x2c,%esi
    4169:	89 75 08             	mov    %esi,0x8(%ebp)
    416c:	89 45 0c             	mov    %eax,0xc(%ebp)
    416f:	8d 65 f4             	lea    -0xc(%ebp),%esp
    4172:	5b                   	pop    %ebx
    4173:	5e                   	pop    %esi
    4174:	5f                   	pop    %edi
    4175:	5d                   	pop    %ebp
    4176:	e9 45 f4 ff ff       	jmp    35c0 <endpoint_list_remove_ep>
    417b:	90                   	nop
    417c:	8d 74 26 00          	lea    0x0(%esi,%eiz,1),%esi
    4180:	50                   	push   %eax
    4181:	50                   	push   %eax
    4182:	8b 45 e4             	mov    -0x1c(%ebp),%eax
    4185:	50                   	push   %eax
    4186:	8d 46 0c             	lea    0xc(%esi),%eax
    4189:	50                   	push   %eax
    418a:	e8 31 f4 ff ff       	call   35c0 <endpoint_list_remove_ep>
    418f:	83 c4 10             	add    $0x10,%esp
    4192:	83 ec 0c             	sub    $0xc,%esp
    4195:	8d 5e 54             	lea    0x54(%esi),%ebx
    4198:	53                   	push   %ebx
    4199:	e8 f2 33 01 00       	call   17590 <fibril_mutex_lock@plt>
    419e:	56                   	push   %esi
    419f:	68 94 3a 01 00       	push   $0x13a94
    41a4:	6a 04                	push   $0x4
    41a6:	6a ff                	push   $0xffffffff
    41a8:	e8 93 2f 01 00       	call   17140 <log_msg@plt>
    41ad:	83 c4 14             	add    $0x14,%esp
    41b0:	8b 56 04             	mov    0x4(%esi),%edx
    41b3:	52                   	push   %edx
    41b4:	89 55 e4             	mov    %edx,-0x1c(%ebp)
    41b7:	e8 d4 2e 01 00       	call   17090 <pio_read_32@plt>
    41bc:	c7 04 24 0a 00 00 00 	movl   $0xa,(%esp)
    41c3:	89 c7                	mov    %eax,%edi
    41c5:	e8 46 31 01 00       	call   17310 <udelay@plt>
    41ca:	83 cf 40             	or     $0x40,%edi
    41cd:	58                   	pop    %eax
    41ce:	5a                   	pop    %edx
    41cf:	8b 55 e4             	mov    -0x1c(%ebp),%edx
    41d2:	57                   	push   %edi
    41d3:	52                   	push   %edx
    41d4:	e8 f7 30 01 00       	call   172d0 <pio_write_32@plt>
    41d9:	8d 46 64             	lea    0x64(%esi),%eax
    41dc:	59                   	pop    %ecx
    41dd:	5f                   	pop    %edi
    41de:	53                   	push   %ebx
    41df:	50                   	push   %eax
    41e0:	e8 3b 2f 01 00       	call   17120 <fibril_condvar_wait@plt>
    41e5:	56                   	push   %esi
    41e6:	68 b1 3a 01 00       	push   $0x13ab1
    41eb:	6a 05                	push   $0x5
    41ed:	6a ff                	push   $0xffffffff
    41ef:	e8 4c 2f 01 00       	call   17140 <log_msg@plt>
    41f4:	89 5d 08             	mov    %ebx,0x8(%ebp)
    41f7:	83 c4 20             	add    $0x20,%esp
    41fa:	8d 65 f4             	lea    -0xc(%ebp),%esp
    41fd:	5b                   	pop    %ebx
    41fe:	5e                   	pop    %esi
    41ff:	5f                   	pop    %edi
    4200:	5d                   	pop    %ebp
    4201:	e9 5a 30 01 00       	jmp    17260 <fibril_mutex_unlock@plt>
    4206:	66 90                	xchg   %ax,%ax
    4208:	8d 65 f4             	lea    -0xc(%ebp),%esp
    420b:	5b                   	pop    %ebx
    420c:	5e                   	pop    %esi
    420d:	5f                   	pop    %edi
    420e:	5d                   	pop    %ebp
    420f:	c3                   	ret    
    4210:	50                   	push   %eax
    4211:	68 f5 00 00 00       	push   $0xf5
    4216:	68 12 6b 01 00       	push   $0x16b12
    421b:	68 10 2b 01 00       	push   $0x12b10
    4220:	e8 8b 2f 01 00       	call   171b0 <assert_abort@plt>
    4225:	52                   	push   %edx
    4226:	68 f4 00 00 00       	push   $0xf4
    422b:	68 12 6b 01 00       	push   $0x16b12
    4230:	68 fc 30 01 00       	push   $0x130fc
    4235:	e8 76 2f 01 00       	call   171b0 <assert_abort@plt>
    423a:	8d b6 00 00 00 00    	lea    0x0(%esi),%esi

00004240 <ehci_hc_status>:
    4240:	55                   	push   %ebp
    4241:	89 e5                	mov    %esp,%ebp
    4243:	56                   	push   %esi
    4244:	53                   	push   %ebx
    4245:	8b 45 08             	mov    0x8(%ebp),%eax
    4248:	8b 75 0c             	mov    0xc(%ebp),%esi
    424b:	85 c0                	test   %eax,%eax
    424d:	0f 84 8b 00 00 00    	je     42de <ehci_hc_status+0x9e>
    4253:	8b 98 38 08 00 00    	mov    0x838(%eax),%ebx
    4259:	85 db                	test   %ebx,%ebx
    425b:	74 6c                	je     42c9 <ehci_hc_status+0x89>
    425d:	85 f6                	test   %esi,%esi
    425f:	74 53                	je     42b4 <ehci_hc_status+0x74>
    4261:	8b 43 04             	mov    0x4(%ebx),%eax
    4264:	c7 06 00 00 00 00    	movl   $0x0,(%esi)
    426a:	85 c0                	test   %eax,%eax
    426c:	74 42                	je     42b0 <ehci_hc_status+0x70>
    426e:	83 ec 0c             	sub    $0xc,%esp
    4271:	83 c0 04             	add    $0x4,%eax
    4274:	50                   	push   %eax
    4275:	e8 16 2e 01 00       	call   17090 <pio_read_32@plt>
    427a:	89 06                	mov    %eax,(%esi)
    427c:	5a                   	pop    %edx
    427d:	59                   	pop    %ecx
    427e:	50                   	push   %eax
    427f:	8b 43 04             	mov    0x4(%ebx),%eax
    4282:	83 c0 04             	add    $0x4,%eax
    4285:	50                   	push   %eax
    4286:	e8 45 30 01 00       	call   172d0 <pio_write_32@plt>
    428b:	8b 06                	mov    (%esi),%eax
    428d:	83 c4 10             	add    $0x10,%esp
    4290:	83 ec 0c             	sub    $0xc,%esp
    4293:	50                   	push   %eax
    4294:	53                   	push   %ebx
    4295:	68 cd 3a 01 00       	push   $0x13acd
    429a:	6a 05                	push   $0x5
    429c:	6a ff                	push   $0xffffffff
    429e:	e8 9d 2e 01 00       	call   17140 <log_msg@plt>
    42a3:	8d 65 f8             	lea    -0x8(%ebp),%esp
    42a6:	31 c0                	xor    %eax,%eax
    42a8:	5b                   	pop    %ebx
    42a9:	5e                   	pop    %esi
    42aa:	5d                   	pop    %ebp
    42ab:	c3                   	ret    
    42ac:	8d 74 26 00          	lea    0x0(%esi,%eiz,1),%esi
    42b0:	31 c0                	xor    %eax,%eax
    42b2:	eb dc                	jmp    4290 <ehci_hc_status+0x50>
    42b4:	53                   	push   %ebx
    42b5:	68 15 01 00 00       	push   $0x115
    42ba:	68 12 6b 01 00       	push   $0x16b12
    42bf:	68 c6 3a 01 00       	push   $0x13ac6
    42c4:	e8 e7 2e 01 00       	call   171b0 <assert_abort@plt>
    42c9:	56                   	push   %esi
    42ca:	68 14 01 00 00       	push   $0x114
    42cf:	68 12 6b 01 00       	push   $0x16b12
    42d4:	68 fc 30 01 00       	push   $0x130fc
    42d9:	e8 d2 2e 01 00       	call   171b0 <assert_abort@plt>
    42de:	50                   	push   %eax
    42df:	68 12 01 00 00       	push   $0x112
    42e4:	68 12 6b 01 00       	push   $0x16b12
    42e9:	68 12 31 01 00       	push   $0x13112
    42ee:	e8 bd 2e 01 00       	call   171b0 <assert_abort@plt>
    42f3:	8d b6 00 00 00 00    	lea    0x0(%esi),%esi
    42f9:	8d bc 27 00 00 00 00 	lea    0x0(%edi,%eiz,1),%edi

00004300 <ehci_hc_schedule>:
    4300:	55                   	push   %ebp
    4301:	89 e5                	mov    %esp,%ebp
    4303:	57                   	push   %edi
    4304:	56                   	push   %esi
    4305:	53                   	push   %ebx
    4306:	83 ec 1c             	sub    $0x1c,%esp
    4309:	8b 45 08             	mov    0x8(%ebp),%eax
    430c:	8b 7d 0c             	mov    0xc(%ebp),%edi
    430f:	85 c0                	test   %eax,%eax
    4311:	0f 84 fd 00 00 00    	je     4414 <ehci_hc_schedule+0x114>
    4317:	8b 98 38 08 00 00    	mov    0x838(%eax),%ebx
    431d:	85 db                	test   %ebx,%ebx
    431f:	0f 84 da 00 00 00    	je     43ff <ehci_hc_schedule+0xff>
    4325:	83 ec 0c             	sub    $0xc,%esp
    4328:	8b 07                	mov    (%edi),%eax
    432a:	8d 53 6c             	lea    0x6c(%ebx),%edx
    432d:	8b 70 0c             	mov    0xc(%eax),%esi
    4330:	89 55 e4             	mov    %edx,-0x1c(%ebp)
    4333:	52                   	push   %edx
    4334:	e8 17 4b 00 00       	call   8e50 <virthub_base_get_address>
    4339:	83 c4 10             	add    $0x10,%esp
    433c:	8b 55 e4             	mov    -0x1c(%ebp),%edx
    433f:	66 39 c6             	cmp    %ax,%si
    4342:	0f 84 80 00 00 00    	je     43c8 <ehci_hc_schedule+0xc8>
    4348:	83 ec 0c             	sub    $0xc,%esp
    434b:	57                   	push   %edi
    434c:	e8 8f d3 ff ff       	call   16e0 <ehci_transfer_batch_get>
    4351:	83 c4 10             	add    $0x10,%esp
    4354:	89 c6                	mov    %eax,%esi
    4356:	85 c0                	test   %eax,%eax
    4358:	0f 84 9a 00 00 00    	je     43f8 <ehci_hc_schedule+0xf8>
    435e:	83 ec 0c             	sub    $0xc,%esp
    4361:	8d 43 54             	lea    0x54(%ebx),%eax
    4364:	89 45 e4             	mov    %eax,-0x1c(%ebp)
    4367:	50                   	push   %eax
    4368:	e8 23 32 01 00       	call   17590 <fibril_mutex_lock@plt>
    436d:	89 3c 24             	mov    %edi,(%esp)
    4370:	53                   	push   %ebx
    4371:	68 e5 3a 01 00       	push   $0x13ae5
    4376:	6a 05                	push   $0x5
    4378:	6a ff                	push   $0xffffffff
    437a:	e8 c1 2d 01 00       	call   17140 <log_msg@plt>
    437f:	8d 53 4c             	lea    0x4c(%ebx),%edx
    4382:	83 c4 14             	add    $0x14,%esp
    4385:	89 56 04             	mov    %edx,0x4(%esi)
    4388:	8b 53 4c             	mov    0x4c(%ebx),%edx
    438b:	89 16                	mov    %edx,(%esi)
    438d:	8b 53 4c             	mov    0x4c(%ebx),%edx
    4390:	89 72 04             	mov    %esi,0x4(%edx)
    4393:	89 73 4c             	mov    %esi,0x4c(%ebx)
    4396:	57                   	push   %edi
    4397:	53                   	push   %ebx
    4398:	68 01 3b 01 00       	push   $0x13b01
    439d:	6a 04                	push   $0x4
    439f:	6a ff                	push   $0xffffffff
    43a1:	e8 9a 2d 01 00       	call   17140 <log_msg@plt>
    43a6:	83 c4 14             	add    $0x14,%esp
    43a9:	56                   	push   %esi
    43aa:	e8 41 da ff ff       	call   1df0 <ehci_transfer_batch_commit>
    43af:	8b 45 e4             	mov    -0x1c(%ebp),%eax
    43b2:	89 04 24             	mov    %eax,(%esp)
    43b5:	e8 a6 2e 01 00       	call   17260 <fibril_mutex_unlock@plt>
    43ba:	83 c4 10             	add    $0x10,%esp
    43bd:	31 c0                	xor    %eax,%eax
    43bf:	8d 65 f4             	lea    -0xc(%ebp),%esp
    43c2:	5b                   	pop    %ebx
    43c3:	5e                   	pop    %esi
    43c4:	5f                   	pop    %edi
    43c5:	5d                   	pop    %ebp
    43c6:	c3                   	ret    
    43c7:	90                   	nop
    43c8:	50                   	push   %eax
    43c9:	50                   	push   %eax
    43ca:	52                   	push   %edx
    43cb:	57                   	push   %edi
    43cc:	53                   	push   %ebx
    43cd:	68 04 3f 01 00       	push   $0x13f04
    43d2:	6a 04                	push   $0x4
    43d4:	6a ff                	push   $0xffffffff
    43d6:	e8 65 2d 01 00       	call   17140 <log_msg@plt>
    43db:	8b 55 e4             	mov    -0x1c(%ebp),%edx
    43de:	89 7d 0c             	mov    %edi,0xc(%ebp)
    43e1:	89 55 08             	mov    %edx,0x8(%ebp)
    43e4:	83 c4 20             	add    $0x20,%esp
    43e7:	8d 65 f4             	lea    -0xc(%ebp),%esp
    43ea:	5b                   	pop    %ebx
    43eb:	5e                   	pop    %esi
    43ec:	5f                   	pop    %edi
    43ed:	5d                   	pop    %ebp
    43ee:	e9 fd e8 ff ff       	jmp    2cf0 <ehci_rh_schedule>
    43f3:	90                   	nop
    43f4:	8d 74 26 00          	lea    0x0(%esi,%eiz,1),%esi
    43f8:	b8 fe ff ff ff       	mov    $0xfffffffe,%eax
    43fd:	eb c0                	jmp    43bf <ehci_hc_schedule+0xbf>
    43ff:	52                   	push   %edx
    4400:	68 29 01 00 00       	push   $0x129
    4405:	68 12 6b 01 00       	push   $0x16b12
    440a:	68 fc 30 01 00       	push   $0x130fc
    440f:	e8 9c 2d 01 00       	call   171b0 <assert_abort@plt>
    4414:	51                   	push   %ecx
    4415:	68 27 01 00 00       	push   $0x127
    441a:	68 12 6b 01 00       	push   $0x16b12
    441f:	68 12 31 01 00       	push   $0x13112
    4424:	e8 87 2d 01 00       	call   171b0 <assert_abort@plt>
    4429:	8d b4 26 00 00 00 00 	lea    0x0(%esi,%eiz,1),%esi

00004430 <ehci_hc_interrupt>:
    4430:	55                   	push   %ebp
    4431:	89 e5                	mov    %esp,%ebp
    4433:	57                   	push   %edi
    4434:	56                   	push   %esi
    4435:	53                   	push   %ebx
    4436:	83 ec 1c             	sub    $0x1c,%esp
    4439:	8b 45 08             	mov    0x8(%ebp),%eax
    443c:	85 c0                	test   %eax,%eax
    443e:	0f 84 88 01 00 00    	je     45cc <ehci_hc_interrupt+0x19c>
    4444:	83 ec 0c             	sub    $0xc,%esp
    4447:	8b b8 38 08 00 00    	mov    0x838(%eax),%edi
    444d:	8d 45 0c             	lea    0xc(%ebp),%eax
    4450:	50                   	push   %eax
    4451:	e8 3a 2c 01 00       	call   17090 <pio_read_32@plt>
    4456:	83 c4 10             	add    $0x10,%esp
    4459:	89 45 0c             	mov    %eax,0xc(%ebp)
    445c:	85 ff                	test   %edi,%edi
    445e:	0f 84 53 01 00 00    	je     45b7 <ehci_hc_interrupt+0x187>
    4464:	83 ec 0c             	sub    $0xc,%esp
    4467:	50                   	push   %eax
    4468:	57                   	push   %edi
    4469:	68 1e 3b 01 00       	push   $0x13b1e
    446e:	6a 05                	push   $0x5
    4470:	6a ff                	push   $0xffffffff
    4472:	e8 c9 2c 01 00       	call   17140 <log_msg@plt>
    4477:	8b 45 0c             	mov    0xc(%ebp),%eax
    447a:	83 c4 20             	add    $0x20,%esp
    447d:	a8 04                	test   $0x4,%al
    447f:	0f 85 1b 01 00 00    	jne    45a0 <ehci_hc_interrupt+0x170>
    4485:	a8 20                	test   $0x20,%al
    4487:	0f 85 d3 00 00 00    	jne    4560 <ehci_hc_interrupt+0x130>
    448d:	a8 03                	test   $0x3,%al
    448f:	75 1f                	jne    44b0 <ehci_hc_interrupt+0x80>
    4491:	a8 10                	test   $0x10,%al
    4493:	74 12                	je     44a7 <ehci_hc_interrupt+0x77>
    4495:	57                   	push   %edi
    4496:	68 4f 3b 01 00       	push   $0x13b4f
    449b:	6a 00                	push   $0x0
    449d:	6a ff                	push   $0xffffffff
    449f:	e8 9c 2c 01 00       	call   17140 <log_msg@plt>
    44a4:	83 c4 10             	add    $0x10,%esp
    44a7:	8d 65 f4             	lea    -0xc(%ebp),%esp
    44aa:	5b                   	pop    %ebx
    44ab:	5e                   	pop    %esi
    44ac:	5f                   	pop    %edi
    44ad:	5d                   	pop    %ebp
    44ae:	c3                   	ret    
    44af:	90                   	nop
    44b0:	83 ec 0c             	sub    $0xc,%esp
    44b3:	8d 47 54             	lea    0x54(%edi),%eax
    44b6:	89 45 e0             	mov    %eax,-0x20(%ebp)
    44b9:	50                   	push   %eax
    44ba:	e8 d1 30 01 00       	call   17590 <fibril_mutex_lock@plt>
    44bf:	8d 47 4c             	lea    0x4c(%edi),%eax
    44c2:	89 04 24             	mov    %eax,(%esp)
    44c5:	89 45 e4             	mov    %eax,-0x1c(%ebp)
    44c8:	e8 53 2f 01 00       	call   17420 <list_count@plt>
    44cd:	89 04 24             	mov    %eax,(%esp)
    44d0:	57                   	push   %edi
    44d1:	68 2c 3f 01 00       	push   $0x13f2c
    44d6:	6a 05                	push   $0x5
    44d8:	6a ff                	push   $0xffffffff
    44da:	e8 61 2c 01 00       	call   17140 <log_msg@plt>
    44df:	8b 77 50             	mov    0x50(%edi),%esi
    44e2:	83 c4 20             	add    $0x20,%esp
    44e5:	39 75 e4             	cmp    %esi,-0x1c(%ebp)
    44e8:	8b 5e 04             	mov    0x4(%esi),%ebx
    44eb:	74 56                	je     4543 <ehci_hc_interrupt+0x113>
    44ed:	89 7d dc             	mov    %edi,-0x24(%ebp)
    44f0:	89 f7                	mov    %esi,%edi
    44f2:	8b 75 e4             	mov    -0x1c(%ebp),%esi
    44f5:	eb 03                	jmp    44fa <ehci_hc_interrupt+0xca>
    44f7:	90                   	nop
    44f8:	89 c3                	mov    %eax,%ebx
    44fa:	83 ec 0c             	sub    $0xc,%esp
    44fd:	57                   	push   %edi
    44fe:	e8 6d d6 ff ff       	call   1b70 <ehci_transfer_batch_is_complete>
    4503:	83 c4 10             	add    $0x10,%esp
    4506:	84 c0                	test   %al,%al
    4508:	74 2d                	je     4537 <ehci_hc_interrupt+0x107>
    450a:	8b 0f                	mov    (%edi),%ecx
    450c:	85 c9                	test   %ecx,%ecx
    450e:	74 0e                	je     451e <ehci_hc_interrupt+0xee>
    4510:	8b 47 04             	mov    0x4(%edi),%eax
    4513:	85 c0                	test   %eax,%eax
    4515:	74 07                	je     451e <ehci_hc_interrupt+0xee>
    4517:	89 08                	mov    %ecx,(%eax)
    4519:	8b 0f                	mov    (%edi),%ecx
    451b:	89 41 04             	mov    %eax,0x4(%ecx)
    451e:	83 ec 0c             	sub    $0xc,%esp
    4521:	c7 07 00 00 00 00    	movl   $0x0,(%edi)
    4527:	c7 47 04 00 00 00 00 	movl   $0x0,0x4(%edi)
    452e:	57                   	push   %edi
    452f:	e8 dc d0 ff ff       	call   1610 <ehci_transfer_batch_finish_dispose>
    4534:	83 c4 10             	add    $0x10,%esp
    4537:	8b 43 04             	mov    0x4(%ebx),%eax
    453a:	89 df                	mov    %ebx,%edi
    453c:	39 de                	cmp    %ebx,%esi
    453e:	75 b8                	jne    44f8 <ehci_hc_interrupt+0xc8>
    4540:	8b 7d dc             	mov    -0x24(%ebp),%edi
    4543:	83 ec 0c             	sub    $0xc,%esp
    4546:	8b 45 e0             	mov    -0x20(%ebp),%eax
    4549:	50                   	push   %eax
    454a:	e8 11 2d 01 00       	call   17260 <fibril_mutex_unlock@plt>
    454f:	8b 45 0c             	mov    0xc(%ebp),%eax
    4552:	83 c4 10             	add    $0x10,%esp
    4555:	e9 37 ff ff ff       	jmp    4491 <ehci_hc_interrupt+0x61>
    455a:	8d b6 00 00 00 00    	lea    0x0(%esi),%esi
    4560:	83 ec 0c             	sub    $0xc,%esp
    4563:	8d 5f 54             	lea    0x54(%edi),%ebx
    4566:	53                   	push   %ebx
    4567:	e8 24 30 01 00       	call   17590 <fibril_mutex_lock@plt>
    456c:	57                   	push   %edi
    456d:	68 34 3b 01 00       	push   $0x13b34
    4572:	6a 05                	push   $0x5
    4574:	6a ff                	push   $0xffffffff
    4576:	e8 c5 2b 01 00       	call   17140 <log_msg@plt>
    457b:	83 c4 14             	add    $0x14,%esp
    457e:	8d 47 64             	lea    0x64(%edi),%eax
    4581:	50                   	push   %eax
    4582:	e8 b9 2c 01 00       	call   17240 <fibril_condvar_broadcast@plt>
    4587:	89 1c 24             	mov    %ebx,(%esp)
    458a:	e8 d1 2c 01 00       	call   17260 <fibril_mutex_unlock@plt>
    458f:	8b 45 0c             	mov    0xc(%ebp),%eax
    4592:	83 c4 10             	add    $0x10,%esp
    4595:	e9 f3 fe ff ff       	jmp    448d <ehci_hc_interrupt+0x5d>
    459a:	8d b6 00 00 00 00    	lea    0x0(%esi),%esi
    45a0:	83 ec 0c             	sub    $0xc,%esp
    45a3:	8d 47 6c             	lea    0x6c(%edi),%eax
    45a6:	50                   	push   %eax
    45a7:	e8 04 e9 ff ff       	call   2eb0 <ehci_rh_interrupt>
    45ac:	8b 45 0c             	mov    0xc(%ebp),%eax
    45af:	83 c4 10             	add    $0x10,%esp
    45b2:	e9 ce fe ff ff       	jmp    4485 <ehci_hc_interrupt+0x55>
    45b7:	52                   	push   %edx
    45b8:	68 49 01 00 00       	push   $0x149
    45bd:	68 12 6b 01 00       	push   $0x16b12
    45c2:	68 fc 30 01 00       	push   $0x130fc
    45c7:	e8 e4 2b 01 00       	call   171b0 <assert_abort@plt>
    45cc:	51                   	push   %ecx
    45cd:	68 46 01 00 00       	push   $0x146
    45d2:	68 12 6b 01 00       	push   $0x16b12
    45d7:	68 12 31 01 00       	push   $0x13112
    45dc:	e8 cf 2b 01 00       	call   171b0 <assert_abort@plt>

000045e1 <endpoint_list_fini.part.2>:
    45e1:	55                   	push   %ebp
    45e2:	89 e5                	mov    %esp,%ebp
    45e4:	83 ec 0c             	sub    $0xc,%esp
    45e7:	6a 42                	push   $0x42
    45e9:	68 7d 39 01 00       	push   $0x1397d
    45ee:	68 fc 30 01 00       	push   $0x130fc
    45f3:	e8 b8 2b 01 00       	call   171b0 <assert_abort@plt>
    45f8:	66 90                	xchg   %ax,%ax
    45fa:	66 90                	xchg   %ax,%ax
    45fc:	66 90                	xchg   %ax,%ax
    45fe:	66 90                	xchg   %ax,%ax

00004600 <qh_init>:
    4600:	55                   	push   %ebp
    4601:	89 e5                	mov    %esp,%ebp
    4603:	57                   	push   %edi
    4604:	56                   	push   %esi
    4605:	53                   	push   %ebx
    4606:	83 ec 0c             	sub    $0xc,%esp
    4609:	8b 5d 08             	mov    0x8(%ebp),%ebx
    460c:	8b 75 0c             	mov    0xc(%ebp),%esi
    460f:	85 db                	test   %ebx,%ebx
    4611:	0f 84 ff 00 00 00    	je     4716 <qh_init+0x116>
    4617:	50                   	push   %eax
    4618:	6a 44                	push   $0x44
    461a:	6a 00                	push   $0x0
    461c:	53                   	push   %ebx
    461d:	e8 2e 2d 01 00       	call   17350 <memset@plt>
    4622:	c7 03 01 00 00 00    	movl   $0x1,(%ebx)
    4628:	83 c4 10             	add    $0x10,%esp
    462b:	c7 43 10 01 00 00 00 	movl   $0x1,0x10(%ebx)
    4632:	85 f6                	test   %esi,%esi
    4634:	c7 43 14 01 00 00 00 	movl   $0x1,0x14(%ebx)
    463b:	0f 84 bf 00 00 00    	je     4700 <qh_init+0x100>
    4641:	8b 4e 18             	mov    0x18(%esi),%ecx
    4644:	83 f9 02             	cmp    $0x2,%ecx
    4647:	0f 87 db 00 00 00    	ja     4728 <qh_init+0x128>
    464d:	0f bf 46 0e          	movswl 0xe(%esi),%eax
    4651:	8b 56 0c             	mov    0xc(%esi),%edx
    4654:	8b 3c 8d 04 40 01 00 	mov    0x14004(,%ecx,4),%edi
    465b:	c1 e0 08             	shl    $0x8,%eax
    465e:	83 e2 3f             	and    $0x3f,%edx
    4661:	25 00 0f 00 00       	and    $0xf00,%eax
    4666:	09 d0                	or     %edx,%eax
    4668:	8b 56 1c             	mov    0x1c(%esi),%edx
    466b:	c1 e2 10             	shl    $0x10,%edx
    466e:	81 e2 00 00 ff 07    	and    $0x7ff0000,%edx
    4674:	09 fa                	or     %edi,%edx
    4676:	8b 7e 14             	mov    0x14(%esi),%edi
    4679:	09 d0                	or     %edx,%eax
    467b:	85 ff                	test   %edi,%edi
    467d:	89 43 04             	mov    %eax,0x4(%ebx)
    4680:	74 36                	je     46b8 <qh_init+0xb8>
    4682:	8b 46 20             	mov    0x20(%esi),%eax
    4685:	c1 e0 1e             	shl    $0x1e,%eax
    4688:	80 cc 0c             	or     $0xc,%ah
    468b:	83 f9 02             	cmp    $0x2,%ecx
    468e:	74 14                	je     46a4 <qh_init+0xa4>
    4690:	0f bf 56 44          	movswl 0x44(%esi),%edx
    4694:	8b 4e 48             	mov    0x48(%esi),%ecx
    4697:	09 ca                	or     %ecx,%edx
    4699:	c1 e2 10             	shl    $0x10,%edx
    469c:	81 e2 00 00 7f 00    	and    $0x7f0000,%edx
    46a2:	09 d0                	or     %edx,%eax
    46a4:	83 ff 03             	cmp    $0x3,%edi
    46a7:	74 37                	je     46e0 <qh_init+0xe0>
    46a9:	89 43 08             	mov    %eax,0x8(%ebx)
    46ac:	8d 65 f4             	lea    -0xc(%ebp),%esp
    46af:	5b                   	pop    %ebx
    46b0:	5e                   	pop    %esi
    46b1:	5f                   	pop    %edi
    46b2:	5d                   	pop    %ebp
    46b3:	c3                   	ret    
    46b4:	8d 74 26 00          	lea    0x0(%esi,%eiz,1),%esi
    46b8:	8b 43 04             	mov    0x4(%ebx),%eax
    46bb:	83 f9 02             	cmp    $0x2,%ecx
    46be:	74 28                	je     46e8 <qh_init+0xe8>
    46c0:	0d 00 00 00 08       	or     $0x8000000,%eax
    46c5:	89 43 04             	mov    %eax,0x4(%ebx)
    46c8:	8b 43 04             	mov    0x4(%ebx),%eax
    46cb:	80 cc 40             	or     $0x40,%ah
    46ce:	89 43 04             	mov    %eax,0x4(%ebx)
    46d1:	8b 46 20             	mov    0x20(%esi),%eax
    46d4:	c1 e0 1e             	shl    $0x1e,%eax
    46d7:	80 cc 0c             	or     $0xc,%ah
    46da:	eb b4                	jmp    4690 <qh_init+0x90>
    46dc:	8d 74 26 00          	lea    0x0(%esi,%eiz,1),%esi
    46e0:	83 c8 03             	or     $0x3,%eax
    46e3:	eb c4                	jmp    46a9 <qh_init+0xa9>
    46e5:	8d 76 00             	lea    0x0(%esi),%esi
    46e8:	80 cc 40             	or     $0x40,%ah
    46eb:	89 43 04             	mov    %eax,0x4(%ebx)
    46ee:	8b 46 20             	mov    0x20(%esi),%eax
    46f1:	c1 e0 1e             	shl    $0x1e,%eax
    46f4:	80 cc 0c             	or     $0xc,%ah
    46f7:	eb b0                	jmp    46a9 <qh_init+0xa9>
    46f9:	8d b4 26 00 00 00 00 	lea    0x0(%esi,%eiz,1),%esi
    4700:	c7 43 04 00 80 00 00 	movl   $0x8000,0x4(%ebx)
    4707:	c7 43 18 40 00 00 00 	movl   $0x40,0x18(%ebx)
    470e:	8d 65 f4             	lea    -0xc(%ebp),%esp
    4711:	5b                   	pop    %ebx
    4712:	5e                   	pop    %esi
    4713:	5f                   	pop    %edi
    4714:	5d                   	pop    %ebp
    4715:	c3                   	ret    
    4716:	50                   	push   %eax
    4717:	6a 33                	push   $0x33
    4719:	68 cc 3f 01 00       	push   $0x13fcc
    471e:	68 fc 30 01 00       	push   $0x130fc
    4723:	e8 88 2a 01 00       	call   171b0 <assert_abort@plt>
    4728:	50                   	push   %eax
    4729:	6a 41                	push   $0x41
    472b:	68 cc 3f 01 00       	push   $0x13fcc
    4730:	68 e3 3f 01 00       	push   $0x13fe3
    4735:	e8 76 2a 01 00       	call   171b0 <assert_abort@plt>
    473a:	66 90                	xchg   %ax,%ax
    473c:	66 90                	xchg   %ax,%ax
    473e:	66 90                	xchg   %ax,%ax

00004740 <td_error>:
    4740:	55                   	push   %ebp
    4741:	89 e5                	mov    %esp,%ebp
    4743:	83 ec 08             	sub    $0x8,%esp
    4746:	8b 45 08             	mov    0x8(%ebp),%eax
    4749:	85 c0                	test   %eax,%eax
    474b:	74 3a                	je     4787 <td_error+0x47>
    474d:	8b 40 08             	mov    0x8(%eax),%eax
    4750:	a8 40                	test   $0x40,%al
    4752:	74 1c                	je     4770 <td_error+0x30>
    4754:	a8 18                	test   $0x18,%al
    4756:	75 28                	jne    4780 <td_error+0x40>
    4758:	83 e0 20             	and    $0x20,%eax
    475b:	c9                   	leave  
    475c:	83 f8 01             	cmp    $0x1,%eax
    475f:	19 c0                	sbb    %eax,%eax
    4761:	25 e3 fe ff ff       	and    $0xfffffee3,%eax
    4766:	83 e8 10             	sub    $0x10,%eax
    4769:	c3                   	ret    
    476a:	8d b6 00 00 00 00    	lea    0x0(%esi),%esi
    4770:	c1 e0 18             	shl    $0x18,%eax
    4773:	c9                   	leave  
    4774:	c1 f8 1f             	sar    $0x1f,%eax
    4777:	83 e0 f1             	and    $0xfffffff1,%eax
    477a:	c3                   	ret    
    477b:	90                   	nop
    477c:	8d 74 26 00          	lea    0x0(%esi,%eiz,1),%esi
    4780:	b8 f6 fe ff ff       	mov    $0xfffffef6,%eax
    4785:	c9                   	leave  
    4786:	c3                   	ret    
    4787:	50                   	push   %eax
    4788:	6a 31                	push   $0x31
    478a:	68 10 40 01 00       	push   $0x14010
    478f:	68 45 2b 01 00       	push   $0x12b45
    4794:	e8 17 2a 01 00       	call   171b0 <assert_abort@plt>
    4799:	8d b4 26 00 00 00 00 	lea    0x0(%esi,%eiz,1),%esi

000047a0 <td_init>:
    47a0:	55                   	push   %ebp
    47a1:	89 e5                	mov    %esp,%ebp
    47a3:	57                   	push   %edi
    47a4:	56                   	push   %esi
    47a5:	53                   	push   %ebx
    47a6:	83 ec 2c             	sub    $0x2c,%esp
    47a9:	8b 4d 08             	mov    0x8(%ebp),%ecx
    47ac:	8b 7d 14             	mov    0x14(%ebp),%edi
    47af:	8b 5d 18             	mov    0x18(%ebp),%ebx
    47b2:	8b 75 20             	mov    0x20(%ebp),%esi
    47b5:	85 c9                	test   %ecx,%ecx
    47b7:	0f 84 70 01 00 00    	je     492d <td_init+0x18d>
    47bd:	50                   	push   %eax
    47be:	8b 45 08             	mov    0x8(%ebp),%eax
    47c1:	6a 34                	push   $0x34
    47c3:	6a 00                	push   $0x0
    47c5:	50                   	push   %eax
    47c6:	e8 85 2b 01 00       	call   17350 <memset@plt>
    47cb:	83 c4 10             	add    $0x10,%esp
    47ce:	f7 c3 00 80 ff ff    	test   $0xffff8000,%ebx
    47d4:	0f 85 41 01 00 00    	jne    491b <td_init+0x17b>
    47da:	8b 45 10             	mov    0x10(%ebp),%eax
    47dd:	89 f1                	mov    %esi,%ecx
    47df:	8b 14 85 78 40 01 00 	mov    0x14078(,%eax,4),%edx
    47e6:	89 d8                	mov    %ebx,%eax
    47e8:	c1 e2 08             	shl    $0x8,%edx
    47eb:	c1 e0 10             	shl    $0x10,%eax
    47ee:	81 e2 00 03 00 00    	and    $0x300,%edx
    47f4:	25 00 00 ff 7f       	and    $0x7fff0000,%eax
    47f9:	09 d0                	or     %edx,%eax
    47fb:	31 d2                	xor    %edx,%edx
    47fd:	84 c9                	test   %cl,%cl
    47ff:	8b 4d 08             	mov    0x8(%ebp),%ecx
    4802:	0f 95 c2             	setne  %dl
    4805:	c1 e2 0f             	shl    $0xf,%edx
    4808:	09 d0                	or     %edx,%eax
    480a:	89 41 08             	mov    %eax,0x8(%ecx)
    480d:	83 7d 1c 01          	cmpl   $0x1,0x1c(%ebp)
    4811:	0f 86 c9 00 00 00    	jbe    48e0 <td_init+0x140>
    4817:	85 ff                	test   %edi,%edi
    4819:	74 73                	je     488e <td_init+0xee>
    481b:	85 db                	test   %ebx,%ebx
    481d:	0f 84 e6 00 00 00    	je     4909 <td_init+0x169>
    4823:	31 f6                	xor    %esi,%esi
    4825:	eb 05                	jmp    482c <td_init+0x8c>
    4827:	90                   	nop
    4828:	85 db                	test   %ebx,%ebx
    482a:	74 62                	je     488e <td_init+0xee>
    482c:	50                   	push   %eax
    482d:	50                   	push   %eax
    482e:	8d 45 e4             	lea    -0x1c(%ebp),%eax
    4831:	50                   	push   %eax
    4832:	57                   	push   %edi
    4833:	e8 b8 2a 01 00       	call   172f0 <as_get_physical_mapping@plt>
    4838:	83 c4 10             	add    $0x10,%esp
