
vcalc:     file format elf32-i386


Disassembly of section .init:

000010f4 <__entry>:
    10f4:	66 8c d0             	mov    %ss,%ax
    10f7:	8e d8                	mov    %eax,%ds
    10f9:	8e c0                	mov    %eax,%es
    10fb:	8e e0                	mov    %eax,%fs
    10fd:	b8 01 00 00 00       	mov    $0x1,%eax
    1102:	0f a2                	cpuid  
    1104:	0f ba e2 0b          	bt     $0xb,%edx
    1108:	73 0c                	jae    1116 <__entry+0x22>
    110a:	8d 05 08 5e 01 00    	lea    0x15e08,%eax
    1110:	c7 00 b0 8f 00 00    	movl   $0x8fb0,(%eax)
    1116:	6a 00                	push   $0x0
    1118:	6a 00                	push   $0x0
    111a:	89 e5                	mov    %esp,%ebp
    111c:	57                   	push   %edi
    111d:	e8 2e 7c 00 00       	call   8d50 <__main@plt>

Disassembly of section .text:

00001130 <on_c_click>:
    1130:	55                   	push   %ebp
    1131:	89 e5                	mov    %esp,%ebp
    1133:	83 ec 08             	sub    $0x8,%esp
    1136:	a1 14 5e 01 00       	mov    0x15e14,%eax
    113b:	85 c0                	test   %eax,%eax
    113d:	74 16                	je     1155 <on_c_click+0x25>
    113f:	83 ec 0c             	sub    $0xc,%esp
    1142:	50                   	push   %eax
    1143:	e8 98 7e 00 00       	call   8fe0 <free@plt>
    1148:	c7 05 14 5e 01 00 00 	movl   $0x0,0x15e14
    114f:	00 00 00 
    1152:	83 c4 10             	add    $0x10,%esp
    1155:	a1 10 5e 01 00       	mov    0x15e10,%eax
    115a:	c7 45 0c 23 8a 00 00 	movl   $0x8a23,0xc(%ebp)
    1161:	89 45 08             	mov    %eax,0x8(%ebp)
    1164:	8b 80 2c 01 00 00    	mov    0x12c(%eax),%eax
    116a:	c9                   	leave  
    116b:	ff e0                	jmp    *%eax
    116d:	8d 76 00             	lea    0x0(%esi),%esi

00001170 <on_btn_click>:
    1170:	55                   	push   %ebp
    1171:	89 e5                	mov    %esp,%ebp
    1173:	83 ec 24             	sub    $0x24,%esp
    1176:	8b 45 08             	mov    0x8(%ebp),%eax
    1179:	50                   	push   %eax
    117a:	e8 51 2c 00 00       	call   3dd0 <widget_get_data>
    117f:	8b 15 14 5e 01 00    	mov    0x15e14,%edx
    1185:	83 c4 10             	add    $0x10,%esp
    1188:	85 d2                	test   %edx,%edx
    118a:	74 44                	je     11d0 <on_btn_click+0x60>
    118c:	50                   	push   %eax
    118d:	8d 45 f4             	lea    -0xc(%ebp),%eax
    1190:	52                   	push   %edx
    1191:	68 25 8a 00 00       	push   $0x8a25
    1196:	50                   	push   %eax
    1197:	e8 84 7d 00 00       	call   8f20 <asprintf@plt>
    119c:	58                   	pop    %eax
    119d:	a1 14 5e 01 00       	mov    0x15e14,%eax
    11a2:	50                   	push   %eax
    11a3:	e8 38 7e 00 00       	call   8fe0 <free@plt>
    11a8:	8b 45 f4             	mov    -0xc(%ebp),%eax
    11ab:	83 c4 10             	add    $0x10,%esp
    11ae:	a3 14 5e 01 00       	mov    %eax,0x15e14
    11b3:	85 c0                	test   %eax,%eax
    11b5:	74 2e                	je     11e5 <on_btn_click+0x75>
    11b7:	8b 15 10 5e 01 00    	mov    0x15e10,%edx
    11bd:	51                   	push   %ecx
    11be:	51                   	push   %ecx
    11bf:	50                   	push   %eax
    11c0:	52                   	push   %edx
    11c1:	ff 92 2c 01 00 00    	call   *0x12c(%edx)
    11c7:	83 c4 10             	add    $0x10,%esp
    11ca:	c9                   	leave  
    11cb:	c3                   	ret    
    11cc:	8d 74 26 00          	lea    0x0(%esi,%eiz,1),%esi
    11d0:	83 ec 0c             	sub    $0xc,%esp
    11d3:	50                   	push   %eax
    11d4:	e8 a7 7c 00 00       	call   8e80 <str_dup@plt>
    11d9:	83 c4 10             	add    $0x10,%esp
    11dc:	a3 14 5e 01 00       	mov    %eax,0x15e14
    11e1:	85 c0                	test   %eax,%eax
    11e3:	75 d2                	jne    11b7 <on_btn_click+0x47>
    11e5:	a1 10 5e 01 00       	mov    0x15e10,%eax
    11ea:	52                   	push   %edx
    11eb:	52                   	push   %edx
    11ec:	68 23 8a 00 00       	push   $0x8a23
    11f1:	50                   	push   %eax
    11f2:	ff 90 2c 01 00 00    	call   *0x12c(%eax)
    11f8:	83 c4 10             	add    $0x10,%esp
    11fb:	c9                   	leave  
    11fc:	c3                   	ret    
    11fd:	8d 76 00             	lea    0x0(%esi),%esi

00001200 <evaluate>:
    1200:	55                   	push   %ebp
    1201:	89 e5                	mov    %esp,%ebp
    1203:	57                   	push   %edi
    1204:	56                   	push   %esi
    1205:	53                   	push   %ebx
    1206:	83 ec 2c             	sub    $0x2c,%esp
    1209:	89 c7                	mov    %eax,%edi
    120b:	89 d6                	mov    %edx,%esi
    120d:	89 cb                	mov    %ecx,%ebx
    120f:	8b 40 04             	mov    0x4(%eax),%eax
    1212:	39 f8                	cmp    %edi,%eax
    1214:	74 4a                	je     1260 <evaluate+0x60>
    1216:	85 c0                	test   %eax,%eax
    1218:	74 58                	je     1272 <evaluate+0x72>
    121a:	8b 48 08             	mov    0x8(%eax),%ecx
    121d:	85 c9                	test   %ecx,%ecx
    121f:	75 51                	jne    1272 <evaluate+0x72>
    1221:	8b 48 10             	mov    0x10(%eax),%ecx
    1224:	8b 50 0c             	mov    0xc(%eax),%edx
    1227:	89 4e 04             	mov    %ecx,0x4(%esi)
    122a:	8b 08                	mov    (%eax),%ecx
    122c:	89 16                	mov    %edx,(%esi)
    122e:	85 c9                	test   %ecx,%ecx
    1230:	74 0e                	je     1240 <evaluate+0x40>
    1232:	8b 50 04             	mov    0x4(%eax),%edx
    1235:	85 d2                	test   %edx,%edx
    1237:	74 07                	je     1240 <evaluate+0x40>
    1239:	89 0a                	mov    %ecx,(%edx)
    123b:	8b 08                	mov    (%eax),%ecx
    123d:	89 51 04             	mov    %edx,0x4(%ecx)
    1240:	83 ec 0c             	sub    $0xc,%esp
    1243:	c7 00 00 00 00 00    	movl   $0x0,(%eax)
    1249:	c7 40 04 00 00 00 00 	movl   $0x0,0x4(%eax)
    1250:	50                   	push   %eax
    1251:	e8 8a 7d 00 00       	call   8fe0 <free@plt>
    1256:	8b 47 04             	mov    0x4(%edi),%eax
    1259:	83 c4 10             	add    $0x10,%esp
    125c:	39 f8                	cmp    %edi,%eax
    125e:	75 08                	jne    1268 <evaluate+0x68>
    1260:	8d 65 f4             	lea    -0xc(%ebp),%esp
    1263:	5b                   	pop    %ebx
    1264:	5e                   	pop    %esi
    1265:	5f                   	pop    %edi
    1266:	5d                   	pop    %ebp
    1267:	c3                   	ret    
    1268:	85 c0                	test   %eax,%eax
    126a:	74 06                	je     1272 <evaluate+0x72>
    126c:	83 78 08 01          	cmpl   $0x1,0x8(%eax)
    1270:	74 17                	je     1289 <evaluate+0x89>
    1272:	8b 45 08             	mov    0x8(%ebp),%eax
    1275:	c7 03 02 00 00 00    	movl   $0x2,(%ebx)
    127b:	c7 00 00 00 00 00    	movl   $0x0,(%eax)
    1281:	8d 65 f4             	lea    -0xc(%ebp),%esp
    1284:	5b                   	pop    %ebx
    1285:	5e                   	pop    %esi
    1286:	5f                   	pop    %edi
    1287:	5d                   	pop    %ebp
    1288:	c3                   	ret    
    1289:	8b 50 0c             	mov    0xc(%eax),%edx
    128c:	8b 08                	mov    (%eax),%ecx
    128e:	89 55 dc             	mov    %edx,-0x24(%ebp)
    1291:	85 c9                	test   %ecx,%ecx
    1293:	74 0e                	je     12a3 <evaluate+0xa3>
    1295:	8b 50 04             	mov    0x4(%eax),%edx
    1298:	85 d2                	test   %edx,%edx
    129a:	74 07                	je     12a3 <evaluate+0xa3>
    129c:	89 0a                	mov    %ecx,(%edx)
    129e:	8b 08                	mov    (%eax),%ecx
    12a0:	89 51 04             	mov    %edx,0x4(%ecx)
    12a3:	83 ec 0c             	sub    $0xc,%esp
    12a6:	c7 00 00 00 00 00    	movl   $0x0,(%eax)
    12ac:	c7 40 04 00 00 00 00 	movl   $0x0,0x4(%eax)
    12b3:	50                   	push   %eax
    12b4:	e8 27 7d 00 00       	call   8fe0 <free@plt>
    12b9:	8b 47 04             	mov    0x4(%edi),%eax
    12bc:	83 c4 10             	add    $0x10,%esp
    12bf:	39 f8                	cmp    %edi,%eax
    12c1:	74 af                	je     1272 <evaluate+0x72>
    12c3:	85 c0                	test   %eax,%eax
    12c5:	74 ab                	je     1272 <evaluate+0x72>
    12c7:	8b 50 08             	mov    0x8(%eax),%edx
    12ca:	85 d2                	test   %edx,%edx
    12cc:	75 a4                	jne    1272 <evaluate+0x72>
    12ce:	8b 48 10             	mov    0x10(%eax),%ecx
    12d1:	8b 50 0c             	mov    0xc(%eax),%edx
    12d4:	89 4d d4             	mov    %ecx,-0x2c(%ebp)
    12d7:	8b 08                	mov    (%eax),%ecx
    12d9:	89 55 d0             	mov    %edx,-0x30(%ebp)
    12dc:	85 c9                	test   %ecx,%ecx
    12de:	74 0e                	je     12ee <evaluate+0xee>
    12e0:	8b 50 04             	mov    0x4(%eax),%edx
    12e3:	85 d2                	test   %edx,%edx
    12e5:	74 07                	je     12ee <evaluate+0xee>
    12e7:	89 0a                	mov    %ecx,(%edx)
    12e9:	8b 08                	mov    (%eax),%ecx
    12eb:	89 51 04             	mov    %edx,0x4(%ecx)
    12ee:	83 ec 0c             	sub    $0xc,%esp
    12f1:	c7 00 00 00 00 00    	movl   $0x0,(%eax)
    12f7:	c7 40 04 00 00 00 00 	movl   $0x0,0x4(%eax)
    12fe:	50                   	push   %eax
    12ff:	e8 dc 7c 00 00       	call   8fe0 <free@plt>
    1304:	8b 06                	mov    (%esi),%eax
    1306:	8b 56 04             	mov    0x4(%esi),%edx
    1309:	83 c4 10             	add    $0x10,%esp
    130c:	89 45 e0             	mov    %eax,-0x20(%ebp)
    130f:	89 55 e4             	mov    %edx,-0x1c(%ebp)
    1312:	83 7d dc 02          	cmpl   $0x2,-0x24(%ebp)
    1316:	0f 84 b3 00 00 00    	je     13cf <evaluate+0x1cf>
    131c:	0f 86 80 00 00 00    	jbe    13a2 <evaluate+0x1a2>
    1322:	8b 45 dc             	mov    -0x24(%ebp),%eax
    1325:	83 f8 03             	cmp    $0x3,%eax
    1328:	0f 84 ba 00 00 00    	je     13e8 <evaluate+0x1e8>
    132e:	83 f8 04             	cmp    $0x4,%eax
    1331:	0f 85 84 00 00 00    	jne    13bb <evaluate+0x1bb>
    1337:	8b 45 e0             	mov    -0x20(%ebp),%eax
    133a:	8b 55 e4             	mov    -0x1c(%ebp),%edx
    133d:	89 c1                	mov    %eax,%ecx
    133f:	89 d0                	mov    %edx,%eax
    1341:	09 c8                	or     %ecx,%eax
    1343:	74 76                	je     13bb <evaluate+0x1bb>
    1345:	8b 45 e4             	mov    -0x1c(%ebp),%eax
    1348:	8b 55 e0             	mov    -0x20(%ebp),%edx
    134b:	50                   	push   %eax
    134c:	8b 4d d4             	mov    -0x2c(%ebp),%ecx
    134f:	8b 45 d0             	mov    -0x30(%ebp),%eax
    1352:	52                   	push   %edx
    1353:	51                   	push   %ecx
    1354:	50                   	push   %eax
    1355:	e8 26 7a 00 00       	call   8d80 <__divdi3@plt>
    135a:	83 c4 10             	add    $0x10,%esp
    135d:	89 45 e0             	mov    %eax,-0x20(%ebp)
    1360:	89 55 e4             	mov    %edx,-0x1c(%ebp)
    1363:	89 06                	mov    %eax,(%esi)
    1365:	89 56 04             	mov    %edx,0x4(%esi)
    1368:	83 ec 0c             	sub    $0xc,%esp
    136b:	6a 14                	push   $0x14
    136d:	e8 8e 7a 00 00       	call   8e00 <malloc@plt>
    1372:	83 c4 10             	add    $0x10,%esp
    1375:	85 c0                	test   %eax,%eax
    1377:	0f 84 f5 fe ff ff    	je     1272 <evaluate+0x72>
    137d:	8b 55 e0             	mov    -0x20(%ebp),%edx
    1380:	8b 4d e4             	mov    -0x1c(%ebp),%ecx
    1383:	89 50 0c             	mov    %edx,0xc(%eax)
    1386:	8b 57 04             	mov    0x4(%edi),%edx
    1389:	c7 40 08 00 00 00 00 	movl   $0x0,0x8(%eax)
    1390:	89 48 10             	mov    %ecx,0x10(%eax)
    1393:	89 38                	mov    %edi,(%eax)
    1395:	89 50 04             	mov    %edx,0x4(%eax)
    1398:	89 02                	mov    %eax,(%edx)
    139a:	89 47 04             	mov    %eax,0x4(%edi)
    139d:	e9 70 fe ff ff       	jmp    1212 <evaluate+0x12>
    13a2:	83 7d dc 01          	cmpl   $0x1,-0x24(%ebp)
    13a6:	75 13                	jne    13bb <evaluate+0x1bb>
    13a8:	03 45 d0             	add    -0x30(%ebp),%eax
    13ab:	13 55 d4             	adc    -0x2c(%ebp),%edx
    13ae:	89 45 e0             	mov    %eax,-0x20(%ebp)
    13b1:	89 55 e4             	mov    %edx,-0x1c(%ebp)
    13b4:	89 06                	mov    %eax,(%esi)
    13b6:	89 56 04             	mov    %edx,0x4(%esi)
    13b9:	eb ad                	jmp    1368 <evaluate+0x168>
    13bb:	8b 45 08             	mov    0x8(%ebp),%eax
    13be:	c7 03 02 00 00 00    	movl   $0x2,(%ebx)
    13c4:	c7 00 01 00 00 00    	movl   $0x1,(%eax)
    13ca:	e9 91 fe ff ff       	jmp    1260 <evaluate+0x60>
    13cf:	8b 45 d0             	mov    -0x30(%ebp),%eax
    13d2:	8b 55 d4             	mov    -0x2c(%ebp),%edx
    13d5:	2b 45 e0             	sub    -0x20(%ebp),%eax
    13d8:	1b 55 e4             	sbb    -0x1c(%ebp),%edx
    13db:	89 45 e0             	mov    %eax,-0x20(%ebp)
    13de:	89 55 e4             	mov    %edx,-0x1c(%ebp)
    13e1:	89 06                	mov    %eax,(%esi)
    13e3:	89 56 04             	mov    %edx,0x4(%esi)
    13e6:	eb 80                	jmp    1368 <evaluate+0x168>
    13e8:	8b 55 e4             	mov    -0x1c(%ebp),%edx
    13eb:	8b 45 d0             	mov    -0x30(%ebp),%eax
    13ee:	0f af d0             	imul   %eax,%edx
    13f1:	8b 4d d4             	mov    -0x2c(%ebp),%ecx
    13f4:	8b 45 e0             	mov    -0x20(%ebp),%eax
    13f7:	0f af c8             	imul   %eax,%ecx
    13fa:	8b 45 e0             	mov    -0x20(%ebp),%eax
    13fd:	01 d1                	add    %edx,%ecx
    13ff:	f7 65 d0             	mull   -0x30(%ebp)
    1402:	89 55 e4             	mov    %edx,-0x1c(%ebp)
    1405:	89 45 e0             	mov    %eax,-0x20(%ebp)
    1408:	8b 45 e4             	mov    -0x1c(%ebp),%eax
    140b:	01 c8                	add    %ecx,%eax
    140d:	89 45 e4             	mov    %eax,-0x1c(%ebp)
    1410:	8b 45 e0             	mov    -0x20(%ebp),%eax
    1413:	8b 55 e4             	mov    -0x1c(%ebp),%edx
    1416:	89 06                	mov    %eax,(%esi)
    1418:	89 56 04             	mov    %edx,0x4(%esi)
    141b:	e9 48 ff ff ff       	jmp    1368 <evaluate+0x168>

00001420 <on_eval_click>:
    1420:	55                   	push   %ebp
    1421:	89 e5                	mov    %esp,%ebp
    1423:	57                   	push   %edi
    1424:	56                   	push   %esi
    1425:	53                   	push   %ebx
    1426:	83 ec 3c             	sub    $0x3c,%esp
    1429:	8b 3d 14 5e 01 00    	mov    0x15e14,%edi
    142f:	85 ff                	test   %edi,%edi
    1431:	0f 84 10 02 00 00    	je     1647 <on_eval_click+0x227>
    1437:	8d 45 e0             	lea    -0x20(%ebp),%eax
    143a:	c7 45 d0 00 00 00 00 	movl   $0x0,-0x30(%ebp)
    1441:	89 45 e0             	mov    %eax,-0x20(%ebp)
    1444:	89 45 e4             	mov    %eax,-0x1c(%ebp)
    1447:	c7 45 d4 00 00 00 00 	movl   $0x0,-0x2c(%ebp)
    144e:	c7 45 d8 00 00 00 00 	movl   $0x0,-0x28(%ebp)
    1455:	c7 45 dc 00 00 00 00 	movl   $0x0,-0x24(%ebp)
    145c:	0f be 07             	movsbl (%edi),%eax
    145f:	8d 50 d0             	lea    -0x30(%eax),%edx
    1462:	80 fa 09             	cmp    $0x9,%dl
    1465:	76 51                	jbe    14b8 <on_eval_click+0x98>
    1467:	3c 2b                	cmp    $0x2b,%al
    1469:	0f 84 d9 02 00 00    	je     1748 <on_eval_click+0x328>
    146f:	3c 2d                	cmp    $0x2d,%al
    1471:	0f 84 e9 03 00 00    	je     1860 <on_eval_click+0x440>
    1477:	c7 45 d4 02 00 00 00 	movl   $0x2,-0x2c(%ebp)
    147e:	8d 7d d4             	lea    -0x2c(%ebp),%edi
    1481:	8d 75 d8             	lea    -0x28(%ebp),%esi
    1484:	8d 5d d0             	lea    -0x30(%ebp),%ebx
    1487:	83 ec 0c             	sub    $0xc,%esp
    148a:	89 f9                	mov    %edi,%ecx
    148c:	89 f2                	mov    %esi,%edx
    148e:	8d 45 e0             	lea    -0x20(%ebp),%eax
    1491:	53                   	push   %ebx
    1492:	e8 69 fd ff ff       	call   1200 <evaluate>
    1497:	83 c4 10             	add    $0x10,%esp
    149a:	8b 45 e4             	mov    -0x1c(%ebp),%eax
    149d:	8d 75 e0             	lea    -0x20(%ebp),%esi
    14a0:	39 f0                	cmp    %esi,%eax
    14a2:	0f 84 a8 01 00 00    	je     1650 <on_eval_click+0x230>
    14a8:	85 c0                	test   %eax,%eax
    14aa:	0f 85 18 01 00 00    	jne    15c8 <on_eval_click+0x1a8>
    14b0:	eb fe                	jmp    14b0 <on_eval_click+0x90>
    14b2:	8d b6 00 00 00 00    	lea    0x0(%esi),%esi
    14b8:	83 e8 30             	sub    $0x30,%eax
    14bb:	c7 45 c4 01 00 00 00 	movl   $0x1,-0x3c(%ebp)
    14c2:	89 45 d8             	mov    %eax,-0x28(%ebp)
    14c5:	c7 45 d4 04 00 00 00 	movl   $0x4,-0x2c(%ebp)
    14cc:	c1 f8 1f             	sar    $0x1f,%eax
    14cf:	c6 45 c0 00          	movb   $0x0,-0x40(%ebp)
    14d3:	89 45 dc             	mov    %eax,-0x24(%ebp)
    14d6:	c7 45 b8 00 00 00 00 	movl   $0x0,-0x48(%ebp)
    14dd:	8b 45 c4             	mov    -0x3c(%ebp),%eax
    14e0:	8d 34 07             	lea    (%edi,%eax,1),%esi
    14e3:	8a 06                	mov    (%esi),%al
    14e5:	8d 50 d0             	lea    -0x30(%eax),%edx
    14e8:	80 fa 09             	cmp    $0x9,%dl
    14eb:	77 5b                	ja     1548 <on_eval_click+0x128>
    14ed:	8b 4d d8             	mov    -0x28(%ebp),%ecx
    14f0:	8b 5d dc             	mov    -0x24(%ebp),%ebx
    14f3:	89 c8                	mov    %ecx,%eax
    14f5:	89 da                	mov    %ebx,%edx
    14f7:	0f a4 c2 02          	shld   $0x2,%eax,%edx
    14fb:	c1 e0 02             	shl    $0x2,%eax
    14fe:	01 c1                	add    %eax,%ecx
    1500:	11 d3                	adc    %edx,%ebx
    1502:	0f a4 cb 01          	shld   $0x1,%ecx,%ebx
    1506:	01 c9                	add    %ecx,%ecx
    1508:	89 5d dc             	mov    %ebx,-0x24(%ebp)
    150b:	89 4d d8             	mov    %ecx,-0x28(%ebp)
    150e:	0f be 06             	movsbl (%esi),%eax
    1511:	89 c2                	mov    %eax,%edx
    1513:	83 ea 30             	sub    $0x30,%edx
    1516:	80 fa 09             	cmp    $0x9,%dl
    1519:	0f 87 c3 03 00 00    	ja     18e2 <on_eval_click+0x4c2>
    151f:	83 e8 30             	sub    $0x30,%eax
    1522:	89 c2                	mov    %eax,%edx
    1524:	c1 fa 1f             	sar    $0x1f,%edx
    1527:	01 c8                	add    %ecx,%eax
    1529:	11 da                	adc    %ebx,%edx
    152b:	89 45 d8             	mov    %eax,-0x28(%ebp)
    152e:	8b 45 c4             	mov    -0x3c(%ebp),%eax
    1531:	89 55 dc             	mov    %edx,-0x24(%ebp)
    1534:	40                   	inc    %eax
    1535:	89 45 c4             	mov    %eax,-0x3c(%ebp)
    1538:	8b 45 c4             	mov    -0x3c(%ebp),%eax
    153b:	8d 34 07             	lea    (%edi,%eax,1),%esi
    153e:	8a 06                	mov    (%esi),%al
    1540:	8d 50 d0             	lea    -0x30(%eax),%edx
    1543:	80 fa 09             	cmp    $0x9,%dl
    1546:	76 a5                	jbe    14ed <on_eval_click+0xcd>
    1548:	8d 50 d6             	lea    -0x2a(%eax),%edx
    154b:	80 fa 05             	cmp    $0x5,%dl
    154e:	77 15                	ja     1565 <on_eval_click+0x145>
    1550:	81 e2 ff 00 00 00    	and    $0xff,%edx
    1556:	8b 3c 95 f4 8a 00 00 	mov    0x8af4(,%edx,4),%edi
    155d:	85 ff                	test   %edi,%edi
    155f:	0f 85 43 01 00 00    	jne    16a8 <on_eval_click+0x288>
    1565:	84 c0                	test   %al,%al
    1567:	0f 85 0a ff ff ff    	jne    1477 <on_eval_click+0x57>
    156d:	83 ec 0c             	sub    $0xc,%esp
    1570:	8b 75 d8             	mov    -0x28(%ebp),%esi
    1573:	8b 7d dc             	mov    -0x24(%ebp),%edi
    1576:	6a 14                	push   $0x14
    1578:	e8 83 78 00 00       	call   8e00 <malloc@plt>
    157d:	83 c4 10             	add    $0x10,%esp
    1580:	85 c0                	test   %eax,%eax
    1582:	0f 84 ef fe ff ff    	je     1477 <on_eval_click+0x57>
    1588:	c7 40 08 00 00 00 00 	movl   $0x0,0x8(%eax)
    158f:	80 7d c0 00          	cmpb   $0x0,-0x40(%ebp)
    1593:	74 07                	je     159c <on_eval_click+0x17c>
    1595:	f7 de                	neg    %esi
    1597:	83 d7 00             	adc    $0x0,%edi
    159a:	f7 df                	neg    %edi
    159c:	8b 55 e4             	mov    -0x1c(%ebp),%edx
    159f:	89 70 0c             	mov    %esi,0xc(%eax)
    15a2:	8d 75 e0             	lea    -0x20(%ebp),%esi
    15a5:	89 78 10             	mov    %edi,0x10(%eax)
    15a8:	89 30                	mov    %esi,(%eax)
    15aa:	89 50 04             	mov    %edx,0x4(%eax)
    15ad:	8d 7d d4             	lea    -0x2c(%ebp),%edi
    15b0:	89 02                	mov    %eax,(%edx)
    15b2:	8d 75 d8             	lea    -0x28(%ebp),%esi
    15b5:	89 45 e4             	mov    %eax,-0x1c(%ebp)
    15b8:	c7 45 d4 01 00 00 00 	movl   $0x1,-0x2c(%ebp)
    15bf:	8d 5d d0             	lea    -0x30(%ebp),%ebx
    15c2:	e9 c0 fe ff ff       	jmp    1487 <on_eval_click+0x67>
    15c7:	90                   	nop
    15c8:	8b 08                	mov    (%eax),%ecx
    15ca:	85 c9                	test   %ecx,%ecx
    15cc:	74 0e                	je     15dc <on_eval_click+0x1bc>
    15ce:	8b 50 04             	mov    0x4(%eax),%edx
    15d1:	85 d2                	test   %edx,%edx
    15d3:	74 07                	je     15dc <on_eval_click+0x1bc>
    15d5:	89 0a                	mov    %ecx,(%edx)
    15d7:	8b 08                	mov    (%eax),%ecx
    15d9:	89 51 04             	mov    %edx,0x4(%ecx)
    15dc:	83 ec 0c             	sub    $0xc,%esp
    15df:	c7 00 00 00 00 00    	movl   $0x0,(%eax)
    15e5:	c7 40 04 00 00 00 00 	movl   $0x0,0x4(%eax)
    15ec:	50                   	push   %eax
    15ed:	e8 ee 79 00 00       	call   8fe0 <free@plt>
    15f2:	83 c4 10             	add    $0x10,%esp
    15f5:	e9 a0 fe ff ff       	jmp    149a <on_eval_click+0x7a>
    15fa:	8d b6 00 00 00 00    	lea    0x0(%esi),%esi
    1600:	a1 14 5e 01 00       	mov    0x15e14,%eax
    1605:	8b 5d d0             	mov    -0x30(%ebp),%ebx
    1608:	85 c0                	test   %eax,%eax
    160a:	74 16                	je     1622 <on_eval_click+0x202>
    160c:	83 ec 0c             	sub    $0xc,%esp
    160f:	50                   	push   %eax
    1610:	e8 cb 79 00 00       	call   8fe0 <free@plt>
    1615:	c7 05 14 5e 01 00 00 	movl   $0x0,0x15e14
    161c:	00 00 00 
    161f:	83 c4 10             	add    $0x10,%esp
    1622:	85 db                	test   %ebx,%ebx
    1624:	0f 84 8e 02 00 00    	je     18b8 <on_eval_click+0x498>
    162a:	4b                   	dec    %ebx
    162b:	0f 84 67 02 00 00    	je     1898 <on_eval_click+0x478>
    1631:	a1 10 5e 01 00       	mov    0x15e10,%eax
    1636:	52                   	push   %edx
    1637:	52                   	push   %edx
    1638:	68 5b 8a 00 00       	push   $0x8a5b
    163d:	50                   	push   %eax
    163e:	ff 90 2c 01 00 00    	call   *0x12c(%eax)
    1644:	83 c4 10             	add    $0x10,%esp
    1647:	8d 65 f4             	lea    -0xc(%ebp),%esp
    164a:	5b                   	pop    %ebx
    164b:	5e                   	pop    %esi
    164c:	5f                   	pop    %edi
    164d:	5d                   	pop    %ebp
    164e:	c3                   	ret    
    164f:	90                   	nop
    1650:	83 7d d4 02          	cmpl   $0x2,-0x2c(%ebp)
    1654:	74 aa                	je     1600 <on_eval_click+0x1e0>
    1656:	83 ec 0c             	sub    $0xc,%esp
    1659:	8b 1d 14 5e 01 00    	mov    0x15e14,%ebx
    165f:	53                   	push   %ebx
    1660:	e8 7b 79 00 00       	call   8fe0 <free@plt>
    1665:	8b 75 dc             	mov    -0x24(%ebp),%esi
    1668:	8b 7d d8             	mov    -0x28(%ebp),%edi
    166b:	56                   	push   %esi
    166c:	57                   	push   %edi
    166d:	68 69 8a 00 00       	push   $0x8a69
    1672:	68 14 5e 01 00       	push   $0x15e14
    1677:	e8 a4 78 00 00       	call   8f20 <asprintf@plt>
    167c:	a1 14 5e 01 00       	mov    0x15e14,%eax
    1681:	83 c4 20             	add    $0x20,%esp
    1684:	85 c0                	test   %eax,%eax
    1686:	0f 84 ec 01 00 00    	je     1878 <on_eval_click+0x458>
    168c:	8b 15 10 5e 01 00    	mov    0x15e10,%edx
    1692:	51                   	push   %ecx
    1693:	51                   	push   %ecx
    1694:	50                   	push   %eax
    1695:	52                   	push   %edx
    1696:	ff 92 2c 01 00 00    	call   *0x12c(%edx)
    169c:	83 c4 10             	add    $0x10,%esp
    169f:	8d 65 f4             	lea    -0xc(%ebp),%esp
    16a2:	5b                   	pop    %ebx
    16a3:	5e                   	pop    %esi
    16a4:	5f                   	pop    %edi
    16a5:	5d                   	pop    %ebp
    16a6:	c3                   	ret    
    16a7:	90                   	nop
    16a8:	83 ec 0c             	sub    $0xc,%esp
    16ab:	8b 75 d8             	mov    -0x28(%ebp),%esi
    16ae:	8b 7d dc             	mov    -0x24(%ebp),%edi
    16b1:	6a 14                	push   $0x14
    16b3:	e8 48 77 00 00       	call   8e00 <malloc@plt>
    16b8:	83 c4 10             	add    $0x10,%esp
    16bb:	85 c0                	test   %eax,%eax
    16bd:	0f 84 b4 fd ff ff    	je     1477 <on_eval_click+0x57>
    16c3:	c7 40 08 00 00 00 00 	movl   $0x0,0x8(%eax)
    16ca:	80 7d c0 00          	cmpb   $0x0,-0x40(%ebp)
    16ce:	74 07                	je     16d7 <on_eval_click+0x2b7>
    16d0:	f7 de                	neg    %esi
    16d2:	83 d7 00             	adc    $0x0,%edi
    16d5:	f7 df                	neg    %edi
    16d7:	8b 55 e4             	mov    -0x1c(%ebp),%edx
    16da:	8d 4d e0             	lea    -0x20(%ebp),%ecx
    16dd:	89 08                	mov    %ecx,(%eax)
    16df:	89 70 0c             	mov    %esi,0xc(%eax)
    16e2:	89 78 10             	mov    %edi,0x10(%eax)
    16e5:	89 50 04             	mov    %edx,0x4(%eax)
    16e8:	8b 4d c4             	mov    -0x3c(%ebp),%ecx
    16eb:	89 02                	mov    %eax,(%edx)
    16ed:	89 45 e4             	mov    %eax,-0x1c(%ebp)
    16f0:	a1 14 5e 01 00       	mov    0x15e14,%eax
    16f5:	c7 45 d8 00 00 00 00 	movl   $0x0,-0x28(%ebp)
    16fc:	c7 45 dc 00 00 00 00 	movl   $0x0,-0x24(%ebp)
    1703:	8a 04 08             	mov    (%eax,%ecx,1),%al
    1706:	83 e8 2a             	sub    $0x2a,%eax
    1709:	3c 05                	cmp    $0x5,%al
    170b:	0f 87 87 00 00 00    	ja     1798 <on_eval_click+0x378>
    1711:	25 ff 00 00 00       	and    $0xff,%eax
    1716:	8b 04 85 f4 8a 00 00 	mov    0x8af4(,%eax,4),%eax
    171d:	89 45 c0             	mov    %eax,-0x40(%ebp)
    1720:	83 f8 03             	cmp    $0x3,%eax
    1723:	0f 84 cf 01 00 00    	je     18f8 <on_eval_click+0x4d8>
    1729:	83 f8 04             	cmp    $0x4,%eax
    172c:	75 71                	jne    179f <on_eval_click+0x37f>
    172e:	8b 45 b8             	mov    -0x48(%ebp),%eax
    1731:	83 e8 03             	sub    $0x3,%eax
    1734:	83 f8 01             	cmp    $0x1,%eax
    1737:	76 66                	jbe    179f <on_eval_click+0x37f>
    1739:	c7 45 b8 04 00 00 00 	movl   $0x4,-0x48(%ebp)
    1740:	e9 ca 00 00 00       	jmp    180f <on_eval_click+0x3ef>
    1745:	8d 76 00             	lea    0x0(%esi),%esi
    1748:	c7 45 c4 01 00 00 00 	movl   $0x1,-0x3c(%ebp)
    174f:	c7 45 d4 03 00 00 00 	movl   $0x3,-0x2c(%ebp)
    1756:	c6 45 c0 00          	movb   $0x0,-0x40(%ebp)
    175a:	c7 45 b8 00 00 00 00 	movl   $0x0,-0x48(%ebp)
    1761:	8b 5d c4             	mov    -0x3c(%ebp),%ebx
    1764:	0f be 04 1f          	movsbl (%edi,%ebx,1),%eax
    1768:	8d 50 d0             	lea    -0x30(%eax),%edx
    176b:	80 fa 09             	cmp    $0x9,%dl
    176e:	0f 87 03 fd ff ff    	ja     1477 <on_eval_click+0x57>
    1774:	83 e8 30             	sub    $0x30,%eax
    1777:	43                   	inc    %ebx
    1778:	89 45 d8             	mov    %eax,-0x28(%ebp)
    177b:	89 5d c4             	mov    %ebx,-0x3c(%ebp)
    177e:	c1 f8 1f             	sar    $0x1f,%eax
    1781:	c7 45 d4 04 00 00 00 	movl   $0x4,-0x2c(%ebp)
    1788:	89 45 dc             	mov    %eax,-0x24(%ebp)
    178b:	89 d8                	mov    %ebx,%eax
    178d:	e9 4e fd ff ff       	jmp    14e0 <on_eval_click+0xc0>
    1792:	8d b6 00 00 00 00    	lea    0x0(%esi),%esi
    1798:	c7 45 c0 00 00 00 00 	movl   $0x0,-0x40(%ebp)
    179f:	83 ec 0c             	sub    $0xc,%esp
    17a2:	8d 7d d4             	lea    -0x2c(%ebp),%edi
    17a5:	8d 75 d8             	lea    -0x28(%ebp),%esi
    17a8:	8d 5d d0             	lea    -0x30(%ebp),%ebx
    17ab:	53                   	push   %ebx
    17ac:	89 f9                	mov    %edi,%ecx
    17ae:	89 f2                	mov    %esi,%edx
    17b0:	8d 45 e0             	lea    -0x20(%ebp),%eax
    17b3:	e8 48 fa ff ff       	call   1200 <evaluate>
    17b8:	83 c4 10             	add    $0x10,%esp
    17bb:	83 7d d4 02          	cmpl   $0x2,-0x2c(%ebp)
    17bf:	0f 84 c2 fc ff ff    	je     1487 <on_eval_click+0x67>
    17c5:	83 ec 0c             	sub    $0xc,%esp
    17c8:	8b 45 d8             	mov    -0x28(%ebp),%eax
    17cb:	8b 55 dc             	mov    -0x24(%ebp),%edx
    17ce:	89 45 b8             	mov    %eax,-0x48(%ebp)
    17d1:	6a 14                	push   $0x14
    17d3:	89 55 bc             	mov    %edx,-0x44(%ebp)
    17d6:	e8 25 76 00 00       	call   8e00 <malloc@plt>
    17db:	83 c4 10             	add    $0x10,%esp
    17de:	85 c0                	test   %eax,%eax
    17e0:	0f 84 f0 00 00 00    	je     18d6 <on_eval_click+0x4b6>
    17e6:	8b 55 e4             	mov    -0x1c(%ebp),%edx
    17e9:	8b 4d b8             	mov    -0x48(%ebp),%ecx
    17ec:	8b 5d bc             	mov    -0x44(%ebp),%ebx
    17ef:	8d 75 e0             	lea    -0x20(%ebp),%esi
    17f2:	c7 40 08 00 00 00 00 	movl   $0x0,0x8(%eax)
    17f9:	89 48 0c             	mov    %ecx,0xc(%eax)
    17fc:	89 58 10             	mov    %ebx,0x10(%eax)
    17ff:	89 30                	mov    %esi,(%eax)
    1801:	89 50 04             	mov    %edx,0x4(%eax)
    1804:	89 02                	mov    %eax,(%edx)
    1806:	89 45 e4             	mov    %eax,-0x1c(%ebp)
    1809:	8b 45 c0             	mov    -0x40(%ebp),%eax
    180c:	89 45 b8             	mov    %eax,-0x48(%ebp)
    180f:	83 ec 0c             	sub    $0xc,%esp
    1812:	6a 14                	push   $0x14
    1814:	e8 e7 75 00 00       	call   8e00 <malloc@plt>
    1819:	83 c4 10             	add    $0x10,%esp
    181c:	85 c0                	test   %eax,%eax
    181e:	0f 84 53 fc ff ff    	je     1477 <on_eval_click+0x57>
    1824:	8b 75 b8             	mov    -0x48(%ebp),%esi
    1827:	8b 55 e4             	mov    -0x1c(%ebp),%edx
    182a:	89 70 0c             	mov    %esi,0xc(%eax)
    182d:	8b 75 c4             	mov    -0x3c(%ebp),%esi
    1830:	8d 4d e0             	lea    -0x20(%ebp),%ecx
    1833:	46                   	inc    %esi
    1834:	c7 40 08 01 00 00 00 	movl   $0x1,0x8(%eax)
    183b:	89 08                	mov    %ecx,(%eax)
    183d:	89 50 04             	mov    %edx,0x4(%eax)
    1840:	89 75 c4             	mov    %esi,-0x3c(%ebp)
    1843:	89 02                	mov    %eax,(%edx)
    1845:	c6 45 c0 00          	movb   $0x0,-0x40(%ebp)
    1849:	89 45 e4             	mov    %eax,-0x1c(%ebp)
    184c:	c7 45 d4 03 00 00 00 	movl   $0x3,-0x2c(%ebp)
    1853:	8b 3d 14 5e 01 00    	mov    0x15e14,%edi
    1859:	e9 03 ff ff ff       	jmp    1761 <on_eval_click+0x341>
    185e:	66 90                	xchg   %ax,%ax
    1860:	c7 45 c4 01 00 00 00 	movl   $0x1,-0x3c(%ebp)
    1867:	c7 45 d4 03 00 00 00 	movl   $0x3,-0x2c(%ebp)
    186e:	c6 45 c0 01          	movb   $0x1,-0x40(%ebp)
    1872:	e9 e3 fe ff ff       	jmp    175a <on_eval_click+0x33a>
    1877:	90                   	nop
    1878:	a1 10 5e 01 00       	mov    0x15e10,%eax
    187d:	52                   	push   %edx
    187e:	52                   	push   %edx
    187f:	68 23 8a 00 00       	push   $0x8a23
    1884:	50                   	push   %eax
    1885:	ff 90 2c 01 00 00    	call   *0x12c(%eax)
    188b:	83 c4 10             	add    $0x10,%esp
    188e:	8d 65 f4             	lea    -0xc(%ebp),%esp
    1891:	5b                   	pop    %ebx
    1892:	5e                   	pop    %esi
    1893:	5f                   	pop    %edi
    1894:	5d                   	pop    %ebp
    1895:	c3                   	ret    
    1896:	66 90                	xchg   %ax,%ax
    1898:	a1 10 5e 01 00       	mov    0x15e10,%eax
    189d:	51                   	push   %ecx
    189e:	51                   	push   %ecx
    189f:	68 4b 8a 00 00       	push   $0x8a4b
    18a4:	50                   	push   %eax
    18a5:	ff 90 2c 01 00 00    	call   *0x12c(%eax)
    18ab:	83 c4 10             	add    $0x10,%esp
    18ae:	8d 65 f4             	lea    -0xc(%ebp),%esp
    18b1:	5b                   	pop    %ebx
    18b2:	5e                   	pop    %esi
    18b3:	5f                   	pop    %edi
    18b4:	5d                   	pop    %ebp
    18b5:	c3                   	ret    
    18b6:	66 90                	xchg   %ax,%ax
    18b8:	a1 10 5e 01 00       	mov    0x15e10,%eax
    18bd:	53                   	push   %ebx
    18be:	53                   	push   %ebx
    18bf:	68 3e 8a 00 00       	push   $0x8a3e
    18c4:	50                   	push   %eax
    18c5:	ff 90 2c 01 00 00    	call   *0x12c(%eax)
    18cb:	83 c4 10             	add    $0x10,%esp
    18ce:	8d 65 f4             	lea    -0xc(%ebp),%esp
    18d1:	5b                   	pop    %ebx
    18d2:	5e                   	pop    %esi
    18d3:	5f                   	pop    %edi
    18d4:	5d                   	pop    %ebp
    18d5:	c3                   	ret    
    18d6:	c7 45 d4 02 00 00 00 	movl   $0x2,-0x2c(%ebp)
    18dd:	e9 a5 fb ff ff       	jmp    1487 <on_eval_click+0x67>
    18e2:	50                   	push   %eax
    18e3:	6a 69                	push   $0x69
    18e5:	68 2a 8a 00 00       	push   $0x8a2a
    18ea:	68 32 8a 00 00       	push   $0x8a32
    18ef:	e8 5c 75 00 00       	call   8e50 <assert_abort@plt>
    18f4:	8d 74 26 00          	lea    0x0(%esi,%eiz,1),%esi
    18f8:	8b 45 b8             	mov    -0x48(%ebp),%eax
    18fb:	83 e8 03             	sub    $0x3,%eax
    18fe:	83 f8 01             	cmp    $0x1,%eax
    1901:	0f 86 98 fe ff ff    	jbe    179f <on_eval_click+0x37f>
    1907:	c7 45 b8 03 00 00 00 	movl   $0x3,-0x48(%ebp)
    190e:	e9 fc fe ff ff       	jmp    180f <on_eval_click+0x3ef>
    1913:	66 90                	xchg   %ax,%ax
    1915:	66 90                	xchg   %ax,%ax
    1917:	66 90                	xchg   %ax,%ax
    1919:	66 90                	xchg   %ax,%ax
    191b:	66 90                	xchg   %ax,%ax
    191d:	66 90                	xchg   %ax,%ax
    191f:	90                   	nop

00001920 <main>:
    1920:	8d 4c 24 04          	lea    0x4(%esp),%ecx
    1924:	83 e4 f0             	and    $0xfffffff0,%esp
    1927:	ff 71 fc             	pushl  -0x4(%ecx)
    192a:	55                   	push   %ebp
    192b:	89 e5                	mov    %esp,%ebp
    192d:	57                   	push   %edi
    192e:	56                   	push   %esi
    192f:	53                   	push   %ebx
    1930:	51                   	push   %ecx
    1931:	83 ec 48             	sub    $0x48,%esp
    1934:	8b 41 04             	mov    0x4(%ecx),%eax
    1937:	83 39 01             	cmpl   $0x1,(%ecx)
    193a:	0f 8e b8 06 00 00    	jle    1ff8 <main+0x6d8>
    1940:	68 6e 8a 00 00       	push   $0x8a6e
    1945:	6a 07                	push   $0x7
    1947:	6a 00                	push   $0x0
    1949:	8b 58 04             	mov    0x4(%eax),%ebx
    194c:	53                   	push   %ebx
    194d:	e8 be 35 00 00       	call   4f10 <window_open>
    1952:	83 c4 10             	add    $0x10,%esp
    1955:	89 c7                	mov    %eax,%edi
    1957:	85 c0                	test   %eax,%eax
    1959:	0f 84 fe 02 00 00    	je     1c5d <main+0x33d>
    195f:	83 ec 0c             	sub    $0xc,%esp
    1962:	50                   	push   %eax
    1963:	e8 58 38 00 00       	call   51c0 <window_root>
    1968:	c7 04 24 f0 f0 f0 ff 	movl   $0xfff0f0f0,(%esp)
    196f:	6a 05                	push   $0x5
    1971:	6a 04                	push   $0x4
    1973:	6a 00                	push   $0x0
    1975:	50                   	push   %eax
    1976:	e8 b5 1c 00 00       	call   3630 <create_grid>
    197b:	83 c4 18             	add    $0x18,%esp
    197e:	89 c6                	mov    %eax,%esi
    1980:	68 00 00 00 ff       	push   $0xff000000
    1985:	68 f0 f0 f0 ff       	push   $0xfff0f0f0
    198a:	6a 10                	push   $0x10
    198c:	68 23 8a 00 00       	push   $0x8a23
    1991:	6a 00                	push   $0x0
    1993:	6a 00                	push   $0x0
    1995:	e8 16 22 00 00       	call   3bb0 <create_label>
    199a:	83 c4 1c             	add    $0x1c,%esp
    199d:	a3 10 5e 01 00       	mov    %eax,0x15e10
    19a2:	68 00 00 00 ff       	push   $0xff000000
    19a7:	68 c8 c8 c8 c8       	push   $0xc8c8c8c8
    19ac:	68 00 00 00 ff       	push   $0xff000000
    19b1:	6a 10                	push   $0x10
    19b3:	68 92 8a 00 00       	push   $0x8a92
    19b8:	68 92 8a 00 00       	push   $0x8a92
    19bd:	6a 00                	push   $0x0
    19bf:	e8 3c 0c 00 00       	call   2600 <create_button>
    19c4:	83 c4 1c             	add    $0x1c,%esp
    19c7:	89 c3                	mov    %eax,%ebx
    19c9:	68 00 00 00 ff       	push   $0xff000000
    19ce:	68 c8 c8 c8 c8       	push   $0xc8c8c8c8
    19d3:	68 00 00 00 ff       	push   $0xff000000
    19d8:	6a 10                	push   $0x10
    19da:	68 94 8a 00 00       	push   $0x8a94
    19df:	68 94 8a 00 00       	push   $0x8a94
    19e4:	6a 00                	push   $0x0
    19e6:	e8 15 0c 00 00       	call   2600 <create_button>
    19eb:	83 c4 1c             	add    $0x1c,%esp
    19ee:	89 45 e4             	mov    %eax,-0x1c(%ebp)
    19f1:	68 00 00 00 ff       	push   $0xff000000
    19f6:	68 c8 c8 c8 c8       	push   $0xc8c8c8c8
    19fb:	68 00 00 00 ff       	push   $0xff000000
    1a00:	6a 10                	push   $0x10
    1a02:	68 96 8a 00 00       	push   $0x8a96
    1a07:	68 96 8a 00 00       	push   $0x8a96
    1a0c:	6a 00                	push   $0x0
    1a0e:	e8 ed 0b 00 00       	call   2600 <create_button>
    1a13:	83 c4 1c             	add    $0x1c,%esp
    1a16:	89 45 e0             	mov    %eax,-0x20(%ebp)
    1a19:	68 00 00 00 ff       	push   $0xff000000
    1a1e:	68 c8 c8 c8 c8       	push   $0xc8c8c8c8
    1a23:	68 00 00 00 ff       	push   $0xff000000
    1a28:	6a 10                	push   $0x10
    1a2a:	68 98 8a 00 00       	push   $0x8a98
    1a2f:	68 98 8a 00 00       	push   $0x8a98
    1a34:	6a 00                	push   $0x0
    1a36:	e8 c5 0b 00 00       	call   2600 <create_button>
    1a3b:	83 c4 1c             	add    $0x1c,%esp
    1a3e:	89 45 dc             	mov    %eax,-0x24(%ebp)
    1a41:	68 00 00 00 ff       	push   $0xff000000
    1a46:	68 c8 c8 c8 c8       	push   $0xc8c8c8c8
    1a4b:	68 00 00 00 ff       	push   $0xff000000
    1a50:	6a 10                	push   $0x10
    1a52:	68 9a 8a 00 00       	push   $0x8a9a
    1a57:	68 9a 8a 00 00       	push   $0x8a9a
    1a5c:	6a 00                	push   $0x0
    1a5e:	e8 9d 0b 00 00       	call   2600 <create_button>
    1a63:	83 c4 1c             	add    $0x1c,%esp
    1a66:	89 45 d8             	mov    %eax,-0x28(%ebp)
    1a69:	68 00 00 00 ff       	push   $0xff000000
    1a6e:	68 c8 c8 c8 c8       	push   $0xc8c8c8c8
    1a73:	68 00 00 00 ff       	push   $0xff000000
    1a78:	6a 10                	push   $0x10
    1a7a:	68 9c 8a 00 00       	push   $0x8a9c
    1a7f:	68 9c 8a 00 00       	push   $0x8a9c
    1a84:	6a 00                	push   $0x0
    1a86:	e8 75 0b 00 00       	call   2600 <create_button>
    1a8b:	83 c4 1c             	add    $0x1c,%esp
    1a8e:	89 45 d4             	mov    %eax,-0x2c(%ebp)
    1a91:	68 00 00 00 ff       	push   $0xff000000
    1a96:	68 c8 c8 c8 c8       	push   $0xc8c8c8c8
    1a9b:	68 00 00 00 ff       	push   $0xff000000
    1aa0:	6a 10                	push   $0x10
    1aa2:	68 9e 8a 00 00       	push   $0x8a9e
    1aa7:	68 9e 8a 00 00       	push   $0x8a9e
    1aac:	6a 00                	push   $0x0
    1aae:	e8 4d 0b 00 00       	call   2600 <create_button>
    1ab3:	83 c4 1c             	add    $0x1c,%esp
    1ab6:	89 45 d0             	mov    %eax,-0x30(%ebp)
    1ab9:	68 00 00 00 ff       	push   $0xff000000
    1abe:	68 c8 c8 c8 c8       	push   $0xc8c8c8c8
    1ac3:	68 00 00 00 ff       	push   $0xff000000
    1ac8:	6a 10                	push   $0x10
    1aca:	68 a0 8a 00 00       	push   $0x8aa0
    1acf:	68 a0 8a 00 00       	push   $0x8aa0
    1ad4:	6a 00                	push   $0x0
    1ad6:	e8 25 0b 00 00       	call   2600 <create_button>
    1adb:	83 c4 1c             	add    $0x1c,%esp
    1ade:	89 45 cc             	mov    %eax,-0x34(%ebp)
    1ae1:	68 00 00 00 ff       	push   $0xff000000
    1ae6:	68 c8 c8 c8 c8       	push   $0xc8c8c8c8
    1aeb:	68 00 00 00 ff       	push   $0xff000000
    1af0:	6a 10                	push   $0x10
    1af2:	68 a2 8a 00 00       	push   $0x8aa2
    1af7:	68 a2 8a 00 00       	push   $0x8aa2
    1afc:	6a 00                	push   $0x0
    1afe:	e8 fd 0a 00 00       	call   2600 <create_button>
    1b03:	83 c4 1c             	add    $0x1c,%esp
    1b06:	89 45 c8             	mov    %eax,-0x38(%ebp)
    1b09:	68 00 00 00 ff       	push   $0xff000000
    1b0e:	68 c8 c8 c8 c8       	push   $0xc8c8c8c8
    1b13:	68 00 00 00 ff       	push   $0xff000000
    1b18:	6a 10                	push   $0x10
    1b1a:	68 19 8b 00 00       	push   $0x8b19
    1b1f:	68 19 8b 00 00       	push   $0x8b19
    1b24:	6a 00                	push   $0x0
    1b26:	e8 d5 0a 00 00       	call   2600 <create_button>
    1b2b:	83 c4 1c             	add    $0x1c,%esp
    1b2e:	89 45 c4             	mov    %eax,-0x3c(%ebp)
    1b31:	68 00 00 00 ff       	push   $0xff000000
    1b36:	68 c8 c8 c8 c8       	push   $0xc8c8c8c8
    1b3b:	68 00 00 00 ff       	push   $0xff000000
    1b40:	6a 10                	push   $0x10
    1b42:	68 a4 8a 00 00       	push   $0x8aa4
    1b47:	68 a4 8a 00 00       	push   $0x8aa4
    1b4c:	6a 00                	push   $0x0
    1b4e:	e8 ad 0a 00 00       	call   2600 <create_button>
    1b53:	83 c4 1c             	add    $0x1c,%esp
    1b56:	89 45 c0             	mov    %eax,-0x40(%ebp)
    1b59:	68 00 00 00 ff       	push   $0xff000000
    1b5e:	68 c8 c8 c8 c8       	push   $0xc8c8c8c8
    1b63:	68 00 00 00 ff       	push   $0xff000000
    1b68:	6a 10                	push   $0x10
    1b6a:	68 a6 8a 00 00       	push   $0x8aa6
    1b6f:	68 a6 8a 00 00       	push   $0x8aa6
    1b74:	6a 00                	push   $0x0
    1b76:	e8 85 0a 00 00       	call   2600 <create_button>
    1b7b:	83 c4 1c             	add    $0x1c,%esp
    1b7e:	89 45 bc             	mov    %eax,-0x44(%ebp)
    1b81:	68 00 00 00 ff       	push   $0xff000000
    1b86:	68 c8 c8 c8 c8       	push   $0xc8c8c8c8
    1b8b:	68 00 00 00 ff       	push   $0xff000000
    1b90:	6a 10                	push   $0x10
    1b92:	68 a8 8a 00 00       	push   $0x8aa8
    1b97:	68 a8 8a 00 00       	push   $0x8aa8
    1b9c:	6a 00                	push   $0x0
    1b9e:	e8 5d 0a 00 00       	call   2600 <create_button>
    1ba3:	83 c4 1c             	add    $0x1c,%esp
    1ba6:	89 45 b8             	mov    %eax,-0x48(%ebp)
    1ba9:	68 00 00 00 ff       	push   $0xff000000
    1bae:	68 c8 c8 c8 c8       	push   $0xc8c8c8c8
    1bb3:	68 00 00 00 ff       	push   $0xff000000
    1bb8:	6a 10                	push   $0x10
    1bba:	68 aa 8a 00 00       	push   $0x8aaa
    1bbf:	68 aa 8a 00 00       	push   $0x8aaa
    1bc4:	6a 00                	push   $0x0
    1bc6:	e8 35 0a 00 00       	call   2600 <create_button>
    1bcb:	83 c4 1c             	add    $0x1c,%esp
    1bce:	89 45 b4             	mov    %eax,-0x4c(%ebp)
    1bd1:	68 00 00 00 ff       	push   $0xff000000
    1bd6:	68 c8 c8 c8 c8       	push   $0xc8c8c8c8
    1bdb:	68 00 00 00 ff       	push   $0xff000000
    1be0:	6a 10                	push   $0x10
    1be2:	68 ac 8a 00 00       	push   $0x8aac
    1be7:	6a 00                	push   $0x0
    1be9:	6a 00                	push   $0x0
    1beb:	e8 10 0a 00 00       	call   2600 <create_button>
    1bf0:	83 c4 1c             	add    $0x1c,%esp
    1bf3:	68 00 00 00 ff       	push   $0xff000000
    1bf8:	68 c8 c8 c8 c8       	push   $0xc8c8c8c8
    1bfd:	68 00 00 00 ff       	push   $0xff000000
    1c02:	6a 10                	push   $0x10
    1c04:	68 ae 8a 00 00       	push   $0x8aae
    1c09:	6a 00                	push   $0x0
    1c0b:	6a 00                	push   $0x0
    1c0d:	89 45 b0             	mov    %eax,-0x50(%ebp)
    1c10:	e8 eb 09 00 00       	call   2600 <create_button>
    1c15:	83 c4 20             	add    $0x20,%esp
    1c18:	85 f6                	test   %esi,%esi
    1c1a:	74 13                	je     1c2f <main+0x30f>
    1c1c:	83 3d 10 5e 01 00 00 	cmpl   $0x0,0x15e10
    1c23:	74 0a                	je     1c2f <main+0x30f>
    1c25:	85 db                	test   %ebx,%ebx
    1c27:	74 06                	je     1c2f <main+0x30f>
    1c29:	83 7d e4 00          	cmpl   $0x0,-0x1c(%ebp)
    1c2d:	75 49                	jne    1c78 <main+0x358>
    1c2f:	83 ec 0c             	sub    $0xc,%esp
    1c32:	57                   	push   %edi
    1c33:	e8 48 36 00 00       	call   5280 <window_close>
    1c38:	58                   	pop    %eax
    1c39:	5a                   	pop    %edx
    1c3a:	68 6e 8a 00 00       	push   $0x8a6e
    1c3f:	68 b0 8a 00 00       	push   $0x8ab0
    1c44:	e8 67 71 00 00       	call   8db0 <printf@plt>
    1c49:	83 c4 10             	add    $0x10,%esp
    1c4c:	b8 03 00 00 00       	mov    $0x3,%eax
    1c51:	8d 65 f0             	lea    -0x10(%ebp),%esp
    1c54:	59                   	pop    %ecx
    1c55:	5b                   	pop    %ebx
    1c56:	5e                   	pop    %esi
    1c57:	5f                   	pop    %edi
    1c58:	5d                   	pop    %ebp
    1c59:	8d 61 fc             	lea    -0x4(%ecx),%esp
    1c5c:	c3                   	ret    
    1c5d:	51                   	push   %ecx
    1c5e:	51                   	push   %ecx
    1c5f:	68 6e 8a 00 00       	push   $0x8a6e
    1c64:	68 74 8a 00 00       	push   $0x8a74
    1c69:	e8 42 71 00 00       	call   8db0 <printf@plt>
    1c6e:	83 c4 10             	add    $0x10,%esp
    1c71:	b8 02 00 00 00       	mov    $0x2,%eax
    1c76:	eb d9                	jmp    1c51 <main+0x331>
    1c78:	83 7d e0 00          	cmpl   $0x0,-0x20(%ebp)
    1c7c:	74 b1                	je     1c2f <main+0x30f>
    1c7e:	83 7d dc 00          	cmpl   $0x0,-0x24(%ebp)
    1c82:	74 ab                	je     1c2f <main+0x30f>
    1c84:	83 7d d8 00          	cmpl   $0x0,-0x28(%ebp)
    1c88:	74 a5                	je     1c2f <main+0x30f>
    1c8a:	83 7d d4 00          	cmpl   $0x0,-0x2c(%ebp)
    1c8e:	74 9f                	je     1c2f <main+0x30f>
    1c90:	83 7d d0 00          	cmpl   $0x0,-0x30(%ebp)
    1c94:	74 99                	je     1c2f <main+0x30f>
    1c96:	83 7d cc 00          	cmpl   $0x0,-0x34(%ebp)
    1c9a:	74 93                	je     1c2f <main+0x30f>
    1c9c:	83 7d c8 00          	cmpl   $0x0,-0x38(%ebp)
    1ca0:	74 8d                	je     1c2f <main+0x30f>
    1ca2:	83 7d c4 00          	cmpl   $0x0,-0x3c(%ebp)
    1ca6:	74 87                	je     1c2f <main+0x30f>
    1ca8:	83 7d c0 00          	cmpl   $0x0,-0x40(%ebp)
    1cac:	74 81                	je     1c2f <main+0x30f>
    1cae:	83 7d bc 00          	cmpl   $0x0,-0x44(%ebp)
    1cb2:	0f 84 77 ff ff ff    	je     1c2f <main+0x30f>
    1cb8:	83 7d b8 00          	cmpl   $0x0,-0x48(%ebp)
    1cbc:	0f 84 6d ff ff ff    	je     1c2f <main+0x30f>
    1cc2:	83 7d b4 00          	cmpl   $0x0,-0x4c(%ebp)
    1cc6:	0f 84 63 ff ff ff    	je     1c2f <main+0x30f>
    1ccc:	83 7d b0 00          	cmpl   $0x0,-0x50(%ebp)
    1cd0:	0f 84 59 ff ff ff    	je     1c2f <main+0x30f>
    1cd6:	85 c0                	test   %eax,%eax
    1cd8:	0f 84 51 ff ff ff    	je     1c2f <main+0x30f>
    1cde:	89 45 ac             	mov    %eax,-0x54(%ebp)
    1ce1:	8d 83 90 01 00 00    	lea    0x190(%ebx),%eax
    1ce7:	52                   	push   %edx
    1ce8:	68 70 11 00 00       	push   $0x1170
    1ced:	53                   	push   %ebx
    1cee:	50                   	push   %eax
    1cef:	e8 7c 0a 00 00       	call   2770 <sig_connect>
    1cf4:	83 c4 0c             	add    $0xc,%esp
    1cf7:	8b 45 e4             	mov    -0x1c(%ebp),%eax
    1cfa:	68 70 11 00 00       	push   $0x1170
    1cff:	50                   	push   %eax
    1d00:	05 90 01 00 00       	add    $0x190,%eax
    1d05:	50                   	push   %eax
    1d06:	e8 65 0a 00 00       	call   2770 <sig_connect>
    1d0b:	8b 55 e0             	mov    -0x20(%ebp),%edx
    1d0e:	83 c4 0c             	add    $0xc,%esp
    1d11:	8d 82 90 01 00 00    	lea    0x190(%edx),%eax
    1d17:	68 70 11 00 00       	push   $0x1170
    1d1c:	52                   	push   %edx
    1d1d:	50                   	push   %eax
    1d1e:	e8 4d 0a 00 00       	call   2770 <sig_connect>
    1d23:	8b 4d dc             	mov    -0x24(%ebp),%ecx
    1d26:	83 c4 0c             	add    $0xc,%esp
    1d29:	8d 81 90 01 00 00    	lea    0x190(%ecx),%eax
    1d2f:	68 70 11 00 00       	push   $0x1170
    1d34:	51                   	push   %ecx
    1d35:	50                   	push   %eax
    1d36:	e8 35 0a 00 00       	call   2770 <sig_connect>
    1d3b:	83 c4 0c             	add    $0xc,%esp
    1d3e:	8b 45 d8             	mov    -0x28(%ebp),%eax
    1d41:	68 70 11 00 00       	push   $0x1170
    1d46:	50                   	push   %eax
    1d47:	05 90 01 00 00       	add    $0x190,%eax
    1d4c:	50                   	push   %eax
    1d4d:	e8 1e 0a 00 00       	call   2770 <sig_connect>
    1d52:	8b 55 d4             	mov    -0x2c(%ebp),%edx
    1d55:	83 c4 0c             	add    $0xc,%esp
    1d58:	8d 82 90 01 00 00    	lea    0x190(%edx),%eax
    1d5e:	68 70 11 00 00       	push   $0x1170
    1d63:	52                   	push   %edx
    1d64:	50                   	push   %eax
    1d65:	e8 06 0a 00 00       	call   2770 <sig_connect>
    1d6a:	8b 4d d0             	mov    -0x30(%ebp),%ecx
    1d6d:	83 c4 0c             	add    $0xc,%esp
    1d70:	8d 81 90 01 00 00    	lea    0x190(%ecx),%eax
    1d76:	68 70 11 00 00       	push   $0x1170
    1d7b:	51                   	push   %ecx
    1d7c:	50                   	push   %eax
    1d7d:	e8 ee 09 00 00       	call   2770 <sig_connect>
    1d82:	83 c4 0c             	add    $0xc,%esp
    1d85:	8b 45 cc             	mov    -0x34(%ebp),%eax
    1d88:	68 70 11 00 00       	push   $0x1170
    1d8d:	50                   	push   %eax
    1d8e:	05 90 01 00 00       	add    $0x190,%eax
    1d93:	50                   	push   %eax
    1d94:	e8 d7 09 00 00       	call   2770 <sig_connect>
    1d99:	8b 55 c8             	mov    -0x38(%ebp),%edx
    1d9c:	83 c4 0c             	add    $0xc,%esp
    1d9f:	8d 82 90 01 00 00    	lea    0x190(%edx),%eax
    1da5:	68 70 11 00 00       	push   $0x1170
    1daa:	52                   	push   %edx
    1dab:	50                   	push   %eax
    1dac:	e8 bf 09 00 00       	call   2770 <sig_connect>
    1db1:	8b 4d c4             	mov    -0x3c(%ebp),%ecx
    1db4:	83 c4 0c             	add    $0xc,%esp
    1db7:	8d 81 90 01 00 00    	lea    0x190(%ecx),%eax
    1dbd:	68 70 11 00 00       	push   $0x1170
    1dc2:	51                   	push   %ecx
    1dc3:	50                   	push   %eax
    1dc4:	e8 a7 09 00 00       	call   2770 <sig_connect>
    1dc9:	83 c4 0c             	add    $0xc,%esp
    1dcc:	8b 45 c0             	mov    -0x40(%ebp),%eax
    1dcf:	68 70 11 00 00       	push   $0x1170
    1dd4:	50                   	push   %eax
    1dd5:	05 90 01 00 00       	add    $0x190,%eax
    1dda:	50                   	push   %eax
    1ddb:	e8 90 09 00 00       	call   2770 <sig_connect>
    1de0:	8b 55 bc             	mov    -0x44(%ebp),%edx
    1de3:	83 c4 0c             	add    $0xc,%esp
    1de6:	8d 82 90 01 00 00    	lea    0x190(%edx),%eax
    1dec:	68 70 11 00 00       	push   $0x1170
    1df1:	52                   	push   %edx
    1df2:	50                   	push   %eax
    1df3:	e8 78 09 00 00       	call   2770 <sig_connect>
    1df8:	8b 4d b4             	mov    -0x4c(%ebp),%ecx
    1dfb:	83 c4 0c             	add    $0xc,%esp
    1dfe:	8d 81 90 01 00 00    	lea    0x190(%ecx),%eax
    1e04:	68 70 11 00 00       	push   $0x1170
    1e09:	51                   	push   %ecx
    1e0a:	50                   	push   %eax
    1e0b:	e8 60 09 00 00       	call   2770 <sig_connect>
    1e10:	83 c4 0c             	add    $0xc,%esp
    1e13:	8b 45 b8             	mov    -0x48(%ebp),%eax
    1e16:	68 70 11 00 00       	push   $0x1170
    1e1b:	50                   	push   %eax
    1e1c:	05 90 01 00 00       	add    $0x190,%eax
    1e21:	50                   	push   %eax
    1e22:	e8 49 09 00 00       	call   2770 <sig_connect>
    1e27:	8b 55 b0             	mov    -0x50(%ebp),%edx
    1e2a:	83 c4 0c             	add    $0xc,%esp
    1e2d:	8d 82 90 01 00 00    	lea    0x190(%edx),%eax
    1e33:	68 20 14 00 00       	push   $0x1420
    1e38:	52                   	push   %edx
    1e39:	50                   	push   %eax
    1e3a:	e8 31 09 00 00       	call   2770 <sig_connect>
    1e3f:	8b 55 ac             	mov    -0x54(%ebp),%edx
    1e42:	83 c4 0c             	add    $0xc,%esp
    1e45:	8d 82 90 01 00 00    	lea    0x190(%edx),%eax
    1e4b:	68 30 11 00 00       	push   $0x1130
    1e50:	52                   	push   %edx
    1e51:	50                   	push   %eax
    1e52:	e8 19 09 00 00       	call   2770 <sig_connect>
    1e57:	59                   	pop    %ecx
    1e58:	58                   	pop    %eax
    1e59:	6a 01                	push   $0x1
    1e5b:	6a 04                	push   $0x4
    1e5d:	6a 00                	push   $0x0
    1e5f:	6a 00                	push   $0x0
    1e61:	ff 35 10 5e 01 00    	pushl  0x15e10
    1e67:	56                   	push   %esi
    1e68:	ff 56 6c             	call   *0x6c(%esi)
    1e6b:	83 c4 18             	add    $0x18,%esp
    1e6e:	6a 01                	push   $0x1
    1e70:	6a 01                	push   $0x1
    1e72:	6a 01                	push   $0x1
    1e74:	6a 00                	push   $0x0
    1e76:	53                   	push   %ebx
    1e77:	56                   	push   %esi
    1e78:	ff 56 6c             	call   *0x6c(%esi)
    1e7b:	83 c4 18             	add    $0x18,%esp
    1e7e:	6a 01                	push   $0x1
    1e80:	6a 01                	push   $0x1
    1e82:	6a 01                	push   $0x1
    1e84:	6a 01                	push   $0x1
    1e86:	ff 75 e4             	pushl  -0x1c(%ebp)
    1e89:	56                   	push   %esi
    1e8a:	ff 56 6c             	call   *0x6c(%esi)
    1e8d:	83 c4 18             	add    $0x18,%esp
    1e90:	6a 01                	push   $0x1
    1e92:	6a 01                	push   $0x1
    1e94:	6a 01                	push   $0x1
    1e96:	6a 02                	push   $0x2
    1e98:	ff 75 e0             	pushl  -0x20(%ebp)
    1e9b:	56                   	push   %esi
    1e9c:	ff 56 6c             	call   *0x6c(%esi)
    1e9f:	83 c4 18             	add    $0x18,%esp
    1ea2:	6a 01                	push   $0x1
    1ea4:	6a 01                	push   $0x1
    1ea6:	6a 01                	push   $0x1
    1ea8:	6a 03                	push   $0x3
    1eaa:	ff 75 c0             	pushl  -0x40(%ebp)
    1ead:	56                   	push   %esi
    1eae:	ff 56 6c             	call   *0x6c(%esi)
    1eb1:	83 c4 18             	add    $0x18,%esp
    1eb4:	6a 01                	push   $0x1
    1eb6:	6a 01                	push   $0x1
    1eb8:	6a 02                	push   $0x2
    1eba:	6a 00                	push   $0x0
    1ebc:	ff 75 dc             	pushl  -0x24(%ebp)
    1ebf:	56                   	push   %esi
    1ec0:	ff 56 6c             	call   *0x6c(%esi)
    1ec3:	83 c4 18             	add    $0x18,%esp
    1ec6:	6a 01                	push   $0x1
    1ec8:	6a 01                	push   $0x1
    1eca:	6a 02                	push   $0x2
    1ecc:	6a 01                	push   $0x1
    1ece:	ff 75 d8             	pushl  -0x28(%ebp)
    1ed1:	56                   	push   %esi
    1ed2:	ff 56 6c             	call   *0x6c(%esi)
    1ed5:	83 c4 18             	add    $0x18,%esp
    1ed8:	6a 01                	push   $0x1
    1eda:	6a 01                	push   $0x1
    1edc:	6a 02                	push   $0x2
    1ede:	6a 02                	push   $0x2
    1ee0:	ff 75 d4             	pushl  -0x2c(%ebp)
    1ee3:	56                   	push   %esi
    1ee4:	ff 56 6c             	call   *0x6c(%esi)
    1ee7:	83 c4 18             	add    $0x18,%esp
    1eea:	6a 01                	push   $0x1
    1eec:	6a 01                	push   $0x1
    1eee:	6a 02                	push   $0x2
    1ef0:	6a 03                	push   $0x3
    1ef2:	ff 75 bc             	pushl  -0x44(%ebp)
    1ef5:	56                   	push   %esi
    1ef6:	ff 56 6c             	call   *0x6c(%esi)
    1ef9:	83 c4 18             	add    $0x18,%esp
    1efc:	6a 01                	push   $0x1
    1efe:	6a 01                	push   $0x1
    1f00:	6a 03                	push   $0x3
    1f02:	6a 00                	push   $0x0
    1f04:	ff 75 d0             	pushl  -0x30(%ebp)
    1f07:	56                   	push   %esi
    1f08:	ff 56 6c             	call   *0x6c(%esi)
    1f0b:	83 c4 18             	add    $0x18,%esp
    1f0e:	6a 01                	push   $0x1
    1f10:	6a 01                	push   $0x1
    1f12:	6a 03                	push   $0x3
    1f14:	6a 01                	push   $0x1
    1f16:	ff 75 cc             	pushl  -0x34(%ebp)
    1f19:	56                   	push   %esi
    1f1a:	ff 56 6c             	call   *0x6c(%esi)
    1f1d:	83 c4 18             	add    $0x18,%esp
    1f20:	6a 01                	push   $0x1
    1f22:	6a 01                	push   $0x1
    1f24:	6a 03                	push   $0x3
    1f26:	6a 02                	push   $0x2
    1f28:	ff 75 c8             	pushl  -0x38(%ebp)
    1f2b:	56                   	push   %esi
    1f2c:	ff 56 6c             	call   *0x6c(%esi)
    1f2f:	83 c4 18             	add    $0x18,%esp
    1f32:	6a 01                	push   $0x1
    1f34:	6a 01                	push   $0x1
    1f36:	6a 03                	push   $0x3
    1f38:	6a 03                	push   $0x3
    1f3a:	ff 75 b8             	pushl  -0x48(%ebp)
    1f3d:	56                   	push   %esi
    1f3e:	ff 56 6c             	call   *0x6c(%esi)
    1f41:	83 c4 18             	add    $0x18,%esp
    1f44:	8b 55 ac             	mov    -0x54(%ebp),%edx
    1f47:	6a 01                	push   $0x1
    1f49:	6a 01                	push   $0x1
    1f4b:	6a 04                	push   $0x4
    1f4d:	6a 00                	push   $0x0
    1f4f:	52                   	push   %edx
    1f50:	56                   	push   %esi
    1f51:	ff 56 6c             	call   *0x6c(%esi)
    1f54:	83 c4 18             	add    $0x18,%esp
    1f57:	6a 01                	push   $0x1
    1f59:	6a 01                	push   $0x1
    1f5b:	6a 04                	push   $0x4
    1f5d:	6a 01                	push   $0x1
    1f5f:	ff 75 c4             	pushl  -0x3c(%ebp)
    1f62:	56                   	push   %esi
    1f63:	ff 56 6c             	call   *0x6c(%esi)
    1f66:	83 c4 18             	add    $0x18,%esp
    1f69:	6a 01                	push   $0x1
    1f6b:	6a 01                	push   $0x1
    1f6d:	6a 04                	push   $0x4
    1f6f:	6a 02                	push   $0x2
    1f71:	ff 75 b0             	pushl  -0x50(%ebp)
    1f74:	56                   	push   %esi
    1f75:	ff 56 6c             	call   *0x6c(%esi)
    1f78:	83 c4 18             	add    $0x18,%esp
    1f7b:	6a 01                	push   $0x1
    1f7d:	6a 01                	push   $0x1
    1f7f:	6a 04                	push   $0x4
    1f81:	6a 03                	push   $0x3
    1f83:	ff 75 b4             	pushl  -0x4c(%ebp)
    1f86:	56                   	push   %esi
    1f87:	ff 56 6c             	call   *0x6c(%esi)
    1f8a:	83 c4 18             	add    $0x18,%esp
    1f8d:	6a 00                	push   $0x0
    1f8f:	68 90 01 00 00       	push   $0x190
    1f94:	68 90 01 00 00       	push   $0x190
    1f99:	6a 00                	push   $0x0
    1f9b:	6a 00                	push   $0x0
    1f9d:	57                   	push   %edi
    1f9e:	e8 1d 31 00 00       	call   50c0 <window_resize>
    1fa3:	83 c4 14             	add    $0x14,%esp
    1fa6:	57                   	push   %edi
    1fa7:	e8 24 32 00 00       	call   51d0 <window_exec>
    1fac:	c7 04 24 00 00 00 00 	movl   $0x0,(%esp)
    1fb3:	e8 d8 6d 00 00       	call   8d90 <task_retval@plt>
    1fb8:	83 c8 ff             	or     $0xffffffff,%eax
    1fbb:	f0 0f c1 05 0c 5e 01 	lock xadd %eax,0x15e0c
    1fc2:	00 
    1fc3:	83 c4 10             	add    $0x10,%esp
    1fc6:	48                   	dec    %eax
    1fc7:	79 1b                	jns    1fe4 <main+0x6c4>
    1fc9:	50                   	push   %eax
    1fca:	6a 0b                	push   $0xb
    1fcc:	6a 00                	push   $0x0
    1fce:	6a 00                	push   $0x0
    1fd0:	6a 00                	push   $0x0
    1fd2:	6a 00                	push   $0x0
    1fd4:	6a 00                	push   $0x0
    1fd6:	68 0c 5e 01 00       	push   $0x15e0c
    1fdb:	ff 15 08 5e 01 00    	call   *0x15e08
    1fe1:	83 c4 20             	add    $0x20,%esp
    1fe4:	83 ec 0c             	sub    $0xc,%esp
    1fe7:	6a 03                	push   $0x3
    1fe9:	e8 a2 6f 00 00       	call   8f90 <fibril_switch@plt>
    1fee:	83 c4 10             	add    $0x10,%esp
    1ff1:	31 c0                	xor    %eax,%eax
    1ff3:	e9 59 fc ff ff       	jmp    1c51 <main+0x331>
    1ff8:	56                   	push   %esi
    1ff9:	56                   	push   %esi
    1ffa:	68 6e 8a 00 00       	push   $0x8a6e
    1fff:	68 cc 8a 00 00       	push   $0x8acc
    2004:	e8 a7 6d 00 00       	call   8db0 <printf@plt>
    2009:	83 c4 10             	add    $0x10,%esp
    200c:	b8 01 00 00 00       	mov    $0x1,%eax
    2011:	e9 3b fc ff ff       	jmp    1c51 <main+0x331>
    2016:	66 90                	xchg   %ax,%ax
    2018:	66 90                	xchg   %ax,%ax
    201a:	66 90                	xchg   %ax,%ax
    201c:	66 90                	xchg   %ax,%ax
    201e:	66 90                	xchg   %ax,%ax

00002020 <button_reconfigure>:
    2020:	55                   	push   %ebp
    2021:	89 e5                	mov    %esp,%ebp
    2023:	5d                   	pop    %ebp
    2024:	c3                   	ret    
    2025:	8d 74 26 00          	lea    0x0(%esi,%eiz,1),%esi
    2029:	8d bc 27 00 00 00 00 	lea    0x0(%edi,%eiz,1),%edi

00002030 <button_handle_position_event>:
    2030:	55                   	push   %ebp
    2031:	89 e5                	mov    %esp,%ebp
    2033:	8b 45 08             	mov    0x8(%ebp),%eax
    2036:	83 7d 14 01          	cmpl   $0x1,0x14(%ebp)
    203a:	8b 50 14             	mov    0x14(%eax),%edx
    203d:	89 82 90 00 00 00    	mov    %eax,0x90(%edx)
    2043:	74 03                	je     2048 <button_handle_position_event+0x18>
    2045:	5d                   	pop    %ebp
    2046:	c3                   	ret    
    2047:	90                   	nop
    2048:	83 7d 10 02          	cmpl   $0x2,0x10(%ebp)
    204c:	75 f7                	jne    2045 <button_handle_position_event+0x15>
    204e:	05 90 01 00 00       	add    $0x190,%eax
    2053:	c7 45 0c 00 00 00 00 	movl   $0x0,0xc(%ebp)
    205a:	89 45 08             	mov    %eax,0x8(%ebp)
    205d:	5d                   	pop    %ebp
    205e:	e9 1d 09 00 00       	jmp    2980 <sig_send>
    2063:	8d b6 00 00 00 00    	lea    0x0(%esi),%esi
    2069:	8d bc 27 00 00 00 00 	lea    0x0(%edi,%eiz,1),%edi

00002070 <button_handle_keyboard_event>:
    2070:	55                   	push   %ebp
    2071:	89 e5                	mov    %esp,%ebp
    2073:	8b 45 08             	mov    0x8(%ebp),%eax
    2076:	83 7d 18 2a          	cmpl   $0x2a,0x18(%ebp)
    207a:	74 04                	je     2080 <button_handle_keyboard_event+0x10>
    207c:	5d                   	pop    %ebp
    207d:	c3                   	ret    
    207e:	66 90                	xchg   %ax,%ax
    2080:	8b 55 14             	mov    0x14(%ebp),%edx
    2083:	85 d2                	test   %edx,%edx
    2085:	75 f5                	jne    207c <button_handle_keyboard_event+0xc>
    2087:	05 90 01 00 00       	add    $0x190,%eax
    208c:	c7 45 0c 00 00 00 00 	movl   $0x0,0xc(%ebp)
    2093:	89 45 08             	mov    %eax,0x8(%ebp)
    2096:	5d                   	pop    %ebp
    2097:	e9 e4 08 00 00       	jmp    2980 <sig_send>
    209c:	8d 74 26 00          	lea    0x0(%esi,%eiz,1),%esi

000020a0 <button_rearrange>:
    20a0:	55                   	push   %ebp
    20a1:	89 e5                	mov    %esp,%ebp
    20a3:	57                   	push   %edi
    20a4:	56                   	push   %esi
    20a5:	53                   	push   %ebx
    20a6:	81 ec d8 00 00 00    	sub    $0xd8,%esp
    20ac:	8b 7d 08             	mov    0x8(%ebp),%edi
    20af:	8b 4d 18             	mov    0x18(%ebp),%ecx
    20b2:	8b 5d 14             	mov    0x14(%ebp),%ebx
    20b5:	8b 45 0c             	mov    0xc(%ebp),%eax
    20b8:	8b 75 10             	mov    0x10(%ebp),%esi
    20bb:	51                   	push   %ecx
    20bc:	53                   	push   %ebx
    20bd:	56                   	push   %esi
    20be:	50                   	push   %eax
    20bf:	57                   	push   %edi
    20c0:	e8 eb 1c 00 00       	call   3db0 <widget_modify>
    20c5:	83 c4 14             	add    $0x14,%esp
    20c8:	8b 47 14             	mov    0x14(%edi),%eax
    20cb:	50                   	push   %eax
    20cc:	e8 5f 31 00 00       	call   5230 <window_claim>
    20d1:	83 c4 10             	add    $0x10,%esp
    20d4:	89 c3                	mov    %eax,%ebx
    20d6:	85 c0                	test   %eax,%eax
    20d8:	0f 84 7a 01 00 00    	je     2258 <button_rearrange+0x1b8>
    20de:	83 ec 0c             	sub    $0xc,%esp
    20e1:	8d 75 84             	lea    -0x7c(%ebp),%esi
    20e4:	56                   	push   %esi
    20e5:	e8 d6 4f 00 00       	call   70c0 <source_init>
    20ea:	58                   	pop    %eax
    20eb:	5a                   	pop    %edx
    20ec:	53                   	push   %ebx
    20ed:	8d 9d 4c ff ff ff    	lea    -0xb4(%ebp),%ebx
    20f3:	53                   	push   %ebx
    20f4:	e8 37 48 00 00       	call   6930 <drawctx_init>
    20f9:	59                   	pop    %ecx
    20fa:	58                   	pop    %eax
    20fb:	8d 47 5c             	lea    0x5c(%edi),%eax
    20fe:	50                   	push   %eax
    20ff:	53                   	push   %ebx
    2100:	e8 fb 49 00 00       	call   6b00 <drawctx_set_source>
    2105:	58                   	pop    %eax
    2106:	8b 47 28             	mov    0x28(%edi),%eax
    2109:	50                   	push   %eax
    210a:	8b 47 24             	mov    0x24(%edi),%eax
    210d:	50                   	push   %eax
    210e:	8b 47 20             	mov    0x20(%edi),%eax
    2111:	50                   	push   %eax
    2112:	8b 47 1c             	mov    0x1c(%edi),%eax
    2115:	50                   	push   %eax
    2116:	53                   	push   %ebx
    2117:	e8 04 4a 00 00       	call   6b20 <drawctx_transfer>
    211c:	83 c4 20             	add    $0x20,%esp
    211f:	83 7f 24 07          	cmpl   $0x7,0x24(%edi)
    2123:	76 0a                	jbe    212f <button_rearrange+0x8f>
    2125:	83 7f 28 07          	cmpl   $0x7,0x28(%edi)
    2129:	0f 87 b9 00 00 00    	ja     21e8 <button_rearrange+0x148>
    212f:	8d 85 48 ff ff ff    	lea    -0xb8(%ebp),%eax
    2135:	8b b7 88 01 00 00    	mov    0x188(%edi),%esi
    213b:	50                   	push   %eax
    213c:	8d 85 44 ff ff ff    	lea    -0xbc(%ebp),%eax
    2142:	50                   	push   %eax
    2143:	8b 87 8c 01 00 00    	mov    0x18c(%edi),%eax
    2149:	56                   	push   %esi
    214a:	50                   	push   %eax
    214b:	e8 40 4d 00 00       	call   6e90 <font_get_box>
    2150:	8b 77 24             	mov    0x24(%edi),%esi
    2153:	8b 8d 44 ff ff ff    	mov    -0xbc(%ebp),%ecx
    2159:	83 c4 10             	add    $0x10,%esp
    215c:	39 ce                	cmp    %ecx,%esi
    215e:	72 0d                	jb     216d <button_rearrange+0xcd>
    2160:	8b 57 28             	mov    0x28(%edi),%edx
    2163:	8b 85 48 ff ff ff    	mov    -0xb8(%ebp),%eax
    2169:	39 c2                	cmp    %eax,%edx
    216b:	73 1b                	jae    2188 <button_rearrange+0xe8>
    216d:	83 ec 0c             	sub    $0xc,%esp
    2170:	8b 47 14             	mov    0x14(%edi),%eax
    2173:	50                   	push   %eax
    2174:	e8 e7 30 00 00       	call   5260 <window_yield>
    2179:	83 c4 10             	add    $0x10,%esp
    217c:	8d 65 f4             	lea    -0xc(%ebp),%esp
    217f:	5b                   	pop    %ebx
    2180:	5e                   	pop    %esi
    2181:	5f                   	pop    %edi
    2182:	5d                   	pop    %ebp
    2183:	c3                   	ret    
    2184:	8d 74 26 00          	lea    0x0(%esi,%eiz,1),%esi
    2188:	29 c2                	sub    %eax,%edx
    218a:	29 ce                	sub    %ecx,%esi
    218c:	89 d0                	mov    %edx,%eax
    218e:	8b 57 20             	mov    0x20(%edi),%edx
    2191:	d1 e8                	shr    %eax
    2193:	8b 4f 1c             	mov    0x1c(%edi),%ecx
    2196:	d1 ee                	shr    %esi
    2198:	01 d0                	add    %edx,%eax
    219a:	89 85 34 ff ff ff    	mov    %eax,-0xcc(%ebp)
    21a0:	8d 87 24 01 00 00    	lea    0x124(%edi),%eax
    21a6:	01 ce                	add    %ecx,%esi
    21a8:	51                   	push   %ecx
    21a9:	51                   	push   %ecx
    21aa:	50                   	push   %eax
    21ab:	53                   	push   %ebx
    21ac:	e8 4f 49 00 00       	call   6b00 <drawctx_set_source>
    21b1:	8b 8f 8c 01 00 00    	mov    0x18c(%edi),%ecx
    21b7:	58                   	pop    %eax
    21b8:	5a                   	pop    %edx
    21b9:	51                   	push   %ecx
    21ba:	53                   	push   %ebx
    21bb:	e8 50 49 00 00       	call   6b10 <drawctx_set_font>
    21c0:	8b 87 88 01 00 00    	mov    0x188(%edi),%eax
    21c6:	83 c4 10             	add    $0x10,%esp
    21c9:	85 c0                	test   %eax,%eax
    21cb:	74 a0                	je     216d <button_rearrange+0xcd>
    21cd:	8b 95 34 ff ff ff    	mov    -0xcc(%ebp),%edx
    21d3:	52                   	push   %edx
    21d4:	56                   	push   %esi
    21d5:	50                   	push   %eax
    21d6:	53                   	push   %ebx
    21d7:	e8 b4 4b 00 00       	call   6d90 <drawctx_print>
    21dc:	83 c4 10             	add    $0x10,%esp
    21df:	eb 8c                	jmp    216d <button_rearrange+0xcd>
    21e1:	8d b4 26 00 00 00 00 	lea    0x0(%esi,%eiz,1),%esi
    21e8:	50                   	push   %eax
    21e9:	50                   	push   %eax
    21ea:	56                   	push   %esi
    21eb:	53                   	push   %ebx
    21ec:	e8 0f 49 00 00       	call   6b00 <drawctx_set_source>
    21f1:	68 55 55 55 ff       	push   $0xff555555
    21f6:	6a ff                	push   $0xffffffff
    21f8:	8b 47 28             	mov    0x28(%edi),%eax
    21fb:	83 e8 06             	sub    $0x6,%eax
    21fe:	50                   	push   %eax
    21ff:	8b 47 24             	mov    0x24(%edi),%eax
    2202:	83 e8 06             	sub    $0x6,%eax
    2205:	50                   	push   %eax
    2206:	8b 47 20             	mov    0x20(%edi),%eax
    2209:	83 c0 03             	add    $0x3,%eax
    220c:	50                   	push   %eax
    220d:	8b 47 1c             	mov    0x1c(%edi),%eax
    2210:	83 c0 03             	add    $0x3,%eax
    2213:	50                   	push   %eax
    2214:	56                   	push   %esi
    2215:	53                   	push   %ebx
    2216:	e8 25 34 00 00       	call   5640 <draw_bevel>
    221b:	83 c4 28             	add    $0x28,%esp
    221e:	8d 87 c0 00 00 00    	lea    0xc0(%edi),%eax
    2224:	50                   	push   %eax
    2225:	53                   	push   %ebx
    2226:	e8 d5 48 00 00       	call   6b00 <drawctx_set_source>
    222b:	8b 47 28             	mov    0x28(%edi),%eax
    222e:	83 e8 08             	sub    $0x8,%eax
    2231:	89 04 24             	mov    %eax,(%esp)
    2234:	8b 47 24             	mov    0x24(%edi),%eax
    2237:	83 e8 08             	sub    $0x8,%eax
    223a:	50                   	push   %eax
    223b:	8b 47 20             	mov    0x20(%edi),%eax
    223e:	83 c0 04             	add    $0x4,%eax
    2241:	50                   	push   %eax
    2242:	8b 47 1c             	mov    0x1c(%edi),%eax
    2245:	83 c0 04             	add    $0x4,%eax
    2248:	50                   	push   %eax
    2249:	53                   	push   %ebx
    224a:	e8 d1 48 00 00       	call   6b20 <drawctx_transfer>
    224f:	83 c4 20             	add    $0x20,%esp
    2252:	e9 d8 fe ff ff       	jmp    212f <button_rearrange+0x8f>
    2257:	90                   	nop
    2258:	83 ec 0c             	sub    $0xc,%esp
    225b:	8b 57 14             	mov    0x14(%edi),%edx
    225e:	52                   	push   %edx
    225f:	e8 fc 2f 00 00       	call   5260 <window_yield>
    2264:	83 c4 10             	add    $0x10,%esp
    2267:	e9 72 fe ff ff       	jmp    20de <button_rearrange+0x3e>
    226c:	8d 74 26 00          	lea    0x0(%esi,%eiz,1),%esi

00002270 <button_destroy>:
    2270:	55                   	push   %ebp
    2271:	89 e5                	mov    %esp,%ebp
    2273:	53                   	push   %ebx
    2274:	83 ec 10             	sub    $0x10,%esp
    2277:	8b 5d 08             	mov    0x8(%ebp),%ebx
    227a:	53                   	push   %ebx
    227b:	e8 60 1b 00 00       	call   3de0 <widget_deinit>
    2280:	8b 93 88 01 00 00    	mov    0x188(%ebx),%edx
    2286:	58                   	pop    %eax
    2287:	52                   	push   %edx
    2288:	e8 53 6d 00 00       	call   8fe0 <free@plt>
    228d:	8b 83 8c 01 00 00    	mov    0x18c(%ebx),%eax
    2293:	59                   	pop    %ecx
    2294:	50                   	push   %eax
    2295:	e8 56 4b 00 00       	call   6df0 <font_release>
    229a:	89 5d 08             	mov    %ebx,0x8(%ebp)
    229d:	83 c4 10             	add    $0x10,%esp
    22a0:	8b 5d fc             	mov    -0x4(%ebp),%ebx
    22a3:	c9                   	leave  
    22a4:	e9 37 6d 00 00       	jmp    8fe0 <free@plt>
    22a9:	8d b4 26 00 00 00 00 	lea    0x0(%esi,%eiz,1),%esi

000022b0 <button_repaint>:
    22b0:	55                   	push   %ebp
    22b1:	89 e5                	mov    %esp,%ebp
    22b3:	57                   	push   %edi
    22b4:	56                   	push   %esi
    22b5:	53                   	push   %ebx
    22b6:	81 ec d8 00 00 00    	sub    $0xd8,%esp
    22bc:	8b 7d 08             	mov    0x8(%ebp),%edi
    22bf:	8b 4f 14             	mov    0x14(%edi),%ecx
    22c2:	51                   	push   %ecx
    22c3:	e8 68 2f 00 00       	call   5230 <window_claim>
    22c8:	83 c4 10             	add    $0x10,%esp
    22cb:	89 c3                	mov    %eax,%ebx
    22cd:	85 c0                	test   %eax,%eax
    22cf:	0f 84 83 01 00 00    	je     2458 <button_repaint+0x1a8>
    22d5:	83 ec 0c             	sub    $0xc,%esp
    22d8:	8d 75 84             	lea    -0x7c(%ebp),%esi
    22db:	56                   	push   %esi
    22dc:	e8 df 4d 00 00       	call   70c0 <source_init>
    22e1:	58                   	pop    %eax
    22e2:	5a                   	pop    %edx
    22e3:	53                   	push   %ebx
    22e4:	8d 9d 4c ff ff ff    	lea    -0xb4(%ebp),%ebx
    22ea:	53                   	push   %ebx
    22eb:	e8 40 46 00 00       	call   6930 <drawctx_init>
    22f0:	59                   	pop    %ecx
    22f1:	58                   	pop    %eax
    22f2:	8d 47 5c             	lea    0x5c(%edi),%eax
    22f5:	50                   	push   %eax
    22f6:	53                   	push   %ebx
    22f7:	e8 04 48 00 00       	call   6b00 <drawctx_set_source>
    22fc:	58                   	pop    %eax
    22fd:	8b 47 28             	mov    0x28(%edi),%eax
    2300:	50                   	push   %eax
    2301:	8b 47 24             	mov    0x24(%edi),%eax
    2304:	50                   	push   %eax
    2305:	8b 47 20             	mov    0x20(%edi),%eax
    2308:	50                   	push   %eax
    2309:	8b 47 1c             	mov    0x1c(%edi),%eax
    230c:	50                   	push   %eax
    230d:	53                   	push   %ebx
    230e:	e8 0d 48 00 00       	call   6b20 <drawctx_transfer>
    2313:	83 c4 20             	add    $0x20,%esp
    2316:	83 7f 24 07          	cmpl   $0x7,0x24(%edi)
    231a:	76 0a                	jbe    2326 <button_repaint+0x76>
    231c:	83 7f 28 07          	cmpl   $0x7,0x28(%edi)
    2320:	0f 87 c2 00 00 00    	ja     23e8 <button_repaint+0x138>
    2326:	8d 85 48 ff ff ff    	lea    -0xb8(%ebp),%eax
    232c:	8b b7 88 01 00 00    	mov    0x188(%edi),%esi
    2332:	50                   	push   %eax
    2333:	8d 85 44 ff ff ff    	lea    -0xbc(%ebp),%eax
    2339:	50                   	push   %eax
    233a:	8b 87 8c 01 00 00    	mov    0x18c(%edi),%eax
    2340:	56                   	push   %esi
    2341:	50                   	push   %eax
    2342:	e8 49 4b 00 00       	call   6e90 <font_get_box>
    2347:	8b 77 24             	mov    0x24(%edi),%esi
    234a:	8b 8d 44 ff ff ff    	mov    -0xbc(%ebp),%ecx
    2350:	83 c4 10             	add    $0x10,%esp
    2353:	39 ce                	cmp    %ecx,%esi
    2355:	72 0d                	jb     2364 <button_repaint+0xb4>
    2357:	8b 57 28             	mov    0x28(%edi),%edx
    235a:	8b 85 48 ff ff ff    	mov    -0xb8(%ebp),%eax
    2360:	39 c2                	cmp    %eax,%edx
    2362:	73 24                	jae    2388 <button_repaint+0xd8>
    2364:	83 ec 0c             	sub    $0xc,%esp
    2367:	8b 47 14             	mov    0x14(%edi),%eax
    236a:	50                   	push   %eax
    236b:	e8 f0 2e 00 00       	call   5260 <window_yield>
    2370:	8b 4f 14             	mov    0x14(%edi),%ecx
    2373:	5a                   	pop    %edx
    2374:	51                   	push   %ecx
    2375:	e8 06 2e 00 00       	call   5180 <window_damage>
    237a:	83 c4 10             	add    $0x10,%esp
    237d:	8d 65 f4             	lea    -0xc(%ebp),%esp
    2380:	5b                   	pop    %ebx
    2381:	5e                   	pop    %esi
    2382:	5f                   	pop    %edi
    2383:	5d                   	pop    %ebp
    2384:	c3                   	ret    
    2385:	8d 76 00             	lea    0x0(%esi),%esi
    2388:	29 c2                	sub    %eax,%edx
    238a:	29 ce                	sub    %ecx,%esi
    238c:	89 d0                	mov    %edx,%eax
    238e:	8b 57 20             	mov    0x20(%edi),%edx
    2391:	d1 e8                	shr    %eax
    2393:	8b 4f 1c             	mov    0x1c(%edi),%ecx
    2396:	d1 ee                	shr    %esi
    2398:	01 d0                	add    %edx,%eax
    239a:	89 85 34 ff ff ff    	mov    %eax,-0xcc(%ebp)
    23a0:	8d 87 24 01 00 00    	lea    0x124(%edi),%eax
    23a6:	01 ce                	add    %ecx,%esi
    23a8:	51                   	push   %ecx
    23a9:	51                   	push   %ecx
    23aa:	50                   	push   %eax
    23ab:	53                   	push   %ebx
    23ac:	e8 4f 47 00 00       	call   6b00 <drawctx_set_source>
    23b1:	8b 8f 8c 01 00 00    	mov    0x18c(%edi),%ecx
    23b7:	58                   	pop    %eax
    23b8:	5a                   	pop    %edx
    23b9:	51                   	push   %ecx
    23ba:	53                   	push   %ebx
    23bb:	e8 50 47 00 00       	call   6b10 <drawctx_set_font>
    23c0:	8b 87 88 01 00 00    	mov    0x188(%edi),%eax
    23c6:	83 c4 10             	add    $0x10,%esp
    23c9:	85 c0                	test   %eax,%eax
    23cb:	74 97                	je     2364 <button_repaint+0xb4>
    23cd:	8b 95 34 ff ff ff    	mov    -0xcc(%ebp),%edx
    23d3:	52                   	push   %edx
    23d4:	56                   	push   %esi
    23d5:	50                   	push   %eax
    23d6:	53                   	push   %ebx
    23d7:	e8 b4 49 00 00       	call   6d90 <drawctx_print>
    23dc:	83 c4 10             	add    $0x10,%esp
    23df:	eb 83                	jmp    2364 <button_repaint+0xb4>
    23e1:	8d b4 26 00 00 00 00 	lea    0x0(%esi,%eiz,1),%esi
    23e8:	50                   	push   %eax
    23e9:	50                   	push   %eax
    23ea:	56                   	push   %esi
    23eb:	53                   	push   %ebx
    23ec:	e8 0f 47 00 00       	call   6b00 <drawctx_set_source>
    23f1:	68 55 55 55 ff       	push   $0xff555555
    23f6:	6a ff                	push   $0xffffffff
    23f8:	8b 47 28             	mov    0x28(%edi),%eax
    23fb:	83 e8 06             	sub    $0x6,%eax
    23fe:	50                   	push   %eax
    23ff:	8b 47 24             	mov    0x24(%edi),%eax
    2402:	83 e8 06             	sub    $0x6,%eax
    2405:	50                   	push   %eax
    2406:	8b 47 20             	mov    0x20(%edi),%eax
    2409:	83 c0 03             	add    $0x3,%eax
    240c:	50                   	push   %eax
    240d:	8b 47 1c             	mov    0x1c(%edi),%eax
    2410:	83 c0 03             	add    $0x3,%eax
    2413:	50                   	push   %eax
    2414:	56                   	push   %esi
    2415:	53                   	push   %ebx
    2416:	e8 25 32 00 00       	call   5640 <draw_bevel>
    241b:	83 c4 28             	add    $0x28,%esp
    241e:	8d 87 c0 00 00 00    	lea    0xc0(%edi),%eax
    2424:	50                   	push   %eax
    2425:	53                   	push   %ebx
    2426:	e8 d5 46 00 00       	call   6b00 <drawctx_set_source>
    242b:	8b 47 28             	mov    0x28(%edi),%eax
    242e:	83 e8 08             	sub    $0x8,%eax
    2431:	89 04 24             	mov    %eax,(%esp)
    2434:	8b 47 24             	mov    0x24(%edi),%eax
    2437:	83 e8 08             	sub    $0x8,%eax
    243a:	50                   	push   %eax
    243b:	8b 47 20             	mov    0x20(%edi),%eax
    243e:	83 c0 04             	add    $0x4,%eax
    2441:	50                   	push   %eax
    2442:	8b 47 1c             	mov    0x1c(%edi),%eax
    2445:	83 c0 04             	add    $0x4,%eax
    2448:	50                   	push   %eax
    2449:	53                   	push   %ebx
    244a:	e8 d1 46 00 00       	call   6b20 <drawctx_transfer>
    244f:	83 c4 20             	add    $0x20,%esp
    2452:	e9 cf fe ff ff       	jmp    2326 <button_repaint+0x76>
    2457:	90                   	nop
    2458:	83 ec 0c             	sub    $0xc,%esp
    245b:	8b 57 14             	mov    0x14(%edi),%edx
    245e:	52                   	push   %edx
    245f:	e8 fc 2d 00 00       	call   5260 <window_yield>
    2464:	83 c4 10             	add    $0x10,%esp
    2467:	e9 69 fe ff ff       	jmp    22d5 <button_repaint+0x25>
    246c:	8d 74 26 00          	lea    0x0(%esi,%eiz,1),%esi

00002470 <deinit_button>:
    2470:	55                   	push   %ebp
    2471:	89 e5                	mov    %esp,%ebp
    2473:	53                   	push   %ebx
    2474:	83 ec 10             	sub    $0x10,%esp
    2477:	8b 5d 08             	mov    0x8(%ebp),%ebx
    247a:	53                   	push   %ebx
    247b:	e8 60 19 00 00       	call   3de0 <widget_deinit>
    2480:	8b 93 88 01 00 00    	mov    0x188(%ebx),%edx
    2486:	58                   	pop    %eax
    2487:	52                   	push   %edx
    2488:	e8 53 6b 00 00       	call   8fe0 <free@plt>
    248d:	8b 83 8c 01 00 00    	mov    0x18c(%ebx),%eax
    2493:	83 c4 10             	add    $0x10,%esp
    2496:	8b 5d fc             	mov    -0x4(%ebp),%ebx
    2499:	89 45 08             	mov    %eax,0x8(%ebp)
    249c:	c9                   	leave  
    249d:	e9 4e 49 00 00       	jmp    6df0 <font_release>
    24a2:	8d b4 26 00 00 00 00 	lea    0x0(%esi,%eiz,1),%esi
    24a9:	8d bc 27 00 00 00 00 	lea    0x0(%edi,%eiz,1),%edi

000024b0 <init_button>:
    24b0:	55                   	push   %ebp
    24b1:	89 e5                	mov    %esp,%ebp
    24b3:	57                   	push   %edi
    24b4:	56                   	push   %esi
    24b5:	53                   	push   %ebx
    24b6:	83 ec 20             	sub    $0x20,%esp
    24b9:	8b 5d 08             	mov    0x8(%ebp),%ebx
    24bc:	8b 45 10             	mov    0x10(%ebp),%eax
    24bf:	50                   	push   %eax
    24c0:	8b 45 0c             	mov    0xc(%ebp),%eax
    24c3:	50                   	push   %eax
    24c4:	8d 7b 5c             	lea    0x5c(%ebx),%edi
    24c7:	53                   	push   %ebx
    24c8:	8b 75 18             	mov    0x18(%ebp),%esi
    24cb:	e8 40 18 00 00       	call   3d10 <widget_init>
    24d0:	c7 43 44 70 22 00 00 	movl   $0x2270,0x44(%ebx)
    24d7:	c7 43 48 20 20 00 00 	movl   $0x2020,0x48(%ebx)
    24de:	c7 43 4c a0 20 00 00 	movl   $0x20a0,0x4c(%ebx)
    24e5:	c7 43 50 b0 22 00 00 	movl   $0x22b0,0x50(%ebx)
    24ec:	c7 43 54 70 20 00 00 	movl   $0x2070,0x54(%ebx)
    24f3:	c7 43 58 30 20 00 00 	movl   $0x2030,0x58(%ebx)
    24fa:	89 3c 24             	mov    %edi,(%esp)
    24fd:	e8 be 4b 00 00       	call   70c0 <source_init>
    2502:	8b 4d 1c             	mov    0x1c(%ebp),%ecx
    2505:	58                   	pop    %eax
    2506:	5a                   	pop    %edx
    2507:	51                   	push   %ecx
    2508:	57                   	push   %edi
    2509:	8d bb c0 00 00 00    	lea    0xc0(%ebx),%edi
    250f:	e8 3c 4c 00 00       	call   7150 <source_set_color>
    2514:	89 3c 24             	mov    %edi,(%esp)
    2517:	e8 a4 4b 00 00       	call   70c0 <source_init>
    251c:	8b 4d 20             	mov    0x20(%ebp),%ecx
    251f:	58                   	pop    %eax
    2520:	5a                   	pop    %edx
    2521:	51                   	push   %ecx
    2522:	57                   	push   %edi
    2523:	8d bb 24 01 00 00    	lea    0x124(%ebx),%edi
    2529:	e8 22 4c 00 00       	call   7150 <source_set_color>
    252e:	89 3c 24             	mov    %edi,(%esp)
    2531:	e8 8a 4b 00 00       	call   70c0 <source_init>
    2536:	8b 4d 24             	mov    0x24(%ebp),%ecx
    2539:	58                   	pop    %eax
    253a:	5a                   	pop    %edx
    253b:	51                   	push   %ecx
    253c:	57                   	push   %edi
    253d:	e8 0e 4c 00 00       	call   7150 <source_set_color>
    2542:	8b 7d 14             	mov    0x14(%ebp),%edi
    2545:	83 c4 10             	add    $0x10,%esp
    2548:	85 ff                	test   %edi,%edi
    254a:	0f 84 a0 00 00 00    	je     25f0 <init_button+0x140>
    2550:	83 ec 0c             	sub    $0xc,%esp
    2553:	8b 45 14             	mov    0x14(%ebp),%eax
    2556:	50                   	push   %eax
    2557:	e8 24 69 00 00       	call   8e80 <str_dup@plt>
    255c:	83 c4 10             	add    $0x10,%esp
    255f:	89 83 88 01 00 00    	mov    %eax,0x188(%ebx)
    2565:	81 e6 ff ff 00 00    	and    $0xffff,%esi
    256b:	8d 83 8c 01 00 00    	lea    0x18c(%ebx),%eax
    2571:	57                   	push   %edi
    2572:	57                   	push   %edi
    2573:	56                   	push   %esi
    2574:	50                   	push   %eax
    2575:	e8 96 32 00 00       	call   5810 <embedded_font_create>
    257a:	83 c4 10             	add    $0x10,%esp
    257d:	85 c0                	test   %eax,%eax
    257f:	75 47                	jne    25c8 <init_button+0x118>
    2581:	8d 45 e4             	lea    -0x1c(%ebp),%eax
    2584:	8b 93 8c 01 00 00    	mov    0x18c(%ebx),%edx
    258a:	50                   	push   %eax
    258b:	8d 45 e0             	lea    -0x20(%ebp),%eax
    258e:	50                   	push   %eax
    258f:	8b 83 88 01 00 00    	mov    0x188(%ebx),%eax
    2595:	50                   	push   %eax
    2596:	52                   	push   %edx
    2597:	e8 f4 48 00 00       	call   6e90 <font_get_box>
    259c:	8b 55 e0             	mov    -0x20(%ebp),%edx
    259f:	8d 42 0a             	lea    0xa(%edx),%eax
    25a2:	83 c2 1e             	add    $0x1e,%edx
    25a5:	89 43 2c             	mov    %eax,0x2c(%ebx)
    25a8:	8b 45 e4             	mov    -0x1c(%ebp),%eax
    25ab:	83 c0 0a             	add    $0xa,%eax
    25ae:	89 53 34             	mov    %edx,0x34(%ebx)
    25b1:	89 43 30             	mov    %eax,0x30(%ebx)
    25b4:	89 43 38             	mov    %eax,0x38(%ebx)
    25b7:	83 c4 10             	add    $0x10,%esp
    25ba:	8d 65 f4             	lea    -0xc(%ebp),%esp
    25bd:	b0 01                	mov    $0x1,%al
    25bf:	5b                   	pop    %ebx
    25c0:	5e                   	pop    %esi
    25c1:	5f                   	pop    %edi
    25c2:	5d                   	pop    %ebp
    25c3:	c3                   	ret    
    25c4:	8d 74 26 00          	lea    0x0(%esi,%eiz,1),%esi
    25c8:	83 ec 0c             	sub    $0xc,%esp
    25cb:	8b 8b 88 01 00 00    	mov    0x188(%ebx),%ecx
    25d1:	51                   	push   %ecx
    25d2:	e8 09 6a 00 00       	call   8fe0 <free@plt>
    25d7:	c7 83 88 01 00 00 00 	movl   $0x0,0x188(%ebx)
    25de:	00 00 00 
    25e1:	83 c4 10             	add    $0x10,%esp
    25e4:	8d 65 f4             	lea    -0xc(%ebp),%esp
    25e7:	31 c0                	xor    %eax,%eax
    25e9:	5b                   	pop    %ebx
    25ea:	5e                   	pop    %esi
    25eb:	5f                   	pop    %edi
    25ec:	5d                   	pop    %ebp
    25ed:	c3                   	ret    
    25ee:	66 90                	xchg   %ax,%ax
    25f0:	c7 83 88 01 00 00 00 	movl   $0x0,0x188(%ebx)
    25f7:	00 00 00 
    25fa:	e9 66 ff ff ff       	jmp    2565 <init_button+0xb5>
    25ff:	90                   	nop

00002600 <create_button>:
    2600:	55                   	push   %ebp
    2601:	89 e5                	mov    %esp,%ebp
    2603:	57                   	push   %edi
    2604:	56                   	push   %esi
    2605:	53                   	push   %ebx
    2606:	83 ec 28             	sub    $0x28,%esp
    2609:	8b 75 14             	mov    0x14(%ebp),%esi
    260c:	68 94 01 00 00       	push   $0x194
    2611:	e8 ea 67 00 00       	call   8e00 <malloc@plt>
    2616:	83 c4 10             	add    $0x10,%esp
    2619:	89 c3                	mov    %eax,%ebx
    261b:	85 c0                	test   %eax,%eax
    261d:	0f 84 fc 00 00 00    	je     271f <create_button+0x11f>
    2623:	50                   	push   %eax
    2624:	8b 45 0c             	mov    0xc(%ebp),%eax
    2627:	50                   	push   %eax
    2628:	8b 45 08             	mov    0x8(%ebp),%eax
    262b:	50                   	push   %eax
    262c:	8d 7b 5c             	lea    0x5c(%ebx),%edi
    262f:	53                   	push   %ebx
    2630:	e8 db 16 00 00       	call   3d10 <widget_init>
    2635:	c7 43 44 70 22 00 00 	movl   $0x2270,0x44(%ebx)
    263c:	c7 43 48 20 20 00 00 	movl   $0x2020,0x48(%ebx)
    2643:	c7 43 4c a0 20 00 00 	movl   $0x20a0,0x4c(%ebx)
    264a:	c7 43 50 b0 22 00 00 	movl   $0x22b0,0x50(%ebx)
    2651:	c7 43 54 70 20 00 00 	movl   $0x2070,0x54(%ebx)
    2658:	c7 43 58 30 20 00 00 	movl   $0x2030,0x58(%ebx)
    265f:	89 3c 24             	mov    %edi,(%esp)
    2662:	e8 59 4a 00 00       	call   70c0 <source_init>
    2667:	8b 4d 18             	mov    0x18(%ebp),%ecx
    266a:	58                   	pop    %eax
    266b:	5a                   	pop    %edx
    266c:	51                   	push   %ecx
    266d:	57                   	push   %edi
    266e:	8d bb c0 00 00 00    	lea    0xc0(%ebx),%edi
    2674:	e8 d7 4a 00 00       	call   7150 <source_set_color>
    2679:	89 3c 24             	mov    %edi,(%esp)
    267c:	e8 3f 4a 00 00       	call   70c0 <source_init>
    2681:	8b 4d 1c             	mov    0x1c(%ebp),%ecx
    2684:	58                   	pop    %eax
    2685:	5a                   	pop    %edx
    2686:	51                   	push   %ecx
    2687:	57                   	push   %edi
    2688:	8d bb 24 01 00 00    	lea    0x124(%ebx),%edi
    268e:	e8 bd 4a 00 00       	call   7150 <source_set_color>
    2693:	89 3c 24             	mov    %edi,(%esp)
    2696:	e8 25 4a 00 00       	call   70c0 <source_init>
    269b:	8b 4d 20             	mov    0x20(%ebp),%ecx
    269e:	58                   	pop    %eax
    269f:	5a                   	pop    %edx
    26a0:	51                   	push   %ecx
    26a1:	57                   	push   %edi
    26a2:	e8 a9 4a 00 00       	call   7150 <source_set_color>
    26a7:	8b 7d 10             	mov    0x10(%ebp),%edi
    26aa:	81 e6 ff ff 00 00    	and    $0xffff,%esi
    26b0:	83 c4 10             	add    $0x10,%esp
    26b3:	85 ff                	test   %edi,%edi
    26b5:	0f 84 a5 00 00 00    	je     2760 <create_button+0x160>
    26bb:	83 ec 0c             	sub    $0xc,%esp
    26be:	8b 45 10             	mov    0x10(%ebp),%eax
    26c1:	50                   	push   %eax
    26c2:	e8 b9 67 00 00       	call   8e80 <str_dup@plt>
    26c7:	83 c4 10             	add    $0x10,%esp
    26ca:	89 83 88 01 00 00    	mov    %eax,0x188(%ebx)
    26d0:	8d 83 8c 01 00 00    	lea    0x18c(%ebx),%eax
    26d6:	57                   	push   %edi
    26d7:	57                   	push   %edi
    26d8:	56                   	push   %esi
    26d9:	50                   	push   %eax
    26da:	e8 31 31 00 00       	call   5810 <embedded_font_create>
    26df:	83 c4 10             	add    $0x10,%esp
    26e2:	85 c0                	test   %eax,%eax
    26e4:	75 4a                	jne    2730 <create_button+0x130>
    26e6:	8d 45 e4             	lea    -0x1c(%ebp),%eax
    26e9:	8b 93 8c 01 00 00    	mov    0x18c(%ebx),%edx
    26ef:	50                   	push   %eax
    26f0:	8d 45 e0             	lea    -0x20(%ebp),%eax
    26f3:	50                   	push   %eax
    26f4:	8b 83 88 01 00 00    	mov    0x188(%ebx),%eax
    26fa:	50                   	push   %eax
    26fb:	52                   	push   %edx
    26fc:	e8 8f 47 00 00       	call   6e90 <font_get_box>
    2701:	8b 55 e0             	mov    -0x20(%ebp),%edx
    2704:	8d 42 0a             	lea    0xa(%edx),%eax
    2707:	83 c2 1e             	add    $0x1e,%edx
    270a:	89 43 2c             	mov    %eax,0x2c(%ebx)
    270d:	8b 45 e4             	mov    -0x1c(%ebp),%eax
    2710:	83 c0 0a             	add    $0xa,%eax
    2713:	89 53 34             	mov    %edx,0x34(%ebx)
    2716:	89 43 30             	mov    %eax,0x30(%ebx)
    2719:	89 43 38             	mov    %eax,0x38(%ebx)
    271c:	83 c4 10             	add    $0x10,%esp
    271f:	8d 65 f4             	lea    -0xc(%ebp),%esp
    2722:	89 d8                	mov    %ebx,%eax
    2724:	5b                   	pop    %ebx
    2725:	5e                   	pop    %esi
    2726:	5f                   	pop    %edi
    2727:	5d                   	pop    %ebp
    2728:	c3                   	ret    
    2729:	8d b4 26 00 00 00 00 	lea    0x0(%esi,%eiz,1),%esi
    2730:	83 ec 0c             	sub    $0xc,%esp
    2733:	8b 8b 88 01 00 00    	mov    0x188(%ebx),%ecx
    2739:	51                   	push   %ecx
    273a:	e8 a1 68 00 00       	call   8fe0 <free@plt>
    273f:	c7 83 88 01 00 00 00 	movl   $0x0,0x188(%ebx)
    2746:	00 00 00 
    2749:	89 1c 24             	mov    %ebx,(%esp)
    274c:	e8 8f 68 00 00       	call   8fe0 <free@plt>
    2751:	83 c4 10             	add    $0x10,%esp
    2754:	8d 65 f4             	lea    -0xc(%ebp),%esp
    2757:	31 db                	xor    %ebx,%ebx
    2759:	89 d8                	mov    %ebx,%eax
    275b:	5b                   	pop    %ebx
    275c:	5e                   	pop    %esi
    275d:	5f                   	pop    %edi
    275e:	5d                   	pop    %ebp
    275f:	c3                   	ret    
    2760:	c7 83 88 01 00 00 00 	movl   $0x0,0x188(%ebx)
    2767:	00 00 00 
    276a:	e9 61 ff ff ff       	jmp    26d0 <create_button+0xd0>
    276f:	90                   	nop

00002770 <sig_connect>:
    2770:	55                   	push   %ebp
    2771:	89 e5                	mov    %esp,%ebp
    2773:	57                   	push   %edi
    2774:	56                   	push   %esi
    2775:	53                   	push   %ebx
    2776:	83 ec 28             	sub    $0x28,%esp
    2779:	8b 5d 08             	mov    0x8(%ebp),%ebx
    277c:	8b 75 0c             	mov    0xc(%ebp),%esi
    277f:	68 c8 a7 00 00       	push   $0xa7c8
    2784:	8b 7d 10             	mov    0x10(%ebp),%edi
    2787:	e8 a4 67 00 00       	call   8f30 <fibril_rwlock_write_lock@plt>
    278c:	a1 c4 a7 00 00       	mov    0xa7c4,%eax
    2791:	83 c4 10             	add    $0x10,%esp
    2794:	3d c0 a7 00 00       	cmp    $0xa7c0,%eax
    2799:	74 20                	je     27bb <sig_connect+0x4b>
    279b:	3b 58 08             	cmp    0x8(%eax),%ebx
    279e:	75 11                	jne    27b1 <sig_connect+0x41>
    27a0:	e9 9b 00 00 00       	jmp    2840 <sig_connect+0xd0>
    27a5:	8d 76 00             	lea    0x0(%esi),%esi
    27a8:	39 58 08             	cmp    %ebx,0x8(%eax)
    27ab:	0f 84 8f 00 00 00    	je     2840 <sig_connect+0xd0>
    27b1:	8b 40 04             	mov    0x4(%eax),%eax
    27b4:	3d c0 a7 00 00       	cmp    $0xa7c0,%eax
    27b9:	75 ed                	jne    27a8 <sig_connect+0x38>
    27bb:	83 ec 0c             	sub    $0xc,%esp
    27be:	6a 14                	push   $0x14
    27c0:	e8 3b 66 00 00       	call   8e00 <malloc@plt>
    27c5:	83 c4 10             	add    $0x10,%esp
    27c8:	89 45 e4             	mov    %eax,-0x1c(%ebp)
    27cb:	85 c0                	test   %eax,%eax
    27cd:	0f 84 a6 00 00 00    	je     2879 <sig_connect+0x109>
    27d3:	89 58 08             	mov    %ebx,0x8(%eax)
    27d6:	8d 58 0c             	lea    0xc(%eax),%ebx
    27d9:	89 c1                	mov    %eax,%ecx
    27db:	89 58 10             	mov    %ebx,0x10(%eax)
    27de:	c7 40 04 c0 a7 00 00 	movl   $0xa7c0,0x4(%eax)
    27e5:	89 58 0c             	mov    %ebx,0xc(%eax)
    27e8:	a1 c0 a7 00 00       	mov    0xa7c0,%eax
    27ed:	89 0d c0 a7 00 00    	mov    %ecx,0xa7c0
    27f3:	89 01                	mov    %eax,(%ecx)
    27f5:	89 48 04             	mov    %ecx,0x4(%eax)
    27f8:	89 c8                	mov    %ecx,%eax
    27fa:	8b 40 10             	mov    0x10(%eax),%eax
    27fd:	39 c3                	cmp    %eax,%ebx
    27ff:	75 5e                	jne    285f <sig_connect+0xef>
    2801:	8d b4 26 00 00 00 00 	lea    0x0(%esi,%eiz,1),%esi
    2808:	83 ec 0c             	sub    $0xc,%esp
    280b:	6a 10                	push   $0x10
    280d:	e8 ee 65 00 00       	call   8e00 <malloc@plt>
    2812:	83 c4 10             	add    $0x10,%esp
    2815:	85 c0                	test   %eax,%eax
    2817:	74 60                	je     2879 <sig_connect+0x109>
    2819:	8b 4d e4             	mov    -0x1c(%ebp),%ecx
    281c:	c7 00 00 00 00 00    	movl   $0x0,(%eax)
    2822:	89 70 08             	mov    %esi,0x8(%eax)
    2825:	89 78 0c             	mov    %edi,0xc(%eax)
    2828:	8b 51 0c             	mov    0xc(%ecx),%edx
    282b:	89 58 04             	mov    %ebx,0x4(%eax)
    282e:	89 10                	mov    %edx,(%eax)
    2830:	8b 51 0c             	mov    0xc(%ecx),%edx
    2833:	89 42 04             	mov    %eax,0x4(%edx)
    2836:	89 41 0c             	mov    %eax,0xc(%ecx)
    2839:	eb 3e                	jmp    2879 <sig_connect+0x109>
    283b:	90                   	nop
    283c:	8d 74 26 00          	lea    0x0(%esi,%eiz,1),%esi
    2840:	89 45 e4             	mov    %eax,-0x1c(%ebp)
    2843:	8d 58 0c             	lea    0xc(%eax),%ebx
    2846:	8b 45 e4             	mov    -0x1c(%ebp),%eax
    2849:	8b 40 10             	mov    0x10(%eax),%eax
    284c:	39 c3                	cmp    %eax,%ebx
    284e:	75 0f                	jne    285f <sig_connect+0xef>
    2850:	eb b6                	jmp    2808 <sig_connect+0x98>
    2852:	8d b6 00 00 00 00    	lea    0x0(%esi),%esi
    2858:	8b 40 04             	mov    0x4(%eax),%eax
    285b:	39 c3                	cmp    %eax,%ebx
    285d:	74 a9                	je     2808 <sig_connect+0x98>
    285f:	39 70 08             	cmp    %esi,0x8(%eax)
    2862:	75 f4                	jne    2858 <sig_connect+0xe8>
    2864:	39 78 0c             	cmp    %edi,0xc(%eax)
    2867:	75 ef                	jne    2858 <sig_connect+0xe8>
    2869:	83 ec 0c             	sub    $0xc,%esp
    286c:	68 c8 a7 00 00       	push   $0xa7c8
    2871:	e8 5a 66 00 00       	call   8ed0 <fibril_rwlock_write_unlock@plt>
    2876:	83 c4 10             	add    $0x10,%esp
    2879:	c7 45 08 c8 a7 00 00 	movl   $0xa7c8,0x8(%ebp)
    2880:	8d 65 f4             	lea    -0xc(%ebp),%esp
    2883:	5b                   	pop    %ebx
    2884:	5e                   	pop    %esi
    2885:	5f                   	pop    %edi
    2886:	5d                   	pop    %ebp
    2887:	e9 44 66 00 00       	jmp    8ed0 <fibril_rwlock_write_unlock@plt>
    288c:	8d 74 26 00          	lea    0x0(%esi,%eiz,1),%esi

00002890 <sig_disconnect>:
    2890:	55                   	push   %ebp
    2891:	89 e5                	mov    %esp,%ebp
    2893:	57                   	push   %edi
    2894:	56                   	push   %esi
    2895:	53                   	push   %ebx
    2896:	83 ec 28             	sub    $0x28,%esp
    2899:	8b 55 10             	mov    0x10(%ebp),%edx
    289c:	8b 75 08             	mov    0x8(%ebp),%esi
    289f:	68 c8 a7 00 00       	push   $0xa7c8
    28a4:	8b 7d 0c             	mov    0xc(%ebp),%edi
    28a7:	89 55 e4             	mov    %edx,-0x1c(%ebp)
    28aa:	e8 81 66 00 00       	call   8f30 <fibril_rwlock_write_lock@plt>
    28af:	8b 1d c4 a7 00 00    	mov    0xa7c4,%ebx
    28b5:	83 c4 10             	add    $0x10,%esp
    28b8:	81 fb c0 a7 00 00    	cmp    $0xa7c0,%ebx
    28be:	74 20                	je     28e0 <sig_disconnect+0x50>
    28c0:	3b 73 08             	cmp    0x8(%ebx),%esi
    28c3:	8b 55 e4             	mov    -0x1c(%ebp),%edx
    28c6:	75 0d                	jne    28d5 <sig_disconnect+0x45>
    28c8:	eb 2e                	jmp    28f8 <sig_disconnect+0x68>
    28ca:	8d b6 00 00 00 00    	lea    0x0(%esi),%esi
    28d0:	39 73 08             	cmp    %esi,0x8(%ebx)
    28d3:	74 23                	je     28f8 <sig_disconnect+0x68>
    28d5:	8b 5b 04             	mov    0x4(%ebx),%ebx
    28d8:	81 fb c0 a7 00 00    	cmp    $0xa7c0,%ebx
    28de:	75 f0                	jne    28d0 <sig_disconnect+0x40>
    28e0:	c7 45 08 c8 a7 00 00 	movl   $0xa7c8,0x8(%ebp)
    28e7:	8d 65 f4             	lea    -0xc(%ebp),%esp
    28ea:	5b                   	pop    %ebx
    28eb:	5e                   	pop    %esi
    28ec:	5f                   	pop    %edi
    28ed:	5d                   	pop    %ebp
    28ee:	e9 dd 65 00 00       	jmp    8ed0 <fibril_rwlock_write_unlock@plt>
    28f3:	90                   	nop
    28f4:	8d 74 26 00          	lea    0x0(%esi,%eiz,1),%esi
    28f8:	8b 43 10             	mov    0x10(%ebx),%eax
    28fb:	8d 73 0c             	lea    0xc(%ebx),%esi
    28fe:	39 f0                	cmp    %esi,%eax
    2900:	75 0d                	jne    290f <sig_disconnect+0x7f>
    2902:	eb dc                	jmp    28e0 <sig_disconnect+0x50>
    2904:	8d 74 26 00          	lea    0x0(%esi,%eiz,1),%esi
    2908:	8b 40 04             	mov    0x4(%eax),%eax
    290b:	39 f0                	cmp    %esi,%eax
    290d:	74 d1                	je     28e0 <sig_disconnect+0x50>
    290f:	39 78 08             	cmp    %edi,0x8(%eax)
    2912:	75 f4                	jne    2908 <sig_disconnect+0x78>
    2914:	39 50 0c             	cmp    %edx,0xc(%eax)
    2917:	75 ef                	jne    2908 <sig_disconnect+0x78>
    2919:	8b 10                	mov    (%eax),%edx
    291b:	85 d2                	test   %edx,%edx
    291d:	74 0e                	je     292d <sig_disconnect+0x9d>
    291f:	8b 48 04             	mov    0x4(%eax),%ecx
    2922:	85 c9                	test   %ecx,%ecx
    2924:	74 07                	je     292d <sig_disconnect+0x9d>
    2926:	89 11                	mov    %edx,(%ecx)
    2928:	8b 10                	mov    (%eax),%edx
    292a:	89 4a 04             	mov    %ecx,0x4(%edx)
    292d:	83 ec 0c             	sub    $0xc,%esp
    2930:	c7 00 00 00 00 00    	movl   $0x0,(%eax)
    2936:	c7 40 04 00 00 00 00 	movl   $0x0,0x4(%eax)
    293d:	50                   	push   %eax
    293e:	e8 9d 66 00 00       	call   8fe0 <free@plt>
    2943:	83 c4 10             	add    $0x10,%esp
    2946:	39 73 10             	cmp    %esi,0x10(%ebx)
    2949:	75 95                	jne    28e0 <sig_disconnect+0x50>
    294b:	8b 13                	mov    (%ebx),%edx
    294d:	85 d2                	test   %edx,%edx
    294f:	74 0e                	je     295f <sig_disconnect+0xcf>
    2951:	8b 43 04             	mov    0x4(%ebx),%eax
    2954:	85 c0                	test   %eax,%eax
    2956:	74 07                	je     295f <sig_disconnect+0xcf>
    2958:	89 10                	mov    %edx,(%eax)
    295a:	8b 13                	mov    (%ebx),%edx
    295c:	89 42 04             	mov    %eax,0x4(%edx)
    295f:	83 ec 0c             	sub    $0xc,%esp
    2962:	c7 03 00 00 00 00    	movl   $0x0,(%ebx)
    2968:	c7 43 04 00 00 00 00 	movl   $0x0,0x4(%ebx)
    296f:	53                   	push   %ebx
    2970:	e8 6b 66 00 00       	call   8fe0 <free@plt>
    2975:	83 c4 10             	add    $0x10,%esp
    2978:	e9 63 ff ff ff       	jmp    28e0 <sig_disconnect+0x50>
    297d:	8d 76 00             	lea    0x0(%esi),%esi

00002980 <sig_send>:
    2980:	55                   	push   %ebp
    2981:	89 e5                	mov    %esp,%ebp
    2983:	57                   	push   %edi
    2984:	56                   	push   %esi
    2985:	53                   	push   %ebx
    2986:	83 ec 18             	sub    $0x18,%esp
    2989:	8b 5d 08             	mov    0x8(%ebp),%ebx
    298c:	8b 75 0c             	mov    0xc(%ebp),%esi
    298f:	68 c8 a7 00 00       	push   $0xa7c8
    2994:	e8 27 66 00 00       	call   8fc0 <fibril_rwlock_read_lock@plt>
    2999:	a1 c4 a7 00 00       	mov    0xa7c4,%eax
    299e:	83 c4 10             	add    $0x10,%esp
    29a1:	3d c0 a7 00 00       	cmp    $0xa7c0,%eax
    29a6:	74 17                	je     29bf <sig_send+0x3f>
    29a8:	3b 58 08             	cmp    0x8(%eax),%ebx
    29ab:	75 08                	jne    29b5 <sig_send+0x35>
    29ad:	eb 29                	jmp    29d8 <sig_send+0x58>
    29af:	90                   	nop
    29b0:	39 58 08             	cmp    %ebx,0x8(%eax)
    29b3:	74 23                	je     29d8 <sig_send+0x58>
    29b5:	8b 40 04             	mov    0x4(%eax),%eax
    29b8:	3d c0 a7 00 00       	cmp    $0xa7c0,%eax
    29bd:	75 f1                	jne    29b0 <sig_send+0x30>
    29bf:	c7 45 08 c8 a7 00 00 	movl   $0xa7c8,0x8(%ebp)
    29c6:	8d 65 f4             	lea    -0xc(%ebp),%esp
    29c9:	5b                   	pop    %ebx
    29ca:	5e                   	pop    %esi
    29cb:	5f                   	pop    %edi
    29cc:	5d                   	pop    %ebp
    29cd:	e9 fe 63 00 00       	jmp    8dd0 <fibril_rwlock_read_unlock@plt>
    29d2:	8d b6 00 00 00 00    	lea    0x0(%esi),%esi
    29d8:	8b 78 10             	mov    0x10(%eax),%edi
    29db:	8d 58 0c             	lea    0xc(%eax),%ebx
    29de:	39 df                	cmp    %ebx,%edi
    29e0:	74 dd                	je     29bf <sig_send+0x3f>
    29e2:	8d b6 00 00 00 00    	lea    0x0(%esi),%esi
    29e8:	50                   	push   %eax
    29e9:	50                   	push   %eax
    29ea:	56                   	push   %esi
    29eb:	8b 57 08             	mov    0x8(%edi),%edx
    29ee:	52                   	push   %edx
    29ef:	ff 57 0c             	call   *0xc(%edi)
    29f2:	8b 7f 04             	mov    0x4(%edi),%edi
    29f5:	83 c4 10             	add    $0x10,%esp
    29f8:	39 df                	cmp    %ebx,%edi
    29fa:	75 ec                	jne    29e8 <sig_send+0x68>
    29fc:	eb c1                	jmp    29bf <sig_send+0x3f>
    29fe:	66 90                	xchg   %ax,%ax

00002a00 <sig_post>:
    2a00:	55                   	push   %ebp
    2a01:	89 e5                	mov    %esp,%ebp
    2a03:	57                   	push   %edi
    2a04:	56                   	push   %esi
    2a05:	53                   	push   %ebx
    2a06:	83 ec 28             	sub    $0x28,%esp
    2a09:	8b 45 0c             	mov    0xc(%ebp),%eax
    2a0c:	8b 75 08             	mov    0x8(%ebp),%esi
    2a0f:	68 c8 a7 00 00       	push   $0xa7c8
    2a14:	89 45 e0             	mov    %eax,-0x20(%ebp)
    2a17:	8b 7d 10             	mov    0x10(%ebp),%edi
    2a1a:	e8 a1 65 00 00       	call   8fc0 <fibril_rwlock_read_lock@plt>
    2a1f:	8b 1d c4 a7 00 00    	mov    0xa7c4,%ebx
    2a25:	83 c4 10             	add    $0x10,%esp
    2a28:	81 fb c0 a7 00 00    	cmp    $0xa7c0,%ebx
    2a2e:	74 18                	je     2a48 <sig_post+0x48>
    2a30:	3b 73 08             	cmp    0x8(%ebx),%esi
    2a33:	75 08                	jne    2a3d <sig_post+0x3d>
    2a35:	eb 29                	jmp    2a60 <sig_post+0x60>
    2a37:	90                   	nop
    2a38:	39 73 08             	cmp    %esi,0x8(%ebx)
    2a3b:	74 23                	je     2a60 <sig_post+0x60>
    2a3d:	8b 5b 04             	mov    0x4(%ebx),%ebx
    2a40:	81 fb c0 a7 00 00    	cmp    $0xa7c0,%ebx
    2a46:	75 f0                	jne    2a38 <sig_post+0x38>
    2a48:	c7 45 08 c8 a7 00 00 	movl   $0xa7c8,0x8(%ebp)
    2a4f:	8d 65 f4             	lea    -0xc(%ebp),%esp
    2a52:	5b                   	pop    %ebx
    2a53:	5e                   	pop    %esi
    2a54:	5f                   	pop    %edi
    2a55:	5d                   	pop    %ebp
    2a56:	e9 75 63 00 00       	jmp    8dd0 <fibril_rwlock_read_unlock@plt>
    2a5b:	90                   	nop
    2a5c:	8d 74 26 00          	lea    0x0(%esi,%eiz,1),%esi
    2a60:	8b 73 10             	mov    0x10(%ebx),%esi
    2a63:	83 c3 0c             	add    $0xc,%ebx
    2a66:	39 de                	cmp    %ebx,%esi
    2a68:	74 de                	je     2a48 <sig_post+0x48>
    2a6a:	8b 45 e0             	mov    -0x20(%ebp),%eax
    2a6d:	85 c0                	test   %eax,%eax
    2a6f:	0f 84 a3 00 00 00    	je     2b18 <sig_post+0x118>
    2a75:	89 5d e4             	mov    %ebx,-0x1c(%ebp)
    2a78:	eb 3d                	jmp    2ab7 <sig_post+0xb7>
    2a7a:	8d b6 00 00 00 00    	lea    0x0(%esi),%esi
    2a80:	8b 45 e0             	mov    -0x20(%ebp),%eax
    2a83:	51                   	push   %ecx
    2a84:	57                   	push   %edi
    2a85:	50                   	push   %eax
    2a86:	53                   	push   %ebx
    2a87:	e8 64 63 00 00       	call   8df0 <memcpy@plt>
    2a8c:	c7 04 24 24 00 00 00 	movl   $0x24,(%esp)
    2a93:	e8 68 63 00 00       	call   8e00 <malloc@plt>
    2a98:	83 c4 10             	add    $0x10,%esp
    2a9b:	85 c0                	test   %eax,%eax
    2a9d:	0f 85 cd 00 00 00    	jne    2b70 <sig_post+0x170>
    2aa3:	83 ec 0c             	sub    $0xc,%esp
    2aa6:	53                   	push   %ebx
    2aa7:	e8 34 65 00 00       	call   8fe0 <free@plt>
    2aac:	83 c4 10             	add    $0x10,%esp
    2aaf:	8b 76 04             	mov    0x4(%esi),%esi
    2ab2:	3b 75 e4             	cmp    -0x1c(%ebp),%esi
    2ab5:	74 91                	je     2a48 <sig_post+0x48>
    2ab7:	83 ec 0c             	sub    $0xc,%esp
    2aba:	57                   	push   %edi
    2abb:	e8 40 63 00 00       	call   8e00 <malloc@plt>
    2ac0:	83 c4 10             	add    $0x10,%esp
    2ac3:	89 c3                	mov    %eax,%ebx
    2ac5:	85 c0                	test   %eax,%eax
    2ac7:	75 b7                	jne    2a80 <sig_post+0x80>
    2ac9:	83 ec 0c             	sub    $0xc,%esp
    2acc:	6a 24                	push   $0x24
    2ace:	e8 2d 63 00 00       	call   8e00 <malloc@plt>
    2ad3:	83 c4 10             	add    $0x10,%esp
    2ad6:	31 d2                	xor    %edx,%edx
    2ad8:	85 c0                	test   %eax,%eax
    2ada:	74 d3                	je     2aaf <sig_post+0xaf>
    2adc:	8b 4e 08             	mov    0x8(%esi),%ecx
    2adf:	c7 00 00 00 00 00    	movl   $0x0,(%eax)
    2ae5:	89 48 0c             	mov    %ecx,0xc(%eax)
    2ae8:	c7 40 04 00 00 00 00 	movl   $0x0,0x4(%eax)
    2aef:	8b 5e 0c             	mov    0xc(%esi),%ebx
    2af2:	c7 40 08 02 00 00 00 	movl   $0x2,0x8(%eax)
    2af9:	89 50 14             	mov    %edx,0x14(%eax)
    2afc:	89 58 10             	mov    %ebx,0x10(%eax)
    2aff:	52                   	push   %edx
    2b00:	52                   	push   %edx
    2b01:	50                   	push   %eax
    2b02:	8b 41 14             	mov    0x14(%ecx),%eax
    2b05:	83 c0 10             	add    $0x10,%eax
    2b08:	50                   	push   %eax
    2b09:	e8 42 64 00 00       	call   8f50 <prodcons_produce@plt>
    2b0e:	83 c4 10             	add    $0x10,%esp
    2b11:	eb 9c                	jmp    2aaf <sig_post+0xaf>
    2b13:	90                   	nop
    2b14:	8d 74 26 00          	lea    0x0(%esi,%eiz,1),%esi
    2b18:	83 ec 0c             	sub    $0xc,%esp
    2b1b:	6a 24                	push   $0x24
    2b1d:	e8 de 62 00 00       	call   8e00 <malloc@plt>
    2b22:	83 c4 10             	add    $0x10,%esp
    2b25:	85 c0                	test   %eax,%eax
    2b27:	74 39                	je     2b62 <sig_post+0x162>
    2b29:	8b 56 08             	mov    0x8(%esi),%edx
    2b2c:	c7 00 00 00 00 00    	movl   $0x0,(%eax)
    2b32:	89 50 0c             	mov    %edx,0xc(%eax)
    2b35:	c7 40 04 00 00 00 00 	movl   $0x0,0x4(%eax)
    2b3c:	8b 4e 0c             	mov    0xc(%esi),%ecx
    2b3f:	c7 40 08 02 00 00 00 	movl   $0x2,0x8(%eax)
    2b46:	89 48 10             	mov    %ecx,0x10(%eax)
    2b49:	c7 40 14 00 00 00 00 	movl   $0x0,0x14(%eax)
    2b50:	51                   	push   %ecx
    2b51:	51                   	push   %ecx
    2b52:	50                   	push   %eax
    2b53:	8b 42 14             	mov    0x14(%edx),%eax
    2b56:	83 c0 10             	add    $0x10,%eax
    2b59:	50                   	push   %eax
    2b5a:	e8 f1 63 00 00       	call   8f50 <prodcons_produce@plt>
    2b5f:	83 c4 10             	add    $0x10,%esp
    2b62:	8b 76 04             	mov    0x4(%esi),%esi
    2b65:	39 de                	cmp    %ebx,%esi
    2b67:	75 af                	jne    2b18 <sig_post+0x118>
    2b69:	e9 da fe ff ff       	jmp    2a48 <sig_post+0x48>
    2b6e:	66 90                	xchg   %ax,%ax
    2b70:	89 da                	mov    %ebx,%edx
    2b72:	e9 65 ff ff ff       	jmp    2adc <sig_post+0xdc>
    2b77:	66 90                	xchg   %ax,%ax
    2b79:	66 90                	xchg   %ax,%ax
    2b7b:	66 90                	xchg   %ax,%ax
    2b7d:	66 90                	xchg   %ax,%ax
    2b7f:	90                   	nop

00002b80 <grid_reconfigure>:
    2b80:	55                   	push   %ebp
    2b81:	89 e5                	mov    %esp,%ebp
    2b83:	5d                   	pop    %ebp
    2b84:	c3                   	ret    
    2b85:	8d 74 26 00          	lea    0x0(%esi,%eiz,1),%esi
    2b89:	8d bc 27 00 00 00 00 	lea    0x0(%edi,%eiz,1),%edi

00002b90 <grid_handle_keyboard_event>:
    2b90:	55                   	push   %ebp
    2b91:	89 e5                	mov    %esp,%ebp
    2b93:	5d                   	pop    %ebp
    2b94:	c3                   	ret    
    2b95:	8d 74 26 00          	lea    0x0(%esi,%eiz,1),%esi
    2b99:	8d bc 27 00 00 00 00 	lea    0x0(%edi,%eiz,1),%edi

00002ba0 <grid_handle_position_event>:
    2ba0:	55                   	push   %ebp
    2ba1:	89 e5                	mov    %esp,%ebp
    2ba3:	57                   	push   %edi
    2ba4:	56                   	push   %esi
    2ba5:	53                   	push   %ebx
    2ba6:	83 ec 2c             	sub    $0x2c,%esp
    2ba9:	8b 45 08             	mov    0x8(%ebp),%eax
    2bac:	8b 75 1c             	mov    0x1c(%ebp),%esi
    2baf:	89 75 dc             	mov    %esi,-0x24(%ebp)
    2bb2:	8b 75 18             	mov    0x18(%ebp),%esi
    2bb5:	89 75 e0             	mov    %esi,-0x20(%ebp)
    2bb8:	8b 70 60             	mov    0x60(%eax),%esi
    2bbb:	89 45 d4             	mov    %eax,-0x2c(%ebp)
    2bbe:	89 75 d0             	mov    %esi,-0x30(%ebp)
    2bc1:	85 f6                	test   %esi,%esi
    2bc3:	74 7c                	je     2c41 <grid_handle_position_event+0xa1>
    2bc5:	89 f1                	mov    %esi,%ecx
    2bc7:	8b 70 64             	mov    0x64(%eax),%esi
    2bca:	c7 45 d8 00 00 00 00 	movl   $0x0,-0x28(%ebp)
    2bd1:	8d 04 49             	lea    (%ecx,%ecx,2),%eax
    2bd4:	c1 e0 02             	shl    $0x2,%eax
    2bd7:	89 45 e4             	mov    %eax,-0x1c(%ebp)
    2bda:	8d b6 00 00 00 00    	lea    0x0(%esi),%esi
    2be0:	85 f6                	test   %esi,%esi
    2be2:	74 4e                	je     2c32 <grid_handle_position_event+0x92>
    2be4:	8b 4d d4             	mov    -0x2c(%ebp),%ecx
    2be7:	8b 45 d8             	mov    -0x28(%ebp),%eax
    2bea:	8b 51 68             	mov    0x68(%ecx),%edx
    2bed:	8d 04 40             	lea    (%eax,%eax,2),%eax
    2bf0:	31 c9                	xor    %ecx,%ecx
    2bf2:	8d 04 82             	lea    (%edx,%eax,4),%eax
    2bf5:	8d 76 00             	lea    0x0(%esi),%esi
    2bf8:	85 c0                	test   %eax,%eax
    2bfa:	74 2c                	je     2c28 <grid_handle_position_event+0x88>
    2bfc:	8b 10                	mov    (%eax),%edx
    2bfe:	85 d2                	test   %edx,%edx
    2c00:	74 26                	je     2c28 <grid_handle_position_event+0x88>
    2c02:	8b 5a 1c             	mov    0x1c(%edx),%ebx
    2c05:	39 5d e0             	cmp    %ebx,-0x20(%ebp)
    2c08:	72 1e                	jb     2c28 <grid_handle_position_event+0x88>
    2c0a:	8b 7a 20             	mov    0x20(%edx),%edi
    2c0d:	39 7d dc             	cmp    %edi,-0x24(%ebp)
    2c10:	72 16                	jb     2c28 <grid_handle_position_event+0x88>
    2c12:	03 5a 24             	add    0x24(%edx),%ebx
    2c15:	39 5d e0             	cmp    %ebx,-0x20(%ebp)
    2c18:	73 0e                	jae    2c28 <grid_handle_position_event+0x88>
    2c1a:	8b 5a 28             	mov    0x28(%edx),%ebx
    2c1d:	01 df                	add    %ebx,%edi
    2c1f:	39 7d dc             	cmp    %edi,-0x24(%ebp)
    2c22:	72 25                	jb     2c49 <grid_handle_position_event+0xa9>
    2c24:	8d 74 26 00          	lea    0x0(%esi,%eiz,1),%esi
    2c28:	41                   	inc    %ecx
    2c29:	8b 55 e4             	mov    -0x1c(%ebp),%edx
    2c2c:	01 d0                	add    %edx,%eax
    2c2e:	39 f1                	cmp    %esi,%ecx
    2c30:	75 c6                	jne    2bf8 <grid_handle_position_event+0x58>
    2c32:	8b 45 d8             	mov    -0x28(%ebp),%eax
    2c35:	40                   	inc    %eax
    2c36:	89 45 d8             	mov    %eax,-0x28(%ebp)
    2c39:	8b 45 d8             	mov    -0x28(%ebp),%eax
    2c3c:	3b 45 d0             	cmp    -0x30(%ebp),%eax
    2c3f:	75 9f                	jne    2be0 <grid_handle_position_event+0x40>
    2c41:	83 c4 2c             	add    $0x2c,%esp
    2c44:	5b                   	pop    %ebx
    2c45:	5e                   	pop    %esi
    2c46:	5f                   	pop    %edi
    2c47:	5d                   	pop    %ebp
    2c48:	c3                   	ret    
    2c49:	89 55 08             	mov    %edx,0x8(%ebp)
    2c4c:	8b 42 58             	mov    0x58(%edx),%eax
    2c4f:	83 c4 2c             	add    $0x2c,%esp
    2c52:	5b                   	pop    %ebx
    2c53:	5e                   	pop    %esi
    2c54:	5f                   	pop    %edi
    2c55:	5d                   	pop    %ebp
    2c56:	ff e0                	jmp    *%eax
    2c58:	90                   	nop
    2c59:	8d b4 26 00 00 00 00 	lea    0x0(%esi,%eiz,1),%esi

00002c60 <grid_destroy>:
    2c60:	55                   	push   %ebp
    2c61:	89 e5                	mov    %esp,%ebp
    2c63:	53                   	push   %ebx
    2c64:	83 ec 10             	sub    $0x10,%esp
    2c67:	8b 5d 08             	mov    0x8(%ebp),%ebx
    2c6a:	53                   	push   %ebx
    2c6b:	e8 70 11 00 00       	call   3de0 <widget_deinit>
    2c70:	8b 53 68             	mov    0x68(%ebx),%edx
    2c73:	58                   	pop    %eax
    2c74:	52                   	push   %edx
    2c75:	e8 66 63 00 00       	call   8fe0 <free@plt>
    2c7a:	89 5d 08             	mov    %ebx,0x8(%ebp)
    2c7d:	83 c4 10             	add    $0x10,%esp
    2c80:	8b 5d fc             	mov    -0x4(%ebp),%ebx
    2c83:	c9                   	leave  
    2c84:	e9 57 63 00 00       	jmp    8fe0 <free@plt>
    2c89:	8d b4 26 00 00 00 00 	lea    0x0(%esi,%eiz,1),%esi

00002c90 <grid_add>:
    2c90:	55                   	push   %ebp
    2c91:	89 e5                	mov    %esp,%ebp
    2c93:	57                   	push   %edi
    2c94:	56                   	push   %esi
    2c95:	53                   	push   %ebx
    2c96:	83 ec 20             	sub    $0x20,%esp
    2c99:	c6 45 ee 00          	movb   $0x0,-0x12(%ebp)
    2c9d:	8b 4d 18             	mov    0x18(%ebp),%ecx
    2ca0:	8b 75 1c             	mov    0x1c(%ebp),%esi
    2ca3:	85 c9                	test   %ecx,%ecx
    2ca5:	8b 5d 08             	mov    0x8(%ebp),%ebx
    2ca8:	0f 94 c2             	sete   %dl
    2cab:	85 f6                	test   %esi,%esi
    2cad:	8b 7d 10             	mov    0x10(%ebp),%edi
    2cb0:	0f 94 c0             	sete   %al
    2cb3:	08 c2                	or     %al,%dl
    2cb5:	0f 85 48 01 00 00    	jne    2e03 <grid_add+0x173>
    2cbb:	8b 75 18             	mov    0x18(%ebp),%esi
    2cbe:	8b 43 60             	mov    0x60(%ebx),%eax
    2cc1:	01 fe                	add    %edi,%esi
    2cc3:	39 c6                	cmp    %eax,%esi
    2cc5:	0f 87 38 01 00 00    	ja     2e03 <grid_add+0x173>
    2ccb:	8b 55 14             	mov    0x14(%ebp),%edx
    2cce:	8b 4d 1c             	mov    0x1c(%ebp),%ecx
    2cd1:	01 d1                	add    %edx,%ecx
    2cd3:	8b 53 64             	mov    0x64(%ebx),%edx
    2cd6:	89 4d d8             	mov    %ecx,-0x28(%ebp)
    2cd9:	89 d1                	mov    %edx,%ecx
    2cdb:	39 c7                	cmp    %eax,%edi
    2cdd:	89 55 dc             	mov    %edx,-0x24(%ebp)
    2ce0:	89 45 e4             	mov    %eax,-0x1c(%ebp)
    2ce3:	0f 92 c2             	setb   %dl
    2ce6:	39 4d 14             	cmp    %ecx,0x14(%ebp)
    2ce9:	0f 92 c0             	setb   %al
    2cec:	21 c2                	and    %eax,%edx
    2cee:	39 4d d8             	cmp    %ecx,-0x28(%ebp)
    2cf1:	0f 96 c0             	setbe  %al
    2cf4:	20 c2                	and    %al,%dl
    2cf6:	88 55 ee             	mov    %dl,-0x12(%ebp)
    2cf9:	0f 84 04 01 00 00    	je     2e03 <grid_add+0x173>
    2cff:	8b 55 14             	mov    0x14(%ebp),%edx
    2d02:	8b 45 e4             	mov    -0x1c(%ebp),%eax
    2d05:	0f af c2             	imul   %edx,%eax
    2d08:	01 f8                	add    %edi,%eax
    2d0a:	8d 14 40             	lea    (%eax,%eax,2),%edx
    2d0d:	8b 43 68             	mov    0x68(%ebx),%eax
    2d10:	8d 0c 90             	lea    (%eax,%edx,4),%ecx
    2d13:	85 c9                	test   %ecx,%ecx
    2d15:	0f 84 09 01 00 00    	je     2e24 <grid_add+0x194>
    2d1b:	8b 01                	mov    (%ecx),%eax
    2d1d:	85 c0                	test   %eax,%eax
    2d1f:	0f 84 e9 00 00 00    	je     2e0e <grid_add+0x17e>
    2d25:	8b 45 0c             	mov    0xc(%ebp),%eax
    2d28:	8b 55 0c             	mov    0xc(%ebp),%edx
    2d2b:	89 58 08             	mov    %ebx,0x8(%eax)
    2d2e:	8d 43 0c             	lea    0xc(%ebx),%eax
    2d31:	89 42 04             	mov    %eax,0x4(%edx)
    2d34:	8b 43 0c             	mov    0xc(%ebx),%eax
    2d37:	89 02                	mov    %eax,(%edx)
    2d39:	8b 43 0c             	mov    0xc(%ebx),%eax
    2d3c:	89 50 04             	mov    %edx,0x4(%eax)
    2d3f:	8b 43 14             	mov    0x14(%ebx),%eax
    2d42:	89 53 0c             	mov    %edx,0xc(%ebx)
    2d45:	89 42 14             	mov    %eax,0x14(%edx)
    2d48:	8b 45 d8             	mov    -0x28(%ebp),%eax
    2d4b:	39 45 14             	cmp    %eax,0x14(%ebp)
    2d4e:	0f 83 af 00 00 00    	jae    2e03 <grid_add+0x173>
    2d54:	39 f7                	cmp    %esi,%edi
    2d56:	0f 83 a7 00 00 00    	jae    2e03 <grid_add+0x173>
    2d5c:	8b 45 e4             	mov    -0x1c(%ebp),%eax
    2d5f:	89 4d e0             	mov    %ecx,-0x20(%ebp)
    2d62:	8d 04 40             	lea    (%eax,%eax,2),%eax
    2d65:	c1 e0 02             	shl    $0x2,%eax
    2d68:	89 45 d4             	mov    %eax,-0x2c(%ebp)
    2d6b:	8b 45 14             	mov    0x14(%ebp),%eax
    2d6e:	89 45 e8             	mov    %eax,-0x18(%ebp)
    2d71:	8d b4 26 00 00 00 00 	lea    0x0(%esi,%eiz,1),%esi
    2d78:	39 45 14             	cmp    %eax,0x14(%ebp)
    2d7b:	8b 55 e0             	mov    -0x20(%ebp),%edx
    2d7e:	0f 94 c3             	sete   %bl
    2d81:	89 f8                	mov    %edi,%eax
    2d83:	89 75 f0             	mov    %esi,-0x10(%ebp)
    2d86:	88 5d ef             	mov    %bl,-0x11(%ebp)
    2d89:	eb 25                	jmp    2db0 <grid_add+0x120>
    2d8b:	90                   	nop
    2d8c:	8d 74 26 00          	lea    0x0(%esi,%eiz,1),%esi
    2d90:	80 7d ef 00          	cmpb   $0x0,-0x11(%ebp)
    2d94:	74 1e                	je     2db4 <grid_add+0x124>
    2d96:	8b 5d 0c             	mov    0xc(%ebp),%ebx
    2d99:	89 19                	mov    %ebx,(%ecx)
    2d9b:	8b 5d 18             	mov    0x18(%ebp),%ebx
    2d9e:	89 59 04             	mov    %ebx,0x4(%ecx)
    2da1:	8b 5d 1c             	mov    0x1c(%ebp),%ebx
    2da4:	89 59 08             	mov    %ebx,0x8(%ecx)
    2da7:	40                   	inc    %eax
    2da8:	83 c2 0c             	add    $0xc,%edx
    2dab:	39 45 f0             	cmp    %eax,-0x10(%ebp)
    2dae:	74 32                	je     2de2 <grid_add+0x152>
    2db0:	39 c7                	cmp    %eax,%edi
    2db2:	74 dc                	je     2d90 <grid_add+0x100>
    2db4:	39 45 e4             	cmp    %eax,-0x1c(%ebp)
    2db7:	76 ee                	jbe    2da7 <grid_add+0x117>
    2db9:	8b 75 e8             	mov    -0x18(%ebp),%esi
    2dbc:	39 75 dc             	cmp    %esi,-0x24(%ebp)
    2dbf:	76 e6                	jbe    2da7 <grid_add+0x117>
    2dc1:	85 d2                	test   %edx,%edx
    2dc3:	74 e2                	je     2da7 <grid_add+0x117>
    2dc5:	40                   	inc    %eax
    2dc6:	c7 02 00 00 00 00    	movl   $0x0,(%edx)
    2dcc:	c7 42 04 01 00 00 00 	movl   $0x1,0x4(%edx)
    2dd3:	c7 42 08 01 00 00 00 	movl   $0x1,0x8(%edx)
    2dda:	83 c2 0c             	add    $0xc,%edx
    2ddd:	39 45 f0             	cmp    %eax,-0x10(%ebp)
    2de0:	75 ce                	jne    2db0 <grid_add+0x120>
    2de2:	8b 45 e8             	mov    -0x18(%ebp),%eax
    2de5:	8b 55 e0             	mov    -0x20(%ebp),%edx
    2de8:	40                   	inc    %eax
    2de9:	8b 5d d4             	mov    -0x2c(%ebp),%ebx
    2dec:	89 45 e8             	mov    %eax,-0x18(%ebp)
    2def:	01 da                	add    %ebx,%edx
    2df1:	8b 45 e8             	mov    -0x18(%ebp),%eax
    2df4:	8b 75 f0             	mov    -0x10(%ebp),%esi
    2df7:	89 55 e0             	mov    %edx,-0x20(%ebp)
    2dfa:	39 45 d8             	cmp    %eax,-0x28(%ebp)
    2dfd:	0f 85 75 ff ff ff    	jne    2d78 <grid_add+0xe8>
    2e03:	8a 45 ee             	mov    -0x12(%ebp),%al
    2e06:	83 c4 20             	add    $0x20,%esp
    2e09:	5b                   	pop    %ebx
    2e0a:	5e                   	pop    %esi
    2e0b:	5f                   	pop    %edi
    2e0c:	5d                   	pop    %ebp
    2e0d:	c3                   	ret    
    2e0e:	8b 41 04             	mov    0x4(%ecx),%eax
    2e11:	85 c0                	test   %eax,%eax
    2e13:	0f 84 0c ff ff ff    	je     2d25 <grid_add+0x95>
    2e19:	8b 41 08             	mov    0x8(%ecx),%eax
    2e1c:	85 c0                	test   %eax,%eax
    2e1e:	0f 84 01 ff ff ff    	je     2d25 <grid_add+0x95>
    2e24:	c6 45 ee 00          	movb   $0x0,-0x12(%ebp)
    2e28:	eb d9                	jmp    2e03 <grid_add+0x173>
    2e2a:	8d b6 00 00 00 00    	lea    0x0(%esi),%esi

00002e30 <grid_repaint>:
    2e30:	55                   	push   %ebp
    2e31:	89 e5                	mov    %esp,%ebp
    2e33:	57                   	push   %edi
    2e34:	56                   	push   %esi
    2e35:	53                   	push   %ebx
    2e36:	83 ec 28             	sub    $0x28,%esp
    2e39:	8b 75 08             	mov    0x8(%ebp),%esi
    2e3c:	8b 46 14             	mov    0x14(%esi),%eax
    2e3f:	50                   	push   %eax
    2e40:	e8 eb 23 00 00       	call   5230 <window_claim>
    2e45:	83 c4 10             	add    $0x10,%esp
    2e48:	89 45 e4             	mov    %eax,-0x1c(%ebp)
    2e4b:	85 c0                	test   %eax,%eax
    2e4d:	74 50                	je     2e9f <grid_repaint+0x6f>
    2e4f:	8b 7e 20             	mov    0x20(%esi),%edi
    2e52:	8b 4e 28             	mov    0x28(%esi),%ecx
    2e55:	01 f9                	add    %edi,%ecx
    2e57:	39 cf                	cmp    %ecx,%edi
    2e59:	73 44                	jae    2e9f <grid_repaint+0x6f>
    2e5b:	8b 5e 1c             	mov    0x1c(%esi),%ebx
    2e5e:	8b 46 24             	mov    0x24(%esi),%eax
    2e61:	8d b4 26 00 00 00 00 	lea    0x0(%esi,%eiz,1),%esi
    2e68:	8d 14 03             	lea    (%ebx,%eax,1),%edx
    2e6b:	39 da                	cmp    %ebx,%edx
    2e6d:	76 2b                	jbe    2e9a <grid_repaint+0x6a>
    2e6f:	90                   	nop
    2e70:	8b 4e 5c             	mov    0x5c(%esi),%ecx
    2e73:	8b 45 e4             	mov    -0x1c(%ebp),%eax
    2e76:	51                   	push   %ecx
    2e77:	57                   	push   %edi
    2e78:	53                   	push   %ebx
    2e79:	50                   	push   %eax
    2e7a:	e8 71 48 00 00       	call   76f0 <surface_put_pixel>
    2e7f:	8b 56 1c             	mov    0x1c(%esi),%edx
    2e82:	8b 46 24             	mov    0x24(%esi),%eax
    2e85:	43                   	inc    %ebx
    2e86:	83 c4 10             	add    $0x10,%esp
    2e89:	8d 0c 02             	lea    (%edx,%eax,1),%ecx
    2e8c:	39 cb                	cmp    %ecx,%ebx
    2e8e:	72 e0                	jb     2e70 <grid_repaint+0x40>
    2e90:	8b 4e 28             	mov    0x28(%esi),%ecx
    2e93:	89 d3                	mov    %edx,%ebx
    2e95:	8b 56 20             	mov    0x20(%esi),%edx
    2e98:	01 d1                	add    %edx,%ecx
    2e9a:	47                   	inc    %edi
    2e9b:	39 cf                	cmp    %ecx,%edi
    2e9d:	72 c9                	jb     2e68 <grid_repaint+0x38>
    2e9f:	83 ec 0c             	sub    $0xc,%esp
    2ea2:	8b 46 14             	mov    0x14(%esi),%eax
    2ea5:	8d 7e 0c             	lea    0xc(%esi),%edi
    2ea8:	50                   	push   %eax
    2ea9:	e8 b2 23 00 00       	call   5260 <window_yield>
    2eae:	8b 5e 10             	mov    0x10(%esi),%ebx
    2eb1:	83 c4 10             	add    $0x10,%esp
    2eb4:	39 fb                	cmp    %edi,%ebx
    2eb6:	74 11                	je     2ec9 <grid_repaint+0x99>
    2eb8:	83 ec 0c             	sub    $0xc,%esp
    2ebb:	53                   	push   %ebx
    2ebc:	ff 53 50             	call   *0x50(%ebx)
    2ebf:	8b 5b 04             	mov    0x4(%ebx),%ebx
    2ec2:	83 c4 10             	add    $0x10,%esp
    2ec5:	39 fb                	cmp    %edi,%ebx
    2ec7:	75 ef                	jne    2eb8 <grid_repaint+0x88>
    2ec9:	8b 46 14             	mov    0x14(%esi),%eax
    2ecc:	89 45 08             	mov    %eax,0x8(%ebp)
    2ecf:	8d 65 f4             	lea    -0xc(%ebp),%esp
    2ed2:	5b                   	pop    %ebx
    2ed3:	5e                   	pop    %esi
    2ed4:	5f                   	pop    %edi
    2ed5:	5d                   	pop    %ebp
    2ed6:	e9 a5 22 00 00       	jmp    5180 <window_damage>
    2edb:	90                   	nop
    2edc:	8d 74 26 00          	lea    0x0(%esi,%eiz,1),%esi

00002ee0 <grid_rearrange>:
    2ee0:	55                   	push   %ebp
    2ee1:	89 e5                	mov    %esp,%ebp
    2ee3:	57                   	push   %edi
    2ee4:	56                   	push   %esi
    2ee5:	53                   	push   %ebx
    2ee6:	83 ec 68             	sub    $0x68,%esp
    2ee9:	8b 45 08             	mov    0x8(%ebp),%eax
    2eec:	8b 7d 0c             	mov    0xc(%ebp),%edi
    2eef:	8b 4d 18             	mov    0x18(%ebp),%ecx
    2ef2:	8b 75 10             	mov    0x10(%ebp),%esi
    2ef5:	8b 5d 14             	mov    0x14(%ebp),%ebx
    2ef8:	51                   	push   %ecx
    2ef9:	89 7d a0             	mov    %edi,-0x60(%ebp)
    2efc:	53                   	push   %ebx
    2efd:	56                   	push   %esi
    2efe:	57                   	push   %edi
    2eff:	89 c7                	mov    %eax,%edi
    2f01:	50                   	push   %eax
    2f02:	89 45 c0             	mov    %eax,-0x40(%ebp)
    2f05:	89 4d ac             	mov    %ecx,-0x54(%ebp)
    2f08:	89 75 b0             	mov    %esi,-0x50(%ebp)
    2f0b:	89 5d b4             	mov    %ebx,-0x4c(%ebp)
    2f0e:	e8 9d 0e 00 00       	call   3db0 <widget_modify>
    2f13:	83 c4 14             	add    $0x14,%esp
    2f16:	8b 47 14             	mov    0x14(%edi),%eax
    2f19:	50                   	push   %eax
    2f1a:	e8 11 23 00 00       	call   5230 <window_claim>
    2f1f:	83 c4 10             	add    $0x10,%esp
    2f22:	85 c0                	test   %eax,%eax
    2f24:	0f 84 da 05 00 00    	je     3504 <grid_rearrange+0x624>
    2f2a:	89 c6                	mov    %eax,%esi
    2f2c:	8b 45 c0             	mov    -0x40(%ebp),%eax
    2f2f:	8b 58 20             	mov    0x20(%eax),%ebx
    2f32:	8b 48 28             	mov    0x28(%eax),%ecx
    2f35:	01 d9                	add    %ebx,%ecx
    2f37:	39 cb                	cmp    %ecx,%ebx
    2f39:	73 5a                	jae    2f95 <grid_rearrange+0xb5>
    2f3b:	89 c7                	mov    %eax,%edi
    2f3d:	8b 40 1c             	mov    0x1c(%eax),%eax
    2f40:	89 75 e4             	mov    %esi,-0x1c(%ebp)
    2f43:	89 fe                	mov    %edi,%esi
    2f45:	8b 57 24             	mov    0x24(%edi),%edx
    2f48:	89 cf                	mov    %ecx,%edi
    2f4a:	01 c2                	add    %eax,%edx
    2f4c:	89 d1                	mov    %edx,%ecx
    2f4e:	89 c2                	mov    %eax,%edx
    2f50:	39 d1                	cmp    %edx,%ecx
    2f52:	76 39                	jbe    2f8d <grid_rearrange+0xad>
    2f54:	89 f0                	mov    %esi,%eax
    2f56:	89 d7                	mov    %edx,%edi
    2f58:	89 de                	mov    %ebx,%esi
    2f5a:	89 c3                	mov    %eax,%ebx
    2f5c:	8d 74 26 00          	lea    0x0(%esi,%eiz,1),%esi
    2f60:	8b 43 5c             	mov    0x5c(%ebx),%eax
    2f63:	50                   	push   %eax
    2f64:	8b 45 e4             	mov    -0x1c(%ebp),%eax
    2f67:	56                   	push   %esi
    2f68:	57                   	push   %edi
    2f69:	50                   	push   %eax
    2f6a:	e8 81 47 00 00       	call   76f0 <surface_put_pixel>
    2f6f:	8b 53 1c             	mov    0x1c(%ebx),%edx
    2f72:	8b 4b 24             	mov    0x24(%ebx),%ecx
    2f75:	47                   	inc    %edi
    2f76:	01 d1                	add    %edx,%ecx
    2f78:	83 c4 10             	add    $0x10,%esp
    2f7b:	39 cf                	cmp    %ecx,%edi
    2f7d:	72 e1                	jb     2f60 <grid_rearrange+0x80>
    2f7f:	89 d8                	mov    %ebx,%eax
    2f81:	89 f3                	mov    %esi,%ebx
    2f83:	89 c6                	mov    %eax,%esi
    2f85:	8b 78 28             	mov    0x28(%eax),%edi
    2f88:	8b 40 20             	mov    0x20(%eax),%eax
    2f8b:	01 c7                	add    %eax,%edi
    2f8d:	43                   	inc    %ebx
    2f8e:	39 fb                	cmp    %edi,%ebx
    2f90:	72 be                	jb     2f50 <grid_rearrange+0x70>
    2f92:	8b 45 c0             	mov    -0x40(%ebp),%eax
    2f95:	83 ec 0c             	sub    $0xc,%esp
    2f98:	8b 40 14             	mov    0x14(%eax),%eax
    2f9b:	50                   	push   %eax
    2f9c:	e8 bf 22 00 00       	call   5260 <window_yield>
    2fa1:	83 c4 10             	add    $0x10,%esp
    2fa4:	8b 45 c0             	mov    -0x40(%ebp),%eax
    2fa7:	53                   	push   %ebx
    2fa8:	53                   	push   %ebx
    2fa9:	6a 0c                	push   $0xc
    2fab:	8b 70 60             	mov    0x60(%eax),%esi
    2fae:	56                   	push   %esi
    2faf:	e8 ac 5e 00 00       	call   8e60 <calloc@plt>
    2fb4:	83 c4 10             	add    $0x10,%esp
    2fb7:	89 45 bc             	mov    %eax,-0x44(%ebp)
    2fba:	85 c0                	test   %eax,%eax
    2fbc:	0f 84 20 05 00 00    	je     34e2 <grid_rearrange+0x602>
    2fc2:	8b 7d c0             	mov    -0x40(%ebp),%edi
    2fc5:	8b 47 60             	mov    0x60(%edi),%eax
    2fc8:	89 45 a8             	mov    %eax,-0x58(%ebp)
    2fcb:	85 c0                	test   %eax,%eax
    2fcd:	0f 84 1d 05 00 00    	je     34f0 <grid_rearrange+0x610>
    2fd3:	8b 7f 64             	mov    0x64(%edi),%edi
    2fd6:	8d 04 40             	lea    (%eax,%eax,2),%eax
    2fd9:	89 7d cc             	mov    %edi,-0x34(%ebp)
    2fdc:	8b 7d bc             	mov    -0x44(%ebp),%edi
    2fdf:	c1 e0 02             	shl    $0x2,%eax
    2fe2:	89 7d a4             	mov    %edi,-0x5c(%ebp)
    2fe5:	89 45 c8             	mov    %eax,-0x38(%ebp)
    2fe8:	89 7d c4             	mov    %edi,-0x3c(%ebp)
    2feb:	c7 45 b8 00 00 00 00 	movl   $0x0,-0x48(%ebp)
    2ff2:	8d b6 00 00 00 00    	lea    0x0(%esi),%esi
    2ff8:	8b 45 c4             	mov    -0x3c(%ebp),%eax
    2ffb:	8b 4d cc             	mov    -0x34(%ebp),%ecx
    2ffe:	85 c9                	test   %ecx,%ecx
    3000:	c7 00 00 00 00 00    	movl   $0x0,(%eax)
    3006:	0f 84 b2 00 00 00    	je     30be <grid_rearrange+0x1de>
    300c:	8b 7d c0             	mov    -0x40(%ebp),%edi
    300f:	8b 5d bc             	mov    -0x44(%ebp),%ebx
    3012:	29 d8                	sub    %ebx,%eax
    3014:	c7 45 dc 00 00 00 00 	movl   $0x0,-0x24(%ebp)
    301b:	8b 77 68             	mov    0x68(%edi),%esi
    301e:	01 f0                	add    %esi,%eax
    3020:	89 45 d8             	mov    %eax,-0x28(%ebp)
    3023:	90                   	nop
    3024:	8d 74 26 00          	lea    0x0(%esi,%eiz,1),%esi
    3028:	8b 4d d8             	mov    -0x28(%ebp),%ecx
    302b:	85 c9                	test   %ecx,%ecx
    302d:	74 71                	je     30a0 <grid_rearrange+0x1c0>
    302f:	8b 7d d8             	mov    -0x28(%ebp),%edi
    3032:	8b 07                	mov    (%edi),%eax
    3034:	85 c0                	test   %eax,%eax
    3036:	74 68                	je     30a0 <grid_rearrange+0x1c0>
    3038:	8b 5f 04             	mov    0x4(%edi),%ebx
    303b:	8b 48 3c             	mov    0x3c(%eax),%ecx
    303e:	85 db                	test   %ebx,%ebx
    3040:	8b 40 2c             	mov    0x2c(%eax),%eax
    3043:	0f 84 e0 04 00 00    	je     3529 <grid_rearrange+0x649>
    3049:	31 d2                	xor    %edx,%edx
    304b:	8d 7b ff             	lea    -0x1(%ebx),%edi
    304e:	f7 f3                	div    %ebx
    3050:	89 d6                	mov    %edx,%esi
    3052:	89 45 e4             	mov    %eax,-0x1c(%ebp)
    3055:	31 d2                	xor    %edx,%edx
    3057:	89 c8                	mov    %ecx,%eax
    3059:	f7 f3                	div    %ebx
    305b:	03 75 e4             	add    -0x1c(%ebp),%esi
    305e:	89 45 e0             	mov    %eax,-0x20(%ebp)
    3061:	89 d1                	mov    %edx,%ecx
    3063:	89 75 d4             	mov    %esi,-0x2c(%ebp)
    3066:	8b 75 e0             	mov    -0x20(%ebp),%esi
    3069:	8b 45 c4             	mov    -0x3c(%ebp),%eax
    306c:	01 f1                	add    %esi,%ecx
    306e:	31 d2                	xor    %edx,%edx
    3070:	89 4d d0             	mov    %ecx,-0x30(%ebp)
    3073:	eb 1f                	jmp    3094 <grid_rearrange+0x1b4>
    3075:	8d 76 00             	lea    0x0(%esi),%esi
    3078:	8b 4d e0             	mov    -0x20(%ebp),%ecx
    307b:	8b 75 e4             	mov    -0x1c(%ebp),%esi
    307e:	39 30                	cmp    %esi,(%eax)
    3080:	73 02                	jae    3084 <grid_rearrange+0x1a4>
    3082:	89 30                	mov    %esi,(%eax)
    3084:	39 48 04             	cmp    %ecx,0x4(%eax)
    3087:	73 03                	jae    308c <grid_rearrange+0x1ac>
    3089:	89 48 04             	mov    %ecx,0x4(%eax)
    308c:	42                   	inc    %edx
    308d:	83 c0 0c             	add    $0xc,%eax
    3090:	39 d3                	cmp    %edx,%ebx
    3092:	74 0c                	je     30a0 <grid_rearrange+0x1c0>
    3094:	39 fa                	cmp    %edi,%edx
    3096:	75 e0                	jne    3078 <grid_rearrange+0x198>
    3098:	8b 75 d4             	mov    -0x2c(%ebp),%esi
    309b:	8b 4d d0             	mov    -0x30(%ebp),%ecx
    309e:	eb de                	jmp    307e <grid_rearrange+0x19e>
    30a0:	8b 45 dc             	mov    -0x24(%ebp),%eax
    30a3:	8b 55 d8             	mov    -0x28(%ebp),%edx
    30a6:	40                   	inc    %eax
    30a7:	8b 75 c8             	mov    -0x38(%ebp),%esi
    30aa:	89 45 dc             	mov    %eax,-0x24(%ebp)
    30ad:	01 f2                	add    %esi,%edx
    30af:	8b 45 dc             	mov    -0x24(%ebp),%eax
    30b2:	89 55 d8             	mov    %edx,-0x28(%ebp)
    30b5:	3b 45 cc             	cmp    -0x34(%ebp),%eax
    30b8:	0f 85 6a ff ff ff    	jne    3028 <grid_rearrange+0x148>
    30be:	8b 7d b8             	mov    -0x48(%ebp),%edi
    30c1:	8b 55 c4             	mov    -0x3c(%ebp),%edx
    30c4:	47                   	inc    %edi
    30c5:	83 c2 0c             	add    $0xc,%edx
    30c8:	89 7d b8             	mov    %edi,-0x48(%ebp)
    30cb:	89 55 c4             	mov    %edx,-0x3c(%ebp)
    30ce:	8b 45 b8             	mov    -0x48(%ebp),%eax
    30d1:	3b 45 a8             	cmp    -0x58(%ebp),%eax
    30d4:	0f 85 1e ff ff ff    	jne    2ff8 <grid_rearrange+0x118>
    30da:	8b 4d c8             	mov    -0x38(%ebp),%ecx
    30dd:	8b 5d bc             	mov    -0x44(%ebp),%ebx
    30e0:	01 d9                	add    %ebx,%ecx
    30e2:	31 d2                	xor    %edx,%edx
    30e4:	8b 45 a4             	mov    -0x5c(%ebp),%eax
    30e7:	90                   	nop
    30e8:	8b 18                	mov    (%eax),%ebx
    30ea:	83 c0 0c             	add    $0xc,%eax
    30ed:	89 58 fc             	mov    %ebx,-0x4(%eax)
    30f0:	01 da                	add    %ebx,%edx
    30f2:	39 c1                	cmp    %eax,%ecx
    30f4:	75 f2                	jne    30e8 <grid_rearrange+0x208>
    30f6:	8b 45 b4             	mov    -0x4c(%ebp),%eax
    30f9:	39 d0                	cmp    %edx,%eax
    30fb:	76 57                	jbe    3154 <grid_rearrange+0x274>
    30fd:	29 d0                	sub    %edx,%eax
    30ff:	31 d2                	xor    %edx,%edx
    3101:	f7 75 b8             	divl   -0x48(%ebp)
    3104:	85 c0                	test   %eax,%eax
    3106:	74 4c                	je     3154 <grid_rearrange+0x274>
    3108:	8b 7d b8             	mov    -0x48(%ebp),%edi
    310b:	8d 14 7f             	lea    (%edi,%edi,2),%edx
    310e:	8b 7d bc             	mov    -0x44(%ebp),%edi
    3111:	8d 3c 97             	lea    (%edi,%edx,4),%edi
    3114:	8d 74 26 00          	lea    0x0(%esi,%eiz,1),%esi
    3118:	8b 55 b8             	mov    -0x48(%ebp),%edx
    311b:	85 d2                	test   %edx,%edx
    311d:	0f 84 93 03 00 00    	je     34b6 <grid_rearrange+0x5d6>
    3123:	8b 55 bc             	mov    -0x44(%ebp),%edx
    3126:	31 f6                	xor    %esi,%esi
    3128:	8b 4a 08             	mov    0x8(%edx),%ecx
    312b:	8d 1c 01             	lea    (%ecx,%eax,1),%ebx
    312e:	3b 5a 04             	cmp    0x4(%edx),%ebx
    3131:	73 05                	jae    3138 <grid_rearrange+0x258>
    3133:	89 5a 08             	mov    %ebx,0x8(%edx)
    3136:	89 d9                	mov    %ebx,%ecx
    3138:	83 c2 0c             	add    $0xc,%edx
    313b:	01 ce                	add    %ecx,%esi
    313d:	39 d7                	cmp    %edx,%edi
    313f:	75 e7                	jne    3128 <grid_rearrange+0x248>
    3141:	39 75 b4             	cmp    %esi,-0x4c(%ebp)
    3144:	76 0e                	jbe    3154 <grid_rearrange+0x274>
    3146:	8b 45 b4             	mov    -0x4c(%ebp),%eax
    3149:	31 d2                	xor    %edx,%edx
    314b:	29 f0                	sub    %esi,%eax
    314d:	f7 75 b8             	divl   -0x48(%ebp)
    3150:	85 c0                	test   %eax,%eax
    3152:	75 c4                	jne    3118 <grid_rearrange+0x238>
    3154:	8b 75 cc             	mov    -0x34(%ebp),%esi
    3157:	53                   	push   %ebx
    3158:	53                   	push   %ebx
    3159:	6a 0c                	push   $0xc
    315b:	56                   	push   %esi
    315c:	e8 ff 5c 00 00       	call   8e60 <calloc@plt>
    3161:	83 c4 10             	add    $0x10,%esp
    3164:	89 45 b4             	mov    %eax,-0x4c(%ebp)
    3167:	85 c0                	test   %eax,%eax
    3169:	0f 84 68 03 00 00    	je     34d7 <grid_rearrange+0x5f7>
    316f:	8b 7d c0             	mov    -0x40(%ebp),%edi
    3172:	8b 77 64             	mov    0x64(%edi),%esi
    3175:	89 75 c8             	mov    %esi,-0x38(%ebp)
    3178:	85 f6                	test   %esi,%esi
    317a:	0f 84 9b 03 00 00    	je     351b <grid_rearrange+0x63b>
    3180:	8b 7f 60             	mov    0x60(%edi),%edi
    3183:	89 45 9c             	mov    %eax,-0x64(%ebp)
    3186:	89 fb                	mov    %edi,%ebx
    3188:	89 7d cc             	mov    %edi,-0x34(%ebp)
    318b:	89 c7                	mov    %eax,%edi
    318d:	c7 45 a8 00 00 00 00 	movl   $0x0,-0x58(%ebp)
    3194:	8d 04 5b             	lea    (%ebx,%ebx,2),%eax
    3197:	89 7d c4             	mov    %edi,-0x3c(%ebp)
    319a:	c1 e0 02             	shl    $0x2,%eax
    319d:	c7 45 b8 00 00 00 00 	movl   $0x0,-0x48(%ebp)
    31a4:	89 45 a4             	mov    %eax,-0x5c(%ebp)
    31a7:	90                   	nop
    31a8:	8b 45 c4             	mov    -0x3c(%ebp),%eax
    31ab:	8b 4d cc             	mov    -0x34(%ebp),%ecx
    31ae:	85 c9                	test   %ecx,%ecx
    31b0:	c7 00 00 00 00 00    	movl   $0x0,(%eax)
    31b6:	0f 84 b0 00 00 00    	je     326c <grid_rearrange+0x38c>
    31bc:	8b 7d c0             	mov    -0x40(%ebp),%edi
    31bf:	8b 45 a8             	mov    -0x58(%ebp),%eax
    31c2:	c7 45 dc 00 00 00 00 	movl   $0x0,-0x24(%ebp)
    31c9:	8b 5f 68             	mov    0x68(%edi),%ebx
    31cc:	01 d8                	add    %ebx,%eax
    31ce:	89 45 d8             	mov    %eax,-0x28(%ebp)
    31d1:	8d b4 26 00 00 00 00 	lea    0x0(%esi,%eiz,1),%esi
    31d8:	8b 4d d8             	mov    -0x28(%ebp),%ecx
    31db:	85 c9                	test   %ecx,%ecx
    31dd:	74 71                	je     3250 <grid_rearrange+0x370>
    31df:	8b 7d d8             	mov    -0x28(%ebp),%edi
    31e2:	8b 07                	mov    (%edi),%eax
    31e4:	85 c0                	test   %eax,%eax
    31e6:	74 68                	je     3250 <grid_rearrange+0x370>
    31e8:	8b 5f 08             	mov    0x8(%edi),%ebx
    31eb:	8b 48 40             	mov    0x40(%eax),%ecx
    31ee:	85 db                	test   %ebx,%ebx
    31f0:	8b 40 30             	mov    0x30(%eax),%eax
    31f3:	0f 84 30 03 00 00    	je     3529 <grid_rearrange+0x649>
    31f9:	31 d2                	xor    %edx,%edx
    31fb:	8d 7b ff             	lea    -0x1(%ebx),%edi
    31fe:	f7 f3                	div    %ebx
    3200:	89 d6                	mov    %edx,%esi
    3202:	89 45 e4             	mov    %eax,-0x1c(%ebp)
    3205:	31 d2                	xor    %edx,%edx
    3207:	89 c8                	mov    %ecx,%eax
    3209:	f7 f3                	div    %ebx
    320b:	03 75 e4             	add    -0x1c(%ebp),%esi
    320e:	89 45 e0             	mov    %eax,-0x20(%ebp)
    3211:	89 d1                	mov    %edx,%ecx
    3213:	89 75 d4             	mov    %esi,-0x2c(%ebp)
    3216:	8b 75 e0             	mov    -0x20(%ebp),%esi
    3219:	8b 45 c4             	mov    -0x3c(%ebp),%eax
    321c:	01 f1                	add    %esi,%ecx
    321e:	31 d2                	xor    %edx,%edx
    3220:	89 4d d0             	mov    %ecx,-0x30(%ebp)
    3223:	eb 1f                	jmp    3244 <grid_rearrange+0x364>
    3225:	8d 76 00             	lea    0x0(%esi),%esi
    3228:	8b 4d e0             	mov    -0x20(%ebp),%ecx
    322b:	8b 75 e4             	mov    -0x1c(%ebp),%esi
    322e:	39 30                	cmp    %esi,(%eax)
    3230:	73 02                	jae    3234 <grid_rearrange+0x354>
    3232:	89 30                	mov    %esi,(%eax)
    3234:	39 48 04             	cmp    %ecx,0x4(%eax)
    3237:	73 03                	jae    323c <grid_rearrange+0x35c>
    3239:	89 48 04             	mov    %ecx,0x4(%eax)
    323c:	42                   	inc    %edx
    323d:	83 c0 0c             	add    $0xc,%eax
    3240:	39 d3                	cmp    %edx,%ebx
    3242:	74 0c                	je     3250 <grid_rearrange+0x370>
    3244:	39 d7                	cmp    %edx,%edi
    3246:	75 e0                	jne    3228 <grid_rearrange+0x348>
    3248:	8b 75 d4             	mov    -0x2c(%ebp),%esi
    324b:	8b 4d d0             	mov    -0x30(%ebp),%ecx
    324e:	eb de                	jmp    322e <grid_rearrange+0x34e>
    3250:	8b 7d dc             	mov    -0x24(%ebp),%edi
    3253:	8b 55 d8             	mov    -0x28(%ebp),%edx
    3256:	47                   	inc    %edi
    3257:	83 c2 0c             	add    $0xc,%edx
    325a:	89 7d dc             	mov    %edi,-0x24(%ebp)
    325d:	89 55 d8             	mov    %edx,-0x28(%ebp)
    3260:	8b 45 dc             	mov    -0x24(%ebp),%eax
    3263:	3b 45 cc             	cmp    -0x34(%ebp),%eax
    3266:	0f 85 6c ff ff ff    	jne    31d8 <grid_rearrange+0x2f8>
    326c:	8b 75 b8             	mov    -0x48(%ebp),%esi
    326f:	8b 7d c4             	mov    -0x3c(%ebp),%edi
    3272:	46                   	inc    %esi
    3273:	8b 55 a8             	mov    -0x58(%ebp),%edx
    3276:	89 75 b8             	mov    %esi,-0x48(%ebp)
    3279:	8b 75 a4             	mov    -0x5c(%ebp),%esi
    327c:	83 c7 0c             	add    $0xc,%edi
    327f:	01 f2                	add    %esi,%edx
    3281:	8b 45 b8             	mov    -0x48(%ebp),%eax
    3284:	89 7d c4             	mov    %edi,-0x3c(%ebp)
    3287:	89 55 a8             	mov    %edx,-0x58(%ebp)
    328a:	3b 45 c8             	cmp    -0x38(%ebp),%eax
    328d:	0f 85 15 ff ff ff    	jne    31a8 <grid_rearrange+0x2c8>
    3293:	8d 04 40             	lea    (%eax,%eax,2),%eax
    3296:	8b 7d b4             	mov    -0x4c(%ebp),%edi
    3299:	31 d2                	xor    %edx,%edx
    329b:	8d 0c 87             	lea    (%edi,%eax,4),%ecx
    329e:	8b 45 9c             	mov    -0x64(%ebp),%eax
    32a1:	8d b4 26 00 00 00 00 	lea    0x0(%esi,%eiz,1),%esi
    32a8:	8b 18                	mov    (%eax),%ebx
    32aa:	83 c0 0c             	add    $0xc,%eax
    32ad:	89 58 fc             	mov    %ebx,-0x4(%eax)
    32b0:	01 da                	add    %ebx,%edx
    32b2:	39 c1                	cmp    %eax,%ecx
    32b4:	75 f2                	jne    32a8 <grid_rearrange+0x3c8>
    32b6:	8b 45 ac             	mov    -0x54(%ebp),%eax
    32b9:	39 d0                	cmp    %edx,%eax
    32bb:	76 57                	jbe    3314 <grid_rearrange+0x434>
    32bd:	29 d0                	sub    %edx,%eax
    32bf:	31 d2                	xor    %edx,%edx
    32c1:	f7 75 b8             	divl   -0x48(%ebp)
    32c4:	85 c0                	test   %eax,%eax
    32c6:	74 4c                	je     3314 <grid_rearrange+0x434>
    32c8:	8b 7d b8             	mov    -0x48(%ebp),%edi
    32cb:	8d 14 7f             	lea    (%edi,%edi,2),%edx
    32ce:	8b 7d b4             	mov    -0x4c(%ebp),%edi
    32d1:	8d 3c 97             	lea    (%edi,%edx,4),%edi
    32d4:	8d 74 26 00          	lea    0x0(%esi,%eiz,1),%esi
    32d8:	8b 55 b8             	mov    -0x48(%ebp),%edx
    32db:	85 d2                	test   %edx,%edx
    32dd:	0f 84 cc 01 00 00    	je     34af <grid_rearrange+0x5cf>
    32e3:	8b 55 b4             	mov    -0x4c(%ebp),%edx
    32e6:	31 f6                	xor    %esi,%esi
    32e8:	8b 4a 08             	mov    0x8(%edx),%ecx
    32eb:	8d 1c 01             	lea    (%ecx,%eax,1),%ebx
    32ee:	3b 5a 04             	cmp    0x4(%edx),%ebx
    32f1:	73 05                	jae    32f8 <grid_rearrange+0x418>
    32f3:	89 5a 08             	mov    %ebx,0x8(%edx)
    32f6:	89 d9                	mov    %ebx,%ecx
    32f8:	83 c2 0c             	add    $0xc,%edx
    32fb:	01 ce                	add    %ecx,%esi
    32fd:	39 d7                	cmp    %edx,%edi
    32ff:	75 e7                	jne    32e8 <grid_rearrange+0x408>
    3301:	39 75 ac             	cmp    %esi,-0x54(%ebp)
    3304:	76 0e                	jbe    3314 <grid_rearrange+0x434>
    3306:	8b 45 ac             	mov    -0x54(%ebp),%eax
    3309:	31 d2                	xor    %edx,%edx
    330b:	29 f0                	sub    %esi,%eax
    330d:	f7 75 b8             	divl   -0x48(%ebp)
    3310:	85 c0                	test   %eax,%eax
    3312:	75 c4                	jne    32d8 <grid_rearrange+0x3f8>
    3314:	8b 4d bc             	mov    -0x44(%ebp),%ecx
    3317:	85 c9                	test   %ecx,%ecx
    3319:	0f 84 7e 01 00 00    	je     349d <grid_rearrange+0x5bd>
    331f:	8b 7d c8             	mov    -0x38(%ebp),%edi
    3322:	85 ff                	test   %edi,%edi
    3324:	0f 84 5e 01 00 00    	je     3488 <grid_rearrange+0x5a8>
    332a:	8b 45 c0             	mov    -0x40(%ebp),%eax
    332d:	c7 45 d8 00 00 00 00 	movl   $0x0,-0x28(%ebp)
    3334:	8b 40 60             	mov    0x60(%eax),%eax
    3337:	89 45 dc             	mov    %eax,-0x24(%ebp)
    333a:	8b 45 b4             	mov    -0x4c(%ebp),%eax
    333d:	89 45 d0             	mov    %eax,-0x30(%ebp)
    3340:	8b 4d dc             	mov    -0x24(%ebp),%ecx
    3343:	85 c9                	test   %ecx,%ecx
    3345:	0f 84 16 01 00 00    	je     3461 <grid_rearrange+0x581>
    334b:	8b 45 bc             	mov    -0x44(%ebp),%eax
    334e:	c7 45 e4 00 00 00 00 	movl   $0x0,-0x1c(%ebp)
    3355:	89 45 e0             	mov    %eax,-0x20(%ebp)
    3358:	8b 45 a0             	mov    -0x60(%ebp),%eax
    335b:	89 45 d4             	mov    %eax,-0x2c(%ebp)
    335e:	66 90                	xchg   %ax,%ax
    3360:	8b 45 d8             	mov    -0x28(%ebp),%eax
    3363:	39 45 c8             	cmp    %eax,-0x38(%ebp)
    3366:	0f 86 d9 00 00 00    	jbe    3445 <grid_rearrange+0x565>
    336c:	8b 75 dc             	mov    -0x24(%ebp),%esi
    336f:	0f af f0             	imul   %eax,%esi
    3372:	89 f0                	mov    %esi,%eax
    3374:	8b 75 e4             	mov    -0x1c(%ebp),%esi
    3377:	01 f0                	add    %esi,%eax
    3379:	8d 14 40             	lea    (%eax,%eax,2),%edx
    337c:	8b 45 c0             	mov    -0x40(%ebp),%eax
    337f:	8b 40 68             	mov    0x68(%eax),%eax
    3382:	8d 1c 90             	lea    (%eax,%edx,4),%ebx
    3385:	85 db                	test   %ebx,%ebx
    3387:	0f 84 b8 00 00 00    	je     3445 <grid_rearrange+0x565>
    338d:	8b 3b                	mov    (%ebx),%edi
    338f:	85 ff                	test   %edi,%edi
    3391:	0f 84 a0 00 00 00    	je     3437 <grid_rearrange+0x557>
    3397:	8b 53 04             	mov    0x4(%ebx),%edx
    339a:	85 d2                	test   %edx,%edx
    339c:	74 1e                	je     33bc <grid_rearrange+0x4dc>
    339e:	01 f2                	add    %esi,%edx
    33a0:	8b 75 bc             	mov    -0x44(%ebp),%esi
    33a3:	8d 04 52             	lea    (%edx,%edx,2),%eax
    33a6:	31 d2                	xor    %edx,%edx
    33a8:	8d 0c 86             	lea    (%esi,%eax,4),%ecx
    33ab:	8b 45 e0             	mov    -0x20(%ebp),%eax
    33ae:	66 90                	xchg   %ax,%ax
    33b0:	8b 70 08             	mov    0x8(%eax),%esi
    33b3:	83 c0 0c             	add    $0xc,%eax
    33b6:	01 f2                	add    %esi,%edx
    33b8:	39 c1                	cmp    %eax,%ecx
    33ba:	75 f4                	jne    33b0 <grid_rearrange+0x4d0>
    33bc:	8b 43 08             	mov    0x8(%ebx),%eax
    33bf:	85 c0                	test   %eax,%eax
    33c1:	74 74                	je     3437 <grid_rearrange+0x557>
    33c3:	8b 4d d8             	mov    -0x28(%ebp),%ecx
    33c6:	8b 75 b4             	mov    -0x4c(%ebp),%esi
    33c9:	01 c8                	add    %ecx,%eax
    33cb:	31 c9                	xor    %ecx,%ecx
    33cd:	8d 04 40             	lea    (%eax,%eax,2),%eax
    33d0:	8d 34 86             	lea    (%esi,%eax,4),%esi
    33d3:	8b 45 d0             	mov    -0x30(%ebp),%eax
    33d6:	66 90                	xchg   %ax,%ax
    33d8:	8b 58 08             	mov    0x8(%eax),%ebx
    33db:	83 c0 0c             	add    $0xc,%eax
    33de:	01 cb                	add    %ecx,%ebx
    33e0:	39 c6                	cmp    %eax,%esi
    33e2:	89 d9                	mov    %ebx,%ecx
    33e4:	75 f2                	jne    33d8 <grid_rearrange+0x4f8>
    33e6:	85 d2                	test   %edx,%edx
    33e8:	74 4d                	je     3437 <grid_rearrange+0x557>
    33ea:	85 db                	test   %ebx,%ebx
    33ec:	74 49                	je     3437 <grid_rearrange+0x557>
    33ee:	8b 47 3c             	mov    0x3c(%edi),%eax
    33f1:	85 c0                	test   %eax,%eax
    33f3:	0f 84 d7 00 00 00    	je     34d0 <grid_rearrange+0x5f0>
    33f9:	39 d0                	cmp    %edx,%eax
    33fb:	0f 83 cf 00 00 00    	jae    34d0 <grid_rearrange+0x5f0>
    3401:	8b 57 40             	mov    0x40(%edi),%edx
    3404:	85 d2                	test   %edx,%edx
    3406:	0f 84 bc 00 00 00    	je     34c8 <grid_rearrange+0x5e8>
    340c:	39 d3                	cmp    %edx,%ebx
    340e:	0f 86 b4 00 00 00    	jbe    34c8 <grid_rearrange+0x5e8>
    3414:	83 ec 0c             	sub    $0xc,%esp
    3417:	8b 5d b0             	mov    -0x50(%ebp),%ebx
    341a:	8b 75 d4             	mov    -0x2c(%ebp),%esi
    341d:	52                   	push   %edx
    341e:	50                   	push   %eax
    341f:	53                   	push   %ebx
    3420:	56                   	push   %esi
    3421:	57                   	push   %edi
    3422:	ff 57 4c             	call   *0x4c(%edi)
    3425:	8b 45 c0             	mov    -0x40(%ebp),%eax
    3428:	83 c4 20             	add    $0x20,%esp
    342b:	8b 78 60             	mov    0x60(%eax),%edi
    342e:	8b 40 64             	mov    0x64(%eax),%eax
    3431:	89 7d dc             	mov    %edi,-0x24(%ebp)
    3434:	89 45 c8             	mov    %eax,-0x38(%ebp)
    3437:	8b 7d e0             	mov    -0x20(%ebp),%edi
    343a:	8b 4d d4             	mov    -0x2c(%ebp),%ecx
    343d:	8b 7f 08             	mov    0x8(%edi),%edi
    3440:	01 f9                	add    %edi,%ecx
    3442:	89 4d d4             	mov    %ecx,-0x2c(%ebp)
    3445:	8b 7d e4             	mov    -0x1c(%ebp),%edi
    3448:	8b 55 e0             	mov    -0x20(%ebp),%edx
    344b:	47                   	inc    %edi
    344c:	83 c2 0c             	add    $0xc,%edx
    344f:	89 7d e4             	mov    %edi,-0x1c(%ebp)
    3452:	89 55 e0             	mov    %edx,-0x20(%ebp)
    3455:	8b 45 e4             	mov    -0x1c(%ebp),%eax
    3458:	3b 45 dc             	cmp    -0x24(%ebp),%eax
    345b:	0f 82 ff fe ff ff    	jb     3360 <grid_rearrange+0x480>
    3461:	8b 45 d0             	mov    -0x30(%ebp),%eax
    3464:	8b 5d b0             	mov    -0x50(%ebp),%ebx
    3467:	83 c0 0c             	add    $0xc,%eax
    346a:	8b 70 fc             	mov    -0x4(%eax),%esi
    346d:	89 45 d0             	mov    %eax,-0x30(%ebp)
    3470:	01 f3                	add    %esi,%ebx
    3472:	8b 75 d8             	mov    -0x28(%ebp),%esi
    3475:	46                   	inc    %esi
    3476:	89 5d b0             	mov    %ebx,-0x50(%ebp)
    3479:	89 75 d8             	mov    %esi,-0x28(%ebp)
    347c:	8b 7d d8             	mov    -0x28(%ebp),%edi
    347f:	3b 7d c8             	cmp    -0x38(%ebp),%edi
    3482:	0f 82 b8 fe ff ff    	jb     3340 <grid_rearrange+0x460>
    3488:	b3 01                	mov    $0x1,%bl
    348a:	83 ec 0c             	sub    $0xc,%esp
    348d:	8b 55 bc             	mov    -0x44(%ebp),%edx
    3490:	52                   	push   %edx
    3491:	e8 4a 5b 00 00       	call   8fe0 <free@plt>
    3496:	83 c4 10             	add    $0x10,%esp
    3499:	84 db                	test   %bl,%bl
    349b:	74 20                	je     34bd <grid_rearrange+0x5dd>
    349d:	8b 45 b4             	mov    -0x4c(%ebp),%eax
    34a0:	89 45 08             	mov    %eax,0x8(%ebp)
    34a3:	8d 65 f4             	lea    -0xc(%ebp),%esp
    34a6:	5b                   	pop    %ebx
    34a7:	5e                   	pop    %esi
    34a8:	5f                   	pop    %edi
    34a9:	5d                   	pop    %ebp
    34aa:	e9 31 5b 00 00       	jmp    8fe0 <free@plt>
    34af:	31 f6                	xor    %esi,%esi
    34b1:	e9 50 fe ff ff       	jmp    3306 <grid_rearrange+0x426>
    34b6:	31 f6                	xor    %esi,%esi
    34b8:	e9 89 fc ff ff       	jmp    3146 <grid_rearrange+0x266>
    34bd:	8d 65 f4             	lea    -0xc(%ebp),%esp
    34c0:	5b                   	pop    %ebx
    34c1:	5e                   	pop    %esi
    34c2:	5f                   	pop    %edi
    34c3:	5d                   	pop    %ebp
    34c4:	c3                   	ret    
    34c5:	8d 76 00             	lea    0x0(%esi),%esi
    34c8:	89 da                	mov    %ebx,%edx
    34ca:	e9 45 ff ff ff       	jmp    3414 <grid_rearrange+0x534>
    34cf:	90                   	nop
    34d0:	89 d0                	mov    %edx,%eax
    34d2:	e9 2a ff ff ff       	jmp    3401 <grid_rearrange+0x521>
    34d7:	8b 45 bc             	mov    -0x44(%ebp),%eax
    34da:	85 c0                	test   %eax,%eax
    34dc:	74 df                	je     34bd <grid_rearrange+0x5dd>
    34de:	31 db                	xor    %ebx,%ebx
    34e0:	eb a8                	jmp    348a <grid_rearrange+0x5aa>
    34e2:	8b 45 c0             	mov    -0x40(%ebp),%eax
    34e5:	8b 40 64             	mov    0x64(%eax),%eax
    34e8:	89 45 cc             	mov    %eax,-0x34(%ebp)
    34eb:	e9 64 fc ff ff       	jmp    3154 <grid_rearrange+0x274>
    34f0:	8b 47 64             	mov    0x64(%edi),%eax
    34f3:	c7 45 b8 00 00 00 00 	movl   $0x0,-0x48(%ebp)
    34fa:	89 45 cc             	mov    %eax,-0x34(%ebp)
    34fd:	31 d2                	xor    %edx,%edx
    34ff:	e9 f2 fb ff ff       	jmp    30f6 <grid_rearrange+0x216>
    3504:	8b 45 c0             	mov    -0x40(%ebp),%eax
    3507:	83 ec 0c             	sub    $0xc,%esp
    350a:	8b 40 14             	mov    0x14(%eax),%eax
    350d:	50                   	push   %eax
    350e:	e8 4d 1d 00 00       	call   5260 <window_yield>
    3513:	83 c4 10             	add    $0x10,%esp
    3516:	e9 89 fa ff ff       	jmp    2fa4 <grid_rearrange+0xc4>
    351b:	c7 45 b8 00 00 00 00 	movl   $0x0,-0x48(%ebp)
    3522:	31 d2                	xor    %edx,%edx
    3524:	e9 8d fd ff ff       	jmp    32b6 <grid_rearrange+0x3d6>
    3529:	57                   	push   %edi
    352a:	6a 77                	push   $0x77
    352c:	68 0c 8b 00 00       	push   $0x8b0c
    3531:	68 13 8b 00 00       	push   $0x8b13
    3536:	e8 15 59 00 00       	call   8e50 <assert_abort@plt>
    353b:	90                   	nop
    353c:	8d 74 26 00          	lea    0x0(%esi,%eiz,1),%esi

00003540 <deinit_grid>:
    3540:	55                   	push   %ebp
    3541:	89 e5                	mov    %esp,%ebp
    3543:	53                   	push   %ebx
    3544:	83 ec 10             	sub    $0x10,%esp
    3547:	8b 5d 08             	mov    0x8(%ebp),%ebx
    354a:	53                   	push   %ebx
    354b:	e8 90 08 00 00       	call   3de0 <widget_deinit>
    3550:	8b 43 68             	mov    0x68(%ebx),%eax
    3553:	83 c4 10             	add    $0x10,%esp
    3556:	8b 5d fc             	mov    -0x4(%ebp),%ebx
    3559:	89 45 08             	mov    %eax,0x8(%ebp)
    355c:	c9                   	leave  
    355d:	e9 7e 5a 00 00       	jmp    8fe0 <free@plt>
    3562:	8d b4 26 00 00 00 00 	lea    0x0(%esi,%eiz,1),%esi
    3569:	8d bc 27 00 00 00 00 	lea    0x0(%edi,%eiz,1),%edi

00003570 <init_grid>:
    3570:	55                   	push   %ebp
    3571:	89 e5                	mov    %esp,%ebp
    3573:	57                   	push   %edi
    3574:	56                   	push   %esi
    3575:	53                   	push   %ebx
    3576:	83 ec 0c             	sub    $0xc,%esp
    3579:	8b 75 14             	mov    0x14(%ebp),%esi
    357c:	8b 5d 08             	mov    0x8(%ebp),%ebx
    357f:	85 f6                	test   %esi,%esi
    3581:	0f 84 99 00 00 00    	je     3620 <init_grid+0xb0>
    3587:	8b 45 18             	mov    0x18(%ebp),%eax
    358a:	85 c0                	test   %eax,%eax
    358c:	0f 84 8e 00 00 00    	je     3620 <init_grid+0xb0>
    3592:	8b 7d 18             	mov    0x18(%ebp),%edi
    3595:	50                   	push   %eax
    3596:	0f af fe             	imul   %esi,%edi
    3599:	50                   	push   %eax
    359a:	6a 0c                	push   $0xc
    359c:	57                   	push   %edi
    359d:	e8 be 58 00 00       	call   8e60 <calloc@plt>
    35a2:	83 c4 10             	add    $0x10,%esp
    35a5:	89 43 68             	mov    %eax,0x68(%ebx)
    35a8:	85 c0                	test   %eax,%eax
    35aa:	74 74                	je     3620 <init_grid+0xb0>
    35ac:	52                   	push   %edx
    35ad:	8d 14 7f             	lea    (%edi,%edi,2),%edx
    35b0:	c1 e2 02             	shl    $0x2,%edx
    35b3:	52                   	push   %edx
    35b4:	6a 00                	push   $0x0
    35b6:	50                   	push   %eax
    35b7:	e8 34 59 00 00       	call   8ef0 <memset@plt>
    35bc:	83 c4 0c             	add    $0xc,%esp
    35bf:	8b 7d 0c             	mov    0xc(%ebp),%edi
    35c2:	8b 4d 10             	mov    0x10(%ebp),%ecx
    35c5:	51                   	push   %ecx
    35c6:	57                   	push   %edi
    35c7:	53                   	push   %ebx
    35c8:	e8 43 07 00 00       	call   3d10 <widget_init>
    35cd:	8b 45 1c             	mov    0x1c(%ebp),%eax
    35d0:	c7 43 44 60 2c 00 00 	movl   $0x2c60,0x44(%ebx)
    35d7:	89 43 5c             	mov    %eax,0x5c(%ebx)
    35da:	8b 45 18             	mov    0x18(%ebp),%eax
    35dd:	89 43 64             	mov    %eax,0x64(%ebx)
    35e0:	c7 43 48 80 2b 00 00 	movl   $0x2b80,0x48(%ebx)
    35e7:	c7 43 4c e0 2e 00 00 	movl   $0x2ee0,0x4c(%ebx)
    35ee:	c7 43 50 30 2e 00 00 	movl   $0x2e30,0x50(%ebx)
    35f5:	c7 43 54 90 2b 00 00 	movl   $0x2b90,0x54(%ebx)
    35fc:	c7 43 58 a0 2b 00 00 	movl   $0x2ba0,0x58(%ebx)
    3603:	c7 43 6c 90 2c 00 00 	movl   $0x2c90,0x6c(%ebx)
    360a:	89 73 60             	mov    %esi,0x60(%ebx)
    360d:	83 c4 10             	add    $0x10,%esp
    3610:	8d 65 f4             	lea    -0xc(%ebp),%esp
    3613:	b0 01                	mov    $0x1,%al
    3615:	5b                   	pop    %ebx
    3616:	5e                   	pop    %esi
    3617:	5f                   	pop    %edi
    3618:	5d                   	pop    %ebp
    3619:	c3                   	ret    
    361a:	8d b6 00 00 00 00    	lea    0x0(%esi),%esi
    3620:	8d 65 f4             	lea    -0xc(%ebp),%esp
    3623:	31 c0                	xor    %eax,%eax
    3625:	5b                   	pop    %ebx
    3626:	5e                   	pop    %esi
    3627:	5f                   	pop    %edi
    3628:	5d                   	pop    %ebp
    3629:	c3                   	ret    
    362a:	8d b6 00 00 00 00    	lea    0x0(%esi),%esi

00003630 <create_grid>:
    3630:	55                   	push   %ebp
    3631:	89 e5                	mov    %esp,%ebp
    3633:	57                   	push   %edi
    3634:	56                   	push   %esi
    3635:	53                   	push   %ebx
    3636:	83 ec 18             	sub    $0x18,%esp
    3639:	8b 75 10             	mov    0x10(%ebp),%esi
    363c:	6a 70                	push   $0x70
    363e:	e8 bd 57 00 00       	call   8e00 <malloc@plt>
    3643:	83 c4 10             	add    $0x10,%esp
    3646:	89 c3                	mov    %eax,%ebx
    3648:	85 c0                	test   %eax,%eax
    364a:	74 19                	je     3665 <create_grid+0x35>
    364c:	85 f6                	test   %esi,%esi
    364e:	74 07                	je     3657 <create_grid+0x27>
    3650:	8b 45 14             	mov    0x14(%ebp),%eax
    3653:	85 c0                	test   %eax,%eax
    3655:	75 19                	jne    3670 <create_grid+0x40>
    3657:	83 ec 0c             	sub    $0xc,%esp
    365a:	53                   	push   %ebx
    365b:	31 db                	xor    %ebx,%ebx
    365d:	e8 7e 59 00 00       	call   8fe0 <free@plt>
    3662:	83 c4 10             	add    $0x10,%esp
    3665:	8d 65 f4             	lea    -0xc(%ebp),%esp
    3668:	89 d8                	mov    %ebx,%eax
    366a:	5b                   	pop    %ebx
    366b:	5e                   	pop    %esi
    366c:	5f                   	pop    %edi
    366d:	5d                   	pop    %ebp
    366e:	c3                   	ret    
    366f:	90                   	nop
    3670:	8b 7d 14             	mov    0x14(%ebp),%edi
    3673:	50                   	push   %eax
    3674:	0f af fe             	imul   %esi,%edi
    3677:	50                   	push   %eax
    3678:	6a 0c                	push   $0xc
    367a:	57                   	push   %edi
    367b:	e8 e0 57 00 00       	call   8e60 <calloc@plt>
    3680:	83 c4 10             	add    $0x10,%esp
    3683:	89 43 68             	mov    %eax,0x68(%ebx)
    3686:	85 c0                	test   %eax,%eax
    3688:	74 cd                	je     3657 <create_grid+0x27>
    368a:	52                   	push   %edx
    368b:	8d 14 7f             	lea    (%edi,%edi,2),%edx
    368e:	c1 e2 02             	shl    $0x2,%edx
    3691:	52                   	push   %edx
    3692:	6a 00                	push   $0x0
    3694:	50                   	push   %eax
    3695:	e8 56 58 00 00       	call   8ef0 <memset@plt>
    369a:	83 c4 0c             	add    $0xc,%esp
    369d:	8b 7d 08             	mov    0x8(%ebp),%edi
    36a0:	8b 4d 0c             	mov    0xc(%ebp),%ecx
    36a3:	51                   	push   %ecx
    36a4:	57                   	push   %edi
    36a5:	53                   	push   %ebx
    36a6:	e8 65 06 00 00       	call   3d10 <widget_init>
    36ab:	8b 45 18             	mov    0x18(%ebp),%eax
    36ae:	c7 43 44 60 2c 00 00 	movl   $0x2c60,0x44(%ebx)
    36b5:	89 43 5c             	mov    %eax,0x5c(%ebx)
    36b8:	8b 45 14             	mov    0x14(%ebp),%eax
    36bb:	89 43 64             	mov    %eax,0x64(%ebx)
    36be:	c7 43 48 80 2b 00 00 	movl   $0x2b80,0x48(%ebx)
    36c5:	c7 43 4c e0 2e 00 00 	movl   $0x2ee0,0x4c(%ebx)
    36cc:	c7 43 50 30 2e 00 00 	movl   $0x2e30,0x50(%ebx)
    36d3:	c7 43 54 90 2b 00 00 	movl   $0x2b90,0x54(%ebx)
    36da:	c7 43 58 a0 2b 00 00 	movl   $0x2ba0,0x58(%ebx)
    36e1:	c7 43 6c 90 2c 00 00 	movl   $0x2c90,0x6c(%ebx)
    36e8:	89 73 60             	mov    %esi,0x60(%ebx)
    36eb:	83 c4 10             	add    $0x10,%esp
    36ee:	8d 65 f4             	lea    -0xc(%ebp),%esp
    36f1:	89 d8                	mov    %ebx,%eax
    36f3:	5b                   	pop    %ebx
    36f4:	5e                   	pop    %esi
    36f5:	5f                   	pop    %edi
    36f6:	5d                   	pop    %ebp
    36f7:	c3                   	ret    
    36f8:	66 90                	xchg   %ax,%ax
    36fa:	66 90                	xchg   %ax,%ax
    36fc:	66 90                	xchg   %ax,%ax
    36fe:	66 90                	xchg   %ax,%ax

00003700 <label_reconfigure>:
    3700:	55                   	push   %ebp
    3701:	89 e5                	mov    %esp,%ebp
    3703:	5d                   	pop    %ebp
    3704:	c3                   	ret    
    3705:	8d 74 26 00          	lea    0x0(%esi,%eiz,1),%esi
    3709:	8d bc 27 00 00 00 00 	lea    0x0(%edi,%eiz,1),%edi

00003710 <label_handle_keyboard_event>:
    3710:	55                   	push   %ebp
    3711:	89 e5                	mov    %esp,%ebp
    3713:	5d                   	pop    %ebp
    3714:	c3                   	ret    
    3715:	8d 74 26 00          	lea    0x0(%esi,%eiz,1),%esi
    3719:	8d bc 27 00 00 00 00 	lea    0x0(%edi,%eiz,1),%edi

00003720 <label_handle_position_event>:
    3720:	55                   	push   %ebp
    3721:	89 e5                	mov    %esp,%ebp
    3723:	5d                   	pop    %ebp
    3724:	c3                   	ret    
    3725:	8d 74 26 00          	lea    0x0(%esi,%eiz,1),%esi
    3729:	8d bc 27 00 00 00 00 	lea    0x0(%edi,%eiz,1),%edi

00003730 <on_rewrite>:
    3730:	55                   	push   %ebp
    3731:	89 e5                	mov    %esp,%ebp
    3733:	53                   	push   %ebx
    3734:	83 ec 14             	sub    $0x14,%esp
    3737:	8b 45 0c             	mov    0xc(%ebp),%eax
    373a:	8b 5d 08             	mov    0x8(%ebp),%ebx
    373d:	85 c0                	test   %eax,%eax
    373f:	74 4b                	je     378c <on_rewrite+0x5c>
    3741:	83 ec 0c             	sub    $0xc,%esp
    3744:	50                   	push   %eax
    3745:	e8 36 57 00 00       	call   8e80 <str_dup@plt>
    374a:	8d 55 f4             	lea    -0xc(%ebp),%edx
    374d:	89 83 24 01 00 00    	mov    %eax,0x124(%ebx)
    3753:	52                   	push   %edx
    3754:	8d 55 f0             	lea    -0x10(%ebp),%edx
    3757:	52                   	push   %edx
    3758:	50                   	push   %eax
    3759:	8b 83 28 01 00 00    	mov    0x128(%ebx),%eax
    375f:	50                   	push   %eax
    3760:	e8 2b 37 00 00       	call   6e90 <font_get_box>
    3765:	8b 45 f0             	mov    -0x10(%ebp),%eax
    3768:	83 c4 14             	add    $0x14,%esp
    376b:	8d 50 04             	lea    0x4(%eax),%edx
    376e:	8b 45 f4             	mov    -0xc(%ebp),%eax
    3771:	89 53 2c             	mov    %edx,0x2c(%ebx)
    3774:	83 c0 04             	add    $0x4,%eax
    3777:	89 53 34             	mov    %edx,0x34(%ebx)
    377a:	8b 53 14             	mov    0x14(%ebx),%edx
    377d:	89 43 30             	mov    %eax,0x30(%ebx)
    3780:	89 43 38             	mov    %eax,0x38(%ebx)
    3783:	52                   	push   %edx
    3784:	e8 b7 19 00 00       	call   5140 <window_refresh>
    3789:	83 c4 10             	add    $0x10,%esp
    378c:	8b 5d fc             	mov    -0x4(%ebp),%ebx
    378f:	c9                   	leave  
    3790:	c3                   	ret    
    3791:	eb 0d                	jmp    37a0 <label_rearrange>
    3793:	90                   	nop
    3794:	90                   	nop
    3795:	90                   	nop
    3796:	90                   	nop
    3797:	90                   	nop
    3798:	90                   	nop
    3799:	90                   	nop
    379a:	90                   	nop
    379b:	90                   	nop
    379c:	90                   	nop
    379d:	90                   	nop
    379e:	90                   	nop
    379f:	90                   	nop

000037a0 <label_rearrange>:
    37a0:	55                   	push   %ebp
    37a1:	89 e5                	mov    %esp,%ebp
    37a3:	57                   	push   %edi
    37a4:	56                   	push   %esi
    37a5:	53                   	push   %ebx
    37a6:	83 ec 68             	sub    $0x68,%esp
    37a9:	8b 45 14             	mov    0x14(%ebp),%eax
    37ac:	8b 7d 18             	mov    0x18(%ebp),%edi
    37af:	57                   	push   %edi
    37b0:	50                   	push   %eax
    37b1:	8b 45 10             	mov    0x10(%ebp),%eax
    37b4:	8b 5d 08             	mov    0x8(%ebp),%ebx
    37b7:	50                   	push   %eax
    37b8:	8b 45 0c             	mov    0xc(%ebp),%eax
    37bb:	50                   	push   %eax
    37bc:	53                   	push   %ebx
    37bd:	e8 ee 05 00 00       	call   3db0 <widget_modify>
    37c2:	83 c4 14             	add    $0x14,%esp
    37c5:	8b 43 14             	mov    0x14(%ebx),%eax
    37c8:	50                   	push   %eax
    37c9:	e8 62 1a 00 00       	call   5230 <window_claim>
    37ce:	83 c4 10             	add    $0x10,%esp
    37d1:	85 c0                	test   %eax,%eax
    37d3:	0f 84 d7 00 00 00    	je     38b0 <label_rearrange+0x110>
    37d9:	56                   	push   %esi
    37da:	56                   	push   %esi
    37db:	8d 75 b0             	lea    -0x50(%ebp),%esi
    37de:	50                   	push   %eax
    37df:	56                   	push   %esi
    37e0:	e8 4b 31 00 00       	call   6930 <drawctx_init>
    37e5:	5f                   	pop    %edi
    37e6:	58                   	pop    %eax
    37e7:	8d 43 5c             	lea    0x5c(%ebx),%eax
    37ea:	50                   	push   %eax
    37eb:	56                   	push   %esi
    37ec:	e8 0f 33 00 00       	call   6b00 <drawctx_set_source>
    37f1:	58                   	pop    %eax
    37f2:	8b 43 28             	mov    0x28(%ebx),%eax
    37f5:	50                   	push   %eax
    37f6:	8b 43 24             	mov    0x24(%ebx),%eax
    37f9:	50                   	push   %eax
    37fa:	8b 43 20             	mov    0x20(%ebx),%eax
    37fd:	50                   	push   %eax
    37fe:	8b 43 1c             	mov    0x1c(%ebx),%eax
    3801:	50                   	push   %eax
    3802:	56                   	push   %esi
    3803:	e8 18 33 00 00       	call   6b20 <drawctx_transfer>
    3808:	83 c4 20             	add    $0x20,%esp
    380b:	8d 45 ac             	lea    -0x54(%ebp),%eax
    380e:	8b 93 24 01 00 00    	mov    0x124(%ebx),%edx
    3814:	50                   	push   %eax
    3815:	8b 8b 28 01 00 00    	mov    0x128(%ebx),%ecx
    381b:	8d 45 a8             	lea    -0x58(%ebp),%eax
    381e:	50                   	push   %eax
    381f:	52                   	push   %edx
    3820:	51                   	push   %ecx
    3821:	e8 6a 36 00 00       	call   6e90 <font_get_box>
    3826:	8b 43 24             	mov    0x24(%ebx),%eax
    3829:	8b 4d a8             	mov    -0x58(%ebp),%ecx
    382c:	83 c4 10             	add    $0x10,%esp
    382f:	39 c8                	cmp    %ecx,%eax
    3831:	72 0a                	jb     383d <label_rearrange+0x9d>
    3833:	8b 7b 28             	mov    0x28(%ebx),%edi
    3836:	8b 55 ac             	mov    -0x54(%ebp),%edx
    3839:	39 d7                	cmp    %edx,%edi
    383b:	73 1b                	jae    3858 <label_rearrange+0xb8>
    383d:	83 ec 0c             	sub    $0xc,%esp
    3840:	8b 43 14             	mov    0x14(%ebx),%eax
    3843:	50                   	push   %eax
    3844:	e8 17 1a 00 00       	call   5260 <window_yield>
    3849:	83 c4 10             	add    $0x10,%esp
    384c:	8d 65 f4             	lea    -0xc(%ebp),%esp
    384f:	5b                   	pop    %ebx
    3850:	5e                   	pop    %esi
    3851:	5f                   	pop    %edi
    3852:	5d                   	pop    %ebp
    3853:	c3                   	ret    
    3854:	8d 74 26 00          	lea    0x0(%esi,%eiz,1),%esi
    3858:	29 c8                	sub    %ecx,%eax
    385a:	8b 4b 1c             	mov    0x1c(%ebx),%ecx
    385d:	d1 e8                	shr    %eax
    385f:	29 d7                	sub    %edx,%edi
    3861:	d1 ef                	shr    %edi
    3863:	01 c8                	add    %ecx,%eax
    3865:	89 45 a4             	mov    %eax,-0x5c(%ebp)
    3868:	8b 43 20             	mov    0x20(%ebx),%eax
    386b:	01 c7                	add    %eax,%edi
    386d:	50                   	push   %eax
    386e:	50                   	push   %eax
    386f:	8d 83 c0 00 00 00    	lea    0xc0(%ebx),%eax
    3875:	50                   	push   %eax
    3876:	56                   	push   %esi
    3877:	e8 84 32 00 00       	call   6b00 <drawctx_set_source>
    387c:	8b 8b 28 01 00 00    	mov    0x128(%ebx),%ecx
    3882:	58                   	pop    %eax
    3883:	5a                   	pop    %edx
    3884:	51                   	push   %ecx
    3885:	56                   	push   %esi
    3886:	e8 85 32 00 00       	call   6b10 <drawctx_set_font>
    388b:	8b 83 24 01 00 00    	mov    0x124(%ebx),%eax
    3891:	83 c4 10             	add    $0x10,%esp
    3894:	85 c0                	test   %eax,%eax
    3896:	74 a5                	je     383d <label_rearrange+0x9d>
    3898:	8b 55 a4             	mov    -0x5c(%ebp),%edx
    389b:	57                   	push   %edi
    389c:	52                   	push   %edx
    389d:	50                   	push   %eax
    389e:	56                   	push   %esi
    389f:	e8 ec 34 00 00       	call   6d90 <drawctx_print>
    38a4:	83 c4 10             	add    $0x10,%esp
    38a7:	eb 94                	jmp    383d <label_rearrange+0x9d>
    38a9:	8d b4 26 00 00 00 00 	lea    0x0(%esi,%eiz,1),%esi
    38b0:	83 ec 0c             	sub    $0xc,%esp
    38b3:	8b 73 14             	mov    0x14(%ebx),%esi
    38b6:	89 45 a4             	mov    %eax,-0x5c(%ebp)
    38b9:	56                   	push   %esi
    38ba:	e8 a1 19 00 00       	call   5260 <window_yield>
    38bf:	83 c4 10             	add    $0x10,%esp
    38c2:	8b 45 a4             	mov    -0x5c(%ebp),%eax
    38c5:	e9 0f ff ff ff       	jmp    37d9 <label_rearrange+0x39>
    38ca:	8d b6 00 00 00 00    	lea    0x0(%esi),%esi

000038d0 <label_destroy>:
    38d0:	55                   	push   %ebp
    38d1:	89 e5                	mov    %esp,%ebp
    38d3:	53                   	push   %ebx
    38d4:	83 ec 10             	sub    $0x10,%esp
    38d7:	8b 5d 08             	mov    0x8(%ebp),%ebx
    38da:	53                   	push   %ebx
    38db:	e8 00 05 00 00       	call   3de0 <widget_deinit>
    38e0:	8b 93 24 01 00 00    	mov    0x124(%ebx),%edx
    38e6:	58                   	pop    %eax
    38e7:	52                   	push   %edx
    38e8:	e8 f3 56 00 00       	call   8fe0 <free@plt>
    38ed:	8b 83 28 01 00 00    	mov    0x128(%ebx),%eax
    38f3:	59                   	pop    %ecx
    38f4:	50                   	push   %eax
    38f5:	e8 f6 34 00 00       	call   6df0 <font_release>
    38fa:	89 5d 08             	mov    %ebx,0x8(%ebp)
    38fd:	83 c4 10             	add    $0x10,%esp
    3900:	8b 5d fc             	mov    -0x4(%ebp),%ebx
    3903:	c9                   	leave  
    3904:	e9 d7 56 00 00       	jmp    8fe0 <free@plt>
    3909:	8d b4 26 00 00 00 00 	lea    0x0(%esi,%eiz,1),%esi

00003910 <label_repaint>:
    3910:	55                   	push   %ebp
    3911:	89 e5                	mov    %esp,%ebp
    3913:	57                   	push   %edi
    3914:	56                   	push   %esi
    3915:	53                   	push   %ebx
    3916:	83 ec 68             	sub    $0x68,%esp
    3919:	8b 5d 08             	mov    0x8(%ebp),%ebx
    391c:	8b 7b 14             	mov    0x14(%ebx),%edi
    391f:	57                   	push   %edi
    3920:	e8 0b 19 00 00       	call   5230 <window_claim>
    3925:	83 c4 10             	add    $0x10,%esp
    3928:	85 c0                	test   %eax,%eax
    392a:	0f 84 e0 00 00 00    	je     3a10 <label_repaint+0x100>
    3930:	56                   	push   %esi
    3931:	56                   	push   %esi
    3932:	8d 75 b0             	lea    -0x50(%ebp),%esi
    3935:	50                   	push   %eax
    3936:	56                   	push   %esi
    3937:	e8 f4 2f 00 00       	call   6930 <drawctx_init>
    393c:	5f                   	pop    %edi
    393d:	58                   	pop    %eax
    393e:	8d 43 5c             	lea    0x5c(%ebx),%eax
    3941:	50                   	push   %eax
    3942:	56                   	push   %esi
    3943:	e8 b8 31 00 00       	call   6b00 <drawctx_set_source>
    3948:	58                   	pop    %eax
    3949:	8b 43 28             	mov    0x28(%ebx),%eax
    394c:	50                   	push   %eax
    394d:	8b 43 24             	mov    0x24(%ebx),%eax
    3950:	50                   	push   %eax
    3951:	8b 43 20             	mov    0x20(%ebx),%eax
    3954:	50                   	push   %eax
    3955:	8b 43 1c             	mov    0x1c(%ebx),%eax
    3958:	50                   	push   %eax
    3959:	56                   	push   %esi
    395a:	e8 c1 31 00 00       	call   6b20 <drawctx_transfer>
    395f:	83 c4 20             	add    $0x20,%esp
    3962:	8d 45 ac             	lea    -0x54(%ebp),%eax
    3965:	8b 93 24 01 00 00    	mov    0x124(%ebx),%edx
    396b:	50                   	push   %eax
    396c:	8b 8b 28 01 00 00    	mov    0x128(%ebx),%ecx
    3972:	8d 45 a8             	lea    -0x58(%ebp),%eax
    3975:	50                   	push   %eax
    3976:	52                   	push   %edx
    3977:	51                   	push   %ecx
    3978:	e8 13 35 00 00       	call   6e90 <font_get_box>
    397d:	8b 43 24             	mov    0x24(%ebx),%eax
    3980:	8b 4d a8             	mov    -0x58(%ebp),%ecx
    3983:	83 c4 10             	add    $0x10,%esp
    3986:	39 c8                	cmp    %ecx,%eax
    3988:	72 0a                	jb     3994 <label_repaint+0x84>
    398a:	8b 7b 28             	mov    0x28(%ebx),%edi
    398d:	8b 55 ac             	mov    -0x54(%ebp),%edx
    3990:	39 d7                	cmp    %edx,%edi
    3992:	73 24                	jae    39b8 <label_repaint+0xa8>
    3994:	83 ec 0c             	sub    $0xc,%esp
    3997:	8b 43 14             	mov    0x14(%ebx),%eax
    399a:	50                   	push   %eax
    399b:	e8 c0 18 00 00       	call   5260 <window_yield>
    39a0:	8b 4b 14             	mov    0x14(%ebx),%ecx
    39a3:	5a                   	pop    %edx
    39a4:	51                   	push   %ecx
    39a5:	e8 d6 17 00 00       	call   5180 <window_damage>
    39aa:	83 c4 10             	add    $0x10,%esp
    39ad:	8d 65 f4             	lea    -0xc(%ebp),%esp
    39b0:	5b                   	pop    %ebx
    39b1:	5e                   	pop    %esi
    39b2:	5f                   	pop    %edi
    39b3:	5d                   	pop    %ebp
    39b4:	c3                   	ret    
    39b5:	8d 76 00             	lea    0x0(%esi),%esi
    39b8:	29 c8                	sub    %ecx,%eax
    39ba:	8b 4b 1c             	mov    0x1c(%ebx),%ecx
    39bd:	d1 e8                	shr    %eax
    39bf:	29 d7                	sub    %edx,%edi
    39c1:	d1 ef                	shr    %edi
    39c3:	01 c8                	add    %ecx,%eax
    39c5:	89 45 a4             	mov    %eax,-0x5c(%ebp)
    39c8:	8b 43 20             	mov    0x20(%ebx),%eax
    39cb:	01 c7                	add    %eax,%edi
    39cd:	50                   	push   %eax
    39ce:	50                   	push   %eax
    39cf:	8d 83 c0 00 00 00    	lea    0xc0(%ebx),%eax
    39d5:	50                   	push   %eax
    39d6:	56                   	push   %esi
    39d7:	e8 24 31 00 00       	call   6b00 <drawctx_set_source>
    39dc:	8b 8b 28 01 00 00    	mov    0x128(%ebx),%ecx
    39e2:	58                   	pop    %eax
    39e3:	5a                   	pop    %edx
    39e4:	51                   	push   %ecx
    39e5:	56                   	push   %esi
    39e6:	e8 25 31 00 00       	call   6b10 <drawctx_set_font>
    39eb:	8b 83 24 01 00 00    	mov    0x124(%ebx),%eax
    39f1:	83 c4 10             	add    $0x10,%esp
    39f4:	85 c0                	test   %eax,%eax
    39f6:	74 9c                	je     3994 <label_repaint+0x84>
    39f8:	57                   	push   %edi
    39f9:	8b 7d a4             	mov    -0x5c(%ebp),%edi
    39fc:	57                   	push   %edi
    39fd:	50                   	push   %eax
    39fe:	56                   	push   %esi
    39ff:	e8 8c 33 00 00       	call   6d90 <drawctx_print>
    3a04:	83 c4 10             	add    $0x10,%esp
    3a07:	eb 8b                	jmp    3994 <label_repaint+0x84>
    3a09:	8d b4 26 00 00 00 00 	lea    0x0(%esi,%eiz,1),%esi
    3a10:	83 ec 0c             	sub    $0xc,%esp
    3a13:	8b 73 14             	mov    0x14(%ebx),%esi
    3a16:	89 45 a4             	mov    %eax,-0x5c(%ebp)
    3a19:	56                   	push   %esi
    3a1a:	e8 41 18 00 00       	call   5260 <window_yield>
    3a1f:	83 c4 10             	add    $0x10,%esp
    3a22:	8b 45 a4             	mov    -0x5c(%ebp),%eax
    3a25:	e9 06 ff ff ff       	jmp    3930 <label_repaint+0x20>
    3a2a:	8d b6 00 00 00 00    	lea    0x0(%esi),%esi

00003a30 <deinit_label>:
    3a30:	55                   	push   %ebp
    3a31:	89 e5                	mov    %esp,%ebp
    3a33:	53                   	push   %ebx
    3a34:	83 ec 10             	sub    $0x10,%esp
    3a37:	8b 5d 08             	mov    0x8(%ebp),%ebx
    3a3a:	53                   	push   %ebx
    3a3b:	e8 a0 03 00 00       	call   3de0 <widget_deinit>
    3a40:	8b 93 24 01 00 00    	mov    0x124(%ebx),%edx
    3a46:	58                   	pop    %eax
    3a47:	52                   	push   %edx
    3a48:	e8 93 55 00 00       	call   8fe0 <free@plt>
    3a4d:	8b 83 28 01 00 00    	mov    0x128(%ebx),%eax
    3a53:	83 c4 10             	add    $0x10,%esp
    3a56:	8b 5d fc             	mov    -0x4(%ebp),%ebx
    3a59:	89 45 08             	mov    %eax,0x8(%ebp)
    3a5c:	c9                   	leave  
    3a5d:	e9 8e 33 00 00       	jmp    6df0 <font_release>
    3a62:	8d b4 26 00 00 00 00 	lea    0x0(%esi,%eiz,1),%esi
    3a69:	8d bc 27 00 00 00 00 	lea    0x0(%edi,%eiz,1),%edi

00003a70 <init_label>:
    3a70:	55                   	push   %ebp
    3a71:	89 e5                	mov    %esp,%ebp
    3a73:	57                   	push   %edi
    3a74:	56                   	push   %esi
    3a75:	53                   	push   %ebx
    3a76:	83 ec 20             	sub    $0x20,%esp
    3a79:	8b 5d 08             	mov    0x8(%ebp),%ebx
    3a7c:	8b 45 10             	mov    0x10(%ebp),%eax
    3a7f:	50                   	push   %eax
    3a80:	8b 45 0c             	mov    0xc(%ebp),%eax
    3a83:	50                   	push   %eax
    3a84:	8d 7b 5c             	lea    0x5c(%ebx),%edi
    3a87:	53                   	push   %ebx
    3a88:	8b 75 18             	mov    0x18(%ebp),%esi
    3a8b:	e8 80 02 00 00       	call   3d10 <widget_init>
    3a90:	c7 43 44 d0 38 00 00 	movl   $0x38d0,0x44(%ebx)
    3a97:	c7 43 48 00 37 00 00 	movl   $0x3700,0x48(%ebx)
    3a9e:	c7 43 4c a0 37 00 00 	movl   $0x37a0,0x4c(%ebx)
    3aa5:	c7 43 50 10 39 00 00 	movl   $0x3910,0x50(%ebx)
    3aac:	c7 43 54 10 37 00 00 	movl   $0x3710,0x54(%ebx)
    3ab3:	c7 43 58 20 37 00 00 	movl   $0x3720,0x58(%ebx)
    3aba:	89 3c 24             	mov    %edi,(%esp)
    3abd:	e8 fe 35 00 00       	call   70c0 <source_init>
    3ac2:	8b 4d 1c             	mov    0x1c(%ebp),%ecx
    3ac5:	58                   	pop    %eax
    3ac6:	5a                   	pop    %edx
    3ac7:	51                   	push   %ecx
    3ac8:	57                   	push   %edi
    3ac9:	8d bb c0 00 00 00    	lea    0xc0(%ebx),%edi
    3acf:	e8 7c 36 00 00       	call   7150 <source_set_color>
    3ad4:	89 3c 24             	mov    %edi,(%esp)
    3ad7:	e8 e4 35 00 00       	call   70c0 <source_init>
    3adc:	8b 4d 20             	mov    0x20(%ebp),%ecx
    3adf:	58                   	pop    %eax
    3ae0:	5a                   	pop    %edx
    3ae1:	51                   	push   %ecx
    3ae2:	57                   	push   %edi
    3ae3:	e8 68 36 00 00       	call   7150 <source_set_color>
    3ae8:	8b 7d 14             	mov    0x14(%ebp),%edi
    3aeb:	83 c4 10             	add    $0x10,%esp
    3aee:	85 ff                	test   %edi,%edi
    3af0:	0f 84 aa 00 00 00    	je     3ba0 <init_label+0x130>
    3af6:	83 ec 0c             	sub    $0xc,%esp
    3af9:	8b 45 14             	mov    0x14(%ebp),%eax
    3afc:	50                   	push   %eax
    3afd:	e8 7e 53 00 00       	call   8e80 <str_dup@plt>
    3b02:	83 c4 10             	add    $0x10,%esp
    3b05:	89 83 24 01 00 00    	mov    %eax,0x124(%ebx)
    3b0b:	81 e6 ff ff 00 00    	and    $0xffff,%esi
    3b11:	8d 83 28 01 00 00    	lea    0x128(%ebx),%eax
    3b17:	57                   	push   %edi
    3b18:	57                   	push   %edi
    3b19:	56                   	push   %esi
    3b1a:	50                   	push   %eax
    3b1b:	e8 f0 1c 00 00       	call   5810 <embedded_font_create>
    3b20:	83 c4 10             	add    $0x10,%esp
    3b23:	85 c0                	test   %eax,%eax
    3b25:	75 51                	jne    3b78 <init_label+0x108>
    3b27:	8d 45 e4             	lea    -0x1c(%ebp),%eax
    3b2a:	8b 93 28 01 00 00    	mov    0x128(%ebx),%edx
    3b30:	50                   	push   %eax
    3b31:	8d 45 e0             	lea    -0x20(%ebp),%eax
    3b34:	50                   	push   %eax
    3b35:	8b 83 24 01 00 00    	mov    0x124(%ebx),%eax
    3b3b:	50                   	push   %eax
    3b3c:	52                   	push   %edx
    3b3d:	e8 4e 33 00 00       	call   6e90 <font_get_box>
    3b42:	8b 45 e0             	mov    -0x20(%ebp),%eax
    3b45:	8d 50 04             	lea    0x4(%eax),%edx
    3b48:	8b 45 e4             	mov    -0x1c(%ebp),%eax
    3b4b:	83 c0 04             	add    $0x4,%eax
    3b4e:	89 53 2c             	mov    %edx,0x2c(%ebx)
    3b51:	89 43 30             	mov    %eax,0x30(%ebx)
    3b54:	89 43 38             	mov    %eax,0x38(%ebx)
    3b57:	89 53 34             	mov    %edx,0x34(%ebx)
    3b5a:	c7 83 2c 01 00 00 30 	movl   $0x3730,0x12c(%ebx)
    3b61:	37 00 00 
    3b64:	83 c4 10             	add    $0x10,%esp
    3b67:	8d 65 f4             	lea    -0xc(%ebp),%esp
    3b6a:	b0 01                	mov    $0x1,%al
    3b6c:	5b                   	pop    %ebx
    3b6d:	5e                   	pop    %esi
    3b6e:	5f                   	pop    %edi
    3b6f:	5d                   	pop    %ebp
    3b70:	c3                   	ret    
    3b71:	8d b4 26 00 00 00 00 	lea    0x0(%esi,%eiz,1),%esi
    3b78:	83 ec 0c             	sub    $0xc,%esp
    3b7b:	8b 8b 24 01 00 00    	mov    0x124(%ebx),%ecx
    3b81:	51                   	push   %ecx
    3b82:	e8 59 54 00 00       	call   8fe0 <free@plt>
    3b87:	c7 83 24 01 00 00 00 	movl   $0x0,0x124(%ebx)
    3b8e:	00 00 00 
    3b91:	83 c4 10             	add    $0x10,%esp
    3b94:	8d 65 f4             	lea    -0xc(%ebp),%esp
    3b97:	31 c0                	xor    %eax,%eax
    3b99:	5b                   	pop    %ebx
    3b9a:	5e                   	pop    %esi
    3b9b:	5f                   	pop    %edi
    3b9c:	5d                   	pop    %ebp
    3b9d:	c3                   	ret    
    3b9e:	66 90                	xchg   %ax,%ax
    3ba0:	c7 83 24 01 00 00 00 	movl   $0x0,0x124(%ebx)
    3ba7:	00 00 00 
    3baa:	e9 5c ff ff ff       	jmp    3b0b <init_label+0x9b>
    3baf:	90                   	nop

00003bb0 <create_label>:
    3bb0:	55                   	push   %ebp
    3bb1:	89 e5                	mov    %esp,%ebp
    3bb3:	57                   	push   %edi
    3bb4:	56                   	push   %esi
    3bb5:	53                   	push   %ebx
    3bb6:	83 ec 28             	sub    $0x28,%esp
    3bb9:	8b 75 14             	mov    0x14(%ebp),%esi
    3bbc:	68 30 01 00 00       	push   $0x130
    3bc1:	e8 3a 52 00 00       	call   8e00 <malloc@plt>
    3bc6:	83 c4 10             	add    $0x10,%esp
    3bc9:	89 c3                	mov    %eax,%ebx
    3bcb:	85 c0                	test   %eax,%eax
    3bcd:	0f 84 e9 00 00 00    	je     3cbc <create_label+0x10c>
    3bd3:	50                   	push   %eax
    3bd4:	8b 45 0c             	mov    0xc(%ebp),%eax
    3bd7:	50                   	push   %eax
    3bd8:	8b 45 08             	mov    0x8(%ebp),%eax
    3bdb:	50                   	push   %eax
    3bdc:	8d 7b 5c             	lea    0x5c(%ebx),%edi
    3bdf:	53                   	push   %ebx
    3be0:	e8 2b 01 00 00       	call   3d10 <widget_init>
    3be5:	c7 43 44 d0 38 00 00 	movl   $0x38d0,0x44(%ebx)
    3bec:	c7 43 48 00 37 00 00 	movl   $0x3700,0x48(%ebx)
    3bf3:	c7 43 4c a0 37 00 00 	movl   $0x37a0,0x4c(%ebx)
    3bfa:	c7 43 50 10 39 00 00 	movl   $0x3910,0x50(%ebx)
    3c01:	c7 43 54 10 37 00 00 	movl   $0x3710,0x54(%ebx)
    3c08:	c7 43 58 20 37 00 00 	movl   $0x3720,0x58(%ebx)
    3c0f:	89 3c 24             	mov    %edi,(%esp)
    3c12:	e8 a9 34 00 00       	call   70c0 <source_init>
    3c17:	8b 4d 18             	mov    0x18(%ebp),%ecx
    3c1a:	58                   	pop    %eax
    3c1b:	5a                   	pop    %edx
    3c1c:	51                   	push   %ecx
    3c1d:	57                   	push   %edi
    3c1e:	8d bb c0 00 00 00    	lea    0xc0(%ebx),%edi
    3c24:	e8 27 35 00 00       	call   7150 <source_set_color>
    3c29:	89 3c 24             	mov    %edi,(%esp)
    3c2c:	e8 8f 34 00 00       	call   70c0 <source_init>
    3c31:	8b 4d 1c             	mov    0x1c(%ebp),%ecx
    3c34:	58                   	pop    %eax
    3c35:	5a                   	pop    %edx
    3c36:	51                   	push   %ecx
    3c37:	57                   	push   %edi
    3c38:	e8 13 35 00 00       	call   7150 <source_set_color>
    3c3d:	8b 7d 10             	mov    0x10(%ebp),%edi
    3c40:	81 e6 ff ff 00 00    	and    $0xffff,%esi
    3c46:	83 c4 10             	add    $0x10,%esp
    3c49:	85 ff                	test   %edi,%edi
    3c4b:	0f 84 a7 00 00 00    	je     3cf8 <create_label+0x148>
    3c51:	83 ec 0c             	sub    $0xc,%esp
    3c54:	8b 45 10             	mov    0x10(%ebp),%eax
    3c57:	50                   	push   %eax
    3c58:	e8 23 52 00 00       	call   8e80 <str_dup@plt>
    3c5d:	83 c4 10             	add    $0x10,%esp
    3c60:	89 83 24 01 00 00    	mov    %eax,0x124(%ebx)
    3c66:	8d 83 28 01 00 00    	lea    0x128(%ebx),%eax
    3c6c:	57                   	push   %edi
    3c6d:	57                   	push   %edi
    3c6e:	56                   	push   %esi
    3c6f:	50                   	push   %eax
    3c70:	e8 9b 1b 00 00       	call   5810 <embedded_font_create>
    3c75:	83 c4 10             	add    $0x10,%esp
    3c78:	85 c0                	test   %eax,%eax
    3c7a:	75 4c                	jne    3cc8 <create_label+0x118>
    3c7c:	8d 45 e4             	lea    -0x1c(%ebp),%eax
    3c7f:	8b 93 28 01 00 00    	mov    0x128(%ebx),%edx
    3c85:	50                   	push   %eax
    3c86:	8d 45 e0             	lea    -0x20(%ebp),%eax
    3c89:	50                   	push   %eax
    3c8a:	8b 83 24 01 00 00    	mov    0x124(%ebx),%eax
    3c90:	50                   	push   %eax
    3c91:	52                   	push   %edx
    3c92:	e8 f9 31 00 00       	call   6e90 <font_get_box>
    3c97:	8b 45 e0             	mov    -0x20(%ebp),%eax
    3c9a:	8d 50 04             	lea    0x4(%eax),%edx
    3c9d:	8b 45 e4             	mov    -0x1c(%ebp),%eax
    3ca0:	83 c0 04             	add    $0x4,%eax
    3ca3:	89 53 2c             	mov    %edx,0x2c(%ebx)
    3ca6:	89 43 30             	mov    %eax,0x30(%ebx)
    3ca9:	89 53 34             	mov    %edx,0x34(%ebx)
    3cac:	89 43 38             	mov    %eax,0x38(%ebx)
    3caf:	c7 83 2c 01 00 00 30 	movl   $0x3730,0x12c(%ebx)
    3cb6:	37 00 00 
    3cb9:	83 c4 10             	add    $0x10,%esp
    3cbc:	8d 65 f4             	lea    -0xc(%ebp),%esp
    3cbf:	89 d8                	mov    %ebx,%eax
    3cc1:	5b                   	pop    %ebx
    3cc2:	5e                   	pop    %esi
    3cc3:	5f                   	pop    %edi
    3cc4:	5d                   	pop    %ebp
    3cc5:	c3                   	ret    
    3cc6:	66 90                	xchg   %ax,%ax
    3cc8:	83 ec 0c             	sub    $0xc,%esp
    3ccb:	8b 8b 24 01 00 00    	mov    0x124(%ebx),%ecx
    3cd1:	51                   	push   %ecx
    3cd2:	e8 09 53 00 00       	call   8fe0 <free@plt>
    3cd7:	c7 83 24 01 00 00 00 	movl   $0x0,0x124(%ebx)
    3cde:	00 00 00 
    3ce1:	89 1c 24             	mov    %ebx,(%esp)
    3ce4:	e8 f7 52 00 00       	call   8fe0 <free@plt>
    3ce9:	83 c4 10             	add    $0x10,%esp
    3cec:	8d 65 f4             	lea    -0xc(%ebp),%esp
    3cef:	31 db                	xor    %ebx,%ebx
    3cf1:	89 d8                	mov    %ebx,%eax
    3cf3:	5b                   	pop    %ebx
    3cf4:	5e                   	pop    %esi
    3cf5:	5f                   	pop    %edi
    3cf6:	5d                   	pop    %ebp
    3cf7:	c3                   	ret    
    3cf8:	c7 83 24 01 00 00 00 	movl   $0x0,0x124(%ebx)
    3cff:	00 00 00 
    3d02:	e9 5f ff ff ff       	jmp    3c66 <create_label+0xb6>
    3d07:	66 90                	xchg   %ax,%ax
    3d09:	66 90                	xchg   %ax,%ax
    3d0b:	66 90                	xchg   %ax,%ax
    3d0d:	66 90                	xchg   %ax,%ax
    3d0f:	90                   	nop

00003d10 <widget_init>:
    3d10:	55                   	push   %ebp
    3d11:	89 e5                	mov    %esp,%ebp
    3d13:	8b 45 08             	mov    0x8(%ebp),%eax
    3d16:	8b 55 0c             	mov    0xc(%ebp),%edx
    3d19:	85 d2                	test   %edx,%edx
    3d1b:	8d 48 0c             	lea    0xc(%eax),%ecx
    3d1e:	c7 00 00 00 00 00    	movl   $0x0,(%eax)
    3d24:	c7 40 04 00 00 00 00 	movl   $0x0,0x4(%eax)
    3d2b:	89 48 0c             	mov    %ecx,0xc(%eax)
    3d2e:	89 48 10             	mov    %ecx,0x10(%eax)
    3d31:	74 6d                	je     3da0 <widget_init+0x90>
    3d33:	8d 4a 0c             	lea    0xc(%edx),%ecx
    3d36:	89 50 08             	mov    %edx,0x8(%eax)
    3d39:	89 48 04             	mov    %ecx,0x4(%eax)
    3d3c:	8b 4a 0c             	mov    0xc(%edx),%ecx
    3d3f:	89 08                	mov    %ecx,(%eax)
    3d41:	8b 4a 0c             	mov    0xc(%edx),%ecx
    3d44:	89 41 04             	mov    %eax,0x4(%ecx)
    3d47:	89 42 0c             	mov    %eax,0xc(%edx)
    3d4a:	8b 52 14             	mov    0x14(%edx),%edx
    3d4d:	89 50 14             	mov    %edx,0x14(%eax)
    3d50:	8b 55 10             	mov    0x10(%ebp),%edx
    3d53:	c7 40 1c 00 00 00 00 	movl   $0x0,0x1c(%eax)
    3d5a:	89 50 18             	mov    %edx,0x18(%eax)
    3d5d:	c7 40 20 00 00 00 00 	movl   $0x0,0x20(%eax)
    3d64:	c7 40 24 00 00 00 00 	movl   $0x0,0x24(%eax)
    3d6b:	c7 40 28 00 00 00 00 	movl   $0x0,0x28(%eax)
    3d72:	c7 40 2c 00 00 00 00 	movl   $0x0,0x2c(%eax)
    3d79:	c7 40 30 00 00 00 00 	movl   $0x0,0x30(%eax)
    3d80:	c7 40 34 00 00 00 00 	movl   $0x0,0x34(%eax)
    3d87:	c7 40 38 00 00 00 00 	movl   $0x0,0x38(%eax)
    3d8e:	c7 40 3c ff ff ff ff 	movl   $0xffffffff,0x3c(%eax)
    3d95:	c7 40 40 ff ff ff ff 	movl   $0xffffffff,0x40(%eax)
    3d9c:	5d                   	pop    %ebp
    3d9d:	c3                   	ret    
    3d9e:	66 90                	xchg   %ax,%ax
    3da0:	c7 40 08 00 00 00 00 	movl   $0x0,0x8(%eax)
    3da7:	c7 40 14 00 00 00 00 	movl   $0x0,0x14(%eax)
    3dae:	eb a0                	jmp    3d50 <widget_init+0x40>

00003db0 <widget_modify>:
    3db0:	55                   	push   %ebp
    3db1:	89 e5                	mov    %esp,%ebp
    3db3:	8b 45 08             	mov    0x8(%ebp),%eax
    3db6:	8b 55 0c             	mov    0xc(%ebp),%edx
    3db9:	89 50 1c             	mov    %edx,0x1c(%eax)
    3dbc:	8b 55 10             	mov    0x10(%ebp),%edx
    3dbf:	89 50 20             	mov    %edx,0x20(%eax)
    3dc2:	8b 55 14             	mov    0x14(%ebp),%edx
    3dc5:	89 50 24             	mov    %edx,0x24(%eax)
    3dc8:	8b 55 18             	mov    0x18(%ebp),%edx
    3dcb:	89 50 28             	mov    %edx,0x28(%eax)
    3dce:	5d                   	pop    %ebp
    3dcf:	c3                   	ret    

00003dd0 <widget_get_data>:
    3dd0:	55                   	push   %ebp
    3dd1:	89 e5                	mov    %esp,%ebp
    3dd3:	8b 45 08             	mov    0x8(%ebp),%eax
    3dd6:	5d                   	pop    %ebp
    3dd7:	8b 40 18             	mov    0x18(%eax),%eax
    3dda:	c3                   	ret    
    3ddb:	90                   	nop
    3ddc:	8d 74 26 00          	lea    0x0(%esi,%eiz,1),%esi

00003de0 <widget_deinit>:
    3de0:	55                   	push   %ebp
    3de1:	89 e5                	mov    %esp,%ebp
    3de3:	8b 45 08             	mov    0x8(%ebp),%eax
    3de6:	8b 50 08             	mov    0x8(%eax),%edx
    3de9:	85 d2                	test   %edx,%edx
    3deb:	74 21                	je     3e0e <widget_deinit+0x2e>
    3ded:	8b 08                	mov    (%eax),%ecx
    3def:	85 c9                	test   %ecx,%ecx
    3df1:	74 0e                	je     3e01 <widget_deinit+0x21>
    3df3:	8b 50 04             	mov    0x4(%eax),%edx
    3df6:	85 d2                	test   %edx,%edx
    3df8:	74 07                	je     3e01 <widget_deinit+0x21>
    3dfa:	89 0a                	mov    %ecx,(%edx)
    3dfc:	8b 08                	mov    (%eax),%ecx
    3dfe:	89 51 04             	mov    %edx,0x4(%ecx)
    3e01:	c7 00 00 00 00 00    	movl   $0x0,(%eax)
    3e07:	c7 40 04 00 00 00 00 	movl   $0x0,0x4(%eax)
    3e0e:	5d                   	pop    %ebp
    3e0f:	c3                   	ret    

00003e10 <root_handle_keyboard_event>:
    3e10:	55                   	push   %ebp
    3e11:	89 e5                	mov    %esp,%ebp
    3e13:	57                   	push   %edi
    3e14:	56                   	push   %esi
    3e15:	8b 45 08             	mov    0x8(%ebp),%eax
    3e18:	83 c0 0c             	add    $0xc,%eax
    3e1b:	8b 50 04             	mov    0x4(%eax),%edx
    3e1e:	39 c2                	cmp    %eax,%edx
    3e20:	74 1e                	je     3e40 <root_handle_keyboard_event+0x30>
    3e22:	8d 7d 0c             	lea    0xc(%ebp),%edi
    3e25:	b9 06 00 00 00       	mov    $0x6,%ecx
    3e2a:	89 fe                	mov    %edi,%esi
    3e2c:	f3 a5                	rep movsl %ds:(%esi),%es:(%edi)
    3e2e:	89 55 08             	mov    %edx,0x8(%ebp)
    3e31:	5e                   	pop    %esi
    3e32:	8b 42 54             	mov    0x54(%edx),%eax
    3e35:	5f                   	pop    %edi
    3e36:	5d                   	pop    %ebp
    3e37:	ff e0                	jmp    *%eax
    3e39:	8d b4 26 00 00 00 00 	lea    0x0(%esi,%eiz,1),%esi
    3e40:	5e                   	pop    %esi
    3e41:	5f                   	pop    %edi
    3e42:	5d                   	pop    %ebp
    3e43:	c3                   	ret    
    3e44:	8d b6 00 00 00 00    	lea    0x0(%esi),%esi
    3e4a:	8d bf 00 00 00 00    	lea    0x0(%edi),%edi

00003e50 <root_handle_position_event>:
    3e50:	55                   	push   %ebp
    3e51:	89 e5                	mov    %esp,%ebp
    3e53:	57                   	push   %edi
    3e54:	56                   	push   %esi
    3e55:	53                   	push   %ebx
    3e56:	83 ec 3c             	sub    $0x3c,%esp
    3e59:	8b 55 08             	mov    0x8(%ebp),%edx
    3e5c:	8b 45 0c             	mov    0xc(%ebp),%eax
    3e5f:	89 45 e4             	mov    %eax,-0x1c(%ebp)
    3e62:	8b 45 10             	mov    0x10(%ebp),%eax
    3e65:	8b 7a 14             	mov    0x14(%edx),%edi
    3e68:	89 c1                	mov    %eax,%ecx
    3e6a:	89 45 d8             	mov    %eax,-0x28(%ebp)
    3e6d:	8b 45 14             	mov    0x14(%ebp),%eax
    3e70:	89 45 d4             	mov    %eax,-0x2c(%ebp)
    3e73:	8b 5d 18             	mov    0x18(%ebp),%ebx
    3e76:	8b 75 1c             	mov    0x1c(%ebp),%esi
    3e79:	89 7d dc             	mov    %edi,-0x24(%ebp)
    3e7c:	80 7f 01 00          	cmpb   $0x0,0x1(%edi)
    3e80:	0f 84 e2 00 00 00    	je     3f68 <root_handle_position_event+0x118>
    3e86:	49                   	dec    %ecx
    3e87:	0f 94 45 d3          	sete   -0x2d(%ebp)
    3e8b:	83 f8 01             	cmp    $0x1,%eax
    3e8e:	0f 94 45 e0          	sete   -0x20(%ebp)
    3e92:	8a 4d e0             	mov    -0x20(%ebp),%cl
    3e95:	8b 7a 24             	mov    0x24(%edx),%edi
    3e98:	22 4d d3             	and    -0x2d(%ebp),%cl
    3e9b:	89 7d cc             	mov    %edi,-0x34(%ebp)
    3e9e:	8b 7a 28             	mov    0x28(%edx),%edi
    3ea1:	88 4d e0             	mov    %cl,-0x20(%ebp)
    3ea4:	89 7d c8             	mov    %edi,-0x38(%ebp)
    3ea7:	0f 85 15 01 00 00    	jne    3fc2 <root_handle_position_event+0x172>
    3ead:	83 f8 02             	cmp    $0x2,%eax
    3eb0:	0f 94 45 e0          	sete   -0x20(%ebp)
    3eb4:	8a 45 e0             	mov    -0x20(%ebp),%al
    3eb7:	c7 45 c0 00 00 00 00 	movl   $0x0,-0x40(%ebp)
    3ebe:	22 45 d3             	and    -0x2d(%ebp),%al
    3ec1:	88 45 e0             	mov    %al,-0x20(%ebp)
    3ec4:	8b 45 cc             	mov    -0x34(%ebp),%eax
    3ec7:	83 fb 03             	cmp    $0x3,%ebx
    3eca:	0f 96 45 d3          	setbe  -0x2d(%ebp)
    3ece:	83 e8 04             	sub    $0x4,%eax
    3ed1:	89 c7                	mov    %eax,%edi
    3ed3:	89 45 bc             	mov    %eax,-0x44(%ebp)
    3ed6:	8b 45 c8             	mov    -0x38(%ebp),%eax
    3ed9:	83 fe 03             	cmp    $0x3,%esi
    3edc:	0f 96 45 d2          	setbe  -0x2e(%ebp)
    3ee0:	83 e8 04             	sub    $0x4,%eax
    3ee3:	39 c6                	cmp    %eax,%esi
    3ee5:	8d 46 fc             	lea    -0x4(%esi),%eax
    3ee8:	0f 93 45 c8          	setae  -0x38(%ebp)
    3eec:	83 f8 13             	cmp    $0x13,%eax
    3eef:	0f 96 45 c4          	setbe  -0x3c(%ebp)
    3ef3:	83 fb 03             	cmp    $0x3,%ebx
    3ef6:	8a 4d c4             	mov    -0x3c(%ebp),%cl
    3ef9:	0f 97 c0             	seta   %al
    3efc:	84 c1                	test   %al,%cl
    3efe:	0f 84 15 01 00 00    	je     4019 <root_handle_position_event+0x1c9>
    3f04:	39 fb                	cmp    %edi,%ebx
    3f06:	0f 83 0d 01 00 00    	jae    4019 <root_handle_position_event+0x1c9>
    3f0c:	8b 45 cc             	mov    -0x34(%ebp),%eax
    3f0f:	c7 45 c4 01 00 00 00 	movl   $0x1,-0x3c(%ebp)
    3f16:	83 e8 18             	sub    $0x18,%eax
    3f19:	39 c3                	cmp    %eax,%ebx
    3f1b:	0f 93 c0             	setae  %al
    3f1e:	25 ff 00 00 00       	and    $0xff,%eax
    3f23:	89 c7                	mov    %eax,%edi
    3f25:	8a 45 d2             	mov    -0x2e(%ebp),%al
    3f28:	84 45 d3             	test   %al,-0x2d(%ebp)
    3f2b:	0f 84 9d 00 00 00    	je     3fce <root_handle_position_event+0x17e>
    3f31:	80 7d e0 00          	cmpb   $0x0,-0x20(%ebp)
    3f35:	0f 84 93 00 00 00    	je     3fce <root_handle_position_event+0x17e>
    3f3b:	83 7d c0 01          	cmpl   $0x1,-0x40(%ebp)
    3f3f:	19 c0                	sbb    %eax,%eax
    3f41:	83 e0 24             	and    $0x24,%eax
    3f44:	83 c0 0f             	add    $0xf,%eax
    3f47:	89 45 10             	mov    %eax,0x10(%ebp)
    3f4a:	8b 45 e4             	mov    -0x1c(%ebp),%eax
    3f4d:	89 45 0c             	mov    %eax,0xc(%ebp)
    3f50:	8b 45 dc             	mov    -0x24(%ebp),%eax
    3f53:	8b 40 0c             	mov    0xc(%eax),%eax
    3f56:	89 45 08             	mov    %eax,0x8(%ebp)
    3f59:	8d 65 f4             	lea    -0xc(%ebp),%esp
    3f5c:	5b                   	pop    %ebx
    3f5d:	5e                   	pop    %esi
    3f5e:	5f                   	pop    %edi
    3f5f:	5d                   	pop    %ebp
    3f60:	e9 0b 4e 00 00       	jmp    8d70 <win_grab@plt>
    3f65:	8d 76 00             	lea    0x0(%esi),%esi
    3f68:	8d 42 0c             	lea    0xc(%edx),%eax
    3f6b:	8b 7a 10             	mov    0x10(%edx),%edi
    3f6e:	89 45 dc             	mov    %eax,-0x24(%ebp)
    3f71:	39 c7                	cmp    %eax,%edi
    3f73:	74 45                	je     3fba <root_handle_position_event+0x16a>
    3f75:	89 f0                	mov    %esi,%eax
    3f77:	8b 4d e4             	mov    -0x1c(%ebp),%ecx
    3f7a:	89 de                	mov    %ebx,%esi
    3f7c:	89 c3                	mov    %eax,%ebx
    3f7e:	66 90                	xchg   %ax,%ax
    3f80:	8b 47 58             	mov    0x58(%edi),%eax
    3f83:	83 ec 08             	sub    $0x8,%esp
    3f86:	89 45 e4             	mov    %eax,-0x1c(%ebp)
    3f89:	8b 55 d4             	mov    -0x2c(%ebp),%edx
    3f8c:	8b 45 d8             	mov    -0x28(%ebp),%eax
    3f8f:	53                   	push   %ebx
    3f90:	89 45 10             	mov    %eax,0x10(%ebp)
    3f93:	56                   	push   %esi
    3f94:	52                   	push   %edx
    3f95:	50                   	push   %eax
    3f96:	8b 45 e4             	mov    -0x1c(%ebp),%eax
    3f99:	51                   	push   %ecx
    3f9a:	89 4d 0c             	mov    %ecx,0xc(%ebp)
    3f9d:	57                   	push   %edi
    3f9e:	89 4d e0             	mov    %ecx,-0x20(%ebp)
    3fa1:	89 55 14             	mov    %edx,0x14(%ebp)
    3fa4:	89 75 18             	mov    %esi,0x18(%ebp)
    3fa7:	89 5d 1c             	mov    %ebx,0x1c(%ebp)
    3faa:	ff d0                	call   *%eax
    3fac:	8b 7f 04             	mov    0x4(%edi),%edi
    3faf:	83 c4 20             	add    $0x20,%esp
    3fb2:	8b 4d e0             	mov    -0x20(%ebp),%ecx
    3fb5:	3b 7d dc             	cmp    -0x24(%ebp),%edi
    3fb8:	75 c6                	jne    3f80 <root_handle_position_event+0x130>
    3fba:	8d 65 f4             	lea    -0xc(%ebp),%esp
    3fbd:	5b                   	pop    %ebx
    3fbe:	5e                   	pop    %esi
    3fbf:	5f                   	pop    %edi
    3fc0:	5d                   	pop    %ebp
    3fc1:	c3                   	ret    
    3fc2:	c7 45 c0 01 00 00 00 	movl   $0x1,-0x40(%ebp)
    3fc9:	e9 f6 fe ff ff       	jmp    3ec4 <root_handle_position_event+0x74>
    3fce:	8a 4d c8             	mov    -0x38(%ebp),%cl
    3fd1:	84 4d d3             	test   %cl,-0x2d(%ebp)
    3fd4:	74 1a                	je     3ff0 <root_handle_position_event+0x1a0>
    3fd6:	80 7d e0 00          	cmpb   $0x0,-0x20(%ebp)
    3fda:	74 14                	je     3ff0 <root_handle_position_event+0x1a0>
    3fdc:	83 7d c0 01          	cmpl   $0x1,-0x40(%ebp)
    3fe0:	19 c0                	sbb    %eax,%eax
    3fe2:	83 e0 24             	and    $0x24,%eax
    3fe5:	83 c0 0d             	add    $0xd,%eax
    3fe8:	89 45 10             	mov    %eax,0x10(%ebp)
    3feb:	e9 5a ff ff ff       	jmp    3f4a <root_handle_position_event+0xfa>
    3ff0:	3b 5d bc             	cmp    -0x44(%ebp),%ebx
    3ff3:	0f 93 45 cc          	setae  -0x34(%ebp)
    3ff7:	8a 45 cc             	mov    -0x34(%ebp),%al
    3ffa:	84 45 c8             	test   %al,-0x38(%ebp)
    3ffd:	74 28                	je     4027 <root_handle_position_event+0x1d7>
    3fff:	80 7d e0 00          	cmpb   $0x0,-0x20(%ebp)
    4003:	74 22                	je     4027 <root_handle_position_event+0x1d7>
    4005:	83 7d c0 01          	cmpl   $0x1,-0x40(%ebp)
    4009:	19 c0                	sbb    %eax,%eax
    400b:	83 e0 24             	and    $0x24,%eax
    400e:	83 c0 0c             	add    $0xc,%eax
    4011:	89 45 10             	mov    %eax,0x10(%ebp)
    4014:	e9 31 ff ff ff       	jmp    3f4a <root_handle_position_event+0xfa>
    4019:	c7 45 c4 00 00 00 00 	movl   $0x0,-0x3c(%ebp)
    4020:	31 ff                	xor    %edi,%edi
    4022:	e9 fe fe ff ff       	jmp    3f25 <root_handle_position_event+0xd5>
    4027:	8a 4d d2             	mov    -0x2e(%ebp),%cl
    402a:	84 4d cc             	test   %cl,-0x34(%ebp)
    402d:	74 1a                	je     4049 <root_handle_position_event+0x1f9>
    402f:	80 7d e0 00          	cmpb   $0x0,-0x20(%ebp)
    4033:	74 14                	je     4049 <root_handle_position_event+0x1f9>
    4035:	83 7d c0 01          	cmpl   $0x1,-0x40(%ebp)
    4039:	19 c0                	sbb    %eax,%eax
    403b:	83 e0 24             	and    $0x24,%eax
    403e:	83 c0 0e             	add    $0xe,%eax
    4041:	89 45 10             	mov    %eax,0x10(%ebp)
    4044:	e9 01 ff ff ff       	jmp    3f4a <root_handle_position_event+0xfa>
    4049:	80 7d d2 00          	cmpb   $0x0,-0x2e(%ebp)
    404d:	74 1a                	je     4069 <root_handle_position_event+0x219>
    404f:	80 7d e0 00          	cmpb   $0x0,-0x20(%ebp)
    4053:	74 14                	je     4069 <root_handle_position_event+0x219>
    4055:	83 7d c0 01          	cmpl   $0x1,-0x40(%ebp)
    4059:	19 c0                	sbb    %eax,%eax
    405b:	83 e0 18             	and    $0x18,%eax
    405e:	83 c0 0a             	add    $0xa,%eax
    4061:	89 45 10             	mov    %eax,0x10(%ebp)
    4064:	e9 e1 fe ff ff       	jmp    3f4a <root_handle_position_event+0xfa>
    4069:	80 7d d3 00          	cmpb   $0x0,-0x2d(%ebp)
    406d:	74 1a                	je     4089 <root_handle_position_event+0x239>
    406f:	80 7d e0 00          	cmpb   $0x0,-0x20(%ebp)
    4073:	74 14                	je     4089 <root_handle_position_event+0x239>
    4075:	83 7d c0 01          	cmpl   $0x1,-0x40(%ebp)
    4079:	19 c0                	sbb    %eax,%eax
    407b:	83 e0 0c             	and    $0xc,%eax
    407e:	83 c0 05             	add    $0x5,%eax
    4081:	89 45 10             	mov    %eax,0x10(%ebp)
    4084:	e9 c1 fe ff ff       	jmp    3f4a <root_handle_position_event+0xfa>
    4089:	80 7d c8 00          	cmpb   $0x0,-0x38(%ebp)
    408d:	74 1a                	je     40a9 <root_handle_position_event+0x259>
    408f:	80 7d e0 00          	cmpb   $0x0,-0x20(%ebp)
    4093:	74 14                	je     40a9 <root_handle_position_event+0x259>
    4095:	83 7d c0 01          	cmpl   $0x1,-0x40(%ebp)
    4099:	19 c0                	sbb    %eax,%eax
    409b:	83 e0 18             	and    $0x18,%eax
    409e:	83 c0 08             	add    $0x8,%eax
    40a1:	89 45 10             	mov    %eax,0x10(%ebp)
    40a4:	e9 a1 fe ff ff       	jmp    3f4a <root_handle_position_event+0xfa>
    40a9:	80 7d cc 00          	cmpb   $0x0,-0x34(%ebp)
    40ad:	74 1a                	je     40c9 <root_handle_position_event+0x279>
    40af:	80 7d e0 00          	cmpb   $0x0,-0x20(%ebp)
    40b3:	74 14                	je     40c9 <root_handle_position_event+0x279>
    40b5:	83 7d c0 01          	cmpl   $0x1,-0x40(%ebp)
    40b9:	19 c0                	sbb    %eax,%eax
    40bb:	83 e0 0c             	and    $0xc,%eax
    40be:	83 c0 04             	add    $0x4,%eax
    40c1:	89 45 10             	mov    %eax,0x10(%ebp)
    40c4:	e9 81 fe ff ff       	jmp    3f4a <root_handle_position_event+0xfa>
    40c9:	85 7d c0             	test   %edi,-0x40(%ebp)
    40cc:	75 61                	jne    412f <root_handle_position_event+0x2df>
    40ce:	8b 4d c4             	mov    -0x3c(%ebp),%ecx
    40d1:	85 4d c0             	test   %ecx,-0x40(%ebp)
    40d4:	75 6e                	jne    4144 <root_handle_position_event+0x2f4>
    40d6:	8d 42 0c             	lea    0xc(%edx),%eax
    40d9:	8b 7a 10             	mov    0x10(%edx),%edi
    40dc:	89 45 dc             	mov    %eax,-0x24(%ebp)
    40df:	39 f8                	cmp    %edi,%eax
    40e1:	0f 84 d3 fe ff ff    	je     3fba <root_handle_position_event+0x16a>
    40e7:	89 f0                	mov    %esi,%eax
    40e9:	8b 4d e4             	mov    -0x1c(%ebp),%ecx
    40ec:	89 de                	mov    %ebx,%esi
    40ee:	89 c3                	mov    %eax,%ebx
    40f0:	8b 47 58             	mov    0x58(%edi),%eax
    40f3:	83 ec 08             	sub    $0x8,%esp
    40f6:	89 45 e4             	mov    %eax,-0x1c(%ebp)
    40f9:	8b 55 d4             	mov    -0x2c(%ebp),%edx
    40fc:	8b 45 d8             	mov    -0x28(%ebp),%eax
    40ff:	53                   	push   %ebx
    4100:	89 45 10             	mov    %eax,0x10(%ebp)
    4103:	56                   	push   %esi
    4104:	52                   	push   %edx
    4105:	50                   	push   %eax
    4106:	8b 45 e4             	mov    -0x1c(%ebp),%eax
    4109:	51                   	push   %ecx
    410a:	89 4d 0c             	mov    %ecx,0xc(%ebp)
    410d:	57                   	push   %edi
    410e:	89 4d e0             	mov    %ecx,-0x20(%ebp)
    4111:	89 55 14             	mov    %edx,0x14(%ebp)
    4114:	89 75 18             	mov    %esi,0x18(%ebp)
    4117:	89 5d 1c             	mov    %ebx,0x1c(%ebp)
    411a:	ff d0                	call   *%eax
    411c:	8b 7f 04             	mov    0x4(%edi),%edi
    411f:	83 c4 20             	add    $0x20,%esp
    4122:	8b 4d e0             	mov    -0x20(%ebp),%ecx
    4125:	39 7d dc             	cmp    %edi,-0x24(%ebp)
    4128:	75 c6                	jne    40f0 <root_handle_position_event+0x2a0>
    412a:	e9 8b fe ff ff       	jmp    3fba <root_handle_position_event+0x16a>
    412f:	8b 45 dc             	mov    -0x24(%ebp),%eax
    4132:	8b 40 0c             	mov    0xc(%eax),%eax
    4135:	89 45 08             	mov    %eax,0x8(%ebp)
    4138:	8d 65 f4             	lea    -0xc(%ebp),%esp
    413b:	5b                   	pop    %ebx
    413c:	5e                   	pop    %esi
    413d:	5f                   	pop    %edi
    413e:	5d                   	pop    %ebp
    413f:	e9 8c 4e 00 00       	jmp    8fd0 <win_close_request@plt>
    4144:	c7 45 10 03 00 00 00 	movl   $0x3,0x10(%ebp)
    414b:	e9 fa fd ff ff       	jmp    3f4a <root_handle_position_event+0xfa>

00004150 <root_destroy>:
    4150:	55                   	push   %ebp
    4151:	89 e5                	mov    %esp,%ebp
    4153:	5d                   	pop    %ebp
    4154:	e9 87 fc ff ff       	jmp    3de0 <widget_deinit>
    4159:	8d b4 26 00 00 00 00 	lea    0x0(%esi,%eiz,1),%esi

00004160 <fetch_input>:
    4160:	55                   	push   %ebp
    4161:	89 e5                	mov    %esp,%ebp
    4163:	57                   	push   %edi
    4164:	56                   	push   %esi
    4165:	53                   	push   %ebx
    4166:	83 ec 0c             	sub    $0xc,%esp
    4169:	8b 45 08             	mov    0x8(%ebp),%eax
    416c:	8d 78 10             	lea    0x10(%eax),%edi
    416f:	90                   	nop
    4170:	83 ec 0c             	sub    $0xc,%esp
    4173:	6a 24                	push   $0x24
    4175:	e8 86 4c 00 00       	call   8e00 <malloc@plt>
    417a:	83 c4 10             	add    $0x10,%esp
    417d:	89 c6                	mov    %eax,%esi
    417f:	85 c0                	test   %eax,%eax
    4181:	74 37                	je     41ba <fetch_input+0x5a>
    4183:	52                   	push   %edx
    4184:	52                   	push   %edx
    4185:	50                   	push   %eax
    4186:	8b 45 08             	mov    0x8(%ebp),%eax
    4189:	8b 48 08             	mov    0x8(%eax),%ecx
    418c:	51                   	push   %ecx
    418d:	e8 0e 4d 00 00       	call   8ea0 <win_get_event@plt>
    4192:	83 c4 10             	add    $0x10,%esp
    4195:	85 c0                	test   %eax,%eax
    4197:	75 2f                	jne    41c8 <fetch_input+0x68>
    4199:	8b 5e 08             	mov    0x8(%esi),%ebx
    419c:	50                   	push   %eax
    419d:	50                   	push   %eax
    419e:	56                   	push   %esi
    419f:	57                   	push   %edi
    41a0:	c7 06 00 00 00 00    	movl   $0x0,(%esi)
    41a6:	c7 46 04 00 00 00 00 	movl   $0x0,0x4(%esi)
    41ad:	e8 9e 4d 00 00       	call   8f50 <prodcons_produce@plt>
    41b2:	83 c4 10             	add    $0x10,%esp
    41b5:	83 fb 08             	cmp    $0x8,%ebx
    41b8:	75 b6                	jne    4170 <fetch_input+0x10>
    41ba:	8d 65 f4             	lea    -0xc(%ebp),%esp
    41bd:	31 c0                	xor    %eax,%eax
    41bf:	5b                   	pop    %ebx
    41c0:	5e                   	pop    %esi
    41c1:	5f                   	pop    %edi
    41c2:	5d                   	pop    %ebp
    41c3:	c3                   	ret    
    41c4:	8d 74 26 00          	lea    0x0(%esi,%eiz,1),%esi
    41c8:	83 ec 0c             	sub    $0xc,%esp
    41cb:	56                   	push   %esi
    41cc:	e8 0f 4e 00 00       	call   8fe0 <free@plt>
    41d1:	83 c4 10             	add    $0x10,%esp
    41d4:	8d 65 f4             	lea    -0xc(%ebp),%esp
    41d7:	31 c0                	xor    %eax,%eax
    41d9:	5b                   	pop    %ebx
    41da:	5e                   	pop    %esi
    41db:	5f                   	pop    %edi
    41dc:	5d                   	pop    %ebp
    41dd:	c3                   	ret    
    41de:	66 90                	xchg   %ax,%ax

000041e0 <paint_internal>:
    41e0:	55                   	push   %ebp
    41e1:	89 e5                	mov    %esp,%ebp
    41e3:	57                   	push   %edi
    41e4:	56                   	push   %esi
    41e5:	53                   	push   %ebx
    41e6:	81 ec e8 00 00 00    	sub    $0xe8,%esp
    41ec:	89 c3                	mov    %eax,%ebx
    41ee:	8b 70 14             	mov    0x14(%eax),%esi
    41f1:	8d 86 94 00 00 00    	lea    0x94(%esi),%eax
    41f7:	50                   	push   %eax
    41f8:	e8 f3 4d 00 00       	call   8ff0 <fibril_mutex_lock@plt>
    41fd:	8b 86 a4 00 00 00    	mov    0xa4(%esi),%eax
    4203:	83 c4 10             	add    $0x10,%esp
    4206:	89 85 2c ff ff ff    	mov    %eax,-0xd4(%ebp)
    420c:	85 c0                	test   %eax,%eax
    420e:	0f 84 5c 03 00 00    	je     4570 <paint_internal+0x390>
    4214:	83 ec 0c             	sub    $0xc,%esp
    4217:	8d 75 84             	lea    -0x7c(%ebp),%esi
    421a:	8d bd 4c ff ff ff    	lea    -0xb4(%ebp),%edi
    4220:	56                   	push   %esi
    4221:	e8 9a 2e 00 00       	call   70c0 <source_init>
    4226:	8b 8d 2c ff ff ff    	mov    -0xd4(%ebp),%ecx
    422c:	58                   	pop    %eax
    422d:	5a                   	pop    %edx
    422e:	51                   	push   %ecx
    422f:	57                   	push   %edi
    4230:	e8 fb 26 00 00       	call   6930 <drawctx_init>
    4235:	58                   	pop    %eax
    4236:	5a                   	pop    %edx
    4237:	56                   	push   %esi
    4238:	57                   	push   %edi
    4239:	e8 c2 28 00 00       	call   6b00 <drawctx_set_source>
    423e:	8b 4b 28             	mov    0x28(%ebx),%ecx
    4241:	8b 43 24             	mov    0x24(%ebx),%eax
    4244:	68 55 55 55 ff       	push   $0xff555555
    4249:	6a ff                	push   $0xffffffff
    424b:	51                   	push   %ecx
    424c:	50                   	push   %eax
    424d:	8b 43 1c             	mov    0x1c(%ebx),%eax
    4250:	50                   	push   %eax
    4251:	8b 43 20             	mov    0x20(%ebx),%eax
    4254:	50                   	push   %eax
    4255:	56                   	push   %esi
    4256:	57                   	push   %edi
    4257:	e8 e4 13 00 00       	call   5640 <draw_bevel>
    425c:	83 c4 28             	add    $0x28,%esp
    425f:	68 ba ba ba ff       	push   $0xffbababa
    4264:	56                   	push   %esi
    4265:	e8 e6 2e 00 00       	call   7150 <source_set_color>
    426a:	8b 43 24             	mov    0x24(%ebx),%eax
    426d:	83 e8 02             	sub    $0x2,%eax
    4270:	c7 04 24 02 00 00 00 	movl   $0x2,(%esp)
    4277:	50                   	push   %eax
    4278:	8b 43 20             	mov    0x20(%ebx),%eax
    427b:	40                   	inc    %eax
    427c:	50                   	push   %eax
    427d:	8b 43 1c             	mov    0x1c(%ebx),%eax
    4280:	40                   	inc    %eax
    4281:	50                   	push   %eax
    4282:	57                   	push   %edi
    4283:	e8 98 28 00 00       	call   6b20 <drawctx_transfer>
    4288:	83 c4 14             	add    $0x14,%esp
    428b:	8b 43 28             	mov    0x28(%ebx),%eax
    428e:	83 e8 02             	sub    $0x2,%eax
    4291:	50                   	push   %eax
    4292:	8b 43 20             	mov    0x20(%ebx),%eax
    4295:	40                   	inc    %eax
    4296:	6a 02                	push   $0x2
    4298:	50                   	push   %eax
    4299:	8b 43 1c             	mov    0x1c(%ebx),%eax
    429c:	40                   	inc    %eax
    429d:	50                   	push   %eax
    429e:	57                   	push   %edi
    429f:	e8 7c 28 00 00       	call   6b20 <drawctx_transfer>
    42a4:	83 c4 14             	add    $0x14,%esp
    42a7:	8b 43 24             	mov    0x24(%ebx),%eax
    42aa:	6a 02                	push   $0x2
    42ac:	83 e8 02             	sub    $0x2,%eax
    42af:	8b 53 20             	mov    0x20(%ebx),%edx
    42b2:	50                   	push   %eax
    42b3:	8b 43 28             	mov    0x28(%ebx),%eax
    42b6:	01 d0                	add    %edx,%eax
    42b8:	83 e8 03             	sub    $0x3,%eax
    42bb:	50                   	push   %eax
    42bc:	8b 43 1c             	mov    0x1c(%ebx),%eax
    42bf:	40                   	inc    %eax
    42c0:	50                   	push   %eax
    42c1:	57                   	push   %edi
    42c2:	e8 59 28 00 00       	call   6b20 <drawctx_transfer>
    42c7:	83 c4 14             	add    $0x14,%esp
    42ca:	8b 43 28             	mov    0x28(%ebx),%eax
    42cd:	8b 4b 1c             	mov    0x1c(%ebx),%ecx
    42d0:	83 e8 04             	sub    $0x4,%eax
    42d3:	50                   	push   %eax
    42d4:	8b 43 20             	mov    0x20(%ebx),%eax
    42d7:	40                   	inc    %eax
    42d8:	6a 02                	push   $0x2
    42da:	50                   	push   %eax
    42db:	8b 43 24             	mov    0x24(%ebx),%eax
    42de:	01 c8                	add    %ecx,%eax
    42e0:	83 e8 03             	sub    $0x3,%eax
    42e3:	50                   	push   %eax
    42e4:	57                   	push   %edi
    42e5:	e8 36 28 00 00       	call   6b20 <drawctx_transfer>
    42ea:	83 c4 20             	add    $0x20,%esp
    42ed:	8b 43 28             	mov    0x28(%ebx),%eax
    42f0:	6a ff                	push   $0xffffffff
    42f2:	83 e8 06             	sub    $0x6,%eax
    42f5:	68 55 55 55 ff       	push   $0xff555555
    42fa:	50                   	push   %eax
    42fb:	8b 43 24             	mov    0x24(%ebx),%eax
    42fe:	83 e8 06             	sub    $0x6,%eax
    4301:	50                   	push   %eax
    4302:	8b 43 20             	mov    0x20(%ebx),%eax
    4305:	83 c0 03             	add    $0x3,%eax
    4308:	50                   	push   %eax
    4309:	8b 43 1c             	mov    0x1c(%ebx),%eax
    430c:	83 c0 03             	add    $0x3,%eax
    430f:	50                   	push   %eax
    4310:	56                   	push   %esi
    4311:	57                   	push   %edi
    4312:	e8 29 13 00 00       	call   5640 <draw_bevel>
    4317:	8b 43 1c             	mov    0x1c(%ebx),%eax
    431a:	83 c4 20             	add    $0x20,%esp
    431d:	89 85 34 ff ff ff    	mov    %eax,-0xcc(%ebp)
    4323:	8d 50 04             	lea    0x4(%eax),%edx
    4326:	8b 43 14             	mov    0x14(%ebx),%eax
    4329:	89 95 30 ff ff ff    	mov    %edx,-0xd0(%ebp)
    432f:	8b 53 20             	mov    0x20(%ebx),%edx
    4332:	89 95 28 ff ff ff    	mov    %edx,-0xd8(%ebp)
    4338:	8d 4a 04             	lea    0x4(%edx),%ecx
    433b:	89 8d 24 ff ff ff    	mov    %ecx,-0xdc(%ebp)
    4341:	8b 4b 24             	mov    0x24(%ebx),%ecx
    4344:	89 8d 20 ff ff ff    	mov    %ecx,-0xe0(%ebp)
    434a:	83 e9 1c             	sub    $0x1c,%ecx
    434d:	80 78 02 01          	cmpb   $0x1,0x2(%eax)
    4351:	19 d2                	sbb    %edx,%edx
    4353:	81 e2 d1 e9 dc ff    	and    $0xffdce9d1,%edx
    4359:	81 ea a7 cf d7 00    	sub    $0xd7cfa7,%edx
    435f:	80 78 02 01          	cmpb   $0x1,0x2(%eax)
    4363:	19 c0                	sbb    %eax,%eax
    4365:	52                   	push   %edx
    4366:	25 7f bc 97 ff       	and    $0xff97bc7f,%eax
    436b:	2d 01 6e 87 00       	sub    $0x876e01,%eax
    4370:	50                   	push   %eax
    4371:	8b 85 24 ff ff ff    	mov    -0xdc(%ebp),%eax
    4377:	6a 14                	push   $0x14
    4379:	51                   	push   %ecx
    437a:	50                   	push   %eax
    437b:	8b 85 30 ff ff ff    	mov    -0xd0(%ebp),%eax
    4381:	50                   	push   %eax
    4382:	56                   	push   %esi
    4383:	57                   	push   %edi
    4384:	e8 b7 12 00 00       	call   5640 <draw_bevel>
    4389:	8b 43 14             	mov    0x14(%ebx),%eax
    438c:	83 c4 18             	add    $0x18,%esp
    438f:	80 78 02 01          	cmpb   $0x1,0x2(%eax)
    4393:	19 c0                	sbb    %eax,%eax
    4395:	25 98 ce b3 ff       	and    $0xffb3ce98,%eax
    439a:	2d 3c 95 a7 00       	sub    $0xa7953c,%eax
    439f:	50                   	push   %eax
    43a0:	56                   	push   %esi
    43a1:	e8 aa 2d 00 00       	call   7150 <source_set_color>
    43a6:	8b 8d 20 ff ff ff    	mov    -0xe0(%ebp),%ecx
    43ac:	8b 95 28 ff ff ff    	mov    -0xd8(%ebp),%edx
    43b2:	8d 41 e2             	lea    -0x1e(%ecx),%eax
    43b5:	c7 04 24 12 00 00 00 	movl   $0x12,(%esp)
    43bc:	50                   	push   %eax
    43bd:	8d 42 05             	lea    0x5(%edx),%eax
    43c0:	50                   	push   %eax
    43c1:	8b 85 34 ff ff ff    	mov    -0xcc(%ebp),%eax
    43c7:	83 c0 05             	add    $0x5,%eax
    43ca:	50                   	push   %eax
    43cb:	57                   	push   %edi
    43cc:	e8 4f 27 00 00       	call   6b20 <drawctx_transfer>
    43d1:	8b 53 1c             	mov    0x1c(%ebx),%edx
    43d4:	8b 43 24             	mov    0x24(%ebx),%eax
    43d7:	83 c4 20             	add    $0x20,%esp
    43da:	01 d0                	add    %edx,%eax
    43dc:	89 c2                	mov    %eax,%edx
    43de:	8b 43 20             	mov    0x20(%ebx),%eax
    43e1:	89 85 30 ff ff ff    	mov    %eax,-0xd0(%ebp)
    43e7:	83 c0 04             	add    $0x4,%eax
    43ea:	68 55 55 55 ff       	push   $0xff555555
    43ef:	6a ff                	push   $0xffffffff
    43f1:	6a 14                	push   $0x14
    43f3:	6a 14                	push   $0x14
    43f5:	50                   	push   %eax
    43f6:	89 d0                	mov    %edx,%eax
    43f8:	83 e8 18             	sub    $0x18,%eax
    43fb:	89 95 34 ff ff ff    	mov    %edx,-0xcc(%ebp)
    4401:	50                   	push   %eax
    4402:	56                   	push   %esi
    4403:	57                   	push   %edi
    4404:	e8 37 12 00 00       	call   5640 <draw_bevel>
    4409:	83 c4 18             	add    $0x18,%esp
    440c:	68 ba ba ba ff       	push   $0xffbababa
    4411:	56                   	push   %esi
    4412:	e8 39 2d 00 00       	call   7150 <source_set_color>
    4417:	8b 8d 30 ff ff ff    	mov    -0xd0(%ebp),%ecx
    441d:	8d 41 05             	lea    0x5(%ecx),%eax
    4420:	c7 04 24 12 00 00 00 	movl   $0x12,(%esp)
    4427:	6a 12                	push   $0x12
    4429:	50                   	push   %eax
    442a:	8b 85 34 ff ff ff    	mov    -0xcc(%ebp),%eax
    4430:	83 e8 17             	sub    $0x17,%eax
    4433:	50                   	push   %eax
    4434:	57                   	push   %edi
    4435:	e8 e6 26 00 00       	call   6b20 <drawctx_transfer>
    443a:	8b 8d 30 ff ff ff    	mov    -0xd0(%ebp),%ecx
    4440:	83 c4 14             	add    $0x14,%esp
    4443:	8d 41 07             	lea    0x7(%ecx),%eax
    4446:	8b 8d 2c ff ff ff    	mov    -0xd4(%ebp),%ecx
    444c:	68 55 55 55 ff       	push   $0xff555555
    4451:	6a ff                	push   $0xffffffff
    4453:	50                   	push   %eax
    4454:	8b 85 34 ff ff ff    	mov    -0xcc(%ebp),%eax
    445a:	83 e8 15             	sub    $0x15,%eax
    445d:	50                   	push   %eax
    445e:	51                   	push   %ecx
    445f:	e8 3c 0e 00 00       	call   52a0 <draw_icon_cross>
    4464:	83 c4 18             	add    $0x18,%esp
    4467:	8d 85 40 ff ff ff    	lea    -0xc0(%ebp),%eax
    446d:	6a 10                	push   $0x10
    446f:	50                   	push   %eax
    4470:	e8 9b 13 00 00       	call   5810 <embedded_font_create>
    4475:	83 c4 10             	add    $0x10,%esp
    4478:	85 c0                	test   %eax,%eax
    447a:	0f 85 d0 00 00 00    	jne    4550 <paint_internal+0x370>
    4480:	50                   	push   %eax
    4481:	50                   	push   %eax
    4482:	8b 85 40 ff ff ff    	mov    -0xc0(%ebp),%eax
    4488:	50                   	push   %eax
    4489:	57                   	push   %edi
    448a:	e8 81 26 00 00       	call   6b10 <drawctx_set_font>
    448f:	8b 43 14             	mov    0x14(%ebx),%eax
    4492:	80 78 02 00          	cmpb   $0x0,0x2(%eax)
    4496:	0f 95 c0             	setne  %al
    4499:	25 ff 00 00 00       	and    $0xff,%eax
    449e:	5a                   	pop    %edx
    449f:	f7 d8                	neg    %eax
    44a1:	0d cf cf cf ff       	or     $0xffcfcfcf,%eax
    44a6:	59                   	pop    %ecx
    44a7:	50                   	push   %eax
    44a8:	56                   	push   %esi
    44a9:	e8 a2 2c 00 00       	call   7150 <source_set_color>
    44ae:	8d 85 48 ff ff ff    	lea    -0xb8(%ebp),%eax
    44b4:	50                   	push   %eax
    44b5:	8d 85 44 ff ff ff    	lea    -0xbc(%ebp),%eax
    44bb:	50                   	push   %eax
    44bc:	8b 43 14             	mov    0x14(%ebx),%eax
    44bf:	8b 70 04             	mov    0x4(%eax),%esi
    44c2:	8b 85 40 ff ff ff    	mov    -0xc0(%ebp),%eax
    44c8:	56                   	push   %esi
    44c9:	50                   	push   %eax
    44ca:	e8 c1 29 00 00       	call   6e90 <font_get_box>
    44cf:	8b 95 44 ff ff ff    	mov    -0xbc(%ebp),%edx
    44d5:	8b 43 24             	mov    0x24(%ebx),%eax
    44d8:	8d 4a 1e             	lea    0x1e(%edx),%ecx
    44db:	83 c4 20             	add    $0x20,%esp
    44de:	39 c8                	cmp    %ecx,%eax
    44e0:	72 41                	jb     4523 <paint_internal+0x343>
    44e2:	8b 4b 14             	mov    0x14(%ebx),%ecx
    44e5:	8b 71 04             	mov    0x4(%ecx),%esi
    44e8:	89 b5 34 ff ff ff    	mov    %esi,-0xcc(%ebp)
    44ee:	85 f6                	test   %esi,%esi
    44f0:	74 31                	je     4523 <paint_internal+0x343>
    44f2:	8b b5 48 ff ff ff    	mov    -0xb8(%ebp),%esi
    44f8:	b9 14 00 00 00       	mov    $0x14,%ecx
    44fd:	29 f1                	sub    %esi,%ecx
    44ff:	8b 73 20             	mov    0x20(%ebx),%esi
    4502:	d1 e9                	shr    %ecx
    4504:	29 d0                	sub    %edx,%eax
    4506:	d1 e8                	shr    %eax
    4508:	8b 53 1c             	mov    0x1c(%ebx),%edx
    450b:	8d 4c 31 04          	lea    0x4(%ecx,%esi,1),%ecx
    450f:	01 d0                	add    %edx,%eax
    4511:	51                   	push   %ecx
    4512:	8b 8d 34 ff ff ff    	mov    -0xcc(%ebp),%ecx
    4518:	50                   	push   %eax
    4519:	51                   	push   %ecx
    451a:	57                   	push   %edi
    451b:	e8 70 28 00 00       	call   6d90 <drawctx_print>
    4520:	83 c4 10             	add    $0x10,%esp
    4523:	83 ec 0c             	sub    $0xc,%esp
    4526:	8b 85 40 ff ff ff    	mov    -0xc0(%ebp),%eax
    452c:	50                   	push   %eax
    452d:	e8 be 28 00 00       	call   6df0 <font_release>
    4532:	8b 43 14             	mov    0x14(%ebx),%eax
    4535:	05 94 00 00 00       	add    $0x94,%eax
    453a:	89 04 24             	mov    %eax,(%esp)
    453d:	e8 2e 49 00 00       	call   8e70 <fibril_mutex_unlock@plt>
    4542:	83 c4 10             	add    $0x10,%esp
    4545:	8d 65 f4             	lea    -0xc(%ebp),%esp
    4548:	5b                   	pop    %ebx
    4549:	5e                   	pop    %esi
    454a:	5f                   	pop    %edi
    454b:	5d                   	pop    %ebp
    454c:	c3                   	ret    
    454d:	8d 76 00             	lea    0x0(%esi),%esi
    4550:	83 ec 0c             	sub    $0xc,%esp
    4553:	8b 43 14             	mov    0x14(%ebx),%eax
    4556:	05 94 00 00 00       	add    $0x94,%eax
    455b:	50                   	push   %eax
    455c:	e8 0f 49 00 00       	call   8e70 <fibril_mutex_unlock@plt>
    4561:	83 c4 10             	add    $0x10,%esp
    4564:	8d 65 f4             	lea    -0xc(%ebp),%esp
    4567:	5b                   	pop    %ebx
    4568:	5e                   	pop    %esi
    4569:	5f                   	pop    %edi
    456a:	5d                   	pop    %ebp
    456b:	c3                   	ret    
    456c:	8d 74 26 00          	lea    0x0(%esi,%eiz,1),%esi
    4570:	83 ec 0c             	sub    $0xc,%esp
    4573:	8b 43 14             	mov    0x14(%ebx),%eax
    4576:	05 94 00 00 00       	add    $0x94,%eax
    457b:	50                   	push   %eax
    457c:	e8 ef 48 00 00       	call   8e70 <fibril_mutex_unlock@plt>
    4581:	83 c4 10             	add    $0x10,%esp
    4584:	e9 8b fc ff ff       	jmp    4214 <paint_internal+0x34>
    4589:	8d b4 26 00 00 00 00 	lea    0x0(%esi,%eiz,1),%esi

00004590 <root_reconfigure>:
    4590:	55                   	push   %ebp
    4591:	89 e5                	mov    %esp,%ebp
    4593:	57                   	push   %edi
    4594:	56                   	push   %esi
    4595:	53                   	push   %ebx
    4596:	83 ec 0c             	sub    $0xc,%esp
    4599:	8b 5d 08             	mov    0x8(%ebp),%ebx
    459c:	8b 43 14             	mov    0x14(%ebx),%eax
    459f:	80 78 01 00          	cmpb   $0x0,0x1(%eax)
    45a3:	74 43                	je     45e8 <root_reconfigure+0x58>
    45a5:	8b 73 10             	mov    0x10(%ebx),%esi
    45a8:	8d 7b 0c             	lea    0xc(%ebx),%edi
    45ab:	39 fe                	cmp    %edi,%esi
    45ad:	74 2e                	je     45dd <root_reconfigure+0x4d>
    45af:	90                   	nop
    45b0:	83 ec 0c             	sub    $0xc,%esp
    45b3:	8b 43 28             	mov    0x28(%ebx),%eax
    45b6:	83 e8 1c             	sub    $0x1c,%eax
    45b9:	50                   	push   %eax
    45ba:	8b 43 24             	mov    0x24(%ebx),%eax
    45bd:	83 e8 08             	sub    $0x8,%eax
    45c0:	50                   	push   %eax
    45c1:	8b 43 20             	mov    0x20(%ebx),%eax
    45c4:	83 c0 18             	add    $0x18,%eax
    45c7:	50                   	push   %eax
    45c8:	8b 43 1c             	mov    0x1c(%ebx),%eax
    45cb:	83 c0 04             	add    $0x4,%eax
    45ce:	50                   	push   %eax
    45cf:	56                   	push   %esi
    45d0:	ff 56 4c             	call   *0x4c(%esi)
    45d3:	8b 76 04             	mov    0x4(%esi),%esi
    45d6:	83 c4 20             	add    $0x20,%esp
    45d9:	39 fe                	cmp    %edi,%esi
    45db:	75 d3                	jne    45b0 <root_reconfigure+0x20>
    45dd:	8d 65 f4             	lea    -0xc(%ebp),%esp
    45e0:	5b                   	pop    %ebx
    45e1:	5e                   	pop    %esi
    45e2:	5f                   	pop    %edi
    45e3:	5d                   	pop    %ebp
    45e4:	c3                   	ret    
    45e5:	8d 76 00             	lea    0x0(%esi),%esi
    45e8:	8b 73 10             	mov    0x10(%ebx),%esi
    45eb:	8d 7b 0c             	lea    0xc(%ebx),%edi
    45ee:	39 f7                	cmp    %esi,%edi
    45f0:	74 eb                	je     45dd <root_reconfigure+0x4d>
    45f2:	8d b6 00 00 00 00    	lea    0x0(%esi),%esi
    45f8:	83 ec 0c             	sub    $0xc,%esp
    45fb:	8b 43 28             	mov    0x28(%ebx),%eax
    45fe:	50                   	push   %eax
    45ff:	8b 53 24             	mov    0x24(%ebx),%edx
    4602:	52                   	push   %edx
    4603:	8b 4b 20             	mov    0x20(%ebx),%ecx
    4606:	51                   	push   %ecx
    4607:	8b 43 1c             	mov    0x1c(%ebx),%eax
    460a:	50                   	push   %eax
    460b:	56                   	push   %esi
    460c:	ff 56 4c             	call   *0x4c(%esi)
    460f:	8b 76 04             	mov    0x4(%esi),%esi
    4612:	83 c4 20             	add    $0x20,%esp
    4615:	39 f7                	cmp    %esi,%edi
    4617:	75 df                	jne    45f8 <root_reconfigure+0x68>
    4619:	8d 65 f4             	lea    -0xc(%ebp),%esp
    461c:	5b                   	pop    %ebx
    461d:	5e                   	pop    %esi
    461e:	5f                   	pop    %edi
    461f:	5d                   	pop    %ebp
    4620:	c3                   	ret    
    4621:	eb 0d                	jmp    4630 <root_rearrange>
    4623:	90                   	nop
    4624:	90                   	nop
    4625:	90                   	nop
    4626:	90                   	nop
    4627:	90                   	nop
    4628:	90                   	nop
    4629:	90                   	nop
    462a:	90                   	nop
    462b:	90                   	nop
    462c:	90                   	nop
    462d:	90                   	nop
    462e:	90                   	nop
    462f:	90                   	nop

00004630 <root_rearrange>:
    4630:	55                   	push   %ebp
    4631:	89 e5                	mov    %esp,%ebp
    4633:	57                   	push   %edi
    4634:	56                   	push   %esi
    4635:	53                   	push   %ebx
    4636:	83 ec 28             	sub    $0x28,%esp
    4639:	8b 45 10             	mov    0x10(%ebp),%eax
    463c:	8b 75 14             	mov    0x14(%ebp),%esi
    463f:	8b 7d 18             	mov    0x18(%ebp),%edi
    4642:	8b 55 08             	mov    0x8(%ebp),%edx
    4645:	57                   	push   %edi
    4646:	56                   	push   %esi
    4647:	50                   	push   %eax
    4648:	8b 45 0c             	mov    0xc(%ebp),%eax
    464b:	50                   	push   %eax
    464c:	89 55 e4             	mov    %edx,-0x1c(%ebp)
    464f:	52                   	push   %edx
    4650:	e8 5b f7 ff ff       	call   3db0 <widget_modify>
    4655:	8b 55 e4             	mov    -0x1c(%ebp),%edx
    4658:	83 c4 20             	add    $0x20,%esp
    465b:	8b 42 14             	mov    0x14(%edx),%eax
    465e:	80 78 01 00          	cmpb   $0x0,0x1(%eax)
    4662:	75 3c                	jne    46a0 <root_rearrange+0x70>
    4664:	8d 42 0c             	lea    0xc(%edx),%eax
    4667:	8b 5a 10             	mov    0x10(%edx),%ebx
    466a:	89 45 e4             	mov    %eax,-0x1c(%ebp)
    466d:	39 c3                	cmp    %eax,%ebx
    466f:	74 23                	je     4694 <root_rearrange+0x64>
    4671:	8d b4 26 00 00 00 00 	lea    0x0(%esi,%eiz,1),%esi
    4678:	83 ec 0c             	sub    $0xc,%esp
    467b:	8b 45 10             	mov    0x10(%ebp),%eax
    467e:	8b 55 0c             	mov    0xc(%ebp),%edx
    4681:	57                   	push   %edi
    4682:	56                   	push   %esi
    4683:	50                   	push   %eax
    4684:	52                   	push   %edx
    4685:	53                   	push   %ebx
    4686:	ff 53 4c             	call   *0x4c(%ebx)
    4689:	8b 5b 04             	mov    0x4(%ebx),%ebx
    468c:	83 c4 20             	add    $0x20,%esp
    468f:	3b 5d e4             	cmp    -0x1c(%ebp),%ebx
    4692:	75 e4                	jne    4678 <root_rearrange+0x48>
    4694:	8d 65 f4             	lea    -0xc(%ebp),%esp
    4697:	5b                   	pop    %ebx
    4698:	5e                   	pop    %esi
    4699:	5f                   	pop    %edi
    469a:	5d                   	pop    %ebp
    469b:	c3                   	ret    
    469c:	8d 74 26 00          	lea    0x0(%esi,%eiz,1),%esi
    46a0:	89 d0                	mov    %edx,%eax
    46a2:	e8 39 fb ff ff       	call   41e0 <paint_internal>
    46a7:	8b 55 e4             	mov    -0x1c(%ebp),%edx
    46aa:	8d 42 0c             	lea    0xc(%edx),%eax
    46ad:	8b 5a 10             	mov    0x10(%edx),%ebx
    46b0:	89 45 e4             	mov    %eax,-0x1c(%ebp)
    46b3:	39 c3                	cmp    %eax,%ebx
    46b5:	74 dd                	je     4694 <root_rearrange+0x64>
    46b7:	8b 45 10             	mov    0x10(%ebp),%eax
    46ba:	83 ef 1c             	sub    $0x1c,%edi
    46bd:	83 c0 18             	add    $0x18,%eax
    46c0:	83 ee 08             	sub    $0x8,%esi
    46c3:	89 45 dc             	mov    %eax,-0x24(%ebp)
    46c6:	8b 45 0c             	mov    0xc(%ebp),%eax
    46c9:	83 c0 04             	add    $0x4,%eax
    46cc:	89 45 e0             	mov    %eax,-0x20(%ebp)
    46cf:	90                   	nop
    46d0:	83 ec 0c             	sub    $0xc,%esp
    46d3:	8b 4d dc             	mov    -0x24(%ebp),%ecx
    46d6:	8b 45 e0             	mov    -0x20(%ebp),%eax
    46d9:	57                   	push   %edi
    46da:	56                   	push   %esi
    46db:	51                   	push   %ecx
    46dc:	50                   	push   %eax
    46dd:	53                   	push   %ebx
    46de:	ff 53 4c             	call   *0x4c(%ebx)
    46e1:	8b 5b 04             	mov    0x4(%ebx),%ebx
    46e4:	83 c4 20             	add    $0x20,%esp
    46e7:	3b 5d e4             	cmp    -0x1c(%ebp),%ebx
    46ea:	75 e4                	jne    46d0 <root_rearrange+0xa0>
    46ec:	8d 65 f4             	lea    -0xc(%ebp),%esp
    46ef:	5b                   	pop    %ebx
    46f0:	5e                   	pop    %esi
    46f1:	5f                   	pop    %edi
    46f2:	5d                   	pop    %ebp
    46f3:	c3                   	ret    
    46f4:	8d b6 00 00 00 00    	lea    0x0(%esi),%esi
    46fa:	8d bf 00 00 00 00    	lea    0x0(%edi),%edi

00004700 <destroy_children>:
    4700:	55                   	push   %ebp
    4701:	89 e5                	mov    %esp,%ebp
    4703:	57                   	push   %edi
    4704:	56                   	push   %esi
    4705:	53                   	push   %ebx
    4706:	83 ec 4c             	sub    $0x4c,%esp
    4709:	89 45 a8             	mov    %eax,-0x58(%ebp)
    470c:	8b 48 10             	mov    0x10(%eax),%ecx
    470f:	83 c0 0c             	add    $0xc,%eax
    4712:	89 4d d4             	mov    %ecx,-0x2c(%ebp)
    4715:	89 45 bc             	mov    %eax,-0x44(%ebp)
    4718:	39 c1                	cmp    %eax,%ecx
    471a:	0f 84 af 01 00 00    	je     48cf <destroy_children+0x1cf>
    4720:	8b 45 d4             	mov    -0x2c(%ebp),%eax
    4723:	83 c0 0c             	add    $0xc,%eax
    4726:	8b 48 04             	mov    0x4(%eax),%ecx
    4729:	89 45 c0             	mov    %eax,-0x40(%ebp)
    472c:	89 4d d0             	mov    %ecx,-0x30(%ebp)
    472f:	39 c8                	cmp    %ecx,%eax
    4731:	0f 84 79 01 00 00    	je     48b0 <destroy_children+0x1b0>
    4737:	8b 45 d0             	mov    -0x30(%ebp),%eax
    473a:	83 c0 0c             	add    $0xc,%eax
