
edit:     file format elf32-i386


Disassembly of section .init:

000010f4 <__entry>:
    10f4:	66 8c d0             	mov    %ss,%ax
    10f7:	8e d8                	mov    %eax,%ds
    10f9:	8e c0                	mov    %eax,%es
    10fb:	8e e0                	mov    %eax,%fs
    10fd:	b8 01 00 00 00       	mov    $0x1,%eax
    1102:	0f a2                	cpuid  
    1104:	0f ba e2 0b          	bt     $0xb,%edx
    1108:	73 0c                	jae    1116 <__entry+0x22>
    110a:	8d 05 58 66 00 00    	lea    0x6658,%eax
    1110:	c7 00 f0 4e 00 00    	movl   $0x4ef0,(%eax)
    1116:	6a 00                	push   $0x0
    1118:	6a 00                	push   $0x0
    111a:	89 e5                	mov    %esp,%ebp
    111c:	57                   	push   %edi
    111d:	e8 be 3b 00 00       	call   4ce0 <__main@plt>

Disassembly of section .text:

00001130 <caret_update>:
    1130:	55                   	push   %ebp
    1131:	89 e5                	mov    %esp,%ebp
    1133:	53                   	push   %ebx
    1134:	83 ec 1c             	sub    $0x1c,%esp
    1137:	8d 5d e8             	lea    -0x18(%ebp),%ebx
    113a:	53                   	push   %ebx
    113b:	68 94 66 00 00       	push   $0x6694
    1140:	e8 db 34 00 00       	call   4620 <tag_get_pt>
    1145:	58                   	pop    %eax
    1146:	8d 45 f0             	lea    -0x10(%ebp),%eax
    1149:	5a                   	pop    %edx
    114a:	50                   	push   %eax
    114b:	53                   	push   %ebx
    114c:	e8 3f 33 00 00       	call   4490 <spt_get_coord>
    1151:	8b 55 f0             	mov    -0x10(%ebp),%edx
    1154:	8b 0d 88 66 00 00    	mov    0x6688,%ecx
    115a:	83 c4 10             	add    $0x10,%esp
    115d:	a1 90 66 00 00       	mov    0x6690,%eax
    1162:	39 ca                	cmp    %ecx,%edx
    1164:	7d 10                	jge    1176 <caret_update+0x46>
    1166:	a1 90 66 00 00       	mov    0x6690,%eax
    116b:	89 15 88 66 00 00    	mov    %edx,0x6688
    1171:	83 c8 01             	or     $0x1,%eax
    1174:	89 d1                	mov    %edx,%ecx
    1176:	8b 1d 80 66 00 00    	mov    0x6680,%ebx
    117c:	01 d9                	add    %ebx,%ecx
    117e:	39 ca                	cmp    %ecx,%edx
    1180:	7c 0c                	jl     118e <caret_update+0x5e>
    1182:	29 da                	sub    %ebx,%edx
    1184:	83 c8 01             	or     $0x1,%eax
    1187:	42                   	inc    %edx
    1188:	89 15 88 66 00 00    	mov    %edx,0x6688
    118e:	8b 55 f4             	mov    -0xc(%ebp),%edx
    1191:	8b 0d 8c 66 00 00    	mov    0x668c,%ecx
    1197:	39 ca                	cmp    %ecx,%edx
    1199:	7d 0b                	jge    11a6 <caret_update+0x76>
    119b:	89 15 8c 66 00 00    	mov    %edx,0x668c
    11a1:	83 c8 01             	or     $0x1,%eax
    11a4:	89 d1                	mov    %edx,%ecx
    11a6:	8b 1d 84 66 00 00    	mov    0x6684,%ebx
    11ac:	01 d9                	add    %ebx,%ecx
    11ae:	39 ca                	cmp    %ecx,%edx
    11b0:	7c 0c                	jl     11be <caret_update+0x8e>
    11b2:	29 da                	sub    %ebx,%edx
    11b4:	83 c8 01             	or     $0x1,%eax
    11b7:	42                   	inc    %edx
    11b8:	89 15 8c 66 00 00    	mov    %edx,0x668c
    11be:	83 c8 0c             	or     $0xc,%eax
    11c1:	8b 5d fc             	mov    -0x4(%ebp),%ebx
    11c4:	a3 90 66 00 00       	mov    %eax,0x6690
    11c9:	c9                   	leave  
    11ca:	c3                   	ret    
    11cb:	90                   	nop
    11cc:	8d 74 26 00          	lea    0x0(%esi,%eiz,1),%esi

000011d0 <caret_move>:
    11d0:	55                   	push   %ebp
    11d1:	89 e5                	mov    %esp,%ebp
    11d3:	57                   	push   %edi
    11d4:	56                   	push   %esi
    11d5:	53                   	push   %ebx
    11d6:	83 ec 44             	sub    $0x44,%esp
    11d9:	8d 75 c8             	lea    -0x38(%ebp),%esi
    11dc:	89 45 c0             	mov    %eax,-0x40(%ebp)
    11df:	89 55 c4             	mov    %edx,-0x3c(%ebp)
    11e2:	56                   	push   %esi
    11e3:	89 4d bc             	mov    %ecx,-0x44(%ebp)
    11e6:	68 94 66 00 00       	push   $0x6694
    11eb:	8b 7d 08             	mov    0x8(%ebp),%edi
    11ee:	e8 2d 34 00 00       	call   4620 <tag_get_pt>
    11f3:	59                   	pop    %ecx
    11f4:	5b                   	pop    %ebx
    11f5:	8d 5d d0             	lea    -0x30(%ebp),%ebx
    11f8:	53                   	push   %ebx
    11f9:	68 a4 66 00 00       	push   $0x66a4
    11fe:	e8 1d 34 00 00       	call   4620 <tag_get_pt>
    1203:	58                   	pop    %eax
    1204:	5a                   	pop    %edx
    1205:	53                   	push   %ebx
    1206:	56                   	push   %esi
    1207:	e8 14 33 00 00       	call   4520 <spt_equal>
    120c:	88 45 bb             	mov    %al,-0x45(%ebp)
    120f:	a1 cc 66 00 00       	mov    0x66cc,%eax
    1214:	59                   	pop    %ecx
    1215:	5b                   	pop    %ebx
    1216:	68 94 66 00 00       	push   $0x6694
    121b:	50                   	push   %eax
    121c:	e8 cf 33 00 00       	call   45f0 <sheet_remove_tag>
    1221:	83 c4 0c             	add    $0xc,%esp
    1224:	a1 cc 66 00 00       	mov    0x66cc,%eax
    1229:	8d 5d c0             	lea    -0x40(%ebp),%ebx
    122c:	68 94 66 00 00       	push   $0x6694
    1231:	53                   	push   %ebx
    1232:	50                   	push   %eax
    1233:	e8 88 33 00 00       	call   45c0 <sheet_place_tag>
    1238:	8b 4d bc             	mov    -0x44(%ebp),%ecx
    123b:	83 c4 10             	add    $0x10,%esp
    123e:	84 c9                	test   %cl,%cl
    1240:	74 46                	je     1288 <caret_move+0xb8>
    1242:	50                   	push   %eax
    1243:	50                   	push   %eax
    1244:	8d 45 e0             	lea    -0x20(%ebp),%eax
    1247:	50                   	push   %eax
    1248:	53                   	push   %ebx
    1249:	e8 42 32 00 00       	call   4490 <spt_get_coord>
    124e:	8d 45 d8             	lea    -0x28(%ebp),%eax
    1251:	5a                   	pop    %edx
    1252:	59                   	pop    %ecx
    1253:	50                   	push   %eax
    1254:	56                   	push   %esi
    1255:	e8 36 32 00 00       	call   4490 <spt_get_coord>
    125a:	8b 45 e0             	mov    -0x20(%ebp),%eax
    125d:	83 c4 10             	add    $0x10,%esp
    1260:	39 45 d8             	cmp    %eax,-0x28(%ebp)
    1263:	74 63                	je     12c8 <caret_move+0xf8>
    1265:	83 0d 90 66 00 00 01 	orl    $0x1,0x6690
    126c:	89 f8                	mov    %edi,%eax
    126e:	84 c0                	test   %al,%al
    1270:	74 08                	je     127a <caret_move+0xaa>
    1272:	8b 45 e4             	mov    -0x1c(%ebp),%eax
    1275:	a3 b8 66 00 00       	mov    %eax,0x66b8
    127a:	e8 b1 fe ff ff       	call   1130 <caret_update>
    127f:	8d 65 f4             	lea    -0xc(%ebp),%esp
    1282:	5b                   	pop    %ebx
    1283:	5e                   	pop    %esi
    1284:	5f                   	pop    %edi
    1285:	5d                   	pop    %ebp
    1286:	c3                   	ret    
    1287:	90                   	nop
    1288:	a1 cc 66 00 00       	mov    0x66cc,%eax
    128d:	56                   	push   %esi
    128e:	56                   	push   %esi
    128f:	68 a4 66 00 00       	push   $0x66a4
    1294:	50                   	push   %eax
    1295:	e8 56 33 00 00       	call   45f0 <sheet_remove_tag>
    129a:	83 c4 0c             	add    $0xc,%esp
    129d:	a1 cc 66 00 00       	mov    0x66cc,%eax
    12a2:	68 a4 66 00 00       	push   $0x66a4
    12a7:	53                   	push   %ebx
    12a8:	50                   	push   %eax
    12a9:	e8 12 33 00 00       	call   45c0 <sheet_place_tag>
    12ae:	58                   	pop    %eax
    12af:	8d 45 e0             	lea    -0x20(%ebp),%eax
    12b2:	5a                   	pop    %edx
    12b3:	50                   	push   %eax
    12b4:	53                   	push   %ebx
    12b5:	e8 d6 31 00 00       	call   4490 <spt_get_coord>
    12ba:	83 c4 10             	add    $0x10,%esp
    12bd:	80 7d bb 00          	cmpb   $0x0,-0x45(%ebp)
    12c1:	75 a9                	jne    126c <caret_move+0x9c>
    12c3:	eb a0                	jmp    1265 <caret_move+0x95>
    12c5:	8d 76 00             	lea    0x0(%esi),%esi
    12c8:	83 0d 90 66 00 00 02 	orl    $0x2,0x6690
    12cf:	eb 9b                	jmp    126c <caret_move+0x9c>
    12d1:	eb 0d                	jmp    12e0 <status_display>
    12d3:	90                   	nop
    12d4:	90                   	nop
    12d5:	90                   	nop
    12d6:	90                   	nop
    12d7:	90                   	nop
    12d8:	90                   	nop
    12d9:	90                   	nop
    12da:	90                   	nop
    12db:	90                   	nop
    12dc:	90                   	nop
    12dd:	90                   	nop
    12de:	90                   	nop
    12df:	90                   	nop

000012e0 <status_display>:
    12e0:	55                   	push   %ebp
    12e1:	89 e5                	mov    %esp,%ebp
    12e3:	53                   	push   %ebx
    12e4:	83 ec 08             	sub    $0x8,%esp
    12e7:	89 c3                	mov    %eax,%ebx
    12e9:	a1 64 66 00 00       	mov    0x6664,%eax
    12ee:	8b 0d d0 66 00 00    	mov    0x66d0,%ecx
    12f4:	8d 50 ff             	lea    -0x1(%eax),%edx
    12f7:	52                   	push   %edx
    12f8:	6a 00                	push   $0x0
    12fa:	51                   	push   %ecx
    12fb:	e8 b0 3b 00 00       	call   4eb0 <console_set_pos@plt>
    1300:	8b 0d d0 66 00 00    	mov    0x66d0,%ecx
    1306:	58                   	pop    %eax
    1307:	5a                   	pop    %edx
    1308:	6a 02                	push   $0x2
    130a:	51                   	push   %ecx
    130b:	e8 20 3b 00 00       	call   4e30 <console_set_style@plt>
    1310:	83 c4 0c             	add    $0xc,%esp
    1313:	b8 03 00 00 00       	mov    $0x3,%eax
    1318:	53                   	push   %ebx
    1319:	8b 1d 60 66 00 00    	mov    0x6660,%ebx
    131f:	29 d8                	sub    %ebx,%eax
    1321:	50                   	push   %eax
    1322:	68 ee 48 00 00       	push   $0x48ee
    1327:	e8 e4 39 00 00       	call   4d10 <printf@plt>
    132c:	58                   	pop    %eax
    132d:	a1 d0 66 00 00       	mov    0x66d0,%eax
    1332:	50                   	push   %eax
    1333:	e8 48 3b 00 00       	call   4e80 <console_flush@plt>
    1338:	8b 0d d0 66 00 00    	mov    0x66d0,%ecx
    133e:	58                   	pop    %eax
    133f:	5a                   	pop    %edx
    1340:	6a 00                	push   $0x0
    1342:	51                   	push   %ecx
    1343:	e8 e8 3a 00 00       	call   4e30 <console_set_style@plt>
    1348:	83 0d 90 66 00 00 08 	orl    $0x8,0x6690
    134f:	83 c4 10             	add    $0x10,%esp
    1352:	8b 5d fc             	mov    -0x4(%ebp),%ebx
    1355:	c9                   	leave  
    1356:	c3                   	ret    
    1357:	89 f6                	mov    %esi,%esi
    1359:	8d bc 27 00 00 00 00 	lea    0x0(%edi,%eiz,1),%edi

00001360 <search_spt_mark_free>:
    1360:	55                   	push   %ebp
    1361:	89 e5                	mov    %esp,%ebp
    1363:	5d                   	pop    %ebp
    1364:	e9 97 3b 00 00       	jmp    4f00 <free@plt>
    1369:	8d b4 26 00 00 00 00 	lea    0x0(%esi,%eiz,1),%esi

00001370 <pane_row_range_display>:
    1370:	55                   	push   %ebp
    1371:	89 e5                	mov    %esp,%ebp
    1373:	57                   	push   %edi
    1374:	56                   	push   %esi
    1375:	53                   	push   %ebx
    1376:	81 ec 74 10 00 00    	sub    $0x1074,%esp
    137c:	8d 9d c0 ef ff ff    	lea    -0x1040(%ebp),%ebx
    1382:	89 95 8c ef ff ff    	mov    %edx,-0x1074(%ebp)
    1388:	89 85 90 ef ff ff    	mov    %eax,-0x1070(%ebp)
    138e:	53                   	push   %ebx
    138f:	68 a4 66 00 00       	push   $0x66a4
    1394:	e8 87 32 00 00       	call   4620 <tag_get_pt>
    1399:	8d 85 d8 ef ff ff    	lea    -0x1028(%ebp),%eax
    139f:	59                   	pop    %ecx
    13a0:	5e                   	pop    %esi
    13a1:	50                   	push   %eax
    13a2:	53                   	push   %ebx
    13a3:	e8 e8 30 00 00       	call   4490 <spt_get_coord>
    13a8:	5f                   	pop    %edi
    13a9:	58                   	pop    %eax
    13aa:	53                   	push   %ebx
    13ab:	68 94 66 00 00       	push   $0x6694
    13b0:	e8 6b 32 00 00       	call   4620 <tag_get_pt>
    13b5:	58                   	pop    %eax
    13b6:	8d 85 e0 ef ff ff    	lea    -0x1020(%ebp),%eax
    13bc:	5a                   	pop    %edx
    13bd:	50                   	push   %eax
    13be:	53                   	push   %ebx
    13bf:	e8 cc 30 00 00       	call   4490 <spt_get_coord>
    13c4:	8b 8d d8 ef ff ff    	mov    -0x1028(%ebp),%ecx
    13ca:	8b 85 e0 ef ff ff    	mov    -0x1020(%ebp),%eax
    13d0:	83 c4 10             	add    $0x10,%esp
    13d3:	39 c8                	cmp    %ecx,%eax
    13d5:	0f 84 ab 03 00 00    	je     1786 <pane_row_range_display+0x416>
    13db:	89 ca                	mov    %ecx,%edx
    13dd:	29 c2                	sub    %eax,%edx
    13df:	89 d0                	mov    %edx,%eax
    13e1:	85 c0                	test   %eax,%eax
    13e3:	7e 2a                	jle    140f <pane_row_range_display+0x9f>
    13e5:	8b 9d dc ef ff ff    	mov    -0x1024(%ebp),%ebx
    13eb:	8b 85 e0 ef ff ff    	mov    -0x1020(%ebp),%eax
    13f1:	8b 95 e4 ef ff ff    	mov    -0x101c(%ebp),%edx
    13f7:	89 85 d8 ef ff ff    	mov    %eax,-0x1028(%ebp)
    13fd:	89 95 dc ef ff ff    	mov    %edx,-0x1024(%ebp)
    1403:	89 8d e0 ef ff ff    	mov    %ecx,-0x1020(%ebp)
    1409:	89 9d e4 ef ff ff    	mov    %ebx,-0x101c(%ebp)
    140f:	50                   	push   %eax
    1410:	a1 d0 66 00 00       	mov    0x66d0,%eax
    1415:	6a 00                	push   $0x0
    1417:	6a 00                	push   $0x0
    1419:	50                   	push   %eax
    141a:	e8 91 3a 00 00       	call   4eb0 <console_set_pos@plt>
    141f:	8b 95 8c ef ff ff    	mov    -0x1074(%ebp),%edx
    1425:	83 c4 10             	add    $0x10,%esp
    1428:	39 95 90 ef ff ff    	cmp    %edx,-0x1070(%ebp)
    142e:	0f 8d 96 02 00 00    	jge    16ca <pane_row_range_display+0x35a>
    1434:	8d 74 26 00          	lea    0x0(%esi,%eiz,1),%esi
    1438:	8b bd 90 ef ff ff    	mov    -0x1070(%ebp),%edi
    143e:	a1 88 66 00 00       	mov    0x6688,%eax
    1443:	01 f8                	add    %edi,%eax
    1445:	8b 1d cc 66 00 00    	mov    0x66cc,%ebx
    144b:	89 85 c8 ef ff ff    	mov    %eax,-0x1038(%ebp)
    1451:	a1 8c 66 00 00       	mov    0x668c,%eax
    1456:	89 85 cc ef ff ff    	mov    %eax,-0x1034(%ebp)
    145c:	8d 85 a8 ef ff ff    	lea    -0x1058(%ebp),%eax
    1462:	50                   	push   %eax
    1463:	8d 85 c8 ef ff ff    	lea    -0x1038(%ebp),%eax
    1469:	6a 00                	push   $0x0
    146b:	50                   	push   %eax
    146c:	53                   	push   %ebx
    146d:	e8 2e 2e 00 00       	call   42a0 <sheet_get_cell_pt>
    1472:	a1 88 66 00 00       	mov    0x6688,%eax
    1477:	8b 35 8c 66 00 00    	mov    0x668c,%esi
    147d:	01 f8                	add    %edi,%eax
    147f:	8b 3d cc 66 00 00    	mov    0x66cc,%edi
    1485:	89 85 d0 ef ff ff    	mov    %eax,-0x1030(%ebp)
    148b:	a1 84 66 00 00       	mov    0x6684,%eax
    1490:	01 f0                	add    %esi,%eax
    1492:	89 85 d4 ef ff ff    	mov    %eax,-0x102c(%ebp)
    1498:	8d 85 b0 ef ff ff    	lea    -0x1050(%ebp),%eax
    149e:	50                   	push   %eax
    149f:	8d 85 d0 ef ff ff    	lea    -0x1030(%ebp),%eax
    14a5:	6a 00                	push   $0x0
    14a7:	50                   	push   %eax
    14a8:	57                   	push   %edi
    14a9:	e8 f2 2d 00 00       	call   42a0 <sheet_get_cell_pt>
    14ae:	83 c4 18             	add    $0x18,%esp
    14b1:	8d 85 b8 ef ff ff    	lea    -0x1048(%ebp),%eax
    14b7:	50                   	push   %eax
    14b8:	8d 85 e8 ef ff ff    	lea    -0x1018(%ebp),%eax
    14be:	68 00 10 00 00       	push   $0x1000
    14c3:	50                   	push   %eax
    14c4:	8d 85 b0 ef ff ff    	lea    -0x1050(%ebp),%eax
    14ca:	50                   	push   %eax
    14cb:	8d 85 a8 ef ff ff    	lea    -0x1058(%ebp),%eax
    14d1:	50                   	push   %eax
    14d2:	a1 cc 66 00 00       	mov    0x66cc,%eax
    14d7:	50                   	push   %eax
    14d8:	e8 43 2d 00 00       	call   4220 <sheet_copy_out>
    14dd:	8b 85 d8 ef ff ff    	mov    -0x1028(%ebp),%eax
    14e3:	8b 95 c8 ef ff ff    	mov    -0x1038(%ebp),%edx
    14e9:	83 c4 20             	add    $0x20,%esp
    14ec:	39 d0                	cmp    %edx,%eax
    14ee:	0f 84 25 02 00 00    	je     1719 <pane_row_range_display+0x3a9>
    14f4:	29 d0                	sub    %edx,%eax
    14f6:	85 c0                	test   %eax,%eax
    14f8:	0f 8e 31 02 00 00    	jle    172f <pane_row_range_display+0x3bf>
    14fe:	50                   	push   %eax
    14ff:	8b 85 90 ef ff ff    	mov    -0x1070(%ebp),%eax
    1505:	50                   	push   %eax
    1506:	a1 d0 66 00 00       	mov    0x66d0,%eax
    150b:	6a 00                	push   $0x0
    150d:	50                   	push   %eax
    150e:	e8 9d 39 00 00       	call   4eb0 <console_set_pos@plt>
    1513:	8d 85 e8 ef ff ff    	lea    -0x1018(%ebp),%eax
    1519:	89 04 24             	mov    %eax,(%esp)
    151c:	e8 6f 39 00 00       	call   4e90 <str_size@plt>
    1521:	c7 85 a4 ef ff ff 00 	movl   $0x0,-0x105c(%ebp)
    1528:	00 00 00 
    152b:	89 85 94 ef ff ff    	mov    %eax,-0x106c(%ebp)
    1531:	8b 1d 8c 66 00 00    	mov    0x668c,%ebx
    1537:	83 c4 10             	add    $0x10,%esp
    153a:	31 c0                	xor    %eax,%eax
    153c:	eb 19                	jmp    1557 <pane_row_range_display+0x1e7>
    153e:	66 90                	xchg   %ax,%ax
    1540:	52                   	push   %edx
    1541:	52                   	push   %edx
    1542:	50                   	push   %eax
    1543:	68 f4 48 00 00       	push   $0x48f4
    1548:	43                   	inc    %ebx
    1549:	e8 c2 37 00 00       	call   4d10 <printf@plt>
    154e:	83 c4 10             	add    $0x10,%esp
    1551:	8b 85 a4 ef ff ff    	mov    -0x105c(%ebp),%eax
    1557:	39 85 94 ef ff ff    	cmp    %eax,-0x106c(%ebp)
    155d:	8b 85 c8 ef ff ff    	mov    -0x1038(%ebp),%eax
    1563:	0f 86 ef 00 00 00    	jbe    1658 <pane_row_range_display+0x2e8>
    1569:	39 85 d8 ef ff ff    	cmp    %eax,-0x1028(%ebp)
    156f:	0f 84 9b 00 00 00    	je     1610 <pane_row_range_display+0x2a0>
    1575:	39 85 e0 ef ff ff    	cmp    %eax,-0x1020(%ebp)
    157b:	74 53                	je     15d0 <pane_row_range_display+0x260>
    157d:	8b b5 94 ef ff ff    	mov    -0x106c(%ebp),%esi
    1583:	8d 85 a4 ef ff ff    	lea    -0x105c(%ebp),%eax
    1589:	51                   	push   %ecx
    158a:	56                   	push   %esi
    158b:	50                   	push   %eax
    158c:	8d 85 e8 ef ff ff    	lea    -0x1018(%ebp),%eax
    1592:	50                   	push   %eax
    1593:	e8 98 37 00 00       	call   4d30 <str_decode@plt>
    1598:	83 c4 10             	add    $0x10,%esp
    159b:	83 f8 09             	cmp    $0x9,%eax
    159e:	75 a0                	jne    1540 <pane_row_range_display+0x1d0>
    15a0:	8d 7b 07             	lea    0x7(%ebx),%edi
    15a3:	83 e7 f8             	and    $0xfffffff8,%edi
    15a6:	47                   	inc    %edi
    15a7:	89 fe                	mov    %edi,%esi
    15a9:	29 de                	sub    %ebx,%esi
    15ab:	85 f6                	test   %esi,%esi
    15ad:	7e 1b                	jle    15ca <pane_row_range_display+0x25a>
    15af:	31 db                	xor    %ebx,%ebx
    15b1:	8d b4 26 00 00 00 00 	lea    0x0(%esi,%eiz,1),%esi
    15b8:	83 ec 0c             	sub    $0xc,%esp
    15bb:	43                   	inc    %ebx
    15bc:	6a 20                	push   $0x20
    15be:	e8 0d 37 00 00       	call   4cd0 <putchar@plt>
    15c3:	83 c4 10             	add    $0x10,%esp
    15c6:	39 de                	cmp    %ebx,%esi
    15c8:	75 ee                	jne    15b8 <pane_row_range_display+0x248>
    15ca:	89 fb                	mov    %edi,%ebx
    15cc:	eb 83                	jmp    1551 <pane_row_range_display+0x1e1>
    15ce:	66 90                	xchg   %ax,%ax
    15d0:	3b 9d e4 ef ff ff    	cmp    -0x101c(%ebp),%ebx
    15d6:	75 a5                	jne    157d <pane_row_range_display+0x20d>
    15d8:	83 ec 0c             	sub    $0xc,%esp
    15db:	8b 3d d0 66 00 00    	mov    0x66d0,%edi
    15e1:	57                   	push   %edi
    15e2:	e8 99 38 00 00       	call   4e80 <console_flush@plt>
    15e7:	8b 0d d0 66 00 00    	mov    0x66d0,%ecx
    15ed:	58                   	pop    %eax
    15ee:	5a                   	pop    %edx
    15ef:	6a 00                	push   $0x0
    15f1:	51                   	push   %ecx
    15f2:	e8 39 38 00 00       	call   4e30 <console_set_style@plt>
    15f7:	8b 3d d0 66 00 00    	mov    0x66d0,%edi
    15fd:	5e                   	pop    %esi
    15fe:	57                   	push   %edi
    15ff:	e8 7c 38 00 00       	call   4e80 <console_flush@plt>
    1604:	83 c4 10             	add    $0x10,%esp
    1607:	e9 71 ff ff ff       	jmp    157d <pane_row_range_display+0x20d>
    160c:	8d 74 26 00          	lea    0x0(%esi,%eiz,1),%esi
    1610:	3b 9d dc ef ff ff    	cmp    -0x1024(%ebp),%ebx
    1616:	0f 85 59 ff ff ff    	jne    1575 <pane_row_range_display+0x205>
    161c:	83 ec 0c             	sub    $0xc,%esp
    161f:	a1 d0 66 00 00       	mov    0x66d0,%eax
    1624:	50                   	push   %eax
    1625:	e8 56 38 00 00       	call   4e80 <console_flush@plt>
    162a:	8b 0d d0 66 00 00    	mov    0x66d0,%ecx
    1630:	58                   	pop    %eax
    1631:	5a                   	pop    %edx
    1632:	6a 03                	push   $0x3
    1634:	51                   	push   %ecx
    1635:	e8 f6 37 00 00       	call   4e30 <console_set_style@plt>
    163a:	8b 3d d0 66 00 00    	mov    0x66d0,%edi
    1640:	5e                   	pop    %esi
    1641:	57                   	push   %edi
    1642:	e8 39 38 00 00       	call   4e80 <console_flush@plt>
    1647:	8b 85 c8 ef ff ff    	mov    -0x1038(%ebp),%eax
    164d:	83 c4 10             	add    $0x10,%esp
    1650:	e9 20 ff ff ff       	jmp    1575 <pane_row_range_display+0x205>
    1655:	8d 76 00             	lea    0x0(%esi),%esi
    1658:	39 85 e0 ef ff ff    	cmp    %eax,-0x1020(%ebp)
    165e:	74 79                	je     16d9 <pane_row_range_display+0x369>
    1660:	a1 60 66 00 00       	mov    0x6660,%eax
    1665:	8d 53 ff             	lea    -0x1(%ebx),%edx
    1668:	39 c2                	cmp    %eax,%edx
    166a:	73 1e                	jae    168a <pane_row_range_display+0x31a>
    166c:	8d 70 01             	lea    0x1(%eax),%esi
    166f:	29 de                	sub    %ebx,%esi
    1671:	85 f6                	test   %esi,%esi
    1673:	7e 15                	jle    168a <pane_row_range_display+0x31a>
    1675:	31 db                	xor    %ebx,%ebx
    1677:	90                   	nop
    1678:	83 ec 0c             	sub    $0xc,%esp
    167b:	43                   	inc    %ebx
    167c:	6a 20                	push   $0x20
    167e:	e8 4d 36 00 00       	call   4cd0 <putchar@plt>
    1683:	83 c4 10             	add    $0x10,%esp
    1686:	39 de                	cmp    %ebx,%esi
    1688:	75 ee                	jne    1678 <pane_row_range_display+0x308>
    168a:	83 ec 0c             	sub    $0xc,%esp
    168d:	a1 d0 66 00 00       	mov    0x66d0,%eax
    1692:	50                   	push   %eax
    1693:	e8 e8 37 00 00       	call   4e80 <console_flush@plt>
    1698:	8b 1d d0 66 00 00    	mov    0x66d0,%ebx
    169e:	5a                   	pop    %edx
    169f:	59                   	pop    %ecx
    16a0:	6a 00                	push   $0x0
    16a2:	53                   	push   %ebx
    16a3:	e8 88 37 00 00       	call   4e30 <console_set_style@plt>
    16a8:	8b b5 90 ef ff ff    	mov    -0x1070(%ebp),%esi
    16ae:	83 c4 10             	add    $0x10,%esp
    16b1:	46                   	inc    %esi
    16b2:	89 b5 90 ef ff ff    	mov    %esi,-0x1070(%ebp)
    16b8:	8b 85 90 ef ff ff    	mov    -0x1070(%ebp),%eax
    16be:	39 85 8c ef ff ff    	cmp    %eax,-0x1074(%ebp)
    16c4:	0f 85 6e fd ff ff    	jne    1438 <pane_row_range_display+0xc8>
    16ca:	83 0d 90 66 00 00 08 	orl    $0x8,0x6690
    16d1:	8d 65 f4             	lea    -0xc(%ebp),%esp
    16d4:	5b                   	pop    %ebx
    16d5:	5e                   	pop    %esi
    16d6:	5f                   	pop    %edi
    16d7:	5d                   	pop    %ebp
    16d8:	c3                   	ret    
    16d9:	3b 9d e4 ef ff ff    	cmp    -0x101c(%ebp),%ebx
    16df:	0f 85 7b ff ff ff    	jne    1660 <pane_row_range_display+0x2f0>
    16e5:	83 ec 0c             	sub    $0xc,%esp
    16e8:	8b 3d d0 66 00 00    	mov    0x66d0,%edi
    16ee:	57                   	push   %edi
    16ef:	e8 8c 37 00 00       	call   4e80 <console_flush@plt>
    16f4:	8b 0d d0 66 00 00    	mov    0x66d0,%ecx
    16fa:	58                   	pop    %eax
    16fb:	5a                   	pop    %edx
    16fc:	6a 00                	push   $0x0
    16fe:	51                   	push   %ecx
    16ff:	e8 2c 37 00 00       	call   4e30 <console_set_style@plt>
    1704:	8b 3d d0 66 00 00    	mov    0x66d0,%edi
    170a:	5e                   	pop    %esi
    170b:	57                   	push   %edi
    170c:	e8 6f 37 00 00       	call   4e80 <console_flush@plt>
    1711:	83 c4 10             	add    $0x10,%esp
    1714:	e9 47 ff ff ff       	jmp    1660 <pane_row_range_display+0x2f0>
    1719:	8b 85 dc ef ff ff    	mov    -0x1024(%ebp),%eax
    171f:	8b 8d cc ef ff ff    	mov    -0x1034(%ebp),%ecx
    1725:	29 c8                	sub    %ecx,%eax
    1727:	85 c0                	test   %eax,%eax
    1729:	0f 8f cf fd ff ff    	jg     14fe <pane_row_range_display+0x18e>
    172f:	8b 85 e0 ef ff ff    	mov    -0x1020(%ebp),%eax
    1735:	39 c2                	cmp    %eax,%edx
    1737:	74 3d                	je     1776 <pane_row_range_display+0x406>
    1739:	29 c2                	sub    %eax,%edx
    173b:	85 d2                	test   %edx,%edx
    173d:	0f 89 bb fd ff ff    	jns    14fe <pane_row_range_display+0x18e>
    1743:	83 ec 0c             	sub    $0xc,%esp
    1746:	a1 d0 66 00 00       	mov    0x66d0,%eax
    174b:	50                   	push   %eax
    174c:	e8 2f 37 00 00       	call   4e80 <console_flush@plt>
    1751:	8b 0d d0 66 00 00    	mov    0x66d0,%ecx
    1757:	58                   	pop    %eax
    1758:	5a                   	pop    %edx
    1759:	6a 03                	push   $0x3
    175b:	51                   	push   %ecx
    175c:	e8 cf 36 00 00       	call   4e30 <console_set_style@plt>
    1761:	8b 35 d0 66 00 00    	mov    0x66d0,%esi
    1767:	5b                   	pop    %ebx
    1768:	56                   	push   %esi
    1769:	e8 12 37 00 00       	call   4e80 <console_flush@plt>
    176e:	83 c4 10             	add    $0x10,%esp
    1771:	e9 88 fd ff ff       	jmp    14fe <pane_row_range_display+0x18e>
    1776:	8b 95 cc ef ff ff    	mov    -0x1034(%ebp),%edx
    177c:	8b bd e4 ef ff ff    	mov    -0x101c(%ebp),%edi
    1782:	29 fa                	sub    %edi,%edx
    1784:	eb b5                	jmp    173b <pane_row_range_display+0x3cb>
    1786:	8b 85 dc ef ff ff    	mov    -0x1024(%ebp),%eax
    178c:	8b 95 e4 ef ff ff    	mov    -0x101c(%ebp),%edx
    1792:	29 d0                	sub    %edx,%eax
    1794:	e9 48 fc ff ff       	jmp    13e1 <pane_row_range_display+0x71>
    1799:	8d b4 26 00 00 00 00 	lea    0x0(%esi,%eiz,1),%esi

000017a0 <pt_is_punctuation>:
    17a0:	55                   	push   %ebp
    17a1:	89 e5                	mov    %esp,%ebp
    17a3:	57                   	push   %edi
    17a4:	56                   	push   %esi
    17a5:	53                   	push   %ebx
    17a6:	83 ec 44             	sub    $0x44,%esp
    17a9:	8d 5d d0             	lea    -0x30(%ebp),%ebx
    17ac:	8d 7d c8             	lea    -0x38(%ebp),%edi
    17af:	89 c6                	mov    %eax,%esi
    17b1:	53                   	push   %ebx
    17b2:	50                   	push   %eax
    17b3:	e8 d8 2c 00 00       	call   4490 <spt_get_coord>
    17b8:	57                   	push   %edi
    17b9:	8b 4d d4             	mov    -0x2c(%ebp),%ecx
    17bc:	6a 01                	push   $0x1
    17be:	53                   	push   %ebx
    17bf:	8b 1d cc 66 00 00    	mov    0x66cc,%ebx
    17c5:	41                   	inc    %ecx
    17c6:	53                   	push   %ebx
    17c7:	89 4d d4             	mov    %ecx,-0x2c(%ebp)
    17ca:	e8 d1 2a 00 00       	call   42a0 <sheet_get_cell_pt>
    17cf:	83 c4 14             	add    $0x14,%esp
    17d2:	6a 01                	push   $0x1
    17d4:	e8 77 35 00 00       	call   4d50 <malloc@plt>
    17d9:	83 c4 10             	add    $0x10,%esp
    17dc:	85 c0                	test   %eax,%eax
    17de:	0f 84 cb 00 00 00    	je     18af <pt_is_punctuation+0x10f>
    17e4:	8b 5e 04             	mov    0x4(%esi),%ebx
    17e7:	8b 0e                	mov    (%esi),%ecx
    17e9:	89 5d dc             	mov    %ebx,-0x24(%ebp)
    17ec:	89 c2                	mov    %eax,%edx
    17ee:	89 4d d8             	mov    %ecx,-0x28(%ebp)
    17f1:	31 db                	xor    %ebx,%ebx
    17f3:	be 01 00 00 00       	mov    $0x1,%esi
    17f8:	eb 1e                	jmp    1818 <pt_is_punctuation+0x78>
    17fa:	8d b6 00 00 00 00    	lea    0x0(%esi),%esi
    1800:	01 f6                	add    %esi,%esi
    1802:	50                   	push   %eax
    1803:	50                   	push   %eax
    1804:	56                   	push   %esi
    1805:	52                   	push   %edx
    1806:	e8 05 36 00 00       	call   4e10 <realloc@plt>
    180b:	83 c4 10             	add    $0x10,%esp
    180e:	89 c2                	mov    %eax,%edx
    1810:	85 c0                	test   %eax,%eax
    1812:	0f 84 97 00 00 00    	je     18af <pt_is_punctuation+0x10f>
    1818:	8d 4d e0             	lea    -0x20(%ebp),%ecx
    181b:	8d 04 1a             	lea    (%edx,%ebx,1),%eax
    181e:	89 55 c0             	mov    %edx,-0x40(%ebp)
    1821:	52                   	push   %edx
    1822:	52                   	push   %edx
    1823:	51                   	push   %ecx
    1824:	89 f1                	mov    %esi,%ecx
    1826:	89 45 c4             	mov    %eax,-0x3c(%ebp)
    1829:	29 d9                	sub    %ebx,%ecx
    182b:	51                   	push   %ecx
    182c:	8b 0d cc 66 00 00    	mov    0x66cc,%ecx
    1832:	50                   	push   %eax
    1833:	8d 45 d8             	lea    -0x28(%ebp),%eax
    1836:	57                   	push   %edi
    1837:	50                   	push   %eax
    1838:	51                   	push   %ecx
    1839:	e8 e2 29 00 00       	call   4220 <sheet_copy_out>
    183e:	83 c4 14             	add    $0x14,%esp
    1841:	8b 45 c4             	mov    -0x3c(%ebp),%eax
    1844:	50                   	push   %eax
    1845:	e8 46 36 00 00       	call   4e90 <str_size@plt>
    184a:	01 c3                	add    %eax,%ebx
    184c:	8b 45 e0             	mov    -0x20(%ebp),%eax
    184f:	8b 55 e4             	mov    -0x1c(%ebp),%edx
    1852:	89 45 d8             	mov    %eax,-0x28(%ebp)
    1855:	58                   	pop    %eax
    1856:	8d 45 e0             	lea    -0x20(%ebp),%eax
    1859:	89 55 dc             	mov    %edx,-0x24(%ebp)
    185c:	5a                   	pop    %edx
    185d:	57                   	push   %edi
    185e:	50                   	push   %eax
    185f:	e8 bc 2c 00 00       	call   4520 <spt_equal>
    1864:	83 c4 10             	add    $0x10,%esp
    1867:	8b 55 c0             	mov    -0x40(%ebp),%edx
    186a:	84 c0                	test   %al,%al
    186c:	74 92                	je     1800 <pt_is_punctuation+0x60>
    186e:	83 ec 0c             	sub    $0xc,%esp
    1871:	89 55 c4             	mov    %edx,-0x3c(%ebp)
    1874:	88 45 c0             	mov    %al,-0x40(%ebp)
    1877:	c7 45 e0 00 00 00 00 	movl   $0x0,-0x20(%ebp)
    187e:	52                   	push   %edx
    187f:	e8 0c 36 00 00       	call   4e90 <str_size@plt>
    1884:	83 c4 0c             	add    $0xc,%esp
    1887:	8b 55 c4             	mov    -0x3c(%ebp),%edx
    188a:	50                   	push   %eax
    188b:	8d 45 e0             	lea    -0x20(%ebp),%eax
    188e:	50                   	push   %eax
    188f:	52                   	push   %edx
    1890:	e8 9b 34 00 00       	call   4d30 <str_decode@plt>
    1895:	83 c4 10             	add    $0x10,%esp
    1898:	8a 4d c0             	mov    -0x40(%ebp),%cl
    189b:	83 f8 3f             	cmp    $0x3f,%eax
    189e:	7e 20                	jle    18c0 <pt_is_punctuation+0x120>
    18a0:	83 f8 5f             	cmp    $0x5f,%eax
    18a3:	74 0c                	je     18b1 <pt_is_punctuation+0x111>
    18a5:	83 f8 7c             	cmp    $0x7c,%eax
    18a8:	74 07                	je     18b1 <pt_is_punctuation+0x111>
    18aa:	83 f8 5c             	cmp    $0x5c,%eax
    18ad:	74 02                	je     18b1 <pt_is_punctuation+0x111>
    18af:	31 c9                	xor    %ecx,%ecx
    18b1:	8d 65 f4             	lea    -0xc(%ebp),%esp
    18b4:	88 c8                	mov    %cl,%al
    18b6:	5b                   	pop    %ebx
    18b7:	5e                   	pop    %esi
    18b8:	5f                   	pop    %edi
    18b9:	5d                   	pop    %ebp
    18ba:	c3                   	ret    
    18bb:	90                   	nop
    18bc:	8d 74 26 00          	lea    0x0(%esi,%eiz,1),%esi
    18c0:	83 f8 3a             	cmp    $0x3a,%eax
    18c3:	7d ec                	jge    18b1 <pt_is_punctuation+0x111>
    18c5:	83 e8 2a             	sub    $0x2a,%eax
    18c8:	83 f8 05             	cmp    $0x5,%eax
    18cb:	77 e2                	ja     18af <pt_is_punctuation+0x10f>
    18cd:	eb e2                	jmp    18b1 <pt_is_punctuation+0x111>
    18cf:	90                   	nop

000018d0 <selection_delete>:
    18d0:	55                   	push   %ebp
    18d1:	89 e5                	mov    %esp,%ebp
    18d3:	56                   	push   %esi
    18d4:	53                   	push   %ebx
    18d5:	83 ec 28             	sub    $0x28,%esp
    18d8:	8d 75 d8             	lea    -0x28(%ebp),%esi
    18db:	56                   	push   %esi
    18dc:	68 a4 66 00 00       	push   $0x66a4
    18e1:	e8 3a 2d 00 00       	call   4620 <tag_get_pt>
    18e6:	59                   	pop    %ecx
    18e7:	5b                   	pop    %ebx
    18e8:	8d 5d e0             	lea    -0x20(%ebp),%ebx
    18eb:	53                   	push   %ebx
    18ec:	68 94 66 00 00       	push   $0x6694
    18f1:	e8 2a 2d 00 00       	call   4620 <tag_get_pt>
    18f6:	58                   	pop    %eax
    18f7:	8d 45 e8             	lea    -0x18(%ebp),%eax
    18fa:	5a                   	pop    %edx
    18fb:	50                   	push   %eax
    18fc:	56                   	push   %esi
    18fd:	e8 8e 2b 00 00       	call   4490 <spt_get_coord>
    1902:	59                   	pop    %ecx
    1903:	58                   	pop    %eax
    1904:	8d 45 f0             	lea    -0x10(%ebp),%eax
    1907:	50                   	push   %eax
    1908:	53                   	push   %ebx
    1909:	e8 82 2b 00 00       	call   4490 <spt_get_coord>
    190e:	8b 45 e8             	mov    -0x18(%ebp),%eax
    1911:	8b 55 f0             	mov    -0x10(%ebp),%edx
    1914:	83 c4 10             	add    $0x10,%esp
    1917:	39 d0                	cmp    %edx,%eax
    1919:	74 3d                	je     1958 <selection_delete+0x88>
    191b:	29 d0                	sub    %edx,%eax
    191d:	85 c0                	test   %eax,%eax
    191f:	74 29                	je     194a <selection_delete+0x7a>
    1921:	78 45                	js     1968 <selection_delete+0x98>
    1923:	8b 15 cc 66 00 00    	mov    0x66cc,%edx
    1929:	50                   	push   %eax
    192a:	56                   	push   %esi
    192b:	53                   	push   %ebx
    192c:	52                   	push   %edx
    192d:	e8 0e 28 00 00       	call   4140 <sheet_delete>
    1932:	8b 45 f0             	mov    -0x10(%ebp),%eax
    1935:	83 c4 10             	add    $0x10,%esp
    1938:	39 45 e8             	cmp    %eax,-0x18(%ebp)
    193b:	a1 90 66 00 00       	mov    0x6690,%eax
    1940:	74 45                	je     1987 <selection_delete+0xb7>
    1942:	83 c8 01             	or     $0x1,%eax
    1945:	a3 90 66 00 00       	mov    %eax,0x6690
    194a:	8d 65 f8             	lea    -0x8(%ebp),%esp
    194d:	5b                   	pop    %ebx
    194e:	5e                   	pop    %esi
    194f:	5d                   	pop    %ebp
    1950:	c3                   	ret    
    1951:	8d b4 26 00 00 00 00 	lea    0x0(%esi,%eiz,1),%esi
    1958:	8b 45 ec             	mov    -0x14(%ebp),%eax
    195b:	8b 55 f4             	mov    -0xc(%ebp),%edx
    195e:	29 d0                	sub    %edx,%eax
    1960:	eb bb                	jmp    191d <selection_delete+0x4d>
    1962:	8d b6 00 00 00 00    	lea    0x0(%esi),%esi
    1968:	51                   	push   %ecx
    1969:	53                   	push   %ebx
    196a:	8b 1d cc 66 00 00    	mov    0x66cc,%ebx
    1970:	56                   	push   %esi
    1971:	53                   	push   %ebx
    1972:	e8 c9 27 00 00       	call   4140 <sheet_delete>
    1977:	8b 45 f0             	mov    -0x10(%ebp),%eax
    197a:	83 c4 10             	add    $0x10,%esp
    197d:	39 45 e8             	cmp    %eax,-0x18(%ebp)
    1980:	a1 90 66 00 00       	mov    0x6690,%eax
    1985:	75 bb                	jne    1942 <selection_delete+0x72>
    1987:	83 c8 02             	or     $0x2,%eax
    198a:	eb b9                	jmp    1945 <selection_delete+0x75>
    198c:	8d 74 26 00          	lea    0x0(%esi,%eiz,1),%esi

00001990 <pane_status_display>:
    1990:	55                   	push   %ebp
    1991:	89 e5                	mov    %esp,%ebp
    1993:	53                   	push   %ebx
    1994:	83 ec 2c             	sub    $0x2c,%esp
    1997:	8d 5d e8             	lea    -0x18(%ebp),%ebx
    199a:	53                   	push   %ebx
    199b:	68 94 66 00 00       	push   $0x6694
    19a0:	e8 7b 2c 00 00       	call   4620 <tag_get_pt>
    19a5:	58                   	pop    %eax
    19a6:	8d 45 f0             	lea    -0x10(%ebp),%eax
    19a9:	5a                   	pop    %edx
    19aa:	50                   	push   %eax
    19ab:	53                   	push   %ebx
    19ac:	e8 df 2a 00 00       	call   4490 <spt_get_coord>
    19b1:	8d 45 e4             	lea    -0x1c(%ebp),%eax
    19b4:	59                   	pop    %ecx
    19b5:	5b                   	pop    %ebx
    19b6:	50                   	push   %eax
    19b7:	a1 cc 66 00 00       	mov    0x66cc,%eax
    19bc:	50                   	push   %eax
    19bd:	e8 8e 2a 00 00       	call   4450 <sheet_get_num_rows>
    19c2:	a1 c8 66 00 00       	mov    0x66c8,%eax
    19c7:	83 c4 10             	add    $0x10,%esp
    19ca:	85 c0                	test   %eax,%eax
    19cc:	0f 84 8e 00 00 00    	je     1a60 <pane_status_display+0xd0>
    19d2:	89 c3                	mov    %eax,%ebx
    19d4:	50                   	push   %eax
    19d5:	a1 64 66 00 00       	mov    0x6664,%eax
    19da:	8b 15 d0 66 00 00    	mov    0x66d0,%edx
    19e0:	48                   	dec    %eax
    19e1:	50                   	push   %eax
    19e2:	6a 00                	push   $0x0
    19e4:	52                   	push   %edx
    19e5:	e8 c6 34 00 00       	call   4eb0 <console_set_pos@plt>
    19ea:	59                   	pop    %ecx
    19eb:	58                   	pop    %eax
    19ec:	a1 d0 66 00 00       	mov    0x66d0,%eax
    19f1:	6a 02                	push   $0x2
    19f3:	50                   	push   %eax
    19f4:	e8 37 34 00 00       	call   4e30 <console_set_style@plt>
    19f9:	8b 45 e4             	mov    -0x1c(%ebp),%eax
    19fc:	89 1c 24             	mov    %ebx,(%esp)
    19ff:	50                   	push   %eax
    1a00:	8b 45 f4             	mov    -0xc(%ebp),%eax
    1a03:	50                   	push   %eax
    1a04:	8b 45 f0             	mov    -0x10(%ebp),%eax
    1a07:	50                   	push   %eax
    1a08:	68 c0 4a 00 00       	push   $0x4ac0
    1a0d:	e8 fe 32 00 00       	call   4d10 <printf@plt>
    1a12:	83 c4 1c             	add    $0x1c,%esp
    1a15:	8b 15 60 66 00 00    	mov    0x6660,%edx
    1a1b:	83 f0 ff             	xor    $0xffffffff,%eax
    1a1e:	01 d0                	add    %edx,%eax
    1a20:	68 20 4a 00 00       	push   $0x4a20
    1a25:	50                   	push   %eax
    1a26:	68 02 49 00 00       	push   $0x4902
    1a2b:	e8 e0 32 00 00       	call   4d10 <printf@plt>
    1a30:	8b 1d d0 66 00 00    	mov    0x66d0,%ebx
    1a36:	59                   	pop    %ecx
    1a37:	53                   	push   %ebx
    1a38:	e8 43 34 00 00       	call   4e80 <console_flush@plt>
    1a3d:	8b 0d d0 66 00 00    	mov    0x66d0,%ecx
    1a43:	58                   	pop    %eax
    1a44:	5a                   	pop    %edx
    1a45:	6a 00                	push   $0x0
    1a47:	51                   	push   %ecx
    1a48:	e8 e3 33 00 00       	call   4e30 <console_set_style@plt>
    1a4d:	83 c4 10             	add    $0x10,%esp
    1a50:	83 0d 90 66 00 00 08 	orl    $0x8,0x6690
    1a57:	8b 5d fc             	mov    -0x4(%ebp),%ebx
    1a5a:	c9                   	leave  
    1a5b:	c3                   	ret    
    1a5c:	8d 74 26 00          	lea    0x0(%esi,%eiz,1),%esi
    1a60:	bb f8 48 00 00       	mov    $0x48f8,%ebx
    1a65:	e9 6a ff ff ff       	jmp    19d4 <pane_status_display+0x44>
    1a6a:	8d b6 00 00 00 00    	lea    0x0(%esi),%esi

00001a70 <search_spt_reverse_producer>:
    1a70:	55                   	push   %ebp
    1a71:	89 e5                	mov    %esp,%ebp
    1a73:	53                   	push   %ebx
    1a74:	50                   	push   %eax
    1a75:	8b 45 08             	mov    0x8(%ebp),%eax
    1a78:	8b 5d 0c             	mov    0xc(%ebp),%ebx
    1a7b:	85 c0                	test   %eax,%eax
    1a7d:	74 1b                	je     1a9a <search_spt_reverse_producer+0x2a>
    1a7f:	85 db                	test   %ebx,%ebx
    1a81:	74 2c                	je     1aaf <search_spt_reverse_producer+0x3f>
    1a83:	52                   	push   %edx
    1a84:	50                   	push   %eax
    1a85:	8b 48 04             	mov    0x4(%eax),%ecx
    1a88:	51                   	push   %ecx
    1a89:	8b 00                	mov    (%eax),%eax
    1a8b:	50                   	push   %eax
    1a8c:	e8 ef 2a 00 00       	call   4580 <spt_prev_char>
    1a91:	89 03                	mov    %eax,(%ebx)
    1a93:	31 c0                	xor    %eax,%eax
    1a95:	8b 5d fc             	mov    -0x4(%ebp),%ebx
    1a98:	c9                   	leave  
    1a99:	c3                   	ret    
    1a9a:	50                   	push   %eax
    1a9b:	68 cd 04 00 00       	push   $0x4cd
    1aa0:	68 06 49 00 00       	push   $0x4906
    1aa5:	68 0d 49 00 00       	push   $0x490d
    1aaa:	e8 01 33 00 00       	call   4db0 <assert_abort@plt>
    1aaf:	50                   	push   %eax
    1ab0:	68 ce 04 00 00       	push   $0x4ce
    1ab5:	68 06 49 00 00       	push   $0x4906
    1aba:	68 1a 49 00 00       	push   $0x491a
    1abf:	e8 ec 32 00 00       	call   4db0 <assert_abort@plt>
    1ac4:	8d b6 00 00 00 00    	lea    0x0(%esi),%esi
    1aca:	8d bf 00 00 00 00    	lea    0x0(%edi),%edi

00001ad0 <search_spt_producer>:
    1ad0:	55                   	push   %ebp
    1ad1:	89 e5                	mov    %esp,%ebp
    1ad3:	53                   	push   %ebx
    1ad4:	50                   	push   %eax
    1ad5:	8b 45 08             	mov    0x8(%ebp),%eax
    1ad8:	8b 5d 0c             	mov    0xc(%ebp),%ebx
    1adb:	85 c0                	test   %eax,%eax
    1add:	74 1b                	je     1afa <search_spt_producer+0x2a>
    1adf:	85 db                	test   %ebx,%ebx
    1ae1:	74 2c                	je     1b0f <search_spt_producer+0x3f>
    1ae3:	52                   	push   %edx
    1ae4:	50                   	push   %eax
    1ae5:	8b 48 04             	mov    0x4(%eax),%ecx
    1ae8:	51                   	push   %ecx
    1ae9:	8b 00                	mov    (%eax),%eax
    1aeb:	50                   	push   %eax
    1aec:	e8 4f 2a 00 00       	call   4540 <spt_next_char>
    1af1:	89 03                	mov    %eax,(%ebx)
    1af3:	31 c0                	xor    %eax,%eax
    1af5:	8b 5d fc             	mov    -0x4(%ebp),%ebx
    1af8:	c9                   	leave  
    1af9:	c3                   	ret    
    1afa:	50                   	push   %eax
    1afb:	68 c4 04 00 00       	push   $0x4c4
    1b00:	68 06 49 00 00       	push   $0x4906
    1b05:	68 0d 49 00 00       	push   $0x490d
    1b0a:	e8 a1 32 00 00       	call   4db0 <assert_abort@plt>
    1b0f:	50                   	push   %eax
    1b10:	68 c5 04 00 00       	push   $0x4c5
    1b15:	68 06 49 00 00       	push   $0x4906
    1b1a:	68 1a 49 00 00       	push   $0x491a
    1b1f:	e8 8c 32 00 00       	call   4db0 <assert_abort@plt>
    1b24:	8d b6 00 00 00 00    	lea    0x0(%esi),%esi
    1b2a:	8d bf 00 00 00 00    	lea    0x0(%edi),%edi

00001b30 <search_spt_mark>:
    1b30:	55                   	push   %ebp
    1b31:	89 e5                	mov    %esp,%ebp
    1b33:	56                   	push   %esi
    1b34:	53                   	push   %ebx
    1b35:	8b 75 08             	mov    0x8(%ebp),%esi
    1b38:	8b 5d 0c             	mov    0xc(%ebp),%ebx
    1b3b:	85 f6                	test   %esi,%esi
    1b3d:	74 47                	je     1b86 <search_spt_mark+0x56>
    1b3f:	85 db                	test   %ebx,%ebx
    1b41:	74 2e                	je     1b71 <search_spt_mark+0x41>
    1b43:	50                   	push   %eax
    1b44:	50                   	push   %eax
    1b45:	6a 08                	push   $0x8
    1b47:	6a 01                	push   $0x1
    1b49:	e8 72 32 00 00       	call   4dc0 <calloc@plt>
    1b4e:	83 c4 10             	add    $0x10,%esp
    1b51:	89 03                	mov    %eax,(%ebx)
    1b53:	85 c0                	test   %eax,%eax
    1b55:	74 13                	je     1b6a <search_spt_mark+0x3a>
    1b57:	8b 16                	mov    (%esi),%edx
    1b59:	8b 4e 04             	mov    0x4(%esi),%ecx
    1b5c:	89 10                	mov    %edx,(%eax)
    1b5e:	89 48 04             	mov    %ecx,0x4(%eax)
    1b61:	31 c0                	xor    %eax,%eax
    1b63:	8d 65 f8             	lea    -0x8(%ebp),%esp
    1b66:	5b                   	pop    %ebx
    1b67:	5e                   	pop    %esi
    1b68:	5d                   	pop    %ebp
    1b69:	c3                   	ret    
    1b6a:	b8 fe ff ff ff       	mov    $0xfffffffe,%eax
    1b6f:	eb f2                	jmp    1b63 <search_spt_mark+0x33>
    1b71:	52                   	push   %edx
    1b72:	68 d7 04 00 00       	push   $0x4d7
    1b77:	68 06 49 00 00       	push   $0x4906
    1b7c:	68 26 49 00 00       	push   $0x4926
    1b81:	e8 2a 32 00 00       	call   4db0 <assert_abort@plt>
    1b86:	51                   	push   %ecx
    1b87:	68 d6 04 00 00       	push   $0x4d6
    1b8c:	68 06 49 00 00       	push   $0x4906
    1b91:	68 0d 49 00 00       	push   $0x490d
    1b96:	e8 15 32 00 00       	call   4db0 <assert_abort@plt>
    1b9b:	90                   	nop
    1b9c:	8d 74 26 00          	lea    0x0(%esi,%eiz,1),%esi

00001ba0 <pt_is_delimiter>:
    1ba0:	55                   	push   %ebp
    1ba1:	89 e5                	mov    %esp,%ebp
    1ba3:	57                   	push   %edi
    1ba4:	56                   	push   %esi
    1ba5:	53                   	push   %ebx
    1ba6:	83 ec 44             	sub    $0x44,%esp
    1ba9:	8d 5d d0             	lea    -0x30(%ebp),%ebx
    1bac:	8d 7d c8             	lea    -0x38(%ebp),%edi
    1baf:	89 c6                	mov    %eax,%esi
    1bb1:	53                   	push   %ebx
    1bb2:	50                   	push   %eax
    1bb3:	e8 d8 28 00 00       	call   4490 <spt_get_coord>
    1bb8:	57                   	push   %edi
    1bb9:	8b 4d d4             	mov    -0x2c(%ebp),%ecx
    1bbc:	6a 01                	push   $0x1
    1bbe:	53                   	push   %ebx
    1bbf:	8b 1d cc 66 00 00    	mov    0x66cc,%ebx
    1bc5:	41                   	inc    %ecx
    1bc6:	53                   	push   %ebx
    1bc7:	89 4d d4             	mov    %ecx,-0x2c(%ebp)
    1bca:	e8 d1 26 00 00       	call   42a0 <sheet_get_cell_pt>
    1bcf:	83 c4 14             	add    $0x14,%esp
    1bd2:	6a 01                	push   $0x1
    1bd4:	e8 77 31 00 00       	call   4d50 <malloc@plt>
    1bd9:	83 c4 10             	add    $0x10,%esp
    1bdc:	85 c0                	test   %eax,%eax
    1bde:	0f 84 c6 00 00 00    	je     1caa <pt_is_delimiter+0x10a>
    1be4:	8b 5e 04             	mov    0x4(%esi),%ebx
    1be7:	8b 0e                	mov    (%esi),%ecx
    1be9:	89 5d dc             	mov    %ebx,-0x24(%ebp)
    1bec:	89 c2                	mov    %eax,%edx
    1bee:	89 4d d8             	mov    %ecx,-0x28(%ebp)
    1bf1:	31 db                	xor    %ebx,%ebx
    1bf3:	be 01 00 00 00       	mov    $0x1,%esi
    1bf8:	eb 1e                	jmp    1c18 <pt_is_delimiter+0x78>
    1bfa:	8d b6 00 00 00 00    	lea    0x0(%esi),%esi
    1c00:	01 f6                	add    %esi,%esi
    1c02:	50                   	push   %eax
    1c03:	50                   	push   %eax
    1c04:	56                   	push   %esi
    1c05:	52                   	push   %edx
    1c06:	e8 05 32 00 00       	call   4e10 <realloc@plt>
    1c0b:	83 c4 10             	add    $0x10,%esp
    1c0e:	89 c2                	mov    %eax,%edx
    1c10:	85 c0                	test   %eax,%eax
    1c12:	0f 84 92 00 00 00    	je     1caa <pt_is_delimiter+0x10a>
    1c18:	8d 4d e0             	lea    -0x20(%ebp),%ecx
    1c1b:	8d 04 1a             	lea    (%edx,%ebx,1),%eax
    1c1e:	89 55 c0             	mov    %edx,-0x40(%ebp)
    1c21:	52                   	push   %edx
    1c22:	52                   	push   %edx
    1c23:	51                   	push   %ecx
    1c24:	89 f1                	mov    %esi,%ecx
    1c26:	89 45 c4             	mov    %eax,-0x3c(%ebp)
    1c29:	29 d9                	sub    %ebx,%ecx
    1c2b:	51                   	push   %ecx
    1c2c:	8b 0d cc 66 00 00    	mov    0x66cc,%ecx
    1c32:	50                   	push   %eax
    1c33:	8d 45 d8             	lea    -0x28(%ebp),%eax
    1c36:	57                   	push   %edi
    1c37:	50                   	push   %eax
    1c38:	51                   	push   %ecx
    1c39:	e8 e2 25 00 00       	call   4220 <sheet_copy_out>
    1c3e:	83 c4 14             	add    $0x14,%esp
    1c41:	8b 45 c4             	mov    -0x3c(%ebp),%eax
    1c44:	50                   	push   %eax
    1c45:	e8 46 32 00 00       	call   4e90 <str_size@plt>
    1c4a:	01 c3                	add    %eax,%ebx
    1c4c:	8b 45 e0             	mov    -0x20(%ebp),%eax
    1c4f:	8b 55 e4             	mov    -0x1c(%ebp),%edx
    1c52:	89 45 d8             	mov    %eax,-0x28(%ebp)
    1c55:	58                   	pop    %eax
    1c56:	8d 45 e0             	lea    -0x20(%ebp),%eax
    1c59:	89 55 dc             	mov    %edx,-0x24(%ebp)
    1c5c:	5a                   	pop    %edx
    1c5d:	57                   	push   %edi
    1c5e:	50                   	push   %eax
    1c5f:	e8 bc 28 00 00       	call   4520 <spt_equal>
    1c64:	83 c4 10             	add    $0x10,%esp
    1c67:	8b 55 c0             	mov    -0x40(%ebp),%edx
    1c6a:	84 c0                	test   %al,%al
    1c6c:	74 92                	je     1c00 <pt_is_delimiter+0x60>
    1c6e:	83 ec 0c             	sub    $0xc,%esp
    1c71:	89 55 c4             	mov    %edx,-0x3c(%ebp)
    1c74:	88 45 c0             	mov    %al,-0x40(%ebp)
    1c77:	c7 45 e0 00 00 00 00 	movl   $0x0,-0x20(%ebp)
    1c7e:	52                   	push   %edx
    1c7f:	e8 0c 32 00 00       	call   4e90 <str_size@plt>
    1c84:	83 c4 0c             	add    $0xc,%esp
    1c87:	8b 55 c4             	mov    -0x3c(%ebp),%edx
    1c8a:	50                   	push   %eax
    1c8b:	8d 45 e0             	lea    -0x20(%ebp),%eax
    1c8e:	50                   	push   %eax
    1c8f:	52                   	push   %edx
    1c90:	e8 9b 30 00 00       	call   4d30 <str_decode@plt>
    1c95:	83 c4 10             	add    $0x10,%esp
    1c98:	83 f8 09             	cmp    $0x9,%eax
    1c9b:	7c 0d                	jl     1caa <pt_is_delimiter+0x10a>
    1c9d:	83 f8 0a             	cmp    $0xa,%eax
    1ca0:	8a 4d c0             	mov    -0x40(%ebp),%cl
    1ca3:	7e 07                	jle    1cac <pt_is_delimiter+0x10c>
    1ca5:	83 f8 20             	cmp    $0x20,%eax
    1ca8:	74 02                	je     1cac <pt_is_delimiter+0x10c>
    1caa:	31 c9                	xor    %ecx,%ecx
    1cac:	8d 65 f4             	lea    -0xc(%ebp),%esp
    1caf:	88 c8                	mov    %cl,%al
    1cb1:	5b                   	pop    %ebx
    1cb2:	5e                   	pop    %esi
    1cb3:	5f                   	pop    %edi
    1cb4:	5d                   	pop    %ebp
    1cb5:	c3                   	ret    
    1cb6:	8d 76 00             	lea    0x0(%esi),%esi
    1cb9:	8d bc 27 00 00 00 00 	lea    0x0(%edi,%eiz,1),%edi

00001cc0 <pt_is_word_beginning>:
    1cc0:	55                   	push   %ebp
    1cc1:	89 e5                	mov    %esp,%ebp
    1cc3:	57                   	push   %edi
    1cc4:	56                   	push   %esi
    1cc5:	53                   	push   %ebx
    1cc6:	83 ec 4c             	sub    $0x4c,%esp
    1cc9:	8d 5d e0             	lea    -0x20(%ebp),%ebx
    1ccc:	8d 4d b8             	lea    -0x48(%ebp),%ecx
    1ccf:	8b 3d cc 66 00 00    	mov    0x66cc,%edi
    1cd5:	51                   	push   %ecx
    1cd6:	89 c6                	mov    %eax,%esi
    1cd8:	6a 00                	push   $0x0
    1cda:	89 4d b0             	mov    %ecx,-0x50(%ebp)
    1cdd:	53                   	push   %ebx
    1cde:	c7 45 e4 01 00 00 00 	movl   $0x1,-0x1c(%ebp)
    1ce5:	57                   	push   %edi
    1ce6:	c7 45 e0 01 00 00 00 	movl   $0x1,-0x20(%ebp)
    1ced:	8d 7d d8             	lea    -0x28(%ebp),%edi
    1cf0:	e8 ab 25 00 00       	call   42a0 <sheet_get_cell_pt>
    1cf5:	8b 0d cc 66 00 00    	mov    0x66cc,%ecx
    1cfb:	58                   	pop    %eax
    1cfc:	5a                   	pop    %edx
    1cfd:	57                   	push   %edi
    1cfe:	51                   	push   %ecx
    1cff:	e8 4c 27 00 00       	call   4450 <sheet_get_num_rows>
    1d04:	8b 45 d8             	mov    -0x28(%ebp),%eax
    1d07:	8d 55 c0             	lea    -0x40(%ebp),%edx
    1d0a:	40                   	inc    %eax
    1d0b:	52                   	push   %edx
    1d0c:	89 45 e0             	mov    %eax,-0x20(%ebp)
    1d0f:	a1 cc 66 00 00       	mov    0x66cc,%eax
    1d14:	6a 01                	push   $0x1
    1d16:	53                   	push   %ebx
    1d17:	50                   	push   %eax
    1d18:	89 55 b4             	mov    %edx,-0x4c(%ebp)
    1d1b:	c7 45 e4 01 00 00 00 	movl   $0x1,-0x1c(%ebp)
    1d22:	e8 79 25 00 00       	call   42a0 <sheet_get_cell_pt>
    1d27:	83 c4 18             	add    $0x18,%esp
    1d2a:	53                   	push   %ebx
    1d2b:	56                   	push   %esi
    1d2c:	e8 5f 27 00 00       	call   4490 <spt_get_coord>
    1d31:	8d 45 c8             	lea    -0x38(%ebp),%eax
    1d34:	50                   	push   %eax
    1d35:	a1 cc 66 00 00       	mov    0x66cc,%eax
    1d3a:	6a 00                	push   $0x0
    1d3c:	53                   	push   %ebx
    1d3d:	50                   	push   %eax
    1d3e:	c7 45 e4 01 00 00 00 	movl   $0x1,-0x1c(%ebp)
    1d45:	e8 56 25 00 00       	call   42a0 <sheet_get_cell_pt>
    1d4a:	83 c4 18             	add    $0x18,%esp
    1d4d:	53                   	push   %ebx
    1d4e:	56                   	push   %esi
    1d4f:	e8 3c 27 00 00       	call   4490 <spt_get_coord>
    1d54:	83 c4 0c             	add    $0xc,%esp
    1d57:	8b 45 e0             	mov    -0x20(%ebp),%eax
    1d5a:	57                   	push   %edi
    1d5b:	50                   	push   %eax
    1d5c:	a1 cc 66 00 00       	mov    0x66cc,%eax
    1d61:	50                   	push   %eax
    1d62:	e8 e9 25 00 00       	call   4350 <sheet_get_row_width>
    1d67:	8b 45 d8             	mov    -0x28(%ebp),%eax
    1d6a:	48                   	dec    %eax
    1d6b:	89 45 e4             	mov    %eax,-0x1c(%ebp)
    1d6e:	8d 45 d0             	lea    -0x30(%ebp),%eax
    1d71:	50                   	push   %eax
    1d72:	a1 cc 66 00 00       	mov    0x66cc,%eax
    1d77:	6a 01                	push   $0x1
    1d79:	53                   	push   %ebx
    1d7a:	50                   	push   %eax
    1d7b:	e8 20 25 00 00       	call   42a0 <sheet_get_cell_pt>
    1d80:	83 c4 18             	add    $0x18,%esp
    1d83:	8b 4d b0             	mov    -0x50(%ebp),%ecx
    1d86:	57                   	push   %edi
    1d87:	51                   	push   %ecx
    1d88:	e8 03 27 00 00       	call   4490 <spt_get_coord>
    1d8d:	58                   	pop    %eax
    1d8e:	5a                   	pop    %edx
    1d8f:	53                   	push   %ebx
    1d90:	56                   	push   %esi
    1d91:	e8 fa 26 00 00       	call   4490 <spt_get_coord>
    1d96:	8b 45 d8             	mov    -0x28(%ebp),%eax
    1d99:	8b 4d e0             	mov    -0x20(%ebp),%ecx
    1d9c:	83 c4 10             	add    $0x10,%esp
    1d9f:	8b 55 b4             	mov    -0x4c(%ebp),%edx
    1da2:	39 c8                	cmp    %ecx,%eax
    1da4:	0f 84 1e 01 00 00    	je     1ec8 <pt_is_word_beginning+0x208>
    1daa:	29 c8                	sub    %ecx,%eax
    1dac:	85 c0                	test   %eax,%eax
    1dae:	75 10                	jne    1dc0 <pt_is_word_beginning+0x100>
    1db0:	b0 01                	mov    $0x1,%al
    1db2:	8d 65 f4             	lea    -0xc(%ebp),%esp
    1db5:	5b                   	pop    %ebx
    1db6:	5e                   	pop    %esi
    1db7:	5f                   	pop    %edi
    1db8:	5d                   	pop    %ebp
    1db9:	c3                   	ret    
    1dba:	8d b6 00 00 00 00    	lea    0x0(%esi),%esi
    1dc0:	50                   	push   %eax
    1dc1:	50                   	push   %eax
    1dc2:	57                   	push   %edi
    1dc3:	52                   	push   %edx
    1dc4:	e8 c7 26 00 00       	call   4490 <spt_get_coord>
    1dc9:	58                   	pop    %eax
    1dca:	5a                   	pop    %edx
    1dcb:	53                   	push   %ebx
    1dcc:	56                   	push   %esi
    1dcd:	e8 be 26 00 00       	call   4490 <spt_get_coord>
    1dd2:	8b 45 d8             	mov    -0x28(%ebp),%eax
    1dd5:	8b 55 e0             	mov    -0x20(%ebp),%edx
    1dd8:	83 c4 10             	add    $0x10,%esp
    1ddb:	39 d0                	cmp    %edx,%eax
    1ddd:	0f 84 f5 00 00 00    	je     1ed8 <pt_is_word_beginning+0x218>
    1de3:	29 d0                	sub    %edx,%eax
    1de5:	85 c0                	test   %eax,%eax
    1de7:	74 c7                	je     1db0 <pt_is_word_beginning+0xf0>
    1de9:	50                   	push   %eax
    1dea:	50                   	push   %eax
    1deb:	8d 45 c8             	lea    -0x38(%ebp),%eax
    1dee:	57                   	push   %edi
    1def:	50                   	push   %eax
    1df0:	e8 9b 26 00 00       	call   4490 <spt_get_coord>
    1df5:	58                   	pop    %eax
    1df6:	5a                   	pop    %edx
    1df7:	53                   	push   %ebx
    1df8:	56                   	push   %esi
    1df9:	e8 92 26 00 00       	call   4490 <spt_get_coord>
    1dfe:	8b 45 d8             	mov    -0x28(%ebp),%eax
    1e01:	8b 55 e0             	mov    -0x20(%ebp),%edx
    1e04:	83 c4 10             	add    $0x10,%esp
    1e07:	39 d0                	cmp    %edx,%eax
    1e09:	0f 84 d9 00 00 00    	je     1ee8 <pt_is_word_beginning+0x228>
    1e0f:	29 d0                	sub    %edx,%eax
    1e11:	85 c0                	test   %eax,%eax
    1e13:	74 9b                	je     1db0 <pt_is_word_beginning+0xf0>
    1e15:	8d 45 d0             	lea    -0x30(%ebp),%eax
    1e18:	51                   	push   %ecx
    1e19:	51                   	push   %ecx
    1e1a:	57                   	push   %edi
    1e1b:	50                   	push   %eax
    1e1c:	e8 6f 26 00 00       	call   4490 <spt_get_coord>
    1e21:	58                   	pop    %eax
    1e22:	5a                   	pop    %edx
    1e23:	53                   	push   %ebx
    1e24:	56                   	push   %esi
    1e25:	e8 66 26 00 00       	call   4490 <spt_get_coord>
    1e2a:	8b 45 d8             	mov    -0x28(%ebp),%eax
    1e2d:	8b 55 e0             	mov    -0x20(%ebp),%edx
    1e30:	83 c4 10             	add    $0x10,%esp
    1e33:	39 d0                	cmp    %edx,%eax
    1e35:	0f 84 bd 00 00 00    	je     1ef8 <pt_is_word_beginning+0x238>
    1e3b:	29 d0                	sub    %edx,%eax
    1e3d:	85 c0                	test   %eax,%eax
    1e3f:	0f 84 6b ff ff ff    	je     1db0 <pt_is_word_beginning+0xf0>
    1e45:	89 f0                	mov    %esi,%eax
    1e47:	e8 54 fd ff ff       	call   1ba0 <pt_is_delimiter>
    1e4c:	88 c2                	mov    %al,%dl
    1e4e:	31 c0                	xor    %eax,%eax
    1e50:	84 d2                	test   %dl,%dl
    1e52:	0f 85 5a ff ff ff    	jne    1db2 <pt_is_word_beginning+0xf2>
    1e58:	50                   	push   %eax
    1e59:	50                   	push   %eax
    1e5a:	53                   	push   %ebx
    1e5b:	56                   	push   %esi
    1e5c:	e8 2f 26 00 00       	call   4490 <spt_get_coord>
    1e61:	8b 55 e4             	mov    -0x1c(%ebp),%edx
    1e64:	8b 0d cc 66 00 00    	mov    0x66cc,%ecx
    1e6a:	57                   	push   %edi
    1e6b:	4a                   	dec    %edx
    1e6c:	6a 00                	push   $0x0
    1e6e:	53                   	push   %ebx
    1e6f:	51                   	push   %ecx
    1e70:	89 55 e4             	mov    %edx,-0x1c(%ebp)
    1e73:	e8 28 24 00 00       	call   42a0 <sheet_get_cell_pt>
    1e78:	83 c4 20             	add    $0x20,%esp
    1e7b:	89 f8                	mov    %edi,%eax
    1e7d:	e8 1e fd ff ff       	call   1ba0 <pt_is_delimiter>
    1e82:	84 c0                	test   %al,%al
    1e84:	0f 85 26 ff ff ff    	jne    1db0 <pt_is_word_beginning+0xf0>
    1e8a:	89 f0                	mov    %esi,%eax
    1e8c:	e8 0f f9 ff ff       	call   17a0 <pt_is_punctuation>
    1e91:	84 c0                	test   %al,%al
    1e93:	74 0f                	je     1ea4 <pt_is_word_beginning+0x1e4>
    1e95:	89 f8                	mov    %edi,%eax
    1e97:	e8 04 f9 ff ff       	call   17a0 <pt_is_punctuation>
    1e9c:	84 c0                	test   %al,%al
    1e9e:	0f 84 0c ff ff ff    	je     1db0 <pt_is_word_beginning+0xf0>
    1ea4:	89 f8                	mov    %edi,%eax
    1ea6:	e8 f5 f8 ff ff       	call   17a0 <pt_is_punctuation>
    1eab:	84 c0                	test   %al,%al
    1ead:	0f 84 ff fe ff ff    	je     1db2 <pt_is_word_beginning+0xf2>
    1eb3:	89 f0                	mov    %esi,%eax
    1eb5:	e8 e6 f8 ff ff       	call   17a0 <pt_is_punctuation>
    1eba:	83 f0 01             	xor    $0x1,%eax
    1ebd:	e9 f0 fe ff ff       	jmp    1db2 <pt_is_word_beginning+0xf2>
    1ec2:	8d b6 00 00 00 00    	lea    0x0(%esi),%esi
    1ec8:	8b 45 dc             	mov    -0x24(%ebp),%eax
    1ecb:	8b 4d e4             	mov    -0x1c(%ebp),%ecx
    1ece:	29 c8                	sub    %ecx,%eax
    1ed0:	e9 d7 fe ff ff       	jmp    1dac <pt_is_word_beginning+0xec>
    1ed5:	8d 76 00             	lea    0x0(%esi),%esi
    1ed8:	8b 45 dc             	mov    -0x24(%ebp),%eax
    1edb:	8b 4d e4             	mov    -0x1c(%ebp),%ecx
    1ede:	29 c8                	sub    %ecx,%eax
    1ee0:	e9 00 ff ff ff       	jmp    1de5 <pt_is_word_beginning+0x125>
    1ee5:	8d 76 00             	lea    0x0(%esi),%esi
    1ee8:	8b 45 dc             	mov    -0x24(%ebp),%eax
    1eeb:	8b 4d e4             	mov    -0x1c(%ebp),%ecx
    1eee:	29 c8                	sub    %ecx,%eax
    1ef0:	e9 1c ff ff ff       	jmp    1e11 <pt_is_word_beginning+0x151>
    1ef5:	8d 76 00             	lea    0x0(%esi),%esi
    1ef8:	8b 45 dc             	mov    -0x24(%ebp),%eax
    1efb:	8b 55 e4             	mov    -0x1c(%ebp),%edx
    1efe:	29 d0                	sub    %edx,%eax
    1f00:	e9 38 ff ff ff       	jmp    1e3d <pt_is_word_beginning+0x17d>
    1f05:	8d 74 26 00          	lea    0x0(%esi,%eiz,1),%esi
    1f09:	8d bc 27 00 00 00 00 	lea    0x0(%edi,%eiz,1),%edi

00001f10 <selection_copy>:
    1f10:	55                   	push   %ebp
    1f11:	89 e5                	mov    %esp,%ebp
    1f13:	57                   	push   %edi
    1f14:	56                   	push   %esi
    1f15:	53                   	push   %ebx
    1f16:	83 ec 44             	sub    $0x44,%esp
    1f19:	8d 5d c8             	lea    -0x38(%ebp),%ebx
    1f1c:	53                   	push   %ebx
    1f1d:	68 a4 66 00 00       	push   $0x66a4
    1f22:	e8 f9 26 00 00       	call   4620 <tag_get_pt>
    1f27:	8d 45 d0             	lea    -0x30(%ebp),%eax
    1f2a:	5e                   	pop    %esi
    1f2b:	5f                   	pop    %edi
    1f2c:	50                   	push   %eax
    1f2d:	68 94 66 00 00       	push   $0x6694
    1f32:	e8 e9 26 00 00       	call   4620 <tag_get_pt>
    1f37:	58                   	pop    %eax
    1f38:	8d 45 d8             	lea    -0x28(%ebp),%eax
    1f3b:	5a                   	pop    %edx
    1f3c:	50                   	push   %eax
    1f3d:	53                   	push   %ebx
    1f3e:	e8 4d 25 00 00       	call   4490 <spt_get_coord>
    1f43:	8d 45 e0             	lea    -0x20(%ebp),%eax
    1f46:	59                   	pop    %ecx
    1f47:	5b                   	pop    %ebx
    1f48:	50                   	push   %eax
    1f49:	8d 45 d0             	lea    -0x30(%ebp),%eax
    1f4c:	50                   	push   %eax
    1f4d:	e8 3e 25 00 00       	call   4490 <spt_get_coord>
    1f52:	8b 45 d8             	mov    -0x28(%ebp),%eax
    1f55:	8b 55 e0             	mov    -0x20(%ebp),%edx
    1f58:	83 c4 10             	add    $0x10,%esp
    1f5b:	39 d0                	cmp    %edx,%eax
    1f5d:	0f 84 55 01 00 00    	je     20b8 <selection_copy+0x1a8>
    1f63:	29 d0                	sub    %edx,%eax
    1f65:	85 c0                	test   %eax,%eax
    1f67:	7e 18                	jle    1f81 <selection_copy+0x71>
    1f69:	8b 55 c8             	mov    -0x38(%ebp),%edx
    1f6c:	8b 45 cc             	mov    -0x34(%ebp),%eax
    1f6f:	8b 4d d0             	mov    -0x30(%ebp),%ecx
    1f72:	8b 5d d4             	mov    -0x2c(%ebp),%ebx
    1f75:	89 4d c8             	mov    %ecx,-0x38(%ebp)
    1f78:	89 5d cc             	mov    %ebx,-0x34(%ebp)
    1f7b:	89 55 d0             	mov    %edx,-0x30(%ebp)
    1f7e:	89 45 d4             	mov    %eax,-0x2c(%ebp)
    1f81:	83 ec 0c             	sub    $0xc,%esp
    1f84:	6a 01                	push   $0x1
    1f86:	e8 c5 2d 00 00       	call   4d50 <malloc@plt>
    1f8b:	83 c4 10             	add    $0x10,%esp
    1f8e:	89 c7                	mov    %eax,%edi
    1f90:	85 c0                	test   %eax,%eax
    1f92:	0f 84 18 01 00 00    	je     20b0 <selection_copy+0x1a0>
    1f98:	8b 5d cc             	mov    -0x34(%ebp),%ebx
    1f9b:	8b 4d c8             	mov    -0x38(%ebp),%ecx
    1f9e:	89 5d dc             	mov    %ebx,-0x24(%ebp)
    1fa1:	89 4d d8             	mov    %ecx,-0x28(%ebp)
    1fa4:	31 db                	xor    %ebx,%ebx
    1fa6:	be 01 00 00 00       	mov    $0x1,%esi
    1fab:	eb 1b                	jmp    1fc8 <selection_copy+0xb8>
    1fad:	8d 76 00             	lea    0x0(%esi),%esi
    1fb0:	01 f6                	add    %esi,%esi
    1fb2:	50                   	push   %eax
    1fb3:	50                   	push   %eax
    1fb4:	56                   	push   %esi
    1fb5:	57                   	push   %edi
    1fb6:	e8 55 2e 00 00       	call   4e10 <realloc@plt>
    1fbb:	83 c4 10             	add    $0x10,%esp
    1fbe:	89 c7                	mov    %eax,%edi
    1fc0:	85 c0                	test   %eax,%eax
    1fc2:	0f 84 e8 00 00 00    	je     20b0 <selection_copy+0x1a0>
    1fc8:	52                   	push   %edx
    1fc9:	52                   	push   %edx
    1fca:	89 f2                	mov    %esi,%edx
    1fcc:	8d 04 1f             	lea    (%edi,%ebx,1),%eax
    1fcf:	29 da                	sub    %ebx,%edx
    1fd1:	8d 4d e0             	lea    -0x20(%ebp),%ecx
    1fd4:	51                   	push   %ecx
    1fd5:	89 45 c4             	mov    %eax,-0x3c(%ebp)
    1fd8:	52                   	push   %edx
    1fd9:	50                   	push   %eax
    1fda:	8d 45 d0             	lea    -0x30(%ebp),%eax
    1fdd:	8b 0d cc 66 00 00    	mov    0x66cc,%ecx
    1fe3:	50                   	push   %eax
    1fe4:	8d 45 d8             	lea    -0x28(%ebp),%eax
    1fe7:	50                   	push   %eax
    1fe8:	51                   	push   %ecx
    1fe9:	e8 32 22 00 00       	call   4220 <sheet_copy_out>
    1fee:	83 c4 14             	add    $0x14,%esp
    1ff1:	8b 45 c4             	mov    -0x3c(%ebp),%eax
    1ff4:	50                   	push   %eax
    1ff5:	e8 96 2e 00 00       	call   4e90 <str_size@plt>
    1ffa:	01 c3                	add    %eax,%ebx
    1ffc:	8b 45 e0             	mov    -0x20(%ebp),%eax
    1fff:	8b 55 e4             	mov    -0x1c(%ebp),%edx
    2002:	89 45 d8             	mov    %eax,-0x28(%ebp)
    2005:	58                   	pop    %eax
    2006:	8d 45 d0             	lea    -0x30(%ebp),%eax
    2009:	89 55 dc             	mov    %edx,-0x24(%ebp)
    200c:	5a                   	pop    %edx
    200d:	50                   	push   %eax
    200e:	8d 45 e0             	lea    -0x20(%ebp),%eax
    2011:	50                   	push   %eax
    2012:	e8 09 25 00 00       	call   4520 <spt_equal>
    2017:	83 c4 10             	add    $0x10,%esp
    201a:	84 c0                	test   %al,%al
    201c:	74 92                	je     1fb0 <selection_copy+0xa0>
    201e:	83 ec 0c             	sub    $0xc,%esp
    2021:	57                   	push   %edi
    2022:	e8 79 2d 00 00       	call   4da0 <clipboard_put_str@plt>
    2027:	83 c4 10             	add    $0x10,%esp
    202a:	85 c0                	test   %eax,%eax
    202c:	74 6c                	je     209a <selection_copy+0x18a>
    202e:	50                   	push   %eax
    202f:	a1 64 66 00 00       	mov    0x6664,%eax
    2034:	48                   	dec    %eax
    2035:	8b 15 d0 66 00 00    	mov    0x66d0,%edx
    203b:	50                   	push   %eax
    203c:	6a 00                	push   $0x0
    203e:	52                   	push   %edx
    203f:	e8 6c 2e 00 00       	call   4eb0 <console_set_pos@plt>
    2044:	8b 35 d0 66 00 00    	mov    0x66d0,%esi
    204a:	59                   	pop    %ecx
    204b:	5b                   	pop    %ebx
    204c:	6a 02                	push   $0x2
    204e:	56                   	push   %esi
    204f:	e8 dc 2d 00 00       	call   4e30 <console_set_style@plt>
    2054:	83 c4 0c             	add    $0xc,%esp
    2057:	8b 15 60 66 00 00    	mov    0x6660,%edx
    205d:	b8 03 00 00 00       	mov    $0x3,%eax
    2062:	29 d0                	sub    %edx,%eax
    2064:	68 33 49 00 00       	push   $0x4933
    2069:	50                   	push   %eax
    206a:	68 ee 48 00 00       	push   $0x48ee
    206f:	e8 9c 2c 00 00       	call   4d10 <printf@plt>
    2074:	8b 1d d0 66 00 00    	mov    0x66d0,%ebx
    207a:	59                   	pop    %ecx
    207b:	53                   	push   %ebx
    207c:	e8 ff 2d 00 00       	call   4e80 <console_flush@plt>
    2081:	5e                   	pop    %esi
    2082:	58                   	pop    %eax
    2083:	a1 d0 66 00 00       	mov    0x66d0,%eax
    2088:	6a 00                	push   $0x0
    208a:	50                   	push   %eax
    208b:	e8 a0 2d 00 00       	call   4e30 <console_set_style@plt>
    2090:	83 c4 10             	add    $0x10,%esp
    2093:	83 0d 90 66 00 00 08 	orl    $0x8,0x6690
    209a:	83 ec 0c             	sub    $0xc,%esp
    209d:	57                   	push   %edi
    209e:	e8 5d 2e 00 00       	call   4f00 <free@plt>
    20a3:	8d 65 f4             	lea    -0xc(%ebp),%esp
    20a6:	5b                   	pop    %ebx
    20a7:	5e                   	pop    %esi
    20a8:	5f                   	pop    %edi
    20a9:	5d                   	pop    %ebp
    20aa:	c3                   	ret    
    20ab:	90                   	nop
    20ac:	8d 74 26 00          	lea    0x0(%esi,%eiz,1),%esi
    20b0:	31 ff                	xor    %edi,%edi
    20b2:	e9 77 ff ff ff       	jmp    202e <selection_copy+0x11e>
    20b7:	90                   	nop
    20b8:	8b 45 dc             	mov    -0x24(%ebp),%eax
    20bb:	8b 4d e4             	mov    -0x1c(%ebp),%ecx
    20be:	29 c8                	sub    %ecx,%eax
    20c0:	e9 a0 fe ff ff       	jmp    1f65 <selection_copy+0x55>
    20c5:	8d 74 26 00          	lea    0x0(%esi,%eiz,1),%esi
    20c9:	8d bc 27 00 00 00 00 	lea    0x0(%edi,%eiz,1),%edi

000020d0 <prompt>:
    20d0:	55                   	push   %ebp
    20d1:	89 e5                	mov    %esp,%ebp
    20d3:	57                   	push   %edi
    20d4:	56                   	push   %esi
    20d5:	53                   	push   %ebx
    20d6:	81 ec 4c 02 00 00    	sub    $0x24c,%esp
    20dc:	89 c6                	mov    %eax,%esi
    20de:	89 d7                	mov    %edx,%edi
    20e0:	52                   	push   %edx
    20e1:	50                   	push   %eax
    20e2:	8d 85 bc fd ff ff    	lea    -0x244(%ebp),%eax
    20e8:	68 50 49 00 00       	push   $0x4950
    20ed:	50                   	push   %eax
    20ee:	e8 7d 2d 00 00       	call   4e70 <asprintf@plt>
    20f3:	83 c4 0c             	add    $0xc,%esp
    20f6:	a1 64 66 00 00       	mov    0x6664,%eax
    20fb:	48                   	dec    %eax
    20fc:	8b 0d d0 66 00 00    	mov    0x66d0,%ecx
    2102:	50                   	push   %eax
    2103:	8b 9d bc fd ff ff    	mov    -0x244(%ebp),%ebx
    2109:	6a 00                	push   $0x0
    210b:	51                   	push   %ecx
    210c:	e8 9f 2d 00 00       	call   4eb0 <console_set_pos@plt>
    2111:	8b 0d d0 66 00 00    	mov    0x66d0,%ecx
    2117:	58                   	pop    %eax
    2118:	5a                   	pop    %edx
    2119:	6a 02                	push   $0x2
    211b:	51                   	push   %ecx
    211c:	e8 0f 2d 00 00       	call   4e30 <console_set_style@plt>
    2121:	83 c4 0c             	add    $0xc,%esp
    2124:	b8 03 00 00 00       	mov    $0x3,%eax
    2129:	53                   	push   %ebx
    212a:	8b 1d 60 66 00 00    	mov    0x6660,%ebx
    2130:	29 d8                	sub    %ebx,%eax
    2132:	50                   	push   %eax
    2133:	68 ee 48 00 00       	push   $0x48ee
    2138:	e8 d3 2b 00 00       	call   4d10 <printf@plt>
    213d:	58                   	pop    %eax
    213e:	a1 d0 66 00 00       	mov    0x66d0,%eax
    2143:	50                   	push   %eax
    2144:	e8 37 2d 00 00       	call   4e80 <console_flush@plt>
    2149:	8b 0d d0 66 00 00    	mov    0x66d0,%ecx
    214f:	58                   	pop    %eax
    2150:	5a                   	pop    %edx
    2151:	6a 00                	push   $0x0
    2153:	51                   	push   %ecx
    2154:	e8 d7 2c 00 00       	call   4e30 <console_set_style@plt>
    2159:	a1 64 66 00 00       	mov    0x6664,%eax
    215e:	83 0d 90 66 00 00 08 	orl    $0x8,0x6690
    2165:	8d 58 ff             	lea    -0x1(%eax),%ebx
    2168:	58                   	pop    %eax
    2169:	8b 85 bc fd ff ff    	mov    -0x244(%ebp),%eax
    216f:	50                   	push   %eax
    2170:	e8 2b 2d 00 00       	call   4ea0 <str_length@plt>
    2175:	83 c4 0c             	add    $0xc,%esp
    2178:	40                   	inc    %eax
    2179:	53                   	push   %ebx
    217a:	50                   	push   %eax
    217b:	a1 d0 66 00 00       	mov    0x66d0,%eax
    2180:	50                   	push   %eax
    2181:	e8 2a 2d 00 00       	call   4eb0 <console_set_pos@plt>
    2186:	58                   	pop    %eax
    2187:	8b 85 bc fd ff ff    	mov    -0x244(%ebp),%eax
    218d:	50                   	push   %eax
    218e:	e8 6d 2d 00 00       	call   4f00 <free@plt>
    2193:	8b 0d d0 66 00 00    	mov    0x66d0,%ecx
    2199:	58                   	pop    %eax
    219a:	5a                   	pop    %edx
    219b:	6a 02                	push   $0x2
    219d:	51                   	push   %ecx
    219e:	e8 8d 2c 00 00       	call   4e30 <console_set_style@plt>
    21a3:	8b 1d 60 66 00 00    	mov    0x6660,%ebx
    21a9:	89 34 24             	mov    %esi,(%esp)
    21ac:	e8 ef 2c 00 00       	call   4ea0 <str_length@plt>
    21b1:	83 eb 04             	sub    $0x4,%ebx
    21b4:	29 c3                	sub    %eax,%ebx
    21b6:	83 c4 10             	add    $0x10,%esp
    21b9:	81 fb 80 00 00 00    	cmp    $0x80,%ebx
    21bf:	0f 86 3b 01 00 00    	jbe    2300 <prompt+0x230>
    21c5:	b8 81 00 00 00       	mov    $0x81,%eax
    21ca:	c7 85 b4 fd ff ff 80 	movl   $0x80,-0x24c(%ebp)
    21d1:	00 00 00 
    21d4:	8d b5 e4 fd ff ff    	lea    -0x21c(%ebp),%esi
    21da:	52                   	push   %edx
    21db:	57                   	push   %edi
    21dc:	50                   	push   %eax
    21dd:	56                   	push   %esi
    21de:	e8 ed 2c 00 00       	call   4ed0 <str_to_wstr@plt>
    21e3:	89 34 24             	mov    %esi,(%esp)
    21e6:	e8 15 2b 00 00       	call   4d00 <wstr_length@plt>
    21eb:	8d 9d c0 fd ff ff    	lea    -0x240(%ebp),%ebx
    21f1:	89 c7                	mov    %eax,%edi
    21f3:	83 c4 10             	add    $0x10,%esp
    21f6:	66 90                	xchg   %ax,%ax
    21f8:	50                   	push   %eax
    21f9:	50                   	push   %eax
    21fa:	a1 d0 66 00 00       	mov    0x66d0,%eax
    21ff:	53                   	push   %ebx
    2200:	50                   	push   %eax
    2201:	e8 5a 2b 00 00       	call   4d60 <console_get_event@plt>
    2206:	8b 85 c8 fd ff ff    	mov    -0x238(%ebp),%eax
    220c:	83 c4 10             	add    $0x10,%esp
    220f:	85 c0                	test   %eax,%eax
    2211:	75 e5                	jne    21f8 <prompt+0x128>
    2213:	8b 85 d4 fd ff ff    	mov    -0x22c(%ebp),%eax
    2219:	85 c0                	test   %eax,%eax
    221b:	75 db                	jne    21f8 <prompt+0x128>
    221d:	8b 85 dc fd ff ff    	mov    -0x224(%ebp),%eax
    2223:	a8 30                	test   $0x30,%al
    2225:	75 04                	jne    222b <prompt+0x15b>
    2227:	a8 0c                	test   $0xc,%al
    2229:	75 cd                	jne    21f8 <prompt+0x128>
    222b:	a8 3c                	test   $0x3c,%al
    222d:	75 c9                	jne    21f8 <prompt+0x128>
    222f:	8b 85 d8 fd ff ff    	mov    -0x228(%ebp),%eax
    2235:	83 f8 2a             	cmp    $0x2a,%eax
    2238:	74 76                	je     22b0 <prompt+0x1e0>
    223a:	83 f8 3c             	cmp    $0x3c,%eax
    223d:	0f 84 ad 00 00 00    	je     22f0 <prompt+0x220>
    2243:	83 f8 0e             	cmp    $0xe,%eax
    2246:	74 40                	je     2288 <prompt+0x1b8>
    2248:	8b 85 e0 fd ff ff    	mov    -0x220(%ebp),%eax
    224e:	39 bd b4 fd ff ff    	cmp    %edi,-0x24c(%ebp)
    2254:	7e a2                	jle    21f8 <prompt+0x128>
    2256:	83 f8 1f             	cmp    $0x1f,%eax
    2259:	7e 9d                	jle    21f8 <prompt+0x128>
    225b:	83 ec 0c             	sub    $0xc,%esp
    225e:	50                   	push   %eax
    225f:	e8 6c 2a 00 00       	call   4cd0 <putchar@plt>
    2264:	8b 15 d0 66 00 00    	mov    0x66d0,%edx
    226a:	58                   	pop    %eax
    226b:	52                   	push   %edx
    226c:	e8 0f 2c 00 00       	call   4e80 <console_flush@plt>
    2271:	8b 85 e0 fd ff ff    	mov    -0x220(%ebp),%eax
    2277:	83 c4 10             	add    $0x10,%esp
    227a:	89 84 bd e4 fd ff ff 	mov    %eax,-0x21c(%ebp,%edi,4)
    2281:	47                   	inc    %edi
    2282:	e9 71 ff ff ff       	jmp    21f8 <prompt+0x128>
    2287:	90                   	nop
    2288:	85 ff                	test   %edi,%edi
    228a:	0f 8e 68 ff ff ff    	jle    21f8 <prompt+0x128>
    2290:	83 ec 0c             	sub    $0xc,%esp
    2293:	4f                   	dec    %edi
    2294:	6a 08                	push   $0x8
    2296:	e8 35 2a 00 00       	call   4cd0 <putchar@plt>
    229b:	a1 d0 66 00 00       	mov    0x66d0,%eax
    22a0:	59                   	pop    %ecx
    22a1:	50                   	push   %eax
    22a2:	e8 d9 2b 00 00       	call   4e80 <console_flush@plt>
    22a7:	83 c4 10             	add    $0x10,%esp
    22aa:	e9 49 ff ff ff       	jmp    21f8 <prompt+0x128>
    22af:	90                   	nop
    22b0:	83 ec 0c             	sub    $0xc,%esp
    22b3:	c7 84 bd e4 fd ff ff 	movl   $0x0,-0x21c(%ebp,%edi,4)
    22ba:	00 00 00 00 
    22be:	56                   	push   %esi
    22bf:	e8 8c 2b 00 00       	call   4e50 <wstr_to_astr@plt>
    22c4:	8b 0d d0 66 00 00    	mov    0x66d0,%ecx
    22ca:	89 85 bc fd ff ff    	mov    %eax,-0x244(%ebp)
    22d0:	58                   	pop    %eax
    22d1:	5a                   	pop    %edx
    22d2:	6a 00                	push   $0x0
    22d4:	51                   	push   %ecx
    22d5:	e8 56 2b 00 00       	call   4e30 <console_set_style@plt>
    22da:	8b 85 bc fd ff ff    	mov    -0x244(%ebp),%eax
    22e0:	83 c4 10             	add    $0x10,%esp
    22e3:	8d 65 f4             	lea    -0xc(%ebp),%esp
    22e6:	5b                   	pop    %ebx
    22e7:	5e                   	pop    %esi
    22e8:	5f                   	pop    %edi
    22e9:	5d                   	pop    %ebp
    22ea:	c3                   	ret    
    22eb:	90                   	nop
    22ec:	8d 74 26 00          	lea    0x0(%esi,%eiz,1),%esi
    22f0:	8d 65 f4             	lea    -0xc(%ebp),%esp
    22f3:	31 c0                	xor    %eax,%eax
    22f5:	5b                   	pop    %ebx
    22f6:	5e                   	pop    %esi
    22f7:	5f                   	pop    %edi
    22f8:	5d                   	pop    %ebp
    22f9:	c3                   	ret    
    22fa:	8d b6 00 00 00 00    	lea    0x0(%esi),%esi
    2300:	83 ec 0c             	sub    $0xc,%esp
    2303:	8b 1d 60 66 00 00    	mov    0x6660,%ebx
    2309:	83 eb 04             	sub    $0x4,%ebx
    230c:	56                   	push   %esi
    230d:	e8 8e 2b 00 00       	call   4ea0 <str_length@plt>
    2312:	29 c3                	sub    %eax,%ebx
    2314:	83 c4 10             	add    $0x10,%esp
    2317:	89 9d b4 fd ff ff    	mov    %ebx,-0x24c(%ebp)
    231d:	8d 43 01             	lea    0x1(%ebx),%eax
    2320:	e9 af fe ff ff       	jmp    21d4 <prompt+0x104>
    2325:	8d 74 26 00          	lea    0x0(%esi,%eiz,1),%esi
    2329:	8d bc 27 00 00 00 00 	lea    0x0(%edi,%eiz,1),%edi

00002330 <key_handle_movement>:
    2330:	83 e8 4f             	sub    $0x4f,%eax
    2333:	83 f8 08             	cmp    $0x8,%eax
    2336:	0f 87 ac 00 00 00    	ja     23e8 <key_handle_movement+0xb8>
    233c:	55                   	push   %ebp
    233d:	89 e5                	mov    %esp,%ebp
    233f:	57                   	push   %edi
    2340:	56                   	push   %esi
    2341:	53                   	push   %ebx
    2342:	83 ec 3c             	sub    $0x3c,%esp
    2345:	ff 24 85 2c 4b 00 00 	jmp    *0x4b2c(,%eax,4)
    234c:	8d 74 26 00          	lea    0x0(%esi,%eiz,1),%esi
    2350:	88 d0                	mov    %dl,%al
    2352:	8d 75 d8             	lea    -0x28(%ebp),%esi
    2355:	25 ff 00 00 00       	and    $0xff,%eax
    235a:	8d 7d e0             	lea    -0x20(%ebp),%edi
    235d:	89 45 c4             	mov    %eax,-0x3c(%ebp)
    2360:	8b 1d 80 66 00 00    	mov    0x6680,%ebx
    2366:	50                   	push   %eax
    2367:	50                   	push   %eax
    2368:	56                   	push   %esi
    2369:	68 94 66 00 00       	push   $0x6694
    236e:	e8 ad 22 00 00       	call   4620 <tag_get_pt>
    2373:	58                   	pop    %eax
    2374:	5a                   	pop    %edx
    2375:	57                   	push   %edi
    2376:	56                   	push   %esi
    2377:	e8 14 21 00 00       	call   4490 <spt_get_coord>
    237c:	8b 45 e0             	mov    -0x20(%ebp),%eax
    237f:	83 c4 10             	add    $0x10,%esp
    2382:	29 d8                	sub    %ebx,%eax
    2384:	83 fb 00             	cmp    $0x0,%ebx
    2387:	89 45 e0             	mov    %eax,-0x20(%ebp)
    238a:	0f 8f 90 02 00 00    	jg     2620 <key_handle_movement+0x2f0>
    2390:	74 20                	je     23b2 <key_handle_movement+0x82>
    2392:	8d 45 d4             	lea    -0x2c(%ebp),%eax
    2395:	8b 0d cc 66 00 00    	mov    0x66cc,%ecx
    239b:	52                   	push   %edx
    239c:	52                   	push   %edx
    239d:	50                   	push   %eax
    239e:	51                   	push   %ecx
    239f:	e8 ac 20 00 00       	call   4450 <sheet_get_num_rows>
    23a4:	8b 45 d4             	mov    -0x2c(%ebp),%eax
    23a7:	83 c4 10             	add    $0x10,%esp
    23aa:	39 45 e0             	cmp    %eax,-0x20(%ebp)
    23ad:	7e 03                	jle    23b2 <key_handle_movement+0x82>
    23af:	89 45 e0             	mov    %eax,-0x20(%ebp)
    23b2:	a1 b8 66 00 00       	mov    0x66b8,%eax
    23b7:	56                   	push   %esi
    23b8:	89 45 e4             	mov    %eax,-0x1c(%ebp)
    23bb:	a1 cc 66 00 00       	mov    0x66cc,%eax
    23c0:	6a 00                	push   $0x0
    23c2:	57                   	push   %edi
    23c3:	50                   	push   %eax
    23c4:	e8 d7 1e 00 00       	call   42a0 <sheet_get_cell_pt>
    23c9:	8b 4d c4             	mov    -0x3c(%ebp),%ecx
    23cc:	8b 45 d8             	mov    -0x28(%ebp),%eax
    23cf:	8b 55 dc             	mov    -0x24(%ebp),%edx
    23d2:	c7 04 24 00 00 00 00 	movl   $0x0,(%esp)
    23d9:	e8 f2 ed ff ff       	call   11d0 <caret_move>
    23de:	83 c4 10             	add    $0x10,%esp
    23e1:	8d 65 f4             	lea    -0xc(%ebp),%esp
    23e4:	5b                   	pop    %ebx
    23e5:	5e                   	pop    %esi
    23e6:	5f                   	pop    %edi
    23e7:	5d                   	pop    %ebp
    23e8:	c3                   	ret    
    23e9:	8d b4 26 00 00 00 00 	lea    0x0(%esi,%eiz,1),%esi
    23f0:	8d 5d d8             	lea    -0x28(%ebp),%ebx
    23f3:	8d 75 e0             	lea    -0x20(%ebp),%esi
    23f6:	89 55 c4             	mov    %edx,-0x3c(%ebp)
    23f9:	50                   	push   %eax
    23fa:	50                   	push   %eax
    23fb:	53                   	push   %ebx
    23fc:	68 94 66 00 00       	push   $0x6694
    2401:	e8 1a 22 00 00       	call   4620 <tag_get_pt>
    2406:	58                   	pop    %eax
    2407:	5a                   	pop    %edx
    2408:	56                   	push   %esi
    2409:	53                   	push   %ebx
    240a:	e8 81 20 00 00       	call   4490 <spt_get_coord>
    240f:	53                   	push   %ebx
    2410:	6a 01                	push   $0x1
    2412:	8b 0d cc 66 00 00    	mov    0x66cc,%ecx
    2418:	56                   	push   %esi
    2419:	51                   	push   %ecx
    241a:	e8 81 1e 00 00       	call   42a0 <sheet_get_cell_pt>
    241f:	83 c4 14             	add    $0x14,%esp
    2422:	8b 55 c4             	mov    -0x3c(%ebp),%edx
    2425:	31 c9                	xor    %ecx,%ecx
    2427:	8b 45 d8             	mov    -0x28(%ebp),%eax
    242a:	88 d1                	mov    %dl,%cl
    242c:	6a 01                	push   $0x1
    242e:	8b 55 dc             	mov    -0x24(%ebp),%edx
    2431:	e8 9a ed ff ff       	call   11d0 <caret_move>
    2436:	83 c4 10             	add    $0x10,%esp
    2439:	8d 65 f4             	lea    -0xc(%ebp),%esp
    243c:	5b                   	pop    %ebx
    243d:	5e                   	pop    %esi
    243e:	5f                   	pop    %edi
    243f:	5d                   	pop    %ebp
    2440:	eb a6                	jmp    23e8 <key_handle_movement+0xb8>
    2442:	8d b6 00 00 00 00    	lea    0x0(%esi),%esi
    2448:	8d 5d d8             	lea    -0x28(%ebp),%ebx
    244b:	8d 75 e0             	lea    -0x20(%ebp),%esi
    244e:	89 55 c4             	mov    %edx,-0x3c(%ebp)
    2451:	50                   	push   %eax
    2452:	50                   	push   %eax
    2453:	53                   	push   %ebx
    2454:	68 94 66 00 00       	push   $0x6694
    2459:	e8 c2 21 00 00       	call   4620 <tag_get_pt>
    245e:	58                   	pop    %eax
    245f:	5a                   	pop    %edx
    2460:	56                   	push   %esi
    2461:	53                   	push   %ebx
    2462:	e8 29 20 00 00       	call   4490 <spt_get_coord>
    2467:	53                   	push   %ebx
    2468:	c7 45 e4 01 00 00 00 	movl   $0x1,-0x1c(%ebp)
    246f:	6a 00                	push   $0x0
    2471:	eb 9f                	jmp    2412 <key_handle_movement+0xe2>
    2473:	90                   	nop
    2474:	8d 74 26 00          	lea    0x0(%esi,%eiz,1),%esi
    2478:	53                   	push   %ebx
    2479:	53                   	push   %ebx
    247a:	8d 5d d8             	lea    -0x28(%ebp),%ebx
    247d:	89 55 c4             	mov    %edx,-0x3c(%ebp)
    2480:	53                   	push   %ebx
    2481:	68 94 66 00 00       	push   $0x6694
    2486:	e8 95 21 00 00       	call   4620 <tag_get_pt>
    248b:	5e                   	pop    %esi
    248c:	8d 75 e0             	lea    -0x20(%ebp),%esi
    248f:	5f                   	pop    %edi
    2490:	56                   	push   %esi
    2491:	53                   	push   %ebx
    2492:	e8 f9 1f 00 00       	call   4490 <spt_get_coord>
    2497:	83 c4 0c             	add    $0xc,%esp
    249a:	8d 45 d4             	lea    -0x2c(%ebp),%eax
    249d:	50                   	push   %eax
    249e:	8b 45 e0             	mov    -0x20(%ebp),%eax
    24a1:	50                   	push   %eax
    24a2:	a1 cc 66 00 00       	mov    0x66cc,%eax
    24a7:	50                   	push   %eax
    24a8:	e8 a3 1e 00 00       	call   4350 <sheet_get_row_width>
    24ad:	8b 45 d4             	mov    -0x2c(%ebp),%eax
    24b0:	48                   	dec    %eax
    24b1:	89 45 e4             	mov    %eax,-0x1c(%ebp)
    24b4:	e9 56 ff ff ff       	jmp    240f <key_handle_movement+0xdf>
    24b9:	8d b4 26 00 00 00 00 	lea    0x0(%esi,%eiz,1),%esi
    24c0:	88 d0                	mov    %dl,%al
    24c2:	56                   	push   %esi
    24c3:	25 ff 00 00 00       	and    $0xff,%eax
    24c8:	56                   	push   %esi
    24c9:	8d 75 d8             	lea    -0x28(%ebp),%esi
    24cc:	8b 1d 80 66 00 00    	mov    0x6680,%ebx
    24d2:	56                   	push   %esi
    24d3:	89 45 c4             	mov    %eax,-0x3c(%ebp)
    24d6:	68 94 66 00 00       	push   $0x6694
    24db:	e8 40 21 00 00       	call   4620 <tag_get_pt>
    24e0:	5f                   	pop    %edi
    24e1:	8d 7d e0             	lea    -0x20(%ebp),%edi
    24e4:	58                   	pop    %eax
    24e5:	57                   	push   %edi
    24e6:	56                   	push   %esi
    24e7:	e8 a4 1f 00 00       	call   4490 <spt_get_coord>
    24ec:	8b 55 e0             	mov    -0x20(%ebp),%edx
    24ef:	83 c4 10             	add    $0x10,%esp
    24f2:	01 da                	add    %ebx,%edx
    24f4:	85 db                	test   %ebx,%ebx
    24f6:	89 55 e0             	mov    %edx,-0x20(%ebp)
    24f9:	0f 88 71 01 00 00    	js     2670 <key_handle_movement+0x340>
    24ff:	0f 85 8d fe ff ff    	jne    2392 <key_handle_movement+0x62>
    2505:	e9 a8 fe ff ff       	jmp    23b2 <key_handle_movement+0x82>
    250a:	8d b6 00 00 00 00    	lea    0x0(%esi),%esi
    2510:	31 db                	xor    %ebx,%ebx
    2512:	56                   	push   %esi
    2513:	56                   	push   %esi
    2514:	8d 75 d8             	lea    -0x28(%ebp),%esi
    2517:	56                   	push   %esi
    2518:	88 d3                	mov    %dl,%bl
    251a:	68 94 66 00 00       	push   $0x6694
    251f:	e8 fc 20 00 00       	call   4620 <tag_get_pt>
    2524:	5f                   	pop    %edi
    2525:	8d 7d e0             	lea    -0x20(%ebp),%edi
    2528:	58                   	pop    %eax
    2529:	57                   	push   %edi
    252a:	56                   	push   %esi
    252b:	e8 60 1f 00 00       	call   4490 <spt_get_coord>
    2530:	8b 45 e0             	mov    -0x20(%ebp),%eax
    2533:	83 c4 10             	add    $0x10,%esp
    2536:	48                   	dec    %eax
    2537:	85 c0                	test   %eax,%eax
    2539:	0f 8e 21 01 00 00    	jle    2660 <key_handle_movement+0x330>
    253f:	89 45 e0             	mov    %eax,-0x20(%ebp)
    2542:	8b 0d cc 66 00 00    	mov    0x66cc,%ecx
    2548:	56                   	push   %esi
    2549:	a1 b8 66 00 00       	mov    0x66b8,%eax
    254e:	6a 00                	push   $0x0
    2550:	57                   	push   %edi
    2551:	51                   	push   %ecx
    2552:	89 45 e4             	mov    %eax,-0x1c(%ebp)
    2555:	e8 46 1d 00 00       	call   42a0 <sheet_get_cell_pt>
    255a:	c7 04 24 00 00 00 00 	movl   $0x0,(%esp)
    2561:	89 d9                	mov    %ebx,%ecx
    2563:	8b 45 d8             	mov    -0x28(%ebp),%eax
    2566:	8b 55 dc             	mov    -0x24(%ebp),%edx
    2569:	e8 62 ec ff ff       	call   11d0 <caret_move>
    256e:	83 c4 10             	add    $0x10,%esp
    2571:	8d 65 f4             	lea    -0xc(%ebp),%esp
    2574:	5b                   	pop    %ebx
    2575:	5e                   	pop    %esi
    2576:	5f                   	pop    %edi
    2577:	5d                   	pop    %ebp
    2578:	e9 6b fe ff ff       	jmp    23e8 <key_handle_movement+0xb8>
    257d:	8d 76 00             	lea    0x0(%esi),%esi
    2580:	31 db                	xor    %ebx,%ebx
    2582:	8d 75 d8             	lea    -0x28(%ebp),%esi
    2585:	8d 7d e0             	lea    -0x20(%ebp),%edi
    2588:	88 d3                	mov    %dl,%bl
    258a:	50                   	push   %eax
    258b:	50                   	push   %eax
    258c:	56                   	push   %esi
    258d:	68 94 66 00 00       	push   $0x6694
    2592:	e8 89 20 00 00       	call   4620 <tag_get_pt>
    2597:	58                   	pop    %eax
    2598:	5a                   	pop    %edx
    2599:	57                   	push   %edi
    259a:	56                   	push   %esi
    259b:	e8 f0 1e 00 00       	call   4490 <spt_get_coord>
    25a0:	8b 45 e4             	mov    -0x1c(%ebp),%eax
    25a3:	83 c4 10             	add    $0x10,%esp
    25a6:	48                   	dec    %eax
    25a7:	8b 55 e0             	mov    -0x20(%ebp),%edx
    25aa:	89 45 e4             	mov    %eax,-0x1c(%ebp)
    25ad:	85 c0                	test   %eax,%eax
    25af:	0f 8e 83 00 00 00    	jle    2638 <key_handle_movement+0x308>
    25b5:	8b 0d cc 66 00 00    	mov    0x66cc,%ecx
    25bb:	56                   	push   %esi
    25bc:	6a 00                	push   $0x0
    25be:	57                   	push   %edi
    25bf:	51                   	push   %ecx
    25c0:	e8 db 1c 00 00       	call   42a0 <sheet_get_cell_pt>
    25c5:	c7 04 24 01 00 00 00 	movl   $0x1,(%esp)
    25cc:	eb 93                	jmp    2561 <key_handle_movement+0x231>
    25ce:	66 90                	xchg   %ax,%ax
    25d0:	31 db                	xor    %ebx,%ebx
    25d2:	56                   	push   %esi
    25d3:	56                   	push   %esi
    25d4:	8d 75 d8             	lea    -0x28(%ebp),%esi
    25d7:	56                   	push   %esi
    25d8:	88 d3                	mov    %dl,%bl
    25da:	68 94 66 00 00       	push   $0x6694
    25df:	e8 3c 20 00 00       	call   4620 <tag_get_pt>
    25e4:	5f                   	pop    %edi
    25e5:	8d 7d e0             	lea    -0x20(%ebp),%edi
    25e8:	58                   	pop    %eax
    25e9:	57                   	push   %edi
    25ea:	56                   	push   %esi
    25eb:	e8 a0 1e 00 00       	call   4490 <spt_get_coord>
    25f0:	8b 45 e0             	mov    -0x20(%ebp),%eax
    25f3:	8b 0d cc 66 00 00    	mov    0x66cc,%ecx
    25f9:	40                   	inc    %eax
    25fa:	89 45 e0             	mov    %eax,-0x20(%ebp)
    25fd:	58                   	pop    %eax
    25fe:	8d 45 d4             	lea    -0x2c(%ebp),%eax
    2601:	5a                   	pop    %edx
    2602:	50                   	push   %eax
    2603:	51                   	push   %ecx
    2604:	e8 47 1e 00 00       	call   4450 <sheet_get_num_rows>
    2609:	8b 45 d4             	mov    -0x2c(%ebp),%eax
    260c:	83 c4 10             	add    $0x10,%esp
    260f:	39 45 e0             	cmp    %eax,-0x20(%ebp)
    2612:	0f 8e 2a ff ff ff    	jle    2542 <key_handle_movement+0x212>
    2618:	e9 22 ff ff ff       	jmp    253f <key_handle_movement+0x20f>
    261d:	8d 76 00             	lea    0x0(%esi),%esi
    2620:	85 c0                	test   %eax,%eax
    2622:	0f 8f 8a fd ff ff    	jg     23b2 <key_handle_movement+0x82>
    2628:	c7 45 e0 01 00 00 00 	movl   $0x1,-0x20(%ebp)
    262f:	e9 7e fd ff ff       	jmp    23b2 <key_handle_movement+0x82>
    2634:	8d 74 26 00          	lea    0x0(%esi,%eiz,1),%esi
    2638:	83 fa 01             	cmp    $0x1,%edx
    263b:	7e 43                	jle    2680 <key_handle_movement+0x350>
    263d:	50                   	push   %eax
    263e:	8d 45 e4             	lea    -0x1c(%ebp),%eax
    2641:	50                   	push   %eax
    2642:	4a                   	dec    %edx
    2643:	a1 cc 66 00 00       	mov    0x66cc,%eax
    2648:	52                   	push   %edx
    2649:	50                   	push   %eax
    264a:	89 55 e0             	mov    %edx,-0x20(%ebp)
    264d:	e8 fe 1c 00 00       	call   4350 <sheet_get_row_width>
    2652:	83 c4 10             	add    $0x10,%esp
    2655:	e9 5b ff ff ff       	jmp    25b5 <key_handle_movement+0x285>
    265a:	8d b6 00 00 00 00    	lea    0x0(%esi),%esi
    2660:	c7 45 e0 01 00 00 00 	movl   $0x1,-0x20(%ebp)
    2667:	e9 d6 fe ff ff       	jmp    2542 <key_handle_movement+0x212>
    266c:	8d 74 26 00          	lea    0x0(%esi,%eiz,1),%esi
    2670:	85 d2                	test   %edx,%edx
    2672:	0f 8f 3a fd ff ff    	jg     23b2 <key_handle_movement+0x82>
    2678:	eb ae                	jmp    2628 <key_handle_movement+0x2f8>
    267a:	8d b6 00 00 00 00    	lea    0x0(%esi),%esi
    2680:	c7 45 e4 01 00 00 00 	movl   $0x1,-0x1c(%ebp)
    2687:	e9 29 ff ff ff       	jmp    25b5 <key_handle_movement+0x285>
    268c:	8d 74 26 00          	lea    0x0(%esi,%eiz,1),%esi

00002690 <file_save>:
    2690:	55                   	push   %ebp
    2691:	89 e5                	mov    %esp,%ebp
    2693:	57                   	push   %edi
    2694:	56                   	push   %esi
    2695:	53                   	push   %ebx
    2696:	83 c4 80             	add    $0xffffff80,%esp
    2699:	89 45 84             	mov    %eax,-0x7c(%ebp)
    269c:	a1 64 66 00 00       	mov    0x6664,%eax
    26a1:	8b 15 d0 66 00 00    	mov    0x66d0,%edx
    26a7:	48                   	dec    %eax
    26a8:	50                   	push   %eax
    26a9:	6a 00                	push   $0x0
    26ab:	52                   	push   %edx
    26ac:	e8 ff 27 00 00       	call   4eb0 <console_set_pos@plt>
    26b1:	8b 35 d0 66 00 00    	mov    0x66d0,%esi
    26b7:	59                   	pop    %ecx
    26b8:	5b                   	pop    %ebx
    26b9:	6a 02                	push   $0x2
    26bb:	56                   	push   %esi
    26bc:	e8 6f 27 00 00       	call   4e30 <console_set_style@plt>
    26c1:	83 c4 0c             	add    $0xc,%esp
    26c4:	8b 3d 60 66 00 00    	mov    0x6660,%edi
    26ca:	b8 03 00 00 00       	mov    $0x3,%eax
    26cf:	8d 5d a8             	lea    -0x58(%ebp),%ebx
    26d2:	29 f8                	sub    %edi,%eax
    26d4:	68 57 49 00 00       	push   $0x4957
    26d9:	50                   	push   %eax
    26da:	68 ee 48 00 00       	push   $0x48ee
    26df:	e8 2c 26 00 00       	call   4d10 <printf@plt>
    26e4:	58                   	pop    %eax
    26e5:	a1 d0 66 00 00       	mov    0x66d0,%eax
    26ea:	50                   	push   %eax
    26eb:	e8 90 27 00 00       	call   4e80 <console_flush@plt>
    26f0:	8b 0d d0 66 00 00    	mov    0x66d0,%ecx
    26f6:	58                   	pop    %eax
    26f7:	5a                   	pop    %edx
    26f8:	6a 00                	push   $0x0
    26fa:	51                   	push   %ecx
    26fb:	e8 30 27 00 00       	call   4e30 <console_set_style@plt>
    2700:	8d 45 88             	lea    -0x78(%ebp),%eax
    2703:	8b 35 cc 66 00 00    	mov    0x66cc,%esi
    2709:	50                   	push   %eax
    270a:	6a 00                	push   $0x0
    270c:	53                   	push   %ebx
    270d:	56                   	push   %esi
    270e:	83 0d 90 66 00 00 08 	orl    $0x8,0x6690
    2715:	c7 45 ac 01 00 00 00 	movl   $0x1,-0x54(%ebp)
    271c:	c7 45 a8 01 00 00 00 	movl   $0x1,-0x58(%ebp)
    2723:	e8 78 1b 00 00       	call   42a0 <sheet_get_cell_pt>
    2728:	83 c4 18             	add    $0x18,%esp
    272b:	8b 3d cc 66 00 00    	mov    0x66cc,%edi
    2731:	8d 75 a0             	lea    -0x60(%ebp),%esi
    2734:	56                   	push   %esi
    2735:	57                   	push   %edi
    2736:	e8 15 1d 00 00       	call   4450 <sheet_get_num_rows>
    273b:	8b 45 a0             	mov    -0x60(%ebp),%eax
    273e:	40                   	inc    %eax
    273f:	8d 7d 90             	lea    -0x70(%ebp),%edi
    2742:	89 45 a8             	mov    %eax,-0x58(%ebp)
    2745:	a1 cc 66 00 00       	mov    0x66cc,%eax
    274a:	57                   	push   %edi
    274b:	6a 01                	push   $0x1
    274d:	53                   	push   %ebx
    274e:	50                   	push   %eax
    274f:	c7 45 ac 01 00 00 00 	movl   $0x1,-0x54(%ebp)
    2756:	e8 45 1b 00 00       	call   42a0 <sheet_get_cell_pt>
    275b:	83 c4 18             	add    $0x18,%esp
    275e:	8b 55 84             	mov    -0x7c(%ebp),%edx
    2761:	68 61 49 00 00       	push   $0x4961
    2766:	52                   	push   %edx
    2767:	e8 d4 26 00 00       	call   4e40 <fopen@plt>
    276c:	83 c4 10             	add    $0x10,%esp
    276f:	89 45 80             	mov    %eax,-0x80(%ebp)
    2772:	85 c0                	test   %eax,%eax
    2774:	0f 84 75 01 00 00    	je     28ef <file_save+0x25f>
    277a:	8b 45 88             	mov    -0x78(%ebp),%eax
    277d:	8b 55 8c             	mov    -0x74(%ebp),%edx
    2780:	89 45 98             	mov    %eax,-0x68(%ebp)
    2783:	89 55 9c             	mov    %edx,-0x64(%ebp)
    2786:	eb 20                	jmp    27a8 <file_save+0x118>
    2788:	8b 45 a0             	mov    -0x60(%ebp),%eax
    278b:	8b 55 a4             	mov    -0x5c(%ebp),%edx
    278e:	89 45 98             	mov    %eax,-0x68(%ebp)
    2791:	89 55 9c             	mov    %edx,-0x64(%ebp)
    2794:	50                   	push   %eax
    2795:	50                   	push   %eax
    2796:	57                   	push   %edi
    2797:	56                   	push   %esi
    2798:	e8 83 1d 00 00       	call   4520 <spt_equal>
    279d:	83 c4 10             	add    $0x10,%esp
    27a0:	84 c0                	test   %al,%al
    27a2:	0f 85 b8 00 00 00    	jne    2860 <file_save+0x1d0>
    27a8:	50                   	push   %eax
    27a9:	50                   	push   %eax
    27aa:	8d 45 98             	lea    -0x68(%ebp),%eax
    27ad:	56                   	push   %esi
    27ae:	6a 40                	push   $0x40
    27b0:	53                   	push   %ebx
    27b1:	57                   	push   %edi
    27b2:	50                   	push   %eax
    27b3:	a1 cc 66 00 00       	mov    0x66cc,%eax
    27b8:	50                   	push   %eax
    27b9:	e8 62 1a 00 00       	call   4220 <sheet_copy_out>
    27be:	83 c4 14             	add    $0x14,%esp
    27c1:	53                   	push   %ebx
    27c2:	e8 c9 26 00 00       	call   4e90 <str_size@plt>
    27c7:	89 c2                	mov    %eax,%edx
    27c9:	8b 45 80             	mov    -0x80(%ebp),%eax
    27cc:	50                   	push   %eax
    27cd:	89 55 84             	mov    %edx,-0x7c(%ebp)
    27d0:	52                   	push   %edx
    27d1:	6a 01                	push   $0x1
    27d3:	53                   	push   %ebx
    27d4:	e8 e7 26 00 00       	call   4ec0 <fwrite@plt>
    27d9:	8b 55 84             	mov    -0x7c(%ebp),%edx
    27dc:	83 c4 20             	add    $0x20,%esp
    27df:	39 c2                	cmp    %eax,%edx
    27e1:	74 a5                	je     2788 <file_save+0xf8>
    27e3:	50                   	push   %eax
    27e4:	a1 64 66 00 00       	mov    0x6664,%eax
    27e9:	48                   	dec    %eax
    27ea:	50                   	push   %eax
    27eb:	a1 d0 66 00 00       	mov    0x66d0,%eax
    27f0:	6a 00                	push   $0x0
    27f2:	50                   	push   %eax
    27f3:	e8 b8 26 00 00       	call   4eb0 <console_set_pos@plt>
    27f8:	8b 0d d0 66 00 00    	mov    0x66d0,%ecx
    27fe:	58                   	pop    %eax
    27ff:	5a                   	pop    %edx
    2800:	6a 02                	push   $0x2
    2802:	51                   	push   %ecx
    2803:	e8 28 26 00 00       	call   4e30 <console_set_style@plt>
    2808:	83 c4 0c             	add    $0xc,%esp
    280b:	8b 1d 60 66 00 00    	mov    0x6660,%ebx
    2811:	b8 03 00 00 00       	mov    $0x3,%eax
    2816:	29 d8                	sub    %ebx,%eax
    2818:	68 78 49 00 00       	push   $0x4978
    281d:	50                   	push   %eax
    281e:	68 ee 48 00 00       	push   $0x48ee
    2823:	e8 e8 24 00 00       	call   4d10 <printf@plt>
    2828:	8b 3d d0 66 00 00    	mov    0x66d0,%edi
    282e:	5e                   	pop    %esi
    282f:	57                   	push   %edi
    2830:	e8 4b 26 00 00       	call   4e80 <console_flush@plt>
    2835:	8b 0d d0 66 00 00    	mov    0x66d0,%ecx
    283b:	58                   	pop    %eax
    283c:	5a                   	pop    %edx
    283d:	6a 00                	push   $0x0
    283f:	51                   	push   %ecx
    2840:	e8 eb 25 00 00       	call   4e30 <console_set_style@plt>
    2845:	83 c4 10             	add    $0x10,%esp
    2848:	83 0d 90 66 00 00 08 	orl    $0x8,0x6690
    284f:	8d 65 f4             	lea    -0xc(%ebp),%esp
    2852:	bb f6 fe ff ff       	mov    $0xfffffef6,%ebx
    2857:	89 d8                	mov    %ebx,%eax
    2859:	5b                   	pop    %ebx
    285a:	5e                   	pop    %esi
    285b:	5f                   	pop    %edi
    285c:	5d                   	pop    %ebp
    285d:	c3                   	ret    
    285e:	66 90                	xchg   %ax,%ax
    2860:	83 ec 0c             	sub    $0xc,%esp
    2863:	8b 45 80             	mov    -0x80(%ebp),%eax
    2866:	50                   	push   %eax
    2867:	e8 f4 25 00 00       	call   4e60 <fclose@plt>
    286c:	83 c4 10             	add    $0x10,%esp
    286f:	89 c3                	mov    %eax,%ebx
    2871:	85 c0                	test   %eax,%eax
    2873:	0f 85 6a ff ff ff    	jne    27e3 <file_save+0x153>
    2879:	50                   	push   %eax
    287a:	a1 64 66 00 00       	mov    0x6664,%eax
    287f:	48                   	dec    %eax
    2880:	8b 15 d0 66 00 00    	mov    0x66d0,%edx
    2886:	50                   	push   %eax
    2887:	6a 00                	push   $0x0
    2889:	52                   	push   %edx
    288a:	e8 21 26 00 00       	call   4eb0 <console_set_pos@plt>
    288f:	8b 3d d0 66 00 00    	mov    0x66d0,%edi
    2895:	59                   	pop    %ecx
    2896:	5e                   	pop    %esi
    2897:	6a 02                	push   $0x2
    2899:	57                   	push   %edi
    289a:	e8 91 25 00 00       	call   4e30 <console_set_style@plt>
    289f:	83 c4 0c             	add    $0xc,%esp
    28a2:	8b 15 60 66 00 00    	mov    0x6660,%edx
    28a8:	b8 03 00 00 00       	mov    $0x3,%eax
    28ad:	29 d0                	sub    %edx,%eax
    28af:	68 8c 49 00 00       	push   $0x498c
    28b4:	50                   	push   %eax
    28b5:	68 ee 48 00 00       	push   $0x48ee
    28ba:	e8 51 24 00 00       	call   4d10 <printf@plt>
    28bf:	8b 35 d0 66 00 00    	mov    0x66d0,%esi
    28c5:	59                   	pop    %ecx
    28c6:	56                   	push   %esi
    28c7:	e8 b4 25 00 00       	call   4e80 <console_flush@plt>
    28cc:	5f                   	pop    %edi
    28cd:	58                   	pop    %eax
    28ce:	a1 d0 66 00 00       	mov    0x66d0,%eax
    28d3:	6a 00                	push   $0x0
    28d5:	50                   	push   %eax
    28d6:	e8 55 25 00 00       	call   4e30 <console_set_style@plt>
    28db:	83 c4 10             	add    $0x10,%esp
    28de:	83 0d 90 66 00 00 08 	orl    $0x8,0x6690
    28e5:	8d 65 f4             	lea    -0xc(%ebp),%esp
    28e8:	89 d8                	mov    %ebx,%eax
    28ea:	5b                   	pop    %ebx
    28eb:	5e                   	pop    %esi
    28ec:	5f                   	pop    %edi
    28ed:	5d                   	pop    %ebp
    28ee:	c3                   	ret    
    28ef:	a1 64 66 00 00       	mov    0x6664,%eax
    28f4:	8b 35 d0 66 00 00    	mov    0x66d0,%esi
    28fa:	48                   	dec    %eax
    28fb:	53                   	push   %ebx
    28fc:	50                   	push   %eax
    28fd:	6a 00                	push   $0x0
    28ff:	56                   	push   %esi
    2900:	e8 ab 25 00 00       	call   4eb0 <console_set_pos@plt>
    2905:	5f                   	pop    %edi
    2906:	58                   	pop    %eax
    2907:	a1 d0 66 00 00       	mov    0x66d0,%eax
    290c:	6a 02                	push   $0x2
    290e:	50                   	push   %eax
    290f:	e8 1c 25 00 00       	call   4e30 <console_set_style@plt>
    2914:	83 c4 0c             	add    $0xc,%esp
    2917:	8b 15 60 66 00 00    	mov    0x6660,%edx
    291d:	b8 03 00 00 00       	mov    $0x3,%eax
    2922:	29 d0                	sub    %edx,%eax
    2924:	68 64 49 00 00       	push   $0x4964
    2929:	50                   	push   %eax
    292a:	68 ee 48 00 00       	push   $0x48ee
    292f:	e8 dc 23 00 00       	call   4d10 <printf@plt>
    2934:	8b 1d d0 66 00 00    	mov    0x66d0,%ebx
    293a:	59                   	pop    %ecx
    293b:	53                   	push   %ebx
    293c:	e8 3f 25 00 00       	call   4e80 <console_flush@plt>
    2941:	a1 d0 66 00 00       	mov    0x66d0,%eax
    2946:	5e                   	pop    %esi
    2947:	5f                   	pop    %edi
    2948:	6a 00                	push   $0x0
    294a:	50                   	push   %eax
    294b:	e8 e0 24 00 00       	call   4e30 <console_set_style@plt>
    2950:	83 c4 10             	add    $0x10,%esp
    2953:	83 0d 90 66 00 00 08 	orl    $0x8,0x6690
    295a:	8d 65 f4             	lea    -0xc(%ebp),%esp
    295d:	bb f2 ff ff ff       	mov    $0xfffffff2,%ebx
    2962:	89 d8                	mov    %ebx,%eax
    2964:	5b                   	pop    %ebx
    2965:	5e                   	pop    %esi
    2966:	5f                   	pop    %edi
    2967:	5d                   	pop    %ebp
    2968:	c3                   	ret    
    2969:	8d b4 26 00 00 00 00 	lea    0x0(%esi,%eiz,1),%esi

00002970 <search>:
    2970:	55                   	push   %ebp
    2971:	89 e5                	mov    %esp,%ebp
    2973:	57                   	push   %edi
    2974:	56                   	push   %esi
    2975:	53                   	push   %ebx
    2976:	83 ec 40             	sub    $0x40,%esp
    2979:	89 c3                	mov    %eax,%ebx
    297b:	a1 64 66 00 00       	mov    0x6664,%eax
    2980:	89 d7                	mov    %edx,%edi
    2982:	48                   	dec    %eax
    2983:	50                   	push   %eax
    2984:	a1 d0 66 00 00       	mov    0x66d0,%eax
    2989:	6a 00                	push   $0x0
    298b:	50                   	push   %eax
    298c:	e8 1f 25 00 00       	call   4eb0 <console_set_pos@plt>
    2991:	8b 0d d0 66 00 00    	mov    0x66d0,%ecx
    2997:	58                   	pop    %eax
    2998:	5a                   	pop    %edx
    2999:	6a 02                	push   $0x2
    299b:	51                   	push   %ecx
    299c:	e8 8f 24 00 00       	call   4e30 <console_set_style@plt>
    29a1:	83 c4 0c             	add    $0xc,%esp
    29a4:	8b 35 60 66 00 00    	mov    0x6660,%esi
    29aa:	b8 03 00 00 00       	mov    $0x3,%eax
    29af:	29 f0                	sub    %esi,%eax
    29b1:	68 98 49 00 00       	push   $0x4998
    29b6:	50                   	push   %eax
    29b7:	68 ee 48 00 00       	push   $0x48ee
    29bc:	e8 4f 23 00 00       	call   4d10 <printf@plt>
    29c1:	58                   	pop    %eax
    29c2:	a1 d0 66 00 00       	mov    0x66d0,%eax
    29c7:	50                   	push   %eax
    29c8:	e8 b3 24 00 00       	call   4e80 <console_flush@plt>
    29cd:	8b 0d d0 66 00 00    	mov    0x66d0,%ecx
    29d3:	58                   	pop    %eax
    29d4:	5a                   	pop    %edx
    29d5:	6a 00                	push   $0x0
    29d7:	51                   	push   %ecx
    29d8:	e8 53 24 00 00       	call   4e30 <console_set_style@plt>
    29dd:	5e                   	pop    %esi
    29de:	8d 75 bc             	lea    -0x44(%ebp),%esi
    29e1:	58                   	pop    %eax
    29e2:	56                   	push   %esi
    29e3:	83 0d 90 66 00 00 08 	orl    $0x8,0x6690
    29ea:	68 94 66 00 00       	push   $0x6694
    29ef:	e8 2c 1c 00 00       	call   4620 <tag_get_pt>
    29f4:	89 f8                	mov    %edi,%eax
    29f6:	83 c4 10             	add    $0x10,%esp
    29f9:	84 c0                	test   %al,%al
    29fb:	0f 85 c7 01 00 00    	jne    2bc8 <search+0x258>
    2a01:	8b 45 bc             	mov    -0x44(%ebp),%eax
    2a04:	51                   	push   %ecx
    2a05:	56                   	push   %esi
    2a06:	8b 75 c0             	mov    -0x40(%ebp),%esi
    2a09:	56                   	push   %esi
    2a0a:	50                   	push   %eax
    2a0b:	e8 30 1b 00 00       	call   4540 <spt_next_char>
    2a10:	8b 45 bc             	mov    -0x44(%ebp),%eax
    2a13:	89 45 c4             	mov    %eax,-0x3c(%ebp)
    2a16:	a1 60 4b 00 00       	mov    0x4b60,%eax
    2a1b:	89 45 d8             	mov    %eax,-0x28(%ebp)
    2a1e:	a1 64 4b 00 00       	mov    0x4b64,%eax
    2a23:	89 45 dc             	mov    %eax,-0x24(%ebp)
    2a26:	a1 68 4b 00 00       	mov    0x4b68,%eax
    2a2b:	8b 55 c0             	mov    -0x40(%ebp),%edx
    2a2e:	89 45 e0             	mov    %eax,-0x20(%ebp)
    2a31:	a1 6c 4b 00 00       	mov    0x4b6c,%eax
    2a36:	89 55 c8             	mov    %edx,-0x38(%ebp)
    2a39:	89 45 e4             	mov    %eax,-0x1c(%ebp)
    2a3c:	83 c4 10             	add    $0x10,%esp
    2a3f:	89 f8                	mov    %edi,%eax
    2a41:	56                   	push   %esi
    2a42:	25 ff 00 00 00       	and    $0xff,%eax
    2a47:	50                   	push   %eax
    2a48:	8b 45 e4             	mov    -0x1c(%ebp),%eax
    2a4b:	50                   	push   %eax
    2a4c:	8b 45 e0             	mov    -0x20(%ebp),%eax
    2a4f:	50                   	push   %eax
    2a50:	8b 45 dc             	mov    -0x24(%ebp),%eax
    2a53:	50                   	push   %eax
    2a54:	8b 45 d8             	mov    -0x28(%ebp),%eax
    2a57:	50                   	push   %eax
    2a58:	8d 45 c4             	lea    -0x3c(%ebp),%eax
    2a5b:	50                   	push   %eax
    2a5c:	53                   	push   %ebx
    2a5d:	e8 de 1b 00 00       	call   4640 <search_init>
    2a62:	83 c4 20             	add    $0x20,%esp
    2a65:	89 c6                	mov    %eax,%esi
    2a67:	85 c0                	test   %eax,%eax
    2a69:	0f 84 91 02 00 00    	je     2d00 <search+0x390>
    2a6f:	8d 45 cc             	lea    -0x34(%ebp),%eax
    2a72:	53                   	push   %ebx
    2a73:	53                   	push   %ebx
    2a74:	50                   	push   %eax
    2a75:	56                   	push   %esi
    2a76:	e8 45 1d 00 00       	call   47c0 <search_next_match>
    2a7b:	83 c4 10             	add    $0x10,%esp
    2a7e:	85 c0                	test   %eax,%eax
    2a80:	0f 85 8a 01 00 00    	jne    2c10 <search+0x2a0>
    2a86:	8b 5d d4             	mov    -0x2c(%ebp),%ebx
    2a89:	85 db                	test   %ebx,%ebx
    2a8b:	0f 84 fd 01 00 00    	je     2c8e <search+0x31e>
    2a91:	50                   	push   %eax
    2a92:	a1 64 66 00 00       	mov    0x6664,%eax
    2a97:	48                   	dec    %eax
    2a98:	50                   	push   %eax
    2a99:	a1 d0 66 00 00       	mov    0x66d0,%eax
    2a9e:	6a 00                	push   $0x0
    2aa0:	50                   	push   %eax
    2aa1:	e8 0a 24 00 00       	call   4eb0 <console_set_pos@plt>
    2aa6:	8b 0d d0 66 00 00    	mov    0x66d0,%ecx
    2aac:	58                   	pop    %eax
    2aad:	5a                   	pop    %edx
    2aae:	6a 02                	push   $0x2
    2ab0:	51                   	push   %ecx
    2ab1:	e8 7a 23 00 00       	call   4e30 <console_set_style@plt>
    2ab6:	83 c4 0c             	add    $0xc,%esp
    2ab9:	8b 1d 60 66 00 00    	mov    0x6660,%ebx
    2abf:	b8 03 00 00 00       	mov    $0x3,%eax
    2ac4:	29 d8                	sub    %ebx,%eax
    2ac6:	68 d3 49 00 00       	push   $0x49d3
    2acb:	50                   	push   %eax
    2acc:	68 ee 48 00 00       	push   $0x48ee
    2ad1:	e8 3a 22 00 00       	call   4d10 <printf@plt>
    2ad6:	58                   	pop    %eax
    2ad7:	a1 d0 66 00 00       	mov    0x66d0,%eax
    2adc:	50                   	push   %eax
    2add:	e8 9e 23 00 00       	call   4e80 <console_flush@plt>
    2ae2:	8b 0d d0 66 00 00    	mov    0x66d0,%ecx
    2ae8:	58                   	pop    %eax
    2ae9:	5a                   	pop    %edx
    2aea:	6a 00                	push   $0x0
    2aec:	51                   	push   %ecx
    2aed:	e8 3e 23 00 00       	call   4e30 <console_set_style@plt>
    2af2:	8b 5d d4             	mov    -0x2c(%ebp),%ebx
    2af5:	83 c4 10             	add    $0x10,%esp
    2af8:	83 0d 90 66 00 00 08 	orl    $0x8,0x6690
    2aff:	85 db                	test   %ebx,%ebx
    2b01:	0f 84 6e 02 00 00    	je     2d75 <search+0x405>
    2b07:	83 ec 0c             	sub    $0xc,%esp
    2b0a:	8b 03                	mov    (%ebx),%eax
    2b0c:	8b 53 04             	mov    0x4(%ebx),%edx
    2b0f:	31 c9                	xor    %ecx,%ecx
    2b11:	6a 01                	push   $0x1
    2b13:	e8 b8 e6 ff ff       	call   11d0 <caret_move>
    2b18:	89 f8                	mov    %edi,%eax
    2b1a:	83 c4 10             	add    $0x10,%esp
    2b1d:	84 c0                	test   %al,%al
    2b1f:	0f 85 90 00 00 00    	jne    2bb5 <search+0x245>
    2b25:	8b 55 d0             	mov    -0x30(%ebp),%edx
    2b28:	8b 45 cc             	mov    -0x34(%ebp),%eax
    2b2b:	89 d7                	mov    %edx,%edi
    2b2d:	09 c7                	or     %eax,%edi
    2b2f:	74 30                	je     2b61 <search+0x1f1>
    2b31:	8d b4 26 00 00 00 00 	lea    0x0(%esi,%eiz,1),%esi
    2b38:	83 c0 ff             	add    $0xffffffff,%eax
    2b3b:	83 d2 ff             	adc    $0xffffffff,%edx
    2b3e:	89 45 cc             	mov    %eax,-0x34(%ebp)
    2b41:	50                   	push   %eax
    2b42:	53                   	push   %ebx
    2b43:	89 55 d0             	mov    %edx,-0x30(%ebp)
    2b46:	8b 53 04             	mov    0x4(%ebx),%edx
    2b49:	52                   	push   %edx
    2b4a:	8b 0b                	mov    (%ebx),%ecx
    2b4c:	51                   	push   %ecx
    2b4d:	e8 2e 1a 00 00       	call   4580 <spt_prev_char>
    2b52:	8b 55 d0             	mov    -0x30(%ebp),%edx
    2b55:	8b 45 cc             	mov    -0x34(%ebp),%eax
    2b58:	89 d7                	mov    %edx,%edi
    2b5a:	83 c4 10             	add    $0x10,%esp
    2b5d:	09 c7                	or     %eax,%edi
    2b5f:	75 d7                	jne    2b38 <search+0x1c8>
    2b61:	83 ec 0c             	sub    $0xc,%esp
    2b64:	8b 03                	mov    (%ebx),%eax
    2b66:	8b 53 04             	mov    0x4(%ebx),%edx
    2b69:	b9 01 00 00 00       	mov    $0x1,%ecx
    2b6e:	6a 01                	push   $0x1
    2b70:	e8 5b e6 ff ff       	call   11d0 <caret_move>
    2b75:	89 1c 24             	mov    %ebx,(%esp)
    2b78:	e8 83 23 00 00       	call   4f00 <free@plt>
    2b7d:	83 c4 10             	add    $0x10,%esp
    2b80:	83 ec 0c             	sub    $0xc,%esp
    2b83:	56                   	push   %esi
    2b84:	e8 27 1d 00 00       	call   48b0 <search_fini>
    2b89:	83 c4 10             	add    $0x10,%esp
    2b8c:	8d 65 f4             	lea    -0xc(%ebp),%esp
    2b8f:	5b                   	pop    %ebx
    2b90:	5e                   	pop    %esi
    2b91:	5f                   	pop    %edi
    2b92:	5d                   	pop    %ebp
    2b93:	c3                   	ret    
    2b94:	8d 74 26 00          	lea    0x0(%esi,%eiz,1),%esi
    2b98:	83 c0 ff             	add    $0xffffffff,%eax
    2b9b:	83 d2 ff             	adc    $0xffffffff,%edx
    2b9e:	89 45 cc             	mov    %eax,-0x34(%ebp)
    2ba1:	50                   	push   %eax
    2ba2:	53                   	push   %ebx
    2ba3:	8b 43 04             	mov    0x4(%ebx),%eax
    2ba6:	89 55 d0             	mov    %edx,-0x30(%ebp)
    2ba9:	50                   	push   %eax
    2baa:	8b 03                	mov    (%ebx),%eax
    2bac:	50                   	push   %eax
    2bad:	e8 8e 19 00 00       	call   4540 <spt_next_char>
    2bb2:	83 c4 10             	add    $0x10,%esp
    2bb5:	8b 55 d0             	mov    -0x30(%ebp),%edx
    2bb8:	8b 45 cc             	mov    -0x34(%ebp),%eax
    2bbb:	89 d7                	mov    %edx,%edi
    2bbd:	09 c7                	or     %eax,%edi
    2bbf:	75 d7                	jne    2b98 <search+0x228>
    2bc1:	eb 9e                	jmp    2b61 <search+0x1f1>
    2bc3:	90                   	nop
    2bc4:	8d 74 26 00          	lea    0x0(%esi,%eiz,1),%esi
    2bc8:	8b 55 bc             	mov    -0x44(%ebp),%edx
    2bcb:	50                   	push   %eax
    2bcc:	8b 45 c0             	mov    -0x40(%ebp),%eax
    2bcf:	56                   	push   %esi
    2bd0:	50                   	push   %eax
    2bd1:	52                   	push   %edx
    2bd2:	e8 a9 19 00 00       	call   4580 <spt_prev_char>
    2bd7:	8b 45 bc             	mov    -0x44(%ebp),%eax
    2bda:	89 45 c4             	mov    %eax,-0x3c(%ebp)
    2bdd:	a1 50 4b 00 00       	mov    0x4b50,%eax
    2be2:	89 45 d8             	mov    %eax,-0x28(%ebp)
    2be5:	a1 54 4b 00 00       	mov    0x4b54,%eax
    2bea:	89 45 dc             	mov    %eax,-0x24(%ebp)
    2bed:	a1 58 4b 00 00       	mov    0x4b58,%eax
    2bf2:	8b 55 c0             	mov    -0x40(%ebp),%edx
    2bf5:	89 45 e0             	mov    %eax,-0x20(%ebp)
    2bf8:	a1 5c 4b 00 00       	mov    0x4b5c,%eax
    2bfd:	89 55 c8             	mov    %edx,-0x38(%ebp)
    2c00:	89 45 e4             	mov    %eax,-0x1c(%ebp)
    2c03:	83 c4 10             	add    $0x10,%esp
    2c06:	e9 34 fe ff ff       	jmp    2a3f <search+0xcf>
    2c0b:	90                   	nop
    2c0c:	8d 74 26 00          	lea    0x0(%esi,%eiz,1),%esi
    2c10:	50                   	push   %eax
    2c11:	a1 64 66 00 00       	mov    0x6664,%eax
    2c16:	48                   	dec    %eax
    2c17:	50                   	push   %eax
    2c18:	a1 d0 66 00 00       	mov    0x66d0,%eax
    2c1d:	6a 00                	push   $0x0
    2c1f:	50                   	push   %eax
    2c20:	e8 8b 22 00 00       	call   4eb0 <console_set_pos@plt>
    2c25:	8b 0d d0 66 00 00    	mov    0x66d0,%ecx
    2c2b:	58                   	pop    %eax
    2c2c:	5a                   	pop    %edx
    2c2d:	6a 02                	push   $0x2
    2c2f:	51                   	push   %ecx
    2c30:	e8 fb 21 00 00       	call   4e30 <console_set_style@plt>
    2c35:	83 c4 0c             	add    $0xc,%esp
    2c38:	8b 1d 60 66 00 00    	mov    0x6660,%ebx
    2c3e:	b8 03 00 00 00       	mov    $0x3,%eax
    2c43:	29 d8                	sub    %ebx,%eax
    2c45:	68 c1 49 00 00       	push   $0x49c1
    2c4a:	50                   	push   %eax
    2c4b:	68 ee 48 00 00       	push   $0x48ee
    2c50:	e8 bb 20 00 00       	call   4d10 <printf@plt>
    2c55:	58                   	pop    %eax
    2c56:	a1 d0 66 00 00       	mov    0x66d0,%eax
    2c5b:	50                   	push   %eax
    2c5c:	e8 1f 22 00 00       	call   4e80 <console_flush@plt>
    2c61:	8b 0d d0 66 00 00    	mov    0x66d0,%ecx
    2c67:	58                   	pop    %eax
    2c68:	5a                   	pop    %edx
    2c69:	6a 00                	push   $0x0
    2c6b:	51                   	push   %ecx
    2c6c:	e8 bf 21 00 00       	call   4e30 <console_set_style@plt>
    2c71:	83 0d 90 66 00 00 08 	orl    $0x8,0x6690
    2c78:	89 34 24             	mov    %esi,(%esp)
    2c7b:	e8 30 1c 00 00       	call   48b0 <search_fini>
    2c80:	8b 5d d4             	mov    -0x2c(%ebp),%ebx
    2c83:	83 c4 10             	add    $0x10,%esp
    2c86:	85 db                	test   %ebx,%ebx
    2c88:	0f 85 03 fe ff ff    	jne    2a91 <search+0x121>
    2c8e:	50                   	push   %eax
    2c8f:	a1 64 66 00 00       	mov    0x6664,%eax
    2c94:	48                   	dec    %eax
    2c95:	8b 15 d0 66 00 00    	mov    0x66d0,%edx
    2c9b:	50                   	push   %eax
    2c9c:	6a 00                	push   $0x0
    2c9e:	52                   	push   %edx
    2c9f:	e8 0c 22 00 00       	call   4eb0 <console_set_pos@plt>
    2ca4:	8b 3d d0 66 00 00    	mov    0x66d0,%edi
    2caa:	59                   	pop    %ecx
    2cab:	5b                   	pop    %ebx
    2cac:	6a 02                	push   $0x2
    2cae:	57                   	push   %edi
    2caf:	e8 7c 21 00 00       	call   4e30 <console_set_style@plt>
    2cb4:	83 c4 0c             	add    $0xc,%esp
    2cb7:	8b 15 60 66 00 00    	mov    0x6660,%edx
    2cbd:	b8 03 00 00 00       	mov    $0x3,%eax
    2cc2:	29 d0                	sub    %edx,%eax
    2cc4:	68 f2 49 00 00       	push   $0x49f2
    2cc9:	50                   	push   %eax
    2cca:	68 ee 48 00 00       	push   $0x48ee
    2ccf:	e8 3c 20 00 00       	call   4d10 <printf@plt>
    2cd4:	8b 1d d0 66 00 00    	mov    0x66d0,%ebx
    2cda:	59                   	pop    %ecx
    2cdb:	53                   	push   %ebx
    2cdc:	e8 9f 21 00 00       	call   4e80 <console_flush@plt>
    2ce1:	5f                   	pop    %edi
    2ce2:	58                   	pop    %eax
    2ce3:	a1 d0 66 00 00       	mov    0x66d0,%eax
    2ce8:	6a 00                	push   $0x0
    2cea:	50                   	push   %eax
    2ceb:	e8 40 21 00 00       	call   4e30 <console_set_style@plt>
    2cf0:	83 c4 10             	add    $0x10,%esp
    2cf3:	83 0d 90 66 00 00 08 	orl    $0x8,0x6690
    2cfa:	e9 81 fe ff ff       	jmp    2b80 <search+0x210>
    2cff:	90                   	nop
    2d00:	a1 64 66 00 00       	mov    0x6664,%eax
    2d05:	8b 3d d0 66 00 00    	mov    0x66d0,%edi
    2d0b:	48                   	dec    %eax
    2d0c:	56                   	push   %esi
    2d0d:	50                   	push   %eax
    2d0e:	6a 00                	push   $0x0
    2d10:	57                   	push   %edi
    2d11:	e8 9a 21 00 00       	call   4eb0 <console_set_pos@plt>
    2d16:	8b 0d d0 66 00 00    	mov    0x66d0,%ecx
    2d1c:	58                   	pop    %eax
    2d1d:	5a                   	pop    %edx
    2d1e:	6a 02                	push   $0x2
    2d20:	51                   	push   %ecx
    2d21:	e8 0a 21 00 00       	call   4e30 <console_set_style@plt>
    2d26:	83 c4 0c             	add    $0xc,%esp
    2d29:	8b 1d 60 66 00 00    	mov    0x6660,%ebx
    2d2f:	b8 03 00 00 00       	mov    $0x3,%eax
    2d34:	29 d8                	sub    %ebx,%eax
    2d36:	68 a5 49 00 00       	push   $0x49a5
    2d3b:	50                   	push   %eax
    2d3c:	68 ee 48 00 00       	push   $0x48ee
    2d41:	e8 ca 1f 00 00       	call   4d10 <printf@plt>
    2d46:	8b 3d d0 66 00 00    	mov    0x66d0,%edi
    2d4c:	5e                   	pop    %esi
    2d4d:	57                   	push   %edi
    2d4e:	e8 2d 21 00 00       	call   4e80 <console_flush@plt>
    2d53:	8b 0d d0 66 00 00    	mov    0x66d0,%ecx
    2d59:	58                   	pop    %eax
    2d5a:	5a                   	pop    %edx
    2d5b:	6a 00                	push   $0x0
    2d5d:	51                   	push   %ecx
    2d5e:	e8 cd 20 00 00       	call   4e30 <console_set_style@plt>
    2d63:	83 c4 10             	add    $0x10,%esp
    2d66:	83 0d 90 66 00 00 08 	orl    $0x8,0x6690
    2d6d:	8d 65 f4             	lea    -0xc(%ebp),%esp
    2d70:	5b                   	pop    %ebx
    2d71:	5e                   	pop    %esi
    2d72:	5f                   	pop    %edi
    2d73:	5d                   	pop    %ebp
    2d74:	c3                   	ret    
    2d75:	53                   	push   %ebx
    2d76:	68 3c 05 00 00       	push   $0x53c
    2d7b:	68 06 49 00 00       	push   $0x4906
    2d80:	68 e0 49 00 00       	push   $0x49e0
    2d85:	e8 26 20 00 00       	call   4db0 <assert_abort@plt>
    2d8a:	66 90                	xchg   %ax,%ax
    2d8c:	66 90                	xchg   %ax,%ax
    2d8e:	66 90                	xchg   %ax,%ax

00002d90 <main>:
    2d90:	8d 4c 24 04          	lea    0x4(%esp),%ecx
    2d94:	83 e4 f0             	and    $0xfffffff0,%esp
    2d97:	ff 71 fc             	pushl  -0x4(%ecx)
    2d9a:	55                   	push   %ebp
    2d9b:	89 e5                	mov    %esp,%ebp
    2d9d:	57                   	push   %edi
    2d9e:	56                   	push   %esi
    2d9f:	53                   	push   %ebx
    2da0:	51                   	push   %ecx
    2da1:	81 ec c0 00 00 00    	sub    $0xc0,%esp
    2da7:	a1 40 66 00 00       	mov    0x6640,%eax
    2dac:	8b 19                	mov    (%ecx),%ebx
    2dae:	8b 71 04             	mov    0x4(%ecx),%esi
    2db1:	50                   	push   %eax
    2db2:	a1 50 66 00 00       	mov    0x6650,%eax
    2db7:	50                   	push   %eax
    2db8:	e8 d3 1f 00 00       	call   4d90 <console_init@plt>
    2dbd:	89 04 24             	mov    %eax,(%esp)
    2dc0:	a3 d0 66 00 00       	mov    %eax,0x66d0
    2dc5:	e8 06 20 00 00       	call   4dd0 <console_clear@plt>
    2dca:	83 c4 0c             	add    $0xc,%esp
    2dcd:	a1 d0 66 00 00       	mov    0x66d0,%eax
    2dd2:	68 64 66 00 00       	push   $0x6664
    2dd7:	68 60 66 00 00       	push   $0x6660
    2ddc:	50                   	push   %eax
    2ddd:	e8 de 1e 00 00       	call   4cc0 <console_get_size@plt>
    2de2:	a1 64 66 00 00       	mov    0x6664,%eax
    2de7:	48                   	dec    %eax
    2de8:	c7 04 24 cc 66 00 00 	movl   $0x66cc,(%esp)
    2def:	a3 80 66 00 00       	mov    %eax,0x6680
    2df4:	a1 60 66 00 00       	mov    0x6660,%eax
    2df9:	a3 84 66 00 00       	mov    %eax,0x6684
    2dfe:	c7 05 88 66 00 00 01 	movl   $0x1,0x6688
    2e05:	00 00 00 
    2e08:	c7 05 8c 66 00 00 01 	movl   $0x1,0x668c
    2e0f:	00 00 00 
    2e12:	e8 f9 11 00 00       	call   4010 <sheet_create>
    2e17:	83 c4 10             	add    $0x10,%esp
    2e1a:	89 85 38 ff ff ff    	mov    %eax,-0xc8(%ebp)
    2e20:	85 c0                	test   %eax,%eax
    2e22:	0f 85 55 0b 00 00    	jne    397d <main+0xbed>
    2e28:	8d 85 50 ff ff ff    	lea    -0xb0(%ebp),%eax
    2e2e:	8b 3d cc 66 00 00    	mov    0x66cc,%edi
    2e34:	50                   	push   %eax
    2e35:	8d 45 a8             	lea    -0x58(%ebp),%eax
    2e38:	6a 00                	push   $0x0
    2e3a:	50                   	push   %eax
    2e3b:	57                   	push   %edi
    2e3c:	c7 45 ac 01 00 00 00 	movl   $0x1,-0x54(%ebp)
    2e43:	c7 45 a8 01 00 00 00 	movl   $0x1,-0x58(%ebp)
    2e4a:	e8 51 14 00 00       	call   42a0 <sheet_get_cell_pt>
    2e4f:	83 c4 0c             	add    $0xc,%esp
    2e52:	8d 85 50 ff ff ff    	lea    -0xb0(%ebp),%eax
    2e58:	68 94 66 00 00       	push   $0x6694
    2e5d:	50                   	push   %eax
    2e5e:	a1 cc 66 00 00       	mov    0x66cc,%eax
    2e63:	50                   	push   %eax
    2e64:	e8 57 17 00 00       	call   45c0 <sheet_place_tag>
    2e69:	83 c4 10             	add    $0x10,%esp
    2e6c:	c7 05 b8 66 00 00 01 	movl   $0x1,0x66b8
    2e73:	00 00 00 
    2e76:	83 fb 02             	cmp    $0x2,%ebx
    2e79:	0f 84 e8 08 00 00    	je     3767 <main+0x9d7>
    2e7f:	4b                   	dec    %ebx
    2e80:	0f 8f 21 0b 00 00    	jg     39a7 <main+0xc17>
    2e86:	8d 45 a0             	lea    -0x60(%ebp),%eax
    2e89:	c7 05 c8 66 00 00 00 	movl   $0x0,0x66c8
    2e90:	00 00 00 
    2e93:	be 01 00 00 00       	mov    $0x1,%esi
    2e98:	89 85 44 ff ff ff    	mov    %eax,-0xbc(%ebp)
    2e9e:	8b 15 cc 66 00 00    	mov    0x66cc,%edx
    2ea4:	50                   	push   %eax
    2ea5:	8d 85 50 ff ff ff    	lea    -0xb0(%ebp),%eax
    2eab:	68 a4 66 00 00       	push   $0x66a4
    2eb0:	50                   	push   %eax
    2eb1:	52                   	push   %edx
    2eb2:	e8 09 17 00 00       	call   45c0 <sheet_place_tag>
    2eb7:	8d 85 50 ff ff ff    	lea    -0xb0(%ebp),%eax
    2ebd:	50                   	push   %eax
    2ebe:	8b 0d cc 66 00 00    	mov    0x66cc,%ecx
    2ec4:	8d 45 a8             	lea    -0x58(%ebp),%eax
    2ec7:	6a 00                	push   $0x0
    2ec9:	50                   	push   %eax
    2eca:	51                   	push   %ecx
    2ecb:	c7 45 ac 01 00 00 00 	movl   $0x1,-0x54(%ebp)
    2ed2:	c7 45 a8 01 00 00 00 	movl   $0x1,-0x58(%ebp)
    2ed9:	e8 c2 13 00 00       	call   42a0 <sheet_get_cell_pt>
    2ede:	83 c4 14             	add    $0x14,%esp
    2ee1:	b9 01 00 00 00       	mov    $0x1,%ecx
    2ee6:	8b 95 54 ff ff ff    	mov    -0xac(%ebp),%edx
    2eec:	8b 85 50 ff ff ff    	mov    -0xb0(%ebp),%eax
    2ef2:	6a 01                	push   $0x1
    2ef4:	e8 d7 e2 ff ff       	call   11d0 <caret_move>
    2ef9:	a1 d0 66 00 00       	mov    0x66d0,%eax
    2efe:	5b                   	pop    %ebx
    2eff:	c6 05 68 66 00 00 01 	movb   $0x1,0x6668
    2f06:	5f                   	pop    %edi
    2f07:	6a 00                	push   $0x0
    2f09:	50                   	push   %eax
    2f0a:	e8 61 1e 00 00       	call   4d70 <console_cursor_visibility@plt>
    2f0f:	58                   	pop    %eax
    2f10:	a1 d0 66 00 00       	mov    0x66d0,%eax
    2f15:	50                   	push   %eax
    2f16:	c6 05 68 66 00 00 00 	movb   $0x0,0x6668
    2f1d:	e8 ae 1e 00 00       	call   4dd0 <console_clear@plt>
    2f22:	58                   	pop    %eax
    2f23:	8b 0d cc 66 00 00    	mov    0x66cc,%ecx
    2f29:	8d 45 a8             	lea    -0x58(%ebp),%eax
    2f2c:	5a                   	pop    %edx
    2f2d:	50                   	push   %eax
    2f2e:	51                   	push   %ecx
    2f2f:	e8 1c 15 00 00       	call   4450 <sheet_get_num_rows>
    2f34:	8b 1d 88 66 00 00    	mov    0x6688,%ebx
    2f3a:	8b 45 a8             	mov    -0x58(%ebp),%eax
    2f3d:	29 d8                	sub    %ebx,%eax
    2f3f:	8b 15 80 66 00 00    	mov    0x6680,%edx
    2f45:	83 c4 10             	add    $0x10,%esp
    2f48:	8d 58 01             	lea    0x1(%eax),%ebx
    2f4b:	39 d3                	cmp    %edx,%ebx
    2f4d:	0f 8f a0 04 00 00    	jg     33f3 <main+0x663>
    2f53:	50                   	push   %eax
    2f54:	a1 d0 66 00 00       	mov    0x66d0,%eax
    2f59:	6a 00                	push   $0x0
    2f5b:	6a 00                	push   $0x0
    2f5d:	50                   	push   %eax
    2f5e:	e8 4d 1f 00 00       	call   4eb0 <console_set_pos@plt>
    2f63:	31 c0                	xor    %eax,%eax
    2f65:	89 da                	mov    %ebx,%edx
    2f67:	e8 04 e4 ff ff       	call   1370 <pane_row_range_display>
    2f6c:	83 c4 10             	add    $0x10,%esp
    2f6f:	3b 1d 80 66 00 00    	cmp    0x6680,%ebx
    2f75:	7d 52                	jge    2fc9 <main+0x239>
    2f77:	90                   	nop
    2f78:	50                   	push   %eax
    2f79:	a1 d0 66 00 00       	mov    0x66d0,%eax
    2f7e:	53                   	push   %ebx
    2f7f:	6a 00                	push   $0x0
    2f81:	50                   	push   %eax
    2f82:	e8 29 1f 00 00       	call   4eb0 <console_set_pos@plt>
    2f87:	a1 60 66 00 00       	mov    0x6660,%eax
    2f8c:	83 c4 10             	add    $0x10,%esp
    2f8f:	31 ff                	xor    %edi,%edi
    2f91:	85 c0                	test   %eax,%eax
    2f93:	74 19                	je     2fae <main+0x21e>
    2f95:	8d 76 00             	lea    0x0(%esi),%esi
    2f98:	83 ec 0c             	sub    $0xc,%esp
    2f9b:	47                   	inc    %edi
    2f9c:	6a 20                	push   $0x20
    2f9e:	e8 2d 1d 00 00       	call   4cd0 <putchar@plt>
    2fa3:	83 c4 10             	add    $0x10,%esp
    2fa6:	3b 3d 60 66 00 00    	cmp    0x6660,%edi
    2fac:	72 ea                	jb     2f98 <main+0x208>
    2fae:	83 ec 0c             	sub    $0xc,%esp
    2fb1:	8b 3d d0 66 00 00    	mov    0x66d0,%edi
    2fb7:	43                   	inc    %ebx
    2fb8:	57                   	push   %edi
    2fb9:	e8 c2 1e 00 00       	call   4e80 <console_flush@plt>
    2fbe:	83 c4 10             	add    $0x10,%esp
    2fc1:	3b 1d 80 66 00 00    	cmp    0x6680,%ebx
    2fc7:	7c af                	jl     2f78 <main+0x1e8>
    2fc9:	a1 90 66 00 00       	mov    0x6690,%eax
    2fce:	83 e0 fd             	and    $0xfffffffd,%eax
    2fd1:	83 c8 0c             	or     $0xc,%eax
    2fd4:	a3 90 66 00 00       	mov    %eax,0x6690
    2fd9:	e8 b2 e9 ff ff       	call   1990 <pane_status_display>
    2fde:	89 f0                	mov    %esi,%eax
    2fe0:	84 c0                	test   %al,%al
    2fe2:	0f 85 ef 03 00 00    	jne    33d7 <main+0x647>
    2fe8:	8b bd 44 ff ff ff    	mov    -0xbc(%ebp),%edi
    2fee:	50                   	push   %eax
    2fef:	50                   	push   %eax
    2ff0:	57                   	push   %edi
    2ff1:	68 94 66 00 00       	push   $0x6694
    2ff6:	e8 25 16 00 00       	call   4620 <tag_get_pt>
    2ffb:	58                   	pop    %eax
    2ffc:	8d 45 a8             	lea    -0x58(%ebp),%eax
    2fff:	5a                   	pop    %edx
    3000:	50                   	push   %eax
    3001:	57                   	push   %edi
    3002:	e8 89 14 00 00       	call   4490 <spt_get_coord>
    3007:	83 c4 0c             	add    $0xc,%esp
    300a:	8b 45 a8             	mov    -0x58(%ebp),%eax
    300d:	8b 0d 88 66 00 00    	mov    0x6688,%ecx
    3013:	8b 1d 8c 66 00 00    	mov    0x668c,%ebx
    3019:	29 c8                	sub    %ecx,%eax
    301b:	8b 35 d0 66 00 00    	mov    0x66d0,%esi
    3021:	50                   	push   %eax
    3022:	8b 45 ac             	mov    -0x54(%ebp),%eax
    3025:	29 d8                	sub    %ebx,%eax
    3027:	50                   	push   %eax
    3028:	56                   	push   %esi
    3029:	e8 82 1e 00 00       	call   4eb0 <console_set_pos@plt>
    302e:	83 c4 10             	add    $0x10,%esp
    3031:	80 3d 68 66 00 00 00 	cmpb   $0x0,0x6668
    3038:	0f 84 88 04 00 00    	je     34c6 <main+0x736>
    303e:	c6 05 c4 66 00 00 00 	movb   $0x0,0x66c4
    3045:	31 c0                	xor    %eax,%eax
    3047:	8d 7d 90             	lea    -0x70(%ebp),%edi
    304a:	e9 92 00 00 00       	jmp    30e1 <main+0x351>
    304f:	90                   	nop
    3050:	48                   	dec    %eax
    3051:	75 0a                	jne    305d <main+0x2cd>
    3053:	83 7d b8 01          	cmpl   $0x1,-0x48(%ebp)
    3057:	0f 84 61 02 00 00    	je     32be <main+0x52e>
    305d:	80 3d 68 66 00 00 00 	cmpb   $0x0,0x6668
    3064:	0f 85 6f 01 00 00    	jne    31d9 <main+0x449>
    306a:	a1 90 66 00 00       	mov    0x6690,%eax
    306f:	a8 01                	test   $0x1,%al
    3071:	0f 85 88 01 00 00    	jne    31ff <main+0x46f>
    3077:	a8 02                	test   $0x2,%al
    3079:	74 42                	je     30bd <main+0x32d>
    307b:	8d 5d 98             	lea    -0x68(%ebp),%ebx
    307e:	56                   	push   %esi
    307f:	56                   	push   %esi
    3080:	53                   	push   %ebx
    3081:	68 94 66 00 00       	push   $0x6694
    3086:	e8 95 15 00 00       	call   4620 <tag_get_pt>
    308b:	8b 8d 44 ff ff ff    	mov    -0xbc(%ebp),%ecx
    3091:	58                   	pop    %eax
    3092:	5a                   	pop    %edx
    3093:	51                   	push   %ecx
    3094:	53                   	push   %ebx
    3095:	e8 f6 13 00 00       	call   4490 <spt_get_coord>
    309a:	8b 45 a0             	mov    -0x60(%ebp),%eax
    309d:	8b 1d 88 66 00 00    	mov    0x6688,%ebx
    30a3:	29 d8                	sub    %ebx,%eax
    30a5:	8d 50 01             	lea    0x1(%eax),%edx
    30a8:	e8 c3 e2 ff ff       	call   1370 <pane_row_range_display>
    30ad:	a1 90 66 00 00       	mov    0x6690,%eax
    30b2:	83 c8 0c             	or     $0xc,%eax
    30b5:	83 c4 10             	add    $0x10,%esp
    30b8:	a3 90 66 00 00       	mov    %eax,0x6690
    30bd:	a8 04                	test   $0x4,%al
    30bf:	74 0a                	je     30cb <main+0x33b>
    30c1:	e8 ca e8 ff ff       	call   1990 <pane_status_display>
    30c6:	a1 90 66 00 00       	mov    0x6690,%eax
    30cb:	a8 08                	test   $0x8,%al
    30cd:	75 6a                	jne    3139 <main+0x3a9>
    30cf:	80 3d 68 66 00 00 00 	cmpb   $0x0,0x6668
    30d6:	0f 84 b3 00 00 00    	je     318f <main+0x3ff>
    30dc:	a0 c4 66 00 00       	mov    0x66c4,%al
    30e1:	84 c0                	test   %al,%al
    30e3:	0f 85 cd 00 00 00    	jne    31b6 <main+0x426>
    30e9:	8d 45 a8             	lea    -0x58(%ebp),%eax
    30ec:	8b 35 d0 66 00 00    	mov    0x66d0,%esi
    30f2:	53                   	push   %ebx
    30f3:	53                   	push   %ebx
    30f4:	50                   	push   %eax
    30f5:	56                   	push   %esi
    30f6:	e8 65 1c 00 00       	call   4d60 <console_get_event@plt>
    30fb:	8b 45 b0             	mov    -0x50(%ebp),%eax
    30fe:	83 c4 10             	add    $0x10,%esp
    3101:	c7 05 90 66 00 00 00 	movl   $0x0,0x6690
    3108:	00 00 00 
    310b:	85 c0                	test   %eax,%eax
    310d:	0f 85 3d ff ff ff    	jne    3050 <main+0x2c0>
    3113:	8b 45 c4             	mov    -0x3c(%ebp),%eax
    3116:	8b 4d bc             	mov    -0x44(%ebp),%ecx
    3119:	a3 b4 66 00 00       	mov    %eax,0x66b4
    311e:	85 c9                	test   %ecx,%ecx
    3120:	0f 84 ff 01 00 00    	je     3325 <main+0x595>
    3126:	80 3d 68 66 00 00 00 	cmpb   $0x0,0x6668
    312d:	0f 85 a6 00 00 00    	jne    31d9 <main+0x449>
    3133:	31 c0                	xor    %eax,%eax
    3135:	a8 08                	test   $0x8,%al
    3137:	74 96                	je     30cf <main+0x33f>
    3139:	53                   	push   %ebx
    313a:	53                   	push   %ebx
    313b:	8d 5d 98             	lea    -0x68(%ebp),%ebx
    313e:	53                   	push   %ebx
    313f:	68 94 66 00 00       	push   $0x6694
    3144:	e8 d7 14 00 00       	call   4620 <tag_get_pt>
    3149:	5e                   	pop    %esi
    314a:	58                   	pop    %eax
    314b:	8b 85 44 ff ff ff    	mov    -0xbc(%ebp),%eax
    3151:	50                   	push   %eax
    3152:	53                   	push   %ebx
    3153:	e8 38 13 00 00       	call   4490 <spt_get_coord>
    3158:	83 c4 0c             	add    $0xc,%esp
    315b:	8b 45 a0             	mov    -0x60(%ebp),%eax
    315e:	8b 15 88 66 00 00    	mov    0x6688,%edx
    3164:	29 d0                	sub    %edx,%eax
    3166:	8b 0d 8c 66 00 00    	mov    0x668c,%ecx
    316c:	50                   	push   %eax
    316d:	8b 45 a4             	mov    -0x5c(%ebp),%eax
    3170:	29 c8                	sub    %ecx,%eax
    3172:	8b 1d d0 66 00 00    	mov    0x66d0,%ebx
    3178:	50                   	push   %eax
    3179:	53                   	push   %ebx
    317a:	e8 31 1d 00 00       	call   4eb0 <console_set_pos@plt>
    317f:	83 c4 10             	add    $0x10,%esp
    3182:	80 3d 68 66 00 00 00 	cmpb   $0x0,0x6668
    3189:	0f 85 4d ff ff ff    	jne    30dc <main+0x34c>
    318f:	8b 0d d0 66 00 00    	mov    0x66d0,%ecx
    3195:	52                   	push   %edx
    3196:	52                   	push   %edx
    3197:	6a 01                	push   $0x1
    3199:	51                   	push   %ecx
    319a:	e8 d1 1b 00 00       	call   4d70 <console_cursor_visibility@plt>
    319f:	a0 c4 66 00 00       	mov    0x66c4,%al
    31a4:	83 c4 10             	add    $0x10,%esp
    31a7:	c6 05 68 66 00 00 01 	movb   $0x1,0x6668
    31ae:	84 c0                	test   %al,%al
    31b0:	0f 84 33 ff ff ff    	je     30e9 <main+0x359>
    31b6:	83 ec 0c             	sub    $0xc,%esp
    31b9:	a1 d0 66 00 00       	mov    0x66d0,%eax
    31be:	50                   	push   %eax
    31bf:	e8 0c 1c 00 00       	call   4dd0 <console_clear@plt>
    31c4:	83 c4 10             	add    $0x10,%esp
    31c7:	8b 85 38 ff ff ff    	mov    -0xc8(%ebp),%eax
    31cd:	8d 65 f0             	lea    -0x10(%ebp),%esp
    31d0:	59                   	pop    %ecx
    31d1:	5b                   	pop    %ebx
    31d2:	5e                   	pop    %esi
    31d3:	5f                   	pop    %edi
    31d4:	5d                   	pop    %ebp
    31d5:	8d 61 fc             	lea    -0x4(%ecx),%esp
    31d8:	c3                   	ret    
    31d9:	a1 d0 66 00 00       	mov    0x66d0,%eax
    31de:	56                   	push   %esi
    31df:	56                   	push   %esi
    31e0:	6a 00                	push   $0x0
    31e2:	50                   	push   %eax
    31e3:	e8 88 1b 00 00       	call   4d70 <console_cursor_visibility@plt>
    31e8:	a1 90 66 00 00       	mov    0x6690,%eax
    31ed:	83 c4 10             	add    $0x10,%esp
    31f0:	c6 05 68 66 00 00 00 	movb   $0x0,0x6668
    31f7:	a8 01                	test   $0x1,%al
    31f9:	0f 84 78 fe ff ff    	je     3077 <main+0x2e7>
    31ff:	8b 95 44 ff ff ff    	mov    -0xbc(%ebp),%edx
    3205:	8b 0d cc 66 00 00    	mov    0x66cc,%ecx
    320b:	50                   	push   %eax
    320c:	50                   	push   %eax
    320d:	52                   	push   %edx
    320e:	51                   	push   %ecx
    320f:	e8 3c 12 00 00       	call   4450 <sheet_get_num_rows>
    3214:	8b 1d 88 66 00 00    	mov    0x6688,%ebx
    321a:	8b 45 a0             	mov    -0x60(%ebp),%eax
    321d:	8b 15 80 66 00 00    	mov    0x6680,%edx
    3223:	29 d8                	sub    %ebx,%eax
    3225:	83 c4 10             	add    $0x10,%esp
    3228:	8d 58 01             	lea    0x1(%eax),%ebx
    322b:	39 d3                	cmp    %edx,%ebx
    322d:	7e 02                	jle    3231 <main+0x4a1>
    322f:	89 d3                	mov    %edx,%ebx
    3231:	50                   	push   %eax
    3232:	a1 d0 66 00 00       	mov    0x66d0,%eax
    3237:	6a 00                	push   $0x0
    3239:	6a 00                	push   $0x0
    323b:	50                   	push   %eax
    323c:	e8 6f 1c 00 00       	call   4eb0 <console_set_pos@plt>
    3241:	31 c0                	xor    %eax,%eax
    3243:	89 da                	mov    %ebx,%edx
    3245:	e8 26 e1 ff ff       	call   1370 <pane_row_range_display>
    324a:	83 c4 10             	add    $0x10,%esp
    324d:	39 1d 80 66 00 00    	cmp    %ebx,0x6680
    3253:	7e 54                	jle    32a9 <main+0x519>
    3255:	8d 76 00             	lea    0x0(%esi),%esi
    3258:	50                   	push   %eax
    3259:	a1 d0 66 00 00       	mov    0x66d0,%eax
    325e:	53                   	push   %ebx
    325f:	6a 00                	push   $0x0
    3261:	50                   	push   %eax
    3262:	e8 49 1c 00 00       	call   4eb0 <console_set_pos@plt>
    3267:	a1 60 66 00 00       	mov    0x6660,%eax
    326c:	83 c4 10             	add    $0x10,%esp
    326f:	31 f6                	xor    %esi,%esi
    3271:	85 c0                	test   %eax,%eax
    3273:	74 19                	je     328e <main+0x4fe>
    3275:	8d 76 00             	lea    0x0(%esi),%esi
    3278:	83 ec 0c             	sub    $0xc,%esp
    327b:	46                   	inc    %esi
    327c:	6a 20                	push   $0x20
    327e:	e8 4d 1a 00 00       	call   4cd0 <putchar@plt>
    3283:	83 c4 10             	add    $0x10,%esp
    3286:	3b 35 60 66 00 00    	cmp    0x6660,%esi
    328c:	72 ea                	jb     3278 <main+0x4e8>
    328e:	83 ec 0c             	sub    $0xc,%esp
    3291:	8b 35 d0 66 00 00    	mov    0x66d0,%esi
    3297:	43                   	inc    %ebx
    3298:	56                   	push   %esi
    3299:	e8 e2 1b 00 00       	call   4e80 <console_flush@plt>
    329e:	83 c4 10             	add    $0x10,%esp
    32a1:	3b 1d 80 66 00 00    	cmp    0x6680,%ebx
    32a7:	7c af                	jl     3258 <main+0x4c8>
    32a9:	a1 90 66 00 00       	mov    0x6690,%eax
    32ae:	83 e0 fd             	and    $0xfffffffd,%eax
    32b1:	83 c8 0c             	or     $0xc,%eax
    32b4:	a3 90 66 00 00       	mov    %eax,0x6690
    32b9:	e9 ff fd ff ff       	jmp    30bd <main+0x32d>
    32be:	8b 45 c4             	mov    -0x3c(%ebp),%eax
    32c1:	3b 05 80 66 00 00    	cmp    0x6680,%eax
    32c7:	0f 83 90 fd ff ff    	jae    305d <main+0x2cd>
    32cd:	8b 15 88 66 00 00    	mov    0x6688,%edx
    32d3:	8b 0d 8c 66 00 00    	mov    0x668c,%ecx
    32d9:	01 d0                	add    %edx,%eax
    32db:	8b 9d 44 ff ff ff    	mov    -0xbc(%ebp),%ebx
    32e1:	89 45 98             	mov    %eax,-0x68(%ebp)
    32e4:	8b 45 c0             	mov    -0x40(%ebp),%eax
    32e7:	01 c8                	add    %ecx,%eax
    32e9:	8b 35 cc 66 00 00    	mov    0x66cc,%esi
    32ef:	89 45 9c             	mov    %eax,-0x64(%ebp)
    32f2:	8d 45 98             	lea    -0x68(%ebp),%eax
    32f5:	53                   	push   %ebx
    32f6:	6a 00                	push   $0x0
    32f8:	50                   	push   %eax
    32f9:	56                   	push   %esi
    32fa:	e8 a1 0f 00 00       	call   42a0 <sheet_get_cell_pt>
    32ff:	31 c9                	xor    %ecx,%ecx
    3301:	8b 45 a0             	mov    -0x60(%ebp),%eax
    3304:	f6 05 b4 66 00 00 03 	testb  $0x3,0x66b4
    330b:	8b 55 a4             	mov    -0x5c(%ebp),%edx
    330e:	c7 04 24 01 00 00 00 	movl   $0x1,(%esp)
    3315:	0f 95 c1             	setne  %cl
    3318:	e8 b3 de ff ff       	call   11d0 <caret_move>
    331d:	83 c4 10             	add    $0x10,%esp
    3320:	e9 38 fd ff ff       	jmp    305d <main+0x2cd>
    3325:	a8 33                	test   $0x33,%al
    3327:	75 08                	jne    3331 <main+0x5a1>
    3329:	a8 0c                	test   $0xc,%al
    332b:	0f 85 b3 01 00 00    	jne    34e4 <main+0x754>
    3331:	a8 3c                	test   $0x3c,%al
    3333:	75 08                	jne    333d <main+0x5ad>
    3335:	a8 03                	test   $0x3,%al
    3337:	0f 85 ff 01 00 00    	jne    353c <main+0x7ac>
    333d:	a8 30                	test   $0x30,%al
    333f:	75 0c                	jne    334d <main+0x5bd>
    3341:	a8 0c                	test   $0xc,%al
    3343:	74 08                	je     334d <main+0x5bd>
    3345:	a8 03                	test   $0x3,%al
    3347:	0f 85 59 03 00 00    	jne    36a6 <main+0x916>
    334d:	a8 3f                	test   $0x3f,%al
    334f:	0f 85 d1 fd ff ff    	jne    3126 <main+0x396>
    3355:	8b 45 c0             	mov    -0x40(%ebp),%eax
    3358:	83 f8 50             	cmp    $0x50,%eax
    335b:	0f 87 99 00 00 00    	ja     33fa <main+0x66a>
    3361:	83 f8 4f             	cmp    $0x4f,%eax
    3364:	0f 83 7e 02 00 00    	jae    35e8 <main+0x858>
    336a:	83 f8 0e             	cmp    $0xe,%eax
    336d:	0f 84 81 02 00 00    	je     35f4 <main+0x864>
    3373:	83 f8 2a             	cmp    $0x2a,%eax
    3376:	0f 85 e4 01 00 00    	jne    3560 <main+0x7d0>
    337c:	e8 4f e5 ff ff       	call   18d0 <selection_delete>
    3381:	8d 5d 98             	lea    -0x68(%ebp),%ebx
    3384:	56                   	push   %esi
    3385:	56                   	push   %esi
    3386:	8b b5 44 ff ff ff    	mov    -0xbc(%ebp),%esi
    338c:	56                   	push   %esi
    338d:	68 94 66 00 00       	push   $0x6694
    3392:	e8 89 12 00 00       	call   4620 <tag_get_pt>
    3397:	6a 05                	push   $0x5
    3399:	57                   	push   %edi
    339a:	53                   	push   %ebx
    339b:	6a 0a                	push   $0xa
    339d:	c7 45 90 00 00 00 00 	movl   $0x0,-0x70(%ebp)
    33a4:	e8 37 1b 00 00       	call   4ee0 <chr_encode@plt>
    33a9:	83 c4 20             	add    $0x20,%esp
    33ac:	53                   	push   %ebx
    33ad:	6a 00                	push   $0x0
    33af:	56                   	push   %esi
    33b0:	8b 45 90             	mov    -0x70(%ebp),%eax
    33b3:	ff 35 cc 66 00 00    	pushl  0x66cc
    33b9:	c6 44 05 98 00       	movb   $0x0,-0x68(%ebp,%eax,1)
    33be:	e8 ad 0c 00 00       	call   4070 <sheet_insert>
    33c3:	83 0d 90 66 00 00 03 	orl    $0x3,0x6690
    33ca:	e8 61 dd ff ff       	call   1130 <caret_update>
    33cf:	83 c4 10             	add    $0x10,%esp
    33d2:	e9 86 fc ff ff       	jmp    305d <main+0x2cd>
    33d7:	83 3d c8 66 00 00 00 	cmpl   $0x0,0x66c8
    33de:	0f 84 04 fc ff ff    	je     2fe8 <main+0x258>
    33e4:	b8 04 4b 00 00       	mov    $0x4b04,%eax
    33e9:	e8 f2 de ff ff       	call   12e0 <status_display>
    33ee:	e9 f5 fb ff ff       	jmp    2fe8 <main+0x258>
    33f3:	89 d3                	mov    %edx,%ebx
    33f5:	e9 59 fb ff ff       	jmp    2f53 <main+0x1c3>
    33fa:	83 f8 51             	cmp    $0x51,%eax
    33fd:	0f 85 dc 01 00 00    	jne    35df <main+0x84f>
    3403:	8d 5d 88             	lea    -0x78(%ebp),%ebx
    3406:	51                   	push   %ecx
    3407:	51                   	push   %ecx
    3408:	53                   	push   %ebx
    3409:	68 94 66 00 00       	push   $0x6694
    340e:	e8 0d 12 00 00       	call   4620 <tag_get_pt>
    3413:	5e                   	pop    %esi
    3414:	8d 75 98             	lea    -0x68(%ebp),%esi
    3417:	58                   	pop    %eax
    3418:	57                   	push   %edi
    3419:	68 a4 66 00 00       	push   $0x66a4
    341e:	e8 fd 11 00 00       	call   4620 <tag_get_pt>
    3423:	58                   	pop    %eax
    3424:	5a                   	pop    %edx
    3425:	56                   	push   %esi
    3426:	53                   	push   %ebx
    3427:	e8 64 10 00 00       	call   4490 <spt_get_coord>
    342c:	59                   	pop    %ecx
    342d:	58                   	pop    %eax
    342e:	ff b5 44 ff ff ff    	pushl  -0xbc(%ebp)
    3434:	57                   	push   %edi
    3435:	e8 56 10 00 00       	call   4490 <spt_get_coord>
    343a:	8b 45 98             	mov    -0x68(%ebp),%eax
    343d:	8b 55 a0             	mov    -0x60(%ebp),%edx
    3440:	83 c4 10             	add    $0x10,%esp
    3443:	39 d0                	cmp    %edx,%eax
    3445:	0f 84 69 04 00 00    	je     38b4 <main+0xb24>
    344b:	29 d0                	sub    %edx,%eax
    344d:	85 c0                	test   %eax,%eax
    344f:	0f 85 55 04 00 00    	jne    38aa <main+0xb1a>
    3455:	50                   	push   %eax
    3456:	50                   	push   %eax
    3457:	53                   	push   %ebx
    3458:	68 94 66 00 00       	push   $0x6694
    345d:	e8 be 11 00 00       	call   4620 <tag_get_pt>
    3462:	58                   	pop    %eax
    3463:	5a                   	pop    %edx
    3464:	56                   	push   %esi
    3465:	53                   	push   %ebx
    3466:	e8 25 10 00 00       	call   4490 <spt_get_coord>
    346b:	57                   	push   %edi
    346c:	6a 01                	push   $0x1
    346e:	56                   	push   %esi
    346f:	ff 35 cc 66 00 00    	pushl  0x66cc
    3475:	e8 26 0e 00 00       	call   42a0 <sheet_get_cell_pt>
    347a:	83 c4 18             	add    $0x18,%esp
    347d:	ff b5 44 ff ff ff    	pushl  -0xbc(%ebp)
    3483:	57                   	push   %edi
    3484:	e8 07 10 00 00       	call   4490 <spt_get_coord>
    3489:	83 c4 0c             	add    $0xc,%esp
    348c:	57                   	push   %edi
    348d:	53                   	push   %ebx
    348e:	ff 35 cc 66 00 00    	pushl  0x66cc
    3494:	e8 a7 0c 00 00       	call   4140 <sheet_delete>
    3499:	a1 90 66 00 00       	mov    0x6690,%eax
    349e:	89 c2                	mov    %eax,%edx
    34a0:	8b 4d 98             	mov    -0x68(%ebp),%ecx
    34a3:	83 ca 02             	or     $0x2,%edx
    34a6:	83 c4 10             	add    $0x10,%esp
    34a9:	89 15 90 66 00 00    	mov    %edx,0x6690
    34af:	39 4d a0             	cmp    %ecx,-0x60(%ebp)
    34b2:	74 08                	je     34bc <main+0x72c>
    34b4:	83 c8 03             	or     $0x3,%eax
    34b7:	a3 90 66 00 00       	mov    %eax,0x6690
    34bc:	e8 6f dc ff ff       	call   1130 <caret_update>
    34c1:	e9 97 fb ff ff       	jmp    305d <main+0x2cd>
    34c6:	57                   	push   %edi
    34c7:	57                   	push   %edi
    34c8:	6a 01                	push   $0x1
    34ca:	ff 35 d0 66 00 00    	pushl  0x66d0
    34d0:	e8 9b 18 00 00       	call   4d70 <console_cursor_visibility@plt>
    34d5:	c6 05 68 66 00 00 01 	movb   $0x1,0x6668
    34dc:	83 c4 10             	add    $0x10,%esp
    34df:	e9 5a fb ff ff       	jmp    303e <main+0x2ae>
    34e4:	8b 45 c0             	mov    -0x40(%ebp),%eax
    34e7:	83 f8 2d             	cmp    $0x2d,%eax
    34ea:	0f 84 52 05 00 00    	je     3a42 <main+0xcb2>
    34f0:	0f 86 30 02 00 00    	jbe    3726 <main+0x996>
    34f6:	83 f8 4f             	cmp    $0x4f,%eax
    34f9:	0f 84 a5 08 00 00    	je     3da4 <main+0x1014>
    34ff:	0f 87 ba 03 00 00    	ja     38bf <main+0xb2f>
    3505:	83 f8 2f             	cmp    $0x2f,%eax
    3508:	0f 84 d1 08 00 00    	je     3ddf <main+0x104f>
    350e:	0f 82 c1 08 00 00    	jb     3dd5 <main+0x1045>
    3514:	83 f8 31             	cmp    $0x31,%eax
    3517:	0f 85 40 fb ff ff    	jne    305d <main+0x2cd>
    351d:	a1 bc 66 00 00       	mov    0x66bc,%eax
    3522:	85 c0                	test   %eax,%eax
    3524:	0f 84 6b 08 00 00    	je     3d95 <main+0x1005>
    352a:	31 d2                	xor    %edx,%edx
    352c:	8a 15 c0 66 00 00    	mov    0x66c0,%dl
    3532:	e8 39 f4 ff ff       	call   2970 <search>
    3537:	e9 21 fb ff ff       	jmp    305d <main+0x2cd>
    353c:	8b 45 c0             	mov    -0x40(%ebp),%eax
    353f:	83 f8 4f             	cmp    $0x4f,%eax
    3542:	72 1c                	jb     3560 <main+0x7d0>
    3544:	83 f8 50             	cmp    $0x50,%eax
    3547:	76 08                	jbe    3551 <main+0x7c1>
    3549:	8d 50 ae             	lea    -0x52(%eax),%edx
    354c:	83 fa 05             	cmp    $0x5,%edx
    354f:	77 0f                	ja     3560 <main+0x7d0>
    3551:	ba 01 00 00 00       	mov    $0x1,%edx
    3556:	e8 d5 ed ff ff       	call   2330 <key_handle_movement>
    355b:	e9 fd fa ff ff       	jmp    305d <main+0x2cd>
    3560:	8b 45 c8             	mov    -0x38(%ebp),%eax
    3563:	83 f8 1f             	cmp    $0x1f,%eax
    3566:	7f 09                	jg     3571 <main+0x7e1>
    3568:	83 f8 09             	cmp    $0x9,%eax
    356b:	0f 85 b5 fb ff ff    	jne    3126 <main+0x396>
    3571:	e8 5a e3 ff ff       	call   18d0 <selection_delete>
    3576:	8b 5d c8             	mov    -0x38(%ebp),%ebx
    3579:	50                   	push   %eax
    357a:	50                   	push   %eax
    357b:	ff b5 44 ff ff ff    	pushl  -0xbc(%ebp)
    3581:	8d 75 98             	lea    -0x68(%ebp),%esi
    3584:	68 94 66 00 00       	push   $0x6694
    3589:	e8 92 10 00 00       	call   4620 <tag_get_pt>
    358e:	6a 05                	push   $0x5
    3590:	57                   	push   %edi
    3591:	56                   	push   %esi
    3592:	53                   	push   %ebx
    3593:	c7 45 90 00 00 00 00 	movl   $0x0,-0x70(%ebp)
    359a:	e8 41 19 00 00       	call   4ee0 <chr_encode@plt>
    359f:	83 c4 20             	add    $0x20,%esp
    35a2:	8b 45 90             	mov    -0x70(%ebp),%eax
    35a5:	56                   	push   %esi
    35a6:	6a 00                	push   $0x0
    35a8:	c6 44 05 98 00       	movb   $0x0,-0x68(%ebp,%eax,1)
    35ad:	ff b5 44 ff ff ff    	pushl  -0xbc(%ebp)
    35b3:	ff 35 cc 66 00 00    	pushl  0x66cc
    35b9:	e8 b2 0a 00 00       	call   4070 <sheet_insert>
    35be:	a1 90 66 00 00       	mov    0x6690,%eax
    35c3:	89 c2                	mov    %eax,%edx
    35c5:	83 c4 10             	add    $0x10,%esp
    35c8:	83 ca 02             	or     $0x2,%edx
    35cb:	83 fb 0a             	cmp    $0xa,%ebx
    35ce:	89 15 90 66 00 00    	mov    %edx,0x6690
    35d4:	0f 85 e2 fe ff ff    	jne    34bc <main+0x72c>
    35da:	e9 d5 fe ff ff       	jmp    34b4 <main+0x724>
    35df:	83 f8 57             	cmp    $0x57,%eax
    35e2:	0f 87 78 ff ff ff    	ja     3560 <main+0x7d0>
    35e8:	31 d2                	xor    %edx,%edx
    35ea:	e8 41 ed ff ff       	call   2330 <key_handle_movement>
    35ef:	e9 69 fa ff ff       	jmp    305d <main+0x2cd>
    35f4:	8d 5d 88             	lea    -0x78(%ebp),%ebx
    35f7:	51                   	push   %ecx
    35f8:	51                   	push   %ecx
    35f9:	53                   	push   %ebx
    35fa:	68 94 66 00 00       	push   $0x6694
    35ff:	e8 1c 10 00 00       	call   4620 <tag_get_pt>
    3604:	5e                   	pop    %esi
    3605:	8d 75 98             	lea    -0x68(%ebp),%esi
    3608:	58                   	pop    %eax
    3609:	57                   	push   %edi
    360a:	68 a4 66 00 00       	push   $0x66a4
    360f:	e8 0c 10 00 00       	call   4620 <tag_get_pt>
    3614:	58                   	pop    %eax
    3615:	5a                   	pop    %edx
    3616:	56                   	push   %esi
    3617:	53                   	push   %ebx
    3618:	e8 73 0e 00 00       	call   4490 <spt_get_coord>
    361d:	59                   	pop    %ecx
    361e:	5b                   	pop    %ebx
    361f:	ff b5 44 ff ff ff    	pushl  -0xbc(%ebp)
    3625:	57                   	push   %edi
    3626:	e8 65 0e 00 00       	call   4490 <spt_get_coord>
    362b:	8b 45 98             	mov    -0x68(%ebp),%eax
    362e:	8b 55 a0             	mov    -0x60(%ebp),%edx
    3631:	83 c4 10             	add    $0x10,%esp
    3634:	39 d0                	cmp    %edx,%eax
    3636:	0f 84 60 03 00 00    	je     399c <main+0xc0c>
    363c:	29 d0                	sub    %edx,%eax
    363e:	85 c0                	test   %eax,%eax
    3640:	0f 85 64 02 00 00    	jne    38aa <main+0xb1a>
    3646:	50                   	push   %eax
    3647:	50                   	push   %eax
    3648:	56                   	push   %esi
    3649:	68 94 66 00 00       	push   $0x6694
    364e:	e8 cd 0f 00 00       	call   4620 <tag_get_pt>
    3653:	8b 9d 44 ff ff ff    	mov    -0xbc(%ebp),%ebx
    3659:	58                   	pop    %eax
    365a:	5a                   	pop    %edx
    365b:	53                   	push   %ebx
    365c:	56                   	push   %esi
    365d:	e8 2e 0e 00 00       	call   4490 <spt_get_coord>
    3662:	57                   	push   %edi
    3663:	6a 00                	push   $0x0
    3665:	53                   	push   %ebx
    3666:	ff 35 cc 66 00 00    	pushl  0x66cc
    366c:	ff 4d a4             	decl   -0x5c(%ebp)
    366f:	e8 2c 0c 00 00       	call   42a0 <sheet_get_cell_pt>
    3674:	83 c4 1c             	add    $0x1c,%esp
    3677:	56                   	push   %esi
    3678:	57                   	push   %edi
    3679:	ff 35 cc 66 00 00    	pushl  0x66cc
    367f:	e8 bc 0a 00 00       	call   4140 <sheet_delete>
    3684:	a1 90 66 00 00       	mov    0x6690,%eax
    3689:	89 c2                	mov    %eax,%edx
    368b:	83 c4 10             	add    $0x10,%esp
    368e:	83 ca 02             	or     $0x2,%edx
    3691:	89 15 90 66 00 00    	mov    %edx,0x6690
    3697:	83 7d a4 00          	cmpl   $0x0,-0x5c(%ebp)
    369b:	0f 8f 1b fe ff ff    	jg     34bc <main+0x72c>
    36a1:	e9 0e fe ff ff       	jmp    34b4 <main+0x724>
    36a6:	8b 45 c0             	mov    -0x40(%ebp),%eax
    36a9:	83 f8 52             	cmp    $0x52,%eax
    36ac:	0f 84 a6 03 00 00    	je     3a58 <main+0xcc8>
    36b2:	0f 86 6f 02 00 00    	jbe    3927 <main+0xb97>
    36b8:	83 f8 55             	cmp    $0x55,%eax
    36bb:	0f 84 e8 07 00 00    	je     3ea9 <main+0x1119>
    36c1:	83 f8 57             	cmp    $0x57,%eax
    36c4:	0f 85 93 f9 ff ff    	jne    305d <main+0x2cd>
    36ca:	50                   	push   %eax
    36cb:	50                   	push   %eax
    36cc:	ff b5 44 ff ff ff    	pushl  -0xbc(%ebp)
    36d2:	68 94 66 00 00       	push   $0x6694
    36d7:	e8 44 0f 00 00       	call   4620 <tag_get_pt>
    36dc:	8b 45 a0             	mov    -0x60(%ebp),%eax
    36df:	8b 55 a4             	mov    -0x5c(%ebp),%edx
    36e2:	89 45 80             	mov    %eax,-0x80(%ebp)
    36e5:	89 55 84             	mov    %edx,-0x7c(%ebp)
    36e8:	83 c4 10             	add    $0x10,%esp
    36eb:	8d 5d 80             	lea    -0x80(%ebp),%ebx
    36ee:	50                   	push   %eax
    36ef:	53                   	push   %ebx
    36f0:	ff 75 84             	pushl  -0x7c(%ebp)
    36f3:	ff 75 80             	pushl  -0x80(%ebp)
    36f6:	e8 45 0e 00 00       	call   4540 <spt_next_char>
    36fb:	89 d8                	mov    %ebx,%eax
    36fd:	e8 be e5 ff ff       	call   1cc0 <pt_is_word_beginning>
    3702:	83 c4 10             	add    $0x10,%esp
    3705:	84 c0                	test   %al,%al
    3707:	74 e5                	je     36ee <main+0x95e>
    3709:	83 ec 0c             	sub    $0xc,%esp
    370c:	b9 01 00 00 00       	mov    $0x1,%ecx
    3711:	8b 45 80             	mov    -0x80(%ebp),%eax
    3714:	8b 55 84             	mov    -0x7c(%ebp),%edx
    3717:	6a 01                	push   $0x1
    3719:	e8 b2 da ff ff       	call   11d0 <caret_move>
    371e:	83 c4 10             	add    $0x10,%esp
    3721:	e9 37 f9 ff ff       	jmp    305d <main+0x2cd>
    3726:	83 f8 1d             	cmp    $0x1d,%eax
    3729:	0f 84 81 05 00 00    	je     3cb0 <main+0xf20>
    372f:	0f 86 2f 05 00 00    	jbe    3c64 <main+0xed4>
    3735:	83 f8 20             	cmp    $0x20,%eax
    3738:	0f 84 77 04 00 00    	je     3bb5 <main+0xe25>
    373e:	83 f8 25             	cmp    $0x25,%eax
    3741:	0f 84 fe 03 00 00    	je     3b45 <main+0xdb5>
    3747:	83 f8 1e             	cmp    $0x1e,%eax
    374a:	0f 85 0d f9 ff ff    	jne    305d <main+0x2cd>
    3750:	a1 c8 66 00 00       	mov    0x66c8,%eax
    3755:	85 c0                	test   %eax,%eax
    3757:	0f 84 38 03 00 00    	je     3a95 <main+0xd05>
    375d:	e8 2e ef ff ff       	call   2690 <file_save>
    3762:	e9 f6 f8 ff ff       	jmp    305d <main+0x2cd>
    3767:	83 ec 0c             	sub    $0xc,%esp
    376a:	ff 76 04             	pushl  0x4(%esi)
    376d:	e8 6e 16 00 00       	call   4de0 <str_dup@plt>
    3772:	83 c4 10             	add    $0x10,%esp
    3775:	a3 c8 66 00 00       	mov    %eax,0x66c8
    377a:	85 c0                	test   %eax,%eax
    377c:	0f 84 ad 02 00 00    	je     3a2f <main+0xc9f>
    3782:	51                   	push   %ecx
    3783:	51                   	push   %ecx
    3784:	68 21 4a 00 00       	push   $0x4a21
    3789:	50                   	push   %eax
    378a:	e8 b1 16 00 00       	call   4e40 <fopen@plt>
    378f:	83 c4 10             	add    $0x10,%esp
    3792:	89 85 3c ff ff ff    	mov    %eax,-0xc4(%ebp)
    3798:	85 c0                	test   %eax,%eax
    379a:	0f 84 8f 02 00 00    	je     3a2f <main+0xc9f>
    37a0:	8d 45 88             	lea    -0x78(%ebp),%eax
    37a3:	31 f6                	xor    %esi,%esi
    37a5:	89 85 40 ff ff ff    	mov    %eax,-0xc0(%ebp)
    37ab:	8d 45 a0             	lea    -0x60(%ebp),%eax
    37ae:	89 85 44 ff ff ff    	mov    %eax,-0xbc(%ebp)
    37b4:	8d 7d 98             	lea    -0x68(%ebp),%edi
    37b7:	83 fe 03             	cmp    $0x3,%esi
    37ba:	0f 8e 9e 00 00 00    	jle    385e <main+0xace>
    37c0:	50                   	push   %eax
    37c1:	8b 85 40 ff ff ff    	mov    -0xc0(%ebp),%eax
    37c7:	56                   	push   %esi
    37c8:	50                   	push   %eax
    37c9:	8d 45 a8             	lea    -0x58(%ebp),%eax
    37cc:	c7 45 88 00 00 00 00 	movl   $0x0,-0x78(%ebp)
    37d3:	50                   	push   %eax
    37d4:	e8 57 15 00 00       	call   4d30 <str_decode@plt>
    37d9:	83 c4 10             	add    $0x10,%esp
    37dc:	89 c3                	mov    %eax,%ebx
    37de:	85 c0                	test   %eax,%eax
    37e0:	0f 84 ab 00 00 00    	je     3891 <main+0xb01>
    37e6:	8d 4d a8             	lea    -0x58(%ebp),%ecx
    37e9:	8b 45 88             	mov    -0x78(%ebp),%eax
    37ec:	29 c6                	sub    %eax,%esi
    37ee:	01 c8                	add    %ecx,%eax
    37f0:	52                   	push   %edx
    37f1:	56                   	push   %esi
    37f2:	50                   	push   %eax
    37f3:	51                   	push   %ecx
    37f4:	e8 47 15 00 00       	call   4d40 <memcpy@plt>
    37f9:	59                   	pop    %ecx
    37fa:	58                   	pop    %eax
    37fb:	8b 85 44 ff ff ff    	mov    -0xbc(%ebp),%eax
    3801:	50                   	push   %eax
    3802:	68 94 66 00 00       	push   $0x6694
    3807:	e8 14 0e 00 00       	call   4620 <tag_get_pt>
    380c:	8d 45 90             	lea    -0x70(%ebp),%eax
    380f:	6a 05                	push   $0x5
    3811:	c7 45 90 00 00 00 00 	movl   $0x0,-0x70(%ebp)
    3818:	50                   	push   %eax
    3819:	57                   	push   %edi
    381a:	53                   	push   %ebx
    381b:	e8 c0 16 00 00       	call   4ee0 <chr_encode@plt>
    3820:	8b 45 90             	mov    -0x70(%ebp),%eax
    3823:	83 c4 20             	add    $0x20,%esp
    3826:	c6 44 05 98 00       	movb   $0x0,-0x68(%ebp,%eax,1)
    382b:	8b 85 44 ff ff ff    	mov    -0xbc(%ebp),%eax
    3831:	57                   	push   %edi
    3832:	6a 00                	push   $0x0
    3834:	50                   	push   %eax
    3835:	a1 cc 66 00 00       	mov    0x66cc,%eax
    383a:	50                   	push   %eax
    383b:	e8 30 08 00 00       	call   4070 <sheet_insert>
    3840:	83 c4 10             	add    $0x10,%esp
    3843:	a1 90 66 00 00       	mov    0x6690,%eax
    3848:	83 fb 0a             	cmp    $0xa,%ebx
    384b:	74 37                	je     3884 <main+0xaf4>
    384d:	83 c8 02             	or     $0x2,%eax
    3850:	83 fe 03             	cmp    $0x3,%esi
    3853:	a3 90 66 00 00       	mov    %eax,0x6690
    3858:	0f 8f 62 ff ff ff    	jg     37c0 <main+0xa30>
    385e:	b8 40 00 00 00       	mov    $0x40,%eax
    3863:	8b 95 3c ff ff ff    	mov    -0xc4(%ebp),%edx
    3869:	29 f0                	sub    %esi,%eax
    386b:	52                   	push   %edx
    386c:	50                   	push   %eax
    386d:	8d 45 a8             	lea    -0x58(%ebp),%eax
    3870:	01 f0                	add    %esi,%eax
    3872:	6a 01                	push   $0x1
    3874:	50                   	push   %eax
    3875:	e8 a6 15 00 00       	call   4e20 <fread@plt>
    387a:	83 c4 10             	add    $0x10,%esp
    387d:	01 c6                	add    %eax,%esi
    387f:	e9 3c ff ff ff       	jmp    37c0 <main+0xa30>
    3884:	83 c8 03             	or     $0x3,%eax
    3887:	a3 90 66 00 00       	mov    %eax,0x6690
    388c:	e9 26 ff ff ff       	jmp    37b7 <main+0xa27>
    3891:	83 ec 0c             	sub    $0xc,%esp
    3894:	8b b5 3c ff ff ff    	mov    -0xc4(%ebp),%esi
    389a:	56                   	push   %esi
    389b:	31 f6                	xor    %esi,%esi
    389d:	e8 be 15 00 00       	call   4e60 <fclose@plt>
    38a2:	83 c4 10             	add    $0x10,%esp
    38a5:	e9 f4 f5 ff ff       	jmp    2e9e <main+0x10e>
    38aa:	e8 21 e0 ff ff       	call   18d0 <selection_delete>
    38af:	e9 08 fc ff ff       	jmp    34bc <main+0x72c>
    38b4:	8b 45 9c             	mov    -0x64(%ebp),%eax
    38b7:	2b 45 a4             	sub    -0x5c(%ebp),%eax
    38ba:	e9 8e fb ff ff       	jmp    344d <main+0x6bd>
    38bf:	83 f8 55             	cmp    $0x55,%eax
    38c2:	0f 84 cd 06 00 00    	je     3f95 <main+0x1205>
    38c8:	83 f8 57             	cmp    $0x57,%eax
    38cb:	0f 84 49 06 00 00    	je     3f1a <main+0x118a>
    38d1:	83 f8 52             	cmp    $0x52,%eax
    38d4:	0f 85 83 f7 ff ff    	jne    305d <main+0x2cd>
    38da:	50                   	push   %eax
    38db:	50                   	push   %eax
    38dc:	57                   	push   %edi
    38dd:	ff 35 cc 66 00 00    	pushl  0x66cc
    38e3:	e8 68 0b 00 00       	call   4450 <sheet_get_num_rows>
    38e8:	8b 45 90             	mov    -0x70(%ebp),%eax
    38eb:	40                   	inc    %eax
    38ec:	c7 45 a4 01 00 00 00 	movl   $0x1,-0x5c(%ebp)
    38f3:	89 45 a0             	mov    %eax,-0x60(%ebp)
    38f6:	8d 45 98             	lea    -0x68(%ebp),%eax
    38f9:	50                   	push   %eax
    38fa:	6a 01                	push   $0x1
    38fc:	ff b5 44 ff ff ff    	pushl  -0xbc(%ebp)
    3902:	ff 35 cc 66 00 00    	pushl  0x66cc
    3908:	e8 93 09 00 00       	call   42a0 <sheet_get_cell_pt>
    390d:	83 c4 14             	add    $0x14,%esp
    3910:	6a 01                	push   $0x1
    3912:	31 c9                	xor    %ecx,%ecx
    3914:	8b 45 98             	mov    -0x68(%ebp),%eax
    3917:	8b 55 9c             	mov    -0x64(%ebp),%edx
    391a:	e8 b1 d8 ff ff       	call   11d0 <caret_move>
    391f:	83 c4 10             	add    $0x10,%esp
    3922:	e9 36 f7 ff ff       	jmp    305d <main+0x2cd>
    3927:	83 f8 20             	cmp    $0x20,%eax
    392a:	0f 84 96 00 00 00    	je     39c6 <main+0xc36>
    3930:	83 f8 4f             	cmp    $0x4f,%eax
    3933:	0f 85 24 f7 ff ff    	jne    305d <main+0x2cd>
    3939:	8d 45 98             	lea    -0x68(%ebp),%eax
    393c:	c7 45 a4 01 00 00 00 	movl   $0x1,-0x5c(%ebp)
    3943:	50                   	push   %eax
    3944:	6a 00                	push   $0x0
    3946:	ff b5 44 ff ff ff    	pushl  -0xbc(%ebp)
    394c:	ff 35 cc 66 00 00    	pushl  0x66cc
    3952:	c7 45 a0 01 00 00 00 	movl   $0x1,-0x60(%ebp)
    3959:	e8 42 09 00 00       	call   42a0 <sheet_get_cell_pt>
    395e:	c7 04 24 01 00 00 00 	movl   $0x1,(%esp)
    3965:	b9 01 00 00 00       	mov    $0x1,%ecx
    396a:	8b 45 98             	mov    -0x68(%ebp),%eax
    396d:	8b 55 9c             	mov    -0x64(%ebp),%edx
    3970:	e8 5b d8 ff ff       	call   11d0 <caret_move>
    3975:	83 c4 10             	add    $0x10,%esp
    3978:	e9 e0 f6 ff ff       	jmp    305d <main+0x2cd>
    397d:	83 ec 0c             	sub    $0xc,%esp
    3980:	68 fd 49 00 00       	push   $0x49fd
    3985:	e8 86 13 00 00       	call   4d10 <printf@plt>
    398a:	83 c4 10             	add    $0x10,%esp
    398d:	c7 85 38 ff ff ff ff 	movl   $0xffffffff,-0xc8(%ebp)
    3994:	ff ff ff 
    3997:	e9 2b f8 ff ff       	jmp    31c7 <main+0x437>
    399c:	8b 45 9c             	mov    -0x64(%ebp),%eax
    399f:	2b 45 a4             	sub    -0x5c(%ebp),%eax
    39a2:	e9 97 fc ff ff       	jmp    363e <main+0x8ae>
    39a7:	83 ec 0c             	sub    $0xc,%esp
    39aa:	68 0d 4a 00 00       	push   $0x4a0d
    39af:	e8 5c 13 00 00       	call   4d10 <printf@plt>
    39b4:	83 c4 10             	add    $0x10,%esp
    39b7:	c7 85 38 ff ff ff fe 	movl   $0xfffffffe,-0xc8(%ebp)
    39be:	ff ff ff 
    39c1:	e9 01 f8 ff ff       	jmp    31c7 <main+0x437>
    39c6:	8b 15 bc 66 00 00    	mov    0x66bc,%edx
    39cc:	85 d2                	test   %edx,%edx
    39ce:	75 05                	jne    39d5 <main+0xc45>
    39d0:	ba 20 4a 00 00       	mov    $0x4a20,%edx
    39d5:	b8 af 4a 00 00       	mov    $0x4aaf,%eax
    39da:	e8 f1 e6 ff ff       	call   20d0 <prompt>
    39df:	85 c0                	test   %eax,%eax
    39e1:	74 3d                	je     3a20 <main+0xc90>
    39e3:	8b 15 bc 66 00 00    	mov    0x66bc,%edx
    39e9:	85 d2                	test   %edx,%edx
    39eb:	74 18                	je     3a05 <main+0xc75>
    39ed:	83 ec 0c             	sub    $0xc,%esp
    39f0:	89 85 40 ff ff ff    	mov    %eax,-0xc0(%ebp)
    39f6:	52                   	push   %edx
    39f7:	e8 04 15 00 00       	call   4f00 <free@plt>
    39fc:	83 c4 10             	add    $0x10,%esp
    39ff:	8b 85 40 ff ff ff    	mov    -0xc0(%ebp),%eax
    3a05:	ba 01 00 00 00       	mov    $0x1,%edx
    3a0a:	a3 bc 66 00 00       	mov    %eax,0x66bc
    3a0f:	c6 05 c0 66 00 00 01 	movb   $0x1,0x66c0
    3a16:	e8 55 ef ff ff       	call   2970 <search>
    3a1b:	e9 3d f6 ff ff       	jmp    305d <main+0x2cd>
    3a20:	b8 7f 4a 00 00       	mov    $0x4a7f,%eax
    3a25:	e8 b6 d8 ff ff       	call   12e0 <status_display>
    3a2a:	e9 2e f6 ff ff       	jmp    305d <main+0x2cd>
    3a2f:	8d 45 a0             	lea    -0x60(%ebp),%eax
    3a32:	be 01 00 00 00       	mov    $0x1,%esi
    3a37:	89 85 44 ff ff ff    	mov    %eax,-0xbc(%ebp)
    3a3d:	e9 5c f4 ff ff       	jmp    2e9e <main+0x10e>
    3a42:	e8 c9 e4 ff ff       	call   1f10 <selection_copy>
    3a47:	e8 84 de ff ff       	call   18d0 <selection_delete>
    3a4c:	83 0d 90 66 00 00 01 	orl    $0x1,0x6690
    3a53:	e9 64 fa ff ff       	jmp    34bc <main+0x72c>
    3a58:	50                   	push   %eax
    3a59:	50                   	push   %eax
    3a5a:	57                   	push   %edi
    3a5b:	ff 35 cc 66 00 00    	pushl  0x66cc
    3a61:	e8 ea 09 00 00       	call   4450 <sheet_get_num_rows>
    3a66:	8b 45 90             	mov    -0x70(%ebp),%eax
    3a69:	40                   	inc    %eax
    3a6a:	c7 45 a4 01 00 00 00 	movl   $0x1,-0x5c(%ebp)
    3a71:	89 45 a0             	mov    %eax,-0x60(%ebp)
    3a74:	8d 45 98             	lea    -0x68(%ebp),%eax
    3a77:	50                   	push   %eax
    3a78:	6a 01                	push   $0x1
    3a7a:	ff b5 44 ff ff ff    	pushl  -0xbc(%ebp)
    3a80:	ff 35 cc 66 00 00    	pushl  0x66cc
    3a86:	e8 15 08 00 00       	call   42a0 <sheet_get_cell_pt>
    3a8b:	83 c4 14             	add    $0x14,%esp
    3a8e:	6a 01                	push   $0x1
    3a90:	e9 d0 fe ff ff       	jmp    3965 <main+0xbd5>
    3a95:	ba 20 4a 00 00       	mov    $0x4a20,%edx
    3a9a:	b8 24 4a 00 00       	mov    $0x4a24,%eax
    3a9f:	e8 2c e6 ff ff       	call   20d0 <prompt>
    3aa4:	89 c3                	mov    %eax,%ebx
    3aa6:	85 c0                	test   %eax,%eax
    3aa8:	74 2f                	je     3ad9 <main+0xd49>
    3aaa:	89 d8                	mov    %ebx,%eax
    3aac:	e8 df eb ff ff       	call   2690 <file_save>
    3ab1:	85 c0                	test   %eax,%eax
    3ab3:	0f 85 a4 f5 ff ff    	jne    305d <main+0x2cd>
    3ab9:	a1 c8 66 00 00       	mov    0x66c8,%eax
    3abe:	85 c0                	test   %eax,%eax
    3ac0:	74 0c                	je     3ace <main+0xd3e>
    3ac2:	83 ec 0c             	sub    $0xc,%esp
    3ac5:	50                   	push   %eax
    3ac6:	e8 35 14 00 00       	call   4f00 <free@plt>
    3acb:	83 c4 10             	add    $0x10,%esp
    3ace:	89 1d c8 66 00 00    	mov    %ebx,0x66c8
    3ad4:	e9 84 f5 ff ff       	jmp    305d <main+0x2cd>
    3ad9:	50                   	push   %eax
    3ada:	a1 64 66 00 00       	mov    0x6664,%eax
    3adf:	48                   	dec    %eax
    3ae0:	50                   	push   %eax
    3ae1:	6a 00                	push   $0x0
    3ae3:	ff 35 d0 66 00 00    	pushl  0x66d0
    3ae9:	e8 c2 13 00 00       	call   4eb0 <console_set_pos@plt>
    3aee:	58                   	pop    %eax
    3aef:	5a                   	pop    %edx
    3af0:	6a 02                	push   $0x2
    3af2:	ff 35 d0 66 00 00    	pushl  0x66d0
    3af8:	e8 33 13 00 00       	call   4e30 <console_set_style@plt>
    3afd:	83 c4 0c             	add    $0xc,%esp
    3b00:	68 2c 4a 00 00       	push   $0x4a2c
    3b05:	b8 03 00 00 00       	mov    $0x3,%eax
    3b0a:	2b 05 60 66 00 00    	sub    0x6660,%eax
    3b10:	50                   	push   %eax
    3b11:	68 ee 48 00 00       	push   $0x48ee
    3b16:	e8 f5 11 00 00       	call   4d10 <printf@plt>
    3b1b:	5a                   	pop    %edx
    3b1c:	ff 35 d0 66 00 00    	pushl  0x66d0
    3b22:	e8 59 13 00 00       	call   4e80 <console_flush@plt>
    3b27:	59                   	pop    %ecx
    3b28:	5b                   	pop    %ebx
    3b29:	6a 00                	push   $0x0
    3b2b:	ff 35 d0 66 00 00    	pushl  0x66d0
    3b31:	e8 fa 12 00 00       	call   4e30 <console_set_style@plt>
    3b36:	83 c4 10             	add    $0x10,%esp
    3b39:	83 0d 90 66 00 00 08 	orl    $0x8,0x6690
    3b40:	e9 18 f5 ff ff       	jmp    305d <main+0x2cd>
    3b45:	ba 20 4a 00 00       	mov    $0x4a20,%edx
    3b4a:	b8 3c 4a 00 00       	mov    $0x4a3c,%eax
    3b4f:	e8 7c e5 ff ff       	call   20d0 <prompt>
    3b54:	89 c3                	mov    %eax,%ebx
    3b56:	85 c0                	test   %eax,%eax
    3b58:	0f 84 f7 00 00 00    	je     3c55 <main+0xec5>
    3b5e:	50                   	push   %eax
    3b5f:	6a 0a                	push   $0xa
    3b61:	57                   	push   %edi
    3b62:	53                   	push   %ebx
    3b63:	e8 18 12 00 00       	call   4d80 <strtol@plt>
    3b68:	83 c4 10             	add    $0x10,%esp
    3b6b:	89 c6                	mov    %eax,%esi
    3b6d:	8b 45 90             	mov    -0x70(%ebp),%eax
    3b70:	80 38 00             	cmpb   $0x0,(%eax)
    3b73:	0f 84 97 00 00 00    	je     3c10 <main+0xe80>
    3b79:	83 ec 0c             	sub    $0xc,%esp
    3b7c:	53                   	push   %ebx
    3b7d:	e8 7e 13 00 00       	call   4f00 <free@plt>
    3b82:	83 c4 0c             	add    $0xc,%esp
    3b85:	a1 64 66 00 00       	mov    0x6664,%eax
    3b8a:	48                   	dec    %eax
    3b8b:	50                   	push   %eax
    3b8c:	6a 00                	push   $0x0
    3b8e:	ff 35 d0 66 00 00    	pushl  0x66d0
    3b94:	e8 17 13 00 00       	call   4eb0 <console_set_pos@plt>
    3b99:	5e                   	pop    %esi
    3b9a:	58                   	pop    %eax
    3b9b:	6a 02                	push   $0x2
    3b9d:	ff 35 d0 66 00 00    	pushl  0x66d0
    3ba3:	e8 88 12 00 00       	call   4e30 <console_set_style@plt>
    3ba8:	83 c4 0c             	add    $0xc,%esp
    3bab:	68 5d 4a 00 00       	push   $0x4a5d
    3bb0:	e9 50 ff ff ff       	jmp    3b05 <main+0xd75>
    3bb5:	8b 15 bc 66 00 00    	mov    0x66bc,%edx
    3bbb:	85 d2                	test   %edx,%edx
    3bbd:	75 05                	jne    3bc4 <main+0xe34>
    3bbf:	ba 20 4a 00 00       	mov    $0x4a20,%edx
    3bc4:	b8 75 4a 00 00       	mov    $0x4a75,%eax
    3bc9:	e8 02 e5 ff ff       	call   20d0 <prompt>
    3bce:	85 c0                	test   %eax,%eax
    3bd0:	0f 84 4a fe ff ff    	je     3a20 <main+0xc90>
    3bd6:	8b 15 bc 66 00 00    	mov    0x66bc,%edx
    3bdc:	85 d2                	test   %edx,%edx
    3bde:	74 18                	je     3bf8 <main+0xe68>
    3be0:	83 ec 0c             	sub    $0xc,%esp
    3be3:	89 85 40 ff ff ff    	mov    %eax,-0xc0(%ebp)
    3be9:	52                   	push   %edx
    3bea:	e8 11 13 00 00       	call   4f00 <free@plt>
    3bef:	83 c4 10             	add    $0x10,%esp
    3bf2:	8b 85 40 ff ff ff    	mov    -0xc0(%ebp),%eax
    3bf8:	31 d2                	xor    %edx,%edx
    3bfa:	a3 bc 66 00 00       	mov    %eax,0x66bc
    3bff:	c6 05 c0 66 00 00 00 	movb   $0x0,0x66c0
    3c06:	e8 65 ed ff ff       	call   2970 <search>
    3c0b:	e9 4d f4 ff ff       	jmp    305d <main+0x2cd>
    3c10:	83 ec 0c             	sub    $0xc,%esp
    3c13:	53                   	push   %ebx
    3c14:	e8 e7 12 00 00       	call   4f00 <free@plt>
    3c19:	ff b5 44 ff ff ff    	pushl  -0xbc(%ebp)
    3c1f:	a1 b8 66 00 00       	mov    0x66b8,%eax
    3c24:	6a 00                	push   $0x0
    3c26:	89 45 9c             	mov    %eax,-0x64(%ebp)
    3c29:	8d 45 98             	lea    -0x68(%ebp),%eax
    3c2c:	50                   	push   %eax
    3c2d:	89 75 98             	mov    %esi,-0x68(%ebp)
    3c30:	ff 35 cc 66 00 00    	pushl  0x66cc
    3c36:	e8 65 06 00 00       	call   42a0 <sheet_get_cell_pt>
    3c3b:	83 c4 14             	add    $0x14,%esp
    3c3e:	31 c9                	xor    %ecx,%ecx
    3c40:	6a 01                	push   $0x1
    3c42:	8b 45 a0             	mov    -0x60(%ebp),%eax
    3c45:	8b 55 a4             	mov    -0x5c(%ebp),%edx
    3c48:	e8 83 d5 ff ff       	call   11d0 <caret_move>
    3c4d:	83 c4 10             	add    $0x10,%esp
    3c50:	e9 08 f4 ff ff       	jmp    305d <main+0x2cd>
    3c55:	b8 47 4a 00 00       	mov    $0x4a47,%eax
    3c5a:	e8 81 d6 ff ff       	call   12e0 <status_display>
    3c5f:	e9 f9 f3 ff ff       	jmp    305d <main+0x2cd>
    3c64:	83 f8 10             	cmp    $0x10,%eax
    3c67:	74 3b                	je     3ca4 <main+0xf14>
    3c69:	83 f8 12             	cmp    $0x12,%eax
    3c6c:	0f 85 eb f3 ff ff    	jne    305d <main+0x2cd>
    3c72:	8b 15 c8 66 00 00    	mov    0x66c8,%edx
    3c78:	85 d2                	test   %edx,%edx
    3c7a:	75 05                	jne    3c81 <main+0xef1>
    3c7c:	ba 20 4a 00 00       	mov    $0x4a20,%edx
    3c81:	b8 24 4a 00 00       	mov    $0x4a24,%eax
    3c86:	e8 45 e4 ff ff       	call   20d0 <prompt>
    3c8b:	89 c3                	mov    %eax,%ebx
    3c8d:	85 c0                	test   %eax,%eax
    3c8f:	0f 85 15 fe ff ff    	jne    3aaa <main+0xd1a>
    3c95:	b8 2c 4a 00 00       	mov    $0x4a2c,%eax
    3c9a:	e8 41 d6 ff ff       	call   12e0 <status_display>
    3c9f:	e9 b9 f3 ff ff       	jmp    305d <main+0x2cd>
    3ca4:	c6 05 c4 66 00 00 01 	movb   $0x1,0x66c4
    3cab:	e9 ad f3 ff ff       	jmp    305d <main+0x2cd>
    3cb0:	8b b5 44 ff ff ff    	mov    -0xbc(%ebp),%esi
    3cb6:	57                   	push   %edi
    3cb7:	6a 00                	push   $0x0
    3cb9:	56                   	push   %esi
    3cba:	ff 35 cc 66 00 00    	pushl  0x66cc
    3cc0:	8d 5d 88             	lea    -0x78(%ebp),%ebx
    3cc3:	c7 45 a4 01 00 00 00 	movl   $0x1,-0x5c(%ebp)
    3cca:	c7 45 a0 01 00 00 00 	movl   $0x1,-0x60(%ebp)
    3cd1:	e8 ca 05 00 00       	call   42a0 <sheet_get_cell_pt>
    3cd6:	5a                   	pop    %edx
    3cd7:	59                   	pop    %ecx
    3cd8:	53                   	push   %ebx
    3cd9:	ff 35 cc 66 00 00    	pushl  0x66cc
    3cdf:	e8 6c 07 00 00       	call   4450 <sheet_get_num_rows>
    3ce4:	8b 45 88             	mov    -0x78(%ebp),%eax
    3ce7:	40                   	inc    %eax
    3ce8:	c7 45 a4 01 00 00 00 	movl   $0x1,-0x5c(%ebp)
    3cef:	89 45 a0             	mov    %eax,-0x60(%ebp)
    3cf2:	8d 45 98             	lea    -0x68(%ebp),%eax
    3cf5:	50                   	push   %eax
    3cf6:	6a 01                	push   $0x1
    3cf8:	56                   	push   %esi
    3cf9:	ff 35 cc 66 00 00    	pushl  0x66cc
    3cff:	e8 9c 05 00 00       	call   42a0 <sheet_get_cell_pt>
    3d04:	83 c4 18             	add    $0x18,%esp
    3d07:	68 a4 66 00 00       	push   $0x66a4
    3d0c:	8b 45 90             	mov    -0x70(%ebp),%eax
    3d0f:	ff 35 cc 66 00 00    	pushl  0x66cc
    3d15:	8b 55 94             	mov    -0x6c(%ebp),%edx
    3d18:	89 85 58 ff ff ff    	mov    %eax,-0xa8(%ebp)
    3d1e:	89 95 5c ff ff ff    	mov    %edx,-0xa4(%ebp)
    3d24:	8b 45 98             	mov    -0x68(%ebp),%eax
    3d27:	8b 55 9c             	mov    -0x64(%ebp),%edx
    3d2a:	89 85 60 ff ff ff    	mov    %eax,-0xa0(%ebp)
    3d30:	89 95 64 ff ff ff    	mov    %edx,-0x9c(%ebp)
    3d36:	e8 b5 08 00 00       	call   45f0 <sheet_remove_tag>
    3d3b:	83 c4 0c             	add    $0xc,%esp
    3d3e:	8d 85 58 ff ff ff    	lea    -0xa8(%ebp),%eax
    3d44:	68 a4 66 00 00       	push   $0x66a4
    3d49:	50                   	push   %eax
    3d4a:	ff 35 cc 66 00 00    	pushl  0x66cc
    3d50:	e8 6b 08 00 00       	call   45c0 <sheet_place_tag>
    3d55:	5b                   	pop    %ebx
    3d56:	5e                   	pop    %esi
    3d57:	68 94 66 00 00       	push   $0x6694
    3d5c:	ff 35 cc 66 00 00    	pushl  0x66cc
    3d62:	e8 89 08 00 00       	call   45f0 <sheet_remove_tag>
    3d67:	83 c4 0c             	add    $0xc,%esp
    3d6a:	8d 85 60 ff ff ff    	lea    -0xa0(%ebp),%eax
    3d70:	68 94 66 00 00       	push   $0x6694
    3d75:	50                   	push   %eax
    3d76:	ff 35 cc 66 00 00    	pushl  0x66cc
    3d7c:	e8 3f 08 00 00       	call   45c0 <sheet_place_tag>
    3d81:	83 0d 90 66 00 00 01 	orl    $0x1,0x6690
    3d88:	e8 a3 d3 ff ff       	call   1130 <caret_update>
    3d8d:	83 c4 10             	add    $0x10,%esp
    3d90:	e9 c8 f2 ff ff       	jmp    305d <main+0x2cd>
    3d95:	b8 91 4a 00 00       	mov    $0x4a91,%eax
    3d9a:	e8 41 d5 ff ff       	call   12e0 <status_display>
    3d9f:	e9 b9 f2 ff ff       	jmp    305d <main+0x2cd>
    3da4:	8d 45 98             	lea    -0x68(%ebp),%eax
    3da7:	c7 45 a4 01 00 00 00 	movl   $0x1,-0x5c(%ebp)
    3dae:	50                   	push   %eax
    3daf:	6a 00                	push   $0x0
    3db1:	ff b5 44 ff ff ff    	pushl  -0xbc(%ebp)
    3db7:	ff 35 cc 66 00 00    	pushl  0x66cc
    3dbd:	c7 45 a0 01 00 00 00 	movl   $0x1,-0x60(%ebp)
    3dc4:	e8 d7 04 00 00       	call   42a0 <sheet_get_cell_pt>
    3dc9:	c7 04 24 01 00 00 00 	movl   $0x1,(%esp)
    3dd0:	e9 3d fb ff ff       	jmp    3912 <main+0xb82>
    3dd5:	e8 36 e1 ff ff       	call   1f10 <selection_copy>
    3dda:	e9 7e f2 ff ff       	jmp    305d <main+0x2cd>
    3ddf:	e8 ec da ff ff       	call   18d0 <selection_delete>
    3de4:	83 ec 0c             	sub    $0xc,%esp
    3de7:	8d 85 4c ff ff ff    	lea    -0xb4(%ebp),%eax
    3ded:	50                   	push   %eax
    3dee:	e8 fd 0f 00 00       	call   4df0 <clipboard_get_str@plt>
    3df3:	83 c4 10             	add    $0x10,%esp
    3df6:	85 c0                	test   %eax,%eax
    3df8:	0f 85 4e fc ff ff    	jne    3a4c <main+0xcbc>
    3dfe:	83 bd 4c ff ff ff 00 	cmpl   $0x0,-0xb4(%ebp)
    3e05:	0f 84 41 fc ff ff    	je     3a4c <main+0xcbc>
    3e0b:	c7 45 88 00 00 00 00 	movl   $0x0,-0x78(%ebp)
    3e12:	8d 5d 88             	lea    -0x78(%ebp),%ebx
    3e15:	eb 64                	jmp    3e7b <main+0x10eb>
    3e17:	50                   	push   %eax
    3e18:	50                   	push   %eax
    3e19:	ff b5 44 ff ff ff    	pushl  -0xbc(%ebp)
    3e1f:	68 94 66 00 00       	push   $0x6694
    3e24:	e8 f7 07 00 00       	call   4620 <tag_get_pt>
    3e29:	8d 45 98             	lea    -0x68(%ebp),%eax
    3e2c:	6a 05                	push   $0x5
    3e2e:	c7 45 90 00 00 00 00 	movl   $0x0,-0x70(%ebp)
    3e35:	57                   	push   %edi
    3e36:	50                   	push   %eax
    3e37:	56                   	push   %esi
    3e38:	e8 a3 10 00 00       	call   4ee0 <chr_encode@plt>
    3e3d:	8b 45 90             	mov    -0x70(%ebp),%eax
    3e40:	83 c4 20             	add    $0x20,%esp
    3e43:	c6 44 05 98 00       	movb   $0x0,-0x68(%ebp,%eax,1)
    3e48:	8d 45 98             	lea    -0x68(%ebp),%eax
    3e4b:	50                   	push   %eax
    3e4c:	6a 00                	push   $0x0
    3e4e:	ff b5 44 ff ff ff    	pushl  -0xbc(%ebp)
    3e54:	ff 35 cc 66 00 00    	pushl  0x66cc
    3e5a:	e8 11 02 00 00       	call   4070 <sheet_insert>
    3e5f:	a1 90 66 00 00       	mov    0x6690,%eax
    3e64:	89 c2                	mov    %eax,%edx
    3e66:	83 c4 10             	add    $0x10,%esp
    3e69:	83 ca 02             	or     $0x2,%edx
    3e6c:	83 fe 0a             	cmp    $0xa,%esi
    3e6f:	89 15 90 66 00 00    	mov    %edx,0x6690
    3e75:	0f 84 0d 01 00 00    	je     3f88 <main+0x11f8>
    3e7b:	50                   	push   %eax
    3e7c:	6a ff                	push   $0xffffffff
    3e7e:	53                   	push   %ebx
    3e7f:	ff b5 4c ff ff ff    	pushl  -0xb4(%ebp)
    3e85:	e8 a6 0e 00 00       	call   4d30 <str_decode@plt>
    3e8a:	83 c4 10             	add    $0x10,%esp
    3e8d:	89 c6                	mov    %eax,%esi
    3e8f:	85 c0                	test   %eax,%eax
    3e91:	75 84                	jne    3e17 <main+0x1087>
    3e93:	83 ec 0c             	sub    $0xc,%esp
    3e96:	ff b5 4c ff ff ff    	pushl  -0xb4(%ebp)
    3e9c:	e8 5f 10 00 00       	call   4f00 <free@plt>
    3ea1:	83 c4 10             	add    $0x10,%esp
    3ea4:	e9 a3 fb ff ff       	jmp    3a4c <main+0xcbc>
    3ea9:	50                   	push   %eax
    3eaa:	50                   	push   %eax
    3eab:	ff b5 44 ff ff ff    	pushl  -0xbc(%ebp)
    3eb1:	68 94 66 00 00       	push   $0x6694
    3eb6:	e8 65 07 00 00       	call   4620 <tag_get_pt>
    3ebb:	8b 45 a0             	mov    -0x60(%ebp),%eax
    3ebe:	8b 55 a4             	mov    -0x5c(%ebp),%edx
    3ec1:	89 85 78 ff ff ff    	mov    %eax,-0x88(%ebp)
    3ec7:	89 95 7c ff ff ff    	mov    %edx,-0x84(%ebp)
    3ecd:	83 c4 10             	add    $0x10,%esp
    3ed0:	8d 9d 78 ff ff ff    	lea    -0x88(%ebp),%ebx
    3ed6:	50                   	push   %eax
    3ed7:	53                   	push   %ebx
    3ed8:	ff b5 7c ff ff ff    	pushl  -0x84(%ebp)
    3ede:	ff b5 78 ff ff ff    	pushl  -0x88(%ebp)
    3ee4:	e8 97 06 00 00       	call   4580 <spt_prev_char>
    3ee9:	89 d8                	mov    %ebx,%eax
    3eeb:	e8 d0 dd ff ff       	call   1cc0 <pt_is_word_beginning>
    3ef0:	83 c4 10             	add    $0x10,%esp
    3ef3:	84 c0                	test   %al,%al
    3ef5:	74 df                	je     3ed6 <main+0x1146>
    3ef7:	83 ec 0c             	sub    $0xc,%esp
    3efa:	b9 01 00 00 00       	mov    $0x1,%ecx
    3eff:	8b 85 78 ff ff ff    	mov    -0x88(%ebp),%eax
    3f05:	8b 95 7c ff ff ff    	mov    -0x84(%ebp),%edx
    3f0b:	6a 01                	push   $0x1
    3f0d:	e8 be d2 ff ff       	call   11d0 <caret_move>
    3f12:	83 c4 10             	add    $0x10,%esp
    3f15:	e9 43 f1 ff ff       	jmp    305d <main+0x2cd>
    3f1a:	50                   	push   %eax
    3f1b:	50                   	push   %eax
    3f1c:	ff b5 44 ff ff ff    	pushl  -0xbc(%ebp)
    3f22:	68 94 66 00 00       	push   $0x6694
    3f27:	e8 f4 06 00 00       	call   4620 <tag_get_pt>
    3f2c:	8b 45 a0             	mov    -0x60(%ebp),%eax
    3f2f:	8b 55 a4             	mov    -0x5c(%ebp),%edx
    3f32:	89 85 68 ff ff ff    	mov    %eax,-0x98(%ebp)
    3f38:	89 95 6c ff ff ff    	mov    %edx,-0x94(%ebp)
    3f3e:	83 c4 10             	add    $0x10,%esp
    3f41:	8d 9d 68 ff ff ff    	lea    -0x98(%ebp),%ebx
    3f47:	50                   	push   %eax
    3f48:	53                   	push   %ebx
    3f49:	ff b5 6c ff ff ff    	pushl  -0x94(%ebp)
    3f4f:	ff b5 68 ff ff ff    	pushl  -0x98(%ebp)
    3f55:	e8 e6 05 00 00       	call   4540 <spt_next_char>
    3f5a:	89 d8                	mov    %ebx,%eax
    3f5c:	e8 5f dd ff ff       	call   1cc0 <pt_is_word_beginning>
    3f61:	83 c4 10             	add    $0x10,%esp
    3f64:	84 c0                	test   %al,%al
    3f66:	74 df                	je     3f47 <main+0x11b7>
    3f68:	83 ec 0c             	sub    $0xc,%esp
    3f6b:	31 c9                	xor    %ecx,%ecx
    3f6d:	8b 85 68 ff ff ff    	mov    -0x98(%ebp),%eax
    3f73:	8b 95 6c ff ff ff    	mov    -0x94(%ebp),%edx
    3f79:	6a 01                	push   $0x1
    3f7b:	e8 50 d2 ff ff       	call   11d0 <caret_move>
    3f80:	83 c4 10             	add    $0x10,%esp
    3f83:	e9 d5 f0 ff ff       	jmp    305d <main+0x2cd>
    3f88:	83 c8 03             	or     $0x3,%eax
    3f8b:	a3 90 66 00 00       	mov    %eax,0x6690
    3f90:	e9 e6 fe ff ff       	jmp    3e7b <main+0x10eb>
    3f95:	50                   	push   %eax
    3f96:	50                   	push   %eax
    3f97:	ff b5 44 ff ff ff    	pushl  -0xbc(%ebp)
    3f9d:	68 94 66 00 00       	push   $0x6694
    3fa2:	e8 79 06 00 00       	call   4620 <tag_get_pt>
    3fa7:	8b 45 a0             	mov    -0x60(%ebp),%eax
    3faa:	8b 55 a4             	mov    -0x5c(%ebp),%edx
    3fad:	89 85 70 ff ff ff    	mov    %eax,-0x90(%ebp)
    3fb3:	89 95 74 ff ff ff    	mov    %edx,-0x8c(%ebp)
    3fb9:	83 c4 10             	add    $0x10,%esp
    3fbc:	8d 9d 70 ff ff ff    	lea    -0x90(%ebp),%ebx
    3fc2:	50                   	push   %eax
    3fc3:	53                   	push   %ebx
    3fc4:	ff b5 74 ff ff ff    	pushl  -0x8c(%ebp)
    3fca:	ff b5 70 ff ff ff    	pushl  -0x90(%ebp)
    3fd0:	e8 ab 05 00 00       	call   4580 <spt_prev_char>
    3fd5:	89 d8                	mov    %ebx,%eax
    3fd7:	e8 e4 dc ff ff       	call   1cc0 <pt_is_word_beginning>
    3fdc:	83 c4 10             	add    $0x10,%esp
    3fdf:	84 c0                	test   %al,%al
    3fe1:	74 df                	je     3fc2 <main+0x1232>
    3fe3:	83 ec 0c             	sub    $0xc,%esp
    3fe6:	31 c9                	xor    %ecx,%ecx
    3fe8:	8b 85 70 ff ff ff    	mov    -0x90(%ebp),%eax
    3fee:	8b 95 74 ff ff ff    	mov    -0x8c(%ebp),%edx
    3ff4:	6a 01                	push   $0x1
    3ff6:	e8 d5 d1 ff ff       	call   11d0 <caret_move>
    3ffb:	83 c4 10             	add    $0x10,%esp
    3ffe:	e9 5a f0 ff ff       	jmp    305d <main+0x2cd>
    4003:	66 90                	xchg   %ax,%ax
    4005:	66 90                	xchg   %ax,%ax
    4007:	66 90                	xchg   %ax,%ax
    4009:	66 90                	xchg   %ax,%ax
    400b:	66 90                	xchg   %ax,%ax
    400d:	66 90                	xchg   %ax,%ax
    400f:	90                   	nop

00004010 <sheet_create>:
    4010:	55                   	push   %ebp
    4011:	89 e5                	mov    %esp,%ebp
    4013:	53                   	push   %ebx
    4014:	83 ec 0c             	sub    $0xc,%esp
    4017:	6a 14                	push   $0x14
    4019:	6a 01                	push   $0x1
    401b:	e8 a0 0d 00 00       	call   4dc0 <calloc@plt>
    4020:	83 c4 10             	add    $0x10,%esp
    4023:	85 c0                	test   %eax,%eax
    4025:	74 39                	je     4060 <sheet_create+0x50>
    4027:	83 ec 0c             	sub    $0xc,%esp
    402a:	c7 40 04 20 00 00 00 	movl   $0x20,0x4(%eax)
    4031:	c7 00 00 00 00 00    	movl   $0x0,(%eax)
    4037:	89 c3                	mov    %eax,%ebx
    4039:	6a 20                	push   $0x20
    403b:	e8 10 0d 00 00       	call   4d50 <malloc@plt>
    4040:	83 c4 10             	add    $0x10,%esp
    4043:	89 43 08             	mov    %eax,0x8(%ebx)
    4046:	85 c0                	test   %eax,%eax
    4048:	74 16                	je     4060 <sheet_create+0x50>
    404a:	8d 43 0c             	lea    0xc(%ebx),%eax
    404d:	89 43 0c             	mov    %eax,0xc(%ebx)
    4050:	89 43 10             	mov    %eax,0x10(%ebx)
    4053:	8b 45 08             	mov    0x8(%ebp),%eax
    4056:	89 18                	mov    %ebx,(%eax)
    4058:	31 c0                	xor    %eax,%eax
    405a:	8b 5d fc             	mov    -0x4(%ebp),%ebx
    405d:	c9                   	leave  
    405e:	c3                   	ret    
    405f:	90                   	nop
    4060:	b8 fe ff ff ff       	mov    $0xfffffffe,%eax
    4065:	eb f3                	jmp    405a <sheet_create+0x4a>
    4067:	89 f6                	mov    %esi,%esi
    4069:	8d bc 27 00 00 00 00 	lea    0x0(%edi,%eiz,1),%edi

00004070 <sheet_insert>:
    4070:	55                   	push   %ebp
    4071:	89 e5                	mov    %esp,%ebp
    4073:	57                   	push   %edi
    4074:	56                   	push   %esi
    4075:	53                   	push   %ebx
    4076:	83 ec 28             	sub    $0x28,%esp
    4079:	8b 45 14             	mov    0x14(%ebp),%eax
    407c:	8b 5d 08             	mov    0x8(%ebp),%ebx
    407f:	50                   	push   %eax
    4080:	8b 7d 0c             	mov    0xc(%ebp),%edi
    4083:	e8 08 0e 00 00       	call   4e90 <str_size@plt>
    4088:	8b 4b 04             	mov    0x4(%ebx),%ecx
    408b:	89 c6                	mov    %eax,%esi
    408d:	8b 03                	mov    (%ebx),%eax
    408f:	83 c4 10             	add    $0x10,%esp
    4092:	8d 14 06             	lea    (%esi,%eax,1),%edx
    4095:	39 ca                	cmp    %ecx,%edx
    4097:	77 75                	ja     410e <sheet_insert+0x9e>
    4099:	8b 53 08             	mov    0x8(%ebx),%edx
    409c:	8b 4f 04             	mov    0x4(%edi),%ecx
    409f:	83 c3 0c             	add    $0xc,%ebx
    40a2:	01 ca                	add    %ecx,%edx
    40a4:	51                   	push   %ecx
    40a5:	8b 4f 04             	mov    0x4(%edi),%ecx
    40a8:	89 55 e4             	mov    %edx,-0x1c(%ebp)
    40ab:	29 c8                	sub    %ecx,%eax
    40ad:	50                   	push   %eax
    40ae:	8d 04 32             	lea    (%edx,%esi,1),%eax
    40b1:	52                   	push   %edx
    40b2:	50                   	push   %eax
    40b3:	e8 68 0c 00 00       	call   4d20 <memmove@plt>
    40b8:	83 c4 0c             	add    $0xc,%esp
    40bb:	8b 45 14             	mov    0x14(%ebp),%eax
    40be:	8b 55 e4             	mov    -0x1c(%ebp),%edx
    40c1:	56                   	push   %esi
    40c2:	50                   	push   %eax
    40c3:	52                   	push   %edx
    40c4:	e8 77 0c 00 00       	call   4d40 <memcpy@plt>
    40c9:	8b 43 f4             	mov    -0xc(%ebx),%eax
    40cc:	83 c4 10             	add    $0x10,%esp
    40cf:	01 f0                	add    %esi,%eax
    40d1:	89 43 f4             	mov    %eax,-0xc(%ebx)
    40d4:	8b 43 04             	mov    0x4(%ebx),%eax
    40d7:	39 c3                	cmp    %eax,%ebx
    40d9:	74 29                	je     4104 <sheet_insert+0x94>
    40db:	8b 4f 04             	mov    0x4(%edi),%ecx
    40de:	8b 7d 10             	mov    0x10(%ebp),%edi
    40e1:	8d b4 26 00 00 00 00 	lea    0x0(%esi,%eiz,1),%esi
    40e8:	8b 50 0c             	mov    0xc(%eax),%edx
    40eb:	39 ca                	cmp    %ecx,%edx
    40ed:	77 09                	ja     40f8 <sheet_insert+0x88>
    40ef:	75 0c                	jne    40fd <sheet_insert+0x8d>
    40f1:	85 ff                	test   %edi,%edi
    40f3:	75 08                	jne    40fd <sheet_insert+0x8d>
    40f5:	8d 76 00             	lea    0x0(%esi),%esi
    40f8:	01 f2                	add    %esi,%edx
    40fa:	89 50 0c             	mov    %edx,0xc(%eax)
    40fd:	8b 40 04             	mov    0x4(%eax),%eax
    4100:	39 c3                	cmp    %eax,%ebx
    4102:	75 e4                	jne    40e8 <sheet_insert+0x78>
    4104:	31 c0                	xor    %eax,%eax
    4106:	8d 65 f4             	lea    -0xc(%ebp),%esp
    4109:	5b                   	pop    %ebx
    410a:	5e                   	pop    %esi
    410b:	5f                   	pop    %edi
    410c:	5d                   	pop    %ebp
    410d:	c3                   	ret    
    410e:	50                   	push   %eax
    410f:	50                   	push   %eax
    4110:	8d 04 09             	lea    (%ecx,%ecx,1),%eax
    4113:	50                   	push   %eax
    4114:	8b 43 08             	mov    0x8(%ebx),%eax
    4117:	50                   	push   %eax
    4118:	e8 f3 0c 00 00       	call   4e10 <realloc@plt>
    411d:	83 c4 10             	add    $0x10,%esp
    4120:	89 c2                	mov    %eax,%edx
    4122:	85 c0                	test   %eax,%eax
    4124:	74 12                	je     4138 <sheet_insert+0xc8>
    4126:	89 43 08             	mov    %eax,0x8(%ebx)
    4129:	8b 43 04             	mov    0x4(%ebx),%eax
    412c:	01 c0                	add    %eax,%eax
    412e:	89 43 04             	mov    %eax,0x4(%ebx)
    4131:	8b 03                	mov    (%ebx),%eax
    4133:	e9 64 ff ff ff       	jmp    409c <sheet_insert+0x2c>
    4138:	b8 fd ff ff ff       	mov    $0xfffffffd,%eax
    413d:	eb c7                	jmp    4106 <sheet_insert+0x96>
    413f:	90                   	nop

00004140 <sheet_delete>:
    4140:	55                   	push   %ebp
    4141:	89 e5                	mov    %esp,%ebp
    4143:	57                   	push   %edi
    4144:	56                   	push   %esi
    4145:	53                   	push   %ebx
    4146:	83 ec 20             	sub    $0x20,%esp
    4149:	8b 45 08             	mov    0x8(%ebp),%eax
    414c:	8b 5d 10             	mov    0x10(%ebp),%ebx
    414f:	8b 75 0c             	mov    0xc(%ebp),%esi
    4152:	8b 48 08             	mov    0x8(%eax),%ecx
    4155:	8b 43 04             	mov    0x4(%ebx),%eax
    4158:	8b 7e 04             	mov    0x4(%esi),%edi
    415b:	89 c2                	mov    %eax,%edx
    415d:	29 fa                	sub    %edi,%edx
    415f:	89 55 e4             	mov    %edx,-0x1c(%ebp)
    4162:	8b 55 08             	mov    0x8(%ebp),%edx
    4165:	8b 12                	mov    (%edx),%edx
    4167:	89 55 e0             	mov    %edx,-0x20(%ebp)
    416a:	29 c2                	sub    %eax,%edx
    416c:	01 c8                	add    %ecx,%eax
    416e:	01 f9                	add    %edi,%ecx
    4170:	52                   	push   %edx
    4171:	50                   	push   %eax
    4172:	51                   	push   %ecx
    4173:	e8 a8 0b 00 00       	call   4d20 <memmove@plt>
    4178:	8b 45 08             	mov    0x8(%ebp),%eax
    417b:	8b 7d e4             	mov    -0x1c(%ebp),%edi
    417e:	83 c4 10             	add    $0x10,%esp
    4181:	8b 00                	mov    (%eax),%eax
    4183:	29 f8                	sub    %edi,%eax
    4185:	8b 7d 08             	mov    0x8(%ebp),%edi
    4188:	89 45 e0             	mov    %eax,-0x20(%ebp)
    418b:	83 c7 0c             	add    $0xc,%edi
    418e:	89 47 f4             	mov    %eax,-0xc(%edi)
    4191:	8b 47 04             	mov    0x4(%edi),%eax
    4194:	39 c7                	cmp    %eax,%edi
    4196:	74 2f                	je     41c7 <sheet_delete+0x87>
    4198:	8b 5b 04             	mov    0x4(%ebx),%ebx
    419b:	eb 12                	jmp    41af <sheet_delete+0x6f>
    419d:	8d 76 00             	lea    0x0(%esi),%esi
    41a0:	8b 4d e4             	mov    -0x1c(%ebp),%ecx
    41a3:	29 ca                	sub    %ecx,%edx
    41a5:	89 50 0c             	mov    %edx,0xc(%eax)
    41a8:	8b 40 04             	mov    0x4(%eax),%eax
    41ab:	39 c7                	cmp    %eax,%edi
    41ad:	74 18                	je     41c7 <sheet_delete+0x87>
    41af:	8b 50 0c             	mov    0xc(%eax),%edx
    41b2:	39 d3                	cmp    %edx,%ebx
    41b4:	76 ea                	jbe    41a0 <sheet_delete+0x60>
    41b6:	8b 4e 04             	mov    0x4(%esi),%ecx
    41b9:	39 ca                	cmp    %ecx,%edx
    41bb:	72 eb                	jb     41a8 <sheet_delete+0x68>
    41bd:	89 48 0c             	mov    %ecx,0xc(%eax)
    41c0:	8b 40 04             	mov    0x4(%eax),%eax
    41c3:	39 c7                	cmp    %eax,%edi
    41c5:	75 e8                	jne    41af <sheet_delete+0x6f>
    41c7:	8b 45 08             	mov    0x8(%ebp),%eax
    41ca:	8b 40 04             	mov    0x4(%eax),%eax
    41cd:	89 c3                	mov    %eax,%ebx
    41cf:	c1 eb 02             	shr    $0x2,%ebx
    41d2:	3d 83 00 00 00       	cmp    $0x83,%eax
    41d7:	77 05                	ja     41de <sheet_delete+0x9e>
    41d9:	bb 20 00 00 00       	mov    $0x20,%ebx
    41de:	3b 5d e0             	cmp    -0x20(%ebp),%ebx
    41e1:	72 24                	jb     4207 <sheet_delete+0xc7>
    41e3:	83 f8 20             	cmp    $0x20,%eax
    41e6:	76 1f                	jbe    4207 <sheet_delete+0xc7>
    41e8:	50                   	push   %eax
    41e9:	50                   	push   %eax
    41ea:	8b 45 08             	mov    0x8(%ebp),%eax
    41ed:	53                   	push   %ebx
    41ee:	8b 50 08             	mov    0x8(%eax),%edx
    41f1:	52                   	push   %edx
    41f2:	e8 19 0c 00 00       	call   4e10 <realloc@plt>
    41f7:	83 c4 10             	add    $0x10,%esp
    41fa:	85 c0                	test   %eax,%eax
    41fc:	74 09                	je     4207 <sheet_delete+0xc7>
    41fe:	8b 75 08             	mov    0x8(%ebp),%esi
    4201:	89 46 08             	mov    %eax,0x8(%esi)
    4204:	89 5e 04             	mov    %ebx,0x4(%esi)
    4207:	8d 65 f4             	lea    -0xc(%ebp),%esp
    420a:	31 c0                	xor    %eax,%eax
    420c:	5b                   	pop    %ebx
    420d:	5e                   	pop    %esi
    420e:	5f                   	pop    %edi
    420f:	5d                   	pop    %ebp
    4210:	c3                   	ret    
    4211:	eb 0d                	jmp    4220 <sheet_copy_out>
    4213:	90                   	nop
    4214:	90                   	nop
    4215:	90                   	nop
    4216:	90                   	nop
    4217:	90                   	nop
    4218:	90                   	nop
    4219:	90                   	nop
    421a:	90                   	nop
    421b:	90                   	nop
    421c:	90                   	nop
    421d:	90                   	nop
    421e:	90                   	nop
    421f:	90                   	nop

00004220 <sheet_copy_out>:
    4220:	55                   	push   %ebp
    4221:	89 e5                	mov    %esp,%ebp
    4223:	57                   	push   %edi
    4224:	56                   	push   %esi
    4225:	53                   	push   %ebx
    4226:	83 ec 1c             	sub    $0x1c,%esp
    4229:	8b 45 0c             	mov    0xc(%ebp),%eax
    422c:	8b 50 04             	mov    0x4(%eax),%edx
    422f:	8b 45 08             	mov    0x8(%ebp),%eax
    4232:	8b 78 08             	mov    0x8(%eax),%edi
    4235:	8b 45 10             	mov    0x10(%ebp),%eax
    4238:	01 d7                	add    %edx,%edi
    423a:	8b 70 04             	mov    0x4(%eax),%esi
    423d:	8b 45 18             	mov    0x18(%ebp),%eax
    4240:	48                   	dec    %eax
    4241:	29 d6                	sub    %edx,%esi
    4243:	39 c6                	cmp    %eax,%esi
    4245:	76 02                	jbe    4249 <sheet_copy_out+0x29>
    4247:	89 c6                	mov    %eax,%esi
    4249:	c7 45 e4 00 00 00 00 	movl   $0x0,-0x1c(%ebp)
    4250:	31 db                	xor    %ebx,%ebx
    4252:	eb 07                	jmp    425b <sheet_copy_out+0x3b>
    4254:	8d 74 26 00          	lea    0x0(%esi,%eiz,1),%esi
    4258:	8b 5d e4             	mov    -0x1c(%ebp),%ebx
    425b:	50                   	push   %eax
    425c:	8d 45 e4             	lea    -0x1c(%ebp),%eax
    425f:	56                   	push   %esi
    4260:	50                   	push   %eax
    4261:	57                   	push   %edi
    4262:	e8 c9 0a 00 00       	call   4d30 <str_decode@plt>
    4267:	83 c4 10             	add    $0x10,%esp
    426a:	85 c0                	test   %eax,%eax
    426c:	75 ea                	jne    4258 <sheet_copy_out+0x38>
    426e:	8b 55 14             	mov    0x14(%ebp),%edx
    4271:	50                   	push   %eax
    4272:	53                   	push   %ebx
    4273:	57                   	push   %edi
    4274:	52                   	push   %edx
    4275:	e8 c6 0a 00 00       	call   4d40 <memcpy@plt>
    427a:	8b 45 14             	mov    0x14(%ebp),%eax
    427d:	83 c4 10             	add    $0x10,%esp
    4280:	c6 04 18 00          	movb   $0x0,(%eax,%ebx,1)
    4284:	8b 45 0c             	mov    0xc(%ebp),%eax
    4287:	8b 48 04             	mov    0x4(%eax),%ecx
    428a:	8b 45 1c             	mov    0x1c(%ebp),%eax
    428d:	01 cb                	add    %ecx,%ebx
    428f:	8b 4d 08             	mov    0x8(%ebp),%ecx
    4292:	89 58 04             	mov    %ebx,0x4(%eax)
    4295:	89 08                	mov    %ecx,(%eax)
    4297:	8d 65 f4             	lea    -0xc(%ebp),%esp
    429a:	5b                   	pop    %ebx
    429b:	5e                   	pop    %esi
    429c:	5f                   	pop    %edi
    429d:	5d                   	pop    %ebp
    429e:	c3                   	ret    
    429f:	90                   	nop

000042a0 <sheet_get_cell_pt>:
    42a0:	55                   	push   %ebp
    42a1:	89 e5                	mov    %esp,%ebp
    42a3:	57                   	push   %edi
    42a4:	56                   	push   %esi
    42a5:	53                   	push   %ebx
    42a6:	83 ec 2c             	sub    $0x2c,%esp
    42a9:	31 f6                	xor    %esi,%esi
    42ab:	8b 7d 08             	mov    0x8(%ebp),%edi
    42ae:	c7 45 e4 00 00 00 00 	movl   $0x0,-0x1c(%ebp)
    42b5:	bb 01 00 00 00       	mov    $0x1,%ebx
    42ba:	c7 45 d0 01 00 00 00 	movl   $0x1,-0x30(%ebp)
    42c1:	89 75 d4             	mov    %esi,-0x2c(%ebp)
    42c4:	8d 74 26 00          	lea    0x0(%esi,%eiz,1),%esi
    42c8:	8b 07                	mov    (%edi),%eax
    42ca:	39 45 d4             	cmp    %eax,-0x2c(%ebp)
    42cd:	73 42                	jae    4311 <sheet_get_cell_pt+0x71>
    42cf:	8b 55 0c             	mov    0xc(%ebp),%edx
    42d2:	8b 4d d0             	mov    -0x30(%ebp),%ecx
    42d5:	8b 12                	mov    (%edx),%edx
    42d7:	39 d1                	cmp    %edx,%ecx
    42d9:	7c 0c                	jl     42e7 <sheet_get_cell_pt+0x47>
    42db:	8b 75 0c             	mov    0xc(%ebp),%esi
    42de:	39 5e 04             	cmp    %ebx,0x4(%esi)
    42e1:	7c 2e                	jl     4311 <sheet_get_cell_pt+0x71>
    42e3:	39 d1                	cmp    %edx,%ecx
    42e5:	7f 2a                	jg     4311 <sheet_get_cell_pt+0x71>
    42e7:	8b 75 e4             	mov    -0x1c(%ebp),%esi
    42ea:	89 75 d4             	mov    %esi,-0x2c(%ebp)
    42ed:	56                   	push   %esi
    42ee:	50                   	push   %eax
    42ef:	8d 45 e4             	lea    -0x1c(%ebp),%eax
    42f2:	50                   	push   %eax
    42f3:	8b 47 08             	mov    0x8(%edi),%eax
    42f6:	50                   	push   %eax
    42f7:	e8 34 0a 00 00       	call   4d30 <str_decode@plt>
    42fc:	83 c4 10             	add    $0x10,%esp
    42ff:	83 f8 0a             	cmp    $0xa,%eax
    4302:	74 2c                	je     4330 <sheet_get_cell_pt+0x90>
    4304:	83 f8 09             	cmp    $0x9,%eax
    4307:	74 37                	je     4340 <sheet_get_cell_pt+0xa0>
    4309:	8b 07                	mov    (%edi),%eax
    430b:	43                   	inc    %ebx
    430c:	39 45 d4             	cmp    %eax,-0x2c(%ebp)
    430f:	72 be                	jb     42cf <sheet_get_cell_pt+0x2f>
    4311:	8b 45 14             	mov    0x14(%ebp),%eax
    4314:	8b 55 10             	mov    0x10(%ebp),%edx
    4317:	8b 75 d4             	mov    -0x2c(%ebp),%esi
    431a:	85 d2                	test   %edx,%edx
    431c:	89 38                	mov    %edi,(%eax)
    431e:	74 03                	je     4323 <sheet_get_cell_pt+0x83>
    4320:	8b 75 e4             	mov    -0x1c(%ebp),%esi
    4323:	89 70 04             	mov    %esi,0x4(%eax)
    4326:	8d 65 f4             	lea    -0xc(%ebp),%esp
    4329:	5b                   	pop    %ebx
    432a:	5e                   	pop    %esi
    432b:	5f                   	pop    %edi
    432c:	5d                   	pop    %ebp
    432d:	c3                   	ret    
    432e:	66 90                	xchg   %ax,%ax
    4330:	8b 4d d0             	mov    -0x30(%ebp),%ecx
    4333:	bb 01 00 00 00       	mov    $0x1,%ebx
    4338:	41                   	inc    %ecx
    4339:	89 4d d0             	mov    %ecx,-0x30(%ebp)
    433c:	eb 8a                	jmp    42c8 <sheet_get_cell_pt+0x28>
    433e:	66 90                	xchg   %ax,%ax
    4340:	83 c3 07             	add    $0x7,%ebx
    4343:	83 e3 f8             	and    $0xfffffff8,%ebx
    4346:	43                   	inc    %ebx
    4347:	e9 7c ff ff ff       	jmp    42c8 <sheet_get_cell_pt+0x28>
    434c:	8d 74 26 00          	lea    0x0(%esi,%eiz,1),%esi

00004350 <sheet_get_row_width>:
    4350:	55                   	push   %ebp
    4351:	89 e5                	mov    %esp,%ebp
    4353:	57                   	push   %edi
    4354:	56                   	push   %esi
    4355:	53                   	push   %ebx
    4356:	83 ec 2c             	sub    $0x2c,%esp
    4359:	bb 01 00 00 00       	mov    $0x1,%ebx
    435e:	8b 7d 08             	mov    0x8(%ebp),%edi
    4361:	c7 45 e4 00 00 00 00 	movl   $0x0,-0x1c(%ebp)
    4368:	c7 45 d4 01 00 00 00 	movl   $0x1,-0x2c(%ebp)
    436f:	31 f6                	xor    %esi,%esi
    4371:	8d b4 26 00 00 00 00 	lea    0x0(%esi,%eiz,1),%esi
    4378:	8b 07                	mov    (%edi),%eax
    437a:	39 f0                	cmp    %esi,%eax
    437c:	76 38                	jbe    43b6 <sheet_get_row_width+0x66>
    437e:	8b 4d d4             	mov    -0x2c(%ebp),%ecx
    4381:	39 4d 0c             	cmp    %ecx,0xc(%ebp)
    4384:	7f 0a                	jg     4390 <sheet_get_row_width+0x40>
    4386:	7c 2e                	jl     43b6 <sheet_get_row_width+0x66>
    4388:	81 fb 00 00 01 00    	cmp    $0x10000,%ebx
    438e:	7f 26                	jg     43b6 <sheet_get_row_width+0x66>
    4390:	52                   	push   %edx
    4391:	50                   	push   %eax
    4392:	8b 4f 08             	mov    0x8(%edi),%ecx
    4395:	8d 45 e4             	lea    -0x1c(%ebp),%eax
    4398:	50                   	push   %eax
    4399:	8b 75 e4             	mov    -0x1c(%ebp),%esi
    439c:	51                   	push   %ecx
    439d:	e8 8e 09 00 00       	call   4d30 <str_decode@plt>
    43a2:	83 c4 10             	add    $0x10,%esp
    43a5:	83 f8 0a             	cmp    $0xa,%eax
    43a8:	74 56                	je     4400 <sheet_get_row_width+0xb0>
    43aa:	83 f8 09             	cmp    $0x9,%eax
    43ad:	74 69                	je     4418 <sheet_get_row_width+0xc8>
    43af:	8b 07                	mov    (%edi),%eax
    43b1:	43                   	inc    %ebx
    43b2:	39 f0                	cmp    %esi,%eax
    43b4:	77 c8                	ja     437e <sheet_get_row_width+0x2e>
    43b6:	c7 45 e4 00 00 00 00 	movl   $0x0,-0x1c(%ebp)
    43bd:	31 c0                	xor    %eax,%eax
    43bf:	bb 01 00 00 00       	mov    $0x1,%ebx
    43c4:	eb 0b                	jmp    43d1 <sheet_get_row_width+0x81>
    43c6:	66 90                	xchg   %ax,%ax
    43c8:	83 f8 09             	cmp    $0x9,%eax
    43cb:	74 5b                	je     4428 <sheet_get_row_width+0xd8>
    43cd:	43                   	inc    %ebx
    43ce:	8b 45 e4             	mov    -0x1c(%ebp),%eax
    43d1:	39 f0                	cmp    %esi,%eax
    43d3:	73 63                	jae    4438 <sheet_get_row_width+0xe8>
    43d5:	8b 17                	mov    (%edi),%edx
    43d7:	39 d0                	cmp    %edx,%eax
    43d9:	73 5d                	jae    4438 <sheet_get_row_width+0xe8>
    43db:	50                   	push   %eax
    43dc:	8d 45 e4             	lea    -0x1c(%ebp),%eax
    43df:	52                   	push   %edx
    43e0:	8b 57 08             	mov    0x8(%edi),%edx
    43e3:	50                   	push   %eax
    43e4:	52                   	push   %edx
    43e5:	e8 46 09 00 00       	call   4d30 <str_decode@plt>
    43ea:	83 c4 10             	add    $0x10,%esp
    43ed:	83 f8 0a             	cmp    $0xa,%eax
    43f0:	75 d6                	jne    43c8 <sheet_get_row_width+0x78>
    43f2:	bb 01 00 00 00       	mov    $0x1,%ebx
    43f7:	eb d5                	jmp    43ce <sheet_get_row_width+0x7e>
    43f9:	8d b4 26 00 00 00 00 	lea    0x0(%esi,%eiz,1),%esi
    4400:	8b 4d d4             	mov    -0x2c(%ebp),%ecx
    4403:	bb 01 00 00 00       	mov    $0x1,%ebx
    4408:	41                   	inc    %ecx
    4409:	89 4d d4             	mov    %ecx,-0x2c(%ebp)
    440c:	e9 67 ff ff ff       	jmp    4378 <sheet_get_row_width+0x28>
    4411:	8d b4 26 00 00 00 00 	lea    0x0(%esi,%eiz,1),%esi
    4418:	83 c3 07             	add    $0x7,%ebx
    441b:	83 e3 f8             	and    $0xfffffff8,%ebx
    441e:	43                   	inc    %ebx
    441f:	e9 54 ff ff ff       	jmp    4378 <sheet_get_row_width+0x28>
    4424:	8d 74 26 00          	lea    0x0(%esi,%eiz,1),%esi
    4428:	83 c3 07             	add    $0x7,%ebx
    442b:	83 e3 f8             	and    $0xfffffff8,%ebx
    442e:	43                   	inc    %ebx
    442f:	eb 9d                	jmp    43ce <sheet_get_row_width+0x7e>
    4431:	8d b4 26 00 00 00 00 	lea    0x0(%esi,%eiz,1),%esi
    4438:	8b 45 10             	mov    0x10(%ebp),%eax
    443b:	89 18                	mov    %ebx,(%eax)
    443d:	8d 65 f4             	lea    -0xc(%ebp),%esp
    4440:	5b                   	pop    %ebx
    4441:	5e                   	pop    %esi
    4442:	5f                   	pop    %edi
    4443:	5d                   	pop    %ebp
    4444:	c3                   	ret    
    4445:	8d 74 26 00          	lea    0x0(%esi,%eiz,1),%esi
    4449:	8d bc 27 00 00 00 00 	lea    0x0(%edi,%eiz,1),%edi

00004450 <sheet_get_num_rows>:
    4450:	55                   	push   %ebp
    4451:	89 e5                	mov    %esp,%ebp
    4453:	53                   	push   %ebx
    4454:	8b 45 08             	mov    0x8(%ebp),%eax
    4457:	8b 58 04             	mov    0x4(%eax),%ebx
    445a:	85 db                	test   %ebx,%ebx
    445c:	74 21                	je     447f <sheet_get_num_rows+0x2f>
    445e:	8b 40 08             	mov    0x8(%eax),%eax
    4461:	ba 01 00 00 00       	mov    $0x1,%edx
    4466:	01 c3                	add    %eax,%ebx
    4468:	31 c9                	xor    %ecx,%ecx
    446a:	80 38 0a             	cmpb   $0xa,(%eax)
    446d:	0f 94 c1             	sete   %cl
    4470:	40                   	inc    %eax
    4471:	01 ca                	add    %ecx,%edx
    4473:	39 d8                	cmp    %ebx,%eax
    4475:	75 f1                	jne    4468 <sheet_get_num_rows+0x18>
    4477:	8b 45 0c             	mov    0xc(%ebp),%eax
    447a:	89 10                	mov    %edx,(%eax)
    447c:	5b                   	pop    %ebx
    447d:	5d                   	pop    %ebp
    447e:	c3                   	ret    
    447f:	ba 01 00 00 00       	mov    $0x1,%edx
    4484:	eb f1                	jmp    4477 <sheet_get_num_rows+0x27>
    4486:	8d 76 00             	lea    0x0(%esi),%esi
    4489:	8d bc 27 00 00 00 00 	lea    0x0(%edi,%eiz,1),%edi

00004490 <spt_get_coord>:
    4490:	55                   	push   %ebp
    4491:	89 e5                	mov    %esp,%ebp
    4493:	57                   	push   %edi
    4494:	56                   	push   %esi
    4495:	53                   	push   %ebx
    4496:	83 ec 2c             	sub    $0x2c,%esp
    4499:	bb 01 00 00 00       	mov    $0x1,%ebx
    449e:	8b 45 08             	mov    0x8(%ebp),%eax
    44a1:	c7 45 e4 00 00 00 00 	movl   $0x0,-0x1c(%ebp)
    44a8:	c7 45 d4 01 00 00 00 	movl   $0x1,-0x2c(%ebp)
    44af:	8d 7d e4             	lea    -0x1c(%ebp),%edi
    44b2:	8b 30                	mov    (%eax),%esi
    44b4:	31 c0                	xor    %eax,%eax
    44b6:	eb 09                	jmp    44c1 <spt_get_coord+0x31>
    44b8:	83 f8 09             	cmp    $0x9,%eax
    44bb:	74 3b                	je     44f8 <spt_get_coord+0x68>
    44bd:	43                   	inc    %ebx
    44be:	8b 45 e4             	mov    -0x1c(%ebp),%eax
    44c1:	8b 55 08             	mov    0x8(%ebp),%edx
    44c4:	39 42 04             	cmp    %eax,0x4(%edx)
    44c7:	76 3f                	jbe    4508 <spt_get_coord+0x78>
    44c9:	8b 0e                	mov    (%esi),%ecx
    44cb:	39 c1                	cmp    %eax,%ecx
    44cd:	76 39                	jbe    4508 <spt_get_coord+0x78>
    44cf:	52                   	push   %edx
    44d0:	51                   	push   %ecx
    44d1:	8b 4e 08             	mov    0x8(%esi),%ecx
    44d4:	57                   	push   %edi
    44d5:	51                   	push   %ecx
    44d6:	e8 55 08 00 00       	call   4d30 <str_decode@plt>
    44db:	83 c4 10             	add    $0x10,%esp
    44de:	83 f8 0a             	cmp    $0xa,%eax
    44e1:	75 d5                	jne    44b8 <spt_get_coord+0x28>
    44e3:	8b 45 d4             	mov    -0x2c(%ebp),%eax
    44e6:	bb 01 00 00 00       	mov    $0x1,%ebx
    44eb:	40                   	inc    %eax
    44ec:	89 45 d4             	mov    %eax,-0x2c(%ebp)
    44ef:	eb cd                	jmp    44be <spt_get_coord+0x2e>
    44f1:	8d b4 26 00 00 00 00 	lea    0x0(%esi,%eiz,1),%esi
    44f8:	83 c3 07             	add    $0x7,%ebx
    44fb:	83 e3 f8             	and    $0xfffffff8,%ebx
    44fe:	43                   	inc    %ebx
    44ff:	eb bd                	jmp    44be <spt_get_coord+0x2e>
    4501:	8d b4 26 00 00 00 00 	lea    0x0(%esi,%eiz,1),%esi
    4508:	8b 45 0c             	mov    0xc(%ebp),%eax
    450b:	8b 7d d4             	mov    -0x2c(%ebp),%edi
    450e:	89 38                	mov    %edi,(%eax)
    4510:	89 58 04             	mov    %ebx,0x4(%eax)
    4513:	8d 65 f4             	lea    -0xc(%ebp),%esp
    4516:	5b                   	pop    %ebx
    4517:	5e                   	pop    %esi
    4518:	5f                   	pop    %edi
    4519:	5d                   	pop    %ebp
    451a:	c3                   	ret    
    451b:	90                   	nop
    451c:	8d 74 26 00          	lea    0x0(%esi,%eiz,1),%esi

00004520 <spt_equal>:
    4520:	55                   	push   %ebp
    4521:	89 e5                	mov    %esp,%ebp
    4523:	8b 45 0c             	mov    0xc(%ebp),%eax
    4526:	8b 55 08             	mov    0x8(%ebp),%edx
    4529:	5d                   	pop    %ebp
    452a:	8b 40 04             	mov    0x4(%eax),%eax
    452d:	39 42 04             	cmp    %eax,0x4(%edx)
    4530:	0f 94 c0             	sete   %al
    4533:	c3                   	ret    
    4534:	8d b6 00 00 00 00    	lea    0x0(%esi),%esi
    453a:	8d bf 00 00 00 00    	lea    0x0(%edi),%edi

00004540 <spt_next_char>:
    4540:	55                   	push   %ebp
    4541:	89 e5                	mov    %esp,%ebp
    4543:	53                   	push   %ebx
    4544:	83 ec 08             	sub    $0x8,%esp
    4547:	8b 45 08             	mov    0x8(%ebp),%eax
    454a:	8b 5d 10             	mov    0x10(%ebp),%ebx
    454d:	8b 10                	mov    (%eax),%edx
    454f:	8b 48 08             	mov    0x8(%eax),%ecx
    4552:	52                   	push   %edx
    4553:	8d 55 0c             	lea    0xc(%ebp),%edx
    4556:	52                   	push   %edx
    4557:	51                   	push   %ecx
    4558:	e8 d3 07 00 00       	call   4d30 <str_decode@plt>
    455d:	83 c4 10             	add    $0x10,%esp
    4560:	85 db                	test   %ebx,%ebx
    4562:	74 0b                	je     456f <spt_next_char+0x2f>
    4564:	8b 55 08             	mov    0x8(%ebp),%edx
    4567:	8b 4d 0c             	mov    0xc(%ebp),%ecx
    456a:	89 13                	mov    %edx,(%ebx)
    456c:	89 4b 04             	mov    %ecx,0x4(%ebx)
    456f:	8b 5d fc             	mov    -0x4(%ebp),%ebx
    4572:	c9                   	leave  
    4573:	c3                   	ret    
    4574:	8d b6 00 00 00 00    	lea    0x0(%esi),%esi
    457a:	8d bf 00 00 00 00    	lea    0x0(%edi),%edi

00004580 <spt_prev_char>:
    4580:	55                   	push   %ebp
    4581:	89 e5                	mov    %esp,%ebp
    4583:	53                   	push   %ebx
    4584:	83 ec 08             	sub    $0x8,%esp
    4587:	8b 45 08             	mov    0x8(%ebp),%eax
    458a:	8b 5d 10             	mov    0x10(%ebp),%ebx
    458d:	8b 10                	mov    (%eax),%edx
    458f:	8b 48 08             	mov    0x8(%eax),%ecx
    4592:	52                   	push   %edx
    4593:	8d 55 0c             	lea    0xc(%ebp),%edx
    4596:	52                   	push   %edx
    4597:	51                   	push   %ecx
    4598:	e8 63 08 00 00       	call   4e00 <str_decode_reverse@plt>
    459d:	83 c4 10             	add    $0x10,%esp
    45a0:	85 db                	test   %ebx,%ebx
    45a2:	74 0b                	je     45af <spt_prev_char+0x2f>
    45a4:	8b 55 08             	mov    0x8(%ebp),%edx
    45a7:	8b 4d 0c             	mov    0xc(%ebp),%ecx
    45aa:	89 13                	mov    %edx,(%ebx)
    45ac:	89 4b 04             	mov    %ecx,0x4(%ebx)
    45af:	8b 5d fc             	mov    -0x4(%ebp),%ebx
    45b2:	c9                   	leave  
    45b3:	c3                   	ret    
    45b4:	8d b6 00 00 00 00    	lea    0x0(%esi),%esi
    45ba:	8d bf 00 00 00 00    	lea    0x0(%edi),%edi

000045c0 <sheet_place_tag>:
    45c0:	55                   	push   %ebp
    45c1:	89 e5                	mov    %esp,%ebp
    45c3:	8b 4d 0c             	mov    0xc(%ebp),%ecx
    45c6:	8b 45 10             	mov    0x10(%ebp),%eax
    45c9:	8b 55 08             	mov    0x8(%ebp),%edx
    45cc:	8b 49 04             	mov    0x4(%ecx),%ecx
    45cf:	89 50 08             	mov    %edx,0x8(%eax)
    45d2:	89 48 0c             	mov    %ecx,0xc(%eax)
    45d5:	8d 4a 0c             	lea    0xc(%edx),%ecx
    45d8:	89 48 04             	mov    %ecx,0x4(%eax)
    45db:	8b 4a 0c             	mov    0xc(%edx),%ecx
    45de:	89 08                	mov    %ecx,(%eax)
    45e0:	8b 4a 0c             	mov    0xc(%edx),%ecx
    45e3:	89 41 04             	mov    %eax,0x4(%ecx)
    45e6:	89 42 0c             	mov    %eax,0xc(%edx)
    45e9:	5d                   	pop    %ebp
    45ea:	c3                   	ret    
    45eb:	90                   	nop
    45ec:	8d 74 26 00          	lea    0x0(%esi,%eiz,1),%esi

000045f0 <sheet_remove_tag>:
    45f0:	55                   	push   %ebp
    45f1:	89 e5                	mov    %esp,%ebp
    45f3:	8b 45 0c             	mov    0xc(%ebp),%eax
    45f6:	8b 08                	mov    (%eax),%ecx
    45f8:	85 c9                	test   %ecx,%ecx
    45fa:	74 0e                	je     460a <sheet_remove_tag+0x1a>
    45fc:	8b 50 04             	mov    0x4(%eax),%edx
    45ff:	85 d2                	test   %edx,%edx
    4601:	74 07                	je     460a <sheet_remove_tag+0x1a>
    4603:	89 0a                	mov    %ecx,(%edx)
    4605:	8b 08                	mov    (%eax),%ecx
    4607:	89 51 04             	mov    %edx,0x4(%ecx)
    460a:	c7 00 00 00 00 00    	movl   $0x0,(%eax)
    4610:	c7 40 04 00 00 00 00 	movl   $0x0,0x4(%eax)
    4617:	5d                   	pop    %ebp
    4618:	c3                   	ret    
    4619:	8d b4 26 00 00 00 00 	lea    0x0(%esi,%eiz,1),%esi

00004620 <tag_get_pt>:
    4620:	55                   	push   %ebp
    4621:	89 e5                	mov    %esp,%ebp
    4623:	8b 55 08             	mov    0x8(%ebp),%edx
    4626:	8b 45 0c             	mov    0xc(%ebp),%eax
    4629:	8b 4a 0c             	mov    0xc(%edx),%ecx
    462c:	8b 52 08             	mov    0x8(%edx),%edx
    462f:	89 48 04             	mov    %ecx,0x4(%eax)
    4632:	89 10                	mov    %edx,(%eax)
    4634:	5d                   	pop    %ebp
    4635:	c3                   	ret    
    4636:	66 90                	xchg   %ax,%ax
    4638:	66 90                	xchg   %ax,%ax
    463a:	66 90                	xchg   %ax,%ax
    463c:	66 90                	xchg   %ax,%ax
    463e:	66 90                	xchg   %ax,%ax

00004640 <search_init>:
    4640:	55                   	push   %ebp
    4641:	89 e5                	mov    %esp,%ebp
    4643:	57                   	push   %edi
    4644:	56                   	push   %esi
    4645:	53                   	push   %ebx
    4646:	83 ec 24             	sub    $0x24,%esp
    4649:	8b 7d 20             	mov    0x20(%ebp),%edi
    464c:	6a 24                	push   $0x24
    464e:	6a 01                	push   $0x1
    4650:	e8 6b 07 00 00       	call   4dc0 <calloc@plt>
    4655:	83 c4 10             	add    $0x10,%esp
    4658:	89 c3                	mov    %eax,%ebx
    465a:	85 c0                	test   %eax,%eax
    465c:	0f 84 c9 00 00 00    	je     472b <search_init+0xeb>
    4662:	83 ec 0c             	sub    $0xc,%esp
    4665:	8b 75 08             	mov    0x8(%ebp),%esi
    4668:	56                   	push   %esi
    4669:	e8 82 06 00 00       	call   4cf0 <str_to_awstr@plt>
    466e:	83 c4 10             	add    $0x10,%esp
    4671:	89 c6                	mov    %eax,%esi
    4673:	85 c0                	test   %eax,%eax
    4675:	0f 84 12 01 00 00    	je     478d <search_init+0x14d>
    467b:	83 ec 0c             	sub    $0xc,%esp
    467e:	50                   	push   %eax
    467f:	e8 7c 06 00 00       	call   4d00 <wstr_length@plt>
    4684:	89 f9                	mov    %edi,%ecx
    4686:	83 c4 10             	add    $0x10,%esp
    4689:	89 43 04             	mov    %eax,0x4(%ebx)
    468c:	84 c9                	test   %cl,%cl
    468e:	0f 85 bc 00 00 00    	jne    4750 <search_init+0x110>
    4694:	8b 55 0c             	mov    0xc(%ebp),%edx
    4697:	89 33                	mov    %esi,(%ebx)
    4699:	89 53 10             	mov    %edx,0x10(%ebx)
    469c:	8b 55 10             	mov    0x10(%ebp),%edx
    469f:	89 53 14             	mov    %edx,0x14(%ebx)
    46a2:	8b 55 14             	mov    0x14(%ebp),%edx
    46a5:	89 53 18             	mov    %edx,0x18(%ebx)
    46a8:	8b 55 18             	mov    0x18(%ebp),%edx
    46ab:	89 53 1c             	mov    %edx,0x1c(%ebx)
    46ae:	8b 55 1c             	mov    0x1c(%ebp),%edx
    46b1:	89 53 20             	mov    %edx,0x20(%ebx)
    46b4:	51                   	push   %ecx
    46b5:	51                   	push   %ecx
    46b6:	6a 04                	push   $0x4
    46b8:	50                   	push   %eax
    46b9:	e8 02 07 00 00       	call   4dc0 <calloc@plt>
    46be:	83 c4 10             	add    $0x10,%esp
    46c1:	89 43 08             	mov    %eax,0x8(%ebx)
    46c4:	85 c0                	test   %eax,%eax
    46c6:	0f 84 d1 00 00 00    	je     479d <search_init+0x15d>
    46cc:	c7 43 0c 00 00 00 00 	movl   $0x0,0xc(%ebx)
    46d3:	c7 00 ff ff ff ff    	movl   $0xffffffff,(%eax)
    46d9:	c7 40 04 00 00 00 00 	movl   $0x0,0x4(%eax)
    46e0:	31 ff                	xor    %edi,%edi
    46e2:	be 02 00 00 00       	mov    $0x2,%esi
    46e7:	90                   	nop
    46e8:	3b 73 04             	cmp    0x4(%ebx),%esi
    46eb:	73 3e                	jae    472b <search_init+0xeb>
    46ed:	8b 03                	mov    (%ebx),%eax
    46ef:	8d 0c bd 00 00 00 00 	lea    0x0(,%edi,4),%ecx
    46f6:	83 ec 08             	sub    $0x8,%esp
    46f9:	8d 14 b5 fc ff ff ff 	lea    -0x4(,%esi,4),%edx
    4700:	ff 34 08             	pushl  (%eax,%ecx,1)
    4703:	8b 04 10             	mov    (%eax,%edx,1),%eax
    4706:	89 4d e4             	mov    %ecx,-0x1c(%ebp)
    4709:	50                   	push   %eax
    470a:	89 55 e0             	mov    %edx,-0x20(%ebp)
    470d:	ff 55 10             	call   *0x10(%ebp)
    4710:	83 c4 10             	add    $0x10,%esp
    4713:	8b 4d e4             	mov    -0x1c(%ebp),%ecx
    4716:	84 c0                	test   %al,%al
    4718:	74 1e                	je     4738 <search_init+0xf8>
    471a:	8b 43 08             	mov    0x8(%ebx),%eax
    471d:	8b 55 e0             	mov    -0x20(%ebp),%edx
    4720:	47                   	inc    %edi
    4721:	46                   	inc    %esi
    4722:	89 7c 10 04          	mov    %edi,0x4(%eax,%edx,1)
    4726:	3b 73 04             	cmp    0x4(%ebx),%esi
    4729:	72 c2                	jb     46ed <search_init+0xad>
    472b:	8d 65 f4             	lea    -0xc(%ebp),%esp
    472e:	89 d8                	mov    %ebx,%eax
    4730:	5b                   	pop    %ebx
    4731:	5e                   	pop    %esi
    4732:	5f                   	pop    %edi
    4733:	5d                   	pop    %ebp
    4734:	c3                   	ret    
    4735:	8d 76 00             	lea    0x0(%esi),%esi
    4738:	85 ff                	test   %edi,%edi
    473a:	74 0c                	je     4748 <search_init+0x108>
    473c:	8b 43 08             	mov    0x8(%ebx),%eax
    473f:	8b 3c 08             	mov    (%eax,%ecx,1),%edi
    4742:	eb a4                	jmp    46e8 <search_init+0xa8>
    4744:	8d 74 26 00          	lea    0x0(%esi,%eiz,1),%esi
    4748:	46                   	inc    %esi
    4749:	eb 9d                	jmp    46e8 <search_init+0xa8>
    474b:	90                   	nop
    474c:	8d 74 26 00          	lea    0x0(%esi,%eiz,1),%esi
    4750:	89 c7                	mov    %eax,%edi
    4752:	d1 ef                	shr    %edi
    4754:	0f 84 3a ff ff ff    	je     4694 <search_init+0x54>
    475a:	8d 3c be             	lea    (%esi,%edi,4),%edi
    475d:	8d 4c 86 fc          	lea    -0x4(%esi,%eax,4),%ecx
    4761:	89 45 e4             	mov    %eax,-0x1c(%ebp)
    4764:	89 f2                	mov    %esi,%edx
    4766:	89 f8                	mov    %edi,%eax
    4768:	89 5d e0             	mov    %ebx,-0x20(%ebp)
    476b:	90                   	nop
    476c:	8d 74 26 00          	lea    0x0(%esi,%eiz,1),%esi
    4770:	8b 19                	mov    (%ecx),%ebx
    4772:	8b 3a                	mov    (%edx),%edi
    4774:	89 1a                	mov    %ebx,(%edx)
    4776:	83 c2 04             	add    $0x4,%edx
    4779:	89 39                	mov    %edi,(%ecx)
    477b:	83 e9 04             	sub    $0x4,%ecx
    477e:	39 d0                	cmp    %edx,%eax
    4780:	75 ee                	jne    4770 <search_init+0x130>
    4782:	8b 45 e4             	mov    -0x1c(%ebp),%eax
    4785:	8b 5d e0             	mov    -0x20(%ebp),%ebx
    4788:	e9 07 ff ff ff       	jmp    4694 <search_init+0x54>
    478d:	83 ec 0c             	sub    $0xc,%esp
    4790:	53                   	push   %ebx
    4791:	31 db                	xor    %ebx,%ebx
    4793:	e8 68 07 00 00       	call   4f00 <free@plt>
    4798:	83 c4 10             	add    $0x10,%esp
    479b:	eb 8e                	jmp    472b <search_init+0xeb>
    479d:	83 ec 0c             	sub    $0xc,%esp
    47a0:	8b 13                	mov    (%ebx),%edx
    47a2:	52                   	push   %edx
    47a3:	e8 58 07 00 00       	call   4f00 <free@plt>
    47a8:	89 1c 24             	mov    %ebx,(%esp)
    47ab:	e8 50 07 00 00       	call   4f00 <free@plt>
    47b0:	31 db                	xor    %ebx,%ebx
    47b2:	83 c4 10             	add    $0x10,%esp
    47b5:	e9 71 ff ff ff       	jmp    472b <search_init+0xeb>
    47ba:	8d b6 00 00 00 00    	lea    0x0(%esi),%esi

000047c0 <search_next_match>:
    47c0:	55                   	push   %ebp
    47c1:	89 e5                	mov    %esp,%ebp
    47c3:	57                   	push   %edi
    47c4:	56                   	push   %esi
    47c5:	53                   	push   %ebx
    47c6:	83 ec 1c             	sub    $0x1c,%esp
    47c9:	8d 7d e4             	lea    -0x1c(%ebp),%edi
    47cc:	8b 5d 08             	mov    0x8(%ebp),%ebx
    47cf:	8b 73 14             	mov    0x14(%ebx),%esi
    47d2:	8d b6 00 00 00 00    	lea    0x0(%esi),%esi
    47d8:	50                   	push   %eax
    47d9:	50                   	push   %eax
    47da:	57                   	push   %edi
    47db:	8b 53 10             	mov    0x10(%ebx),%edx
    47de:	52                   	push   %edx
    47df:	ff 53 18             	call   *0x18(%ebx)
    47e2:	83 c4 10             	add    $0x10,%esp
    47e5:	85 c0                	test   %eax,%eax
    47e7:	0f 85 9b 00 00 00    	jne    4888 <search_next_match+0xc8>
    47ed:	8b 55 e4             	mov    -0x1c(%ebp),%edx
    47f0:	85 d2                	test   %edx,%edx
    47f2:	0f 8e 90 00 00 00    	jle    4888 <search_next_match+0xc8>
    47f8:	8b 43 0c             	mov    0xc(%ebx),%eax
    47fb:	85 c0                	test   %eax,%eax
    47fd:	75 1c                	jne    481b <search_next_match+0x5b>
    47ff:	eb 32                	jmp    4833 <search_next_match+0x73>
    4801:	8d b4 26 00 00 00 00 	lea    0x0(%esi,%eiz,1),%esi
    4808:	8b 53 0c             	mov    0xc(%ebx),%edx
    480b:	8b 43 08             	mov    0x8(%ebx),%eax
    480e:	8b 04 90             	mov    (%eax,%edx,4),%eax
    4811:	8b 55 e4             	mov    -0x1c(%ebp),%edx
    4814:	89 43 0c             	mov    %eax,0xc(%ebx)
    4817:	85 c0                	test   %eax,%eax
    4819:	74 18                	je     4833 <search_next_match+0x73>
    481b:	51                   	push   %ecx
    481c:	51                   	push   %ecx
    481d:	8b 0b                	mov    (%ebx),%ecx
    481f:	8b 04 81             	mov    (%ecx,%eax,4),%eax
    4822:	50                   	push   %eax
    4823:	52                   	push   %edx
    4824:	ff d6                	call   *%esi
    4826:	83 c4 10             	add    $0x10,%esp
    4829:	84 c0                	test   %al,%al
    482b:	74 db                	je     4808 <search_next_match+0x48>
    482d:	8b 43 0c             	mov    0xc(%ebx),%eax
    4830:	8b 55 e4             	mov    -0x1c(%ebp),%edx
    4833:	51                   	push   %ecx
    4834:	51                   	push   %ecx
    4835:	8b 0b                	mov    (%ebx),%ecx
    4837:	8b 04 81             	mov    (%ecx,%eax,4),%eax
    483a:	50                   	push   %eax
    483b:	52                   	push   %edx
    483c:	ff d6                	call   *%esi
    483e:	83 c4 10             	add    $0x10,%esp
    4841:	84 c0                	test   %al,%al
    4843:	74 93                	je     47d8 <search_next_match+0x18>
    4845:	8b 43 0c             	mov    0xc(%ebx),%eax
    4848:	40                   	inc    %eax
    4849:	89 43 0c             	mov    %eax,0xc(%ebx)
    484c:	3b 43 04             	cmp    0x4(%ebx),%eax
    484f:	75 87                	jne    47d8 <search_next_match+0x18>
    4851:	8b 53 08             	mov    0x8(%ebx),%edx
    4854:	8b 04 82             	mov    (%edx,%eax,4),%eax
    4857:	89 43 0c             	mov    %eax,0xc(%ebx)
    485a:	8b 45 0c             	mov    0xc(%ebp),%eax
    485d:	83 c0 08             	add    $0x8,%eax
    4860:	51                   	push   %ecx
    4861:	51                   	push   %ecx
    4862:	50                   	push   %eax
    4863:	8b 73 10             	mov    0x10(%ebx),%esi
    4866:	56                   	push   %esi
    4867:	ff 53 1c             	call   *0x1c(%ebx)
    486a:	83 c4 10             	add    $0x10,%esp
    486d:	85 c0                	test   %eax,%eax
    486f:	75 2e                	jne    489f <search_next_match+0xdf>
    4871:	8b 7d 0c             	mov    0xc(%ebp),%edi
    4874:	8b 73 04             	mov    0x4(%ebx),%esi
    4877:	89 37                	mov    %esi,(%edi)
    4879:	c7 47 04 00 00 00 00 	movl   $0x0,0x4(%edi)
    4880:	eb 1d                	jmp    489f <search_next_match+0xdf>
    4882:	8d b6 00 00 00 00    	lea    0x0(%esi),%esi
    4888:	8b 7d 0c             	mov    0xc(%ebp),%edi
    488b:	c7 47 08 00 00 00 00 	movl   $0x0,0x8(%edi)
    4892:	c7 07 00 00 00 00    	movl   $0x0,(%edi)
    4898:	c7 47 04 00 00 00 00 	movl   $0x0,0x4(%edi)
    489f:	8d 65 f4             	lea    -0xc(%ebp),%esp
    48a2:	5b                   	pop    %ebx
    48a3:	5e                   	pop    %esi
    48a4:	5f                   	pop    %edi
    48a5:	5d                   	pop    %ebp
    48a6:	c3                   	ret    
    48a7:	89 f6                	mov    %esi,%esi
    48a9:	8d bc 27 00 00 00 00 	lea    0x0(%edi,%eiz,1),%edi

000048b0 <search_fini>:
    48b0:	55                   	push   %ebp
    48b1:	89 e5                	mov    %esp,%ebp
    48b3:	53                   	push   %ebx
    48b4:	83 ec 10             	sub    $0x10,%esp
    48b7:	8b 5d 08             	mov    0x8(%ebp),%ebx
    48ba:	8b 03                	mov    (%ebx),%eax
    48bc:	50                   	push   %eax
    48bd:	e8 3e 06 00 00       	call   4f00 <free@plt>
    48c2:	8b 43 08             	mov    0x8(%ebx),%eax
    48c5:	83 c4 10             	add    $0x10,%esp
    48c8:	8b 5d fc             	mov    -0x4(%ebp),%ebx
    48cb:	89 45 08             	mov    %eax,0x8(%ebp)
    48ce:	c9                   	leave  
    48cf:	e9 2c 06 00 00       	jmp    4f00 <free@plt>
    48d4:	8d b6 00 00 00 00    	lea    0x0(%esi),%esi
    48da:	8d bf 00 00 00 00    	lea    0x0(%edi),%edi

000048e0 <char_exact_equals>:
    48e0:	55                   	push   %ebp
    48e1:	89 e5                	mov    %esp,%ebp
    48e3:	8b 45 0c             	mov    0xc(%ebp),%eax
    48e6:	39 45 08             	cmp    %eax,0x8(%ebp)
    48e9:	5d                   	pop    %ebp
    48ea:	0f 94 c0             	sete   %al
    48ed:	c3                   	ret    
    48ee:	20 25 2a 73 20 00    	and    %ah,0x20732a
    48f4:	25 6c 63 00 3c       	and    $0x3c00636c,%eax
    48f9:	75 6e                	jne    4969 <char_exact_equals+0x89>
    48fb:	6e                   	outsb  %ds:(%esi),(%dx)
    48fc:	61                   	popa   
    48fd:	6d                   	insl   (%dx),%es:(%edi)
    48fe:	65 64 3e 00 25 2a 73 	gs fs add %ah,%ds:0x6500732a
    4905:	00 65 
    4907:	64 69 74 2e 63 00 64 	imul   $0x74616400,%fs:0x63(%esi,%ebp,1),%esi
    490e:	61 74 
    4910:	61                   	popa   
    4911:	20 21                	and    %ah,(%ecx)
    4913:	3d 20 4e 55 4c       	cmp    $0x4c554e20,%eax
    4918:	4c                   	dec    %esp
    4919:	00 72 65             	add    %dh,0x65(%edx)
    491c:	74 20                	je     493e <char_exact_equals+0x5e>
    491e:	21 3d 20 4e 55 4c    	and    %edi,0x4c554e20
    4924:	4c                   	dec    %esp
    4925:	00 6d 61             	add    %ch,0x61(%ebp)
    4928:	72 6b                	jb     4995 <char_exact_equals+0xb5>
    492a:	20 21                	and    %ah,(%ecx)
    492c:	3d 20 4e 55 4c       	cmp    $0x4c554e20,%eax
    4931:	4c                   	dec    %esp
    4932:	00 43 6f             	add    %al,0x6f(%ebx)
    4935:	70 79                	jo     49b0 <char_exact_equals+0xd0>
    4937:	69 6e 67 20 74 6f 20 	imul   $0x206f7420,0x67(%esi),%ebp
    493e:	63 6c 69 70          	arpl   %bp,0x70(%ecx,%ebp,2)
    4942:	62 6f 61             	bound  %ebp,0x61(%edi)
    4945:	72 64                	jb     49ab <char_exact_equals+0xcb>
    4947:	20 66 61             	and    %ah,0x61(%esi)
    494a:	69 6c 65 64 21 00 25 	imul   $0x73250021,0x64(%ebp,%eiz,2),%ebp
    4951:	73 
    4952:	3a 20                	cmp    (%eax),%ah
    4954:	25 73 00 53 61       	and    $0x61530073,%eax
    4959:	76 69                	jbe    49c4 <char_exact_equals+0xe4>
    495b:	6e                   	outsb  %ds:(%esi),(%dx)
    495c:	67 2e 2e 2e 00 77 74 	cs cs add %dh,%cs:0x74(%bx)
    4963:	00 45 72             	add    %al,0x72(%ebp)
    4966:	72 6f                	jb     49d7 <char_exact_equals+0xf7>
    4968:	72 20                	jb     498a <char_exact_equals+0xaa>
    496a:	6f                   	outsl  %ds:(%esi),(%dx)
    496b:	70 65                	jo     49d2 <char_exact_equals+0xf2>
    496d:	6e                   	outsb  %ds:(%esi),(%dx)
    496e:	69 6e 67 20 66 69 6c 	imul   $0x6c696620,0x67(%esi),%ebp
    4975:	65 21 00             	and    %eax,%gs:(%eax)
    4978:	45                   	inc    %ebp
    4979:	72 72                	jb     49ed <char_exact_equals+0x10d>
    497b:	6f                   	outsl  %ds:(%esi),(%dx)
    497c:	72 20                	jb     499e <char_exact_equals+0xbe>
    497e:	77 72                	ja     49f2 <char_exact_equals+0x112>
    4980:	69 74 69 6e 67 20 64 	imul   $0x61642067,0x6e(%ecx,%ebp,2),%esi
    4987:	61 
    4988:	74 61                	je     49eb <char_exact_equals+0x10b>
    498a:	21 00                	and    %eax,(%eax)
    498c:	46                   	inc    %esi
    498d:	69 6c 65 20 73 61 76 	imul   $0x65766173,0x20(%ebp,%eiz,2),%ebp
    4994:	65 
    4995:	64 2e 00 53 65       	fs add %dl,%cs:0x65(%ebx)
    499a:	61                   	popa   
    499b:	72 63                	jb     4a00 <char_exact_equals+0x120>
    499d:	68 69 6e 67 2e       	push   $0x2e676e69
    49a2:	2e 2e 00 46 61       	cs add %al,%cs:0x61(%esi)
    49a7:	69 6c 65 64 20 69 6e 	imul   $0x696e6920,0x64(%ebp,%eiz,2),%ebp
    49ae:	69 
    49af:	74 69                	je     4a1a <char_exact_equals+0x13a>
    49b1:	61                   	popa   
    49b2:	6c                   	insb   (%dx),%es:(%edi)
    49b3:	69 7a 69 6e 67 20 73 	imul   $0x7320676e,0x69(%edx),%edi
    49ba:	65 61                	gs popa 
    49bc:	72 63                	jb     4a21 <char_exact_equals+0x141>
    49be:	68 2e 00 46 61       	push   $0x6146002e
    49c3:	69 6c 65 64 20 73 65 	imul   $0x61657320,0x64(%ebp,%eiz,2),%ebp
    49ca:	61 
    49cb:	72 63                	jb     4a30 <char_exact_equals+0x150>
    49cd:	68 69 6e 67 2e       	push   $0x2e676e69
    49d2:	00 4d 61             	add    %cl,0x61(%ebp)
    49d5:	74 63                	je     4a3a <char_exact_equals+0x15a>
    49d7:	68 20 66 6f 75       	push   $0x756f6620
    49dc:	6e                   	outsb  %ds:(%esi),(%dx)
    49dd:	64 2e 00 6d 61       	fs add %ch,%cs:0x61(%ebp)
    49e2:	74 63                	je     4a47 <char_exact_equals+0x167>
    49e4:	68 2e 65 6e 64       	push   $0x646e652e
    49e9:	20 21                	and    %ah,(%ecx)
    49eb:	3d 20 4e 55 4c       	cmp    $0x4c554e20,%eax
    49f0:	4c                   	dec    %esp
    49f1:	00 4e 6f             	add    %cl,0x6f(%esi)
    49f4:	74 20                	je     4a16 <char_exact_equals+0x136>
    49f6:	66 6f                	outsw  %ds:(%esi),(%dx)
    49f8:	75 6e                	jne    4a68 <char_exact_equals+0x188>
    49fa:	64 2e 00 4f 75       	fs add %cl,%cs:0x75(%edi)
    49ff:	74 20                	je     4a21 <char_exact_equals+0x141>
    4a01:	6f                   	outsl  %ds:(%esi),(%dx)
    4a02:	66 20 6d 65          	data16 and %ch,0x65(%ebp)
    4a06:	6d                   	insl   (%dx),%es:(%edi)
    4a07:	6f                   	outsl  %ds:(%esi),(%dx)
    4a08:	72 79                	jb     4a83 <char_exact_equals+0x1a3>
    4a0a:	2e 0a 00             	or     %cs:(%eax),%al
    4a0d:	49                   	dec    %ecx
    4a0e:	6e                   	outsb  %ds:(%esi),(%dx)
    4a0f:	76 61                	jbe    4a72 <char_exact_equals+0x192>
    4a11:	6c                   	insb   (%dx),%es:(%edi)
    4a12:	69 64 20 61 72 67 75 	imul   $0x6d756772,0x61(%eax,%eiz,1),%esp
    4a19:	6d 
    4a1a:	65 6e                	outsb  %gs:(%esi),(%dx)
    4a1c:	74 73                	je     4a91 <char_exact_equals+0x1b1>
    4a1e:	2e 0a 00             	or     %cs:(%eax),%al
    4a21:	72 74                	jb     4a97 <char_exact_equals+0x1b7>
    4a23:	00 53 61             	add    %dl,0x61(%ebx)
    4a26:	76 65                	jbe    4a8d <char_exact_equals+0x1ad>
    4a28:	20 41 73             	and    %al,0x73(%ecx)
    4a2b:	00 53 61             	add    %dl,0x61(%ebx)
    4a2e:	76 65                	jbe    4a95 <char_exact_equals+0x1b5>
    4a30:	20 63 61             	and    %ah,0x61(%ebx)
    4a33:	6e                   	outsb  %ds:(%esi),(%dx)
    4a34:	63 65 6c             	arpl   %sp,0x6c(%ebp)
    4a37:	6c                   	insb   (%dx),%es:(%edi)
    4a38:	65 64 2e 00 47 6f    	gs fs add %al,%cs:0x6f(%edi)
    4a3e:	20 74 6f 20          	and    %dh,0x20(%edi,%ebp,2)
    4a42:	6c                   	insb   (%dx),%es:(%edi)
