
ohci:     file format elf32-i386


Disassembly of section .init:

000010f4 <__entry>:
    10f4:	66 8c d0             	mov    %ss,%ax
    10f7:	8e d8                	mov    %eax,%ds
    10f9:	8e c0                	mov    %eax,%es
    10fb:	8e e0                	mov    %eax,%fs
    10fd:	b8 01 00 00 00       	mov    $0x1,%eax
    1102:	0f a2                	cpuid  
    1104:	0f ba e2 0b          	bt     $0xb,%edx
    1108:	73 0c                	jae    1116 <__entry+0x22>
    110a:	8d 05 c0 8a 01 00    	lea    0x18ac0,%eax
    1110:	c7 00 50 65 01 00    	movl   $0x16550,(%eax)
    1116:	6a 00                	push   $0x0
    1118:	6a 00                	push   $0x0
    111a:	89 e5                	mov    %esp,%ebp
    111c:	57                   	push   %edi
    111d:	e8 4e 4e 01 00       	call   15f70 <__main@plt>

Disassembly of section .text:

00001140 <endpoint_list_init>:
    1140:	55                   	push   %ebp
    1141:	89 e5                	mov    %esp,%ebp
    1143:	57                   	push   %edi
    1144:	56                   	push   %esi
    1145:	53                   	push   %ebx
    1146:	83 ec 1c             	sub    $0x1c,%esp
    1149:	8b 5d 08             	mov    0x8(%ebp),%ebx
    114c:	8b 75 0c             	mov    0xc(%ebp),%esi
    114f:	85 db                	test   %ebx,%ebx
    1151:	0f 84 d1 00 00 00    	je     1228 <endpoint_list_init+0xe8>
    1157:	89 73 18             	mov    %esi,0x18(%ebx)
    115a:	8d 7d e4             	lea    -0x1c(%ebp),%edi
    115d:	50                   	push   %eax
    115e:	50                   	push   %eax
    115f:	8d 45 e0             	lea    -0x20(%ebp),%eax
    1162:	57                   	push   %edi
    1163:	c7 45 e4 ff ff ff ff 	movl   $0xffffffff,-0x1c(%ebp)
    116a:	50                   	push   %eax
    116b:	6a 00                	push   $0x0
    116d:	6a 03                	push   $0x3
    116f:	6a 00                	push   $0x0
    1171:	68 00 10 00 00       	push   $0x1000
    1176:	e8 15 52 01 00       	call   16390 <dmamem_map_anonymous@plt>
    117b:	83 c4 20             	add    $0x20,%esp
    117e:	85 c0                	test   %eax,%eax
    1180:	0f 85 82 00 00 00    	jne    1208 <endpoint_list_init+0xc8>
    1186:	50                   	push   %eax
    1187:	8b 45 e4             	mov    -0x1c(%ebp),%eax
    118a:	68 00 10 00 00       	push   $0x1000
    118f:	6a 05                	push   $0x5
    1191:	50                   	push   %eax
    1192:	e8 c9 51 01 00       	call   16360 <memset@plt>
    1197:	8b 45 e4             	mov    -0x1c(%ebp),%eax
    119a:	83 c4 10             	add    $0x10,%esp
    119d:	89 43 10             	mov    %eax,0x10(%ebx)
    11a0:	85 c0                	test   %eax,%eax
    11a2:	74 6b                	je     120f <endpoint_list_init+0xcf>
    11a4:	52                   	push   %edx
    11a5:	52                   	push   %edx
    11a6:	57                   	push   %edi
    11a7:	50                   	push   %eax
    11a8:	e8 53 51 01 00       	call   16300 <as_get_physical_mapping@plt>
    11ad:	83 c4 10             	add    $0x10,%esp
    11b0:	31 d2                	xor    %edx,%edx
    11b2:	85 c0                	test   %eax,%eax
    11b4:	74 4a                	je     1200 <endpoint_list_init+0xc0>
    11b6:	89 53 14             	mov    %edx,0x14(%ebx)
    11b9:	50                   	push   %eax
    11ba:	50                   	push   %eax
    11bb:	52                   	push   %edx
    11bc:	8b 53 10             	mov    0x10(%ebx),%edx
    11bf:	52                   	push   %edx
    11c0:	56                   	push   %esi
    11c1:	68 64 22 01 00       	push   $0x12264
    11c6:	6a 05                	push   $0x5
    11c8:	6a ff                	push   $0xffffffff
    11ca:	e8 b1 4f 01 00       	call   16180 <log_msg@plt>
    11cf:	83 c4 1c             	add    $0x1c,%esp
    11d2:	8b 4b 10             	mov    0x10(%ebx),%ecx
    11d5:	6a 00                	push   $0x0
    11d7:	6a 00                	push   $0x0
    11d9:	51                   	push   %ecx
    11da:	e8 b1 32 00 00       	call   4490 <ed_init>
    11df:	8d 43 1c             	lea    0x1c(%ebx),%eax
    11e2:	89 43 1c             	mov    %eax,0x1c(%ebx)
    11e5:	89 43 20             	mov    %eax,0x20(%ebx)
    11e8:	89 1c 24             	mov    %ebx,(%esp)
    11eb:	e8 b0 50 01 00       	call   162a0 <fibril_mutex_initialize@plt>
    11f0:	83 c4 10             	add    $0x10,%esp
    11f3:	31 c0                	xor    %eax,%eax
    11f5:	8d 65 f4             	lea    -0xc(%ebp),%esp
    11f8:	5b                   	pop    %ebx
    11f9:	5e                   	pop    %esi
    11fa:	5f                   	pop    %edi
    11fb:	5d                   	pop    %ebp
    11fc:	c3                   	ret    
    11fd:	8d 76 00             	lea    0x0(%esi),%esi
    1200:	8b 55 e4             	mov    -0x1c(%ebp),%edx
    1203:	eb b1                	jmp    11b6 <endpoint_list_init+0x76>
    1205:	8d 76 00             	lea    0x0(%esi),%esi
    1208:	c7 43 10 00 00 00 00 	movl   $0x0,0x10(%ebx)
    120f:	51                   	push   %ecx
    1210:	68 44 22 01 00       	push   $0x12244
    1215:	6a 01                	push   $0x1
    1217:	6a ff                	push   $0xffffffff
    1219:	e8 62 4f 01 00       	call   16180 <log_msg@plt>
    121e:	83 c4 10             	add    $0x10,%esp
    1221:	b8 fe ff ff ff       	mov    $0xfffffffe,%eax
    1226:	eb cd                	jmp    11f5 <endpoint_list_init+0xb5>
    1228:	50                   	push   %eax
    1229:	6a 37                	push   $0x37
    122b:	68 fe 21 01 00       	push   $0x121fe
    1230:	68 0e 22 01 00       	push   $0x1220e
    1235:	e8 96 4f 01 00       	call   161d0 <assert_abort@plt>
    123a:	8d b6 00 00 00 00    	lea    0x0(%esi),%esi

00001240 <endpoint_list_set_next>:
    1240:	55                   	push   %ebp
    1241:	89 e5                	mov    %esp,%ebp
    1243:	53                   	push   %ebx
    1244:	83 ec 14             	sub    $0x14,%esp
    1247:	8b 45 08             	mov    0x8(%ebp),%eax
    124a:	8b 55 0c             	mov    0xc(%ebp),%edx
    124d:	85 c0                	test   %eax,%eax
    124f:	0f 84 9e 00 00 00    	je     12f3 <endpoint_list_set_next+0xb3>
    1255:	85 d2                	test   %edx,%edx
    1257:	0f 84 84 00 00 00    	je     12e1 <endpoint_list_set_next+0xa1>
    125d:	8b 58 10             	mov    0x10(%eax),%ebx
    1260:	8b 52 10             	mov    0x10(%edx),%edx
    1263:	85 db                	test   %ebx,%ebx
    1265:	74 65                	je     12cc <endpoint_list_set_next+0x8c>
    1267:	85 d2                	test   %edx,%edx
    1269:	74 4c                	je     12b7 <endpoint_list_set_next+0x77>
    126b:	8d 45 f4             	lea    -0xc(%ebp),%eax
    126e:	51                   	push   %ecx
    126f:	51                   	push   %ecx
    1270:	50                   	push   %eax
    1271:	52                   	push   %edx
    1272:	e8 89 50 01 00       	call   16300 <as_get_physical_mapping@plt>
    1277:	83 c4 10             	add    $0x10,%esp
    127a:	85 c0                	test   %eax,%eax
    127c:	75 1a                	jne    1298 <endpoint_list_set_next+0x58>
    127e:	8b 55 f4             	mov    -0xc(%ebp),%edx
    1281:	89 d0                	mov    %edx,%eax
    1283:	83 e0 f0             	and    $0xfffffff0,%eax
    1286:	39 c2                	cmp    %eax,%edx
    1288:	75 18                	jne    12a2 <endpoint_list_set_next+0x62>
    128a:	89 43 0c             	mov    %eax,0xc(%ebx)
    128d:	8b 5d fc             	mov    -0x4(%ebp),%ebx
    1290:	c9                   	leave  
    1291:	c3                   	ret    
    1292:	8d b6 00 00 00 00    	lea    0x0(%esi),%esi
    1298:	31 c0                	xor    %eax,%eax
    129a:	89 43 0c             	mov    %eax,0xc(%ebx)
    129d:	8b 5d fc             	mov    -0x4(%ebp),%ebx
    12a0:	c9                   	leave  
    12a1:	c3                   	ret    
    12a2:	50                   	push   %eax
    12a3:	68 b0 00 00 00       	push   $0xb0
    12a8:	68 94 22 01 00       	push   $0x12294
    12ad:	68 b4 22 01 00       	push   $0x122b4
    12b2:	e8 19 4f 01 00       	call   161d0 <assert_abort@plt>
    12b7:	53                   	push   %ebx
    12b8:	68 ae 00 00 00       	push   $0xae
    12bd:	68 94 22 01 00       	push   $0x12294
    12c2:	68 17 22 01 00       	push   $0x12217
    12c7:	e8 04 4f 01 00       	call   161d0 <assert_abort@plt>
    12cc:	50                   	push   %eax
    12cd:	68 ad 00 00 00       	push   $0xad
    12d2:	68 94 22 01 00       	push   $0x12294
    12d7:	68 0e 22 01 00       	push   $0x1220e
    12dc:	e8 ef 4e 01 00       	call   161d0 <assert_abort@plt>
    12e1:	50                   	push   %eax
    12e2:	6a 53                	push   $0x53
    12e4:	68 fe 21 01 00       	push   $0x121fe
    12e9:	68 17 22 01 00       	push   $0x12217
    12ee:	e8 dd 4e 01 00       	call   161d0 <assert_abort@plt>
    12f3:	50                   	push   %eax
    12f4:	6a 52                	push   $0x52
    12f6:	68 fe 21 01 00       	push   $0x121fe
    12fb:	68 0e 22 01 00       	push   $0x1220e
    1300:	e8 cb 4e 01 00       	call   161d0 <assert_abort@plt>
    1305:	8d 74 26 00          	lea    0x0(%esi,%eiz,1),%esi
    1309:	8d bc 27 00 00 00 00 	lea    0x0(%edi,%eiz,1),%edi

00001310 <endpoint_list_add_ep>:
    1310:	55                   	push   %ebp
    1311:	89 e5                	mov    %esp,%ebp
    1313:	57                   	push   %edi
    1314:	56                   	push   %esi
    1315:	53                   	push   %ebx
    1316:	83 ec 2c             	sub    $0x2c,%esp
    1319:	8b 5d 08             	mov    0x8(%ebp),%ebx
    131c:	8b 75 0c             	mov    0xc(%ebp),%esi
    131f:	85 db                	test   %ebx,%ebx
    1321:	0f 84 56 01 00 00    	je     147d <endpoint_list_add_ep+0x16d>
    1327:	85 f6                	test   %esi,%esi
    1329:	0f 84 3c 01 00 00    	je     146b <endpoint_list_add_ep+0x15b>
    132f:	83 ec 0c             	sub    $0xc,%esp
    1332:	8b 7b 18             	mov    0x18(%ebx),%edi
    1335:	56                   	push   %esi
    1336:	57                   	push   %edi
    1337:	68 e8 22 01 00       	push   $0x122e8
    133c:	6a 05                	push   $0x5
    133e:	6a ff                	push   $0xffffffff
    1340:	e8 3b 4e 01 00       	call   16180 <log_msg@plt>
    1345:	83 c4 14             	add    $0x14,%esp
    1348:	53                   	push   %ebx
    1349:	e8 52 52 01 00       	call   165a0 <fibril_mutex_lock@plt>
    134e:	8d 53 1c             	lea    0x1c(%ebx),%edx
    1351:	83 c4 10             	add    $0x10,%esp
    1354:	3b 53 20             	cmp    0x20(%ebx),%edx
    1357:	0f 84 ab 00 00 00    	je     1408 <endpoint_list_add_ep+0xf8>
    135d:	8b 43 1c             	mov    0x1c(%ebx),%eax
    1360:	39 d0                	cmp    %edx,%eax
    1362:	0f 84 b0 00 00 00    	je     1418 <endpoint_list_add_ep+0x108>
    1368:	83 e8 08             	sub    $0x8,%eax
    136b:	8b 38                	mov    (%eax),%edi
    136d:	8b 06                	mov    (%esi),%eax
    136f:	8b 4f 0c             	mov    0xc(%edi),%ecx
    1372:	89 48 0c             	mov    %ecx,0xc(%eax)
    1375:	8b 06                	mov    (%esi),%eax
    1377:	85 c0                	test   %eax,%eax
    1379:	0f 84 d7 00 00 00    	je     1456 <endpoint_list_add_ep+0x146>
    137f:	8d 4d e4             	lea    -0x1c(%ebp),%ecx
    1382:	89 55 d4             	mov    %edx,-0x2c(%ebp)
    1385:	52                   	push   %edx
    1386:	52                   	push   %edx
    1387:	51                   	push   %ecx
    1388:	50                   	push   %eax
    1389:	e8 72 4f 01 00       	call   16300 <as_get_physical_mapping@plt>
    138e:	83 c4 10             	add    $0x10,%esp
    1391:	8b 55 d4             	mov    -0x2c(%ebp),%edx
    1394:	85 c0                	test   %eax,%eax
    1396:	75 68                	jne    1400 <endpoint_list_add_ep+0xf0>
    1398:	8b 4d e4             	mov    -0x1c(%ebp),%ecx
    139b:	89 c8                	mov    %ecx,%eax
    139d:	83 e0 f0             	and    $0xfffffff0,%eax
    13a0:	39 c1                	cmp    %eax,%ecx
    13a2:	0f 85 e7 00 00 00    	jne    148f <endpoint_list_add_ep+0x17f>
    13a8:	89 47 0c             	mov    %eax,0xc(%edi)
    13ab:	8b 4b 1c             	mov    0x1c(%ebx),%ecx
    13ae:	8d 46 08             	lea    0x8(%esi),%eax
    13b1:	89 4e 08             	mov    %ecx,0x8(%esi)
    13b4:	89 56 0c             	mov    %edx,0xc(%esi)
    13b7:	8b 4b 1c             	mov    0x1c(%ebx),%ecx
    13ba:	89 41 04             	mov    %eax,0x4(%ecx)
    13bd:	89 43 1c             	mov    %eax,0x1c(%ebx)
    13c0:	8b 43 20             	mov    0x20(%ebx),%eax
    13c3:	39 c2                	cmp    %eax,%edx
    13c5:	74 49                	je     1410 <endpoint_list_add_ep+0x100>
    13c7:	83 e8 08             	sub    $0x8,%eax
    13ca:	51                   	push   %ecx
    13cb:	8b 10                	mov    (%eax),%edx
    13cd:	8b 4b 18             	mov    0x18(%ebx),%ecx
    13d0:	52                   	push   %edx
    13d1:	50                   	push   %eax
    13d2:	51                   	push   %ecx
    13d3:	56                   	push   %esi
    13d4:	68 08 23 01 00       	push   $0x12308
    13d9:	6a 04                	push   $0x4
    13db:	6a ff                	push   $0xffffffff
    13dd:	e8 9e 4d 01 00       	call   16180 <log_msg@plt>
    13e2:	83 c4 20             	add    $0x20,%esp
    13e5:	3b 7b 10             	cmp    0x10(%ebx),%edi
    13e8:	74 3e                	je     1428 <endpoint_list_add_ep+0x118>
    13ea:	83 ec 0c             	sub    $0xc,%esp
    13ed:	53                   	push   %ebx
    13ee:	e8 7d 4e 01 00       	call   16270 <fibril_mutex_unlock@plt>
    13f3:	8d 65 f4             	lea    -0xc(%ebp),%esp
    13f6:	5b                   	pop    %ebx
    13f7:	5e                   	pop    %esi
    13f8:	5f                   	pop    %edi
    13f9:	5d                   	pop    %ebp
    13fa:	c3                   	ret    
    13fb:	90                   	nop
    13fc:	8d 74 26 00          	lea    0x0(%esi,%eiz,1),%esi
    1400:	31 c0                	xor    %eax,%eax
    1402:	eb a4                	jmp    13a8 <endpoint_list_add_ep+0x98>
    1404:	8d 74 26 00          	lea    0x0(%esi,%eiz,1),%esi
    1408:	8b 7b 10             	mov    0x10(%ebx),%edi
    140b:	e9 5d ff ff ff       	jmp    136d <endpoint_list_add_ep+0x5d>
    1410:	b8 f8 ff ff ff       	mov    $0xfffffff8,%eax
    1415:	eb b3                	jmp    13ca <endpoint_list_add_ep+0xba>
    1417:	90                   	nop
    1418:	b8 f8 ff ff ff       	mov    $0xfffffff8,%eax
    141d:	e9 49 ff ff ff       	jmp    136b <endpoint_list_add_ep+0x5b>
    1422:	8d b6 00 00 00 00    	lea    0x0(%esi),%esi
    1428:	83 ec 08             	sub    $0x8,%esp
    142b:	8b 77 0c             	mov    0xc(%edi),%esi
    142e:	8b 4f 08             	mov    0x8(%edi),%ecx
    1431:	8b 57 04             	mov    0x4(%edi),%edx
    1434:	8b 07                	mov    (%edi),%eax
    1436:	56                   	push   %esi
    1437:	51                   	push   %ecx
    1438:	52                   	push   %edx
    1439:	50                   	push   %eax
    143a:	8b 53 18             	mov    0x18(%ebx),%edx
    143d:	8b 43 14             	mov    0x14(%ebx),%eax
    1440:	50                   	push   %eax
    1441:	57                   	push   %edi
    1442:	52                   	push   %edx
    1443:	68 38 23 01 00       	push   $0x12338
    1448:	6a 05                	push   $0x5
    144a:	6a ff                	push   $0xffffffff
    144c:	e8 2f 4d 01 00       	call   16180 <log_msg@plt>
    1451:	83 c4 30             	add    $0x30,%esp
    1454:	eb 94                	jmp    13ea <endpoint_list_add_ep+0xda>
    1456:	51                   	push   %ecx
    1457:	68 ae 00 00 00       	push   $0xae
    145c:	68 94 22 01 00       	push   $0x12294
    1461:	68 17 22 01 00       	push   $0x12217
    1466:	e8 65 4d 01 00       	call   161d0 <assert_abort@plt>
    146b:	50                   	push   %eax
    146c:	6a 61                	push   $0x61
    146e:	68 fe 21 01 00       	push   $0x121fe
    1473:	68 4a 25 01 00       	push   $0x1254a
    1478:	e8 53 4d 01 00       	call   161d0 <assert_abort@plt>
    147d:	50                   	push   %eax
    147e:	6a 60                	push   $0x60
    1480:	68 fe 21 01 00       	push   $0x121fe
    1485:	68 0e 22 01 00       	push   $0x1220e
    148a:	e8 41 4d 01 00       	call   161d0 <assert_abort@plt>
    148f:	53                   	push   %ebx
    1490:	68 b0 00 00 00       	push   $0xb0
    1495:	68 94 22 01 00       	push   $0x12294
    149a:	68 b4 22 01 00       	push   $0x122b4
    149f:	e8 2c 4d 01 00       	call   161d0 <assert_abort@plt>
    14a4:	8d b6 00 00 00 00    	lea    0x0(%esi),%esi
    14aa:	8d bf 00 00 00 00    	lea    0x0(%edi),%edi

000014b0 <endpoint_list_remove_ep>:
    14b0:	55                   	push   %ebp
    14b1:	89 e5                	mov    %esp,%ebp
    14b3:	57                   	push   %edi
    14b4:	56                   	push   %esi
    14b5:	53                   	push   %ebx
    14b6:	83 ec 2c             	sub    $0x2c,%esp
    14b9:	8b 75 08             	mov    0x8(%ebp),%esi
    14bc:	8b 5d 0c             	mov    0xc(%ebp),%ebx
    14bf:	85 f6                	test   %esi,%esi
    14c1:	0f 84 71 01 00 00    	je     1638 <endpoint_list_remove_ep+0x188>
    14c7:	8b 7e 10             	mov    0x10(%esi),%edi
    14ca:	85 ff                	test   %edi,%edi
    14cc:	0f 84 51 01 00 00    	je     1623 <endpoint_list_remove_ep+0x173>
    14d2:	85 db                	test   %ebx,%ebx
    14d4:	0f 84 34 01 00 00    	je     160e <endpoint_list_remove_ep+0x15e>
    14da:	8b 13                	mov    (%ebx),%edx
    14dc:	85 d2                	test   %edx,%edx
    14de:	0f 84 15 01 00 00    	je     15f9 <endpoint_list_remove_ep+0x149>
    14e4:	83 ec 0c             	sub    $0xc,%esp
    14e7:	56                   	push   %esi
    14e8:	e8 b3 50 01 00       	call   165a0 <fibril_mutex_lock@plt>
    14ed:	8b 46 18             	mov    0x18(%esi),%eax
    14f0:	89 1c 24             	mov    %ebx,(%esp)
    14f3:	50                   	push   %eax
    14f4:	68 5c 23 01 00       	push   $0x1235c
    14f9:	6a 05                	push   $0x5
    14fb:	6a ff                	push   $0xffffffff
    14fd:	e8 7e 4c 01 00       	call   16180 <log_msg@plt>
    1502:	8b 46 20             	mov    0x20(%esi),%eax
    1505:	8d 56 1c             	lea    0x1c(%esi),%edx
    1508:	83 c4 20             	add    $0x20,%esp
    150b:	39 d0                	cmp    %edx,%eax
    150d:	74 0b                	je     151a <endpoint_list_remove_ep+0x6a>
    150f:	8d 53 08             	lea    0x8(%ebx),%edx
    1512:	39 d0                	cmp    %edx,%eax
    1514:	0f 84 a6 00 00 00    	je     15c0 <endpoint_list_remove_ep+0x110>
    151a:	8b 43 08             	mov    0x8(%ebx),%eax
    151d:	c7 45 d0 1c 22 01 00 	movl   $0x1221c,-0x30(%ebp)
    1524:	8b 78 f8             	mov    -0x8(%eax),%edi
    1527:	85 ff                	test   %edi,%edi
    1529:	0f 84 b5 00 00 00    	je     15e4 <endpoint_list_remove_ep+0x134>
    152f:	8b 47 0c             	mov    0xc(%edi),%eax
    1532:	83 e0 f0             	and    $0xfffffff0,%eax
    1535:	89 45 d4             	mov    %eax,-0x2c(%ebp)
    1538:	50                   	push   %eax
    1539:	50                   	push   %eax
    153a:	8d 45 e4             	lea    -0x1c(%ebp),%eax
    153d:	50                   	push   %eax
    153e:	8b 03                	mov    (%ebx),%eax
    1540:	50                   	push   %eax
    1541:	e8 ba 4d 01 00       	call   16300 <as_get_physical_mapping@plt>
    1546:	83 c4 10             	add    $0x10,%esp
    1549:	31 c9                	xor    %ecx,%ecx
    154b:	85 c0                	test   %eax,%eax
    154d:	74 69                	je     15b8 <endpoint_list_remove_ep+0x108>
    154f:	3b 4d d4             	cmp    -0x2c(%ebp),%ecx
    1552:	75 7b                	jne    15cf <endpoint_list_remove_ep+0x11f>
    1554:	8b 03                	mov    (%ebx),%eax
    1556:	8b 40 0c             	mov    0xc(%eax),%eax
    1559:	89 47 0c             	mov    %eax,0xc(%edi)
    155c:	8b 03                	mov    (%ebx),%eax
    155e:	8b 7d d0             	mov    -0x30(%ebp),%edi
    1561:	8b 40 0c             	mov    0xc(%eax),%eax
    1564:	52                   	push   %edx
    1565:	8b 4e 18             	mov    0x18(%esi),%ecx
    1568:	50                   	push   %eax
    1569:	51                   	push   %ecx
    156a:	57                   	push   %edi
    156b:	53                   	push   %ebx
    156c:	68 ac 23 01 00       	push   $0x123ac
    1571:	6a 04                	push   $0x4
    1573:	6a ff                	push   $0xffffffff
    1575:	e8 06 4c 01 00       	call   16180 <log_msg@plt>
    157a:	8b 53 08             	mov    0x8(%ebx),%edx
    157d:	83 c4 20             	add    $0x20,%esp
    1580:	85 d2                	test   %edx,%edx
    1582:	74 0f                	je     1593 <endpoint_list_remove_ep+0xe3>
    1584:	8b 43 0c             	mov    0xc(%ebx),%eax
    1587:	85 c0                	test   %eax,%eax
    1589:	74 08                	je     1593 <endpoint_list_remove_ep+0xe3>
    158b:	89 10                	mov    %edx,(%eax)
    158d:	8b 53 08             	mov    0x8(%ebx),%edx
    1590:	89 42 04             	mov    %eax,0x4(%edx)
    1593:	83 ec 0c             	sub    $0xc,%esp
    1596:	c7 43 08 00 00 00 00 	movl   $0x0,0x8(%ebx)
    159d:	c7 43 0c 00 00 00 00 	movl   $0x0,0xc(%ebx)
    15a4:	56                   	push   %esi
    15a5:	e8 c6 4c 01 00       	call   16270 <fibril_mutex_unlock@plt>
    15aa:	83 c4 10             	add    $0x10,%esp
    15ad:	8d 65 f4             	lea    -0xc(%ebp),%esp
    15b0:	5b                   	pop    %ebx
    15b1:	5e                   	pop    %esi
    15b2:	5f                   	pop    %edi
    15b3:	5d                   	pop    %ebp
    15b4:	c3                   	ret    
    15b5:	8d 76 00             	lea    0x0(%esi),%esi
    15b8:	8b 4d e4             	mov    -0x1c(%ebp),%ecx
    15bb:	eb 92                	jmp    154f <endpoint_list_remove_ep+0x9f>
    15bd:	8d 76 00             	lea    0x0(%esi),%esi
    15c0:	8b 7e 10             	mov    0x10(%esi),%edi
    15c3:	c7 45 d0 20 22 01 00 	movl   $0x12220,-0x30(%ebp)
    15ca:	e9 58 ff ff ff       	jmp    1527 <endpoint_list_remove_ep+0x77>
    15cf:	50                   	push   %eax
    15d0:	68 a8 00 00 00       	push   $0xa8
    15d5:	68 fe 21 01 00       	push   $0x121fe
    15da:	68 80 23 01 00       	push   $0x12380
    15df:	e8 ec 4b 01 00       	call   161d0 <assert_abort@plt>
    15e4:	50                   	push   %eax
    15e5:	68 b6 00 00 00       	push   $0xb6
    15ea:	68 94 22 01 00       	push   $0x12294
    15ef:	68 0e 22 01 00       	push   $0x1220e
    15f4:	e8 d7 4b 01 00       	call   161d0 <assert_abort@plt>
    15f9:	50                   	push   %eax
    15fa:	68 95 00 00 00       	push   $0x95
    15ff:	68 fe 21 01 00       	push   $0x121fe
    1604:	68 3a 22 01 00       	push   $0x1223a
    1609:	e8 c2 4b 01 00       	call   161d0 <assert_abort@plt>
    160e:	51                   	push   %ecx
    160f:	68 94 00 00 00       	push   $0x94
    1614:	68 fe 21 01 00       	push   $0x121fe
    1619:	68 4a 25 01 00       	push   $0x1254a
    161e:	e8 ad 4b 01 00       	call   161d0 <assert_abort@plt>
    1623:	53                   	push   %ebx
    1624:	68 93 00 00 00       	push   $0x93
    1629:	68 fe 21 01 00       	push   $0x121fe
    162e:	68 26 22 01 00       	push   $0x12226
    1633:	e8 98 4b 01 00       	call   161d0 <assert_abort@plt>
    1638:	50                   	push   %eax
    1639:	68 92 00 00 00       	push   $0x92
    163e:	68 fe 21 01 00       	push   $0x121fe
    1643:	68 0e 22 01 00       	push   $0x1220e
    1648:	e8 83 4b 01 00       	call   161d0 <assert_abort@plt>
    164d:	66 90                	xchg   %ax,%ax
    164f:	90                   	nop

00001650 <hc_start>:
    1650:	55                   	push   %ebp
    1651:	89 e5                	mov    %esp,%ebp
    1653:	57                   	push   %edi
    1654:	56                   	push   %esi
    1655:	53                   	push   %ebx
    1656:	83 ec 2c             	sub    $0x2c,%esp
    1659:	85 c0                	test   %eax,%eax
    165b:	0f 84 8c 02 00 00    	je     18ed <hc_start+0x29d>
    1661:	89 c3                	mov    %eax,%ebx
    1663:	51                   	push   %ecx
    1664:	68 cc 25 01 00       	push   $0x125cc
    1669:	6a 05                	push   $0x5
    166b:	6a ff                	push   $0xffffffff
    166d:	e8 0e 4b 01 00       	call   16180 <log_msg@plt>
    1672:	8b 03                	mov    (%ebx),%eax
    1674:	83 c0 34             	add    $0x34,%eax
    1677:	89 04 24             	mov    %eax,(%esp)
    167a:	e8 51 4a 01 00       	call   160d0 <pio_read_32@plt>
    167f:	50                   	push   %eax
    1680:	68 f0 25 01 00       	push   $0x125f0
    1685:	6a 05                	push   $0x5
    1687:	6a ff                	push   $0xffffffff
    1689:	89 c7                	mov    %eax,%edi
    168b:	e8 f0 4a 01 00       	call   16180 <log_msg@plt>
    1690:	83 c4 1c             	add    $0x1c,%esp
    1693:	68 e7 23 01 00       	push   $0x123e7
    1698:	6a 05                	push   $0x5
    169a:	6a ff                	push   $0xffffffff
    169c:	e8 df 4a 01 00       	call   16180 <log_msg@plt>
    16a1:	5e                   	pop    %esi
    16a2:	58                   	pop    %eax
    16a3:	8b 03                	mov    (%ebx),%eax
    16a5:	6a 01                	push   $0x1
    16a7:	83 c0 08             	add    $0x8,%eax
    16aa:	31 f6                	xor    %esi,%esi
    16ac:	50                   	push   %eax
    16ad:	e8 2e 4c 01 00       	call   162e0 <pio_write_32@plt>
    16b2:	83 c4 10             	add    $0x10,%esp
    16b5:	eb 11                	jmp    16c8 <hc_start+0x78>
    16b7:	90                   	nop
    16b8:	83 ec 0c             	sub    $0xc,%esp
    16bb:	83 c6 0a             	add    $0xa,%esi
    16be:	6a 0a                	push   $0xa
    16c0:	e8 0b 4d 01 00       	call   163d0 <async_usleep@plt>
    16c5:	83 c4 10             	add    $0x10,%esp
    16c8:	83 ec 0c             	sub    $0xc,%esp
    16cb:	8b 03                	mov    (%ebx),%eax
    16cd:	83 c0 08             	add    $0x8,%eax
    16d0:	50                   	push   %eax
    16d1:	e8 fa 49 01 00       	call   160d0 <pio_read_32@plt>
    16d6:	83 c4 10             	add    $0x10,%esp
    16d9:	a8 01                	test   $0x1,%al
    16db:	75 db                	jne    16b8 <hc_start+0x68>
    16dd:	56                   	push   %esi
    16de:	68 f2 23 01 00       	push   $0x123f2
    16e3:	6a 05                	push   $0x5
    16e5:	6a ff                	push   $0xffffffff
    16e7:	e8 94 4a 01 00       	call   16180 <log_msg@plt>
    16ec:	58                   	pop    %eax
    16ed:	8b 03                	mov    (%ebx),%eax
    16ef:	5a                   	pop    %edx
    16f0:	83 c0 34             	add    $0x34,%eax
    16f3:	57                   	push   %edi
    16f4:	50                   	push   %eax
    16f5:	e8 e6 4b 01 00       	call   162e0 <pio_write_32@plt>
    16fa:	8b 03                	mov    (%ebx),%eax
    16fc:	83 c0 08             	add    $0x8,%eax
    16ff:	89 04 24             	mov    %eax,(%esp)
    1702:	e8 c9 49 01 00       	call   160d0 <pio_read_32@plt>
    1707:	83 c4 10             	add    $0x10,%esp
    170a:	a8 01                	test   $0x1,%al
    170c:	0f 85 c6 01 00 00    	jne    18d8 <hc_start+0x288>
    1712:	83 ec 0c             	sub    $0xc,%esp
    1715:	8b 03                	mov    (%ebx),%eax
    1717:	83 c0 04             	add    $0x4,%eax
    171a:	50                   	push   %eax
    171b:	e8 b0 49 01 00       	call   160d0 <pio_read_32@plt>
    1720:	50                   	push   %eax
    1721:	68 50 26 01 00       	push   $0x12650
    1726:	6a 05                	push   $0x5
    1728:	6a ff                	push   $0xffffffff
    172a:	e8 51 4a 01 00       	call   16180 <log_msg@plt>
    172f:	83 c4 18             	add    $0x18,%esp
    1732:	8d 45 e4             	lea    -0x1c(%ebp),%eax
    1735:	8b 73 04             	mov    0x4(%ebx),%esi
    1738:	50                   	push   %eax
    1739:	56                   	push   %esi
    173a:	e8 c1 4b 01 00       	call   16300 <as_get_physical_mapping@plt>
    173f:	83 c4 10             	add    $0x10,%esp
    1742:	31 d2                	xor    %edx,%edx
    1744:	85 c0                	test   %eax,%eax
    1746:	75 03                	jne    174b <hc_start+0xfb>
    1748:	8b 55 e4             	mov    -0x1c(%ebp),%edx
    174b:	50                   	push   %eax
    174c:	50                   	push   %eax
    174d:	8b 03                	mov    (%ebx),%eax
    174f:	52                   	push   %edx
    1750:	83 c0 18             	add    $0x18,%eax
    1753:	50                   	push   %eax
    1754:	e8 87 4b 01 00       	call   162e0 <pio_write_32@plt>
    1759:	58                   	pop    %eax
    175a:	8b 03                	mov    (%ebx),%eax
    175c:	8b 4b 64             	mov    0x64(%ebx),%ecx
    175f:	83 c0 28             	add    $0x28,%eax
    1762:	5a                   	pop    %edx
    1763:	51                   	push   %ecx
    1764:	50                   	push   %eax
    1765:	e8 76 4b 01 00       	call   162e0 <pio_write_32@plt>
    176a:	8b 43 64             	mov    0x64(%ebx),%eax
    176d:	5e                   	pop    %esi
    176e:	50                   	push   %eax
    176f:	8b 43 60             	mov    0x60(%ebx),%eax
    1772:	50                   	push   %eax
    1773:	68 10 24 01 00       	push   $0x12410
    1778:	6a 05                	push   $0x5
    177a:	6a ff                	push   $0xffffffff
    177c:	e8 ff 49 01 00       	call   16180 <log_msg@plt>
    1781:	83 c4 18             	add    $0x18,%esp
    1784:	8b 43 1c             	mov    0x1c(%ebx),%eax
    1787:	50                   	push   %eax
    1788:	8b 03                	mov    (%ebx),%eax
    178a:	83 c0 20             	add    $0x20,%eax
    178d:	50                   	push   %eax
    178e:	e8 4d 4b 01 00       	call   162e0 <pio_write_32@plt>
    1793:	58                   	pop    %eax
    1794:	8b 43 1c             	mov    0x1c(%ebx),%eax
    1797:	50                   	push   %eax
    1798:	8b 43 18             	mov    0x18(%ebx),%eax
    179b:	50                   	push   %eax
    179c:	68 74 26 01 00       	push   $0x12674
    17a1:	6a 05                	push   $0x5
    17a3:	6a ff                	push   $0xffffffff
    17a5:	e8 d6 49 01 00       	call   16180 <log_msg@plt>
    17aa:	8b 03                	mov    (%ebx),%eax
    17ac:	83 c4 14             	add    $0x14,%esp
    17af:	8d 70 04             	lea    0x4(%eax),%esi
    17b2:	56                   	push   %esi
    17b3:	e8 18 49 01 00       	call   160d0 <pio_read_32@plt>
    17b8:	c7 04 24 01 00 00 00 	movl   $0x1,(%esp)
    17bf:	89 45 d4             	mov    %eax,-0x2c(%ebp)
    17c2:	e8 59 4b 01 00       	call   16320 <udelay@plt>
    17c7:	8b 45 d4             	mov    -0x2c(%ebp),%eax
    17ca:	83 c8 3c             	or     $0x3c,%eax
    17cd:	5a                   	pop    %edx
    17ce:	59                   	pop    %ecx
    17cf:	50                   	push   %eax
    17d0:	56                   	push   %esi
    17d1:	e8 0a 4b 01 00       	call   162e0 <pio_write_32@plt>
    17d6:	8b 03                	mov    (%ebx),%eax
    17d8:	83 c0 04             	add    $0x4,%eax
    17db:	89 04 24             	mov    %eax,(%esp)
    17de:	e8 ed 48 01 00       	call   160d0 <pio_read_32@plt>
    17e3:	50                   	push   %eax
    17e4:	68 2d 24 01 00       	push   $0x1242d
    17e9:	6a 04                	push   $0x4
    17eb:	6a ff                	push   $0xffffffff
    17ed:	e8 8e 49 01 00       	call   16180 <log_msg@plt>
    17f2:	83 c4 20             	add    $0x20,%esp
    17f5:	80 bb b4 00 00 00 00 	cmpb   $0x0,0xb4(%ebx)
    17fc:	74 41                	je     183f <hc_start+0x1ef>
    17fe:	50                   	push   %eax
    17ff:	50                   	push   %eax
    1800:	8b 03                	mov    (%ebx),%eax
    1802:	6a 53                	push   $0x53
    1804:	83 c0 10             	add    $0x10,%eax
    1807:	50                   	push   %eax
    1808:	e8 d3 4a 01 00       	call   162e0 <pio_write_32@plt>
    180d:	8b 03                	mov    (%ebx),%eax
    180f:	83 c0 10             	add    $0x10,%eax
    1812:	89 04 24             	mov    %eax,(%esp)
    1815:	e8 b6 48 01 00       	call   160d0 <pio_read_32@plt>
    181a:	50                   	push   %eax
    181b:	68 42 24 01 00       	push   $0x12442
    1820:	6a 04                	push   $0x4
    1822:	6a ff                	push   $0xffffffff
    1824:	e8 57 49 01 00       	call   16180 <log_msg@plt>
    1829:	83 c4 18             	add    $0x18,%esp
    182c:	8b 03                	mov    (%ebx),%eax
    182e:	68 00 00 00 80       	push   $0x80000000
    1833:	83 c0 10             	add    $0x10,%eax
    1836:	50                   	push   %eax
    1837:	e8 a4 4a 01 00       	call   162e0 <pio_write_32@plt>
    183c:	83 c4 10             	add    $0x10,%esp
    183f:	81 e7 ff 3f 00 00    	and    $0x3fff,%edi
    1845:	ba cd cc cc cc       	mov    $0xcccccccd,%edx
    184a:	50                   	push   %eax
    184b:	50                   	push   %eax
    184c:	89 f8                	mov    %edi,%eax
    184e:	f7 e2                	mul    %edx
    1850:	c1 ea 03             	shr    $0x3,%edx
    1853:	8d 04 d2             	lea    (%edx,%edx,8),%eax
    1856:	50                   	push   %eax
    1857:	8b 03                	mov    (%ebx),%eax
    1859:	83 c0 40             	add    $0x40,%eax
    185c:	50                   	push   %eax
    185d:	e8 7e 4a 01 00       	call   162e0 <pio_write_32@plt>
    1862:	8b 03                	mov    (%ebx),%eax
    1864:	83 c0 40             	add    $0x40,%eax
    1867:	89 04 24             	mov    %eax,(%esp)
    186a:	e8 61 48 01 00       	call   160d0 <pio_read_32@plt>
    186f:	89 c6                	mov    %eax,%esi
    1871:	8b 03                	mov    (%ebx),%eax
    1873:	83 c0 40             	add    $0x40,%eax
    1876:	89 04 24             	mov    %eax,(%esp)
    1879:	e8 52 48 01 00       	call   160d0 <pio_read_32@plt>
    187e:	5a                   	pop    %edx
    187f:	59                   	pop    %ecx
    1880:	57                   	push   %edi
    1881:	56                   	push   %esi
    1882:	50                   	push   %eax
    1883:	68 94 26 01 00       	push   $0x12694
    1888:	6a 05                	push   $0x5
    188a:	6a ff                	push   $0xffffffff
    188c:	e8 ef 48 01 00       	call   16180 <log_msg@plt>
    1891:	83 c4 14             	add    $0x14,%esp
    1894:	8b 03                	mov    (%ebx),%eax
    1896:	83 c0 04             	add    $0x4,%eax
    1899:	50                   	push   %eax
    189a:	e8 31 48 01 00       	call   160d0 <pio_read_32@plt>
    189f:	24 3f                	and    $0x3f,%al
    18a1:	5e                   	pop    %esi
    18a2:	0c 80                	or     $0x80,%al
    18a4:	5f                   	pop    %edi
    18a5:	50                   	push   %eax
    18a6:	8b 03                	mov    (%ebx),%eax
    18a8:	83 c0 04             	add    $0x4,%eax
    18ab:	50                   	push   %eax
    18ac:	e8 2f 4a 01 00       	call   162e0 <pio_write_32@plt>
    18b1:	8b 03                	mov    (%ebx),%eax
    18b3:	83 c0 04             	add    $0x4,%eax
    18b6:	89 04 24             	mov    %eax,(%esp)
    18b9:	e8 12 48 01 00       	call   160d0 <pio_read_32@plt>
    18be:	50                   	push   %eax
    18bf:	68 c8 26 01 00       	push   $0x126c8
    18c4:	6a 04                	push   $0x4
    18c6:	6a ff                	push   $0xffffffff
    18c8:	e8 b3 48 01 00       	call   16180 <log_msg@plt>
    18cd:	83 c4 20             	add    $0x20,%esp
    18d0:	8d 65 f4             	lea    -0xc(%ebp),%esp
    18d3:	5b                   	pop    %ebx
    18d4:	5e                   	pop    %esi
    18d5:	5f                   	pop    %edi
    18d6:	5d                   	pop    %ebp
    18d7:	c3                   	ret    
    18d8:	57                   	push   %edi
    18d9:	68 d0 01 00 00       	push   $0x1d0
    18de:	68 72 5b 01 00       	push   $0x15b72
    18e3:	68 10 26 01 00       	push   $0x12610
    18e8:	e8 e3 48 01 00       	call   161d0 <assert_abort@plt>
    18ed:	50                   	push   %eax
    18ee:	68 bd 01 00 00       	push   $0x1bd
    18f3:	68 72 5b 01 00       	push   $0x15b72
    18f8:	68 0e 22 01 00       	push   $0x1220e
    18fd:	e8 ce 48 01 00       	call   161d0 <assert_abort@plt>
    1902:	8d b4 26 00 00 00 00 	lea    0x0(%esi,%eiz,1),%esi
    1909:	8d bc 27 00 00 00 00 	lea    0x0(%edi,%eiz,1),%edi

00001910 <ohci_hc_gen_irq_code>:
    1910:	55                   	push   %ebp
    1911:	89 e5                	mov    %esp,%ebp
    1913:	57                   	push   %edi
    1914:	56                   	push   %esi
    1915:	53                   	push   %ebx
    1916:	83 ec 1c             	sub    $0x1c,%esp
    1919:	8b 7d 08             	mov    0x8(%ebp),%edi
    191c:	8b 5d 0c             	mov    0xc(%ebp),%ebx
    191f:	85 ff                	test   %edi,%edi
    1921:	0f 84 20 01 00 00    	je     1a47 <ohci_hc_gen_irq_code+0x137>
    1927:	85 db                	test   %ebx,%ebx
    1929:	0f 84 06 01 00 00    	je     1a35 <ohci_hc_gen_irq_code+0x125>
    192f:	83 3b 01             	cmpl   $0x1,(%ebx)
    1932:	0f 85 c8 00 00 00    	jne    1a00 <ohci_hc_gen_irq_code+0xf0>
    1938:	83 7b 10 01          	cmpl   $0x1,0x10(%ebx)
    193c:	0f 85 be 00 00 00    	jne    1a00 <ohci_hc_gen_irq_code+0xf0>
    1942:	8b 43 14             	mov    0x14(%ebx),%eax
    1945:	8b 30                	mov    (%eax),%esi
    1947:	8b 40 10             	mov    0x10(%eax),%eax
    194a:	89 45 e4             	mov    %eax,-0x1c(%ebp)
    194d:	83 f8 53             	cmp    $0x53,%eax
    1950:	0f 86 ba 00 00 00    	jbe    1a10 <ohci_hc_gen_irq_code+0x100>
    1956:	83 ec 0c             	sub    $0xc,%esp
    1959:	6a 08                	push   $0x8
    195b:	e8 80 47 01 00       	call   160e0 <malloc@plt>
    1960:	83 c4 10             	add    $0x10,%esp
    1963:	89 47 04             	mov    %eax,0x4(%edi)
    1966:	85 c0                	test   %eax,%eax
    1968:	0f 84 aa 00 00 00    	je     1a18 <ohci_hc_gen_irq_code+0x108>
    196e:	83 ec 0c             	sub    $0xc,%esp
    1971:	6a 64                	push   $0x64
    1973:	e8 68 47 01 00       	call   160e0 <malloc@plt>
    1978:	83 c4 10             	add    $0x10,%esp
    197b:	89 47 0c             	mov    %eax,0xc(%edi)
    197e:	85 c0                	test   %eax,%eax
    1980:	0f 84 99 00 00 00    	je     1a1f <ohci_hc_gen_irq_code+0x10f>
    1986:	c7 07 01 00 00 00    	movl   $0x1,(%edi)
    198c:	c7 47 08 05 00 00 00 	movl   $0x5,0x8(%edi)
    1993:	50                   	push   %eax
    1994:	6a 08                	push   $0x8
    1996:	68 e4 28 01 00       	push   $0x128e4
    199b:	8b 57 04             	mov    0x4(%edi),%edx
    199e:	52                   	push   %edx
    199f:	e8 0c 47 01 00       	call   160b0 <memcpy@plt>
    19a4:	83 c4 0c             	add    $0xc,%esp
    19a7:	8b 47 04             	mov    0x4(%edi),%eax
    19aa:	89 30                	mov    %esi,(%eax)
    19ac:	6a 64                	push   $0x64
    19ae:	68 80 28 01 00       	push   $0x12880
    19b3:	8b 4f 0c             	mov    0xc(%edi),%ecx
    19b6:	51                   	push   %ecx
    19b7:	e8 f4 46 01 00       	call   160b0 <memcpy@plt>
    19bc:	8b 47 0c             	mov    0xc(%edi),%eax
    19bf:	8d 56 0c             	lea    0xc(%esi),%edx
    19c2:	83 c0 1c             	add    $0x1c,%eax
    19c5:	89 50 e8             	mov    %edx,-0x18(%eax)
    19c8:	89 50 24             	mov    %edx,0x24(%eax)
    19cb:	5f                   	pop    %edi
    19cc:	5a                   	pop    %edx
    19cd:	6a 53                	push   $0x53
    19cf:	50                   	push   %eax
    19d0:	e8 0b 49 01 00       	call   162e0 <pio_write_32@plt>
    19d5:	8b 43 04             	mov    0x4(%ebx),%eax
    19d8:	8b 00                	mov    (%eax),%eax
    19da:	59                   	pop    %ecx
    19db:	5f                   	pop    %edi
    19dc:	50                   	push   %eax
    19dd:	8b 45 e4             	mov    -0x1c(%ebp),%eax
    19e0:	50                   	push   %eax
    19e1:	56                   	push   %esi
    19e2:	68 f0 26 01 00       	push   $0x126f0
    19e7:	6a 04                	push   $0x4
    19e9:	6a ff                	push   $0xffffffff
    19eb:	e8 90 47 01 00       	call   16180 <log_msg@plt>
    19f0:	8b 43 04             	mov    0x4(%ebx),%eax
    19f3:	83 c4 20             	add    $0x20,%esp
    19f6:	8b 00                	mov    (%eax),%eax
    19f8:	8d 65 f4             	lea    -0xc(%ebp),%esp
    19fb:	5b                   	pop    %ebx
    19fc:	5e                   	pop    %esi
    19fd:	5f                   	pop    %edi
    19fe:	5d                   	pop    %ebp
    19ff:	c3                   	ret    
    1a00:	8d 65 f4             	lea    -0xc(%ebp),%esp
    1a03:	b8 f2 ff ff ff       	mov    $0xfffffff2,%eax
    1a08:	5b                   	pop    %ebx
    1a09:	5e                   	pop    %esi
    1a0a:	5f                   	pop    %edi
    1a0b:	5d                   	pop    %ebp
    1a0c:	c3                   	ret    
    1a0d:	8d 76 00             	lea    0x0(%esi),%esi
    1a10:	b8 f0 ff ff ff       	mov    $0xfffffff0,%eax
    1a15:	eb e1                	jmp    19f8 <ohci_hc_gen_irq_code+0xe8>
    1a17:	90                   	nop
    1a18:	b8 fe ff ff ff       	mov    $0xfffffffe,%eax
    1a1d:	eb d9                	jmp    19f8 <ohci_hc_gen_irq_code+0xe8>
    1a1f:	83 ec 0c             	sub    $0xc,%esp
    1a22:	8b 47 04             	mov    0x4(%edi),%eax
    1a25:	50                   	push   %eax
    1a26:	e8 55 4b 01 00       	call   16580 <free@plt>
    1a2b:	83 c4 10             	add    $0x10,%esp
    1a2e:	b8 fe ff ff ff       	mov    $0xfffffffe,%eax
    1a33:	eb c3                	jmp    19f8 <ohci_hc_gen_irq_code+0xe8>
    1a35:	50                   	push   %eax
    1a36:	6a 6b                	push   $0x6b
    1a38:	68 72 5b 01 00       	push   $0x15b72
    1a3d:	68 60 24 01 00       	push   $0x12460
    1a42:	e8 89 47 01 00       	call   161d0 <assert_abort@plt>
    1a47:	50                   	push   %eax
    1a48:	6a 6a                	push   $0x6a
    1a4a:	68 72 5b 01 00       	push   $0x15b72
    1a4f:	68 5b 24 01 00       	push   $0x1245b
    1a54:	e8 77 47 01 00       	call   161d0 <assert_abort@plt>
    1a59:	8d b4 26 00 00 00 00 	lea    0x0(%esi,%eiz,1),%esi

00001a60 <hc_init>:
    1a60:	55                   	push   %ebp
    1a61:	89 e5                	mov    %esp,%ebp
    1a63:	57                   	push   %edi
    1a64:	56                   	push   %esi
    1a65:	53                   	push   %ebx
    1a66:	83 ec 1c             	sub    $0x1c,%esp
    1a69:	8b 5d 08             	mov    0x8(%ebp),%ebx
    1a6c:	8b 45 10             	mov    0x10(%ebp),%eax
    1a6f:	8b 7d 0c             	mov    0xc(%ebp),%edi
    1a72:	89 45 e4             	mov    %eax,-0x1c(%ebp)
    1a75:	85 db                	test   %ebx,%ebx
    1a77:	0f 84 eb 04 00 00    	je     1f68 <hc_init+0x508>
    1a7d:	85 ff                	test   %edi,%edi
    1a7f:	0f 84 ce 04 00 00    	je     1f53 <hc_init+0x4f3>
    1a85:	83 7f 10 01          	cmpl   $0x1,0x10(%edi)
    1a89:	0f 85 79 03 00 00    	jne    1e08 <hc_init+0x3a8>
    1a8f:	8b 47 14             	mov    0x14(%edi),%eax
    1a92:	83 78 10 53          	cmpl   $0x53,0x10(%eax)
    1a96:	0f 86 6c 03 00 00    	jbe    1e08 <hc_init+0x3a8>
    1a9c:	56                   	push   %esi
    1a9d:	56                   	push   %esi
    1a9e:	53                   	push   %ebx
    1a9f:	50                   	push   %eax
    1aa0:	e8 1b 46 01 00       	call   160c0 <pio_enable_range@plt>
    1aa5:	83 c4 10             	add    $0x10,%esp
    1aa8:	89 c6                	mov    %eax,%esi
    1aaa:	85 c0                	test   %eax,%eax
    1aac:	0f 85 2e 03 00 00    	jne    1de0 <hc_init+0x380>
    1ab2:	8b 47 14             	mov    0x14(%edi),%eax
    1ab5:	57                   	push   %edi
    1ab6:	57                   	push   %edi
    1ab7:	8b 50 10             	mov    0x10(%eax),%edx
    1aba:	8b 48 04             	mov    0x4(%eax),%ecx
    1abd:	52                   	push   %edx
    1abe:	51                   	push   %ecx
    1abf:	8b 38                	mov    (%eax),%edi
    1ac1:	57                   	push   %edi
    1ac2:	68 4c 27 01 00       	push   $0x1274c
    1ac7:	6a 04                	push   $0x4
    1ac9:	6a ff                	push   $0xffffffff
    1acb:	e8 b0 46 01 00       	call   16180 <log_msg@plt>
    1ad0:	83 c4 14             	add    $0x14,%esp
    1ad3:	8d 83 98 00 00 00    	lea    0x98(%ebx),%eax
    1ad9:	89 83 98 00 00 00    	mov    %eax,0x98(%ebx)
    1adf:	89 83 9c 00 00 00    	mov    %eax,0x9c(%ebx)
    1ae5:	8d 83 a4 00 00 00    	lea    0xa4(%ebx),%eax
    1aeb:	50                   	push   %eax
    1aec:	e8 af 47 01 00       	call   162a0 <fibril_mutex_initialize@plt>
    1af1:	83 c4 0c             	add    $0xc,%esp
    1af4:	8a 45 e4             	mov    -0x1c(%ebp),%al
    1af7:	88 83 b4 00 00 00    	mov    %al,0xb4(%ebx)
    1afd:	8d 83 b8 00 00 00    	lea    0xb8(%ebx),%eax
    1b03:	6a 7c                	push   $0x7c
    1b05:	6a 00                	push   $0x0
    1b07:	50                   	push   %eax
    1b08:	89 45 e4             	mov    %eax,-0x1c(%ebp)
    1b0b:	e8 50 48 01 00       	call   16360 <memset@plt>
    1b10:	c7 04 24 01 00 00 00 	movl   $0x1,(%esp)
    1b17:	e8 d4 71 00 00       	call   8cf0 <usb_str_transfer_type>
    1b1c:	5a                   	pop    %edx
    1b1d:	89 c7                	mov    %eax,%edi
    1b1f:	8d 43 2c             	lea    0x2c(%ebx),%eax
    1b22:	59                   	pop    %ecx
    1b23:	89 45 e0             	mov    %eax,-0x20(%ebp)
    1b26:	57                   	push   %edi
    1b27:	50                   	push   %eax
    1b28:	e8 13 f6 ff ff       	call   1140 <endpoint_list_init>
    1b2d:	83 c4 10             	add    $0x10,%esp
    1b30:	89 c2                	mov    %eax,%edx
    1b32:	85 c0                	test   %eax,%eax
    1b34:	0f 84 9e 00 00 00    	je     1bd8 <hc_init+0x178>
    1b3a:	83 ec 0c             	sub    $0xc,%esp
    1b3d:	89 55 e4             	mov    %edx,-0x1c(%ebp)
    1b40:	52                   	push   %edx
    1b41:	e8 2a 49 01 00       	call   16470 <str_error@plt>
    1b46:	89 04 24             	mov    %eax,(%esp)
    1b49:	57                   	push   %edi
    1b4a:	68 7c 27 01 00       	push   $0x1277c
    1b4f:	6a 01                	push   $0x1
    1b51:	6a ff                	push   $0xffffffff
    1b53:	e8 28 46 01 00       	call   16180 <log_msg@plt>
    1b58:	83 c4 14             	add    $0x14,%esp
    1b5b:	8b 4b 3c             	mov    0x3c(%ebx),%ecx
    1b5e:	51                   	push   %ecx
    1b5f:	e8 ac 46 01 00       	call   16210 <dmamem_unmap_anonymous@plt>
    1b64:	c7 43 3c 00 00 00 00 	movl   $0x0,0x3c(%ebx)
    1b6b:	8b bb 84 00 00 00    	mov    0x84(%ebx),%edi
    1b71:	5e                   	pop    %esi
    1b72:	57                   	push   %edi
    1b73:	e8 98 46 01 00       	call   16210 <dmamem_unmap_anonymous@plt>
    1b78:	c7 83 84 00 00 00 00 	movl   $0x0,0x84(%ebx)
    1b7f:	00 00 00 
    1b82:	58                   	pop    %eax
    1b83:	8b 43 18             	mov    0x18(%ebx),%eax
    1b86:	50                   	push   %eax
    1b87:	e8 84 46 01 00       	call   16210 <dmamem_unmap_anonymous@plt>
    1b8c:	c7 43 18 00 00 00 00 	movl   $0x0,0x18(%ebx)
    1b93:	58                   	pop    %eax
    1b94:	8b 43 60             	mov    0x60(%ebx),%eax
    1b97:	50                   	push   %eax
    1b98:	e8 73 46 01 00       	call   16210 <dmamem_unmap_anonymous@plt>
    1b9d:	8b 55 e4             	mov    -0x1c(%ebp),%edx
    1ba0:	c7 43 60 00 00 00 00 	movl   $0x0,0x60(%ebx)
    1ba7:	83 c4 10             	add    $0x10,%esp
    1baa:	89 d6                	mov    %edx,%esi
    1bac:	83 ec 0c             	sub    $0xc,%esp
    1baf:	56                   	push   %esi
    1bb0:	e8 bb 48 01 00       	call   16470 <str_error@plt>
    1bb5:	50                   	push   %eax
    1bb6:	68 c8 27 01 00       	push   $0x127c8
    1bbb:	6a 01                	push   $0x1
    1bbd:	6a ff                	push   $0xffffffff
    1bbf:	e8 bc 45 01 00       	call   16180 <log_msg@plt>
    1bc4:	83 c4 20             	add    $0x20,%esp
    1bc7:	8d 65 f4             	lea    -0xc(%ebp),%esp
    1bca:	89 f0                	mov    %esi,%eax
    1bcc:	5b                   	pop    %ebx
    1bcd:	5e                   	pop    %esi
    1bce:	5f                   	pop    %edi
    1bcf:	5d                   	pop    %ebp
    1bd0:	c3                   	ret    
    1bd1:	8d b4 26 00 00 00 00 	lea    0x0(%esi,%eiz,1),%esi
    1bd8:	83 ec 0c             	sub    $0xc,%esp
    1bdb:	6a 03                	push   $0x3
    1bdd:	e8 0e 71 00 00       	call   8cf0 <usb_str_transfer_type>
    1be2:	89 c7                	mov    %eax,%edi
    1be4:	8d 43 74             	lea    0x74(%ebx),%eax
    1be7:	5a                   	pop    %edx
    1be8:	89 45 dc             	mov    %eax,-0x24(%ebp)
    1beb:	59                   	pop    %ecx
    1bec:	57                   	push   %edi
    1bed:	50                   	push   %eax
    1bee:	e8 4d f5 ff ff       	call   1140 <endpoint_list_init>
    1bf3:	83 c4 10             	add    $0x10,%esp
    1bf6:	89 c2                	mov    %eax,%edx
    1bf8:	85 c0                	test   %eax,%eax
    1bfa:	0f 85 3a ff ff ff    	jne    1b3a <hc_init+0xda>
    1c00:	83 ec 0c             	sub    $0xc,%esp
    1c03:	6a 00                	push   $0x0
    1c05:	e8 e6 70 00 00       	call   8cf0 <usb_str_transfer_type>
    1c0a:	59                   	pop    %ecx
    1c0b:	89 c7                	mov    %eax,%edi
    1c0d:	58                   	pop    %eax
    1c0e:	8d 43 08             	lea    0x8(%ebx),%eax
    1c11:	57                   	push   %edi
    1c12:	50                   	push   %eax
    1c13:	e8 28 f5 ff ff       	call   1140 <endpoint_list_init>
    1c18:	83 c4 10             	add    $0x10,%esp
    1c1b:	89 c2                	mov    %eax,%edx
    1c1d:	85 c0                	test   %eax,%eax
    1c1f:	0f 85 15 ff ff ff    	jne    1b3a <hc_init+0xda>
    1c25:	83 ec 0c             	sub    $0xc,%esp
    1c28:	6a 02                	push   $0x2
    1c2a:	e8 c1 70 00 00       	call   8cf0 <usb_str_transfer_type>
    1c2f:	89 c7                	mov    %eax,%edi
    1c31:	58                   	pop    %eax
    1c32:	8d 43 50             	lea    0x50(%ebx),%eax
    1c35:	5a                   	pop    %edx
    1c36:	57                   	push   %edi
    1c37:	50                   	push   %eax
    1c38:	e8 03 f5 ff ff       	call   1140 <endpoint_list_init>
    1c3d:	83 c4 10             	add    $0x10,%esp
    1c40:	89 c2                	mov    %eax,%edx
    1c42:	85 c0                	test   %eax,%eax
    1c44:	0f 85 f0 fe ff ff    	jne    1b3a <hc_init+0xda>
    1c4a:	8b 4d e0             	mov    -0x20(%ebp),%ecx
    1c4d:	8b 7d dc             	mov    -0x24(%ebp),%edi
    1c50:	52                   	push   %edx
    1c51:	52                   	push   %edx
    1c52:	51                   	push   %ecx
    1c53:	57                   	push   %edi
    1c54:	e8 e7 f5 ff ff       	call   1240 <endpoint_list_set_next>
    1c59:	58                   	pop    %eax
    1c5a:	5a                   	pop    %edx
    1c5b:	68 00 01 00 00       	push   $0x100
    1c60:	68 00 01 00 00       	push   $0x100
    1c65:	e8 76 47 01 00       	call   163e0 <memalign@plt>
    1c6a:	83 c4 10             	add    $0x10,%esp
    1c6d:	89 c7                	mov    %eax,%edi
    1c6f:	85 c0                	test   %eax,%eax
    1c71:	0f 84 b4 02 00 00    	je     1f2b <hc_init+0x4cb>
    1c77:	50                   	push   %eax
    1c78:	68 00 01 00 00       	push   $0x100
    1c7d:	6a 00                	push   $0x0
    1c7f:	57                   	push   %edi
    1c80:	e8 db 46 01 00       	call   16360 <memset@plt>
    1c85:	89 7b 04             	mov    %edi,0x4(%ebx)
    1c88:	57                   	push   %edi
    1c89:	68 67 24 01 00       	push   $0x12467
    1c8e:	6a 05                	push   $0x5
    1c90:	6a ff                	push   $0xffffffff
    1c92:	e8 e9 44 01 00       	call   16180 <log_msg@plt>
    1c97:	8b 43 04             	mov    0x4(%ebx),%eax
    1c9a:	83 c4 20             	add    $0x20,%esp
    1c9d:	8b 93 88 00 00 00    	mov    0x88(%ebx),%edx
    1ca3:	85 c0                	test   %eax,%eax
    1ca5:	0f 84 d2 02 00 00    	je     1f7d <hc_init+0x51d>
    1cab:	8d 88 80 00 00 00    	lea    0x80(%eax),%ecx
    1cb1:	8d b4 26 00 00 00 00 	lea    0x0(%esi,%eiz,1),%esi
    1cb8:	89 10                	mov    %edx,(%eax)
    1cba:	83 c0 04             	add    $0x4,%eax
    1cbd:	39 c1                	cmp    %eax,%ecx
    1cbf:	75 f7                	jne    1cb8 <hc_init+0x258>
    1cc1:	83 ec 0c             	sub    $0xc,%esp
    1cc4:	8b 83 84 00 00 00    	mov    0x84(%ebx),%eax
    1cca:	52                   	push   %edx
    1ccb:	50                   	push   %eax
    1ccc:	68 a4 27 01 00       	push   $0x127a4
    1cd1:	6a 05                	push   $0x5
    1cd3:	6a ff                	push   $0xffffffff
    1cd5:	e8 a6 44 01 00       	call   16180 <log_msg@plt>
    1cda:	83 c4 1c             	add    $0x1c,%esp
    1cdd:	68 9b 24 01 00       	push   $0x1249b
    1ce2:	6a 04                	push   $0x4
    1ce4:	6a ff                	push   $0xffffffff
    1ce6:	e8 95 44 01 00       	call   16180 <log_msg@plt>
    1ceb:	58                   	pop    %eax
    1cec:	8b 03                	mov    (%ebx),%eax
    1cee:	50                   	push   %eax
    1cef:	e8 dc 43 01 00       	call   160d0 <pio_read_32@plt>
    1cf4:	83 c4 10             	add    $0x10,%esp
    1cf7:	a8 80                	test   $0x80,%al
    1cf9:	0f 85 99 01 00 00    	jne    1e98 <hc_init+0x438>
    1cff:	83 ec 0c             	sub    $0xc,%esp
    1d02:	8b 03                	mov    (%ebx),%eax
    1d04:	83 c0 04             	add    $0x4,%eax
    1d07:	50                   	push   %eax
    1d08:	e8 c3 43 01 00       	call   160d0 <pio_read_32@plt>
    1d0d:	83 c4 10             	add    $0x10,%esp
    1d10:	f6 c4 01             	test   $0x1,%ah
    1d13:	0f 84 ff 00 00 00    	je     1e18 <hc_init+0x3b8>
    1d19:	57                   	push   %edi
    1d1a:	68 30 28 01 00       	push   $0x12830
    1d1f:	6a 04                	push   $0x4
    1d21:	6a ff                	push   $0xffffffff
    1d23:	e8 58 44 01 00       	call   16180 <log_msg@plt>
    1d28:	8b 03                	mov    (%ebx),%eax
    1d2a:	8d 78 08             	lea    0x8(%eax),%edi
    1d2d:	89 3c 24             	mov    %edi,(%esp)
    1d30:	e8 9b 43 01 00       	call   160d0 <pio_read_32@plt>
    1d35:	c7 04 24 01 00 00 00 	movl   $0x1,(%esp)
    1d3c:	89 45 e0             	mov    %eax,-0x20(%ebp)
    1d3f:	e8 dc 45 01 00       	call   16320 <udelay@plt>
    1d44:	58                   	pop    %eax
    1d45:	8b 45 e0             	mov    -0x20(%ebp),%eax
    1d48:	5a                   	pop    %edx
    1d49:	83 c8 08             	or     $0x8,%eax
    1d4c:	50                   	push   %eax
    1d4d:	57                   	push   %edi
    1d4e:	e8 8d 45 01 00       	call   162e0 <pio_write_32@plt>
    1d53:	83 c4 10             	add    $0x10,%esp
    1d56:	eb 10                	jmp    1d68 <hc_init+0x308>
    1d58:	83 ec 0c             	sub    $0xc,%esp
    1d5b:	68 e8 03 00 00       	push   $0x3e8
    1d60:	e8 6b 46 01 00       	call   163d0 <async_usleep@plt>
    1d65:	83 c4 10             	add    $0x10,%esp
    1d68:	83 ec 0c             	sub    $0xc,%esp
    1d6b:	8b 03                	mov    (%ebx),%eax
    1d6d:	83 c0 04             	add    $0x4,%eax
    1d70:	50                   	push   %eax
    1d71:	e8 5a 43 01 00       	call   160d0 <pio_read_32@plt>
    1d76:	83 c4 10             	add    $0x10,%esp
    1d79:	f6 c4 01             	test   $0x1,%ah
    1d7c:	75 da                	jne    1d58 <hc_init+0x2f8>
    1d7e:	50                   	push   %eax
    1d7f:	68 d3 24 01 00       	push   $0x124d3
    1d84:	6a 03                	push   $0x3
    1d86:	6a ff                	push   $0xffffffff
    1d88:	e8 f3 43 01 00       	call   16180 <log_msg@plt>
    1d8d:	8b 03                	mov    (%ebx),%eax
    1d8f:	83 c0 04             	add    $0x4,%eax
    1d92:	89 04 24             	mov    %eax,(%esp)
    1d95:	e8 36 43 01 00       	call   160d0 <pio_read_32@plt>
    1d9a:	24 3f                	and    $0x3f,%al
    1d9c:	5a                   	pop    %edx
    1d9d:	59                   	pop    %ecx
    1d9e:	50                   	push   %eax
    1d9f:	8b 03                	mov    (%ebx),%eax
    1da1:	83 c0 04             	add    $0x4,%eax
    1da4:	50                   	push   %eax
    1da5:	e8 36 45 01 00       	call   162e0 <pio_write_32@plt>
    1daa:	c7 04 24 50 c3 00 00 	movl   $0xc350,(%esp)
    1db1:	e8 1a 46 01 00       	call   163d0 <async_usleep@plt>
    1db6:	83 c4 10             	add    $0x10,%esp
    1db9:	50                   	push   %eax
    1dba:	8b 4d e4             	mov    -0x1c(%ebp),%ecx
    1dbd:	8b 13                	mov    (%ebx),%edx
    1dbf:	68 3d 25 01 00       	push   $0x1253d
    1dc4:	52                   	push   %edx
    1dc5:	51                   	push   %ecx
    1dc6:	e8 d5 21 00 00       	call   3fa0 <ohci_rh_init>
    1dcb:	89 d8                	mov    %ebx,%eax
    1dcd:	e8 7e f8 ff ff       	call   1650 <hc_start>
    1dd2:	83 c4 10             	add    $0x10,%esp
    1dd5:	8d 65 f4             	lea    -0xc(%ebp),%esp
    1dd8:	89 f0                	mov    %esi,%eax
    1dda:	5b                   	pop    %ebx
    1ddb:	5e                   	pop    %esi
    1ddc:	5f                   	pop    %edi
    1ddd:	5d                   	pop    %ebp
    1dde:	c3                   	ret    
    1ddf:	90                   	nop
    1de0:	83 ec 0c             	sub    $0xc,%esp
    1de3:	50                   	push   %eax
    1de4:	e8 87 46 01 00       	call   16470 <str_error@plt>
    1de9:	50                   	push   %eax
    1dea:	68 20 27 01 00       	push   $0x12720
    1def:	6a 01                	push   $0x1
    1df1:	6a ff                	push   $0xffffffff
    1df3:	e8 88 43 01 00       	call   16180 <log_msg@plt>
    1df8:	83 c4 20             	add    $0x20,%esp
    1dfb:	8d 65 f4             	lea    -0xc(%ebp),%esp
    1dfe:	89 f0                	mov    %esi,%eax
    1e00:	5b                   	pop    %ebx
    1e01:	5e                   	pop    %esi
    1e02:	5f                   	pop    %edi
    1e03:	5d                   	pop    %ebp
    1e04:	c3                   	ret    
    1e05:	8d 76 00             	lea    0x0(%esi),%esi
    1e08:	8d 65 f4             	lea    -0xc(%ebp),%esp
    1e0b:	be f2 ff ff ff       	mov    $0xfffffff2,%esi
    1e10:	89 f0                	mov    %esi,%eax
    1e12:	5b                   	pop    %ebx
    1e13:	5e                   	pop    %esi
    1e14:	5f                   	pop    %edi
    1e15:	5d                   	pop    %ebp
    1e16:	c3                   	ret    
    1e17:	90                   	nop
    1e18:	83 ec 0c             	sub    $0xc,%esp
    1e1b:	8b 03                	mov    (%ebx),%eax
    1e1d:	83 c0 04             	add    $0x4,%eax
    1e20:	50                   	push   %eax
    1e21:	e8 aa 42 01 00       	call   160d0 <pio_read_32@plt>
    1e26:	c1 e8 06             	shr    $0x6,%eax
    1e29:	83 c4 10             	add    $0x10,%esp
    1e2c:	89 c7                	mov    %eax,%edi
    1e2e:	83 e7 03             	and    $0x3,%edi
    1e31:	0f 84 d1 00 00 00    	je     1f08 <hc_init+0x4a8>
    1e37:	50                   	push   %eax
    1e38:	68 f1 24 01 00       	push   $0x124f1
    1e3d:	6a 04                	push   $0x4
    1e3f:	6a ff                	push   $0xffffffff
    1e41:	e8 3a 43 01 00       	call   16180 <log_msg@plt>
    1e46:	83 c4 10             	add    $0x10,%esp
    1e49:	83 ff 02             	cmp    $0x2,%edi
    1e4c:	0f 84 ea 00 00 00    	je     1f3c <hc_init+0x4dc>
    1e52:	83 ec 0c             	sub    $0xc,%esp
    1e55:	8b 03                	mov    (%ebx),%eax
    1e57:	83 c0 04             	add    $0x4,%eax
    1e5a:	50                   	push   %eax
    1e5b:	e8 70 42 01 00       	call   160d0 <pio_read_32@plt>
    1e60:	24 3f                	and    $0x3f,%al
    1e62:	5a                   	pop    %edx
    1e63:	83 c8 40             	or     $0x40,%eax
    1e66:	59                   	pop    %ecx
    1e67:	50                   	push   %eax
    1e68:	8b 03                	mov    (%ebx),%eax
    1e6a:	83 c0 04             	add    $0x4,%eax
    1e6d:	50                   	push   %eax
    1e6e:	e8 6d 44 01 00       	call   162e0 <pio_write_32@plt>
    1e73:	c7 04 24 20 4e 00 00 	movl   $0x4e20,(%esp)
    1e7a:	e8 51 45 01 00       	call   163d0 <async_usleep@plt>
    1e7f:	83 c4 0c             	add    $0xc,%esp
    1e82:	68 23 25 01 00       	push   $0x12523
    1e87:	6a 03                	push   $0x3
    1e89:	6a ff                	push   $0xffffffff
    1e8b:	e8 f0 42 01 00       	call   16180 <log_msg@plt>
    1e90:	83 c4 10             	add    $0x10,%esp
    1e93:	e9 21 ff ff ff       	jmp    1db9 <hc_init+0x359>
    1e98:	8b 03                	mov    (%ebx),%eax
    1e9a:	83 ec 0c             	sub    $0xc,%esp
    1e9d:	8d b8 00 01 00 00    	lea    0x100(%eax),%edi
    1ea3:	57                   	push   %edi
    1ea4:	e8 27 42 01 00       	call   160d0 <pio_read_32@plt>
    1ea9:	89 04 24             	mov    %eax,(%esp)
    1eac:	57                   	push   %edi
    1ead:	68 b5 24 01 00       	push   $0x124b5
    1eb2:	6a 04                	push   $0x4
    1eb4:	6a ff                	push   $0xffffffff
    1eb6:	e8 c5 42 01 00       	call   16180 <log_msg@plt>
    1ebb:	83 c4 14             	add    $0x14,%esp
    1ebe:	57                   	push   %edi
    1ebf:	e8 0c 42 01 00       	call   160d0 <pio_read_32@plt>
    1ec4:	c7 04 24 01 00 00 00 	movl   $0x1,(%esp)
    1ecb:	89 45 e0             	mov    %eax,-0x20(%ebp)
    1ece:	e8 4d 44 01 00       	call   16320 <udelay@plt>
    1ed3:	59                   	pop    %ecx
    1ed4:	58                   	pop    %eax
    1ed5:	8b 45 e0             	mov    -0x20(%ebp),%eax
    1ed8:	25 00 01 00 00       	and    $0x100,%eax
    1edd:	50                   	push   %eax
    1ede:	57                   	push   %edi
    1edf:	e8 fc 43 01 00       	call   162e0 <pio_write_32@plt>
    1ee4:	89 3c 24             	mov    %edi,(%esp)
    1ee7:	e8 e4 41 01 00       	call   160d0 <pio_read_32@plt>
    1eec:	89 04 24             	mov    %eax,(%esp)
    1eef:	57                   	push   %edi
    1ef0:	68 f8 27 01 00       	push   $0x127f8
    1ef5:	6a 04                	push   $0x4
    1ef7:	6a ff                	push   $0xffffffff
    1ef9:	e8 82 42 01 00       	call   16180 <log_msg@plt>
    1efe:	83 c4 20             	add    $0x20,%esp
    1f01:	e9 f9 fd ff ff       	jmp    1cff <hc_init+0x29f>
    1f06:	66 90                	xchg   %ax,%ax
    1f08:	57                   	push   %edi
    1f09:	68 58 28 01 00       	push   $0x12858
    1f0e:	6a 04                	push   $0x4
    1f10:	6a ff                	push   $0xffffffff
    1f12:	e8 69 42 01 00       	call   16180 <log_msg@plt>
    1f17:	c7 04 24 50 c3 00 00 	movl   $0xc350,(%esp)
    1f1e:	e8 ad 44 01 00       	call   163d0 <async_usleep@plt>
    1f23:	83 c4 10             	add    $0x10,%esp
    1f26:	e9 8e fe ff ff       	jmp    1db9 <hc_init+0x359>
    1f2b:	c7 43 04 00 00 00 00 	movl   $0x0,0x4(%ebx)
    1f32:	be fe ff ff ff       	mov    $0xfffffffe,%esi
    1f37:	e9 70 fc ff ff       	jmp    1bac <hc_init+0x14c>
    1f3c:	57                   	push   %edi
    1f3d:	68 05 25 01 00       	push   $0x12505
    1f42:	6a 03                	push   $0x3
    1f44:	6a ff                	push   $0xffffffff
    1f46:	e8 35 42 01 00       	call   16180 <log_msg@plt>
    1f4b:	83 c4 10             	add    $0x10,%esp
    1f4e:	e9 66 fe ff ff       	jmp    1db9 <hc_init+0x359>
    1f53:	57                   	push   %edi
    1f54:	68 9b 00 00 00       	push   $0x9b
    1f59:	68 72 5b 01 00       	push   $0x15b72
    1f5e:	68 60 24 01 00       	push   $0x12460
    1f63:	e8 68 42 01 00       	call   161d0 <assert_abort@plt>
    1f68:	50                   	push   %eax
    1f69:	68 9a 00 00 00       	push   $0x9a
    1f6e:	68 72 5b 01 00       	push   $0x15b72
    1f73:	68 0e 22 01 00       	push   $0x1220e
    1f78:	e8 53 42 01 00       	call   161d0 <assert_abort@plt>
    1f7d:	50                   	push   %eax
    1f7e:	6a 55                	push   $0x55
    1f80:	68 85 24 01 00       	push   $0x12485
    1f85:	68 96 24 01 00       	push   $0x12496
    1f8a:	e8 41 42 01 00       	call   161d0 <assert_abort@plt>
    1f8f:	90                   	nop

00001f90 <hc_fini>:
    1f90:	55                   	push   %ebp
    1f91:	89 e5                	mov    %esp,%ebp
    1f93:	83 ec 08             	sub    $0x8,%esp
    1f96:	8b 4d 08             	mov    0x8(%ebp),%ecx
    1f99:	85 c9                	test   %ecx,%ecx
    1f9b:	74 02                	je     1f9f <hc_fini+0xf>
    1f9d:	c9                   	leave  
    1f9e:	c3                   	ret    
    1f9f:	50                   	push   %eax
    1fa0:	68 c5 00 00 00       	push   $0xc5
    1fa5:	68 72 5b 01 00       	push   $0x15b72
    1faa:	68 0e 22 01 00       	push   $0x1220e
    1faf:	e8 1c 42 01 00       	call   161d0 <assert_abort@plt>
    1fb4:	8d b6 00 00 00 00    	lea    0x0(%esi),%esi
    1fba:	8d bf 00 00 00 00    	lea    0x0(%edi),%edi

00001fc0 <hc_enqueue_endpoint>:
    1fc0:	55                   	push   %ebp
    1fc1:	89 e5                	mov    %esp,%ebp
    1fc3:	57                   	push   %edi
    1fc4:	56                   	push   %esi
    1fc5:	53                   	push   %ebx
    1fc6:	83 ec 1c             	sub    $0x1c,%esp
    1fc9:	8b 5d 08             	mov    0x8(%ebp),%ebx
    1fcc:	8b 55 0c             	mov    0xc(%ebp),%edx
    1fcf:	85 db                	test   %ebx,%ebx
    1fd1:	0f 84 c4 01 00 00    	je     219b <hc_enqueue_endpoint+0x1db>
    1fd7:	85 d2                	test   %edx,%edx
    1fd9:	0f 84 a7 01 00 00    	je     2186 <hc_enqueue_endpoint+0x1c6>
    1fdf:	8b 42 14             	mov    0x14(%edx),%eax
    1fe2:	8b 72 4c             	mov    0x4c(%edx),%esi
    1fe5:	85 f6                	test   %esi,%esi
    1fe7:	8d 0c c0             	lea    (%eax,%eax,8),%ecx
    1fea:	8d 7c 8b 08          	lea    0x8(%ebx,%ecx,4),%edi
    1fee:	0f 84 7d 01 00 00    	je     2171 <hc_enqueue_endpoint+0x1b1>
    1ff4:	83 f8 01             	cmp    $0x1,%eax
    1ff7:	0f 84 13 01 00 00    	je     2110 <hc_enqueue_endpoint+0x150>
    1ffd:	0f 82 9d 00 00 00    	jb     20a0 <hc_enqueue_endpoint+0xe0>
    2003:	83 f8 02             	cmp    $0x2,%eax
    2006:	74 18                	je     2020 <hc_enqueue_endpoint+0x60>
    2008:	83 f8 03             	cmp    $0x3,%eax
    200b:	0f 84 ff 00 00 00    	je     2110 <hc_enqueue_endpoint+0x150>
    2011:	8d 65 f4             	lea    -0xc(%ebp),%esp
    2014:	5b                   	pop    %ebx
    2015:	5e                   	pop    %esi
    2016:	5f                   	pop    %edi
    2017:	5d                   	pop    %ebp
    2018:	c3                   	ret    
    2019:	8d b4 26 00 00 00 00 	lea    0x0(%esi,%eiz,1),%esi
    2020:	8b 03                	mov    (%ebx),%eax
    2022:	83 ec 0c             	sub    $0xc,%esp
    2025:	8d 50 04             	lea    0x4(%eax),%edx
    2028:	52                   	push   %edx
    2029:	89 55 e0             	mov    %edx,-0x20(%ebp)
    202c:	e8 9f 40 01 00       	call   160d0 <pio_read_32@plt>
    2031:	c7 04 24 01 00 00 00 	movl   $0x1,(%esp)
    2038:	89 45 e4             	mov    %eax,-0x1c(%ebp)
    203b:	e8 e0 42 01 00       	call   16320 <udelay@plt>
    2040:	58                   	pop    %eax
    2041:	8b 45 e4             	mov    -0x1c(%ebp),%eax
    2044:	5a                   	pop    %edx
    2045:	83 e0 df             	and    $0xffffffdf,%eax
    2048:	8b 55 e0             	mov    -0x20(%ebp),%edx
    204b:	50                   	push   %eax
    204c:	52                   	push   %edx
    204d:	e8 8e 42 01 00       	call   162e0 <pio_write_32@plt>
    2052:	59                   	pop    %ecx
    2053:	58                   	pop    %eax
    2054:	56                   	push   %esi
    2055:	57                   	push   %edi
    2056:	e8 b5 f2 ff ff       	call   1310 <endpoint_list_add_ep>
    205b:	58                   	pop    %eax
    205c:	5a                   	pop    %edx
    205d:	6a 00                	push   $0x0
    205f:	8b 03                	mov    (%ebx),%eax
    2061:	83 c0 2c             	add    $0x2c,%eax
    2064:	50                   	push   %eax
    2065:	e8 76 42 01 00       	call   162e0 <pio_write_32@plt>
    206a:	8b 1b                	mov    (%ebx),%ebx
    206c:	83 c3 04             	add    $0x4,%ebx
    206f:	89 1c 24             	mov    %ebx,(%esp)
    2072:	e8 59 40 01 00       	call   160d0 <pio_read_32@plt>
    2077:	89 c6                	mov    %eax,%esi
    2079:	c7 04 24 01 00 00 00 	movl   $0x1,(%esp)
    2080:	83 ce 20             	or     $0x20,%esi
    2083:	e8 98 42 01 00       	call   16320 <udelay@plt>
    2088:	83 c4 10             	add    $0x10,%esp
    208b:	89 75 0c             	mov    %esi,0xc(%ebp)
    208e:	89 5d 08             	mov    %ebx,0x8(%ebp)
    2091:	8d 65 f4             	lea    -0xc(%ebp),%esp
    2094:	5b                   	pop    %ebx
    2095:	5e                   	pop    %esi
    2096:	5f                   	pop    %edi
    2097:	5d                   	pop    %ebp
    2098:	e9 43 42 01 00       	jmp    162e0 <pio_write_32@plt>
    209d:	8d 76 00             	lea    0x0(%esi),%esi
    20a0:	8b 03                	mov    (%ebx),%eax
    20a2:	83 ec 0c             	sub    $0xc,%esp
    20a5:	8d 50 04             	lea    0x4(%eax),%edx
    20a8:	52                   	push   %edx
    20a9:	89 55 e0             	mov    %edx,-0x20(%ebp)
    20ac:	e8 1f 40 01 00       	call   160d0 <pio_read_32@plt>
    20b1:	c7 04 24 01 00 00 00 	movl   $0x1,(%esp)
    20b8:	89 45 e4             	mov    %eax,-0x1c(%ebp)
    20bb:	e8 60 42 01 00       	call   16320 <udelay@plt>
    20c0:	59                   	pop    %ecx
    20c1:	58                   	pop    %eax
    20c2:	8b 45 e4             	mov    -0x1c(%ebp),%eax
    20c5:	8b 55 e0             	mov    -0x20(%ebp),%edx
    20c8:	83 e0 ef             	and    $0xffffffef,%eax
    20cb:	50                   	push   %eax
    20cc:	52                   	push   %edx
    20cd:	e8 0e 42 01 00       	call   162e0 <pio_write_32@plt>
    20d2:	58                   	pop    %eax
    20d3:	5a                   	pop    %edx
    20d4:	56                   	push   %esi
    20d5:	57                   	push   %edi
    20d6:	e8 35 f2 ff ff       	call   1310 <endpoint_list_add_ep>
    20db:	59                   	pop    %ecx
    20dc:	5e                   	pop    %esi
    20dd:	6a 00                	push   $0x0
    20df:	8b 03                	mov    (%ebx),%eax
    20e1:	83 c0 24             	add    $0x24,%eax
    20e4:	50                   	push   %eax
    20e5:	e8 f6 41 01 00       	call   162e0 <pio_write_32@plt>
    20ea:	8b 1b                	mov    (%ebx),%ebx
    20ec:	83 c3 04             	add    $0x4,%ebx
    20ef:	89 1c 24             	mov    %ebx,(%esp)
    20f2:	e8 d9 3f 01 00       	call   160d0 <pio_read_32@plt>
    20f7:	89 c6                	mov    %eax,%esi
    20f9:	c7 04 24 01 00 00 00 	movl   $0x1,(%esp)
    2100:	83 ce 10             	or     $0x10,%esi
    2103:	e8 18 42 01 00       	call   16320 <udelay@plt>
    2108:	83 c4 10             	add    $0x10,%esp
    210b:	e9 7b ff ff ff       	jmp    208b <hc_enqueue_endpoint+0xcb>
    2110:	8b 03                	mov    (%ebx),%eax
    2112:	83 ec 0c             	sub    $0xc,%esp
    2115:	8d 50 04             	lea    0x4(%eax),%edx
    2118:	52                   	push   %edx
    2119:	89 55 e0             	mov    %edx,-0x20(%ebp)
    211c:	e8 af 3f 01 00       	call   160d0 <pio_read_32@plt>
    2121:	c7 04 24 01 00 00 00 	movl   $0x1,(%esp)
    2128:	89 45 e4             	mov    %eax,-0x1c(%ebp)
    212b:	e8 f0 41 01 00       	call   16320 <udelay@plt>
    2130:	58                   	pop    %eax
    2131:	8b 45 e4             	mov    -0x1c(%ebp),%eax
    2134:	5a                   	pop    %edx
    2135:	83 e0 f3             	and    $0xfffffff3,%eax
    2138:	8b 55 e0             	mov    -0x20(%ebp),%edx
    213b:	50                   	push   %eax
    213c:	52                   	push   %edx
    213d:	e8 9e 41 01 00       	call   162e0 <pio_write_32@plt>
    2142:	59                   	pop    %ecx
    2143:	58                   	pop    %eax
    2144:	56                   	push   %esi
    2145:	57                   	push   %edi
    2146:	e8 c5 f1 ff ff       	call   1310 <endpoint_list_add_ep>
    214b:	8b 1b                	mov    (%ebx),%ebx
    214d:	83 c3 04             	add    $0x4,%ebx
    2150:	89 1c 24             	mov    %ebx,(%esp)
    2153:	e8 78 3f 01 00       	call   160d0 <pio_read_32@plt>
    2158:	89 c6                	mov    %eax,%esi
    215a:	c7 04 24 01 00 00 00 	movl   $0x1,(%esp)
    2161:	83 ce 0c             	or     $0xc,%esi
    2164:	e8 b7 41 01 00       	call   16320 <udelay@plt>
    2169:	83 c4 10             	add    $0x10,%esp
    216c:	e9 1a ff ff ff       	jmp    208b <hc_enqueue_endpoint+0xcb>
    2171:	57                   	push   %edi
    2172:	68 d1 00 00 00       	push   $0xd1
    2177:	68 72 5b 01 00       	push   $0x15b72
    217c:	68 45 25 01 00       	push   $0x12545
    2181:	e8 4a 40 01 00       	call   161d0 <assert_abort@plt>
    2186:	50                   	push   %eax
    2187:	68 cc 00 00 00       	push   $0xcc
    218c:	68 72 5b 01 00       	push   $0x15b72
    2191:	68 4a 25 01 00       	push   $0x1254a
    2196:	e8 35 40 01 00       	call   161d0 <assert_abort@plt>
    219b:	50                   	push   %eax
    219c:	68 cb 00 00 00       	push   $0xcb
    21a1:	68 72 5b 01 00       	push   $0x15b72
    21a6:	68 0e 22 01 00       	push   $0x1220e
    21ab:	e8 20 40 01 00       	call   161d0 <assert_abort@plt>

000021b0 <hc_dequeue_endpoint>:
    21b0:	55                   	push   %ebp
    21b1:	89 e5                	mov    %esp,%ebp
    21b3:	57                   	push   %edi
    21b4:	56                   	push   %esi
    21b5:	53                   	push   %ebx
    21b6:	83 ec 1c             	sub    $0x1c,%esp
    21b9:	8b 5d 08             	mov    0x8(%ebp),%ebx
    21bc:	8b 55 0c             	mov    0xc(%ebp),%edx
    21bf:	85 db                	test   %ebx,%ebx
    21c1:	0f 84 c4 01 00 00    	je     238b <hc_dequeue_endpoint+0x1db>
    21c7:	85 d2                	test   %edx,%edx
    21c9:	0f 84 a7 01 00 00    	je     2376 <hc_dequeue_endpoint+0x1c6>
    21cf:	8b 42 14             	mov    0x14(%edx),%eax
    21d2:	8b 72 4c             	mov    0x4c(%edx),%esi
    21d5:	85 f6                	test   %esi,%esi
    21d7:	8d 0c c0             	lea    (%eax,%eax,8),%ecx
    21da:	8d 7c 8b 08          	lea    0x8(%ebx,%ecx,4),%edi
    21de:	0f 84 7d 01 00 00    	je     2361 <hc_dequeue_endpoint+0x1b1>
    21e4:	83 f8 01             	cmp    $0x1,%eax
    21e7:	0f 84 13 01 00 00    	je     2300 <hc_dequeue_endpoint+0x150>
    21ed:	0f 82 9d 00 00 00    	jb     2290 <hc_dequeue_endpoint+0xe0>
    21f3:	83 f8 02             	cmp    $0x2,%eax
    21f6:	74 18                	je     2210 <hc_dequeue_endpoint+0x60>
    21f8:	83 f8 03             	cmp    $0x3,%eax
    21fb:	0f 84 ff 00 00 00    	je     2300 <hc_dequeue_endpoint+0x150>
    2201:	8d 65 f4             	lea    -0xc(%ebp),%esp
    2204:	5b                   	pop    %ebx
    2205:	5e                   	pop    %esi
    2206:	5f                   	pop    %edi
    2207:	5d                   	pop    %ebp
    2208:	c3                   	ret    
    2209:	8d b4 26 00 00 00 00 	lea    0x0(%esi,%eiz,1),%esi
    2210:	8b 03                	mov    (%ebx),%eax
    2212:	83 ec 0c             	sub    $0xc,%esp
    2215:	8d 50 04             	lea    0x4(%eax),%edx
    2218:	52                   	push   %edx
    2219:	89 55 e0             	mov    %edx,-0x20(%ebp)
    221c:	e8 af 3e 01 00       	call   160d0 <pio_read_32@plt>
    2221:	c7 04 24 01 00 00 00 	movl   $0x1,(%esp)
    2228:	89 45 e4             	mov    %eax,-0x1c(%ebp)
    222b:	e8 f0 40 01 00       	call   16320 <udelay@plt>
    2230:	58                   	pop    %eax
    2231:	8b 45 e4             	mov    -0x1c(%ebp),%eax
    2234:	5a                   	pop    %edx
    2235:	83 e0 df             	and    $0xffffffdf,%eax
    2238:	8b 55 e0             	mov    -0x20(%ebp),%edx
    223b:	50                   	push   %eax
    223c:	52                   	push   %edx
    223d:	e8 9e 40 01 00       	call   162e0 <pio_write_32@plt>
    2242:	59                   	pop    %ecx
    2243:	58                   	pop    %eax
    2244:	56                   	push   %esi
    2245:	57                   	push   %edi
    2246:	e8 65 f2 ff ff       	call   14b0 <endpoint_list_remove_ep>
    224b:	58                   	pop    %eax
    224c:	5a                   	pop    %edx
    224d:	6a 00                	push   $0x0
    224f:	8b 03                	mov    (%ebx),%eax
    2251:	83 c0 2c             	add    $0x2c,%eax
    2254:	50                   	push   %eax
    2255:	e8 86 40 01 00       	call   162e0 <pio_write_32@plt>
    225a:	8b 1b                	mov    (%ebx),%ebx
    225c:	83 c3 04             	add    $0x4,%ebx
    225f:	89 1c 24             	mov    %ebx,(%esp)
    2262:	e8 69 3e 01 00       	call   160d0 <pio_read_32@plt>
    2267:	89 c6                	mov    %eax,%esi
    2269:	c7 04 24 01 00 00 00 	movl   $0x1,(%esp)
    2270:	83 ce 20             	or     $0x20,%esi
    2273:	e8 a8 40 01 00       	call   16320 <udelay@plt>
    2278:	83 c4 10             	add    $0x10,%esp
    227b:	89 75 0c             	mov    %esi,0xc(%ebp)
    227e:	89 5d 08             	mov    %ebx,0x8(%ebp)
    2281:	8d 65 f4             	lea    -0xc(%ebp),%esp
    2284:	5b                   	pop    %ebx
    2285:	5e                   	pop    %esi
    2286:	5f                   	pop    %edi
    2287:	5d                   	pop    %ebp
    2288:	e9 53 40 01 00       	jmp    162e0 <pio_write_32@plt>
    228d:	8d 76 00             	lea    0x0(%esi),%esi
    2290:	8b 03                	mov    (%ebx),%eax
    2292:	83 ec 0c             	sub    $0xc,%esp
    2295:	8d 50 04             	lea    0x4(%eax),%edx
    2298:	52                   	push   %edx
    2299:	89 55 e0             	mov    %edx,-0x20(%ebp)
    229c:	e8 2f 3e 01 00       	call   160d0 <pio_read_32@plt>
    22a1:	c7 04 24 01 00 00 00 	movl   $0x1,(%esp)
    22a8:	89 45 e4             	mov    %eax,-0x1c(%ebp)
    22ab:	e8 70 40 01 00       	call   16320 <udelay@plt>
    22b0:	59                   	pop    %ecx
    22b1:	58                   	pop    %eax
    22b2:	8b 45 e4             	mov    -0x1c(%ebp),%eax
    22b5:	8b 55 e0             	mov    -0x20(%ebp),%edx
    22b8:	83 e0 ef             	and    $0xffffffef,%eax
    22bb:	50                   	push   %eax
    22bc:	52                   	push   %edx
    22bd:	e8 1e 40 01 00       	call   162e0 <pio_write_32@plt>
    22c2:	58                   	pop    %eax
    22c3:	5a                   	pop    %edx
    22c4:	56                   	push   %esi
    22c5:	57                   	push   %edi
    22c6:	e8 e5 f1 ff ff       	call   14b0 <endpoint_list_remove_ep>
    22cb:	59                   	pop    %ecx
    22cc:	5e                   	pop    %esi
    22cd:	6a 00                	push   $0x0
    22cf:	8b 03                	mov    (%ebx),%eax
    22d1:	83 c0 24             	add    $0x24,%eax
    22d4:	50                   	push   %eax
    22d5:	e8 06 40 01 00       	call   162e0 <pio_write_32@plt>
    22da:	8b 1b                	mov    (%ebx),%ebx
    22dc:	83 c3 04             	add    $0x4,%ebx
    22df:	89 1c 24             	mov    %ebx,(%esp)
    22e2:	e8 e9 3d 01 00       	call   160d0 <pio_read_32@plt>
    22e7:	89 c6                	mov    %eax,%esi
    22e9:	c7 04 24 01 00 00 00 	movl   $0x1,(%esp)
    22f0:	83 ce 10             	or     $0x10,%esi
    22f3:	e8 28 40 01 00       	call   16320 <udelay@plt>
    22f8:	83 c4 10             	add    $0x10,%esp
    22fb:	e9 7b ff ff ff       	jmp    227b <hc_dequeue_endpoint+0xcb>
    2300:	8b 03                	mov    (%ebx),%eax
    2302:	83 ec 0c             	sub    $0xc,%esp
    2305:	8d 50 04             	lea    0x4(%eax),%edx
    2308:	52                   	push   %edx
    2309:	89 55 e0             	mov    %edx,-0x20(%ebp)
    230c:	e8 bf 3d 01 00       	call   160d0 <pio_read_32@plt>
    2311:	c7 04 24 01 00 00 00 	movl   $0x1,(%esp)
    2318:	89 45 e4             	mov    %eax,-0x1c(%ebp)
    231b:	e8 00 40 01 00       	call   16320 <udelay@plt>
    2320:	58                   	pop    %eax
    2321:	8b 45 e4             	mov    -0x1c(%ebp),%eax
    2324:	5a                   	pop    %edx
    2325:	83 e0 f3             	and    $0xfffffff3,%eax
    2328:	8b 55 e0             	mov    -0x20(%ebp),%edx
    232b:	50                   	push   %eax
    232c:	52                   	push   %edx
    232d:	e8 ae 3f 01 00       	call   162e0 <pio_write_32@plt>
    2332:	59                   	pop    %ecx
    2333:	58                   	pop    %eax
    2334:	56                   	push   %esi
    2335:	57                   	push   %edi
    2336:	e8 75 f1 ff ff       	call   14b0 <endpoint_list_remove_ep>
    233b:	8b 1b                	mov    (%ebx),%ebx
    233d:	83 c3 04             	add    $0x4,%ebx
    2340:	89 1c 24             	mov    %ebx,(%esp)
    2343:	e8 88 3d 01 00       	call   160d0 <pio_read_32@plt>
    2348:	89 c6                	mov    %eax,%esi
    234a:	c7 04 24 01 00 00 00 	movl   $0x1,(%esp)
    2351:	83 ce 0c             	or     $0xc,%esi
    2354:	e8 c7 3f 01 00       	call   16320 <udelay@plt>
    2359:	83 c4 10             	add    $0x10,%esp
    235c:	e9 1a ff ff ff       	jmp    227b <hc_dequeue_endpoint+0xcb>
    2361:	57                   	push   %edi
    2362:	68 f4 00 00 00       	push   $0xf4
    2367:	68 72 5b 01 00       	push   $0x15b72
    236c:	68 45 25 01 00       	push   $0x12545
    2371:	e8 5a 3e 01 00       	call   161d0 <assert_abort@plt>
    2376:	50                   	push   %eax
    2377:	68 ed 00 00 00       	push   $0xed
    237c:	68 72 5b 01 00       	push   $0x15b72
    2381:	68 4a 25 01 00       	push   $0x1254a
    2386:	e8 45 3e 01 00       	call   161d0 <assert_abort@plt>
    238b:	50                   	push   %eax
    238c:	68 ec 00 00 00       	push   $0xec
    2391:	68 72 5b 01 00       	push   $0x15b72
    2396:	68 0e 22 01 00       	push   $0x1220e
    239b:	e8 30 3e 01 00       	call   161d0 <assert_abort@plt>

000023a0 <ohci_hc_status>:
    23a0:	55                   	push   %ebp
    23a1:	89 e5                	mov    %esp,%ebp
    23a3:	56                   	push   %esi
    23a4:	53                   	push   %ebx
    23a5:	8b 45 08             	mov    0x8(%ebp),%eax
    23a8:	8b 5d 0c             	mov    0xc(%ebp),%ebx
    23ab:	85 c0                	test   %eax,%eax
    23ad:	74 3c                	je     23eb <ohci_hc_status+0x4b>
    23af:	85 db                	test   %ebx,%ebx
    23b1:	74 62                	je     2415 <ohci_hc_status+0x75>
    23b3:	8b b0 38 08 00 00    	mov    0x838(%eax),%esi
    23b9:	85 f6                	test   %esi,%esi
    23bb:	74 43                	je     2400 <ohci_hc_status+0x60>
    23bd:	8b 06                	mov    (%esi),%eax
    23bf:	85 c0                	test   %eax,%eax
    23c1:	74 1f                	je     23e2 <ohci_hc_status+0x42>
    23c3:	83 ec 0c             	sub    $0xc,%esp
    23c6:	83 c0 0c             	add    $0xc,%eax
    23c9:	50                   	push   %eax
    23ca:	e8 01 3d 01 00       	call   160d0 <pio_read_32@plt>
    23cf:	89 03                	mov    %eax,(%ebx)
    23d1:	5a                   	pop    %edx
    23d2:	59                   	pop    %ecx
    23d3:	50                   	push   %eax
    23d4:	8b 06                	mov    (%esi),%eax
    23d6:	83 c0 0c             	add    $0xc,%eax
    23d9:	50                   	push   %eax
    23da:	e8 01 3f 01 00       	call   162e0 <pio_write_32@plt>
    23df:	83 c4 10             	add    $0x10,%esp
    23e2:	8d 65 f8             	lea    -0x8(%ebp),%esp
    23e5:	31 c0                	xor    %eax,%eax
    23e7:	5b                   	pop    %ebx
    23e8:	5e                   	pop    %esi
    23e9:	5d                   	pop    %ebp
    23ea:	c3                   	ret    
    23eb:	50                   	push   %eax
    23ec:	68 0f 01 00 00       	push   $0x10f
    23f1:	68 72 5b 01 00       	push   $0x15b72
    23f6:	68 4d 25 01 00       	push   $0x1254d
    23fb:	e8 d0 3d 01 00       	call   161d0 <assert_abort@plt>
    2400:	53                   	push   %ebx
    2401:	68 12 01 00 00       	push   $0x112
    2406:	68 72 5b 01 00       	push   $0x15b72
    240b:	68 0e 22 01 00       	push   $0x1220e
    2410:	e8 bb 3d 01 00       	call   161d0 <assert_abort@plt>
    2415:	56                   	push   %esi
    2416:	68 10 01 00 00       	push   $0x110
    241b:	68 72 5b 01 00       	push   $0x15b72
    2420:	68 51 25 01 00       	push   $0x12551
    2425:	e8 a6 3d 01 00       	call   161d0 <assert_abort@plt>
    242a:	8d b6 00 00 00 00    	lea    0x0(%esi),%esi

00002430 <ohci_hc_schedule>:
    2430:	55                   	push   %ebp
    2431:	89 e5                	mov    %esp,%ebp
    2433:	57                   	push   %edi
    2434:	56                   	push   %esi
    2435:	53                   	push   %ebx
    2436:	83 ec 1c             	sub    $0x1c,%esp
    2439:	8b 45 08             	mov    0x8(%ebp),%eax
    243c:	8b 5d 0c             	mov    0xc(%ebp),%ebx
    243f:	85 c0                	test   %eax,%eax
    2441:	0f 84 58 01 00 00    	je     259f <ohci_hc_schedule+0x16f>
    2447:	8b b0 38 08 00 00    	mov    0x838(%eax),%esi
    244d:	85 f6                	test   %esi,%esi
    244f:	0f 84 35 01 00 00    	je     258a <ohci_hc_schedule+0x15a>
    2455:	8b 03                	mov    (%ebx),%eax
    2457:	83 ec 0c             	sub    $0xc,%esp
    245a:	8b 78 0c             	mov    0xc(%eax),%edi
    245d:	8d 86 b8 00 00 00    	lea    0xb8(%esi),%eax
    2463:	50                   	push   %eax
    2464:	89 45 e4             	mov    %eax,-0x1c(%ebp)
    2467:	e8 24 61 00 00       	call   8590 <virthub_base_get_address>
    246c:	83 c4 10             	add    $0x10,%esp
    246f:	66 39 c7             	cmp    %ax,%di
    2472:	0f 84 e0 00 00 00    	je     2558 <ohci_hc_schedule+0x128>
    2478:	83 ec 0c             	sub    $0xc,%esp
    247b:	53                   	push   %ebx
    247c:	e8 ef 0a 00 00       	call   2f70 <ohci_transfer_batch_get>
    2481:	83 c4 10             	add    $0x10,%esp
    2484:	89 c7                	mov    %eax,%edi
    2486:	85 c0                	test   %eax,%eax
    2488:	0f 84 f2 00 00 00    	je     2580 <ohci_hc_schedule+0x150>
    248e:	83 ec 0c             	sub    $0xc,%esp
    2491:	8d 86 a4 00 00 00    	lea    0xa4(%esi),%eax
    2497:	89 45 e4             	mov    %eax,-0x1c(%ebp)
    249a:	50                   	push   %eax
    249b:	e8 00 41 01 00       	call   165a0 <fibril_mutex_lock@plt>
    24a0:	8d 86 98 00 00 00    	lea    0x98(%esi),%eax
    24a6:	89 47 04             	mov    %eax,0x4(%edi)
    24a9:	8b 86 98 00 00 00    	mov    0x98(%esi),%eax
    24af:	89 07                	mov    %eax,(%edi)
    24b1:	8b 86 98 00 00 00    	mov    0x98(%esi),%eax
    24b7:	89 78 04             	mov    %edi,0x4(%eax)
    24ba:	89 be 98 00 00 00    	mov    %edi,0x98(%esi)
    24c0:	89 3c 24             	mov    %edi,(%esp)
    24c3:	e8 98 12 00 00       	call   3760 <ohci_transfer_batch_commit>
    24c8:	8b 03                	mov    (%ebx),%eax
    24ca:	83 c4 10             	add    $0x10,%esp
    24cd:	8b 40 14             	mov    0x14(%eax),%eax
    24d0:	85 c0                	test   %eax,%eax
    24d2:	74 54                	je     2528 <ohci_hc_schedule+0xf8>
    24d4:	83 f8 02             	cmp    $0x2,%eax
    24d7:	74 1f                	je     24f8 <ohci_hc_schedule+0xc8>
    24d9:	83 ec 0c             	sub    $0xc,%esp
    24dc:	8b 45 e4             	mov    -0x1c(%ebp),%eax
    24df:	50                   	push   %eax
    24e0:	e8 8b 3d 01 00       	call   16270 <fibril_mutex_unlock@plt>
    24e5:	83 c4 10             	add    $0x10,%esp
    24e8:	31 c0                	xor    %eax,%eax
    24ea:	8d 65 f4             	lea    -0xc(%ebp),%esp
    24ed:	5b                   	pop    %ebx
    24ee:	5e                   	pop    %esi
    24ef:	5f                   	pop    %edi
    24f0:	5d                   	pop    %ebp
    24f1:	c3                   	ret    
    24f2:	8d b6 00 00 00 00    	lea    0x0(%esi),%esi
    24f8:	83 ec 0c             	sub    $0xc,%esp
    24fb:	8b 1e                	mov    (%esi),%ebx
    24fd:	83 c3 08             	add    $0x8,%ebx
    2500:	53                   	push   %ebx
    2501:	e8 ca 3b 01 00       	call   160d0 <pio_read_32@plt>
    2506:	89 c7                	mov    %eax,%edi
    2508:	c7 04 24 01 00 00 00 	movl   $0x1,(%esp)
    250f:	83 cf 04             	or     $0x4,%edi
    2512:	e8 09 3e 01 00       	call   16320 <udelay@plt>
    2517:	5a                   	pop    %edx
    2518:	59                   	pop    %ecx
    2519:	57                   	push   %edi
    251a:	53                   	push   %ebx
    251b:	e8 c0 3d 01 00       	call   162e0 <pio_write_32@plt>
    2520:	83 c4 10             	add    $0x10,%esp
    2523:	eb b4                	jmp    24d9 <ohci_hc_schedule+0xa9>
    2525:	8d 76 00             	lea    0x0(%esi),%esi
    2528:	83 ec 0c             	sub    $0xc,%esp
    252b:	8b 1e                	mov    (%esi),%ebx
    252d:	83 c3 08             	add    $0x8,%ebx
    2530:	53                   	push   %ebx
    2531:	e8 9a 3b 01 00       	call   160d0 <pio_read_32@plt>
    2536:	89 c7                	mov    %eax,%edi
    2538:	c7 04 24 01 00 00 00 	movl   $0x1,(%esp)
    253f:	83 cf 02             	or     $0x2,%edi
    2542:	e8 d9 3d 01 00       	call   16320 <udelay@plt>
    2547:	5e                   	pop    %esi
    2548:	58                   	pop    %eax
    2549:	57                   	push   %edi
    254a:	53                   	push   %ebx
    254b:	e8 90 3d 01 00       	call   162e0 <pio_write_32@plt>
    2550:	83 c4 10             	add    $0x10,%esp
    2553:	eb 84                	jmp    24d9 <ohci_hc_schedule+0xa9>
    2555:	8d 76 00             	lea    0x0(%esi),%esi
    2558:	50                   	push   %eax
    2559:	68 58 25 01 00       	push   $0x12558
    255e:	6a 04                	push   $0x4
    2560:	6a ff                	push   $0xffffffff
    2562:	e8 19 3c 01 00       	call   16180 <log_msg@plt>
    2567:	8b 45 e4             	mov    -0x1c(%ebp),%eax
    256a:	89 5d 0c             	mov    %ebx,0xc(%ebp)
    256d:	89 45 08             	mov    %eax,0x8(%ebp)
    2570:	83 c4 10             	add    $0x10,%esp
    2573:	8d 65 f4             	lea    -0xc(%ebp),%esp
    2576:	5b                   	pop    %ebx
    2577:	5e                   	pop    %esi
    2578:	5f                   	pop    %edi
    2579:	5d                   	pop    %ebp
    257a:	e9 61 1c 00 00       	jmp    41e0 <ohci_rh_schedule>
    257f:	90                   	nop
    2580:	b8 fe ff ff ff       	mov    $0xfffffffe,%eax
    2585:	e9 60 ff ff ff       	jmp    24ea <ohci_hc_schedule+0xba>
    258a:	50                   	push   %eax
    258b:	68 25 01 00 00       	push   $0x125
    2590:	68 72 5b 01 00       	push   $0x15b72
    2595:	68 0e 22 01 00       	push   $0x1220e
    259a:	e8 31 3c 01 00       	call   161d0 <assert_abort@plt>
    259f:	50                   	push   %eax
    25a0:	68 23 01 00 00       	push   $0x123
    25a5:	68 72 5b 01 00       	push   $0x15b72
    25aa:	68 4d 25 01 00       	push   $0x1254d
    25af:	e8 1c 3c 01 00       	call   161d0 <assert_abort@plt>
    25b4:	8d b6 00 00 00 00    	lea    0x0(%esi),%esi
    25ba:	8d bf 00 00 00 00    	lea    0x0(%edi),%edi

000025c0 <ohci_hc_interrupt>:
    25c0:	55                   	push   %ebp
    25c1:	89 e5                	mov    %esp,%ebp
    25c3:	57                   	push   %edi
    25c4:	56                   	push   %esi
    25c5:	53                   	push   %ebx
    25c6:	83 ec 2c             	sub    $0x2c,%esp
    25c9:	8b 45 08             	mov    0x8(%ebp),%eax
    25cc:	85 c0                	test   %eax,%eax
    25ce:	0f 84 96 01 00 00    	je     276a <ohci_hc_interrupt+0x1aa>
    25d4:	83 ec 0c             	sub    $0xc,%esp
    25d7:	8b 98 38 08 00 00    	mov    0x838(%eax),%ebx
    25dd:	8d 45 0c             	lea    0xc(%ebp),%eax
    25e0:	50                   	push   %eax
    25e1:	e8 ea 3a 01 00       	call   160d0 <pio_read_32@plt>
    25e6:	83 c4 10             	add    $0x10,%esp
    25e9:	89 45 0c             	mov    %eax,0xc(%ebp)
    25ec:	85 db                	test   %ebx,%ebx
    25ee:	0f 84 8b 01 00 00    	je     277f <ohci_hc_interrupt+0x1bf>
    25f4:	a9 fb ff ff ff       	test   $0xfffffffb,%eax
    25f9:	75 0d                	jne    2608 <ohci_hc_interrupt+0x48>
    25fb:	8d 65 f4             	lea    -0xc(%ebp),%esp
    25fe:	5b                   	pop    %ebx
    25ff:	5e                   	pop    %esi
    2600:	5f                   	pop    %edi
    2601:	5d                   	pop    %ebp
    2602:	c3                   	ret    
    2603:	90                   	nop
    2604:	8d 74 26 00          	lea    0x0(%esi,%eiz,1),%esi
    2608:	83 ec 0c             	sub    $0xc,%esp
    260b:	50                   	push   %eax
    260c:	53                   	push   %ebx
    260d:	68 70 25 01 00       	push   $0x12570
    2612:	6a 05                	push   $0x5
    2614:	6a ff                	push   $0xffffffff
    2616:	e8 65 3b 01 00       	call   16180 <log_msg@plt>
    261b:	8b 45 0c             	mov    0xc(%ebp),%eax
    261e:	83 c4 20             	add    $0x20,%esp
    2621:	a8 40                	test   $0x40,%al
    2623:	0f 85 27 01 00 00    	jne    2750 <ohci_hc_interrupt+0x190>
    2629:	a8 02                	test   $0x2,%al
    262b:	75 2b                	jne    2658 <ohci_hc_interrupt+0x98>
    262d:	a8 10                	test   $0x10,%al
    262f:	74 ca                	je     25fb <ohci_hc_interrupt+0x3b>
    2631:	50                   	push   %eax
    2632:	68 b5 25 01 00       	push   $0x125b5
    2637:	6a 00                	push   $0x0
    2639:	6a ff                	push   $0xffffffff
    263b:	e8 40 3b 01 00       	call   16180 <log_msg@plt>
    2640:	89 d8                	mov    %ebx,%eax
    2642:	e8 09 f0 ff ff       	call   1650 <hc_start>
    2647:	83 c4 10             	add    $0x10,%esp
    264a:	8d 65 f4             	lea    -0xc(%ebp),%esp
    264d:	5b                   	pop    %ebx
    264e:	5e                   	pop    %esi
    264f:	5f                   	pop    %edi
    2650:	5d                   	pop    %ebp
    2651:	c3                   	ret    
    2652:	8d b6 00 00 00 00    	lea    0x0(%esi),%esi
    2658:	83 ec 0c             	sub    $0xc,%esp
    265b:	8d 83 a4 00 00 00    	lea    0xa4(%ebx),%eax
    2661:	89 45 d4             	mov    %eax,-0x2c(%ebp)
    2664:	31 f6                	xor    %esi,%esi
    2666:	50                   	push   %eax
    2667:	e8 34 3f 01 00       	call   165a0 <fibril_mutex_lock@plt>
    266c:	58                   	pop    %eax
    266d:	8b 4b 04             	mov    0x4(%ebx),%ecx
    2670:	8d 45 e4             	lea    -0x1c(%ebp),%eax
    2673:	5a                   	pop    %edx
    2674:	50                   	push   %eax
    2675:	51                   	push   %ecx
    2676:	e8 85 3c 01 00       	call   16300 <as_get_physical_mapping@plt>
    267b:	83 c4 10             	add    $0x10,%esp
    267e:	85 c0                	test   %eax,%eax
    2680:	75 03                	jne    2685 <ohci_hc_interrupt+0xc5>
    2682:	8b 75 e4             	mov    -0x1c(%ebp),%esi
    2685:	83 ec 0c             	sub    $0xc,%esp
    2688:	8b 03                	mov    (%ebx),%eax
    268a:	83 c0 18             	add    $0x18,%eax
    268d:	50                   	push   %eax
    268e:	e8 3d 3a 01 00       	call   160d0 <pio_read_32@plt>
    2693:	59                   	pop    %ecx
    2694:	5f                   	pop    %edi
    2695:	56                   	push   %esi
    2696:	50                   	push   %eax
    2697:	8b 43 04             	mov    0x4(%ebx),%eax
    269a:	50                   	push   %eax
    269b:	68 89 25 01 00       	push   $0x12589
    26a0:	6a 05                	push   $0x5
    26a2:	6a ff                	push   $0xffffffff
    26a4:	e8 d7 3a 01 00       	call   16180 <log_msg@plt>
    26a9:	83 c4 14             	add    $0x14,%esp
    26ac:	8b 03                	mov    (%ebx),%eax
    26ae:	83 c0 1c             	add    $0x1c,%eax
    26b1:	50                   	push   %eax
    26b2:	e8 19 3a 01 00       	call   160d0 <pio_read_32@plt>
    26b7:	50                   	push   %eax
    26b8:	68 9d 25 01 00       	push   $0x1259d
    26bd:	6a 05                	push   $0x5
    26bf:	6a ff                	push   $0xffffffff
    26c1:	e8 ba 3a 01 00       	call   16180 <log_msg@plt>
    26c6:	8b bb 9c 00 00 00    	mov    0x9c(%ebx),%edi
    26cc:	8d 83 98 00 00 00    	lea    0x98(%ebx),%eax
    26d2:	83 c4 20             	add    $0x20,%esp
    26d5:	39 f8                	cmp    %edi,%eax
    26d7:	74 5a                	je     2733 <ohci_hc_interrupt+0x173>
    26d9:	89 5d d0             	mov    %ebx,-0x30(%ebp)
    26dc:	89 fb                	mov    %edi,%ebx
    26de:	89 c7                	mov    %eax,%edi
    26e0:	39 fb                	cmp    %edi,%ebx
    26e2:	74 4c                	je     2730 <ohci_hc_interrupt+0x170>
    26e4:	85 db                	test   %ebx,%ebx
    26e6:	74 48                	je     2730 <ohci_hc_interrupt+0x170>
    26e8:	83 ec 0c             	sub    $0xc,%esp
    26eb:	8b 73 04             	mov    0x4(%ebx),%esi
    26ee:	53                   	push   %ebx
    26ef:	e8 7c 0c 00 00       	call   3370 <ohci_transfer_batch_is_complete>
    26f4:	83 c4 10             	add    $0x10,%esp
    26f7:	84 c0                	test   %al,%al
    26f9:	74 2d                	je     2728 <ohci_hc_interrupt+0x168>
    26fb:	8b 0b                	mov    (%ebx),%ecx
    26fd:	85 c9                	test   %ecx,%ecx
    26ff:	74 0e                	je     270f <ohci_hc_interrupt+0x14f>
    2701:	8b 43 04             	mov    0x4(%ebx),%eax
    2704:	85 c0                	test   %eax,%eax
    2706:	74 07                	je     270f <ohci_hc_interrupt+0x14f>
    2708:	89 08                	mov    %ecx,(%eax)
    270a:	8b 0b                	mov    (%ebx),%ecx
    270c:	89 41 04             	mov    %eax,0x4(%ecx)
    270f:	83 ec 0c             	sub    $0xc,%esp
    2712:	c7 03 00 00 00 00    	movl   $0x0,(%ebx)
    2718:	c7 43 04 00 00 00 00 	movl   $0x0,0x4(%ebx)
    271f:	53                   	push   %ebx
    2720:	e8 5b 07 00 00       	call   2e80 <ohci_transfer_batch_finish_dispose>
    2725:	83 c4 10             	add    $0x10,%esp
    2728:	89 f3                	mov    %esi,%ebx
    272a:	eb b4                	jmp    26e0 <ohci_hc_interrupt+0x120>
    272c:	8d 74 26 00          	lea    0x0(%esi,%eiz,1),%esi
    2730:	8b 5d d0             	mov    -0x30(%ebp),%ebx
    2733:	83 ec 0c             	sub    $0xc,%esp
    2736:	8b 55 d4             	mov    -0x2c(%ebp),%edx
    2739:	52                   	push   %edx
    273a:	e8 31 3b 01 00       	call   16270 <fibril_mutex_unlock@plt>
    273f:	8b 45 0c             	mov    0xc(%ebp),%eax
    2742:	83 c4 10             	add    $0x10,%esp
    2745:	e9 e3 fe ff ff       	jmp    262d <ohci_hc_interrupt+0x6d>
    274a:	8d b6 00 00 00 00    	lea    0x0(%esi),%esi
    2750:	83 ec 0c             	sub    $0xc,%esp
    2753:	8d 83 b8 00 00 00    	lea    0xb8(%ebx),%eax
    2759:	50                   	push   %eax
    275a:	e8 11 1c 00 00       	call   4370 <ohci_rh_interrupt>
    275f:	8b 45 0c             	mov    0xc(%ebp),%eax
    2762:	83 c4 10             	add    $0x10,%esp
    2765:	e9 bf fe ff ff       	jmp    2629 <ohci_hc_interrupt+0x69>
    276a:	56                   	push   %esi
    276b:	68 4b 01 00 00       	push   $0x14b
    2770:	68 72 5b 01 00       	push   $0x15b72
    2775:	68 4d 25 01 00       	push   $0x1254d
    277a:	e8 51 3a 01 00       	call   161d0 <assert_abort@plt>
    277f:	53                   	push   %ebx
    2780:	68 4e 01 00 00       	push   $0x14e
    2785:	68 72 5b 01 00       	push   $0x15b72
    278a:	68 0e 22 01 00       	push   $0x1220e
    278f:	e8 3c 3a 01 00       	call   161d0 <assert_abort@plt>

00002794 <endpoint_list_fini.part.2>:
    2794:	55                   	push   %ebp
    2795:	89 e5                	mov    %esp,%ebp
    2797:	83 ec 0c             	sub    $0xc,%esp
    279a:	6a 44                	push   $0x44
    279c:	68 d7 23 01 00       	push   $0x123d7
    27a1:	68 0e 22 01 00       	push   $0x1220e
    27a6:	e8 25 3a 01 00       	call   161d0 <assert_abort@plt>
    27ab:	66 90                	xchg   %ax,%ax
    27ad:	66 90                	xchg   %ax,%ax
    27af:	90                   	nop

000027b0 <ohci_dev_add>:
    27b0:	55                   	push   %ebp
    27b1:	89 e5                	mov    %esp,%ebp
    27b3:	53                   	push   %ebx
    27b4:	83 ec 08             	sub    $0x8,%esp
    27b7:	8b 5d 08             	mov    0x8(%ebp),%ebx
    27ba:	68 ec 28 01 00       	push   $0x128ec
    27bf:	6a 04                	push   $0x4
    27c1:	6a ff                	push   $0xffffffff
    27c3:	e8 b8 39 01 00       	call   16180 <log_msg@plt>
    27c8:	83 c4 10             	add    $0x10,%esp
    27cb:	85 db                	test   %ebx,%ebx
    27cd:	74 12                	je     27e1 <ohci_dev_add+0x31>
    27cf:	50                   	push   %eax
    27d0:	50                   	push   %eax
    27d1:	68 60 29 01 00       	push   $0x12960
    27d6:	53                   	push   %ebx
    27d7:	e8 34 38 00 00       	call   6010 <hcd_ddf_add_hc>
    27dc:	8b 5d fc             	mov    -0x4(%ebp),%ebx
    27df:	c9                   	leave  
    27e0:	c3                   	ret    
    27e1:	52                   	push   %edx
    27e2:	6a 69                	push   $0x69
    27e4:	68 03 29 01 00       	push   $0x12903
    27e9:	68 0a 29 01 00       	push   $0x1290a
    27ee:	e8 dd 39 01 00       	call   161d0 <assert_abort@plt>
    27f3:	8d b6 00 00 00 00    	lea    0x0(%esi),%esi
    27f9:	8d bc 27 00 00 00 00 	lea    0x0(%edi,%eiz,1),%edi

00002800 <ohci_driver_fini>:
    2800:	55                   	push   %ebp
    2801:	89 e5                	mov    %esp,%ebp
    2803:	56                   	push   %esi
    2804:	53                   	push   %ebx
    2805:	8b 5d 08             	mov    0x8(%ebp),%ebx
    2808:	85 db                	test   %ebx,%ebx
    280a:	74 38                	je     2844 <ohci_driver_fini+0x44>
    280c:	8b b3 38 08 00 00    	mov    0x838(%ebx),%esi
    2812:	85 f6                	test   %esi,%esi
    2814:	74 0c                	je     2822 <ohci_driver_fini+0x22>
    2816:	83 ec 0c             	sub    $0xc,%esp
    2819:	56                   	push   %esi
    281a:	e8 71 f7 ff ff       	call   1f90 <hc_fini>
    281f:	83 c4 10             	add    $0x10,%esp
    2822:	81 c3 24 08 00 00    	add    $0x824,%ebx
    2828:	50                   	push   %eax
    2829:	6a 14                	push   $0x14
    282b:	6a 00                	push   $0x0
    282d:	53                   	push   %ebx
    282e:	e8 2d 3b 01 00       	call   16360 <memset@plt>
    2833:	89 75 08             	mov    %esi,0x8(%ebp)
    2836:	83 c4 10             	add    $0x10,%esp
    2839:	8d 65 f8             	lea    -0x8(%ebp),%esp
    283c:	5b                   	pop    %ebx
    283d:	5e                   	pop    %esi
    283e:	5d                   	pop    %ebp
    283f:	e9 3c 3d 01 00       	jmp    16580 <free@plt>
    2844:	52                   	push   %edx
    2845:	6a 58                	push   $0x58
    2847:	68 03 29 01 00       	push   $0x12903
    284c:	68 4d 25 01 00       	push   $0x1254d
    2851:	e8 7a 39 01 00       	call   161d0 <assert_abort@plt>
    2856:	8d 76 00             	lea    0x0(%esi),%esi
    2859:	8d bc 27 00 00 00 00 	lea    0x0(%edi,%eiz,1),%edi

00002860 <ohci_driver_init>:
    2860:	55                   	push   %ebp
    2861:	89 e5                	mov    %esp,%ebp
    2863:	57                   	push   %edi
    2864:	56                   	push   %esi
    2865:	53                   	push   %ebx
    2866:	83 ec 1c             	sub    $0x1c,%esp
    2869:	8b 5d 08             	mov    0x8(%ebp),%ebx
    286c:	8b 7d 10             	mov    0x10(%ebp),%edi
    286f:	85 db                	test   %ebx,%ebx
    2871:	0f 84 c2 00 00 00    	je     2939 <ohci_driver_init+0xd9>
    2877:	8b b3 38 08 00 00    	mov    0x838(%ebx),%esi
    287d:	85 f6                	test   %esi,%esi
    287f:	0f 85 a2 00 00 00    	jne    2927 <ohci_driver_init+0xc7>
    2885:	83 ec 0c             	sub    $0xc,%esp
    2888:	68 34 01 00 00       	push   $0x134
    288d:	e8 4e 38 01 00       	call   160e0 <malloc@plt>
    2892:	83 c4 10             	add    $0x10,%esp
    2895:	89 c6                	mov    %eax,%esi
    2897:	85 c0                	test   %eax,%eax
    2899:	0f 84 81 00 00 00    	je     2920 <ohci_driver_init+0xc0>
    289f:	81 e7 ff 00 00 00    	and    $0xff,%edi
    28a5:	8b 55 0c             	mov    0xc(%ebp),%edx
    28a8:	50                   	push   %eax
    28a9:	57                   	push   %edi
    28aa:	52                   	push   %edx
    28ab:	56                   	push   %esi
    28ac:	e8 af f1 ff ff       	call   1a60 <hc_init>
    28b1:	83 c4 10             	add    $0x10,%esp
    28b4:	85 c0                	test   %eax,%eax
    28b6:	75 48                	jne    2900 <ohci_driver_init+0xa0>
    28b8:	a1 60 29 01 00       	mov    0x12960,%eax
    28bd:	89 b3 38 08 00 00    	mov    %esi,0x838(%ebx)
    28c3:	89 83 24 08 00 00    	mov    %eax,0x824(%ebx)
    28c9:	a1 64 29 01 00       	mov    0x12964,%eax
    28ce:	89 83 28 08 00 00    	mov    %eax,0x828(%ebx)
    28d4:	a1 68 29 01 00       	mov    0x12968,%eax
    28d9:	89 83 2c 08 00 00    	mov    %eax,0x82c(%ebx)
    28df:	a1 6c 29 01 00       	mov    0x1296c,%eax
    28e4:	89 83 30 08 00 00    	mov    %eax,0x830(%ebx)
    28ea:	a1 70 29 01 00       	mov    0x12970,%eax
    28ef:	89 83 34 08 00 00    	mov    %eax,0x834(%ebx)
    28f5:	31 c0                	xor    %eax,%eax
    28f7:	8d 65 f4             	lea    -0xc(%ebp),%esp
    28fa:	5b                   	pop    %ebx
    28fb:	5e                   	pop    %esi
    28fc:	5f                   	pop    %edi
    28fd:	5d                   	pop    %ebp
    28fe:	c3                   	ret    
    28ff:	90                   	nop
    2900:	83 ec 0c             	sub    $0xc,%esp
    2903:	89 45 e4             	mov    %eax,-0x1c(%ebp)
    2906:	56                   	push   %esi
    2907:	e8 74 3c 01 00       	call   16580 <free@plt>
    290c:	8b 45 e4             	mov    -0x1c(%ebp),%eax
    290f:	83 c4 10             	add    $0x10,%esp
    2912:	8d 65 f4             	lea    -0xc(%ebp),%esp
    2915:	5b                   	pop    %ebx
    2916:	5e                   	pop    %esi
    2917:	5f                   	pop    %edi
    2918:	5d                   	pop    %ebp
    2919:	c3                   	ret    
    291a:	8d b6 00 00 00 00    	lea    0x0(%esi),%esi
    2920:	b8 fe ff ff ff       	mov    $0xfffffffe,%eax
    2925:	eb d0                	jmp    28f7 <ohci_driver_init+0x97>
    2927:	51                   	push   %ecx
    2928:	6a 47                	push   $0x47
    292a:	68 03 29 01 00       	push   $0x12903
    292f:	68 1c 29 01 00       	push   $0x1291c
    2934:	e8 97 38 01 00       	call   161d0 <assert_abort@plt>
    2939:	57                   	push   %edi
    293a:	6a 46                	push   $0x46
    293c:	68 03 29 01 00       	push   $0x12903
    2941:	68 4d 25 01 00       	push   $0x1254d
    2946:	e8 85 38 01 00       	call   161d0 <assert_abort@plt>
    294b:	66 90                	xchg   %ax,%ax
    294d:	66 90                	xchg   %ax,%ax
    294f:	90                   	nop

00002950 <main>:
    2950:	8d 4c 24 04          	lea    0x4(%esp),%ecx
    2954:	83 e4 f0             	and    $0xfffffff0,%esp
    2957:	ff 71 fc             	pushl  -0x4(%ecx)
    295a:	55                   	push   %ebp
    295b:	89 e5                	mov    %esp,%ebp
    295d:	51                   	push   %ecx
    295e:	83 ec 10             	sub    $0x10,%esp
    2961:	68 11 29 01 00       	push   $0x12911
    2966:	e8 d5 36 01 00       	call   16040 <log_init@plt>
    296b:	c7 04 24 40 29 01 00 	movl   $0x12940,(%esp)
    2972:	e8 f9 74 00 00       	call   9e70 <ddf_driver_main>
    2977:	8b 4d fc             	mov    -0x4(%ebp),%ecx
    297a:	c9                   	leave  
    297b:	8d 61 fc             	lea    -0x4(%ecx),%esp
    297e:	c3                   	ret    
    297f:	90                   	nop

00002980 <batch_data>:
    2980:	55                   	push   %ebp
    2981:	89 e5                	mov    %esp,%ebp
    2983:	57                   	push   %edi
    2984:	56                   	push   %esi
    2985:	53                   	push   %ebx
    2986:	83 ec 2c             	sub    $0x2c,%esp
    2989:	8b 75 08             	mov    0x8(%ebp),%esi
    298c:	85 f6                	test   %esi,%esi
    298e:	0f 84 dc 01 00 00    	je     2b70 <batch_data+0x1f0>
    2994:	8b 46 18             	mov    0x18(%esi),%eax
    2997:	85 c0                	test   %eax,%eax
    2999:	0f 84 bc 01 00 00    	je     2b5b <batch_data+0x1db>
    299f:	83 7d 0c 01          	cmpl   $0x1,0xc(%ebp)
    29a3:	0f 87 9d 01 00 00    	ja     2b46 <batch_data+0x1c6>
    29a9:	8b 46 08             	mov    0x8(%esi),%eax
    29ac:	8b 78 0c             	mov    0xc(%eax),%edi
    29af:	8b 58 08             	mov    0x8(%eax),%ebx
    29b2:	8b 48 04             	mov    0x4(%eax),%ecx
    29b5:	8b 10                	mov    (%eax),%edx
    29b7:	57                   	push   %edi
    29b8:	53                   	push   %ebx
    29b9:	51                   	push   %ecx
    29ba:	52                   	push   %edx
    29bb:	50                   	push   %eax
    29bc:	68 70 2a 01 00       	push   $0x12a70
    29c1:	6a 04                	push   $0x4
    29c3:	6a ff                	push   $0xffffffff
    29c5:	e8 b6 37 01 00       	call   16180 <log_msg@plt>
    29ca:	8b 46 18             	mov    0x18(%esi),%eax
    29cd:	8b 56 14             	mov    0x14(%esi),%edx
    29d0:	8b 58 14             	mov    0x14(%eax),%ebx
    29d3:	83 c4 20             	add    $0x20,%esp
    29d6:	89 5d e4             	mov    %ebx,-0x1c(%ebp)
    29d9:	89 55 dc             	mov    %edx,-0x24(%ebp)
    29dc:	85 db                	test   %ebx,%ebx
    29de:	0f 84 ad 00 00 00    	je     2a91 <batch_data+0x111>
    29e4:	c7 45 e0 00 00 00 00 	movl   $0x0,-0x20(%ebp)
    29eb:	90                   	nop
    29ec:	8d 74 26 00          	lea    0x0(%esi,%eiz,1),%esi
    29f0:	8b 45 e4             	mov    -0x1c(%ebp),%eax
    29f3:	89 c3                	mov    %eax,%ebx
    29f5:	3d 00 10 00 00       	cmp    $0x1000,%eax
    29fa:	76 05                	jbe    2a01 <batch_data+0x81>
    29fc:	bb 00 10 00 00       	mov    $0x1000,%ebx
    2a01:	8b 7d e0             	mov    -0x20(%ebp),%edi
    2a04:	8b 46 0c             	mov    0xc(%esi),%eax
    2a07:	8d 4f 01             	lea    0x1(%edi),%ecx
    2a0a:	89 4d d8             	mov    %ecx,-0x28(%ebp)
    2a0d:	8d 14 8d 00 00 00 00 	lea    0x0(,%ecx,4),%edx
    2a14:	51                   	push   %ecx
    2a15:	51                   	push   %ecx
    2a16:	8b 4d dc             	mov    -0x24(%ebp),%ecx
    2a19:	6a ff                	push   $0xffffffff
    2a1b:	53                   	push   %ebx
    2a1c:	51                   	push   %ecx
    2a1d:	8b 4d 0c             	mov    0xc(%ebp),%ecx
    2a20:	51                   	push   %ecx
    2a21:	8d 7a fc             	lea    -0x4(%edx),%edi
    2a24:	8b 0c 10             	mov    (%eax,%edx,1),%ecx
    2a27:	51                   	push   %ecx
    2a28:	8b 44 10 fc          	mov    -0x4(%eax,%edx,1),%eax
    2a2c:	50                   	push   %eax
    2a2d:	e8 8e 1b 00 00       	call   45c0 <td_init>
    2a32:	8b 46 0c             	mov    0xc(%esi),%eax
    2a35:	83 c4 1c             	add    $0x1c,%esp
    2a38:	8b 04 38             	mov    (%eax,%edi,1),%eax
    2a3b:	8b 78 0c             	mov    0xc(%eax),%edi
    2a3e:	8b 48 08             	mov    0x8(%eax),%ecx
    2a41:	8b 50 04             	mov    0x4(%eax),%edx
    2a44:	8b 00                	mov    (%eax),%eax
    2a46:	57                   	push   %edi
    2a47:	51                   	push   %ecx
    2a48:	52                   	push   %edx
    2a49:	50                   	push   %eax
    2a4a:	68 94 2a 01 00       	push   $0x12a94
    2a4f:	6a 04                	push   $0x4
    2a51:	6a ff                	push   $0xffffffff
    2a53:	e8 28 37 01 00       	call   16180 <log_msg@plt>
    2a58:	8b 45 dc             	mov    -0x24(%ebp),%eax
    2a5b:	8b 7d e0             	mov    -0x20(%ebp),%edi
    2a5e:	01 d8                	add    %ebx,%eax
    2a60:	83 c4 20             	add    $0x20,%esp
    2a63:	89 45 dc             	mov    %eax,-0x24(%ebp)
    2a66:	8b 45 e4             	mov    -0x1c(%ebp),%eax
    2a69:	29 d8                	sub    %ebx,%eax
    2a6b:	39 7e 10             	cmp    %edi,0x10(%esi)
    2a6e:	89 45 e4             	mov    %eax,-0x1c(%ebp)
    2a71:	0f 86 ba 00 00 00    	jbe    2b31 <batch_data+0x1b1>
    2a77:	8b 45 d8             	mov    -0x28(%ebp),%eax
    2a7a:	8b 7d e4             	mov    -0x1c(%ebp),%edi
    2a7d:	89 45 e0             	mov    %eax,-0x20(%ebp)
    2a80:	85 ff                	test   %edi,%edi
    2a82:	0f 85 68 ff ff ff    	jne    29f0 <batch_data+0x70>
    2a88:	8b 46 18             	mov    0x18(%esi),%eax
    2a8b:	8b 58 14             	mov    0x14(%eax),%ebx
    2a8e:	89 5d e4             	mov    %ebx,-0x1c(%ebp)
    2a91:	8b 00                	mov    (%eax),%eax
    2a93:	83 ec 0c             	sub    $0xc,%esp
    2a96:	8b 50 1c             	mov    0x1c(%eax),%edx
    2a99:	8b 40 10             	mov    0x10(%eax),%eax
    2a9c:	50                   	push   %eax
    2a9d:	89 55 d0             	mov    %edx,-0x30(%ebp)
    2aa0:	e8 8b 62 00 00       	call   8d30 <usb_str_direction>
    2aa5:	5a                   	pop    %edx
    2aa6:	89 45 d4             	mov    %eax,-0x2c(%ebp)
    2aa9:	8b 46 18             	mov    0x18(%esi),%eax
    2aac:	8b 00                	mov    (%eax),%eax
    2aae:	8b 48 14             	mov    0x14(%eax),%ecx
    2ab1:	51                   	push   %ecx
    2ab2:	e8 59 62 00 00       	call   8d10 <usb_str_transfer_type_short>
    2ab7:	89 45 e0             	mov    %eax,-0x20(%ebp)
    2aba:	8b 46 18             	mov    0x18(%esi),%eax
    2abd:	5b                   	pop    %ebx
    2abe:	8b 00                	mov    (%eax),%eax
    2ac0:	8b 78 18             	mov    0x18(%eax),%edi
    2ac3:	57                   	push   %edi
    2ac4:	e8 87 62 00 00       	call   8d50 <usb_str_speed>
    2ac9:	89 45 dc             	mov    %eax,-0x24(%ebp)
    2acc:	8b 46 18             	mov    0x18(%esi),%eax
    2acf:	8b 00                	mov    (%eax),%eax
    2ad1:	0f bf 58 0e          	movswl 0xe(%eax),%ebx
    2ad5:	89 5d d8             	mov    %ebx,-0x28(%ebp)
    2ad8:	0f bf 58 0c          	movswl 0xc(%eax),%ebx
    2adc:	58                   	pop    %eax
    2add:	8b 45 0c             	mov    0xc(%ebp),%eax
    2ae0:	50                   	push   %eax
    2ae1:	e8 4a 62 00 00       	call   8d30 <usb_str_direction>
    2ae6:	89 c7                	mov    %eax,%edi
    2ae8:	58                   	pop    %eax
    2ae9:	8b 46 18             	mov    0x18(%esi),%eax
    2aec:	8b 00                	mov    (%eax),%eax
    2aee:	8b 40 14             	mov    0x14(%eax),%eax
    2af1:	50                   	push   %eax
    2af2:	e8 f9 61 00 00       	call   8cf0 <usb_str_transfer_type>
    2af7:	8b 55 d0             	mov    -0x30(%ebp),%edx
    2afa:	8b 4d d4             	mov    -0x2c(%ebp),%ecx
    2afd:	89 14 24             	mov    %edx,(%esp)
    2b00:	8b 55 e4             	mov    -0x1c(%ebp),%edx
    2b03:	52                   	push   %edx
    2b04:	51                   	push   %ecx
    2b05:	8b 4d e0             	mov    -0x20(%ebp),%ecx
    2b08:	8b 55 dc             	mov    -0x24(%ebp),%edx
    2b0b:	51                   	push   %ecx
    2b0c:	8b 4d d8             	mov    -0x28(%ebp),%ecx
    2b0f:	52                   	push   %edx
    2b10:	51                   	push   %ecx
    2b11:	53                   	push   %ebx
    2b12:	57                   	push   %edi
    2b13:	50                   	push   %eax
    2b14:	8b 5e 18             	mov    0x18(%esi),%ebx
    2b17:	53                   	push   %ebx
    2b18:	68 e0 2a 01 00       	push   $0x12ae0
    2b1d:	6a 05                	push   $0x5
    2b1f:	6a ff                	push   $0xffffffff
    2b21:	e8 5a 36 01 00       	call   16180 <log_msg@plt>
    2b26:	83 c4 40             	add    $0x40,%esp
    2b29:	8d 65 f4             	lea    -0xc(%ebp),%esp
    2b2c:	5b                   	pop    %ebx
    2b2d:	5e                   	pop    %esi
    2b2e:	5f                   	pop    %edi
    2b2f:	5d                   	pop    %ebp
    2b30:	c3                   	ret    
    2b31:	50                   	push   %eax
    2b32:	68 87 01 00 00       	push   $0x187
    2b37:	68 90 29 01 00       	push   $0x12990
    2b3c:	68 bc 2a 01 00       	push   $0x12abc
    2b41:	e8 8a 36 01 00       	call   161d0 <assert_abort@plt>
    2b46:	50                   	push   %eax
    2b47:	68 6f 01 00 00       	push   $0x16f
    2b4c:	68 90 29 01 00       	push   $0x12990
    2b51:	68 3c 2a 01 00       	push   $0x12a3c
    2b56:	e8 75 36 01 00       	call   161d0 <assert_abort@plt>
    2b5b:	50                   	push   %eax
    2b5c:	68 6e 01 00 00       	push   $0x16e
    2b61:	68 90 29 01 00       	push   $0x12990
    2b66:	68 a8 29 01 00       	push   $0x129a8
    2b6b:	e8 60 36 01 00       	call   161d0 <assert_abort@plt>
    2b70:	52                   	push   %edx
    2b71:	68 6d 01 00 00       	push   $0x16d
    2b76:	68 90 29 01 00       	push   $0x12990
    2b7b:	68 9d 29 01 00       	push   $0x1299d
    2b80:	e8 4b 36 01 00       	call   161d0 <assert_abort@plt>
    2b85:	8d 74 26 00          	lea    0x0(%esi,%eiz,1),%esi
    2b89:	8d bc 27 00 00 00 00 	lea    0x0(%edi,%eiz,1),%edi

00002b90 <batch_control>:
    2b90:	55                   	push   %ebp
    2b91:	89 e5                	mov    %esp,%ebp
    2b93:	57                   	push   %edi
    2b94:	56                   	push   %esi
    2b95:	53                   	push   %ebx
    2b96:	83 ec 2c             	sub    $0x2c,%esp
    2b99:	8b 75 08             	mov    0x8(%ebp),%esi
    2b9c:	85 f6                	test   %esi,%esi
    2b9e:	0f 84 91 02 00 00    	je     2e35 <batch_control+0x2a5>
    2ba4:	8b 7e 18             	mov    0x18(%esi),%edi
    2ba7:	85 ff                	test   %edi,%edi
    2ba9:	0f 84 9b 02 00 00    	je     2e4a <batch_control+0x2ba>
    2baf:	83 7d 0c 01          	cmpl   $0x1,0xc(%ebp)
    2bb3:	0f 87 a6 02 00 00    	ja     2e5f <batch_control+0x2cf>
    2bb9:	8b 46 08             	mov    0x8(%esi),%eax
    2bbc:	8b 78 0c             	mov    0xc(%eax),%edi
    2bbf:	8b 58 08             	mov    0x8(%eax),%ebx
    2bc2:	8b 48 04             	mov    0x4(%eax),%ecx
    2bc5:	8b 10                	mov    (%eax),%edx
    2bc7:	57                   	push   %edi
    2bc8:	53                   	push   %ebx
    2bc9:	51                   	push   %ecx
    2bca:	52                   	push   %edx
    2bcb:	50                   	push   %eax
    2bcc:	68 70 2a 01 00       	push   $0x12a70
    2bd1:	6a 04                	push   $0x4
    2bd3:	6a ff                	push   $0xffffffff
    2bd5:	e8 a6 35 01 00       	call   16180 <log_msg@plt>
    2bda:	8b 45 0c             	mov    0xc(%ebp),%eax
    2bdd:	83 c4 18             	add    $0x18,%esp
    2be0:	8b 04 85 f8 2f 01 00 	mov    0x12ff8(,%eax,4),%eax
    2be7:	8b 5e 14             	mov    0x14(%esi),%ebx
    2bea:	89 45 cc             	mov    %eax,-0x34(%ebp)
    2bed:	8b 46 0c             	mov    0xc(%esi),%eax
    2bf0:	6a 00                	push   $0x0
    2bf2:	8b 56 18             	mov    0x18(%esi),%edx
    2bf5:	8b 52 20             	mov    0x20(%edx),%edx
    2bf8:	52                   	push   %edx
    2bf9:	53                   	push   %ebx
    2bfa:	6a 02                	push   $0x2
    2bfc:	8b 48 04             	mov    0x4(%eax),%ecx
    2bff:	51                   	push   %ecx
    2c00:	8b 38                	mov    (%eax),%edi
    2c02:	57                   	push   %edi
    2c03:	e8 b8 19 00 00       	call   45c0 <td_init>
    2c08:	8b 46 0c             	mov    0xc(%esi),%eax
    2c0b:	83 c4 1c             	add    $0x1c,%esp
    2c0e:	8b 00                	mov    (%eax),%eax
    2c10:	8b 48 0c             	mov    0xc(%eax),%ecx
    2c13:	8b 78 08             	mov    0x8(%eax),%edi
    2c16:	8b 50 04             	mov    0x4(%eax),%edx
    2c19:	8b 00                	mov    (%eax),%eax
    2c1b:	51                   	push   %ecx
    2c1c:	57                   	push   %edi
    2c1d:	52                   	push   %edx
    2c1e:	50                   	push   %eax
    2c1f:	68 18 2b 01 00       	push   $0x12b18
    2c24:	6a 04                	push   $0x4
    2c26:	6a ff                	push   $0xffffffff
    2c28:	e8 53 35 01 00       	call   16180 <log_msg@plt>
    2c2d:	8b 46 18             	mov    0x18(%esi),%eax
    2c30:	83 c4 20             	add    $0x20,%esp
    2c33:	c7 45 e4 01 00 00 00 	movl   $0x1,-0x1c(%ebp)
    2c3a:	c7 45 d8 00 00 00 00 	movl   $0x0,-0x28(%ebp)
    2c41:	8b 50 20             	mov    0x20(%eax),%edx
    2c44:	8b 40 14             	mov    0x14(%eax),%eax
    2c47:	01 d3                	add    %edx,%ebx
    2c49:	89 45 e0             	mov    %eax,-0x20(%ebp)
    2c4c:	89 5d dc             	mov    %ebx,-0x24(%ebp)
    2c4f:	85 c0                	test   %eax,%eax
    2c51:	0f 84 a1 01 00 00    	je     2df8 <batch_control+0x268>
    2c57:	90                   	nop
    2c58:	8b 45 e0             	mov    -0x20(%ebp),%eax
    2c5b:	89 c3                	mov    %eax,%ebx
    2c5d:	3d 00 10 00 00       	cmp    $0x1000,%eax
    2c62:	76 05                	jbe    2c69 <batch_control+0xd9>
    2c64:	bb 00 10 00 00       	mov    $0x1000,%ebx
    2c69:	8b 7d d8             	mov    -0x28(%ebp),%edi
    2c6c:	b8 01 00 00 00       	mov    $0x1,%eax
    2c71:	83 ec 08             	sub    $0x8,%esp
    2c74:	29 f8                	sub    %edi,%eax
    2c76:	8b 7d e4             	mov    -0x1c(%ebp),%edi
    2c79:	89 c1                	mov    %eax,%ecx
    2c7b:	47                   	inc    %edi
    2c7c:	89 45 d8             	mov    %eax,-0x28(%ebp)
    2c7f:	8b 46 0c             	mov    0xc(%esi),%eax
    2c82:	51                   	push   %ecx
    2c83:	8b 4d dc             	mov    -0x24(%ebp),%ecx
    2c86:	53                   	push   %ebx
    2c87:	8d 14 bd 00 00 00 00 	lea    0x0(,%edi,4),%edx
    2c8e:	51                   	push   %ecx
    2c8f:	8b 4d 0c             	mov    0xc(%ebp),%ecx
    2c92:	89 7d d4             	mov    %edi,-0x2c(%ebp)
    2c95:	51                   	push   %ecx
    2c96:	8d 7a fc             	lea    -0x4(%edx),%edi
    2c99:	8b 0c 10             	mov    (%eax,%edx,1),%ecx
    2c9c:	89 55 d0             	mov    %edx,-0x30(%ebp)
    2c9f:	51                   	push   %ecx
    2ca0:	8b 44 10 fc          	mov    -0x4(%eax,%edx,1),%eax
    2ca4:	50                   	push   %eax
    2ca5:	e8 16 19 00 00       	call   45c0 <td_init>
    2caa:	8b 46 0c             	mov    0xc(%esi),%eax
    2cad:	83 c4 1c             	add    $0x1c,%esp
    2cb0:	8b 04 38             	mov    (%eax,%edi,1),%eax
    2cb3:	8b 78 0c             	mov    0xc(%eax),%edi
    2cb6:	8b 48 08             	mov    0x8(%eax),%ecx
    2cb9:	8b 50 04             	mov    0x4(%eax),%edx
    2cbc:	8b 00                	mov    (%eax),%eax
    2cbe:	57                   	push   %edi
    2cbf:	51                   	push   %ecx
    2cc0:	52                   	push   %edx
    2cc1:	50                   	push   %eax
    2cc2:	68 48 2b 01 00       	push   $0x12b48
    2cc7:	6a 04                	push   $0x4
    2cc9:	6a ff                	push   $0xffffffff
    2ccb:	e8 b0 34 01 00       	call   16180 <log_msg@plt>
    2cd0:	8b 45 dc             	mov    -0x24(%ebp),%eax
    2cd3:	83 c4 20             	add    $0x20,%esp
    2cd6:	01 d8                	add    %ebx,%eax
    2cd8:	89 45 dc             	mov    %eax,-0x24(%ebp)
    2cdb:	8b 45 e0             	mov    -0x20(%ebp),%eax
    2cde:	29 d8                	sub    %ebx,%eax
    2ce0:	89 45 e0             	mov    %eax,-0x20(%ebp)
    2ce3:	8b 46 10             	mov    0x10(%esi),%eax
    2ce6:	48                   	dec    %eax
    2ce7:	3b 45 e4             	cmp    -0x1c(%ebp),%eax
    2cea:	0f 86 1b 01 00 00    	jbe    2e0b <batch_control+0x27b>
    2cf0:	8b 5d d4             	mov    -0x2c(%ebp),%ebx
    2cf3:	8b 55 e0             	mov    -0x20(%ebp),%edx
    2cf6:	89 5d e4             	mov    %ebx,-0x1c(%ebp)
    2cf9:	85 d2                	test   %edx,%edx
    2cfb:	0f 85 57 ff ff ff    	jne    2c58 <batch_control+0xc8>
    2d01:	89 da                	mov    %ebx,%edx
    2d03:	8b 5d d0             	mov    -0x30(%ebp),%ebx
    2d06:	39 c2                	cmp    %eax,%edx
    2d08:	0f 85 12 01 00 00    	jne    2e20 <batch_control+0x290>
    2d0e:	8b 46 0c             	mov    0xc(%esi),%eax
    2d11:	8b 7d cc             	mov    -0x34(%ebp),%edi
    2d14:	51                   	push   %ecx
    2d15:	51                   	push   %ecx
    2d16:	6a 01                	push   $0x1
    2d18:	6a 00                	push   $0x0
    2d1a:	6a 00                	push   $0x0
    2d1c:	57                   	push   %edi
    2d1d:	8b 54 90 04          	mov    0x4(%eax,%edx,4),%edx
    2d21:	52                   	push   %edx
    2d22:	8b 0c 18             	mov    (%eax,%ebx,1),%ecx
    2d25:	51                   	push   %ecx
    2d26:	e8 95 18 00 00       	call   45c0 <td_init>
    2d2b:	8b 46 0c             	mov    0xc(%esi),%eax
    2d2e:	83 c4 1c             	add    $0x1c,%esp
    2d31:	8b 04 18             	mov    (%eax,%ebx,1),%eax
    2d34:	8b 58 0c             	mov    0xc(%eax),%ebx
    2d37:	8b 48 08             	mov    0x8(%eax),%ecx
    2d3a:	8b 50 04             	mov    0x4(%eax),%edx
    2d3d:	8b 00                	mov    (%eax),%eax
    2d3f:	53                   	push   %ebx
    2d40:	51                   	push   %ecx
    2d41:	52                   	push   %edx
    2d42:	50                   	push   %eax
    2d43:	68 c8 2b 01 00       	push   $0x12bc8
    2d48:	6a 04                	push   $0x4
    2d4a:	6a ff                	push   $0xffffffff
    2d4c:	e8 2f 34 01 00       	call   16180 <log_msg@plt>
    2d51:	8b 56 18             	mov    0x18(%esi),%edx
    2d54:	83 c4 14             	add    $0x14,%esp
    2d57:	8b 02                	mov    (%edx),%eax
    2d59:	8b 4a 14             	mov    0x14(%edx),%ecx
    2d5c:	89 4d d0             	mov    %ecx,-0x30(%ebp)
    2d5f:	8b 58 10             	mov    0x10(%eax),%ebx
    2d62:	8b 78 1c             	mov    0x1c(%eax),%edi
    2d65:	53                   	push   %ebx
    2d66:	e8 c5 5f 00 00       	call   8d30 <usb_str_direction>
    2d6b:	89 45 e4             	mov    %eax,-0x1c(%ebp)
    2d6e:	58                   	pop    %eax
    2d6f:	8b 46 18             	mov    0x18(%esi),%eax
    2d72:	8b 00                	mov    (%eax),%eax
    2d74:	8b 40 14             	mov    0x14(%eax),%eax
    2d77:	50                   	push   %eax
    2d78:	e8 93 5f 00 00       	call   8d10 <usb_str_transfer_type_short>
    2d7d:	89 45 e0             	mov    %eax,-0x20(%ebp)
    2d80:	58                   	pop    %eax
    2d81:	8b 46 18             	mov    0x18(%esi),%eax
    2d84:	8b 00                	mov    (%eax),%eax
    2d86:	8b 40 18             	mov    0x18(%eax),%eax
    2d89:	50                   	push   %eax
    2d8a:	e8 c1 5f 00 00       	call   8d50 <usb_str_speed>
    2d8f:	89 45 dc             	mov    %eax,-0x24(%ebp)
    2d92:	8b 46 18             	mov    0x18(%esi),%eax
    2d95:	8b 00                	mov    (%eax),%eax
    2d97:	0f bf 48 0e          	movswl 0xe(%eax),%ecx
    2d9b:	0f bf 58 0c          	movswl 0xc(%eax),%ebx
    2d9f:	58                   	pop    %eax
    2da0:	8b 45 0c             	mov    0xc(%ebp),%eax
    2da3:	50                   	push   %eax
    2da4:	89 4d d8             	mov    %ecx,-0x28(%ebp)
    2da7:	e8 84 5f 00 00       	call   8d30 <usb_str_direction>
    2dac:	5a                   	pop    %edx
    2dad:	89 45 d4             	mov    %eax,-0x2c(%ebp)
    2db0:	8b 46 18             	mov    0x18(%esi),%eax
    2db3:	8b 00                	mov    (%eax),%eax
    2db5:	8b 48 14             	mov    0x14(%eax),%ecx
    2db8:	51                   	push   %ecx
    2db9:	e8 32 5f 00 00       	call   8cf0 <usb_str_transfer_type>
    2dbe:	89 3c 24             	mov    %edi,(%esp)
    2dc1:	8b 4d d0             	mov    -0x30(%ebp),%ecx
    2dc4:	8b 7d e4             	mov    -0x1c(%ebp),%edi
    2dc7:	8b 55 e0             	mov    -0x20(%ebp),%edx
    2dca:	51                   	push   %ecx
    2dcb:	8b 4d dc             	mov    -0x24(%ebp),%ecx
    2dce:	57                   	push   %edi
    2dcf:	8b 7d d8             	mov    -0x28(%ebp),%edi
    2dd2:	52                   	push   %edx
    2dd3:	8b 55 d4             	mov    -0x2c(%ebp),%edx
    2dd6:	51                   	push   %ecx
    2dd7:	57                   	push   %edi
    2dd8:	53                   	push   %ebx
    2dd9:	52                   	push   %edx
    2dda:	50                   	push   %eax
    2ddb:	8b 46 18             	mov    0x18(%esi),%eax
    2dde:	50                   	push   %eax
    2ddf:	68 e0 2a 01 00       	push   $0x12ae0
    2de4:	6a 05                	push   $0x5
    2de6:	6a ff                	push   $0xffffffff
    2de8:	e8 93 33 01 00       	call   16180 <log_msg@plt>
    2ded:	83 c4 40             	add    $0x40,%esp
    2df0:	8d 65 f4             	lea    -0xc(%ebp),%esp
    2df3:	5b                   	pop    %ebx
    2df4:	5e                   	pop    %esi
    2df5:	5f                   	pop    %edi
    2df6:	5d                   	pop    %ebp
    2df7:	c3                   	ret    
    2df8:	8b 46 10             	mov    0x10(%esi),%eax
    2dfb:	bb 04 00 00 00       	mov    $0x4,%ebx
    2e00:	48                   	dec    %eax
    2e01:	ba 01 00 00 00       	mov    $0x1,%edx
    2e06:	e9 fb fe ff ff       	jmp    2d06 <batch_control+0x176>
    2e0b:	51                   	push   %ecx
    2e0c:	68 4e 01 00 00       	push   $0x14e
    2e11:	68 90 29 01 00       	push   $0x12990
    2e16:	68 78 2b 01 00       	push   $0x12b78
    2e1b:	e8 b0 33 01 00       	call   161d0 <assert_abort@plt>
    2e20:	50                   	push   %eax
    2e21:	68 53 01 00 00       	push   $0x153
    2e26:	68 90 29 01 00       	push   $0x12990
    2e2b:	68 a0 2b 01 00       	push   $0x12ba0
    2e30:	e8 9b 33 01 00       	call   161d0 <assert_abort@plt>
    2e35:	50                   	push   %eax
    2e36:	68 22 01 00 00       	push   $0x122
    2e3b:	68 90 29 01 00       	push   $0x12990
    2e40:	68 9d 29 01 00       	push   $0x1299d
    2e45:	e8 86 33 01 00       	call   161d0 <assert_abort@plt>
    2e4a:	53                   	push   %ebx
    2e4b:	68 23 01 00 00       	push   $0x123
    2e50:	68 90 29 01 00       	push   $0x12990
    2e55:	68 a8 29 01 00       	push   $0x129a8
    2e5a:	e8 71 33 01 00       	call   161d0 <assert_abort@plt>
    2e5f:	51                   	push   %ecx
    2e60:	68 24 01 00 00       	push   $0x124
    2e65:	68 90 29 01 00       	push   $0x12990
    2e6a:	68 3c 2a 01 00       	push   $0x12a3c
    2e6f:	e8 5c 33 01 00       	call   161d0 <assert_abort@plt>
    2e74:	8d b6 00 00 00 00    	lea    0x0(%esi),%esi
    2e7a:	8d bf 00 00 00 00    	lea    0x0(%edi),%edi

00002e80 <ohci_transfer_batch_finish_dispose>:
    2e80:	55                   	push   %ebp
    2e81:	89 e5                	mov    %esp,%ebp
    2e83:	57                   	push   %edi
    2e84:	56                   	push   %esi
    2e85:	53                   	push   %ebx
    2e86:	83 ec 0c             	sub    $0xc,%esp
    2e89:	8b 7d 08             	mov    0x8(%ebp),%edi
    2e8c:	85 ff                	test   %edi,%edi
    2e8e:	0f 84 9f 00 00 00    	je     2f33 <ohci_transfer_batch_finish_dispose+0xb3>
    2e94:	8b 47 18             	mov    0x18(%edi),%eax
    2e97:	85 c0                	test   %eax,%eax
    2e99:	0f 84 bd 00 00 00    	je     2f5c <ohci_transfer_batch_finish_dispose+0xdc>
    2e9f:	8b 70 28             	mov    0x28(%eax),%esi
    2ea2:	56                   	push   %esi
    2ea3:	8b 50 24             	mov    0x24(%eax),%edx
    2ea6:	52                   	push   %edx
    2ea7:	8b 50 20             	mov    0x20(%eax),%edx
    2eaa:	8b 4f 14             	mov    0x14(%edi),%ecx
    2ead:	01 ca                	add    %ecx,%edx
    2eaf:	52                   	push   %edx
    2eb0:	50                   	push   %eax
    2eb1:	e8 1a 51 00 00       	call   7fd0 <usb_transfer_batch_finish_error>
    2eb6:	8b 57 0c             	mov    0xc(%edi),%edx
    2eb9:	83 c4 10             	add    $0x10,%esp
    2ebc:	85 d2                	test   %edx,%edx
    2ebe:	74 4b                	je     2f0b <ohci_transfer_batch_finish_dispose+0x8b>
    2ec0:	8b 47 18             	mov    0x18(%edi),%eax
    2ec3:	8b 00                	mov    (%eax),%eax
    2ec5:	85 c0                	test   %eax,%eax
    2ec7:	0f 84 8a 00 00 00    	je     2f57 <ohci_transfer_batch_finish_dispose+0xd7>
    2ecd:	8b 70 4c             	mov    0x4c(%eax),%esi
    2ed0:	85 f6                	test   %esi,%esi
    2ed2:	74 71                	je     2f45 <ohci_transfer_batch_finish_dispose+0xc5>
    2ed4:	8b 4f 10             	mov    0x10(%edi),%ecx
    2ed7:	31 db                	xor    %ebx,%ebx
    2ed9:	85 c9                	test   %ecx,%ecx
    2edb:	74 22                	je     2eff <ohci_transfer_batch_finish_dispose+0x7f>
    2edd:	8d 76 00             	lea    0x0(%esi),%esi
    2ee0:	8b 04 9a             	mov    (%edx,%ebx,4),%eax
    2ee3:	3b 46 04             	cmp    0x4(%esi),%eax
    2ee6:	74 12                	je     2efa <ohci_transfer_batch_finish_dispose+0x7a>
    2ee8:	83 ec 0c             	sub    $0xc,%esp
    2eeb:	50                   	push   %eax
    2eec:	e8 1f 33 01 00       	call   16210 <dmamem_unmap_anonymous@plt>
    2ef1:	8b 4f 10             	mov    0x10(%edi),%ecx
    2ef4:	8b 57 0c             	mov    0xc(%edi),%edx
    2ef7:	83 c4 10             	add    $0x10,%esp
    2efa:	43                   	inc    %ebx
    2efb:	39 cb                	cmp    %ecx,%ebx
    2efd:	72 e1                	jb     2ee0 <ohci_transfer_batch_finish_dispose+0x60>
    2eff:	83 ec 0c             	sub    $0xc,%esp
    2f02:	52                   	push   %edx
    2f03:	e8 78 36 01 00       	call   16580 <free@plt>
    2f08:	83 c4 10             	add    $0x10,%esp
    2f0b:	83 ec 0c             	sub    $0xc,%esp
    2f0e:	8b 47 18             	mov    0x18(%edi),%eax
    2f11:	50                   	push   %eax
    2f12:	e8 19 50 00 00       	call   7f30 <usb_transfer_batch_destroy>
    2f17:	8b 4f 14             	mov    0x14(%edi),%ecx
    2f1a:	5a                   	pop    %edx
    2f1b:	51                   	push   %ecx
    2f1c:	e8 ef 32 01 00       	call   16210 <dmamem_unmap_anonymous@plt>
    2f21:	89 7d 08             	mov    %edi,0x8(%ebp)
    2f24:	83 c4 10             	add    $0x10,%esp
    2f27:	8d 65 f4             	lea    -0xc(%ebp),%esp
    2f2a:	5b                   	pop    %ebx
    2f2b:	5e                   	pop    %esi
    2f2c:	5f                   	pop    %edi
    2f2d:	5d                   	pop    %ebp
    2f2e:	e9 4d 36 01 00       	jmp    16580 <free@plt>
    2f33:	56                   	push   %esi
    2f34:	6a 50                	push   $0x50
    2f36:	68 90 29 01 00       	push   $0x12990
    2f3b:	68 9d 29 01 00       	push   $0x1299d
    2f40:	e8 8b 32 01 00       	call   161d0 <assert_abort@plt>
    2f45:	53                   	push   %ebx
    2f46:	6a 3e                	push   $0x3e
    2f48:	68 90 29 01 00       	push   $0x12990
    2f4d:	68 45 25 01 00       	push   $0x12545
    2f52:	e8 79 32 01 00       	call   161d0 <assert_abort@plt>
    2f57:	e8 6f 08 00 00       	call   37cb <ohci_endpoint_get.part.0>
    2f5c:	53                   	push   %ebx
    2f5d:	6a 51                	push   $0x51
    2f5f:	68 90 29 01 00       	push   $0x12990
    2f64:	68 a8 29 01 00       	push   $0x129a8
    2f69:	e8 62 32 01 00       	call   161d0 <assert_abort@plt>
    2f6e:	66 90                	xchg   %ax,%ax

00002f70 <ohci_transfer_batch_get>:
    2f70:	55                   	push   %ebp
    2f71:	89 e5                	mov    %esp,%ebp
    2f73:	57                   	push   %edi
    2f74:	56                   	push   %esi
    2f75:	53                   	push   %ebx
    2f76:	83 ec 2c             	sub    $0x2c,%esp
    2f79:	8b 45 08             	mov    0x8(%ebp),%eax
    2f7c:	85 c0                	test   %eax,%eax
    2f7e:	0f 84 cc 03 00 00    	je     3350 <ohci_transfer_batch_get+0x3e0>
    2f84:	56                   	push   %esi
    2f85:	56                   	push   %esi
    2f86:	6a 1c                	push   $0x1c
    2f88:	6a 01                	push   $0x1
    2f8a:	e8 61 32 01 00       	call   161f0 <calloc@plt>
    2f8f:	83 c4 10             	add    $0x10,%esp
    2f92:	89 c6                	mov    %eax,%esi
    2f94:	85 c0                	test   %eax,%eax
    2f96:	0f 84 10 03 00 00    	je     32ac <ohci_transfer_batch_get+0x33c>
    2f9c:	c7 00 00 00 00 00    	movl   $0x0,(%eax)
    2fa2:	c7 40 04 00 00 00 00 	movl   $0x0,0x4(%eax)
    2fa9:	8b 4d 08             	mov    0x8(%ebp),%ecx
    2fac:	8b 45 08             	mov    0x8(%ebp),%eax
    2faf:	8b 11                	mov    (%ecx),%edx
    2fb1:	8b 40 14             	mov    0x14(%eax),%eax
    2fb4:	89 45 d4             	mov    %eax,-0x2c(%ebp)
    2fb7:	05 ff 0f 00 00       	add    $0xfff,%eax
    2fbc:	c1 e8 0c             	shr    $0xc,%eax
    2fbf:	8b 4a 14             	mov    0x14(%edx),%ecx
    2fc2:	89 46 10             	mov    %eax,0x10(%esi)
    2fc5:	85 c9                	test   %ecx,%ecx
    2fc7:	0f 84 c3 01 00 00    	je     3190 <ohci_transfer_batch_get+0x220>
    2fcd:	40                   	inc    %eax
    2fce:	52                   	push   %edx
    2fcf:	52                   	push   %edx
    2fd0:	6a 04                	push   $0x4
    2fd2:	50                   	push   %eax
    2fd3:	e8 18 32 01 00       	call   161f0 <calloc@plt>
    2fd8:	83 c4 10             	add    $0x10,%esp
    2fdb:	89 c3                	mov    %eax,%ebx
    2fdd:	89 46 0c             	mov    %eax,0xc(%esi)
    2fe0:	85 c0                	test   %eax,%eax
    2fe2:	0f 84 db 02 00 00    	je     32c3 <ohci_transfer_batch_get+0x353>
    2fe8:	8b 45 08             	mov    0x8(%ebp),%eax
    2feb:	8b 00                	mov    (%eax),%eax
    2fed:	85 c0                	test   %eax,%eax
    2fef:	0f 84 6d 03 00 00    	je     3362 <ohci_transfer_batch_get+0x3f2>
    2ff5:	8b 40 4c             	mov    0x4c(%eax),%eax
    2ff8:	8b 10                	mov    (%eax),%edx
    2ffa:	8b 40 04             	mov    0x4(%eax),%eax
    2ffd:	89 03                	mov    %eax,(%ebx)
    2fff:	8b 46 10             	mov    0x10(%esi),%eax
    3002:	89 56 08             	mov    %edx,0x8(%esi)
    3005:	85 c0                	test   %eax,%eax
    3007:	0f 84 15 01 00 00    	je     3122 <ohci_transfer_batch_get+0x1b2>
    300d:	bf 01 00 00 00       	mov    $0x1,%edi
    3012:	89 75 d4             	mov    %esi,-0x2c(%ebp)
    3015:	eb 31                	jmp    3048 <ohci_transfer_batch_get+0xd8>
    3017:	90                   	nop
    3018:	8b 45 e4             	mov    -0x1c(%ebp),%eax
    301b:	51                   	push   %ecx
    301c:	68 00 10 00 00       	push   $0x1000
    3021:	6a 05                	push   $0x5
    3023:	50                   	push   %eax
    3024:	e8 37 33 01 00       	call   16360 <memset@plt>
    3029:	8b 45 e4             	mov    -0x1c(%ebp),%eax
    302c:	83 c4 10             	add    $0x10,%esp
    302f:	89 03                	mov    %eax,(%ebx)
    3031:	8b 45 d4             	mov    -0x2c(%ebp),%eax
    3034:	8b 58 0c             	mov    0xc(%eax),%ebx
    3037:	8b 14 33             	mov    (%ebx,%esi,1),%edx
    303a:	85 d2                	test   %edx,%edx
    303c:	74 4c                	je     308a <ohci_transfer_batch_get+0x11a>
    303e:	47                   	inc    %edi
    303f:	39 78 10             	cmp    %edi,0x10(%eax)
    3042:	0f 82 d8 00 00 00    	jb     3120 <ohci_transfer_batch_get+0x1b0>
    3048:	50                   	push   %eax
    3049:	50                   	push   %eax
    304a:	8d 45 e4             	lea    -0x1c(%ebp),%eax
    304d:	c7 45 e4 ff ff ff ff 	movl   $0xffffffff,-0x1c(%ebp)
    3054:	50                   	push   %eax
    3055:	8d 45 e0             	lea    -0x20(%ebp),%eax
    3058:	50                   	push   %eax
    3059:	6a 00                	push   $0x0
    305b:	6a 03                	push   $0x3
    305d:	6a 00                	push   $0x0
    305f:	68 00 10 00 00       	push   $0x1000
    3064:	e8 27 33 01 00       	call   16390 <dmamem_map_anonymous@plt>
    3069:	8d 34 bd 00 00 00 00 	lea    0x0(,%edi,4),%esi
    3070:	83 c4 20             	add    $0x20,%esp
    3073:	01 f3                	add    %esi,%ebx
    3075:	85 c0                	test   %eax,%eax
    3077:	74 9f                	je     3018 <ohci_transfer_batch_get+0xa8>
    3079:	31 c0                	xor    %eax,%eax
    307b:	89 03                	mov    %eax,(%ebx)
    307d:	8b 45 d4             	mov    -0x2c(%ebp),%eax
    3080:	8b 58 0c             	mov    0xc(%eax),%ebx
    3083:	8b 14 33             	mov    (%ebx,%esi,1),%edx
    3086:	85 d2                	test   %edx,%edx
    3088:	75 b4                	jne    303e <ohci_transfer_batch_get+0xce>
    308a:	57                   	push   %edi
    308b:	68 ce 29 01 00       	push   $0x129ce
    3090:	6a 01                	push   $0x1
    3092:	6a ff                	push   $0xffffffff
    3094:	89 c6                	mov    %eax,%esi
    3096:	e8 e5 30 01 00       	call   16180 <log_msg@plt>
    309b:	83 c4 10             	add    $0x10,%esp
    309e:	8b 56 0c             	mov    0xc(%esi),%edx
    30a1:	85 d2                	test   %edx,%edx
    30a3:	74 4e                	je     30f3 <ohci_transfer_batch_get+0x183>
    30a5:	8b 46 18             	mov    0x18(%esi),%eax
    30a8:	8b 00                	mov    (%eax),%eax
    30aa:	85 c0                	test   %eax,%eax
    30ac:	0f 84 b0 02 00 00    	je     3362 <ohci_transfer_batch_get+0x3f2>
    30b2:	8b 78 4c             	mov    0x4c(%eax),%edi
    30b5:	85 ff                	test   %edi,%edi
    30b7:	0f 84 6c 02 00 00    	je     3329 <ohci_transfer_batch_get+0x3b9>
    30bd:	8b 4e 10             	mov    0x10(%esi),%ecx
    30c0:	31 db                	xor    %ebx,%ebx
    30c2:	85 c9                	test   %ecx,%ecx
    30c4:	74 21                	je     30e7 <ohci_transfer_batch_get+0x177>
    30c6:	66 90                	xchg   %ax,%ax
    30c8:	8b 04 9a             	mov    (%edx,%ebx,4),%eax
    30cb:	3b 47 04             	cmp    0x4(%edi),%eax
    30ce:	74 12                	je     30e2 <ohci_transfer_batch_get+0x172>
    30d0:	83 ec 0c             	sub    $0xc,%esp
    30d3:	50                   	push   %eax
    30d4:	e8 37 31 01 00       	call   16210 <dmamem_unmap_anonymous@plt>
    30d9:	8b 4e 10             	mov    0x10(%esi),%ecx
    30dc:	8b 56 0c             	mov    0xc(%esi),%edx
    30df:	83 c4 10             	add    $0x10,%esp
    30e2:	43                   	inc    %ebx
    30e3:	39 cb                	cmp    %ecx,%ebx
    30e5:	72 e1                	jb     30c8 <ohci_transfer_batch_get+0x158>
    30e7:	83 ec 0c             	sub    $0xc,%esp
    30ea:	52                   	push   %edx
    30eb:	e8 90 34 01 00       	call   16580 <free@plt>
    30f0:	83 c4 10             	add    $0x10,%esp
    30f3:	83 ec 0c             	sub    $0xc,%esp
    30f6:	8b 46 18             	mov    0x18(%esi),%eax
    30f9:	50                   	push   %eax
    30fa:	e8 31 4e 00 00       	call   7f30 <usb_transfer_batch_destroy>
    30ff:	8b 4e 14             	mov    0x14(%esi),%ecx
    3102:	5a                   	pop    %edx
    3103:	51                   	push   %ecx
    3104:	e8 07 31 01 00       	call   16210 <dmamem_unmap_anonymous@plt>
    3109:	89 34 24             	mov    %esi,(%esp)
    310c:	e8 6f 34 01 00       	call   16580 <free@plt>
    3111:	83 c4 10             	add    $0x10,%esp
    3114:	8d 65 f4             	lea    -0xc(%ebp),%esp
    3117:	31 f6                	xor    %esi,%esi
    3119:	5b                   	pop    %ebx
    311a:	89 f0                	mov    %esi,%eax
    311c:	5e                   	pop    %esi
    311d:	5f                   	pop    %edi
    311e:	5d                   	pop    %ebp
    311f:	c3                   	ret    
    3120:	89 c6                	mov    %eax,%esi
    3122:	8b 45 08             	mov    0x8(%ebp),%eax
    3125:	8b 4d 08             	mov    0x8(%ebp),%ecx
    3128:	8b 40 14             	mov    0x14(%eax),%eax
    312b:	03 41 20             	add    0x20(%ecx),%eax
    312e:	75 70                	jne    31a0 <ohci_transfer_batch_get+0x230>
    3130:	8b 45 08             	mov    0x8(%ebp),%eax
    3133:	89 46 18             	mov    %eax,0x18(%esi)
    3136:	8b 50 04             	mov    0x4(%eax),%edx
    3139:	85 d2                	test   %edx,%edx
    313b:	0f 84 1b 01 00 00    	je     325c <ohci_transfer_batch_get+0x2ec>
    3141:	8b 78 08             	mov    0x8(%eax),%edi
    3144:	85 ff                	test   %edi,%edi
    3146:	0f 85 ef 01 00 00    	jne    333b <ohci_transfer_batch_get+0x3cb>
    314c:	8b 00                	mov    (%eax),%eax
    314e:	85 c0                	test   %eax,%eax
    3150:	0f 84 49 01 00 00    	je     329f <ohci_transfer_batch_get+0x32f>
    3156:	8b 50 14             	mov    0x14(%eax),%edx
    3159:	85 d2                	test   %edx,%edx
    315b:	0f 84 ef 00 00 00    	je     3250 <ohci_transfer_batch_get+0x2e0>
    3161:	8b 48 10             	mov    0x10(%eax),%ecx
    3164:	85 c9                	test   %ecx,%ecx
    3166:	0f 85 93 01 00 00    	jne    32ff <ohci_transfer_batch_get+0x38f>
    316c:	8b 04 95 00 30 01 00 	mov    0x13000(,%edx,4),%eax
    3173:	85 c0                	test   %eax,%eax
    3175:	0f 84 99 01 00 00    	je     3314 <ohci_transfer_batch_get+0x3a4>
    317b:	57                   	push   %edi
    317c:	57                   	push   %edi
    317d:	51                   	push   %ecx
    317e:	56                   	push   %esi
    317f:	ff d0                	call   *%eax
    3181:	83 c4 10             	add    $0x10,%esp
    3184:	8d 65 f4             	lea    -0xc(%ebp),%esp
    3187:	89 f0                	mov    %esi,%eax
    3189:	5b                   	pop    %ebx
    318a:	5e                   	pop    %esi
    318b:	5f                   	pop    %edi
    318c:	5d                   	pop    %ebp
    318d:	c3                   	ret    
    318e:	66 90                	xchg   %ax,%ax
    3190:	83 c0 02             	add    $0x2,%eax
    3193:	89 46 10             	mov    %eax,0x10(%esi)
    3196:	e9 32 fe ff ff       	jmp    2fcd <ohci_transfer_batch_get+0x5d>
    319b:	90                   	nop
    319c:	8d 74 26 00          	lea    0x0(%esi,%eiz,1),%esi
    31a0:	8d 98 ff 0f 00 00    	lea    0xfff(%eax),%ebx
    31a6:	50                   	push   %eax
    31a7:	50                   	push   %eax
    31a8:	8d 45 e4             	lea    -0x1c(%ebp),%eax
    31ab:	50                   	push   %eax
    31ac:	81 e3 00 f0 ff ff    	and    $0xfffff000,%ebx
    31b2:	8d 45 e0             	lea    -0x20(%ebp),%eax
    31b5:	c7 45 e4 ff ff ff ff 	movl   $0xffffffff,-0x1c(%ebp)
    31bc:	50                   	push   %eax
    31bd:	6a 00                	push   $0x0
    31bf:	6a 03                	push   $0x3
    31c1:	6a 00                	push   $0x0
    31c3:	53                   	push   %ebx
    31c4:	e8 c7 31 01 00       	call   16390 <dmamem_map_anonymous@plt>
    31c9:	83 c4 20             	add    $0x20,%esp
    31cc:	85 c0                	test   %eax,%eax
    31ce:	75 61                	jne    3231 <ohci_transfer_batch_get+0x2c1>
    31d0:	50                   	push   %eax
    31d1:	8b 45 e4             	mov    -0x1c(%ebp),%eax
    31d4:	53                   	push   %ebx
    31d5:	6a 05                	push   $0x5
    31d7:	50                   	push   %eax
    31d8:	e8 83 31 01 00       	call   16360 <memset@plt>
    31dd:	8b 45 e4             	mov    -0x1c(%ebp),%eax
    31e0:	83 c4 10             	add    $0x10,%esp
    31e3:	89 46 14             	mov    %eax,0x14(%esi)
    31e6:	85 c0                	test   %eax,%eax
    31e8:	74 4e                	je     3238 <ohci_transfer_batch_get+0x2c8>
    31ea:	51                   	push   %ecx
    31eb:	8b 4d 08             	mov    0x8(%ebp),%ecx
    31ee:	8b 59 20             	mov    0x20(%ecx),%ebx
    31f1:	8d 51 18             	lea    0x18(%ecx),%edx
    31f4:	53                   	push   %ebx
    31f5:	52                   	push   %edx
    31f6:	50                   	push   %eax
    31f7:	e8 b4 2e 01 00       	call   160b0 <memcpy@plt>
    31fc:	8b 45 08             	mov    0x8(%ebp),%eax
    31ff:	83 c4 10             	add    $0x10,%esp
    3202:	8b 00                	mov    (%eax),%eax
    3204:	8b 78 10             	mov    0x10(%eax),%edi
    3207:	85 ff                	test   %edi,%edi
    3209:	0f 84 21 ff ff ff    	je     3130 <ohci_transfer_batch_get+0x1c0>
    320f:	8b 45 08             	mov    0x8(%ebp),%eax
    3212:	51                   	push   %ecx
    3213:	8b 58 14             	mov    0x14(%eax),%ebx
    3216:	8b 78 10             	mov    0x10(%eax),%edi
    3219:	53                   	push   %ebx
    321a:	57                   	push   %edi
    321b:	8b 40 20             	mov    0x20(%eax),%eax
    321e:	8b 56 14             	mov    0x14(%esi),%edx
    3221:	01 d0                	add    %edx,%eax
    3223:	50                   	push   %eax
    3224:	e8 87 2e 01 00       	call   160b0 <memcpy@plt>
    3229:	83 c4 10             	add    $0x10,%esp
    322c:	e9 ff fe ff ff       	jmp    3130 <ohci_transfer_batch_get+0x1c0>
    3231:	c7 46 14 00 00 00 00 	movl   $0x0,0x14(%esi)
    3238:	50                   	push   %eax
    3239:	68 50 2c 01 00       	push   $0x12c50
    323e:	6a 01                	push   $0x1
    3240:	6a ff                	push   $0xffffffff
    3242:	e8 39 2f 01 00       	call   16180 <log_msg@plt>
    3247:	83 c4 10             	add    $0x10,%esp
    324a:	e9 4f fe ff ff       	jmp    309e <ohci_transfer_batch_get+0x12e>
    324f:	90                   	nop
    3250:	31 c9                	xor    %ecx,%ecx
    3252:	b8 90 2b 00 00       	mov    $0x2b90,%eax
    3257:	e9 1f ff ff ff       	jmp    317b <ohci_transfer_batch_get+0x20b>
    325c:	8b 50 08             	mov    0x8(%eax),%edx
    325f:	85 d2                	test   %edx,%edx
    3261:	0f 84 83 00 00 00    	je     32ea <ohci_transfer_batch_get+0x37a>
    3267:	8b 00                	mov    (%eax),%eax
    3269:	85 c0                	test   %eax,%eax
    326b:	74 6d                	je     32da <ohci_transfer_batch_get+0x36a>
    326d:	8b 50 14             	mov    0x14(%eax),%edx
    3270:	85 d2                	test   %edx,%edx
    3272:	74 24                	je     3298 <ohci_transfer_batch_get+0x328>
    3274:	8b 48 10             	mov    0x10(%eax),%ecx
    3277:	83 f9 01             	cmp    $0x1,%ecx
    327a:	0f 84 ec fe ff ff    	je     316c <ohci_transfer_batch_get+0x1fc>
    3280:	50                   	push   %eax
    3281:	68 90 00 00 00       	push   $0x90
    3286:	68 74 2c 01 00       	push   $0x12c74
    328b:	68 50 2d 01 00       	push   $0x12d50
    3290:	e8 3b 2f 01 00       	call   161d0 <assert_abort@plt>
    3295:	8d 76 00             	lea    0x0(%esi),%esi
    3298:	b9 01 00 00 00       	mov    $0x1,%ecx
    329d:	eb b3                	jmp    3252 <ohci_transfer_batch_get+0x2e2>
    329f:	8b 15 14 00 00 00    	mov    0x14,%edx
    32a5:	31 c9                	xor    %ecx,%ecx
    32a7:	e9 c0 fe ff ff       	jmp    316c <ohci_transfer_batch_get+0x1fc>
    32ac:	53                   	push   %ebx
    32ad:	68 fc 2b 01 00       	push   $0x12bfc
    32b2:	6a 01                	push   $0x1
    32b4:	6a ff                	push   $0xffffffff
    32b6:	e8 c5 2e 01 00       	call   16180 <log_msg@plt>
    32bb:	83 c4 10             	add    $0x10,%esp
    32be:	e9 c1 fe ff ff       	jmp    3184 <ohci_transfer_batch_get+0x214>
    32c3:	50                   	push   %eax
    32c4:	68 20 2c 01 00       	push   $0x12c20
    32c9:	6a 01                	push   $0x1
    32cb:	6a ff                	push   $0xffffffff
    32cd:	e8 ae 2e 01 00       	call   16180 <log_msg@plt>
    32d2:	83 c4 10             	add    $0x10,%esp
    32d5:	e9 c4 fd ff ff       	jmp    309e <ohci_transfer_batch_get+0x12e>
    32da:	8b 15 14 00 00 00    	mov    0x14,%edx
    32e0:	b9 01 00 00 00       	mov    $0x1,%ecx
    32e5:	e9 82 fe ff ff       	jmp    316c <ohci_transfer_batch_get+0x1fc>
    32ea:	50                   	push   %eax
    32eb:	68 93 00 00 00       	push   $0x93
    32f0:	68 74 2c 01 00       	push   $0x12c74
    32f5:	68 01 42 01 00       	push   $0x14201
    32fa:	e8 d1 2e 01 00       	call   161d0 <assert_abort@plt>
    32ff:	51                   	push   %ecx
    3300:	68 89 00 00 00       	push   $0x89
    3305:	68 74 2c 01 00       	push   $0x12c74
    330a:	68 d4 2c 01 00       	push   $0x12cd4
    330f:	e8 bc 2e 01 00       	call   161d0 <assert_abort@plt>
    3314:	50                   	push   %eax
    3315:	68 a0 00 00 00       	push   $0xa0
    331a:	68 90 29 01 00       	push   $0x12990
    331f:	68 cc 2d 01 00       	push   $0x12dcc
    3324:	e8 a7 2e 01 00       	call   161d0 <assert_abort@plt>
    3329:	53                   	push   %ebx
    332a:	6a 3e                	push   $0x3e
    332c:	68 90 29 01 00       	push   $0x12990
    3331:	68 45 25 01 00       	push   $0x12545
    3336:	e8 95 2e 01 00       	call   161d0 <assert_abort@plt>
    333b:	53                   	push   %ebx
    333c:	68 86 00 00 00       	push   $0x86
    3341:	68 74 2c 01 00       	push   $0x12c74
    3346:	68 b4 2c 01 00       	push   $0x12cb4
    334b:	e8 80 2e 01 00       	call   161d0 <assert_abort@plt>
    3350:	57                   	push   %edi
    3351:	6a 63                	push   $0x63
    3353:	68 90 29 01 00       	push   $0x12990
    3358:	68 b4 29 01 00       	push   $0x129b4
    335d:	e8 6e 2e 01 00       	call   161d0 <assert_abort@plt>
    3362:	e8 64 04 00 00       	call   37cb <ohci_endpoint_get.part.0>
    3367:	89 f6                	mov    %esi,%esi
    3369:	8d bc 27 00 00 00 00 	lea    0x0(%edi,%eiz,1),%edi

00003370 <ohci_transfer_batch_is_complete>:
    3370:	55                   	push   %ebp
    3371:	89 e5                	mov    %esp,%ebp
    3373:	57                   	push   %edi
    3374:	56                   	push   %esi
    3375:	53                   	push   %ebx
    3376:	83 ec 2c             	sub    $0x2c,%esp
    3379:	8b 75 08             	mov    0x8(%ebp),%esi
    337c:	85 f6                	test   %esi,%esi
    337e:	0f 84 2c 03 00 00    	je     36b0 <ohci_transfer_batch_is_complete+0x340>
    3384:	8b 46 18             	mov    0x18(%esi),%eax
    3387:	85 c0                	test   %eax,%eax
    3389:	0f 84 e2 02 00 00    	je     3671 <ohci_transfer_batch_is_complete+0x301>
    338f:	83 ec 0c             	sub    $0xc,%esp
    3392:	8b 5e 10             	mov    0x10(%esi),%ebx
    3395:	53                   	push   %ebx
    3396:	50                   	push   %eax
    3397:	68 f8 2d 01 00       	push   $0x12df8
    339c:	6a 04                	push   $0x4
    339e:	6a ff                	push   $0xffffffff
    33a0:	e8 db 2d 01 00       	call   16180 <log_msg@plt>
    33a5:	8b 46 08             	mov    0x8(%esi),%eax
    33a8:	83 c4 1c             	add    $0x1c,%esp
    33ab:	8b 58 0c             	mov    0xc(%eax),%ebx
    33ae:	8b 48 04             	mov    0x4(%eax),%ecx
    33b1:	8b 50 08             	mov    0x8(%eax),%edx
    33b4:	8b 00                	mov    (%eax),%eax
    33b6:	53                   	push   %ebx
    33b7:	51                   	push   %ecx
    33b8:	52                   	push   %edx
    33b9:	50                   	push   %eax
    33ba:	68 e8 29 01 00       	push   $0x129e8
    33bf:	6a 05                	push   $0x5
    33c1:	6a ff                	push   $0xffffffff
    33c3:	e8 b8 2d 01 00       	call   16180 <log_msg@plt>
    33c8:	8b 46 08             	mov    0x8(%esi),%eax
    33cb:	83 c4 20             	add    $0x20,%esp
    33ce:	85 c0                	test   %eax,%eax
    33d0:	0f 84 2e 03 00 00    	je     3704 <ohci_transfer_batch_is_complete+0x394>
    33d6:	8b 50 08             	mov    0x8(%eax),%edx
    33d9:	83 e2 01             	and    $0x1,%edx
    33dc:	75 18                	jne    33f6 <ohci_transfer_batch_is_complete+0x86>
    33de:	8b 10                	mov    (%eax),%edx
    33e0:	80 e6 40             	and    $0x40,%dh
    33e3:	75 11                	jne    33f6 <ohci_transfer_batch_is_complete+0x86>
    33e5:	8b 50 08             	mov    0x8(%eax),%edx
    33e8:	8b 40 04             	mov    0x4(%eax),%eax
    33eb:	31 d0                	xor    %edx,%eax
    33ed:	83 e0 f0             	and    $0xfffffff0,%eax
    33f0:	0f 85 12 02 00 00    	jne    3608 <ohci_transfer_batch_is_complete+0x298>
    33f6:	8b 4e 18             	mov    0x18(%esi),%ecx
    33f9:	8b 41 14             	mov    0x14(%ecx),%eax
    33fc:	89 41 24             	mov    %eax,0x24(%ecx)
    33ff:	8b 46 10             	mov    0x10(%esi),%eax
    3402:	89 45 cc             	mov    %eax,-0x34(%ebp)
    3405:	85 c0                	test   %eax,%eax
    3407:	0f 84 63 01 00 00    	je     3570 <ohci_transfer_batch_is_complete+0x200>
    340d:	8b 46 0c             	mov    0xc(%esi),%eax
    3410:	8b 00                	mov    (%eax),%eax
    3412:	85 c0                	test   %eax,%eax
    3414:	0f 84 06 02 00 00    	je     3620 <ohci_transfer_batch_is_complete+0x2b0>
    341a:	31 ff                	xor    %edi,%edi
    341c:	eb 4c                	jmp    346a <ohci_transfer_batch_is_complete+0xfa>
    341e:	66 90                	xchg   %ax,%ax
    3420:	8b 14 95 c0 2f 01 00 	mov    0x12fc0(,%edx,4),%edx
    3427:	89 51 28             	mov    %edx,0x28(%ecx)
    342a:	85 d2                	test   %edx,%edx
    342c:	0f 85 90 00 00 00    	jne    34c2 <ohci_transfer_batch_is_complete+0x152>
    3432:	8b 50 04             	mov    0x4(%eax),%edx
    3435:	89 55 d0             	mov    %edx,-0x30(%ebp)
    3438:	31 d2                	xor    %edx,%edx
    343a:	83 7d d0 00          	cmpl   $0x0,-0x30(%ebp)
    343e:	74 09                	je     3449 <ohci_transfer_batch_is_complete+0xd9>
    3440:	8b 50 0c             	mov    0xc(%eax),%edx
    3443:	8b 40 04             	mov    0x4(%eax),%eax
    3446:	42                   	inc    %edx
    3447:	29 c2                	sub    %eax,%edx
    3449:	8b 41 24             	mov    0x24(%ecx),%eax
    344c:	47                   	inc    %edi
    344d:	29 d0                	sub    %edx,%eax
    344f:	39 7e 10             	cmp    %edi,0x10(%esi)
    3452:	89 41 24             	mov    %eax,0x24(%ecx)
    3455:	0f 86 0c 01 00 00    	jbe    3567 <ohci_transfer_batch_is_complete+0x1f7>
    345b:	8b 45 d4             	mov    -0x2c(%ebp),%eax
    345e:	8b 44 03 04          	mov    0x4(%ebx,%eax,1),%eax
    3462:	85 c0                	test   %eax,%eax
    3464:	0f 84 b6 01 00 00    	je     3620 <ohci_transfer_batch_is_complete+0x2b0>
    346a:	8d 1c bd 00 00 00 00 	lea    0x0(,%edi,4),%ebx
    3471:	89 5d d4             	mov    %ebx,-0x2c(%ebp)
    3474:	8b 58 0c             	mov    0xc(%eax),%ebx
    3477:	8b 48 08             	mov    0x8(%eax),%ecx
    347a:	8b 50 04             	mov    0x4(%eax),%edx
    347d:	8b 00                	mov    (%eax),%eax
    347f:	53                   	push   %ebx
    3480:	51                   	push   %ecx
    3481:	52                   	push   %edx
    3482:	50                   	push   %eax
    3483:	57                   	push   %edi
    3484:	68 1d 2a 01 00       	push   $0x12a1d
    3489:	6a 04                	push   $0x4
    348b:	6a ff                	push   $0xffffffff
    348d:	e8 ee 2c 01 00       	call   16180 <log_msg@plt>
    3492:	8b 5e 0c             	mov    0xc(%esi),%ebx
    3495:	8d 04 bd 00 00 00 00 	lea    0x0(,%edi,4),%eax
    349c:	83 c4 20             	add    $0x20,%esp
    349f:	8b 4e 18             	mov    0x18(%esi),%ecx
    34a2:	8b 04 03             	mov    (%ebx,%eax,1),%eax
    34a5:	85 c0                	test   %eax,%eax
    34a7:	0f 84 88 01 00 00    	je     3635 <ohci_transfer_batch_is_complete+0x2c5>
    34ad:	8b 10                	mov    (%eax),%edx
    34af:	c1 ea 1c             	shr    $0x1c,%edx
    34b2:	83 fa 0d             	cmp    $0xd,%edx
    34b5:	0f 86 65 ff ff ff    	jbe    3420 <ohci_transfer_batch_is_complete+0xb0>
    34bb:	c7 41 28 f5 ff ff ff 	movl   $0xfffffff5,0x28(%ecx)
    34c2:	8b 00                	mov    (%eax),%eax
    34c4:	52                   	push   %edx
    34c5:	52                   	push   %edx
    34c6:	50                   	push   %eax
    34c7:	57                   	push   %edi
    34c8:	51                   	push   %ecx
    34c9:	68 48 2e 01 00       	push   $0x12e48
    34ce:	6a 04                	push   $0x4
    34d0:	6a ff                	push   $0xffffffff
    34d2:	e8 a9 2c 01 00       	call   16180 <log_msg@plt>
    34d7:	8b 46 08             	mov    0x8(%esi),%eax
    34da:	83 c4 20             	add    $0x20,%esp
    34dd:	8b 50 08             	mov    0x8(%eax),%edx
    34e0:	83 e2 01             	and    $0x1,%edx
    34e3:	0f 84 06 02 00 00    	je     36ef <ohci_transfer_batch_is_complete+0x37f>
    34e9:	8b 40 08             	mov    0x8(%eax),%eax
    34ec:	47                   	inc    %edi
    34ed:	83 e0 f0             	and    $0xfffffff0,%eax
    34f0:	89 7d cc             	mov    %edi,-0x34(%ebp)
    34f3:	89 45 d4             	mov    %eax,-0x2c(%ebp)
    34f6:	50                   	push   %eax
    34f7:	50                   	push   %eax
    34f8:	8d 5d e4             	lea    -0x1c(%ebp),%ebx
    34fb:	8b 46 0c             	mov    0xc(%esi),%eax
    34fe:	53                   	push   %ebx
    34ff:	c1 e7 02             	shl    $0x2,%edi
    3502:	8b 04 38             	mov    (%eax,%edi,1),%eax
    3505:	50                   	push   %eax
    3506:	e8 f5 2d 01 00       	call   16300 <as_get_physical_mapping@plt>
    350b:	83 c4 10             	add    $0x10,%esp
    350e:	31 d2                	xor    %edx,%edx
    3510:	85 c0                	test   %eax,%eax
    3512:	0f 84 00 01 00 00    	je     3618 <ohci_transfer_batch_is_complete+0x2a8>
    3518:	3b 55 d4             	cmp    -0x2c(%ebp),%edx
    351b:	0f 85 65 01 00 00    	jne    3686 <ohci_transfer_batch_is_complete+0x316>
    3521:	8b 46 0c             	mov    0xc(%esi),%eax
    3524:	8b 04 38             	mov    (%eax,%edi,1),%eax
    3527:	8b 7e 08             	mov    0x8(%esi),%edi
    352a:	85 ff                	test   %edi,%edi
    352c:	0f 84 69 01 00 00    	je     369b <ohci_transfer_batch_is_complete+0x32b>
    3532:	52                   	push   %edx
    3533:	52                   	push   %edx
    3534:	53                   	push   %ebx
    3535:	50                   	push   %eax
    3536:	e8 c5 2d 01 00       	call   16300 <as_get_physical_mapping@plt>
    353b:	83 c4 10             	add    $0x10,%esp
    353e:	31 d2                	xor    %edx,%edx
    3540:	85 c0                	test   %eax,%eax
    3542:	75 06                	jne    354a <ohci_transfer_batch_is_complete+0x1da>
    3544:	8b 55 e4             	mov    -0x1c(%ebp),%edx
    3547:	83 e2 f0             	and    $0xfffffff0,%edx
    354a:	8b 46 08             	mov    0x8(%esi),%eax
    354d:	89 57 04             	mov    %edx,0x4(%edi)
    3550:	85 c0                	test   %eax,%eax
    3552:	0f 84 be 01 00 00    	je     3716 <ohci_transfer_batch_is_complete+0x3a6>
    3558:	8b 50 08             	mov    0x8(%eax),%edx
    355b:	8b 4e 18             	mov    0x18(%esi),%ecx
    355e:	83 e2 fe             	and    $0xfffffffe,%edx
    3561:	89 50 08             	mov    %edx,0x8(%eax)
    3564:	8b 41 24             	mov    0x24(%ecx),%eax
    3567:	3b 41 14             	cmp    0x14(%ecx),%eax
    356a:	0f 87 55 01 00 00    	ja     36c5 <ohci_transfer_batch_is_complete+0x355>
    3570:	8b 01                	mov    (%ecx),%eax
    3572:	85 c0                	test   %eax,%eax
    3574:	0f 84 d8 01 00 00    	je     3752 <ohci_transfer_batch_is_complete+0x3e2>
    357a:	8b 78 4c             	mov    0x4c(%eax),%edi
    357d:	85 ff                	test   %edi,%edi
    357f:	0f 84 b8 01 00 00    	je     373d <ohci_transfer_batch_is_complete+0x3cd>
    3585:	8b 46 0c             	mov    0xc(%esi),%eax
    3588:	8b 4d cc             	mov    -0x34(%ebp),%ecx
    358b:	8d 5d e4             	lea    -0x1c(%ebp),%ebx
    358e:	8b 04 88             	mov    (%eax,%ecx,4),%eax
    3591:	89 47 04             	mov    %eax,0x4(%edi)
    3594:	52                   	push   %edx
    3595:	52                   	push   %edx
    3596:	53                   	push   %ebx
    3597:	50                   	push   %eax
    3598:	e8 63 2d 01 00       	call   16300 <as_get_physical_mapping@plt>
    359d:	83 c4 10             	add    $0x10,%esp
    35a0:	31 d2                	xor    %edx,%edx
    35a2:	85 c0                	test   %eax,%eax
    35a4:	74 5a                	je     3600 <ohci_transfer_batch_is_complete+0x290>
    35a6:	8b 46 08             	mov    0x8(%esi),%eax
    35a9:	85 c0                	test   %eax,%eax
    35ab:	0f 84 ab 00 00 00    	je     365c <ohci_transfer_batch_is_complete+0x2ec>
    35b1:	8b 40 08             	mov    0x8(%eax),%eax
    35b4:	83 e0 f0             	and    $0xfffffff0,%eax
    35b7:	39 d0                	cmp    %edx,%eax
    35b9:	0f 85 88 00 00 00    	jne    3647 <ohci_transfer_batch_is_complete+0x2d7>
    35bf:	51                   	push   %ecx
    35c0:	51                   	push   %ecx
    35c1:	53                   	push   %ebx
    35c2:	8b 5f 04             	mov    0x4(%edi),%ebx
    35c5:	53                   	push   %ebx
    35c6:	e8 35 2d 01 00       	call   16300 <as_get_physical_mapping@plt>
    35cb:	83 c4 10             	add    $0x10,%esp
    35ce:	31 d2                	xor    %edx,%edx
    35d0:	85 c0                	test   %eax,%eax
    35d2:	74 24                	je     35f8 <ohci_transfer_batch_is_complete+0x288>
    35d4:	8b 46 08             	mov    0x8(%esi),%eax
    35d7:	85 c0                	test   %eax,%eax
    35d9:	0f 84 49 01 00 00    	je     3728 <ohci_transfer_batch_is_complete+0x3b8>
    35df:	8b 40 04             	mov    0x4(%eax),%eax
    35e2:	83 e0 f0             	and    $0xfffffff0,%eax
    35e5:	39 d0                	cmp    %edx,%eax
    35e7:	0f 85 ed 00 00 00    	jne    36da <ohci_transfer_batch_is_complete+0x36a>
    35ed:	8d 65 f4             	lea    -0xc(%ebp),%esp
    35f0:	b0 01                	mov    $0x1,%al
    35f2:	5b                   	pop    %ebx
    35f3:	5e                   	pop    %esi
    35f4:	5f                   	pop    %edi
    35f5:	5d                   	pop    %ebp
    35f6:	c3                   	ret    
    35f7:	90                   	nop
    35f8:	8b 55 e4             	mov    -0x1c(%ebp),%edx
    35fb:	eb d7                	jmp    35d4 <ohci_transfer_batch_is_complete+0x264>
    35fd:	8d 76 00             	lea    0x0(%esi),%esi
    3600:	8b 55 e4             	mov    -0x1c(%ebp),%edx
    3603:	eb a1                	jmp    35a6 <ohci_transfer_batch_is_complete+0x236>
    3605:	8d 76 00             	lea    0x0(%esi),%esi
    3608:	8d 65 f4             	lea    -0xc(%ebp),%esp
    360b:	31 c0                	xor    %eax,%eax
    360d:	5b                   	pop    %ebx
    360e:	5e                   	pop    %esi
    360f:	5f                   	pop    %edi
    3610:	5d                   	pop    %ebp
    3611:	c3                   	ret    
    3612:	8d b6 00 00 00 00    	lea    0x0(%esi),%esi
    3618:	8b 55 e4             	mov    -0x1c(%ebp),%edx
    361b:	e9 f8 fe ff ff       	jmp    3518 <ohci_transfer_batch_is_complete+0x1a8>
    3620:	52                   	push   %edx
    3621:	68 cc 00 00 00       	push   $0xcc
    3626:	68 90 29 01 00       	push   $0x12990
    362b:	68 02 2a 01 00       	push   $0x12a02
    3630:	e8 9b 2b 01 00       	call   161d0 <assert_abort@plt>
    3635:	50                   	push   %eax
    3636:	6a 7b                	push   $0x7b
    3638:	68 28 2e 01 00       	push   $0x12e28
    363d:	68 0e 22 01 00       	push   $0x1220e
    3642:	e8 89 2b 01 00       	call   161d0 <assert_abort@plt>
    3647:	56                   	push   %esi
    3648:	68 07 01 00 00       	push   $0x107
    364d:	68 90 29 01 00       	push   $0x12990
    3652:	68 3c 2f 01 00       	push   $0x12f3c
    3657:	e8 74 2b 01 00       	call   161d0 <assert_abort@plt>
    365c:	57                   	push   %edi
    365d:	68 a2 00 00 00       	push   $0xa2
    3662:	68 94 22 01 00       	push   $0x12294
    3667:	68 0e 22 01 00       	push   $0x1220e
    366c:	e8 5f 2b 01 00       	call   161d0 <assert_abort@plt>
    3671:	56                   	push   %esi
    3672:	68 b5 00 00 00       	push   $0xb5
    3677:	68 90 29 01 00       	push   $0x12990
    367c:	68 a8 29 01 00       	push   $0x129a8
    3681:	e8 4a 2b 01 00       	call   161d0 <assert_abort@plt>
    3686:	53                   	push   %ebx
    3687:	68 f3 00 00 00       	push   $0xf3
    368c:	68 90 29 01 00       	push   $0x12990
    3691:	68 a4 2e 01 00       	push   $0x12ea4
    3696:	e8 35 2b 01 00       	call   161d0 <assert_abort@plt>
    369b:	51                   	push   %ecx
    369c:	68 95 00 00 00       	push   $0x95
    36a1:	68 94 22 01 00       	push   $0x12294
    36a6:	68 0e 22 01 00       	push   $0x1220e
    36ab:	e8 20 2b 01 00       	call   161d0 <assert_abort@plt>
    36b0:	57                   	push   %edi
    36b1:	68 b4 00 00 00       	push   $0xb4
    36b6:	68 90 29 01 00       	push   $0x12990
    36bb:	68 9d 29 01 00       	push   $0x1299d
    36c0:	e8 0b 2b 01 00       	call   161d0 <assert_abort@plt>
    36c5:	53                   	push   %ebx
    36c6:	68 ff 00 00 00       	push   $0xff
    36cb:	68 90 29 01 00       	push   $0x12990
    36d0:	68 ec 2e 01 00       	push   $0x12eec
    36d5:	e8 f6 2a 01 00       	call   161d0 <assert_abort@plt>
    36da:	50                   	push   %eax
    36db:	68 08 01 00 00       	push   $0x108
    36e0:	68 90 29 01 00       	push   $0x12990
    36e5:	68 74 2f 01 00       	push   $0x12f74
    36ea:	e8 e1 2a 01 00       	call   161d0 <assert_abort@plt>
    36ef:	50                   	push   %eax
    36f0:	68 e7 00 00 00       	push   $0xe7
    36f5:	68 90 29 01 00       	push   $0x12990
    36fa:	68 6c 2e 01 00       	push   $0x12e6c
    36ff:	e8 cc 2a 01 00       	call   161d0 <assert_abort@plt>
    3704:	51                   	push   %ecx
    3705:	6a 77                	push   $0x77
    3707:	68 94 22 01 00       	push   $0x12294
    370c:	68 0e 22 01 00       	push   $0x1220e
    3711:	e8 ba 2a 01 00       	call   161d0 <assert_abort@plt>
    3716:	56                   	push   %esi
    3717:	6a 7e                	push   $0x7e
    3719:	68 94 22 01 00       	push   $0x12294
    371e:	68 0e 22 01 00       	push   $0x1220e
    3723:	e8 a8 2a 01 00       	call   161d0 <assert_abort@plt>
    3728:	52                   	push   %edx
    3729:	68 9c 00 00 00       	push   $0x9c
    372e:	68 94 22 01 00       	push   $0x12294
    3733:	68 0e 22 01 00       	push   $0x1220e
    3738:	e8 93 2a 01 00       	call   161d0 <assert_abort@plt>
    373d:	51                   	push   %ecx
    373e:	68 03 01 00 00       	push   $0x103
    3743:	68 90 29 01 00       	push   $0x12990
    3748:	68 45 25 01 00       	push   $0x12545
    374d:	e8 7e 2a 01 00       	call   161d0 <assert_abort@plt>
    3752:	e8 74 00 00 00       	call   37cb <ohci_endpoint_get.part.0>
    3757:	89 f6                	mov    %esi,%esi
    3759:	8d bc 27 00 00 00 00 	lea    0x0(%edi,%eiz,1),%edi

00003760 <ohci_transfer_batch_commit>:
    3760:	55                   	push   %ebp
    3761:	89 e5                	mov    %esp,%ebp
    3763:	53                   	push   %ebx
    3764:	83 ec 14             	sub    $0x14,%esp
    3767:	8b 45 08             	mov    0x8(%ebp),%eax
    376a:	85 c0                	test   %eax,%eax
    376c:	74 33                	je     37a1 <ohci_transfer_batch_commit+0x41>
    376e:	8b 48 10             	mov    0x10(%eax),%ecx
    3771:	8b 50 0c             	mov    0xc(%eax),%edx
    3774:	8b 58 08             	mov    0x8(%eax),%ebx
    3777:	8b 14 8a             	mov    (%edx,%ecx,4),%edx
    377a:	85 db                	test   %ebx,%ebx
    377c:	74 38                	je     37b6 <ohci_transfer_batch_commit+0x56>
    377e:	50                   	push   %eax
    377f:	50                   	push   %eax
    3780:	8d 45 f4             	lea    -0xc(%ebp),%eax
    3783:	50                   	push   %eax
    3784:	52                   	push   %edx
    3785:	e8 76 2b 01 00       	call   16300 <as_get_physical_mapping@plt>
    378a:	83 c4 10             	add    $0x10,%esp
    378d:	31 d2                	xor    %edx,%edx
    378f:	85 c0                	test   %eax,%eax
    3791:	75 06                	jne    3799 <ohci_transfer_batch_commit+0x39>
    3793:	8b 55 f4             	mov    -0xc(%ebp),%edx
    3796:	83 e2 f0             	and    $0xfffffff0,%edx
    3799:	89 53 04             	mov    %edx,0x4(%ebx)
    379c:	8b 5d fc             	mov    -0x4(%ebp),%ebx
    379f:	c9                   	leave  
    37a0:	c3                   	ret    
    37a1:	51                   	push   %ecx
    37a2:	68 13 01 00 00       	push   $0x113
    37a7:	68 90 29 01 00       	push   $0x12990
    37ac:	68 9d 29 01 00       	push   $0x1299d
    37b1:	e8 1a 2a 01 00       	call   161d0 <assert_abort@plt>
    37b6:	52                   	push   %edx
    37b7:	68 95 00 00 00       	push   $0x95
    37bc:	68 94 22 01 00       	push   $0x12294
    37c1:	68 0e 22 01 00       	push   $0x1220e
    37c6:	e8 05 2a 01 00       	call   161d0 <assert_abort@plt>

000037cb <ohci_endpoint_get.part.0>:
    37cb:	55                   	push   %ebp
    37cc:	89 e5                	mov    %esp,%ebp
    37ce:	83 ec 0c             	sub    $0xc,%esp
    37d1:	6a 40                	push   $0x40
    37d3:	68 be 29 01 00       	push   $0x129be
    37d8:	68 4a 25 01 00       	push   $0x1254a
    37dd:	e8 ee 29 01 00       	call   161d0 <assert_abort@plt>
    37e2:	66 90                	xchg   %ax,%ax
    37e4:	66 90                	xchg   %ax,%ax
    37e6:	66 90                	xchg   %ax,%ax
    37e8:	66 90                	xchg   %ax,%ax
    37ea:	66 90                	xchg   %ax,%ax
    37ec:	66 90                	xchg   %ax,%ax
    37ee:	66 90                	xchg   %ax,%ax

000037f0 <ohci_ep_toggle_set>:
    37f0:	55                   	push   %ebp
    37f1:	89 e5                	mov    %esp,%ebp
    37f3:	83 ec 08             	sub    $0x8,%esp
    37f6:	8b 45 08             	mov    0x8(%ebp),%eax
    37f9:	85 c0                	test   %eax,%eax
    37fb:	74 3d                	je     383a <ohci_ep_toggle_set+0x4a>
    37fd:	8b 00                	mov    (%eax),%eax
    37ff:	85 c0                	test   %eax,%eax
    3801:	74 25                	je     3828 <ohci_ep_toggle_set+0x38>
    3803:	8b 55 0c             	mov    0xc(%ebp),%edx
    3806:	85 d2                	test   %edx,%edx
    3808:	8b 50 08             	mov    0x8(%eax),%edx
    380b:	75 13                	jne    3820 <ohci_ep_toggle_set+0x30>
    380d:	83 e2 fd             	and    $0xfffffffd,%edx
    3810:	89 50 08             	mov    %edx,0x8(%eax)
    3813:	8b 50 08             	mov    0x8(%eax),%edx
    3816:	83 e2 fe             	and    $0xfffffffe,%edx
    3819:	89 50 08             	mov    %edx,0x8(%eax)
    381c:	c9                   	leave  
    381d:	c3                   	ret    
    381e:	66 90                	xchg   %ax,%ax
    3820:	83 ca 02             	or     $0x2,%edx
    3823:	89 50 08             	mov    %edx,0x8(%eax)
    3826:	c9                   	leave  
    3827:	c3                   	ret    
    3828:	51                   	push   %ecx
    3829:	6a 34                	push   $0x34
    382b:	68 10 30 01 00       	push   $0x13010
    3830:	68 20 30 01 00       	push   $0x13020
    3835:	e8 96 29 01 00       	call   161d0 <assert_abort@plt>
    383a:	50                   	push   %eax
    383b:	6a 33                	push   $0x33
    383d:	68 10 30 01 00       	push   $0x13010
    3842:	68 0e 22 01 00       	push   $0x1220e
    3847:	e8 84 29 01 00       	call   161d0 <assert_abort@plt>
    384c:	8d 74 26 00          	lea    0x0(%esi,%eiz,1),%esi

00003850 <ohci_ep_toggle_get>:
    3850:	55                   	push   %ebp
    3851:	89 e5                	mov    %esp,%ebp
    3853:	83 ec 08             	sub    $0x8,%esp
    3856:	8b 45 08             	mov    0x8(%ebp),%eax
    3859:	85 c0                	test   %eax,%eax
    385b:	74 10                	je     386d <ohci_ep_toggle_get+0x1d>
    385d:	8b 00                	mov    (%eax),%eax
    385f:	85 c0                	test   %eax,%eax
    3861:	74 1c                	je     387f <ohci_ep_toggle_get+0x2f>
    3863:	8b 40 08             	mov    0x8(%eax),%eax
    3866:	c9                   	leave  
    3867:	d1 e8                	shr    %eax
    3869:	83 e0 01             	and    $0x1,%eax
    386c:	c3                   	ret    
    386d:	52                   	push   %edx
    386e:	6a 40                	push   $0x40
    3870:	68 10 30 01 00       	push   $0x13010
    3875:	68 0e 22 01 00       	push   $0x1220e
    387a:	e8 51 29 01 00       	call   161d0 <assert_abort@plt>
    387f:	50                   	push   %eax
    3880:	6a 41                	push   $0x41
    3882:	68 10 30 01 00       	push   $0x13010
    3887:	68 20 30 01 00       	push   $0x13020
    388c:	e8 3f 29 01 00       	call   161d0 <assert_abort@plt>
    3891:	eb 0d                	jmp    38a0 <ohci_endpoint_init>
    3893:	90                   	nop
    3894:	90                   	nop
    3895:	90                   	nop
    3896:	90                   	nop
    3897:	90                   	nop
    3898:	90                   	nop
    3899:	90                   	nop
    389a:	90                   	nop
    389b:	90                   	nop
    389c:	90                   	nop
    389d:	90                   	nop
    389e:	90                   	nop
    389f:	90                   	nop

000038a0 <ohci_endpoint_init>:
    38a0:	55                   	push   %ebp
    38a1:	89 e5                	mov    %esp,%ebp
    38a3:	57                   	push   %edi
    38a4:	56                   	push   %esi
    38a5:	53                   	push   %ebx
    38a6:	83 ec 1c             	sub    $0x1c,%esp
    38a9:	8b 45 0c             	mov    0xc(%ebp),%eax
    38ac:	85 c0                	test   %eax,%eax
    38ae:	0f 84 6d 01 00 00    	je     3a21 <ohci_endpoint_init+0x181>
    38b4:	83 ec 0c             	sub    $0xc,%esp
    38b7:	6a 10                	push   $0x10
    38b9:	e8 22 28 01 00       	call   160e0 <malloc@plt>
    38be:	83 c4 10             	add    $0x10,%esp
    38c1:	89 c3                	mov    %eax,%ebx
    38c3:	85 c0                	test   %eax,%eax
    38c5:	0f 84 3d 01 00 00    	je     3a08 <ohci_endpoint_init+0x168>
    38cb:	8d 7d e4             	lea    -0x1c(%ebp),%edi
    38ce:	8d 75 e0             	lea    -0x20(%ebp),%esi
    38d1:	c7 45 e4 ff ff ff ff 	movl   $0xffffffff,-0x1c(%ebp)
    38d8:	50                   	push   %eax
    38d9:	50                   	push   %eax
    38da:	57                   	push   %edi
    38db:	56                   	push   %esi
    38dc:	6a 00                	push   $0x0
    38de:	6a 03                	push   $0x3
    38e0:	6a 00                	push   $0x0
    38e2:	68 00 10 00 00       	push   $0x1000
    38e7:	e8 a4 2a 01 00       	call   16390 <dmamem_map_anonymous@plt>
    38ec:	83 c4 20             	add    $0x20,%esp
    38ef:	85 c0                	test   %eax,%eax
    38f1:	0f 85 c9 00 00 00    	jne    39c0 <ohci_endpoint_init+0x120>
    38f7:	8b 45 e4             	mov    -0x1c(%ebp),%eax
    38fa:	51                   	push   %ecx
    38fb:	68 00 10 00 00       	push   $0x1000
    3900:	6a 05                	push   $0x5
    3902:	50                   	push   %eax
    3903:	e8 58 2a 01 00       	call   16360 <memset@plt>
    3908:	8b 45 e4             	mov    -0x1c(%ebp),%eax
    390b:	83 c4 10             	add    $0x10,%esp
    390e:	89 03                	mov    %eax,(%ebx)
    3910:	85 c0                	test   %eax,%eax
    3912:	0f 84 ae 00 00 00    	je     39c6 <ohci_endpoint_init+0x126>
    3918:	c7 45 e4 ff ff ff ff 	movl   $0xffffffff,-0x1c(%ebp)
    391f:	52                   	push   %edx
    3920:	52                   	push   %edx
    3921:	57                   	push   %edi
    3922:	56                   	push   %esi
    3923:	6a 00                	push   $0x0
    3925:	6a 03                	push   $0x3
    3927:	6a 00                	push   $0x0
    3929:	68 00 10 00 00       	push   $0x1000
    392e:	e8 5d 2a 01 00       	call   16390 <dmamem_map_anonymous@plt>
    3933:	83 c4 20             	add    $0x20,%esp
    3936:	85 c0                	test   %eax,%eax
    3938:	0f 85 a2 00 00 00    	jne    39e0 <ohci_endpoint_init+0x140>
    393e:	50                   	push   %eax
    393f:	8b 45 e4             	mov    -0x1c(%ebp),%eax
    3942:	68 00 10 00 00       	push   $0x1000
    3947:	6a 05                	push   $0x5
    3949:	50                   	push   %eax
    394a:	e8 11 2a 01 00       	call   16360 <memset@plt>
    394f:	8b 45 e4             	mov    -0x1c(%ebp),%eax
    3952:	83 c4 10             	add    $0x10,%esp
    3955:	89 43 04             	mov    %eax,0x4(%ebx)
    3958:	85 c0                	test   %eax,%eax
    395a:	0f 84 87 00 00 00    	je     39e7 <ohci_endpoint_init+0x147>
    3960:	c7 43 08 00 00 00 00 	movl   $0x0,0x8(%ebx)
    3967:	c7 43 0c 00 00 00 00 	movl   $0x0,0xc(%ebx)
    396e:	56                   	push   %esi
    396f:	50                   	push   %eax
    3970:	8b 03                	mov    (%ebx),%eax
    3972:	8b 7d 0c             	mov    0xc(%ebp),%edi
    3975:	57                   	push   %edi
    3976:	50                   	push   %eax
    3977:	e8 14 0b 00 00       	call   4490 <ed_init>
    397c:	8b 45 0c             	mov    0xc(%ebp),%eax
    397f:	68 f0 37 00 00       	push   $0x37f0
    3984:	68 50 38 00 00       	push   $0x3850
    3989:	53                   	push   %ebx
    398a:	50                   	push   %eax
    398b:	e8 f0 2c 00 00       	call   6680 <endpoint_set_hc_data>
    3990:	8b 45 08             	mov    0x8(%ebp),%eax
    3993:	83 c4 20             	add    $0x20,%esp
    3996:	85 c0                	test   %eax,%eax
    3998:	74 75                	je     3a0f <ohci_endpoint_init+0x16f>
    399a:	8b 55 0c             	mov    0xc(%ebp),%edx
    399d:	50                   	push   %eax
    399e:	50                   	push   %eax
    399f:	8b 45 08             	mov    0x8(%ebp),%eax
    39a2:	52                   	push   %edx
    39a3:	8b 88 38 08 00 00    	mov    0x838(%eax),%ecx
    39a9:	51                   	push   %ecx
    39aa:	e8 11 e6 ff ff       	call   1fc0 <hc_enqueue_endpoint>
    39af:	83 c4 10             	add    $0x10,%esp
    39b2:	31 c0                	xor    %eax,%eax
    39b4:	8d 65 f4             	lea    -0xc(%ebp),%esp
    39b7:	5b                   	pop    %ebx
    39b8:	5e                   	pop    %esi
    39b9:	5f                   	pop    %edi
    39ba:	5d                   	pop    %ebp
    39bb:	c3                   	ret    
    39bc:	8d 74 26 00          	lea    0x0(%esi,%eiz,1),%esi
    39c0:	c7 03 00 00 00 00    	movl   $0x0,(%ebx)
    39c6:	83 ec 0c             	sub    $0xc,%esp
    39c9:	53                   	push   %ebx
    39ca:	e8 b1 2b 01 00       	call   16580 <free@plt>
    39cf:	83 c4 10             	add    $0x10,%esp
    39d2:	b8 fe ff ff ff       	mov    $0xfffffffe,%eax
    39d7:	eb db                	jmp    39b4 <ohci_endpoint_init+0x114>
    39d9:	8d b4 26 00 00 00 00 	lea    0x0(%esi,%eiz,1),%esi
    39e0:	c7 43 04 00 00 00 00 	movl   $0x0,0x4(%ebx)
    39e7:	83 ec 0c             	sub    $0xc,%esp
    39ea:	8b 03                	mov    (%ebx),%eax
    39ec:	50                   	push   %eax
    39ed:	e8 1e 28 01 00       	call   16210 <dmamem_unmap_anonymous@plt>
    39f2:	89 1c 24             	mov    %ebx,(%esp)
    39f5:	e8 86 2b 01 00       	call   16580 <free@plt>
    39fa:	83 c4 10             	add    $0x10,%esp
    39fd:	b8 fe ff ff ff       	mov    $0xfffffffe,%eax
    3a02:	eb b0                	jmp    39b4 <ohci_endpoint_init+0x114>
    3a04:	8d 74 26 00          	lea    0x0(%esi,%eiz,1),%esi
    3a08:	b8 fe ff ff ff       	mov    $0xfffffffe,%eax
    3a0d:	eb a5                	jmp    39b4 <ohci_endpoint_init+0x114>
    3a0f:	53                   	push   %ebx
    3a10:	6a 63                	push   $0x63
    3a12:	68 30 30 01 00       	push   $0x13030
    3a17:	68 4d 25 01 00       	push   $0x1254d
    3a1c:	e8 af 27 01 00       	call   161d0 <assert_abort@plt>
    3a21:	50                   	push   %eax
    3a22:	6a 4c                	push   $0x4c
    3a24:	68 10 30 01 00       	push   $0x13010
    3a29:	68 4a 25 01 00       	push   $0x1254a
    3a2e:	e8 9d 27 01 00       	call   161d0 <assert_abort@plt>
    3a33:	8d b6 00 00 00 00    	lea    0x0(%esi),%esi
    3a39:	8d bc 27 00 00 00 00 	lea    0x0(%edi,%eiz,1),%edi

00003a40 <ohci_endpoint_fini>:
    3a40:	55                   	push   %ebp
    3a41:	89 e5                	mov    %esp,%ebp
    3a43:	56                   	push   %esi
    3a44:	53                   	push   %ebx
    3a45:	8b 45 08             	mov    0x8(%ebp),%eax
    3a48:	8b 5d 0c             	mov    0xc(%ebp),%ebx
    3a4b:	85 c0                	test   %eax,%eax
    3a4d:	74 6a                	je     3ab9 <ohci_endpoint_fini+0x79>
    3a4f:	85 db                	test   %ebx,%ebx
    3a51:	74 54                	je     3aa7 <ohci_endpoint_fini+0x67>
    3a53:	8b 73 4c             	mov    0x4c(%ebx),%esi
    3a56:	52                   	push   %edx
    3a57:	52                   	push   %edx
    3a58:	53                   	push   %ebx
    3a59:	8b 88 38 08 00 00    	mov    0x838(%eax),%ecx
    3a5f:	51                   	push   %ecx
    3a60:	e8 4b e7 ff ff       	call   21b0 <hc_dequeue_endpoint>
    3a65:	89 1c 24             	mov    %ebx,(%esp)
    3a68:	e8 73 2c 00 00       	call   66e0 <endpoint_clear_hc_data>
    3a6d:	83 c4 10             	add    $0x10,%esp
    3a70:	85 f6                	test   %esi,%esi
    3a72:	74 2c                	je     3aa0 <ohci_endpoint_fini+0x60>
    3a74:	83 ec 0c             	sub    $0xc,%esp
    3a77:	8b 06                	mov    (%esi),%eax
    3a79:	50                   	push   %eax
    3a7a:	e8 91 27 01 00       	call   16210 <dmamem_unmap_anonymous@plt>
    3a7f:	8b 4e 04             	mov    0x4(%esi),%ecx
    3a82:	5a                   	pop    %edx
    3a83:	51                   	push   %ecx
    3a84:	e8 87 27 01 00       	call   16210 <dmamem_unmap_anonymous@plt>
    3a89:	89 75 08             	mov    %esi,0x8(%ebp)
    3a8c:	83 c4 10             	add    $0x10,%esp
    3a8f:	8d 65 f8             	lea    -0x8(%ebp),%esp
    3a92:	5b                   	pop    %ebx
    3a93:	5e                   	pop    %esi
    3a94:	5d                   	pop    %ebp
    3a95:	e9 e6 2a 01 00       	jmp    16580 <free@plt>
    3a9a:	8d b6 00 00 00 00    	lea    0x0(%esi),%esi
    3aa0:	8d 65 f8             	lea    -0x8(%ebp),%esp
    3aa3:	5b                   	pop    %ebx
    3aa4:	5e                   	pop    %esi
    3aa5:	5d                   	pop    %ebp
    3aa6:	c3                   	ret    
    3aa7:	53                   	push   %ebx
    3aa8:	6a 6e                	push   $0x6e
    3aaa:	68 10 30 01 00       	push   $0x13010
    3aaf:	68 4a 25 01 00       	push   $0x1254a
    3ab4:	e8 17 27 01 00       	call   161d0 <assert_abort@plt>
    3ab9:	56                   	push   %esi
    3aba:	6a 6d                	push   $0x6d
    3abc:	68 10 30 01 00       	push   $0x13010
    3ac1:	68 4d 25 01 00       	push   $0x1254d
    3ac6:	e8 05 27 01 00       	call   161d0 <assert_abort@plt>
    3acb:	66 90                	xchg   %ax,%ax
    3acd:	66 90                	xchg   %ax,%ax
    3acf:	90                   	nop

00003ad0 <req_set_port_feature>:
    3ad0:	55                   	push   %ebp
    3ad1:	89 e5                	mov    %esp,%ebp
    3ad3:	57                   	push   %edi
    3ad4:	56                   	push   %esi
    3ad5:	53                   	push   %ebx
    3ad6:	83 ec 28             	sub    $0x28,%esp
    3ad9:	8b 7d 08             	mov    0x8(%ebp),%edi
    3adc:	8b 75 0c             	mov    0xc(%ebp),%esi
    3adf:	57                   	push   %edi
    3ae0:	e8 eb 48 00 00       	call   83d0 <virthub_get_data>
    3ae5:	83 c4 10             	add    $0x10,%esp
    3ae8:	85 c0                	test   %eax,%eax
    3aea:	0f 84 cf 00 00 00    	je     3bbf <req_set_port_feature+0xef>
    3af0:	66 83 7e 06 00       	cmpw   $0x0,0x6(%esi)
    3af5:	0f 85 b5 00 00 00    	jne    3bb0 <req_set_port_feature+0xe0>
    3afb:	31 db                	xor    %ebx,%ebx
    3afd:	89 c7                	mov    %eax,%edi
    3aff:	66 8b 5e 04          	mov    0x4(%esi),%bx
    3b03:	4b                   	dec    %ebx
    3b04:	3b 58 68             	cmp    0x68(%eax),%ebx
    3b07:	0f 87 ab 00 00 00    	ja     3bb8 <req_set_port_feature+0xe8>
    3b0d:	66 8b 76 02          	mov    0x2(%esi),%si
    3b11:	66 83 fe 04          	cmp    $0x4,%si
    3b15:	74 28                	je     3b3f <req_set_port_feature+0x6f>
    3b17:	76 5f                	jbe    3b78 <req_set_port_feature+0xa8>
    3b19:	66 83 fe 08          	cmp    $0x8,%si
    3b1d:	75 62                	jne    3b81 <req_set_port_feature+0xb1>
    3b1f:	83 ec 0c             	sub    $0xc,%esp
    3b22:	8b 40 64             	mov    0x64(%eax),%eax
    3b25:	83 c0 48             	add    $0x48,%eax
    3b28:	50                   	push   %eax
    3b29:	e8 a2 25 01 00       	call   160d0 <pio_read_32@plt>
    3b2e:	89 c2                	mov    %eax,%edx
    3b30:	83 c4 10             	add    $0x10,%esp
    3b33:	31 c0                	xor    %eax,%eax
    3b35:	f6 c6 02             	test   $0x2,%dh
    3b38:	75 32                	jne    3b6c <req_set_port_feature+0x9c>
    3b3a:	80 e6 01             	and    $0x1,%dh
    3b3d:	74 51                	je     3b90 <req_set_port_feature+0xc0>
    3b3f:	53                   	push   %ebx
    3b40:	68 0c 31 01 00       	push   $0x1310c
    3b45:	6a 05                	push   $0x5
    3b47:	6a ff                	push   $0xffffffff
    3b49:	e8 32 26 01 00       	call   16180 <log_msg@plt>
    3b4e:	58                   	pop    %eax
    3b4f:	89 f1                	mov    %esi,%ecx
    3b51:	b8 01 00 00 00       	mov    $0x1,%eax
    3b56:	d3 e0                	shl    %cl,%eax
    3b58:	5a                   	pop    %edx
    3b59:	50                   	push   %eax
    3b5a:	8b 47 64             	mov    0x64(%edi),%eax
    3b5d:	8d 44 98 54          	lea    0x54(%eax,%ebx,4),%eax
    3b61:	50                   	push   %eax
    3b62:	e8 79 27 01 00       	call   162e0 <pio_write_32@plt>
    3b67:	83 c4 10             	add    $0x10,%esp
    3b6a:	31 c0                	xor    %eax,%eax
    3b6c:	8d 65 f4             	lea    -0xc(%ebp),%esp
    3b6f:	5b                   	pop    %ebx
    3b70:	5e                   	pop    %esi
    3b71:	5f                   	pop    %edi
    3b72:	5d                   	pop    %ebp
    3b73:	c3                   	ret    
    3b74:	8d 74 26 00          	lea    0x0(%esi,%eiz,1),%esi
    3b78:	8d 46 ff             	lea    -0x1(%esi),%eax
    3b7b:	66 83 f8 01          	cmp    $0x1,%ax
    3b7f:	76 be                	jbe    3b3f <req_set_port_feature+0x6f>
    3b81:	8d 65 f4             	lea    -0xc(%ebp),%esp
    3b84:	b8 f5 ff ff ff       	mov    $0xfffffff5,%eax
    3b89:	5b                   	pop    %ebx
    3b8a:	5e                   	pop    %esi
    3b8b:	5f                   	pop    %edi
    3b8c:	5d                   	pop    %ebp
    3b8d:	c3                   	ret    
    3b8e:	66 90                	xchg   %ax,%ax
    3b90:	51                   	push   %ecx
    3b91:	51                   	push   %ecx
    3b92:	8b 57 64             	mov    0x64(%edi),%edx
    3b95:	68 00 00 01 00       	push   $0x10000
    3b9a:	83 c2 50             	add    $0x50,%edx
    3b9d:	89 45 e4             	mov    %eax,-0x1c(%ebp)
    3ba0:	52                   	push   %edx
    3ba1:	e8 3a 27 01 00       	call   162e0 <pio_write_32@plt>
    3ba6:	83 c4 10             	add    $0x10,%esp
    3ba9:	8b 45 e4             	mov    -0x1c(%ebp),%eax
    3bac:	eb be                	jmp    3b6c <req_set_port_feature+0x9c>
    3bae:	66 90                	xchg   %ax,%ax
    3bb0:	b8 d3 fe ff ff       	mov    $0xfffffed3,%eax
    3bb5:	eb b5                	jmp    3b6c <req_set_port_feature+0x9c>
    3bb7:	90                   	nop
    3bb8:	b8 f2 ff ff ff       	mov    $0xfffffff2,%eax
    3bbd:	eb ad                	jmp    3b6c <req_set_port_feature+0x9c>
    3bbf:	53                   	push   %ebx
    3bc0:	68 89 01 00 00       	push   $0x189
    3bc5:	68 5f 30 01 00       	push   $0x1305f
    3bca:	68 69 30 01 00       	push   $0x13069
    3bcf:	e8 fc 25 01 00       	call   161d0 <assert_abort@plt>
    3bd4:	8d b6 00 00 00 00    	lea    0x0(%esi),%esi
    3bda:	8d bf 00 00 00 00    	lea    0x0(%edi),%edi

00003be0 <req_clear_port_feature>:
    3be0:	55                   	push   %ebp
    3be1:	89 e5                	mov    %esp,%ebp
    3be3:	57                   	push   %edi
    3be4:	56                   	push   %esi
    3be5:	53                   	push   %ebx
    3be6:	83 ec 18             	sub    $0x18,%esp
    3be9:	8b 45 08             	mov    0x8(%ebp),%eax
    3bec:	8b 75 0c             	mov    0xc(%ebp),%esi
    3bef:	50                   	push   %eax
    3bf0:	e8 db 47 00 00       	call   83d0 <virthub_get_data>
    3bf5:	83 c4 10             	add    $0x10,%esp
    3bf8:	85 c0                	test   %eax,%eax
    3bfa:	0f 84 ea 00 00 00    	je     3cea <req_clear_port_feature+0x10a>
    3c00:	66 83 7e 06 00       	cmpw   $0x0,0x6(%esi)
    3c05:	0f 85 cd 00 00 00    	jne    3cd8 <req_clear_port_feature+0xf8>
    3c0b:	31 db                	xor    %ebx,%ebx
    3c0d:	89 c7                	mov    %eax,%edi
    3c0f:	66 8b 5e 04          	mov    0x4(%esi),%bx
    3c13:	4b                   	dec    %ebx
    3c14:	3b 58 68             	cmp    0x68(%eax),%ebx
    3c17:	0f 87 c3 00 00 00    	ja     3ce0 <req_clear_port_feature+0x100>
    3c1d:	66 8b 76 02          	mov    0x2(%esi),%si
    3c21:	66 83 fe 14          	cmp    $0x14,%si
    3c25:	0f 87 8d 00 00 00    	ja     3cb8 <req_clear_port_feature+0xd8>
    3c2b:	31 c0                	xor    %eax,%eax
    3c2d:	66 89 f0             	mov    %si,%ax
    3c30:	ff 24 85 a0 32 01 00 	jmp    *0x132a0(,%eax,4)
    3c37:	90                   	nop
    3c38:	53                   	push   %ebx
    3c39:	68 48 31 01 00       	push   $0x13148
    3c3e:	6a 05                	push   $0x5
    3c40:	6a ff                	push   $0xffffffff
    3c42:	e8 39 25 01 00       	call   16180 <log_msg@plt>
    3c47:	58                   	pop    %eax
    3c48:	89 f1                	mov    %esi,%ecx
    3c4a:	b8 01 00 00 00       	mov    $0x1,%eax
    3c4f:	d3 e0                	shl    %cl,%eax
    3c51:	5a                   	pop    %edx
    3c52:	50                   	push   %eax
    3c53:	8b 47 64             	mov    0x64(%edi),%eax
    3c56:	8d 44 98 54          	lea    0x54(%eax,%ebx,4),%eax
    3c5a:	50                   	push   %eax
    3c5b:	e8 80 26 01 00       	call   162e0 <pio_write_32@plt>
    3c60:	83 c4 10             	add    $0x10,%esp
    3c63:	31 c0                	xor    %eax,%eax
    3c65:	8d 65 f4             	lea    -0xc(%ebp),%esp
    3c68:	5b                   	pop    %ebx
    3c69:	5e                   	pop    %esi
    3c6a:	5f                   	pop    %edi
    3c6b:	5d                   	pop    %ebp
    3c6c:	c3                   	ret    
    3c6d:	8d 76 00             	lea    0x0(%esi),%esi
    3c70:	56                   	push   %esi
    3c71:	56                   	push   %esi
    3c72:	6a 01                	push   $0x1
    3c74:	eb dd                	jmp    3c53 <req_clear_port_feature+0x73>
    3c76:	66 90                	xchg   %ax,%ax
    3c78:	51                   	push   %ecx
    3c79:	51                   	push   %ecx
    3c7a:	6a 08                	push   $0x8
    3c7c:	eb d5                	jmp    3c53 <req_clear_port_feature+0x73>
    3c7e:	66 90                	xchg   %ax,%ax
    3c80:	83 ec 0c             	sub    $0xc,%esp
    3c83:	8b 47 64             	mov    0x64(%edi),%eax
    3c86:	83 c0 48             	add    $0x48,%eax
    3c89:	50                   	push   %eax
    3c8a:	e8 41 24 01 00       	call   160d0 <pio_read_32@plt>
    3c8f:	83 c4 10             	add    $0x10,%esp
    3c92:	f6 c4 02             	test   $0x2,%ah
    3c95:	75 21                	jne    3cb8 <req_clear_port_feature+0xd8>
    3c97:	f6 c4 01             	test   $0x1,%ah
    3c9a:	75 2c                	jne    3cc8 <req_clear_port_feature+0xe8>
    3c9c:	50                   	push   %eax
    3c9d:	50                   	push   %eax
    3c9e:	8b 47 64             	mov    0x64(%edi),%eax
    3ca1:	6a 01                	push   $0x1
    3ca3:	83 c0 50             	add    $0x50,%eax
    3ca6:	50                   	push   %eax
    3ca7:	e8 34 26 01 00       	call   162e0 <pio_write_32@plt>
    3cac:	83 c4 10             	add    $0x10,%esp
    3caf:	31 c0                	xor    %eax,%eax
    3cb1:	eb b2                	jmp    3c65 <req_clear_port_feature+0x85>
    3cb3:	90                   	nop
    3cb4:	8d 74 26 00          	lea    0x0(%esi,%eiz,1),%esi
    3cb8:	8d 65 f4             	lea    -0xc(%ebp),%esp
    3cbb:	b8 f5 ff ff ff       	mov    $0xfffffff5,%eax
    3cc0:	5b                   	pop    %ebx
    3cc1:	5e                   	pop    %esi
    3cc2:	5f                   	pop    %edi
    3cc3:	5d                   	pop    %ebp
    3cc4:	c3                   	ret    
    3cc5:	8d 76 00             	lea    0x0(%esi),%esi
    3cc8:	50                   	push   %eax
    3cc9:	50                   	push   %eax
    3cca:	68 00 02 00 00       	push   $0x200
    3ccf:	eb 82                	jmp    3c53 <req_clear_port_feature+0x73>
    3cd1:	8d b4 26 00 00 00 00 	lea    0x0(%esi,%eiz,1),%esi
    3cd8:	b8 d3 fe ff ff       	mov    $0xfffffed3,%eax
    3cdd:	eb 86                	jmp    3c65 <req_clear_port_feature+0x85>
    3cdf:	90                   	nop
    3ce0:	b8 f2 ff ff ff       	mov    $0xfffffff2,%eax
    3ce5:	e9 7b ff ff ff       	jmp    3c65 <req_clear_port_feature+0x85>
    3cea:	50                   	push   %eax
    3ceb:	68 49 01 00 00       	push   $0x149
    3cf0:	68 5f 30 01 00       	push   $0x1305f
    3cf5:	68 69 30 01 00       	push   $0x13069
    3cfa:	e8 d1 24 01 00       	call   161d0 <assert_abort@plt>
    3cff:	90                   	nop

00003d00 <req_status_change_handler>:
    3d00:	55                   	push   %ebp
    3d01:	89 e5                	mov    %esp,%ebp
    3d03:	57                   	push   %edi
    3d04:	56                   	push   %esi
    3d05:	53                   	push   %ebx
    3d06:	83 ec 28             	sub    $0x28,%esp
    3d09:	8b 75 08             	mov    0x8(%ebp),%esi
    3d0c:	56                   	push   %esi
    3d0d:	e8 be 46 00 00       	call   83d0 <virthub_get_data>
    3d12:	83 c4 10             	add    $0x10,%esp
    3d15:	85 c0                	test   %eax,%eax
    3d17:	0f 84 e9 00 00 00    	je     3e06 <req_status_change_handler+0x106>
    3d1d:	89 c7                	mov    %eax,%edi
    3d1f:	8b 40 68             	mov    0x68(%eax),%eax
    3d22:	83 c0 08             	add    $0x8,%eax
    3d25:	c1 e8 03             	shr    $0x3,%eax
    3d28:	3b 45 18             	cmp    0x18(%ebp),%eax
    3d2b:	0f 87 c7 00 00 00    	ja     3df8 <req_status_change_handler+0xf8>
    3d31:	83 ec 0c             	sub    $0xc,%esp
    3d34:	8b 47 64             	mov    0x64(%edi),%eax
    3d37:	83 c0 50             	add    $0x50,%eax
    3d3a:	66 c7 45 e6 00 00    	movw   $0x0,-0x1a(%ebp)
    3d40:	50                   	push   %eax
    3d41:	e8 8a 23 01 00       	call   160d0 <pio_read_32@plt>
    3d46:	83 c4 10             	add    $0x10,%esp
    3d49:	a9 00 00 03 00       	test   $0x30000,%eax
    3d4e:	0f 85 94 00 00 00    	jne    3de8 <req_status_change_handler+0xe8>
    3d54:	8b 4f 68             	mov    0x68(%edi),%ecx
    3d57:	be 54 00 00 00       	mov    $0x54,%esi
    3d5c:	bb 01 00 00 00       	mov    $0x1,%ebx
    3d61:	85 c9                	test   %ecx,%ecx
    3d63:	74 31                	je     3d96 <req_status_change_handler+0x96>
    3d65:	8d 76 00             	lea    0x0(%esi),%esi
    3d68:	83 ec 0c             	sub    $0xc,%esp
    3d6b:	8b 47 64             	mov    0x64(%edi),%eax
    3d6e:	01 f0                	add    %esi,%eax
    3d70:	50                   	push   %eax
    3d71:	e8 5a 23 01 00       	call   160d0 <pio_read_32@plt>
    3d76:	83 c4 10             	add    $0x10,%esp
    3d79:	a9 00 00 1f 00       	test   $0x1f0000,%eax
    3d7e:	74 0d                	je     3d8d <req_status_change_handler+0x8d>
    3d80:	b8 01 00 00 00       	mov    $0x1,%eax
    3d85:	88 d9                	mov    %bl,%cl
    3d87:	d3 e0                	shl    %cl,%eax
    3d89:	66 09 45 e6          	or     %ax,-0x1a(%ebp)
    3d8d:	43                   	inc    %ebx
    3d8e:	83 c6 04             	add    $0x4,%esi
    3d91:	39 5f 68             	cmp    %ebx,0x68(%edi)
    3d94:	73 d2                	jae    3d68 <req_status_change_handler+0x68>
    3d96:	31 c0                	xor    %eax,%eax
    3d98:	66 8b 45 e6          	mov    -0x1a(%ebp),%ax
    3d9c:	50                   	push   %eax
    3d9d:	68 98 31 01 00       	push   $0x13198
    3da2:	6a 05                	push   $0x5
    3da4:	6a ff                	push   $0xffffffff
    3da6:	e8 d5 23 01 00       	call   16180 <log_msg@plt>
    3dab:	83 c4 10             	add    $0x10,%esp
    3dae:	66 83 7d e6 00       	cmpw   $0x0,-0x1a(%ebp)
    3db3:	74 4a                	je     3dff <req_status_change_handler+0xff>
    3db5:	50                   	push   %eax
    3db6:	8b 55 14             	mov    0x14(%ebp),%edx
    3db9:	8b 47 68             	mov    0x68(%edi),%eax
    3dbc:	83 c0 08             	add    $0x8,%eax
    3dbf:	c1 e8 03             	shr    $0x3,%eax
    3dc2:	50                   	push   %eax
    3dc3:	8d 45 e6             	lea    -0x1a(%ebp),%eax
    3dc6:	50                   	push   %eax
    3dc7:	52                   	push   %edx
    3dc8:	e8 e3 22 01 00       	call   160b0 <memcpy@plt>
    3dcd:	8b 47 68             	mov    0x68(%edi),%eax
    3dd0:	83 c0 08             	add    $0x8,%eax
    3dd3:	8b 55 1c             	mov    0x1c(%ebp),%edx
    3dd6:	c1 e8 03             	shr    $0x3,%eax
    3dd9:	83 c4 10             	add    $0x10,%esp
    3ddc:	89 02                	mov    %eax,(%edx)
    3dde:	31 c0                	xor    %eax,%eax
    3de0:	8d 65 f4             	lea    -0xc(%ebp),%esp
    3de3:	5b                   	pop    %ebx
    3de4:	5e                   	pop    %esi
    3de5:	5f                   	pop    %edi
    3de6:	5d                   	pop    %ebp
    3de7:	c3                   	ret    
    3de8:	66 83 4d e6 01       	orw    $0x1,-0x1a(%ebp)
    3ded:	e9 62 ff ff ff       	jmp    3d54 <req_status_change_handler+0x54>
    3df2:	8d b6 00 00 00 00    	lea    0x0(%esi),%esi
    3df8:	b8 d3 fe ff ff       	mov    $0xfffffed3,%eax
    3dfd:	eb e1                	jmp    3de0 <req_status_change_handler+0xe0>
    3dff:	b8 d1 fe ff ff       	mov    $0xfffffed1,%eax
    3e04:	eb da                	jmp    3de0 <req_status_change_handler+0xe0>
    3e06:	53                   	push   %ebx
    3e07:	68 b7 01 00 00       	push   $0x1b7
    3e0c:	68 5f 30 01 00       	push   $0x1305f
    3e11:	68 69 30 01 00       	push   $0x13069
    3e16:	e8 b5 23 01 00       	call   161d0 <assert_abort@plt>
    3e1b:	90                   	nop
    3e1c:	8d 74 26 00          	lea    0x0(%esi,%eiz,1),%esi

00003e20 <req_clear_hub_feature>:
    3e20:	55                   	push   %ebp
    3e21:	89 e5                	mov    %esp,%ebp
    3e23:	83 ec 14             	sub    $0x14,%esp
    3e26:	8b 45 08             	mov    0x8(%ebp),%eax
    3e29:	50                   	push   %eax
    3e2a:	e8 a1 45 00 00       	call   83d0 <virthub_get_data>
    3e2f:	83 c4 10             	add    $0x10,%esp
    3e32:	85 c0                	test   %eax,%eax
    3e34:	74 2c                	je     3e62 <req_clear_hub_feature+0x42>
    3e36:	8b 55 0c             	mov    0xc(%ebp),%edx
    3e39:	66 83 7a 02 01       	cmpw   $0x1,0x2(%edx)
    3e3e:	74 08                	je     3e48 <req_clear_hub_feature+0x28>
    3e40:	31 c0                	xor    %eax,%eax
    3e42:	c9                   	leave  
    3e43:	c3                   	ret    
    3e44:	8d 74 26 00          	lea    0x0(%esi,%eiz,1),%esi
    3e48:	52                   	push   %edx
    3e49:	52                   	push   %edx
    3e4a:	8b 40 64             	mov    0x64(%eax),%eax
    3e4d:	68 00 00 02 00       	push   $0x20000
    3e52:	83 c0 50             	add    $0x50,%eax
    3e55:	50                   	push   %eax
    3e56:	e8 85 24 01 00       	call   162e0 <pio_write_32@plt>
    3e5b:	83 c4 10             	add    $0x10,%esp
    3e5e:	31 c0                	xor    %eax,%eax
    3e60:	c9                   	leave  
    3e61:	c3                   	ret    
    3e62:	51                   	push   %ecx
    3e63:	68 12 01 00 00       	push   $0x112
    3e68:	68 5f 30 01 00       	push   $0x1305f
    3e6d:	68 69 30 01 00       	push   $0x13069
    3e72:	e8 59 23 01 00       	call   161d0 <assert_abort@plt>
    3e77:	89 f6                	mov    %esi,%esi
    3e79:	8d bc 27 00 00 00 00 	lea    0x0(%edi,%eiz,1),%edi

00003e80 <req_get_status>:
    3e80:	55                   	push   %ebp
    3e81:	89 e5                	mov    %esp,%ebp
    3e83:	83 ec 24             	sub    $0x24,%esp
    3e86:	8b 4d 08             	mov    0x8(%ebp),%ecx
    3e89:	51                   	push   %ecx
    3e8a:	e8 41 45 00 00       	call   83d0 <virthub_get_data>
    3e8f:	83 c4 10             	add    $0x10,%esp
    3e92:	85 c0                	test   %eax,%eax
    3e94:	74 51                	je     3ee7 <req_get_status+0x67>
    3e96:	8b 55 0c             	mov    0xc(%ebp),%edx
    3e99:	66 83 7a 06 04       	cmpw   $0x4,0x6(%edx)
    3e9e:	75 40                	jne    3ee0 <req_get_status+0x60>
    3ea0:	83 ec 0c             	sub    $0xc,%esp
    3ea3:	8b 40 64             	mov    0x64(%eax),%eax
    3ea6:	83 c0 50             	add    $0x50,%eax
    3ea9:	50                   	push   %eax
    3eaa:	e8 21 22 01 00       	call   160d0 <pio_read_32@plt>
    3eaf:	83 c4 0c             	add    $0xc,%esp
    3eb2:	25 03 00 03 00       	and    $0x30003,%eax
    3eb7:	89 45 f4             	mov    %eax,-0xc(%ebp)
    3eba:	8d 45 f4             	lea    -0xc(%ebp),%eax
    3ebd:	6a 04                	push   $0x4
    3ebf:	50                   	push   %eax
    3ec0:	8b 45 10             	mov    0x10(%ebp),%eax
    3ec3:	50                   	push   %eax
    3ec4:	e8 e7 21 01 00       	call   160b0 <memcpy@plt>
    3ec9:	8b 45 14             	mov    0x14(%ebp),%eax
    3ecc:	83 c4 10             	add    $0x10,%esp
    3ecf:	c7 00 04 00 00 00    	movl   $0x4,(%eax)
    3ed5:	31 c0                	xor    %eax,%eax
    3ed7:	c9                   	leave  
    3ed8:	c3                   	ret    
    3ed9:	8d b4 26 00 00 00 00 	lea    0x0(%esi,%eiz,1),%esi
    3ee0:	b8 d3 fe ff ff       	mov    $0xfffffed3,%eax
    3ee5:	c9                   	leave  
    3ee6:	c3                   	ret    
    3ee7:	52                   	push   %edx
    3ee8:	68 fb 00 00 00       	push   $0xfb
    3eed:	68 5f 30 01 00       	push   $0x1305f
    3ef2:	68 69 30 01 00       	push   $0x13069
    3ef7:	e8 d4 22 01 00       	call   161d0 <assert_abort@plt>
    3efc:	8d 74 26 00          	lea    0x0(%esi,%eiz,1),%esi

00003f00 <req_get_port_status>:
    3f00:	55                   	push   %ebp
    3f01:	89 e5                	mov    %esp,%ebp
    3f03:	53                   	push   %ebx
    3f04:	83 ec 20             	sub    $0x20,%esp
    3f07:	8b 4d 08             	mov    0x8(%ebp),%ecx
    3f0a:	8b 5d 0c             	mov    0xc(%ebp),%ebx
    3f0d:	51                   	push   %ecx
    3f0e:	e8 bd 44 00 00       	call   83d0 <virthub_get_data>
    3f13:	83 c4 10             	add    $0x10,%esp
    3f16:	85 c0                	test   %eax,%eax
    3f18:	74 6d                	je     3f87 <req_get_port_status+0x87>
    3f1a:	66 83 7b 06 04       	cmpw   $0x4,0x6(%ebx)
    3f1f:	75 5f                	jne    3f80 <req_get_port_status+0x80>
    3f21:	31 d2                	xor    %edx,%edx
    3f23:	66 8b 53 04          	mov    0x4(%ebx),%dx
    3f27:	8d 4a ff             	lea    -0x1(%edx),%ecx
    3f2a:	3b 48 68             	cmp    0x68(%eax),%ecx
    3f2d:	77 41                	ja     3f70 <req_get_port_status+0x70>
    3f2f:	66 83 7b 02 00       	cmpw   $0x0,0x2(%ebx)
    3f34:	75 3a                	jne    3f70 <req_get_port_status+0x70>
    3f36:	8b 40 64             	mov    0x64(%eax),%eax
    3f39:	83 ec 0c             	sub    $0xc,%esp
    3f3c:	8d 44 90 50          	lea    0x50(%eax,%edx,4),%eax
    3f40:	50                   	push   %eax
    3f41:	e8 8a 21 01 00       	call   160d0 <pio_read_32@plt>
    3f46:	83 c4 0c             	add    $0xc,%esp
    3f49:	89 45 f4             	mov    %eax,-0xc(%ebp)
    3f4c:	8d 45 f4             	lea    -0xc(%ebp),%eax
    3f4f:	6a 04                	push   $0x4
    3f51:	50                   	push   %eax
    3f52:	8b 45 10             	mov    0x10(%ebp),%eax
    3f55:	50                   	push   %eax
    3f56:	e8 55 21 01 00       	call   160b0 <memcpy@plt>
    3f5b:	8b 45 14             	mov    0x14(%ebp),%eax
    3f5e:	83 c4 10             	add    $0x10,%esp
    3f61:	c7 00 04 00 00 00    	movl   $0x4,(%eax)
    3f67:	31 c0                	xor    %eax,%eax
    3f69:	8b 5d fc             	mov    -0x4(%ebp),%ebx
    3f6c:	c9                   	leave  
    3f6d:	c3                   	ret    
    3f6e:	66 90                	xchg   %ax,%ax
    3f70:	b8 f2 ff ff ff       	mov    $0xfffffff2,%eax
    3f75:	8b 5d fc             	mov    -0x4(%ebp),%ebx
    3f78:	c9                   	leave  
    3f79:	c3                   	ret    
    3f7a:	8d b6 00 00 00 00    	lea    0x0(%esi),%esi
    3f80:	b8 d3 fe ff ff       	mov    $0xfffffed3,%eax
    3f85:	eb e2                	jmp    3f69 <req_get_port_status+0x69>
    3f87:	52                   	push   %edx
    3f88:	68 31 01 00 00       	push   $0x131
    3f8d:	68 5f 30 01 00       	push   $0x1305f
    3f92:	68 69 30 01 00       	push   $0x13069
    3f97:	e8 34 22 01 00       	call   161d0 <assert_abort@plt>
    3f9c:	8d 74 26 00          	lea    0x0(%esi,%eiz,1),%esi

00003fa0 <ohci_rh_init>:
    3fa0:	55                   	push   %ebp
    3fa1:	89 e5                	mov    %esp,%ebp
    3fa3:	57                   	push   %edi
    3fa4:	56                   	push   %esi
    3fa5:	53                   	push   %ebx
    3fa6:	83 ec 1c             	sub    $0x1c,%esp
    3fa9:	8b 7d 08             	mov    0x8(%ebp),%edi
    3fac:	8b 75 0c             	mov    0xc(%ebp),%esi
    3faf:	85 ff                	test   %edi,%edi
    3fb1:	0f 84 05 02 00 00    	je     41bc <ohci_rh_init+0x21c>
    3fb7:	83 ec 0c             	sub    $0xc,%esp
    3fba:	89 77 64             	mov    %esi,0x64(%edi)
    3fbd:	8d 5e 48             	lea    0x48(%esi),%ebx
    3fc0:	53                   	push   %ebx
    3fc1:	e8 0a 21 01 00       	call   160d0 <pio_read_32@plt>
    3fc6:	25 ff 00 00 00       	and    $0xff,%eax
    3fcb:	89 47 68             	mov    %eax,0x68(%edi)
    3fce:	89 1c 24             	mov    %ebx,(%esp)
    3fd1:	e8 fa 20 01 00       	call   160d0 <pio_read_32@plt>
    3fd6:	50                   	push   %eax
    3fd7:	68 6d 30 01 00       	push   $0x1306d
    3fdc:	6a 05                	push   $0x5
    3fde:	6a ff                	push   $0xffffffff
    3fe0:	e8 9b 21 01 00       	call   16180 <log_msg@plt>
    3fe5:	8b 47 68             	mov    0x68(%edi),%eax
    3fe8:	83 c4 20             	add    $0x20,%esp
    3feb:	83 f8 0f             	cmp    $0xf,%eax
    3fee:	76 23                	jbe    4013 <ohci_rh_init+0x73>
    3ff0:	83 ec 0c             	sub    $0xc,%esp
    3ff3:	6a 0f                	push   $0xf
    3ff5:	50                   	push   %eax
    3ff6:	68 bc 31 01 00       	push   $0x131bc
    3ffb:	6a 02                	push   $0x2
    3ffd:	6a ff                	push   $0xffffffff
    3fff:	e8 7c 21 01 00       	call   16180 <log_msg@plt>
    4004:	c7 47 68 0f 00 00 00 	movl   $0xf,0x68(%edi)
    400b:	83 c4 20             	add    $0x20,%esp
    400e:	b8 0f 00 00 00       	mov    $0xf,%eax
    4013:	83 ec 0c             	sub    $0xc,%esp
    4016:	83 c6 50             	add    $0x50,%esi
    4019:	50                   	push   %eax
    401a:	8b 45 10             	mov    0x10(%ebp),%eax
    401d:	50                   	push   %eax
    401e:	68 7d 30 01 00       	push   $0x1307d
    4023:	6a 03                	push   $0x3
    4025:	6a ff                	push   $0xffffffff
    4027:	e8 54 21 01 00       	call   16180 <log_msg@plt>
    402c:	83 c4 20             	add    $0x20,%esp
    402f:	8b 45 10             	mov    0x10(%ebp),%eax
    4032:	50                   	push   %eax
    4033:	68 04 32 01 00       	push   $0x13204
    4038:	6a 03                	push   $0x3
    403a:	6a ff                	push   $0xffffffff
    403c:	e8 3f 21 01 00       	call   16180 <log_msg@plt>
    4041:	89 1c 24             	mov    %ebx,(%esp)
    4044:	e8 87 20 01 00       	call   160d0 <pio_read_32@plt>
    4049:	c7 04 24 01 00 00 00 	movl   $0x1,(%esp)
    4050:	89 45 e4             	mov    %eax,-0x1c(%ebp)
    4053:	e8 c8 22 01 00       	call   16320 <udelay@plt>
    4058:	58                   	pop    %eax
    4059:	8b 45 e4             	mov    -0x1c(%ebp),%eax
    405c:	80 e4 fd             	and    $0xfd,%ah
    405f:	5a                   	pop    %edx
    4060:	50                   	push   %eax
    4061:	53                   	push   %ebx
    4062:	e8 79 22 01 00       	call   162e0 <pio_write_32@plt>
    4067:	89 1c 24             	mov    %ebx,(%esp)
    406a:	e8 61 20 01 00       	call   160d0 <pio_read_32@plt>
    406f:	c7 04 24 01 00 00 00 	movl   $0x1,(%esp)
    4076:	89 45 e4             	mov    %eax,-0x1c(%ebp)
    4079:	e8 a2 22 01 00       	call   16320 <udelay@plt>
    407e:	59                   	pop    %ecx
    407f:	58                   	pop    %eax
    4080:	8b 45 e4             	mov    -0x1c(%ebp),%eax
    4083:	80 e4 fe             	and    $0xfe,%ah
    4086:	50                   	push   %eax
    4087:	53                   	push   %ebx
    4088:	e8 53 22 01 00       	call   162e0 <pio_write_32@plt>
    408d:	58                   	pop    %eax
    408e:	5a                   	pop    %edx
    408f:	6a 01                	push   $0x1
    4091:	56                   	push   %esi
    4092:	e8 49 22 01 00       	call   162e0 <pio_write_32@plt>
    4097:	89 1c 24             	mov    %ebx,(%esp)
    409a:	e8 31 20 01 00       	call   160d0 <pio_read_32@plt>
    409f:	89 c6                	mov    %eax,%esi
    40a1:	c7 04 24 01 00 00 00 	movl   $0x1,(%esp)
    40a8:	81 e6 ff ef ff ff    	and    $0xffffefff,%esi
    40ae:	e8 6d 22 01 00       	call   16320 <udelay@plt>
    40b3:	59                   	pop    %ecx
    40b4:	58                   	pop    %eax
    40b5:	56                   	push   %esi
    40b6:	53                   	push   %ebx
    40b7:	e8 24 22 01 00       	call   162e0 <pio_write_32@plt>
    40bc:	89 1c 24             	mov    %ebx,(%esp)
    40bf:	e8 0c 20 01 00       	call   160d0 <pio_read_32@plt>
    40c4:	c7 04 24 01 00 00 00 	movl   $0x1,(%esp)
    40cb:	89 c6                	mov    %eax,%esi
    40cd:	e8 4e 22 01 00       	call   16320 <udelay@plt>
    40d2:	81 e6 ff f7 ff ff    	and    $0xfffff7ff,%esi
    40d8:	58                   	pop    %eax
    40d9:	5a                   	pop    %edx
    40da:	56                   	push   %esi
    40db:	53                   	push   %ebx
    40dc:	e8 ff 21 01 00       	call   162e0 <pio_write_32@plt>
    40e1:	8b 47 68             	mov    0x68(%edi),%eax
    40e4:	83 c4 10             	add    $0x10,%esp
    40e7:	83 c0 08             	add    $0x8,%eax
    40ea:	c1 e8 03             	shr    $0x3,%eax
    40ed:	8d 74 00 07          	lea    0x7(%eax,%eax,1),%esi
    40f1:	83 fe 0b             	cmp    $0xb,%esi
    40f4:	0f 87 d4 00 00 00    	ja     41ce <ohci_rh_init+0x22e>
    40fa:	83 ec 0c             	sub    $0xc,%esp
    40fd:	8b 47 64             	mov    0x64(%edi),%eax
    4100:	83 c0 48             	add    $0x48,%eax
    4103:	50                   	push   %eax
    4104:	e8 c7 1f 01 00       	call   160d0 <pio_read_32@plt>
    4109:	89 c3                	mov    %eax,%ebx
    410b:	8b 47 64             	mov    0x64(%edi),%eax
    410e:	83 c0 4c             	add    $0x4c,%eax
    4111:	89 04 24             	mov    %eax,(%esp)
    4114:	e8 b7 1f 01 00       	call   160d0 <pio_read_32@plt>
    4119:	89 f2                	mov    %esi,%edx
    411b:	89 d9                	mov    %ebx,%ecx
    411d:	c1 e9 08             	shr    $0x8,%ecx
    4120:	88 57 6c             	mov    %dl,0x6c(%edi)
    4123:	8a 57 68             	mov    0x68(%edi),%dl
    4126:	83 e1 01             	and    $0x1,%ecx
    4129:	88 57 6e             	mov    %dl,0x6e(%edi)
    412c:	83 c4 10             	add    $0x10,%esp
    412f:	f6 c7 02             	test   $0x2,%bh
    4132:	0f 95 c2             	setne  %dl
    4135:	c6 47 6d 29          	movb   $0x29,0x6d(%edi)
    4139:	c6 47 72 00          	movb   $0x0,0x72(%edi)
    413d:	8d 34 12             	lea    (%edx,%edx,1),%esi
    4140:	88 47 73             	mov    %al,0x73(%edi)
    4143:	09 f1                	or     %esi,%ecx
    4145:	f6 c7 04             	test   $0x4,%bh
    4148:	0f 95 c2             	setne  %dl
    414b:	8d 34 95 00 00 00 00 	lea    0x0(,%edx,4),%esi
    4152:	09 f1                	or     %esi,%ecx
    4154:	f6 c7 08             	test   $0x8,%bh
    4157:	0f 95 c2             	setne  %dl
    415a:	8d 34 d5 00 00 00 00 	lea    0x0(,%edx,8),%esi
    4161:	09 f1                	or     %esi,%ecx
    4163:	f6 c7 10             	test   $0x10,%bh
    4166:	0f 95 c2             	setne  %dl
    4169:	c1 eb 18             	shr    $0x18,%ebx
    416c:	89 d6                	mov    %edx,%esi
    416e:	c1 e6 04             	shl    $0x4,%esi
    4171:	88 5f 71             	mov    %bl,0x71(%edi)
    4174:	09 f1                	or     %esi,%ecx
    4176:	88 4f 6f             	mov    %cl,0x6f(%edi)
    4179:	b9 ff 00 00 00       	mov    $0xff,%ecx
    417e:	83 7f 68 07          	cmpl   $0x7,0x68(%edi)
    4182:	76 05                	jbe    4189 <ohci_rh_init+0x1e9>
    4184:	c1 e8 08             	shr    $0x8,%eax
    4187:	89 c1                	mov    %eax,%ecx
    4189:	88 4f 74             	mov    %cl,0x74(%edi)
    418c:	c6 47 75 ff          	movb   $0xff,0x75(%edi)
    4190:	c6 47 76 ff          	movb   $0xff,0x76(%edi)
    4194:	c7 47 78 00 00 00 00 	movl   $0x0,0x78(%edi)
    419b:	8b 55 10             	mov    0x10(%ebp),%edx
    419e:	50                   	push   %eax
    419f:	8d 47 6c             	lea    0x6c(%edi),%eax
    41a2:	6a 01                	push   $0x1
    41a4:	50                   	push   %eax
    41a5:	6a 00                	push   $0x0
    41a7:	57                   	push   %edi
    41a8:	68 60 87 01 00       	push   $0x18760
    41ad:	52                   	push   %edx
    41ae:	57                   	push   %edi
    41af:	e8 5c 42 00 00       	call   8410 <virthub_base_init>
    41b4:	8d 65 f4             	lea    -0xc(%ebp),%esp
    41b7:	5b                   	pop    %ebx
    41b8:	5e                   	pop    %esi
    41b9:	5f                   	pop    %edi
    41ba:	5d                   	pop    %ebp
    41bb:	c3                   	ret    
    41bc:	51                   	push   %ecx
    41bd:	6a 70                	push   $0x70
    41bf:	68 5f 30 01 00       	push   $0x1305f
    41c4:	68 0e 22 01 00       	push   $0x1220e
    41c9:	e8 02 20 01 00       	call   161d0 <assert_abort@plt>
    41ce:	51                   	push   %ecx
    41cf:	6a 42                	push   $0x42
    41d1:	68 5f 30 01 00       	push   $0x1305f
    41d6:	68 34 32 01 00       	push   $0x13234
    41db:	e8 f0 1f 01 00       	call   161d0 <assert_abort@plt>

000041e0 <ohci_rh_schedule>:
    41e0:	55                   	push   %ebp
    41e1:	89 e5                	mov    %esp,%ebp
    41e3:	57                   	push   %edi
    41e4:	56                   	push   %esi
    41e5:	53                   	push   %ebx
    41e6:	83 ec 1c             	sub    $0x1c,%esp
    41e9:	8b 4d 08             	mov    0x8(%ebp),%ecx
    41ec:	8b 5d 0c             	mov    0xc(%ebp),%ebx
    41ef:	85 c9                	test   %ecx,%ecx
    41f1:	0f 84 f3 00 00 00    	je     42ea <ohci_rh_schedule+0x10a>
    41f7:	85 db                	test   %ebx,%ebx
    41f9:	0f 84 00 01 00 00    	je     42ff <ohci_rh_schedule+0x11f>
    41ff:	8b 03                	mov    (%ebx),%eax
    4201:	8d 7b 24             	lea    0x24(%ebx),%edi
    4204:	8b 73 14             	mov    0x14(%ebx),%esi
    4207:	8b 4b 10             	mov    0x10(%ebx),%ecx
    420a:	8b 50 0c             	mov    0xc(%eax),%edx
    420d:	89 55 e4             	mov    %edx,-0x1c(%ebp)
    4210:	8d 53 18             	lea    0x18(%ebx),%edx
    4213:	83 7b 04 00          	cmpl   $0x0,0x4(%ebx)
    4217:	0f 84 8b 00 00 00    	je     42a8 <ohci_rh_schedule+0xc8>
    421d:	83 7b 08 00          	cmpl   $0x0,0x8(%ebx)
    4221:	0f 85 ed 00 00 00    	jne    4314 <ohci_rh_schedule+0x134>
    4227:	83 78 14 00          	cmpl   $0x0,0x14(%eax)
    422b:	74 4b                	je     4278 <ohci_rh_schedule+0x98>
    422d:	8b 40 10             	mov    0x10(%eax),%eax
    4230:	85 c0                	test   %eax,%eax
    4232:	0f 85 f1 00 00 00    	jne    4329 <ohci_rh_schedule+0x149>
    4238:	83 ec 04             	sub    $0x4,%esp
    423b:	57                   	push   %edi
    423c:	56                   	push   %esi
    423d:	51                   	push   %ecx
    423e:	52                   	push   %edx
    423f:	8b 55 08             	mov    0x8(%ebp),%edx
    4242:	50                   	push   %eax
    4243:	8b 45 e4             	mov    -0x1c(%ebp),%eax
    4246:	50                   	push   %eax
    4247:	52                   	push   %edx
    4248:	e8 73 43 00 00       	call   85c0 <virthub_base_request>
    424d:	83 c4 20             	add    $0x20,%esp
    4250:	89 43 28             	mov    %eax,0x28(%ebx)
    4253:	3d d1 fe ff ff       	cmp    $0xfffffed1,%eax
    4258:	75 26                	jne    4280 <ohci_rh_schedule+0xa0>
    425a:	8b 45 08             	mov    0x8(%ebp),%eax
    425d:	8b 48 78             	mov    0x78(%eax),%ecx
    4260:	85 c9                	test   %ecx,%ecx
    4262:	0f 85 d6 00 00 00    	jne    433e <ohci_rh_schedule+0x15e>
    4268:	89 58 78             	mov    %ebx,0x78(%eax)
    426b:	8d 65 f4             	lea    -0xc(%ebp),%esp
    426e:	31 c0                	xor    %eax,%eax
    4270:	5b                   	pop    %ebx
    4271:	5e                   	pop    %esi
    4272:	5f                   	pop    %edi
    4273:	5d                   	pop    %ebp
    4274:	c3                   	ret    
    4275:	8d 76 00             	lea    0x0(%esi),%esi
    4278:	31 c0                	xor    %eax,%eax
    427a:	eb bc                	jmp    4238 <ohci_rh_schedule+0x58>
    427c:	8d 74 26 00          	lea    0x0(%esi,%eiz,1),%esi
    4280:	50                   	push   %eax
    4281:	8b 43 24             	mov    0x24(%ebx),%eax
    4284:	50                   	push   %eax
    4285:	6a 00                	push   $0x0
    4287:	53                   	push   %ebx
    4288:	e8 43 3d 00 00       	call   7fd0 <usb_transfer_batch_finish_error>
    428d:	89 1c 24             	mov    %ebx,(%esp)
    4290:	e8 9b 3c 00 00       	call   7f30 <usb_transfer_batch_destroy>
    4295:	83 c4 10             	add    $0x10,%esp
    4298:	8d 65 f4             	lea    -0xc(%ebp),%esp
    429b:	31 c0                	xor    %eax,%eax
    429d:	5b                   	pop    %ebx
    429e:	5e                   	pop    %esi
    429f:	5f                   	pop    %edi
    42a0:	5d                   	pop    %ebp
    42a1:	c3                   	ret    
    42a2:	8d b6 00 00 00 00    	lea    0x0(%esi),%esi
    42a8:	83 7b 08 00          	cmpl   $0x0,0x8(%ebx)
    42ac:	0f 84 a1 00 00 00    	je     4353 <ohci_rh_schedule+0x173>
    42b2:	83 78 14 00          	cmpl   $0x0,0x14(%eax)
    42b6:	74 28                	je     42e0 <ohci_rh_schedule+0x100>
    42b8:	8b 40 10             	mov    0x10(%eax),%eax
    42bb:	83 f8 01             	cmp    $0x1,%eax
    42be:	0f 84 74 ff ff ff    	je     4238 <ohci_rh_schedule+0x58>
    42c4:	53                   	push   %ebx
    42c5:	68 90 00 00 00       	push   $0x90
    42ca:	68 74 2c 01 00       	push   $0x12c74
    42cf:	68 50 2d 01 00       	push   $0x12d50
    42d4:	e8 f7 1e 01 00       	call   161d0 <assert_abort@plt>
    42d9:	8d b4 26 00 00 00 00 	lea    0x0(%esi,%eiz,1),%esi
    42e0:	b8 01 00 00 00       	mov    $0x1,%eax
    42e5:	e9 4e ff ff ff       	jmp    4238 <ohci_rh_schedule+0x58>
    42ea:	52                   	push   %edx
    42eb:	68 b1 00 00 00       	push   $0xb1
    42f0:	68 5f 30 01 00       	push   $0x1305f
    42f5:	68 0e 22 01 00       	push   $0x1220e
    42fa:	e8 d1 1e 01 00       	call   161d0 <assert_abort@plt>
    42ff:	50                   	push   %eax
    4300:	68 b2 00 00 00       	push   $0xb2
    4305:	68 5f 30 01 00       	push   $0x1305f
    430a:	68 b8 29 01 00       	push   $0x129b8
    430f:	e8 bc 1e 01 00       	call   161d0 <assert_abort@plt>
    4314:	50                   	push   %eax
    4315:	68 86 00 00 00       	push   $0x86
    431a:	68 74 2c 01 00       	push   $0x12c74
    431f:	68 b4 2c 01 00       	push   $0x12cb4
    4324:	e8 a7 1e 01 00       	call   161d0 <assert_abort@plt>
    4329:	50                   	push   %eax
    432a:	68 89 00 00 00       	push   $0x89
    432f:	68 74 2c 01 00       	push   $0x12c74
    4334:	68 d4 2c 01 00       	push   $0x12cd4
    4339:	e8 92 1e 01 00       	call   161d0 <assert_abort@plt>
    433e:	52                   	push   %edx
    433f:	68 be 00 00 00       	push   $0xbe
    4344:	68 5f 30 01 00       	push   $0x1305f
    4349:	68 60 32 01 00       	push   $0x13260
    434e:	e8 7d 1e 01 00       	call   161d0 <assert_abort@plt>
    4353:	51                   	push   %ecx
    4354:	68 93 00 00 00       	push   $0x93
    4359:	68 74 2c 01 00       	push   $0x12c74
    435e:	68 01 42 01 00       	push   $0x14201
    4363:	e8 68 1e 01 00       	call   161d0 <assert_abort@plt>
    4368:	90                   	nop
    4369:	8d b4 26 00 00 00 00 	lea    0x0(%esi,%eiz,1),%esi

00004370 <ohci_rh_interrupt>:
    4370:	55                   	push   %ebp
    4371:	89 e5                	mov    %esp,%ebp
    4373:	57                   	push   %edi
    4374:	56                   	push   %esi
    4375:	53                   	push   %ebx
    4376:	83 ec 1c             	sub    $0x1c,%esp
    4379:	8b 45 08             	mov    0x8(%ebp),%eax
    437c:	8b 58 78             	mov    0x78(%eax),%ebx
    437f:	c7 40 78 00 00 00 00 	movl   $0x0,0x78(%eax)
    4386:	85 db                	test   %ebx,%ebx
    4388:	74 6b                	je     43f5 <ohci_rh_interrupt+0x85>
    438a:	8b 13                	mov    (%ebx),%edx
    438c:	8d 7b 24             	lea    0x24(%ebx),%edi
    438f:	8b 73 14             	mov    0x14(%ebx),%esi
    4392:	8b 4a 0c             	mov    0xc(%edx),%ecx
    4395:	89 4d e0             	mov    %ecx,-0x20(%ebp)
    4398:	8b 4b 10             	mov    0x10(%ebx),%ecx
    439b:	89 4d e4             	mov    %ecx,-0x1c(%ebp)
    439e:	8d 4b 18             	lea    0x18(%ebx),%ecx
    43a1:	83 7b 04 00          	cmpl   $0x0,0x4(%ebx)
    43a5:	74 61                	je     4408 <ohci_rh_interrupt+0x98>
    43a7:	83 7b 08 00          	cmpl   $0x0,0x8(%ebx)
    43ab:	0f 85 91 00 00 00    	jne    4442 <ohci_rh_interrupt+0xd2>
    43b1:	83 7a 14 00          	cmpl   $0x0,0x14(%edx)
    43b5:	74 49                	je     4400 <ohci_rh_interrupt+0x90>
    43b7:	8b 52 10             	mov    0x10(%edx),%edx
    43ba:	85 d2                	test   %edx,%edx
    43bc:	0f 85 95 00 00 00    	jne    4457 <ohci_rh_interrupt+0xe7>
    43c2:	83 ec 04             	sub    $0x4,%esp
    43c5:	57                   	push   %edi
    43c6:	8b 7d e0             	mov    -0x20(%ebp),%edi
    43c9:	56                   	push   %esi
    43ca:	8b 75 e4             	mov    -0x1c(%ebp),%esi
    43cd:	56                   	push   %esi
    43ce:	51                   	push   %ecx
    43cf:	52                   	push   %edx
    43d0:	57                   	push   %edi
    43d1:	50                   	push   %eax
    43d2:	e8 e9 41 00 00       	call   85c0 <virthub_base_request>
    43d7:	83 c4 20             	add    $0x20,%esp
    43da:	89 43 28             	mov    %eax,0x28(%ebx)
    43dd:	50                   	push   %eax
    43de:	8b 43 24             	mov    0x24(%ebx),%eax
    43e1:	50                   	push   %eax
    43e2:	6a 00                	push   $0x0
    43e4:	53                   	push   %ebx
    43e5:	e8 e6 3b 00 00       	call   7fd0 <usb_transfer_batch_finish_error>
    43ea:	89 1c 24             	mov    %ebx,(%esp)
    43ed:	e8 3e 3b 00 00       	call   7f30 <usb_transfer_batch_destroy>
    43f2:	83 c4 10             	add    $0x10,%esp
    43f5:	8d 65 f4             	lea    -0xc(%ebp),%esp
    43f8:	31 c0                	xor    %eax,%eax
    43fa:	5b                   	pop    %ebx
    43fb:	5e                   	pop    %esi
    43fc:	5f                   	pop    %edi
    43fd:	5d                   	pop    %ebp
    43fe:	c3                   	ret    
    43ff:	90                   	nop
    4400:	31 d2                	xor    %edx,%edx
    4402:	eb be                	jmp    43c2 <ohci_rh_interrupt+0x52>
    4404:	8d 74 26 00          	lea    0x0(%esi,%eiz,1),%esi
    4408:	83 7b 08 00          	cmpl   $0x0,0x8(%ebx)
    440c:	74 5e                	je     446c <ohci_rh_interrupt+0xfc>
    440e:	83 7a 14 00          	cmpl   $0x0,0x14(%edx)
    4412:	74 24                	je     4438 <ohci_rh_interrupt+0xc8>
    4414:	8b 52 10             	mov    0x10(%edx),%edx
    4417:	83 fa 01             	cmp    $0x1,%edx
    441a:	74 a6                	je     43c2 <ohci_rh_interrupt+0x52>
    441c:	50                   	push   %eax
    441d:	68 90 00 00 00       	push   $0x90
    4422:	68 74 2c 01 00       	push   $0x12c74
    4427:	68 50 2d 01 00       	push   $0x12d50
    442c:	e8 9f 1d 01 00       	call   161d0 <assert_abort@plt>
    4431:	8d b4 26 00 00 00 00 	lea    0x0(%esi,%eiz,1),%esi
    4438:	ba 01 00 00 00       	mov    $0x1,%edx
    443d:	e9 80 ff ff ff       	jmp    43c2 <ohci_rh_interrupt+0x52>
    4442:	50                   	push   %eax
    4443:	68 86 00 00 00       	push   $0x86
    4448:	68 74 2c 01 00       	push   $0x12c74
    444d:	68 b4 2c 01 00       	push   $0x12cb4
    4452:	e8 79 1d 01 00       	call   161d0 <assert_abort@plt>
    4457:	50                   	push   %eax
    4458:	68 89 00 00 00       	push   $0x89
    445d:	68 74 2c 01 00       	push   $0x12c74
    4462:	68 d4 2c 01 00       	push   $0x12cd4
    4467:	e8 64 1d 01 00       	call   161d0 <assert_abort@plt>
    446c:	50                   	push   %eax
    446d:	68 93 00 00 00       	push   $0x93
    4472:	68 74 2c 01 00       	push   $0x12c74
    4477:	68 01 42 01 00       	push   $0x14201
    447c:	e8 4f 1d 01 00       	call   161d0 <assert_abort@plt>
    4481:	66 90                	xchg   %ax,%ax
    4483:	66 90                	xchg   %ax,%ax
    4485:	66 90                	xchg   %ax,%ax
    4487:	66 90                	xchg   %ax,%ax
    4489:	66 90                	xchg   %ax,%ax
    448b:	66 90                	xchg   %ax,%ax
    448d:	66 90                	xchg   %ax,%ax
    448f:	90                   	nop

00004490 <ed_init>:
    4490:	55                   	push   %ebp
    4491:	89 e5                	mov    %esp,%ebp
    4493:	57                   	push   %edi
    4494:	56                   	push   %esi
    4495:	53                   	push   %ebx
    4496:	83 ec 1c             	sub    $0x1c,%esp
    4499:	8b 5d 08             	mov    0x8(%ebp),%ebx
    449c:	8b 75 0c             	mov    0xc(%ebp),%esi
    449f:	8b 7d 10             	mov    0x10(%ebp),%edi
    44a2:	85 db                	test   %ebx,%ebx
    44a4:	0f 84 e6 00 00 00    	je     4590 <ed_init+0x100>
    44aa:	50                   	push   %eax
    44ab:	6a 10                	push   $0x10
    44ad:	6a 00                	push   $0x0
    44af:	53                   	push   %ebx
    44b0:	e8 ab 1e 01 00       	call   16360 <memset@plt>
    44b5:	83 c4 10             	add    $0x10,%esp
    44b8:	85 f6                	test   %esi,%esi
    44ba:	0f 84 b0 00 00 00    	je     4570 <ed_init+0xe0>
    44c0:	85 ff                	test   %edi,%edi
    44c2:	0f 84 b6 00 00 00    	je     457e <ed_init+0xee>
    44c8:	8b 46 10             	mov    0x10(%esi),%eax
    44cb:	83 f8 02             	cmp    $0x2,%eax
    44ce:	0f 87 ce 00 00 00    	ja     45a2 <ed_init+0x112>
    44d4:	8b 14 85 c8 33 01 00 	mov    0x133c8(,%eax,4),%edx
    44db:	8b 46 1c             	mov    0x1c(%esi),%eax
    44de:	c1 e2 0b             	shl    $0xb,%edx
    44e1:	8b 4e 0c             	mov    0xc(%esi),%ecx
    44e4:	c1 e0 10             	shl    $0x10,%eax
    44e7:	81 e2 00 18 00 00    	and    $0x1800,%edx
    44ed:	25 00 00 ff 03       	and    $0x3ff0000,%eax
    44f2:	83 e1 7f             	and    $0x7f,%ecx
    44f5:	09 d0                	or     %edx,%eax
    44f7:	0f bf 56 0e          	movswl 0xe(%esi),%edx
    44fb:	c1 e2 07             	shl    $0x7,%edx
    44fe:	81 e2 80 07 00 00    	and    $0x780,%edx
    4504:	09 ca                	or     %ecx,%edx
    4506:	09 d0                	or     %edx,%eax
    4508:	8b 56 18             	mov    0x18(%esi),%edx
    450b:	89 03                	mov    %eax,(%ebx)
    450d:	85 d2                	test   %edx,%edx
    450f:	74 47                	je     4558 <ed_init+0xc8>
    4511:	83 7e 14 01          	cmpl   $0x1,0x14(%esi)
    4515:	74 4e                	je     4565 <ed_init+0xd5>
    4517:	50                   	push   %eax
    4518:	50                   	push   %eax
    4519:	8d 45 e4             	lea    -0x1c(%ebp),%eax
    451c:	50                   	push   %eax
    451d:	57                   	push   %edi
    451e:	e8 dd 1d 01 00       	call   16300 <as_get_physical_mapping@plt>
    4523:	83 c4 10             	add    $0x10,%esp
    4526:	31 d2                	xor    %edx,%edx
    4528:	85 c0                	test   %eax,%eax
    452a:	74 24                	je     4550 <ed_init+0xc0>
    452c:	89 53 08             	mov    %edx,0x8(%ebx)
    452f:	f6 46 28 01          	testb  $0x1,0x28(%esi)
    4533:	89 53 04             	mov    %edx,0x4(%ebx)
    4536:	74 09                	je     4541 <ed_init+0xb1>
    4538:	8b 43 08             	mov    0x8(%ebx),%eax
    453b:	83 c8 02             	or     $0x2,%eax
    453e:	89 43 08             	mov    %eax,0x8(%ebx)
    4541:	8d 65 f4             	lea    -0xc(%ebp),%esp
    4544:	5b                   	pop    %ebx
    4545:	5e                   	pop    %esi
    4546:	5f                   	pop    %edi
    4547:	5d                   	pop    %ebp
    4548:	c3                   	ret    
    4549:	8d b4 26 00 00 00 00 	lea    0x0(%esi,%eiz,1),%esi
    4550:	8b 55 e4             	mov    -0x1c(%ebp),%edx
    4553:	83 e2 f0             	and    $0xfffffff0,%edx
    4556:	eb d4                	jmp    452c <ed_init+0x9c>
    4558:	8b 03                	mov    (%ebx),%eax
    455a:	80 cc 20             	or     $0x20,%ah
    455d:	89 03                	mov    %eax,(%ebx)
    455f:	83 7e 14 01          	cmpl   $0x1,0x14(%esi)
    4563:	75 b2                	jne    4517 <ed_init+0x87>
    4565:	8b 03                	mov    (%ebx),%eax
    4567:	80 cc 80             	or     $0x80,%ah
    456a:	89 03                	mov    %eax,(%ebx)
    456c:	eb a9                	jmp    4517 <ed_init+0x87>
    456e:	66 90                	xchg   %ax,%ax
    4570:	c7 03 00 40 00 00    	movl   $0x4000,(%ebx)
    4576:	8d 65 f4             	lea    -0xc(%ebp),%esp
    4579:	5b                   	pop    %ebx
    457a:	5e                   	pop    %esi
    457b:	5f                   	pop    %edi
    457c:	5d                   	pop    %ebp
    457d:	c3                   	ret    
    457e:	53                   	push   %ebx
    457f:	6a 4b                	push   $0x4b
    4581:	68 84 33 01 00       	push   $0x13384
    4586:	68 c4 33 01 00       	push   $0x133c4
    458b:	e8 40 1c 01 00       	call   161d0 <assert_abort@plt>
    4590:	50                   	push   %eax
    4591:	6a 41                	push   $0x41
    4593:	68 84 33 01 00       	push   $0x13384
    4598:	68 0e 22 01 00       	push   $0x1220e
    459d:	e8 2e 1c 01 00       	call   161d0 <assert_abort@plt>
    45a2:	51                   	push   %ecx
    45a3:	6a 4d                	push   $0x4d
    45a5:	68 84 33 01 00       	push   $0x13384
    45aa:	68 a4 33 01 00       	push   $0x133a4
    45af:	e8 1c 1c 01 00       	call   161d0 <assert_abort@plt>
    45b4:	66 90                	xchg   %ax,%ax
    45b6:	66 90                	xchg   %ax,%ax
    45b8:	66 90                	xchg   %ax,%ax
    45ba:	66 90                	xchg   %ax,%ax
    45bc:	66 90                	xchg   %ax,%ax
    45be:	66 90                	xchg   %ax,%ax

000045c0 <td_init>:
    45c0:	55                   	push   %ebp
    45c1:	89 e5                	mov    %esp,%ebp
    45c3:	57                   	push   %edi
    45c4:	56                   	push   %esi
    45c5:	53                   	push   %ebx
    45c6:	83 ec 1c             	sub    $0x1c,%esp
    45c9:	8b 5d 08             	mov    0x8(%ebp),%ebx
    45cc:	8b 75 14             	mov    0x14(%ebp),%esi
    45cf:	85 db                	test   %ebx,%ebx
    45d1:	0f 84 dc 00 00 00    	je     46b3 <td_init+0xf3>
    45d7:	57                   	push   %edi
    45d8:	6a 10                	push   $0x10
    45da:	6a 00                	push   $0x0
    45dc:	53                   	push   %ebx
    45dd:	e8 7e 1d 01 00       	call   16360 <memset@plt>
    45e2:	8b 45 10             	mov    0x10(%ebp),%eax
    45e5:	8b 04 85 00 34 01 00 	mov    0x13400(,%eax,4),%eax
    45ec:	83 c4 10             	add    $0x10,%esp
    45ef:	c1 e0 13             	shl    $0x13,%eax
    45f2:	25 00 00 18 00       	and    $0x180000,%eax
    45f7:	0d 00 00 00 f0       	or     $0xf0000000,%eax
    45fc:	89 03                	mov    %eax,(%ebx)
    45fe:	83 7d 1c 01          	cmpl   $0x1,0x1c(%ebp)
    4602:	76 7c                	jbe    4680 <td_init+0xc0>
    4604:	8d 7d e4             	lea    -0x1c(%ebp),%edi
    4607:	85 f6                	test   %esi,%esi
    4609:	74 3f                	je     464a <td_init+0x8a>
    460b:	8b 45 18             	mov    0x18(%ebp),%eax
    460e:	85 c0                	test   %eax,%eax
    4610:	0f 84 8b 00 00 00    	je     46a1 <td_init+0xe1>
    4616:	57                   	push   %edi
    4617:	57                   	push   %edi
    4618:	8d 7d e4             	lea    -0x1c(%ebp),%edi
    461b:	57                   	push   %edi
    461c:	56                   	push   %esi
    461d:	e8 de 1c 01 00       	call   16300 <as_get_physical_mapping@plt>
    4622:	83 c4 10             	add    $0x10,%esp
    4625:	31 c9                	xor    %ecx,%ecx
    4627:	85 c0                	test   %eax,%eax
    4629:	74 4d                	je     4678 <td_init+0xb8>
    462b:	8b 45 18             	mov    0x18(%ebp),%eax
    462e:	89 4b 04             	mov    %ecx,0x4(%ebx)
    4631:	51                   	push   %ecx
    4632:	51                   	push   %ecx
    4633:	8d 44 06 ff          	lea    -0x1(%esi,%eax,1),%eax
    4637:	57                   	push   %edi
    4638:	50                   	push   %eax
    4639:	e8 c2 1c 01 00       	call   16300 <as_get_physical_mapping@plt>
    463e:	83 c4 10             	add    $0x10,%esp
    4641:	31 c9                	xor    %ecx,%ecx
    4643:	85 c0                	test   %eax,%eax
    4645:	74 29                	je     4670 <td_init+0xb0>
    4647:	89 4b 0c             	mov    %ecx,0xc(%ebx)
    464a:	8b 55 0c             	mov    0xc(%ebp),%edx
    464d:	50                   	push   %eax
    464e:	50                   	push   %eax
    464f:	57                   	push   %edi
    4650:	52                   	push   %edx
    4651:	e8 aa 1c 01 00       	call   16300 <as_get_physical_mapping@plt>
    4656:	83 c4 10             	add    $0x10,%esp
    4659:	31 d2                	xor    %edx,%edx
    465b:	85 c0                	test   %eax,%eax
    465d:	75 06                	jne    4665 <td_init+0xa5>
    465f:	8b 55 e4             	mov    -0x1c(%ebp),%edx
    4662:	83 e2 f0             	and    $0xfffffff0,%edx
    4665:	89 53 08             	mov    %edx,0x8(%ebx)
    4668:	8d 65 f4             	lea    -0xc(%ebp),%esp
    466b:	5b                   	pop    %ebx
    466c:	5e                   	pop    %esi
    466d:	5f                   	pop    %edi
    466e:	5d                   	pop    %ebp
    466f:	c3                   	ret    
    4670:	8b 4d e4             	mov    -0x1c(%ebp),%ecx
    4673:	eb d2                	jmp    4647 <td_init+0x87>
    4675:	8d 76 00             	lea    0x0(%esi),%esi
    4678:	8b 4d e4             	mov    -0x1c(%ebp),%ecx
    467b:	eb ae                	jmp    462b <td_init+0x6b>
    467d:	8d 76 00             	lea    0x0(%esi),%esi
    4680:	8b 03                	mov    (%ebx),%eax
    4682:	8b 4d 1c             	mov    0x1c(%ebp),%ecx
    4685:	0d 00 00 00 02       	or     $0x2000000,%eax
    468a:	89 03                	mov    %eax,(%ebx)
    468c:	31 c0                	xor    %eax,%eax
    468e:	85 c9                	test   %ecx,%ecx
    4690:	8b 13                	mov    (%ebx),%edx
    4692:	0f 95 c0             	setne  %al
    4695:	c1 e0 18             	shl    $0x18,%eax
    4698:	09 d0                	or     %edx,%eax
    469a:	89 03                	mov    %eax,(%ebx)
    469c:	e9 63 ff ff ff       	jmp    4604 <td_init+0x44>
    46a1:	50                   	push   %eax
    46a2:	6a 55                	push   $0x55
    46a4:	68 d4 33 01 00       	push   $0x133d4
    46a9:	68 f4 33 01 00       	push   $0x133f4
    46ae:	e8 1d 1b 01 00       	call   161d0 <assert_abort@plt>
    46b3:	50                   	push   %eax
    46b4:	6a 42                	push   $0x42
    46b6:	68 d4 33 01 00       	push   $0x133d4
    46bb:	68 0e 22 01 00       	push   $0x1220e
    46c0:	e8 0b 1b 01 00       	call   161d0 <assert_abort@plt>
    46c5:	66 90                	xchg   %ax,%ax
    46c7:	66 90                	xchg   %ax,%ax
    46c9:	66 90                	xchg   %ax,%ax
    46cb:	66 90                	xchg   %ax,%ax
    46cd:	66 90                	xchg   %ax,%ax
    46cf:	90                   	nop

000046d0 <get_my_device_handle>:
    46d0:	55                   	push   %ebp
    46d1:	89 e5                	mov    %esp,%ebp
    46d3:	53                   	push   %ebx
    46d4:	52                   	push   %edx
    46d5:	8b 45 08             	mov    0x8(%ebp),%eax
    46d8:	8b 5d 0c             	mov    0xc(%ebp),%ebx
    46db:	85 c0                	test   %eax,%eax
    46dd:	74 19                	je     46f8 <get_my_device_handle+0x28>
    46df:	85 db                	test   %ebx,%ebx
    46e1:	74 0e                	je     46f1 <get_my_device_handle+0x21>
    46e3:	83 ec 0c             	sub    $0xc,%esp
    46e6:	50                   	push   %eax
    46e7:	e8 14 51 00 00       	call   9800 <ddf_fun_get_handle>
    46ec:	83 c4 10             	add    $0x10,%esp
    46ef:	89 03                	mov    %eax,(%ebx)
    46f1:	31 c0                	xor    %eax,%eax
    46f3:	8b 5d fc             	mov    -0x4(%ebp),%ebx
    46f6:	c9                   	leave  
    46f7:	c3                   	ret    
    46f8:	50                   	push   %eax
    46f9:	68 d3 00 00 00       	push   $0xd3
    46fe:	68 0c 34 01 00       	push   $0x1340c
    4703:	68 1e 34 01 00       	push   $0x1341e
    4708:	e8 c3 1a 01 00       	call   161d0 <assert_abort@plt>
    470d:	8d 76 00             	lea    0x0(%esi),%esi

00004710 <interrupt_polling>:
    4710:	55                   	push   %ebp
    4711:	89 e5                	mov    %esp,%ebp
    4713:	56                   	push   %esi
    4714:	53                   	push   %ebx
    4715:	83 ec 10             	sub    $0x10,%esp
    4718:	8b 5d 08             	mov    0x8(%ebp),%ebx
    471b:	85 db                	test   %ebx,%ebx
    471d:	74 67                	je     4786 <interrupt_polling+0x76>
    471f:	8b 83 34 08 00 00    	mov    0x834(%ebx),%eax
    4725:	85 c0                	test   %eax,%eax
    4727:	74 56                	je     477f <interrupt_polling+0x6f>
    4729:	8b 93 30 08 00 00    	mov    0x830(%ebx),%edx
    472f:	85 d2                	test   %edx,%edx
    4731:	74 4c                	je     477f <interrupt_polling+0x6f>
    4733:	c7 45 f4 00 00 00 00 	movl   $0x0,-0xc(%ebp)
    473a:	8d 75 f4             	lea    -0xc(%ebp),%esi
    473d:	eb 2a                	jmp    4769 <interrupt_polling+0x59>
    473f:	90                   	nop
    4740:	8b 45 f4             	mov    -0xc(%ebp),%eax
    4743:	51                   	push   %ecx
    4744:	51                   	push   %ecx
    4745:	50                   	push   %eax
    4746:	53                   	push   %ebx
    4747:	ff 93 30 08 00 00    	call   *0x830(%ebx)
    474d:	c7 04 24 10 27 00 00 	movl   $0x2710,(%esp)
    4754:	c7 45 f4 00 00 00 00 	movl   $0x0,-0xc(%ebp)
    475b:	e8 70 1c 01 00       	call   163d0 <async_usleep@plt>
    4760:	8b 83 34 08 00 00    	mov    0x834(%ebx),%eax
    4766:	83 c4 10             	add    $0x10,%esp
    4769:	52                   	push   %edx
    476a:	52                   	push   %edx
    476b:	56                   	push   %esi
    476c:	53                   	push   %ebx
    476d:	ff d0                	call   *%eax
    476f:	83 c4 10             	add    $0x10,%esp
    4772:	85 c0                	test   %eax,%eax
    4774:	74 ca                	je     4740 <interrupt_polling+0x30>
    4776:	31 c0                	xor    %eax,%eax
    4778:	8d 65 f8             	lea    -0x8(%ebp),%esp
    477b:	5b                   	pop    %ebx
    477c:	5e                   	pop    %esi
    477d:	5d                   	pop    %ebp
    477e:	c3                   	ret    
    477f:	b8 f5 ff ff ff       	mov    $0xfffffff5,%eax
    4784:	eb f2                	jmp    4778 <interrupt_polling+0x68>
    4786:	51                   	push   %ecx
    4787:	68 2d 03 00 00       	push   $0x32d
    478c:	68 0c 34 01 00       	push   $0x1340c
    4791:	68 4d 25 01 00       	push   $0x1254d
    4796:	e8 35 1a 01 00       	call   161d0 <assert_abort@plt>
    479b:	90                   	nop
    479c:	8d 74 26 00          	lea    0x0(%esi,%eiz,1),%esi

000047a0 <clean_match_ids>:
    47a0:	55                   	push   %ebp
    47a1:	89 e5                	mov    %esp,%ebp
    47a3:	56                   	push   %esi
    47a4:	53                   	push   %ebx
    47a5:	8b 58 04             	mov    0x4(%eax),%ebx
    47a8:	39 d8                	cmp    %ebx,%eax
    47aa:	74 4b                	je     47f7 <clean_match_ids+0x57>
    47ac:	89 c6                	mov    %eax,%esi
    47ae:	66 90                	xchg   %ax,%ax
    47b0:	8b 13                	mov    (%ebx),%edx
    47b2:	85 d2                	test   %edx,%edx
    47b4:	74 0e                	je     47c4 <clean_match_ids+0x24>
    47b6:	8b 43 04             	mov    0x4(%ebx),%eax
    47b9:	85 c0                	test   %eax,%eax
    47bb:	74 07                	je     47c4 <clean_match_ids+0x24>
    47bd:	89 10                	mov    %edx,(%eax)
    47bf:	8b 13                	mov    (%ebx),%edx
    47c1:	89 42 04             	mov    %eax,0x4(%edx)
    47c4:	8b 43 08             	mov    0x8(%ebx),%eax
    47c7:	c7 03 00 00 00 00    	movl   $0x0,(%ebx)
    47cd:	c7 43 04 00 00 00 00 	movl   $0x0,0x4(%ebx)
    47d4:	85 c0                	test   %eax,%eax
    47d6:	74 0c                	je     47e4 <clean_match_ids+0x44>
    47d8:	83 ec 0c             	sub    $0xc,%esp
    47db:	50                   	push   %eax
    47dc:	e8 9f 1d 01 00       	call   16580 <free@plt>
    47e1:	83 c4 10             	add    $0x10,%esp
    47e4:	83 ec 0c             	sub    $0xc,%esp
    47e7:	53                   	push   %ebx
