
mfs:     file format elf32-i386


Disassembly of section .init:

000010f4 <__entry>:
    10f4:	66 8c d0             	mov    %ss,%ax
    10f7:	8e d8                	mov    %eax,%ds
    10f9:	8e c0                	mov    %eax,%es
    10fb:	8e e0                	mov    %eax,%fs
    10fd:	b8 01 00 00 00       	mov    $0x1,%eax
    1102:	0f a2                	cpuid  
    1104:	0f ba e2 0b          	bt     $0xb,%edx
    1108:	73 0c                	jae    1116 <__entry+0x22>
    110a:	8d 05 d8 ae 00 00    	lea    0xaed8,%eax
    1110:	c7 00 70 90 00 00    	movl   $0x9070,(%eax)
    1116:	6a 00                	push   $0x0
    1118:	6a 00                	push   $0x0
    111a:	89 e5                	mov    %esp,%ebp
    111c:	57                   	push   %edi
    111d:	e8 8e 7b 00 00       	call   8cb0 <__main@plt>

Disassembly of section .text:

00001130 <main>:
    1130:	8d 4c 24 04          	lea    0x4(%esp),%ecx
    1134:	83 e4 f0             	and    $0xfffffff0,%esp
    1137:	ff 71 fc             	pushl  -0x4(%ecx)
    113a:	55                   	push   %ebp
    113b:	89 e5                	mov    %esp,%ebp
    113d:	56                   	push   %esi
    113e:	53                   	push   %ebx
    113f:	51                   	push   %ecx
    1140:	83 ec 18             	sub    $0x18,%esp
    1143:	8b 19                	mov    (%ecx),%ebx
    1145:	8b 71 04             	mov    0x4(%ecx),%esi
    1148:	68 e8 86 00 00       	push   $0x86e8
    114d:	e8 8e 7b 00 00       	call   8ce0 <printf@plt>
    1152:	83 c4 10             	add    $0x10,%esp
    1155:	83 fb 03             	cmp    $0x3,%ebx
    1158:	74 77                	je     11d1 <main+0xa1>
    115a:	51                   	push   %ecx
    115b:	6a 00                	push   $0x0
    115d:	68 61 37 cf c9       	push   $0xc9cf3761
    1162:	68 76 66 73 20       	push   $0x20736676
    1167:	e8 24 7c 00 00       	call   8d90 <service_connect_blocking@plt>
    116c:	83 c4 10             	add    $0x10,%esp
    116f:	89 c6                	mov    %eax,%esi
    1171:	85 c0                	test   %eax,%eax
    1173:	0f 84 f6 00 00 00    	je     126f <main+0x13f>
    1179:	e8 42 29 00 00       	call   3ac0 <mfs_global_init>
    117e:	89 c3                	mov    %eax,%ebx
    1180:	85 c0                	test   %eax,%eax
    1182:	75 3b                	jne    11bf <main+0x8f>
    1184:	68 20 ad 00 00       	push   $0xad20
    1189:	68 e0 ac 00 00       	push   $0xace0
    118e:	68 c0 ac 00 00       	push   $0xacc0
    1193:	56                   	push   %esi
    1194:	e8 c7 71 00 00       	call   8360 <fs_register>
    1199:	83 c4 10             	add    $0x10,%esp
    119c:	89 c3                	mov    %eax,%ebx
    119e:	85 c0                	test   %eax,%eax
    11a0:	74 74                	je     1216 <main+0xe6>
    11a2:	50                   	push   %eax
    11a3:	50                   	push   %eax
    11a4:	53                   	push   %ebx
    11a5:	68 54 87 00 00       	push   $0x8754
    11aa:	e8 31 7b 00 00       	call   8ce0 <printf@plt>
    11af:	83 c4 10             	add    $0x10,%esp
    11b2:	8d 65 f4             	lea    -0xc(%ebp),%esp
    11b5:	89 d8                	mov    %ebx,%eax
    11b7:	59                   	pop    %ecx
    11b8:	5b                   	pop    %ebx
    11b9:	5e                   	pop    %esi
    11ba:	5d                   	pop    %ebp
    11bb:	8d 61 fc             	lea    -0x4(%ecx),%esp
    11be:	c3                   	ret    
    11bf:	83 ec 0c             	sub    $0xc,%esp
    11c2:	68 30 87 00 00       	push   $0x8730
    11c7:	e8 14 7b 00 00       	call   8ce0 <printf@plt>
    11cc:	83 c4 10             	add    $0x10,%esp
    11cf:	eb d1                	jmp    11a2 <main+0x72>
    11d1:	50                   	push   %eax
    11d2:	50                   	push   %eax
    11d3:	68 7e 87 00 00       	push   $0x877e
    11d8:	ff 76 04             	pushl  0x4(%esi)
    11db:	e8 70 7d 00 00       	call   8f50 <str_cmp@plt>
    11e0:	83 c4 10             	add    $0x10,%esp
    11e3:	85 c0                	test   %eax,%eax
    11e5:	75 1a                	jne    1201 <main+0xd1>
    11e7:	53                   	push   %ebx
    11e8:	6a 0a                	push   $0xa
    11ea:	6a 00                	push   $0x0
    11ec:	ff 76 08             	pushl  0x8(%esi)
    11ef:	e8 8c 7c 00 00       	call   8e80 <strtol@plt>
    11f4:	83 c4 10             	add    $0x10,%esp
    11f7:	a3 d8 ac 00 00       	mov    %eax,0xacd8
    11fc:	e9 59 ff ff ff       	jmp    115a <main+0x2a>
    1201:	83 ec 0c             	sub    $0xc,%esp
    1204:	83 cb ff             	or     $0xffffffff,%ebx
    1207:	68 89 87 00 00       	push   $0x8789
    120c:	e8 cf 7a 00 00       	call   8ce0 <printf@plt>
    1211:	83 c4 10             	add    $0x10,%esp
    1214:	eb 8c                	jmp    11a2 <main+0x72>
    1216:	83 ec 0c             	sub    $0xc,%esp
    1219:	68 a5 87 00 00       	push   $0x87a5
    121e:	e8 bd 7a 00 00       	call   8ce0 <printf@plt>
    1223:	c7 04 24 00 00 00 00 	movl   $0x0,(%esp)
    122a:	e8 91 7a 00 00       	call   8cc0 <task_retval@plt>
    122f:	83 c8 ff             	or     $0xffffffff,%eax
    1232:	f0 0f c1 05 dc ae 00 	lock xadd %eax,0xaedc
    1239:	00 
    123a:	83 c4 10             	add    $0x10,%esp
    123d:	48                   	dec    %eax
    123e:	78 12                	js     1252 <main+0x122>
    1240:	83 ec 0c             	sub    $0xc,%esp
    1243:	6a 03                	push   $0x3
    1245:	e8 16 7e 00 00       	call   9060 <fibril_switch@plt>
    124a:	83 c4 10             	add    $0x10,%esp
    124d:	e9 60 ff ff ff       	jmp    11b2 <main+0x82>
    1252:	52                   	push   %edx
    1253:	6a 0b                	push   $0xb
    1255:	6a 00                	push   $0x0
    1257:	6a 00                	push   $0x0
    1259:	6a 00                	push   $0x0
    125b:	6a 00                	push   $0x0
    125d:	6a 00                	push   $0x0
    125f:	68 dc ae 00 00       	push   $0xaedc
    1264:	ff 15 d8 ae 00 00    	call   *0xaed8
    126a:	83 c4 20             	add    $0x20,%esp
    126d:	eb d1                	jmp    1240 <main+0x110>
    126f:	83 ec 0c             	sub    $0xc,%esp
    1272:	83 cb ff             	or     $0xffffffff,%ebx
    1275:	68 10 87 00 00       	push   $0x8710
    127a:	e8 61 7a 00 00       	call   8ce0 <printf@plt>
    127f:	83 c4 10             	add    $0x10,%esp
    1282:	e9 2b ff ff ff       	jmp    11b2 <main+0x82>
    1287:	66 90                	xchg   %ax,%ax
    1289:	66 90                	xchg   %ax,%ax
    128b:	66 90                	xchg   %ax,%ax
    128d:	66 90                	xchg   %ax,%ax
    128f:	90                   	nop

00001290 <open_nodes_key_hash>:
    1290:	55                   	push   %ebp
    1291:	89 e5                	mov    %esp,%ebp
    1293:	8b 45 08             	mov    0x8(%ebp),%eax
    1296:	5d                   	pop    %ebp
    1297:	8b 10                	mov    (%eax),%edx
    1299:	8b 48 04             	mov    0x4(%eax),%ecx
    129c:	89 d0                	mov    %edx,%eax
    129e:	c1 c0 05             	rol    $0x5,%eax
    12a1:	8d 84 01 b9 79 37 9e 	lea    -0x61c88647(%ecx,%eax,1),%eax
    12a8:	31 d0                	xor    %edx,%eax
    12aa:	c3                   	ret    
    12ab:	90                   	nop
    12ac:	8d 74 26 00          	lea    0x0(%esi,%eiz,1),%esi

000012b0 <open_nodes_hash>:
    12b0:	55                   	push   %ebp
    12b1:	89 e5                	mov    %esp,%ebp
    12b3:	8b 45 08             	mov    0x8(%ebp),%eax
    12b6:	5d                   	pop    %ebp
    12b7:	8b 50 f4             	mov    -0xc(%eax),%edx
    12ba:	8b 40 f0             	mov    -0x10(%eax),%eax
    12bd:	8b 12                	mov    (%edx),%edx
    12bf:	8b 48 44             	mov    0x44(%eax),%ecx
    12c2:	89 d0                	mov    %edx,%eax
    12c4:	c1 c0 05             	rol    $0x5,%eax
    12c7:	8d 84 01 b9 79 37 9e 	lea    -0x61c88647(%ecx,%eax,1),%eax
    12ce:	31 d0                	xor    %edx,%eax
    12d0:	c3                   	ret    
    12d1:	eb 0d                	jmp    12e0 <open_nodes_key_equal>
    12d3:	90                   	nop
    12d4:	90                   	nop
    12d5:	90                   	nop
    12d6:	90                   	nop
    12d7:	90                   	nop
    12d8:	90                   	nop
    12d9:	90                   	nop
    12da:	90                   	nop
    12db:	90                   	nop
    12dc:	90                   	nop
    12dd:	90                   	nop
    12de:	90                   	nop
    12df:	90                   	nop

000012e0 <open_nodes_key_equal>:
    12e0:	55                   	push   %ebp
    12e1:	31 c0                	xor    %eax,%eax
    12e3:	89 e5                	mov    %esp,%ebp
    12e5:	53                   	push   %ebx
    12e6:	8b 4d 0c             	mov    0xc(%ebp),%ecx
    12e9:	8b 55 08             	mov    0x8(%ebp),%edx
    12ec:	8b 59 f4             	mov    -0xc(%ecx),%ebx
    12ef:	8b 1b                	mov    (%ebx),%ebx
    12f1:	39 1a                	cmp    %ebx,(%edx)
    12f3:	74 03                	je     12f8 <open_nodes_key_equal+0x18>
    12f5:	5b                   	pop    %ebx
    12f6:	5d                   	pop    %ebp
    12f7:	c3                   	ret    
    12f8:	8b 41 f0             	mov    -0x10(%ecx),%eax
    12fb:	8b 52 04             	mov    0x4(%edx),%edx
    12fe:	5b                   	pop    %ebx
    12ff:	5d                   	pop    %ebp
    1300:	39 50 44             	cmp    %edx,0x44(%eax)
    1303:	0f 94 c0             	sete   %al
    1306:	c3                   	ret    
    1307:	89 f6                	mov    %esi,%esi
    1309:	8d bc 27 00 00 00 00 	lea    0x0(%edi,%eiz,1),%edi

00001310 <mfs_service_get>:
    1310:	55                   	push   %ebp
    1311:	89 e5                	mov    %esp,%ebp
    1313:	8b 45 08             	mov    0x8(%ebp),%eax
    1316:	5d                   	pop    %ebp
    1317:	8b 40 10             	mov    0x10(%eax),%eax
    131a:	8b 40 04             	mov    0x4(%eax),%eax
    131d:	8b 00                	mov    (%eax),%eax
    131f:	c3                   	ret    

00001320 <mfs_size_get>:
    1320:	55                   	push   %ebp
    1321:	31 d2                	xor    %edx,%edx
    1323:	89 e5                	mov    %esp,%ebp
    1325:	8b 45 08             	mov    0x8(%ebp),%eax
    1328:	5d                   	pop    %ebp
    1329:	8b 40 10             	mov    0x10(%eax),%eax
    132c:	8b 00                	mov    (%eax),%eax
    132e:	8b 40 08             	mov    0x8(%eax),%eax
    1331:	c3                   	ret    
    1332:	8d b4 26 00 00 00 00 	lea    0x0(%esi,%eiz,1),%esi
    1339:	8d bc 27 00 00 00 00 	lea    0x0(%edi,%eiz,1),%edi

00001340 <mfs_node_open>:
    1340:	55                   	push   %ebp
    1341:	31 c0                	xor    %eax,%eax
    1343:	89 e5                	mov    %esp,%ebp
    1345:	5d                   	pop    %ebp
    1346:	c3                   	ret    
    1347:	89 f6                	mov    %esi,%esi
    1349:	8d bc 27 00 00 00 00 	lea    0x0(%edi,%eiz,1),%edi

00001350 <mfs_index_get>:
    1350:	55                   	push   %ebp
    1351:	89 e5                	mov    %esp,%ebp
    1353:	8b 45 08             	mov    0x8(%ebp),%eax
    1356:	5d                   	pop    %ebp
    1357:	8b 40 10             	mov    0x10(%eax),%eax
    135a:	8b 00                	mov    (%eax),%eax
    135c:	8b 40 44             	mov    0x44(%eax),%eax
    135f:	c3                   	ret    

00001360 <mfs_lnkcnt_get>:
    1360:	55                   	push   %ebp
    1361:	89 e5                	mov    %esp,%ebp
    1363:	8b 45 08             	mov    0x8(%ebp),%eax
    1366:	8b 40 10             	mov    0x10(%eax),%eax
    1369:	8b 10                	mov    (%eax),%edx
    136b:	8b 02                	mov    (%edx),%eax
    136d:	25 00 f0 ff ff       	and    $0xfffff000,%eax
    1372:	66 3d 00 40          	cmp    $0x4000,%ax
    1376:	74 08                	je     1380 <mfs_lnkcnt_get+0x20>
    1378:	31 c0                	xor    %eax,%eax
    137a:	5d                   	pop    %ebp
    137b:	66 8b 42 02          	mov    0x2(%edx),%ax
    137f:	c3                   	ret    
    1380:	31 c0                	xor    %eax,%eax
    1382:	5d                   	pop    %ebp
    1383:	66 83 7a 02 01       	cmpw   $0x1,0x2(%edx)
    1388:	0f 97 c0             	seta   %al
    138b:	c3                   	ret    
    138c:	8d 74 26 00          	lea    0x0(%esi,%eiz,1),%esi

00001390 <mfs_is_directory>:
    1390:	55                   	push   %ebp
    1391:	89 e5                	mov    %esp,%ebp
    1393:	8b 45 08             	mov    0x8(%ebp),%eax
    1396:	5d                   	pop    %ebp
    1397:	8b 40 10             	mov    0x10(%eax),%eax
    139a:	8b 00                	mov    (%eax),%eax
    139c:	8b 00                	mov    (%eax),%eax
    139e:	25 00 f0 ff ff       	and    $0xfffff000,%eax
    13a3:	66 3d 00 40          	cmp    $0x4000,%ax
    13a7:	0f 94 c0             	sete   %al
    13aa:	c3                   	ret    
    13ab:	90                   	nop
    13ac:	8d 74 26 00          	lea    0x0(%esi,%eiz,1),%esi

000013b0 <mfs_is_file>:
    13b0:	55                   	push   %ebp
    13b1:	89 e5                	mov    %esp,%ebp
    13b3:	8b 45 08             	mov    0x8(%ebp),%eax
    13b6:	5d                   	pop    %ebp
    13b7:	8b 40 10             	mov    0x10(%eax),%eax
    13ba:	8b 00                	mov    (%eax),%eax
    13bc:	8b 00                	mov    (%eax),%eax
    13be:	25 00 f0 ff ff       	and    $0xfffff000,%eax
    13c3:	66 3d 00 80          	cmp    $0x8000,%ax
    13c7:	0f 94 c0             	sete   %al
    13ca:	c3                   	ret    
    13cb:	90                   	nop
    13cc:	8d 74 26 00          	lea    0x0(%esi,%eiz,1),%esi

000013d0 <mfs_close>:
    13d0:	55                   	push   %ebp
    13d1:	31 c0                	xor    %eax,%eax
    13d3:	89 e5                	mov    %esp,%ebp
    13d5:	5d                   	pop    %ebp
    13d6:	c3                   	ret    
    13d7:	89 f6                	mov    %esi,%esi
    13d9:	8d bc 27 00 00 00 00 	lea    0x0(%edi,%eiz,1),%edi

000013e0 <mfs_free_block_count>:
    13e0:	55                   	push   %ebp
    13e1:	89 e5                	mov    %esp,%ebp
    13e3:	57                   	push   %edi
    13e4:	56                   	push   %esi
    13e5:	53                   	push   %ebx
    13e6:	83 ec 24             	sub    $0x24,%esp
    13e9:	8d 75 e4             	lea    -0x1c(%ebp),%esi
    13ec:	8b 4d 08             	mov    0x8(%ebp),%ecx
    13ef:	56                   	push   %esi
    13f0:	51                   	push   %ecx
    13f1:	e8 ca 71 00 00       	call   85c0 <fs_instance_get>
    13f6:	83 c4 10             	add    $0x10,%esp
    13f9:	89 c3                	mov    %eax,%ebx
    13fb:	85 c0                	test   %eax,%eax
    13fd:	75 1b                	jne    141a <mfs_free_block_count+0x3a>
    13ff:	8b 45 e4             	mov    -0x1c(%ebp),%eax
    1402:	8b 78 04             	mov    0x4(%eax),%edi
    1405:	80 7f 48 00          	cmpb   $0x0,0x48(%edi)
    1409:	74 1d                	je     1428 <mfs_free_block_count+0x48>
    140b:	8b 47 4c             	mov    0x4c(%edi),%eax
    140e:	8b 55 0c             	mov    0xc(%ebp),%edx
    1411:	89 02                	mov    %eax,(%edx)
    1413:	c7 42 04 00 00 00 00 	movl   $0x0,0x4(%edx)
    141a:	8d 65 f4             	lea    -0xc(%ebp),%esp
    141d:	89 d8                	mov    %ebx,%eax
    141f:	5b                   	pop    %ebx
    1420:	5e                   	pop    %esi
    1421:	5f                   	pop    %edi
    1422:	5d                   	pop    %ebp
    1423:	c3                   	ret    
    1424:	8d 74 26 00          	lea    0x0(%esi,%eiz,1),%esi
    1428:	52                   	push   %edx
    1429:	52                   	push   %edx
    142a:	56                   	push   %esi
    142b:	50                   	push   %eax
    142c:	e8 2f 44 00 00       	call   5860 <mfs_count_free_zones>
    1431:	83 c4 10             	add    $0x10,%esp
    1434:	85 c0                	test   %eax,%eax
    1436:	75 10                	jne    1448 <mfs_free_block_count+0x68>
    1438:	8b 45 e4             	mov    -0x1c(%ebp),%eax
    143b:	c6 47 48 01          	movb   $0x1,0x48(%edi)
    143f:	89 47 4c             	mov    %eax,0x4c(%edi)
    1442:	eb ca                	jmp    140e <mfs_free_block_count+0x2e>
    1444:	8d 74 26 00          	lea    0x0(%esi,%eiz,1),%esi
    1448:	89 c3                	mov    %eax,%ebx
    144a:	eb ce                	jmp    141a <mfs_free_block_count+0x3a>
    144c:	8d 74 26 00          	lea    0x0(%esi,%eiz,1),%esi

00001450 <mfs_total_block_count>:
    1450:	55                   	push   %ebp
    1451:	89 e5                	mov    %esp,%ebp
    1453:	83 ec 20             	sub    $0x20,%esp
    1456:	8d 45 f4             	lea    -0xc(%ebp),%eax
    1459:	50                   	push   %eax
    145a:	8b 45 08             	mov    0x8(%ebp),%eax
    145d:	50                   	push   %eax
    145e:	e8 5d 71 00 00       	call   85c0 <fs_instance_get>
    1463:	83 c4 10             	add    $0x10,%esp
    1466:	85 c0                	test   %eax,%eax
    1468:	75 1d                	jne    1487 <mfs_total_block_count+0x37>
    146a:	8b 55 f4             	mov    -0xc(%ebp),%edx
    146d:	85 d2                	test   %edx,%edx
    146f:	74 18                	je     1489 <mfs_total_block_count+0x39>
    1471:	8b 4a 04             	mov    0x4(%edx),%ecx
    1474:	8b 51 04             	mov    0x4(%ecx),%edx
    1477:	4a                   	dec    %edx
    1478:	2b 51 10             	sub    0x10(%ecx),%edx
    147b:	8b 4d 0c             	mov    0xc(%ebp),%ecx
    147e:	89 11                	mov    %edx,(%ecx)
    1480:	c7 41 04 00 00 00 00 	movl   $0x0,0x4(%ecx)
    1487:	c9                   	leave  
    1488:	c3                   	ret    
    1489:	83 c8 ff             	or     $0xffffffff,%eax
    148c:	c9                   	leave  
    148d:	c3                   	ret    
    148e:	66 90                	xchg   %ax,%ax

00001490 <mfs_size_block>:
    1490:	55                   	push   %ebp
    1491:	89 e5                	mov    %esp,%ebp
    1493:	83 ec 20             	sub    $0x20,%esp
    1496:	8d 45 f4             	lea    -0xc(%ebp),%eax
    1499:	50                   	push   %eax
    149a:	8b 45 08             	mov    0x8(%ebp),%eax
    149d:	50                   	push   %eax
    149e:	e8 1d 71 00 00       	call   85c0 <fs_instance_get>
    14a3:	83 c4 10             	add    $0x10,%esp
    14a6:	85 c0                	test   %eax,%eax
    14a8:	75 12                	jne    14bc <mfs_size_block+0x2c>
    14aa:	8b 55 f4             	mov    -0xc(%ebp),%edx
    14ad:	85 d2                	test   %edx,%edx
    14af:	74 0d                	je     14be <mfs_size_block+0x2e>
    14b1:	8b 52 04             	mov    0x4(%edx),%edx
    14b4:	8b 4a 18             	mov    0x18(%edx),%ecx
    14b7:	8b 55 0c             	mov    0xc(%ebp),%edx
    14ba:	89 0a                	mov    %ecx,(%edx)
    14bc:	c9                   	leave  
    14bd:	c3                   	ret    
    14be:	83 c8 ff             	or     $0xffffffff,%eax
    14c1:	c9                   	leave  
    14c2:	c3                   	ret    
    14c3:	8d b6 00 00 00 00    	lea    0x0(%esi),%esi
    14c9:	8d bc 27 00 00 00 00 	lea    0x0(%edi,%eiz,1),%edi

000014d0 <mfs_has_children>:
    14d0:	55                   	push   %ebp
    14d1:	89 e5                	mov    %esp,%ebp
    14d3:	57                   	push   %edi
    14d4:	56                   	push   %esi
    14d5:	53                   	push   %ebx
    14d6:	83 ec 5c             	sub    $0x5c,%esp
    14d9:	8b 45 0c             	mov    0xc(%ebp),%eax
    14dc:	8b 78 10             	mov    0x10(%eax),%edi
    14df:	8b 47 04             	mov    0x4(%edi),%eax
    14e2:	8b 17                	mov    (%edi),%edx
    14e4:	8b 70 04             	mov    0x4(%eax),%esi
    14e7:	8b 45 08             	mov    0x8(%ebp),%eax
    14ea:	c6 00 00             	movb   $0x0,(%eax)
    14ed:	8b 02                	mov    (%edx),%eax
    14ef:	25 00 f0 ff ff       	and    $0xfffff000,%eax
    14f4:	66 3d 00 40          	cmp    $0x4000,%ax
    14f8:	74 0e                	je     1508 <mfs_has_children+0x38>
    14fa:	31 c0                	xor    %eax,%eax
    14fc:	8d 65 f4             	lea    -0xc(%ebp),%esp
    14ff:	5b                   	pop    %ebx
    1500:	5e                   	pop    %esi
    1501:	5f                   	pop    %edi
    1502:	5d                   	pop    %ebp
    1503:	c3                   	ret    
    1504:	8d 74 26 00          	lea    0x0(%esi,%eiz,1),%esi
    1508:	8b 42 08             	mov    0x8(%edx),%eax
    150b:	31 d2                	xor    %edx,%edx
    150d:	f7 76 30             	divl   0x30(%esi)
    1510:	83 f8 02             	cmp    $0x2,%eax
    1513:	76 e5                	jbe    14fa <mfs_has_children+0x2a>
    1515:	bb 02 00 00 00       	mov    $0x2,%ebx
    151a:	eb 13                	jmp    152f <mfs_has_children+0x5f>
    151c:	8d 74 26 00          	lea    0x0(%esi,%eiz,1),%esi
    1520:	8b 07                	mov    (%edi),%eax
    1522:	31 d2                	xor    %edx,%edx
    1524:	43                   	inc    %ebx
    1525:	8b 40 08             	mov    0x8(%eax),%eax
    1528:	f7 76 30             	divl   0x30(%esi)
    152b:	39 d8                	cmp    %ebx,%eax
    152d:	76 cb                	jbe    14fa <mfs_has_children+0x2a>
    152f:	8d 45 9c             	lea    -0x64(%ebp),%eax
    1532:	51                   	push   %ecx
    1533:	53                   	push   %ebx
    1534:	50                   	push   %eax
    1535:	57                   	push   %edi
    1536:	e8 45 35 00 00       	call   4a80 <mfs_read_dentry>
    153b:	83 c4 10             	add    $0x10,%esp
    153e:	85 c0                	test   %eax,%eax
    1540:	75 ba                	jne    14fc <mfs_has_children+0x2c>
    1542:	8b 55 9c             	mov    -0x64(%ebp),%edx
    1545:	85 d2                	test   %edx,%edx
    1547:	74 d7                	je     1520 <mfs_has_children+0x50>
    1549:	8b 4d 08             	mov    0x8(%ebp),%ecx
    154c:	c6 01 01             	movb   $0x1,(%ecx)
    154f:	8d 65 f4             	lea    -0xc(%ebp),%esp
    1552:	5b                   	pop    %ebx
    1553:	5e                   	pop    %esi
    1554:	5f                   	pop    %edi
    1555:	5d                   	pop    %ebp
    1556:	c3                   	ret    
    1557:	89 f6                	mov    %esi,%esi
    1559:	8d bc 27 00 00 00 00 	lea    0x0(%edi,%eiz,1),%edi

00001560 <mfs_link>:
    1560:	55                   	push   %ebp
    1561:	89 e5                	mov    %esp,%ebp
    1563:	57                   	push   %edi
    1564:	56                   	push   %esi
    1565:	53                   	push   %ebx
    1566:	83 ec 28             	sub    $0x28,%esp
    1569:	8b 45 08             	mov    0x8(%ebp),%eax
    156c:	8b 58 10             	mov    0x10(%eax),%ebx
    156f:	8b 45 0c             	mov    0xc(%ebp),%eax
    1572:	8b 70 10             	mov    0x10(%eax),%esi
    1575:	8b 43 04             	mov    0x4(%ebx),%eax
    1578:	8b 78 04             	mov    0x4(%eax),%edi
    157b:	8b 45 10             	mov    0x10(%ebp),%eax
    157e:	50                   	push   %eax
    157f:	e8 3c 7a 00 00       	call   8fc0 <str_size@plt>
    1584:	83 c4 10             	add    $0x10,%esp
    1587:	3b 47 38             	cmp    0x38(%edi),%eax
    158a:	77 6c                	ja     15f8 <mfs_link+0x98>
    158c:	57                   	push   %edi
    158d:	8b 06                	mov    (%esi),%eax
    158f:	8b 40 44             	mov    0x44(%eax),%eax
    1592:	50                   	push   %eax
    1593:	8b 45 10             	mov    0x10(%ebp),%eax
    1596:	50                   	push   %eax
    1597:	53                   	push   %ebx
    1598:	e8 c3 39 00 00       	call   4f60 <mfs_insert_dentry>
    159d:	83 c4 10             	add    $0x10,%esp
    15a0:	89 c2                	mov    %eax,%edx
    15a2:	85 c0                	test   %eax,%eax
    15a4:	75 19                	jne    15bf <mfs_link+0x5f>
    15a6:	8b 06                	mov    (%esi),%eax
    15a8:	8b 38                	mov    (%eax),%edi
    15aa:	81 e7 00 f0 ff ff    	and    $0xfffff000,%edi
    15b0:	66 81 ff 00 40       	cmp    $0x4000,%di
    15b5:	74 19                	je     15d0 <mfs_link+0x70>
    15b7:	66 ff 40 02          	incw   0x2(%eax)
    15bb:	c6 40 40 01          	movb   $0x1,0x40(%eax)
    15bf:	8d 65 f4             	lea    -0xc(%ebp),%esp
    15c2:	89 d0                	mov    %edx,%eax
    15c4:	5b                   	pop    %ebx
    15c5:	5e                   	pop    %esi
    15c6:	5f                   	pop    %edi
    15c7:	5d                   	pop    %ebp
    15c8:	c3                   	ret    
    15c9:	8d b4 26 00 00 00 00 	lea    0x0(%esi,%eiz,1),%esi
    15d0:	bf f5 fe ff ff       	mov    $0xfffffef5,%edi
    15d5:	66 83 78 02 01       	cmpw   $0x1,0x2(%eax)
    15da:	74 24                	je     1600 <mfs_link+0xa0>
    15dc:	8b 55 10             	mov    0x10(%ebp),%edx
    15df:	50                   	push   %eax
    15e0:	50                   	push   %eax
    15e1:	52                   	push   %edx
    15e2:	53                   	push   %ebx
    15e3:	e8 28 37 00 00       	call   4d10 <mfs_remove_dentry>
    15e8:	83 c4 10             	add    $0x10,%esp
    15eb:	89 c2                	mov    %eax,%edx
    15ed:	85 c0                	test   %eax,%eax
    15ef:	75 ce                	jne    15bf <mfs_link+0x5f>
    15f1:	89 fa                	mov    %edi,%edx
    15f3:	eb ca                	jmp    15bf <mfs_link+0x5f>
    15f5:	8d 76 00             	lea    0x0(%esi),%esi
    15f8:	ba 00 ff ff ff       	mov    $0xffffff00,%edx
    15fd:	eb c0                	jmp    15bf <mfs_link+0x5f>
    15ff:	90                   	nop
    1600:	89 55 e4             	mov    %edx,-0x1c(%ebp)
    1603:	52                   	push   %edx
    1604:	8b 48 44             	mov    0x44(%eax),%ecx
    1607:	51                   	push   %ecx
    1608:	68 c2 87 00 00       	push   $0x87c2
    160d:	56                   	push   %esi
    160e:	e8 4d 39 00 00       	call   4f60 <mfs_insert_dentry>
    1613:	83 c4 10             	add    $0x10,%esp
    1616:	89 c7                	mov    %eax,%edi
    1618:	85 c0                	test   %eax,%eax
    161a:	75 c0                	jne    15dc <mfs_link+0x7c>
    161c:	57                   	push   %edi
    161d:	8b 03                	mov    (%ebx),%eax
    161f:	8b 40 44             	mov    0x44(%eax),%eax
    1622:	50                   	push   %eax
    1623:	68 c1 87 00 00       	push   $0x87c1
    1628:	56                   	push   %esi
    1629:	e8 32 39 00 00       	call   4f60 <mfs_insert_dentry>
    162e:	83 c4 10             	add    $0x10,%esp
    1631:	89 c7                	mov    %eax,%edi
    1633:	85 c0                	test   %eax,%eax
    1635:	8b 55 e4             	mov    -0x1c(%ebp),%edx
    1638:	75 11                	jne    164b <mfs_link+0xeb>
    163a:	8b 03                	mov    (%ebx),%eax
    163c:	66 ff 40 02          	incw   0x2(%eax)
    1640:	c6 40 40 01          	movb   $0x1,0x40(%eax)
    1644:	8b 06                	mov    (%esi),%eax
    1646:	e9 6c ff ff ff       	jmp    15b7 <mfs_link+0x57>
    164b:	51                   	push   %ecx
    164c:	51                   	push   %ecx
    164d:	68 c2 87 00 00       	push   $0x87c2
    1652:	56                   	push   %esi
    1653:	e8 b8 36 00 00       	call   4d10 <mfs_remove_dentry>
    1658:	83 c4 10             	add    $0x10,%esp
    165b:	e9 7c ff ff ff       	jmp    15dc <mfs_link+0x7c>

00001660 <mfs_create_node>:
    1660:	55                   	push   %ebp
    1661:	89 e5                	mov    %esp,%ebp
    1663:	57                   	push   %edi
    1664:	56                   	push   %esi
    1665:	53                   	push   %ebx
    1666:	83 ec 34             	sub    $0x34,%esp
    1669:	8d 75 e4             	lea    -0x1c(%ebp),%esi
    166c:	8b 7d 0c             	mov    0xc(%ebp),%edi
    166f:	56                   	push   %esi
    1670:	57                   	push   %edi
    1671:	e8 4a 6f 00 00       	call   85c0 <fs_instance_get>
    1676:	83 c4 10             	add    $0x10,%esp
    1679:	89 c3                	mov    %eax,%ebx
    167b:	85 c0                	test   %eax,%eax
    167d:	75 18                	jne    1697 <mfs_create_node+0x37>
    167f:	8b 45 e4             	mov    -0x1c(%ebp),%eax
    1682:	53                   	push   %ebx
    1683:	89 45 d4             	mov    %eax,-0x2c(%ebp)
    1686:	53                   	push   %ebx
    1687:	56                   	push   %esi
    1688:	50                   	push   %eax
    1689:	e8 72 3f 00 00       	call   5600 <mfs_alloc_inode>
    168e:	83 c4 10             	add    $0x10,%esp
    1691:	89 c3                	mov    %eax,%ebx
    1693:	85 c0                	test   %eax,%eax
    1695:	74 11                	je     16a8 <mfs_create_node+0x48>
    1697:	8d 65 f4             	lea    -0xc(%ebp),%esp
    169a:	89 d8                	mov    %ebx,%eax
    169c:	5b                   	pop    %ebx
    169d:	5e                   	pop    %esi
    169e:	5f                   	pop    %edi
    169f:	5d                   	pop    %ebp
    16a0:	c3                   	ret    
    16a1:	8d b4 26 00 00 00 00 	lea    0x0(%esi,%eiz,1),%esi
    16a8:	83 ec 0c             	sub    $0xc,%esp
    16ab:	6a 48                	push   $0x48
    16ad:	e8 3e 77 00 00       	call   8df0 <malloc@plt>
    16b2:	83 c4 10             	add    $0x10,%esp
    16b5:	89 c6                	mov    %eax,%esi
    16b7:	85 c0                	test   %eax,%eax
    16b9:	0f 84 30 01 00 00    	je     17ef <mfs_create_node+0x18f>
    16bf:	83 ec 0c             	sub    $0xc,%esp
    16c2:	6a 18                	push   $0x18
    16c4:	e8 27 77 00 00       	call   8df0 <malloc@plt>
    16c9:	83 c4 10             	add    $0x10,%esp
    16cc:	89 c7                	mov    %eax,%edi
    16ce:	85 c0                	test   %eax,%eax
    16d0:	0f 84 0d 01 00 00    	je     17e3 <mfs_create_node+0x183>
    16d6:	83 ec 0c             	sub    $0xc,%esp
    16d9:	6a 14                	push   $0x14
    16db:	e8 10 77 00 00       	call   8df0 <malloc@plt>
    16e0:	83 c4 10             	add    $0x10,%esp
    16e3:	89 c1                	mov    %eax,%ecx
    16e5:	85 c0                	test   %eax,%eax
    16e7:	0f 84 ea 00 00 00    	je     17d7 <mfs_create_node+0x177>
    16ed:	f6 45 10 02          	testb  $0x2,0x10(%ebp)
    16f1:	0f 85 d1 00 00 00    	jne    17c8 <mfs_create_node+0x168>
    16f7:	31 c0                	xor    %eax,%eax
    16f9:	ba 00 80 ff ff       	mov    $0xffff8000,%edx
    16fe:	66 89 16             	mov    %dx,(%esi)
    1701:	66 89 46 02          	mov    %ax,0x2(%esi)
    1705:	66 c7 46 04 00 00    	movw   $0x0,0x4(%esi)
    170b:	66 c7 46 06 00 00    	movw   $0x0,0x6(%esi)
    1711:	c7 46 08 00 00 00 00 	movl   $0x0,0x8(%esi)
    1718:	c7 46 0c 00 00 00 00 	movl   $0x0,0xc(%esi)
    171f:	c7 46 10 00 00 00 00 	movl   $0x0,0x10(%esi)
    1726:	c7 46 14 00 00 00 00 	movl   $0x0,0x14(%esi)
    172d:	50                   	push   %eax
    172e:	8d 46 18             	lea    0x18(%esi),%eax
    1731:	6a 1c                	push   $0x1c
    1733:	6a 00                	push   $0x0
    1735:	50                   	push   %eax
    1736:	89 4d d0             	mov    %ecx,-0x30(%ebp)
    1739:	e8 32 78 00 00       	call   8f70 <memset@plt>
    173e:	83 c4 0c             	add    $0xc,%esp
    1741:	8d 46 34             	lea    0x34(%esi),%eax
    1744:	6a 0c                	push   $0xc
    1746:	6a 00                	push   $0x0
    1748:	50                   	push   %eax
    1749:	e8 22 78 00 00       	call   8f70 <memset@plt>
    174e:	8b 45 e4             	mov    -0x1c(%ebp),%eax
    1751:	89 46 44             	mov    %eax,0x44(%esi)
    1754:	89 37                	mov    %esi,(%edi)
    1756:	c6 46 40 01          	movb   $0x1,0x40(%esi)
    175a:	8b 75 d4             	mov    -0x2c(%ebp),%esi
    175d:	89 77 04             	mov    %esi,0x4(%edi)
    1760:	c7 47 08 01 00 00 00 	movl   $0x1,0x8(%edi)
    1767:	c7 04 24 6c ad 00 00 	movl   $0xad6c,(%esp)
    176e:	e8 4d 79 00 00       	call   90c0 <fibril_mutex_lock@plt>
    1773:	58                   	pop    %eax
    1774:	8d 47 10             	lea    0x10(%edi),%eax
    1777:	5a                   	pop    %edx
    1778:	50                   	push   %eax
    1779:	68 e4 ae 00 00       	push   $0xaee4
    177e:	e8 cd 75 00 00       	call   8d50 <hash_table_insert@plt>
    1783:	c7 04 24 6c ad 00 00 	movl   $0xad6c,(%esp)
    178a:	e8 51 77 00 00       	call   8ee0 <fibril_mutex_unlock@plt>
    178f:	8b 4e 08             	mov    0x8(%esi),%ecx
    1792:	8b 07                	mov    (%edi),%eax
    1794:	41                   	inc    %ecx
    1795:	89 4e 08             	mov    %ecx,0x8(%esi)
    1798:	8b 4d d0             	mov    -0x30(%ebp),%ecx
    179b:	c6 40 40 01          	movb   $0x1,0x40(%eax)
    179f:	89 4d d4             	mov    %ecx,-0x2c(%ebp)
    17a2:	89 0c 24             	mov    %ecx,(%esp)
    17a5:	e8 f6 6c 00 00       	call   84a0 <fs_node_initialize>
    17aa:	8b 4d d4             	mov    -0x2c(%ebp),%ecx
    17ad:	8b 45 08             	mov    0x8(%ebp),%eax
    17b0:	89 4f 0c             	mov    %ecx,0xc(%edi)
    17b3:	83 c4 10             	add    $0x10,%esp
    17b6:	89 08                	mov    %ecx,(%eax)
    17b8:	89 79 10             	mov    %edi,0x10(%ecx)
    17bb:	8d 65 f4             	lea    -0xc(%ebp),%esp
    17be:	89 d8                	mov    %ebx,%eax
    17c0:	5b                   	pop    %ebx
    17c1:	5e                   	pop    %esi
    17c2:	5f                   	pop    %edi
    17c3:	5d                   	pop    %ebp
    17c4:	c3                   	ret    
    17c5:	8d 76 00             	lea    0x0(%esi),%esi
    17c8:	b8 01 00 00 00       	mov    $0x1,%eax
    17cd:	ba 00 40 00 00       	mov    $0x4000,%edx
    17d2:	e9 27 ff ff ff       	jmp    16fe <mfs_create_node+0x9e>
    17d7:	83 ec 0c             	sub    $0xc,%esp
    17da:	57                   	push   %edi
    17db:	e8 d0 78 00 00       	call   90b0 <free@plt>
    17e0:	83 c4 10             	add    $0x10,%esp
    17e3:	83 ec 0c             	sub    $0xc,%esp
    17e6:	56                   	push   %esi
    17e7:	e8 c4 78 00 00       	call   90b0 <free@plt>
    17ec:	83 c4 10             	add    $0x10,%esp
    17ef:	8b 55 e4             	mov    -0x1c(%ebp),%edx
    17f2:	8b 4d d4             	mov    -0x2c(%ebp),%ecx
    17f5:	50                   	push   %eax
    17f6:	50                   	push   %eax
    17f7:	52                   	push   %edx
    17f8:	51                   	push   %ecx
    17f9:	bb fe ff ff ff       	mov    $0xfffffffe,%ebx
    17fe:	e8 1d 3e 00 00       	call   5620 <mfs_free_inode>
    1803:	83 c4 10             	add    $0x10,%esp
    1806:	e9 8c fe ff ff       	jmp    1697 <mfs_create_node+0x37>
    180b:	90                   	nop
    180c:	8d 74 26 00          	lea    0x0(%esi,%eiz,1),%esi

00001810 <mfs_unmounted>:
    1810:	55                   	push   %ebp
    1811:	89 e5                	mov    %esp,%ebp
    1813:	57                   	push   %edi
    1814:	56                   	push   %esi
    1815:	53                   	push   %ebx
    1816:	83 ec 24             	sub    $0x24,%esp
    1819:	8d 45 e4             	lea    -0x1c(%ebp),%eax
    181c:	8b 5d 08             	mov    0x8(%ebp),%ebx
    181f:	50                   	push   %eax
    1820:	53                   	push   %ebx
    1821:	e8 9a 6d 00 00       	call   85c0 <fs_instance_get>
    1826:	83 c4 10             	add    $0x10,%esp
    1829:	89 c6                	mov    %eax,%esi
    182b:	85 c0                	test   %eax,%eax
    182d:	75 38                	jne    1867 <mfs_unmounted+0x57>
    182f:	8b 7d e4             	mov    -0x1c(%ebp),%edi
    1832:	8b 4f 08             	mov    0x8(%edi),%ecx
    1835:	85 c9                	test   %ecx,%ecx
    1837:	75 3f                	jne    1878 <mfs_unmounted+0x68>
    1839:	83 ec 0c             	sub    $0xc,%esp
    183c:	53                   	push   %ebx
    183d:	e8 ce 45 00 00       	call   5e10 <block_cache_fini>
    1842:	89 1c 24             	mov    %ebx,(%esp)
    1845:	e8 76 47 00 00       	call   5fc0 <block_fini>
    184a:	89 1c 24             	mov    %ebx,(%esp)
    184d:	e8 ee 6d 00 00       	call   8640 <fs_instance_destroy>
    1852:	8b 57 04             	mov    0x4(%edi),%edx
    1855:	58                   	pop    %eax
    1856:	52                   	push   %edx
    1857:	e8 54 78 00 00       	call   90b0 <free@plt>
    185c:	89 3c 24             	mov    %edi,(%esp)
    185f:	e8 4c 78 00 00       	call   90b0 <free@plt>
    1864:	83 c4 10             	add    $0x10,%esp
    1867:	8d 65 f4             	lea    -0xc(%ebp),%esp
    186a:	89 f0                	mov    %esi,%eax
    186c:	5b                   	pop    %ebx
    186d:	5e                   	pop    %esi
    186e:	5f                   	pop    %edi
    186f:	5d                   	pop    %ebp
    1870:	c3                   	ret    
    1871:	8d b4 26 00 00 00 00 	lea    0x0(%esi,%eiz,1),%esi
    1878:	be f1 ff ff ff       	mov    $0xfffffff1,%esi
    187d:	eb e8                	jmp    1867 <mfs_unmounted+0x57>
    187f:	90                   	nop

00001880 <mfs_node_put>:
    1880:	55                   	push   %ebp
    1881:	89 e5                	mov    %esp,%ebp
    1883:	57                   	push   %edi
    1884:	56                   	push   %esi
    1885:	53                   	push   %ebx
    1886:	83 ec 18             	sub    $0x18,%esp
    1889:	8b 75 08             	mov    0x8(%ebp),%esi
    188c:	8b 5e 10             	mov    0x10(%esi),%ebx
    188f:	68 6c ad 00 00       	push   $0xad6c
    1894:	e8 27 78 00 00       	call   90c0 <fibril_mutex_lock@plt>
    1899:	83 c4 10             	add    $0x10,%esp
    189c:	8b 43 08             	mov    0x8(%ebx),%eax
    189f:	85 c0                	test   %eax,%eax
    18a1:	74 71                	je     1914 <mfs_node_put+0x94>
    18a3:	48                   	dec    %eax
    18a4:	89 43 08             	mov    %eax,0x8(%ebx)
    18a7:	85 c0                	test   %eax,%eax
    18a9:	75 65                	jne    1910 <mfs_node_put+0x90>
    18ab:	8d 43 10             	lea    0x10(%ebx),%eax
    18ae:	57                   	push   %edi
    18af:	57                   	push   %edi
    18b0:	50                   	push   %eax
    18b1:	68 e4 ae 00 00       	push   $0xaee4
    18b6:	e8 a5 76 00 00       	call   8f60 <hash_table_remove_item@plt>
    18bb:	8b 53 04             	mov    0x4(%ebx),%edx
    18be:	83 c4 10             	add    $0x10,%esp
    18c1:	8b 42 08             	mov    0x8(%edx),%eax
    18c4:	85 c0                	test   %eax,%eax
    18c6:	74 61                	je     1929 <mfs_node_put+0xa9>
    18c8:	83 ec 0c             	sub    $0xc,%esp
    18cb:	48                   	dec    %eax
    18cc:	89 42 08             	mov    %eax,0x8(%edx)
    18cf:	53                   	push   %ebx
    18d0:	e8 4b 25 00 00       	call   3e20 <mfs_put_inode>
    18d5:	8b 13                	mov    (%ebx),%edx
    18d7:	89 c7                	mov    %eax,%edi
    18d9:	58                   	pop    %eax
    18da:	52                   	push   %edx
    18db:	e8 d0 77 00 00       	call   90b0 <free@plt>
    18e0:	89 1c 24             	mov    %ebx,(%esp)
    18e3:	e8 c8 77 00 00       	call   90b0 <free@plt>
    18e8:	89 34 24             	mov    %esi,(%esp)
    18eb:	e8 c0 77 00 00       	call   90b0 <free@plt>
    18f0:	83 c4 10             	add    $0x10,%esp
    18f3:	83 ec 0c             	sub    $0xc,%esp
    18f6:	68 6c ad 00 00       	push   $0xad6c
    18fb:	e8 e0 75 00 00       	call   8ee0 <fibril_mutex_unlock@plt>
    1900:	8d 65 f4             	lea    -0xc(%ebp),%esp
    1903:	89 f8                	mov    %edi,%eax
    1905:	5b                   	pop    %ebx
    1906:	5e                   	pop    %esi
    1907:	5f                   	pop    %edi
    1908:	5d                   	pop    %ebp
    1909:	c3                   	ret    
    190a:	8d b6 00 00 00 00    	lea    0x0(%esi),%esi
    1910:	31 ff                	xor    %edi,%edi
    1912:	eb df                	jmp    18f3 <mfs_node_put+0x73>
    1914:	50                   	push   %eax
    1915:	68 f6 01 00 00       	push   $0x1f6
    191a:	68 c4 87 00 00       	push   $0x87c4
    191f:	68 ce 87 00 00       	push   $0x87ce
    1924:	e8 87 75 00 00       	call   8eb0 <assert_abort@plt>
    1929:	51                   	push   %ecx
    192a:	68 fa 01 00 00       	push   $0x1fa
    192f:	68 c4 87 00 00       	push   $0x87c4
    1934:	68 0c 88 00 00       	push   $0x880c
    1939:	e8 72 75 00 00       	call   8eb0 <assert_abort@plt>
    193e:	66 90                	xchg   %ax,%ax

00001940 <mfs_match>:
    1940:	55                   	push   %ebp
    1941:	89 e5                	mov    %esp,%ebp
    1943:	57                   	push   %edi
    1944:	56                   	push   %esi
    1945:	53                   	push   %ebx
    1946:	83 ec 7c             	sub    $0x7c,%esp
    1949:	8b 45 0c             	mov    0xc(%ebp),%eax
    194c:	8b 78 10             	mov    0x10(%eax),%edi
    194f:	8b 07                	mov    (%edi),%eax
    1951:	8b 00                	mov    (%eax),%eax
    1953:	25 00 f0 ff ff       	and    $0xfffff000,%eax
    1958:	66 3d 00 40          	cmp    $0x4000,%ax
    195c:	0f 85 16 01 00 00    	jne    1a78 <mfs_match+0x138>
    1962:	83 ec 0c             	sub    $0xc,%esp
    1965:	8b 47 04             	mov    0x4(%edi),%eax
    1968:	8b 55 10             	mov    0x10(%ebp),%edx
    196b:	31 db                	xor    %ebx,%ebx
    196d:	8b 70 04             	mov    0x4(%eax),%esi
    1970:	52                   	push   %edx
    1971:	e8 4a 76 00 00       	call   8fc0 <str_size@plt>
    1976:	31 d2                	xor    %edx,%edx
    1978:	89 45 84             	mov    %eax,-0x7c(%ebp)
    197b:	8b 07                	mov    (%edi),%eax
    197d:	83 c4 10             	add    $0x10,%esp
    1980:	8b 40 08             	mov    0x8(%eax),%eax
    1983:	f7 76 30             	divl   0x30(%esi)
    1986:	85 c0                	test   %eax,%eax
    1988:	75 19                	jne    19a3 <mfs_match+0x63>
    198a:	e9 c1 00 00 00       	jmp    1a50 <mfs_match+0x110>
    198f:	90                   	nop
    1990:	8b 07                	mov    (%edi),%eax
    1992:	31 d2                	xor    %edx,%edx
    1994:	43                   	inc    %ebx
    1995:	8b 40 08             	mov    0x8(%eax),%eax
    1998:	f7 76 30             	divl   0x30(%esi)
    199b:	39 d8                	cmp    %ebx,%eax
    199d:	0f 86 ad 00 00 00    	jbe    1a50 <mfs_match+0x110>
    19a3:	50                   	push   %eax
    19a4:	8d 45 9c             	lea    -0x64(%ebp),%eax
    19a7:	53                   	push   %ebx
    19a8:	50                   	push   %eax
    19a9:	57                   	push   %edi
    19aa:	e8 d1 30 00 00       	call   4a80 <mfs_read_dentry>
    19af:	83 c4 10             	add    $0x10,%esp
    19b2:	85 c0                	test   %eax,%eax
    19b4:	0f 85 ae 00 00 00    	jne    1a68 <mfs_match+0x128>
    19ba:	8b 45 9c             	mov    -0x64(%ebp),%eax
    19bd:	85 c0                	test   %eax,%eax
    19bf:	74 cf                	je     1990 <mfs_match+0x50>
    19c1:	83 ec 0c             	sub    $0xc,%esp
    19c4:	8d 45 a0             	lea    -0x60(%ebp),%eax
    19c7:	50                   	push   %eax
    19c8:	e8 f3 75 00 00       	call   8fc0 <str_size@plt>
    19cd:	83 c4 10             	add    $0x10,%esp
    19d0:	39 45 84             	cmp    %eax,-0x7c(%ebp)
    19d3:	75 bb                	jne    1990 <mfs_match+0x50>
    19d5:	50                   	push   %eax
    19d6:	8b 45 84             	mov    -0x7c(%ebp),%eax
    19d9:	50                   	push   %eax
    19da:	8d 45 a0             	lea    -0x60(%ebp),%eax
    19dd:	50                   	push   %eax
    19de:	8b 45 10             	mov    0x10(%ebp),%eax
    19e1:	50                   	push   %eax
    19e2:	e8 49 75 00 00       	call   8f30 <memcmp@plt>
    19e7:	83 c4 10             	add    $0x10,%esp
    19ea:	85 c0                	test   %eax,%eax
    19ec:	75 a2                	jne    1990 <mfs_match+0x50>
    19ee:	83 ec 0c             	sub    $0xc,%esp
    19f1:	8b 77 04             	mov    0x4(%edi),%esi
    19f4:	89 45 84             	mov    %eax,-0x7c(%ebp)
    19f7:	8b 5d 9c             	mov    -0x64(%ebp),%ebx
    19fa:	68 6c ad 00 00       	push   $0xad6c
    19ff:	e8 bc 76 00 00       	call   90c0 <fibril_mutex_lock@plt>
    1a04:	8b 06                	mov    (%esi),%eax
    1a06:	5f                   	pop    %edi
    1a07:	89 45 94             	mov    %eax,-0x6c(%ebp)
    1a0a:	58                   	pop    %eax
    1a0b:	8d 45 94             	lea    -0x6c(%ebp),%eax
    1a0e:	89 5d 98             	mov    %ebx,-0x68(%ebp)
    1a11:	50                   	push   %eax
    1a12:	68 e4 ae 00 00       	push   $0xaee4
    1a17:	e8 f4 75 00 00       	call   9010 <hash_table_find@plt>
    1a1c:	83 c4 10             	add    $0x10,%esp
    1a1f:	8b 55 84             	mov    -0x7c(%ebp),%edx
    1a22:	85 c0                	test   %eax,%eax
    1a24:	74 61                	je     1a87 <mfs_match+0x147>
    1a26:	8b 48 fc             	mov    -0x4(%eax),%ecx
    1a29:	83 e8 10             	sub    $0x10,%eax
    1a2c:	8b 55 08             	mov    0x8(%ebp),%edx
    1a2f:	8b 58 08             	mov    0x8(%eax),%ebx
    1a32:	43                   	inc    %ebx
    1a33:	89 0a                	mov    %ecx,(%edx)
    1a35:	89 58 08             	mov    %ebx,0x8(%eax)
    1a38:	83 ec 0c             	sub    $0xc,%esp
    1a3b:	68 6c ad 00 00       	push   $0xad6c
    1a40:	e8 9b 74 00 00       	call   8ee0 <fibril_mutex_unlock@plt>
    1a45:	83 c4 10             	add    $0x10,%esp
    1a48:	8b 55 84             	mov    -0x7c(%ebp),%edx
    1a4b:	eb 0e                	jmp    1a5b <mfs_match+0x11b>
    1a4d:	8d 76 00             	lea    0x0(%esi),%esi
    1a50:	8b 45 08             	mov    0x8(%ebp),%eax
    1a53:	31 d2                	xor    %edx,%edx
    1a55:	c7 00 00 00 00 00    	movl   $0x0,(%eax)
    1a5b:	8d 65 f4             	lea    -0xc(%ebp),%esp
    1a5e:	89 d0                	mov    %edx,%eax
    1a60:	5b                   	pop    %ebx
    1a61:	5e                   	pop    %esi
    1a62:	5f                   	pop    %edi
    1a63:	5d                   	pop    %ebp
    1a64:	c3                   	ret    
    1a65:	8d 76 00             	lea    0x0(%esi),%esi
    1a68:	8d 65 f4             	lea    -0xc(%ebp),%esp
    1a6b:	89 c2                	mov    %eax,%edx
    1a6d:	89 d0                	mov    %edx,%eax
    1a6f:	5b                   	pop    %ebx
    1a70:	5e                   	pop    %esi
    1a71:	5f                   	pop    %edi
    1a72:	5d                   	pop    %ebp
    1a73:	c3                   	ret    
    1a74:	8d 74 26 00          	lea    0x0(%esi,%eiz,1),%esi
    1a78:	8d 65 f4             	lea    -0xc(%ebp),%esp
    1a7b:	ba fe fe ff ff       	mov    $0xfffffefe,%edx
    1a80:	89 d0                	mov    %edx,%eax
    1a82:	5b                   	pop    %ebx
    1a83:	5e                   	pop    %esi
    1a84:	5f                   	pop    %edi
    1a85:	5d                   	pop    %ebp
    1a86:	c3                   	ret    
    1a87:	83 ec 0c             	sub    $0xc,%esp
    1a8a:	89 55 84             	mov    %edx,-0x7c(%ebp)
    1a8d:	6a 14                	push   $0x14
    1a8f:	e8 5c 73 00 00       	call   8df0 <malloc@plt>
    1a94:	83 c4 10             	add    $0x10,%esp
    1a97:	8b 55 84             	mov    -0x7c(%ebp),%edx
    1a9a:	85 c0                	test   %eax,%eax
    1a9c:	74 63                	je     1b01 <mfs_match+0x1c1>
    1a9e:	83 ec 0c             	sub    $0xc,%esp
    1aa1:	89 55 80             	mov    %edx,-0x80(%ebp)
    1aa4:	89 45 84             	mov    %eax,-0x7c(%ebp)
    1aa7:	50                   	push   %eax
    1aa8:	e8 f3 69 00 00       	call   84a0 <fs_node_initialize>
    1aad:	c7 04 24 18 00 00 00 	movl   $0x18,(%esp)
    1ab4:	e8 37 73 00 00       	call   8df0 <malloc@plt>
    1ab9:	83 c4 10             	add    $0x10,%esp
    1abc:	89 c7                	mov    %eax,%edi
    1abe:	85 c0                	test   %eax,%eax
    1ac0:	8b 4d 84             	mov    -0x7c(%ebp),%ecx
    1ac3:	8b 55 80             	mov    -0x80(%ebp),%edx
    1ac6:	74 41                	je     1b09 <mfs_match+0x1c9>
    1ac8:	8d 45 90             	lea    -0x70(%ebp),%eax
    1acb:	89 4d 80             	mov    %ecx,-0x80(%ebp)
    1ace:	89 55 84             	mov    %edx,-0x7c(%ebp)
    1ad1:	51                   	push   %ecx
    1ad2:	53                   	push   %ebx
    1ad3:	50                   	push   %eax
    1ad4:	56                   	push   %esi
    1ad5:	e8 16 20 00 00       	call   3af0 <mfs_get_inode>
    1ada:	83 c4 10             	add    $0x10,%esp
    1add:	8b 55 84             	mov    -0x7c(%ebp),%edx
    1ae0:	85 c0                	test   %eax,%eax
    1ae2:	8b 4d 80             	mov    -0x80(%ebp),%ecx
    1ae5:	74 36                	je     1b1d <mfs_match+0x1dd>
    1ae7:	83 ec 0c             	sub    $0xc,%esp
    1aea:	89 55 84             	mov    %edx,-0x7c(%ebp)
    1aed:	51                   	push   %ecx
    1aee:	e8 bd 75 00 00       	call   90b0 <free@plt>
    1af3:	89 3c 24             	mov    %edi,(%esp)
    1af6:	e8 b5 75 00 00       	call   90b0 <free@plt>
    1afb:	83 c4 10             	add    $0x10,%esp
    1afe:	8b 55 84             	mov    -0x7c(%ebp),%edx
    1b01:	89 55 84             	mov    %edx,-0x7c(%ebp)
    1b04:	e9 2f ff ff ff       	jmp    1a38 <mfs_match+0xf8>
    1b09:	83 ec 0c             	sub    $0xc,%esp
    1b0c:	89 55 84             	mov    %edx,-0x7c(%ebp)
    1b0f:	51                   	push   %ecx
    1b10:	e8 9b 75 00 00       	call   90b0 <free@plt>
    1b15:	83 c4 10             	add    $0x10,%esp
    1b18:	8b 55 84             	mov    -0x7c(%ebp),%edx
    1b1b:	eb e4                	jmp    1b01 <mfs_match+0x1c1>
    1b1d:	8b 45 90             	mov    -0x70(%ebp),%eax
    1b20:	89 58 44             	mov    %ebx,0x44(%eax)
    1b23:	89 07                	mov    %eax,(%edi)
    1b25:	8b 45 08             	mov    0x8(%ebp),%eax
    1b28:	89 79 10             	mov    %edi,0x10(%ecx)
    1b2b:	89 4f 0c             	mov    %ecx,0xc(%edi)
    1b2e:	c7 47 08 01 00 00 00 	movl   $0x1,0x8(%edi)
    1b35:	89 08                	mov    %ecx,(%eax)
    1b37:	89 77 04             	mov    %esi,0x4(%edi)
    1b3a:	83 c7 10             	add    $0x10,%edi
    1b3d:	50                   	push   %eax
    1b3e:	50                   	push   %eax
    1b3f:	57                   	push   %edi
    1b40:	68 e4 ae 00 00       	push   $0xaee4
    1b45:	e8 06 72 00 00       	call   8d50 <hash_table_insert@plt>
    1b4a:	8b 56 08             	mov    0x8(%esi),%edx
    1b4d:	42                   	inc    %edx
    1b4e:	89 56 08             	mov    %edx,0x8(%esi)
    1b51:	c7 04 24 6c ad 00 00 	movl   $0xad6c,(%esp)
    1b58:	e8 83 73 00 00       	call   8ee0 <fibril_mutex_unlock@plt>
    1b5d:	83 c4 10             	add    $0x10,%esp
    1b60:	8b 55 84             	mov    -0x7c(%ebp),%edx
    1b63:	e9 f3 fe ff ff       	jmp    1a5b <mfs_match+0x11b>
    1b68:	90                   	nop
    1b69:	8d b4 26 00 00 00 00 	lea    0x0(%esi,%eiz,1),%esi

00001b70 <mfs_node_get>:
    1b70:	55                   	push   %ebp
    1b71:	89 e5                	mov    %esp,%ebp
    1b73:	57                   	push   %edi
    1b74:	56                   	push   %esi
    1b75:	53                   	push   %ebx
    1b76:	83 ec 34             	sub    $0x34,%esp
    1b79:	8d 7d e0             	lea    -0x20(%ebp),%edi
    1b7c:	8b 4d 0c             	mov    0xc(%ebp),%ecx
    1b7f:	57                   	push   %edi
    1b80:	51                   	push   %ecx
    1b81:	e8 3a 6a 00 00       	call   85c0 <fs_instance_get>
    1b86:	83 c4 10             	add    $0x10,%esp
    1b89:	89 c3                	mov    %eax,%ebx
    1b8b:	85 c0                	test   %eax,%eax
    1b8d:	75 51                	jne    1be0 <mfs_node_get+0x70>
    1b8f:	83 ec 0c             	sub    $0xc,%esp
    1b92:	8b 75 e0             	mov    -0x20(%ebp),%esi
    1b95:	68 6c ad 00 00       	push   $0xad6c
    1b9a:	e8 21 75 00 00       	call   90c0 <fibril_mutex_lock@plt>
    1b9f:	8b 06                	mov    (%esi),%eax
    1ba1:	89 45 e0             	mov    %eax,-0x20(%ebp)
    1ba4:	8b 45 10             	mov    0x10(%ebp),%eax
    1ba7:	89 45 e4             	mov    %eax,-0x1c(%ebp)
    1baa:	58                   	pop    %eax
    1bab:	5a                   	pop    %edx
    1bac:	57                   	push   %edi
    1bad:	68 e4 ae 00 00       	push   $0xaee4
    1bb2:	e8 59 74 00 00       	call   9010 <hash_table_find@plt>
    1bb7:	83 c4 10             	add    $0x10,%esp
    1bba:	85 c0                	test   %eax,%eax
    1bbc:	74 32                	je     1bf0 <mfs_node_get+0x80>
    1bbe:	8b 50 fc             	mov    -0x4(%eax),%edx
    1bc1:	83 e8 10             	sub    $0x10,%eax
    1bc4:	83 ec 0c             	sub    $0xc,%esp
    1bc7:	8b 70 08             	mov    0x8(%eax),%esi
    1bca:	8b 4d 08             	mov    0x8(%ebp),%ecx
    1bcd:	46                   	inc    %esi
    1bce:	89 11                	mov    %edx,(%ecx)
    1bd0:	89 70 08             	mov    %esi,0x8(%eax)
    1bd3:	68 6c ad 00 00       	push   $0xad6c
    1bd8:	e8 03 73 00 00       	call   8ee0 <fibril_mutex_unlock@plt>
    1bdd:	83 c4 10             	add    $0x10,%esp
    1be0:	8d 65 f4             	lea    -0xc(%ebp),%esp
    1be3:	89 d8                	mov    %ebx,%eax
    1be5:	5b                   	pop    %ebx
    1be6:	5e                   	pop    %esi
    1be7:	5f                   	pop    %edi
    1be8:	5d                   	pop    %ebp
    1be9:	c3                   	ret    
    1bea:	8d b6 00 00 00 00    	lea    0x0(%esi),%esi
    1bf0:	83 ec 0c             	sub    $0xc,%esp
    1bf3:	6a 14                	push   $0x14
    1bf5:	e8 f6 71 00 00       	call   8df0 <malloc@plt>
    1bfa:	83 c4 10             	add    $0x10,%esp
    1bfd:	89 c7                	mov    %eax,%edi
    1bff:	85 c0                	test   %eax,%eax
    1c01:	0f 84 81 00 00 00    	je     1c88 <mfs_node_get+0x118>
    1c07:	83 ec 0c             	sub    $0xc,%esp
    1c0a:	50                   	push   %eax
    1c0b:	e8 90 68 00 00       	call   84a0 <fs_node_initialize>
    1c10:	c7 04 24 18 00 00 00 	movl   $0x18,(%esp)
    1c17:	e8 d4 71 00 00       	call   8df0 <malloc@plt>
    1c1c:	83 c4 10             	add    $0x10,%esp
    1c1f:	89 45 d4             	mov    %eax,-0x2c(%ebp)
    1c22:	85 c0                	test   %eax,%eax
    1c24:	74 4a                	je     1c70 <mfs_node_get+0x100>
    1c26:	8b 5d 10             	mov    0x10(%ebp),%ebx
    1c29:	8d 45 dc             	lea    -0x24(%ebp),%eax
    1c2c:	51                   	push   %ecx
    1c2d:	53                   	push   %ebx
    1c2e:	50                   	push   %eax
    1c2f:	56                   	push   %esi
    1c30:	e8 bb 1e 00 00       	call   3af0 <mfs_get_inode>
    1c35:	83 c4 10             	add    $0x10,%esp
    1c38:	89 c3                	mov    %eax,%ebx
    1c3a:	85 c0                	test   %eax,%eax
    1c3c:	8b 55 d4             	mov    -0x2c(%ebp),%edx
    1c3f:	74 4e                	je     1c8f <mfs_node_get+0x11f>
    1c41:	83 ec 0c             	sub    $0xc,%esp
    1c44:	89 55 d4             	mov    %edx,-0x2c(%ebp)
    1c47:	57                   	push   %edi
    1c48:	e8 63 74 00 00       	call   90b0 <free@plt>
    1c4d:	8b 55 d4             	mov    -0x2c(%ebp),%edx
    1c50:	89 14 24             	mov    %edx,(%esp)
    1c53:	e8 58 74 00 00       	call   90b0 <free@plt>
    1c58:	83 c4 10             	add    $0x10,%esp
    1c5b:	83 ec 0c             	sub    $0xc,%esp
    1c5e:	68 6c ad 00 00       	push   $0xad6c
    1c63:	e8 78 72 00 00       	call   8ee0 <fibril_mutex_unlock@plt>
    1c68:	83 c4 10             	add    $0x10,%esp
    1c6b:	e9 70 ff ff ff       	jmp    1be0 <mfs_node_get+0x70>
    1c70:	83 ec 0c             	sub    $0xc,%esp
    1c73:	bb fe ff ff ff       	mov    $0xfffffffe,%ebx
    1c78:	57                   	push   %edi
    1c79:	e8 32 74 00 00       	call   90b0 <free@plt>
    1c7e:	83 c4 10             	add    $0x10,%esp
    1c81:	eb d8                	jmp    1c5b <mfs_node_get+0xeb>
    1c83:	90                   	nop
    1c84:	8d 74 26 00          	lea    0x0(%esi,%eiz,1),%esi
    1c88:	bb fe ff ff ff       	mov    $0xfffffffe,%ebx
    1c8d:	eb cc                	jmp    1c5b <mfs_node_get+0xeb>
    1c8f:	8b 45 dc             	mov    -0x24(%ebp),%eax
    1c92:	8b 4d 10             	mov    0x10(%ebp),%ecx
    1c95:	89 48 44             	mov    %ecx,0x44(%eax)
    1c98:	89 02                	mov    %eax,(%edx)
    1c9a:	8b 45 08             	mov    0x8(%ebp),%eax
    1c9d:	c7 42 08 01 00 00 00 	movl   $0x1,0x8(%edx)
    1ca4:	89 72 04             	mov    %esi,0x4(%edx)
    1ca7:	89 7a 0c             	mov    %edi,0xc(%edx)
    1caa:	89 38                	mov    %edi,(%eax)
    1cac:	89 57 10             	mov    %edx,0x10(%edi)
    1caf:	83 c2 10             	add    $0x10,%edx
    1cb2:	50                   	push   %eax
    1cb3:	50                   	push   %eax
    1cb4:	52                   	push   %edx
    1cb5:	68 e4 ae 00 00       	push   $0xaee4
    1cba:	e8 91 70 00 00       	call   8d50 <hash_table_insert@plt>
    1cbf:	8b 56 08             	mov    0x8(%esi),%edx
    1cc2:	42                   	inc    %edx
    1cc3:	89 56 08             	mov    %edx,0x8(%esi)
    1cc6:	c7 04 24 6c ad 00 00 	movl   $0xad6c,(%esp)
    1ccd:	e8 0e 72 00 00       	call   8ee0 <fibril_mutex_unlock@plt>
    1cd2:	83 c4 10             	add    $0x10,%esp
    1cd5:	e9 06 ff ff ff       	jmp    1be0 <mfs_node_get+0x70>
    1cda:	8d b6 00 00 00 00    	lea    0x0(%esi),%esi

00001ce0 <mfs_unlink>:
    1ce0:	55                   	push   %ebp
    1ce1:	89 e5                	mov    %esp,%ebp
    1ce3:	57                   	push   %edi
    1ce4:	56                   	push   %esi
    1ce5:	53                   	push   %ebx
    1ce6:	83 ec 6c             	sub    $0x6c,%esp
    1ce9:	8b 45 08             	mov    0x8(%ebp),%eax
    1cec:	8b 40 10             	mov    0x10(%eax),%eax
    1cef:	89 c1                	mov    %eax,%ecx
    1cf1:	89 45 94             	mov    %eax,-0x6c(%ebp)
    1cf4:	8b 45 0c             	mov    0xc(%ebp),%eax
    1cf7:	85 c9                	test   %ecx,%ecx
    1cf9:	8b 78 10             	mov    0x10(%eax),%edi
    1cfc:	0f 84 d3 00 00 00    	je     1dd5 <mfs_unlink+0xf5>
    1d02:	8b 17                	mov    (%edi),%edx
    1d04:	8b 02                	mov    (%edx),%eax
    1d06:	25 00 f0 ff ff       	and    $0xfffff000,%eax
    1d0b:	66 3d 00 40          	cmp    $0x4000,%ax
    1d0f:	74 3f                	je     1d50 <mfs_unlink+0x70>
    1d11:	8b 55 10             	mov    0x10(%ebp),%edx
    1d14:	8b 4d 94             	mov    -0x6c(%ebp),%ecx
    1d17:	50                   	push   %eax
    1d18:	50                   	push   %eax
    1d19:	52                   	push   %edx
    1d1a:	51                   	push   %ecx
    1d1b:	e8 f0 2f 00 00       	call   4d10 <mfs_remove_dentry>
    1d20:	83 c4 10             	add    $0x10,%esp
    1d23:	85 c0                	test   %eax,%eax
    1d25:	75 1e                	jne    1d45 <mfs_unlink+0x65>
    1d27:	8b 0f                	mov    (%edi),%ecx
    1d29:	66 8b 51 02          	mov    0x2(%ecx),%dx
    1d2d:	66 85 d2             	test   %dx,%dx
    1d30:	0f 84 a9 00 00 00    	je     1ddf <mfs_unlink+0xff>
    1d36:	4a                   	dec    %edx
    1d37:	66 83 fa 01          	cmp    $0x1,%dx
    1d3b:	66 89 51 02          	mov    %dx,0x2(%ecx)
    1d3f:	76 6f                	jbe    1db0 <mfs_unlink+0xd0>
    1d41:	c6 41 40 01          	movb   $0x1,0x40(%ecx)
    1d45:	8d 65 f4             	lea    -0xc(%ebp),%esp
    1d48:	5b                   	pop    %ebx
    1d49:	5e                   	pop    %esi
    1d4a:	5f                   	pop    %edi
    1d4b:	5d                   	pop    %ebp
    1d4c:	c3                   	ret    
    1d4d:	8d 76 00             	lea    0x0(%esi),%esi
    1d50:	8b 47 04             	mov    0x4(%edi),%eax
    1d53:	8b 70 04             	mov    0x4(%eax),%esi
    1d56:	8b 42 08             	mov    0x8(%edx),%eax
    1d59:	31 d2                	xor    %edx,%edx
    1d5b:	f7 76 30             	divl   0x30(%esi)
    1d5e:	83 f8 02             	cmp    $0x2,%eax
    1d61:	76 ae                	jbe    1d11 <mfs_unlink+0x31>
    1d63:	bb 02 00 00 00       	mov    $0x2,%ebx
    1d68:	eb 1c                	jmp    1d86 <mfs_unlink+0xa6>
    1d6a:	8d b6 00 00 00 00    	lea    0x0(%esi),%esi
    1d70:	8b 45 9c             	mov    -0x64(%ebp),%eax
    1d73:	85 c0                	test   %eax,%eax
    1d75:	75 29                	jne    1da0 <mfs_unlink+0xc0>
    1d77:	8b 07                	mov    (%edi),%eax
    1d79:	31 d2                	xor    %edx,%edx
    1d7b:	43                   	inc    %ebx
    1d7c:	8b 40 08             	mov    0x8(%eax),%eax
    1d7f:	f7 76 30             	divl   0x30(%esi)
    1d82:	39 c3                	cmp    %eax,%ebx
    1d84:	73 8b                	jae    1d11 <mfs_unlink+0x31>
    1d86:	50                   	push   %eax
    1d87:	8d 45 9c             	lea    -0x64(%ebp),%eax
    1d8a:	53                   	push   %ebx
    1d8b:	50                   	push   %eax
    1d8c:	57                   	push   %edi
    1d8d:	e8 ee 2c 00 00       	call   4a80 <mfs_read_dentry>
    1d92:	83 c4 10             	add    $0x10,%esp
    1d95:	85 c0                	test   %eax,%eax
    1d97:	74 d7                	je     1d70 <mfs_unlink+0x90>
    1d99:	eb aa                	jmp    1d45 <mfs_unlink+0x65>
    1d9b:	90                   	nop
    1d9c:	8d 74 26 00          	lea    0x0(%esi,%eiz,1),%esi
    1da0:	8d 65 f4             	lea    -0xc(%ebp),%esp
    1da3:	b8 fb fe ff ff       	mov    $0xfffffefb,%eax
    1da8:	5b                   	pop    %ebx
    1da9:	5e                   	pop    %esi
    1daa:	5f                   	pop    %edi
    1dab:	5d                   	pop    %ebp
    1dac:	c3                   	ret    
    1dad:	8d 76 00             	lea    0x0(%esi),%esi
    1db0:	8b 11                	mov    (%ecx),%edx
    1db2:	81 e2 00 f0 ff ff    	and    $0xfffff000,%edx
    1db8:	66 81 fa 00 40       	cmp    $0x4000,%dx
    1dbd:	0f 85 7e ff ff ff    	jne    1d41 <mfs_unlink+0x61>
    1dc3:	8b 75 94             	mov    -0x6c(%ebp),%esi
    1dc6:	8b 16                	mov    (%esi),%edx
    1dc8:	66 ff 4a 02          	decw   0x2(%edx)
    1dcc:	c6 42 40 01          	movb   $0x1,0x40(%edx)
    1dd0:	e9 6c ff ff ff       	jmp    1d41 <mfs_unlink+0x61>
    1dd5:	b8 f1 ff ff ff       	mov    $0xfffffff1,%eax
    1dda:	e9 66 ff ff ff       	jmp    1d45 <mfs_unlink+0x65>
    1ddf:	53                   	push   %ebx
    1de0:	68 d0 02 00 00       	push   $0x2d0
    1de5:	68 c4 87 00 00       	push   $0x87c4
    1dea:	68 e0 87 00 00       	push   $0x87e0
    1def:	e8 bc 70 00 00       	call   8eb0 <assert_abort@plt>
    1df4:	8d b6 00 00 00 00    	lea    0x0(%esi),%esi
    1dfa:	8d bf 00 00 00 00    	lea    0x0(%edi),%edi

00001e00 <mfs_mounted>:
    1e00:	55                   	push   %ebp
    1e01:	89 e5                	mov    %esp,%ebp
    1e03:	57                   	push   %edi
    1e04:	56                   	push   %esi
    1e05:	53                   	push   %ebx
    1e06:	83 ec 34             	sub    $0x34,%esp
    1e09:	8b 45 0c             	mov    0xc(%ebp),%eax
    1e0c:	68 f5 87 00 00       	push   $0x87f5
    1e11:	50                   	push   %eax
    1e12:	e8 39 71 00 00       	call   8f50 <str_cmp@plt>
    1e17:	8b 5d 08             	mov    0x8(%ebp),%ebx
    1e1a:	5a                   	pop    %edx
    1e1b:	89 45 d4             	mov    %eax,-0x2c(%ebp)
    1e1e:	59                   	pop    %ecx
    1e1f:	68 00 10 00 00       	push   $0x1000
    1e24:	53                   	push   %ebx
    1e25:	e8 06 3b 00 00       	call   5930 <block_init>
    1e2a:	83 c4 10             	add    $0x10,%esp
    1e2d:	89 c7                	mov    %eax,%edi
    1e2f:	85 c0                	test   %eax,%eax
    1e31:	74 0d                	je     1e40 <mfs_mounted+0x40>
    1e33:	8d 65 f4             	lea    -0xc(%ebp),%esp
    1e36:	89 f8                	mov    %edi,%eax
    1e38:	5b                   	pop    %ebx
    1e39:	5e                   	pop    %esi
    1e3a:	5f                   	pop    %edi
    1e3b:	5d                   	pop    %ebp
    1e3c:	c3                   	ret    
    1e3d:	8d 76 00             	lea    0x0(%esi),%esi
    1e40:	83 ec 0c             	sub    $0xc,%esp
    1e43:	6a 50                	push   $0x50
    1e45:	e8 a6 6f 00 00       	call   8df0 <malloc@plt>
    1e4a:	83 c4 10             	add    $0x10,%esp
    1e4d:	89 c3                	mov    %eax,%ebx
    1e4f:	85 c0                	test   %eax,%eax
    1e51:	0f 84 b1 00 00 00    	je     1f08 <mfs_mounted+0x108>
    1e57:	83 ec 0c             	sub    $0xc,%esp
    1e5a:	6a 0c                	push   $0xc
    1e5c:	e8 8f 6f 00 00       	call   8df0 <malloc@plt>
    1e61:	83 c4 10             	add    $0x10,%esp
    1e64:	89 45 d0             	mov    %eax,-0x30(%ebp)
    1e67:	85 c0                	test   %eax,%eax
    1e69:	0f 84 99 00 00 00    	je     1f08 <mfs_mounted+0x108>
    1e6f:	83 ec 0c             	sub    $0xc,%esp
    1e72:	68 00 04 00 00       	push   $0x400
    1e77:	e8 74 6f 00 00       	call   8df0 <malloc@plt>
    1e7c:	83 c4 10             	add    $0x10,%esp
    1e7f:	89 c6                	mov    %eax,%esi
    1e81:	85 c0                	test   %eax,%eax
    1e83:	74 6b                	je     1ef0 <mfs_mounted+0xf0>
    1e85:	83 ec 0c             	sub    $0xc,%esp
    1e88:	50                   	push   %eax
    1e89:	8b 45 08             	mov    0x8(%ebp),%eax
    1e8c:	6a 02                	push   $0x2
    1e8e:	6a 00                	push   $0x0
    1e90:	6a 02                	push   $0x2
    1e92:	50                   	push   %eax
    1e93:	e8 88 4c 00 00       	call   6b20 <block_read_direct>
    1e98:	83 c4 20             	add    $0x20,%esp
    1e9b:	89 c7                	mov    %eax,%edi
    1e9d:	85 c0                	test   %eax,%eax
    1e9f:	0f 84 93 00 00 00    	je     1f38 <mfs_mounted+0x138>
    1ea5:	83 ec 0c             	sub    $0xc,%esp
    1ea8:	8b 45 08             	mov    0x8(%ebp),%eax
    1eab:	50                   	push   %eax
    1eac:	e8 0f 41 00 00       	call   5fc0 <block_fini>
    1eb1:	83 c4 10             	add    $0x10,%esp
    1eb4:	83 ec 0c             	sub    $0xc,%esp
    1eb7:	56                   	push   %esi
    1eb8:	e8 f3 71 00 00       	call   90b0 <free@plt>
    1ebd:	83 c4 10             	add    $0x10,%esp
    1ec0:	83 ec 0c             	sub    $0xc,%esp
    1ec3:	53                   	push   %ebx
    1ec4:	e8 e7 71 00 00       	call   90b0 <free@plt>
    1ec9:	8b 45 d0             	mov    -0x30(%ebp),%eax
    1ecc:	83 c4 10             	add    $0x10,%esp
    1ecf:	85 c0                	test   %eax,%eax
    1ed1:	0f 84 5c ff ff ff    	je     1e33 <mfs_mounted+0x33>
    1ed7:	83 ec 0c             	sub    $0xc,%esp
    1eda:	50                   	push   %eax
    1edb:	e8 d0 71 00 00       	call   90b0 <free@plt>
    1ee0:	83 c4 10             	add    $0x10,%esp
    1ee3:	8d 65 f4             	lea    -0xc(%ebp),%esp
    1ee6:	89 f8                	mov    %edi,%eax
    1ee8:	5b                   	pop    %ebx
    1ee9:	5e                   	pop    %esi
    1eea:	5f                   	pop    %edi
    1eeb:	5d                   	pop    %ebp
    1eec:	c3                   	ret    
    1eed:	8d 76 00             	lea    0x0(%esi),%esi
    1ef0:	83 ec 0c             	sub    $0xc,%esp
    1ef3:	8b 45 08             	mov    0x8(%ebp),%eax
    1ef6:	bf fe ff ff ff       	mov    $0xfffffffe,%edi
    1efb:	50                   	push   %eax
    1efc:	e8 bf 40 00 00       	call   5fc0 <block_fini>
    1f01:	83 c4 10             	add    $0x10,%esp
    1f04:	eb ba                	jmp    1ec0 <mfs_mounted+0xc0>
    1f06:	66 90                	xchg   %ax,%ax
    1f08:	83 ec 0c             	sub    $0xc,%esp
    1f0b:	8b 4d 08             	mov    0x8(%ebp),%ecx
    1f0e:	bf fe ff ff ff       	mov    $0xfffffffe,%edi
    1f13:	51                   	push   %ecx
    1f14:	e8 a7 40 00 00       	call   5fc0 <block_fini>
    1f19:	83 c4 10             	add    $0x10,%esp
    1f1c:	85 db                	test   %ebx,%ebx
    1f1e:	0f 84 0f ff ff ff    	je     1e33 <mfs_mounted+0x33>
    1f24:	c7 45 d0 00 00 00 00 	movl   $0x0,-0x30(%ebp)
    1f2b:	bf fe ff ff ff       	mov    $0xfffffffe,%edi
    1f30:	eb 8e                	jmp    1ec0 <mfs_mounted+0xc0>
    1f32:	8d b6 00 00 00 00    	lea    0x0(%esi),%esi
    1f38:	66 8b 4e 10          	mov    0x10(%esi),%cx
    1f3c:	66 81 f9 7f 13       	cmp    $0x137f,%cx
    1f41:	0f 94 c0             	sete   %al
    1f44:	66 81 f9 13 7f       	cmp    $0x7f13,%cx
    1f49:	0f 84 51 03 00 00    	je     22a0 <mfs_mounted+0x4a0>
    1f4f:	84 c0                	test   %al,%al
    1f51:	0f 85 49 03 00 00    	jne    22a0 <mfs_mounted+0x4a0>
    1f57:	66 81 f9 8f 13       	cmp    $0x138f,%cx
    1f5c:	0f 94 c0             	sete   %al
    1f5f:	66 81 f9 13 8f       	cmp    $0x8f13,%cx
    1f64:	0f 94 c2             	sete   %dl
    1f67:	08 c2                	or     %al,%dl
    1f69:	88 55 cf             	mov    %dl,-0x31(%ebp)
    1f6c:	0f 85 16 02 00 00    	jne    2188 <mfs_mounted+0x388>
    1f72:	66 81 f9 68 24       	cmp    $0x2468,%cx
    1f77:	0f 94 c0             	sete   %al
    1f7a:	66 81 f9 24 68       	cmp    $0x6824,%cx
    1f7f:	0f 84 2b 03 00 00    	je     22b0 <mfs_mounted+0x4b0>
    1f85:	84 c0                	test   %al,%al
    1f87:	0f 85 23 03 00 00    	jne    22b0 <mfs_mounted+0x4b0>
    1f8d:	66 81 f9 78 24       	cmp    $0x2478,%cx
    1f92:	0f 94 c0             	sete   %al
    1f95:	66 81 f9 24 78       	cmp    $0x7824,%cx
    1f9a:	0f 94 c2             	sete   %dl
    1f9d:	08 c2                	or     %al,%dl
    1f9f:	88 55 cf             	mov    %dl,-0x31(%ebp)
    1fa2:	0f 85 08 03 00 00    	jne    22b0 <mfs_mounted+0x4b0>
    1fa8:	66 81 f9 5a 4d       	cmp    $0x4d5a,%cx
    1fad:	0f 94 c0             	sete   %al
    1fb0:	66 81 f9 4d 5a       	cmp    $0x5a4d,%cx
    1fb5:	0f 94 c2             	sete   %dl
    1fb8:	08 c2                	or     %al,%dl
    1fba:	88 55 cf             	mov    %dl,-0x31(%ebp)
    1fbd:	0f 84 f7 02 00 00    	je     22ba <mfs_mounted+0x4ba>
    1fc3:	89 c7                	mov    %eax,%edi
    1fc5:	88 43 3d             	mov    %al,0x3d(%ebx)
    1fc8:	81 e7 ff 00 00 00    	and    $0xff,%edi
    1fce:	66 89 4b 20          	mov    %cx,0x20(%ebx)
    1fd2:	c7 43 28 03 00 00 00 	movl   $0x3,0x28(%ebx)
    1fd9:	c6 43 3c 00          	movb   $0x0,0x3c(%ebx)
    1fdd:	c7 43 40 00 00 00 00 	movl   $0x0,0x40(%ebx)
    1fe4:	c7 43 44 00 00 00 00 	movl   $0x0,0x44(%ebx)
    1feb:	c6 43 48 00          	movb   $0x0,0x48(%ebx)
    1fef:	c7 43 4c 00 00 00 00 	movl   $0x0,0x4c(%ebx)
    1ff6:	50                   	push   %eax
    1ff7:	50                   	push   %eax
    1ff8:	8b 06                	mov    (%esi),%eax
    1ffa:	50                   	push   %eax
    1ffb:	57                   	push   %edi
    1ffc:	e8 bf 38 00 00       	call   58c0 <conv32>
    2001:	89 03                	mov    %eax,(%ebx)
    2003:	58                   	pop    %eax
    2004:	31 c0                	xor    %eax,%eax
    2006:	66 8b 46 06          	mov    0x6(%esi),%ax
    200a:	5a                   	pop    %edx
    200b:	50                   	push   %eax
    200c:	57                   	push   %edi
    200d:	e8 8e 38 00 00       	call   58a0 <conv16>
    2012:	25 ff ff 00 00       	and    $0xffff,%eax
    2017:	89 43 08             	mov    %eax,0x8(%ebx)
    201a:	59                   	pop    %ecx
    201b:	58                   	pop    %eax
    201c:	31 c0                	xor    %eax,%eax
    201e:	66 8b 46 08          	mov    0x8(%esi),%ax
    2022:	50                   	push   %eax
    2023:	57                   	push   %edi
    2024:	e8 77 38 00 00       	call   58a0 <conv16>
    2029:	25 ff ff 00 00       	and    $0xffff,%eax
    202e:	89 43 0c             	mov    %eax,0xc(%ebx)
    2031:	58                   	pop    %eax
    2032:	31 c0                	xor    %eax,%eax
    2034:	66 8b 46 0a          	mov    0xa(%esi),%ax
    2038:	5a                   	pop    %edx
    2039:	50                   	push   %eax
    203a:	57                   	push   %edi
    203b:	e8 60 38 00 00       	call   58a0 <conv16>
    2040:	25 ff ff 00 00       	and    $0xffff,%eax
    2045:	89 43 10             	mov    %eax,0x10(%ebx)
    2048:	59                   	pop    %ecx
    2049:	58                   	pop    %eax
    204a:	31 c0                	xor    %eax,%eax
    204c:	66 8b 46 0c          	mov    0xc(%esi),%ax
    2050:	50                   	push   %eax
    2051:	57                   	push   %edi
    2052:	e8 49 38 00 00       	call   58a0 <conv16>
    2057:	8b 4e 10             	mov    0x10(%esi),%ecx
    205a:	25 ff ff 00 00       	and    $0xffff,%eax
    205f:	89 43 14             	mov    %eax,0x14(%ebx)
    2062:	58                   	pop    %eax
    2063:	5a                   	pop    %edx
    2064:	51                   	push   %ecx
    2065:	57                   	push   %edi
    2066:	e8 55 38 00 00       	call   58c0 <conv32>
    206b:	8b 4e 14             	mov    0x14(%esi),%ecx
    206e:	89 43 1c             	mov    %eax,0x1c(%ebx)
    2071:	58                   	pop    %eax
    2072:	5a                   	pop    %edx
    2073:	51                   	push   %ecx
    2074:	57                   	push   %edi
    2075:	e8 46 38 00 00       	call   58c0 <conv32>
    207a:	89 43 04             	mov    %eax,0x4(%ebx)
    207d:	58                   	pop    %eax
    207e:	31 c0                	xor    %eax,%eax
    2080:	66 8b 46 1c          	mov    0x1c(%esi),%ax
    2084:	5a                   	pop    %edx
    2085:	50                   	push   %eax
    2086:	57                   	push   %edi
    2087:	e8 14 38 00 00       	call   58a0 <conv16>
    208c:	c7 43 30 40 00 00 00 	movl   $0x40,0x30(%ebx)
    2093:	25 ff ff 00 00       	and    $0xffff,%eax
    2098:	c7 43 38 3c 00 00 00 	movl   $0x3c,0x38(%ebx)
    209f:	89 43 18             	mov    %eax,0x18(%ebx)
    20a2:	83 c4 10             	add    $0x10,%esp
    20a5:	c1 e8 06             	shr    $0x6,%eax
    20a8:	89 43 2c             	mov    %eax,0x2c(%ebx)
    20ab:	8b 43 14             	mov    0x14(%ebx),%eax
    20ae:	85 c0                	test   %eax,%eax
    20b0:	0f 85 c2 00 00 00    	jne    2178 <mfs_mounted+0x378>
    20b6:	8b 53 08             	mov    0x8(%ebx),%edx
    20b9:	8b 4b 0c             	mov    0xc(%ebx),%ecx
    20bc:	85 d2                	test   %edx,%edx
    20be:	8d 44 0a 02          	lea    0x2(%edx,%ecx,1),%eax
    20c2:	89 43 34             	mov    %eax,0x34(%ebx)
    20c5:	8b 43 18             	mov    0x18(%ebx),%eax
    20c8:	0f 94 c2             	sete   %dl
    20cb:	85 c9                	test   %ecx,%ecx
    20cd:	0f 94 c1             	sete   %cl
    20d0:	09 ca                	or     %ecx,%edx
    20d2:	8d 88 00 fc ff ff    	lea    -0x400(%eax),%ecx
    20d8:	81 f9 00 0c 00 00    	cmp    $0xc00,%ecx
    20de:	0f 97 c1             	seta   %cl
    20e1:	08 ca                	or     %cl,%dl
    20e3:	0f 85 69 02 00 00    	jne    2352 <mfs_mounted+0x552>
    20e9:	8d 50 ff             	lea    -0x1(%eax),%edx
    20ec:	85 c2                	test   %eax,%edx
    20ee:	0f 85 5e 02 00 00    	jne    2352 <mfs_mounted+0x552>
    20f4:	8b 3b                	mov    (%ebx),%edi
    20f6:	85 ff                	test   %edi,%edi
    20f8:	0f 84 54 02 00 00    	je     2352 <mfs_mounted+0x552>
    20fe:	8b 4b 04             	mov    0x4(%ebx),%ecx
    2101:	85 c9                	test   %ecx,%ecx
    2103:	0f 84 49 02 00 00    	je     2352 <mfs_mounted+0x552>
    2109:	8b 53 10             	mov    0x10(%ebx),%edx
    210c:	85 d2                	test   %edx,%edx
    210e:	0f 84 3e 02 00 00    	je     2352 <mfs_mounted+0x552>
    2114:	31 d2                	xor    %edx,%edx
    2116:	8b 4d d4             	mov    -0x2c(%ebp),%ecx
    2119:	85 c9                	test   %ecx,%ecx
    211b:	8b 7d 08             	mov    0x8(%ebp),%edi
    211e:	0f 95 c2             	setne  %dl
    2121:	52                   	push   %edx
    2122:	6a 00                	push   $0x0
    2124:	50                   	push   %eax
    2125:	57                   	push   %edi
    2126:	e8 a5 3b 00 00       	call   5cd0 <block_cache_init>
    212b:	bf f2 ff ff ff       	mov    $0xfffffff2,%edi
    2130:	83 c4 10             	add    $0x10,%esp
    2133:	85 c0                	test   %eax,%eax
    2135:	0f 85 6a fd ff ff    	jne    1ea5 <mfs_mounted+0xa5>
    213b:	8b 45 d0             	mov    -0x30(%ebp),%eax
    213e:	8b 4d 08             	mov    0x8(%ebp),%ecx
    2141:	89 08                	mov    %ecx,(%eax)
    2143:	89 58 04             	mov    %ebx,0x4(%eax)
    2146:	c7 40 08 00 00 00 00 	movl   $0x0,0x8(%eax)
    214d:	57                   	push   %edi
    214e:	57                   	push   %edi
    214f:	50                   	push   %eax
    2150:	51                   	push   %ecx
    2151:	e8 6a 63 00 00       	call   84c0 <fs_instance_create>
    2156:	83 c4 10             	add    $0x10,%esp
    2159:	89 c7                	mov    %eax,%edi
    215b:	85 c0                	test   %eax,%eax
    215d:	0f 84 33 02 00 00    	je     2396 <mfs_mounted+0x596>
    2163:	83 ec 0c             	sub    $0xc,%esp
    2166:	8b 55 08             	mov    0x8(%ebp),%edx
    2169:	52                   	push   %edx
    216a:	e8 a1 3c 00 00       	call   5e10 <block_cache_fini>
    216f:	83 c4 10             	add    $0x10,%esp
    2172:	e9 2e fd ff ff       	jmp    1ea5 <mfs_mounted+0xa5>
    2177:	90                   	nop
    2178:	bf f5 ff ff ff       	mov    $0xfffffff5,%edi
    217d:	e9 23 fd ff ff       	jmp    1ea5 <mfs_mounted+0xa5>
    2182:	8d b6 00 00 00 00    	lea    0x0(%esi),%esi
    2188:	ba 01 00 00 00       	mov    $0x1,%edx
    218d:	89 53 28             	mov    %edx,0x28(%ebx)
    2190:	88 43 3d             	mov    %al,0x3d(%ebx)
    2193:	89 55 c8             	mov    %edx,-0x38(%ebp)
    2196:	89 c7                	mov    %eax,%edi
    2198:	8a 55 cf             	mov    -0x31(%ebp),%dl
    219b:	31 c0                	xor    %eax,%eax
    219d:	88 53 3c             	mov    %dl,0x3c(%ebx)
    21a0:	81 e7 ff 00 00 00    	and    $0xff,%edi
    21a6:	66 89 4b 20          	mov    %cx,0x20(%ebx)
    21aa:	c7 43 40 00 00 00 00 	movl   $0x0,0x40(%ebx)
    21b1:	c7 43 44 00 00 00 00 	movl   $0x0,0x44(%ebx)
    21b8:	c6 43 48 00          	movb   $0x0,0x48(%ebx)
    21bc:	c7 43 4c 00 00 00 00 	movl   $0x0,0x4c(%ebx)
    21c3:	66 8b 06             	mov    (%esi),%ax
    21c6:	52                   	push   %edx
    21c7:	52                   	push   %edx
    21c8:	50                   	push   %eax
    21c9:	57                   	push   %edi
    21ca:	e8 d1 36 00 00       	call   58a0 <conv16>
    21cf:	25 ff ff 00 00       	and    $0xffff,%eax
    21d4:	89 03                	mov    %eax,(%ebx)
    21d6:	59                   	pop    %ecx
    21d7:	58                   	pop    %eax
    21d8:	31 c0                	xor    %eax,%eax
    21da:	66 8b 46 04          	mov    0x4(%esi),%ax
    21de:	50                   	push   %eax
    21df:	57                   	push   %edi
    21e0:	e8 bb 36 00 00       	call   58a0 <conv16>
    21e5:	25 ff ff 00 00       	and    $0xffff,%eax
    21ea:	89 43 08             	mov    %eax,0x8(%ebx)
    21ed:	58                   	pop    %eax
    21ee:	31 c0                	xor    %eax,%eax
    21f0:	66 8b 46 06          	mov    0x6(%esi),%ax
    21f4:	5a                   	pop    %edx
    21f5:	50                   	push   %eax
    21f6:	57                   	push   %edi
    21f7:	e8 a4 36 00 00       	call   58a0 <conv16>
    21fc:	25 ff ff 00 00       	and    $0xffff,%eax
    2201:	89 43 0c             	mov    %eax,0xc(%ebx)
    2204:	59                   	pop    %ecx
    2205:	58                   	pop    %eax
    2206:	31 c0                	xor    %eax,%eax
    2208:	66 8b 46 08          	mov    0x8(%esi),%ax
    220c:	50                   	push   %eax
    220d:	57                   	push   %edi
    220e:	e8 8d 36 00 00       	call   58a0 <conv16>
    2213:	25 ff ff 00 00       	and    $0xffff,%eax
    2218:	89 43 10             	mov    %eax,0x10(%ebx)
    221b:	58                   	pop    %eax
    221c:	31 c0                	xor    %eax,%eax
    221e:	66 8b 46 0a          	mov    0xa(%esi),%ax
    2222:	5a                   	pop    %edx
    2223:	50                   	push   %eax
    2224:	57                   	push   %edi
    2225:	e8 76 36 00 00       	call   58a0 <conv16>
    222a:	25 ff ff 00 00       	and    $0xffff,%eax
    222f:	89 43 14             	mov    %eax,0x14(%ebx)
    2232:	59                   	pop    %ecx
    2233:	58                   	pop    %eax
    2234:	8b 46 0c             	mov    0xc(%esi),%eax
    2237:	50                   	push   %eax
    2238:	57                   	push   %edi
    2239:	e8 82 36 00 00       	call   58c0 <conv32>
    223e:	8b 55 c8             	mov    -0x38(%ebp),%edx
    2241:	83 c4 10             	add    $0x10,%esp
    2244:	89 43 1c             	mov    %eax,0x1c(%ebx)
    2247:	c7 43 18 00 04 00 00 	movl   $0x400,0x18(%ebx)
    224e:	83 fa 02             	cmp    $0x2,%edx
    2251:	0f 84 21 01 00 00    	je     2378 <mfs_mounted+0x578>
    2257:	50                   	push   %eax
    2258:	50                   	push   %eax
    2259:	31 c0                	xor    %eax,%eax
    225b:	66 8b 46 02          	mov    0x2(%esi),%ax
    225f:	50                   	push   %eax
    2260:	57                   	push   %edi
    2261:	e8 3a 36 00 00       	call   58a0 <conv16>
    2266:	c7 43 2c 20 00 00 00 	movl   $0x20,0x2c(%ebx)
    226d:	25 ff ff 00 00       	and    $0xffff,%eax
    2272:	83 c4 10             	add    $0x10,%esp
    2275:	89 43 04             	mov    %eax,0x4(%ebx)
    2278:	8a 45 cf             	mov    -0x31(%ebp),%al
    227b:	3c 01                	cmp    $0x1,%al
    227d:	19 d2                	sbb    %edx,%edx
    227f:	83 e2 f0             	and    $0xfffffff0,%edx
    2282:	83 c2 20             	add    $0x20,%edx
    2285:	3c 01                	cmp    $0x1,%al
    2287:	19 c0                	sbb    %eax,%eax
    2289:	89 53 30             	mov    %edx,0x30(%ebx)
    228c:	83 e0 f0             	and    $0xfffffff0,%eax
    228f:	83 c0 1e             	add    $0x1e,%eax
    2292:	89 43 38             	mov    %eax,0x38(%ebx)
    2295:	e9 11 fe ff ff       	jmp    20ab <mfs_mounted+0x2ab>
    229a:	8d b6 00 00 00 00    	lea    0x0(%esi),%esi
    22a0:	ba 01 00 00 00       	mov    $0x1,%edx
    22a5:	c6 45 cf 00          	movb   $0x0,-0x31(%ebp)
    22a9:	e9 df fe ff ff       	jmp    218d <mfs_mounted+0x38d>
    22ae:	66 90                	xchg   %ax,%ax
    22b0:	ba 02 00 00 00       	mov    $0x2,%edx
    22b5:	e9 d3 fe ff ff       	jmp    218d <mfs_mounted+0x38d>
    22ba:	66 8b 4e 18          	mov    0x18(%esi),%cx
    22be:	66 81 f9 7f 13       	cmp    $0x137f,%cx
    22c3:	0f 94 c0             	sete   %al
    22c6:	66 81 f9 13 7f       	cmp    $0x7f13,%cx
    22cb:	0f 84 b7 fe ff ff    	je     2188 <mfs_mounted+0x388>
    22d1:	84 c0                	test   %al,%al
    22d3:	0f 85 af fe ff ff    	jne    2188 <mfs_mounted+0x388>
    22d9:	66 81 f9 8f 13       	cmp    $0x138f,%cx
    22de:	0f 94 c0             	sete   %al
    22e1:	66 81 f9 13 8f       	cmp    $0x8f13,%cx
    22e6:	0f 94 c2             	sete   %dl
    22e9:	08 c2                	or     %al,%dl
    22eb:	88 55 cf             	mov    %dl,-0x31(%ebp)
    22ee:	0f 85 94 fe ff ff    	jne    2188 <mfs_mounted+0x388>
    22f4:	66 81 f9 68 24       	cmp    $0x2468,%cx
    22f9:	0f 94 c0             	sete   %al
    22fc:	66 81 f9 24 68       	cmp    $0x6824,%cx
    2301:	74 ad                	je     22b0 <mfs_mounted+0x4b0>
    2303:	84 c0                	test   %al,%al
    2305:	75 a9                	jne    22b0 <mfs_mounted+0x4b0>
    2307:	66 81 f9 78 24       	cmp    $0x2478,%cx
    230c:	0f 94 c0             	sete   %al
    230f:	66 81 f9 24 78       	cmp    $0x7824,%cx
    2314:	0f 94 c2             	sete   %dl
    2317:	08 c2                	or     %al,%dl
    2319:	88 55 cf             	mov    %dl,-0x31(%ebp)
    231c:	75 92                	jne    22b0 <mfs_mounted+0x4b0>
    231e:	66 81 f9 5a 4d       	cmp    $0x4d5a,%cx
    2323:	0f 94 c0             	sete   %al
    2326:	66 81 f9 4d 5a       	cmp    $0x5a4d,%cx
    232b:	0f 84 92 fc ff ff    	je     1fc3 <mfs_mounted+0x1c3>
    2331:	84 c0                	test   %al,%al
    2333:	0f 85 8a fc ff ff    	jne    1fc3 <mfs_mounted+0x1c3>
    2339:	83 ec 0c             	sub    $0xc,%esp
    233c:	8b 45 08             	mov    0x8(%ebp),%eax
    233f:	bf f5 ff ff ff       	mov    $0xfffffff5,%edi
    2344:	50                   	push   %eax
    2345:	e8 76 3c 00 00       	call   5fc0 <block_fini>
    234a:	83 c4 10             	add    $0x10,%esp
    234d:	e9 62 fb ff ff       	jmp    1eb4 <mfs_mounted+0xb4>
    2352:	50                   	push   %eax
    2353:	50                   	push   %eax
    2354:	a1 e0 ae 00 00       	mov    0xaee0,%eax
    2359:	68 30 88 00 00       	push   $0x8830
    235e:	50                   	push   %eax
    235f:	bf f5 ff ff ff       	mov    $0xfffffff5,%edi
    2364:	e8 57 6b 00 00       	call   8ec0 <fprintf@plt>
    2369:	83 c4 10             	add    $0x10,%esp
    236c:	e9 34 fb ff ff       	jmp    1ea5 <mfs_mounted+0xa5>
    2371:	8d b4 26 00 00 00 00 	lea    0x0(%esi,%eiz,1),%esi
    2378:	50                   	push   %eax
    2379:	50                   	push   %eax
    237a:	8b 46 14             	mov    0x14(%esi),%eax
    237d:	50                   	push   %eax
    237e:	57                   	push   %edi
    237f:	e8 3c 35 00 00       	call   58c0 <conv32>
    2384:	c7 43 2c 10 00 00 00 	movl   $0x10,0x2c(%ebx)
    238b:	89 43 04             	mov    %eax,0x4(%ebx)
    238e:	83 c4 10             	add    $0x10,%esp
    2391:	e9 e2 fe ff ff       	jmp    2278 <mfs_mounted+0x478>
    2396:	50                   	push   %eax
    2397:	8b 45 08             	mov    0x8(%ebp),%eax
    239a:	6a 01                	push   $0x1
    239c:	50                   	push   %eax
    239d:	8d 45 e4             	lea    -0x1c(%ebp),%eax
    23a0:	50                   	push   %eax
    23a1:	e8 ca f7 ff ff       	call   1b70 <mfs_node_get>
    23a6:	8b 45 e4             	mov    -0x1c(%ebp),%eax
    23a9:	8b 55 10             	mov    0x10(%ebp),%edx
    23ac:	8b 40 10             	mov    0x10(%eax),%eax
    23af:	8b 00                	mov    (%eax),%eax
    23b1:	8b 48 44             	mov    0x44(%eax),%ecx
    23b4:	89 0a                	mov    %ecx,(%edx)
    23b6:	8b 55 14             	mov    0x14(%ebp),%edx
    23b9:	8b 40 08             	mov    0x8(%eax),%eax
    23bc:	89 02                	mov    %eax,(%edx)
    23be:	8b 45 18             	mov    0x18(%ebp),%eax
    23c1:	c7 42 04 00 00 00 00 	movl   $0x0,0x4(%edx)
    23c8:	c7 00 01 00 00 00    	movl   $0x1,(%eax)
    23ce:	89 34 24             	mov    %esi,(%esp)
    23d1:	e8 da 6c 00 00       	call   90b0 <free@plt>
    23d6:	58                   	pop    %eax
    23d7:	8b 45 e4             	mov    -0x1c(%ebp),%eax
    23da:	50                   	push   %eax
    23db:	e8 a0 f4 ff ff       	call   1880 <mfs_node_put>
    23e0:	83 c4 10             	add    $0x10,%esp
    23e3:	89 c7                	mov    %eax,%edi
    23e5:	e9 49 fa ff ff       	jmp    1e33 <mfs_mounted+0x33>
    23ea:	8d b6 00 00 00 00    	lea    0x0(%esi),%esi

000023f0 <mfs_root_get>:
    23f0:	55                   	push   %ebp
    23f1:	89 e5                	mov    %esp,%ebp
    23f3:	57                   	push   %edi
    23f4:	56                   	push   %esi
    23f5:	53                   	push   %ebx
    23f6:	83 ec 34             	sub    $0x34,%esp
    23f9:	8d 7d e0             	lea    -0x20(%ebp),%edi
    23fc:	8b 4d 0c             	mov    0xc(%ebp),%ecx
    23ff:	57                   	push   %edi
    2400:	51                   	push   %ecx
    2401:	e8 ba 61 00 00       	call   85c0 <fs_instance_get>
    2406:	83 c4 10             	add    $0x10,%esp
    2409:	89 c3                	mov    %eax,%ebx
    240b:	85 c0                	test   %eax,%eax
    240d:	75 52                	jne    2461 <mfs_root_get+0x71>
    240f:	83 ec 0c             	sub    $0xc,%esp
    2412:	8b 75 e0             	mov    -0x20(%ebp),%esi
    2415:	68 6c ad 00 00       	push   $0xad6c
    241a:	e8 a1 6c 00 00       	call   90c0 <fibril_mutex_lock@plt>
    241f:	8b 06                	mov    (%esi),%eax
    2421:	c7 45 e4 01 00 00 00 	movl   $0x1,-0x1c(%ebp)
    2428:	89 45 e0             	mov    %eax,-0x20(%ebp)
    242b:	58                   	pop    %eax
    242c:	5a                   	pop    %edx
    242d:	57                   	push   %edi
    242e:	68 e4 ae 00 00       	push   $0xaee4
    2433:	e8 d8 6b 00 00       	call   9010 <hash_table_find@plt>
    2438:	83 c4 10             	add    $0x10,%esp
    243b:	85 c0                	test   %eax,%eax
    243d:	74 31                	je     2470 <mfs_root_get+0x80>
    243f:	8b 50 fc             	mov    -0x4(%eax),%edx
    2442:	83 e8 10             	sub    $0x10,%eax
    2445:	83 ec 0c             	sub    $0xc,%esp
    2448:	8b 70 08             	mov    0x8(%eax),%esi
    244b:	8b 4d 08             	mov    0x8(%ebp),%ecx
    244e:	46                   	inc    %esi
    244f:	89 11                	mov    %edx,(%ecx)
    2451:	89 70 08             	mov    %esi,0x8(%eax)
    2454:	68 6c ad 00 00       	push   $0xad6c
    2459:	e8 82 6a 00 00       	call   8ee0 <fibril_mutex_unlock@plt>
    245e:	83 c4 10             	add    $0x10,%esp
    2461:	8d 65 f4             	lea    -0xc(%ebp),%esp
    2464:	89 d8                	mov    %ebx,%eax
    2466:	5b                   	pop    %ebx
    2467:	5e                   	pop    %esi
    2468:	5f                   	pop    %edi
    2469:	5d                   	pop    %ebp
    246a:	c3                   	ret    
    246b:	90                   	nop
    246c:	8d 74 26 00          	lea    0x0(%esi,%eiz,1),%esi
    2470:	83 ec 0c             	sub    $0xc,%esp
    2473:	6a 14                	push   $0x14
    2475:	e8 76 69 00 00       	call   8df0 <malloc@plt>
    247a:	83 c4 10             	add    $0x10,%esp
    247d:	89 c7                	mov    %eax,%edi
    247f:	85 c0                	test   %eax,%eax
    2481:	0f 84 81 00 00 00    	je     2508 <mfs_root_get+0x118>
    2487:	83 ec 0c             	sub    $0xc,%esp
    248a:	50                   	push   %eax
    248b:	e8 10 60 00 00       	call   84a0 <fs_node_initialize>
    2490:	c7 04 24 18 00 00 00 	movl   $0x18,(%esp)
    2497:	e8 54 69 00 00       	call   8df0 <malloc@plt>
    249c:	83 c4 10             	add    $0x10,%esp
    249f:	89 45 d4             	mov    %eax,-0x2c(%ebp)
    24a2:	85 c0                	test   %eax,%eax
    24a4:	74 4a                	je     24f0 <mfs_root_get+0x100>
    24a6:	8d 45 dc             	lea    -0x24(%ebp),%eax
    24a9:	51                   	push   %ecx
    24aa:	6a 01                	push   $0x1
    24ac:	50                   	push   %eax
    24ad:	56                   	push   %esi
    24ae:	e8 3d 16 00 00       	call   3af0 <mfs_get_inode>
    24b3:	83 c4 10             	add    $0x10,%esp
    24b6:	89 c3                	mov    %eax,%ebx
    24b8:	85 c0                	test   %eax,%eax
    24ba:	8b 55 d4             	mov    -0x2c(%ebp),%edx
    24bd:	74 50                	je     250f <mfs_root_get+0x11f>
    24bf:	83 ec 0c             	sub    $0xc,%esp
    24c2:	89 55 d4             	mov    %edx,-0x2c(%ebp)
    24c5:	57                   	push   %edi
    24c6:	e8 e5 6b 00 00       	call   90b0 <free@plt>
    24cb:	8b 55 d4             	mov    -0x2c(%ebp),%edx
    24ce:	89 14 24             	mov    %edx,(%esp)
    24d1:	e8 da 6b 00 00       	call   90b0 <free@plt>
    24d6:	83 c4 10             	add    $0x10,%esp
    24d9:	83 ec 0c             	sub    $0xc,%esp
    24dc:	68 6c ad 00 00       	push   $0xad6c
    24e1:	e8 fa 69 00 00       	call   8ee0 <fibril_mutex_unlock@plt>
    24e6:	83 c4 10             	add    $0x10,%esp
    24e9:	e9 73 ff ff ff       	jmp    2461 <mfs_root_get+0x71>
    24ee:	66 90                	xchg   %ax,%ax
    24f0:	83 ec 0c             	sub    $0xc,%esp
    24f3:	bb fe ff ff ff       	mov    $0xfffffffe,%ebx
    24f8:	57                   	push   %edi
    24f9:	e8 b2 6b 00 00       	call   90b0 <free@plt>
    24fe:	83 c4 10             	add    $0x10,%esp
    2501:	eb d6                	jmp    24d9 <mfs_root_get+0xe9>
    2503:	90                   	nop
    2504:	8d 74 26 00          	lea    0x0(%esi,%eiz,1),%esi
    2508:	bb fe ff ff ff       	mov    $0xfffffffe,%ebx
    250d:	eb ca                	jmp    24d9 <mfs_root_get+0xe9>
    250f:	8b 45 dc             	mov    -0x24(%ebp),%eax
    2512:	c7 40 44 01 00 00 00 	movl   $0x1,0x44(%eax)
    2519:	89 02                	mov    %eax,(%edx)
    251b:	8b 45 08             	mov    0x8(%ebp),%eax
    251e:	c7 42 08 01 00 00 00 	movl   $0x1,0x8(%edx)
    2525:	89 72 04             	mov    %esi,0x4(%edx)
    2528:	89 7a 0c             	mov    %edi,0xc(%edx)
    252b:	89 38                	mov    %edi,(%eax)
    252d:	89 57 10             	mov    %edx,0x10(%edi)
    2530:	83 c2 10             	add    $0x10,%edx
    2533:	50                   	push   %eax
    2534:	50                   	push   %eax
    2535:	52                   	push   %edx
    2536:	68 e4 ae 00 00       	push   $0xaee4
    253b:	e8 10 68 00 00       	call   8d50 <hash_table_insert@plt>
    2540:	8b 56 08             	mov    0x8(%esi),%edx
    2543:	42                   	inc    %edx
    2544:	89 56 08             	mov    %edx,0x8(%esi)
    2547:	c7 04 24 6c ad 00 00 	movl   $0xad6c,(%esp)
    254e:	e8 8d 69 00 00       	call   8ee0 <fibril_mutex_unlock@plt>
    2553:	83 c4 10             	add    $0x10,%esp
    2556:	e9 06 ff ff ff       	jmp    2461 <mfs_root_get+0x71>
    255b:	90                   	nop
    255c:	8d 74 26 00          	lea    0x0(%esi,%eiz,1),%esi

00002560 <mfs_destroy_node>:
    2560:	55                   	push   %ebp
    2561:	89 e5                	mov    %esp,%ebp
    2563:	57                   	push   %edi
    2564:	56                   	push   %esi
    2565:	53                   	push   %ebx
    2566:	83 ec 5c             	sub    $0x5c,%esp
    2569:	8b 45 08             	mov    0x8(%ebp),%eax
    256c:	8b 78 10             	mov    0x10(%eax),%edi
    256f:	8b 17                	mov    (%edi),%edx
    2571:	8b 02                	mov    (%edx),%eax
    2573:	25 00 f0 ff ff       	and    $0xfffff000,%eax
    2578:	66 3d 00 40          	cmp    $0x4000,%ax
    257c:	0f 84 c6 00 00 00    	je     2648 <mfs_destroy_node+0xe8>
    2582:	8b 4a 08             	mov    0x8(%edx),%ecx
    2585:	50                   	push   %eax
    2586:	50                   	push   %eax
    2587:	51                   	push   %ecx
    2588:	57                   	push   %edi
    2589:	e8 42 1b 00 00       	call   40d0 <mfs_inode_shrink>
    258e:	83 c4 10             	add    $0x10,%esp
    2591:	89 c6                	mov    %eax,%esi
    2593:	85 c0                	test   %eax,%eax
    2595:	0f 84 8d 00 00 00    	je     2628 <mfs_destroy_node+0xc8>
    259b:	8b 45 08             	mov    0x8(%ebp),%eax
    259e:	83 ec 0c             	sub    $0xc,%esp
    25a1:	8b 58 10             	mov    0x10(%eax),%ebx
    25a4:	68 6c ad 00 00       	push   $0xad6c
    25a9:	e8 12 6b 00 00       	call   90c0 <fibril_mutex_lock@plt>
    25ae:	83 c4 10             	add    $0x10,%esp
    25b1:	8b 43 08             	mov    0x8(%ebx),%eax
    25b4:	85 c0                	test   %eax,%eax
    25b6:	0f 84 01 01 00 00    	je     26bd <mfs_destroy_node+0x15d>
    25bc:	48                   	dec    %eax
    25bd:	89 43 08             	mov    %eax,0x8(%ebx)
    25c0:	85 c0                	test   %eax,%eax
    25c2:	75 4c                	jne    2610 <mfs_destroy_node+0xb0>
    25c4:	50                   	push   %eax
    25c5:	50                   	push   %eax
    25c6:	8d 43 10             	lea    0x10(%ebx),%eax
    25c9:	50                   	push   %eax
    25ca:	68 e4 ae 00 00       	push   $0xaee4
    25cf:	e8 8c 69 00 00       	call   8f60 <hash_table_remove_item@plt>
    25d4:	8b 4b 04             	mov    0x4(%ebx),%ecx
    25d7:	8b 41 08             	mov    0x8(%ecx),%eax
    25da:	83 c4 10             	add    $0x10,%esp
    25dd:	85 c0                	test   %eax,%eax
    25df:	0f 84 ed 00 00 00    	je     26d2 <mfs_destroy_node+0x172>
    25e5:	83 ec 0c             	sub    $0xc,%esp
    25e8:	48                   	dec    %eax
    25e9:	89 41 08             	mov    %eax,0x8(%ecx)
    25ec:	53                   	push   %ebx
    25ed:	e8 2e 18 00 00       	call   3e20 <mfs_put_inode>
    25f2:	8b 3b                	mov    (%ebx),%edi
    25f4:	59                   	pop    %ecx
    25f5:	57                   	push   %edi
    25f6:	e8 b5 6a 00 00       	call   90b0 <free@plt>
    25fb:	89 1c 24             	mov    %ebx,(%esp)
    25fe:	e8 ad 6a 00 00       	call   90b0 <free@plt>
    2603:	58                   	pop    %eax
    2604:	8b 45 08             	mov    0x8(%ebp),%eax
    2607:	50                   	push   %eax
    2608:	e8 a3 6a 00 00       	call   90b0 <free@plt>
    260d:	83 c4 10             	add    $0x10,%esp
    2610:	83 ec 0c             	sub    $0xc,%esp
    2613:	68 6c ad 00 00       	push   $0xad6c
    2618:	e8 c3 68 00 00       	call   8ee0 <fibril_mutex_unlock@plt>
    261d:	8d 65 f4             	lea    -0xc(%ebp),%esp
    2620:	89 f0                	mov    %esi,%eax
    2622:	5b                   	pop    %ebx
    2623:	5e                   	pop    %esi
    2624:	5f                   	pop    %edi
    2625:	5d                   	pop    %ebp
    2626:	c3                   	ret    
    2627:	90                   	nop
    2628:	50                   	push   %eax
    2629:	50                   	push   %eax
    262a:	8b 07                	mov    (%edi),%eax
    262c:	8b 4f 04             	mov    0x4(%edi),%ecx
    262f:	8b 50 44             	mov    0x44(%eax),%edx
    2632:	52                   	push   %edx
    2633:	51                   	push   %ecx
    2634:	e8 e7 2f 00 00       	call   5620 <mfs_free_inode>
    2639:	83 c4 10             	add    $0x10,%esp
    263c:	89 c6                	mov    %eax,%esi
    263e:	e9 58 ff ff ff       	jmp    259b <mfs_destroy_node+0x3b>
    2643:	90                   	nop
    2644:	8d 74 26 00          	lea    0x0(%esi,%eiz,1),%esi
    2648:	8b 47 04             	mov    0x4(%edi),%eax
    264b:	8b 4a 08             	mov    0x8(%edx),%ecx
    264e:	31 d2                	xor    %edx,%edx
    2650:	8b 40 04             	mov    0x4(%eax),%eax
    2653:	89 c6                	mov    %eax,%esi
    2655:	89 c8                	mov    %ecx,%eax
    2657:	f7 76 30             	divl   0x30(%esi)
    265a:	83 f8 02             	cmp    $0x2,%eax
    265d:	0f 86 22 ff ff ff    	jbe    2585 <mfs_destroy_node+0x25>
    2663:	bb 02 00 00 00       	mov    $0x2,%ebx
    2668:	eb 22                	jmp    268c <mfs_destroy_node+0x12c>
    266a:	8d b6 00 00 00 00    	lea    0x0(%esi),%esi
    2670:	8b 45 9c             	mov    -0x64(%ebp),%eax
    2673:	85 c0                	test   %eax,%eax
    2675:	75 31                	jne    26a8 <mfs_destroy_node+0x148>
    2677:	8b 07                	mov    (%edi),%eax
    2679:	31 d2                	xor    %edx,%edx
    267b:	43                   	inc    %ebx
    267c:	8b 48 08             	mov    0x8(%eax),%ecx
    267f:	89 c8                	mov    %ecx,%eax
    2681:	f7 76 30             	divl   0x30(%esi)
    2684:	39 c3                	cmp    %eax,%ebx
    2686:	0f 83 f9 fe ff ff    	jae    2585 <mfs_destroy_node+0x25>
    268c:	50                   	push   %eax
    268d:	8d 45 9c             	lea    -0x64(%ebp),%eax
    2690:	53                   	push   %ebx
    2691:	50                   	push   %eax
    2692:	57                   	push   %edi
    2693:	e8 e8 23 00 00       	call   4a80 <mfs_read_dentry>
    2698:	83 c4 10             	add    $0x10,%esp
    269b:	85 c0                	test   %eax,%eax
    269d:	74 d1                	je     2670 <mfs_destroy_node+0x110>
    269f:	89 c6                	mov    %eax,%esi
    26a1:	e9 f5 fe ff ff       	jmp    259b <mfs_destroy_node+0x3b>
    26a6:	66 90                	xchg   %ax,%ax
    26a8:	52                   	push   %edx
    26a9:	68 e2 03 00 00       	push   $0x3e2
    26ae:	68 c4 87 00 00       	push   $0x87c4
    26b3:	68 fd 87 00 00       	push   $0x87fd
    26b8:	e8 f3 67 00 00       	call   8eb0 <assert_abort@plt>
    26bd:	50                   	push   %eax
    26be:	68 f6 01 00 00       	push   $0x1f6
    26c3:	68 c4 87 00 00       	push   $0x87c4
    26c8:	68 ce 87 00 00       	push   $0x87ce
    26cd:	e8 de 67 00 00       	call   8eb0 <assert_abort@plt>
    26d2:	50                   	push   %eax
    26d3:	68 fa 01 00 00       	push   $0x1fa
    26d8:	68 c4 87 00 00       	push   $0x87c4
    26dd:	68 0c 88 00 00       	push   $0x880c
    26e2:	e8 c9 67 00 00       	call   8eb0 <assert_abort@plt>
    26e7:	89 f6                	mov    %esi,%esi
    26e9:	8d bc 27 00 00 00 00 	lea    0x0(%edi,%eiz,1),%edi

000026f0 <mfs_sync>:
    26f0:	55                   	push   %ebp
    26f1:	89 e5                	mov    %esp,%ebp
    26f3:	57                   	push   %edi
    26f4:	56                   	push   %esi
    26f5:	53                   	push   %ebx
    26f6:	83 ec 34             	sub    $0x34,%esp
    26f9:	8d 7d e0             	lea    -0x20(%ebp),%edi
    26fc:	8b 45 08             	mov    0x8(%ebp),%eax
    26ff:	57                   	push   %edi
    2700:	50                   	push   %eax
    2701:	e8 ba 5e 00 00       	call   85c0 <fs_instance_get>
    2706:	83 c4 10             	add    $0x10,%esp
    2709:	89 c6                	mov    %eax,%esi
    270b:	85 c0                	test   %eax,%eax
    270d:	0f 85 e0 00 00 00    	jne    27f3 <mfs_sync+0x103>
    2713:	83 ec 0c             	sub    $0xc,%esp
    2716:	8b 5d e0             	mov    -0x20(%ebp),%ebx
    2719:	68 6c ad 00 00       	push   $0xad6c
    271e:	e8 9d 69 00 00       	call   90c0 <fibril_mutex_lock@plt>
    2723:	8b 03                	mov    (%ebx),%eax
    2725:	59                   	pop    %ecx
    2726:	89 45 e0             	mov    %eax,-0x20(%ebp)
    2729:	8b 45 0c             	mov    0xc(%ebp),%eax
    272c:	89 45 e4             	mov    %eax,-0x1c(%ebp)
    272f:	58                   	pop    %eax
    2730:	57                   	push   %edi
    2731:	68 e4 ae 00 00       	push   $0xaee4
    2736:	e8 d5 68 00 00       	call   9010 <hash_table_find@plt>
    273b:	83 c4 10             	add    $0x10,%esp
    273e:	85 c0                	test   %eax,%eax
    2740:	0f 84 ba 00 00 00    	je     2800 <mfs_sync+0x110>
    2746:	8b 78 fc             	mov    -0x4(%eax),%edi
    2749:	83 e8 10             	sub    $0x10,%eax
    274c:	83 ec 0c             	sub    $0xc,%esp
    274f:	8b 50 08             	mov    0x8(%eax),%edx
    2752:	42                   	inc    %edx
    2753:	89 50 08             	mov    %edx,0x8(%eax)
    2756:	68 6c ad 00 00       	push   $0xad6c
    275b:	e8 80 67 00 00       	call   8ee0 <fibril_mutex_unlock@plt>
    2760:	83 c4 10             	add    $0x10,%esp
    2763:	85 ff                	test   %edi,%edi
    2765:	0f 84 93 01 00 00    	je     28fe <mfs_sync+0x20e>
    276b:	8b 5f 10             	mov    0x10(%edi),%ebx
    276e:	83 ec 0c             	sub    $0xc,%esp
    2771:	8b 03                	mov    (%ebx),%eax
    2773:	c6 40 40 01          	movb   $0x1,0x40(%eax)
    2777:	68 6c ad 00 00       	push   $0xad6c
    277c:	e8 3f 69 00 00       	call   90c0 <fibril_mutex_lock@plt>
    2781:	8b 43 08             	mov    0x8(%ebx),%eax
    2784:	83 c4 10             	add    $0x10,%esp
    2787:	85 c0                	test   %eax,%eax
    2789:	0f 84 45 01 00 00    	je     28d4 <mfs_sync+0x1e4>
    278f:	48                   	dec    %eax
    2790:	89 43 08             	mov    %eax,0x8(%ebx)
    2793:	85 c0                	test   %eax,%eax
    2795:	75 4c                	jne    27e3 <mfs_sync+0xf3>
    2797:	8d 43 10             	lea    0x10(%ebx),%eax
    279a:	56                   	push   %esi
    279b:	56                   	push   %esi
    279c:	50                   	push   %eax
    279d:	68 e4 ae 00 00       	push   $0xaee4
    27a2:	e8 b9 67 00 00       	call   8f60 <hash_table_remove_item@plt>
    27a7:	8b 53 04             	mov    0x4(%ebx),%edx
    27aa:	83 c4 10             	add    $0x10,%esp
    27ad:	8b 42 08             	mov    0x8(%edx),%eax
    27b0:	85 c0                	test   %eax,%eax
    27b2:	0f 84 31 01 00 00    	je     28e9 <mfs_sync+0x1f9>
    27b8:	83 ec 0c             	sub    $0xc,%esp
    27bb:	48                   	dec    %eax
    27bc:	89 42 08             	mov    %eax,0x8(%edx)
    27bf:	53                   	push   %ebx
    27c0:	e8 5b 16 00 00       	call   3e20 <mfs_put_inode>
    27c5:	8b 13                	mov    (%ebx),%edx
    27c7:	89 c6                	mov    %eax,%esi
    27c9:	58                   	pop    %eax
    27ca:	52                   	push   %edx
    27cb:	e8 e0 68 00 00       	call   90b0 <free@plt>
    27d0:	89 1c 24             	mov    %ebx,(%esp)
    27d3:	e8 d8 68 00 00       	call   90b0 <free@plt>
    27d8:	89 3c 24             	mov    %edi,(%esp)
    27db:	e8 d0 68 00 00       	call   90b0 <free@plt>
    27e0:	83 c4 10             	add    $0x10,%esp
    27e3:	83 ec 0c             	sub    $0xc,%esp
    27e6:	68 6c ad 00 00       	push   $0xad6c
    27eb:	e8 f0 66 00 00       	call   8ee0 <fibril_mutex_unlock@plt>
    27f0:	83 c4 10             	add    $0x10,%esp
    27f3:	8d 65 f4             	lea    -0xc(%ebp),%esp
    27f6:	89 f0                	mov    %esi,%eax
    27f8:	5b                   	pop    %ebx
    27f9:	5e                   	pop    %esi
    27fa:	5f                   	pop    %edi
    27fb:	5d                   	pop    %ebp
    27fc:	c3                   	ret    
    27fd:	8d 76 00             	lea    0x0(%esi),%esi
    2800:	83 ec 0c             	sub    $0xc,%esp
    2803:	6a 14                	push   $0x14
    2805:	e8 e6 65 00 00       	call   8df0 <malloc@plt>
    280a:	83 c4 10             	add    $0x10,%esp
    280d:	89 c7                	mov    %eax,%edi
    280f:	85 c0                	test   %eax,%eax
    2811:	74 71                	je     2884 <mfs_sync+0x194>
    2813:	83 ec 0c             	sub    $0xc,%esp
    2816:	50                   	push   %eax
    2817:	e8 84 5c 00 00       	call   84a0 <fs_node_initialize>
    281c:	c7 04 24 18 00 00 00 	movl   $0x18,(%esp)
    2823:	e8 c8 65 00 00       	call   8df0 <malloc@plt>
    2828:	83 c4 10             	add    $0x10,%esp
    282b:	89 45 d4             	mov    %eax,-0x2c(%ebp)
    282e:	85 c0                	test   %eax,%eax
    2830:	74 46                	je     2878 <mfs_sync+0x188>
    2832:	50                   	push   %eax
    2833:	8b 45 0c             	mov    0xc(%ebp),%eax
    2836:	50                   	push   %eax
    2837:	8d 45 dc             	lea    -0x24(%ebp),%eax
    283a:	50                   	push   %eax
    283b:	53                   	push   %ebx
    283c:	e8 af 12 00 00       	call   3af0 <mfs_get_inode>
    2841:	83 c4 10             	add    $0x10,%esp
    2844:	8b 55 d4             	mov    -0x2c(%ebp),%edx
    2847:	85 c0                	test   %eax,%eax
    2849:	74 43                	je     288e <mfs_sync+0x19e>
    284b:	83 ec 0c             	sub    $0xc,%esp
    284e:	89 45 d4             	mov    %eax,-0x2c(%ebp)
    2851:	89 55 d0             	mov    %edx,-0x30(%ebp)
    2854:	57                   	push   %edi
    2855:	e8 56 68 00 00       	call   90b0 <free@plt>
    285a:	8b 55 d0             	mov    -0x30(%ebp),%edx
    285d:	89 14 24             	mov    %edx,(%esp)
    2860:	e8 4b 68 00 00       	call   90b0 <free@plt>
    2865:	8b 45 d4             	mov    -0x2c(%ebp),%eax
    2868:	83 c4 10             	add    $0x10,%esp
    286b:	89 c6                	mov    %eax,%esi
    286d:	e9 71 ff ff ff       	jmp    27e3 <mfs_sync+0xf3>
    2872:	8d b6 00 00 00 00    	lea    0x0(%esi),%esi
    2878:	83 ec 0c             	sub    $0xc,%esp
    287b:	57                   	push   %edi
    287c:	e8 2f 68 00 00       	call   90b0 <free@plt>
    2881:	83 c4 10             	add    $0x10,%esp
    2884:	be fe ff ff ff       	mov    $0xfffffffe,%esi
    2889:	e9 55 ff ff ff       	jmp    27e3 <mfs_sync+0xf3>
    288e:	8b 45 dc             	mov    -0x24(%ebp),%eax
    2891:	8b 4d 0c             	mov    0xc(%ebp),%ecx
    2894:	89 48 44             	mov    %ecx,0x44(%eax)
    2897:	89 02                	mov    %eax,(%edx)
    2899:	c7 42 08 01 00 00 00 	movl   $0x1,0x8(%edx)
    28a0:	89 5a 04             	mov    %ebx,0x4(%edx)
    28a3:	89 7a 0c             	mov    %edi,0xc(%edx)
    28a6:	89 57 10             	mov    %edx,0x10(%edi)
    28a9:	83 c2 10             	add    $0x10,%edx
    28ac:	50                   	push   %eax
    28ad:	50                   	push   %eax
    28ae:	52                   	push   %edx
    28af:	68 e4 ae 00 00       	push   $0xaee4
    28b4:	e8 97 64 00 00       	call   8d50 <hash_table_insert@plt>
    28b9:	8b 43 08             	mov    0x8(%ebx),%eax
    28bc:	40                   	inc    %eax
    28bd:	89 43 08             	mov    %eax,0x8(%ebx)
    28c0:	c7 04 24 6c ad 00 00 	movl   $0xad6c,(%esp)
    28c7:	e8 14 66 00 00       	call   8ee0 <fibril_mutex_unlock@plt>
    28cc:	83 c4 10             	add    $0x10,%esp
    28cf:	e9 97 fe ff ff       	jmp    276b <mfs_sync+0x7b>
    28d4:	57                   	push   %edi
    28d5:	68 f6 01 00 00       	push   $0x1f6
    28da:	68 c4 87 00 00       	push   $0x87c4
    28df:	68 ce 87 00 00       	push   $0x87ce
    28e4:	e8 c7 65 00 00       	call   8eb0 <assert_abort@plt>
    28e9:	51                   	push   %ecx
    28ea:	68 fa 01 00 00       	push   $0x1fa
    28ef:	68 c4 87 00 00       	push   $0x87c4
    28f4:	68 0c 88 00 00       	push   $0x880c
    28f9:	e8 b2 65 00 00       	call   8eb0 <assert_abort@plt>
    28fe:	83 ce ff             	or     $0xffffffff,%esi
    2901:	e9 ed fe ff ff       	jmp    27f3 <mfs_sync+0x103>
    2906:	8d 76 00             	lea    0x0(%esi),%esi
    2909:	8d bc 27 00 00 00 00 	lea    0x0(%edi,%eiz,1),%edi

00002910 <mfs_destroy>:
    2910:	55                   	push   %ebp
    2911:	89 e5                	mov    %esp,%ebp
    2913:	57                   	push   %edi
    2914:	56                   	push   %esi
    2915:	53                   	push   %ebx
    2916:	83 ec 70             	sub    $0x70,%esp
    2919:	c7 45 98 00 00 00 00 	movl   $0x0,-0x68(%ebp)
    2920:	8b 45 0c             	mov    0xc(%ebp),%eax
    2923:	50                   	push   %eax
    2924:	8b 45 08             	mov    0x8(%ebp),%eax
    2927:	50                   	push   %eax
    2928:	8d 45 98             	lea    -0x68(%ebp),%eax
    292b:	50                   	push   %eax
    292c:	e8 3f f2 ff ff       	call   1b70 <mfs_node_get>
    2931:	83 c4 10             	add    $0x10,%esp
    2934:	89 c6                	mov    %eax,%esi
    2936:	85 c0                	test   %eax,%eax
    2938:	0f 85 d4 00 00 00    	jne    2a12 <mfs_destroy+0x102>
    293e:	8b 45 98             	mov    -0x68(%ebp),%eax
    2941:	89 45 94             	mov    %eax,-0x6c(%ebp)
    2944:	85 c0                	test   %eax,%eax
    2946:	0f 84 49 01 00 00    	je     2a95 <mfs_destroy+0x185>
    294c:	8b 78 10             	mov    0x10(%eax),%edi
    294f:	8b 17                	mov    (%edi),%edx
    2951:	8b 02                	mov    (%edx),%eax
    2953:	25 00 f0 ff ff       	and    $0xfffff000,%eax
    2958:	66 3d 00 40          	cmp    $0x4000,%ax
    295c:	0f 84 be 00 00 00    	je     2a20 <mfs_destroy+0x110>
    2962:	8b 4a 08             	mov    0x8(%edx),%ecx
    2965:	50                   	push   %eax
    2966:	50                   	push   %eax
    2967:	51                   	push   %ecx
    2968:	57                   	push   %edi
    2969:	e8 62 17 00 00       	call   40d0 <mfs_inode_shrink>
    296e:	83 c4 10             	add    $0x10,%esp
    2971:	89 c6                	mov    %eax,%esi
    2973:	85 c0                	test   %eax,%eax
    2975:	75 16                	jne    298d <mfs_destroy+0x7d>
    2977:	50                   	push   %eax
    2978:	50                   	push   %eax
    2979:	8b 07                	mov    (%edi),%eax
    297b:	8b 4f 04             	mov    0x4(%edi),%ecx
    297e:	8b 50 44             	mov    0x44(%eax),%edx
    2981:	52                   	push   %edx
    2982:	51                   	push   %ecx
    2983:	e8 98 2c 00 00       	call   5620 <mfs_free_inode>
    2988:	83 c4 10             	add    $0x10,%esp
    298b:	89 c6                	mov    %eax,%esi
    298d:	8b 45 94             	mov    -0x6c(%ebp),%eax
    2990:	83 ec 0c             	sub    $0xc,%esp
    2993:	8b 58 10             	mov    0x10(%eax),%ebx
    2996:	68 6c ad 00 00       	push   $0xad6c
    299b:	e8 20 67 00 00       	call   90c0 <fibril_mutex_lock@plt>
    29a0:	83 c4 10             	add    $0x10,%esp
    29a3:	8b 43 08             	mov    0x8(%ebx),%eax
    29a6:	85 c0                	test   %eax,%eax
    29a8:	0f 84 04 01 00 00    	je     2ab2 <mfs_destroy+0x1a2>
    29ae:	48                   	dec    %eax
    29af:	89 43 08             	mov    %eax,0x8(%ebx)
    29b2:	85 c0                	test   %eax,%eax
    29b4:	75 4c                	jne    2a02 <mfs_destroy+0xf2>
    29b6:	50                   	push   %eax
    29b7:	50                   	push   %eax
    29b8:	8d 43 10             	lea    0x10(%ebx),%eax
    29bb:	50                   	push   %eax
    29bc:	68 e4 ae 00 00       	push   $0xaee4
    29c1:	e8 9a 65 00 00       	call   8f60 <hash_table_remove_item@plt>
    29c6:	8b 4b 04             	mov    0x4(%ebx),%ecx
    29c9:	8b 41 08             	mov    0x8(%ecx),%eax
    29cc:	83 c4 10             	add    $0x10,%esp
    29cf:	85 c0                	test   %eax,%eax
    29d1:	0f 84 c6 00 00 00    	je     2a9d <mfs_destroy+0x18d>
    29d7:	83 ec 0c             	sub    $0xc,%esp
    29da:	48                   	dec    %eax
    29db:	89 41 08             	mov    %eax,0x8(%ecx)
    29de:	53                   	push   %ebx
    29df:	e8 3c 14 00 00       	call   3e20 <mfs_put_inode>
    29e4:	8b 3b                	mov    (%ebx),%edi
    29e6:	59                   	pop    %ecx
    29e7:	57                   	push   %edi
    29e8:	e8 c3 66 00 00       	call   90b0 <free@plt>
    29ed:	89 1c 24             	mov    %ebx,(%esp)
    29f0:	e8 bb 66 00 00       	call   90b0 <free@plt>
    29f5:	58                   	pop    %eax
    29f6:	8b 45 94             	mov    -0x6c(%ebp),%eax
    29f9:	50                   	push   %eax
    29fa:	e8 b1 66 00 00       	call   90b0 <free@plt>
    29ff:	83 c4 10             	add    $0x10,%esp
    2a02:	83 ec 0c             	sub    $0xc,%esp
    2a05:	68 6c ad 00 00       	push   $0xad6c
    2a0a:	e8 d1 64 00 00       	call   8ee0 <fibril_mutex_unlock@plt>
    2a0f:	83 c4 10             	add    $0x10,%esp
    2a12:	8d 65 f4             	lea    -0xc(%ebp),%esp
    2a15:	89 f0                	mov    %esi,%eax
    2a17:	5b                   	pop    %ebx
    2a18:	5e                   	pop    %esi
    2a19:	5f                   	pop    %edi
    2a1a:	5d                   	pop    %ebp
    2a1b:	c3                   	ret    
    2a1c:	8d 74 26 00          	lea    0x0(%esi,%eiz,1),%esi
    2a20:	8b 47 04             	mov    0x4(%edi),%eax
    2a23:	8b 4a 08             	mov    0x8(%edx),%ecx
    2a26:	31 d2                	xor    %edx,%edx
    2a28:	8b 40 04             	mov    0x4(%eax),%eax
    2a2b:	89 c6                	mov    %eax,%esi
    2a2d:	89 c8                	mov    %ecx,%eax
    2a2f:	f7 76 30             	divl   0x30(%esi)
    2a32:	83 f8 02             	cmp    $0x2,%eax
    2a35:	0f 86 2a ff ff ff    	jbe    2965 <mfs_destroy+0x55>
    2a3b:	bb 02 00 00 00       	mov    $0x2,%ebx
    2a40:	eb 22                	jmp    2a64 <mfs_destroy+0x154>
    2a42:	8d b6 00 00 00 00    	lea    0x0(%esi),%esi
    2a48:	8b 45 9c             	mov    -0x64(%ebp),%eax
    2a4b:	85 c0                	test   %eax,%eax
    2a4d:	75 31                	jne    2a80 <mfs_destroy+0x170>
    2a4f:	8b 07                	mov    (%edi),%eax
    2a51:	31 d2                	xor    %edx,%edx
    2a53:	43                   	inc    %ebx
    2a54:	8b 48 08             	mov    0x8(%eax),%ecx
    2a57:	89 c8                	mov    %ecx,%eax
    2a59:	f7 76 30             	divl   0x30(%esi)
    2a5c:	39 c3                	cmp    %eax,%ebx
    2a5e:	0f 83 01 ff ff ff    	jae    2965 <mfs_destroy+0x55>
    2a64:	50                   	push   %eax
    2a65:	8d 45 9c             	lea    -0x64(%ebp),%eax
    2a68:	53                   	push   %ebx
    2a69:	50                   	push   %eax
    2a6a:	57                   	push   %edi
    2a6b:	e8 10 20 00 00       	call   4a80 <mfs_read_dentry>
    2a70:	83 c4 10             	add    $0x10,%esp
    2a73:	85 c0                	test   %eax,%eax
    2a75:	74 d1                	je     2a48 <mfs_destroy+0x138>
    2a77:	89 c6                	mov    %eax,%esi
    2a79:	e9 0f ff ff ff       	jmp    298d <mfs_destroy+0x7d>
    2a7e:	66 90                	xchg   %ax,%ax
    2a80:	52                   	push   %edx
    2a81:	68 e2 03 00 00       	push   $0x3e2
    2a86:	68 c4 87 00 00       	push   $0x87c4
    2a8b:	68 fd 87 00 00       	push   $0x87fd
    2a90:	e8 1b 64 00 00       	call   8eb0 <assert_abort@plt>
    2a95:	83 ce ff             	or     $0xffffffff,%esi
    2a98:	e9 75 ff ff ff       	jmp    2a12 <mfs_destroy+0x102>
    2a9d:	50                   	push   %eax
    2a9e:	68 fa 01 00 00       	push   $0x1fa
    2aa3:	68 c4 87 00 00       	push   $0x87c4
    2aa8:	68 0c 88 00 00       	push   $0x880c
    2aad:	e8 fe 63 00 00       	call   8eb0 <assert_abort@plt>
    2ab2:	50                   	push   %eax
    2ab3:	68 f6 01 00 00       	push   $0x1f6
    2ab8:	68 c4 87 00 00       	push   $0x87c4
    2abd:	68 ce 87 00 00       	push   $0x87ce
    2ac2:	e8 e9 63 00 00       	call   8eb0 <assert_abort@plt>
    2ac7:	89 f6                	mov    %esi,%esi
    2ac9:	8d bc 27 00 00 00 00 	lea    0x0(%edi,%eiz,1),%edi

00002ad0 <mfs_truncate>:
    2ad0:	55                   	push   %ebp
    2ad1:	89 e5                	mov    %esp,%ebp
    2ad3:	57                   	push   %edi
    2ad4:	56                   	push   %esi
    2ad5:	53                   	push   %ebx
    2ad6:	83 ec 34             	sub    $0x34,%esp
    2ad9:	8d 75 e0             	lea    -0x20(%ebp),%esi
    2adc:	8b 45 10             	mov    0x10(%ebp),%eax
    2adf:	8b 4d 08             	mov    0x8(%ebp),%ecx
    2ae2:	89 45 d4             	mov    %eax,-0x2c(%ebp)
    2ae5:	8b 45 14             	mov    0x14(%ebp),%eax
    2ae8:	56                   	push   %esi
    2ae9:	89 45 d0             	mov    %eax,-0x30(%ebp)
    2aec:	51                   	push   %ecx
    2aed:	e8 ce 5a 00 00       	call   85c0 <fs_instance_get>
    2af2:	83 c4 10             	add    $0x10,%esp
    2af5:	89 c3                	mov    %eax,%ebx
    2af7:	85 c0                	test   %eax,%eax
    2af9:	0f 85 04 01 00 00    	jne    2c03 <mfs_truncate+0x133>
    2aff:	83 ec 0c             	sub    $0xc,%esp
    2b02:	8b 7d e0             	mov    -0x20(%ebp),%edi
    2b05:	68 6c ad 00 00       	push   $0xad6c
    2b0a:	e8 b1 65 00 00       	call   90c0 <fibril_mutex_lock@plt>
    2b0f:	8b 07                	mov    (%edi),%eax
    2b11:	89 45 e0             	mov    %eax,-0x20(%ebp)
    2b14:	8b 45 0c             	mov    0xc(%ebp),%eax
    2b17:	89 45 e4             	mov    %eax,-0x1c(%ebp)
    2b1a:	58                   	pop    %eax
    2b1b:	5a                   	pop    %edx
    2b1c:	56                   	push   %esi
    2b1d:	68 e4 ae 00 00       	push   $0xaee4
    2b22:	e8 e9 64 00 00       	call   9010 <hash_table_find@plt>
    2b27:	83 c4 10             	add    $0x10,%esp
    2b2a:	85 c0                	test   %eax,%eax
    2b2c:	0f 84 de 00 00 00    	je     2c10 <mfs_truncate+0x140>
    2b32:	8b 70 fc             	mov    -0x4(%eax),%esi
    2b35:	83 e8 10             	sub    $0x10,%eax
    2b38:	83 ec 0c             	sub    $0xc,%esp
    2b3b:	8b 48 08             	mov    0x8(%eax),%ecx
    2b3e:	41                   	inc    %ecx
    2b3f:	89 48 08             	mov    %ecx,0x8(%eax)
    2b42:	68 6c ad 00 00       	push   $0xad6c
    2b47:	e8 94 63 00 00       	call   8ee0 <fibril_mutex_unlock@plt>
    2b4c:	83 c4 10             	add    $0x10,%esp
    2b4f:	85 f6                	test   %esi,%esi
    2b51:	0f 84 ac 00 00 00    	je     2c03 <mfs_truncate+0x133>
    2b57:	8b 7e 10             	mov    0x10(%esi),%edi
    2b5a:	8b 4d d4             	mov    -0x2c(%ebp),%ecx
    2b5d:	89 ca                	mov    %ecx,%edx
    2b5f:	8b 07                	mov    (%edi),%eax
    2b61:	8b 40 08             	mov    0x8(%eax),%eax
    2b64:	31 c2                	xor    %eax,%edx
    2b66:	89 45 d4             	mov    %eax,-0x2c(%ebp)
    2b69:	8b 45 d0             	mov    -0x30(%ebp),%eax
    2b6c:	09 d0                	or     %edx,%eax
    2b6e:	74 16                	je     2b86 <mfs_truncate+0xb6>
    2b70:	50                   	push   %eax
    2b71:	50                   	push   %eax
    2b72:	8b 45 d4             	mov    -0x2c(%ebp),%eax
    2b75:	29 c8                	sub    %ecx,%eax
    2b77:	50                   	push   %eax
    2b78:	57                   	push   %edi
    2b79:	e8 52 15 00 00       	call   40d0 <mfs_inode_shrink>
    2b7e:	8b 7e 10             	mov    0x10(%esi),%edi
    2b81:	89 c3                	mov    %eax,%ebx
    2b83:	83 c4 10             	add    $0x10,%esp
    2b86:	83 ec 0c             	sub    $0xc,%esp
    2b89:	68 6c ad 00 00       	push   $0xad6c
    2b8e:	e8 2d 65 00 00       	call   90c0 <fibril_mutex_lock@plt>
    2b93:	8b 47 08             	mov    0x8(%edi),%eax
    2b96:	83 c4 10             	add    $0x10,%esp
    2b99:	85 c0                	test   %eax,%eax
    2b9b:	0f 84 43 01 00 00    	je     2ce4 <mfs_truncate+0x214>
    2ba1:	48                   	dec    %eax
    2ba2:	89 47 08             	mov    %eax,0x8(%edi)
    2ba5:	85 c0                	test   %eax,%eax
    2ba7:	75 4a                	jne    2bf3 <mfs_truncate+0x123>
    2ba9:	50                   	push   %eax
    2baa:	50                   	push   %eax
    2bab:	8d 47 10             	lea    0x10(%edi),%eax
    2bae:	50                   	push   %eax
    2baf:	68 e4 ae 00 00       	push   $0xaee4
    2bb4:	e8 a7 63 00 00       	call   8f60 <hash_table_remove_item@plt>
    2bb9:	8b 57 04             	mov    0x4(%edi),%edx
    2bbc:	8b 42 08             	mov    0x8(%edx),%eax
    2bbf:	83 c4 10             	add    $0x10,%esp
    2bc2:	85 c0                	test   %eax,%eax
    2bc4:	0f 84 2f 01 00 00    	je     2cf9 <mfs_truncate+0x229>
    2bca:	83 ec 0c             	sub    $0xc,%esp
    2bcd:	48                   	dec    %eax
    2bce:	89 42 08             	mov    %eax,0x8(%edx)
    2bd1:	57                   	push   %edi
    2bd2:	e8 49 12 00 00       	call   3e20 <mfs_put_inode>
    2bd7:	8b 17                	mov    (%edi),%edx
    2bd9:	58                   	pop    %eax
    2bda:	52                   	push   %edx
    2bdb:	e8 d0 64 00 00       	call   90b0 <free@plt>
    2be0:	89 3c 24             	mov    %edi,(%esp)
    2be3:	e8 c8 64 00 00       	call   90b0 <free@plt>
    2be8:	89 34 24             	mov    %esi,(%esp)
    2beb:	e8 c0 64 00 00       	call   90b0 <free@plt>
    2bf0:	83 c4 10             	add    $0x10,%esp
    2bf3:	83 ec 0c             	sub    $0xc,%esp
    2bf6:	68 6c ad 00 00       	push   $0xad6c
    2bfb:	e8 e0 62 00 00       	call   8ee0 <fibril_mutex_unlock@plt>
    2c00:	83 c4 10             	add    $0x10,%esp
    2c03:	8d 65 f4             	lea    -0xc(%ebp),%esp
    2c06:	89 d8                	mov    %ebx,%eax
    2c08:	5b                   	pop    %ebx
    2c09:	5e                   	pop    %esi
    2c0a:	5f                   	pop    %edi
    2c0b:	5d                   	pop    %ebp
    2c0c:	c3                   	ret    
    2c0d:	8d 76 00             	lea    0x0(%esi),%esi
    2c10:	83 ec 0c             	sub    $0xc,%esp
    2c13:	6a 14                	push   $0x14
    2c15:	e8 d6 61 00 00       	call   8df0 <malloc@plt>
    2c1a:	83 c4 10             	add    $0x10,%esp
    2c1d:	89 c6                	mov    %eax,%esi
    2c1f:	85 c0                	test   %eax,%eax
    2c21:	74 71                	je     2c94 <mfs_truncate+0x1c4>
    2c23:	83 ec 0c             	sub    $0xc,%esp
    2c26:	50                   	push   %eax
    2c27:	e8 74 58 00 00       	call   84a0 <fs_node_initialize>
    2c2c:	c7 04 24 18 00 00 00 	movl   $0x18,(%esp)
    2c33:	e8 b8 61 00 00       	call   8df0 <malloc@plt>
    2c38:	83 c4 10             	add    $0x10,%esp
    2c3b:	89 45 cc             	mov    %eax,-0x34(%ebp)
    2c3e:	85 c0                	test   %eax,%eax
    2c40:	74 46                	je     2c88 <mfs_truncate+0x1b8>
    2c42:	8b 55 0c             	mov    0xc(%ebp),%edx
    2c45:	50                   	push   %eax
    2c46:	8d 45 dc             	lea    -0x24(%ebp),%eax
    2c49:	52                   	push   %edx
    2c4a:	50                   	push   %eax
    2c4b:	57                   	push   %edi
    2c4c:	e8 9f 0e 00 00       	call   3af0 <mfs_get_inode>
    2c51:	83 c4 10             	add    $0x10,%esp
    2c54:	8b 55 cc             	mov    -0x34(%ebp),%edx
    2c57:	85 c0                	test   %eax,%eax
    2c59:	74 43                	je     2c9e <mfs_truncate+0x1ce>
    2c5b:	83 ec 0c             	sub    $0xc,%esp
    2c5e:	89 45 d4             	mov    %eax,-0x2c(%ebp)
    2c61:	89 55 d0             	mov    %edx,-0x30(%ebp)
    2c64:	56                   	push   %esi
    2c65:	e8 46 64 00 00       	call   90b0 <free@plt>
    2c6a:	8b 55 d0             	mov    -0x30(%ebp),%edx
    2c6d:	89 14 24             	mov    %edx,(%esp)
    2c70:	e8 3b 64 00 00       	call   90b0 <free@plt>
    2c75:	8b 45 d4             	mov    -0x2c(%ebp),%eax
    2c78:	83 c4 10             	add    $0x10,%esp
    2c7b:	89 c3                	mov    %eax,%ebx
    2c7d:	e9 71 ff ff ff       	jmp    2bf3 <mfs_truncate+0x123>
    2c82:	8d b6 00 00 00 00    	lea    0x0(%esi),%esi
    2c88:	83 ec 0c             	sub    $0xc,%esp
    2c8b:	56                   	push   %esi
    2c8c:	e8 1f 64 00 00       	call   90b0 <free@plt>
    2c91:	83 c4 10             	add    $0x10,%esp
    2c94:	bb fe ff ff ff       	mov    $0xfffffffe,%ebx
    2c99:	e9 55 ff ff ff       	jmp    2bf3 <mfs_truncate+0x123>
    2c9e:	8b 45 dc             	mov    -0x24(%ebp),%eax
    2ca1:	8b 4d 0c             	mov    0xc(%ebp),%ecx
    2ca4:	89 48 44             	mov    %ecx,0x44(%eax)
    2ca7:	89 02                	mov    %eax,(%edx)
    2ca9:	c7 42 08 01 00 00 00 	movl   $0x1,0x8(%edx)
    2cb0:	89 7a 04             	mov    %edi,0x4(%edx)
    2cb3:	89 72 0c             	mov    %esi,0xc(%edx)
    2cb6:	89 56 10             	mov    %edx,0x10(%esi)
    2cb9:	83 c2 10             	add    $0x10,%edx
    2cbc:	50                   	push   %eax
    2cbd:	50                   	push   %eax
    2cbe:	52                   	push   %edx
    2cbf:	68 e4 ae 00 00       	push   $0xaee4
    2cc4:	e8 87 60 00 00       	call   8d50 <hash_table_insert@plt>
    2cc9:	8b 47 08             	mov    0x8(%edi),%eax
    2ccc:	40                   	inc    %eax
    2ccd:	89 47 08             	mov    %eax,0x8(%edi)
    2cd0:	c7 04 24 6c ad 00 00 	movl   $0xad6c,(%esp)
    2cd7:	e8 04 62 00 00       	call   8ee0 <fibril_mutex_unlock@plt>
    2cdc:	83 c4 10             	add    $0x10,%esp
    2cdf:	e9 73 fe ff ff       	jmp    2b57 <mfs_truncate+0x87>
    2ce4:	50                   	push   %eax
    2ce5:	68 f6 01 00 00       	push   $0x1f6
    2cea:	68 c4 87 00 00       	push   $0x87c4
    2cef:	68 ce 87 00 00       	push   $0x87ce
    2cf4:	e8 b7 61 00 00       	call   8eb0 <assert_abort@plt>
    2cf9:	51                   	push   %ecx
    2cfa:	68 fa 01 00 00       	push   $0x1fa
    2cff:	68 c4 87 00 00       	push   $0x87c4
    2d04:	68 0c 88 00 00       	push   $0x880c
    2d09:	e8 a2 61 00 00       	call   8eb0 <assert_abort@plt>
    2d0e:	66 90                	xchg   %ax,%ax

00002d10 <mfs_write>:
    2d10:	55                   	push   %ebp
    2d11:	89 e5                	mov    %esp,%ebp
    2d13:	57                   	push   %edi
    2d14:	56                   	push   %esi
    2d15:	53                   	push   %ebx
    2d16:	83 ec 74             	sub    $0x74,%esp
    2d19:	8d 5d e0             	lea    -0x20(%ebp),%ebx
    2d1c:	8b 45 10             	mov    0x10(%ebp),%eax
    2d1f:	8b 55 14             	mov    0x14(%ebp),%edx
    2d22:	8b 7d 08             	mov    0x8(%ebp),%edi
    2d25:	53                   	push   %ebx
    2d26:	89 45 c0             	mov    %eax,-0x40(%ebp)
    2d29:	57                   	push   %edi
    2d2a:	89 55 c4             	mov    %edx,-0x3c(%ebp)
    2d2d:	e8 8e 58 00 00       	call   85c0 <fs_instance_get>
    2d32:	83 c4 10             	add    $0x10,%esp
    2d35:	89 c6                	mov    %eax,%esi
    2d37:	85 c0                	test   %eax,%eax
    2d39:	0f 85 d5 01 00 00    	jne    2f14 <mfs_write+0x204>
    2d3f:	83 ec 0c             	sub    $0xc,%esp
    2d42:	8b 7d e0             	mov    -0x20(%ebp),%edi
    2d45:	89 7d bc             	mov    %edi,-0x44(%ebp)
    2d48:	68 6c ad 00 00       	push   $0xad6c
    2d4d:	e8 6e 63 00 00       	call   90c0 <fibril_mutex_lock@plt>
    2d52:	8b 07                	mov    (%edi),%eax
    2d54:	59                   	pop    %ecx
    2d55:	89 45 e0             	mov    %eax,-0x20(%ebp)
    2d58:	8b 45 0c             	mov    0xc(%ebp),%eax
    2d5b:	5e                   	pop    %esi
    2d5c:	89 45 e4             	mov    %eax,-0x1c(%ebp)
    2d5f:	53                   	push   %ebx
    2d60:	68 e4 ae 00 00       	push   $0xaee4
    2d65:	e8 a6 62 00 00       	call   9010 <hash_table_find@plt>
    2d6a:	83 c4 10             	add    $0x10,%esp
    2d6d:	85 c0                	test   %eax,%eax
    2d6f:	0f 84 bb 01 00 00    	je     2f30 <mfs_write+0x220>
    2d75:	8b 78 fc             	mov    -0x4(%eax),%edi
    2d78:	83 e8 10             	sub    $0x10,%eax
    2d7b:	83 ec 0c             	sub    $0xc,%esp
    2d7e:	8b 50 08             	mov    0x8(%eax),%edx
    2d81:	42                   	inc    %edx
    2d82:	89 50 08             	mov    %edx,0x8(%eax)
    2d85:	68 6c ad 00 00       	push   $0xad6c
    2d8a:	e8 51 61 00 00       	call   8ee0 <fibril_mutex_unlock@plt>
    2d8f:	83 c4 10             	add    $0x10,%esp
    2d92:	85 ff                	test   %edi,%edi
    2d94:	0f 84 7e 04 00 00    	je     3218 <mfs_write+0x508>
    2d9a:	8d 45 d8             	lea    -0x28(%ebp),%eax
    2d9d:	51                   	push   %ecx
    2d9e:	51                   	push   %ecx
    2d9f:	50                   	push   %eax
    2da0:	8d 45 d4             	lea    -0x2c(%ebp),%eax
    2da3:	50                   	push   %eax
    2da4:	e8 f7 62 00 00       	call   90a0 <async_data_write_receive@plt>
    2da9:	83 c4 10             	add    $0x10,%esp
    2dac:	84 c0                	test   %al,%al
    2dae:	0f 84 6c 01 00 00    	je     2f20 <mfs_write+0x210>
    2db4:	8b 4f 10             	mov    0x10(%edi),%ecx
    2db7:	8b 55 c0             	mov    -0x40(%ebp),%edx
    2dba:	89 4d b8             	mov    %ecx,-0x48(%ebp)
    2dbd:	8b 41 04             	mov    0x4(%ecx),%eax
    2dc0:	8b 31                	mov    (%ecx),%esi
    2dc2:	89 75 a4             	mov    %esi,-0x5c(%ebp)
    2dc5:	8b 75 d8             	mov    -0x28(%ebp),%esi
    2dc8:	8b 40 04             	mov    0x4(%eax),%eax
    2dcb:	89 75 b0             	mov    %esi,-0x50(%ebp)
    2dce:	89 45 94             	mov    %eax,-0x6c(%ebp)
    2dd1:	8b 40 18             	mov    0x18(%eax),%eax
    2dd4:	89 45 bc             	mov    %eax,-0x44(%ebp)
    2dd7:	8b 45 c0             	mov    -0x40(%ebp),%eax
    2dda:	89 45 a0             	mov    %eax,-0x60(%ebp)
    2ddd:	50                   	push   %eax
    2dde:	52                   	push   %edx
    2ddf:	8d 55 dc             	lea    -0x24(%ebp),%edx
    2de2:	51                   	push   %ecx
    2de3:	52                   	push   %edx
    2de4:	e8 c7 15 00 00       	call   43b0 <mfs_read_map>
    2de9:	83 c4 10             	add    $0x10,%esp
    2dec:	89 c6                	mov    %eax,%esi
    2dee:	85 c0                	test   %eax,%eax
    2df0:	0f 85 92 00 00 00    	jne    2e88 <mfs_write+0x178>
    2df6:	8b 4d bc             	mov    -0x44(%ebp),%ecx
    2df9:	8b 45 c4             	mov    -0x3c(%ebp),%eax
    2dfc:	89 ca                	mov    %ecx,%edx
    2dfe:	31 c9                	xor    %ecx,%ecx
    2e00:	51                   	push   %ecx
    2e01:	52                   	push   %edx
    2e02:	50                   	push   %eax
    2e03:	8b 45 c0             	mov    -0x40(%ebp),%eax
    2e06:	89 4d ac             	mov    %ecx,-0x54(%ebp)
    2e09:	50                   	push   %eax
    2e0a:	89 55 a8             	mov    %edx,-0x58(%ebp)
    2e0d:	e8 3e 60 00 00       	call   8e50 <__umoddi3@plt>
    2e12:	89 45 98             	mov    %eax,-0x68(%ebp)
    2e15:	89 55 9c             	mov    %edx,-0x64(%ebp)
    2e18:	8b 55 a8             	mov    -0x58(%ebp),%edx
    2e1b:	83 c4 10             	add    $0x10,%esp
    2e1e:	2b 55 98             	sub    -0x68(%ebp),%edx
    2e21:	8b 4d ac             	mov    -0x54(%ebp),%ecx
    2e24:	1b 4d 9c             	sbb    -0x64(%ebp),%ecx
    2e27:	8b 75 b0             	mov    -0x50(%ebp),%esi
    2e2a:	89 d0                	mov    %edx,%eax
    2e2c:	89 4d b4             	mov    %ecx,-0x4c(%ebp)
    2e2f:	83 f9 00             	cmp    $0x0,%ecx
    2e32:	89 75 88             	mov    %esi,-0x78(%ebp)
    2e35:	c7 45 8c 00 00 00 00 	movl   $0x0,-0x74(%ebp)
    2e3c:	89 45 b0             	mov    %eax,-0x50(%ebp)
    2e3f:	8b 4d b8             	mov    -0x48(%ebp),%ecx
    2e42:	0f 86 78 01 00 00    	jbe    2fc0 <mfs_write+0x2b0>
    2e48:	8b 45 88             	mov    -0x78(%ebp),%eax
    2e4b:	8b 55 8c             	mov    -0x74(%ebp),%edx
    2e4e:	89 45 b0             	mov    %eax,-0x50(%ebp)
    2e51:	89 55 b4             	mov    %edx,-0x4c(%ebp)
    2e54:	8b 45 b0             	mov    -0x50(%ebp),%eax
    2e57:	89 45 b8             	mov    %eax,-0x48(%ebp)
    2e5a:	8b 45 dc             	mov    -0x24(%ebp),%eax
    2e5d:	85 c0                	test   %eax,%eax
    2e5f:	0f 85 6b 01 00 00    	jne    2fd0 <mfs_write+0x2c0>
    2e65:	50                   	push   %eax
    2e66:	50                   	push   %eax
    2e67:	8d 45 dc             	lea    -0x24(%ebp),%eax
    2e6a:	89 4d bc             	mov    %ecx,-0x44(%ebp)
    2e6d:	50                   	push   %eax
    2e6e:	8b 41 04             	mov    0x4(%ecx),%eax
    2e71:	50                   	push   %eax
    2e72:	e8 89 28 00 00       	call   5700 <mfs_alloc_zone>
    2e77:	83 c4 10             	add    $0x10,%esp
    2e7a:	89 c6                	mov    %eax,%esi
    2e7c:	85 c0                	test   %eax,%eax
    2e7e:	8b 4d bc             	mov    -0x44(%ebp),%ecx
    2e81:	0f 84 89 02 00 00    	je     3110 <mfs_write+0x400>
    2e87:	90                   	nop
    2e88:	83 ec 0c             	sub    $0xc,%esp
    2e8b:	8b 5f 10             	mov    0x10(%edi),%ebx
    2e8e:	68 6c ad 00 00       	push   $0xad6c
    2e93:	e8 28 62 00 00       	call   90c0 <fibril_mutex_lock@plt>
    2e98:	8b 43 08             	mov    0x8(%ebx),%eax
    2e9b:	83 c4 10             	add    $0x10,%esp
    2e9e:	85 c0                	test   %eax,%eax
    2ea0:	0f 84 da 03 00 00    	je     3280 <mfs_write+0x570>
    2ea6:	48                   	dec    %eax
    2ea7:	89 43 08             	mov    %eax,0x8(%ebx)
    2eaa:	85 c0                	test   %eax,%eax
    2eac:	75 4a                	jne    2ef8 <mfs_write+0x1e8>
    2eae:	50                   	push   %eax
    2eaf:	50                   	push   %eax
    2eb0:	8d 43 10             	lea    0x10(%ebx),%eax
    2eb3:	50                   	push   %eax
    2eb4:	68 e4 ae 00 00       	push   $0xaee4
    2eb9:	e8 a2 60 00 00       	call   8f60 <hash_table_remove_item@plt>
    2ebe:	8b 53 04             	mov    0x4(%ebx),%edx
    2ec1:	8b 42 08             	mov    0x8(%edx),%eax
    2ec4:	83 c4 10             	add    $0x10,%esp
    2ec7:	85 c0                	test   %eax,%eax
    2ec9:	0f 84 c6 03 00 00    	je     3295 <mfs_write+0x585>
    2ecf:	83 ec 0c             	sub    $0xc,%esp
    2ed2:	48                   	dec    %eax
    2ed3:	89 42 08             	mov    %eax,0x8(%edx)
    2ed6:	53                   	push   %ebx
    2ed7:	e8 44 0f 00 00       	call   3e20 <mfs_put_inode>
    2edc:	58                   	pop    %eax
    2edd:	8b 03                	mov    (%ebx),%eax
    2edf:	50                   	push   %eax
    2ee0:	e8 cb 61 00 00       	call   90b0 <free@plt>
    2ee5:	89 1c 24             	mov    %ebx,(%esp)
    2ee8:	e8 c3 61 00 00       	call   90b0 <free@plt>
    2eed:	89 3c 24             	mov    %edi,(%esp)
    2ef0:	e8 bb 61 00 00       	call   90b0 <free@plt>
    2ef5:	83 c4 10             	add    $0x10,%esp
    2ef8:	83 ec 0c             	sub    $0xc,%esp
    2efb:	68 6c ad 00 00       	push   $0xad6c
    2f00:	e8 db 5f 00 00       	call   8ee0 <fibril_mutex_unlock@plt>
    2f05:	8b 4d d4             	mov    -0x2c(%ebp),%ecx
    2f08:	58                   	pop    %eax
    2f09:	5a                   	pop    %edx
    2f0a:	56                   	push   %esi
    2f0b:	51                   	push   %ecx
    2f0c:	e8 0f 5f 00 00       	call   8e20 <async_answer_0@plt>
    2f11:	83 c4 10             	add    $0x10,%esp
    2f14:	8d 65 f4             	lea    -0xc(%ebp),%esp
    2f17:	89 f0                	mov    %esi,%eax
    2f19:	5b                   	pop    %ebx
    2f1a:	5e                   	pop    %esi
    2f1b:	5f                   	pop    %edi
    2f1c:	5d                   	pop    %ebp
    2f1d:	c3                   	ret    
    2f1e:	66 90                	xchg   %ax,%ax
    2f20:	be f2 ff ff ff       	mov    $0xfffffff2,%esi
    2f25:	e9 5e ff ff ff       	jmp    2e88 <mfs_write+0x178>
    2f2a:	8d b6 00 00 00 00    	lea    0x0(%esi),%esi
    2f30:	83 ec 0c             	sub    $0xc,%esp
    2f33:	6a 14                	push   $0x14
    2f35:	e8 b6 5e 00 00       	call   8df0 <malloc@plt>
    2f3a:	83 c4 10             	add    $0x10,%esp
    2f3d:	89 c7                	mov    %eax,%edi
    2f3f:	85 c0                	test   %eax,%eax
    2f41:	0f 84 45 02 00 00    	je     318c <mfs_write+0x47c>
    2f47:	83 ec 0c             	sub    $0xc,%esp
    2f4a:	50                   	push   %eax
    2f4b:	e8 50 55 00 00       	call   84a0 <fs_node_initialize>
    2f50:	c7 04 24 18 00 00 00 	movl   $0x18,(%esp)
    2f57:	e8 94 5e 00 00       	call   8df0 <malloc@plt>
    2f5c:	83 c4 10             	add    $0x10,%esp
    2f5f:	89 45 b0             	mov    %eax,-0x50(%ebp)
    2f62:	85 c0                	test   %eax,%eax
    2f64:	0f 84 16 02 00 00    	je     3180 <mfs_write+0x470>
    2f6a:	8b 75 0c             	mov    0xc(%ebp),%esi
    2f6d:	8d 45 dc             	lea    -0x24(%ebp),%eax
    2f70:	51                   	push   %ecx
    2f71:	56                   	push   %esi
    2f72:	50                   	push   %eax
    2f73:	8b 45 bc             	mov    -0x44(%ebp),%eax
    2f76:	50                   	push   %eax
    2f77:	e8 74 0b 00 00       	call   3af0 <mfs_get_inode>
    2f7c:	83 c4 10             	add    $0x10,%esp
    2f7f:	89 c6                	mov    %eax,%esi
    2f81:	85 c0                	test   %eax,%eax
    2f83:	8b 55 b0             	mov    -0x50(%ebp),%edx
    2f86:	0f 84 ab 02 00 00    	je     3237 <mfs_write+0x527>
    2f8c:	83 ec 0c             	sub    $0xc,%esp
    2f8f:	89 55 c0             	mov    %edx,-0x40(%ebp)
    2f92:	57                   	push   %edi
    2f93:	e8 18 61 00 00       	call   90b0 <free@plt>
    2f98:	8b 55 c0             	mov    -0x40(%ebp),%edx
    2f9b:	89 14 24             	mov    %edx,(%esp)
    2f9e:	e8 0d 61 00 00       	call   90b0 <free@plt>
    2fa3:	83 c4 10             	add    $0x10,%esp
    2fa6:	83 ec 0c             	sub    $0xc,%esp
    2fa9:	68 6c ad 00 00       	push   $0xad6c
    2fae:	e8 2d 5f 00 00       	call   8ee0 <fibril_mutex_unlock@plt>
    2fb3:	83 c4 10             	add    $0x10,%esp
    2fb6:	e9 59 ff ff ff       	jmp    2f14 <mfs_write+0x204>
    2fbb:	90                   	nop
    2fbc:	8d 74 26 00          	lea    0x0(%esi,%eiz,1),%esi
    2fc0:	39 f0                	cmp    %esi,%eax
    2fc2:	0f 86 8c fe ff ff    	jbe    2e54 <mfs_write+0x144>
    2fc8:	e9 7b fe ff ff       	jmp    2e48 <mfs_write+0x138>
    2fcd:	8d 76 00             	lea    0x0(%esi),%esi
    2fd0:	8b 55 b8             	mov    -0x48(%ebp),%edx
    2fd3:	83 ec 0c             	sub    $0xc,%esp
    2fd6:	39 55 bc             	cmp    %edx,-0x44(%ebp)
    2fd9:	8b 75 08             	mov    0x8(%ebp),%esi
    2fdc:	0f 94 c2             	sete   %dl
    2fdf:	81 e2 ff 00 00 00    	and    $0xff,%edx
    2fe5:	52                   	push   %edx
    2fe6:	31 d2                	xor    %edx,%edx
    2fe8:	52                   	push   %edx
    2fe9:	50                   	push   %eax
    2fea:	56                   	push   %esi
    2feb:	53                   	push   %ebx
    2fec:	e8 ef 33 00 00       	call   63e0 <block_get>
    2ff1:	83 c4 20             	add    $0x20,%esp
    2ff4:	89 c6                	mov    %eax,%esi
    2ff6:	85 c0                	test   %eax,%eax
    2ff8:	0f 85 8a fe ff ff    	jne    2e88 <mfs_write+0x178>
    2ffe:	8b 55 b8             	mov    -0x48(%ebp),%edx
    3001:	39 55 bc             	cmp    %edx,-0x44(%ebp)
    3004:	0f 84 48 01 00 00    	je     3152 <mfs_write+0x442>
    300a:	50                   	push   %eax
    300b:	8b 45 b8             	mov    -0x48(%ebp),%eax
    300e:	50                   	push   %eax
    300f:	8b 45 e0             	mov    -0x20(%ebp),%eax
    3012:	8b 4d 98             	mov    -0x68(%ebp),%ecx
    3015:	8b 50 58             	mov    0x58(%eax),%edx
    3018:	01 d1                	add    %edx,%ecx
    301a:	51                   	push   %ecx
    301b:	8b 4d d4             	mov    -0x2c(%ebp),%ecx
    301e:	51                   	push   %ecx
    301f:	e8 fc 5f 00 00       	call   9020 <async_data_write_finalize@plt>
    3024:	8b 45 e0             	mov    -0x20(%ebp),%eax
    3027:	c6 40 14 01          	movb   $0x1,0x14(%eax)
    302b:	89 04 24             	mov    %eax,(%esp)
    302e:	e8 ad 30 00 00       	call   60e0 <block_put>
    3033:	83 c4 10             	add    $0x10,%esp
    3036:	89 c6                	mov    %eax,%esi
    3038:	85 c0                	test   %eax,%eax
    303a:	0f 85 58 01 00 00    	jne    3198 <mfs_write+0x488>
    3040:	8b 4d c0             	mov    -0x40(%ebp),%ecx
    3043:	8b 5d c4             	mov    -0x3c(%ebp),%ebx
    3046:	03 4d b0             	add    -0x50(%ebp),%ecx
    3049:	8b 45 a4             	mov    -0x5c(%ebp),%eax
    304c:	13 5d b4             	adc    -0x4c(%ebp),%ebx
    304f:	8b 40 08             	mov    0x8(%eax),%eax
    3052:	83 fb 00             	cmp    $0x0,%ebx
    3055:	0f 86 15 01 00 00    	jbe    3170 <mfs_write+0x460>
    305b:	8b 4d a4             	mov    -0x5c(%ebp),%ecx
    305e:	8b 45 a0             	mov    -0x60(%ebp),%eax
    3061:	8b 55 b8             	mov    -0x48(%ebp),%edx
    3064:	01 d0                	add    %edx,%eax
    3066:	c6 41 40 01          	movb   $0x1,0x40(%ecx)
    306a:	89 41 08             	mov    %eax,0x8(%ecx)
    306d:	83 ec 0c             	sub    $0xc,%esp
    3070:	8b 5f 10             	mov    0x10(%edi),%ebx
    3073:	68 6c ad 00 00       	push   $0xad6c
    3078:	e8 43 60 00 00       	call   90c0 <fibril_mutex_lock@plt>
    307d:	8b 43 08             	mov    0x8(%ebx),%eax
    3080:	83 c4 10             	add    $0x10,%esp
    3083:	85 c0                	test   %eax,%eax
    3085:	0f 84 f5 01 00 00    	je     3280 <mfs_write+0x570>
    308b:	48                   	dec    %eax
    308c:	89 43 08             	mov    %eax,0x8(%ebx)
    308f:	85 c0                	test   %eax,%eax
    3091:	75 4c                	jne    30df <mfs_write+0x3cf>
    3093:	50                   	push   %eax
    3094:	50                   	push   %eax
    3095:	8d 43 10             	lea    0x10(%ebx),%eax
    3098:	50                   	push   %eax
    3099:	68 e4 ae 00 00       	push   $0xaee4
    309e:	e8 bd 5e 00 00       	call   8f60 <hash_table_remove_item@plt>
    30a3:	8b 53 04             	mov    0x4(%ebx),%edx
    30a6:	8b 42 08             	mov    0x8(%edx),%eax
    30a9:	83 c4 10             	add    $0x10,%esp
    30ac:	85 c0                	test   %eax,%eax
    30ae:	0f 84 e1 01 00 00    	je     3295 <mfs_write+0x585>
    30b4:	83 ec 0c             	sub    $0xc,%esp
    30b7:	48                   	dec    %eax
    30b8:	89 42 08             	mov    %eax,0x8(%edx)
    30bb:	53                   	push   %ebx
    30bc:	e8 5f 0d 00 00       	call   3e20 <mfs_put_inode>
    30c1:	89 c6                	mov    %eax,%esi
    30c3:	58                   	pop    %eax
    30c4:	8b 03                	mov    (%ebx),%eax
    30c6:	50                   	push   %eax
    30c7:	e8 e4 5f 00 00       	call   90b0 <free@plt>
    30cc:	89 1c 24             	mov    %ebx,(%esp)
    30cf:	e8 dc 5f 00 00       	call   90b0 <free@plt>
    30d4:	89 3c 24             	mov    %edi,(%esp)
    30d7:	e8 d4 5f 00 00       	call   90b0 <free@plt>
    30dc:	83 c4 10             	add    $0x10,%esp
    30df:	83 ec 0c             	sub    $0xc,%esp
    30e2:	68 6c ad 00 00       	push   $0xad6c
    30e7:	e8 f4 5d 00 00       	call   8ee0 <fibril_mutex_unlock@plt>
    30ec:	8b 4d a4             	mov    -0x5c(%ebp),%ecx
    30ef:	8b 45 1c             	mov    0x1c(%ebp),%eax
    30f2:	83 c4 10             	add    $0x10,%esp
    30f5:	8b 49 08             	mov    0x8(%ecx),%ecx
    30f8:	c7 40 04 00 00 00 00 	movl   $0x0,0x4(%eax)
    30ff:	89 08                	mov    %ecx,(%eax)
    3101:	8b 45 18             	mov    0x18(%ebp),%eax
    3104:	8b 4d b8             	mov    -0x48(%ebp),%ecx
    3107:	89 08                	mov    %ecx,(%eax)
    3109:	e9 06 fe ff ff       	jmp    2f14 <mfs_write+0x204>
    310e:	66 90                	xchg   %ax,%ax
    3110:	8b 75 dc             	mov    -0x24(%ebp),%esi
    3113:	8b 45 a0             	mov    -0x60(%ebp),%eax
    3116:	53                   	push   %ebx
    3117:	56                   	push   %esi
    3118:	50                   	push   %eax
    3119:	51                   	push   %ecx
    311a:	e8 21 14 00 00       	call   4540 <mfs_write_map>
    311f:	83 c4 10             	add    $0x10,%esp
    3122:	89 c6                	mov    %eax,%esi
    3124:	85 c0                	test   %eax,%eax
    3126:	8b 4d bc             	mov    -0x44(%ebp),%ecx
    3129:	0f 85 f1 00 00 00    	jne    3220 <mfs_write+0x510>
    312f:	83 ec 0c             	sub    $0xc,%esp
    3132:	8b 45 dc             	mov    -0x24(%ebp),%eax
    3135:	31 d2                	xor    %edx,%edx
    3137:	6a 01                	push   $0x1
    3139:	52                   	push   %edx
    313a:	50                   	push   %eax
    313b:	8b 45 08             	mov    0x8(%ebp),%eax
    313e:	50                   	push   %eax
    313f:	53                   	push   %ebx
    3140:	e8 9b 32 00 00       	call   63e0 <block_get>
    3145:	83 c4 20             	add    $0x20,%esp
    3148:	89 c6                	mov    %eax,%esi
    314a:	85 c0                	test   %eax,%eax
    314c:	0f 85 36 fd ff ff    	jne    2e88 <mfs_write+0x178>
    3152:	50                   	push   %eax
    3153:	8b 45 94             	mov    -0x6c(%ebp),%eax
    3156:	8b 40 18             	mov    0x18(%eax),%eax
    3159:	50                   	push   %eax
    315a:	8b 45 e0             	mov    -0x20(%ebp),%eax
    315d:	6a 00                	push   $0x0
    315f:	8b 40 58             	mov    0x58(%eax),%eax
    3162:	50                   	push   %eax
    3163:	e8 08 5e 00 00       	call   8f70 <memset@plt>
    3168:	83 c4 10             	add    $0x10,%esp
    316b:	e9 9a fe ff ff       	jmp    300a <mfs_write+0x2fa>
    3170:	39 c1                	cmp    %eax,%ecx
    3172:	0f 86 f5 fe ff ff    	jbe    306d <mfs_write+0x35d>
    3178:	e9 de fe ff ff       	jmp    305b <mfs_write+0x34b>
    317d:	8d 76 00             	lea    0x0(%esi),%esi
    3180:	83 ec 0c             	sub    $0xc,%esp
    3183:	57                   	push   %edi
    3184:	e8 27 5f 00 00       	call   90b0 <free@plt>
    3189:	83 c4 10             	add    $0x10,%esp
    318c:	be fe ff ff ff       	mov    $0xfffffffe,%esi
    3191:	e9 10 fe ff ff       	jmp    2fa6 <mfs_write+0x296>
    3196:	66 90                	xchg   %ax,%ax
    3198:	83 ec 0c             	sub    $0xc,%esp
    319b:	8b 5f 10             	mov    0x10(%edi),%ebx
    319e:	68 6c ad 00 00       	push   $0xad6c
    31a3:	e8 18 5f 00 00       	call   90c0 <fibril_mutex_lock@plt>
    31a8:	8b 43 08             	mov    0x8(%ebx),%eax
    31ab:	83 c4 10             	add    $0x10,%esp
    31ae:	85 c0                	test   %eax,%eax
    31b0:	0f 84 ca 00 00 00    	je     3280 <mfs_write+0x570>
    31b6:	48                   	dec    %eax
    31b7:	89 43 08             	mov    %eax,0x8(%ebx)
    31ba:	85 c0                	test   %eax,%eax
    31bc:	0f 85 e4 fd ff ff    	jne    2fa6 <mfs_write+0x296>
    31c2:	50                   	push   %eax
    31c3:	50                   	push   %eax
    31c4:	8d 43 10             	lea    0x10(%ebx),%eax
    31c7:	50                   	push   %eax
    31c8:	68 e4 ae 00 00       	push   $0xaee4
    31cd:	e8 8e 5d 00 00       	call   8f60 <hash_table_remove_item@plt>
    31d2:	8b 53 04             	mov    0x4(%ebx),%edx
    31d5:	8b 42 08             	mov    0x8(%edx),%eax
    31d8:	83 c4 10             	add    $0x10,%esp
    31db:	85 c0                	test   %eax,%eax
    31dd:	0f 84 b2 00 00 00    	je     3295 <mfs_write+0x585>
    31e3:	83 ec 0c             	sub    $0xc,%esp
    31e6:	48                   	dec    %eax
    31e7:	89 42 08             	mov    %eax,0x8(%edx)
    31ea:	53                   	push   %ebx
    31eb:	e8 30 0c 00 00       	call   3e20 <mfs_put_inode>
    31f0:	8b 03                	mov    (%ebx),%eax
    31f2:	59                   	pop    %ecx
    31f3:	50                   	push   %eax
    31f4:	e8 b7 5e 00 00       	call   90b0 <free@plt>
    31f9:	89 1c 24             	mov    %ebx,(%esp)
    31fc:	e8 af 5e 00 00       	call   90b0 <free@plt>
    3201:	89 3c 24             	mov    %edi,(%esp)
    3204:	e8 a7 5e 00 00       	call   90b0 <free@plt>
    3209:	83 c4 10             	add    $0x10,%esp
    320c:	e9 95 fd ff ff       	jmp    2fa6 <mfs_write+0x296>
    3211:	8d b4 26 00 00 00 00 	lea    0x0(%esi,%eiz,1),%esi
    3218:	83 ce ff             	or     $0xffffffff,%esi
    321b:	e9 f4 fc ff ff       	jmp    2f14 <mfs_write+0x204>
    3220:	50                   	push   %eax
    3221:	50                   	push   %eax
    3222:	8b 51 04             	mov    0x4(%ecx),%edx
    3225:	8b 45 dc             	mov    -0x24(%ebp),%eax
    3228:	50                   	push   %eax
    3229:	52                   	push   %edx
    322a:	e8 21 25 00 00       	call   5750 <mfs_free_zone>
    322f:	83 c4 10             	add    $0x10,%esp
    3232:	e9 51 fc ff ff       	jmp    2e88 <mfs_write+0x178>
    3237:	8b 45 dc             	mov    -0x24(%ebp),%eax
    323a:	8b 75 bc             	mov    -0x44(%ebp),%esi
    323d:	8b 4d 0c             	mov    0xc(%ebp),%ecx
    3240:	89 48 44             	mov    %ecx,0x44(%eax)
    3243:	89 02                	mov    %eax,(%edx)
    3245:	c7 42 08 01 00 00 00 	movl   $0x1,0x8(%edx)
    324c:	89 72 04             	mov    %esi,0x4(%edx)
    324f:	89 57 10             	mov    %edx,0x10(%edi)
    3252:	89 7a 0c             	mov    %edi,0xc(%edx)
    3255:	50                   	push   %eax
    3256:	50                   	push   %eax
    3257:	8d 42 10             	lea    0x10(%edx),%eax
    325a:	50                   	push   %eax
    325b:	68 e4 ae 00 00       	push   $0xaee4
    3260:	e8 eb 5a 00 00       	call   8d50 <hash_table_insert@plt>
    3265:	8b 56 08             	mov    0x8(%esi),%edx
    3268:	42                   	inc    %edx
    3269:	89 56 08             	mov    %edx,0x8(%esi)
    326c:	c7 04 24 6c ad 00 00 	movl   $0xad6c,(%esp)
    3273:	e8 68 5c 00 00       	call   8ee0 <fibril_mutex_unlock@plt>
    3278:	83 c4 10             	add    $0x10,%esp
    327b:	e9 1a fb ff ff       	jmp    2d9a <mfs_write+0x8a>
    3280:	50                   	push   %eax
    3281:	68 f6 01 00 00       	push   $0x1f6
    3286:	68 c4 87 00 00       	push   $0x87c4
    328b:	68 ce 87 00 00       	push   $0x87ce
    3290:	e8 1b 5c 00 00       	call   8eb0 <assert_abort@plt>
    3295:	50                   	push   %eax
    3296:	68 fa 01 00 00       	push   $0x1fa
    329b:	68 c4 87 00 00       	push   $0x87c4
    32a0:	68 0c 88 00 00       	push   $0x880c
    32a5:	e8 06 5c 00 00       	call   8eb0 <assert_abort@plt>
    32aa:	8d b6 00 00 00 00    	lea    0x0(%esi),%esi

000032b0 <mfs_read>:
    32b0:	55                   	push   %ebp
    32b1:	89 e5                	mov    %esp,%ebp
    32b3:	57                   	push   %edi
    32b4:	56                   	push   %esi
    32b5:	53                   	push   %ebx
    32b6:	81 ec 94 00 00 00    	sub    $0x94,%esp
    32bc:	8d 7d 9c             	lea    -0x64(%ebp),%edi
    32bf:	8b 45 10             	mov    0x10(%ebp),%eax
    32c2:	8b 55 14             	mov    0x14(%ebp),%edx
    32c5:	89 85 70 ff ff ff    	mov    %eax,-0x90(%ebp)
    32cb:	8b 45 08             	mov    0x8(%ebp),%eax
    32ce:	57                   	push   %edi
    32cf:	89 95 74 ff ff ff    	mov    %edx,-0x8c(%ebp)
    32d5:	50                   	push   %eax
    32d6:	e8 e5 52 00 00       	call   85c0 <fs_instance_get>
    32db:	83 c4 10             	add    $0x10,%esp
    32de:	89 85 7c ff ff ff    	mov    %eax,-0x84(%ebp)
    32e4:	85 c0                	test   %eax,%eax
    32e6:	0f 85 5e 01 00 00    	jne    344a <mfs_read+0x19a>
    32ec:	83 ec 0c             	sub    $0xc,%esp
    32ef:	8b 5d 9c             	mov    -0x64(%ebp),%ebx
    32f2:	68 6c ad 00 00       	push   $0xad6c
    32f7:	e8 c4 5d 00 00       	call   90c0 <fibril_mutex_lock@plt>
    32fc:	8b 03                	mov    (%ebx),%eax
    32fe:	59                   	pop    %ecx
    32ff:	89 45 9c             	mov    %eax,-0x64(%ebp)
    3302:	8b 45 0c             	mov    0xc(%ebp),%eax
    3305:	5e                   	pop    %esi
    3306:	89 45 a0             	mov    %eax,-0x60(%ebp)
    3309:	57                   	push   %edi
    330a:	68 e4 ae 00 00       	push   $0xaee4
    330f:	e8 fc 5c 00 00       	call   9010 <hash_table_find@plt>
    3314:	83 c4 10             	add    $0x10,%esp
    3317:	85 c0                	test   %eax,%eax
    3319:	0f 84 11 03 00 00    	je     3630 <mfs_read+0x380>
    331f:	8b 58 fc             	mov    -0x4(%eax),%ebx
    3322:	83 e8 10             	sub    $0x10,%eax
    3325:	83 ec 0c             	sub    $0xc,%esp
    3328:	8b 50 08             	mov    0x8(%eax),%edx
    332b:	42                   	inc    %edx
    332c:	89 9d 78 ff ff ff    	mov    %ebx,-0x88(%ebp)
    3332:	89 50 08             	mov    %edx,0x8(%eax)
    3335:	68 6c ad 00 00       	push   $0xad6c
    333a:	e8 a1 5b 00 00       	call   8ee0 <fibril_mutex_unlock@plt>
    333f:	83 c4 10             	add    $0x10,%esp
    3342:	85 db                	test   %ebx,%ebx
    3344:	0f 84 5c 07 00 00    	je     3aa6 <mfs_read+0x7f6>
    334a:	8b 85 78 ff ff ff    	mov    -0x88(%ebp),%eax
    3350:	8b 58 10             	mov    0x10(%eax),%ebx
    3353:	8b 33                	mov    (%ebx),%esi
    3355:	50                   	push   %eax
    3356:	50                   	push   %eax
    3357:	8d 45 8c             	lea    -0x74(%ebp),%eax
    335a:	50                   	push   %eax
    335b:	8d 45 90             	lea    -0x70(%ebp),%eax
    335e:	50                   	push   %eax
    335f:	e8 1c 5c 00 00       	call   8f80 <async_data_read_receive@plt>
    3364:	83 c4 10             	add    $0x10,%esp
    3367:	84 c0                	test   %al,%al
    3369:	0f 84 e9 00 00 00    	je     3458 <mfs_read+0x1a8>
    336f:	8b 06                	mov    (%esi),%eax
    3371:	25 00 f0 ff ff       	and    $0xfffff000,%eax
    3376:	66 3d 00 40          	cmp    $0x4000,%ax
    337a:	0f 84 90 03 00 00    	je     3710 <mfs_read+0x460>
    3380:	8b 46 08             	mov    0x8(%esi),%eax
    3383:	31 d2                	xor    %edx,%edx
    3385:	8b bd 74 ff ff ff    	mov    -0x8c(%ebp),%edi
    338b:	89 45 80             	mov    %eax,-0x80(%ebp)
    338e:	89 55 84             	mov    %edx,-0x7c(%ebp)
    3391:	8b b5 70 ff ff ff    	mov    -0x90(%ebp),%esi
    3397:	83 ff 00             	cmp    $0x0,%edi
    339a:	0f 86 78 01 00 00    	jbe    3518 <mfs_read+0x268>
    33a0:	8b 5d 90             	mov    -0x70(%ebp),%ebx
    33a3:	51                   	push   %ecx
    33a4:	6a 00                	push   $0x0
    33a6:	6a 00                	push   $0x0
    33a8:	53                   	push   %ebx
    33a9:	31 db                	xor    %ebx,%ebx
    33ab:	e8 f0 59 00 00       	call   8da0 <async_data_read_finalize@plt>
    33b0:	83 c4 10             	add    $0x10,%esp
    33b3:	8b bd 78 ff ff ff    	mov    -0x88(%ebp),%edi
    33b9:	83 ec 0c             	sub    $0xc,%esp
    33bc:	8b 77 10             	mov    0x10(%edi),%esi
    33bf:	68 6c ad 00 00       	push   $0xad6c
    33c4:	e8 f7 5c 00 00       	call   90c0 <fibril_mutex_lock@plt>
    33c9:	83 c4 10             	add    $0x10,%esp
    33cc:	8b 46 08             	mov    0x8(%esi),%eax
    33cf:	85 c0                	test   %eax,%eax
    33d1:	0f 84 9d 06 00 00    	je     3a74 <mfs_read+0x7c4>
    33d7:	48                   	dec    %eax
    33d8:	89 46 08             	mov    %eax,0x8(%esi)
    33db:	85 c0                	test   %eax,%eax
    33dd:	75 50                	jne    342f <mfs_read+0x17f>
    33df:	8d 46 10             	lea    0x10(%esi),%eax
    33e2:	52                   	push   %edx
    33e3:	52                   	push   %edx
    33e4:	50                   	push   %eax
    33e5:	68 e4 ae 00 00       	push   $0xaee4
    33ea:	e8 71 5b 00 00       	call   8f60 <hash_table_remove_item@plt>
    33ef:	8b 56 04             	mov    0x4(%esi),%edx
    33f2:	83 c4 10             	add    $0x10,%esp
    33f5:	8b 42 08             	mov    0x8(%edx),%eax
    33f8:	85 c0                	test   %eax,%eax
    33fa:	0f 84 89 06 00 00    	je     3a89 <mfs_read+0x7d9>
    3400:	83 ec 0c             	sub    $0xc,%esp
    3403:	48                   	dec    %eax
    3404:	89 42 08             	mov    %eax,0x8(%edx)
    3407:	56                   	push   %esi
    3408:	e8 13 0a 00 00       	call   3e20 <mfs_put_inode>
    340d:	89 85 7c ff ff ff    	mov    %eax,-0x84(%ebp)
    3413:	58                   	pop    %eax
    3414:	8b 06                	mov    (%esi),%eax
    3416:	50                   	push   %eax
    3417:	e8 94 5c 00 00       	call   90b0 <free@plt>
    341c:	89 34 24             	mov    %esi,(%esp)
    341f:	e8 8c 5c 00 00       	call   90b0 <free@plt>
    3424:	89 3c 24             	mov    %edi,(%esp)
    3427:	e8 84 5c 00 00       	call   90b0 <free@plt>
    342c:	83 c4 10             	add    $0x10,%esp
    342f:	83 ec 0c             	sub    $0xc,%esp
    3432:	68 6c ad 00 00       	push   $0xad6c
    3437:	e8 a4 5a 00 00       	call   8ee0 <fibril_mutex_unlock@plt>
    343c:	8b 45 18             	mov    0x18(%ebp),%eax
    343f:	83 c4 10             	add    $0x10,%esp
    3442:	89 18                	mov    %ebx,(%eax)
    3444:	8b 85 7c ff ff ff    	mov    -0x84(%ebp),%eax
    344a:	8d 65 f4             	lea    -0xc(%ebp),%esp
    344d:	5b                   	pop    %ebx
    344e:	5e                   	pop    %esi
    344f:	5f                   	pop    %edi
    3450:	5d                   	pop    %ebp
    3451:	c3                   	ret    
    3452:	8d b6 00 00 00 00    	lea    0x0(%esi),%esi
    3458:	c7 85 7c ff ff ff f2 	movl   $0xfffffff2,-0x84(%ebp)
    345f:	ff ff ff 
    3462:	8b bd 78 ff ff ff    	mov    -0x88(%ebp),%edi
    3468:	83 ec 0c             	sub    $0xc,%esp
    346b:	8b 77 10             	mov    0x10(%edi),%esi
    346e:	68 6c ad 00 00       	push   $0xad6c
    3473:	e8 48 5c 00 00       	call   90c0 <fibril_mutex_lock@plt>
    3478:	83 c4 10             	add    $0x10,%esp
    347b:	8b 46 08             	mov    0x8(%esi),%eax
    347e:	85 c0                	test   %eax,%eax
    3480:	0f 84 ee 05 00 00    	je     3a74 <mfs_read+0x7c4>
    3486:	48                   	dec    %eax
    3487:	89 46 08             	mov    %eax,0x8(%esi)
    348a:	85 c0                	test   %eax,%eax
    348c:	0f 85 36 02 00 00    	jne    36c8 <mfs_read+0x418>
    3492:	50                   	push   %eax
    3493:	50                   	push   %eax
    3494:	8d 46 10             	lea    0x10(%esi),%eax
    3497:	50                   	push   %eax
    3498:	68 e4 ae 00 00       	push   $0xaee4
    349d:	e8 be 5a 00 00       	call   8f60 <hash_table_remove_item@plt>
    34a2:	8b 56 04             	mov    0x4(%esi),%edx
    34a5:	8b 42 08             	mov    0x8(%edx),%eax
    34a8:	83 c4 10             	add    $0x10,%esp
    34ab:	85 c0                	test   %eax,%eax
    34ad:	0f 84 d6 05 00 00    	je     3a89 <mfs_read+0x7d9>
    34b3:	83 ec 0c             	sub    $0xc,%esp
    34b6:	48                   	dec    %eax
    34b7:	89 42 08             	mov    %eax,0x8(%edx)
    34ba:	56                   	push   %esi
    34bb:	e8 60 09 00 00       	call   3e20 <mfs_put_inode>
    34c0:	89 c3                	mov    %eax,%ebx
    34c2:	58                   	pop    %eax
    34c3:	8b 06                	mov    (%esi),%eax
    34c5:	50                   	push   %eax
    34c6:	e8 e5 5b 00 00       	call   90b0 <free@plt>
    34cb:	89 34 24             	mov    %esi,(%esp)
    34ce:	e8 dd 5b 00 00       	call   90b0 <free@plt>
    34d3:	89 3c 24             	mov    %edi,(%esp)
    34d6:	e8 d5 5b 00 00       	call   90b0 <free@plt>
    34db:	c7 04 24 6c ad 00 00 	movl   $0xad6c,(%esp)
    34e2:	e8 f9 59 00 00       	call   8ee0 <fibril_mutex_unlock@plt>
    34e7:	83 c4 10             	add    $0x10,%esp
    34ea:	85 db                	test   %ebx,%ebx
    34ec:	0f 84 e6 01 00 00    	je     36d8 <mfs_read+0x428>
    34f2:	8b 45 90             	mov    -0x70(%ebp),%eax
    34f5:	57                   	push   %edi
    34f6:	57                   	push   %edi
    34f7:	53                   	push   %ebx
    34f8:	50                   	push   %eax
    34f9:	e8 22 59 00 00       	call   8e20 <async_answer_0@plt>
    34fe:	89 9d 7c ff ff ff    	mov    %ebx,-0x84(%ebp)
    3504:	83 c4 10             	add    $0x10,%esp
    3507:	8d 65 f4             	lea    -0xc(%ebp),%esp
    350a:	89 d8                	mov    %ebx,%eax
    350c:	5b                   	pop    %ebx
    350d:	5e                   	pop    %esi
    350e:	5f                   	pop    %edi
    350f:	5d                   	pop    %ebp
    3510:	c3                   	ret    
    3511:	8d b4 26 00 00 00 00 	lea    0x0(%esi,%eiz,1),%esi
    3518:	39 c6                	cmp    %eax,%esi
    351a:	0f 83 80 fe ff ff    	jae    33a0 <mfs_read+0xf0>
    3520:	8b 43 04             	mov    0x4(%ebx),%eax
    3523:	8b 95 70 ff ff ff    	mov    -0x90(%ebp),%edx
    3529:	8b 40 04             	mov    0x4(%eax),%eax
    352c:	89 85 6c ff ff ff    	mov    %eax,-0x94(%ebp)
    3532:	8b 70 18             	mov    0x18(%eax),%esi
    3535:	8b 45 8c             	mov    -0x74(%ebp),%eax
    3538:	89 85 68 ff ff ff    	mov    %eax,-0x98(%ebp)
    353e:	50                   	push   %eax
    353f:	8d 45 94             	lea    -0x6c(%ebp),%eax
    3542:	52                   	push   %edx
    3543:	53                   	push   %ebx
    3544:	50                   	push   %eax
    3545:	e8 66 0e 00 00       	call   43b0 <mfs_read_map>
    354a:	83 c4 10             	add    $0x10,%esp
    354d:	85 c0                	test   %eax,%eax
    354f:	0f 85 ab 01 00 00    	jne    3700 <mfs_read+0x450>
    3555:	89 f7                	mov    %esi,%edi
    3557:	8b 85 74 ff ff ff    	mov    -0x8c(%ebp),%eax
    355d:	c1 ff 1f             	sar    $0x1f,%edi
    3560:	57                   	push   %edi
    3561:	56                   	push   %esi
    3562:	50                   	push   %eax
    3563:	8b 85 70 ff ff ff    	mov    -0x90(%ebp),%eax
    3569:	50                   	push   %eax
    356a:	e8 e1 58 00 00       	call   8e50 <__umoddi3@plt>
    356f:	83 c4 10             	add    $0x10,%esp
    3572:	8b 4d 80             	mov    -0x80(%ebp),%ecx
    3575:	29 c6                	sub    %eax,%esi
    3577:	8b 5d 84             	mov    -0x7c(%ebp),%ebx
    357a:	19 d7                	sbb    %edx,%edi
    357c:	2b 8d 70 ff ff ff    	sub    -0x90(%ebp),%ecx
    3582:	1b 9d 74 ff ff ff    	sbb    -0x8c(%ebp),%ebx
    3588:	89 ca                	mov    %ecx,%edx
    358a:	89 d8                	mov    %ebx,%eax
    358c:	83 fb 00             	cmp    $0x0,%ebx
    358f:	0f 86 d3 02 00 00    	jbe    3868 <mfs_read+0x5b8>
    3595:	8b 95 68 ff ff ff    	mov    -0x98(%ebp),%edx
    359b:	31 c0                	xor    %eax,%eax
    359d:	39 c7                	cmp    %eax,%edi
    359f:	72 0f                	jb     35b0 <mfs_read+0x300>
    35a1:	0f 87 19 03 00 00    	ja     38c0 <mfs_read+0x610>
    35a7:	39 d6                	cmp    %edx,%esi
    35a9:	0f 87 11 03 00 00    	ja     38c0 <mfs_read+0x610>
    35af:	90                   	nop
    35b0:	8b 45 94             	mov    -0x6c(%ebp),%eax
    35b3:	89 f3                	mov    %esi,%ebx
    35b5:	85 c0                	test   %eax,%eax
    35b7:	0f 85 3b 03 00 00    	jne    38f8 <mfs_read+0x648>
    35bd:	8b bd 6c ff ff ff    	mov    -0x94(%ebp),%edi
    35c3:	83 ec 0c             	sub    $0xc,%esp
    35c6:	8b 47 18             	mov    0x18(%edi),%eax
    35c9:	50                   	push   %eax
    35ca:	e8 21 58 00 00       	call   8df0 <malloc@plt>
    35cf:	83 c4 10             	add    $0x10,%esp
    35d2:	89 c6                	mov    %eax,%esi
    35d4:	85 c0                	test   %eax,%eax
    35d6:	0f 84 1f 01 00 00    	je     36fb <mfs_read+0x44b>
    35dc:	50                   	push   %eax
    35dd:	6a 04                	push   $0x4
    35df:	6a 00                	push   $0x0
    35e1:	56                   	push   %esi
    35e2:	e8 89 59 00 00       	call   8f70 <memset@plt>
    35e7:	83 c4 0c             	add    $0xc,%esp
    35ea:	53                   	push   %ebx
    35eb:	8b 47 18             	mov    0x18(%edi),%eax
    35ee:	51                   	push   %ecx
    35ef:	89 c2                	mov    %eax,%edx
    35f1:	51                   	push   %ecx
    35f2:	c1 fa 1f             	sar    $0x1f,%edx
    35f5:	8b bd 74 ff ff ff    	mov    -0x8c(%ebp),%edi
    35fb:	52                   	push   %edx
    35fc:	50                   	push   %eax
    35fd:	8b 85 70 ff ff ff    	mov    -0x90(%ebp),%eax
    3603:	57                   	push   %edi
    3604:	50                   	push   %eax
    3605:	e8 46 58 00 00       	call   8e50 <__umoddi3@plt>
    360a:	83 c4 18             	add    $0x18,%esp
    360d:	01 f0                	add    %esi,%eax
    360f:	50                   	push   %eax
    3610:	8b 45 90             	mov    -0x70(%ebp),%eax
    3613:	50                   	push   %eax
    3614:	e8 87 57 00 00       	call   8da0 <async_data_read_finalize@plt>
    3619:	89 34 24             	mov    %esi,(%esp)
    361c:	e8 8f 5a 00 00       	call   90b0 <free@plt>
    3621:	83 c4 10             	add    $0x10,%esp
    3624:	e9 8a fd ff ff       	jmp    33b3 <mfs_read+0x103>
    3629:	8d b4 26 00 00 00 00 	lea    0x0(%esi,%eiz,1),%esi
    3630:	83 ec 0c             	sub    $0xc,%esp
    3633:	6a 14                	push   $0x14
    3635:	e8 b6 57 00 00       	call   8df0 <malloc@plt>
    363a:	83 c4 10             	add    $0x10,%esp
    363d:	89 85 78 ff ff ff    	mov    %eax,-0x88(%ebp)
    3643:	85 c0                	test   %eax,%eax
    3645:	0f 84 b5 03 00 00    	je     3a00 <mfs_read+0x750>
    364b:	83 ec 0c             	sub    $0xc,%esp
    364e:	50                   	push   %eax
    364f:	e8 4c 4e 00 00       	call   84a0 <fs_node_initialize>
    3654:	c7 04 24 18 00 00 00 	movl   $0x18,(%esp)
    365b:	e8 90 57 00 00       	call   8df0 <malloc@plt>
    3660:	83 c4 10             	add    $0x10,%esp
    3663:	89 c6                	mov    %eax,%esi
    3665:	85 c0                	test   %eax,%eax
    3667:	0f 84 2b 02 00 00    	je     3898 <mfs_read+0x5e8>
    366d:	50                   	push   %eax
    366e:	8b 45 0c             	mov    0xc(%ebp),%eax
    3671:	50                   	push   %eax
    3672:	8d 45 98             	lea    -0x68(%ebp),%eax
    3675:	50                   	push   %eax
    3676:	53                   	push   %ebx
    3677:	e8 74 04 00 00       	call   3af0 <mfs_get_inode>
    367c:	83 c4 10             	add    $0x10,%esp
    367f:	85 c0                	test   %eax,%eax
    3681:	0f 84 a1 03 00 00    	je     3a28 <mfs_read+0x778>
    3687:	83 ec 0c             	sub    $0xc,%esp
    368a:	8b 95 78 ff ff ff    	mov    -0x88(%ebp),%edx
    3690:	89 45 80             	mov    %eax,-0x80(%ebp)
    3693:	52                   	push   %edx
    3694:	e8 17 5a 00 00       	call   90b0 <free@plt>
    3699:	89 34 24             	mov    %esi,(%esp)
    369c:	e8 0f 5a 00 00       	call   90b0 <free@plt>
    36a1:	8b 45 80             	mov    -0x80(%ebp),%eax
    36a4:	83 c4 10             	add    $0x10,%esp
    36a7:	89 85 7c ff ff ff    	mov    %eax,-0x84(%ebp)
    36ad:	83 ec 0c             	sub    $0xc,%esp
    36b0:	68 6c ad 00 00       	push   $0xad6c
    36b5:	e8 26 58 00 00       	call   8ee0 <fibril_mutex_unlock@plt>
    36ba:	83 c4 10             	add    $0x10,%esp
    36bd:	8b 85 7c ff ff ff    	mov    -0x84(%ebp),%eax
    36c3:	e9 82 fd ff ff       	jmp    344a <mfs_read+0x19a>
    36c8:	83 ec 0c             	sub    $0xc,%esp
    36cb:	68 6c ad 00 00       	push   $0xad6c
    36d0:	e8 0b 58 00 00       	call   8ee0 <fibril_mutex_unlock@plt>
    36d5:	83 c4 10             	add    $0x10,%esp
    36d8:	8b 9d 7c ff ff ff    	mov    -0x84(%ebp),%ebx
    36de:	8b 75 90             	mov    -0x70(%ebp),%esi
    36e1:	51                   	push   %ecx
    36e2:	51                   	push   %ecx
    36e3:	53                   	push   %ebx
    36e4:	56                   	push   %esi
    36e5:	e8 36 57 00 00       	call   8e20 <async_answer_0@plt>
    36ea:	8b 85 7c ff ff ff    	mov    -0x84(%ebp),%eax
    36f0:	83 c4 10             	add    $0x10,%esp
    36f3:	8d 65 f4             	lea    -0xc(%ebp),%esp
    36f6:	5b                   	pop    %ebx
    36f7:	5e                   	pop    %esi
    36f8:	5f                   	pop    %edi
    36f9:	5d                   	pop    %ebp
    36fa:	c3                   	ret    
    36fb:	b8 fe ff ff ff       	mov    $0xfffffffe,%eax
    3700:	89 85 7c ff ff ff    	mov    %eax,-0x84(%ebp)
    3706:	e9 57 fd ff ff       	jmp    3462 <mfs_read+0x1b2>
    370b:	90                   	nop
    370c:	8d 74 26 00          	lea    0x0(%esi,%eiz,1),%esi
    3710:	8b 43 04             	mov    0x4(%ebx),%eax
    3713:	8b 95 74 ff ff ff    	mov    -0x8c(%ebp),%edx
    3719:	89 55 84             	mov    %edx,-0x7c(%ebp)
    371c:	83 fa 00             	cmp    $0x0,%edx
    371f:	8b 40 04             	mov    0x4(%eax),%eax
    3722:	89 85 6c ff ff ff    	mov    %eax,-0x94(%ebp)
    3728:	8b 85 70 ff ff ff    	mov    -0x90(%ebp),%eax
    372e:	89 45 80             	mov    %eax,-0x80(%ebp)
    3731:	77 09                	ja     373c <mfs_read+0x48c>
    3733:	83 f8 02             	cmp    $0x2,%eax
    3736:	0f 82 44 01 00 00    	jb     3880 <mfs_read+0x5d0>
    373c:	8b 03                	mov    (%ebx),%eax
    373e:	8b 8d 6c ff ff ff    	mov    -0x94(%ebp),%ecx
    3744:	31 d2                	xor    %edx,%edx
    3746:	8b 40 08             	mov    0x8(%eax),%eax
    3749:	f7 71 30             	divl   0x30(%ecx)
    374c:	8b 4d 84             	mov    -0x7c(%ebp),%ecx
    374f:	8b 55 80             	mov    -0x80(%ebp),%edx
    3752:	83 f9 00             	cmp    $0x0,%ecx
    3755:	77 4a                	ja     37a1 <mfs_read+0x4f1>
    3757:	39 c2                	cmp    %eax,%edx
    3759:	73 46                	jae    37a1 <mfs_read+0x4f1>
    375b:	8b 75 80             	mov    -0x80(%ebp),%esi
    375e:	66 90                	xchg   %ax,%ax
    3760:	51                   	push   %ecx
    3761:	56                   	push   %esi
    3762:	57                   	push   %edi
    3763:	53                   	push   %ebx
    3764:	e8 17 13 00 00       	call   4a80 <mfs_read_dentry>
    3769:	83 c4 10             	add    $0x10,%esp
    376c:	85 c0                	test   %eax,%eax
    376e:	75 90                	jne    3700 <mfs_read+0x450>
    3770:	8b 55 9c             	mov    -0x64(%ebp),%edx
    3773:	85 d2                	test   %edx,%edx
    3775:	0f 85 4d 01 00 00    	jne    38c8 <mfs_read+0x618>
    377b:	83 45 80 01          	addl   $0x1,-0x80(%ebp)
    377f:	8b 03                	mov    (%ebx),%eax
    3781:	8b 8d 6c ff ff ff    	mov    -0x94(%ebp),%ecx
    3787:	83 55 84 00          	adcl   $0x0,-0x7c(%ebp)
    378b:	31 d2                	xor    %edx,%edx
    378d:	8b 40 08             	mov    0x8(%eax),%eax
    3790:	46                   	inc    %esi
    3791:	f7 71 30             	divl   0x30(%ecx)
    3794:	31 c9                	xor    %ecx,%ecx
    3796:	3b 4d 84             	cmp    -0x7c(%ebp),%ecx
    3799:	77 c5                	ja     3760 <mfs_read+0x4b0>
    379b:	0f 83 b7 00 00 00    	jae    3858 <mfs_read+0x5a8>
    37a1:	8b 85 78 ff ff ff    	mov    -0x88(%ebp),%eax
    37a7:	83 ec 0c             	sub    $0xc,%esp
    37aa:	8b 58 10             	mov    0x10(%eax),%ebx
    37ad:	68 6c ad 00 00       	push   $0xad6c
    37b2:	e8 09 59 00 00       	call   90c0 <fibril_mutex_lock@plt>
    37b7:	83 c4 10             	add    $0x10,%esp
    37ba:	8b 43 08             	mov    0x8(%ebx),%eax
    37bd:	85 c0                	test   %eax,%eax
    37bf:	0f 84 af 02 00 00    	je     3a74 <mfs_read+0x7c4>
    37c5:	48                   	dec    %eax
    37c6:	89 43 08             	mov    %eax,0x8(%ebx)
    37c9:	85 c0                	test   %eax,%eax
    37cb:	0f 85 3f 02 00 00    	jne    3a10 <mfs_read+0x760>
    37d1:	50                   	push   %eax
    37d2:	50                   	push   %eax
    37d3:	8d 43 10             	lea    0x10(%ebx),%eax
    37d6:	50                   	push   %eax
    37d7:	68 e4 ae 00 00       	push   $0xaee4
    37dc:	e8 7f 57 00 00       	call   8f60 <hash_table_remove_item@plt>
    37e1:	8b 53 04             	mov    0x4(%ebx),%edx
    37e4:	8b 42 08             	mov    0x8(%edx),%eax
    37e7:	83 c4 10             	add    $0x10,%esp
    37ea:	85 c0                	test   %eax,%eax
    37ec:	0f 84 97 02 00 00    	je     3a89 <mfs_read+0x7d9>
    37f2:	83 ec 0c             	sub    $0xc,%esp
    37f5:	48                   	dec    %eax
    37f6:	89 42 08             	mov    %eax,0x8(%edx)
    37f9:	53                   	push   %ebx
    37fa:	e8 21 06 00 00       	call   3e20 <mfs_put_inode>
    37ff:	89 c7                	mov    %eax,%edi
    3801:	89 85 7c ff ff ff    	mov    %eax,-0x84(%ebp)
    3807:	8b 03                	mov    (%ebx),%eax
    3809:	5e                   	pop    %esi
    380a:	50                   	push   %eax
    380b:	e8 a0 58 00 00       	call   90b0 <free@plt>
    3810:	89 1c 24             	mov    %ebx,(%esp)
    3813:	e8 98 58 00 00       	call   90b0 <free@plt>
    3818:	58                   	pop    %eax
    3819:	8b 85 78 ff ff ff    	mov    -0x88(%ebp),%eax
    381f:	50                   	push   %eax
    3820:	e8 8b 58 00 00       	call   90b0 <free@plt>
    3825:	c7 04 24 6c ad 00 00 	movl   $0xad6c,(%esp)
    382c:	e8 af 56 00 00       	call   8ee0 <fibril_mutex_unlock@plt>
    3831:	83 c4 10             	add    $0x10,%esp
    3834:	89 f8                	mov    %edi,%eax
    3836:	85 ff                	test   %edi,%edi
    3838:	0f 84 60 02 00 00    	je     3a9e <mfs_read+0x7ee>
    383e:	8b 4d 90             	mov    -0x70(%ebp),%ecx
    3841:	52                   	push   %edx
    3842:	52                   	push   %edx
    3843:	50                   	push   %eax
    3844:	51                   	push   %ecx
    3845:	e8 d6 55 00 00       	call   8e20 <async_answer_0@plt>
    384a:	83 c4 10             	add    $0x10,%esp
    384d:	8b 85 7c ff ff ff    	mov    -0x84(%ebp),%eax
    3853:	e9 f2 fb ff ff       	jmp    344a <mfs_read+0x19a>
    3858:	3b 45 80             	cmp    -0x80(%ebp),%eax
    385b:	0f 87 ff fe ff ff    	ja     3760 <mfs_read+0x4b0>
    3861:	e9 3b ff ff ff       	jmp    37a1 <mfs_read+0x4f1>
    3866:	66 90                	xchg   %ax,%ax
    3868:	3b 8d 68 ff ff ff    	cmp    -0x98(%ebp),%ecx
    386e:	0f 86 29 fd ff ff    	jbe    359d <mfs_read+0x2ed>
    3874:	e9 1c fd ff ff       	jmp    3595 <mfs_read+0x2e5>
    3879:	8d b4 26 00 00 00 00 	lea    0x0(%esi,%eiz,1),%esi
    3880:	c7 45 80 02 00 00 00 	movl   $0x2,-0x80(%ebp)
    3887:	c7 45 84 00 00 00 00 	movl   $0x0,-0x7c(%ebp)
    388e:	e9 a9 fe ff ff       	jmp    373c <mfs_read+0x48c>
    3893:	90                   	nop
    3894:	8d 74 26 00          	lea    0x0(%esi,%eiz,1),%esi
    3898:	83 ec 0c             	sub    $0xc,%esp
    389b:	8b 85 78 ff ff ff    	mov    -0x88(%ebp),%eax
    38a1:	50                   	push   %eax
    38a2:	e8 09 58 00 00       	call   90b0 <free@plt>
    38a7:	83 c4 10             	add    $0x10,%esp
    38aa:	c7 85 7c ff ff ff fe 	movl   $0xfffffffe,-0x84(%ebp)
    38b1:	ff ff ff 
    38b4:	e9 f4 fd ff ff       	jmp    36ad <mfs_read+0x3fd>
    38b9:	8d b4 26 00 00 00 00 	lea    0x0(%esi,%eiz,1),%esi
    38c0:	89 d6                	mov    %edx,%esi
    38c2:	e9 e9 fc ff ff       	jmp    35b0 <mfs_read+0x300>
    38c7:	90                   	nop
    38c8:	83 ec 0c             	sub    $0xc,%esp
    38cb:	8d 5d a0             	lea    -0x60(%ebp),%ebx
    38ce:	53                   	push   %ebx
    38cf:	e8 ec 56 00 00       	call   8fc0 <str_size@plt>
    38d4:	83 c4 0c             	add    $0xc,%esp
    38d7:	40                   	inc    %eax
    38d8:	8b 7d 90             	mov    -0x70(%ebp),%edi
    38db:	50                   	push   %eax
    38dc:	53                   	push   %ebx
    38dd:	57                   	push   %edi
    38de:	e8 bd 54 00 00       	call   8da0 <async_data_read_finalize@plt>
    38e3:	8b 85 70 ff ff ff    	mov    -0x90(%ebp),%eax
    38e9:	83 c4 10             	add    $0x10,%esp
    38ec:	29 c6                	sub    %eax,%esi
    38ee:	8d 5e 01             	lea    0x1(%esi),%ebx
    38f1:	e9 bd fa ff ff       	jmp    33b3 <mfs_read+0x103>
    38f6:	66 90                	xchg   %ax,%ax
    38f8:	83 ec 0c             	sub    $0xc,%esp
    38fb:	31 d2                	xor    %edx,%edx
    38fd:	6a 00                	push   $0x0
    38ff:	52                   	push   %edx
    3900:	50                   	push   %eax
    3901:	8b 45 08             	mov    0x8(%ebp),%eax
    3904:	50                   	push   %eax
    3905:	8d 45 98             	lea    -0x68(%ebp),%eax
    3908:	50                   	push   %eax
    3909:	e8 d2 2a 00 00       	call   63e0 <block_get>
    390e:	83 c4 20             	add    $0x20,%esp
    3911:	85 c0                	test   %eax,%eax
    3913:	0f 85 e7 fd ff ff    	jne    3700 <mfs_read+0x450>
    3919:	50                   	push   %eax
    391a:	8b 85 6c ff ff ff    	mov    -0x94(%ebp),%eax
    3920:	56                   	push   %esi
    3921:	8b bd 74 ff ff ff    	mov    -0x8c(%ebp),%edi
    3927:	8b 40 18             	mov    0x18(%eax),%eax
    392a:	51                   	push   %ecx
    392b:	89 c2                	mov    %eax,%edx
    392d:	51                   	push   %ecx
    392e:	c1 fa 1f             	sar    $0x1f,%edx
    3931:	8b 75 98             	mov    -0x68(%ebp),%esi
    3934:	52                   	push   %edx
    3935:	50                   	push   %eax
    3936:	8b 85 70 ff ff ff    	mov    -0x90(%ebp),%eax
    393c:	57                   	push   %edi
    393d:	50                   	push   %eax
    393e:	e8 0d 55 00 00       	call   8e50 <__umoddi3@plt>
    3943:	83 c4 18             	add    $0x18,%esp
    3946:	8b 56 58             	mov    0x58(%esi),%edx
    3949:	01 d0                	add    %edx,%eax
    394b:	8b 4d 90             	mov    -0x70(%ebp),%ecx
    394e:	50                   	push   %eax
    394f:	51                   	push   %ecx
    3950:	e8 4b 54 00 00       	call   8da0 <async_data_read_finalize@plt>
    3955:	8b 7d 98             	mov    -0x68(%ebp),%edi
    3958:	5e                   	pop    %esi
    3959:	57                   	push   %edi
    395a:	e8 81 27 00 00       	call   60e0 <block_put>
    395f:	83 c4 10             	add    $0x10,%esp
    3962:	89 c6                	mov    %eax,%esi
    3964:	85 c0                	test   %eax,%eax
    3966:	0f 84 47 fa ff ff    	je     33b3 <mfs_read+0x103>
    396c:	8b bd 78 ff ff ff    	mov    -0x88(%ebp),%edi
    3972:	83 ec 0c             	sub    $0xc,%esp
    3975:	8b 5f 10             	mov    0x10(%edi),%ebx
    3978:	68 6c ad 00 00       	push   $0xad6c
    397d:	e8 3e 57 00 00       	call   90c0 <fibril_mutex_lock@plt>
    3982:	83 c4 10             	add    $0x10,%esp
    3985:	8b 43 08             	mov    0x8(%ebx),%eax
    3988:	85 c0                	test   %eax,%eax
    398a:	0f 84 e4 00 00 00    	je     3a74 <mfs_read+0x7c4>
    3990:	48                   	dec    %eax
    3991:	89 43 08             	mov    %eax,0x8(%ebx)
    3994:	85 c0                	test   %eax,%eax
    3996:	75 4a                	jne    39e2 <mfs_read+0x732>
    3998:	50                   	push   %eax
    3999:	50                   	push   %eax
    399a:	8d 43 10             	lea    0x10(%ebx),%eax
    399d:	50                   	push   %eax
    399e:	68 e4 ae 00 00       	push   $0xaee4
    39a3:	e8 b8 55 00 00       	call   8f60 <hash_table_remove_item@plt>
    39a8:	8b 53 04             	mov    0x4(%ebx),%edx
    39ab:	8b 42 08             	mov    0x8(%edx),%eax
    39ae:	83 c4 10             	add    $0x10,%esp
    39b1:	85 c0                	test   %eax,%eax
    39b3:	0f 84 d0 00 00 00    	je     3a89 <mfs_read+0x7d9>
    39b9:	83 ec 0c             	sub    $0xc,%esp
    39bc:	48                   	dec    %eax
    39bd:	89 42 08             	mov    %eax,0x8(%edx)
    39c0:	53                   	push   %ebx
    39c1:	e8 5a 04 00 00       	call   3e20 <mfs_put_inode>
    39c6:	8b 03                	mov    (%ebx),%eax
    39c8:	59                   	pop    %ecx
    39c9:	50                   	push   %eax
    39ca:	e8 e1 56 00 00       	call   90b0 <free@plt>
    39cf:	89 1c 24             	mov    %ebx,(%esp)
    39d2:	e8 d9 56 00 00       	call   90b0 <free@plt>
    39d7:	89 3c 24             	mov    %edi,(%esp)
    39da:	e8 d1 56 00 00       	call   90b0 <free@plt>
    39df:	83 c4 10             	add    $0x10,%esp
    39e2:	83 ec 0c             	sub    $0xc,%esp
    39e5:	68 6c ad 00 00       	push   $0xad6c
    39ea:	e8 f1 54 00 00       	call   8ee0 <fibril_mutex_unlock@plt>
    39ef:	83 c4 10             	add    $0x10,%esp
    39f2:	89 b5 7c ff ff ff    	mov    %esi,-0x84(%ebp)
    39f8:	89 f0                	mov    %esi,%eax
    39fa:	e9 4b fa ff ff       	jmp    344a <mfs_read+0x19a>
    39ff:	90                   	nop
    3a00:	c7 85 7c ff ff ff fe 	movl   $0xfffffffe,-0x84(%ebp)
    3a07:	ff ff ff 
    3a0a:	e9 9e fc ff ff       	jmp    36ad <mfs_read+0x3fd>
    3a0f:	90                   	nop
    3a10:	83 ec 0c             	sub    $0xc,%esp
    3a13:	68 6c ad 00 00       	push   $0xad6c
    3a18:	e8 c3 54 00 00       	call   8ee0 <fibril_mutex_unlock@plt>
    3a1d:	83 c4 10             	add    $0x10,%esp
    3a20:	83 c8 ff             	or     $0xffffffff,%eax
    3a23:	e9 16 fe ff ff       	jmp    383e <mfs_read+0x58e>
    3a28:	8b 45 98             	mov    -0x68(%ebp),%eax
    3a2b:	8b 4d 0c             	mov    0xc(%ebp),%ecx
    3a2e:	89 48 44             	mov    %ecx,0x44(%eax)
    3a31:	89 06                	mov    %eax,(%esi)
    3a33:	8b 85 78 ff ff ff    	mov    -0x88(%ebp),%eax
    3a39:	c7 46 08 01 00 00 00 	movl   $0x1,0x8(%esi)
    3a40:	89 46 0c             	mov    %eax,0xc(%esi)
    3a43:	89 5e 04             	mov    %ebx,0x4(%esi)
    3a46:	89 70 10             	mov    %esi,0x10(%eax)
    3a49:	83 c6 10             	add    $0x10,%esi
    3a4c:	50                   	push   %eax
    3a4d:	50                   	push   %eax
    3a4e:	56                   	push   %esi
    3a4f:	68 e4 ae 00 00       	push   $0xaee4
    3a54:	e8 f7 52 00 00       	call   8d50 <hash_table_insert@plt>
    3a59:	8b 43 08             	mov    0x8(%ebx),%eax
    3a5c:	40                   	inc    %eax
    3a5d:	89 43 08             	mov    %eax,0x8(%ebx)
    3a60:	c7 04 24 6c ad 00 00 	movl   $0xad6c,(%esp)
    3a67:	e8 74 54 00 00       	call   8ee0 <fibril_mutex_unlock@plt>
    3a6c:	83 c4 10             	add    $0x10,%esp
    3a6f:	e9 d6 f8 ff ff       	jmp    334a <mfs_read+0x9a>
    3a74:	50                   	push   %eax
    3a75:	68 f6 01 00 00       	push   $0x1f6
    3a7a:	68 c4 87 00 00       	push   $0x87c4
    3a7f:	68 ce 87 00 00       	push   $0x87ce
    3a84:	e8 27 54 00 00       	call   8eb0 <assert_abort@plt>
    3a89:	50                   	push   %eax
    3a8a:	68 fa 01 00 00       	push   $0x1fa
    3a8f:	68 c4 87 00 00       	push   $0x87c4
    3a94:	68 0c 88 00 00       	push   $0x880c
    3a99:	e8 12 54 00 00       	call   8eb0 <assert_abort@plt>
    3a9e:	83 c8 ff             	or     $0xffffffff,%eax
    3aa1:	e9 98 fd ff ff       	jmp    383e <mfs_read+0x58e>
    3aa6:	c7 85 7c ff ff ff ff 	movl   $0xffffffff,-0x84(%ebp)
    3aad:	ff ff ff 
    3ab0:	8b 85 7c ff ff ff    	mov    -0x84(%ebp),%eax
    3ab6:	e9 8f f9 ff ff       	jmp    344a <mfs_read+0x19a>
    3abb:	90                   	nop
    3abc:	8d 74 26 00          	lea    0x0(%esi,%eiz,1),%esi

00003ac0 <mfs_global_init>:
    3ac0:	55                   	push   %ebp
    3ac1:	89 e5                	mov    %esp,%ebp
    3ac3:	83 ec 08             	sub    $0x8,%esp
    3ac6:	68 00 ad 00 00       	push   $0xad00
    3acb:	6a 00                	push   $0x0
    3acd:	6a 00                	push   $0x0
    3acf:	68 e4 ae 00 00       	push   $0xaee4
    3ad4:	e8 57 52 00 00       	call   8d30 <hash_table_create@plt>
    3ad9:	83 c4 10             	add    $0x10,%esp
    3adc:	3c 01                	cmp    $0x1,%al
    3ade:	c9                   	leave  
    3adf:	19 c0                	sbb    %eax,%eax
    3ae1:	83 e0 fe             	and    $0xfffffffe,%eax
    3ae4:	c3                   	ret    
    3ae5:	66 90                	xchg   %ax,%ax
    3ae7:	66 90                	xchg   %ax,%ax
    3ae9:	66 90                	xchg   %ax,%ax
    3aeb:	66 90                	xchg   %ax,%ax
    3aed:	66 90                	xchg   %ax,%ax
    3aef:	90                   	nop

00003af0 <mfs_get_inode>:
    3af0:	55                   	push   %ebp
    3af1:	89 e5                	mov    %esp,%ebp
    3af3:	57                   	push   %edi
    3af4:	56                   	push   %esi
    3af5:	53                   	push   %ebx
    3af6:	83 ec 2c             	sub    $0x2c,%esp
    3af9:	8b 7d 08             	mov    0x8(%ebp),%edi
    3afc:	8b 5f 04             	mov    0x4(%edi),%ebx
    3aff:	83 7b 28 01          	cmpl   $0x1,0x28(%ebx)
    3b03:	0f 84 97 01 00 00    	je     3ca0 <mfs_get_inode+0x1b0>
    3b09:	83 ec 0c             	sub    $0xc,%esp
    3b0c:	6a 48                	push   $0x48
    3b0e:	e8 dd 52 00 00       	call   8df0 <malloc@plt>
    3b13:	83 c4 10             	add    $0x10,%esp
    3b16:	89 c3                	mov    %eax,%ebx
    3b18:	85 c0                	test   %eax,%eax
    3b1a:	74 3f                	je     3b5b <mfs_get_inode+0x6b>
    3b1c:	83 ec 0c             	sub    $0xc,%esp
    3b1f:	8b 77 04             	mov    0x4(%edi),%esi
    3b22:	8b 45 10             	mov    0x10(%ebp),%eax
    3b25:	31 d2                	xor    %edx,%edx
    3b27:	6a 00                	push   $0x0
    3b29:	48                   	dec    %eax
    3b2a:	f7 76 2c             	divl   0x2c(%esi)
    3b2d:	89 55 d4             	mov    %edx,-0x2c(%ebp)
    3b30:	8b 56 34             	mov    0x34(%esi),%edx
    3b33:	01 d0                	add    %edx,%eax
    3b35:	31 d2                	xor    %edx,%edx
    3b37:	52                   	push   %edx
    3b38:	8b 0f                	mov    (%edi),%ecx
    3b3a:	50                   	push   %eax
    3b3b:	8d 45 e4             	lea    -0x1c(%ebp),%eax
    3b3e:	51                   	push   %ecx
    3b3f:	50                   	push   %eax
    3b40:	e8 9b 28 00 00       	call   63e0 <block_get>
    3b45:	83 c4 20             	add    $0x20,%esp
    3b48:	89 45 d0             	mov    %eax,-0x30(%ebp)
    3b4b:	85 c0                	test   %eax,%eax
    3b4d:	74 19                	je     3b68 <mfs_get_inode+0x78>
    3b4f:	83 ec 0c             	sub    $0xc,%esp
    3b52:	53                   	push   %ebx
    3b53:	e8 58 55 00 00       	call   90b0 <free@plt>
    3b58:	83 c4 10             	add    $0x10,%esp
    3b5b:	31 c0                	xor    %eax,%eax
    3b5d:	8d 65 f4             	lea    -0xc(%ebp),%esp
    3b60:	5b                   	pop    %ebx
    3b61:	5e                   	pop    %esi
    3b62:	5f                   	pop    %edi
    3b63:	5d                   	pop    %ebp
    3b64:	c3                   	ret    
    3b65:	8d 76 00             	lea    0x0(%esi),%esi
    3b68:	8b 55 e4             	mov    -0x1c(%ebp),%edx
    3b6b:	8b 45 d4             	mov    -0x2c(%ebp),%eax
    3b6e:	c1 e0 06             	shl    $0x6,%eax
    3b71:	8b 4a 58             	mov    0x58(%edx),%ecx
    3b74:	01 c8                	add    %ecx,%eax
    3b76:	89 c7                	mov    %eax,%edi
    3b78:	50                   	push   %eax
    3b79:	50                   	push   %eax
    3b7a:	31 c0                	xor    %eax,%eax
    3b7c:	66 8b 07             	mov    (%edi),%ax
    3b7f:	50                   	push   %eax
    3b80:	31 c0                	xor    %eax,%eax
    3b82:	8a 46 3d             	mov    0x3d(%esi),%al
    3b85:	50                   	push   %eax
    3b86:	e8 15 1d 00 00       	call   58a0 <conv16>
    3b8b:	66 89 03             	mov    %ax,(%ebx)
    3b8e:	58                   	pop    %eax
    3b8f:	31 c0                	xor    %eax,%eax
    3b91:	66 8b 47 02          	mov    0x2(%edi),%ax
    3b95:	5a                   	pop    %edx
    3b96:	50                   	push   %eax
    3b97:	31 c0                	xor    %eax,%eax
    3b99:	8a 46 3d             	mov    0x3d(%esi),%al
    3b9c:	50                   	push   %eax
    3b9d:	e8 fe 1c 00 00       	call   58a0 <conv16>
    3ba2:	66 89 43 02          	mov    %ax,0x2(%ebx)
    3ba6:	59                   	pop    %ecx
    3ba7:	58                   	pop    %eax
    3ba8:	31 c0                	xor    %eax,%eax
    3baa:	66 8b 47 04          	mov    0x4(%edi),%ax
    3bae:	50                   	push   %eax
    3baf:	31 c0                	xor    %eax,%eax
    3bb1:	8a 46 3d             	mov    0x3d(%esi),%al
    3bb4:	50                   	push   %eax
    3bb5:	e8 e6 1c 00 00       	call   58a0 <conv16>
    3bba:	66 89 43 04          	mov    %ax,0x4(%ebx)
    3bbe:	58                   	pop    %eax
    3bbf:	31 c0                	xor    %eax,%eax
    3bc1:	66 8b 47 06          	mov    0x6(%edi),%ax
    3bc5:	5a                   	pop    %edx
    3bc6:	50                   	push   %eax
    3bc7:	31 c0                	xor    %eax,%eax
    3bc9:	8a 46 3d             	mov    0x3d(%esi),%al
    3bcc:	50                   	push   %eax
    3bcd:	e8 ce 1c 00 00       	call   58a0 <conv16>
    3bd2:	66 89 43 06          	mov    %ax,0x6(%ebx)
    3bd6:	59                   	pop    %ecx
    3bd7:	58                   	pop    %eax
    3bd8:	8b 47 08             	mov    0x8(%edi),%eax
    3bdb:	50                   	push   %eax
    3bdc:	31 c0                	xor    %eax,%eax
    3bde:	8a 46 3d             	mov    0x3d(%esi),%al
    3be1:	50                   	push   %eax
    3be2:	e8 d9 1c 00 00       	call   58c0 <conv32>
    3be7:	89 43 08             	mov    %eax,0x8(%ebx)
    3bea:	8b 4f 0c             	mov    0xc(%edi),%ecx
    3bed:	58                   	pop    %eax
    3bee:	31 c0                	xor    %eax,%eax
    3bf0:	8a 46 3d             	mov    0x3d(%esi),%al
    3bf3:	5a                   	pop    %edx
    3bf4:	51                   	push   %ecx
    3bf5:	50                   	push   %eax
    3bf6:	e8 c5 1c 00 00       	call   58c0 <conv32>
    3bfb:	8b 4f 10             	mov    0x10(%edi),%ecx
    3bfe:	89 43 0c             	mov    %eax,0xc(%ebx)
    3c01:	58                   	pop    %eax
    3c02:	31 c0                	xor    %eax,%eax
    3c04:	8a 46 3d             	mov    0x3d(%esi),%al
    3c07:	5a                   	pop    %edx
    3c08:	51                   	push   %ecx
    3c09:	50                   	push   %eax
    3c0a:	e8 b1 1c 00 00       	call   58c0 <conv32>
    3c0f:	8b 4f 14             	mov    0x14(%edi),%ecx
    3c12:	89 43 10             	mov    %eax,0x10(%ebx)
    3c15:	58                   	pop    %eax
    3c16:	31 c0                	xor    %eax,%eax
    3c18:	8a 46 3d             	mov    0x3d(%esi),%al
    3c1b:	5a                   	pop    %edx
    3c1c:	51                   	push   %ecx
    3c1d:	50                   	push   %eax
    3c1e:	e8 9d 1c 00 00       	call   58c0 <conv32>
    3c23:	31 d2                	xor    %edx,%edx
    3c25:	89 43 14             	mov    %eax,0x14(%ebx)
    3c28:	89 5d d4             	mov    %ebx,-0x2c(%ebp)
    3c2b:	83 c4 10             	add    $0x10,%esp
    3c2e:	89 d3                	mov    %edx,%ebx
    3c30:	50                   	push   %eax
    3c31:	50                   	push   %eax
    3c32:	8b 44 9f 18          	mov    0x18(%edi,%ebx,4),%eax
    3c36:	50                   	push   %eax
    3c37:	31 c0                	xor    %eax,%eax
    3c39:	8a 46 3d             	mov    0x3d(%esi),%al
    3c3c:	50                   	push   %eax
    3c3d:	e8 7e 1c 00 00       	call   58c0 <conv32>
    3c42:	8b 4d d4             	mov    -0x2c(%ebp),%ecx
    3c45:	83 c4 10             	add    $0x10,%esp
    3c48:	89 44 99 18          	mov    %eax,0x18(%ecx,%ebx,4)
    3c4c:	43                   	inc    %ebx
    3c4d:	83 fb 07             	cmp    $0x7,%ebx
    3c50:	75 de                	jne    3c30 <mfs_get_inode+0x140>
    3c52:	89 75 d4             	mov    %esi,-0x2c(%ebp)
    3c55:	89 cb                	mov    %ecx,%ebx
    3c57:	8b 75 d0             	mov    -0x30(%ebp),%esi
    3c5a:	52                   	push   %edx
    3c5b:	52                   	push   %edx
    3c5c:	8b 55 d4             	mov    -0x2c(%ebp),%edx
    3c5f:	31 c0                	xor    %eax,%eax
    3c61:	8b 4c b7 34          	mov    0x34(%edi,%esi,4),%ecx
    3c65:	8a 42 3d             	mov    0x3d(%edx),%al
    3c68:	51                   	push   %ecx
    3c69:	50                   	push   %eax
    3c6a:	e8 51 1c 00 00       	call   58c0 <conv32>
    3c6f:	89 44 b3 34          	mov    %eax,0x34(%ebx,%esi,4)
    3c73:	46                   	inc    %esi
    3c74:	83 c4 10             	add    $0x10,%esp
    3c77:	83 fe 03             	cmp    $0x3,%esi
    3c7a:	75 de                	jne    3c5a <mfs_get_inode+0x16a>
    3c7c:	83 ec 0c             	sub    $0xc,%esp
    3c7f:	8b 45 e4             	mov    -0x1c(%ebp),%eax
    3c82:	50                   	push   %eax
    3c83:	e8 58 24 00 00       	call   60e0 <block_put>
    3c88:	8b 55 0c             	mov    0xc(%ebp),%edx
    3c8b:	c6 43 40 00          	movb   $0x0,0x40(%ebx)
    3c8f:	83 c4 10             	add    $0x10,%esp
    3c92:	89 1a                	mov    %ebx,(%edx)
    3c94:	8d 65 f4             	lea    -0xc(%ebp),%esp
    3c97:	5b                   	pop    %ebx
    3c98:	5e                   	pop    %esi
    3c99:	5f                   	pop    %edi
    3c9a:	5d                   	pop    %ebp
    3c9b:	c3                   	ret    
    3c9c:	8d 74 26 00          	lea    0x0(%esi,%eiz,1),%esi
    3ca0:	83 ec 0c             	sub    $0xc,%esp
    3ca3:	8b 43 2c             	mov    0x2c(%ebx),%eax
    3ca6:	89 45 d4             	mov    %eax,-0x2c(%ebp)
    3ca9:	6a 48                	push   $0x48
    3cab:	e8 40 51 00 00       	call   8df0 <malloc@plt>
    3cb0:	83 c4 10             	add    $0x10,%esp
    3cb3:	89 c6                	mov    %eax,%esi
    3cb5:	85 c0                	test   %eax,%eax
    3cb7:	0f 84 9e fe ff ff    	je     3b5b <mfs_get_inode+0x6b>
    3cbd:	8b 45 10             	mov    0x10(%ebp),%eax
    3cc0:	83 ec 0c             	sub    $0xc,%esp
    3cc3:	48                   	dec    %eax
    3cc4:	89 c1                	mov    %eax,%ecx
    3cc6:	6a 00                	push   $0x0
    3cc8:	81 e1 ff ff 00 00    	and    $0xffff,%ecx
    3cce:	89 ca                	mov    %ecx,%edx
    3cd0:	89 c8                	mov    %ecx,%eax
    3cd2:	c1 fa 1f             	sar    $0x1f,%edx
    3cd5:	89 4d d0             	mov    %ecx,-0x30(%ebp)
    3cd8:	f7 7b 2c             	idivl  0x2c(%ebx)
    3cdb:	8b 53 34             	mov    0x34(%ebx),%edx
    3cde:	8b 0f                	mov    (%edi),%ecx
    3ce0:	01 d0                	add    %edx,%eax
    3ce2:	89 c2                	mov    %eax,%edx
    3ce4:	c1 fa 1f             	sar    $0x1f,%edx
    3ce7:	52                   	push   %edx
    3ce8:	50                   	push   %eax
    3ce9:	8d 45 e4             	lea    -0x1c(%ebp),%eax
    3cec:	51                   	push   %ecx
    3ced:	50                   	push   %eax
    3cee:	e8 ed 26 00 00       	call   63e0 <block_get>
    3cf3:	83 c4 20             	add    $0x20,%esp
    3cf6:	89 c7                	mov    %eax,%edi
    3cf8:	85 c0                	test   %eax,%eax
    3cfa:	74 1c                	je     3d18 <mfs_get_inode+0x228>
    3cfc:	83 ec 0c             	sub    $0xc,%esp
    3cff:	56                   	push   %esi
    3d00:	e8 ab 53 00 00       	call   90b0 <free@plt>
    3d05:	83 c4 10             	add    $0x10,%esp
    3d08:	8d 65 f4             	lea    -0xc(%ebp),%esp
    3d0b:	31 c0                	xor    %eax,%eax
    3d0d:	5b                   	pop    %ebx
    3d0e:	5e                   	pop    %esi
    3d0f:	5f                   	pop    %edi
    3d10:	5d                   	pop    %ebp
    3d11:	c3                   	ret    
    3d12:	8d b6 00 00 00 00    	lea    0x0(%esi),%esi
    3d18:	8b 45 d0             	mov    -0x30(%ebp),%eax
    3d1b:	89 c2                	mov    %eax,%edx
    3d1d:	c1 fa 1f             	sar    $0x1f,%edx
    3d20:	f7 7d d4             	idivl  -0x2c(%ebp)
    3d23:	c1 e2 05             	shl    $0x5,%edx
    3d26:	8b 45 e4             	mov    -0x1c(%ebp),%eax
    3d29:	8b 48 58             	mov    0x58(%eax),%ecx
    3d2c:	50                   	push   %eax
    3d2d:	01 ca                	add    %ecx,%edx
    3d2f:	50                   	push   %eax
    3d30:	31 c0                	xor    %eax,%eax
    3d32:	89 55 d4             	mov    %edx,-0x2c(%ebp)
    3d35:	66 8b 02             	mov    (%edx),%ax
    3d38:	50                   	push   %eax
    3d39:	31 c0                	xor    %eax,%eax
    3d3b:	8a 43 3d             	mov    0x3d(%ebx),%al
    3d3e:	50                   	push   %eax
    3d3f:	e8 5c 1b 00 00       	call   58a0 <conv16>
    3d44:	66 89 06             	mov    %ax,(%esi)
    3d47:	58                   	pop    %eax
    3d48:	5a                   	pop    %edx
    3d49:	8b 55 d4             	mov    -0x2c(%ebp),%edx
    3d4c:	31 c0                	xor    %eax,%eax
    3d4e:	66 8b 42 02          	mov    0x2(%edx),%ax
    3d52:	50                   	push   %eax
    3d53:	31 c0                	xor    %eax,%eax
    3d55:	8a 43 3d             	mov    0x3d(%ebx),%al
    3d58:	50                   	push   %eax
    3d59:	e8 42 1b 00 00       	call   58a0 <conv16>
    3d5e:	8b 55 d4             	mov    -0x2c(%ebp),%edx
    3d61:	66 89 46 04          	mov    %ax,0x4(%esi)
    3d65:	59                   	pop    %ecx
    3d66:	58                   	pop    %eax
    3d67:	8b 42 04             	mov    0x4(%edx),%eax
    3d6a:	50                   	push   %eax
    3d6b:	31 c0                	xor    %eax,%eax
    3d6d:	8a 43 3d             	mov    0x3d(%ebx),%al
    3d70:	50                   	push   %eax
    3d71:	e8 4a 1b 00 00       	call   58c0 <conv32>
    3d76:	89 46 08             	mov    %eax,0x8(%esi)
    3d79:	58                   	pop    %eax
    3d7a:	5a                   	pop    %edx
    3d7b:	8b 55 d4             	mov    -0x2c(%ebp),%edx
    3d7e:	31 c0                	xor    %eax,%eax
    3d80:	8a 43 3d             	mov    0x3d(%ebx),%al
    3d83:	8b 4a 08             	mov    0x8(%edx),%ecx
    3d86:	51                   	push   %ecx
    3d87:	50                   	push   %eax
    3d88:	e8 33 1b 00 00       	call   58c0 <conv32>
    3d8d:	8b 55 d4             	mov    -0x2c(%ebp),%edx
    3d90:	89 46 10             	mov    %eax,0x10(%esi)
    3d93:	31 c0                	xor    %eax,%eax
    3d95:	8a 42 0d             	mov    0xd(%edx),%al
    3d98:	83 c4 10             	add    $0x10,%esp
    3d9b:	66 89 46 02          	mov    %ax,0x2(%esi)
    3d9f:	90                   	nop
    3da0:	8b 4d d4             	mov    -0x2c(%ebp),%ecx
    3da3:	50                   	push   %eax
    3da4:	50                   	push   %eax
    3da5:	31 c0                	xor    %eax,%eax
    3da7:	66 8b 44 79 0e       	mov    0xe(%ecx,%edi,2),%ax
    3dac:	50                   	push   %eax
    3dad:	31 c0                	xor    %eax,%eax
    3daf:	8a 43 3d             	mov    0x3d(%ebx),%al
    3db2:	50                   	push   %eax
    3db3:	e8 e8 1a 00 00       	call   58a0 <conv16>
    3db8:	25 ff ff 00 00       	and    $0xffff,%eax
    3dbd:	83 c4 10             	add    $0x10,%esp
    3dc0:	89 44 be 18          	mov    %eax,0x18(%esi,%edi,4)
    3dc4:	47                   	inc    %edi
    3dc5:	83 ff 07             	cmp    $0x7,%edi
    3dc8:	75 d6                	jne    3da0 <mfs_get_inode+0x2b0>
    3dca:	57                   	push   %edi
    3dcb:	57                   	push   %edi
    3dcc:	8b 7d d4             	mov    -0x2c(%ebp),%edi
    3dcf:	31 c0                	xor    %eax,%eax
    3dd1:	66 8b 47 1c          	mov    0x1c(%edi),%ax
    3dd5:	50                   	push   %eax
    3dd6:	31 c0                	xor    %eax,%eax
    3dd8:	8a 43 3d             	mov    0x3d(%ebx),%al
    3ddb:	50                   	push   %eax
    3ddc:	e8 bf 1a 00 00       	call   58a0 <conv16>
    3de1:	25 ff ff 00 00       	and    $0xffff,%eax
    3de6:	89 46 34             	mov    %eax,0x34(%esi)
    3de9:	58                   	pop    %eax
    3dea:	31 c0                	xor    %eax,%eax
    3dec:	66 8b 47 1e          	mov    0x1e(%edi),%ax
    3df0:	5a                   	pop    %edx
    3df1:	50                   	push   %eax
    3df2:	31 c0                	xor    %eax,%eax
    3df4:	8a 43 3d             	mov    0x3d(%ebx),%al
    3df7:	50                   	push   %eax
    3df8:	e8 a3 1a 00 00       	call   58a0 <conv16>
    3dfd:	25 ff ff 00 00       	and    $0xffff,%eax
    3e02:	8b 5d e4             	mov    -0x1c(%ebp),%ebx
    3e05:	89 46 38             	mov    %eax,0x38(%esi)
    3e08:	59                   	pop    %ecx
    3e09:	53                   	push   %ebx
    3e0a:	e8 d1 22 00 00       	call   60e0 <block_put>
    3e0f:	8b 4d 0c             	mov    0xc(%ebp),%ecx
    3e12:	c6 46 40 00          	movb   $0x0,0x40(%esi)
    3e16:	89 31                	mov    %esi,(%ecx)
    3e18:	83 c4 10             	add    $0x10,%esp
    3e1b:	e9 3d fd ff ff       	jmp    3b5d <mfs_get_inode+0x6d>

00003e20 <mfs_put_inode>:
    3e20:	55                   	push   %ebp
    3e21:	89 e5                	mov    %esp,%ebp
    3e23:	57                   	push   %edi
    3e24:	56                   	push   %esi
    3e25:	53                   	push   %ebx
    3e26:	83 ec 2c             	sub    $0x2c,%esp
    3e29:	31 ff                	xor    %edi,%edi
    3e2b:	8b 45 08             	mov    0x8(%ebp),%eax
    3e2e:	8b 18                	mov    (%eax),%ebx
    3e30:	80 7b 40 00          	cmpb   $0x0,0x40(%ebx)
    3e34:	74 43                	je     3e79 <mfs_put_inode+0x59>
    3e36:	8b 78 04             	mov    0x4(%eax),%edi
    3e39:	8b 43 44             	mov    0x44(%ebx),%eax
    3e3c:	8b 4f 04             	mov    0x4(%edi),%ecx
    3e3f:	83 79 28 01          	cmpl   $0x1,0x28(%ecx)
    3e43:	0f 84 6f 01 00 00    	je     3fb8 <mfs_put_inode+0x198>
    3e49:	83 ec 0c             	sub    $0xc,%esp
    3e4c:	48                   	dec    %eax
    3e4d:	0f b6 71 3d          	movzbl 0x3d(%ecx),%esi
    3e51:	31 d2                	xor    %edx,%edx
    3e53:	6a 00                	push   $0x0
    3e55:	f7 71 2c             	divl   0x2c(%ecx)
    3e58:	89 55 d4             	mov    %edx,-0x2c(%ebp)
    3e5b:	8b 51 34             	mov    0x34(%ecx),%edx
    3e5e:	01 d0                	add    %edx,%eax
    3e60:	31 d2                	xor    %edx,%edx
    3e62:	52                   	push   %edx
    3e63:	8b 0f                	mov    (%edi),%ecx
    3e65:	50                   	push   %eax
    3e66:	8d 45 e4             	lea    -0x1c(%ebp),%eax
    3e69:	51                   	push   %ecx
    3e6a:	50                   	push   %eax
    3e6b:	e8 70 25 00 00       	call   63e0 <block_get>
    3e70:	83 c4 20             	add    $0x20,%esp
    3e73:	89 c7                	mov    %eax,%edi
    3e75:	85 c0                	test   %eax,%eax
    3e77:	74 0f                	je     3e88 <mfs_put_inode+0x68>
    3e79:	8d 65 f4             	lea    -0xc(%ebp),%esp
    3e7c:	89 f8                	mov    %edi,%eax
    3e7e:	5b                   	pop    %ebx
    3e7f:	5e                   	pop    %esi
    3e80:	5f                   	pop    %edi
    3e81:	5d                   	pop    %ebp
    3e82:	c3                   	ret    
    3e83:	90                   	nop
    3e84:	8d 74 26 00          	lea    0x0(%esi,%eiz,1),%esi
    3e88:	8b 4d e4             	mov    -0x1c(%ebp),%ecx
    3e8b:	8b 45 d4             	mov    -0x2c(%ebp),%eax
    3e8e:	c1 e0 06             	shl    $0x6,%eax
    3e91:	8b 51 58             	mov    0x58(%ecx),%edx
    3e94:	51                   	push   %ecx
    3e95:	01 d0                	add    %edx,%eax
    3e97:	51                   	push   %ecx
    3e98:	89 45 cc             	mov    %eax,-0x34(%ebp)
    3e9b:	89 f0                	mov    %esi,%eax
    3e9d:	25 ff 00 00 00       	and    $0xff,%eax
    3ea2:	89 c2                	mov    %eax,%edx
    3ea4:	31 c0                	xor    %eax,%eax
    3ea6:	66 8b 03             	mov    (%ebx),%ax
    3ea9:	89 55 d4             	mov    %edx,-0x2c(%ebp)
    3eac:	50                   	push   %eax
    3ead:	52                   	push   %edx
    3eae:	e8 ed 19 00 00       	call   58a0 <conv16>
    3eb3:	8b 75 cc             	mov    -0x34(%ebp),%esi
    3eb6:	66 89 06             	mov    %ax,(%esi)
    3eb9:	8b 4d d4             	mov    -0x2c(%ebp),%ecx
    3ebc:	58                   	pop    %eax
    3ebd:	31 c0                	xor    %eax,%eax
    3ebf:	66 8b 43 02          	mov    0x2(%ebx),%ax
    3ec3:	5a                   	pop    %edx
    3ec4:	50                   	push   %eax
    3ec5:	51                   	push   %ecx
    3ec6:	e8 d5 19 00 00       	call   58a0 <conv16>
    3ecb:	8b 4d d4             	mov    -0x2c(%ebp),%ecx
    3ece:	66 89 46 02          	mov    %ax,0x2(%esi)
    3ed2:	58                   	pop    %eax
    3ed3:	31 c0                	xor    %eax,%eax
    3ed5:	66 8b 43 04          	mov    0x4(%ebx),%ax
    3ed9:	5a                   	pop    %edx
    3eda:	50                   	push   %eax
    3edb:	51                   	push   %ecx
    3edc:	e8 bf 19 00 00       	call   58a0 <conv16>
    3ee1:	8b 4d d4             	mov    -0x2c(%ebp),%ecx
    3ee4:	66 89 46 04          	mov    %ax,0x4(%esi)
    3ee8:	58                   	pop    %eax
    3ee9:	31 c0                	xor    %eax,%eax
    3eeb:	66 8b 43 06          	mov    0x6(%ebx),%ax
    3eef:	5a                   	pop    %edx
    3ef0:	50                   	push   %eax
    3ef1:	51                   	push   %ecx
    3ef2:	e8 a9 19 00 00       	call   58a0 <conv16>
    3ef7:	8b 4b 08             	mov    0x8(%ebx),%ecx
    3efa:	66 89 46 06          	mov    %ax,0x6(%esi)
    3efe:	58                   	pop    %eax
    3eff:	8b 45 d4             	mov    -0x2c(%ebp),%eax
    3f02:	5a                   	pop    %edx
    3f03:	51                   	push   %ecx
    3f04:	50                   	push   %eax
    3f05:	e8 b6 19 00 00       	call   58c0 <conv32>
    3f0a:	89 46 08             	mov    %eax,0x8(%esi)
    3f0d:	8b 4b 0c             	mov    0xc(%ebx),%ecx
    3f10:	58                   	pop    %eax
    3f11:	8b 45 d4             	mov    -0x2c(%ebp),%eax
    3f14:	5a                   	pop    %edx
    3f15:	51                   	push   %ecx
    3f16:	50                   	push   %eax
    3f17:	e8 a4 19 00 00       	call   58c0 <conv32>
    3f1c:	89 46 0c             	mov    %eax,0xc(%esi)
    3f1f:	8b 4b 10             	mov    0x10(%ebx),%ecx
    3f22:	58                   	pop    %eax
    3f23:	8b 45 d4             	mov    -0x2c(%ebp),%eax
    3f26:	5a                   	pop    %edx
    3f27:	51                   	push   %ecx
    3f28:	50                   	push   %eax
    3f29:	e8 92 19 00 00       	call   58c0 <conv32>
    3f2e:	89 46 10             	mov    %eax,0x10(%esi)
    3f31:	8b 4b 14             	mov    0x14(%ebx),%ecx
    3f34:	58                   	pop    %eax
    3f35:	8b 45 d4             	mov    -0x2c(%ebp),%eax
    3f38:	5a                   	pop    %edx
    3f39:	51                   	push   %ecx
    3f3a:	50                   	push   %eax
    3f3b:	e8 80 19 00 00       	call   58c0 <conv32>
    3f40:	83 c4 10             	add    $0x10,%esp
    3f43:	89 46 14             	mov    %eax,0x14(%esi)
    3f46:	31 c9                	xor    %ecx,%ecx
    3f48:	56                   	push   %esi
    3f49:	56                   	push   %esi
    3f4a:	8b 44 8b 18          	mov    0x18(%ebx,%ecx,4),%eax
    3f4e:	89 4d d0             	mov    %ecx,-0x30(%ebp)
    3f51:	50                   	push   %eax
    3f52:	8b 45 d4             	mov    -0x2c(%ebp),%eax
    3f55:	50                   	push   %eax
    3f56:	e8 65 19 00 00       	call   58c0 <conv32>
    3f5b:	8b 4d d0             	mov    -0x30(%ebp),%ecx
    3f5e:	8b 55 cc             	mov    -0x34(%ebp),%edx
    3f61:	83 c4 10             	add    $0x10,%esp
    3f64:	89 44 8a 18          	mov    %eax,0x18(%edx,%ecx,4)
    3f68:	41                   	inc    %ecx
    3f69:	83 f9 07             	cmp    $0x7,%ecx
    3f6c:	75 da                	jne    3f48 <mfs_put_inode+0x128>
    3f6e:	50                   	push   %eax
    3f6f:	50                   	push   %eax
    3f70:	8b 54 bb 34          	mov    0x34(%ebx,%edi,4),%edx
    3f74:	8b 4d d4             	mov    -0x2c(%ebp),%ecx
    3f77:	52                   	push   %edx
    3f78:	51                   	push   %ecx
    3f79:	e8 42 19 00 00       	call   58c0 <conv32>
    3f7e:	8b 55 cc             	mov    -0x34(%ebp),%edx
    3f81:	83 c4 10             	add    $0x10,%esp
    3f84:	89 44 ba 34          	mov    %eax,0x34(%edx,%edi,4)
    3f88:	47                   	inc    %edi
    3f89:	83 ff 03             	cmp    $0x3,%edi
    3f8c:	75 e0                	jne    3f6e <mfs_put_inode+0x14e>
    3f8e:	8b 45 e4             	mov    -0x1c(%ebp),%eax
    3f91:	83 ec 0c             	sub    $0xc,%esp
    3f94:	c6 40 14 01          	movb   $0x1,0x14(%eax)
    3f98:	50                   	push   %eax
    3f99:	e8 42 21 00 00       	call   60e0 <block_put>
    3f9e:	c6 43 40 00          	movb   $0x0,0x40(%ebx)
    3fa2:	83 c4 10             	add    $0x10,%esp
    3fa5:	8d 65 f4             	lea    -0xc(%ebp),%esp
    3fa8:	89 c7                	mov    %eax,%edi
    3faa:	5b                   	pop    %ebx
    3fab:	89 f8                	mov    %edi,%eax
    3fad:	5e                   	pop    %esi
    3fae:	5f                   	pop    %edi
    3faf:	5d                   	pop    %ebp
    3fb0:	c3                   	ret    
    3fb1:	8d b4 26 00 00 00 00 	lea    0x0(%esi,%eiz,1),%esi
    3fb8:	83 ec 0c             	sub    $0xc,%esp
    3fbb:	8a 51 3d             	mov    0x3d(%ecx),%dl
    3fbe:	48                   	dec    %eax
    3fbf:	88 55 d4             	mov    %dl,-0x2c(%ebp)
    3fc2:	6a 00                	push   $0x0
    3fc4:	31 d2                	xor    %edx,%edx
    3fc6:	f7 71 2c             	divl   0x2c(%ecx)
    3fc9:	89 d6                	mov    %edx,%esi
    3fcb:	8b 51 34             	mov    0x34(%ecx),%edx
    3fce:	01 d0                	add    %edx,%eax
    3fd0:	31 d2                	xor    %edx,%edx
    3fd2:	52                   	push   %edx
    3fd3:	8b 0f                	mov    (%edi),%ecx
    3fd5:	50                   	push   %eax
    3fd6:	8d 45 e4             	lea    -0x1c(%ebp),%eax
    3fd9:	51                   	push   %ecx
    3fda:	50                   	push   %eax
    3fdb:	e8 00 24 00 00       	call   63e0 <block_get>
    3fe0:	83 c4 20             	add    $0x20,%esp
    3fe3:	89 c7                	mov    %eax,%edi
    3fe5:	85 c0                	test   %eax,%eax
    3fe7:	0f 85 8c fe ff ff    	jne    3e79 <mfs_put_inode+0x59>
    3fed:	8b 4d e4             	mov    -0x1c(%ebp),%ecx
    3ff0:	89 f0                	mov    %esi,%eax
    3ff2:	c1 e0 05             	shl    $0x5,%eax
    3ff5:	8b 51 58             	mov    0x58(%ecx),%edx
    3ff8:	51                   	push   %ecx
    3ff9:	01 d0                	add    %edx,%eax
    3ffb:	51                   	push   %ecx
    3ffc:	89 c6                	mov    %eax,%esi
    3ffe:	8a 45 d4             	mov    -0x2c(%ebp),%al
    4001:	25 ff 00 00 00       	and    $0xff,%eax
    4006:	89 c2                	mov    %eax,%edx
    4008:	31 c0                	xor    %eax,%eax
    400a:	66 8b 03             	mov    (%ebx),%ax
    400d:	89 55 d4             	mov    %edx,-0x2c(%ebp)
    4010:	50                   	push   %eax
    4011:	52                   	push   %edx
    4012:	e8 89 18 00 00       	call   58a0 <conv16>
    4017:	8b 4d d4             	mov    -0x2c(%ebp),%ecx
    401a:	66 89 06             	mov    %ax,(%esi)
    401d:	58                   	pop    %eax
    401e:	31 c0                	xor    %eax,%eax
    4020:	66 8b 43 04          	mov    0x4(%ebx),%ax
    4024:	5a                   	pop    %edx
    4025:	50                   	push   %eax
    4026:	51                   	push   %ecx
    4027:	e8 74 18 00 00       	call   58a0 <conv16>
    402c:	66 89 46 02          	mov    %ax,0x2(%esi)
    4030:	8a 43 06             	mov    0x6(%ebx),%al
    4033:	88 46 0c             	mov    %al,0xc(%esi)
    4036:	8a 43 02             	mov    0x2(%ebx),%al
    4039:	88 46 0d             	mov    %al,0xd(%esi)
    403c:	58                   	pop    %eax
    403d:	8b 4b 08             	mov    0x8(%ebx),%ecx
    4040:	8b 45 d4             	mov    -0x2c(%ebp),%eax
    4043:	5a                   	pop    %edx
    4044:	51                   	push   %ecx
    4045:	50                   	push   %eax
    4046:	e8 75 18 00 00       	call   58c0 <conv32>
    404b:	8b 4b 10             	mov    0x10(%ebx),%ecx
    404e:	89 46 04             	mov    %eax,0x4(%esi)
    4051:	58                   	pop    %eax
    4052:	8b 45 d4             	mov    -0x2c(%ebp),%eax
    4055:	5a                   	pop    %edx
    4056:	51                   	push   %ecx
    4057:	50                   	push   %eax
    4058:	e8 63 18 00 00       	call   58c0 <conv32>
    405d:	83 c4 10             	add    $0x10,%esp
    4060:	89 46 08             	mov    %eax,0x8(%esi)
    4063:	90                   	nop
    4064:	8d 74 26 00          	lea    0x0(%esi,%eiz,1),%esi
    4068:	31 c0                	xor    %eax,%eax
    406a:	51                   	push   %ecx
    406b:	51                   	push   %ecx
    406c:	66 8b 44 bb 18       	mov    0x18(%ebx,%edi,4),%ax
    4071:	50                   	push   %eax
    4072:	8b 45 d4             	mov    -0x2c(%ebp),%eax
    4075:	50                   	push   %eax
    4076:	e8 25 18 00 00       	call   58a0 <conv16>
    407b:	66 89 44 7e 0e       	mov    %ax,0xe(%esi,%edi,2)
    4080:	47                   	inc    %edi
    4081:	83 c4 10             	add    $0x10,%esp
    4084:	83 ff 07             	cmp    $0x7,%edi
    4087:	75 df                	jne    4068 <mfs_put_inode+0x248>
    4089:	31 c0                	xor    %eax,%eax
    408b:	57                   	push   %edi
    408c:	57                   	push   %edi
    408d:	8b 7d d4             	mov    -0x2c(%ebp),%edi
    4090:	66 8b 43 34          	mov    0x34(%ebx),%ax
    4094:	50                   	push   %eax
    4095:	57                   	push   %edi
    4096:	e8 05 18 00 00       	call   58a0 <conv16>
    409b:	66 89 46 1c          	mov    %ax,0x1c(%esi)
    409f:	58                   	pop    %eax
    40a0:	31 c0                	xor    %eax,%eax
    40a2:	66 8b 43 38          	mov    0x38(%ebx),%ax
    40a6:	5a                   	pop    %edx
    40a7:	50                   	push   %eax
    40a8:	57                   	push   %edi
    40a9:	e8 f2 17 00 00       	call   58a0 <conv16>
    40ae:	66 89 46 1e          	mov    %ax,0x1e(%esi)
    40b2:	8b 45 e4             	mov    -0x1c(%ebp),%eax
    40b5:	c6 40 14 01          	movb   $0x1,0x14(%eax)
    40b9:	89 04 24             	mov    %eax,(%esp)
    40bc:	e8 1f 20 00 00       	call   60e0 <block_put>
    40c1:	c6 43 40 00          	movb   $0x0,0x40(%ebx)
    40c5:	89 c7                	mov    %eax,%edi
    40c7:	83 c4 10             	add    $0x10,%esp
    40ca:	e9 aa fd ff ff       	jmp    3e79 <mfs_put_inode+0x59>
    40cf:	90                   	nop

000040d0 <mfs_inode_shrink>:
    40d0:	55                   	push   %ebp
    40d1:	89 e5                	mov    %esp,%ebp
    40d3:	57                   	push   %edi
    40d4:	56                   	push   %esi
    40d5:	53                   	push   %ebx
    40d6:	83 ec 2c             	sub    $0x2c,%esp
    40d9:	8b 7d 0c             	mov    0xc(%ebp),%edi
    40dc:	85 ff                	test   %edi,%edi
    40de:	0f 84 a4 00 00 00    	je     4188 <mfs_inode_shrink+0xb8>
    40e4:	8b 45 08             	mov    0x8(%ebp),%eax
    40e7:	8b 30                	mov    (%eax),%esi
    40e9:	8b 46 08             	mov    0x8(%esi),%eax
    40ec:	89 45 cc             	mov    %eax,-0x34(%ebp)
    40ef:	39 45 0c             	cmp    %eax,0xc(%ebp)
    40f2:	0f 87 c2 00 00 00    	ja     41ba <mfs_inode_shrink+0xea>
    40f8:	8b 45 08             	mov    0x8(%ebp),%eax
    40fb:	31 d2                	xor    %edx,%edx
    40fd:	c7 45 d4 00 00 00 00 	movl   $0x0,-0x2c(%ebp)
    4104:	8b 40 04             	mov    0x4(%eax),%eax
    4107:	8b 40 04             	mov    0x4(%eax),%eax
    410a:	8b 78 18             	mov    0x18(%eax),%edi
    410d:	8b 45 0c             	mov    0xc(%ebp),%eax
    4110:	f7 f7                	div    %edi
    4112:	83 fa 01             	cmp    $0x1,%edx
    4115:	8b 55 cc             	mov    -0x34(%ebp),%edx
    4118:	83 d8 ff             	sbb    $0xffffffff,%eax
    411b:	c6 46 40 01          	movb   $0x1,0x40(%esi)
    411f:	89 45 d0             	mov    %eax,-0x30(%ebp)
    4122:	8d 5a ff             	lea    -0x1(%edx),%ebx
    4125:	85 c0                	test   %eax,%eax
    4127:	75 18                	jne    4141 <mfs_inode_shrink+0x71>
    4129:	eb 6d                	jmp    4198 <mfs_inode_shrink+0xc8>
    412b:	90                   	nop
    412c:	8d 74 26 00          	lea    0x0(%esi,%eiz,1),%esi
    4130:	8b 45 d4             	mov    -0x2c(%ebp),%eax
    4133:	29 fb                	sub    %edi,%ebx
    4135:	40                   	inc    %eax
    4136:	89 45 d4             	mov    %eax,-0x2c(%ebp)
    4139:	8b 45 d4             	mov    -0x2c(%ebp),%eax
    413c:	39 45 d0             	cmp    %eax,-0x30(%ebp)
    413f:	74 57                	je     4198 <mfs_inode_shrink+0xc8>
    4141:	8d 45 e4             	lea    -0x1c(%ebp),%eax
    4144:	50                   	push   %eax
    4145:	8b 45 08             	mov    0x8(%ebp),%eax
    4148:	6a 00                	push   $0x0
    414a:	53                   	push   %ebx
    414b:	50                   	push   %eax
    414c:	e8 ef 03 00 00       	call   4540 <mfs_write_map>
    4151:	83 c4 10             	add    $0x10,%esp
    4154:	85 c0                	test   %eax,%eax
    4156:	75 25                	jne    417d <mfs_inode_shrink+0xad>
    4158:	8b 46 08             	mov    0x8(%esi),%eax
    415b:	29 f8                	sub    %edi,%eax
    415d:	89 46 08             	mov    %eax,0x8(%esi)
    4160:	8b 45 e4             	mov    -0x1c(%ebp),%eax
    4163:	85 c0                	test   %eax,%eax
    4165:	74 c9                	je     4130 <mfs_inode_shrink+0x60>
    4167:	52                   	push   %edx
    4168:	52                   	push   %edx
    4169:	50                   	push   %eax
    416a:	8b 45 08             	mov    0x8(%ebp),%eax
    416d:	8b 48 04             	mov    0x4(%eax),%ecx
    4170:	51                   	push   %ecx
    4171:	e8 da 15 00 00       	call   5750 <mfs_free_zone>
    4176:	83 c4 10             	add    $0x10,%esp
    4179:	85 c0                	test   %eax,%eax
    417b:	74 b3                	je     4130 <mfs_inode_shrink+0x60>
    417d:	8d 65 f4             	lea    -0xc(%ebp),%esp
    4180:	5b                   	pop    %ebx
    4181:	5e                   	pop    %esi
    4182:	5f                   	pop    %edi
    4183:	5d                   	pop    %ebp
    4184:	c3                   	ret    
    4185:	8d 76 00             	lea    0x0(%esi),%esi
    4188:	8d 65 f4             	lea    -0xc(%ebp),%esp
    418b:	31 c0                	xor    %eax,%eax
    418d:	5b                   	pop    %ebx
    418e:	5e                   	pop    %esi
    418f:	5f                   	pop    %edi
    4190:	5d                   	pop    %ebp
    4191:	c3                   	ret    
    4192:	8d b6 00 00 00 00    	lea    0x0(%esi),%esi
    4198:	8b 45 cc             	mov    -0x34(%ebp),%eax
    419b:	8b 55 0c             	mov    0xc(%ebp),%edx
    419e:	8b 5d 08             	mov    0x8(%ebp),%ebx
    41a1:	29 d0                	sub    %edx,%eax
    41a3:	89 46 08             	mov    %eax,0x8(%esi)
    41a6:	51                   	push   %ecx
    41a7:	51                   	push   %ecx
    41a8:	50                   	push   %eax
    41a9:	53                   	push   %ebx
    41aa:	e8 41 07 00 00       	call   48f0 <mfs_prune_ind_zones>
    41af:	83 c4 10             	add    $0x10,%esp
    41b2:	8d 65 f4             	lea    -0xc(%ebp),%esp
    41b5:	5b                   	pop    %ebx
    41b6:	5e                   	pop    %esi
    41b7:	5f                   	pop    %edi
    41b8:	5d                   	pop    %ebp
    41b9:	c3                   	ret    
    41ba:	56                   	push   %esi
    41bb:	68 4f 01 00 00       	push   $0x14f
    41c0:	68 59 88 00 00       	push   $0x8859
    41c5:	68 65 88 00 00       	push   $0x8865
    41ca:	e8 e1 4c 00 00       	call   8eb0 <assert_abort@plt>
    41cf:	90                   	nop

000041d0 <read_ind_zone.isra.2>:
    41d0:	55                   	push   %ebp
    41d1:	89 e5                	mov    %esp,%ebp
    41d3:	57                   	push   %edi
    41d4:	56                   	push   %esi
    41d5:	53                   	push   %ebx
    41d6:	83 ec 38             	sub    $0x38,%esp
    41d9:	89 c3                	mov    %eax,%ebx
    41db:	8b 75 08             	mov    0x8(%ebp),%esi
    41de:	89 d7                	mov    %edx,%edi
    41e0:	68 00 20 00 00       	push   $0x2000
    41e5:	89 4d d4             	mov    %ecx,-0x2c(%ebp)
    41e8:	e8 03 4c 00 00       	call   8df0 <malloc@plt>
    41ed:	83 c4 10             	add    $0x10,%esp
    41f0:	89 06                	mov    %eax,(%esi)
    41f2:	85 c0                	test   %eax,%eax
    41f4:	0f 84 ea 00 00 00    	je     42e4 <read_ind_zone.isra.2+0x114>
    41fa:	83 ec 0c             	sub    $0xc,%esp
    41fd:	31 d2                	xor    %edx,%edx
    41ff:	8b 4d d4             	mov    -0x2c(%ebp),%ecx
    4202:	6a 00                	push   $0x0
    4204:	52                   	push   %edx
    4205:	8b 03                	mov    (%ebx),%eax
    4207:	51                   	push   %ecx
    4208:	50                   	push   %eax
    4209:	8d 45 e4             	lea    -0x1c(%ebp),%eax
    420c:	50                   	push   %eax
    420d:	e8 ce 21 00 00       	call   63e0 <block_get>
    4212:	83 c4 20             	add    $0x20,%esp
    4215:	85 c0                	test   %eax,%eax
    4217:	0f 85 ab 00 00 00    	jne    42c8 <read_ind_zone.isra.2+0xf8>
    421d:	8b 45 e4             	mov    -0x1c(%ebp),%eax
    4220:	8b 4f 18             	mov    0x18(%edi),%ecx
    4223:	83 7f 28 01          	cmpl   $0x1,0x28(%edi)
    4227:	8b 50 58             	mov    0x58(%eax),%edx
    422a:	89 55 d0             	mov    %edx,-0x30(%ebp)
    422d:	74 51                	je     4280 <read_ind_zone.isra.2+0xb0>
    422f:	c1 e9 02             	shr    $0x2,%ecx
    4232:	74 36                	je     426a <read_ind_zone.isra.2+0x9a>
    4234:	31 db                	xor    %ebx,%ebx
    4236:	66 90                	xchg   %ax,%ax
    4238:	8b 06                	mov    (%esi),%eax
    423a:	8d 0c 98             	lea    (%eax,%ebx,4),%ecx
    423d:	50                   	push   %eax
    423e:	50                   	push   %eax
    423f:	8b 45 d0             	mov    -0x30(%ebp),%eax
    4242:	89 4d d4             	mov    %ecx,-0x2c(%ebp)
    4245:	8b 14 98             	mov    (%eax,%ebx,4),%edx
    4248:	31 c0                	xor    %eax,%eax
    424a:	8a 47 3d             	mov    0x3d(%edi),%al
    424d:	52                   	push   %edx
    424e:	50                   	push   %eax
    424f:	e8 6c 16 00 00       	call   58c0 <conv32>
    4254:	8b 4d d4             	mov    -0x2c(%ebp),%ecx
    4257:	43                   	inc    %ebx
    4258:	83 c4 10             	add    $0x10,%esp
    425b:	89 01                	mov    %eax,(%ecx)
    425d:	8b 47 18             	mov    0x18(%edi),%eax
    4260:	c1 e8 02             	shr    $0x2,%eax
    4263:	39 c3                	cmp    %eax,%ebx
    4265:	72 d1                	jb     4238 <read_ind_zone.isra.2+0x68>
    4267:	8b 45 e4             	mov    -0x1c(%ebp),%eax
    426a:	83 ec 0c             	sub    $0xc,%esp
    426d:	50                   	push   %eax
    426e:	e8 6d 1e 00 00       	call   60e0 <block_put>
    4273:	83 c4 10             	add    $0x10,%esp
    4276:	8d 65 f4             	lea    -0xc(%ebp),%esp
    4279:	5b                   	pop    %ebx
    427a:	5e                   	pop    %esi
    427b:	5f                   	pop    %edi
    427c:	5d                   	pop    %ebp
    427d:	c3                   	ret    
    427e:	66 90                	xchg   %ax,%ax
    4280:	d1 e9                	shr    %ecx
    4282:	74 e6                	je     426a <read_ind_zone.isra.2+0x9a>
    4284:	31 db                	xor    %ebx,%ebx
    4286:	66 90                	xchg   %ax,%ax
    4288:	8b 06                	mov    (%esi),%eax
    428a:	8b 55 d0             	mov    -0x30(%ebp),%edx
    428d:	8d 0c 98             	lea    (%eax,%ebx,4),%ecx
    4290:	31 c0                	xor    %eax,%eax
    4292:	89 4d d4             	mov    %ecx,-0x2c(%ebp)
    4295:	51                   	push   %ecx
    4296:	51                   	push   %ecx
    4297:	66 8b 04 5a          	mov    (%edx,%ebx,2),%ax
    429b:	43                   	inc    %ebx
    429c:	50                   	push   %eax
    429d:	31 c0                	xor    %eax,%eax
    429f:	8a 47 3d             	mov    0x3d(%edi),%al
    42a2:	50                   	push   %eax
    42a3:	e8 f8 15 00 00       	call   58a0 <conv16>
    42a8:	8b 4d d4             	mov    -0x2c(%ebp),%ecx
    42ab:	89 c2                	mov    %eax,%edx
    42ad:	31 c0                	xor    %eax,%eax
    42af:	83 c4 10             	add    $0x10,%esp
    42b2:	66 89 d0             	mov    %dx,%ax
    42b5:	89 01                	mov    %eax,(%ecx)
    42b7:	8b 47 18             	mov    0x18(%edi),%eax
    42ba:	d1 e8                	shr    %eax
    42bc:	39 c3                	cmp    %eax,%ebx
    42be:	72 c8                	jb     4288 <read_ind_zone.isra.2+0xb8>
    42c0:	eb a5                	jmp    4267 <read_ind_zone.isra.2+0x97>
    42c2:	8d b6 00 00 00 00    	lea    0x0(%esi),%esi
    42c8:	83 ec 0c             	sub    $0xc,%esp
    42cb:	8b 1e                	mov    (%esi),%ebx
    42cd:	89 45 d4             	mov    %eax,-0x2c(%ebp)
    42d0:	53                   	push   %ebx
    42d1:	e8 da 4d 00 00       	call   90b0 <free@plt>
    42d6:	8b 45 d4             	mov    -0x2c(%ebp),%eax
    42d9:	83 c4 10             	add    $0x10,%esp
    42dc:	8d 65 f4             	lea    -0xc(%ebp),%esp
    42df:	5b                   	pop    %ebx
    42e0:	5e                   	pop    %esi
    42e1:	5f                   	pop    %edi
    42e2:	5d                   	pop    %ebp
    42e3:	c3                   	ret    
    42e4:	b8 fe ff ff ff       	mov    $0xfffffffe,%eax
    42e9:	eb 8b                	jmp    4276 <read_ind_zone.isra.2+0xa6>
    42eb:	90                   	nop
    42ec:	8d 74 26 00          	lea    0x0(%esi,%eiz,1),%esi

000042f0 <write_ind_zone.isra.3>:
    42f0:	55                   	push   %ebp
    42f1:	89 e5                	mov    %esp,%ebp
    42f3:	57                   	push   %edi
    42f4:	56                   	push   %esi
    42f5:	53                   	push   %ebx
    42f6:	83 ec 38             	sub    $0x38,%esp
    42f9:	89 d3                	mov    %edx,%ebx
    42fb:	31 d2                	xor    %edx,%edx
    42fd:	8b 75 08             	mov    0x8(%ebp),%esi
    4300:	6a 01                	push   $0x1
    4302:	52                   	push   %edx
    4303:	51                   	push   %ecx
    4304:	50                   	push   %eax
    4305:	8d 45 e4             	lea    -0x1c(%ebp),%eax
    4308:	50                   	push   %eax
    4309:	e8 d2 20 00 00       	call   63e0 <block_get>
    430e:	83 c4 20             	add    $0x20,%esp
    4311:	85 c0                	test   %eax,%eax
    4313:	75 53                	jne    4368 <write_ind_zone.isra.3+0x78>
    4315:	8b 45 e4             	mov    -0x1c(%ebp),%eax
    4318:	8b 53 18             	mov    0x18(%ebx),%edx
    431b:	83 7b 28 01          	cmpl   $0x1,0x28(%ebx)
    431f:	8b 48 58             	mov    0x58(%eax),%ecx
    4322:	89 4d d4             	mov    %ecx,-0x2c(%ebp)
    4325:	74 49                	je     4370 <write_ind_zone.isra.3+0x80>
    4327:	c1 ea 02             	shr    $0x2,%edx
    432a:	74 2c                	je     4358 <write_ind_zone.isra.3+0x68>
    432c:	31 ff                	xor    %edi,%edi
    432e:	66 90                	xchg   %ax,%ax
    4330:	50                   	push   %eax
    4331:	50                   	push   %eax
    4332:	31 c0                	xor    %eax,%eax
    4334:	8b 14 be             	mov    (%esi,%edi,4),%edx
    4337:	8a 43 3d             	mov    0x3d(%ebx),%al
    433a:	52                   	push   %edx
    433b:	50                   	push   %eax
    433c:	e8 7f 15 00 00       	call   58c0 <conv32>
    4341:	8b 55 d4             	mov    -0x2c(%ebp),%edx
    4344:	83 c4 10             	add    $0x10,%esp
    4347:	89 04 ba             	mov    %eax,(%edx,%edi,4)
    434a:	47                   	inc    %edi
    434b:	8b 43 18             	mov    0x18(%ebx),%eax
    434e:	c1 e8 02             	shr    $0x2,%eax
    4351:	39 c7                	cmp    %eax,%edi
    4353:	72 db                	jb     4330 <write_ind_zone.isra.3+0x40>
    4355:	8b 45 e4             	mov    -0x1c(%ebp),%eax
    4358:	83 ec 0c             	sub    $0xc,%esp
    435b:	c6 40 14 01          	movb   $0x1,0x14(%eax)
    435f:	50                   	push   %eax
    4360:	e8 7b 1d 00 00       	call   60e0 <block_put>
    4365:	83 c4 10             	add    $0x10,%esp
    4368:	8d 65 f4             	lea    -0xc(%ebp),%esp
    436b:	5b                   	pop    %ebx
    436c:	5e                   	pop    %esi
    436d:	5f                   	pop    %edi
    436e:	5d                   	pop    %ebp
    436f:	c3                   	ret    
    4370:	d1 ea                	shr    %edx
    4372:	74 e4                	je     4358 <write_ind_zone.isra.3+0x68>
    4374:	31 ff                	xor    %edi,%edi
    4376:	66 90                	xchg   %ax,%ax
    4378:	31 c0                	xor    %eax,%eax
    437a:	51                   	push   %ecx
    437b:	51                   	push   %ecx
    437c:	66 8b 04 be          	mov    (%esi,%edi,4),%ax
    4380:	50                   	push   %eax
    4381:	31 c0                	xor    %eax,%eax
    4383:	8a 43 3d             	mov    0x3d(%ebx),%al
    4386:	50                   	push   %eax
    4387:	e8 14 15 00 00       	call   58a0 <conv16>
    438c:	8b 4d d4             	mov    -0x2c(%ebp),%ecx
    438f:	83 c4 10             	add    $0x10,%esp
    4392:	66 89 04 79          	mov    %ax,(%ecx,%edi,2)
    4396:	8b 43 18             	mov    0x18(%ebx),%eax
    4399:	d1 e8                	shr    %eax
    439b:	47                   	inc    %edi
    439c:	39 c7                	cmp    %eax,%edi
    439e:	72 d8                	jb     4378 <write_ind_zone.isra.3+0x88>
    43a0:	eb b3                	jmp    4355 <write_ind_zone.isra.3+0x65>
    43a2:	8d b4 26 00 00 00 00 	lea    0x0(%esi,%eiz,1),%esi
    43a9:	8d bc 27 00 00 00 00 	lea    0x0(%edi,%eiz,1),%edi

000043b0 <mfs_read_map>:
    43b0:	55                   	push   %ebp
    43b1:	31 d2                	xor    %edx,%edx
    43b3:	89 e5                	mov    %esp,%ebp
    43b5:	57                   	push   %edi
    43b6:	56                   	push   %esi
    43b7:	53                   	push   %ebx
    43b8:	83 ec 2c             	sub    $0x2c,%esp
    43bb:	8b 45 0c             	mov    0xc(%ebp),%eax
    43be:	8b 70 04             	mov    0x4(%eax),%esi
    43c1:	8b 38                	mov    (%eax),%edi
    43c3:	8b 5e 04             	mov    0x4(%esi),%ebx
    43c6:	8b 47 08             	mov    0x8(%edi),%eax
    43c9:	8b 4b 18             	mov    0x18(%ebx),%ecx
    43cc:	f7 f1                	div    %ecx
    43ce:	85 d2                	test   %edx,%edx
    43d0:	0f 95 c2             	setne  %dl
    43d3:	81 e2 ff 00 00 00    	and    $0xff,%edx
    43d9:	01 d0                	add    %edx,%eax
    43db:	0f af c1             	imul   %ecx,%eax
    43de:	39 45 10             	cmp    %eax,0x10(%ebp)
    43e1:	76 15                	jbe    43f8 <mfs_read_map+0x48>
    43e3:	8b 45 08             	mov    0x8(%ebp),%eax
    43e6:	31 ff                	xor    %edi,%edi
    43e8:	c7 00 00 00 00 00    	movl   $0x0,(%eax)
    43ee:	8d 65 f4             	lea    -0xc(%ebp),%esp
    43f1:	89 f8                	mov    %edi,%eax
    43f3:	5b                   	pop    %ebx
    43f4:	5e                   	pop    %esi
    43f5:	5f                   	pop    %edi
    43f6:	5d                   	pop    %ebp
    43f7:	c3                   	ret    
    43f8:	c7 45 e0 00 00 00 00 	movl   $0x0,-0x20(%ebp)
    43ff:	c7 45 e4 00 00 00 00 	movl   $0x0,-0x1c(%ebp)
    4406:	83 7b 28 01          	cmpl   $0x1,0x28(%ebx)
    440a:	74 6c                	je     4478 <mfs_read_map+0xc8>
    440c:	89 c8                	mov    %ecx,%eax
    440e:	c1 e8 02             	shr    $0x2,%eax
    4411:	89 45 d0             	mov    %eax,-0x30(%ebp)
    4414:	89 45 d4             	mov    %eax,-0x2c(%ebp)
    4417:	31 d2                	xor    %edx,%edx
    4419:	8b 45 10             	mov    0x10(%ebp),%eax
    441c:	f7 f1                	div    %ecx
    441e:	83 f8 06             	cmp    $0x6,%eax
    4421:	7e 45                	jle    4468 <mfs_read_map+0xb8>
    4423:	83 e8 07             	sub    $0x7,%eax
    4426:	89 45 cc             	mov    %eax,-0x34(%ebp)
    4429:	3b 45 d4             	cmp    -0x2c(%ebp),%eax
    442c:	7d 5a                	jge    4488 <mfs_read_map+0xd8>
    442e:	8b 4f 34             	mov    0x34(%edi),%ecx
    4431:	85 c9                	test   %ecx,%ecx
    4433:	0f 85 9f 00 00 00    	jne    44d8 <mfs_read_map+0x128>
    4439:	8b 45 08             	mov    0x8(%ebp),%eax
    443c:	31 ff                	xor    %edi,%edi
    443e:	c7 00 00 00 00 00    	movl   $0x0,(%eax)
    4444:	31 c0                	xor    %eax,%eax
    4446:	83 ec 0c             	sub    $0xc,%esp
    4449:	50                   	push   %eax
    444a:	e8 61 4c 00 00       	call   90b0 <free@plt>
    444f:	8b 55 e0             	mov    -0x20(%ebp),%edx
    4452:	58                   	pop    %eax
    4453:	52                   	push   %edx
    4454:	e8 57 4c 00 00       	call   90b0 <free@plt>
    4459:	83 c4 10             	add    $0x10,%esp
    445c:	8d 65 f4             	lea    -0xc(%ebp),%esp
    445f:	89 f8                	mov    %edi,%eax
    4461:	5b                   	pop    %ebx
    4462:	5e                   	pop    %esi
    4463:	5f                   	pop    %edi
    4464:	5d                   	pop    %ebp
    4465:	c3                   	ret    
    4466:	66 90                	xchg   %ax,%ax
    4468:	8b 75 08             	mov    0x8(%ebp),%esi
    446b:	8b 44 87 18          	mov    0x18(%edi,%eax,4),%eax
    446f:	31 ff                	xor    %edi,%edi
    4471:	89 06                	mov    %eax,(%esi)
    4473:	31 c0                	xor    %eax,%eax
    4475:	eb cf                	jmp    4446 <mfs_read_map+0x96>
    4477:	90                   	nop
    4478:	c7 45 d4 00 02 00 00 	movl   $0x200,-0x2c(%ebp)
    447f:	c7 45 d0 00 02 00 00 	movl   $0x200,-0x30(%ebp)
    4486:	eb 8f                	jmp    4417 <mfs_read_map+0x67>
    4488:	8b 4f 38             	mov    0x38(%edi),%ecx
    448b:	85 c9                	test   %ecx,%ecx
    448d:	74 aa                	je     4439 <mfs_read_map+0x89>
    448f:	83 ec 0c             	sub    $0xc,%esp
    4492:	8d 45 e0             	lea    -0x20(%ebp),%eax
    4495:	89 da                	mov    %ebx,%edx
    4497:	50                   	push   %eax
    4498:	89 f0                	mov    %esi,%eax
    449a:	e8 31 fd ff ff       	call   41d0 <read_ind_zone.isra.2>
    449f:	83 c4 10             	add    $0x10,%esp
    44a2:	89 c7                	mov    %eax,%edi
    44a4:	85 c0                	test   %eax,%eax
    44a6:	75 28                	jne    44d0 <mfs_read_map+0x120>
    44a8:	8b 5d d4             	mov    -0x2c(%ebp),%ebx
    44ab:	8b 45 cc             	mov    -0x34(%ebp),%eax
    44ae:	29 d8                	sub    %ebx,%eax
    44b0:	89 c2                	mov    %eax,%edx
    44b2:	89 45 d4             	mov    %eax,-0x2c(%ebp)
    44b5:	c1 fa 1f             	sar    $0x1f,%edx
    44b8:	f7 fb                	idiv   %ebx
    44ba:	89 c3                	mov    %eax,%ebx
    44bc:	8b 45 e0             	mov    -0x20(%ebp),%eax
    44bf:	8b 04 98             	mov    (%eax,%ebx,4),%eax
    44c2:	85 c0                	test   %eax,%eax
    44c4:	75 3b                	jne    4501 <mfs_read_map+0x151>
    44c6:	8b 45 08             	mov    0x8(%ebp),%eax
    44c9:	c7 00 00 00 00 00    	movl   $0x0,(%eax)
    44cf:	90                   	nop
    44d0:	8b 45 e4             	mov    -0x1c(%ebp),%eax
    44d3:	e9 6e ff ff ff       	jmp    4446 <mfs_read_map+0x96>
    44d8:	83 ec 0c             	sub    $0xc,%esp
    44db:	8d 45 e0             	lea    -0x20(%ebp),%eax
    44de:	89 da                	mov    %ebx,%edx
    44e0:	50                   	push   %eax
    44e1:	89 f0                	mov    %esi,%eax
    44e3:	e8 e8 fc ff ff       	call   41d0 <read_ind_zone.isra.2>
    44e8:	83 c4 10             	add    $0x10,%esp
    44eb:	89 c7                	mov    %eax,%edi
    44ed:	85 c0                	test   %eax,%eax
    44ef:	75 df                	jne    44d0 <mfs_read_map+0x120>
    44f1:	8b 75 cc             	mov    -0x34(%ebp),%esi
    44f4:	8b 45 e0             	mov    -0x20(%ebp),%eax
    44f7:	8b 04 b0             	mov    (%eax,%esi,4),%eax
    44fa:	8b 75 08             	mov    0x8(%ebp),%esi
    44fd:	89 06                	mov    %eax,(%esi)
    44ff:	eb cf                	jmp    44d0 <mfs_read_map+0x120>
    4501:	83 ec 0c             	sub    $0xc,%esp
    4504:	8d 4d e4             	lea    -0x1c(%ebp),%ecx
    4507:	8b 56 04             	mov    0x4(%esi),%edx
    450a:	51                   	push   %ecx
    450b:	89 c1                	mov    %eax,%ecx
    450d:	89 f0                	mov    %esi,%eax
    450f:	e8 bc fc ff ff       	call   41d0 <read_ind_zone.isra.2>
    4514:	83 c4 10             	add    $0x10,%esp
    4517:	89 c7                	mov    %eax,%edi
    4519:	8b 45 e4             	mov    -0x1c(%ebp),%eax
    451c:	85 ff                	test   %edi,%edi
    451e:	0f 85 22 ff ff ff    	jne    4446 <mfs_read_map+0x96>
    4524:	8b 4d d0             	mov    -0x30(%ebp),%ecx
    4527:	8b 55 d4             	mov    -0x2c(%ebp),%edx
    452a:	0f af d9             	imul   %ecx,%ebx
    452d:	29 da                	sub    %ebx,%edx
    452f:	8b 75 08             	mov    0x8(%ebp),%esi
    4532:	8b 14 90             	mov    (%eax,%edx,4),%edx
    4535:	89 16                	mov    %edx,(%esi)
    4537:	e9 0a ff ff ff       	jmp    4446 <mfs_read_map+0x96>
    453c:	8d 74 26 00          	lea    0x0(%esi,%eiz,1),%esi

00004540 <mfs_write_map>:
    4540:	55                   	push   %ebp
    4541:	89 e5                	mov    %esp,%ebp
    4543:	57                   	push   %edi
    4544:	56                   	push   %esi
    4545:	53                   	push   %ebx
    4546:	83 ec 2c             	sub    $0x2c,%esp
    4549:	8b 75 08             	mov    0x8(%ebp),%esi
    454c:	8b 45 0c             	mov    0xc(%ebp),%eax
    454f:	8b 7e 04             	mov    0x4(%esi),%edi
    4552:	8b 5f 04             	mov    0x4(%edi),%ebx
    4555:	39 43 1c             	cmp    %eax,0x1c(%ebx)
    4558:	0f 86 a2 01 00 00    	jbe    4700 <mfs_write_map+0x1c0>
    455e:	31 d2                	xor    %edx,%edx
    4560:	8b 4b 18             	mov    0x18(%ebx),%ecx
    4563:	f7 f1                	div    %ecx
    4565:	c7 45 d8 00 00 00 00 	movl   $0x0,-0x28(%ebp)
    456c:	c7 45 dc 00 00 00 00 	movl   $0x0,-0x24(%ebp)
    4573:	8b 36                	mov    (%esi),%esi
    4575:	83 7b 28 01          	cmpl   $0x1,0x28(%ebx)
    4579:	0f 84 89 00 00 00    	je     4608 <mfs_write_map+0xc8>
    457f:	c1 e9 02             	shr    $0x2,%ecx
    4582:	89 4d d0             	mov    %ecx,-0x30(%ebp)
    4585:	89 4d d4             	mov    %ecx,-0x2c(%ebp)
    4588:	83 f8 06             	cmp    $0x6,%eax
    458b:	7f 3b                	jg     45c8 <mfs_write_map+0x88>
    458d:	8d 04 86             	lea    (%esi,%eax,4),%eax
    4590:	8b 7d 14             	mov    0x14(%ebp),%edi
    4593:	31 db                	xor    %ebx,%ebx
    4595:	8b 50 18             	mov    0x18(%eax),%edx
    4598:	89 17                	mov    %edx,(%edi)
    459a:	8b 55 10             	mov    0x10(%ebp),%edx
    459d:	89 50 18             	mov    %edx,0x18(%eax)
    45a0:	c6 46 40 01          	movb   $0x1,0x40(%esi)
    45a4:	31 c0                	xor    %eax,%eax
    45a6:	83 ec 0c             	sub    $0xc,%esp
    45a9:	50                   	push   %eax
    45aa:	e8 01 4b 00 00       	call   90b0 <free@plt>
    45af:	8b 55 d8             	mov    -0x28(%ebp),%edx
    45b2:	58                   	pop    %eax
    45b3:	52                   	push   %edx
    45b4:	e8 f7 4a 00 00       	call   90b0 <free@plt>
    45b9:	83 c4 10             	add    $0x10,%esp
    45bc:	8d 65 f4             	lea    -0xc(%ebp),%esp
    45bf:	89 d8                	mov    %ebx,%eax
    45c1:	5b                   	pop    %ebx
    45c2:	5e                   	pop    %esi
    45c3:	5f                   	pop    %edi
    45c4:	5d                   	pop    %ebp
    45c5:	c3                   	ret    
    45c6:	66 90                	xchg   %ax,%ax
    45c8:	83 e8 07             	sub    $0x7,%eax
    45cb:	89 45 cc             	mov    %eax,-0x34(%ebp)
    45ce:	39 45 d4             	cmp    %eax,-0x2c(%ebp)
    45d1:	7e 4d                	jle    4620 <mfs_write_map+0xe0>
    45d3:	8b 4e 34             	mov    0x34(%esi),%ecx
    45d6:	85 c9                	test   %ecx,%ecx
    45d8:	0f 85 ca 00 00 00    	jne    46a8 <mfs_write_map+0x168>
    45de:	8b 45 10             	mov    0x10(%ebp),%eax
    45e1:	85 c0                	test   %eax,%eax
    45e3:	74 4d                	je     4632 <mfs_write_map+0xf2>
    45e5:	50                   	push   %eax
    45e6:	50                   	push   %eax
    45e7:	8d 45 e0             	lea    -0x20(%ebp),%eax
    45ea:	50                   	push   %eax
    45eb:	57                   	push   %edi
    45ec:	e8 0f 11 00 00       	call   5700 <mfs_alloc_zone>
    45f1:	83 c4 10             	add    $0x10,%esp
    45f4:	89 c3                	mov    %eax,%ebx
    45f6:	85 c0                	test   %eax,%eax
    45f8:	0f 84 92 01 00 00    	je     4790 <mfs_write_map+0x250>
    45fe:	66 90                	xchg   %ax,%ax
    4600:	8b 45 dc             	mov    -0x24(%ebp),%eax
    4603:	eb a1                	jmp    45a6 <mfs_write_map+0x66>
    4605:	8d 76 00             	lea    0x0(%esi),%esi
    4608:	c7 45 d4 00 02 00 00 	movl   $0x200,-0x2c(%ebp)
    460f:	c7 45 d0 00 02 00 00 	movl   $0x200,-0x30(%ebp)
    4616:	e9 6d ff ff ff       	jmp    4588 <mfs_write_map+0x48>
    461b:	90                   	nop
    461c:	8d 74 26 00          	lea    0x0(%esi,%eiz,1),%esi
    4620:	8b 4e 38             	mov    0x38(%esi),%ecx
    4623:	85 c9                	test   %ecx,%ecx
    4625:	75 21                	jne    4648 <mfs_write_map+0x108>
    4627:	8b 45 10             	mov    0x10(%ebp),%eax
    462a:	85 c0                	test   %eax,%eax
    462c:	0f 85 de 00 00 00    	jne    4710 <mfs_write_map+0x1d0>
    4632:	8b 45 14             	mov    0x14(%ebp),%eax
    4635:	31 db                	xor    %ebx,%ebx
    4637:	c7 00 00 00 00 00    	movl   $0x0,(%eax)
    463d:	31 c0                	xor    %eax,%eax
    463f:	e9 62 ff ff ff       	jmp    45a6 <mfs_write_map+0x66>
    4644:	8d 74 26 00          	lea    0x0(%esi,%eiz,1),%esi
    4648:	89 da                	mov    %ebx,%edx
    464a:	83 ec 0c             	sub    $0xc,%esp
    464d:	8d 45 d8             	lea    -0x28(%ebp),%eax
    4650:	50                   	push   %eax
    4651:	89 f8                	mov    %edi,%eax
    4653:	e8 78 fb ff ff       	call   41d0 <read_ind_zone.isra.2>
    4658:	83 c4 10             	add    $0x10,%esp
    465b:	89 c3                	mov    %eax,%ebx
    465d:	85 c0                	test   %eax,%eax
    465f:	75 9f                	jne    4600 <mfs_write_map+0xc0>
    4661:	8b 55 d4             	mov    -0x2c(%ebp),%edx
    4664:	8b 45 cc             	mov    -0x34(%ebp),%eax
    4667:	29 d0                	sub    %edx,%eax
    4669:	89 d1                	mov    %edx,%ecx
    466b:	89 c2                	mov    %eax,%edx
    466d:	89 45 cc             	mov    %eax,-0x34(%ebp)
    4670:	c1 fa 1f             	sar    $0x1f,%edx
    4673:	f7 f9                	idiv   %ecx
    4675:	89 45 c8             	mov    %eax,-0x38(%ebp)
    4678:	c1 e0 02             	shl    $0x2,%eax
    467b:	89 c2                	mov    %eax,%edx
    467d:	89 45 d4             	mov    %eax,-0x2c(%ebp)
    4680:	8b 45 d8             	mov    -0x28(%ebp),%eax
    4683:	8b 0c 10             	mov    (%eax,%edx,1),%ecx
    4686:	85 c9                	test   %ecx,%ecx
    4688:	0f 85 fd 01 00 00    	jne    488b <mfs_write_map+0x34b>
    468e:	8b 45 10             	mov    0x10(%ebp),%eax
    4691:	85 c0                	test   %eax,%eax
    4693:	0f 85 5f 01 00 00    	jne    47f8 <mfs_write_map+0x2b8>
    4699:	8b 45 14             	mov    0x14(%ebp),%eax
    469c:	c7 00 00 00 00 00    	movl   $0x0,(%eax)
    46a2:	e9 59 ff ff ff       	jmp    4600 <mfs_write_map+0xc0>
    46a7:	90                   	nop
    46a8:	89 da                	mov    %ebx,%edx
    46aa:	83 ec 0c             	sub    $0xc,%esp
    46ad:	8d 45 d8             	lea    -0x28(%ebp),%eax
    46b0:	50                   	push   %eax
    46b1:	89 f8                	mov    %edi,%eax
    46b3:	e8 18 fb ff ff       	call   41d0 <read_ind_zone.isra.2>
    46b8:	83 c4 10             	add    $0x10,%esp
    46bb:	89 c3                	mov    %eax,%ebx
    46bd:	85 c0                	test   %eax,%eax
    46bf:	0f 85 3b ff ff ff    	jne    4600 <mfs_write_map+0xc0>
    46c5:	8b 45 d8             	mov    -0x28(%ebp),%eax
    46c8:	8b 55 cc             	mov    -0x34(%ebp),%edx
    46cb:	89 45 d4             	mov    %eax,-0x2c(%ebp)
    46ce:	83 ec 0c             	sub    $0xc,%esp
    46d1:	8d 14 90             	lea    (%eax,%edx,4),%edx
    46d4:	8b 45 14             	mov    0x14(%ebp),%eax
    46d7:	8b 0a                	mov    (%edx),%ecx
    46d9:	89 08                	mov    %ecx,(%eax)
    46db:	8b 45 10             	mov    0x10(%ebp),%eax
    46de:	89 02                	mov    %eax,(%edx)
    46e0:	8b 45 d4             	mov    -0x2c(%ebp),%eax
    46e3:	8b 4e 34             	mov    0x34(%esi),%ecx
    46e6:	8b 57 04             	mov    0x4(%edi),%edx
    46e9:	50                   	push   %eax
    46ea:	8b 07                	mov    (%edi),%eax
    46ec:	e8 ff fb ff ff       	call   42f0 <write_ind_zone.isra.3>
    46f1:	8b 45 dc             	mov    -0x24(%ebp),%eax
    46f4:	83 c4 10             	add    $0x10,%esp
