Archive member included to satisfy reference by file (symbol)

../../../lib/block/libblock.a(block.o)
                              mfs_ops.o (block_init)
../../../lib/fs/libfs.a(libfs.o)
                              mfs.o (fs_register)

Discarded input sections

 .debug_line    0x0000000000000000       0x53 /home/ayyuce/Desktop/HlnOS/HelenOS/uspace/lib/c/arch/ia32/src/entry.o
 .debug_info    0x0000000000000000       0x6c /home/ayyuce/Desktop/HlnOS/HelenOS/uspace/lib/c/arch/ia32/src/entry.o
 .debug_abbrev  0x0000000000000000       0x14 /home/ayyuce/Desktop/HlnOS/HelenOS/uspace/lib/c/arch/ia32/src/entry.o
 .debug_aranges
                0x0000000000000000       0x20 /home/ayyuce/Desktop/HlnOS/HelenOS/uspace/lib/c/arch/ia32/src/entry.o
 .debug_info    0x0000000000000000      0xfc6 mfs.o
 .debug_abbrev  0x0000000000000000      0x206 mfs.o
 .debug_loc     0x0000000000000000      0x10c mfs.o
 .debug_aranges
                0x0000000000000000       0x20 mfs.o
 .debug_ranges  0x0000000000000000       0x28 mfs.o
 .debug_line    0x0000000000000000      0x2ac mfs.o
 .debug_str     0x0000000000000000      0xf8c mfs.o
 .comment       0x0000000000000000       0x12 mfs.o
 .note.GNU-stack
                0x0000000000000000        0x0 mfs.o
 .eh_frame      0x0000000000000000       0x58 mfs.o
 .debug_info    0x0000000000000000     0x3e38 mfs_ops.o
 .debug_abbrev  0x0000000000000000      0x3f3 mfs_ops.o
 .debug_loc     0x0000000000000000     0x29c7 mfs_ops.o
 .debug_aranges
                0x0000000000000000       0x20 mfs_ops.o
 .debug_ranges  0x0000000000000000      0x590 mfs_ops.o
 .debug_line    0x0000000000000000      0xb17 mfs_ops.o
 .debug_str     0x0000000000000000     0x1478 mfs_ops.o
 .comment       0x0000000000000000       0x12 mfs_ops.o
 .note.GNU-stack
                0x0000000000000000        0x0 mfs_ops.o
 .eh_frame      0x0000000000000000      0x5a8 mfs_ops.o
 .debug_info    0x0000000000000000     0x17c7 mfs_inode.o
 .debug_abbrev  0x0000000000000000      0x2d1 mfs_inode.o
 .debug_loc     0x0000000000000000      0x7a8 mfs_inode.o
 .debug_aranges
                0x0000000000000000       0x20 mfs_inode.o
 .debug_ranges  0x0000000000000000       0x70 mfs_inode.o
 .debug_line    0x0000000000000000      0x3ce mfs_inode.o
 .debug_str     0x0000000000000000      0xd41 mfs_inode.o
 .comment       0x0000000000000000       0x12 mfs_inode.o
 .note.GNU-stack
                0x0000000000000000        0x0 mfs_inode.o
 .eh_frame      0x0000000000000000       0xf4 mfs_inode.o
 .debug_info    0x0000000000000000     0x19a3 mfs_rw.o
 .debug_abbrev  0x0000000000000000      0x313 mfs_rw.o
 .debug_loc     0x0000000000000000     0x1051 mfs_rw.o
 .debug_aranges
                0x0000000000000000       0x20 mfs_rw.o
 .debug_ranges  0x0000000000000000      0x118 mfs_rw.o
 .debug_line    0x0000000000000000      0x43d mfs_rw.o
 .debug_str     0x0000000000000000      0xd6d mfs_rw.o
 .comment       0x0000000000000000       0x12 mfs_rw.o
 .note.GNU-stack
                0x0000000000000000        0x0 mfs_rw.o
 .eh_frame      0x0000000000000000      0x138 mfs_rw.o
 .debug_info    0x0000000000000000     0x15f0 mfs_dentry.o
 .debug_abbrev  0x0000000000000000      0x26e mfs_dentry.o
 .debug_loc     0x0000000000000000      0x792 mfs_dentry.o
 .debug_aranges
                0x0000000000000000       0x20 mfs_dentry.o
 .debug_ranges  0x0000000000000000      0x110 mfs_dentry.o
 .debug_line    0x0000000000000000      0x415 mfs_dentry.o
 .debug_str     0x0000000000000000      0xd5b mfs_dentry.o
 .comment       0x0000000000000000       0x12 mfs_dentry.o
 .note.GNU-stack
                0x0000000000000000        0x0 mfs_dentry.o
 .eh_frame      0x0000000000000000      0x118 mfs_dentry.o
 .debug_info    0x0000000000000000     0x15d0 mfs_balloc.o
 .debug_abbrev  0x0000000000000000      0x2bf mfs_balloc.o
 .debug_loc     0x0000000000000000      0x9a4 mfs_balloc.o
 .debug_aranges
                0x0000000000000000       0x20 mfs_balloc.o
 .debug_ranges  0x0000000000000000       0xd8 mfs_balloc.o
 .debug_line    0x0000000000000000      0x388 mfs_balloc.o
 .debug_str     0x0000000000000000      0xcff mfs_balloc.o
 .comment       0x0000000000000000       0x12 mfs_balloc.o
 .note.GNU-stack
                0x0000000000000000        0x0 mfs_balloc.o
 .eh_frame      0x0000000000000000      0x184 mfs_balloc.o
 .debug_info    0x0000000000000000      0xbbf mfs_utils.o
 .debug_abbrev  0x0000000000000000      0x14f mfs_utils.o
 .debug_aranges
                0x0000000000000000       0x20 mfs_utils.o
 .debug_line    0x0000000000000000      0x21a mfs_utils.o
 .debug_str     0x0000000000000000      0x9f0 mfs_utils.o
 .comment       0x0000000000000000       0x12 mfs_utils.o
 .note.GNU-stack
                0x0000000000000000        0x0 mfs_utils.o
 .eh_frame      0x0000000000000000       0x80 mfs_utils.o
 .debug_info    0x0000000000000000     0x2a1c ../../../lib/block/libblock.a(block.o)
 .debug_abbrev  0x0000000000000000      0x46d ../../../lib/block/libblock.a(block.o)
 .debug_loc     0x0000000000000000     0x1930 ../../../lib/block/libblock.a(block.o)
 .debug_aranges
                0x0000000000000000       0x28 ../../../lib/block/libblock.a(block.o)
 .debug_ranges  0x0000000000000000      0x5c8 ../../../lib/block/libblock.a(block.o)
 .debug_line    0x0000000000000000      0x8ef ../../../lib/block/libblock.a(block.o)
 .debug_str     0x0000000000000000     0x11f7 ../../../lib/block/libblock.a(block.o)
 .comment       0x0000000000000000       0x12 ../../../lib/block/libblock.a(block.o)
 .note.GNU-stack
                0x0000000000000000        0x0 ../../../lib/block/libblock.a(block.o)
 .eh_frame      0x0000000000000000      0x444 ../../../lib/block/libblock.a(block.o)
 .debug_info    0x0000000000000000     0x284f ../../../lib/fs/libfs.a(libfs.o)
 .debug_abbrev  0x0000000000000000      0x3d8 ../../../lib/fs/libfs.a(libfs.o)
 .debug_loc     0x0000000000000000     0x19c1 ../../../lib/fs/libfs.a(libfs.o)
 .debug_aranges
                0x0000000000000000       0x20 ../../../lib/fs/libfs.a(libfs.o)
 .debug_ranges  0x0000000000000000      0x3c8 ../../../lib/fs/libfs.a(libfs.o)
 .debug_line    0x0000000000000000      0x617 ../../../lib/fs/libfs.a(libfs.o)
 .debug_str     0x0000000000000000     0x1608 ../../../lib/fs/libfs.a(libfs.o)
 .comment       0x0000000000000000       0x12 ../../../lib/fs/libfs.a(libfs.o)
 .note.GNU-stack
                0x0000000000000000        0x0 ../../../lib/fs/libfs.a(libfs.o)
 .eh_frame      0x0000000000000000      0x150 ../../../lib/fs/libfs.a(libfs.o)

Memory Configuration

Name             Origin             Length             Attributes
*default*        0x0000000000000000 0xffffffffffffffff

Linker script and memory map

LOAD /home/ayyuce/Desktop/HlnOS/HelenOS/uspace/lib/c/arch/ia32/src/entry.o
                0x00000000000010f4                . = (0x1000 + SIZEOF_HEADERS)

.init           0x00000000000010f4       0x2e
 *(.init)
 .init          0x00000000000010f4       0x2e /home/ayyuce/Desktop/HlnOS/HelenOS/uspace/lib/c/arch/ia32/src/entry.o
                0x00000000000010f4                __entry

.text           0x0000000000001130     0x793c
 *(.text .text.*)
 .text          0x0000000000001130        0x0 /home/ayyuce/Desktop/HlnOS/HelenOS/uspace/lib/c/arch/ia32/src/entry.o
 .text          0x0000000000001130        0x0 mfs.o
 .text.startup  0x0000000000001130      0x157 mfs.o
                0x0000000000001130                main
 *fill*         0x0000000000001287        0x9 
 .text          0x0000000000001290     0x2855 mfs_ops.o
                0x0000000000003ac0                mfs_global_init
 *fill*         0x0000000000003ae5        0xb 
 .text          0x0000000000003af0      0x6df mfs_inode.o
                0x0000000000003af0                mfs_get_inode
                0x0000000000003e20                mfs_put_inode
                0x00000000000040d0                mfs_inode_shrink
 *fill*         0x00000000000041cf        0x1 
 .text          0x00000000000041d0      0x8a4 mfs_rw.o
                0x00000000000043b0                mfs_read_map
                0x0000000000004540                mfs_write_map
                0x00000000000048f0                mfs_prune_ind_zones
 *fill*         0x0000000000004a74        0xc 
 .text          0x0000000000004a80      0x7e2 mfs_dentry.o
                0x0000000000004a80                mfs_read_dentry
                0x0000000000004c00                mfs_write_dentry
                0x0000000000004d10                mfs_remove_dentry
                0x0000000000004f60                mfs_insert_dentry
 *fill*         0x0000000000005262        0xe 
 .text          0x0000000000005270      0x62a mfs_balloc.o
                0x0000000000005600                mfs_alloc_inode
                0x0000000000005620                mfs_free_inode
                0x0000000000005700                mfs_alloc_zone
                0x0000000000005750                mfs_free_zone
                0x0000000000005860                mfs_count_free_zones
                0x0000000000005880                mfs_count_free_inodes
 *fill*         0x000000000000589a        0x6 
 .text          0x00000000000058a0       0x4e mfs_utils.o
                0x00000000000058a0                conv16
                0x00000000000058c0                conv32
                0x00000000000058d0                conv64
 *fill*         0x00000000000058ee        0x2 
 .text          0x00000000000058f0     0x189f ../../../lib/block/libblock.a(block.o)
                0x0000000000005930                block_init
                0x0000000000005b00                block_bb_read
                0x0000000000005c50                block_bb_get
                0x0000000000005cd0                block_cache_init
                0x0000000000005e10                block_cache_fini
                0x0000000000005fc0                block_fini
                0x00000000000060e0                block_put
                0x00000000000063e0                block_get
                0x0000000000006960                block_seqread
                0x0000000000006b20                block_read_direct
                0x0000000000006c00                block_write_direct
                0x0000000000006ce0                block_sync_cache
                0x0000000000006d90                block_get_bsize
                0x0000000000006e20                block_get_nblocks
                0x0000000000006eb0                block_read_bytes_direct
                0x00000000000070e0                block_read_toc
 .text.unlikely
                0x000000000000718f       0x1a ../../../lib/block/libblock.a(block.o)
 *fill*         0x00000000000071a9        0x7 
 .text          0x00000000000071b0     0x1535 ../../../lib/fs/libfs.a(libfs.o)
                0x0000000000008360                fs_register
                0x00000000000084a0                fs_node_initialize
                0x00000000000084c0                fs_instance_create
                0x00000000000085c0                fs_instance_get
                0x0000000000008640                fs_instance_destroy
 *(.rodata .rodata.*)
 *fill*         0x00000000000086e5        0x3 
 .rodata.str1.4
                0x00000000000086e8       0x96 mfs.o
 .rodata.str1.1
                0x000000000000877e       0x43 mfs.o
 .rodata.str1.1
                0x00000000000087c1       0x4a mfs_ops.o
                                         0x4c (size before relaxing)
 *fill*         0x000000000000880b        0x1 
 .rodata.str1.4
                0x000000000000880c       0x4d mfs_ops.o
 .rodata.str1.1
                0x0000000000008859       0x24 mfs_inode.o
 .rodata.str1.1
                0x000000000000887d       0x23 mfs_rw.o
 .rodata.str1.1
                0x00000000000088a0       0x18 mfs_balloc.o
 .rodata.str1.4
                0x00000000000088b8       0x37 mfs_balloc.o
 .rodata.str1.1
                0x00000000000088ef       0x4f ../../../lib/block/libblock.a(block.o)
 *fill*         0x000000000000893e        0x2 
 .rodata.str1.4
                0x0000000000008940       0xe8 ../../../lib/block/libblock.a(block.o)
                                         0xe7 (size before relaxing)
 .rodata.str1.1
                0x0000000000008a28        0xc ../../../lib/fs/libfs.a(libfs.o)
 .rodata        0x0000000000008a34       0x38 ../../../lib/fs/libfs.a(libfs.o)

.rel.plt        0x0000000000008a6c      0x210
 *(.rel.plt)
 .rel.plt       0x0000000000008a6c      0x210 /home/ayyuce/Desktop/HlnOS/HelenOS/uspace/lib/c/arch/ia32/src/entry.o

.rel.dyn        0x0000000000008c7c       0x18
 *(.rel.*)
 .rel.got       0x0000000000008c7c        0x0 /home/ayyuce/Desktop/HlnOS/HelenOS/uspace/lib/c/arch/ia32/src/entry.o
 .rel.bss       0x0000000000008c7c       0x18 /home/ayyuce/Desktop/HlnOS/HelenOS/uspace/lib/c/arch/ia32/src/entry.o
 .rel.init      0x0000000000008c94        0x0 /home/ayyuce/Desktop/HlnOS/HelenOS/uspace/lib/c/arch/ia32/src/entry.o
 .rel.text.startup
                0x0000000000008c94        0x0 /home/ayyuce/Desktop/HlnOS/HelenOS/uspace/lib/c/arch/ia32/src/entry.o
 .rel.text      0x0000000000008c94        0x0 /home/ayyuce/Desktop/HlnOS/HelenOS/uspace/lib/c/arch/ia32/src/entry.o
 .rel.text.unlikely
                0x0000000000008c94        0x0 /home/ayyuce/Desktop/HlnOS/HelenOS/uspace/lib/c/arch/ia32/src/entry.o

.plt            0x0000000000008ca0      0x430
 *(.plt)
 .plt           0x0000000000008ca0      0x430 /home/ayyuce/Desktop/HlnOS/HelenOS/uspace/lib/c/arch/ia32/src/entry.o
                0x0000000000008cb0                __main
                0x0000000000008cc0                task_retval
                0x0000000000008cd0                loc_service_connect
                0x0000000000008ce0                printf
                0x0000000000008cf0                async_hangup
                0x0000000000008d00                async_data_write_forward_fast
                0x0000000000008d10                async_forward_slow
                0x0000000000008d20                async_wait_for
                0x0000000000008d30                hash_table_create
                0x0000000000008d40                async_data_write_start
                0x0000000000008d50                hash_table_insert
                0x0000000000008d60                __errno
                0x0000000000008d70                bd_write_blocks
                0x0000000000008d80                bd_get_num_blocks
                0x0000000000008d90                service_connect_blocking
                0x0000000000008da0                async_data_read_finalize
                0x0000000000008db0                async_share_in_start
                0x0000000000008dc0                bd_close
                0x0000000000008dd0                memcpy
                0x0000000000008de0                async_clone_establish
                0x0000000000008df0                malloc
                0x0000000000008e00                bd_open
                0x0000000000008e10                async_req_fast
                0x0000000000008e20                async_answer_0
                0x0000000000008e30                async_send_fast
                0x0000000000008e40                stacktrace_print
                0x0000000000008e50                __umoddi3
                0x0000000000008e60                __udivdi3
                0x0000000000008e70                bd_read_blocks
                0x0000000000008e80                strtol
                0x0000000000008e90                async_exchange_end
                0x0000000000008ea0                fibril_mutex_trylock
                0x0000000000008eb0                assert_abort
                0x0000000000008ec0                fprintf
                0x0000000000008ed0                bd_read_toc
                0x0000000000008ee0                fibril_mutex_unlock
                0x0000000000008ef0                fibril_mutex_initialize
                0x0000000000008f00                async_answer_4
                0x0000000000008f10                async_clone_receive
                0x0000000000008f20                async_answer_5
                0x0000000000008f30                memcmp
                0x0000000000008f40                async_create_callback_port
                0x0000000000008f50                str_cmp
                0x0000000000008f60                hash_table_remove_item
                0x0000000000008f70                memset
                0x0000000000008f80                async_data_read_receive
                0x0000000000008f90                bd_get_block_size
                0x0000000000008fa0                async_data_write_void
                0x0000000000008fb0                async_get_call_timeout
                0x0000000000008fc0                str_size
                0x0000000000008fd0                bd_sync_cache
                0x0000000000008fe0                async_answer_1
                0x0000000000008ff0                async_exchange_begin
                0x0000000000009000                async_answer_3
                0x0000000000009010                hash_table_find
                0x0000000000009020                async_data_write_finalize
                0x0000000000009030                async_data_write_accept
                0x0000000000009040                fibril_rwlock_initialize
                0x0000000000009050                async_forget
                0x0000000000009060                fibril_switch
                0x0000000000009070                __syscall_fast
                0x0000000000009080                async_set_fallback_port_handler
                0x0000000000009090                hash_table_destroy
                0x00000000000090a0                async_data_write_receive
                0x00000000000090b0                free
                0x00000000000090c0                fibril_mutex_lock

.dynsym         0x00000000000090d0      0x480
 *(.dynsym)
 .dynsym        0x00000000000090d0      0x480 /home/ayyuce/Desktop/HlnOS/HelenOS/uspace/lib/c/arch/ia32/src/entry.o

.dynstr         0x0000000000009550      0x480
 *(.dynstr)
 .dynstr        0x0000000000009550      0x480 /home/ayyuce/Desktop/HlnOS/HelenOS/uspace/lib/c/arch/ia32/src/entry.o

.hash           0x00000000000099d0      0x234
 *(.hash)
 .hash          0x00000000000099d0      0x234 /home/ayyuce/Desktop/HlnOS/HelenOS/uspace/lib/c/arch/ia32/src/entry.o

.interp         0x0000000000009c04       0x13
 *(.interp)
 .interp        0x0000000000009c04       0x13 /home/ayyuce/Desktop/HlnOS/HelenOS/uspace/lib/c/arch/ia32/src/entry.o
                0x000000000000ac17                . = (. + 0x1000)

.dynamic        0x000000000000ac18       0xa8
 *(.dynamic)
 .dynamic       0x000000000000ac18       0xa8 /home/ayyuce/Desktop/HlnOS/HelenOS/uspace/lib/c/arch/ia32/src/entry.o
                0x000000000000ac18                _DYNAMIC

.data           0x000000000000acc0      0x100
 *(.data)
 .data          0x000000000000acc0        0x0 /home/ayyuce/Desktop/HlnOS/HelenOS/uspace/lib/c/arch/ia32/src/entry.o
 .data          0x000000000000acc0       0x20 mfs.o
                0x000000000000acc0                mfs_vfs_info
 .data          0x000000000000ace0       0x9c mfs_ops.o
                0x000000000000ace0                mfs_ops
                0x000000000000ad20                mfs_libfs_ops
 .data          0x000000000000ad7c        0x0 mfs_inode.o
 .data          0x000000000000ad7c        0x0 mfs_rw.o
 .data          0x000000000000ad7c        0x0 mfs_dentry.o
 .data          0x000000000000ad7c        0x0 mfs_balloc.o
 .data          0x000000000000ad7c        0x0 mfs_utils.o
 .data          0x000000000000ad7c       0x2c ../../../lib/block/libblock.a(block.o)
 .data          0x000000000000ada8       0x18 ../../../lib/fs/libfs.a(libfs.o)

.data.rel
 *(.data.rel .data.rel.*)

.got            0x000000000000adc0        0x0
 *(.got)
 .got           0x000000000000adc0        0x0 /home/ayyuce/Desktop/HlnOS/HelenOS/uspace/lib/c/arch/ia32/src/entry.o

.got.plt        0x000000000000adc0      0x114
 *(.got.plt)
 .got.plt       0x000000000000adc0      0x114 /home/ayyuce/Desktop/HlnOS/HelenOS/uspace/lib/c/arch/ia32/src/entry.o
                0x000000000000adc0                _GLOBAL_OFFSET_TABLE_

.tdata
 *(.tdata)
 *(.gnu.linkonce.tb.*)

.tbss
 *(.tbss)

.bss            0x000000000000aed8       0x38
 *(.dynbss)
 *fill*         0x000000000000aed8        0x0 
 .dynbss        0x000000000000aed8        0xc /home/ayyuce/Desktop/HlnOS/HelenOS/uspace/lib/c/arch/ia32/src/entry.o
                0x000000000000aed8                __syscall_fast_func
                0x000000000000aedc                async_futex
                0x000000000000aee0                stderr
 *(COMMON)
 *(.bss)
 .bss           0x000000000000aee4        0x0 /home/ayyuce/Desktop/HlnOS/HelenOS/uspace/lib/c/arch/ia32/src/entry.o
 .bss           0x000000000000aee4        0x0 mfs.o
 .bss           0x000000000000aee4       0x1c mfs_ops.o
 .bss           0x000000000000af00        0x0 mfs_inode.o
 .bss           0x000000000000af00        0x0 mfs_rw.o
 .bss           0x000000000000af00        0x0 mfs_dentry.o
 .bss           0x000000000000af00        0x0 mfs_balloc.o
 .bss           0x000000000000af00        0x0 mfs_utils.o
 .bss           0x000000000000af00        0x0 ../../../lib/block/libblock.a(block.o)
 .bss           0x000000000000af00       0x10 ../../../lib/fs/libfs.a(libfs.o)

/DISCARD/
 *(*)
LOAD mfs.o
LOAD mfs_ops.o
LOAD mfs_inode.o
LOAD mfs_rw.o
LOAD mfs_dentry.o
LOAD mfs_balloc.o
LOAD mfs_utils.o
LOAD ../../../lib/block/libblock.a
LOAD ../../../lib/fs/libfs.a
LOAD ../../../lib/c/libc.so.0
LOAD ../../../lib/softint/libsoftint.so.0
OUTPUT(mfs elf32-i386)
