
bdsh:     file format elf32-i386


Disassembly of section .init:

000010f4 <__entry>:
    10f4:	66 8c d0             	mov    %ss,%ax
    10f7:	8e d8                	mov    %eax,%ds
    10f9:	8e c0                	mov    %eax,%es
    10fb:	8e e0                	mov    %eax,%fs
    10fd:	b8 01 00 00 00       	mov    $0x1,%eax
    1102:	0f a2                	cpuid  
    1104:	0f ba e2 0b          	bt     $0xb,%edx
    1108:	73 0c                	jae    1116 <__entry+0x22>
    110a:	8d 05 58 f8 00 00    	lea    0xf858,%eax
    1110:	c7 00 90 d4 00 00    	movl   $0xd490,(%eax)
    1116:	6a 00                	push   $0x0
    1118:	6a 00                	push   $0x0
    111a:	89 e5                	mov    %esp,%ebp
    111c:	57                   	push   %edi
    111d:	e8 9e be 00 00       	call   cfc0 <__main@plt>

Disassembly of section .text:

00001140 <cmd_help>:
    1140:	55                   	push   %ebp
    1141:	89 e5                	mov    %esp,%ebp
    1143:	57                   	push   %edi
    1144:	56                   	push   %esi
    1145:	53                   	push   %ebx
    1146:	83 ec 28             	sub    $0x28,%esp
    1149:	8b 7d 08             	mov    0x8(%ebp),%edi
    114c:	57                   	push   %edi
    114d:	e8 8e 57 00 00       	call   68e0 <cli_count_args>
    1152:	83 c4 10             	add    $0x10,%esp
    1155:	83 f8 03             	cmp    $0x3,%eax
    1158:	0f 8f d2 00 00 00    	jg     1230 <cmd_help+0xf0>
    115e:	0f 84 84 01 00 00    	je     12e8 <cmd_help+0x1a8>
    1164:	83 f8 02             	cmp    $0x2,%eax
    1167:	0f 85 a3 00 00 00    	jne    1210 <cmd_help+0xd0>
    116d:	c7 45 e4 00 00 00 00 	movl   $0x0,-0x1c(%ebp)
    1174:	8b 77 04             	mov    0x4(%edi),%esi
    1177:	50                   	push   %eax
    1178:	50                   	push   %eax
    1179:	68 f3 9e 00 00       	push   $0x9ef3
    117e:	56                   	push   %esi
    117f:	e8 7c c1 00 00       	call   d300 <str_cmp@plt>
    1184:	83 c4 10             	add    $0x10,%esp
    1187:	89 c3                	mov    %eax,%ebx
    1189:	85 c0                	test   %eax,%eax
    118b:	0f 85 7f 01 00 00    	jne    1310 <cmd_help+0x1d0>
    1191:	83 ec 0c             	sub    $0xc,%esp
    1194:	68 c2 9e 00 00       	push   $0x9ec2
    1199:	e8 52 be 00 00       	call   cff0 <printf@plt>
    119e:	c7 04 24 28 a5 00 00 	movl   $0xa528,(%esp)
    11a5:	e8 46 be 00 00       	call   cff0 <printf@plt>
    11aa:	a1 e0 f2 00 00       	mov    0xf2e0,%eax
    11af:	83 c4 10             	add    $0x10,%esp
    11b2:	85 c0                	test   %eax,%eax
    11b4:	0f 84 ae 00 00 00    	je     1268 <cmd_help+0x128>
    11ba:	be e0 f2 00 00       	mov    $0xf2e0,%esi
    11bf:	eb 2f                	jmp    11f0 <cmd_help+0xb0>
    11c1:	8d b4 26 00 00 00 00 	lea    0x0(%esi,%eiz,1),%esi
    11c8:	83 ec 0c             	sub    $0xc,%esp
    11cb:	8b 0e                	mov    (%esi),%ecx
    11cd:	51                   	push   %ecx
    11ce:	e8 fd 46 00 00       	call   58d0 <alias_for_builtin>
    11d3:	83 c4 0c             	add    $0xc,%esp
    11d6:	50                   	push   %eax
    11d7:	8b 3e                	mov    (%esi),%edi
    11d9:	57                   	push   %edi
    11da:	68 8a 9e 00 00       	push   $0x9e8a
    11df:	83 c6 14             	add    $0x14,%esi
    11e2:	e8 09 be 00 00       	call   cff0 <printf@plt>
    11e7:	8b 06                	mov    (%esi),%eax
    11e9:	83 c4 10             	add    $0x10,%esp
    11ec:	85 c0                	test   %eax,%eax
    11ee:	74 78                	je     1268 <cmd_help+0x128>
    11f0:	83 ec 0c             	sub    $0xc,%esp
    11f3:	50                   	push   %eax
    11f4:	e8 97 46 00 00       	call   5890 <is_builtin_alias>
    11f9:	83 c4 10             	add    $0x10,%esp
    11fc:	85 c0                	test   %eax,%eax
    11fe:	75 c8                	jne    11c8 <cmd_help+0x88>
    1200:	50                   	push   %eax
    1201:	8b 46 04             	mov    0x4(%esi),%eax
    1204:	50                   	push   %eax
    1205:	8b 16                	mov    (%esi),%edx
    1207:	52                   	push   %edx
    1208:	68 a3 9e 00 00       	push   $0x9ea3
    120d:	eb d0                	jmp    11df <cmd_help+0x9f>
    120f:	90                   	nop
    1210:	51                   	push   %ecx
    1211:	51                   	push   %ecx
    1212:	6a 00                	push   $0x0
    1214:	68 58 a1 00 00       	push   $0xa158
    1219:	e8 32 89 00 00       	call   9b50 <print_wrapped_console>
    121e:	83 c4 10             	add    $0x10,%esp
    1221:	8d 65 f4             	lea    -0xc(%ebp),%esp
    1224:	31 db                	xor    %ebx,%ebx
    1226:	89 d8                	mov    %ebx,%eax
    1228:	5b                   	pop    %ebx
    1229:	5e                   	pop    %esi
    122a:	5f                   	pop    %edi
    122b:	5d                   	pop    %ebp
    122c:	c3                   	ret    
    122d:	8d 76 00             	lea    0x0(%esi),%esi
    1230:	50                   	push   %eax
    1231:	50                   	push   %eax
    1232:	68 7c 9e 00 00       	push   $0x9e7c
    1237:	68 94 a0 00 00       	push   $0xa094
    123c:	e8 af bd 00 00       	call   cff0 <printf@plt>
    1241:	58                   	pop    %eax
    1242:	5a                   	pop    %edx
    1243:	68 7c 9e 00 00       	push   $0x9e7c
    1248:	68 b8 a0 00 00       	push   $0xa0b8
    124d:	e8 9e bd 00 00       	call   cff0 <printf@plt>
    1252:	83 c4 10             	add    $0x10,%esp
    1255:	8d 65 f4             	lea    -0xc(%ebp),%esp
    1258:	bb 01 00 00 00       	mov    $0x1,%ebx
    125d:	89 d8                	mov    %ebx,%eax
    125f:	5b                   	pop    %ebx
    1260:	5e                   	pop    %esi
    1261:	5f                   	pop    %edi
    1262:	5d                   	pop    %ebp
    1263:	c3                   	ret    
    1264:	8d 74 26 00          	lea    0x0(%esi,%eiz,1),%esi
    1268:	a1 40 f3 00 00       	mov    0xf340,%eax
    126d:	85 c0                	test   %eax,%eax
    126f:	74 4f                	je     12c0 <cmd_help+0x180>
    1271:	be 40 f3 00 00       	mov    $0xf340,%esi
    1276:	eb 28                	jmp    12a0 <cmd_help+0x160>
    1278:	83 ec 0c             	sub    $0xc,%esp
    127b:	8b 06                	mov    (%esi),%eax
    127d:	50                   	push   %eax
    127e:	e8 bd 44 00 00       	call   5740 <alias_for_module>
    1283:	83 c4 0c             	add    $0xc,%esp
    1286:	50                   	push   %eax
    1287:	8b 06                	mov    (%esi),%eax
    1289:	50                   	push   %eax
    128a:	68 8a 9e 00 00       	push   $0x9e8a
    128f:	83 c6 10             	add    $0x10,%esi
    1292:	e8 59 bd 00 00       	call   cff0 <printf@plt>
    1297:	8b 06                	mov    (%esi),%eax
    1299:	83 c4 10             	add    $0x10,%esp
    129c:	85 c0                	test   %eax,%eax
    129e:	74 20                	je     12c0 <cmd_help+0x180>
    12a0:	83 ec 0c             	sub    $0xc,%esp
    12a3:	50                   	push   %eax
    12a4:	e8 37 44 00 00       	call   56e0 <is_module_alias>
    12a9:	83 c4 10             	add    $0x10,%esp
    12ac:	85 c0                	test   %eax,%eax
    12ae:	75 c8                	jne    1278 <cmd_help+0x138>
    12b0:	57                   	push   %edi
    12b1:	8b 46 04             	mov    0x4(%esi),%eax
    12b4:	50                   	push   %eax
    12b5:	8b 06                	mov    (%esi),%eax
    12b7:	50                   	push   %eax
    12b8:	68 a3 9e 00 00       	push   $0x9ea3
    12bd:	eb d0                	jmp    128f <cmd_help+0x14f>
    12bf:	90                   	nop
    12c0:	68 7c 9e 00 00       	push   $0x9e7c
    12c5:	68 7c 9e 00 00       	push   $0x9e7c
    12ca:	68 7c 9e 00 00       	push   $0x9e7c
    12cf:	68 20 a1 00 00       	push   $0xa120
    12d4:	e8 17 bd 00 00       	call   cff0 <printf@plt>
    12d9:	83 c4 10             	add    $0x10,%esp
    12dc:	8d 65 f4             	lea    -0xc(%ebp),%esp
    12df:	89 d8                	mov    %ebx,%eax
    12e1:	5b                   	pop    %ebx
    12e2:	5e                   	pop    %esi
    12e3:	5f                   	pop    %edi
    12e4:	5d                   	pop    %ebp
    12e5:	c3                   	ret    
    12e6:	66 90                	xchg   %ax,%ax
    12e8:	50                   	push   %eax
    12e9:	50                   	push   %eax
    12ea:	8b 47 08             	mov    0x8(%edi),%eax
    12ed:	50                   	push   %eax
    12ee:	68 81 9e 00 00       	push   $0x9e81
    12f3:	e8 08 c0 00 00       	call   d300 <str_cmp@plt>
    12f8:	83 c4 10             	add    $0x10,%esp
    12fb:	85 c0                	test   %eax,%eax
    12fd:	0f 94 c0             	sete   %al
    1300:	25 ff 00 00 00       	and    $0xff,%eax
    1305:	89 45 e4             	mov    %eax,-0x1c(%ebp)
    1308:	e9 67 fe ff ff       	jmp    1174 <cmd_help+0x34>
    130d:	8d 76 00             	lea    0x0(%esi),%esi
    1310:	83 ec 0c             	sub    $0xc,%esp
    1313:	56                   	push   %esi
    1314:	e8 17 45 00 00       	call   5830 <is_builtin>
    1319:	83 c4 10             	add    $0x10,%esp
    131c:	85 c0                	test   %eax,%eax
    131e:	78 28                	js     1348 <cmd_help+0x208>
    1320:	a3 c0 f2 00 00       	mov    %eax,0xf2c0
    1325:	8b 75 e4             	mov    -0x1c(%ebp),%esi
    1328:	a1 c0 f2 00 00       	mov    0xf2c0,%eax
    132d:	53                   	push   %ebx
    132e:	53                   	push   %ebx
    132f:	56                   	push   %esi
    1330:	50                   	push   %eax
    1331:	e8 ca 45 00 00       	call   5900 <help_builtin>
    1336:	83 c4 10             	add    $0x10,%esp
    1339:	8d 65 f4             	lea    -0xc(%ebp),%esp
    133c:	31 db                	xor    %ebx,%ebx
    133e:	89 d8                	mov    %ebx,%eax
    1340:	5b                   	pop    %ebx
    1341:	5e                   	pop    %esi
    1342:	5f                   	pop    %edi
    1343:	5d                   	pop    %ebp
    1344:	c3                   	ret    
    1345:	8d 76 00             	lea    0x0(%esi),%esi
    1348:	83 ec 0c             	sub    $0xc,%esp
    134b:	56                   	push   %esi
    134c:	e8 1f 43 00 00       	call   5670 <is_module>
    1351:	83 c4 10             	add    $0x10,%esp
    1354:	85 c0                	test   %eax,%eax
    1356:	78 25                	js     137d <cmd_help+0x23d>
    1358:	a3 c0 f2 00 00       	mov    %eax,0xf2c0
    135d:	8b 4d e4             	mov    -0x1c(%ebp),%ecx
    1360:	a1 c0 f2 00 00       	mov    0xf2c0,%eax
    1365:	52                   	push   %edx
    1366:	52                   	push   %edx
    1367:	51                   	push   %ecx
    1368:	50                   	push   %eax
    1369:	e8 32 44 00 00       	call   57a0 <help_module>
    136e:	83 c4 10             	add    $0x10,%esp
    1371:	8d 65 f4             	lea    -0xc(%ebp),%esp
    1374:	31 db                	xor    %ebx,%ebx
    1376:	89 d8                	mov    %ebx,%eax
    1378:	5b                   	pop    %ebx
    1379:	5e                   	pop    %esi
    137a:	5f                   	pop    %edi
    137b:	5d                   	pop    %ebp
    137c:	c3                   	ret    
    137d:	50                   	push   %eax
    137e:	50                   	push   %eax
    137f:	8b 57 04             	mov    0x4(%edi),%edx
    1382:	bb 01 00 00 00       	mov    $0x1,%ebx
    1387:	52                   	push   %edx
    1388:	68 b0 9e 00 00       	push   $0x9eb0
    138d:	e8 5e bc 00 00       	call   cff0 <printf@plt>
    1392:	83 c4 10             	add    $0x10,%esp
    1395:	8d 65 f4             	lea    -0xc(%ebp),%esp
    1398:	89 d8                	mov    %ebx,%eax
    139a:	5b                   	pop    %ebx
    139b:	5e                   	pop    %esi
    139c:	5f                   	pop    %edi
    139d:	5d                   	pop    %ebp
    139e:	c3                   	ret    
    139f:	90                   	nop

000013a0 <help_cmd_help>:
    13a0:	55                   	push   %ebp
    13a1:	89 e5                	mov    %esp,%ebp
    13a3:	83 ec 08             	sub    $0x8,%esp
    13a6:	8b 4d 08             	mov    0x8(%ebp),%ecx
    13a9:	85 c9                	test   %ecx,%ecx
    13ab:	74 2b                	je     13d8 <help_cmd_help+0x38>
    13ad:	83 ec 0c             	sub    $0xc,%esp
    13b0:	68 7c 9e 00 00       	push   $0x9e7c
    13b5:	68 7c 9e 00 00       	push   $0x9e7c
    13ba:	68 7c 9e 00 00       	push   $0x9e7c
    13bf:	68 7c 9e 00 00       	push   $0x9e7c
    13c4:	68 68 a5 00 00       	push   $0xa568
    13c9:	e8 22 bc 00 00       	call   cff0 <printf@plt>
    13ce:	83 c4 20             	add    $0x20,%esp
    13d1:	c9                   	leave  
    13d2:	c3                   	ret    
    13d3:	90                   	nop
    13d4:	8d 74 26 00          	lea    0x0(%esi,%eiz,1),%esi
    13d8:	50                   	push   %eax
    13d9:	50                   	push   %eax
    13da:	68 7c 9e 00 00       	push   $0x9e7c
    13df:	68 b8 a0 00 00       	push   $0xa0b8
    13e4:	e8 07 bc 00 00       	call   cff0 <printf@plt>
    13e9:	83 c4 10             	add    $0x10,%esp
    13ec:	c9                   	leave  
    13ed:	c3                   	ret    
    13ee:	66 90                	xchg   %ax,%ax

000013f0 <help_cmd_mkdir>:
    13f0:	55                   	push   %ebp
    13f1:	89 e5                	mov    %esp,%ebp
    13f3:	83 ec 08             	sub    $0x8,%esp
    13f6:	8b 45 08             	mov    0x8(%ebp),%eax
    13f9:	85 c0                	test   %eax,%eax
    13fb:	74 33                	je     1430 <help_cmd_mkdir+0x40>
    13fd:	50                   	push   %eax
    13fe:	50                   	push   %eax
    13ff:	68 2a 9f 00 00       	push   $0x9f2a
    1404:	68 06 a7 00 00       	push   $0xa706
    1409:	e8 e2 bb 00 00       	call   cff0 <printf@plt>
    140e:	83 c4 0c             	add    $0xc,%esp
    1411:	68 2a 9f 00 00       	push   $0x9f2a
    1416:	68 2a 9f 00 00       	push   $0x9f2a
    141b:	68 c8 a7 00 00       	push   $0xa7c8
    1420:	e8 cb bb 00 00       	call   cff0 <printf@plt>
    1425:	83 c4 10             	add    $0x10,%esp
    1428:	c9                   	leave  
    1429:	c3                   	ret    
    142a:	8d b6 00 00 00 00    	lea    0x0(%esi),%esi
    1430:	52                   	push   %edx
    1431:	52                   	push   %edx
    1432:	68 2a 9f 00 00       	push   $0x9f2a
    1437:	68 06 a7 00 00       	push   $0xa706
    143c:	e8 af bb 00 00       	call   cff0 <printf@plt>
    1441:	83 c4 10             	add    $0x10,%esp
    1444:	c9                   	leave  
    1445:	c3                   	ret    
    1446:	8d 76 00             	lea    0x0(%esi),%esi
    1449:	8d bc 27 00 00 00 00 	lea    0x0(%edi,%eiz,1),%edi

00001450 <cmd_mkdir>:
    1450:	55                   	push   %ebp
    1451:	89 e5                	mov    %esp,%ebp
    1453:	57                   	push   %edi
    1454:	56                   	push   %esi
    1455:	53                   	push   %ebx
    1456:	83 ec 48             	sub    $0x48,%esp
    1459:	8d 75 e0             	lea    -0x20(%ebp),%esi
    145c:	8b 45 08             	mov    0x8(%ebp),%eax
    145f:	50                   	push   %eax
    1460:	e8 7b 54 00 00       	call   68e0 <cli_count_args>
    1465:	c7 05 5c f8 00 00 01 	movl   $0x1,0xf85c
    146c:	00 00 00 
    146f:	89 c3                	mov    %eax,%ebx
    1471:	c7 05 4c f8 00 00 00 	movl   $0x0,0xf84c
    1478:	00 00 00 
    147b:	c7 45 e0 00 00 00 00 	movl   $0x0,-0x20(%ebp)
    1482:	83 c4 10             	add    $0x10,%esp
    1485:	c6 45 d7 00          	movb   $0x0,-0x29(%ebp)
    1489:	c6 45 d4 00          	movb   $0x0,-0x2c(%ebp)
    148d:	c6 45 d6 00          	movb   $0x0,-0x2a(%ebp)
    1491:	83 ec 0c             	sub    $0xc,%esp
    1494:	8b 45 08             	mov    0x8(%ebp),%eax
    1497:	56                   	push   %esi
    1498:	68 80 aa 00 00       	push   $0xaa80
    149d:	68 24 a7 00 00       	push   $0xa724
    14a2:	50                   	push   %eax
    14a3:	53                   	push   %ebx
    14a4:	e8 77 bb 00 00       	call   d020 <getopt_long@plt>
    14a9:	83 c4 20             	add    $0x20,%esp
    14ac:	8d 50 aa             	lea    -0x56(%eax),%edx
    14af:	83 fa 20             	cmp    $0x20,%edx
    14b2:	0f 87 98 00 00 00    	ja     1550 <cmd_mkdir+0x100>
    14b8:	ff 24 95 e0 a9 00 00 	jmp    *0xa9e0(,%edx,4)
    14bf:	90                   	nop
    14c0:	c6 45 d4 01          	movb   $0x1,-0x2c(%ebp)
    14c4:	eb cb                	jmp    1491 <cmd_mkdir+0x41>
    14c6:	66 90                	xchg   %ax,%ax
    14c8:	a1 48 f8 00 00       	mov    0xf848,%eax
    14cd:	57                   	push   %edi
    14ce:	50                   	push   %eax
    14cf:	68 2a 9f 00 00       	push   $0x9f2a
    14d4:	68 32 a7 00 00       	push   $0xa732
    14d9:	e8 12 bb 00 00       	call   cff0 <printf@plt>
    14de:	83 c4 10             	add    $0x10,%esp
    14e1:	eb ae                	jmp    1491 <cmd_mkdir+0x41>
    14e3:	90                   	nop
    14e4:	8d 74 26 00          	lea    0x0(%esi,%eiz,1),%esi
    14e8:	c6 45 d7 01          	movb   $0x1,-0x29(%ebp)
    14ec:	eb a3                	jmp    1491 <cmd_mkdir+0x41>
    14ee:	66 90                	xchg   %ax,%ax
    14f0:	c6 45 d6 01          	movb   $0x1,-0x2a(%ebp)
    14f4:	eb 9b                	jmp    1491 <cmd_mkdir+0x41>
    14f6:	66 90                	xchg   %ax,%ax
    14f8:	50                   	push   %eax
    14f9:	50                   	push   %eax
    14fa:	68 2a 9f 00 00       	push   $0x9f2a
    14ff:	68 06 a7 00 00       	push   $0xa706
    1504:	e8 e7 ba 00 00       	call   cff0 <printf@plt>
    1509:	83 c4 0c             	add    $0xc,%esp
    150c:	68 2a 9f 00 00       	push   $0x9f2a
    1511:	68 2a 9f 00 00       	push   $0x9f2a
    1516:	68 c8 a7 00 00       	push   $0xa7c8
    151b:	e8 d0 ba 00 00       	call   cff0 <printf@plt>
    1520:	83 c4 10             	add    $0x10,%esp
    1523:	31 c0                	xor    %eax,%eax
    1525:	8d 65 f4             	lea    -0xc(%ebp),%esp
    1528:	5b                   	pop    %ebx
    1529:	5e                   	pop    %esi
    152a:	5f                   	pop    %edi
    152b:	5d                   	pop    %ebp
    152c:	c3                   	ret    
    152d:	8d 76 00             	lea    0x0(%esi),%esi
    1530:	50                   	push   %eax
    1531:	50                   	push   %eax
    1532:	68 2c a7 00 00       	push   $0xa72c
    1537:	68 ac 9e 00 00       	push   $0x9eac
    153c:	e8 af ba 00 00       	call   cff0 <printf@plt>
    1541:	83 c4 10             	add    $0x10,%esp
    1544:	8d 65 f4             	lea    -0xc(%ebp),%esp
    1547:	31 c0                	xor    %eax,%eax
    1549:	5b                   	pop    %ebx
    154a:	5e                   	pop    %esi
    154b:	5f                   	pop    %edi
    154c:	5d                   	pop    %ebp
    154d:	c3                   	ret    
    154e:	66 90                	xchg   %ax,%ax
    1550:	40                   	inc    %eax
    1551:	0f 85 3a ff ff ff    	jne    1491 <cmd_mkdir+0x41>
    1557:	a1 4c f8 00 00       	mov    0xf84c,%eax
    155c:	39 c3                	cmp    %eax,%ebx
    155e:	0f 84 b2 01 00 00    	je     1716 <cmd_mkdir+0x2c6>
    1564:	8d 14 85 00 00 00 00 	lea    0x0(,%eax,4),%edx
    156b:	8b 4d 08             	mov    0x8(%ebp),%ecx
    156e:	01 d1                	add    %edx,%ecx
    1570:	8b 01                	mov    (%ecx),%eax
    1572:	85 c0                	test   %eax,%eax
    1574:	74 af                	je     1525 <cmd_mkdir+0xd5>
    1576:	c7 45 c4 1c c8 00 00 	movl   $0xc81c,-0x3c(%ebp)
    157d:	80 7d d6 00          	cmpb   $0x0,-0x2a(%ebp)
    1581:	0f 85 83 01 00 00    	jne    170a <cmd_mkdir+0x2ba>
    1587:	89 4d cc             	mov    %ecx,-0x34(%ebp)
    158a:	8b 4d 08             	mov    0x8(%ebp),%ecx
    158d:	c7 45 c8 00 00 00 00 	movl   $0x0,-0x38(%ebp)
    1594:	8d 75 e4             	lea    -0x1c(%ebp),%esi
    1597:	8d 4c 11 04          	lea    0x4(%ecx,%edx,1),%ecx
    159b:	89 4d d0             	mov    %ecx,-0x30(%ebp)
    159e:	66 90                	xchg   %ax,%ax
    15a0:	80 7d d7 00          	cmpb   $0x0,-0x29(%ebp)
    15a4:	74 1c                	je     15c2 <cmd_mkdir+0x172>
    15a6:	8b 4d c4             	mov    -0x3c(%ebp),%ecx
    15a9:	51                   	push   %ecx
    15aa:	50                   	push   %eax
    15ab:	68 2a 9f 00 00       	push   $0x9f2a
    15b0:	68 5f a7 00 00       	push   $0xa75f
    15b5:	e8 36 ba 00 00       	call   cff0 <printf@plt>
    15ba:	8b 45 cc             	mov    -0x34(%ebp),%eax
    15bd:	83 c4 10             	add    $0x10,%esp
    15c0:	8b 00                	mov    (%eax),%eax
    15c2:	52                   	push   %edx
    15c3:	52                   	push   %edx
    15c4:	6a 00                	push   $0x0
    15c6:	50                   	push   %eax
    15c7:	e8 64 be 00 00       	call   d430 <vfs_absolutize@plt>
    15cc:	83 c4 10             	add    $0x10,%esp
    15cf:	89 c3                	mov    %eax,%ebx
    15d1:	85 c0                	test   %eax,%eax
    15d3:	0f 84 5f 01 00 00    	je     1738 <cmd_mkdir+0x2e8>
    15d9:	80 7d d6 00          	cmpb   $0x0,-0x2a(%ebp)
    15dd:	74 69                	je     1648 <cmd_mkdir+0x1f8>
    15df:	c7 45 e4 00 00 00 00 	movl   $0x0,-0x1c(%ebp)
    15e6:	31 ff                	xor    %edi,%edi
    15e8:	50                   	push   %eax
    15e9:	6a ff                	push   $0xffffffff
    15eb:	56                   	push   %esi
    15ec:	53                   	push   %ebx
    15ed:	e8 8e ba 00 00       	call   d080 <str_decode@plt>
    15f2:	83 c4 10             	add    $0x10,%esp
    15f5:	85 c0                	test   %eax,%eax
    15f7:	74 4f                	je     1648 <cmd_mkdir+0x1f8>
    15f9:	83 f8 3f             	cmp    $0x3f,%eax
    15fc:	74 4a                	je     1648 <cmd_mkdir+0x1f8>
    15fe:	85 ff                	test   %edi,%edi
    1600:	74 05                	je     1607 <cmd_mkdir+0x1b7>
    1602:	83 f8 2f             	cmp    $0x2f,%eax
    1605:	74 09                	je     1610 <cmd_mkdir+0x1c0>
    1607:	8b 7d e4             	mov    -0x1c(%ebp),%edi
    160a:	eb dc                	jmp    15e8 <cmd_mkdir+0x198>
    160c:	8d 74 26 00          	lea    0x0(%esi,%eiz,1),%esi
    1610:	01 df                	add    %ebx,%edi
    1612:	8a 07                	mov    (%edi),%al
    1614:	c6 07 00             	movb   $0x0,(%edi)
    1617:	88 45 d5             	mov    %al,-0x2b(%ebp)
    161a:	50                   	push   %eax
    161b:	50                   	push   %eax
    161c:	6a 00                	push   $0x0
    161e:	53                   	push   %ebx
    161f:	e8 cc be 00 00       	call   d4f0 <mkdir@plt>
    1624:	83 c4 10             	add    $0x10,%esp
    1627:	85 c0                	test   %eax,%eax
    1629:	74 10                	je     163b <cmd_mkdir+0x1eb>
    162b:	e8 20 ba 00 00       	call   d050 <__errno@plt>
    1630:	8b 00                	mov    (%eax),%eax
    1632:	83 f8 f7             	cmp    $0xfffffff7,%eax
    1635:	0f 85 1c 01 00 00    	jne    1757 <cmd_mkdir+0x307>
    163b:	8a 45 d5             	mov    -0x2b(%ebp),%al
    163e:	88 07                	mov    %al,(%edi)
    1640:	eb c5                	jmp    1607 <cmd_mkdir+0x1b7>
    1642:	8d b6 00 00 00 00    	lea    0x0(%esi),%esi
    1648:	50                   	push   %eax
    1649:	50                   	push   %eax
    164a:	6a 00                	push   $0x0
    164c:	53                   	push   %ebx
    164d:	e8 9e be 00 00       	call   d4f0 <mkdir@plt>
    1652:	31 ff                	xor    %edi,%edi
    1654:	83 c4 10             	add    $0x10,%esp
    1657:	85 c0                	test   %eax,%eax
    1659:	75 7d                	jne    16d8 <cmd_mkdir+0x288>
    165b:	83 ec 0c             	sub    $0xc,%esp
    165e:	53                   	push   %ebx
    165f:	e8 ac be 00 00       	call   d510 <free@plt>
    1664:	83 c4 10             	add    $0x10,%esp
    1667:	8b 4d d0             	mov    -0x30(%ebp),%ecx
    166a:	8b 5d c8             	mov    -0x38(%ebp),%ebx
    166d:	01 fb                	add    %edi,%ebx
    166f:	8b 7d cc             	mov    -0x34(%ebp),%edi
    1672:	8b 01                	mov    (%ecx),%eax
    1674:	83 c7 04             	add    $0x4,%edi
    1677:	83 c1 04             	add    $0x4,%ecx
    167a:	89 5d c8             	mov    %ebx,-0x38(%ebp)
    167d:	89 7d cc             	mov    %edi,-0x34(%ebp)
    1680:	89 4d d0             	mov    %ecx,-0x30(%ebp)
    1683:	85 c0                	test   %eax,%eax
    1685:	0f 85 15 ff ff ff    	jne    15a0 <cmd_mkdir+0x150>
    168b:	80 7d d4 00          	cmpb   $0x0,-0x2c(%ebp)
    168f:	74 33                	je     16c4 <cmd_mkdir+0x274>
    1691:	a1 4c f8 00 00       	mov    0xf84c,%eax
    1696:	8b 4d 08             	mov    0x8(%ebp),%ecx
    1699:	8b 04 81             	mov    (%ecx,%eax,4),%eax
    169c:	85 c0                	test   %eax,%eax
    169e:	74 24                	je     16c4 <cmd_mkdir+0x274>
    16a0:	83 ec 0c             	sub    $0xc,%esp
    16a3:	50                   	push   %eax
    16a4:	e8 b7 bb 00 00       	call   d260 <chdir@plt>
    16a9:	83 c4 10             	add    $0x10,%esp
    16ac:	85 c0                	test   %eax,%eax
    16ae:	74 14                	je     16c4 <cmd_mkdir+0x274>
    16b0:	51                   	push   %ecx
    16b1:	51                   	push   %ecx
    16b2:	68 2a 9f 00 00       	push   $0x9f2a
    16b7:	68 a4 a9 00 00       	push   $0xa9a4
    16bc:	e8 2f b9 00 00       	call   cff0 <printf@plt>
    16c1:	83 c4 10             	add    $0x10,%esp
    16c4:	31 c0                	xor    %eax,%eax
    16c6:	8b 55 c8             	mov    -0x38(%ebp),%edx
    16c9:	85 d2                	test   %edx,%edx
    16cb:	0f 95 c0             	setne  %al
    16ce:	e9 52 fe ff ff       	jmp    1525 <cmd_mkdir+0xd5>
    16d3:	90                   	nop
    16d4:	8d 74 26 00          	lea    0x0(%esi,%eiz,1),%esi
    16d8:	e8 73 b9 00 00       	call   d050 <__errno@plt>
    16dd:	83 ec 0c             	sub    $0xc,%esp
    16e0:	8b 00                	mov    (%eax),%eax
    16e2:	50                   	push   %eax
    16e3:	e8 38 bd 00 00       	call   d420 <str_error@plt>
    16e8:	bf 01 00 00 00       	mov    $0x1,%edi
    16ed:	89 04 24             	mov    %eax,(%esp)
    16f0:	53                   	push   %ebx
    16f1:	68 2a 9f 00 00       	push   $0x9f2a
    16f6:	68 84 a7 00 00       	push   $0xa784
    16fb:	6a 01                	push   $0x1
    16fd:	e8 2e 4a 00 00       	call   6130 <cli_error>
    1702:	83 c4 20             	add    $0x20,%esp
    1705:	e9 51 ff ff ff       	jmp    165b <cmd_mkdir+0x20b>
    170a:	c7 45 c4 4c a7 00 00 	movl   $0xa74c,-0x3c(%ebp)
    1711:	e9 71 fe ff ff       	jmp    1587 <cmd_mkdir+0x137>
    1716:	53                   	push   %ebx
    1717:	68 2a 9f 00 00       	push   $0x9f2a
    171c:	68 2a 9f 00 00       	push   $0x9f2a
    1721:	68 6c a9 00 00       	push   $0xa96c
    1726:	e8 c5 b8 00 00       	call   cff0 <printf@plt>
    172b:	83 c4 10             	add    $0x10,%esp
    172e:	b8 01 00 00 00       	mov    $0x1,%eax
    1733:	e9 ed fd ff ff       	jmp    1525 <cmd_mkdir+0xd5>
    1738:	50                   	push   %eax
    1739:	68 2a 9f 00 00       	push   $0x9f2a
    173e:	68 72 a7 00 00       	push   $0xa772
    1743:	6a 04                	push   $0x4
    1745:	bf 01 00 00 00       	mov    $0x1,%edi
    174a:	e8 e1 49 00 00       	call   6130 <cli_error>
    174f:	83 c4 10             	add    $0x10,%esp
    1752:	e9 10 ff ff ff       	jmp    1667 <cmd_mkdir+0x217>
    1757:	83 ec 0c             	sub    $0xc,%esp
    175a:	50                   	push   %eax
    175b:	eb 86                	jmp    16e3 <cmd_mkdir+0x293>
    175d:	66 90                	xchg   %ax,%ax
    175f:	90                   	nop

00001760 <help_cmd_mkfile>:
    1760:	55                   	push   %ebp
    1761:	89 e5                	mov    %esp,%ebp
    1763:	83 ec 08             	sub    $0x8,%esp
    1766:	8b 45 08             	mov    0x8(%ebp),%eax
    1769:	85 c0                	test   %eax,%eax
    176b:	74 2b                	je     1798 <help_cmd_mkfile+0x38>
    176d:	50                   	push   %eax
    176e:	50                   	push   %eax
    176f:	68 47 9f 00 00       	push   $0x9f47
    1774:	68 3c ab 00 00       	push   $0xab3c
    1779:	e8 72 b8 00 00       	call   cff0 <printf@plt>
    177e:	5a                   	pop    %edx
    177f:	59                   	pop    %ecx
    1780:	68 47 9f 00 00       	push   $0x9f47
    1785:	68 64 ab 00 00       	push   $0xab64
    178a:	e8 61 b8 00 00       	call   cff0 <printf@plt>
    178f:	83 c4 10             	add    $0x10,%esp
    1792:	c9                   	leave  
    1793:	c3                   	ret    
    1794:	8d 74 26 00          	lea    0x0(%esi,%eiz,1),%esi
    1798:	50                   	push   %eax
    1799:	50                   	push   %eax
    179a:	68 47 9f 00 00       	push   $0x9f47
    179f:	68 3c ab 00 00       	push   $0xab3c
    17a4:	e8 47 b8 00 00       	call   cff0 <printf@plt>
    17a9:	83 c4 10             	add    $0x10,%esp
    17ac:	c9                   	leave  
    17ad:	c3                   	ret    
    17ae:	66 90                	xchg   %ax,%ax

000017b0 <cmd_mkfile>:
    17b0:	55                   	push   %ebp
    17b1:	89 e5                	mov    %esp,%ebp
    17b3:	57                   	push   %edi
    17b4:	56                   	push   %esi
    17b5:	53                   	push   %ebx
    17b6:	83 ec 38             	sub    $0x38,%esp
    17b9:	31 ff                	xor    %edi,%edi
    17bb:	8b 45 08             	mov    0x8(%ebp),%eax
    17be:	8d 75 e0             	lea    -0x20(%ebp),%esi
    17c1:	50                   	push   %eax
    17c2:	e8 19 51 00 00       	call   68e0 <cli_count_args>
    17c7:	c7 05 5c f8 00 00 01 	movl   $0x1,0xf85c
    17ce:	00 00 00 
    17d1:	89 c3                	mov    %eax,%ebx
    17d3:	c7 05 4c f8 00 00 00 	movl   $0x0,0xf84c
    17da:	00 00 00 
    17dd:	c7 45 e0 00 00 00 00 	movl   $0x0,-0x20(%ebp)
    17e4:	83 c4 10             	add    $0x10,%esp
    17e7:	c6 45 d4 00          	movb   $0x0,-0x2c(%ebp)
    17eb:	83 ec 0c             	sub    $0xc,%esp
    17ee:	8b 45 08             	mov    0x8(%ebp),%eax
    17f1:	56                   	push   %esi
    17f2:	68 e0 ac 00 00       	push   $0xace0
    17f7:	68 f0 aa 00 00       	push   $0xaaf0
    17fc:	50                   	push   %eax
    17fd:	53                   	push   %ebx
    17fe:	e8 1d b8 00 00       	call   d020 <getopt_long@plt>
    1803:	83 c4 20             	add    $0x20,%esp
    1806:	83 f8 70             	cmp    $0x70,%eax
    1809:	74 3d                	je     1848 <cmd_mkfile+0x98>
    180b:	83 f8 73             	cmp    $0x73,%eax
    180e:	74 70                	je     1880 <cmd_mkfile+0xd0>
    1810:	83 f8 68             	cmp    $0x68,%eax
    1813:	74 3b                	je     1850 <cmd_mkfile+0xa0>
    1815:	40                   	inc    %eax
    1816:	75 d3                	jne    17eb <cmd_mkfile+0x3b>
    1818:	a1 4c f8 00 00       	mov    0xf84c,%eax
    181d:	29 c3                	sub    %eax,%ebx
    181f:	4b                   	dec    %ebx
    1820:	0f 84 e2 00 00 00    	je     1908 <cmd_mkfile+0x158>
    1826:	50                   	push   %eax
    1827:	68 47 9f 00 00       	push   $0x9f47
    182c:	68 47 9f 00 00       	push   $0x9f47
    1831:	68 7c ac 00 00       	push   $0xac7c
    1836:	e8 b5 b7 00 00       	call   cff0 <printf@plt>
    183b:	83 c4 10             	add    $0x10,%esp
    183e:	b8 01 00 00 00       	mov    $0x1,%eax
    1843:	eb 32                	jmp    1877 <cmd_mkfile+0xc7>
    1845:	8d 76 00             	lea    0x0(%esi),%esi
    1848:	c6 45 d4 01          	movb   $0x1,-0x2c(%ebp)
    184c:	eb 9d                	jmp    17eb <cmd_mkfile+0x3b>
    184e:	66 90                	xchg   %ax,%ax
    1850:	50                   	push   %eax
    1851:	50                   	push   %eax
    1852:	68 47 9f 00 00       	push   $0x9f47
    1857:	68 3c ab 00 00       	push   $0xab3c
    185c:	e8 8f b7 00 00       	call   cff0 <printf@plt>
    1861:	5a                   	pop    %edx
    1862:	59                   	pop    %ecx
    1863:	68 47 9f 00 00       	push   $0x9f47
    1868:	68 64 ab 00 00       	push   $0xab64
    186d:	e8 7e b7 00 00       	call   cff0 <printf@plt>
    1872:	83 c4 10             	add    $0x10,%esp
    1875:	31 c0                	xor    %eax,%eax
    1877:	8d 65 f4             	lea    -0xc(%ebp),%esp
    187a:	5b                   	pop    %ebx
    187b:	5e                   	pop    %esi
    187c:	5f                   	pop    %edi
    187d:	5d                   	pop    %ebp
    187e:	c3                   	ret    
    187f:	90                   	nop
    1880:	50                   	push   %eax
    1881:	8d 45 e4             	lea    -0x1c(%ebp),%eax
    1884:	6a 0a                	push   $0xa
    1886:	50                   	push   %eax
    1887:	a1 48 f8 00 00       	mov    0xf848,%eax
    188c:	50                   	push   %eax
    188d:	e8 1e b9 00 00       	call   d1b0 <strtol@plt>
    1892:	8b 55 e4             	mov    -0x1c(%ebp),%edx
    1895:	89 c7                	mov    %eax,%edi
    1897:	83 c4 10             	add    $0x10,%esp
    189a:	0f be 02             	movsbl (%edx),%eax
    189d:	84 c0                	test   %al,%al
    189f:	74 47                	je     18e8 <cmd_mkfile+0x138>
    18a1:	80 7a 01 00          	cmpb   $0x0,0x1(%edx)
    18a5:	75 1a                	jne    18c1 <cmd_mkfile+0x111>
    18a7:	8d 50 bf             	lea    -0x41(%eax),%edx
    18aa:	83 fa 19             	cmp    $0x19,%edx
    18ad:	77 03                	ja     18b2 <cmd_mkfile+0x102>
    18af:	83 c0 20             	add    $0x20,%eax
    18b2:	83 f8 6b             	cmp    $0x6b,%eax
    18b5:	74 41                	je     18f8 <cmd_mkfile+0x148>
    18b7:	83 f8 6d             	cmp    $0x6d,%eax
    18ba:	74 24                	je     18e0 <cmd_mkfile+0x130>
    18bc:	83 f8 67             	cmp    $0x67,%eax
    18bf:	74 3f                	je     1900 <cmd_mkfile+0x150>
    18c1:	50                   	push   %eax
    18c2:	50                   	push   %eax
    18c3:	68 47 9f 00 00       	push   $0x9f47
    18c8:	68 54 ac 00 00       	push   $0xac54
    18cd:	e8 1e b7 00 00       	call   cff0 <printf@plt>
    18d2:	83 c4 10             	add    $0x10,%esp
    18d5:	b8 01 00 00 00       	mov    $0x1,%eax
    18da:	eb 9b                	jmp    1877 <cmd_mkfile+0xc7>
    18dc:	8d 74 26 00          	lea    0x0(%esi,%eiz,1),%esi
    18e0:	b8 00 00 10 00       	mov    $0x100000,%eax
    18e5:	0f af f8             	imul   %eax,%edi
    18e8:	85 ff                	test   %edi,%edi
    18ea:	0f 89 fb fe ff ff    	jns    17eb <cmd_mkfile+0x3b>
    18f0:	eb cf                	jmp    18c1 <cmd_mkfile+0x111>
    18f2:	8d b6 00 00 00 00    	lea    0x0(%esi),%esi
    18f8:	b8 00 04 00 00       	mov    $0x400,%eax
    18fd:	eb e6                	jmp    18e5 <cmd_mkfile+0x135>
    18ff:	90                   	nop
    1900:	b8 00 00 00 40       	mov    $0x40000000,%eax
    1905:	eb de                	jmp    18e5 <cmd_mkfile+0x135>
    1907:	90                   	nop
    1908:	8b 4d 08             	mov    0x8(%ebp),%ecx
    190b:	8b 34 81             	mov    (%ecx,%eax,4),%esi
    190e:	50                   	push   %eax
    190f:	68 b6 01 00 00       	push   $0x1b6
    1914:	6a 43                	push   $0x43
    1916:	56                   	push   %esi
    1917:	e8 84 bb 00 00       	call   d4a0 <open@plt>
    191c:	83 c4 10             	add    $0x10,%esp
    191f:	89 c3                	mov    %eax,%ebx
    1921:	85 c0                	test   %eax,%eax
    1923:	0f 88 25 01 00 00    	js     1a4e <cmd_mkfile+0x29e>
    1929:	85 ff                	test   %edi,%edi
    192b:	7e 70                	jle    199d <cmd_mkfile+0x1ed>
    192d:	80 7d d4 00          	cmpb   $0x0,-0x2c(%ebp)
    1931:	74 6a                	je     199d <cmd_mkfile+0x1ed>
    1933:	8d 47 ff             	lea    -0x1(%edi),%eax
    1936:	6a 00                	push   $0x0
    1938:	89 c2                	mov    %eax,%edx
    193a:	c6 45 e4 00          	movb   $0x0,-0x1c(%ebp)
    193e:	c1 fa 1f             	sar    $0x1f,%edx
    1941:	52                   	push   %edx
    1942:	50                   	push   %eax
    1943:	53                   	push   %ebx
    1944:	e8 37 b8 00 00       	call   d180 <lseek@plt>
    1949:	83 c4 10             	add    $0x10,%esp
    194c:	85 c0                	test   %eax,%eax
    194e:	78 1c                	js     196c <cmd_mkfile+0x1bc>
    1950:	8d 45 e4             	lea    -0x1c(%ebp),%eax
    1953:	51                   	push   %ecx
    1954:	6a 01                	push   $0x1
    1956:	50                   	push   %eax
    1957:	53                   	push   %ebx
    1958:	e8 d3 b8 00 00       	call   d230 <write@plt>
    195d:	89 c2                	mov    %eax,%edx
    195f:	83 c4 10             	add    $0x10,%esp
    1962:	31 c0                	xor    %eax,%eax
    1964:	85 d2                	test   %edx,%edx
    1966:	0f 89 0b ff ff ff    	jns    1877 <cmd_mkfile+0xc7>
    196c:	83 ec 0c             	sub    $0xc,%esp
    196f:	53                   	push   %ebx
    1970:	e8 8b bb 00 00       	call   d500 <close@plt>
    1975:	83 c4 10             	add    $0x10,%esp
    1978:	e8 d3 b6 00 00       	call   d050 <__errno@plt>
    197d:	52                   	push   %edx
    197e:	8b 08                	mov    (%eax),%ecx
    1980:	51                   	push   %ecx
    1981:	68 47 9f 00 00       	push   $0x9f47
    1986:	68 10 ab 00 00       	push   $0xab10
    198b:	e8 60 b6 00 00       	call   cff0 <printf@plt>
    1990:	83 c4 10             	add    $0x10,%esp
    1993:	b8 01 00 00 00       	mov    $0x1,%eax
    1998:	e9 da fe ff ff       	jmp    1877 <cmd_mkfile+0xc7>
    199d:	52                   	push   %edx
    199e:	52                   	push   %edx
    199f:	6a 01                	push   $0x1
    19a1:	68 00 40 00 00       	push   $0x4000
    19a6:	e8 75 b8 00 00       	call   d220 <calloc@plt>
    19ab:	83 c4 10             	add    $0x10,%esp
    19ae:	89 45 d4             	mov    %eax,-0x2c(%ebp)
    19b1:	85 c0                	test   %eax,%eax
    19b3:	0f 84 b3 00 00 00    	je     1a6c <cmd_mkfile+0x2bc>
    19b9:	31 f6                	xor    %esi,%esi
    19bb:	85 ff                	test   %edi,%edi
    19bd:	7f 0f                	jg     19ce <cmd_mkfile+0x21e>
    19bf:	eb 67                	jmp    1a28 <cmd_mkfile+0x278>
    19c1:	8d b4 26 00 00 00 00 	lea    0x0(%esi,%eiz,1),%esi
    19c8:	01 c6                	add    %eax,%esi
    19ca:	39 fe                	cmp    %edi,%esi
    19cc:	7d 5a                	jge    1a28 <cmd_mkfile+0x278>
    19ce:	50                   	push   %eax
    19cf:	89 f8                	mov    %edi,%eax
    19d1:	29 f0                	sub    %esi,%eax
    19d3:	3d 00 40 00 00       	cmp    $0x4000,%eax
    19d8:	7e 05                	jle    19df <cmd_mkfile+0x22f>
    19da:	b8 00 40 00 00       	mov    $0x4000,%eax
    19df:	50                   	push   %eax
    19e0:	8b 45 d4             	mov    -0x2c(%ebp),%eax
    19e3:	50                   	push   %eax
    19e4:	53                   	push   %ebx
    19e5:	e8 46 b8 00 00       	call   d230 <write@plt>
    19ea:	83 c4 10             	add    $0x10,%esp
    19ed:	85 c0                	test   %eax,%eax
    19ef:	7f d7                	jg     19c8 <cmd_mkfile+0x218>
    19f1:	e8 5a b6 00 00       	call   d050 <__errno@plt>
    19f6:	56                   	push   %esi
    19f7:	8b 38                	mov    (%eax),%edi
    19f9:	57                   	push   %edi
    19fa:	68 47 9f 00 00       	push   $0x9f47
    19ff:	68 10 ab 00 00       	push   $0xab10
    1a04:	e8 e7 b5 00 00       	call   cff0 <printf@plt>
    1a09:	89 1c 24             	mov    %ebx,(%esp)
    1a0c:	e8 ef ba 00 00       	call   d500 <close@plt>
    1a11:	58                   	pop    %eax
    1a12:	8b 45 d4             	mov    -0x2c(%ebp),%eax
    1a15:	50                   	push   %eax
    1a16:	e8 f5 ba 00 00       	call   d510 <free@plt>
    1a1b:	83 c4 10             	add    $0x10,%esp
    1a1e:	b8 01 00 00 00       	mov    $0x1,%eax
    1a23:	e9 4f fe ff ff       	jmp    1877 <cmd_mkfile+0xc7>
    1a28:	83 ec 0c             	sub    $0xc,%esp
    1a2b:	8b 45 d4             	mov    -0x2c(%ebp),%eax
    1a2e:	50                   	push   %eax
    1a2f:	e8 dc ba 00 00       	call   d510 <free@plt>
    1a34:	89 1c 24             	mov    %ebx,(%esp)
    1a37:	e8 c4 ba 00 00       	call   d500 <close@plt>
    1a3c:	83 c4 10             	add    $0x10,%esp
    1a3f:	85 c0                	test   %eax,%eax
    1a41:	0f 88 31 ff ff ff    	js     1978 <cmd_mkfile+0x1c8>
    1a47:	31 c0                	xor    %eax,%eax
    1a49:	e9 29 fe ff ff       	jmp    1877 <cmd_mkfile+0xc7>
    1a4e:	53                   	push   %ebx
    1a4f:	56                   	push   %esi
    1a50:	68 47 9f 00 00       	push   $0x9f47
    1a55:	68 b0 ac 00 00       	push   $0xacb0
    1a5a:	e8 91 b5 00 00       	call   cff0 <printf@plt>
    1a5f:	83 c4 10             	add    $0x10,%esp
    1a62:	b8 01 00 00 00       	mov    $0x1,%eax
    1a67:	e9 0b fe ff ff       	jmp    1877 <cmd_mkfile+0xc7>
    1a6c:	50                   	push   %eax
    1a6d:	50                   	push   %eax
    1a6e:	68 47 9f 00 00       	push   $0x9f47
    1a73:	68 f5 aa 00 00       	push   $0xaaf5
    1a78:	e8 73 b5 00 00       	call   cff0 <printf@plt>
    1a7d:	83 c4 10             	add    $0x10,%esp
    1a80:	b8 01 00 00 00       	mov    $0x1,%eax
    1a85:	e9 ed fd ff ff       	jmp    1877 <cmd_mkfile+0xc7>
    1a8a:	66 90                	xchg   %ax,%ax
    1a8c:	66 90                	xchg   %ax,%ax
    1a8e:	66 90                	xchg   %ax,%ax

00001a90 <rm_recursive>:
    1a90:	55                   	push   %ebp
    1a91:	89 e5                	mov    %esp,%ebp
    1a93:	57                   	push   %edi
    1a94:	56                   	push   %esi
    1a95:	53                   	push   %ebx
    1a96:	81 ec 28 01 00 00    	sub    $0x128,%esp
    1a9c:	89 c7                	mov    %eax,%edi
    1a9e:	50                   	push   %eax
    1a9f:	e8 7c b6 00 00       	call   d120 <rmdir@plt>
    1aa4:	83 c4 10             	add    $0x10,%esp
    1aa7:	85 c0                	test   %eax,%eax
    1aa9:	75 0d                	jne    1ab8 <rm_recursive+0x28>
    1aab:	8d 65 f4             	lea    -0xc(%ebp),%esp
    1aae:	31 c0                	xor    %eax,%eax
    1ab0:	5b                   	pop    %ebx
    1ab1:	5e                   	pop    %esi
    1ab2:	5f                   	pop    %edi
    1ab3:	5d                   	pop    %ebp
    1ab4:	c3                   	ret    
    1ab5:	8d 76 00             	lea    0x0(%esi),%esi
    1ab8:	83 ec 0c             	sub    $0xc,%esp
    1abb:	57                   	push   %edi
    1abc:	e8 9f b8 00 00       	call   d360 <opendir@plt>
    1ac1:	83 c4 10             	add    $0x10,%esp
    1ac4:	89 85 e4 fe ff ff    	mov    %eax,-0x11c(%ebp)
    1aca:	85 c0                	test   %eax,%eax
    1acc:	0f 84 12 01 00 00    	je     1be4 <rm_recursive+0x154>
    1ad2:	8d 9d e9 fe ff ff    	lea    -0x117(%ebp),%ebx
    1ad8:	50                   	push   %eax
    1ad9:	68 ff 00 00 00       	push   $0xff
    1ade:	6a 00                	push   $0x0
    1ae0:	53                   	push   %ebx
    1ae1:	31 f6                	xor    %esi,%esi
    1ae3:	e8 48 b8 00 00       	call   d330 <memset@plt>
    1ae8:	83 c4 10             	add    $0x10,%esp
    1aeb:	eb 18                	jmp    1b05 <rm_recursive+0x75>
    1aed:	8d 76 00             	lea    0x0(%esi),%esi
    1af0:	83 ec 0c             	sub    $0xc,%esp
    1af3:	50                   	push   %eax
    1af4:	e8 e7 b9 00 00       	call   d4e0 <closedir@plt>
    1af9:	89 d8                	mov    %ebx,%eax
    1afb:	e8 90 ff ff ff       	call   1a90 <rm_recursive>
    1b00:	83 c4 10             	add    $0x10,%esp
    1b03:	01 c6                	add    %eax,%esi
    1b05:	83 ec 0c             	sub    $0xc,%esp
    1b08:	8b 8d e4 fe ff ff    	mov    -0x11c(%ebp),%ecx
    1b0e:	51                   	push   %ecx
    1b0f:	e8 1c b6 00 00       	call   d130 <readdir@plt>
    1b14:	83 c4 10             	add    $0x10,%esp
    1b17:	85 c0                	test   %eax,%eax
    1b19:	74 75                	je     1b90 <rm_recursive+0x100>
    1b1b:	83 ec 0c             	sub    $0xc,%esp
    1b1e:	50                   	push   %eax
    1b1f:	57                   	push   %edi
    1b20:	68 32 ad 00 00       	push   $0xad32
    1b25:	68 fe 00 00 00       	push   $0xfe
    1b2a:	53                   	push   %ebx
    1b2b:	e8 00 b5 00 00       	call   d030 <snprintf@plt>
    1b30:	83 c4 14             	add    $0x14,%esp
    1b33:	53                   	push   %ebx
    1b34:	e8 27 b8 00 00       	call   d360 <opendir@plt>
    1b39:	83 c4 10             	add    $0x10,%esp
    1b3c:	85 c0                	test   %eax,%eax
    1b3e:	75 b0                	jne    1af0 <rm_recursive+0x60>
    1b40:	50                   	push   %eax
    1b41:	50                   	push   %eax
    1b42:	6a 10                	push   $0x10
    1b44:	53                   	push   %ebx
    1b45:	e8 56 b9 00 00       	call   d4a0 <open@plt>
    1b4a:	83 c4 10             	add    $0x10,%esp
    1b4d:	85 c0                	test   %eax,%eax
    1b4f:	78 b4                	js     1b05 <rm_recursive+0x75>
    1b51:	83 ec 0c             	sub    $0xc,%esp
    1b54:	50                   	push   %eax
    1b55:	e8 a6 b9 00 00       	call   d500 <close@plt>
    1b5a:	89 1c 24             	mov    %ebx,(%esp)
    1b5d:	e8 5e b7 00 00       	call   d2c0 <unlink@plt>
    1b62:	83 c4 10             	add    $0x10,%esp
    1b65:	31 d2                	xor    %edx,%edx
    1b67:	85 c0                	test   %eax,%eax
    1b69:	75 05                	jne    1b70 <rm_recursive+0xe0>
    1b6b:	01 d6                	add    %edx,%esi
    1b6d:	eb 96                	jmp    1b05 <rm_recursive+0x75>
    1b6f:	90                   	nop
    1b70:	50                   	push   %eax
    1b71:	53                   	push   %ebx
    1b72:	68 38 ad 00 00       	push   $0xad38
    1b77:	6a 01                	push   $0x1
    1b79:	e8 b2 45 00 00       	call   6130 <cli_error>
    1b7e:	ba 01 00 00 00       	mov    $0x1,%edx
    1b83:	83 c4 10             	add    $0x10,%esp
    1b86:	01 d6                	add    %edx,%esi
    1b88:	e9 78 ff ff ff       	jmp    1b05 <rm_recursive+0x75>
    1b8d:	8d 76 00             	lea    0x0(%esi),%esi
    1b90:	83 ec 0c             	sub    $0xc,%esp
    1b93:	8b 95 e4 fe ff ff    	mov    -0x11c(%ebp),%edx
    1b99:	52                   	push   %edx
    1b9a:	e8 41 b9 00 00       	call   d4e0 <closedir@plt>
    1b9f:	83 c4 10             	add    $0x10,%esp
    1ba2:	83 ec 0c             	sub    $0xc,%esp
    1ba5:	57                   	push   %edi
    1ba6:	e8 75 b5 00 00       	call   d120 <rmdir@plt>
    1bab:	83 c4 10             	add    $0x10,%esp
    1bae:	85 c0                	test   %eax,%eax
    1bb0:	75 16                	jne    1bc8 <rm_recursive+0x138>
    1bb2:	e8 99 b4 00 00       	call   d050 <__errno@plt>
    1bb7:	8b 00                	mov    (%eax),%eax
    1bb9:	8d 65 f4             	lea    -0xc(%ebp),%esp
    1bbc:	5b                   	pop    %ebx
    1bbd:	5e                   	pop    %esi
    1bbe:	5f                   	pop    %edi
    1bbf:	5d                   	pop    %ebp
    1bc0:	c3                   	ret    
    1bc1:	8d b4 26 00 00 00 00 	lea    0x0(%esi,%eiz,1),%esi
    1bc8:	50                   	push   %eax
    1bc9:	57                   	push   %edi
    1bca:	68 55 ad 00 00       	push   $0xad55
    1bcf:	6a 06                	push   $0x6
    1bd1:	e8 5a 45 00 00       	call   6130 <cli_error>
    1bd6:	83 c4 10             	add    $0x10,%esp
    1bd9:	8d 65 f4             	lea    -0xc(%ebp),%esp
    1bdc:	8d 46 01             	lea    0x1(%esi),%eax
    1bdf:	5b                   	pop    %ebx
    1be0:	5e                   	pop    %esi
    1be1:	5f                   	pop    %edi
    1be2:	5d                   	pop    %ebp
    1be3:	c3                   	ret    
    1be4:	50                   	push   %eax
    1be5:	57                   	push   %edi
    1be6:	68 20 ad 00 00       	push   $0xad20
    1beb:	6a 01                	push   $0x1
    1bed:	31 f6                	xor    %esi,%esi
    1bef:	e8 3c 45 00 00       	call   6130 <cli_error>
    1bf4:	83 c4 10             	add    $0x10,%esp
    1bf7:	eb a9                	jmp    1ba2 <rm_recursive+0x112>
    1bf9:	8d b4 26 00 00 00 00 	lea    0x0(%esi,%eiz,1),%esi

00001c00 <help_cmd_rm>:
    1c00:	55                   	push   %ebp
    1c01:	89 e5                	mov    %esp,%ebp
    1c03:	83 ec 08             	sub    $0x8,%esp
    1c06:	8b 45 08             	mov    0x8(%ebp),%eax
    1c09:	85 c0                	test   %eax,%eax
    1c0b:	74 33                	je     1c40 <help_cmd_rm+0x40>
    1c0d:	50                   	push   %eax
    1c0e:	50                   	push   %eax
    1c0f:	68 5e 9f 00 00       	push   $0x9f5e
    1c14:	68 b0 ad 00 00       	push   $0xadb0
    1c19:	e8 d2 b3 00 00       	call   cff0 <printf@plt>
    1c1e:	83 c4 0c             	add    $0xc,%esp
    1c21:	68 5e 9f 00 00       	push   $0x9f5e
    1c26:	68 5e 9f 00 00       	push   $0x9f5e
    1c2b:	68 d8 ad 00 00       	push   $0xadd8
    1c30:	e8 bb b3 00 00       	call   cff0 <printf@plt>
    1c35:	83 c4 10             	add    $0x10,%esp
    1c38:	c9                   	leave  
    1c39:	c3                   	ret    
    1c3a:	8d b6 00 00 00 00    	lea    0x0(%esi),%esi
    1c40:	52                   	push   %edx
    1c41:	52                   	push   %edx
    1c42:	68 5e 9f 00 00       	push   $0x9f5e
    1c47:	68 b0 ad 00 00       	push   $0xadb0
    1c4c:	e8 9f b3 00 00       	call   cff0 <printf@plt>
    1c51:	83 c4 10             	add    $0x10,%esp
    1c54:	c9                   	leave  
    1c55:	c3                   	ret    
    1c56:	8d 76 00             	lea    0x0(%esi),%esi
    1c59:	8d bc 27 00 00 00 00 	lea    0x0(%edi,%eiz,1),%edi

00001c60 <cmd_rm>:
    1c60:	55                   	push   %ebp
    1c61:	89 e5                	mov    %esp,%ebp
    1c63:	57                   	push   %edi
    1c64:	56                   	push   %esi
    1c65:	53                   	push   %ebx
    1c66:	83 ec 38             	sub    $0x38,%esp
    1c69:	8b 5d 08             	mov    0x8(%ebp),%ebx
    1c6c:	53                   	push   %ebx
    1c6d:	e8 6e 4c 00 00       	call   68e0 <cli_count_args>
    1c72:	83 c4 10             	add    $0x10,%esp
    1c75:	83 f8 01             	cmp    $0x1,%eax
    1c78:	0f 86 f2 02 00 00    	jbe    1f70 <cmd_rm+0x310>
    1c7e:	83 ec 0c             	sub    $0xc,%esp
    1c81:	89 c6                	mov    %eax,%esi
    1c83:	c7 05 84 f8 00 00 00 	movl   $0x0,0xf884
    1c8a:	00 00 00 
    1c8d:	c7 05 80 f8 00 00 00 	movl   $0x0,0xf880
    1c94:	00 00 00 
    1c97:	68 ff 00 00 00       	push   $0xff
    1c9c:	c7 05 88 f8 00 00 00 	movl   $0x0,0xf888
    1ca3:	00 00 00 
    1ca6:	e8 35 b4 00 00       	call   d0e0 <malloc@plt>
    1cab:	83 c4 10             	add    $0x10,%esp
    1cae:	a3 9c f8 00 00       	mov    %eax,0xf89c
    1cb3:	85 c0                	test   %eax,%eax
    1cb5:	0f 84 4d 02 00 00    	je     1f08 <cmd_rm+0x2a8>
    1cbb:	51                   	push   %ecx
    1cbc:	68 ff 00 00 00       	push   $0xff
    1cc1:	6a 00                	push   $0x0
    1cc3:	50                   	push   %eax
    1cc4:	e8 67 b6 00 00       	call   d330 <memset@plt>
    1cc9:	c7 04 24 ff 00 00 00 	movl   $0xff,(%esp)
    1cd0:	e8 0b b4 00 00       	call   d0e0 <malloc@plt>
    1cd5:	83 c4 10             	add    $0x10,%esp
    1cd8:	a3 94 f8 00 00       	mov    %eax,0xf894
    1cdd:	85 c0                	test   %eax,%eax
    1cdf:	0f 84 23 02 00 00    	je     1f08 <cmd_rm+0x2a8>
    1ce5:	52                   	push   %edx
    1ce6:	68 ff 00 00 00       	push   $0xff
    1ceb:	6a 00                	push   $0x0
    1ced:	50                   	push   %eax
    1cee:	e8 3d b6 00 00       	call   d330 <memset@plt>
    1cf3:	c7 04 24 ff 00 00 00 	movl   $0xff,(%esp)
    1cfa:	e8 e1 b3 00 00       	call   d0e0 <malloc@plt>
    1cff:	83 c4 10             	add    $0x10,%esp
    1d02:	a3 98 f8 00 00       	mov    %eax,0xf898
    1d07:	85 c0                	test   %eax,%eax
    1d09:	0f 84 f9 01 00 00    	je     1f08 <cmd_rm+0x2a8>
    1d0f:	52                   	push   %edx
    1d10:	68 ff 00 00 00       	push   $0xff
    1d15:	6a 00                	push   $0x0
    1d17:	50                   	push   %eax
    1d18:	e8 13 b6 00 00       	call   d330 <memset@plt>
    1d1d:	c7 04 24 33 bd 00 00 	movl   $0xbd33,(%esp)
    1d24:	e8 37 b5 00 00       	call   d260 <chdir@plt>
    1d29:	a1 94 f8 00 00       	mov    0xf894,%eax
    1d2e:	59                   	pop    %ecx
    1d2f:	5f                   	pop    %edi
    1d30:	68 ff 00 00 00       	push   $0xff
    1d35:	50                   	push   %eax
    1d36:	e8 45 b6 00 00       	call   d380 <getcwd@plt>
    1d3b:	83 c4 10             	add    $0x10,%esp
    1d3e:	85 c0                	test   %eax,%eax
    1d40:	0f 84 c2 01 00 00    	je     1f08 <cmd_rm+0x2a8>
    1d46:	c7 05 5c f8 00 00 01 	movl   $0x1,0xf85c
    1d4d:	00 00 00 
    1d50:	c7 05 4c f8 00 00 00 	movl   $0x0,0xf84c
    1d57:	00 00 00 
    1d5a:	c7 45 e4 00 00 00 00 	movl   $0x0,-0x1c(%ebp)
    1d61:	8d 7d e4             	lea    -0x1c(%ebp),%edi
    1d64:	83 ec 0c             	sub    $0xc,%esp
    1d67:	57                   	push   %edi
    1d68:	68 00 b0 00 00       	push   $0xb000
    1d6d:	68 67 ad 00 00       	push   $0xad67
    1d72:	53                   	push   %ebx
    1d73:	56                   	push   %esi
    1d74:	e8 a7 b2 00 00       	call   d020 <getopt_long@plt>
    1d79:	83 c4 20             	add    $0x20,%esp
    1d7c:	8d 50 9a             	lea    -0x66(%eax),%edx
    1d7f:	83 fa 10             	cmp    $0x10,%edx
    1d82:	0f 87 90 00 00 00    	ja     1e18 <cmd_rm+0x1b8>
    1d88:	ff 24 95 a0 af 00 00 	jmp    *0xafa0(,%edx,4)
    1d8f:	90                   	nop
    1d90:	c7 05 80 f8 00 00 01 	movl   $0x1,0xf880
    1d97:	00 00 00 
    1d9a:	eb c8                	jmp    1d64 <cmd_rm+0x104>
    1d9c:	8d 74 26 00          	lea    0x0(%esi,%eiz,1),%esi
    1da0:	50                   	push   %eax
    1da1:	50                   	push   %eax
    1da2:	68 2c a7 00 00       	push   $0xa72c
    1da7:	68 ac 9e 00 00       	push   $0x9eac
    1dac:	e8 3f b2 00 00       	call   cff0 <printf@plt>
    1db1:	83 c4 10             	add    $0x10,%esp
    1db4:	31 c0                	xor    %eax,%eax
    1db6:	8d 65 f4             	lea    -0xc(%ebp),%esp
    1db9:	5b                   	pop    %ebx
    1dba:	5e                   	pop    %esi
    1dbb:	5f                   	pop    %edi
    1dbc:	5d                   	pop    %ebp
    1dbd:	c3                   	ret    
    1dbe:	66 90                	xchg   %ax,%ax
    1dc0:	c7 05 88 f8 00 00 01 	movl   $0x1,0xf888
    1dc7:	00 00 00 
    1dca:	eb 98                	jmp    1d64 <cmd_rm+0x104>
    1dcc:	8d 74 26 00          	lea    0x0(%esi,%eiz,1),%esi
    1dd0:	c7 05 84 f8 00 00 01 	movl   $0x1,0xf884
    1dd7:	00 00 00 
    1dda:	eb 88                	jmp    1d64 <cmd_rm+0x104>
    1ddc:	8d 74 26 00          	lea    0x0(%esi,%eiz,1),%esi
    1de0:	50                   	push   %eax
    1de1:	50                   	push   %eax
    1de2:	68 5e 9f 00 00       	push   $0x9f5e
    1de7:	68 b0 ad 00 00       	push   $0xadb0
    1dec:	e8 ff b1 00 00       	call   cff0 <printf@plt>
    1df1:	83 c4 0c             	add    $0xc,%esp
    1df4:	68 5e 9f 00 00       	push   $0x9f5e
    1df9:	68 5e 9f 00 00       	push   $0x9f5e
    1dfe:	68 d8 ad 00 00       	push   $0xadd8
    1e03:	e8 e8 b1 00 00       	call   cff0 <printf@plt>
    1e08:	83 c4 10             	add    $0x10,%esp
    1e0b:	8d 65 f4             	lea    -0xc(%ebp),%esp
    1e0e:	31 c0                	xor    %eax,%eax
    1e10:	5b                   	pop    %ebx
    1e11:	5e                   	pop    %esi
    1e12:	5f                   	pop    %edi
    1e13:	5d                   	pop    %ebp
    1e14:	c3                   	ret    
    1e15:	8d 76 00             	lea    0x0(%esi),%esi
    1e18:	40                   	inc    %eax
    1e19:	0f 85 45 ff ff ff    	jne    1d64 <cmd_rm+0x104>
    1e1f:	a1 4c f8 00 00       	mov    0xf84c,%eax
    1e24:	39 c6                	cmp    %eax,%esi
    1e26:	0f 84 6a 01 00 00    	je     1f96 <cmd_rm+0x336>
    1e2c:	8d 14 85 00 00 00 00 	lea    0x0(,%eax,4),%edx
    1e33:	8d 3c 13             	lea    (%ebx,%edx,1),%edi
    1e36:	8b 07                	mov    (%edi),%eax
    1e38:	85 c0                	test   %eax,%eax
    1e3a:	0f 84 85 01 00 00    	je     1fc5 <cmd_rm+0x365>
    1e40:	8d 4c 13 04          	lea    0x4(%ebx,%edx,1),%ecx
    1e44:	c7 45 d0 00 00 00 00 	movl   $0x0,-0x30(%ebp)
    1e4b:	89 4d d4             	mov    %ecx,-0x2c(%ebp)
    1e4e:	31 db                	xor    %ebx,%ebx
    1e50:	eb 34                	jmp    1e86 <cmd_rm+0x226>
    1e52:	8d b6 00 00 00 00    	lea    0x0(%esi),%esi
    1e58:	50                   	push   %eax
    1e59:	50                   	push   %eax
    1e5a:	53                   	push   %ebx
    1e5b:	68 74 af 00 00       	push   $0xaf74
    1e60:	e8 8b b1 00 00       	call   cff0 <printf@plt>
    1e65:	8b 45 d0             	mov    -0x30(%ebp),%eax
    1e68:	40                   	inc    %eax
    1e69:	83 c4 10             	add    $0x10,%esp
    1e6c:	89 45 d0             	mov    %eax,-0x30(%ebp)
    1e6f:	8b 4d d4             	mov    -0x2c(%ebp),%ecx
    1e72:	83 c7 04             	add    $0x4,%edi
    1e75:	83 c1 04             	add    $0x4,%ecx
    1e78:	8b 41 fc             	mov    -0x4(%ecx),%eax
    1e7b:	89 4d d4             	mov    %ecx,-0x2c(%ebp)
    1e7e:	85 c0                	test   %eax,%eax
    1e80:	0f 84 f2 01 00 00    	je     2078 <cmd_rm+0x418>
    1e86:	83 ec 0c             	sub    $0xc,%esp
    1e89:	50                   	push   %eax
    1e8a:	e8 31 b5 00 00       	call   d3c0 <str_size@plt>
    1e8f:	59                   	pop    %ecx
    1e90:	8d 70 02             	lea    0x2(%eax),%esi
    1e93:	58                   	pop    %eax
    1e94:	56                   	push   %esi
    1e95:	53                   	push   %ebx
    1e96:	e8 35 b4 00 00       	call   d2d0 <realloc@plt>
    1e9b:	83 c4 10             	add    $0x10,%esp
    1e9e:	89 c3                	mov    %eax,%ebx
    1ea0:	85 c0                	test   %eax,%eax
    1ea2:	0f 84 08 01 00 00    	je     1fb0 <cmd_rm+0x350>
    1ea8:	50                   	push   %eax
    1ea9:	56                   	push   %esi
    1eaa:	6a 00                	push   $0x0
    1eac:	53                   	push   %ebx
    1ead:	e8 7e b4 00 00       	call   d330 <memset@plt>
    1eb2:	8b 17                	mov    (%edi),%edx
    1eb4:	52                   	push   %edx
    1eb5:	68 52 ad 00 00       	push   $0xad52
    1eba:	56                   	push   %esi
    1ebb:	53                   	push   %ebx
    1ebc:	e8 6f b1 00 00       	call   d030 <snprintf@plt>
    1ec1:	83 c4 14             	add    $0x14,%esp
    1ec4:	53                   	push   %ebx
    1ec5:	e8 96 b4 00 00       	call   d360 <opendir@plt>
    1eca:	83 c4 10             	add    $0x10,%esp
    1ecd:	85 c0                	test   %eax,%eax
    1ecf:	0f 84 53 01 00 00    	je     2028 <cmd_rm+0x3c8>
    1ed5:	83 ec 0c             	sub    $0xc,%esp
    1ed8:	50                   	push   %eax
    1ed9:	e8 02 b6 00 00       	call   d4e0 <closedir@plt>
    1ede:	a1 84 f8 00 00       	mov    0xf884,%eax
    1ee3:	83 c4 10             	add    $0x10,%esp
    1ee6:	85 c0                	test   %eax,%eax
    1ee8:	0f 84 6a ff ff ff    	je     1e58 <cmd_rm+0x1f8>
    1eee:	89 d8                	mov    %ebx,%eax
    1ef0:	e8 9b fb ff ff       	call   1a90 <rm_recursive>
    1ef5:	8b 75 d0             	mov    -0x30(%ebp),%esi
    1ef8:	01 c6                	add    %eax,%esi
    1efa:	89 75 d0             	mov    %esi,-0x30(%ebp)
    1efd:	e9 6d ff ff ff       	jmp    1e6f <cmd_rm+0x20f>
    1f02:	8d b6 00 00 00 00    	lea    0x0(%esi),%esi
    1f08:	51                   	push   %ecx
    1f09:	68 5e 9f 00 00       	push   $0x9f5e
    1f0e:	68 80 ad 00 00       	push   $0xad80
    1f13:	6a 04                	push   $0x4
    1f15:	e8 16 42 00 00       	call   6130 <cli_error>
    1f1a:	a1 9c f8 00 00       	mov    0xf89c,%eax
    1f1f:	83 c4 10             	add    $0x10,%esp
    1f22:	85 c0                	test   %eax,%eax
    1f24:	74 0c                	je     1f32 <cmd_rm+0x2d2>
    1f26:	83 ec 0c             	sub    $0xc,%esp
    1f29:	50                   	push   %eax
    1f2a:	e8 e1 b5 00 00       	call   d510 <free@plt>
    1f2f:	83 c4 10             	add    $0x10,%esp
    1f32:	a1 94 f8 00 00       	mov    0xf894,%eax
    1f37:	85 c0                	test   %eax,%eax
    1f39:	74 0c                	je     1f47 <cmd_rm+0x2e7>
    1f3b:	83 ec 0c             	sub    $0xc,%esp
    1f3e:	50                   	push   %eax
    1f3f:	e8 cc b5 00 00       	call   d510 <free@plt>
    1f44:	83 c4 10             	add    $0x10,%esp
    1f47:	a1 98 f8 00 00       	mov    0xf898,%eax
    1f4c:	85 c0                	test   %eax,%eax
    1f4e:	74 0c                	je     1f5c <cmd_rm+0x2fc>
    1f50:	83 ec 0c             	sub    $0xc,%esp
    1f53:	50                   	push   %eax
    1f54:	e8 b7 b5 00 00       	call   d510 <free@plt>
    1f59:	83 c4 10             	add    $0x10,%esp
    1f5c:	8d 65 f4             	lea    -0xc(%ebp),%esp
    1f5f:	b8 01 00 00 00       	mov    $0x1,%eax
    1f64:	5b                   	pop    %ebx
    1f65:	5e                   	pop    %esi
    1f66:	5f                   	pop    %edi
    1f67:	5d                   	pop    %ebp
    1f68:	c3                   	ret    
    1f69:	8d b4 26 00 00 00 00 	lea    0x0(%esi,%eiz,1),%esi
    1f70:	68 5e 9f 00 00       	push   $0x9f5e
    1f75:	68 5e 9f 00 00       	push   $0x9f5e
    1f7a:	68 48 af 00 00       	push   $0xaf48
    1f7f:	6a 01                	push   $0x1
    1f81:	e8 aa 41 00 00       	call   6130 <cli_error>
    1f86:	83 c4 10             	add    $0x10,%esp
    1f89:	8d 65 f4             	lea    -0xc(%ebp),%esp
    1f8c:	b8 01 00 00 00       	mov    $0x1,%eax
    1f91:	5b                   	pop    %ebx
    1f92:	5e                   	pop    %esi
    1f93:	5f                   	pop    %edi
    1f94:	5d                   	pop    %ebp
    1f95:	c3                   	ret    
    1f96:	68 5e 9f 00 00       	push   $0x9f5e
    1f9b:	68 5e 9f 00 00       	push   $0x9f5e
    1fa0:	68 48 af 00 00       	push   $0xaf48
    1fa5:	6a 01                	push   $0x1
    1fa7:	e9 69 ff ff ff       	jmp    1f15 <cmd_rm+0x2b5>
    1fac:	8d 74 26 00          	lea    0x0(%esi,%eiz,1),%esi
    1fb0:	83 ec 0c             	sub    $0xc,%esp
    1fb3:	68 6d ad 00 00       	push   $0xad6d
    1fb8:	e8 33 b0 00 00       	call   cff0 <printf@plt>
    1fbd:	83 c4 10             	add    $0x10,%esp
    1fc0:	b8 01 00 00 00       	mov    $0x1,%eax
    1fc5:	8b 15 9c f8 00 00    	mov    0xf89c,%edx
    1fcb:	85 d2                	test   %edx,%edx
    1fcd:	74 12                	je     1fe1 <cmd_rm+0x381>
    1fcf:	83 ec 0c             	sub    $0xc,%esp
    1fd2:	89 45 d4             	mov    %eax,-0x2c(%ebp)
    1fd5:	52                   	push   %edx
    1fd6:	e8 35 b5 00 00       	call   d510 <free@plt>
    1fdb:	83 c4 10             	add    $0x10,%esp
    1fde:	8b 45 d4             	mov    -0x2c(%ebp),%eax
    1fe1:	8b 15 94 f8 00 00    	mov    0xf894,%edx
    1fe7:	85 d2                	test   %edx,%edx
    1fe9:	74 12                	je     1ffd <cmd_rm+0x39d>
    1feb:	83 ec 0c             	sub    $0xc,%esp
    1fee:	89 45 d4             	mov    %eax,-0x2c(%ebp)
    1ff1:	52                   	push   %edx
    1ff2:	e8 19 b5 00 00       	call   d510 <free@plt>
    1ff7:	83 c4 10             	add    $0x10,%esp
    1ffa:	8b 45 d4             	mov    -0x2c(%ebp),%eax
    1ffd:	8b 15 98 f8 00 00    	mov    0xf898,%edx
    2003:	85 d2                	test   %edx,%edx
    2005:	0f 84 ab fd ff ff    	je     1db6 <cmd_rm+0x156>
    200b:	83 ec 0c             	sub    $0xc,%esp
    200e:	89 45 d4             	mov    %eax,-0x2c(%ebp)
    2011:	52                   	push   %edx
    2012:	e8 f9 b4 00 00       	call   d510 <free@plt>
    2017:	83 c4 10             	add    $0x10,%esp
    201a:	8b 45 d4             	mov    -0x2c(%ebp),%eax
    201d:	e9 94 fd ff ff       	jmp    1db6 <cmd_rm+0x156>
    2022:	8d b6 00 00 00 00    	lea    0x0(%esi),%esi
    2028:	50                   	push   %eax
    2029:	50                   	push   %eax
    202a:	6a 10                	push   $0x10
    202c:	53                   	push   %ebx
    202d:	e8 6e b4 00 00       	call   d4a0 <open@plt>
    2032:	83 c4 10             	add    $0x10,%esp
    2035:	85 c0                	test   %eax,%eax
    2037:	78 0c                	js     2045 <cmd_rm+0x3e5>
    2039:	83 ec 0c             	sub    $0xc,%esp
    203c:	50                   	push   %eax
    203d:	e8 be b4 00 00       	call   d500 <close@plt>
    2042:	83 c4 10             	add    $0x10,%esp
    2045:	83 ec 0c             	sub    $0xc,%esp
    2048:	53                   	push   %ebx
    2049:	e8 72 b2 00 00       	call   d2c0 <unlink@plt>
    204e:	83 c4 10             	add    $0x10,%esp
    2051:	85 c0                	test   %eax,%eax
    2053:	0f 84 9c fe ff ff    	je     1ef5 <cmd_rm+0x295>
    2059:	50                   	push   %eax
    205a:	53                   	push   %ebx
    205b:	68 38 ad 00 00       	push   $0xad38
    2060:	6a 01                	push   $0x1
    2062:	e8 c9 40 00 00       	call   6130 <cli_error>
    2067:	83 c4 10             	add    $0x10,%esp
    206a:	b8 01 00 00 00       	mov    $0x1,%eax
    206f:	e9 81 fe ff ff       	jmp    1ef5 <cmd_rm+0x295>
    2074:	8d 74 26 00          	lea    0x0(%esi,%eiz,1),%esi
    2078:	83 ec 0c             	sub    $0xc,%esp
    207b:	53                   	push   %ebx
    207c:	e8 8f b4 00 00       	call   d510 <free@plt>
    2081:	31 c0                	xor    %eax,%eax
    2083:	8b 55 d0             	mov    -0x30(%ebp),%edx
    2086:	83 c4 10             	add    $0x10,%esp
    2089:	85 d2                	test   %edx,%edx
    208b:	0f 95 c0             	setne  %al
    208e:	e9 32 ff ff ff       	jmp    1fc5 <cmd_rm+0x365>
    2093:	66 90                	xchg   %ax,%ax
    2095:	66 90                	xchg   %ax,%ax
    2097:	66 90                	xchg   %ax,%ax
    2099:	66 90                	xchg   %ax,%ax
    209b:	66 90                	xchg   %ax,%ax
    209d:	66 90                	xchg   %ax,%ax
    209f:	90                   	nop

000020a0 <paged_char.part.0>:
    20a0:	55                   	push   %ebp
    20a1:	89 e5                	mov    %esp,%ebp
    20a3:	53                   	push   %ebx
    20a4:	83 ec 40             	sub    $0x40,%esp
    20a7:	a1 40 f8 00 00       	mov    0xf840,%eax
    20ac:	50                   	push   %eax
    20ad:	e8 ae b0 00 00       	call   d160 <fflush@plt>
    20b2:	83 c4 0c             	add    $0xc,%esp
    20b5:	a1 b8 f8 00 00       	mov    0xf8b8,%eax
    20ba:	48                   	dec    %eax
    20bb:	50                   	push   %eax
    20bc:	a1 a8 f8 00 00       	mov    0xf8a8,%eax
    20c1:	6a 00                	push   $0x0
    20c3:	50                   	push   %eax
    20c4:	e8 37 b3 00 00       	call   d400 <console_set_pos@plt>
    20c9:	a1 a8 f8 00 00       	mov    0xf8a8,%eax
    20ce:	6a 00                	push   $0x0
    20d0:	6a 01                	push   $0x1
    20d2:	6a 07                	push   $0x7
    20d4:	50                   	push   %eax
    20d5:	e8 26 b0 00 00       	call   d100 <console_set_color@plt>
    20da:	83 c4 14             	add    $0x14,%esp
    20dd:	68 60 b0 00 00       	push   $0xb060
    20e2:	e8 09 af 00 00       	call   cff0 <printf@plt>
    20e7:	8b 15 40 f8 00 00    	mov    0xf840,%edx
    20ed:	58                   	pop    %eax
    20ee:	52                   	push   %edx
    20ef:	e8 6c b0 00 00       	call   d160 <fflush@plt>
    20f4:	a1 a8 f8 00 00       	mov    0xf8a8,%eax
    20f9:	59                   	pop    %ecx
    20fa:	5b                   	pop    %ebx
    20fb:	6a 00                	push   $0x0
    20fd:	50                   	push   %eax
    20fe:	8d 5d d4             	lea    -0x2c(%ebp),%ebx
    2101:	e8 0a b2 00 00       	call   d310 <console_set_style@plt>
    2106:	83 c4 10             	add    $0x10,%esp
    2109:	8d b4 26 00 00 00 00 	lea    0x0(%esi,%eiz,1),%esi
    2110:	50                   	push   %eax
    2111:	50                   	push   %eax
    2112:	a1 a8 f8 00 00       	mov    0xf8a8,%eax
    2117:	53                   	push   %ebx
    2118:	50                   	push   %eax
    2119:	e8 52 b0 00 00       	call   d170 <console_get_event@plt>
    211e:	83 c4 10             	add    $0x10,%esp
    2121:	84 c0                	test   %al,%al
    2123:	74 35                	je     215a <paged_char.part.0+0xba>
    2125:	8b 4d dc             	mov    -0x24(%ebp),%ecx
    2128:	85 c9                	test   %ecx,%ecx
    212a:	75 e4                	jne    2110 <paged_char.part.0+0x70>
    212c:	8b 55 e8             	mov    -0x18(%ebp),%edx
    212f:	85 d2                	test   %edx,%edx
    2131:	75 dd                	jne    2110 <paged_char.part.0+0x70>
    2133:	8b 45 ec             	mov    -0x14(%ebp),%eax
    2136:	83 f8 3c             	cmp    $0x3c,%eax
    2139:	74 4a                	je     2185 <paged_char.part.0+0xe5>
    213b:	83 f8 10             	cmp    $0x10,%eax
    213e:	74 45                	je     2185 <paged_char.part.0+0xe5>
    2140:	83 f8 2e             	cmp    $0x2e,%eax
    2143:	74 49                	je     218e <paged_char.part.0+0xee>
    2145:	83 f8 2a             	cmp    $0x2a,%eax
    2148:	0f 94 c1             	sete   %cl
    214b:	83 f8 39             	cmp    $0x39,%eax
    214e:	0f 94 c2             	sete   %dl
    2151:	08 d1                	or     %dl,%cl
    2153:	75 05                	jne    215a <paged_char.part.0+0xba>
    2155:	83 f8 53             	cmp    $0x53,%eax
    2158:	75 b6                	jne    2110 <paged_char.part.0+0x70>
    215a:	83 ec 0c             	sub    $0xc,%esp
    215d:	a1 a8 f8 00 00       	mov    0xf8a8,%eax
    2162:	50                   	push   %eax
    2163:	e8 08 b1 00 00       	call   d270 <console_clear@plt>
    2168:	a1 bc f8 00 00       	mov    0xf8bc,%eax
    216d:	83 c4 10             	add    $0x10,%esp
    2170:	a3 c4 f8 00 00       	mov    %eax,0xf8c4
    2175:	a1 b8 f8 00 00       	mov    0xf8b8,%eax
    217a:	48                   	dec    %eax
    217b:	8b 5d fc             	mov    -0x4(%ebp),%ebx
    217e:	a3 c0 f8 00 00       	mov    %eax,0xf8c0
    2183:	c9                   	leave  
    2184:	c3                   	ret    
    2185:	c6 05 b5 f8 00 00 01 	movb   $0x1,0xf8b5
    218c:	eb cc                	jmp    215a <paged_char.part.0+0xba>
    218e:	c6 05 c8 f8 00 00 00 	movb   $0x0,0xf8c8
    2195:	eb c3                	jmp    215a <paged_char.part.0+0xba>
    2197:	89 f6                	mov    %esi,%esi
    2199:	8d bc 27 00 00 00 00 	lea    0x0(%edi,%eiz,1),%edi

000021a0 <help_cmd_cat>:
    21a0:	55                   	push   %ebp
    21a1:	89 e5                	mov    %esp,%ebp
    21a3:	83 ec 08             	sub    $0x8,%esp
    21a6:	8b 45 08             	mov    0x8(%ebp),%eax
    21a9:	85 c0                	test   %eax,%eax
    21ab:	74 33                	je     21e0 <help_cmd_cat+0x40>
    21ad:	50                   	push   %eax
    21ae:	50                   	push   %eax
    21af:	68 7e 9f 00 00       	push   $0x9f7e
    21b4:	68 a8 b0 00 00       	push   $0xb0a8
    21b9:	e8 32 ae 00 00       	call   cff0 <printf@plt>
    21be:	83 c4 0c             	add    $0xc,%esp
    21c1:	68 7e 9f 00 00       	push   $0x9f7e
    21c6:	68 7e 9f 00 00       	push   $0x9f7e
    21cb:	68 cc b0 00 00       	push   $0xb0cc
    21d0:	e8 1b ae 00 00       	call   cff0 <printf@plt>
    21d5:	83 c4 10             	add    $0x10,%esp
    21d8:	c9                   	leave  
    21d9:	c3                   	ret    
    21da:	8d b6 00 00 00 00    	lea    0x0(%esi),%esi
    21e0:	52                   	push   %edx
    21e1:	52                   	push   %edx
    21e2:	68 7e 9f 00 00       	push   $0x9f7e
    21e7:	68 a8 b0 00 00       	push   $0xb0a8
    21ec:	e8 ff ad 00 00       	call   cff0 <printf@plt>
    21f1:	83 c4 10             	add    $0x10,%esp
    21f4:	c9                   	leave  
    21f5:	c3                   	ret    
    21f6:	8d 76 00             	lea    0x0(%esi),%esi
    21f9:	8d bc 27 00 00 00 00 	lea    0x0(%edi,%eiz,1),%edi

00002200 <cmd_cat>:
    2200:	55                   	push   %ebp
    2201:	89 e5                	mov    %esp,%ebp
    2203:	57                   	push   %edi
    2204:	56                   	push   %esi
    2205:	53                   	push   %ebx
    2206:	81 ec 84 00 00 00    	sub    $0x84,%esp
    220c:	c7 45 c4 00 00 00 00 	movl   $0x0,-0x3c(%ebp)
    2213:	a1 40 f8 00 00       	mov    0xf840,%eax
    2218:	8b 7d 08             	mov    0x8(%ebp),%edi
    221b:	50                   	push   %eax
    221c:	a1 50 f8 00 00       	mov    0xf850,%eax
    2221:	50                   	push   %eax
    2222:	c7 45 d8 00 00 00 00 	movl   $0x0,-0x28(%ebp)
    2229:	c7 45 dc 00 00 00 00 	movl   $0x0,-0x24(%ebp)
    2230:	c7 45 e0 00 00 00 00 	movl   $0x0,-0x20(%ebp)
    2237:	c7 45 e4 00 00 00 00 	movl   $0x0,-0x1c(%ebp)
    223e:	c6 05 c8 f8 00 00 00 	movb   $0x0,0xf8c8
    2245:	c7 05 c4 f8 00 00 00 	movl   $0x0,0xf8c4
    224c:	00 00 00 
    224f:	c7 05 c0 f8 00 00 00 	movl   $0x0,0xf8c0
    2256:	00 00 00 
    2259:	c7 05 bc f8 00 00 00 	movl   $0x0,0xf8bc
    2260:	00 00 00 
    2263:	c7 05 b8 f8 00 00 00 	movl   $0x0,0xf8b8
    226a:	00 00 00 
    226d:	c6 05 b5 f8 00 00 00 	movb   $0x0,0xf8b5
    2274:	e8 47 af 00 00       	call   d1c0 <console_init@plt>
    2279:	89 3c 24             	mov    %edi,(%esp)
    227c:	a3 a8 f8 00 00       	mov    %eax,0xf8a8
    2281:	c6 05 ad f8 00 00 00 	movb   $0x0,0xf8ad
    2288:	c7 05 b0 f8 00 00 00 	movl   $0x0,0xf8b0
    228f:	00 00 00 
    2292:	c6 05 ac f8 00 00 01 	movb   $0x1,0xf8ac
    2299:	e8 42 46 00 00       	call   68e0 <cli_count_args>
    229e:	8d 75 c8             	lea    -0x38(%ebp),%esi
    22a1:	89 c3                	mov    %eax,%ebx
    22a3:	c7 05 5c f8 00 00 01 	movl   $0x1,0xf85c
    22aa:	00 00 00 
    22ad:	c7 05 4c f8 00 00 00 	movl   $0x0,0xf84c
    22b4:	00 00 00 
    22b7:	c7 45 c8 00 00 00 00 	movl   $0x0,-0x38(%ebp)
    22be:	83 c4 10             	add    $0x10,%esp
    22c1:	c6 45 b5 00          	movb   $0x0,-0x4b(%ebp)
    22c5:	c6 45 b7 00          	movb   $0x0,-0x49(%ebp)
    22c9:	c6 45 b6 00          	movb   $0x0,-0x4a(%ebp)
    22cd:	83 ec 0c             	sub    $0xc,%esp
    22d0:	56                   	push   %esi
    22d1:	68 e0 b4 00 00       	push   $0xb4e0
    22d6:	68 25 b3 00 00       	push   $0xb325
    22db:	57                   	push   %edi
    22dc:	53                   	push   %ebx
    22dd:	e8 3e ad 00 00       	call   d020 <getopt_long@plt>
    22e2:	83 c4 20             	add    $0x20,%esp
    22e5:	8d 50 b8             	lea    -0x48(%eax),%edx
    22e8:	83 fa 30             	cmp    $0x30,%edx
    22eb:	0f 87 46 01 00 00    	ja     2437 <cmd_cat+0x237>
    22f1:	ff 24 95 00 b4 00 00 	jmp    *0xb400(,%edx,4)
    22f8:	c6 05 ad f8 00 00 01 	movb   $0x1,0xf8ad
    22ff:	eb cc                	jmp    22cd <cmd_cat+0xcd>
    2301:	c6 05 b4 f8 00 00 01 	movb   $0x1,0xf8b4
    2308:	eb c3                	jmp    22cd <cmd_cat+0xcd>
    230a:	c6 45 b7 01          	movb   $0x1,-0x49(%ebp)
    230e:	eb bd                	jmp    22cd <cmd_cat+0xcd>
    2310:	57                   	push   %edi
    2311:	57                   	push   %edi
    2312:	68 7e 9f 00 00       	push   $0x9f7e
    2317:	68 a8 b0 00 00       	push   $0xb0a8
    231c:	e8 cf ac 00 00       	call   cff0 <printf@plt>
    2321:	83 c4 0c             	add    $0xc,%esp
    2324:	68 7e 9f 00 00       	push   $0x9f7e
    2329:	68 7e 9f 00 00       	push   $0x9f7e
    232e:	68 cc b0 00 00       	push   $0xb0cc
    2333:	e8 b8 ac 00 00       	call   cff0 <printf@plt>
    2338:	83 c4 10             	add    $0x10,%esp
    233b:	31 c0                	xor    %eax,%eax
    233d:	8d 65 f4             	lea    -0xc(%ebp),%esp
    2340:	5b                   	pop    %ebx
    2341:	5e                   	pop    %esi
    2342:	5f                   	pop    %edi
    2343:	5d                   	pop    %ebp
    2344:	c3                   	ret    
    2345:	a1 48 f8 00 00       	mov    0xf848,%eax
    234a:	85 c0                	test   %eax,%eax
    234c:	74 1e                	je     236c <cmd_cat+0x16c>
    234e:	83 ec 0c             	sub    $0xc,%esp
    2351:	8d 4d c4             	lea    -0x3c(%ebp),%ecx
    2354:	51                   	push   %ecx
    2355:	6a 00                	push   $0x0
    2357:	6a 0a                	push   $0xa
    2359:	6a 00                	push   $0x0
    235b:	50                   	push   %eax
    235c:	e8 7f af 00 00       	call   d2e0 <str_size_t@plt>
    2361:	83 c4 20             	add    $0x20,%esp
    2364:	85 c0                	test   %eax,%eax
    2366:	0f 84 61 ff ff ff    	je     22cd <cmd_cat+0xcd>
    236c:	83 ec 0c             	sub    $0xc,%esp
    236f:	68 59 b3 00 00       	push   $0xb359
    2374:	e8 57 ad 00 00       	call   d0d0 <puts@plt>
    2379:	83 c4 10             	add    $0x10,%esp
    237c:	b8 01 00 00 00       	mov    $0x1,%eax
    2381:	eb ba                	jmp    233d <cmd_cat+0x13d>
    2383:	90                   	nop
    2384:	8d 74 26 00          	lea    0x0(%esi,%eiz,1),%esi
    2388:	a1 48 f8 00 00       	mov    0xf848,%eax
    238d:	85 c0                	test   %eax,%eax
    238f:	74 1e                	je     23af <cmd_cat+0x1af>
    2391:	83 ec 0c             	sub    $0xc,%esp
    2394:	8d 55 d8             	lea    -0x28(%ebp),%edx
    2397:	52                   	push   %edx
    2398:	6a 00                	push   $0x0
    239a:	6a 0a                	push   $0xa
    239c:	6a 00                	push   $0x0
    239e:	50                   	push   %eax
    239f:	e8 2c b0 00 00       	call   d3d0 <str_uint64_t@plt>
    23a4:	83 c4 20             	add    $0x20,%esp
    23a7:	85 c0                	test   %eax,%eax
    23a9:	0f 84 1e ff ff ff    	je     22cd <cmd_cat+0xcd>
    23af:	83 ec 0c             	sub    $0xc,%esp
    23b2:	68 33 b3 00 00       	push   $0xb333
    23b7:	e8 14 ad 00 00       	call   d0d0 <puts@plt>
    23bc:	83 c4 10             	add    $0x10,%esp
    23bf:	b8 01 00 00 00       	mov    $0x1,%eax
    23c4:	e9 74 ff ff ff       	jmp    233d <cmd_cat+0x13d>
    23c9:	8d b4 26 00 00 00 00 	lea    0x0(%esi,%eiz,1),%esi
    23d0:	c6 45 b6 01          	movb   $0x1,-0x4a(%ebp)
    23d4:	e9 f4 fe ff ff       	jmp    22cd <cmd_cat+0xcd>
    23d9:	56                   	push   %esi
    23da:	56                   	push   %esi
    23db:	68 2c a7 00 00       	push   $0xa72c
    23e0:	68 ac 9e 00 00       	push   $0x9eac
    23e5:	e8 06 ac 00 00       	call   cff0 <printf@plt>
    23ea:	83 c4 10             	add    $0x10,%esp
    23ed:	8d 65 f4             	lea    -0xc(%ebp),%esp
    23f0:	31 c0                	xor    %eax,%eax
    23f2:	5b                   	pop    %ebx
    23f3:	5e                   	pop    %esi
    23f4:	5f                   	pop    %edi
    23f5:	5d                   	pop    %ebp
    23f6:	c3                   	ret    
    23f7:	a1 48 f8 00 00       	mov    0xf848,%eax
    23fc:	85 c0                	test   %eax,%eax
    23fe:	0f 84 96 07 00 00    	je     2b9a <cmd_cat+0x99a>
    2404:	83 ec 0c             	sub    $0xc,%esp
    2407:	8d 4d e0             	lea    -0x20(%ebp),%ecx
    240a:	51                   	push   %ecx
    240b:	6a 00                	push   $0x0
    240d:	6a 0a                	push   $0xa
    240f:	6a 00                	push   $0x0
    2411:	50                   	push   %eax
    2412:	e8 b9 af 00 00       	call   d3d0 <str_uint64_t@plt>
    2417:	83 c4 20             	add    $0x20,%esp
    241a:	85 c0                	test   %eax,%eax
    241c:	0f 85 78 07 00 00    	jne    2b9a <cmd_cat+0x99a>
    2422:	8b 45 dc             	mov    -0x24(%ebp),%eax
    2425:	0b 45 d8             	or     -0x28(%ebp),%eax
    2428:	0f 85 9f fe ff ff    	jne    22cd <cmd_cat+0xcd>
    242e:	c6 45 b5 01          	movb   $0x1,-0x4b(%ebp)
    2432:	e9 96 fe ff ff       	jmp    22cd <cmd_cat+0xcd>
    2437:	40                   	inc    %eax
    2438:	0f 85 8f fe ff ff    	jne    22cd <cmd_cat+0xcd>
    243e:	a1 4c f8 00 00       	mov    0xf84c,%eax
    2443:	39 c3                	cmp    %eax,%ebx
    2445:	0f 84 a1 06 00 00    	je     2aec <cmd_cat+0x8ec>
    244b:	83 7d c4 03          	cmpl   $0x3,-0x3c(%ebp)
    244f:	77 07                	ja     2458 <cmd_cat+0x258>
    2451:	c7 45 c4 00 04 00 00 	movl   $0x400,-0x3c(%ebp)
    2458:	80 7d b7 00          	cmpb   $0x0,-0x49(%ebp)
    245c:	0f 85 d5 06 00 00    	jne    2b37 <cmd_cat+0x937>
    2462:	8d 04 87             	lea    (%edi,%eax,4),%eax
    2465:	8b 38                	mov    (%eax),%edi
    2467:	89 7d 84             	mov    %edi,-0x7c(%ebp)
    246a:	85 ff                	test   %edi,%edi
    246c:	0f 84 60 07 00 00    	je     2bd2 <cmd_cat+0x9d2>
    2472:	80 3d b5 f8 00 00 00 	cmpb   $0x0,0xf8b5
    2479:	0f 85 53 07 00 00    	jne    2bd2 <cmd_cat+0x9d2>
    247f:	89 45 80             	mov    %eax,-0x80(%ebp)
    2482:	c7 85 7c ff ff ff 00 	movl   $0x0,-0x84(%ebp)
    2489:	00 00 00 
    248c:	8b 45 d8             	mov    -0x28(%ebp),%eax
    248f:	8b 55 dc             	mov    -0x24(%ebp),%edx
    2492:	89 45 98             	mov    %eax,-0x68(%ebp)
    2495:	8b 45 c4             	mov    -0x3c(%ebp),%eax
    2498:	8b 75 e0             	mov    -0x20(%ebp),%esi
    249b:	8b 7d e4             	mov    -0x1c(%ebp),%edi
    249e:	89 55 9c             	mov    %edx,-0x64(%ebp)
    24a1:	89 45 8c             	mov    %eax,-0x74(%ebp)
    24a4:	c7 45 d4 00 00 00 00 	movl   $0x0,-0x2c(%ebp)
    24ab:	80 3d b4 f8 00 00 00 	cmpb   $0x0,0xf8b4
    24b2:	0f 85 27 05 00 00    	jne    29df <cmd_cat+0x7df>
    24b8:	50                   	push   %eax
    24b9:	50                   	push   %eax
    24ba:	8b 45 84             	mov    -0x7c(%ebp),%eax
    24bd:	6a 10                	push   $0x10
    24bf:	50                   	push   %eax
    24c0:	e8 db af 00 00       	call   d4a0 <open@plt>
    24c5:	89 45 90             	mov    %eax,-0x70(%ebp)
    24c8:	83 c4 10             	add    $0x10,%esp
    24cb:	8b 45 90             	mov    -0x70(%ebp),%eax
    24ce:	c7 45 a0 00 00 00 00 	movl   $0x0,-0x60(%ebp)
    24d5:	85 c0                	test   %eax,%eax
    24d7:	0f 88 4a 05 00 00    	js     2a27 <cmd_cat+0x827>
    24dd:	83 ec 0c             	sub    $0xc,%esp
    24e0:	8b 45 8c             	mov    -0x74(%ebp),%eax
    24e3:	40                   	inc    %eax
    24e4:	50                   	push   %eax
    24e5:	e8 f6 ab 00 00       	call   d0e0 <malloc@plt>
    24ea:	83 c4 10             	add    $0x10,%esp
    24ed:	89 45 a8             	mov    %eax,-0x58(%ebp)
    24f0:	85 c0                	test   %eax,%eax
    24f2:	0f 84 16 06 00 00    	je     2b0e <cmd_cat+0x90e>
    24f8:	89 fa                	mov    %edi,%edx
    24fa:	09 f2                	or     %esi,%edx
    24fc:	0f 85 42 05 00 00    	jne    2a44 <cmd_cat+0x844>
    2502:	8b 45 98             	mov    -0x68(%ebp),%eax
    2505:	8b 55 9c             	mov    -0x64(%ebp),%edx
    2508:	89 c7                	mov    %eax,%edi
    250a:	31 db                	xor    %ebx,%ebx
    250c:	09 d7                	or     %edx,%edi
    250e:	c7 45 ac 00 00 00 00 	movl   $0x0,-0x54(%ebp)
    2515:	89 7d 88             	mov    %edi,-0x78(%ebp)
    2518:	8b 45 a0             	mov    -0x60(%ebp),%eax
    251b:	85 c0                	test   %eax,%eax
    251d:	0f 85 0d 04 00 00    	jne    2930 <cmd_cat+0x730>
    2523:	8b 7d 9c             	mov    -0x64(%ebp),%edi
    2526:	8b 75 98             	mov    -0x68(%ebp),%esi
    2529:	89 fa                	mov    %edi,%edx
    252b:	8b 4d 8c             	mov    -0x74(%ebp),%ecx
    252e:	29 d9                	sub    %ebx,%ecx
    2530:	09 f2                	or     %esi,%edx
    2532:	74 21                	je     2555 <cmd_cat+0x355>
    2534:	8b 45 ac             	mov    -0x54(%ebp),%eax
    2537:	89 c2                	mov    %eax,%edx
    2539:	c1 fa 1f             	sar    $0x1f,%edx
    253c:	29 c6                	sub    %eax,%esi
    253e:	19 d7                	sbb    %edx,%edi
    2540:	89 f0                	mov    %esi,%eax
    2542:	83 ff 00             	cmp    $0x0,%edi
    2545:	7f 0e                	jg     2555 <cmd_cat+0x355>
    2547:	7c 04                	jl     254d <cmd_cat+0x34d>
    2549:	39 c8                	cmp    %ecx,%eax
    254b:	77 08                	ja     2555 <cmd_cat+0x355>
    254d:	8b 4d 98             	mov    -0x68(%ebp),%ecx
    2550:	8b 45 ac             	mov    -0x54(%ebp),%eax
    2553:	29 c1                	sub    %eax,%ecx
    2555:	52                   	push   %edx
    2556:	51                   	push   %ecx
    2557:	8b 4d a8             	mov    -0x58(%ebp),%ecx
    255a:	01 cb                	add    %ecx,%ebx
    255c:	53                   	push   %ebx
    255d:	8b 5d 90             	mov    -0x70(%ebp),%ebx
    2560:	53                   	push   %ebx
    2561:	e8 3a ad 00 00       	call   d2a0 <read@plt>
    2566:	83 c4 10             	add    $0x10,%esp
    2569:	89 c7                	mov    %eax,%edi
    256b:	85 c0                	test   %eax,%eax
    256d:	0f 8e ee 03 00 00    	jle    2961 <cmd_cat+0x761>
    2573:	8b 4d a8             	mov    -0x58(%ebp),%ecx
    2576:	c7 45 d4 00 00 00 00 	movl   $0x0,-0x2c(%ebp)
    257d:	89 cb                	mov    %ecx,%ebx
    257f:	8d 04 39             	lea    (%ecx,%edi,1),%eax
    2582:	89 45 b0             	mov    %eax,-0x50(%ebp)
    2585:	c6 00 00             	movb   $0x0,(%eax)
    2588:	b8 01 00 00 00       	mov    $0x1,%eax
    258d:	29 c8                	sub    %ecx,%eax
    258f:	89 45 a4             	mov    %eax,-0x5c(%ebp)
    2592:	e9 66 01 00 00       	jmp    26fd <cmd_cat+0x4fd>
    2597:	90                   	nop
    2598:	8a 03                	mov    (%ebx),%al
    259a:	c0 e8 04             	shr    $0x4,%al
    259d:	88 c1                	mov    %al,%cl
    259f:	31 c0                	xor    %eax,%eax
    25a1:	88 c8                	mov    %cl,%al
    25a3:	80 3d ac f8 00 00 00 	cmpb   $0x0,0xf8ac
    25aa:	0f be b0 9f b3 00 00 	movsbl 0xb39f(%eax),%esi
    25b1:	74 0d                	je     25c0 <cmd_cat+0x3c0>
    25b3:	80 3d ad f8 00 00 00 	cmpb   $0x0,0xf8ad
    25ba:	0f 85 80 02 00 00    	jne    2840 <cmd_cat+0x640>
    25c0:	83 ec 0c             	sub    $0xc,%esp
    25c3:	56                   	push   %esi
    25c4:	e8 e7 a9 00 00       	call   cfb0 <putchar@plt>
    25c9:	83 c4 10             	add    $0x10,%esp
    25cc:	83 fe 0a             	cmp    $0xa,%esi
    25cf:	0f 94 c2             	sete   %dl
    25d2:	88 15 ac f8 00 00    	mov    %dl,0xf8ac
    25d8:	80 3d c8 f8 00 00 00 	cmpb   $0x0,0xf8c8
    25df:	74 2f                	je     2610 <cmd_cat+0x410>
    25e1:	a1 c4 f8 00 00       	mov    0xf8c4,%eax
    25e6:	48                   	dec    %eax
    25e7:	a3 c4 f8 00 00       	mov    %eax,0xf8c4
    25ec:	85 c0                	test   %eax,%eax
    25ee:	0f 84 c4 01 00 00    	je     27b8 <cmd_cat+0x5b8>
    25f4:	84 d2                	test   %dl,%dl
    25f6:	0f 85 bc 01 00 00    	jne    27b8 <cmd_cat+0x5b8>
    25fc:	a1 c0 f8 00 00       	mov    0xf8c0,%eax
    2601:	85 c0                	test   %eax,%eax
    2603:	75 0b                	jne    2610 <cmd_cat+0x410>
    2605:	e8 96 fa ff ff       	call   20a0 <paged_char.part.0>
    260a:	8a 15 ac f8 00 00    	mov    0xf8ac,%dl
    2610:	8a 03                	mov    (%ebx),%al
    2612:	83 e0 0f             	and    $0xf,%eax
    2615:	84 d2                	test   %dl,%dl
    2617:	0f be b0 9f b3 00 00 	movsbl 0xb39f(%eax),%esi
    261e:	74 0d                	je     262d <cmd_cat+0x42d>
    2620:	80 3d ad f8 00 00 00 	cmpb   $0x0,0xf8ad
    2627:	0f 85 cb 01 00 00    	jne    27f8 <cmd_cat+0x5f8>
    262d:	83 ec 0c             	sub    $0xc,%esp
    2630:	56                   	push   %esi
    2631:	e8 7a a9 00 00       	call   cfb0 <putchar@plt>
    2636:	83 c4 10             	add    $0x10,%esp
    2639:	83 fe 0a             	cmp    $0xa,%esi
    263c:	0f 94 c1             	sete   %cl
    263f:	88 0d ac f8 00 00    	mov    %cl,0xf8ac
    2645:	80 3d c8 f8 00 00 00 	cmpb   $0x0,0xf8c8
    264c:	74 2f                	je     267d <cmd_cat+0x47d>
    264e:	a1 c4 f8 00 00       	mov    0xf8c4,%eax
    2653:	48                   	dec    %eax
    2654:	a3 c4 f8 00 00       	mov    %eax,0xf8c4
    2659:	85 c0                	test   %eax,%eax
    265b:	0f 84 77 01 00 00    	je     27d8 <cmd_cat+0x5d8>
    2661:	84 c9                	test   %cl,%cl
    2663:	0f 85 6f 01 00 00    	jne    27d8 <cmd_cat+0x5d8>
    2669:	a1 c0 f8 00 00       	mov    0xf8c0,%eax
    266e:	85 c0                	test   %eax,%eax
    2670:	75 0b                	jne    267d <cmd_cat+0x47d>
    2672:	e8 29 fa ff ff       	call   20a0 <paged_char.part.0>
    2677:	8a 0d ac f8 00 00    	mov    0xf8ac,%cl
    267d:	8b 45 a4             	mov    -0x5c(%ebp),%eax
    2680:	8b 75 ac             	mov    -0x54(%ebp),%esi
    2683:	01 f0                	add    %esi,%eax
    2685:	ba 20 00 00 00       	mov    $0x20,%edx
    268a:	01 d8                	add    %ebx,%eax
    268c:	a8 0f                	test   $0xf,%al
    268e:	75 0b                	jne    269b <cmd_cat+0x49b>
    2690:	8a 45 b6             	mov    -0x4a(%ebp),%al
    2693:	ba 0a 00 00 00       	mov    $0xa,%edx
    2698:	88 45 b7             	mov    %al,-0x49(%ebp)
    269b:	84 c9                	test   %cl,%cl
    269d:	74 0d                	je     26ac <cmd_cat+0x4ac>
    269f:	80 3d ad f8 00 00 00 	cmpb   $0x0,0xf8ad
    26a6:	0f 85 6c 01 00 00    	jne    2818 <cmd_cat+0x618>
    26ac:	83 ec 0c             	sub    $0xc,%esp
    26af:	52                   	push   %edx
    26b0:	e8 fb a8 00 00       	call   cfb0 <putchar@plt>
    26b5:	8a 4d b7             	mov    -0x49(%ebp),%cl
    26b8:	83 c4 10             	add    $0x10,%esp
    26bb:	88 0d ac f8 00 00    	mov    %cl,0xf8ac
    26c1:	80 3d c8 f8 00 00 00 	cmpb   $0x0,0xf8c8
    26c8:	74 29                	je     26f3 <cmd_cat+0x4f3>
    26ca:	a1 c4 f8 00 00       	mov    0xf8c4,%eax
    26cf:	48                   	dec    %eax
    26d0:	a3 c4 f8 00 00       	mov    %eax,0xf8c4
    26d5:	85 c0                	test   %eax,%eax
    26d7:	0f 84 bb 00 00 00    	je     2798 <cmd_cat+0x598>
    26dd:	84 c9                	test   %cl,%cl
    26df:	0f 85 b3 00 00 00    	jne    2798 <cmd_cat+0x598>
    26e5:	a1 c0 f8 00 00       	mov    0xf8c0,%eax
    26ea:	85 c0                	test   %eax,%eax
    26ec:	75 05                	jne    26f3 <cmd_cat+0x4f3>
    26ee:	e8 ad f9 ff ff       	call   20a0 <paged_char.part.0>
    26f3:	43                   	inc    %ebx
    26f4:	3b 5d b0             	cmp    -0x50(%ebp),%ebx
    26f7:	0f 84 83 01 00 00    	je     2880 <cmd_cat+0x680>
    26fd:	a0 b5 f8 00 00       	mov    0xf8b5,%al
    2702:	88 45 b7             	mov    %al,-0x49(%ebp)
    2705:	84 c0                	test   %al,%al
    2707:	0f 85 73 01 00 00    	jne    2880 <cmd_cat+0x680>
    270d:	80 7d b6 00          	cmpb   $0x0,-0x4a(%ebp)
    2711:	0f 85 81 fe ff ff    	jne    2598 <cmd_cat+0x398>
    2717:	50                   	push   %eax
    2718:	8d 45 d4             	lea    -0x2c(%ebp),%eax
    271b:	57                   	push   %edi
    271c:	50                   	push   %eax
    271d:	8b 45 a8             	mov    -0x58(%ebp),%eax
    2720:	50                   	push   %eax
    2721:	e8 5a a9 00 00       	call   d080 <str_decode@plt>
    2726:	83 c4 10             	add    $0x10,%esp
    2729:	89 c6                	mov    %eax,%esi
    272b:	85 c0                	test   %eax,%eax
    272d:	0f 84 4d 01 00 00    	je     2880 <cmd_cat+0x680>
    2733:	83 f8 3f             	cmp    $0x3f,%eax
    2736:	75 0e                	jne    2746 <cmd_cat+0x546>
    2738:	8b 45 d4             	mov    -0x2c(%ebp),%eax
    273b:	8d 50 02             	lea    0x2(%eax),%edx
    273e:	39 d7                	cmp    %edx,%edi
    2740:	0f 86 58 02 00 00    	jbe    299e <cmd_cat+0x79e>
    2746:	80 3d ac f8 00 00 00 	cmpb   $0x0,0xf8ac
    274d:	74 0d                	je     275c <cmd_cat+0x55c>
    274f:	80 3d ad f8 00 00 00 	cmpb   $0x0,0xf8ad
    2756:	0f 85 04 01 00 00    	jne    2860 <cmd_cat+0x660>
    275c:	83 ec 0c             	sub    $0xc,%esp
    275f:	56                   	push   %esi
    2760:	e8 4b a8 00 00       	call   cfb0 <putchar@plt>
    2765:	83 c4 10             	add    $0x10,%esp
    2768:	83 fe 0a             	cmp    $0xa,%esi
    276b:	0f 94 c2             	sete   %dl
    276e:	88 15 ac f8 00 00    	mov    %dl,0xf8ac
    2774:	80 3d c8 f8 00 00 00 	cmpb   $0x0,0xf8c8
    277b:	0f 84 72 ff ff ff    	je     26f3 <cmd_cat+0x4f3>
    2781:	a1 c4 f8 00 00       	mov    0xf8c4,%eax
    2786:	48                   	dec    %eax
    2787:	a3 c4 f8 00 00       	mov    %eax,0xf8c4
    278c:	85 c0                	test   %eax,%eax
    278e:	74 08                	je     2798 <cmd_cat+0x598>
    2790:	84 d2                	test   %dl,%dl
    2792:	0f 84 4d ff ff ff    	je     26e5 <cmd_cat+0x4e5>
    2798:	a1 bc f8 00 00       	mov    0xf8bc,%eax
    279d:	a3 c4 f8 00 00       	mov    %eax,0xf8c4
    27a2:	a1 c0 f8 00 00       	mov    0xf8c0,%eax
    27a7:	48                   	dec    %eax
    27a8:	a3 c0 f8 00 00       	mov    %eax,0xf8c0
    27ad:	e9 38 ff ff ff       	jmp    26ea <cmd_cat+0x4ea>
    27b2:	8d b6 00 00 00 00    	lea    0x0(%esi),%esi
    27b8:	a1 bc f8 00 00       	mov    0xf8bc,%eax
    27bd:	a3 c4 f8 00 00       	mov    %eax,0xf8c4
    27c2:	a1 c0 f8 00 00       	mov    0xf8c0,%eax
    27c7:	48                   	dec    %eax
    27c8:	a3 c0 f8 00 00       	mov    %eax,0xf8c0
    27cd:	e9 2f fe ff ff       	jmp    2601 <cmd_cat+0x401>
    27d2:	8d b6 00 00 00 00    	lea    0x0(%esi),%esi
    27d8:	a1 bc f8 00 00       	mov    0xf8bc,%eax
    27dd:	a3 c4 f8 00 00       	mov    %eax,0xf8c4
    27e2:	a1 c0 f8 00 00       	mov    0xf8c0,%eax
    27e7:	48                   	dec    %eax
    27e8:	a3 c0 f8 00 00       	mov    %eax,0xf8c0
    27ed:	e9 7c fe ff ff       	jmp    266e <cmd_cat+0x46e>
    27f2:	8d b6 00 00 00 00    	lea    0x0(%esi),%esi
    27f8:	a1 b0 f8 00 00       	mov    0xf8b0,%eax
    27fd:	52                   	push   %edx
    27fe:	40                   	inc    %eax
    27ff:	52                   	push   %edx
    2800:	50                   	push   %eax
    2801:	68 b0 b3 00 00       	push   $0xb3b0
    2806:	a3 b0 f8 00 00       	mov    %eax,0xf8b0
    280b:	e8 e0 a7 00 00       	call   cff0 <printf@plt>
    2810:	83 c4 10             	add    $0x10,%esp
    2813:	e9 15 fe ff ff       	jmp    262d <cmd_cat+0x42d>
    2818:	a1 b0 f8 00 00       	mov    0xf8b0,%eax
    281d:	89 55 94             	mov    %edx,-0x6c(%ebp)
    2820:	40                   	inc    %eax
    2821:	52                   	push   %edx
    2822:	52                   	push   %edx
    2823:	50                   	push   %eax
    2824:	68 b0 b3 00 00       	push   $0xb3b0
    2829:	a3 b0 f8 00 00       	mov    %eax,0xf8b0
    282e:	e8 bd a7 00 00       	call   cff0 <printf@plt>
    2833:	83 c4 10             	add    $0x10,%esp
    2836:	8b 55 94             	mov    -0x6c(%ebp),%edx
    2839:	e9 6e fe ff ff       	jmp    26ac <cmd_cat+0x4ac>
    283e:	66 90                	xchg   %ax,%ax
    2840:	a1 b0 f8 00 00       	mov    0xf8b0,%eax
    2845:	51                   	push   %ecx
    2846:	40                   	inc    %eax
    2847:	51                   	push   %ecx
    2848:	50                   	push   %eax
    2849:	68 b0 b3 00 00       	push   $0xb3b0
    284e:	a3 b0 f8 00 00       	mov    %eax,0xf8b0
    2853:	e8 98 a7 00 00       	call   cff0 <printf@plt>
    2858:	83 c4 10             	add    $0x10,%esp
    285b:	e9 60 fd ff ff       	jmp    25c0 <cmd_cat+0x3c0>
    2860:	a1 b0 f8 00 00       	mov    0xf8b0,%eax
    2865:	51                   	push   %ecx
    2866:	40                   	inc    %eax
    2867:	51                   	push   %ecx
    2868:	50                   	push   %eax
    2869:	68 b0 b3 00 00       	push   $0xb3b0
    286e:	a3 b0 f8 00 00       	mov    %eax,0xf8b0
    2873:	e8 78 a7 00 00       	call   cff0 <printf@plt>
    2878:	83 c4 10             	add    $0x10,%esp
    287b:	e9 dc fe ff ff       	jmp    275c <cmd_cat+0x55c>
    2880:	8b 45 ac             	mov    -0x54(%ebp),%eax
    2883:	8b 55 a0             	mov    -0x60(%ebp),%edx
    2886:	01 f8                	add    %edi,%eax
    2888:	31 db                	xor    %ebx,%ebx
    288a:	89 45 ac             	mov    %eax,-0x54(%ebp)
    288d:	85 d2                	test   %edx,%edx
    288f:	0f 85 34 01 00 00    	jne    29c9 <cmd_cat+0x7c9>
    2895:	80 3d b5 f8 00 00 00 	cmpb   $0x0,0xf8b5
    289c:	75 2b                	jne    28c9 <cmd_cat+0x6c9>
    289e:	8b 45 ac             	mov    -0x54(%ebp),%eax
    28a1:	8b 7d 9c             	mov    -0x64(%ebp),%edi
    28a4:	89 c2                	mov    %eax,%edx
    28a6:	8b 75 98             	mov    -0x68(%ebp),%esi
    28a9:	c1 fa 1f             	sar    $0x1f,%edx
    28ac:	39 fa                	cmp    %edi,%edx
    28ae:	0f 8c 64 fc ff ff    	jl     2518 <cmd_cat+0x318>
    28b4:	7f 08                	jg     28be <cmd_cat+0x6be>
    28b6:	39 f0                	cmp    %esi,%eax
    28b8:	0f 82 5a fc ff ff    	jb     2518 <cmd_cat+0x318>
    28be:	8b 45 88             	mov    -0x78(%ebp),%eax
    28c1:	85 c0                	test   %eax,%eax
    28c3:	0f 84 4f fc ff ff    	je     2518 <cmd_cat+0x318>
    28c9:	83 ec 0c             	sub    $0xc,%esp
    28cc:	8b 7d 90             	mov    -0x70(%ebp),%edi
    28cf:	57                   	push   %edi
    28d0:	e8 2b ac 00 00       	call   d500 <close@plt>
    28d5:	83 c4 10             	add    $0x10,%esp
    28d8:	83 ec 0c             	sub    $0xc,%esp
    28db:	8b 75 a8             	mov    -0x58(%ebp),%esi
    28de:	56                   	push   %esi
    28df:	e8 2c ac 00 00       	call   d510 <free@plt>
    28e4:	83 c4 10             	add    $0x10,%esp
    28e7:	31 c0                	xor    %eax,%eax
    28e9:	8b 9d 7c ff ff ff    	mov    -0x84(%ebp),%ebx
    28ef:	01 c3                	add    %eax,%ebx
    28f1:	8b 45 80             	mov    -0x80(%ebp),%eax
    28f4:	89 9d 7c ff ff ff    	mov    %ebx,-0x84(%ebp)
    28fa:	8b 40 04             	mov    0x4(%eax),%eax
    28fd:	89 45 84             	mov    %eax,-0x7c(%ebp)
    2900:	85 c0                	test   %eax,%eax
    2902:	74 16                	je     291a <cmd_cat+0x71a>
    2904:	8b 4d 80             	mov    -0x80(%ebp),%ecx
    2907:	83 c1 04             	add    $0x4,%ecx
    290a:	89 4d 80             	mov    %ecx,-0x80(%ebp)
    290d:	80 3d b5 f8 00 00 00 	cmpb   $0x0,0xf8b5
    2914:	0f 84 72 fb ff ff    	je     248c <cmd_cat+0x28c>
    291a:	31 c0                	xor    %eax,%eax
    291c:	8b 95 7c ff ff ff    	mov    -0x84(%ebp),%edx
    2922:	85 d2                	test   %edx,%edx
    2924:	0f 95 c0             	setne  %al
    2927:	e9 11 fa ff ff       	jmp    233d <cmd_cat+0x13d>
    292c:	8d 74 26 00          	lea    0x0(%esi,%eiz,1),%esi
    2930:	8b 7d a8             	mov    -0x58(%ebp),%edi
    2933:	8b 45 90             	mov    -0x70(%ebp),%eax
    2936:	01 fb                	add    %edi,%ebx
    2938:	56                   	push   %esi
    2939:	6a 01                	push   $0x1
    293b:	53                   	push   %ebx
    293c:	50                   	push   %eax
    293d:	e8 5e a9 00 00       	call   d2a0 <read@plt>
    2942:	83 c4 10             	add    $0x10,%esp
    2945:	89 c7                	mov    %eax,%edi
    2947:	85 c0                	test   %eax,%eax
    2949:	0f 8f 24 fc ff ff    	jg     2573 <cmd_cat+0x373>
    294f:	83 ec 0c             	sub    $0xc,%esp
    2952:	8b 35 40 f8 00 00    	mov    0xf840,%esi
    2958:	56                   	push   %esi
    2959:	e8 02 a8 00 00       	call   d160 <fflush@plt>
    295e:	83 c4 10             	add    $0x10,%esp
    2961:	83 ec 0c             	sub    $0xc,%esp
    2964:	8b 45 90             	mov    -0x70(%ebp),%eax
    2967:	50                   	push   %eax
    2968:	e8 93 ab 00 00       	call   d500 <close@plt>
    296d:	83 c4 10             	add    $0x10,%esp
    2970:	47                   	inc    %edi
    2971:	0f 85 61 ff ff ff    	jne    28d8 <cmd_cat+0x6d8>
    2977:	8b 45 84             	mov    -0x7c(%ebp),%eax
    297a:	57                   	push   %edi
    297b:	57                   	push   %edi
    297c:	50                   	push   %eax
    297d:	68 b6 b3 00 00       	push   $0xb3b6
    2982:	e8 69 a6 00 00       	call   cff0 <printf@plt>
    2987:	58                   	pop    %eax
    2988:	8b 45 a8             	mov    -0x58(%ebp),%eax
    298b:	50                   	push   %eax
    298c:	e8 7f ab 00 00       	call   d510 <free@plt>
    2991:	83 c4 10             	add    $0x10,%esp
    2994:	b8 01 00 00 00       	mov    $0x1,%eax
    2999:	e9 4b ff ff ff       	jmp    28e9 <cmd_cat+0x6e9>
    299e:	8b 4d a8             	mov    -0x58(%ebp),%ecx
    29a1:	8d 5f 01             	lea    0x1(%edi),%ebx
    29a4:	29 c3                	sub    %eax,%ebx
    29a6:	56                   	push   %esi
    29a7:	8d 44 01 ff          	lea    -0x1(%ecx,%eax,1),%eax
    29ab:	53                   	push   %ebx
    29ac:	50                   	push   %eax
    29ad:	51                   	push   %ecx
    29ae:	e8 0d a7 00 00       	call   d0c0 <memcpy@plt>
    29b3:	8b 45 ac             	mov    -0x54(%ebp),%eax
    29b6:	01 f8                	add    %edi,%eax
    29b8:	8b 55 a0             	mov    -0x60(%ebp),%edx
    29bb:	83 c4 10             	add    $0x10,%esp
    29be:	89 45 ac             	mov    %eax,-0x54(%ebp)
    29c1:	85 d2                	test   %edx,%edx
    29c3:	0f 84 cc fe ff ff    	je     2895 <cmd_cat+0x695>
    29c9:	83 ec 0c             	sub    $0xc,%esp
    29cc:	a1 40 f8 00 00       	mov    0xf840,%eax
    29d1:	50                   	push   %eax
    29d2:	e8 89 a7 00 00       	call   d160 <fflush@plt>
    29d7:	83 c4 10             	add    $0x10,%esp
    29da:	e9 b6 fe ff ff       	jmp    2895 <cmd_cat+0x695>
    29df:	50                   	push   %eax
    29e0:	50                   	push   %eax
    29e1:	8b 45 84             	mov    -0x7c(%ebp),%eax
    29e4:	68 c2 c5 00 00       	push   $0xc5c2
    29e9:	50                   	push   %eax
    29ea:	e8 11 a9 00 00       	call   d300 <str_cmp@plt>
    29ef:	83 c4 10             	add    $0x10,%esp
    29f2:	85 c0                	test   %eax,%eax
    29f4:	0f 85 be fa ff ff    	jne    24b8 <cmd_cat+0x2b8>
    29fa:	83 ec 0c             	sub    $0xc,%esp
    29fd:	a1 50 f8 00 00       	mov    0xf850,%eax
    2a02:	50                   	push   %eax
    2a03:	e8 58 aa 00 00       	call   d460 <fileno@plt>
    2a08:	89 45 90             	mov    %eax,-0x70(%ebp)
    2a0b:	83 c4 10             	add    $0x10,%esp
    2a0e:	8b 45 90             	mov    -0x70(%ebp),%eax
    2a11:	c7 45 a0 01 00 00 00 	movl   $0x1,-0x60(%ebp)
    2a18:	c7 45 8c 04 00 00 00 	movl   $0x4,-0x74(%ebp)
    2a1f:	85 c0                	test   %eax,%eax
    2a21:	0f 89 b6 fa ff ff    	jns    24dd <cmd_cat+0x2dd>
    2a27:	8b 45 84             	mov    -0x7c(%ebp),%eax
    2a2a:	57                   	push   %edi
    2a2b:	57                   	push   %edi
    2a2c:	50                   	push   %eax
    2a2d:	68 8c b3 00 00       	push   $0xb38c
    2a32:	e8 b9 a5 00 00       	call   cff0 <printf@plt>
    2a37:	83 c4 10             	add    $0x10,%esp
    2a3a:	b8 01 00 00 00       	mov    $0x1,%eax
    2a3f:	e9 a5 fe ff ff       	jmp    28e9 <cmd_cat+0x6e9>
    2a44:	8b 45 90             	mov    -0x70(%ebp),%eax
    2a47:	6a 02                	push   $0x2
    2a49:	6a 00                	push   $0x0
    2a4b:	6a 00                	push   $0x0
    2a4d:	50                   	push   %eax
    2a4e:	e8 2d a7 00 00       	call   d180 <lseek@plt>
    2a53:	8b 4d 98             	mov    -0x68(%ebp),%ecx
    2a56:	8b 5d 9c             	mov    -0x64(%ebp),%ebx
    2a59:	83 c4 10             	add    $0x10,%esp
    2a5c:	09 cb                	or     %ecx,%ebx
    2a5e:	74 4b                	je     2aab <cmd_cat+0x8ab>
    2a60:	80 7d b5 00          	cmpb   $0x0,-0x4b(%ebp)
    2a64:	75 57                	jne    2abd <cmd_cat+0x8bd>
    2a66:	8b 5d 9c             	mov    -0x64(%ebp),%ebx
    2a69:	8b 4d 98             	mov    -0x68(%ebp),%ecx
    2a6c:	39 df                	cmp    %ebx,%edi
    2a6e:	7c 0c                	jl     2a7c <cmd_cat+0x87c>
    2a70:	7f 04                	jg     2a76 <cmd_cat+0x876>
    2a72:	39 ce                	cmp    %ecx,%esi
    2a74:	76 06                	jbe    2a7c <cmd_cat+0x87c>
    2a76:	8b 75 98             	mov    -0x68(%ebp),%esi
    2a79:	8b 7d 9c             	mov    -0x64(%ebp),%edi
    2a7c:	8b 4d 98             	mov    -0x68(%ebp),%ecx
    2a7f:	8b 5d 9c             	mov    -0x64(%ebp),%ebx
    2a82:	29 f1                	sub    %esi,%ecx
    2a84:	19 fb                	sbb    %edi,%ebx
    2a86:	39 da                	cmp    %ebx,%edx
    2a88:	7f 06                	jg     2a90 <cmd_cat+0x890>
    2a8a:	7d 5a                	jge    2ae6 <cmd_cat+0x8e6>
    2a8c:	31 c9                	xor    %ecx,%ecx
    2a8e:	31 db                	xor    %ebx,%ebx
    2a90:	8b 45 90             	mov    -0x70(%ebp),%eax
    2a93:	6a 00                	push   $0x0
    2a95:	53                   	push   %ebx
    2a96:	51                   	push   %ecx
    2a97:	50                   	push   %eax
    2a98:	e8 e3 a6 00 00       	call   d180 <lseek@plt>
    2a9d:	83 c4 10             	add    $0x10,%esp
    2aa0:	89 75 98             	mov    %esi,-0x68(%ebp)
    2aa3:	89 7d 9c             	mov    %edi,-0x64(%ebp)
    2aa6:	e9 57 fa ff ff       	jmp    2502 <cmd_cat+0x302>
    2aab:	89 45 98             	mov    %eax,-0x68(%ebp)
    2aae:	89 55 9c             	mov    %edx,-0x64(%ebp)
    2ab1:	80 7d b5 00          	cmpb   $0x0,-0x4b(%ebp)
    2ab5:	74 c5                	je     2a7c <cmd_cat+0x87c>
    2ab7:	89 75 98             	mov    %esi,-0x68(%ebp)
    2aba:	89 7d 9c             	mov    %edi,-0x64(%ebp)
    2abd:	39 d7                	cmp    %edx,%edi
    2abf:	7f 0c                	jg     2acd <cmd_cat+0x8cd>
    2ac1:	7d 06                	jge    2ac9 <cmd_cat+0x8c9>
    2ac3:	29 f0                	sub    %esi,%eax
    2ac5:	19 fa                	sbb    %edi,%edx
    2ac7:	eb 08                	jmp    2ad1 <cmd_cat+0x8d1>
    2ac9:	39 c6                	cmp    %eax,%esi
    2acb:	72 f6                	jb     2ac3 <cmd_cat+0x8c3>
    2acd:	31 c0                	xor    %eax,%eax
    2acf:	31 d2                	xor    %edx,%edx
    2ad1:	6a 00                	push   $0x0
    2ad3:	52                   	push   %edx
    2ad4:	50                   	push   %eax
    2ad5:	8b 45 90             	mov    -0x70(%ebp),%eax
    2ad8:	50                   	push   %eax
    2ad9:	e8 a2 a6 00 00       	call   d180 <lseek@plt>
    2ade:	83 c4 10             	add    $0x10,%esp
    2ae1:	e9 1c fa ff ff       	jmp    2502 <cmd_cat+0x302>
    2ae6:	39 c8                	cmp    %ecx,%eax
    2ae8:	77 a6                	ja     2a90 <cmd_cat+0x890>
    2aea:	eb a0                	jmp    2a8c <cmd_cat+0x88c>
    2aec:	53                   	push   %ebx
    2aed:	68 7e 9f 00 00       	push   $0x9f7e
    2af2:	68 7e 9f 00 00       	push   $0x9f7e
    2af7:	68 6c a9 00 00       	push   $0xa96c
    2afc:	e8 ef a4 00 00       	call   cff0 <printf@plt>
    2b01:	83 c4 10             	add    $0x10,%esp
    2b04:	b8 01 00 00 00       	mov    $0x1,%eax
    2b09:	e9 2f f8 ff ff       	jmp    233d <cmd_cat+0x13d>
    2b0e:	83 ec 0c             	sub    $0xc,%esp
    2b11:	8b 55 90             	mov    -0x70(%ebp),%edx
    2b14:	52                   	push   %edx
    2b15:	e8 e6 a9 00 00       	call   d500 <close@plt>
    2b1a:	8b 75 84             	mov    -0x7c(%ebp),%esi
    2b1d:	59                   	pop    %ecx
    2b1e:	5b                   	pop    %ebx
    2b1f:	56                   	push   %esi
    2b20:	68 f8 b2 00 00       	push   $0xb2f8
    2b25:	e8 c6 a4 00 00       	call   cff0 <printf@plt>
    2b2a:	83 c4 10             	add    $0x10,%esp
    2b2d:	b8 01 00 00 00       	mov    $0x1,%eax
    2b32:	e9 b2 fd ff ff       	jmp    28e9 <cmd_cat+0x6e9>
    2b37:	8d 45 cc             	lea    -0x34(%ebp),%eax
    2b3a:	8b 0d a8 f8 00 00    	mov    0xf8a8,%ecx
    2b40:	52                   	push   %edx
    2b41:	50                   	push   %eax
    2b42:	8d 45 d0             	lea    -0x30(%ebp),%eax
    2b45:	50                   	push   %eax
    2b46:	51                   	push   %ecx
    2b47:	e8 54 a4 00 00       	call   cfa0 <console_get_size@plt>
    2b4c:	83 c4 10             	add    $0x10,%esp
    2b4f:	85 c0                	test   %eax,%eax
    2b51:	75 61                	jne    2bb4 <cmd_cat+0x9b4>
    2b53:	8b 45 d0             	mov    -0x30(%ebp),%eax
    2b56:	83 ec 0c             	sub    $0xc,%esp
    2b59:	a3 bc f8 00 00       	mov    %eax,0xf8bc
    2b5e:	8b 45 cc             	mov    -0x34(%ebp),%eax
    2b61:	a3 b8 f8 00 00       	mov    %eax,0xf8b8
    2b66:	a1 a8 f8 00 00       	mov    0xf8a8,%eax
    2b6b:	50                   	push   %eax
    2b6c:	c6 05 c8 f8 00 00 01 	movb   $0x1,0xf8c8
    2b73:	e8 f8 a6 00 00       	call   d270 <console_clear@plt>
    2b78:	a1 bc f8 00 00       	mov    0xf8bc,%eax
    2b7d:	a3 c4 f8 00 00       	mov    %eax,0xf8c4
    2b82:	a1 b8 f8 00 00       	mov    0xf8b8,%eax
    2b87:	48                   	dec    %eax
    2b88:	83 c4 10             	add    $0x10,%esp
    2b8b:	a3 c0 f8 00 00       	mov    %eax,0xf8c0
    2b90:	a1 4c f8 00 00       	mov    0xf84c,%eax
    2b95:	e9 c8 f8 ff ff       	jmp    2462 <cmd_cat+0x262>
    2b9a:	83 ec 0c             	sub    $0xc,%esp
    2b9d:	68 46 b3 00 00       	push   $0xb346
    2ba2:	e8 29 a5 00 00       	call   d0d0 <puts@plt>
    2ba7:	83 c4 10             	add    $0x10,%esp
    2baa:	b8 01 00 00 00       	mov    $0x1,%eax
    2baf:	e9 89 f7 ff ff       	jmp    233d <cmd_cat+0x13d>
    2bb4:	50                   	push   %eax
    2bb5:	50                   	push   %eax
    2bb6:	68 7e 9f 00 00       	push   $0x9f7e
    2bbb:	68 6e b3 00 00       	push   $0xb36e
    2bc0:	e8 2b a4 00 00       	call   cff0 <printf@plt>
    2bc5:	83 c4 10             	add    $0x10,%esp
    2bc8:	b8 01 00 00 00       	mov    $0x1,%eax
    2bcd:	e9 6b f7 ff ff       	jmp    233d <cmd_cat+0x13d>
    2bd2:	31 c0                	xor    %eax,%eax
    2bd4:	e9 64 f7 ff ff       	jmp    233d <cmd_cat+0x13d>
    2bd9:	66 90                	xchg   %ax,%ax
    2bdb:	66 90                	xchg   %ax,%ax
    2bdd:	66 90                	xchg   %ax,%ax
    2bdf:	90                   	nop

00002be0 <help_cmd_touch>:
    2be0:	55                   	push   %ebp
    2be1:	89 e5                	mov    %esp,%ebp
    2be3:	83 ec 08             	sub    $0x8,%esp
    2be6:	8b 45 08             	mov    0x8(%ebp),%eax
    2be9:	85 c0                	test   %eax,%eax
    2beb:	74 2b                	je     2c18 <help_cmd_touch+0x38>
    2bed:	50                   	push   %eax
    2bee:	50                   	push   %eax
    2bef:	68 9e 9f 00 00       	push   $0x9f9e
    2bf4:	68 a0 b5 00 00       	push   $0xb5a0
    2bf9:	e8 f2 a3 00 00       	call   cff0 <printf@plt>
    2bfe:	5a                   	pop    %edx
    2bff:	59                   	pop    %ecx
    2c00:	68 9e 9f 00 00       	push   $0x9f9e
    2c05:	68 c4 b5 00 00       	push   $0xb5c4
    2c0a:	e8 e1 a3 00 00       	call   cff0 <printf@plt>
    2c0f:	83 c4 10             	add    $0x10,%esp
    2c12:	c9                   	leave  
    2c13:	c3                   	ret    
    2c14:	8d 74 26 00          	lea    0x0(%esi,%eiz,1),%esi
    2c18:	50                   	push   %eax
    2c19:	50                   	push   %eax
    2c1a:	68 9e 9f 00 00       	push   $0x9f9e
    2c1f:	68 a0 b5 00 00       	push   $0xb5a0
    2c24:	e8 c7 a3 00 00       	call   cff0 <printf@plt>
    2c29:	83 c4 10             	add    $0x10,%esp
    2c2c:	c9                   	leave  
    2c2d:	c3                   	ret    
    2c2e:	66 90                	xchg   %ax,%ax

00002c30 <cmd_touch>:
    2c30:	55                   	push   %ebp
    2c31:	89 e5                	mov    %esp,%ebp
    2c33:	57                   	push   %edi
    2c34:	56                   	push   %esi
    2c35:	53                   	push   %ebx
    2c36:	83 ec 58             	sub    $0x58,%esp
    2c39:	8d 7d c4             	lea    -0x3c(%ebp),%edi
    2c3c:	8b 5d 08             	mov    0x8(%ebp),%ebx
    2c3f:	53                   	push   %ebx
    2c40:	e8 9b 3c 00 00       	call   68e0 <cli_count_args>
    2c45:	c7 05 5c f8 00 00 01 	movl   $0x1,0xf85c
    2c4c:	00 00 00 
    2c4f:	89 c6                	mov    %eax,%esi
    2c51:	c7 05 4c f8 00 00 00 	movl   $0x0,0xf84c
    2c58:	00 00 00 
    2c5b:	c7 45 c4 00 00 00 00 	movl   $0x0,-0x3c(%ebp)
    2c62:	83 c4 10             	add    $0x10,%esp
    2c65:	c6 45 b3 00          	movb   $0x0,-0x4d(%ebp)
    2c69:	8d b4 26 00 00 00 00 	lea    0x0(%esi,%eiz,1),%esi
    2c70:	83 ec 0c             	sub    $0xc,%esp
    2c73:	57                   	push   %edi
    2c74:	68 e0 b6 00 00       	push   $0xb6e0
    2c79:	68 22 c7 00 00       	push   $0xc722
    2c7e:	53                   	push   %ebx
    2c7f:	56                   	push   %esi
    2c80:	e8 9b a3 00 00       	call   d020 <getopt_long@plt>
    2c85:	83 c4 20             	add    $0x20,%esp
    2c88:	83 f8 63             	cmp    $0x63,%eax
    2c8b:	0f 84 cf 00 00 00    	je     2d60 <cmd_touch+0x130>
    2c91:	40                   	inc    %eax
    2c92:	75 dc                	jne    2c70 <cmd_touch+0x40>
    2c94:	a1 4c f8 00 00       	mov    0xf84c,%eax
    2c99:	39 c6                	cmp    %eax,%esi
    2c9b:	0f 84 16 01 00 00    	je     2db7 <cmd_touch+0x187>
    2ca1:	8d 1c 83             	lea    (%ebx,%eax,4),%ebx
    2ca4:	31 f6                	xor    %esi,%esi
    2ca6:	8b 03                	mov    (%ebx),%eax
    2ca8:	85 c0                	test   %eax,%eax
    2caa:	75 3a                	jne    2ce6 <cmd_touch+0xb6>
    2cac:	e9 a6 00 00 00       	jmp    2d57 <cmd_touch+0x127>
    2cb1:	8d b4 26 00 00 00 00 	lea    0x0(%esi,%eiz,1),%esi
    2cb8:	50                   	push   %eax
    2cb9:	57                   	push   %edi
    2cba:	68 80 b5 00 00       	push   $0xb580
    2cbf:	6a 06                	push   $0x6
    2cc1:	e8 6a 34 00 00       	call   6130 <cli_error>
    2cc6:	8b 45 b4             	mov    -0x4c(%ebp),%eax
    2cc9:	89 04 24             	mov    %eax,(%esp)
    2ccc:	46                   	inc    %esi
    2ccd:	e8 0e a8 00 00       	call   d4e0 <closedir@plt>
    2cd2:	89 3c 24             	mov    %edi,(%esp)
    2cd5:	e8 36 a8 00 00       	call   d510 <free@plt>
    2cda:	83 c4 10             	add    $0x10,%esp
    2cdd:	83 c3 04             	add    $0x4,%ebx
    2ce0:	8b 03                	mov    (%ebx),%eax
    2ce2:	85 c0                	test   %eax,%eax
    2ce4:	74 6a                	je     2d50 <cmd_touch+0x120>
    2ce6:	83 ec 0c             	sub    $0xc,%esp
    2ce9:	50                   	push   %eax
    2cea:	e8 91 a5 00 00       	call   d280 <str_dup@plt>
    2cef:	83 c4 10             	add    $0x10,%esp
    2cf2:	89 c7                	mov    %eax,%edi
    2cf4:	85 c0                	test   %eax,%eax
    2cf6:	0f 84 a4 00 00 00    	je     2da0 <cmd_touch+0x170>
    2cfc:	83 ec 0c             	sub    $0xc,%esp
    2cff:	50                   	push   %eax
    2d00:	e8 5b a6 00 00       	call   d360 <opendir@plt>
    2d05:	83 c4 10             	add    $0x10,%esp
    2d08:	89 45 b4             	mov    %eax,-0x4c(%ebp)
    2d0b:	85 c0                	test   %eax,%eax
    2d0d:	75 a9                	jne    2cb8 <cmd_touch+0x88>
    2d0f:	80 7d b3 00          	cmpb   $0x0,-0x4d(%ebp)
    2d13:	74 5b                	je     2d70 <cmd_touch+0x140>
    2d15:	8d 45 c8             	lea    -0x38(%ebp),%eax
    2d18:	52                   	push   %edx
    2d19:	52                   	push   %edx
    2d1a:	50                   	push   %eax
    2d1b:	57                   	push   %edi
    2d1c:	e8 ef a6 00 00       	call   d410 <stat@plt>
    2d21:	83 c4 10             	add    $0x10,%esp
    2d24:	85 c0                	test   %eax,%eax
    2d26:	74 48                	je     2d70 <cmd_touch+0x140>
    2d28:	83 c3 04             	add    $0x4,%ebx
    2d2b:	50                   	push   %eax
    2d2c:	57                   	push   %edi
    2d2d:	68 bc b6 00 00       	push   $0xb6bc
    2d32:	6a 01                	push   $0x1
    2d34:	e8 f7 33 00 00       	call   6130 <cli_error>
    2d39:	89 3c 24             	mov    %edi,(%esp)
    2d3c:	e8 cf a7 00 00       	call   d510 <free@plt>
    2d41:	8b 03                	mov    (%ebx),%eax
    2d43:	46                   	inc    %esi
    2d44:	83 c4 10             	add    $0x10,%esp
    2d47:	85 c0                	test   %eax,%eax
    2d49:	75 9b                	jne    2ce6 <cmd_touch+0xb6>
    2d4b:	90                   	nop
    2d4c:	8d 74 26 00          	lea    0x0(%esi,%eiz,1),%esi
    2d50:	31 c0                	xor    %eax,%eax
    2d52:	85 f6                	test   %esi,%esi
    2d54:	0f 95 c0             	setne  %al
    2d57:	8d 65 f4             	lea    -0xc(%ebp),%esp
    2d5a:	5b                   	pop    %ebx
    2d5b:	5e                   	pop    %esi
    2d5c:	5f                   	pop    %edi
    2d5d:	5d                   	pop    %ebp
    2d5e:	c3                   	ret    
    2d5f:	90                   	nop
    2d60:	c6 45 b3 01          	movb   $0x1,-0x4d(%ebp)
    2d64:	e9 07 ff ff ff       	jmp    2c70 <cmd_touch+0x40>
    2d69:	8d b4 26 00 00 00 00 	lea    0x0(%esi,%eiz,1),%esi
    2d70:	51                   	push   %ecx
    2d71:	51                   	push   %ecx
    2d72:	6a 21                	push   $0x21
    2d74:	57                   	push   %edi
    2d75:	e8 26 a7 00 00       	call   d4a0 <open@plt>
    2d7a:	83 c4 10             	add    $0x10,%esp
    2d7d:	85 c0                	test   %eax,%eax
    2d7f:	78 a7                	js     2d28 <cmd_touch+0xf8>
    2d81:	83 ec 0c             	sub    $0xc,%esp
    2d84:	50                   	push   %eax
    2d85:	e8 76 a7 00 00       	call   d500 <close@plt>
    2d8a:	89 3c 24             	mov    %edi,(%esp)
    2d8d:	e8 7e a7 00 00       	call   d510 <free@plt>
    2d92:	83 c4 10             	add    $0x10,%esp
    2d95:	e9 43 ff ff ff       	jmp    2cdd <cmd_touch+0xad>
    2d9a:	8d b6 00 00 00 00    	lea    0x0(%esi),%esi
    2da0:	50                   	push   %eax
    2da1:	50                   	push   %eax
    2da2:	68 8e b7 00 00       	push   $0xb78e
    2da7:	6a 04                	push   $0x4
    2da9:	46                   	inc    %esi
    2daa:	e8 81 33 00 00       	call   6130 <cli_error>
    2daf:	83 c4 10             	add    $0x10,%esp
    2db2:	e9 26 ff ff ff       	jmp    2cdd <cmd_touch+0xad>
    2db7:	50                   	push   %eax
    2db8:	68 9e 9f 00 00       	push   $0x9f9e
    2dbd:	68 9e 9f 00 00       	push   $0x9f9e
    2dc2:	68 80 b6 00 00       	push   $0xb680
    2dc7:	e8 24 a2 00 00       	call   cff0 <printf@plt>
    2dcc:	83 c4 10             	add    $0x10,%esp
    2dcf:	b8 01 00 00 00       	mov    $0x1,%eax
    2dd4:	eb 81                	jmp    2d57 <cmd_touch+0x127>
    2dd6:	66 90                	xchg   %ax,%ax
    2dd8:	66 90                	xchg   %ax,%ax
    2dda:	66 90                	xchg   %ax,%ax
    2ddc:	66 90                	xchg   %ax,%ax
    2dde:	66 90                	xchg   %ax,%ax

00002de0 <ls_cmp>:
    2de0:	55                   	push   %ebp
    2de1:	89 e5                	mov    %esp,%ebp
    2de3:	83 ec 08             	sub    $0x8,%esp
    2de6:	8b 4d 08             	mov    0x8(%ebp),%ecx
    2de9:	8b 55 0c             	mov    0xc(%ebp),%edx
    2dec:	8a 41 15             	mov    0x15(%ecx),%al
    2def:	84 c0                	test   %al,%al
    2df1:	74 06                	je     2df9 <ls_cmp+0x19>
    2df3:	80 7a 14 00          	cmpb   $0x0,0x14(%edx)
    2df7:	75 23                	jne    2e1c <ls_cmp+0x3c>
    2df9:	3a 42 15             	cmp    0x15(%edx),%al
    2dfc:	74 0a                	je     2e08 <ls_cmp+0x28>
    2dfe:	b8 01 00 00 00       	mov    $0x1,%eax
    2e03:	c9                   	leave  
    2e04:	c3                   	ret    
    2e05:	8d 76 00             	lea    0x0(%esi),%esi
    2e08:	50                   	push   %eax
    2e09:	50                   	push   %eax
    2e0a:	8b 12                	mov    (%edx),%edx
    2e0c:	52                   	push   %edx
    2e0d:	8b 09                	mov    (%ecx),%ecx
    2e0f:	51                   	push   %ecx
    2e10:	e8 eb a4 00 00       	call   d300 <str_cmp@plt>
    2e15:	83 c4 10             	add    $0x10,%esp
    2e18:	85 c0                	test   %eax,%eax
    2e1a:	79 e2                	jns    2dfe <ls_cmp+0x1e>
    2e1c:	83 c8 ff             	or     $0xffffffff,%eax
    2e1f:	c9                   	leave  
    2e20:	c3                   	ret    
    2e21:	eb 0d                	jmp    2e30 <ls_scan_dir>
    2e23:	90                   	nop
    2e24:	90                   	nop
    2e25:	90                   	nop
    2e26:	90                   	nop
    2e27:	90                   	nop
    2e28:	90                   	nop
    2e29:	90                   	nop
    2e2a:	90                   	nop
    2e2b:	90                   	nop
    2e2c:	90                   	nop
    2e2d:	90                   	nop
    2e2e:	90                   	nop
    2e2f:	90                   	nop

00002e30 <ls_scan_dir>:
    2e30:	55                   	push   %ebp
    2e31:	89 e5                	mov    %esp,%ebp
    2e33:	57                   	push   %edi
    2e34:	56                   	push   %esi
    2e35:	53                   	push   %ebx
    2e36:	83 ec 2c             	sub    $0x2c,%esp
    2e39:	85 d2                	test   %edx,%edx
    2e3b:	0f 84 1e 03 00 00    	je     315f <ls_scan_dir+0x32f>
    2e41:	83 ec 0c             	sub    $0xc,%esp
    2e44:	89 4d d0             	mov    %ecx,-0x30(%ebp)
    2e47:	89 55 d8             	mov    %edx,-0x28(%ebp)
    2e4a:	89 45 d4             	mov    %eax,-0x2c(%ebp)
    2e4d:	68 ff 00 00 00       	push   $0xff
    2e52:	e8 89 a2 00 00       	call   d0e0 <malloc@plt>
    2e57:	83 c4 10             	add    $0x10,%esp
    2e5a:	89 45 dc             	mov    %eax,-0x24(%ebp)
    2e5d:	85 c0                	test   %eax,%eax
    2e5f:	0f 84 02 03 00 00    	je     3167 <ls_scan_dir+0x337>
    2e65:	83 ec 0c             	sub    $0xc,%esp
    2e68:	68 d0 02 00 00       	push   $0x2d0
    2e6d:	e8 6e a2 00 00       	call   d0e0 <malloc@plt>
    2e72:	83 c4 10             	add    $0x10,%esp
    2e75:	89 45 e4             	mov    %eax,-0x1c(%ebp)
    2e78:	85 c0                	test   %eax,%eax
    2e7a:	0f 84 03 03 00 00    	je     3183 <ls_scan_dir+0x353>
    2e80:	31 f6                	xor    %esi,%esi
    2e82:	c7 45 e0 14 00 00 00 	movl   $0x14,-0x20(%ebp)
    2e89:	e9 a7 00 00 00       	jmp    2f35 <ls_scan_dir+0x105>
    2e8e:	66 90                	xchg   %ax,%ax
    2e90:	8b 45 e0             	mov    -0x20(%ebp),%eax
    2e93:	39 f0                	cmp    %esi,%eax
    2e95:	7f 25                	jg     2ebc <ls_scan_dir+0x8c>
    2e97:	01 c0                	add    %eax,%eax
    2e99:	8b 4d e4             	mov    -0x1c(%ebp),%ecx
    2e9c:	89 45 e0             	mov    %eax,-0x20(%ebp)
    2e9f:	52                   	push   %edx
    2ea0:	8d 04 c0             	lea    (%eax,%eax,8),%eax
    2ea3:	52                   	push   %edx
    2ea4:	c1 e0 02             	shl    $0x2,%eax
    2ea7:	50                   	push   %eax
    2ea8:	51                   	push   %ecx
    2ea9:	e8 22 a4 00 00       	call   d2d0 <realloc@plt>
    2eae:	83 c4 10             	add    $0x10,%esp
    2eb1:	85 c0                	test   %eax,%eax
    2eb3:	0f 84 1d 02 00 00    	je     30d6 <ls_scan_dir+0x2a6>
    2eb9:	89 45 e4             	mov    %eax,-0x1c(%ebp)
    2ebc:	83 ec 0c             	sub    $0xc,%esp
    2ebf:	8b 4d e4             	mov    -0x1c(%ebp),%ecx
    2ec2:	8d 04 f6             	lea    (%esi,%esi,8),%eax
    2ec5:	57                   	push   %edi
    2ec6:	8d 1c 81             	lea    (%ecx,%eax,4),%ebx
    2ec9:	e8 f2 a4 00 00       	call   d3c0 <str_size@plt>
    2ece:	40                   	inc    %eax
    2ecf:	89 04 24             	mov    %eax,(%esp)
    2ed2:	e8 09 a2 00 00       	call   d0e0 <malloc@plt>
    2ed7:	83 c4 10             	add    $0x10,%esp
    2eda:	89 03                	mov    %eax,(%ebx)
    2edc:	85 c0                	test   %eax,%eax
    2ede:	0f 84 44 01 00 00    	je     3028 <ls_scan_dir+0x1f8>
    2ee4:	83 ec 0c             	sub    $0xc,%esp
    2ee7:	83 c3 04             	add    $0x4,%ebx
    2eea:	46                   	inc    %esi
    2eeb:	57                   	push   %edi
    2eec:	e8 cf a4 00 00       	call   d3c0 <str_size@plt>
    2ef1:	83 c4 0c             	add    $0xc,%esp
    2ef4:	40                   	inc    %eax
    2ef5:	57                   	push   %edi
    2ef6:	50                   	push   %eax
    2ef7:	8b 7b fc             	mov    -0x4(%ebx),%edi
    2efa:	57                   	push   %edi
    2efb:	e8 70 a4 00 00       	call   d370 <str_cpy@plt>
    2f00:	58                   	pop    %eax
    2f01:	8b 43 fc             	mov    -0x4(%ebx),%eax
    2f04:	50                   	push   %eax
    2f05:	8b 7d dc             	mov    -0x24(%ebp),%edi
    2f08:	8b 45 d4             	mov    -0x2c(%ebp),%eax
    2f0b:	50                   	push   %eax
    2f0c:	68 32 ad 00 00       	push   $0xad32
    2f11:	68 fe 00 00 00       	push   $0xfe
    2f16:	57                   	push   %edi
    2f17:	e8 14 a1 00 00       	call   d030 <snprintf@plt>
    2f1c:	83 c4 18             	add    $0x18,%esp
    2f1f:	c6 04 07 00          	movb   $0x0,(%edi,%eax,1)
    2f23:	53                   	push   %ebx
    2f24:	57                   	push   %edi
    2f25:	e8 e6 a4 00 00       	call   d410 <stat@plt>
    2f2a:	83 c4 10             	add    $0x10,%esp
    2f2d:	85 c0                	test   %eax,%eax
    2f2f:	0f 85 13 01 00 00    	jne    3048 <ls_scan_dir+0x218>
    2f35:	83 ec 0c             	sub    $0xc,%esp
    2f38:	8b 45 d8             	mov    -0x28(%ebp),%eax
    2f3b:	50                   	push   %eax
    2f3c:	e8 ef a1 00 00       	call   d130 <readdir@plt>
    2f41:	83 c4 10             	add    $0x10,%esp
    2f44:	89 c7                	mov    %eax,%edi
    2f46:	85 c0                	test   %eax,%eax
    2f48:	0f 85 42 ff ff ff    	jne    2e90 <ls_scan_dir+0x60>
    2f4e:	8b 3d d0 f8 00 00    	mov    0xf8d0,%edi
    2f54:	85 ff                	test   %edi,%edi
    2f56:	0f 85 93 01 00 00    	jne    30ef <ls_scan_dir+0x2bf>
    2f5c:	85 f6                	test   %esi,%esi
    2f5e:	0f 84 c9 01 00 00    	je     312d <ls_scan_dir+0x2fd>
    2f64:	8b 5d e4             	mov    -0x1c(%ebp),%ebx
    2f67:	31 ff                	xor    %edi,%edi
    2f69:	eb 1f                	jmp    2f8a <ls_scan_dir+0x15a>
    2f6b:	90                   	nop
    2f6c:	8d 74 26 00          	lea    0x0(%esi,%eiz,1),%esi
    2f70:	50                   	push   %eax
    2f71:	50                   	push   %eax
    2f72:	8b 03                	mov    (%ebx),%eax
    2f74:	50                   	push   %eax
    2f75:	68 65 b7 00 00       	push   $0xb765
    2f7a:	e8 71 a0 00 00       	call   cff0 <printf@plt>
    2f7f:	83 c4 10             	add    $0x10,%esp
    2f82:	47                   	inc    %edi
    2f83:	83 c3 24             	add    $0x24,%ebx
    2f86:	39 fe                	cmp    %edi,%esi
    2f88:	74 26                	je     2fb0 <ls_scan_dir+0x180>
    2f8a:	80 7b 14 00          	cmpb   $0x0,0x14(%ebx)
    2f8e:	75 78                	jne    3008 <ls_scan_dir+0x1d8>
    2f90:	80 7b 15 00          	cmpb   $0x0,0x15(%ebx)
    2f94:	74 da                	je     2f70 <ls_scan_dir+0x140>
    2f96:	50                   	push   %eax
    2f97:	50                   	push   %eax
    2f98:	8b 03                	mov    (%ebx),%eax
    2f9a:	47                   	inc    %edi
    2f9b:	50                   	push   %eax
    2f9c:	68 58 b7 00 00       	push   $0xb758
    2fa1:	83 c3 24             	add    $0x24,%ebx
    2fa4:	e8 47 a0 00 00       	call   cff0 <printf@plt>
    2fa9:	83 c4 10             	add    $0x10,%esp
    2fac:	39 fe                	cmp    %edi,%esi
    2fae:	75 da                	jne    2f8a <ls_scan_dir+0x15a>
    2fb0:	8b 0d cc f8 00 00    	mov    0xf8cc,%ecx
    2fb6:	85 c9                	test   %ecx,%ecx
    2fb8:	0f 85 b6 00 00 00    	jne    3074 <ls_scan_dir+0x244>
    2fbe:	8b 5d e4             	mov    -0x1c(%ebp),%ebx
    2fc1:	31 ff                	xor    %edi,%edi
    2fc3:	90                   	nop
    2fc4:	8d 74 26 00          	lea    0x0(%esi,%eiz,1),%esi
    2fc8:	83 ec 0c             	sub    $0xc,%esp
    2fcb:	8b 03                	mov    (%ebx),%eax
    2fcd:	47                   	inc    %edi
    2fce:	83 c3 24             	add    $0x24,%ebx
    2fd1:	50                   	push   %eax
    2fd2:	e8 39 a5 00 00       	call   d510 <free@plt>
    2fd7:	83 c4 10             	add    $0x10,%esp
    2fda:	39 f7                	cmp    %esi,%edi
    2fdc:	7c ea                	jl     2fc8 <ls_scan_dir+0x198>
    2fde:	83 ec 0c             	sub    $0xc,%esp
    2fe1:	8b 7d e4             	mov    -0x1c(%ebp),%edi
    2fe4:	57                   	push   %edi
    2fe5:	e8 26 a5 00 00       	call   d510 <free@plt>
    2fea:	58                   	pop    %eax
    2feb:	8b 45 dc             	mov    -0x24(%ebp),%eax
    2fee:	50                   	push   %eax
    2fef:	e8 1c a5 00 00       	call   d510 <free@plt>
    2ff4:	83 c4 10             	add    $0x10,%esp
    2ff7:	8d 65 f4             	lea    -0xc(%ebp),%esp
    2ffa:	89 f0                	mov    %esi,%eax
    2ffc:	5b                   	pop    %ebx
    2ffd:	5e                   	pop    %esi
    2ffe:	5f                   	pop    %edi
    2fff:	5d                   	pop    %ebp
    3000:	c3                   	ret    
    3001:	8d b4 26 00 00 00 00 	lea    0x0(%esi,%eiz,1),%esi
    3008:	8b 43 1c             	mov    0x1c(%ebx),%eax
    300b:	8b 0b                	mov    (%ebx),%ecx
    300d:	50                   	push   %eax
    300e:	8b 53 18             	mov    0x18(%ebx),%edx
    3011:	52                   	push   %edx
    3012:	51                   	push   %ecx
    3013:	68 4c b7 00 00       	push   $0xb74c
    3018:	e8 d3 9f 00 00       	call   cff0 <printf@plt>
    301d:	83 c4 10             	add    $0x10,%esp
    3020:	e9 5d ff ff ff       	jmp    2f82 <ls_scan_dir+0x152>
    3025:	8d 76 00             	lea    0x0(%esi),%esi
    3028:	8b 5d d4             	mov    -0x2c(%ebp),%ebx
    302b:	51                   	push   %ecx
    302c:	53                   	push   %ebx
    302d:	68 00 b7 00 00       	push   $0xb700
    3032:	6a 04                	push   $0x4
    3034:	e8 f7 30 00 00       	call   6130 <cli_error>
    3039:	83 c4 10             	add    $0x10,%esp
    303c:	85 f6                	test   %esi,%esi
    303e:	0f 85 7a ff ff ff    	jne    2fbe <ls_scan_dir+0x18e>
    3044:	eb 98                	jmp    2fde <ls_scan_dir+0x1ae>
    3046:	66 90                	xchg   %ax,%ax
    3048:	50                   	push   %eax
    3049:	50                   	push   %eax
    304a:	8b 45 dc             	mov    -0x24(%ebp),%eax
    304d:	50                   	push   %eax
    304e:	68 16 b7 00 00       	push   $0xb716
    3053:	e8 98 9f 00 00       	call   cff0 <printf@plt>
    3058:	e8 f3 9f 00 00       	call   d050 <__errno@plt>
    305d:	5a                   	pop    %edx
    305e:	59                   	pop    %ecx
    305f:	8b 18                	mov    (%eax),%ebx
    3061:	53                   	push   %ebx
    3062:	68 32 b7 00 00       	push   $0xb732
    3067:	e8 84 9f 00 00       	call   cff0 <printf@plt>
    306c:	83 c4 10             	add    $0x10,%esp
    306f:	e9 4a ff ff ff       	jmp    2fbe <ls_scan_dir+0x18e>
    3074:	8d 04 f6             	lea    (%esi,%esi,8),%eax
    3077:	57                   	push   %edi
    3078:	c1 e0 02             	shl    $0x2,%eax
    307b:	57                   	push   %edi
    307c:	50                   	push   %eax
    307d:	8b 45 d0             	mov    -0x30(%ebp),%eax
    3080:	8b 00                	mov    (%eax),%eax
    3082:	50                   	push   %eax
    3083:	e8 48 a2 00 00       	call   d2d0 <realloc@plt>
    3088:	83 c4 10             	add    $0x10,%esp
    308b:	85 c0                	test   %eax,%eax
    308d:	74 99                	je     3028 <ls_scan_dir+0x1f8>
    308f:	8b 4d d0             	mov    -0x30(%ebp),%ecx
    3092:	89 75 d8             	mov    %esi,-0x28(%ebp)
    3095:	31 db                	xor    %ebx,%ebx
    3097:	89 c6                	mov    %eax,%esi
    3099:	89 01                	mov    %eax,(%ecx)
    309b:	8b 4d e4             	mov    -0x1c(%ebp),%ecx
    309e:	eb 09                	jmp    30a9 <ls_scan_dir+0x279>
    30a0:	43                   	inc    %ebx
    30a1:	83 c1 24             	add    $0x24,%ecx
    30a4:	39 5d d8             	cmp    %ebx,-0x28(%ebp)
    30a7:	74 7c                	je     3125 <ls_scan_dir+0x2f5>
    30a9:	83 ec 0c             	sub    $0xc,%esp
    30ac:	8b 01                	mov    (%ecx),%eax
    30ae:	89 4d e0             	mov    %ecx,-0x20(%ebp)
    30b1:	8d 3c db             	lea    (%ebx,%ebx,8),%edi
    30b4:	c1 e7 02             	shl    $0x2,%edi
    30b7:	50                   	push   %eax
    30b8:	e8 c3 a1 00 00       	call   d280 <str_dup@plt>
    30bd:	01 fe                	add    %edi,%esi
    30bf:	89 06                	mov    %eax,(%esi)
    30c1:	8b 45 d0             	mov    -0x30(%ebp),%eax
    30c4:	83 c4 10             	add    $0x10,%esp
    30c7:	8b 4d e0             	mov    -0x20(%ebp),%ecx
    30ca:	8b 30                	mov    (%eax),%esi
    30cc:	8b 14 3e             	mov    (%esi,%edi,1),%edx
    30cf:	85 d2                	test   %edx,%edx
    30d1:	75 cd                	jne    30a0 <ls_scan_dir+0x270>
    30d3:	8b 75 d8             	mov    -0x28(%ebp),%esi
    30d6:	50                   	push   %eax
    30d7:	8b 45 d4             	mov    -0x2c(%ebp),%eax
    30da:	50                   	push   %eax
    30db:	68 00 b7 00 00       	push   $0xb700
    30e0:	6a 04                	push   $0x4
    30e2:	e8 49 30 00 00       	call   6130 <cli_error>
    30e7:	83 c4 10             	add    $0x10,%esp
    30ea:	e9 cf fe ff ff       	jmp    2fbe <ls_scan_dir+0x18e>
    30ef:	83 ec 0c             	sub    $0xc,%esp
    30f2:	8b 5d e4             	mov    -0x1c(%ebp),%ebx
    30f5:	6a 00                	push   $0x0
    30f7:	68 e0 2d 00 00       	push   $0x2de0
    30fc:	6a 24                	push   $0x24
    30fe:	56                   	push   %esi
    30ff:	53                   	push   %ebx
    3100:	e8 ab 9f 00 00       	call   d0b0 <qsort@plt>
    3105:	83 c4 20             	add    $0x20,%esp
    3108:	84 c0                	test   %al,%al
    310a:	0f 85 4c fe ff ff    	jne    2f5c <ls_scan_dir+0x12c>
    3110:	83 ec 0c             	sub    $0xc,%esp
    3113:	68 3c b7 00 00       	push   $0xb73c
    3118:	e8 d3 9e 00 00       	call   cff0 <printf@plt>
    311d:	83 c4 10             	add    $0x10,%esp
    3120:	e9 37 fe ff ff       	jmp    2f5c <ls_scan_dir+0x12c>
    3125:	8b 75 d8             	mov    -0x28(%ebp),%esi
    3128:	e9 91 fe ff ff       	jmp    2fbe <ls_scan_dir+0x18e>
    312d:	8b 1d cc f8 00 00    	mov    0xf8cc,%ebx
    3133:	85 db                	test   %ebx,%ebx
    3135:	0f 84 a3 fe ff ff    	je     2fde <ls_scan_dir+0x1ae>
    313b:	50                   	push   %eax
    313c:	50                   	push   %eax
    313d:	8b 45 d0             	mov    -0x30(%ebp),%eax
    3140:	6a 00                	push   $0x0
    3142:	8b 10                	mov    (%eax),%edx
    3144:	52                   	push   %edx
    3145:	e8 86 a1 00 00       	call   d2d0 <realloc@plt>
    314a:	83 c4 10             	add    $0x10,%esp
    314d:	85 c0                	test   %eax,%eax
    314f:	0f 84 d3 fe ff ff    	je     3028 <ls_scan_dir+0x1f8>
    3155:	8b 4d d0             	mov    -0x30(%ebp),%ecx
    3158:	89 01                	mov    %eax,(%ecx)
    315a:	e9 7f fe ff ff       	jmp    2fde <ls_scan_dir+0x1ae>
    315f:	83 ce ff             	or     $0xffffffff,%esi
    3162:	e9 90 fe ff ff       	jmp    2ff7 <ls_scan_dir+0x1c7>
    3167:	50                   	push   %eax
    3168:	8b 45 d4             	mov    -0x2c(%ebp),%eax
    316b:	50                   	push   %eax
    316c:	68 00 b7 00 00       	push   $0xb700
    3171:	6a 04                	push   $0x4
    3173:	83 ce ff             	or     $0xffffffff,%esi
    3176:	e8 b5 2f 00 00       	call   6130 <cli_error>
    317b:	83 c4 10             	add    $0x10,%esp
    317e:	e9 74 fe ff ff       	jmp    2ff7 <ls_scan_dir+0x1c7>
    3183:	8b 75 d4             	mov    -0x2c(%ebp),%esi
    3186:	53                   	push   %ebx
    3187:	56                   	push   %esi
    3188:	68 00 b7 00 00       	push   $0xb700
    318d:	6a 04                	push   $0x4
    318f:	e8 9c 2f 00 00       	call   6130 <cli_error>
    3194:	8b 45 dc             	mov    -0x24(%ebp),%eax
    3197:	5f                   	pop    %edi
    3198:	50                   	push   %eax
    3199:	83 ce ff             	or     $0xffffffff,%esi
    319c:	e8 6f a3 00 00       	call   d510 <free@plt>
    31a1:	83 c4 10             	add    $0x10,%esp
    31a4:	e9 4e fe ff ff       	jmp    2ff7 <ls_scan_dir+0x1c7>
    31a9:	8d b4 26 00 00 00 00 	lea    0x0(%esi,%eiz,1),%esi

000031b0 <ls_recursive>:
    31b0:	55                   	push   %ebp
    31b1:	89 e5                	mov    %esp,%ebp
    31b3:	57                   	push   %edi
    31b4:	56                   	push   %esi
    31b5:	53                   	push   %ebx
    31b6:	83 ec 38             	sub    $0x38,%esp
    31b9:	89 c7                	mov    %eax,%edi
    31bb:	89 55 d4             	mov    %edx,-0x2c(%ebp)
    31be:	6a 24                	push   $0x24
    31c0:	e8 1b 9f 00 00       	call   d0e0 <malloc@plt>
    31c5:	89 45 e4             	mov    %eax,-0x1c(%ebp)
    31c8:	58                   	pop    %eax
    31c9:	5a                   	pop    %edx
    31ca:	57                   	push   %edi
    31cb:	68 6c b7 00 00       	push   $0xb76c
    31d0:	e8 1b 9e 00 00       	call   cff0 <printf@plt>
    31d5:	c7 04 24 ff 00 00 00 	movl   $0xff,(%esp)
    31dc:	e8 ff 9e 00 00       	call   d0e0 <malloc@plt>
    31e1:	83 c4 10             	add    $0x10,%esp
    31e4:	89 c6                	mov    %eax,%esi
    31e6:	85 c0                	test   %eax,%eax
    31e8:	0f 84 a2 01 00 00    	je     3390 <ls_recursive+0x1e0>
    31ee:	8d 4d e4             	lea    -0x1c(%ebp),%ecx
    31f1:	8b 55 d4             	mov    -0x2c(%ebp),%edx
    31f4:	89 f8                	mov    %edi,%eax
    31f6:	e8 35 fc ff ff       	call   2e30 <ls_scan_dir>
    31fb:	83 f8 ff             	cmp    $0xffffffff,%eax
    31fe:	0f 84 8c 01 00 00    	je     3390 <ls_recursive+0x1e0>
    3204:	c7 45 d4 00 00 00 00 	movl   $0x0,-0x2c(%ebp)
    320b:	85 c0                	test   %eax,%eax
    320d:	0f 8e 59 01 00 00    	jle    336c <ls_recursive+0x1bc>
    3213:	89 45 cc             	mov    %eax,-0x34(%ebp)
    3216:	89 fb                	mov    %edi,%ebx
    3218:	57                   	push   %edi
    3219:	68 ff 00 00 00       	push   $0xff
    321e:	6a 00                	push   $0x0
    3220:	56                   	push   %esi
    3221:	e8 0a a1 00 00       	call   d330 <memset@plt>
    3226:	89 34 24             	mov    %esi,(%esp)
    3229:	e8 92 a1 00 00       	call   d3c0 <str_size@plt>
    322e:	89 1c 24             	mov    %ebx,(%esp)
    3231:	89 c7                	mov    %eax,%edi
    3233:	e8 88 a1 00 00       	call   d3c0 <str_size@plt>
    3238:	83 c4 10             	add    $0x10,%esp
    323b:	8d 44 07 01          	lea    0x1(%edi,%eax,1),%eax
    323f:	3d ff 00 00 00       	cmp    $0xff,%eax
    3244:	0f 86 76 01 00 00    	jbe    33c0 <ls_recursive+0x210>
    324a:	83 ec 0c             	sub    $0xc,%esp
    324d:	53                   	push   %ebx
    324e:	e8 6d a1 00 00       	call   d3c0 <str_size@plt>
    3253:	83 c4 10             	add    $0x10,%esp
    3256:	80 7c 03 ff 2f       	cmpb   $0x2f,-0x1(%ebx,%eax,1)
    325b:	74 29                	je     3286 <ls_recursive+0xd6>
    325d:	83 ec 0c             	sub    $0xc,%esp
    3260:	56                   	push   %esi
    3261:	e8 5a a1 00 00       	call   d3c0 <str_size@plt>
    3266:	c7 04 24 72 b7 00 00 	movl   $0xb772,(%esp)
    326d:	89 c7                	mov    %eax,%edi
    326f:	e8 4c a1 00 00       	call   d3c0 <str_size@plt>
    3274:	83 c4 10             	add    $0x10,%esp
    3277:	8d 44 07 01          	lea    0x1(%edi,%eax,1),%eax
    327b:	3d ff 00 00 00       	cmp    $0xff,%eax
    3280:	0f 86 82 01 00 00    	jbe    3408 <ls_recursive+0x258>
    3286:	83 ec 0c             	sub    $0xc,%esp
    3289:	56                   	push   %esi
    328a:	e8 31 a1 00 00       	call   d3c0 <str_size@plt>
    328f:	89 45 d0             	mov    %eax,-0x30(%ebp)
    3292:	8b 45 d4             	mov    -0x2c(%ebp),%eax
    3295:	8d 3c c0             	lea    (%eax,%eax,8),%edi
    3298:	58                   	pop    %eax
    3299:	c1 e7 02             	shl    $0x2,%edi
    329c:	8b 45 e4             	mov    -0x1c(%ebp),%eax
    329f:	8b 04 38             	mov    (%eax,%edi,1),%eax
    32a2:	50                   	push   %eax
    32a3:	e8 18 a1 00 00       	call   d3c0 <str_size@plt>
    32a8:	8b 55 d0             	mov    -0x30(%ebp),%edx
    32ab:	83 c4 10             	add    $0x10,%esp
    32ae:	8d 44 02 01          	lea    0x1(%edx,%eax,1),%eax
    32b2:	3d ff 00 00 00       	cmp    $0xff,%eax
    32b7:	0f 86 e3 00 00 00    	jbe    33a0 <ls_recursive+0x1f0>
    32bd:	8b 55 e4             	mov    -0x1c(%ebp),%edx
    32c0:	50                   	push   %eax
    32c1:	01 fa                	add    %edi,%edx
    32c3:	50                   	push   %eax
    32c4:	89 55 d0             	mov    %edx,-0x30(%ebp)
    32c7:	8d 42 04             	lea    0x4(%edx),%eax
    32ca:	50                   	push   %eax
    32cb:	56                   	push   %esi
    32cc:	e8 3f a1 00 00       	call   d410 <stat@plt>
    32d1:	83 c4 10             	add    $0x10,%esp
    32d4:	8b 55 d0             	mov    -0x30(%ebp),%edx
    32d7:	85 c0                	test   %eax,%eax
    32d9:	0f 85 f9 00 00 00    	jne    33d8 <ls_recursive+0x228>
    32df:	80 7a 14 00          	cmpb   $0x0,0x14(%edx)
    32e3:	75 44                	jne    3329 <ls_recursive+0x179>
    32e5:	80 7a 15 00          	cmpb   $0x0,0x15(%edx)
    32e9:	0f 84 09 01 00 00    	je     33f8 <ls_recursive+0x248>
    32ef:	83 ec 0c             	sub    $0xc,%esp
    32f2:	56                   	push   %esi
    32f3:	e8 68 a0 00 00       	call   d360 <opendir@plt>
    32f8:	83 c4 10             	add    $0x10,%esp
    32fb:	89 c1                	mov    %eax,%ecx
    32fd:	85 c0                	test   %eax,%eax
    32ff:	0f 84 1c 01 00 00    	je     3421 <ls_recursive+0x271>
    3305:	89 ca                	mov    %ecx,%edx
    3307:	89 f0                	mov    %esi,%eax
    3309:	89 4d d0             	mov    %ecx,-0x30(%ebp)
    330c:	e8 9f fe ff ff       	call   31b0 <ls_recursive>
    3311:	83 ec 0c             	sub    $0xc,%esp
    3314:	8b 4d d0             	mov    -0x30(%ebp),%ecx
    3317:	89 c7                	mov    %eax,%edi
    3319:	51                   	push   %ecx
    331a:	e8 c1 a1 00 00       	call   d4e0 <closedir@plt>
    331f:	83 c4 10             	add    $0x10,%esp
    3322:	4f                   	dec    %edi
    3323:	0f 84 cf 00 00 00    	je     33f8 <ls_recursive+0x248>
    3329:	8b 7d d4             	mov    -0x2c(%ebp),%edi
    332c:	47                   	inc    %edi
    332d:	89 7d d4             	mov    %edi,-0x2c(%ebp)
    3330:	8b 45 d4             	mov    -0x2c(%ebp),%eax
    3333:	39 45 cc             	cmp    %eax,-0x34(%ebp)
    3336:	0f 85 dc fe ff ff    	jne    3218 <ls_recursive+0x68>
    333c:	8b 5d cc             	mov    -0x34(%ebp),%ebx
    333f:	c7 45 d4 00 00 00 00 	movl   $0x0,-0x2c(%ebp)
    3346:	66 90                	xchg   %ax,%ax
    3348:	31 ff                	xor    %edi,%edi
    334a:	8d b6 00 00 00 00    	lea    0x0(%esi),%esi
    3350:	8d 04 ff             	lea    (%edi,%edi,8),%eax
    3353:	8b 55 e4             	mov    -0x1c(%ebp),%edx
    3356:	83 ec 0c             	sub    $0xc,%esp
    3359:	47                   	inc    %edi
    335a:	8d 04 82             	lea    (%edx,%eax,4),%eax
    335d:	8b 08                	mov    (%eax),%ecx
    335f:	51                   	push   %ecx
    3360:	e8 ab a1 00 00       	call   d510 <free@plt>
    3365:	83 c4 10             	add    $0x10,%esp
    3368:	39 fb                	cmp    %edi,%ebx
    336a:	75 e4                	jne    3350 <ls_recursive+0x1a0>
    336c:	83 ec 0c             	sub    $0xc,%esp
    336f:	8b 45 e4             	mov    -0x1c(%ebp),%eax
    3372:	50                   	push   %eax
    3373:	e8 98 a1 00 00       	call   d510 <free@plt>
    3378:	89 34 24             	mov    %esi,(%esp)
    337b:	e8 90 a1 00 00       	call   d510 <free@plt>
    3380:	8b 45 d4             	mov    -0x2c(%ebp),%eax
    3383:	8d 65 f4             	lea    -0xc(%ebp),%esp
    3386:	5b                   	pop    %ebx
    3387:	5e                   	pop    %esi
    3388:	5f                   	pop    %edi
    3389:	5d                   	pop    %ebp
    338a:	c3                   	ret    
    338b:	90                   	nop
    338c:	8d 74 26 00          	lea    0x0(%esi,%eiz,1),%esi
    3390:	c7 45 d4 01 00 00 00 	movl   $0x1,-0x2c(%ebp)
    3397:	eb d3                	jmp    336c <ls_recursive+0x1bc>
    3399:	8d b4 26 00 00 00 00 	lea    0x0(%esi,%eiz,1),%esi
    33a0:	50                   	push   %eax
    33a1:	8b 45 e4             	mov    -0x1c(%ebp),%eax
    33a4:	8b 04 38             	mov    (%eax,%edi,1),%eax
    33a7:	50                   	push   %eax
    33a8:	68 ff 00 00 00       	push   $0xff
    33ad:	56                   	push   %esi
    33ae:	e8 9d 9d 00 00       	call   d150 <str_append@plt>
    33b3:	83 c4 10             	add    $0x10,%esp
    33b6:	e9 02 ff ff ff       	jmp    32bd <ls_recursive+0x10d>
    33bb:	90                   	nop
    33bc:	8d 74 26 00          	lea    0x0(%esi,%eiz,1),%esi
    33c0:	51                   	push   %ecx
    33c1:	53                   	push   %ebx
    33c2:	68 ff 00 00 00       	push   $0xff
    33c7:	56                   	push   %esi
    33c8:	e8 83 9d 00 00       	call   d150 <str_append@plt>
    33cd:	83 c4 10             	add    $0x10,%esp
    33d0:	e9 75 fe ff ff       	jmp    324a <ls_recursive+0x9a>
    33d5:	8d 76 00             	lea    0x0(%esi),%esi
    33d8:	50                   	push   %eax
    33d9:	56                   	push   %esi
    33da:	68 52 ad 00 00       	push   $0xad52
    33df:	6a 03                	push   $0x3
    33e1:	8b 5d cc             	mov    -0x34(%ebp),%ebx
    33e4:	e8 47 2d 00 00       	call   6130 <cli_error>
    33e9:	83 c4 10             	add    $0x10,%esp
    33ec:	c7 45 d4 01 00 00 00 	movl   $0x1,-0x2c(%ebp)
    33f3:	e9 50 ff ff ff       	jmp    3348 <ls_recursive+0x198>
    33f8:	8b 5d cc             	mov    -0x34(%ebp),%ebx
    33fb:	c7 45 d4 01 00 00 00 	movl   $0x1,-0x2c(%ebp)
    3402:	e9 41 ff ff ff       	jmp    3348 <ls_recursive+0x198>
    3407:	90                   	nop
    3408:	52                   	push   %edx
    3409:	68 72 b7 00 00       	push   $0xb772
    340e:	68 ff 00 00 00       	push   $0xff
    3413:	56                   	push   %esi
    3414:	e8 37 9d 00 00       	call   d150 <str_append@plt>
    3419:	83 c4 10             	add    $0x10,%esp
    341c:	e9 65 fe ff ff       	jmp    3286 <ls_recursive+0xd6>
    3421:	8b 45 e4             	mov    -0x1c(%ebp),%eax
    3424:	52                   	push   %edx
    3425:	8b 5d cc             	mov    -0x34(%ebp),%ebx
    3428:	8b 0c 38             	mov    (%eax,%edi,1),%ecx
    342b:	51                   	push   %ecx
    342c:	68 74 b7 00 00       	push   $0xb774
    3431:	6a 01                	push   $0x1
    3433:	e8 f8 2c 00 00       	call   6130 <cli_error>
    3438:	83 c4 10             	add    $0x10,%esp
    343b:	c7 45 d4 01 00 00 00 	movl   $0x1,-0x2c(%ebp)
    3442:	e9 01 ff ff ff       	jmp    3348 <ls_recursive+0x198>
    3447:	89 f6                	mov    %esi,%esi
    3449:	8d bc 27 00 00 00 00 	lea    0x0(%edi,%eiz,1),%edi

00003450 <help_cmd_ls>:
    3450:	55                   	push   %ebp
    3451:	89 e5                	mov    %esp,%ebp
    3453:	83 ec 08             	sub    $0x8,%esp
    3456:	8b 45 08             	mov    0x8(%ebp),%eax
    3459:	85 c0                	test   %eax,%eax
    345b:	74 2b                	je     3488 <help_cmd_ls+0x38>
    345d:	50                   	push   %eax
    345e:	50                   	push   %eax
    345f:	68 ed c9 00 00       	push   $0xc9ed
    3464:	68 a4 b7 00 00       	push   $0xb7a4
    3469:	e8 82 9b 00 00       	call   cff0 <printf@plt>
    346e:	5a                   	pop    %edx
    346f:	59                   	pop    %ecx
    3470:	68 ed c9 00 00       	push   $0xc9ed
    3475:	68 c8 b7 00 00       	push   $0xb7c8
    347a:	e8 71 9b 00 00       	call   cff0 <printf@plt>
    347f:	83 c4 10             	add    $0x10,%esp
    3482:	c9                   	leave  
    3483:	c3                   	ret    
    3484:	8d 74 26 00          	lea    0x0(%esi,%eiz,1),%esi
    3488:	50                   	push   %eax
    3489:	50                   	push   %eax
    348a:	68 ed c9 00 00       	push   $0xc9ed
    348f:	68 a4 b7 00 00       	push   $0xb7a4
    3494:	e8 57 9b 00 00       	call   cff0 <printf@plt>
    3499:	83 c4 10             	add    $0x10,%esp
    349c:	c9                   	leave  
    349d:	c3                   	ret    
    349e:	66 90                	xchg   %ax,%ax

000034a0 <cmd_ls>:
    34a0:	55                   	push   %ebp
    34a1:	89 e5                	mov    %esp,%ebp
    34a3:	57                   	push   %edi
    34a4:	56                   	push   %esi
    34a5:	53                   	push   %ebx
    34a6:	83 ec 48             	sub    $0x48,%esp
    34a9:	c7 05 cc f8 00 00 00 	movl   $0x0,0xf8cc
    34b0:	00 00 00 
    34b3:	8b 5d 08             	mov    0x8(%ebp),%ebx
    34b6:	c7 05 d0 f8 00 00 01 	movl   $0x1,0xf8d0
    34bd:	00 00 00 
    34c0:	53                   	push   %ebx
    34c1:	e8 1a 34 00 00       	call   68e0 <cli_count_args>
    34c6:	8d 7d c0             	lea    -0x40(%ebp),%edi
    34c9:	89 c6                	mov    %eax,%esi
    34cb:	c7 05 5c f8 00 00 01 	movl   $0x1,0xf85c
    34d2:	00 00 00 
    34d5:	c7 05 4c f8 00 00 00 	movl   $0x0,0xf84c
    34dc:	00 00 00 
    34df:	c7 45 c0 00 00 00 00 	movl   $0x0,-0x40(%ebp)
    34e6:	83 c4 10             	add    $0x10,%esp
    34e9:	83 ec 0c             	sub    $0xc,%esp
    34ec:	57                   	push   %edi
    34ed:	68 00 b9 00 00       	push   $0xb900
    34f2:	68 86 b7 00 00       	push   $0xb786
    34f7:	53                   	push   %ebx
    34f8:	56                   	push   %esi
    34f9:	e8 22 9b 00 00       	call   d020 <getopt_long@plt>
    34fe:	83 c4 20             	add    $0x20,%esp
    3501:	83 f8 72             	cmp    $0x72,%eax
    3504:	0f 84 f6 00 00 00    	je     3600 <cmd_ls+0x160>
    350a:	83 f8 75             	cmp    $0x75,%eax
    350d:	0f 84 35 01 00 00    	je     3648 <cmd_ls+0x1a8>
    3513:	83 f8 68             	cmp    $0x68,%eax
    3516:	0f 84 f4 00 00 00    	je     3610 <cmd_ls+0x170>
    351c:	40                   	inc    %eax
    351d:	75 ca                	jne    34e9 <cmd_ls+0x49>
    351f:	83 ec 0c             	sub    $0xc,%esp
    3522:	8b 3d 4c f8 00 00    	mov    0xf84c,%edi
    3528:	68 ff 00 00 00       	push   $0xff
    352d:	e8 ae 9b 00 00       	call   d0e0 <malloc@plt>
    3532:	83 c4 10             	add    $0x10,%esp
    3535:	89 45 c4             	mov    %eax,-0x3c(%ebp)
    3538:	85 c0                	test   %eax,%eax
    353a:	0f 84 d6 01 00 00    	je     3716 <cmd_ls+0x276>
    3540:	52                   	push   %edx
    3541:	68 ff 00 00 00       	push   $0xff
    3546:	6a 00                	push   $0x0
    3548:	50                   	push   %eax
    3549:	e8 e2 9d 00 00       	call   d330 <memset@plt>
    354e:	83 c4 10             	add    $0x10,%esp
    3551:	39 fe                	cmp    %edi,%esi
    3553:	0f 84 4f 01 00 00    	je     36a8 <cmd_ls+0x208>
    3559:	50                   	push   %eax
    355a:	a1 4c f8 00 00       	mov    0xf84c,%eax
    355f:	8b 04 83             	mov    (%ebx,%eax,4),%eax
    3562:	50                   	push   %eax
    3563:	8b 45 c4             	mov    -0x3c(%ebp),%eax
    3566:	68 ff 00 00 00       	push   $0xff
    356b:	50                   	push   %eax
    356c:	e8 ff 9d 00 00       	call   d370 <str_cpy@plt>
    3571:	83 c4 10             	add    $0x10,%esp
    3574:	8b 75 c4             	mov    -0x3c(%ebp),%esi
    3577:	8d 45 c8             	lea    -0x38(%ebp),%eax
    357a:	57                   	push   %edi
    357b:	57                   	push   %edi
    357c:	50                   	push   %eax
    357d:	56                   	push   %esi
    357e:	e8 8d 9e 00 00       	call   d410 <stat@plt>
    3583:	83 c4 10             	add    $0x10,%esp
    3586:	89 c3                	mov    %eax,%ebx
    3588:	85 c0                	test   %eax,%eax
    358a:	0f 85 58 01 00 00    	jne    36e8 <cmd_ls+0x248>
    3590:	80 7d d8 00          	cmpb   $0x0,-0x28(%ebp)
    3594:	0f 85 e6 00 00 00    	jne    3680 <cmd_ls+0x1e0>
    359a:	80 7d d9 00          	cmpb   $0x0,-0x27(%ebp)
    359e:	0f 84 d1 00 00 00    	je     3675 <cmd_ls+0x1d5>
    35a4:	83 ec 0c             	sub    $0xc,%esp
    35a7:	8b 45 c4             	mov    -0x3c(%ebp),%eax
    35aa:	50                   	push   %eax
    35ab:	e8 b0 9d 00 00       	call   d360 <opendir@plt>
    35b0:	83 c4 10             	add    $0x10,%esp
    35b3:	89 c6                	mov    %eax,%esi
    35b5:	85 c0                	test   %eax,%eax
    35b7:	0f 84 9a 00 00 00    	je     3657 <cmd_ls+0x1b7>
    35bd:	a1 cc f8 00 00       	mov    0xf8cc,%eax
    35c2:	85 c0                	test   %eax,%eax
    35c4:	0f 84 39 01 00 00    	je     3703 <cmd_ls+0x263>
    35ca:	89 f2                	mov    %esi,%edx
    35cc:	8b 45 c4             	mov    -0x3c(%ebp),%eax
    35cf:	e8 dc fb ff ff       	call   31b0 <ls_recursive>
    35d4:	89 c3                	mov    %eax,%ebx
    35d6:	83 ec 0c             	sub    $0xc,%esp
    35d9:	56                   	push   %esi
    35da:	e8 01 9f 00 00       	call   d4e0 <closedir@plt>
    35df:	58                   	pop    %eax
    35e0:	8b 45 c4             	mov    -0x3c(%ebp),%eax
    35e3:	50                   	push   %eax
    35e4:	e8 27 9f 00 00       	call   d510 <free@plt>
    35e9:	8d 43 01             	lea    0x1(%ebx),%eax
    35ec:	31 db                	xor    %ebx,%ebx
    35ee:	83 c4 10             	add    $0x10,%esp
    35f1:	83 e0 fd             	and    $0xfffffffd,%eax
    35f4:	0f 94 c3             	sete   %bl
    35f7:	eb 3e                	jmp    3637 <cmd_ls+0x197>
    35f9:	8d b4 26 00 00 00 00 	lea    0x0(%esi,%eiz,1),%esi
    3600:	c7 05 cc f8 00 00 01 	movl   $0x1,0xf8cc
    3607:	00 00 00 
    360a:	e9 da fe ff ff       	jmp    34e9 <cmd_ls+0x49>
    360f:	90                   	nop
    3610:	53                   	push   %ebx
    3611:	53                   	push   %ebx
    3612:	68 ed c9 00 00       	push   $0xc9ed
    3617:	68 a4 b7 00 00       	push   $0xb7a4
    361c:	e8 cf 99 00 00       	call   cff0 <printf@plt>
    3621:	5e                   	pop    %esi
    3622:	5f                   	pop    %edi
    3623:	68 ed c9 00 00       	push   $0xc9ed
    3628:	68 c8 b7 00 00       	push   $0xb7c8
    362d:	31 db                	xor    %ebx,%ebx
    362f:	e8 bc 99 00 00       	call   cff0 <printf@plt>
    3634:	83 c4 10             	add    $0x10,%esp
    3637:	8d 65 f4             	lea    -0xc(%ebp),%esp
    363a:	89 d8                	mov    %ebx,%eax
    363c:	5b                   	pop    %ebx
    363d:	5e                   	pop    %esi
    363e:	5f                   	pop    %edi
    363f:	5d                   	pop    %ebp
    3640:	c3                   	ret    
    3641:	8d b4 26 00 00 00 00 	lea    0x0(%esi,%eiz,1),%esi
    3648:	c7 05 d0 f8 00 00 00 	movl   $0x0,0xf8d0
    364f:	00 00 00 
    3652:	e9 92 fe ff ff       	jmp    34e9 <cmd_ls+0x49>
    3657:	50                   	push   %eax
    3658:	8b 45 c4             	mov    -0x3c(%ebp),%eax
    365b:	50                   	push   %eax
    365c:	68 74 b7 00 00       	push   $0xb774
    3661:	6a 01                	push   $0x1
    3663:	e8 c8 2a 00 00       	call   6130 <cli_error>
    3668:	8b 4d c4             	mov    -0x3c(%ebp),%ecx
    366b:	5a                   	pop    %edx
    366c:	51                   	push   %ecx
    366d:	e8 9e 9e 00 00       	call   d510 <free@plt>
    3672:	83 c4 10             	add    $0x10,%esp
    3675:	bb 01 00 00 00       	mov    $0x1,%ebx
    367a:	eb bb                	jmp    3637 <cmd_ls+0x197>
    367c:	8d 74 26 00          	lea    0x0(%esi,%eiz,1),%esi
    3680:	8b 55 e0             	mov    -0x20(%ebp),%edx
    3683:	8b 4d dc             	mov    -0x24(%ebp),%ecx
    3686:	8b 75 c4             	mov    -0x3c(%ebp),%esi
    3689:	52                   	push   %edx
    368a:	51                   	push   %ecx
    368b:	56                   	push   %esi
    368c:	68 4c b7 00 00       	push   $0xb74c
    3691:	e8 5a 99 00 00       	call   cff0 <printf@plt>
    3696:	8b 45 c4             	mov    -0x3c(%ebp),%eax
    3699:	5f                   	pop    %edi
    369a:	50                   	push   %eax
    369b:	e8 70 9e 00 00       	call   d510 <free@plt>
    36a0:	83 c4 10             	add    $0x10,%esp
    36a3:	eb 92                	jmp    3637 <cmd_ls+0x197>
    36a5:	8d 76 00             	lea    0x0(%esi),%esi
    36a8:	50                   	push   %eax
    36a9:	50                   	push   %eax
    36aa:	8b 45 c4             	mov    -0x3c(%ebp),%eax
    36ad:	68 ff 00 00 00       	push   $0xff
    36b2:	50                   	push   %eax
    36b3:	e8 c8 9c 00 00       	call   d380 <getcwd@plt>
    36b8:	83 c4 10             	add    $0x10,%esp
    36bb:	85 c0                	test   %eax,%eax
    36bd:	0f 85 b1 fe ff ff    	jne    3574 <cmd_ls+0xd4>
    36c3:	50                   	push   %eax
    36c4:	68 ed c9 00 00       	push   $0xc9ed
    36c9:	68 bc b8 00 00       	push   $0xb8bc
    36ce:	6a 01                	push   $0x1
    36d0:	bb 01 00 00 00       	mov    $0x1,%ebx
    36d5:	e8 56 2a 00 00       	call   6130 <cli_error>
    36da:	83 c4 10             	add    $0x10,%esp
    36dd:	e9 55 ff ff ff       	jmp    3637 <cmd_ls+0x197>
    36e2:	8d b6 00 00 00 00    	lea    0x0(%esi),%esi
    36e8:	53                   	push   %ebx
    36e9:	56                   	push   %esi
    36ea:	68 52 ad 00 00       	push   $0xad52
    36ef:	6a 03                	push   $0x3
    36f1:	bb 01 00 00 00       	mov    $0x1,%ebx
    36f6:	e8 35 2a 00 00       	call   6130 <cli_error>
    36fb:	83 c4 10             	add    $0x10,%esp
    36fe:	e9 34 ff ff ff       	jmp    3637 <cmd_ls+0x197>
    3703:	31 c9                	xor    %ecx,%ecx
    3705:	89 f2                	mov    %esi,%edx
    3707:	8b 45 c4             	mov    -0x3c(%ebp),%eax
    370a:	e8 21 f7 ff ff       	call   2e30 <ls_scan_dir>
    370f:	89 c3                	mov    %eax,%ebx
    3711:	e9 c0 fe ff ff       	jmp    35d6 <cmd_ls+0x136>
    3716:	51                   	push   %ecx
    3717:	68 ed c9 00 00       	push   $0xc9ed
    371c:	68 8a b7 00 00       	push   $0xb78a
    3721:	6a 04                	push   $0x4
    3723:	bb 01 00 00 00       	mov    $0x1,%ebx
    3728:	e8 03 2a 00 00       	call   6130 <cli_error>
    372d:	83 c4 10             	add    $0x10,%esp
    3730:	e9 02 ff ff ff       	jmp    3637 <cmd_ls+0x197>
    3735:	66 90                	xchg   %ax,%ax
    3737:	66 90                	xchg   %ax,%ax
    3739:	66 90                	xchg   %ax,%ax
    373b:	66 90                	xchg   %ax,%ax
    373d:	66 90                	xchg   %ax,%ax
    373f:	90                   	nop

00003740 <help_cmd_pwd>:
    3740:	55                   	push   %ebp
    3741:	89 e5                	mov    %esp,%ebp
    3743:	83 ec 10             	sub    $0x10,%esp
    3746:	68 bf 9f 00 00       	push   $0x9fbf
    374b:	68 44 b9 00 00       	push   $0xb944
    3750:	e8 9b 98 00 00       	call   cff0 <printf@plt>
    3755:	83 c4 10             	add    $0x10,%esp
    3758:	c9                   	leave  
    3759:	c3                   	ret    
    375a:	8d b6 00 00 00 00    	lea    0x0(%esi),%esi

00003760 <cmd_pwd>:
    3760:	55                   	push   %ebp
    3761:	89 e5                	mov    %esp,%ebp
    3763:	53                   	push   %ebx
    3764:	83 ec 10             	sub    $0x10,%esp
    3767:	68 ff 00 00 00       	push   $0xff
    376c:	e8 6f 99 00 00       	call   d0e0 <malloc@plt>
    3771:	83 c4 10             	add    $0x10,%esp
    3774:	85 c0                	test   %eax,%eax
    3776:	74 48                	je     37c0 <cmd_pwd+0x60>
    3778:	89 c3                	mov    %eax,%ebx
    377a:	51                   	push   %ecx
    377b:	68 ff 00 00 00       	push   $0xff
    3780:	6a 00                	push   $0x0
    3782:	50                   	push   %eax
    3783:	e8 a8 9b 00 00       	call   d330 <memset@plt>
    3788:	58                   	pop    %eax
    3789:	5a                   	pop    %edx
    378a:	68 ff 00 00 00       	push   $0xff
    378f:	53                   	push   %ebx
    3790:	e8 eb 9b 00 00       	call   d380 <getcwd@plt>
    3795:	83 c4 10             	add    $0x10,%esp
    3798:	85 c0                	test   %eax,%eax
    379a:	74 44                	je     37e0 <cmd_pwd+0x80>
    379c:	50                   	push   %eax
    379d:	50                   	push   %eax
    379e:	53                   	push   %ebx
    379f:	68 ac 9e 00 00       	push   $0x9eac
    37a4:	e8 47 98 00 00       	call   cff0 <printf@plt>
    37a9:	89 1c 24             	mov    %ebx,(%esp)
    37ac:	e8 5f 9d 00 00       	call   d510 <free@plt>
    37b1:	83 c4 10             	add    $0x10,%esp
    37b4:	31 c0                	xor    %eax,%eax
    37b6:	8b 5d fc             	mov    -0x4(%ebp),%ebx
    37b9:	c9                   	leave  
    37ba:	c3                   	ret    
    37bb:	90                   	nop
    37bc:	8d 74 26 00          	lea    0x0(%esi,%eiz,1),%esi
    37c0:	51                   	push   %ecx
    37c1:	68 bf 9f 00 00       	push   $0x9fbf
    37c6:	68 40 b9 00 00       	push   $0xb940
    37cb:	6a 04                	push   $0x4
    37cd:	e8 5e 29 00 00       	call   6130 <cli_error>
    37d2:	83 c4 10             	add    $0x10,%esp
    37d5:	b8 01 00 00 00       	mov    $0x1,%eax
    37da:	8b 5d fc             	mov    -0x4(%ebp),%ebx
    37dd:	c9                   	leave  
    37de:	c3                   	ret    
    37df:	90                   	nop
    37e0:	52                   	push   %edx
    37e1:	52                   	push   %edx
    37e2:	68 74 b9 00 00       	push   $0xb974
    37e7:	6a 01                	push   $0x1
    37e9:	e8 42 29 00 00       	call   6130 <cli_error>
    37ee:	89 1c 24             	mov    %ebx,(%esp)
    37f1:	e8 1a 9d 00 00       	call   d510 <free@plt>
    37f6:	83 c4 10             	add    $0x10,%esp
    37f9:	b8 01 00 00 00       	mov    $0x1,%eax
    37fe:	eb b6                	jmp    37b6 <cmd_pwd+0x56>

00003800 <help_cmd_sleep>:
    3800:	55                   	push   %ebp
    3801:	89 e5                	mov    %esp,%ebp
    3803:	83 ec 08             	sub    $0x8,%esp
    3806:	8b 45 08             	mov    0x8(%ebp),%eax
    3809:	85 c0                	test   %eax,%eax
    380b:	74 2b                	je     3838 <help_cmd_sleep+0x38>
    380d:	50                   	push   %eax
    380e:	50                   	push   %eax
    380f:	68 c3 9f 00 00       	push   $0x9fc3
    3814:	68 c0 b9 00 00       	push   $0xb9c0
    3819:	e8 d2 97 00 00       	call   cff0 <printf@plt>
    381e:	5a                   	pop    %edx
    381f:	59                   	pop    %ecx
    3820:	68 c3 9f 00 00       	push   $0x9fc3
    3825:	68 e8 b9 00 00       	push   $0xb9e8
    382a:	e8 c1 97 00 00       	call   cff0 <printf@plt>
    382f:	83 c4 10             	add    $0x10,%esp
    3832:	c9                   	leave  
    3833:	c3                   	ret    
    3834:	8d 74 26 00          	lea    0x0(%esi,%eiz,1),%esi
    3838:	50                   	push   %eax
    3839:	50                   	push   %eax
    383a:	68 c3 9f 00 00       	push   $0x9fc3
    383f:	68 c0 b9 00 00       	push   $0xb9c0
    3844:	e8 a7 97 00 00       	call   cff0 <printf@plt>
    3849:	83 c4 10             	add    $0x10,%esp
    384c:	c9                   	leave  
    384d:	c3                   	ret    
    384e:	66 90                	xchg   %ax,%ax

00003850 <cmd_sleep>:
    3850:	55                   	push   %ebp
    3851:	89 e5                	mov    %esp,%ebp
    3853:	56                   	push   %esi
    3854:	53                   	push   %ebx
    3855:	83 ec 2c             	sub    $0x2c,%esp
    3858:	8b 5d 08             	mov    0x8(%ebp),%ebx
    385b:	53                   	push   %ebx
    385c:	e8 7f 30 00 00       	call   68e0 <cli_count_args>
    3861:	83 c4 10             	add    $0x10,%esp
    3864:	83 f8 02             	cmp    $0x2,%eax
    3867:	74 27                	je     3890 <cmd_sleep+0x40>
    3869:	52                   	push   %edx
    386a:	68 c3 9f 00 00       	push   $0x9fc3
    386f:	68 c3 9f 00 00       	push   $0x9fc3
    3874:	68 2c ba 00 00       	push   $0xba2c
    3879:	e8 72 97 00 00       	call   cff0 <printf@plt>
    387e:	83 c4 10             	add    $0x10,%esp
    3881:	8d 65 f8             	lea    -0x8(%ebp),%esp
    3884:	b8 01 00 00 00       	mov    $0x1,%eax
    3889:	5b                   	pop    %ebx
    388a:	5e                   	pop    %esi
    388b:	5d                   	pop    %ebp
    388c:	c3                   	ret    
    388d:	8d 76 00             	lea    0x0(%esi),%esi
    3890:	8b 43 04             	mov    0x4(%ebx),%eax
    3893:	80 38 2e             	cmpb   $0x2e,(%eax)
    3896:	74 50                	je     38e8 <cmd_sleep+0x98>
    3898:	83 ec 0c             	sub    $0xc,%esp
    389b:	8d 55 e8             	lea    -0x18(%ebp),%edx
    389e:	52                   	push   %edx
    389f:	8d 55 e4             	lea    -0x1c(%ebp),%edx
    38a2:	6a 00                	push   $0x0
    38a4:	6a 0a                	push   $0xa
    38a6:	52                   	push   %edx
    38a7:	50                   	push   %eax
    38a8:	e8 23 9b 00 00       	call   d3d0 <str_uint64_t@plt>
    38ad:	83 c4 20             	add    $0x20,%esp
    38b0:	85 c0                	test   %eax,%eax
    38b2:	75 12                	jne    38c6 <cmd_sleep+0x76>
    38b4:	8b 45 e4             	mov    -0x1c(%ebp),%eax
    38b7:	8a 10                	mov    (%eax),%dl
    38b9:	84 d2                	test   %dl,%dl
    38bb:	74 42                	je     38ff <cmd_sleep+0xaf>
    38bd:	80 fa 2e             	cmp    $0x2e,%dl
    38c0:	0f 84 8a 00 00 00    	je     3950 <cmd_sleep+0x100>
    38c6:	50                   	push   %eax
    38c7:	50                   	push   %eax
    38c8:	68 c3 9f 00 00       	push   $0x9fc3
    38cd:	68 a6 b9 00 00       	push   $0xb9a6
    38d2:	e8 19 97 00 00       	call   cff0 <printf@plt>
    38d7:	83 c4 10             	add    $0x10,%esp
    38da:	8d 65 f8             	lea    -0x8(%ebp),%esp
    38dd:	b8 01 00 00 00       	mov    $0x1,%eax
    38e2:	5b                   	pop    %ebx
    38e3:	5e                   	pop    %esi
    38e4:	5d                   	pop    %ebp
    38e5:	c3                   	ret    
    38e6:	66 90                	xchg   %ax,%ax
    38e8:	c7 45 e8 00 00 00 00 	movl   $0x0,-0x18(%ebp)
    38ef:	c7 45 ec 00 00 00 00 	movl   $0x0,-0x14(%ebp)
    38f6:	89 45 e4             	mov    %eax,-0x1c(%ebp)
    38f9:	8a 10                	mov    (%eax),%dl
    38fb:	84 d2                	test   %dl,%dl
    38fd:	75 be                	jne    38bd <cmd_sleep+0x6d>
    38ff:	c7 45 f0 00 00 00 00 	movl   $0x0,-0x10(%ebp)
    3906:	c7 45 f4 00 00 00 00 	movl   $0x0,-0xc(%ebp)
    390d:	31 c0                	xor    %eax,%eax
    390f:	8b 4d e8             	mov    -0x18(%ebp),%ecx
    3912:	89 ca                	mov    %ecx,%edx
    3914:	c1 e2 05             	shl    $0x5,%edx
    3917:	29 ca                	sub    %ecx,%edx
    3919:	89 d3                	mov    %edx,%ebx
    391b:	c1 e3 06             	shl    $0x6,%ebx
    391e:	29 d3                	sub    %edx,%ebx
    3920:	ba 83 de 1b 43       	mov    $0x431bde83,%edx
    3925:	8d 1c d9             	lea    (%ecx,%ebx,8),%ebx
    3928:	c1 e3 06             	shl    $0x6,%ebx
    392b:	01 c3                	add    %eax,%ebx
    392d:	89 d8                	mov    %ebx,%eax
    392f:	f7 e2                	mul    %edx
    3931:	c1 ea 12             	shr    $0x12,%edx
    3934:	31 d1                	xor    %edx,%ecx
    3936:	0b 4d ec             	or     -0x14(%ebp),%ecx
    3939:	75 8b                	jne    38c6 <cmd_sleep+0x76>
    393b:	83 ec 0c             	sub    $0xc,%esp
    393e:	53                   	push   %ebx
    393f:	e8 4c 97 00 00       	call   d090 <usleep@plt>
    3944:	83 c4 10             	add    $0x10,%esp
    3947:	8d 65 f8             	lea    -0x8(%ebp),%esp
    394a:	31 c0                	xor    %eax,%eax
    394c:	5b                   	pop    %ebx
    394d:	5e                   	pop    %esi
    394e:	5d                   	pop    %ebp
    394f:	c3                   	ret    
    3950:	80 78 01 00          	cmpb   $0x0,0x1(%eax)
    3954:	74 a9                	je     38ff <cmd_sleep+0xaf>
    3956:	83 ec 0c             	sub    $0xc,%esp
    3959:	8d 58 01             	lea    0x1(%eax),%ebx
    395c:	8d 45 f0             	lea    -0x10(%ebp),%eax
    395f:	50                   	push   %eax
    3960:	8d 45 e4             	lea    -0x1c(%ebp),%eax
    3963:	6a 01                	push   $0x1
    3965:	6a 0a                	push   $0xa
    3967:	50                   	push   %eax
    3968:	53                   	push   %ebx
    3969:	e8 62 9a 00 00       	call   d3d0 <str_uint64_t@plt>
    396e:	83 c4 20             	add    $0x20,%esp
    3971:	85 c0                	test   %eax,%eax
    3973:	0f 85 4d ff ff ff    	jne    38c6 <cmd_sleep+0x76>
    3979:	8b 75 e4             	mov    -0x1c(%ebp),%esi
    397c:	8b 45 f0             	mov    -0x10(%ebp),%eax
    397f:	29 de                	sub    %ebx,%esi
    3981:	8b 55 f4             	mov    -0xc(%ebp),%edx
    3984:	83 fe 05             	cmp    $0x5,%esi
    3987:	7f 2d                	jg     39b6 <cmd_sleep+0x166>
    3989:	8d b4 26 00 00 00 00 	lea    0x0(%esi,%eiz,1),%esi
    3990:	89 c1                	mov    %eax,%ecx
    3992:	89 d3                	mov    %edx,%ebx
    3994:	0f a4 cb 02          	shld   $0x2,%ecx,%ebx
    3998:	c1 e1 02             	shl    $0x2,%ecx
    399b:	01 c8                	add    %ecx,%eax
    399d:	11 da                	adc    %ebx,%edx
    399f:	46                   	inc    %esi
    39a0:	0f a4 c2 01          	shld   $0x1,%eax,%edx
    39a4:	01 c0                	add    %eax,%eax
    39a6:	83 fe 06             	cmp    $0x6,%esi
    39a9:	75 e5                	jne    3990 <cmd_sleep+0x140>
    39ab:	89 45 f0             	mov    %eax,-0x10(%ebp)
    39ae:	89 55 f4             	mov    %edx,-0xc(%ebp)
    39b1:	e9 59 ff ff ff       	jmp    390f <cmd_sleep+0xbf>
    39b6:	83 fe 06             	cmp    $0x6,%esi
    39b9:	0f 84 50 ff ff ff    	je     390f <cmd_sleep+0xbf>
    39bf:	90                   	nop
    39c0:	6a 00                	push   $0x0
    39c2:	4e                   	dec    %esi
    39c3:	6a 0a                	push   $0xa
    39c5:	52                   	push   %edx
    39c6:	50                   	push   %eax
    39c7:	e8 c4 97 00 00       	call   d190 <__udivdi3@plt>
    39cc:	83 c4 10             	add    $0x10,%esp
    39cf:	83 fe 06             	cmp    $0x6,%esi
    39d2:	75 ec                	jne    39c0 <cmd_sleep+0x170>
    39d4:	eb d5                	jmp    39ab <cmd_sleep+0x15b>
    39d6:	66 90                	xchg   %ax,%ax
    39d8:	66 90                	xchg   %ax,%ax
    39da:	66 90                	xchg   %ax,%ax
    39dc:	66 90                	xchg   %ax,%ax
    39de:	66 90                	xchg   %ax,%ax

000039e0 <get_user_decision.constprop.2>:
    39e0:	55                   	push   %ebp
    39e1:	89 e5                	mov    %esp,%ebp
    39e3:	53                   	push   %ebx
    39e4:	83 ec 3c             	sub    $0x3c,%esp
    39e7:	8d 45 10             	lea    0x10(%ebp),%eax
    39ea:	8d 5d d4             	lea    -0x2c(%ebp),%ebx
    39ed:	50                   	push   %eax
    39ee:	68 60 ba 00 00       	push   $0xba60
    39f3:	e8 58 98 00 00       	call   d250 <vprintf@plt>
    39f8:	83 c4 10             	add    $0x10,%esp
    39fb:	90                   	nop
    39fc:	8d 74 26 00          	lea    0x0(%esi,%eiz,1),%esi
    3a00:	83 ec 0c             	sub    $0xc,%esp
    3a03:	8b 0d d4 f8 00 00    	mov    0xf8d4,%ecx
    3a09:	51                   	push   %ecx
    3a0a:	e8 a1 99 00 00       	call   d3b0 <console_flush@plt>
    3a0f:	8b 0d d4 f8 00 00    	mov    0xf8d4,%ecx
    3a15:	58                   	pop    %eax
    3a16:	5a                   	pop    %edx
    3a17:	53                   	push   %ebx
    3a18:	51                   	push   %ecx
    3a19:	e8 52 97 00 00       	call   d170 <console_get_event@plt>
    3a1e:	8b 45 dc             	mov    -0x24(%ebp),%eax
    3a21:	83 c4 10             	add    $0x10,%esp
    3a24:	85 c0                	test   %eax,%eax
    3a26:	75 d8                	jne    3a00 <get_user_decision.constprop.2+0x20>
    3a28:	8b 55 e8             	mov    -0x18(%ebp),%edx
    3a2b:	85 d2                	test   %edx,%edx
    3a2d:	75 d1                	jne    3a00 <get_user_decision.constprop.2+0x20>
    3a2f:	f6 45 f0 3c          	testb  $0x3c,-0x10(%ebp)
    3a33:	75 cb                	jne    3a00 <get_user_decision.constprop.2+0x20>
    3a35:	8b 45 ec             	mov    -0x14(%ebp),%eax
    3a38:	83 f8 2a             	cmp    $0x2a,%eax
    3a3b:	74 3b                	je     3a78 <get_user_decision.constprop.2+0x98>
    3a3d:	83 f8 31             	cmp    $0x31,%eax
    3a40:	74 1e                	je     3a60 <get_user_decision.constprop.2+0x80>
    3a42:	83 f8 15             	cmp    $0x15,%eax
    3a45:	75 b9                	jne    3a00 <get_user_decision.constprop.2+0x20>
    3a47:	83 ec 0c             	sub    $0xc,%esp
    3a4a:	68 16 bd 00 00       	push   $0xbd16
    3a4f:	e8 9c 95 00 00       	call   cff0 <printf@plt>
    3a54:	83 c4 10             	add    $0x10,%esp
    3a57:	b0 01                	mov    $0x1,%al
    3a59:	8b 5d fc             	mov    -0x4(%ebp),%ebx
    3a5c:	c9                   	leave  
    3a5d:	c3                   	ret    
    3a5e:	66 90                	xchg   %ax,%ax
    3a60:	83 ec 0c             	sub    $0xc,%esp
    3a63:	68 8e bc 00 00       	push   $0xbc8e
    3a68:	e8 83 95 00 00       	call   cff0 <printf@plt>
    3a6d:	83 c4 10             	add    $0x10,%esp
    3a70:	31 c0                	xor    %eax,%eax
    3a72:	8b 5d fc             	mov    -0x4(%ebp),%ebx
    3a75:	c9                   	leave  
    3a76:	c3                   	ret    
    3a77:	90                   	nop
    3a78:	50                   	push   %eax
    3a79:	50                   	push   %eax
    3a7a:	6a 4e                	push   $0x4e
    3a7c:	68 91 bc 00 00       	push   $0xbc91
    3a81:	e8 6a 95 00 00       	call   cff0 <printf@plt>
    3a86:	83 c4 10             	add    $0x10,%esp
    3a89:	31 c0                	xor    %eax,%eax
    3a8b:	8b 5d fc             	mov    -0x4(%ebp),%ebx
    3a8e:	c9                   	leave  
    3a8f:	c3                   	ret    

00003a90 <do_copy>:
    3a90:	55                   	push   %ebp
    3a91:	89 e5                	mov    %esp,%ebp
    3a93:	57                   	push   %edi
    3a94:	56                   	push   %esi
    3a95:	53                   	push   %ebx
    3a96:	81 ec 74 04 00 00    	sub    $0x474,%esp
    3a9c:	8d 9d e8 fe ff ff    	lea    -0x118(%ebp),%ebx
    3aa2:	89 85 a0 fb ff ff    	mov    %eax,-0x460(%ebp)
    3aa8:	89 d6                	mov    %edx,%esi
    3aaa:	53                   	push   %ebx
    3aab:	89 8d 9c fb ff ff    	mov    %ecx,-0x464(%ebp)
    3ab1:	50                   	push   %eax
    3ab2:	e8 59 99 00 00       	call   d410 <stat@plt>
    3ab7:	83 c4 10             	add    $0x10,%esp
    3aba:	85 c0                	test   %eax,%eax
    3abc:	0f 85 8b 00 00 00    	jne    3b4d <do_copy+0xbd>
    3ac2:	bf 02 00 00 00       	mov    $0x2,%edi
    3ac7:	80 bd f9 fe ff ff 00 	cmpb   $0x0,-0x107(%ebp)
    3ace:	74 70                	je     3b40 <do_copy+0xb0>
    3ad0:	51                   	push   %ecx
    3ad1:	51                   	push   %ecx
    3ad2:	53                   	push   %ebx
    3ad3:	56                   	push   %esi
    3ad4:	e8 37 99 00 00       	call   d410 <stat@plt>
    3ad9:	83 c4 10             	add    $0x10,%esp
    3adc:	85 c0                	test   %eax,%eax
    3ade:	75 7f                	jne    3b5f <do_copy+0xcf>
    3ae0:	c7 85 98 fb ff ff 02 	movl   $0x2,-0x468(%ebp)
    3ae7:	00 00 00 
    3aea:	80 bd f9 fe ff ff 00 	cmpb   $0x0,-0x107(%ebp)
    3af1:	0f 84 79 02 00 00    	je     3d70 <do_copy+0x2e0>
    3af7:	83 ec 0c             	sub    $0xc,%esp
    3afa:	8b 85 a0 fb ff ff    	mov    -0x460(%ebp),%eax
    3b00:	50                   	push   %eax
    3b01:	e8 ba 98 00 00       	call   d3c0 <str_size@plt>
    3b06:	83 c4 10             	add    $0x10,%esp
    3b09:	83 ff 01             	cmp    $0x1,%edi
    3b0c:	0f 84 c6 05 00 00    	je     40d8 <do_copy+0x648>
    3b12:	83 ff 02             	cmp    $0x2,%edi
    3b15:	74 69                	je     3b80 <do_copy+0xf0>
    3b17:	50                   	push   %eax
    3b18:	50                   	push   %eax
    3b19:	8b 85 a0 fb ff ff    	mov    -0x460(%ebp),%eax
    3b1f:	50                   	push   %eax
    3b20:	68 b4 ba 00 00       	push   $0xbab4
    3b25:	e8 c6 94 00 00       	call   cff0 <printf@plt>
    3b2a:	83 c4 10             	add    $0x10,%esp
    3b2d:	83 c8 ff             	or     $0xffffffff,%eax
    3b30:	83 ca ff             	or     $0xffffffff,%edx
    3b33:	8d 65 f4             	lea    -0xc(%ebp),%esp
    3b36:	5b                   	pop    %ebx
    3b37:	5e                   	pop    %esi
    3b38:	5f                   	pop    %edi
    3b39:	5d                   	pop    %ebp
    3b3a:	c3                   	ret    
    3b3b:	90                   	nop
    3b3c:	8d 74 26 00          	lea    0x0(%esi,%eiz,1),%esi
    3b40:	80 bd f8 fe ff ff 00 	cmpb   $0x0,-0x108(%ebp)
    3b47:	0f 85 db 02 00 00    	jne    3e28 <do_copy+0x398>
    3b4d:	51                   	push   %ecx
    3b4e:	51                   	push   %ecx
    3b4f:	53                   	push   %ebx
    3b50:	56                   	push   %esi
    3b51:	e8 ba 98 00 00       	call   d410 <stat@plt>
    3b56:	31 ff                	xor    %edi,%edi
    3b58:	83 c4 10             	add    $0x10,%esp
    3b5b:	85 c0                	test   %eax,%eax
    3b5d:	74 81                	je     3ae0 <do_copy+0x50>
    3b5f:	83 ec 0c             	sub    $0xc,%esp
    3b62:	8b 85 a0 fb ff ff    	mov    -0x460(%ebp),%eax
    3b68:	50                   	push   %eax
    3b69:	e8 52 98 00 00       	call   d3c0 <str_size@plt>
    3b6e:	83 c4 10             	add    $0x10,%esp
    3b71:	c7 85 98 fb ff ff 00 	movl   $0x0,-0x468(%ebp)
    3b78:	00 00 00 
    3b7b:	83 ff 02             	cmp    $0x2,%edi
    3b7e:	75 97                	jne    3b17 <do_copy+0x87>
    3b80:	8b 55 0c             	mov    0xc(%ebp),%edx
    3b83:	85 d2                	test   %edx,%edx
    3b85:	0f 84 05 05 00 00    	je     4090 <do_copy+0x600>
    3b8b:	83 bd 98 fb ff ff 01 	cmpl   $0x1,-0x468(%ebp)
    3b92:	0f 84 20 05 00 00    	je     40b8 <do_copy+0x628>
    3b98:	8b 8d a0 fb ff ff    	mov    -0x460(%ebp),%ecx
    3b9e:	40                   	inc    %eax
    3b9f:	8d bd ea fc ff ff    	lea    -0x316(%ebp),%edi
    3ba5:	52                   	push   %edx
    3ba6:	51                   	push   %ecx
    3ba7:	50                   	push   %eax
    3ba8:	57                   	push   %edi
    3ba9:	e8 c2 97 00 00       	call   d370 <str_cpy@plt>
    3bae:	58                   	pop    %eax
    3baf:	5a                   	pop    %edx
    3bb0:	6a 2f                	push   $0x2f
    3bb2:	57                   	push   %edi
    3bb3:	e8 88 95 00 00       	call   d140 <str_rtrim@plt>
    3bb8:	59                   	pop    %ecx
    3bb9:	58                   	pop    %eax
    3bba:	6a 2f                	push   $0x2f
    3bbc:	57                   	push   %edi
    3bbd:	e8 2e 95 00 00       	call   d0f0 <str_rchr@plt>
    3bc2:	83 c4 10             	add    $0x10,%esp
    3bc5:	85 c0                	test   %eax,%eax
    3bc7:	74 03                	je     3bcc <do_copy+0x13c>
    3bc9:	8d 78 01             	lea    0x1(%eax),%edi
    3bcc:	50                   	push   %eax
    3bcd:	8d 85 eb fb ff ff    	lea    -0x415(%ebp),%eax
    3bd3:	56                   	push   %esi
    3bd4:	68 ff 00 00 00       	push   $0xff
    3bd9:	50                   	push   %eax
    3bda:	89 85 a4 fb ff ff    	mov    %eax,-0x45c(%ebp)
    3be0:	e8 8b 97 00 00       	call   d370 <str_cpy@plt>
    3be5:	83 c4 10             	add    $0x10,%esp
    3be8:	83 bd 98 fb ff ff 02 	cmpl   $0x2,-0x468(%ebp)
    3bef:	0f 84 93 01 00 00    	je     3d88 <do_copy+0x2f8>
    3bf5:	50                   	push   %eax
    3bf6:	50                   	push   %eax
    3bf7:	8b 85 a4 fb ff ff    	mov    -0x45c(%ebp),%eax
    3bfd:	6a 00                	push   $0x0
    3bff:	50                   	push   %eax
    3c00:	e8 eb 98 00 00       	call   d4f0 <mkdir@plt>
    3c05:	83 c4 10             	add    $0x10,%esp
    3c08:	85 c0                	test   %eax,%eax
    3c0a:	0f 85 f0 01 00 00    	jne    3e00 <do_copy+0x370>
    3c10:	83 ec 0c             	sub    $0xc,%esp
    3c13:	8b bd a0 fb ff ff    	mov    -0x460(%ebp),%edi
    3c19:	57                   	push   %edi
    3c1a:	e8 41 97 00 00       	call   d360 <opendir@plt>
    3c1f:	83 c4 10             	add    $0x10,%esp
    3c22:	89 85 98 fb ff ff    	mov    %eax,-0x468(%ebp)
    3c28:	85 c0                	test   %eax,%eax
    3c2a:	0f 84 61 06 00 00    	je     4291 <do_copy+0x801>
    3c30:	c7 85 94 fb ff ff ff 	movl   $0xffffffff,-0x46c(%ebp)
    3c37:	ff ff ff 
    3c3a:	8d b5 e9 fd ff ff    	lea    -0x217(%ebp),%esi
    3c40:	eb 36                	jmp    3c78 <do_copy+0x1e8>
    3c42:	8d b6 00 00 00 00    	lea    0x0(%esi),%esi
    3c48:	8b 45 14             	mov    0x14(%ebp),%eax
    3c4b:	8b 55 0c             	mov    0xc(%ebp),%edx
    3c4e:	50                   	push   %eax
    3c4f:	8b 4d 08             	mov    0x8(%ebp),%ecx
    3c52:	8b 45 10             	mov    0x10(%ebp),%eax
    3c55:	50                   	push   %eax
    3c56:	89 f0                	mov    %esi,%eax
    3c58:	52                   	push   %edx
    3c59:	89 da                	mov    %ebx,%edx
    3c5b:	51                   	push   %ecx
    3c5c:	8b 8d 9c fb ff ff    	mov    -0x464(%ebp),%ecx
    3c62:	e8 29 fe ff ff       	call   3a90 <do_copy>
    3c67:	83 c4 10             	add    $0x10,%esp
    3c6a:	89 85 94 fb ff ff    	mov    %eax,-0x46c(%ebp)
    3c70:	85 c0                	test   %eax,%eax
    3c72:	0f 85 f3 03 00 00    	jne    406b <do_copy+0x5db>
    3c78:	83 ec 0c             	sub    $0xc,%esp
    3c7b:	8b 85 98 fb ff ff    	mov    -0x468(%ebp),%eax
    3c81:	50                   	push   %eax
    3c82:	e8 a9 94 00 00       	call   d130 <readdir@plt>
    3c87:	83 c4 10             	add    $0x10,%esp
    3c8a:	89 c7                	mov    %eax,%edi
    3c8c:	85 c0                	test   %eax,%eax
    3c8e:	0f 84 d7 03 00 00    	je     406b <do_copy+0x5db>
    3c94:	50                   	push   %eax
    3c95:	8b 85 a0 fb ff ff    	mov    -0x460(%ebp),%eax
    3c9b:	50                   	push   %eax
    3c9c:	68 ff 00 00 00       	push   $0xff
    3ca1:	56                   	push   %esi
    3ca2:	e8 c9 96 00 00       	call   d370 <str_cpy@plt>
    3ca7:	58                   	pop    %eax
    3ca8:	5a                   	pop    %edx
    3ca9:	6a 2f                	push   $0x2f
    3cab:	56                   	push   %esi
    3cac:	e8 8f 94 00 00       	call   d140 <str_rtrim@plt>
    3cb1:	83 c4 0c             	add    $0xc,%esp
    3cb4:	68 72 b7 00 00       	push   $0xb772
    3cb9:	68 ff 00 00 00       	push   $0xff
    3cbe:	56                   	push   %esi
    3cbf:	e8 8c 94 00 00       	call   d150 <str_append@plt>
    3cc4:	83 c4 0c             	add    $0xc,%esp
    3cc7:	57                   	push   %edi
    3cc8:	68 ff 00 00 00       	push   $0xff
    3ccd:	56                   	push   %esi
    3cce:	e8 7d 94 00 00       	call   d150 <str_append@plt>
    3cd3:	83 c4 0c             	add    $0xc,%esp
    3cd6:	8b 8d a4 fb ff ff    	mov    -0x45c(%ebp),%ecx
    3cdc:	51                   	push   %ecx
    3cdd:	68 ff 00 00 00       	push   $0xff
    3ce2:	53                   	push   %ebx
    3ce3:	e8 88 96 00 00       	call   d370 <str_cpy@plt>
    3ce8:	58                   	pop    %eax
    3ce9:	5a                   	pop    %edx
    3cea:	6a 2f                	push   $0x2f
    3cec:	53                   	push   %ebx
    3ced:	e8 4e 94 00 00       	call   d140 <str_rtrim@plt>
    3cf2:	83 c4 0c             	add    $0xc,%esp
    3cf5:	68 72 b7 00 00       	push   $0xb772
    3cfa:	68 ff 00 00 00       	push   $0xff
    3cff:	53                   	push   %ebx
    3d00:	e8 4b 94 00 00       	call   d150 <str_append@plt>
    3d05:	83 c4 0c             	add    $0xc,%esp
    3d08:	57                   	push   %edi
    3d09:	68 ff 00 00 00       	push   $0xff
    3d0e:	53                   	push   %ebx
    3d0f:	e8 3c 94 00 00       	call   d150 <str_append@plt>
    3d14:	8d 85 a8 fb ff ff    	lea    -0x458(%ebp),%eax
    3d1a:	59                   	pop    %ecx
    3d1b:	5f                   	pop    %edi
    3d1c:	50                   	push   %eax
    3d1d:	56                   	push   %esi
    3d1e:	e8 ed 96 00 00       	call   d410 <stat@plt>
    3d23:	58                   	pop    %eax
    3d24:	8b 8d a4 fb ff ff    	mov    -0x45c(%ebp),%ecx
    3d2a:	8d 85 c8 fb ff ff    	lea    -0x438(%ebp),%eax
    3d30:	5a                   	pop    %edx
    3d31:	50                   	push   %eax
    3d32:	51                   	push   %ecx
    3d33:	e8 d8 96 00 00       	call   d410 <stat@plt>
    3d38:	8b 85 b0 fb ff ff    	mov    -0x450(%ebp),%eax
    3d3e:	83 c4 10             	add    $0x10,%esp
    3d41:	39 85 d0 fb ff ff    	cmp    %eax,-0x430(%ebp)
    3d47:	0f 84 fb 02 00 00    	je     4048 <do_copy+0x5b8>
    3d4d:	8b 45 08             	mov    0x8(%ebp),%eax
    3d50:	85 c0                	test   %eax,%eax
    3d52:	0f 84 f0 fe ff ff    	je     3c48 <do_copy+0x1b8>
    3d58:	57                   	push   %edi
    3d59:	53                   	push   %ebx
    3d5a:	56                   	push   %esi
    3d5b:	68 35 bd 00 00       	push   $0xbd35
    3d60:	e8 8b 92 00 00       	call   cff0 <printf@plt>
    3d65:	83 c4 10             	add    $0x10,%esp
    3d68:	e9 db fe ff ff       	jmp    3c48 <do_copy+0x1b8>
    3d6d:	8d 76 00             	lea    0x0(%esi),%esi
    3d70:	31 c0                	xor    %eax,%eax
    3d72:	8a 85 f8 fe ff ff    	mov    -0x108(%ebp),%al
    3d78:	89 85 98 fb ff ff    	mov    %eax,-0x468(%ebp)
    3d7e:	e9 74 fd ff ff       	jmp    3af7 <do_copy+0x67>
    3d83:	90                   	nop
    3d84:	8d 74 26 00          	lea    0x0(%esi,%eiz,1),%esi
    3d88:	56                   	push   %esi
    3d89:	56                   	push   %esi
    3d8a:	68 32 bd 00 00       	push   $0xbd32
    3d8f:	57                   	push   %edi
    3d90:	e8 6b 95 00 00       	call   d300 <str_cmp@plt>
    3d95:	83 c4 10             	add    $0x10,%esp
    3d98:	85 c0                	test   %eax,%eax
    3d9a:	0f 84 70 fe ff ff    	je     3c10 <do_copy+0x180>
    3da0:	51                   	push   %ecx
    3da1:	51                   	push   %ecx
    3da2:	68 33 bd 00 00       	push   $0xbd33
    3da7:	57                   	push   %edi
    3da8:	e8 53 95 00 00       	call   d300 <str_cmp@plt>
    3dad:	83 c4 10             	add    $0x10,%esp
    3db0:	85 c0                	test   %eax,%eax
    3db2:	0f 84 58 fe ff ff    	je     3c10 <do_copy+0x180>
    3db8:	8b b5 a4 fb ff ff    	mov    -0x45c(%ebp),%esi
    3dbe:	50                   	push   %eax
    3dbf:	50                   	push   %eax
    3dc0:	6a 2f                	push   $0x2f
    3dc2:	56                   	push   %esi
    3dc3:	e8 78 93 00 00       	call   d140 <str_rtrim@plt>
    3dc8:	83 c4 0c             	add    $0xc,%esp
    3dcb:	68 72 b7 00 00       	push   $0xb772
    3dd0:	68 ff 00 00 00       	push   $0xff
    3dd5:	56                   	push   %esi
    3dd6:	e8 75 93 00 00       	call   d150 <str_append@plt>
    3ddb:	83 c4 0c             	add    $0xc,%esp
    3dde:	57                   	push   %edi
    3ddf:	68 ff 00 00 00       	push   $0xff
    3de4:	56                   	push   %esi
    3de5:	e8 66 93 00 00       	call   d150 <str_append@plt>
    3dea:	58                   	pop    %eax
    3deb:	5a                   	pop    %edx
    3dec:	6a 00                	push   $0x0
    3dee:	56                   	push   %esi
    3def:	e8 fc 96 00 00       	call   d4f0 <mkdir@plt>
    3df4:	83 c4 10             	add    $0x10,%esp
    3df7:	85 c0                	test   %eax,%eax
    3df9:	0f 84 11 fe ff ff    	je     3c10 <do_copy+0x180>
    3dff:	90                   	nop
    3e00:	50                   	push   %eax
    3e01:	50                   	push   %eax
    3e02:	8b 85 a4 fb ff ff    	mov    -0x45c(%ebp),%eax
    3e08:	50                   	push   %eax
    3e09:	68 58 bb 00 00       	push   $0xbb58
    3e0e:	e8 dd 91 00 00       	call   cff0 <printf@plt>
    3e13:	83 c4 10             	add    $0x10,%esp
    3e16:	83 c8 ff             	or     $0xffffffff,%eax
    3e19:	83 ca ff             	or     $0xffffffff,%edx
    3e1c:	e9 12 fd ff ff       	jmp    3b33 <do_copy+0xa3>
    3e21:	8d b4 26 00 00 00 00 	lea    0x0(%esi,%eiz,1),%esi
    3e28:	50                   	push   %eax
    3e29:	50                   	push   %eax
    3e2a:	53                   	push   %ebx
    3e2b:	56                   	push   %esi
    3e2c:	e8 df 95 00 00       	call   d410 <stat@plt>
    3e31:	83 c4 10             	add    $0x10,%esp
    3e34:	85 c0                	test   %eax,%eax
    3e36:	0f 84 75 05 00 00    	je     43b1 <do_copy+0x921>
    3e3c:	83 ec 0c             	sub    $0xc,%esp
    3e3f:	8b bd a0 fb ff ff    	mov    -0x460(%ebp),%edi
    3e45:	57                   	push   %edi
    3e46:	e8 75 95 00 00       	call   d3c0 <str_size@plt>
    3e4b:	83 c4 0c             	add    $0xc,%esp
    3e4e:	40                   	inc    %eax
    3e4f:	57                   	push   %edi
    3e50:	8d bd ea fc ff ff    	lea    -0x316(%ebp),%edi
    3e56:	50                   	push   %eax
    3e57:	57                   	push   %edi
    3e58:	e8 13 95 00 00       	call   d370 <str_cpy@plt>
    3e5d:	5a                   	pop    %edx
    3e5e:	59                   	pop    %ecx
    3e5f:	6a 2f                	push   $0x2f
    3e61:	57                   	push   %edi
    3e62:	e8 d9 92 00 00       	call   d140 <str_rtrim@plt>
    3e67:	58                   	pop    %eax
    3e68:	5a                   	pop    %edx
    3e69:	6a 2f                	push   $0x2f
    3e6b:	57                   	push   %edi
    3e6c:	e8 7f 92 00 00       	call   d0f0 <str_rchr@plt>
    3e71:	83 c4 10             	add    $0x10,%esp
    3e74:	85 c0                	test   %eax,%eax
    3e76:	0f 84 d1 02 00 00    	je     414d <do_copy+0x6bd>
    3e7c:	c7 85 98 fb ff ff 00 	movl   $0x0,-0x468(%ebp)
    3e83:	00 00 00 
    3e86:	8d 78 01             	lea    0x1(%eax),%edi
    3e89:	50                   	push   %eax
    3e8a:	8d 85 eb fb ff ff    	lea    -0x415(%ebp),%eax
    3e90:	56                   	push   %esi
    3e91:	68 ff 00 00 00       	push   $0xff
    3e96:	50                   	push   %eax
    3e97:	89 85 a4 fb ff ff    	mov    %eax,-0x45c(%ebp)
    3e9d:	e8 ce 94 00 00       	call   d370 <str_cpy@plt>
    3ea2:	83 c4 10             	add    $0x10,%esp
    3ea5:	83 bd 98 fb ff ff 02 	cmpl   $0x2,-0x468(%ebp)
    3eac:	0f 84 6b 03 00 00    	je     421d <do_copy+0x78d>
    3eb2:	8b 8d 98 fb ff ff    	mov    -0x468(%ebp),%ecx
    3eb8:	85 c9                	test   %ecx,%ecx
    3eba:	0f 84 a9 02 00 00    	je     4169 <do_copy+0x6d9>
    3ec0:	8b 55 10             	mov    0x10(%ebp),%edx
    3ec3:	85 d2                	test   %edx,%edx
    3ec5:	74 0b                	je     3ed2 <do_copy+0x442>
    3ec7:	8b 45 14             	mov    0x14(%ebp),%eax
    3eca:	85 c0                	test   %eax,%eax
    3ecc:	0f 84 40 02 00 00    	je     4112 <do_copy+0x682>
    3ed2:	8b 75 10             	mov    0x10(%ebp),%esi
    3ed5:	85 f6                	test   %esi,%esi
    3ed7:	0f 85 03 03 00 00    	jne    41e0 <do_copy+0x750>
    3edd:	8b 5d 14             	mov    0x14(%ebp),%ebx
    3ee0:	85 db                	test   %ebx,%ebx
    3ee2:	0f 84 f8 02 00 00    	je     41e0 <do_copy+0x750>
    3ee8:	8b bd a4 fb ff ff    	mov    -0x45c(%ebp),%edi
    3eee:	51                   	push   %ecx
    3eef:	57                   	push   %edi
    3ef0:	68 60 ba 00 00       	push   $0xba60
    3ef5:	6a 00                	push   $0x0
    3ef7:	e8 e4 fa ff ff       	call   39e0 <get_user_decision.constprop.2>
    3efc:	83 c4 10             	add    $0x10,%esp
    3eff:	84 c0                	test   %al,%al
    3f01:	0f 84 ab 03 00 00    	je     42b2 <do_copy+0x822>
    3f07:	52                   	push   %edx
    3f08:	52                   	push   %edx
    3f09:	57                   	push   %edi
    3f0a:	68 aa bc 00 00       	push   $0xbcaa
    3f0f:	e8 dc 90 00 00       	call   cff0 <printf@plt>
    3f14:	89 3c 24             	mov    %edi,(%esp)
    3f17:	e8 a4 93 00 00       	call   d2c0 <unlink@plt>
    3f1c:	83 c4 10             	add    $0x10,%esp
    3f1f:	85 c0                	test   %eax,%eax
    3f21:	0f 85 05 02 00 00    	jne    412c <do_copy+0x69c>
    3f27:	90                   	nop
    3f28:	8b 45 08             	mov    0x8(%ebp),%eax
    3f2b:	85 c0                	test   %eax,%eax
    3f2d:	0f 85 77 02 00 00    	jne    41aa <do_copy+0x71a>
    3f33:	8b 9d a0 fb ff ff    	mov    -0x460(%ebp),%ebx
    3f39:	51                   	push   %ecx
    3f3a:	51                   	push   %ecx
    3f3b:	6a 10                	push   $0x10
    3f3d:	53                   	push   %ebx
    3f3e:	e8 5d 95 00 00       	call   d4a0 <open@plt>
    3f43:	83 c4 10             	add    $0x10,%esp
    3f46:	89 85 98 fb ff ff    	mov    %eax,-0x468(%ebp)
    3f4c:	40                   	inc    %eax
    3f4d:	0f 84 3c 04 00 00    	je     438f <do_copy+0x8ff>
    3f53:	50                   	push   %eax
    3f54:	50                   	push   %eax
    3f55:	8b 85 a4 fb ff ff    	mov    -0x45c(%ebp),%eax
    3f5b:	6a 01                	push   $0x1
    3f5d:	50                   	push   %eax
    3f5e:	e8 3d 95 00 00       	call   d4a0 <open@plt>
    3f63:	83 c4 10             	add    $0x10,%esp
    3f66:	89 85 94 fb ff ff    	mov    %eax,-0x46c(%ebp)
    3f6c:	40                   	inc    %eax
    3f6d:	0f 84 ed 03 00 00    	je     4360 <do_copy+0x8d0>
    3f73:	8b 9d 98 fb ff ff    	mov    -0x468(%ebp),%ebx
    3f79:	6a 02                	push   $0x2
    3f7b:	6a 00                	push   $0x0
    3f7d:	6a 00                	push   $0x0
    3f7f:	53                   	push   %ebx
    3f80:	e8 fb 91 00 00       	call   d180 <lseek@plt>
    3f85:	8b 75 08             	mov    0x8(%ebp),%esi
    3f88:	83 c4 10             	add    $0x10,%esp
    3f8b:	85 f6                	test   %esi,%esi
    3f8d:	0f 85 38 02 00 00    	jne    41cb <do_copy+0x73b>
    3f93:	8b 85 98 fb ff ff    	mov    -0x468(%ebp),%eax
    3f99:	6a 00                	push   $0x0
    3f9b:	6a 00                	push   $0x0
    3f9d:	6a 00                	push   $0x0
    3f9f:	50                   	push   %eax
    3fa0:	e8 db 91 00 00       	call   d180 <lseek@plt>
    3fa5:	58                   	pop    %eax
    3fa6:	8b 85 9c fb ff ff    	mov    -0x464(%ebp),%eax
    3fac:	50                   	push   %eax
    3fad:	e8 2e 91 00 00       	call   d0e0 <malloc@plt>
    3fb2:	83 c4 10             	add    $0x10,%esp
    3fb5:	89 c3                	mov    %eax,%ebx
    3fb7:	85 c0                	test   %eax,%eax
    3fb9:	0f 84 4c 03 00 00    	je     430b <do_copy+0x87b>
    3fbf:	31 f6                	xor    %esi,%esi
    3fc1:	31 ff                	xor    %edi,%edi
    3fc3:	eb 26                	jmp    3feb <do_copy+0x55b>
    3fc5:	8d 76 00             	lea    0x0(%esi),%esi
    3fc8:	8b 8d 94 fb ff ff    	mov    -0x46c(%ebp),%ecx
    3fce:	52                   	push   %edx
    3fcf:	50                   	push   %eax
    3fd0:	53                   	push   %ebx
    3fd1:	51                   	push   %ecx
    3fd2:	e8 59 92 00 00       	call   d230 <write@plt>
    3fd7:	83 c4 10             	add    $0x10,%esp
    3fda:	89 c2                	mov    %eax,%edx
    3fdc:	85 c0                	test   %eax,%eax
    3fde:	0f 88 f4 02 00 00    	js     42d8 <do_copy+0x848>
    3fe4:	c1 fa 1f             	sar    $0x1f,%edx
    3fe7:	01 c6                	add    %eax,%esi
    3fe9:	11 d7                	adc    %edx,%edi
    3feb:	50                   	push   %eax
    3fec:	8b 85 9c fb ff ff    	mov    -0x464(%ebp),%eax
    3ff2:	50                   	push   %eax
    3ff3:	8b 85 98 fb ff ff    	mov    -0x468(%ebp),%eax
    3ff9:	53                   	push   %ebx
    3ffa:	50                   	push   %eax
    3ffb:	e8 a0 92 00 00       	call   d2a0 <read@plt>
    4000:	83 c4 10             	add    $0x10,%esp
    4003:	83 f8 00             	cmp    $0x0,%eax
    4006:	7f c0                	jg     3fc8 <do_copy+0x538>
    4008:	89 c2                	mov    %eax,%edx
    400a:	0f 85 c8 02 00 00    	jne    42d8 <do_copy+0x848>
    4010:	83 ec 0c             	sub    $0xc,%esp
    4013:	8b 85 98 fb ff ff    	mov    -0x468(%ebp),%eax
    4019:	50                   	push   %eax
    401a:	e8 e1 94 00 00       	call   d500 <close@plt>
    401f:	58                   	pop    %eax
    4020:	8b 85 94 fb ff ff    	mov    -0x46c(%ebp),%eax
    4026:	50                   	push   %eax
    4027:	e8 d4 94 00 00       	call   d500 <close@plt>
    402c:	89 1c 24             	mov    %ebx,(%esp)
    402f:	e8 dc 94 00 00       	call   d510 <free@plt>
    4034:	89 f8                	mov    %edi,%eax
    4036:	31 d2                	xor    %edx,%edx
    4038:	c1 e8 1f             	shr    $0x1f,%eax
    403b:	83 c4 10             	add    $0x10,%esp
    403e:	e9 f0 fa ff ff       	jmp    3b33 <do_copy+0xa3>
    4043:	90                   	nop
    4044:	8d 74 26 00          	lea    0x0(%esi,%eiz,1),%esi
    4048:	8b 85 a8 fb ff ff    	mov    -0x458(%ebp),%eax
    404e:	66 39 85 c8 fb ff ff 	cmp    %ax,-0x438(%ebp)
    4055:	0f 85 f2 fc ff ff    	jne    3d4d <do_copy+0x2bd>
    405b:	83 ec 0c             	sub    $0xc,%esp
    405e:	68 a0 bb 00 00       	push   $0xbba0
    4063:	e8 88 8f 00 00       	call   cff0 <printf@plt>
    4068:	83 c4 10             	add    $0x10,%esp
    406b:	83 ec 0c             	sub    $0xc,%esp
    406e:	8b 85 98 fb ff ff    	mov    -0x468(%ebp),%eax
    4074:	50                   	push   %eax
    4075:	e8 66 94 00 00       	call   d4e0 <closedir@plt>
    407a:	8b 85 94 fb ff ff    	mov    -0x46c(%ebp),%eax
    4080:	83 c4 10             	add    $0x10,%esp
    4083:	8d 65 f4             	lea    -0xc(%ebp),%esp
    4086:	89 c2                	mov    %eax,%edx
    4088:	c1 fa 1f             	sar    $0x1f,%edx
    408b:	5b                   	pop    %ebx
    408c:	5e                   	pop    %esi
    408d:	5f                   	pop    %edi
    408e:	5d                   	pop    %ebp
    408f:	c3                   	ret    
    4090:	50                   	push   %eax
    4091:	50                   	push   %eax
    4092:	8b 85 a0 fb ff ff    	mov    -0x460(%ebp),%eax
    4098:	50                   	push   %eax
    4099:	68 f8 ba 00 00       	push   $0xbaf8
    409e:	e8 4d 8f 00 00       	call   cff0 <printf@plt>
    40a3:	83 c4 10             	add    $0x10,%esp
    40a6:	8d 65 f4             	lea    -0xc(%ebp),%esp
    40a9:	83 c8 ff             	or     $0xffffffff,%eax
    40ac:	83 ca ff             	or     $0xffffffff,%edx
    40af:	5b                   	pop    %ebx
    40b0:	5e                   	pop    %esi
    40b1:	5f                   	pop    %edi
    40b2:	5d                   	pop    %ebp
    40b3:	c3                   	ret    
    40b4:	8d 74 26 00          	lea    0x0(%esi,%eiz,1),%esi
    40b8:	83 ec 0c             	sub    $0xc,%esp
    40bb:	68 2c bb 00 00       	push   $0xbb2c
    40c0:	e8 2b 8f 00 00       	call   cff0 <printf@plt>
    40c5:	83 c4 10             	add    $0x10,%esp
    40c8:	83 c8 ff             	or     $0xffffffff,%eax
    40cb:	83 ca ff             	or     $0xffffffff,%edx
    40ce:	e9 60 fa ff ff       	jmp    3b33 <do_copy+0xa3>
    40d3:	90                   	nop
    40d4:	8d 74 26 00          	lea    0x0(%esi,%eiz,1),%esi
    40d8:	8b 8d a0 fb ff ff    	mov    -0x460(%ebp),%ecx
    40de:	40                   	inc    %eax
    40df:	8d bd ea fc ff ff    	lea    -0x316(%ebp),%edi
    40e5:	52                   	push   %edx
    40e6:	51                   	push   %ecx
    40e7:	50                   	push   %eax
    40e8:	57                   	push   %edi
    40e9:	e8 82 92 00 00       	call   d370 <str_cpy@plt>
    40ee:	58                   	pop    %eax
    40ef:	5a                   	pop    %edx
    40f0:	6a 2f                	push   $0x2f
    40f2:	57                   	push   %edi
    40f3:	e8 48 90 00 00       	call   d140 <str_rtrim@plt>
    40f8:	59                   	pop    %ecx
    40f9:	58                   	pop    %eax
    40fa:	6a 2f                	push   $0x2f
    40fc:	57                   	push   %edi
    40fd:	e8 ee 8f 00 00       	call   d0f0 <str_rchr@plt>
    4102:	83 c4 10             	add    $0x10,%esp
    4105:	85 c0                	test   %eax,%eax
    4107:	0f 85 79 fd ff ff    	jne    3e86 <do_copy+0x3f6>
    410d:	e9 77 fd ff ff       	jmp    3e89 <do_copy+0x3f9>
    4112:	83 ec 0c             	sub    $0xc,%esp
    4115:	8b 85 a4 fb ff ff    	mov    -0x45c(%ebp),%eax
    411b:	50                   	push   %eax
    411c:	e8 9f 91 00 00       	call   d2c0 <unlink@plt>
    4121:	83 c4 10             	add    $0x10,%esp
    4124:	85 c0                	test   %eax,%eax
    4126:	0f 84 fc fd ff ff    	je     3f28 <do_copy+0x498>
    412c:	8b 85 a4 fb ff ff    	mov    -0x45c(%ebp),%eax
    4132:	57                   	push   %edi
    4133:	57                   	push   %edi
    4134:	50                   	push   %eax
    4135:	68 95 bc 00 00       	push   $0xbc95
    413a:	e8 b1 8e 00 00       	call   cff0 <printf@plt>
    413f:	83 c4 10             	add    $0x10,%esp
    4142:	83 c8 ff             	or     $0xffffffff,%eax
    4145:	83 ca ff             	or     $0xffffffff,%edx
    4148:	e9 e6 f9 ff ff       	jmp    3b33 <do_copy+0xa3>
    414d:	8d 85 eb fb ff ff    	lea    -0x415(%ebp),%eax
    4153:	53                   	push   %ebx
    4154:	56                   	push   %esi
    4155:	68 ff 00 00 00       	push   $0xff
    415a:	50                   	push   %eax
    415b:	89 85 a4 fb ff ff    	mov    %eax,-0x45c(%ebp)
    4161:	e8 0a 92 00 00       	call   d370 <str_cpy@plt>
    4166:	83 c4 10             	add    $0x10,%esp
    4169:	83 ec 0c             	sub    $0xc,%esp
    416c:	8b 85 a4 fb ff ff    	mov    -0x45c(%ebp),%eax
    4172:	50                   	push   %eax
    4173:	e8 48 92 00 00       	call   d3c0 <str_size@plt>
    4178:	83 c4 10             	add    $0x10,%esp
    417b:	80 bc 05 ea fb ff ff 	cmpb   $0x2f,-0x416(%ebp,%eax,1)
    4182:	2f 
    4183:	0f 85 9f fd ff ff    	jne    3f28 <do_copy+0x498>
    4189:	50                   	push   %eax
    418a:	50                   	push   %eax
    418b:	8b 85 a4 fb ff ff    	mov    -0x45c(%ebp),%eax
    4191:	50                   	push   %eax
    4192:	68 8c ba 00 00       	push   $0xba8c
    4197:	e8 54 8e 00 00       	call   cff0 <printf@plt>
    419c:	83 c4 10             	add    $0x10,%esp
    419f:	83 c8 ff             	or     $0xffffffff,%eax
    41a2:	83 ca ff             	or     $0xffffffff,%edx
    41a5:	e9 89 f9 ff ff       	jmp    3b33 <do_copy+0xa3>
    41aa:	8b bd a4 fb ff ff    	mov    -0x45c(%ebp),%edi
    41b0:	8b 85 a0 fb ff ff    	mov    -0x460(%ebp),%eax
    41b6:	56                   	push   %esi
    41b7:	57                   	push   %edi
    41b8:	50                   	push   %eax
    41b9:	68 f3 bc 00 00       	push   $0xbcf3
    41be:	e8 2d 8e 00 00       	call   cff0 <printf@plt>
    41c3:	83 c4 10             	add    $0x10,%esp
    41c6:	e9 68 fd ff ff       	jmp    3f33 <do_copy+0x4a3>
    41cb:	51                   	push   %ecx
    41cc:	52                   	push   %edx
    41cd:	50                   	push   %eax
    41ce:	68 05 bd 00 00       	push   $0xbd05
    41d3:	e8 18 8e 00 00       	call   cff0 <printf@plt>
    41d8:	83 c4 10             	add    $0x10,%esp
    41db:	e9 b3 fd ff ff       	jmp    3f93 <do_copy+0x503>
    41e0:	50                   	push   %eax
    41e1:	50                   	push   %eax
    41e2:	8b 85 a4 fb ff ff    	mov    -0x45c(%ebp),%eax
    41e8:	50                   	push   %eax
    41e9:	68 da bc 00 00       	push   $0xbcda
    41ee:	e8 fd 8d 00 00       	call   cff0 <printf@plt>
    41f3:	83 c4 10             	add    $0x10,%esp
    41f6:	83 c8 ff             	or     $0xffffffff,%eax
    41f9:	83 ca ff             	or     $0xffffffff,%edx
    41fc:	e9 32 f9 ff ff       	jmp    3b33 <do_copy+0xa3>
    4201:	50                   	push   %eax
    4202:	8d 85 eb fb ff ff    	lea    -0x415(%ebp),%eax
    4208:	56                   	push   %esi
    4209:	68 ff 00 00 00       	push   $0xff
    420e:	50                   	push   %eax
    420f:	89 85 a4 fb ff ff    	mov    %eax,-0x45c(%ebp)
    4215:	e8 56 91 00 00       	call   d370 <str_cpy@plt>
    421a:	83 c4 10             	add    $0x10,%esp
    421d:	56                   	push   %esi
    421e:	56                   	push   %esi
    421f:	8b b5 a4 fb ff ff    	mov    -0x45c(%ebp),%esi
    4225:	6a 2f                	push   $0x2f
    4227:	56                   	push   %esi
    4228:	e8 13 8f 00 00       	call   d140 <str_rtrim@plt>
    422d:	83 c4 0c             	add    $0xc,%esp
    4230:	68 72 b7 00 00       	push   $0xb772
    4235:	68 ff 00 00 00       	push   $0xff
    423a:	56                   	push   %esi
    423b:	e8 10 8f 00 00       	call   d150 <str_append@plt>
    4240:	83 c4 0c             	add    $0xc,%esp
    4243:	57                   	push   %edi
    4244:	68 ff 00 00 00       	push   $0xff
    4249:	56                   	push   %esi
    424a:	e8 01 8f 00 00       	call   d150 <str_append@plt>
    424f:	5f                   	pop    %edi
    4250:	58                   	pop    %eax
    4251:	53                   	push   %ebx
    4252:	56                   	push   %esi
    4253:	e8 b8 91 00 00       	call   d410 <stat@plt>
    4258:	83 c4 10             	add    $0x10,%esp
    425b:	85 c0                	test   %eax,%eax
    425d:	0f 85 c5 fc ff ff    	jne    3f28 <do_copy+0x498>
    4263:	80 bd f9 fe ff ff 00 	cmpb   $0x0,-0x107(%ebp)
    426a:	0f 84 d7 00 00 00    	je     4347 <do_copy+0x8b7>
    4270:	8b 8d a4 fb ff ff    	mov    -0x45c(%ebp),%ecx
    4276:	52                   	push   %edx
    4277:	52                   	push   %edx
    4278:	51                   	push   %ecx
    4279:	68 c8 bb 00 00       	push   $0xbbc8
    427e:	e8 6d 8d 00 00       	call   cff0 <printf@plt>
    4283:	83 c4 10             	add    $0x10,%esp
    4286:	83 c8 ff             	or     $0xffffffff,%eax
    4289:	83 ca ff             	or     $0xffffffff,%edx
    428c:	e9 a2 f8 ff ff       	jmp    3b33 <do_copy+0xa3>
    4291:	8b b5 a0 fb ff ff    	mov    -0x460(%ebp),%esi
    4297:	53                   	push   %ebx
    4298:	53                   	push   %ebx
    4299:	56                   	push   %esi
    429a:	68 7c bb 00 00       	push   $0xbb7c
    429f:	e8 4c 8d 00 00       	call   cff0 <printf@plt>
    42a4:	83 c4 10             	add    $0x10,%esp
    42a7:	83 c8 ff             	or     $0xffffffff,%eax
    42aa:	83 ca ff             	or     $0xffffffff,%edx
    42ad:	e9 81 f8 ff ff       	jmp    3b33 <do_copy+0xa3>
    42b2:	50                   	push   %eax
    42b3:	50                   	push   %eax
    42b4:	8b 85 a4 fb ff ff    	mov    -0x45c(%ebp),%eax
    42ba:	50                   	push   %eax
    42bb:	68 c0 bc 00 00       	push   $0xbcc0
    42c0:	e8 2b 8d 00 00       	call   cff0 <printf@plt>
    42c5:	83 c4 10             	add    $0x10,%esp
    42c8:	31 c0                	xor    %eax,%eax
    42ca:	31 d2                	xor    %edx,%edx
    42cc:	e9 62 f8 ff ff       	jmp    3b33 <do_copy+0xa3>
    42d1:	8d b4 26 00 00 00 00 	lea    0x0(%esi,%eiz,1),%esi
    42d8:	89 95 a4 fb ff ff    	mov    %edx,-0x45c(%ebp)
    42de:	e8 6d 8d 00 00       	call   d050 <__errno@plt>
    42e3:	51                   	push   %ecx
    42e4:	8b bd a0 fb ff ff    	mov    -0x460(%ebp),%edi
    42ea:	8b 30                	mov    (%eax),%esi
    42ec:	56                   	push   %esi
    42ed:	57                   	push   %edi
    42ee:	68 19 bd 00 00       	push   $0xbd19
    42f3:	e8 f8 8c 00 00       	call   cff0 <printf@plt>
    42f8:	8b 95 a4 fb ff ff    	mov    -0x45c(%ebp),%edx
    42fe:	83 c4 10             	add    $0x10,%esp
    4301:	89 d7                	mov    %edx,%edi
    4303:	c1 ff 1f             	sar    $0x1f,%edi
    4306:	e9 05 fd ff ff       	jmp    4010 <do_copy+0x580>
    430b:	8b b5 a0 fb ff ff    	mov    -0x460(%ebp),%esi
    4311:	53                   	push   %ebx
    4312:	53                   	push   %ebx
    4313:	56                   	push   %esi
    4314:	68 f8 b2 00 00       	push   $0xb2f8
    4319:	e8 d2 8c 00 00       	call   cff0 <printf@plt>
    431e:	8b 85 98 fb ff ff    	mov    -0x468(%ebp),%eax
    4324:	5f                   	pop    %edi
    4325:	50                   	push   %eax
    4326:	e8 d5 91 00 00       	call   d500 <close@plt>
    432b:	58                   	pop    %eax
    432c:	8b 85 94 fb ff ff    	mov    -0x46c(%ebp),%eax
    4332:	50                   	push   %eax
    4333:	e8 c8 91 00 00       	call   d500 <close@plt>
    4338:	83 c4 10             	add    $0x10,%esp
    433b:	b8 01 00 00 00       	mov    $0x1,%eax
    4340:	31 d2                	xor    %edx,%edx
    4342:	e9 ec f7 ff ff       	jmp    3b33 <do_copy+0xa3>
    4347:	80 bd f8 fe ff ff 00 	cmpb   $0x0,-0x108(%ebp)
    434e:	0f 84 d4 fb ff ff    	je     3f28 <do_copy+0x498>
    4354:	e9 67 fb ff ff       	jmp    3ec0 <do_copy+0x430>
    4359:	8d b4 26 00 00 00 00 	lea    0x0(%esi,%eiz,1),%esi
    4360:	8b 85 a4 fb ff ff    	mov    -0x45c(%ebp),%eax
    4366:	57                   	push   %edi
    4367:	57                   	push   %edi
    4368:	50                   	push   %eax
    4369:	68 d4 ba 00 00       	push   $0xbad4
    436e:	e8 7d 8c 00 00       	call   cff0 <printf@plt>
    4373:	58                   	pop    %eax
    4374:	8b 85 98 fb ff ff    	mov    -0x468(%ebp),%eax
    437a:	50                   	push   %eax
    437b:	e8 80 91 00 00       	call   d500 <close@plt>
    4380:	83 c4 10             	add    $0x10,%esp
    4383:	b8 01 00 00 00       	mov    $0x1,%eax
    4388:	31 d2                	xor    %edx,%edx
    438a:	e9 a4 f7 ff ff       	jmp    3b33 <do_copy+0xa3>
    438f:	8b 95 a0 fb ff ff    	mov    -0x460(%ebp),%edx
    4395:	50                   	push   %eax
    4396:	50                   	push   %eax
    4397:	52                   	push   %edx
    4398:	68 b4 ba 00 00       	push   $0xbab4
    439d:	e8 4e 8c 00 00       	call   cff0 <printf@plt>
    43a2:	83 c4 10             	add    $0x10,%esp
    43a5:	b8 01 00 00 00       	mov    $0x1,%eax
    43aa:	31 d2                	xor    %edx,%edx
    43ac:	e9 82 f7 ff ff       	jmp    3b33 <do_copy+0xa3>
    43b1:	bf 01 00 00 00       	mov    $0x1,%edi
    43b6:	80 bd f9 fe ff ff 00 	cmpb   $0x0,-0x107(%ebp)
    43bd:	0f 84 ad f9 ff ff    	je     3d70 <do_copy+0x2e0>
    43c3:	83 ec 0c             	sub    $0xc,%esp
    43c6:	8b bd a0 fb ff ff    	mov    -0x460(%ebp),%edi
    43cc:	57                   	push   %edi
    43cd:	e8 ee 8f 00 00       	call   d3c0 <str_size@plt>
    43d2:	83 c4 0c             	add    $0xc,%esp
    43d5:	40                   	inc    %eax
    43d6:	57                   	push   %edi
    43d7:	8d bd ea fc ff ff    	lea    -0x316(%ebp),%edi
    43dd:	50                   	push   %eax
    43de:	57                   	push   %edi
    43df:	e8 8c 8f 00 00       	call   d370 <str_cpy@plt>
    43e4:	58                   	pop    %eax
    43e5:	5a                   	pop    %edx
    43e6:	6a 2f                	push   $0x2f
    43e8:	57                   	push   %edi
    43e9:	e8 52 8d 00 00       	call   d140 <str_rtrim@plt>
    43ee:	59                   	pop    %ecx
    43ef:	58                   	pop    %eax
    43f0:	6a 2f                	push   $0x2f
    43f2:	57                   	push   %edi
    43f3:	e8 f8 8c 00 00       	call   d0f0 <str_rchr@plt>
    43f8:	83 c4 10             	add    $0x10,%esp
    43fb:	85 c0                	test   %eax,%eax
    43fd:	0f 84 fe fd ff ff    	je     4201 <do_copy+0x771>
    4403:	c7 85 98 fb ff ff 02 	movl   $0x2,-0x468(%ebp)
    440a:	00 00 00 
    440d:	e9 74 fa ff ff       	jmp    3e86 <do_copy+0x3f6>
    4412:	8d b4 26 00 00 00 00 	lea    0x0(%esi,%eiz,1),%esi
    4419:	8d bc 27 00 00 00 00 	lea    0x0(%edi,%eiz,1),%edi

00004420 <help_cmd_cp>:
    4420:	55                   	push   %ebp
    4421:	89 e5                	mov    %esp,%ebp
    4423:	83 ec 08             	sub    $0x8,%esp
    4426:	8b 45 08             	mov    0x8(%ebp),%eax
    4429:	85 c0                	test   %eax,%eax
    442b:	74 2b                	je     4458 <help_cmd_cp+0x38>
    442d:	50                   	push   %eax
    442e:	50                   	push   %eax
    442f:	68 c9 9f 00 00       	push   $0x9fc9
    4434:	68 f0 bb 00 00       	push   $0xbbf0
    4439:	e8 b2 8b 00 00       	call   cff0 <printf@plt>
    443e:	5a                   	pop    %edx
    443f:	59                   	pop    %ecx
    4440:	68 c9 9f 00 00       	push   $0x9fc9
    4445:	68 80 f4 00 00       	push   $0xf480
    444a:	e8 a1 8b 00 00       	call   cff0 <printf@plt>
    444f:	83 c4 10             	add    $0x10,%esp
    4452:	c9                   	leave  
    4453:	c3                   	ret    
    4454:	8d 74 26 00          	lea    0x0(%esi,%eiz,1),%esi
    4458:	50                   	push   %eax
    4459:	50                   	push   %eax
    445a:	68 c9 9f 00 00       	push   $0x9fc9
    445f:	68 f0 bb 00 00       	push   $0xbbf0
    4464:	e8 87 8b 00 00       	call   cff0 <printf@plt>
    4469:	83 c4 10             	add    $0x10,%esp
    446c:	c9                   	leave  
    446d:	c3                   	ret    
    446e:	66 90                	xchg   %ax,%ax

00004470 <cmd_cp>:
    4470:	55                   	push   %ebp
    4471:	89 e5                	mov    %esp,%ebp
    4473:	57                   	push   %edi
    4474:	56                   	push   %esi
    4475:	53                   	push   %ebx
    4476:	83 ec 44             	sub    $0x44,%esp
    4479:	8b 3d 40 f8 00 00    	mov    0xf840,%edi
    447f:	a1 50 f8 00 00       	mov    0xf850,%eax
    4484:	57                   	push   %edi
    4485:	8b 5d 08             	mov    0x8(%ebp),%ebx
    4488:	50                   	push   %eax
    4489:	e8 32 8d 00 00       	call   d1c0 <console_init@plt>
    448e:	89 1c 24             	mov    %ebx,(%esp)
    4491:	a3 d4 f8 00 00       	mov    %eax,0xf8d4
    4496:	e8 45 24 00 00       	call   68e0 <cli_count_args>
    449b:	8d 7d e4             	lea    -0x1c(%ebp),%edi
    449e:	89 c6                	mov    %eax,%esi
    44a0:	c7 05 5c f8 00 00 01 	movl   $0x1,0xf85c
    44a7:	00 00 00 
    44aa:	c7 05 4c f8 00 00 00 	movl   $0x0,0xf84c
    44b1:	00 00 00 
    44b4:	c7 45 e4 00 00 00 00 	movl   $0x0,-0x1c(%ebp)
    44bb:	83 c4 10             	add    $0x10,%esp
    44be:	c7 45 d4 00 00 00 00 	movl   $0x0,-0x2c(%ebp)
    44c5:	c7 45 d0 00 00 00 00 	movl   $0x0,-0x30(%ebp)
    44cc:	c7 45 c8 00 00 00 00 	movl   $0x0,-0x38(%ebp)
    44d3:	c7 45 c4 00 00 00 00 	movl   $0x0,-0x3c(%ebp)
    44da:	c7 45 cc 00 00 00 00 	movl   $0x0,-0x34(%ebp)
    44e1:	83 ec 0c             	sub    $0xc,%esp
    44e4:	57                   	push   %edi
    44e5:	68 20 be 00 00       	push   $0xbe20
    44ea:	68 41 bd 00 00       	push   $0xbd41
    44ef:	53                   	push   %ebx
    44f0:	56                   	push   %esi
    44f1:	e8 2a 8b 00 00       	call   d020 <getopt_long@plt>
    44f6:	83 c4 20             	add    $0x20,%esp
    44f9:	8d 50 aa             	lea    -0x56(%eax),%edx
    44fc:	83 fa 20             	cmp    $0x20,%edx
    44ff:	0f 87 cb 00 00 00    	ja     45d0 <cmd_cp+0x160>
    4505:	ff 24 95 80 bd 00 00 	jmp    *0xbd80(,%edx,4)
    450c:	8d 74 26 00          	lea    0x0(%esi,%eiz,1),%esi
    4510:	c7 45 c8 01 00 00 00 	movl   $0x1,-0x38(%ebp)
    4517:	eb c8                	jmp    44e1 <cmd_cp+0x71>
    4519:	8d b4 26 00 00 00 00 	lea    0x0(%esi,%eiz,1),%esi
    4520:	c7 45 d4 01 00 00 00 	movl   $0x1,-0x2c(%ebp)
    4527:	c7 45 d0 00 00 00 00 	movl   $0x0,-0x30(%ebp)
    452e:	eb b1                	jmp    44e1 <cmd_cp+0x71>
    4530:	c7 45 d4 00 00 00 00 	movl   $0x0,-0x2c(%ebp)
    4537:	c7 45 d0 01 00 00 00 	movl   $0x1,-0x30(%ebp)
    453e:	eb a1                	jmp    44e1 <cmd_cp+0x71>
    4540:	50                   	push   %eax
    4541:	a1 48 f8 00 00       	mov    0xf848,%eax
    4546:	6a 0a                	push   $0xa
    4548:	6a 00                	push   $0x0
    454a:	50                   	push   %eax
    454b:	e8 60 8c 00 00       	call   d1b0 <strtol@plt>
    4550:	83 c4 10             	add    $0x10,%esp
    4553:	89 c2                	mov    %eax,%edx
    4555:	85 c0                	test   %eax,%eax
    4557:	0f 8e a3 00 00 00    	jle    4600 <cmd_cp+0x190>
    455d:	8b 45 cc             	mov    -0x34(%ebp),%eax
    4560:	85 c0                	test   %eax,%eax
    4562:	0f 85 c8 00 00 00    	jne    4630 <cmd_cp+0x1c0>
    4568:	89 55 c4             	mov    %edx,-0x3c(%ebp)
    456b:	e9 71 ff ff ff       	jmp    44e1 <cmd_cp+0x71>
    4570:	c7 45 cc 01 00 00 00 	movl   $0x1,-0x34(%ebp)
    4577:	e9 65 ff ff ff       	jmp    44e1 <cmd_cp+0x71>
    457c:	8d 74 26 00          	lea    0x0(%esi,%eiz,1),%esi
    4580:	52                   	push   %edx
    4581:	52                   	push   %edx
    4582:	68 2c a7 00 00       	push   $0xa72c
    4587:	68 ac 9e 00 00       	push   $0x9eac
    458c:	e8 5f 8a 00 00       	call   cff0 <printf@plt>
    4591:	83 c4 10             	add    $0x10,%esp
    4594:	31 c0                	xor    %eax,%eax
    4596:	8d 65 f4             	lea    -0xc(%ebp),%esp
    4599:	5b                   	pop    %ebx
    459a:	5e                   	pop    %esi
    459b:	5f                   	pop    %edi
    459c:	5d                   	pop    %ebp
    459d:	c3                   	ret    
    459e:	66 90                	xchg   %ax,%ax
    45a0:	51                   	push   %ecx
    45a1:	51                   	push   %ecx
    45a2:	68 c9 9f 00 00       	push   $0x9fc9
    45a7:	68 f0 bb 00 00       	push   $0xbbf0
    45ac:	e8 3f 8a 00 00       	call   cff0 <printf@plt>
    45b1:	5b                   	pop    %ebx
    45b2:	5e                   	pop    %esi
    45b3:	68 c9 9f 00 00       	push   $0x9fc9
    45b8:	68 80 f4 00 00       	push   $0xf480
    45bd:	e8 2e 8a 00 00       	call   cff0 <printf@plt>
    45c2:	83 c4 10             	add    $0x10,%esp
    45c5:	8d 65 f4             	lea    -0xc(%ebp),%esp
    45c8:	31 c0                	xor    %eax,%eax
    45ca:	5b                   	pop    %ebx
    45cb:	5e                   	pop    %esi
    45cc:	5f                   	pop    %edi
    45cd:	5d                   	pop    %ebp
    45ce:	c3                   	ret    
    45cf:	90                   	nop
    45d0:	40                   	inc    %eax
    45d1:	0f 85 0a ff ff ff    	jne    44e1 <cmd_cp+0x71>
    45d7:	8b 45 c4             	mov    -0x3c(%ebp),%eax
    45da:	85 c0                	test   %eax,%eax
    45dc:	74 6a                	je     4648 <cmd_cp+0x1d8>
    45de:	a1 4c f8 00 00       	mov    0xf84c,%eax
    45e3:	29 c6                	sub    %eax,%esi
    45e5:	83 fe 02             	cmp    $0x2,%esi
    45e8:	74 67                	je     4651 <cmd_cp+0x1e1>
    45ea:	50                   	push   %eax
    45eb:	68 c9 9f 00 00       	push   $0x9fc9
    45f0:	68 c9 9f 00 00       	push   $0x9fc9
    45f5:	68 14 bc 00 00       	push   $0xbc14
    45fa:	eb 10                	jmp    460c <cmd_cp+0x19c>
    45fc:	8d 74 26 00          	lea    0x0(%esi,%eiz,1),%esi
    4600:	53                   	push   %ebx
    4601:	53                   	push   %ebx
    4602:	68 c9 9f 00 00       	push   $0x9fc9
    4607:	68 44 bc 00 00       	push   $0xbc44
    460c:	e8 df 89 00 00       	call   cff0 <printf@plt>
    4611:	8b 0d d4 f8 00 00    	mov    0xf8d4,%ecx
    4617:	5a                   	pop    %edx
    4618:	51                   	push   %ecx
    4619:	e8 b2 8e 00 00       	call   d4d0 <console_done@plt>
    461e:	83 c4 10             	add    $0x10,%esp
    4621:	8d 65 f4             	lea    -0xc(%ebp),%esp
    4624:	b8 01 00 00 00       	mov    $0x1,%eax
    4629:	5b                   	pop    %ebx
    462a:	5e                   	pop    %esi
    462b:	5f                   	pop    %edi
    462c:	5d                   	pop    %ebp
    462d:	c3                   	ret    
    462e:	66 90                	xchg   %ax,%ax
    4630:	50                   	push   %eax
    4631:	50                   	push   %eax
    4632:	52                   	push   %edx
    4633:	68 4a bd 00 00       	push   $0xbd4a
    4638:	89 55 c4             	mov    %edx,-0x3c(%ebp)
    463b:	e8 b0 89 00 00       	call   cff0 <printf@plt>
    4640:	83 c4 10             	add    $0x10,%esp
    4643:	e9 99 fe ff ff       	jmp    44e1 <cmd_cp+0x71>
    4648:	c7 45 c4 00 04 00 00 	movl   $0x400,-0x3c(%ebp)
    464f:	eb 8d                	jmp    45de <cmd_cp+0x16e>
    4651:	8d 04 85 04 00 00 00 	lea    0x4(,%eax,4),%eax
    4658:	8b 75 d4             	mov    -0x2c(%ebp),%esi
    465b:	8b 7d d0             	mov    -0x30(%ebp),%edi
    465e:	8b 4d c8             	mov    -0x38(%ebp),%ecx
    4661:	8b 14 03             	mov    (%ebx,%eax,1),%edx
    4664:	8b 44 03 fc          	mov    -0x4(%ebx,%eax,1),%eax
    4668:	56                   	push   %esi
    4669:	8b 5d cc             	mov    -0x34(%ebp),%ebx
    466c:	57                   	push   %edi
    466d:	51                   	push   %ecx
    466e:	8b 4d c4             	mov    -0x3c(%ebp),%ecx
    4671:	53                   	push   %ebx
    4672:	e8 19 f4 ff ff       	call   3a90 <do_copy>
    4677:	5f                   	pop    %edi
    4678:	89 c6                	mov    %eax,%esi
    467a:	a1 d4 f8 00 00       	mov    0xf8d4,%eax
    467f:	50                   	push   %eax
    4680:	89 d3                	mov    %edx,%ebx
    4682:	e8 49 8e 00 00       	call   d4d0 <console_done@plt>
    4687:	83 c4 10             	add    $0x10,%esp
    468a:	09 de                	or     %ebx,%esi
    468c:	0f 95 c0             	setne  %al
    468f:	25 ff 00 00 00       	and    $0xff,%eax
    4694:	e9 fd fe ff ff       	jmp    4596 <cmd_cp+0x126>
    4699:	66 90                	xchg   %ax,%ax
    469b:	66 90                	xchg   %ax,%ax
    469d:	66 90                	xchg   %ax,%ax
    469f:	90                   	nop

000046a0 <help_cmd_mv>:
    46a0:	55                   	push   %ebp
    46a1:	89 e5                	mov    %esp,%ebp
    46a3:	83 ec 10             	sub    $0x10,%esp
    46a6:	68 e7 9f 00 00       	push   $0x9fe7
    46ab:	68 a0 be 00 00       	push   $0xbea0
    46b0:	e8 3b 89 00 00       	call   cff0 <printf@plt>
    46b5:	83 c4 10             	add    $0x10,%esp
    46b8:	c9                   	leave  
    46b9:	c3                   	ret    
    46ba:	8d b6 00 00 00 00    	lea    0x0(%esi),%esi

000046c0 <cmd_mv>:
    46c0:	55                   	push   %ebp
    46c1:	89 e5                	mov    %esp,%ebp
    46c3:	53                   	push   %ebx
    46c4:	83 ec 10             	sub    $0x10,%esp
    46c7:	8b 5d 08             	mov    0x8(%ebp),%ebx
    46ca:	53                   	push   %ebx
    46cb:	e8 10 22 00 00       	call   68e0 <cli_count_args>
    46d0:	83 c4 10             	add    $0x10,%esp
    46d3:	83 f8 03             	cmp    $0x3,%eax
    46d6:	74 20                	je     46f8 <cmd_mv+0x38>
    46d8:	50                   	push   %eax
    46d9:	50                   	push   %eax
    46da:	68 e7 9f 00 00       	push   $0x9fe7
    46df:	68 b4 be 00 00       	push   $0xbeb4
    46e4:	e8 07 89 00 00       	call   cff0 <printf@plt>
    46e9:	83 c4 10             	add    $0x10,%esp
    46ec:	b8 01 00 00 00       	mov    $0x1,%eax
    46f1:	8b 5d fc             	mov    -0x4(%ebp),%ebx
    46f4:	c9                   	leave  
    46f5:	c3                   	ret    
    46f6:	66 90                	xchg   %ax,%ax
    46f8:	50                   	push   %eax
    46f9:	50                   	push   %eax
    46fa:	8b 43 08             	mov    0x8(%ebx),%eax
    46fd:	50                   	push   %eax
    46fe:	8b 43 04             	mov    0x4(%ebx),%eax
    4701:	50                   	push   %eax
    4702:	e8 d9 8a 00 00       	call   d1e0 <rename@plt>
    4707:	83 c4 10             	add    $0x10,%esp
    470a:	85 c0                	test   %eax,%eax
    470c:	74 e3                	je     46f1 <cmd_mv+0x31>
    470e:	e8 3d 89 00 00       	call   d050 <__errno@plt>
    4713:	8b 53 08             	mov    0x8(%ebx),%edx
    4716:	8b 00                	mov    (%eax),%eax
    4718:	50                   	push   %eax
    4719:	52                   	push   %edx
    471a:	8b 4b 04             	mov    0x4(%ebx),%ecx
    471d:	51                   	push   %ecx
    471e:	68 d8 be 00 00       	push   $0xbed8
    4723:	e8 c8 88 00 00       	call   cff0 <printf@plt>
    4728:	83 c4 10             	add    $0x10,%esp
    472b:	b8 01 00 00 00       	mov    $0x1,%eax
    4730:	8b 5d fc             	mov    -0x4(%ebp),%ebx
    4733:	c9                   	leave  
    4734:	c3                   	ret    
    4735:	66 90                	xchg   %ax,%ax
    4737:	66 90                	xchg   %ax,%ax
    4739:	66 90                	xchg   %ax,%ax
    473b:	66 90                	xchg   %ax,%ax
    473d:	66 90                	xchg   %ax,%ax
    473f:	90                   	nop

00004740 <help_cmd_printf>:
    4740:	55                   	push   %ebp
    4741:	89 e5                	mov    %esp,%ebp
    4743:	83 ec 08             	sub    $0x8,%esp
    4746:	8b 45 08             	mov    0x8(%ebp),%eax
    4749:	85 c0                	test   %eax,%eax
    474b:	74 2b                	je     4778 <help_cmd_printf+0x38>
    474d:	50                   	push   %eax
    474e:	50                   	push   %eax
    474f:	68 50 a0 00 00       	push   $0xa050
    4754:	68 fe be 00 00       	push   $0xbefe
    4759:	e8 92 88 00 00       	call   cff0 <printf@plt>
    475e:	5a                   	pop    %edx
    475f:	59                   	pop    %ecx
    4760:	68 50 a0 00 00       	push   $0xa050
    4765:	68 20 bf 00 00       	push   $0xbf20
    476a:	e8 81 88 00 00       	call   cff0 <printf@plt>
    476f:	83 c4 10             	add    $0x10,%esp
    4772:	c9                   	leave  
    4773:	c3                   	ret    
    4774:	8d 74 26 00          	lea    0x0(%esi,%eiz,1),%esi
    4778:	50                   	push   %eax
    4779:	50                   	push   %eax
    477a:	68 50 a0 00 00       	push   $0xa050
    477f:	68 fe be 00 00       	push   $0xbefe
    4784:	e8 67 88 00 00       	call   cff0 <printf@plt>
    4789:	83 c4 10             	add    $0x10,%esp
    478c:	c9                   	leave  
    478d:	c3                   	ret    
    478e:	66 90                	xchg   %ax,%ax

00004790 <cmd_printf>:
    4790:	55                   	push   %ebp
    4791:	89 e5                	mov    %esp,%ebp
    4793:	57                   	push   %edi
    4794:	56                   	push   %esi
    4795:	53                   	push   %ebx
    4796:	83 ec 2c             	sub    $0x2c,%esp
    4799:	8b 45 08             	mov    0x8(%ebp),%eax
    479c:	8b 08                	mov    (%eax),%ecx
    479e:	85 c9                	test   %ecx,%ecx
    47a0:	0f 84 0a 01 00 00    	je     48b0 <cmd_printf+0x120>
    47a6:	31 f6                	xor    %esi,%esi
    47a8:	46                   	inc    %esi
    47a9:	8b 14 b0             	mov    (%eax,%esi,4),%edx
    47ac:	85 d2                	test   %edx,%edx
    47ae:	75 f8                	jne    47a8 <cmd_printf+0x18>
    47b0:	83 fe 01             	cmp    $0x1,%esi
    47b3:	0f 84 f7 00 00 00    	je     48b0 <cmd_printf+0x120>
    47b9:	8b 45 08             	mov    0x8(%ebp),%eax
    47bc:	83 ec 0c             	sub    $0xc,%esp
    47bf:	31 db                	xor    %ebx,%ebx
    47c1:	8b 78 04             	mov    0x4(%eax),%edi
    47c4:	57                   	push   %edi
    47c5:	e8 f6 8b 00 00       	call   d3c0 <str_size@plt>
    47ca:	c7 45 e4 00 00 00 00 	movl   $0x0,-0x1c(%ebp)
    47d1:	89 45 d4             	mov    %eax,-0x2c(%ebp)
    47d4:	83 c4 10             	add    $0x10,%esp
    47d7:	c7 45 d0 02 00 00 00 	movl   $0x2,-0x30(%ebp)
    47de:	66 90                	xchg   %ax,%ax
    47e0:	8b 55 d4             	mov    -0x2c(%ebp),%edx
    47e3:	50                   	push   %eax
    47e4:	8d 45 e4             	lea    -0x1c(%ebp),%eax
    47e7:	52                   	push   %edx
    47e8:	50                   	push   %eax
    47e9:	57                   	push   %edi
    47ea:	e8 91 88 00 00       	call   d080 <str_decode@plt>
    47ef:	83 c4 10             	add    $0x10,%esp
    47f2:	85 c0                	test   %eax,%eax
    47f4:	0f 84 cc 00 00 00    	je     48c6 <cmd_printf+0x136>
    47fa:	83 f8 25             	cmp    $0x25,%eax
    47fd:	74 11                	je     4810 <cmd_printf+0x80>
    47ff:	83 f8 5c             	cmp    $0x5c,%eax
    4802:	75 24                	jne    4828 <cmd_printf+0x98>
    4804:	84 db                	test   %bl,%bl
    4806:	75 0c                	jne    4814 <cmd_printf+0x84>
    4808:	b3 01                	mov    $0x1,%bl
    480a:	eb d4                	jmp    47e0 <cmd_printf+0x50>
    480c:	8d 74 26 00          	lea    0x0(%esi,%eiz,1),%esi
    4810:	84 db                	test   %bl,%bl
    4812:	74 34                	je     4848 <cmd_printf+0xb8>
    4814:	83 ec 0c             	sub    $0xc,%esp
    4817:	31 db                	xor    %ebx,%ebx
    4819:	50                   	push   %eax
    481a:	e8 91 87 00 00       	call   cfb0 <putchar@plt>
    481f:	83 c4 10             	add    $0x10,%esp
    4822:	eb bc                	jmp    47e0 <cmd_printf+0x50>
    4824:	8d 74 26 00          	lea    0x0(%esi,%eiz,1),%esi
    4828:	84 db                	test   %bl,%bl
    482a:	74 6c                	je     4898 <cmd_printf+0x108>
    482c:	31 db                	xor    %ebx,%ebx
    482e:	83 f8 6e             	cmp    $0x6e,%eax
    4831:	75 ad                	jne    47e0 <cmd_printf+0x50>
    4833:	83 ec 0c             	sub    $0xc,%esp
    4836:	31 db                	xor    %ebx,%ebx
    4838:	68 1b c8 00 00       	push   $0xc81b
    483d:	e8 ae 87 00 00       	call   cff0 <printf@plt>
    4842:	83 c4 10             	add    $0x10,%esp
    4845:	eb 99                	jmp    47e0 <cmd_printf+0x50>
    4847:	90                   	nop
    4848:	50                   	push   %eax
    4849:	8b 45 d4             	mov    -0x2c(%ebp),%eax
    484c:	50                   	push   %eax
    484d:	8d 45 e4             	lea    -0x1c(%ebp),%eax
    4850:	50                   	push   %eax
    4851:	57                   	push   %edi
    4852:	e8 29 88 00 00       	call   d080 <str_decode@plt>
    4857:	83 c4 10             	add    $0x10,%esp
    485a:	85 c0                	test   %eax,%eax
    485c:	0f 84 96 00 00 00    	je     48f8 <cmd_printf+0x168>
    4862:	39 75 d0             	cmp    %esi,-0x30(%ebp)
    4865:	0f 84 e9 00 00 00    	je     4954 <cmd_printf+0x1c4>
    486b:	8b 55 08             	mov    0x8(%ebp),%edx
    486e:	8b 4d d0             	mov    -0x30(%ebp),%ecx
    4871:	83 f8 73             	cmp    $0x73,%eax
    4874:	8b 14 8a             	mov    (%edx,%ecx,4),%edx
    4877:	0f 84 bb 00 00 00    	je     4938 <cmd_printf+0x1a8>
    487d:	83 f8 75             	cmp    $0x75,%eax
    4880:	0f 84 8a 00 00 00    	je     4910 <cmd_printf+0x180>
    4886:	83 f8 64             	cmp    $0x64,%eax
    4889:	74 45                	je     48d0 <cmd_printf+0x140>
    488b:	8b 4d d0             	mov    -0x30(%ebp),%ecx
    488e:	41                   	inc    %ecx
    488f:	89 4d d0             	mov    %ecx,-0x30(%ebp)
    4892:	e9 49 ff ff ff       	jmp    47e0 <cmd_printf+0x50>
    4897:	90                   	nop
    4898:	83 ec 0c             	sub    $0xc,%esp
    489b:	50                   	push   %eax
    489c:	e8 0f 87 00 00       	call   cfb0 <putchar@plt>
    48a1:	83 c4 10             	add    $0x10,%esp
    48a4:	e9 37 ff ff ff       	jmp    47e0 <cmd_printf+0x50>
    48a9:	8d b4 26 00 00 00 00 	lea    0x0(%esi,%eiz,1),%esi
    48b0:	50                   	push   %eax
    48b1:	50                   	push   %eax
    48b2:	68 50 a0 00 00       	push   $0xa050
    48b7:	68 d4 bf 00 00       	push   $0xbfd4
    48bc:	e8 2f 87 00 00       	call   cff0 <printf@plt>
    48c1:	83 c4 10             	add    $0x10,%esp
    48c4:	31 c0                	xor    %eax,%eax
    48c6:	8d 65 f4             	lea    -0xc(%ebp),%esp
    48c9:	5b                   	pop    %ebx
    48ca:	5e                   	pop    %esi
    48cb:	5f                   	pop    %edi
    48cc:	5d                   	pop    %ebp
    48cd:	c3                   	ret    
    48ce:	66 90                	xchg   %ax,%ax
    48d0:	50                   	push   %eax
    48d1:	6a 0a                	push   $0xa
    48d3:	6a 00                	push   $0x0
    48d5:	52                   	push   %edx
    48d6:	e8 d5 88 00 00       	call   d1b0 <strtol@plt>
    48db:	5a                   	pop    %edx
    48dc:	59                   	pop    %ecx
    48dd:	50                   	push   %eax
    48de:	68 8d c0 00 00       	push   $0xc08d
    48e3:	e8 08 87 00 00       	call   cff0 <printf@plt>
    48e8:	8b 4d d0             	mov    -0x30(%ebp),%ecx
    48eb:	83 c4 10             	add    $0x10,%esp
    48ee:	41                   	inc    %ecx
    48ef:	89 4d d0             	mov    %ecx,-0x30(%ebp)
    48f2:	e9 e9 fe ff ff       	jmp    47e0 <cmd_printf+0x50>
    48f7:	90                   	nop
    48f8:	83 ec 0c             	sub    $0xc,%esp
    48fb:	6a 25                	push   $0x25
    48fd:	e8 ae 86 00 00       	call   cfb0 <putchar@plt>
    4902:	83 c4 10             	add    $0x10,%esp
    4905:	e9 d6 fe ff ff       	jmp    47e0 <cmd_printf+0x50>
    490a:	8d b6 00 00 00 00    	lea    0x0(%esi),%esi
    4910:	50                   	push   %eax
    4911:	6a 0a                	push   $0xa
    4913:	6a 00                	push   $0x0
    4915:	52                   	push   %edx
    4916:	e8 f5 87 00 00       	call   d110 <strtoul@plt>
    491b:	5a                   	pop    %edx
    491c:	59                   	pop    %ecx
    491d:	50                   	push   %eax
    491e:	68 1b bf 00 00       	push   $0xbf1b
    4923:	e8 c8 86 00 00       	call   cff0 <printf@plt>
    4928:	8b 4d d0             	mov    -0x30(%ebp),%ecx
    492b:	83 c4 10             	add    $0x10,%esp
    492e:	41                   	inc    %ecx
    492f:	89 4d d0             	mov    %ecx,-0x30(%ebp)
    4932:	e9 a9 fe ff ff       	jmp    47e0 <cmd_printf+0x50>
    4937:	90                   	nop
    4938:	50                   	push   %eax
    4939:	50                   	push   %eax
    493a:	52                   	push   %edx
    493b:	68 52 ad 00 00       	push   $0xad52
    4940:	e8 ab 86 00 00       	call   cff0 <printf@plt>
    4945:	8b 4d d0             	mov    -0x30(%ebp),%ecx
    4948:	41                   	inc    %ecx
    4949:	83 c4 10             	add    $0x10,%esp
    494c:	89 4d d0             	mov    %ecx,-0x30(%ebp)
    494f:	e9 8c fe ff ff       	jmp    47e0 <cmd_printf+0x50>
    4954:	83 ec 0c             	sub    $0xc,%esp
    4957:	68 f4 bf 00 00       	push   $0xbff4
    495c:	e8 8f 86 00 00       	call   cff0 <printf@plt>
    4961:	83 c4 10             	add    $0x10,%esp
    4964:	b8 01 00 00 00       	mov    $0x1,%eax
    4969:	e9 58 ff ff ff       	jmp    48c6 <cmd_printf+0x136>
    496e:	66 90                	xchg   %ax,%ax

00004970 <help_cmd_echo>:
    4970:	55                   	push   %ebp
    4971:	89 e5                	mov    %esp,%ebp
    4973:	83 ec 08             	sub    $0x8,%esp
    4976:	8b 45 08             	mov    0x8(%ebp),%eax
    4979:	85 c0                	test   %eax,%eax
    497b:	74 2b                	je     49a8 <help_cmd_echo+0x38>
    497d:	50                   	push   %eax
    497e:	50                   	push   %eax
    497f:	68 6d a0 00 00       	push   $0xa06d
    4984:	68 30 c0 00 00       	push   $0xc030
    4989:	e8 62 86 00 00       	call   cff0 <printf@plt>
    498e:	5a                   	pop    %edx
    498f:	59                   	pop    %ecx
    4990:	68 6d a0 00 00       	push   $0xa06d
    4995:	68 15 c0 00 00       	push   $0xc015
    499a:	e8 51 86 00 00       	call   cff0 <printf@plt>
    499f:	83 c4 10             	add    $0x10,%esp
    49a2:	c9                   	leave  
    49a3:	c3                   	ret    
    49a4:	8d 74 26 00          	lea    0x0(%esi,%eiz,1),%esi
    49a8:	50                   	push   %eax
    49a9:	50                   	push   %eax
    49aa:	68 6d a0 00 00       	push   $0xa06d
    49af:	68 30 c0 00 00       	push   $0xc030
    49b4:	e8 37 86 00 00       	call   cff0 <printf@plt>
    49b9:	83 c4 10             	add    $0x10,%esp
    49bc:	c9                   	leave  
    49bd:	c3                   	ret    
    49be:	66 90                	xchg   %ax,%ax

000049c0 <cmd_echo>:
    49c0:	55                   	push   %ebp
    49c1:	89 e5                	mov    %esp,%ebp
    49c3:	53                   	push   %ebx
    49c4:	51                   	push   %ecx
    49c5:	8b 5d 08             	mov    0x8(%ebp),%ebx
    49c8:	83 c3 08             	add    $0x8,%ebx
    49cb:	8b 43 fc             	mov    -0x4(%ebx),%eax
    49ce:	85 c0                	test   %eax,%eax
    49d0:	74 20                	je     49f2 <cmd_echo+0x32>
    49d2:	8d b6 00 00 00 00    	lea    0x0(%esi),%esi
    49d8:	83 c3 04             	add    $0x4,%ebx
    49db:	52                   	push   %edx
    49dc:	52                   	push   %edx
    49dd:	50                   	push   %eax
    49de:	68 2b c0 00 00       	push   $0xc02b
    49e3:	e8 08 86 00 00       	call   cff0 <printf@plt>
    49e8:	8b 43 fc             	mov    -0x4(%ebx),%eax
    49eb:	83 c4 10             	add    $0x10,%esp
    49ee:	85 c0                	test   %eax,%eax
    49f0:	75 e6                	jne    49d8 <cmd_echo+0x18>
    49f2:	83 ec 0c             	sub    $0xc,%esp
    49f5:	68 1b c8 00 00       	push   $0xc81b
    49fa:	e8 f1 85 00 00       	call   cff0 <printf@plt>
    49ff:	31 c0                	xor    %eax,%eax
    4a01:	8b 5d fc             	mov    -0x4(%ebp),%ebx
    4a04:	c9                   	leave  
    4a05:	c3                   	ret    
    4a06:	66 90                	xchg   %ax,%ax
    4a08:	66 90                	xchg   %ax,%ax
    4a0a:	66 90                	xchg   %ax,%ax
    4a0c:	66 90                	xchg   %ax,%ax
    4a0e:	66 90                	xchg   %ax,%ax

00004a10 <help_cmd_mount>:
    4a10:	55                   	push   %ebp
    4a11:	89 e5                	mov    %esp,%ebp
    4a13:	83 ec 08             	sub    $0x8,%esp
    4a16:	8b 45 08             	mov    0x8(%ebp),%eax
    4a19:	85 c0                	test   %eax,%eax
    4a1b:	74 2b                	je     4a48 <help_cmd_mount+0x38>
    4a1d:	50                   	push   %eax
    4a1e:	50                   	push   %eax
    4a1f:	68 11 a0 00 00       	push   $0xa011
    4a24:	68 6c c0 00 00       	push   $0xc06c
    4a29:	e8 c2 85 00 00       	call   cff0 <printf@plt>
    4a2e:	5a                   	pop    %edx
    4a2f:	59                   	pop    %ecx
    4a30:	68 11 a0 00 00       	push   $0xa011
    4a35:	68 60 f6 00 00       	push   $0xf660
    4a3a:	e8 b1 85 00 00       	call   cff0 <printf@plt>
    4a3f:	83 c4 10             	add    $0x10,%esp
    4a42:	c9                   	leave  
    4a43:	c3                   	ret    
    4a44:	8d 74 26 00          	lea    0x0(%esi,%eiz,1),%esi
    4a48:	50                   	push   %eax
    4a49:	50                   	push   %eax
    4a4a:	68 11 a0 00 00       	push   $0xa011
    4a4f:	68 6c c0 00 00       	push   $0xc06c
    4a54:	e8 97 85 00 00       	call   cff0 <printf@plt>
    4a59:	83 c4 10             	add    $0x10,%esp
    4a5c:	c9                   	leave  
    4a5d:	c3                   	ret    
    4a5e:	66 90                	xchg   %ax,%ax

00004a60 <cmd_mount>:
    4a60:	55                   	push   %ebp
    4a61:	89 e5                	mov    %esp,%ebp
    4a63:	57                   	push   %edi
    4a64:	56                   	push   %esi
    4a65:	53                   	push   %ebx
    4a66:	83 ec 38             	sub    $0x38,%esp
    4a69:	8d 7d d8             	lea    -0x28(%ebp),%edi
    4a6c:	8b 5d 08             	mov    0x8(%ebp),%ebx
    4a6f:	53                   	push   %ebx
    4a70:	e8 6b 1e 00 00       	call   68e0 <cli_count_args>
    4a75:	c7 05 5c f8 00 00 01 	movl   $0x1,0xf85c
    4a7c:	00 00 00 
    4a7f:	89 c6                	mov    %eax,%esi
    4a81:	c7 05 4c f8 00 00 00 	movl   $0x0,0xf84c
    4a88:	00 00 00 
    4a8b:	c7 45 d8 00 00 00 00 	movl   $0x0,-0x28(%ebp)
    4a92:	83 c4 10             	add    $0x10,%esp
    4a95:	c6 45 d7 00          	movb   $0x0,-0x29(%ebp)
    4a99:	c7 45 d0 00 00 00 00 	movl   $0x0,-0x30(%ebp)
    4aa0:	83 ec 0c             	sub    $0xc,%esp
    4aa3:	57                   	push   %edi
    4aa4:	68 20 c1 00 00       	push   $0xc120
    4aa9:	68 88 c0 00 00       	push   $0xc088
    4aae:	53                   	push   %ebx
    4aaf:	56                   	push   %esi
    4ab0:	e8 6b 85 00 00       	call   d020 <getopt_long@plt>
    4ab5:	83 c4 20             	add    $0x20,%esp
    4ab8:	83 f8 68             	cmp    $0x68,%eax
    4abb:	0f 84 af 00 00 00    	je     4b70 <cmd_mount+0x110>
    4ac1:	83 f8 69             	cmp    $0x69,%eax
    4ac4:	0f 84 86 00 00 00    	je     4b50 <cmd_mount+0xf0>
    4aca:	40                   	inc    %eax
    4acb:	75 d3                	jne    4aa0 <cmd_mount+0x40>
    4acd:	80 7d d7 00          	cmpb   $0x0,-0x29(%ebp)
    4ad1:	74 06                	je     4ad9 <cmd_mount+0x79>
    4ad3:	83 ee 02             	sub    $0x2,%esi
    4ad6:	83 c3 08             	add    $0x8,%ebx
    4ad9:	83 fe 02             	cmp    $0x2,%esi
    4adc:	0f 84 0f 02 00 00    	je     4cf1 <cmd_mount+0x291>
    4ae2:	83 fe 05             	cmp    $0x5,%esi
    4ae5:	0f 87 06 02 00 00    	ja     4cf1 <cmd_mount+0x291>
    4aeb:	83 fe 01             	cmp    $0x1,%esi
    4aee:	0f 84 ab 00 00 00    	je     4b9f <cmd_mount+0x13f>
    4af4:	83 fe 03             	cmp    $0x3,%esi
    4af7:	0f 87 db 01 00 00    	ja     4cd8 <cmd_mount+0x278>
    4afd:	ba 1c c8 00 00       	mov    $0xc81c,%edx
    4b02:	89 d0                	mov    %edx,%eax
    4b04:	8b 7d d0             	mov    -0x30(%ebp),%edi
    4b07:	56                   	push   %esi
    4b08:	56                   	push   %esi
    4b09:	57                   	push   %edi
    4b0a:	6a 00                	push   $0x0
    4b0c:	50                   	push   %eax
    4b0d:	52                   	push   %edx
    4b0e:	8b 43 08             	mov    0x8(%ebx),%eax
    4b11:	50                   	push   %eax
    4b12:	8b 43 04             	mov    0x4(%ebx),%eax
    4b15:	50                   	push   %eax
    4b16:	e8 95 87 00 00       	call   d2b0 <vfs_mount@plt>
    4b1b:	83 c4 20             	add    $0x20,%esp
    4b1e:	85 c0                	test   %eax,%eax
    4b20:	74 75                	je     4b97 <cmd_mount+0x137>
    4b22:	83 ec 0c             	sub    $0xc,%esp
    4b25:	50                   	push   %eax
    4b26:	e8 f5 88 00 00       	call   d420 <str_error@plt>
    4b2b:	89 04 24             	mov    %eax,(%esp)
    4b2e:	8b 43 0c             	mov    0xc(%ebx),%eax
    4b31:	50                   	push   %eax
    4b32:	8b 53 08             	mov    0x8(%ebx),%edx
    4b35:	52                   	push   %edx
    4b36:	8b 4b 04             	mov    0x4(%ebx),%ecx
    4b39:	51                   	push   %ecx
    4b3a:	68 d8 c0 00 00       	push   $0xc0d8
    4b3f:	e8 ac 84 00 00       	call   cff0 <printf@plt>
    4b44:	83 c4 20             	add    $0x20,%esp
    4b47:	b8 01 00 00 00       	mov    $0x1,%eax
    4b4c:	eb 49                	jmp    4b97 <cmd_mount+0x137>
    4b4e:	66 90                	xchg   %ax,%ax
    4b50:	50                   	push   %eax
    4b51:	a1 48 f8 00 00       	mov    0xf848,%eax
    4b56:	6a 0a                	push   $0xa
    4b58:	6a 00                	push   $0x0
    4b5a:	50                   	push   %eax
    4b5b:	e8 50 86 00 00       	call   d1b0 <strtol@plt>
    4b60:	83 c4 10             	add    $0x10,%esp
    4b63:	89 45 d0             	mov    %eax,-0x30(%ebp)
    4b66:	c6 45 d7 01          	movb   $0x1,-0x29(%ebp)
    4b6a:	e9 31 ff ff ff       	jmp    4aa0 <cmd_mount+0x40>
    4b6f:	90                   	nop
    4b70:	50                   	push   %eax
    4b71:	50                   	push   %eax
    4b72:	68 11 a0 00 00       	push   $0xa011
    4b77:	68 6c c0 00 00       	push   $0xc06c
    4b7c:	e8 6f 84 00 00       	call   cff0 <printf@plt>
    4b81:	58                   	pop    %eax
    4b82:	5a                   	pop    %edx
    4b83:	68 11 a0 00 00       	push   $0xa011
    4b88:	68 60 f6 00 00       	push   $0xf660
    4b8d:	e8 5e 84 00 00       	call   cff0 <printf@plt>
    4b92:	83 c4 10             	add    $0x10,%esp
    4b95:	31 c0                	xor    %eax,%eax
    4b97:	8d 65 f4             	lea    -0xc(%ebp),%esp
    4b9a:	5b                   	pop    %ebx
    4b9b:	5e                   	pop    %esi
    4b9c:	5f                   	pop    %edi
    4b9d:	5d                   	pop    %ebp
    4b9e:	c3                   	ret    
    4b9f:	83 ec 0c             	sub    $0xc,%esp
    4ba2:	8d 45 e0             	lea    -0x20(%ebp),%eax
    4ba5:	89 45 e0             	mov    %eax,-0x20(%ebp)
    4ba8:	89 45 e4             	mov    %eax,-0x1c(%ebp)
    4bab:	50                   	push   %eax
    4bac:	e8 8f 86 00 00       	call   d240 <vfs_get_mtab_list@plt>
    4bb1:	8b 5d e4             	mov    -0x1c(%ebp),%ebx
    4bb4:	8d 45 e0             	lea    -0x20(%ebp),%eax
    4bb7:	83 c4 10             	add    $0x10,%esp
    4bba:	39 c3                	cmp    %eax,%ebx
    4bbc:	0f 84 0a 01 00 00    	je     4ccc <cmd_mount+0x26c>
    4bc2:	8d 7d dc             	lea    -0x24(%ebp),%edi
    4bc5:	eb 61                	jmp    4c28 <cmd_mount+0x1c8>
    4bc7:	90                   	nop
    4bc8:	8b 55 dc             	mov    -0x24(%ebp),%edx
    4bcb:	50                   	push   %eax
    4bcc:	50                   	push   %eax
    4bcd:	52                   	push   %edx
    4bce:	68 51 ad 00 00       	push   $0xad51
    4bd3:	e8 18 84 00 00       	call   cff0 <printf@plt>
    4bd8:	8b 75 dc             	mov    -0x24(%ebp),%esi
    4bdb:	59                   	pop    %ecx
    4bdc:	56                   	push   %esi
    4bdd:	e8 2e 89 00 00       	call   d510 <free@plt>
    4be2:	83 c4 10             	add    $0x10,%esp
    4be5:	83 ec 0c             	sub    $0xc,%esp
    4be8:	8d b3 08 00 01 00    	lea    0x10008(%ebx),%esi
    4bee:	56                   	push   %esi
    4bef:	e8 cc 87 00 00       	call   d3c0 <str_size@plt>
    4bf4:	83 c4 10             	add    $0x10,%esp
    4bf7:	85 c0                	test   %eax,%eax
    4bf9:	0f 85 a9 00 00 00    	jne    4ca8 <cmd_mount+0x248>
    4bff:	83 ec 0c             	sub    $0xc,%esp
    4c02:	6a 0a                	push   $0xa
    4c04:	e8 a7 83 00 00       	call   cfb0 <putchar@plt>
    4c09:	8b 73 04             	mov    0x4(%ebx),%esi
    4c0c:	8d 45 e0             	lea    -0x20(%ebp),%eax
    4c0f:	83 c4 10             	add    $0x10,%esp
    4c12:	39 c6                	cmp    %eax,%esi
    4c14:	0f 84 a6 00 00 00    	je     4cc0 <cmd_mount+0x260>
    4c1a:	83 ec 0c             	sub    $0xc,%esp
    4c1d:	53                   	push   %ebx
    4c1e:	89 f3                	mov    %esi,%ebx
    4c20:	e8 eb 88 00 00       	call   d510 <free@plt>
    4c25:	83 c4 10             	add    $0x10,%esp
    4c28:	50                   	push   %eax
    4c29:	50                   	push   %eax
    4c2a:	8d 83 08 01 01 00    	lea    0x10108(%ebx),%eax
    4c30:	50                   	push   %eax
    4c31:	68 52 ad 00 00       	push   $0xad52
    4c36:	e8 b5 83 00 00       	call   cff0 <printf@plt>
    4c3b:	8b 83 1c 01 01 00    	mov    0x1011c(%ebx),%eax
    4c41:	83 c4 10             	add    $0x10,%esp
    4c44:	85 c0                	test   %eax,%eax
    4c46:	75 48                	jne    4c90 <cmd_mount+0x230>
    4c48:	50                   	push   %eax
    4c49:	50                   	push   %eax
    4c4a:	8d 43 08             	lea    0x8(%ebx),%eax
    4c4d:	50                   	push   %eax
    4c4e:	68 51 ad 00 00       	push   $0xad51
    4c53:	e8 98 83 00 00       	call   cff0 <printf@plt>
    4c58:	8b 8b 20 01 01 00    	mov    0x10120(%ebx),%ecx
    4c5e:	58                   	pop    %eax
    4c5f:	5a                   	pop    %edx
    4c60:	57                   	push   %edi
    4c61:	51                   	push   %ecx
    4c62:	e8 89 85 00 00       	call   d1f0 <loc_service_get_name@plt>
    4c67:	83 c4 10             	add    $0x10,%esp
    4c6a:	85 c0                	test   %eax,%eax
    4c6c:	0f 84 56 ff ff ff    	je     4bc8 <cmd_mount+0x168>
    4c72:	50                   	push   %eax
    4c73:	50                   	push   %eax
    4c74:	8b 83 20 01 01 00    	mov    0x10120(%ebx),%eax
    4c7a:	50                   	push   %eax
    4c7b:	68 90 c0 00 00       	push   $0xc090
    4c80:	e8 6b 83 00 00       	call   cff0 <printf@plt>
    4c85:	83 c4 10             	add    $0x10,%esp
    4c88:	e9 58 ff ff ff       	jmp    4be5 <cmd_mount+0x185>
    4c8d:	8d 76 00             	lea    0x0(%esi),%esi
    4c90:	56                   	push   %esi
    4c91:	56                   	push   %esi
    4c92:	50                   	push   %eax
    4c93:	68 8c c0 00 00       	push   $0xc08c
    4c98:	e8 53 83 00 00       	call   cff0 <printf@plt>
    4c9d:	83 c4 10             	add    $0x10,%esp
    4ca0:	eb a6                	jmp    4c48 <cmd_mount+0x1e8>
    4ca2:	8d b6 00 00 00 00    	lea    0x0(%esi),%esi
    4ca8:	50                   	push   %eax
    4ca9:	50                   	push   %eax
    4caa:	56                   	push   %esi
    4cab:	68 11 c9 00 00       	push   $0xc911
    4cb0:	e8 3b 83 00 00       	call   cff0 <printf@plt>
    4cb5:	83 c4 10             	add    $0x10,%esp
    4cb8:	e9 42 ff ff ff       	jmp    4bff <cmd_mount+0x19f>
    4cbd:	8d 76 00             	lea    0x0(%esi),%esi
    4cc0:	83 ec 0c             	sub    $0xc,%esp
    4cc3:	53                   	push   %ebx
    4cc4:	e8 47 88 00 00       	call   d510 <free@plt>
    4cc9:	83 c4 10             	add    $0x10,%esp
    4ccc:	31 c0                	xor    %eax,%eax
    4cce:	e9 c4 fe ff ff       	jmp    4b97 <cmd_mount+0x137>
    4cd3:	90                   	nop
    4cd4:	8d 74 26 00          	lea    0x0(%esi,%eiz,1),%esi
    4cd8:	8b 53 0c             	mov    0xc(%ebx),%edx
    4cdb:	b8 1c c8 00 00       	mov    $0xc81c,%eax
    4ce0:	83 fe 05             	cmp    $0x5,%esi
    4ce3:	0f 85 1b fe ff ff    	jne    4b04 <cmd_mount+0xa4>
    4ce9:	8b 43 10             	mov    0x10(%ebx),%eax
    4cec:	e9 13 fe ff ff       	jmp    4b04 <cmd_mount+0xa4>
    4cf1:	50                   	push   %eax
    4cf2:	50                   	push   %eax
    4cf3:	68 11 a0 00 00       	push   $0xa011
    4cf8:	68 a0 c0 00 00       	push   $0xc0a0
    4cfd:	e8 ee 82 00 00       	call   cff0 <printf@plt>
    4d02:	83 c4 10             	add    $0x10,%esp
    4d05:	b8 01 00 00 00       	mov    $0x1,%eax
    4d0a:	e9 88 fe ff ff       	jmp    4b97 <cmd_mount+0x137>
    4d0f:	90                   	nop

00004d10 <help_cmd_unmount>:
    4d10:	55                   	push   %ebp
    4d11:	89 e5                	mov    %esp,%ebp
    4d13:	83 ec 08             	sub    $0x8,%esp
    4d16:	8b 45 08             	mov    0x8(%ebp),%eax
    4d19:	85 c0                	test   %eax,%eax
    4d1b:	74 2b                	je     4d48 <help_cmd_unmount+0x38>
    4d1d:	50                   	push   %eax
    4d1e:	50                   	push   %eax
    4d1f:	68 0f a0 00 00       	push   $0xa00f
    4d24:	68 50 c1 00 00       	push   $0xc150
    4d29:	e8 c2 82 00 00       	call   cff0 <printf@plt>
    4d2e:	5a                   	pop    %edx
    4d2f:	59                   	pop    %ecx
    4d30:	68 0f a0 00 00       	push   $0xa00f
    4d35:	68 6d c1 00 00       	push   $0xc16d
    4d3a:	e8 b1 82 00 00       	call   cff0 <printf@plt>
    4d3f:	83 c4 10             	add    $0x10,%esp
    4d42:	c9                   	leave  
    4d43:	c3                   	ret    
    4d44:	8d 74 26 00          	lea    0x0(%esi,%eiz,1),%esi
    4d48:	50                   	push   %eax
    4d49:	50                   	push   %eax
    4d4a:	68 0f a0 00 00       	push   $0xa00f
    4d4f:	68 50 c1 00 00       	push   $0xc150
    4d54:	e8 97 82 00 00       	call   cff0 <printf@plt>
    4d59:	83 c4 10             	add    $0x10,%esp
    4d5c:	c9                   	leave  
    4d5d:	c3                   	ret    
    4d5e:	66 90                	xchg   %ax,%ax

00004d60 <cmd_unmount>:
    4d60:	55                   	push   %ebp
    4d61:	89 e5                	mov    %esp,%ebp
    4d63:	53                   	push   %ebx
    4d64:	83 ec 10             	sub    $0x10,%esp
    4d67:	8b 5d 08             	mov    0x8(%ebp),%ebx
    4d6a:	53                   	push   %ebx
    4d6b:	e8 70 1b 00 00       	call   68e0 <cli_count_args>
    4d70:	83 c4 10             	add    $0x10,%esp
    4d73:	83 f8 02             	cmp    $0x2,%eax
    4d76:	74 20                	je     4d98 <cmd_unmount+0x38>
    4d78:	50                   	push   %eax
    4d79:	50                   	push   %eax
    4d7a:	68 0f a0 00 00       	push   $0xa00f
    4d7f:	68 b4 be 00 00       	push   $0xbeb4
    4d84:	e8 67 82 00 00       	call   cff0 <printf@plt>
    4d89:	83 c4 10             	add    $0x10,%esp
    4d8c:	b8 01 00 00 00       	mov    $0x1,%eax
    4d91:	8b 5d fc             	mov    -0x4(%ebp),%ebx
    4d94:	c9                   	leave  
    4d95:	c3                   	ret    
    4d96:	66 90                	xchg   %ax,%ax
    4d98:	83 ec 0c             	sub    $0xc,%esp
    4d9b:	8b 43 04             	mov    0x4(%ebx),%eax
    4d9e:	50                   	push   %eax
    4d9f:	e8 dc 86 00 00       	call   d480 <vfs_unmount@plt>
    4da4:	83 c4 10             	add    $0x10,%esp
    4da7:	85 c0                	test   %eax,%eax
    4da9:	74 e6                	je     4d91 <cmd_unmount+0x31>
    4dab:	52                   	push   %edx
    4dac:	50                   	push   %eax
    4dad:	8b 4b 04             	mov    0x4(%ebx),%ecx
    4db0:	51                   	push   %ecx
    4db1:	68 7d c1 00 00       	push   $0xc17d
    4db6:	e8 35 82 00 00       	call   cff0 <printf@plt>
    4dbb:	83 c4 10             	add    $0x10,%esp
    4dbe:	b8 01 00 00 00       	mov    $0x1,%eax
    4dc3:	8b 5d fc             	mov    -0x4(%ebp),%ebx
    4dc6:	c9                   	leave  
    4dc7:	c3                   	ret    
    4dc8:	66 90                	xchg   %ax,%ax
    4dca:	66 90                	xchg   %ax,%ax
    4dcc:	66 90                	xchg   %ax,%ax
    4dce:	66 90                	xchg   %ax,%ax

00004dd0 <help_cmd_kcon>:
    4dd0:	55                   	push   %ebp
    4dd1:	89 e5                	mov    %esp,%ebp
    4dd3:	83 ec 14             	sub    $0x14,%esp
    4dd6:	68 9c c1 00 00       	push   $0xc19c
    4ddb:	e8 10 82 00 00       	call   cff0 <printf@plt>
    4de0:	8b 55 08             	mov    0x8(%ebp),%edx
    4de3:	83 c4 10             	add    $0x10,%esp
    4de6:	85 d2                	test   %edx,%edx
    4de8:	75 06                	jne    4df0 <help_cmd_kcon+0x20>
    4dea:	c9                   	leave  
    4deb:	c3                   	ret    
    4dec:	8d 74 26 00          	lea    0x0(%esi,%eiz,1),%esi
    4df0:	50                   	push   %eax
    4df1:	50                   	push   %eax
    4df2:	68 32 a0 00 00       	push   $0xa032
    4df7:	68 ca c1 00 00       	push   $0xc1ca
    4dfc:	e8 ef 81 00 00       	call   cff0 <printf@plt>
    4e01:	83 c4 10             	add    $0x10,%esp
    4e04:	c9                   	leave  
    4e05:	c3                   	ret    
    4e06:	8d 76 00             	lea    0x0(%esi),%esi
    4e09:	8d bc 27 00 00 00 00 	lea    0x0(%edi,%eiz,1),%edi

00004e10 <cmd_kcon>:
    4e10:	55                   	push   %ebp
    4e11:	89 e5                	mov    %esp,%ebp
    4e13:	83 ec 14             	sub    $0x14,%esp
    4e16:	8b 55 08             	mov    0x8(%ebp),%edx
    4e19:	52                   	push   %edx
    4e1a:	e8 c1 1a 00 00       	call   68e0 <cli_count_args>
    4e1f:	83 c4 10             	add    $0x10,%esp
    4e22:	48                   	dec    %eax
    4e23:	74 23                	je     4e48 <cmd_kcon+0x38>
    4e25:	50                   	push   %eax
    4e26:	68 32 a0 00 00       	push   $0xa032
    4e2b:	68 32 a0 00 00       	push   $0xa032
    4e30:	68 6c a9 00 00       	push   $0xa96c
    4e35:	e8 b6 81 00 00       	call   cff0 <printf@plt>
    4e3a:	83 c4 10             	add    $0x10,%esp
    4e3d:	b8 01 00 00 00       	mov    $0x1,%eax
    4e42:	c9                   	leave  
    4e43:	c3                   	ret    
    4e44:	8d 74 26 00          	lea    0x0(%esi,%eiz,1),%esi
    4e48:	e8 83 83 00 00       	call   d1d0 <console_kcon@plt>
    4e4d:	c9                   	leave  
    4e4e:	83 f0 01             	xor    $0x1,%eax
    4e51:	25 ff 00 00 00       	and    $0xff,%eax
    4e56:	c3                   	ret    
    4e57:	66 90                	xchg   %ax,%ax
    4e59:	66 90                	xchg   %ax,%ax
    4e5b:	66 90                	xchg   %ax,%ax
    4e5d:	66 90                	xchg   %ax,%ax
    4e5f:	90                   	nop

00004e60 <cmp_files>:
    4e60:	55                   	push   %ebp
    4e61:	89 e5                	mov    %esp,%ebp
    4e63:	57                   	push   %edi
    4e64:	56                   	push   %esi
    4e65:	53                   	push   %ebx
    4e66:	81 ec 44 08 00 00    	sub    $0x844,%esp
    4e6c:	89 c3                	mov    %eax,%ebx
    4e6e:	89 d6                	mov    %edx,%esi
    4e70:	89 85 d0 f7 ff ff    	mov    %eax,-0x830(%ebp)
    4e76:	6a 10                	push   $0x10
    4e78:	89 95 d4 f7 ff ff    	mov    %edx,-0x82c(%ebp)
    4e7e:	50                   	push   %eax
    4e7f:	c7 85 dc f7 ff ff ff 	movl   $0xffffffff,-0x824(%ebp)
    4e86:	ff ff ff 
    4e89:	e8 12 86 00 00       	call   d4a0 <open@plt>
    4e8e:	83 c4 10             	add    $0x10,%esp
    4e91:	89 85 d8 f7 ff ff    	mov    %eax,-0x828(%ebp)
    4e97:	85 c0                	test   %eax,%eax
    4e99:	0f 88 15 01 00 00    	js     4fb4 <cmp_files+0x154>
    4e9f:	50                   	push   %eax
    4ea0:	50                   	push   %eax
    4ea1:	6a 10                	push   $0x10
    4ea3:	56                   	push   %esi
    4ea4:	e8 f7 85 00 00       	call   d4a0 <open@plt>
    4ea9:	83 c4 10             	add    $0x10,%esp
    4eac:	89 85 dc f7 ff ff    	mov    %eax,-0x824(%ebp)
    4eb2:	85 c0                	test   %eax,%eax
    4eb4:	0f 88 f8 00 00 00    	js     4fb2 <cmp_files+0x152>
    4eba:	8d b5 e8 f7 ff ff    	lea    -0x818(%ebp),%esi
    4ec0:	31 db                	xor    %ebx,%ebx
    4ec2:	8b 84 9d d8 f7 ff ff 	mov    -0x828(%ebp,%ebx,4),%eax
    4ec9:	c7 84 9d e0 f7 ff ff 	movl   $0x0,-0x820(%ebp,%ebx,4)
    4ed0:	00 00 00 00 
    4ed4:	89 85 c4 f7 ff ff    	mov    %eax,-0x83c(%ebp)
    4eda:	31 ff                	xor    %edi,%edi
    4edc:	eb 17                	jmp    4ef5 <cmp_files+0x95>
    4ede:	66 90                	xchg   %ax,%ax
    4ee0:	01 c7                	add    %eax,%edi
    4ee2:	89 bc 9d e0 f7 ff ff 	mov    %edi,-0x820(%ebp,%ebx,4)
    4ee9:	81 ff ff 03 00 00    	cmp    $0x3ff,%edi
    4eef:	7f 77                	jg     4f68 <cmp_files+0x108>
    4ef1:	85 c0                	test   %eax,%eax
    4ef3:	74 73                	je     4f68 <cmp_files+0x108>
    4ef5:	50                   	push   %eax
    4ef6:	b8 00 04 00 00       	mov    $0x400,%eax
    4efb:	29 f8                	sub    %edi,%eax
    4efd:	50                   	push   %eax
    4efe:	8d 04 3e             	lea    (%esi,%edi,1),%eax
    4f01:	50                   	push   %eax
    4f02:	8b 85 c4 f7 ff ff    	mov    -0x83c(%ebp),%eax
    4f08:	50                   	push   %eax
    4f09:	e8 92 83 00 00       	call   d2a0 <read@plt>
    4f0e:	83 c4 10             	add    $0x10,%esp
    4f11:	85 c0                	test   %eax,%eax
    4f13:	79 cb                	jns    4ee0 <cmp_files+0x80>
    4f15:	e8 36 81 00 00       	call   d050 <__errno@plt>
    4f1a:	8b 8c 9d d0 f7 ff ff 	mov    -0x830(%ebp,%ebx,4),%ecx
    4f21:	8b 30                	mov    (%eax),%esi
    4f23:	52                   	push   %edx
    4f24:	52                   	push   %edx
    4f25:	51                   	push   %ecx
    4f26:	68 d5 c1 00 00       	push   $0xc1d5
    4f2b:	e8 c0 80 00 00       	call   cff0 <printf@plt>
    4f30:	83 c4 10             	add    $0x10,%esp
    4f33:	8b 85 d8 f7 ff ff    	mov    -0x828(%ebp),%eax
    4f39:	83 ec 0c             	sub    $0xc,%esp
    4f3c:	50                   	push   %eax
    4f3d:	e8 be 85 00 00       	call   d500 <close@plt>
    4f42:	83 c4 10             	add    $0x10,%esp
    4f45:	8b 85 dc f7 ff ff    	mov    -0x824(%ebp),%eax
    4f4b:	85 c0                	test   %eax,%eax
    4f4d:	78 0c                	js     4f5b <cmp_files+0xfb>
    4f4f:	83 ec 0c             	sub    $0xc,%esp
    4f52:	50                   	push   %eax
    4f53:	e8 a8 85 00 00       	call   d500 <close@plt>
    4f58:	83 c4 10             	add    $0x10,%esp
    4f5b:	8d 65 f4             	lea    -0xc(%ebp),%esp
    4f5e:	89 f0                	mov    %esi,%eax
    4f60:	5b                   	pop    %ebx
    4f61:	5e                   	pop    %esi
    4f62:	5f                   	pop    %edi
    4f63:	5d                   	pop    %ebp
    4f64:	c3                   	ret    
    4f65:	8d 76 00             	lea    0x0(%esi),%esi
    4f68:	43                   	inc    %ebx
    4f69:	81 c6 00 04 00 00    	add    $0x400,%esi
    4f6f:	83 fb 02             	cmp    $0x2,%ebx
    4f72:	0f 85 4a ff ff ff    	jne    4ec2 <cmp_files+0x62>
    4f78:	8b 9d e0 f7 ff ff    	mov    -0x820(%ebp),%ebx
    4f7e:	3b 9d e4 f7 ff ff    	cmp    -0x81c(%ebp),%ebx
    4f84:	75 5a                	jne    4fe0 <cmp_files+0x180>
    4f86:	50                   	push   %eax
    4f87:	8d 85 e8 fb ff ff    	lea    -0x418(%ebp),%eax
    4f8d:	53                   	push   %ebx
    4f8e:	50                   	push   %eax
    4f8f:	8d 85 e8 f7 ff ff    	lea    -0x818(%ebp),%eax
    4f95:	50                   	push   %eax
    4f96:	e8 55 83 00 00       	call   d2f0 <memcmp@plt>
    4f9b:	83 c4 10             	add    $0x10,%esp
    4f9e:	85 c0                	test   %eax,%eax
    4fa0:	75 3e                	jne    4fe0 <cmp_files+0x180>
    4fa2:	81 fb 00 04 00 00    	cmp    $0x400,%ebx
    4fa8:	0f 84 0c ff ff ff    	je     4eba <cmp_files+0x5a>
    4fae:	89 c6                	mov    %eax,%esi
    4fb0:	eb 81                	jmp    4f33 <cmp_files+0xd3>
    4fb2:	89 f3                	mov    %esi,%ebx
    4fb4:	e8 97 80 00 00       	call   d050 <__errno@plt>
    4fb9:	8b 30                	mov    (%eax),%esi
    4fbb:	50                   	push   %eax
    4fbc:	50                   	push   %eax
    4fbd:	53                   	push   %ebx
    4fbe:	68 8c b3 00 00       	push   $0xb38c
    4fc3:	e8 28 80 00 00       	call   cff0 <printf@plt>
    4fc8:	8b 85 d8 f7 ff ff    	mov    -0x828(%ebp),%eax
    4fce:	83 c4 10             	add    $0x10,%esp
    4fd1:	85 c0                	test   %eax,%eax
    4fd3:	0f 88 6c ff ff ff    	js     4f45 <cmp_files+0xe5>
    4fd9:	e9 5b ff ff ff       	jmp    4f39 <cmp_files+0xd9>
    4fde:	66 90                	xchg   %ax,%ax
    4fe0:	be 01 00 00 00       	mov    $0x1,%esi
    4fe5:	e9 49 ff ff ff       	jmp    4f33 <cmp_files+0xd3>
    4fea:	8d b6 00 00 00 00    	lea    0x0(%esi),%esi

00004ff0 <help_cmd_cmp>:
    4ff0:	55                   	push   %ebp
    4ff1:	89 e5                	mov    %esp,%ebp
    4ff3:	83 ec 08             	sub    $0x8,%esp
    4ff6:	8b 45 08             	mov    0x8(%ebp),%eax
    4ff9:	85 c0                	test   %eax,%eax
    4ffb:	74 2b                	je     5028 <help_cmd_cmp+0x38>
    4ffd:	50                   	push   %eax
    4ffe:	50                   	push   %eax
    4fff:	68 8f a0 00 00       	push   $0xa08f
    5004:	68 f0 c1 00 00       	push   $0xc1f0
    5009:	e8 e2 7f 00 00       	call   cff0 <printf@plt>
    500e:	5a                   	pop    %edx
    500f:	59                   	pop    %ecx
    5010:	68 8f a0 00 00       	push   $0xa08f
    5015:	68 1c c2 00 00       	push   $0xc21c
    501a:	e8 d1 7f 00 00       	call   cff0 <printf@plt>
    501f:	83 c4 10             	add    $0x10,%esp
    5022:	c9                   	leave  
    5023:	c3                   	ret    
    5024:	8d 74 26 00          	lea    0x0(%esi,%eiz,1),%esi
    5028:	50                   	push   %eax
    5029:	50                   	push   %eax
    502a:	68 8f a0 00 00       	push   $0xa08f
    502f:	68 f0 c1 00 00       	push   $0xc1f0
    5034:	e8 b7 7f 00 00       	call   cff0 <printf@plt>
    5039:	83 c4 10             	add    $0x10,%esp
    503c:	c9                   	leave  
    503d:	c3                   	ret    
    503e:	66 90                	xchg   %ax,%ax

00005040 <cmd_cmp>:
    5040:	55                   	push   %ebp
    5041:	89 e5                	mov    %esp,%ebp
    5043:	57                   	push   %edi
    5044:	56                   	push   %esi
    5045:	53                   	push   %ebx
    5046:	83 ec 28             	sub    $0x28,%esp
    5049:	8d 7d e4             	lea    -0x1c(%ebp),%edi
    504c:	8b 5d 08             	mov    0x8(%ebp),%ebx
    504f:	53                   	push   %ebx
    5050:	e8 8b 18 00 00       	call   68e0 <cli_count_args>
    5055:	c7 05 5c f8 00 00 01 	movl   $0x1,0xf85c
    505c:	00 00 00 
    505f:	89 c6                	mov    %eax,%esi
    5061:	c7 05 4c f8 00 00 00 	movl   $0x0,0xf84c
    5068:	00 00 00 
    506b:	c7 45 e4 00 00 00 00 	movl   $0x0,-0x1c(%ebp)
    5072:	83 c4 10             	add    $0x10,%esp
    5075:	83 ec 0c             	sub    $0xc,%esp
    5078:	57                   	push   %edi
    5079:	68 00 c3 00 00       	push   $0xc300
    507e:	68 ec c1 00 00       	push   $0xc1ec
    5083:	53                   	push   %ebx
    5084:	56                   	push   %esi
    5085:	e8 96 7f 00 00       	call   d020 <getopt_long@plt>
    508a:	83 c4 20             	add    $0x20,%esp
    508d:	83 f8 68             	cmp    $0x68,%eax
    5090:	74 56                	je     50e8 <cmd_cmp+0xa8>
    5092:	83 f8 76             	cmp    $0x76,%eax
    5095:	75 21                	jne    50b8 <cmd_cmp+0x78>
    5097:	52                   	push   %edx
    5098:	52                   	push   %edx
    5099:	68 2c a7 00 00       	push   $0xa72c
    509e:	68 ac 9e 00 00       	push   $0x9eac
    50a3:	e8 48 7f 00 00       	call   cff0 <printf@plt>
    50a8:	83 c4 10             	add    $0x10,%esp
    50ab:	31 c0                	xor    %eax,%eax
    50ad:	8d 65 f4             	lea    -0xc(%ebp),%esp
    50b0:	5b                   	pop    %ebx
    50b1:	5e                   	pop    %esi
    50b2:	5f                   	pop    %edi
    50b3:	5d                   	pop    %ebp
    50b4:	c3                   	ret    
    50b5:	8d 76 00             	lea    0x0(%esi),%esi
    50b8:	40                   	inc    %eax
    50b9:	75 ba                	jne    5075 <cmd_cmp+0x35>
    50bb:	a1 4c f8 00 00       	mov    0xf84c,%eax
    50c0:	29 c6                	sub    %eax,%esi
    50c2:	83 fe 02             	cmp    $0x2,%esi
    50c5:	74 51                	je     5118 <cmd_cmp+0xd8>
    50c7:	50                   	push   %eax
    50c8:	68 8f a0 00 00       	push   $0xa08f
    50cd:	68 8f a0 00 00       	push   $0xa08f
    50d2:	68 6c a9 00 00       	push   $0xa96c
    50d7:	e8 14 7f 00 00       	call   cff0 <printf@plt>
    50dc:	83 c4 10             	add    $0x10,%esp
    50df:	b8 01 00 00 00       	mov    $0x1,%eax
    50e4:	eb c7                	jmp    50ad <cmd_cmp+0x6d>
    50e6:	66 90                	xchg   %ax,%ax
    50e8:	51                   	push   %ecx
    50e9:	51                   	push   %ecx
    50ea:	68 8f a0 00 00       	push   $0xa08f
    50ef:	68 f0 c1 00 00       	push   $0xc1f0
    50f4:	e8 f7 7e 00 00       	call   cff0 <printf@plt>
    50f9:	5b                   	pop    %ebx
    50fa:	5e                   	pop    %esi
    50fb:	68 8f a0 00 00       	push   $0xa08f
    5100:	68 1c c2 00 00       	push   $0xc21c
    5105:	e8 e6 7e 00 00       	call   cff0 <printf@plt>
    510a:	83 c4 10             	add    $0x10,%esp
    510d:	8d 65 f4             	lea    -0xc(%ebp),%esp
    5110:	31 c0                	xor    %eax,%eax
    5112:	5b                   	pop    %ebx
    5113:	5e                   	pop    %esi
    5114:	5f                   	pop    %edi
    5115:	5d                   	pop    %ebp
    5116:	c3                   	ret    
    5117:	90                   	nop
    5118:	8d 04 85 04 00 00 00 	lea    0x4(,%eax,4),%eax
    511f:	8b 14 03             	mov    (%ebx,%eax,1),%edx
    5122:	8b 44 03 fc          	mov    -0x4(%ebx,%eax,1),%eax
    5126:	e8 35 fd ff ff       	call   4e60 <cmp_files>
    512b:	85 c0                	test   %eax,%eax
    512d:	0f 95 c0             	setne  %al
    5130:	25 ff 00 00 00       	and    $0xff,%eax
    5135:	e9 73 ff ff ff       	jmp    50ad <cmd_cmp+0x6d>
    513a:	66 90                	xchg   %ax,%ax
    513c:	66 90                	xchg   %ax,%ax
    513e:	66 90                	xchg   %ax,%ax

00005140 <help_cmd_batch>:
    5140:	55                   	push   %ebp
    5141:	89 e5                	mov    %esp,%ebp
    5143:	8b 45 08             	mov    0x8(%ebp),%eax
    5146:	85 c0                	test   %eax,%eax
    5148:	74 0e                	je     5158 <help_cmd_batch+0x18>
    514a:	c7 45 08 b0 c3 00 00 	movl   $0xc3b0,0x8(%ebp)
    5151:	5d                   	pop    %ebp
    5152:	e9 99 7e 00 00       	jmp    cff0 <printf@plt>
    5157:	90                   	nop
    5158:	c7 45 08 30 c3 00 00 	movl   $0xc330,0x8(%ebp)
    515f:	5d                   	pop    %ebp
    5160:	e9 8b 7e 00 00       	jmp    cff0 <printf@plt>
    5165:	8d 74 26 00          	lea    0x0(%esi,%eiz,1),%esi
    5169:	8d bc 27 00 00 00 00 	lea    0x0(%edi,%eiz,1),%edi

00005170 <cmd_batch>:
    5170:	55                   	push   %ebp
    5171:	89 e5                	mov    %esp,%ebp
    5173:	57                   	push   %edi
    5174:	56                   	push   %esi
    5175:	53                   	push   %ebx
    5176:	83 ec 3c             	sub    $0x3c,%esp
    5179:	8b 5d 08             	mov    0x8(%ebp),%ebx
    517c:	8b 75 0c             	mov    0xc(%ebp),%esi
    517f:	8b 03                	mov    (%ebx),%eax
    5181:	85 c0                	test   %eax,%eax
    5183:	0f 84 9b 01 00 00    	je     5324 <cmd_batch+0x1b4>
    5189:	31 c0                	xor    %eax,%eax
    518b:	90                   	nop
    518c:	8d 74 26 00          	lea    0x0(%esi,%eiz,1),%esi
    5190:	40                   	inc    %eax
    5191:	8b 3c 83             	mov    (%ebx,%eax,4),%edi
    5194:	85 ff                	test   %edi,%edi
    5196:	75 f8                	jne    5190 <cmd_batch+0x20>
    5198:	83 f8 01             	cmp    $0x1,%eax
    519b:	0f 84 83 01 00 00    	je     5324 <cmd_batch+0x1b4>
    51a1:	c6 45 bf 00          	movb   $0x0,-0x41(%ebp)
    51a5:	83 f8 02             	cmp    $0x2,%eax
    51a8:	0f 85 3a 01 00 00    	jne    52e8 <cmd_batch+0x178>
    51ae:	50                   	push   %eax
    51af:	50                   	push   %eax
    51b0:	68 ed b3 00 00       	push   $0xb3ed
    51b5:	8b 43 04             	mov    0x4(%ebx),%eax
    51b8:	50                   	push   %eax
    51b9:	e8 62 81 00 00       	call   d320 <fopen@plt>
    51be:	83 c4 10             	add    $0x10,%esp
    51c1:	89 45 c4             	mov    %eax,-0x3c(%ebp)
    51c4:	85 c0                	test   %eax,%eax
    51c6:	0f 84 3a 01 00 00    	je     5306 <cmd_batch+0x196>
    51cc:	8b 06                	mov    (%esi),%eax
    51ce:	83 ec 0c             	sub    $0xc,%esp
    51d1:	89 45 d4             	mov    %eax,-0x2c(%ebp)
    51d4:	8b 46 08             	mov    0x8(%esi),%eax
    51d7:	89 45 dc             	mov    %eax,-0x24(%ebp)
    51da:	8b 46 0c             	mov    0xc(%esi),%eax
    51dd:	89 45 e0             	mov    %eax,-0x20(%ebp)
    51e0:	68 01 10 00 00       	push   $0x1001
    51e5:	e8 f6 7e 00 00       	call   d0e0 <malloc@plt>
    51ea:	5f                   	pop    %edi
    51eb:	89 45 d8             	mov    %eax,-0x28(%ebp)
    51ee:	89 c6                	mov    %eax,%esi
    51f0:	8d 98 00 10 00 00    	lea    0x1000(%eax),%ebx
    51f6:	8b 45 c4             	mov    -0x3c(%ebp),%eax
    51f9:	50                   	push   %eax
    51fa:	e8 91 81 00 00       	call   d390 <fgetc@plt>
    51ff:	89 c7                	mov    %eax,%edi
    5201:	8b 45 d8             	mov    -0x28(%ebp),%eax
    5204:	83 c4 10             	add    $0x10,%esp
    5207:	89 fa                	mov    %edi,%edx
    5209:	85 c0                	test   %eax,%eax
    520b:	89 df                	mov    %ebx,%edi
    520d:	75 28                	jne    5237 <cmd_batch+0xc7>
    520f:	e9 b4 00 00 00       	jmp    52c8 <cmd_batch+0x158>
    5214:	8d 74 26 00          	lea    0x0(%esi,%eiz,1),%esi
    5218:	88 16                	mov    %dl,(%esi)
    521a:	46                   	inc    %esi
    521b:	83 ec 0c             	sub    $0xc,%esp
    521e:	8b 45 c4             	mov    -0x3c(%ebp),%eax
    5221:	50                   	push   %eax
    5222:	e8 69 81 00 00       	call   d390 <fgetc@plt>
    5227:	89 c2                	mov    %eax,%edx
    5229:	8b 45 d8             	mov    -0x28(%ebp),%eax
    522c:	83 c4 10             	add    $0x10,%esp
    522f:	85 c0                	test   %eax,%eax
    5231:	0f 84 91 00 00 00    	je     52c8 <cmd_batch+0x158>
    5237:	83 fa 0a             	cmp    $0xa,%edx
    523a:	0f 94 c1             	sete   %cl
    523d:	83 fa ff             	cmp    $0xffffffff,%edx
    5240:	0f 94 c3             	sete   %bl
    5243:	09 cb                	or     %ecx,%ebx
    5245:	39 fe                	cmp    %edi,%esi
    5247:	0f 94 c1             	sete   %cl
    524a:	08 cb                	or     %cl,%bl
    524c:	74 ca                	je     5218 <cmd_batch+0xa8>
    524e:	c6 06 00             	movb   $0x0,(%esi)
    5251:	39 c6                	cmp    %eax,%esi
    5253:	74 5b                	je     52b0 <cmd_batch+0x140>
    5255:	89 55 c0             	mov    %edx,-0x40(%ebp)
    5258:	52                   	push   %edx
    5259:	52                   	push   %edx
    525a:	50                   	push   %eax
    525b:	68 a6 c5 00 00       	push   $0xc5a6
    5260:	e8 8b 7d 00 00       	call   cff0 <printf@plt>
    5265:	8d 45 d4             	lea    -0x2c(%ebp),%eax
    5268:	89 04 24             	mov    %eax,(%esp)
    526b:	e8 20 0f 00 00       	call   6190 <process_input>
    5270:	83 c4 10             	add    $0x10,%esp
    5273:	85 c0                	test   %eax,%eax
    5275:	0f 95 c3             	setne  %bl
    5278:	22 5d bf             	and    -0x41(%ebp),%bl
    527b:	8b 55 c0             	mov    -0x40(%ebp),%edx
    527e:	75 05                	jne    5285 <cmd_batch+0x115>
    5280:	85 c0                	test   %eax,%eax
    5282:	0f 94 c3             	sete   %bl
    5285:	42                   	inc    %edx
    5286:	74 40                	je     52c8 <cmd_batch+0x158>
    5288:	84 db                	test   %bl,%bl
    528a:	74 3c                	je     52c8 <cmd_batch+0x158>
    528c:	83 ec 0c             	sub    $0xc,%esp
    528f:	68 01 10 00 00       	push   $0x1001
    5294:	e8 47 7e 00 00       	call   d0e0 <malloc@plt>
    5299:	83 c4 10             	add    $0x10,%esp
    529c:	89 45 d8             	mov    %eax,-0x28(%ebp)
    529f:	8d b8 00 10 00 00    	lea    0x1000(%eax),%edi
    52a5:	89 c6                	mov    %eax,%esi
    52a7:	e9 6f ff ff ff       	jmp    521b <cmd_batch+0xab>
    52ac:	8d 74 26 00          	lea    0x0(%esi,%eiz,1),%esi
    52b0:	83 ec 0c             	sub    $0xc,%esp
    52b3:	89 55 c0             	mov    %edx,-0x40(%ebp)
    52b6:	56                   	push   %esi
    52b7:	e8 54 82 00 00       	call   d510 <free@plt>
    52bc:	8b 55 c0             	mov    -0x40(%ebp),%edx
    52bf:	83 c4 10             	add    $0x10,%esp
    52c2:	42                   	inc    %edx
    52c3:	75 c3                	jne    5288 <cmd_batch+0x118>
    52c5:	8d 76 00             	lea    0x0(%esi),%esi
    52c8:	83 ec 0c             	sub    $0xc,%esp
    52cb:	8b 4d c4             	mov    -0x3c(%ebp),%ecx
    52ce:	51                   	push   %ecx
    52cf:	e8 7c 80 00 00       	call   d350 <fclose@plt>
    52d4:	83 c4 10             	add    $0x10,%esp
    52d7:	31 c0                	xor    %eax,%eax
    52d9:	8d 65 f4             	lea    -0xc(%ebp),%esp
    52dc:	5b                   	pop    %ebx
    52dd:	5e                   	pop    %esi
    52de:	5f                   	pop    %edi
    52df:	5d                   	pop    %ebp
    52e0:	c3                   	ret    
    52e1:	8d b4 26 00 00 00 00 	lea    0x0(%esi,%eiz,1),%esi
    52e8:	50                   	push   %eax
    52e9:	50                   	push   %eax
    52ea:	68 89 c5 00 00       	push   $0xc589
    52ef:	8b 53 08             	mov    0x8(%ebx),%edx
    52f2:	52                   	push   %edx
    52f3:	e8 08 80 00 00       	call   d300 <str_cmp@plt>
    52f8:	83 c4 10             	add    $0x10,%esp
    52fb:	85 c0                	test   %eax,%eax
    52fd:	0f 94 45 bf          	sete   -0x41(%ebp)
    5301:	e9 a8 fe ff ff       	jmp    51ae <cmd_batch+0x3e>
    5306:	50                   	push   %eax
    5307:	8b 43 04             	mov    0x4(%ebx),%eax
    530a:	50                   	push   %eax
    530b:	68 de 9e 00 00       	push   $0x9ede
    5310:	68 8c c5 00 00       	push   $0xc58c
    5315:	e8 d6 7c 00 00       	call   cff0 <printf@plt>
    531a:	83 c4 10             	add    $0x10,%esp
    531d:	b8 01 00 00 00       	mov    $0x1,%eax
    5322:	eb b5                	jmp    52d9 <cmd_batch+0x169>
    5324:	51                   	push   %ecx
    5325:	51                   	push   %ecx
    5326:	68 de 9e 00 00       	push   $0x9ede
    532b:	68 6b c5 00 00       	push   $0xc56b
    5330:	e8 bb 7c 00 00       	call   cff0 <printf@plt>
    5335:	83 c4 10             	add    $0x10,%esp
    5338:	b8 01 00 00 00       	mov    $0x1,%eax
    533d:	eb 9a                	jmp    52d9 <cmd_batch+0x169>
    533f:	90                   	nop

00005340 <help_cmd_exit>:
    5340:	55                   	push   %ebp
    5341:	89 e5                	mov    %esp,%ebp
    5343:	83 ec 0c             	sub    $0xc,%esp
    5346:	a1 c8 f6 00 00       	mov    0xf6c8,%eax
    534b:	50                   	push   %eax
    534c:	68 ff 9e 00 00       	push   $0x9eff
    5351:	68 ab c5 00 00       	push   $0xc5ab
    5356:	e8 95 7c 00 00       	call   cff0 <printf@plt>
    535b:	83 c4 10             	add    $0x10,%esp
    535e:	c9                   	leave  
    535f:	c3                   	ret    

00005360 <cmd_exit>:
    5360:	55                   	push   %ebp
    5361:	31 c0                	xor    %eax,%eax
    5363:	89 e5                	mov    %esp,%ebp
    5365:	c7 05 14 fb 00 00 01 	movl   $0x1,0xfb14
    536c:	00 00 00 
    536f:	5d                   	pop    %ebp
    5370:	c3                   	ret    
    5371:	66 90                	xchg   %ax,%ax
    5373:	66 90                	xchg   %ax,%ax
    5375:	66 90                	xchg   %ax,%ax
    5377:	66 90                	xchg   %ax,%ax
    5379:	66 90                	xchg   %ax,%ax
    537b:	66 90                	xchg   %ax,%ax
    537d:	66 90                	xchg   %ax,%ax
    537f:	90                   	nop

00005380 <help_cmd_cd>:
    5380:	55                   	push   %ebp
    5381:	89 e5                	mov    %esp,%ebp
    5383:	83 ec 08             	sub    $0x8,%esp
    5386:	8b 45 08             	mov    0x8(%ebp),%eax
    5389:	85 c0                	test   %eax,%eax
    538b:	74 1b                	je     53a8 <help_cmd_cd+0x28>
    538d:	50                   	push   %eax
    538e:	68 fc 9e 00 00       	push   $0x9efc
    5393:	68 fc 9e 00 00       	push   $0x9efc
    5398:	68 5c c6 00 00       	push   $0xc65c
    539d:	e8 4e 7c 00 00       	call   cff0 <printf@plt>
    53a2:	83 c4 10             	add    $0x10,%esp
    53a5:	c9                   	leave  
    53a6:	c3                   	ret    
    53a7:	90                   	nop
    53a8:	52                   	push   %edx
    53a9:	52                   	push   %edx
    53aa:	68 fc 9e 00 00       	push   $0x9efc
    53af:	68 2c c6 00 00       	push   $0xc62c
    53b4:	e8 37 7c 00 00       	call   cff0 <printf@plt>
    53b9:	83 c4 10             	add    $0x10,%esp
    53bc:	c9                   	leave  
    53bd:	c3                   	ret    
    53be:	66 90                	xchg   %ax,%ax

000053c0 <cmd_cd>:
    53c0:	55                   	push   %ebp
    53c1:	89 e5                	mov    %esp,%ebp
    53c3:	57                   	push   %edi
    53c4:	56                   	push   %esi
    53c5:	53                   	push   %ebx
    53c6:	83 ec 18             	sub    $0x18,%esp
    53c9:	8b 5d 08             	mov    0x8(%ebp),%ebx
    53cc:	53                   	push   %ebx
    53cd:	e8 0e 15 00 00       	call   68e0 <cli_count_args>
    53d2:	83 c4 10             	add    $0x10,%esp
    53d5:	8b 73 04             	mov    0x4(%ebx),%esi
    53d8:	83 f8 03             	cmp    $0x3,%eax
    53db:	0f 84 a7 00 00 00    	je     5488 <cmd_cd+0xc8>
    53e1:	83 f8 02             	cmp    $0x2,%eax
    53e4:	0f 8f 36 01 00 00    	jg     5520 <cmd_cd+0x160>
    53ea:	0f 85 b0 01 00 00    	jne    55a0 <cmd_cd+0x1e0>
    53f0:	50                   	push   %eax
    53f1:	50                   	push   %eax
    53f2:	68 c2 c5 00 00       	push   $0xc5c2
    53f7:	56                   	push   %esi
    53f8:	e8 03 7f 00 00       	call   d300 <str_cmp@plt>
    53fd:	83 c4 10             	add    $0x10,%esp
    5400:	85 c0                	test   %eax,%eax
    5402:	0f 85 ab 00 00 00    	jne    54b3 <cmd_cd+0xf3>
    5408:	80 3d 8d f6 00 00 00 	cmpb   $0x0,0xf68d
    540f:	0f 84 f3 01 00 00    	je     5608 <cmd_cd+0x248>
    5415:	80 3d e0 f8 00 00 00 	cmpb   $0x0,0xf8e0
    541c:	0f 84 c6 01 00 00    	je     55e8 <cmd_cd+0x228>
    5422:	83 ec 0c             	sub    $0xc,%esp
    5425:	68 00 fa 00 00       	push   $0xfa00
    542a:	e8 51 7e 00 00       	call   d280 <str_dup@plt>
    542f:	83 c4 10             	add    $0x10,%esp
    5432:	89 c7                	mov    %eax,%edi
    5434:	85 c0                	test   %eax,%eax
    5436:	0f 84 0c 02 00 00    	je     5648 <cmd_cd+0x288>
    543c:	50                   	push   %eax
    543d:	50                   	push   %eax
    543e:	68 ff 00 00 00       	push   $0xff
    5443:	68 00 f9 00 00       	push   $0xf900
    5448:	e8 33 7f 00 00       	call   d380 <getcwd@plt>
    544d:	89 3c 24             	mov    %edi,(%esp)
    5450:	85 c0                	test   %eax,%eax
    5452:	c6 05 e0 f8 00 00 01 	movb   $0x1,0xf8e0
    5459:	0f 95 05 8d f6 00 00 	setne  0xf68d
    5460:	e8 fb 7d 00 00       	call   d260 <chdir@plt>
    5465:	83 c4 10             	add    $0x10,%esp
    5468:	89 c3                	mov    %eax,%ebx
    546a:	85 c0                	test   %eax,%eax
    546c:	0f 84 b6 01 00 00    	je     5628 <cmd_cd+0x268>
    5472:	e8 d9 7b 00 00       	call   d050 <__errno@plt>
    5477:	8b 18                	mov    (%eax),%ebx
    5479:	83 ec 0c             	sub    $0xc,%esp
    547c:	57                   	push   %edi
    547d:	e8 8e 80 00 00       	call   d510 <free@plt>
    5482:	83 c4 10             	add    $0x10,%esp
    5485:	eb 67                	jmp    54ee <cmd_cd+0x12e>
    5487:	90                   	nop
    5488:	57                   	push   %edi
    5489:	57                   	push   %edi
    548a:	68 c1 c5 00 00       	push   $0xc5c1
    548f:	56                   	push   %esi
    5490:	e8 6b 7e 00 00       	call   d300 <str_cmp@plt>
    5495:	83 c4 10             	add    $0x10,%esp
    5498:	85 c0                	test   %eax,%eax
    549a:	0f 85 80 00 00 00    	jne    5520 <cmd_cd+0x160>
    54a0:	8b 73 08             	mov    0x8(%ebx),%esi
    54a3:	51                   	push   %ecx
    54a4:	51                   	push   %ecx
    54a5:	68 c2 c5 00 00       	push   $0xc5c2
    54aa:	56                   	push   %esi
    54ab:	e8 50 7e 00 00       	call   d300 <str_cmp@plt>
    54b0:	83 c4 10             	add    $0x10,%esp
    54b3:	57                   	push   %edi
    54b4:	57                   	push   %edi
    54b5:	68 ff 00 00 00       	push   $0xff
    54ba:	68 00 f9 00 00       	push   $0xf900
    54bf:	e8 bc 7e 00 00       	call   d380 <getcwd@plt>
    54c4:	89 34 24             	mov    %esi,(%esp)
    54c7:	85 c0                	test   %eax,%eax
    54c9:	c6 05 e0 f8 00 00 01 	movb   $0x1,0xf8e0
    54d0:	0f 95 05 8d f6 00 00 	setne  0xf68d
    54d7:	e8 84 7d 00 00       	call   d260 <chdir@plt>
    54dc:	83 c4 10             	add    $0x10,%esp
    54df:	85 c0                	test   %eax,%eax
    54e1:	0f 84 81 00 00 00    	je     5568 <cmd_cd+0x1a8>
    54e7:	e8 64 7b 00 00       	call   d050 <__errno@plt>
    54ec:	8b 18                	mov    (%eax),%ebx
    54ee:	85 db                	test   %ebx,%ebx
    54f0:	0f 84 8a 00 00 00    	je     5580 <cmd_cd+0x1c0>
    54f6:	83 fb fe             	cmp    $0xfffffffe,%ebx
    54f9:	0f 84 c9 00 00 00    	je     55c8 <cmd_cd+0x208>
    54ff:	43                   	inc    %ebx
    5500:	75 46                	jne    5548 <cmd_cd+0x188>
    5502:	52                   	push   %edx
    5503:	56                   	push   %esi
    5504:	68 f9 c5 00 00       	push   $0xc5f9
    5509:	6a 03                	push   $0x3
    550b:	e8 20 0c 00 00       	call   6130 <cli_error>
    5510:	83 c4 10             	add    $0x10,%esp
    5513:	8d 65 f4             	lea    -0xc(%ebp),%esp
    5516:	b8 01 00 00 00       	mov    $0x1,%eax
    551b:	5b                   	pop    %ebx
    551c:	5e                   	pop    %esi
    551d:	5f                   	pop    %edi
    551e:	5d                   	pop    %ebp
    551f:	c3                   	ret    
    5520:	53                   	push   %ebx
    5521:	68 fc 9e 00 00       	push   $0x9efc
    5526:	68 c4 c5 00 00       	push   $0xc5c4
    552b:	6a 01                	push   $0x1
    552d:	e8 fe 0b 00 00       	call   6130 <cli_error>
    5532:	83 c4 10             	add    $0x10,%esp
    5535:	b8 01 00 00 00       	mov    $0x1,%eax
    553a:	8d 65 f4             	lea    -0xc(%ebp),%esp
    553d:	5b                   	pop    %ebx
    553e:	5e                   	pop    %esi
    553f:	5f                   	pop    %edi
    5540:	5d                   	pop    %ebp
    5541:	c3                   	ret    
    5542:	8d b6 00 00 00 00    	lea    0x0(%esi),%esi
    5548:	50                   	push   %eax
    5549:	56                   	push   %esi
    554a:	68 10 c6 00 00       	push   $0xc610
    554f:	6a 01                	push   $0x1
    5551:	e8 da 0b 00 00       	call   6130 <cli_error>
    5556:	83 c4 10             	add    $0x10,%esp
    5559:	8d 65 f4             	lea    -0xc(%ebp),%esp
    555c:	b8 01 00 00 00       	mov    $0x1,%eax
    5561:	5b                   	pop    %ebx
    5562:	5e                   	pop    %esi
    5563:	5f                   	pop    %edi
    5564:	5d                   	pop    %ebp
    5565:	c3                   	ret    
    5566:	66 90                	xchg   %ax,%ax
    5568:	56                   	push   %esi
    5569:	68 00 f9 00 00       	push   $0xf900
    556e:	68 ff 00 00 00       	push   $0xff
    5573:	68 00 fa 00 00       	push   $0xfa00
    5578:	e8 f3 7d 00 00       	call   d370 <str_cpy@plt>
    557d:	83 c4 10             	add    $0x10,%esp
    5580:	83 ec 0c             	sub    $0xc,%esp
    5583:	8b 5d 0c             	mov    0xc(%ebp),%ebx
    5586:	53                   	push   %ebx
    5587:	e8 74 13 00 00       	call   6900 <cli_set_prompt>
    558c:	83 c4 10             	add    $0x10,%esp
    558f:	8d 65 f4             	lea    -0xc(%ebp),%esp
    5592:	31 c0                	xor    %eax,%eax
    5594:	5b                   	pop    %ebx
    5595:	5e                   	pop    %esi
    5596:	5f                   	pop    %edi
    5597:	5d                   	pop    %ebp
    5598:	c3                   	ret    
    5599:	8d b4 26 00 00 00 00 	lea    0x0(%esi,%eiz,1),%esi
    55a0:	52                   	push   %edx
    55a1:	68 fc 9e 00 00       	push   $0x9efc
    55a6:	68 fc 9e 00 00       	push   $0x9efc
    55ab:	68 a0 c6 00 00       	push   $0xc6a0
    55b0:	e8 3b 7a 00 00       	call   cff0 <printf@plt>
    55b5:	83 c4 10             	add    $0x10,%esp
    55b8:	8d 65 f4             	lea    -0xc(%ebp),%esp
    55bb:	b8 01 00 00 00       	mov    $0x1,%eax
    55c0:	5b                   	pop    %ebx
    55c1:	5e                   	pop    %esi
    55c2:	5f                   	pop    %edi
    55c3:	5d                   	pop    %ebp
    55c4:	c3                   	ret    
    55c5:	8d 76 00             	lea    0x0(%esi),%esi
    55c8:	51                   	push   %ecx
    55c9:	51                   	push   %ecx
    55ca:	68 df c5 00 00       	push   $0xc5df
    55cf:	6a 01                	push   $0x1
    55d1:	e8 5a 0b 00 00       	call   6130 <cli_error>
    55d6:	83 c4 10             	add    $0x10,%esp
    55d9:	8d 65 f4             	lea    -0xc(%ebp),%esp
    55dc:	b8 01 00 00 00       	mov    $0x1,%eax
    55e1:	5b                   	pop    %ebx
    55e2:	5e                   	pop    %esi
    55e3:	5f                   	pop    %edi
    55e4:	5d                   	pop    %ebp
    55e5:	c3                   	ret    
    55e6:	66 90                	xchg   %ax,%ax
    55e8:	50                   	push   %eax
    55e9:	50                   	push   %eax
    55ea:	68 fc c6 00 00       	push   $0xc6fc
    55ef:	6a 01                	push   $0x1
    55f1:	e8 3a 0b 00 00       	call   6130 <cli_error>
    55f6:	83 c4 10             	add    $0x10,%esp
    55f9:	b8 01 00 00 00       	mov    $0x1,%eax
    55fe:	e9 37 ff ff ff       	jmp    553a <cmd_cd+0x17a>
    5603:	90                   	nop
    5604:	8d 74 26 00          	lea    0x0(%esi,%eiz,1),%esi
    5608:	50                   	push   %eax
    5609:	50                   	push   %eax
    560a:	68 d8 c6 00 00       	push   $0xc6d8
    560f:	6a 01                	push   $0x1
    5611:	e8 1a 0b 00 00       	call   6130 <cli_error>
    5616:	83 c4 10             	add    $0x10,%esp
    5619:	b8 01 00 00 00       	mov    $0x1,%eax
    561e:	e9 17 ff ff ff       	jmp    553a <cmd_cd+0x17a>
    5623:	90                   	nop
    5624:	8d 74 26 00          	lea    0x0(%esi,%eiz,1),%esi
    5628:	50                   	push   %eax
    5629:	68 00 f9 00 00       	push   $0xf900
    562e:	68 ff 00 00 00       	push   $0xff
    5633:	68 00 fa 00 00       	push   $0xfa00
    5638:	e8 33 7d 00 00       	call   d370 <str_cpy@plt>
    563d:	83 c4 10             	add    $0x10,%esp
    5640:	e9 34 fe ff ff       	jmp    5479 <cmd_cd+0xb9>
    5645:	8d 76 00             	lea    0x0(%esi),%esi
    5648:	50                   	push   %eax
    5649:	50                   	push   %eax
    564a:	68 d8 c6 00 00       	push   $0xc6d8
    564f:	6a 04                	push   $0x4
    5651:	e8 da 0a 00 00       	call   6130 <cli_error>
    5656:	83 c4 10             	add    $0x10,%esp
    5659:	b8 01 00 00 00       	mov    $0x1,%eax
    565e:	e9 d7 fe ff ff       	jmp    553a <cmd_cd+0x17a>
    5663:	66 90                	xchg   %ax,%ax
    5665:	66 90                	xchg   %ax,%ax
    5667:	66 90                	xchg   %ax,%ax
    5669:	66 90                	xchg   %ax,%ax
    566b:	66 90                	xchg   %ax,%ax
    566d:	66 90                	xchg   %ax,%ax
    566f:	90                   	nop

00005670 <is_module>:
    5670:	55                   	push   %ebp
    5671:	89 e5                	mov    %esp,%ebp
    5673:	56                   	push   %esi
    5674:	53                   	push   %ebx
    5675:	8b 75 08             	mov    0x8(%ebp),%esi
    5678:	85 f6                	test   %esi,%esi
    567a:	74 4e                	je     56ca <is_module+0x5a>
    567c:	a1 40 f3 00 00       	mov    0xf340,%eax
    5681:	31 db                	xor    %ebx,%ebx
    5683:	85 c0                	test   %eax,%eax
    5685:	75 19                	jne    56a0 <is_module+0x30>
    5687:	eb 37                	jmp    56c0 <is_module+0x50>
    5689:	8d b4 26 00 00 00 00 	lea    0x0(%esi,%eiz,1),%esi
    5690:	43                   	inc    %ebx
    5691:	89 d8                	mov    %ebx,%eax
    5693:	c1 e0 04             	shl    $0x4,%eax
    5696:	8b 80 40 f3 00 00    	mov    0xf340(%eax),%eax
    569c:	85 c0                	test   %eax,%eax
    569e:	74 20                	je     56c0 <is_module+0x50>
    56a0:	52                   	push   %edx
    56a1:	52                   	push   %edx
    56a2:	56                   	push   %esi
    56a3:	50                   	push   %eax
    56a4:	e8 57 7c 00 00       	call   d300 <str_cmp@plt>
    56a9:	83 c4 10             	add    $0x10,%esp
    56ac:	85 c0                	test   %eax,%eax
    56ae:	75 e0                	jne    5690 <is_module+0x20>
    56b0:	8d 65 f8             	lea    -0x8(%ebp),%esp
    56b3:	89 d8                	mov    %ebx,%eax
    56b5:	5b                   	pop    %ebx
    56b6:	5e                   	pop    %esi
    56b7:	5d                   	pop    %ebp
    56b8:	c3                   	ret    
    56b9:	8d b4 26 00 00 00 00 	lea    0x0(%esi,%eiz,1),%esi
    56c0:	83 c8 ff             	or     $0xffffffff,%eax
    56c3:	8d 65 f8             	lea    -0x8(%ebp),%esp
    56c6:	5b                   	pop    %ebx
    56c7:	5e                   	pop    %esi
    56c8:	5d                   	pop    %ebp
    56c9:	c3                   	ret    
    56ca:	b8 fe ff ff ff       	mov    $0xfffffffe,%eax
    56cf:	eb f2                	jmp    56c3 <is_module+0x53>
    56d1:	eb 0d                	jmp    56e0 <is_module_alias>
    56d3:	90                   	nop
    56d4:	90                   	nop
    56d5:	90                   	nop
    56d6:	90                   	nop
    56d7:	90                   	nop
    56d8:	90                   	nop
    56d9:	90                   	nop
    56da:	90                   	nop
    56db:	90                   	nop
    56dc:	90                   	nop
    56dd:	90                   	nop
    56de:	90                   	nop
    56df:	90                   	nop

000056e0 <is_module_alias>:
    56e0:	55                   	push   %ebp
    56e1:	89 e5                	mov    %esp,%ebp
    56e3:	56                   	push   %esi
    56e4:	53                   	push   %ebx
    56e5:	8b 75 08             	mov    0x8(%ebp),%esi
    56e8:	85 f6                	test   %esi,%esi
    56ea:	74 45                	je     5731 <is_module_alias+0x51>
    56ec:	a1 90 f6 00 00       	mov    0xf690,%eax
    56f1:	bb 90 f6 00 00       	mov    $0xf690,%ebx
    56f6:	85 c0                	test   %eax,%eax
    56f8:	75 0f                	jne    5709 <is_module_alias+0x29>
    56fa:	eb 2c                	jmp    5728 <is_module_alias+0x48>
    56fc:	8d 74 26 00          	lea    0x0(%esi,%eiz,1),%esi
    5700:	83 c3 08             	add    $0x8,%ebx
    5703:	8b 03                	mov    (%ebx),%eax
    5705:	85 c0                	test   %eax,%eax
    5707:	74 1f                	je     5728 <is_module_alias+0x48>
    5709:	52                   	push   %edx
    570a:	52                   	push   %edx
    570b:	56                   	push   %esi
    570c:	50                   	push   %eax
    570d:	e8 ee 7b 00 00       	call   d300 <str_cmp@plt>
    5712:	83 c4 10             	add    $0x10,%esp
    5715:	85 c0                	test   %eax,%eax
    5717:	75 e7                	jne    5700 <is_module_alias+0x20>
    5719:	8d 65 f8             	lea    -0x8(%ebp),%esp
    571c:	b8 01 00 00 00       	mov    $0x1,%eax
    5721:	5b                   	pop    %ebx
    5722:	5e                   	pop    %esi
    5723:	5d                   	pop    %ebp
    5724:	c3                   	ret    
    5725:	8d 76 00             	lea    0x0(%esi),%esi
    5728:	31 c0                	xor    %eax,%eax
    572a:	8d 65 f8             	lea    -0x8(%ebp),%esp
    572d:	5b                   	pop    %ebx
    572e:	5e                   	pop    %esi
    572f:	5d                   	pop    %ebp
    5730:	c3                   	ret    
    5731:	83 c8 ff             	or     $0xffffffff,%eax
    5734:	eb f4                	jmp    572a <is_module_alias+0x4a>
    5736:	8d 76 00             	lea    0x0(%esi),%esi
    5739:	8d bc 27 00 00 00 00 	lea    0x0(%edi,%eiz,1),%edi

00005740 <alias_for_module>:
    5740:	55                   	push   %ebp
    5741:	89 e5                	mov    %esp,%ebp
    5743:	56                   	push   %esi
    5744:	53                   	push   %ebx
    5745:	8b 75 08             	mov    0x8(%ebp),%esi
    5748:	85 f6                	test   %esi,%esi
    574a:	74 44                	je     5790 <alias_for_module+0x50>
    574c:	a1 90 f6 00 00       	mov    0xf690,%eax
    5751:	85 c0                	test   %eax,%eax
    5753:	74 3b                	je     5790 <alias_for_module+0x50>
    5755:	31 db                	xor    %ebx,%ebx
    5757:	eb 15                	jmp    576e <alias_for_module+0x2e>
    5759:	8d b4 26 00 00 00 00 	lea    0x0(%esi,%eiz,1),%esi
    5760:	83 c3 02             	add    $0x2,%ebx
    5763:	8b 04 9d 90 f6 00 00 	mov    0xf690(,%ebx,4),%eax
    576a:	85 c0                	test   %eax,%eax
    576c:	74 22                	je     5790 <alias_for_module+0x50>
    576e:	52                   	push   %edx
    576f:	52                   	push   %edx
    5770:	56                   	push   %esi
    5771:	50                   	push   %eax
    5772:	e8 89 7b 00 00       	call   d300 <str_cmp@plt>
    5777:	83 c4 10             	add    $0x10,%esp
    577a:	85 c0                	test   %eax,%eax
    577c:	75 e2                	jne    5760 <alias_for_module+0x20>
    577e:	8b 04 9d 94 f6 00 00 	mov    0xf694(,%ebx,4),%eax
    5785:	8d 65 f8             	lea    -0x8(%ebp),%esp
    5788:	5b                   	pop    %ebx
    5789:	5e                   	pop    %esi
    578a:	5d                   	pop    %ebp
    578b:	c3                   	ret    
    578c:	8d 74 26 00          	lea    0x0(%esi,%eiz,1),%esi
    5790:	8d 65 f8             	lea    -0x8(%ebp),%esp
    5793:	31 c0                	xor    %eax,%eax
    5795:	5b                   	pop    %ebx
    5796:	5e                   	pop    %esi
    5797:	5d                   	pop    %ebp
    5798:	c3                   	ret    
    5799:	8d b4 26 00 00 00 00 	lea    0x0(%esi,%eiz,1),%esi

000057a0 <help_module>:
    57a0:	55                   	push   %ebp
    57a1:	89 e5                	mov    %esp,%ebp
    57a3:	83 ec 08             	sub    $0x8,%esp
    57a6:	8b 45 08             	mov    0x8(%ebp),%eax
    57a9:	c1 e0 04             	shl    $0x4,%eax
    57ac:	8b 90 4c f3 00 00    	mov    0xf34c(%eax),%edx
    57b2:	b8 03 00 00 00       	mov    $0x3,%eax
    57b7:	85 d2                	test   %edx,%edx
    57b9:	74 0e                	je     57c9 <help_module+0x29>
    57bb:	83 ec 0c             	sub    $0xc,%esp
    57be:	8b 45 0c             	mov    0xc(%ebp),%eax
    57c1:	50                   	push   %eax
    57c2:	ff d2                	call   *%edx
    57c4:	83 c4 10             	add    $0x10,%esp
    57c7:	31 c0                	xor    %eax,%eax
    57c9:	c9                   	leave  
    57ca:	c3                   	ret    
    57cb:	90                   	nop
    57cc:	8d 74 26 00          	lea    0x0(%esi,%eiz,1),%esi

000057d0 <run_module>:
    57d0:	55                   	push   %ebp
    57d1:	89 e5                	mov    %esp,%ebp
    57d3:	53                   	push   %ebx
    57d4:	83 ec 14             	sub    $0x14,%esp
    57d7:	e8 14 14 00 00       	call   6bf0 <get_iostate>
    57dc:	83 ec 0c             	sub    $0xc,%esp
    57df:	8b 55 10             	mov    0x10(%ebp),%edx
    57e2:	89 c3                	mov    %eax,%ebx
    57e4:	52                   	push   %edx
    57e5:	e8 16 14 00 00       	call   6c00 <set_iostate>
    57ea:	8b 45 08             	mov    0x8(%ebp),%eax
    57ed:	83 c4 10             	add    $0x10,%esp
    57f0:	c1 e0 04             	shl    $0x4,%eax
    57f3:	8b 90 48 f3 00 00    	mov    0xf348(%eax),%edx
    57f9:	b8 03 00 00 00       	mov    $0x3,%eax
    57fe:	85 d2                	test   %edx,%edx
    5800:	74 0c                	je     580e <run_module+0x3e>
    5802:	83 ec 0c             	sub    $0xc,%esp
    5805:	8b 45 0c             	mov    0xc(%ebp),%eax
    5808:	50                   	push   %eax
    5809:	ff d2                	call   *%edx
    580b:	83 c4 10             	add    $0x10,%esp
    580e:	83 ec 0c             	sub    $0xc,%esp
    5811:	89 45 f4             	mov    %eax,-0xc(%ebp)
    5814:	53                   	push   %ebx
    5815:	e8 e6 13 00 00       	call   6c00 <set_iostate>
    581a:	8b 45 f4             	mov    -0xc(%ebp),%eax
    581d:	8b 5d fc             	mov    -0x4(%ebp),%ebx
    5820:	c9                   	leave  
    5821:	c3                   	ret    
    5822:	66 90                	xchg   %ax,%ax
    5824:	66 90                	xchg   %ax,%ax
    5826:	66 90                	xchg   %ax,%ax
    5828:	66 90                	xchg   %ax,%ax
    582a:	66 90                	xchg   %ax,%ax
    582c:	66 90                	xchg   %ax,%ax
    582e:	66 90                	xchg   %ax,%ax

00005830 <is_builtin>:
    5830:	55                   	push   %ebp
    5831:	89 e5                	mov    %esp,%ebp
    5833:	56                   	push   %esi
    5834:	53                   	push   %ebx
    5835:	8b 75 08             	mov    0x8(%ebp),%esi
    5838:	85 f6                	test   %esi,%esi
    583a:	74 46                	je     5882 <is_builtin+0x52>
    583c:	a1 e0 f2 00 00       	mov    0xf2e0,%eax
    5841:	31 db                	xor    %ebx,%ebx
    5843:	85 c0                	test   %eax,%eax
    5845:	75 18                	jne    585f <is_builtin+0x2f>
    5847:	eb 2f                	jmp    5878 <is_builtin+0x48>
    5849:	8d b4 26 00 00 00 00 	lea    0x0(%esi,%eiz,1),%esi
    5850:	43                   	inc    %ebx
    5851:	8d 04 9b             	lea    (%ebx,%ebx,4),%eax
    5854:	8b 04 85 e0 f2 00 00 	mov    0xf2e0(,%eax,4),%eax
    585b:	85 c0                	test   %eax,%eax
    585d:	74 19                	je     5878 <is_builtin+0x48>
    585f:	52                   	push   %edx
    5860:	52                   	push   %edx
    5861:	56                   	push   %esi
    5862:	50                   	push   %eax
    5863:	e8 98 7a 00 00       	call   d300 <str_cmp@plt>
    5868:	83 c4 10             	add    $0x10,%esp
    586b:	85 c0                	test   %eax,%eax
    586d:	75 e1                	jne    5850 <is_builtin+0x20>
    586f:	8d 65 f8             	lea    -0x8(%ebp),%esp
    5872:	89 d8                	mov    %ebx,%eax
    5874:	5b                   	pop    %ebx
    5875:	5e                   	pop    %esi
    5876:	5d                   	pop    %ebp
    5877:	c3                   	ret    
    5878:	83 c8 ff             	or     $0xffffffff,%eax
    587b:	8d 65 f8             	lea    -0x8(%ebp),%esp
    587e:	5b                   	pop    %ebx
    587f:	5e                   	pop    %esi
    5880:	5d                   	pop    %ebp
    5881:	c3                   	ret    
    5882:	b8 fe ff ff ff       	mov    $0xfffffffe,%eax
    5887:	eb f2                	jmp    587b <is_builtin+0x4b>
    5889:	8d b4 26 00 00 00 00 	lea    0x0(%esi,%eiz,1),%esi

00005890 <is_builtin_alias>:
    5890:	55                   	push   %ebp
    5891:	89 e5                	mov    %esp,%ebp
    5893:	83 ec 08             	sub    $0x8,%esp
    5896:	8b 55 08             	mov    0x8(%ebp),%edx
    5899:	85 d2                	test   %edx,%edx
    589b:	74 27                	je     58c4 <is_builtin_alias+0x34>
    589d:	a1 00 fb 00 00       	mov    0xfb00,%eax
    58a2:	85 c0                	test   %eax,%eax
    58a4:	74 1a                	je     58c0 <is_builtin_alias+0x30>
    58a6:	51                   	push   %ecx
    58a7:	51                   	push   %ecx
    58a8:	52                   	push   %edx
    58a9:	50                   	push   %eax
    58aa:	e8 51 7a 00 00       	call   d300 <str_cmp@plt>
    58af:	83 c4 10             	add    $0x10,%esp
    58b2:	b8 01 00 00 00       	mov    $0x1,%eax
    58b7:	c9                   	leave  
    58b8:	c3                   	ret    
    58b9:	8d b4 26 00 00 00 00 	lea    0x0(%esi,%eiz,1),%esi
    58c0:	31 c0                	xor    %eax,%eax
    58c2:	c9                   	leave  
    58c3:	c3                   	ret    
    58c4:	83 c8 ff             	or     $0xffffffff,%eax
    58c7:	c9                   	leave  
    58c8:	c3                   	ret    
    58c9:	8d b4 26 00 00 00 00 	lea    0x0(%esi,%eiz,1),%esi

000058d0 <alias_for_builtin>:
    58d0:	55                   	push   %ebp
    58d1:	89 e5                	mov    %esp,%ebp
    58d3:	83 ec 08             	sub    $0x8,%esp
    58d6:	8b 55 08             	mov    0x8(%ebp),%edx
    58d9:	85 d2                	test   %edx,%edx
    58db:	74 1c                	je     58f9 <alias_for_builtin+0x29>
    58dd:	a1 00 fb 00 00       	mov    0xfb00,%eax
    58e2:	85 c0                	test   %eax,%eax
    58e4:	74 11                	je     58f7 <alias_for_builtin+0x27>
    58e6:	51                   	push   %ecx
    58e7:	51                   	push   %ecx
    58e8:	52                   	push   %edx
    58e9:	50                   	push   %eax
    58ea:	e8 11 7a 00 00       	call   d300 <str_cmp@plt>
    58ef:	a1 04 fb 00 00       	mov    0xfb04,%eax
    58f4:	83 c4 10             	add    $0x10,%esp
    58f7:	c9                   	leave  
    58f8:	c3                   	ret    
    58f9:	31 c0                	xor    %eax,%eax
    58fb:	c9                   	leave  
    58fc:	c3                   	ret    
    58fd:	8d 76 00             	lea    0x0(%esi),%esi

00005900 <help_builtin>:
    5900:	55                   	push   %ebp
    5901:	89 e5                	mov    %esp,%ebp
    5903:	83 ec 08             	sub    $0x8,%esp
    5906:	8b 45 08             	mov    0x8(%ebp),%eax
    5909:	8d 04 80             	lea    (%eax,%eax,4),%eax
    590c:	8b 14 85 ec f2 00 00 	mov    0xf2ec(,%eax,4),%edx
    5913:	b8 03 00 00 00       	mov    $0x3,%eax
    5918:	85 d2                	test   %edx,%edx
    591a:	74 0e                	je     592a <help_builtin+0x2a>
    591c:	83 ec 0c             	sub    $0xc,%esp
    591f:	8b 45 0c             	mov    0xc(%ebp),%eax
    5922:	50                   	push   %eax
    5923:	ff d2                	call   *%edx
    5925:	83 c4 10             	add    $0x10,%esp
    5928:	31 c0                	xor    %eax,%eax
    592a:	c9                   	leave  
    592b:	c3                   	ret    
    592c:	8d 74 26 00          	lea    0x0(%esi,%eiz,1),%esi

00005930 <run_builtin>:
    5930:	55                   	push   %ebp
    5931:	89 e5                	mov    %esp,%ebp
    5933:	56                   	push   %esi
    5934:	53                   	push   %ebx
    5935:	83 ec 10             	sub    $0x10,%esp
    5938:	8b 5d 08             	mov    0x8(%ebp),%ebx
    593b:	e8 b0 12 00 00       	call   6bf0 <get_iostate>
    5940:	83 ec 0c             	sub    $0xc,%esp
    5943:	89 c6                	mov    %eax,%esi
    5945:	8b 45 14             	mov    0x14(%ebp),%eax
    5948:	50                   	push   %eax
    5949:	e8 b2 12 00 00       	call   6c00 <set_iostate>
    594e:	8d 04 9b             	lea    (%ebx,%ebx,4),%eax
    5951:	83 c4 10             	add    $0x10,%esp
    5954:	8b 14 85 e8 f2 00 00 	mov    0xf2e8(,%eax,4),%edx
    595b:	b8 03 00 00 00       	mov    $0x3,%eax
    5960:	85 d2                	test   %edx,%edx
    5962:	74 0f                	je     5973 <run_builtin+0x43>
    5964:	8b 4d 10             	mov    0x10(%ebp),%ecx
    5967:	8b 5d 0c             	mov    0xc(%ebp),%ebx
    596a:	50                   	push   %eax
    596b:	50                   	push   %eax
    596c:	51                   	push   %ecx
    596d:	53                   	push   %ebx
    596e:	ff d2                	call   *%edx
    5970:	83 c4 10             	add    $0x10,%esp
    5973:	83 ec 0c             	sub    $0xc,%esp
    5976:	89 45 f4             	mov    %eax,-0xc(%ebp)
    5979:	56                   	push   %esi
    597a:	e8 81 12 00 00       	call   6c00 <set_iostate>
    597f:	8b 45 f4             	mov    -0xc(%ebp),%eax
    5982:	8d 65 f8             	lea    -0x8(%ebp),%esp
    5985:	5b                   	pop    %ebx
    5986:	5e                   	pop    %esi
    5987:	5d                   	pop    %ebp
    5988:	c3                   	ret    
    5989:	66 90                	xchg   %ax,%ax
    598b:	66 90                	xchg   %ax,%ax
    598d:	66 90                	xchg   %ax,%ax
    598f:	90                   	nop

00005990 <compl_fini>:
    5990:	55                   	push   %ebp
    5991:	89 e5                	mov    %esp,%ebp
    5993:	56                   	push   %esi
    5994:	53                   	push   %ebx
    5995:	8b 75 08             	mov    0x8(%ebp),%esi
    5998:	8b 56 14             	mov    0x14(%esi),%edx
    599b:	85 d2                	test   %edx,%edx
    599d:	74 36                	je     59d5 <compl_fini+0x45>
    599f:	8b 02                	mov    (%edx),%eax
    59a1:	85 c0                	test   %eax,%eax
    59a3:	74 24                	je     59c9 <compl_fini+0x39>
    59a5:	bb 04 00 00 00       	mov    $0x4,%ebx
    59aa:	8d b6 00 00 00 00    	lea    0x0(%esi),%esi
    59b0:	83 ec 0c             	sub    $0xc,%esp
    59b3:	50                   	push   %eax
    59b4:	e8 57 7b 00 00       	call   d510 <free@plt>
    59b9:	8b 56 14             	mov    0x14(%esi),%edx
    59bc:	83 c4 10             	add    $0x10,%esp
    59bf:	8b 04 1a             	mov    (%edx,%ebx,1),%eax
    59c2:	83 c3 04             	add    $0x4,%ebx
    59c5:	85 c0                	test   %eax,%eax
    59c7:	75 e7                	jne    59b0 <compl_fini+0x20>
    59c9:	83 ec 0c             	sub    $0xc,%esp
    59cc:	52                   	push   %edx
    59cd:	e8 3e 7b 00 00       	call   d510 <free@plt>
    59d2:	83 c4 10             	add    $0x10,%esp
    59d5:	8b 46 1c             	mov    0x1c(%esi),%eax
    59d8:	85 c0                	test   %eax,%eax
    59da:	74 0c                	je     59e8 <compl_fini+0x58>
    59dc:	83 ec 0c             	sub    $0xc,%esp
    59df:	50                   	push   %eax
    59e0:	e8 2b 7b 00 00       	call   d510 <free@plt>
    59e5:	83 c4 10             	add    $0x10,%esp
    59e8:	8b 46 18             	mov    0x18(%esi),%eax
    59eb:	85 c0                	test   %eax,%eax
    59ed:	74 0c                	je     59fb <compl_fini+0x6b>
    59ef:	83 ec 0c             	sub    $0xc,%esp
    59f2:	50                   	push   %eax
    59f3:	e8 e8 7a 00 00       	call   d4e0 <closedir@plt>
    59f8:	83 c4 10             	add    $0x10,%esp
    59fb:	83 ec 0c             	sub    $0xc,%esp
    59fe:	8b 06                	mov    (%esi),%eax
    5a00:	50                   	push   %eax
    5a01:	e8 0a 7b 00 00       	call   d510 <free@plt>
    5a06:	89 75 08             	mov    %esi,0x8(%ebp)
    5a09:	83 c4 10             	add    $0x10,%esp
    5a0c:	8d 65 f8             	lea    -0x8(%ebp),%esp
    5a0f:	5b                   	pop    %ebx
    5a10:	5e                   	pop    %esi
    5a11:	5d                   	pop    %ebp
    5a12:	e9 f9 7a 00 00       	jmp    d510 <free@plt>
    5a17:	89 f6                	mov    %esi,%esi
    5a19:	8d bc 27 00 00 00 00 	lea    0x0(%edi,%eiz,1),%edi

00005a20 <compl_get_next>:
    5a20:	55                   	push   %ebp
    5a21:	89 e5                	mov    %esp,%ebp
    5a23:	57                   	push   %edi
    5a24:	56                   	push   %esi
    5a25:	53                   	push   %ebx
    5a26:	83 ec 3c             	sub    $0x3c,%esp
    5a29:	8b 5d 0c             	mov    0xc(%ebp),%ebx
    5a2c:	8b 7d 08             	mov    0x8(%ebp),%edi
    5a2f:	c7 03 00 00 00 00    	movl   $0x0,(%ebx)
    5a35:	8b 47 1c             	mov    0x1c(%edi),%eax
    5a38:	85 c0                	test   %eax,%eax
    5a3a:	0f 84 6d 02 00 00    	je     5cad <compl_get_next+0x28d>
    5a40:	83 ec 0c             	sub    $0xc,%esp
    5a43:	50                   	push   %eax
    5a44:	e8 c7 7a 00 00       	call   d510 <free@plt>
    5a49:	c7 47 1c 00 00 00 00 	movl   $0x0,0x1c(%edi)
    5a50:	8b 4f 08             	mov    0x8(%edi),%ecx
    5a53:	83 c4 10             	add    $0x10,%esp
    5a56:	8b 03                	mov    (%ebx),%eax
    5a58:	85 c9                	test   %ecx,%ecx
    5a5a:	0f 84 68 02 00 00    	je     5cc8 <compl_get_next+0x2a8>
    5a60:	85 c0                	test   %eax,%eax
    5a62:	75 68                	jne    5acc <compl_get_next+0xac>
    5a64:	8b 01                	mov    (%ecx),%eax
    5a66:	85 c0                	test   %eax,%eax
    5a68:	75 20                	jne    5a8a <compl_get_next+0x6a>
    5a6a:	e9 bc 01 00 00       	jmp    5c2b <compl_get_next+0x20b>
    5a6f:	90                   	nop
    5a70:	8b 4f 08             	mov    0x8(%edi),%ecx
    5a73:	8b 03                	mov    (%ebx),%eax
    5a75:	85 c0                	test   %eax,%eax
    5a77:	8d 71 10             	lea    0x10(%ecx),%esi
    5a7a:	89 77 08             	mov    %esi,0x8(%edi)
    5a7d:	75 4d                	jne    5acc <compl_get_next+0xac>
    5a7f:	8b 41 10             	mov    0x10(%ecx),%eax
    5a82:	85 c0                	test   %eax,%eax
    5a84:	0f 84 a1 01 00 00    	je     5c2b <compl_get_next+0x20b>
    5a8a:	52                   	push   %edx
    5a8b:	8b 4f 04             	mov    0x4(%edi),%ecx
    5a8e:	8b 37                	mov    (%edi),%esi
    5a90:	51                   	push   %ecx
    5a91:	56                   	push   %esi
    5a92:	50                   	push   %eax
    5a93:	e8 58 79 00 00       	call   d3f0 <str_lcmp@plt>
    5a98:	83 c4 10             	add    $0x10,%esp
    5a9b:	85 c0                	test   %eax,%eax
    5a9d:	75 d1                	jne    5a70 <compl_get_next+0x50>
    5a9f:	50                   	push   %eax
    5aa0:	8b 47 08             	mov    0x8(%edi),%eax
    5aa3:	8b 00                	mov    (%eax),%eax
    5aa5:	50                   	push   %eax
    5aa6:	68 2b c0 00 00       	push   $0xc02b
    5aab:	53                   	push   %ebx
    5aac:	e8 ef 78 00 00       	call   d3a0 <asprintf@plt>
    5ab1:	8b 03                	mov    (%ebx),%eax
    5ab3:	83 c4 10             	add    $0x10,%esp
    5ab6:	89 47 1c             	mov    %eax,0x1c(%edi)
    5ab9:	8b 03                	mov    (%ebx),%eax
    5abb:	85 c0                	test   %eax,%eax
    5abd:	0f 84 54 01 00 00    	je     5c17 <compl_get_next+0x1f7>
    5ac3:	8b 4f 08             	mov    0x8(%edi),%ecx
    5ac6:	83 c1 10             	add    $0x10,%ecx
    5ac9:	89 4f 08             	mov    %ecx,0x8(%edi)
    5acc:	8b 57 10             	mov    0x10(%edi),%edx
    5acf:	85 d2                	test   %edx,%edx
    5ad1:	0f 84 b3 00 00 00    	je     5b8a <compl_get_next+0x16a>
    5ad7:	90                   	nop
    5ad8:	85 c0                	test   %eax,%eax
    5ada:	0f 85 aa 00 00 00    	jne    5b8a <compl_get_next+0x16a>
    5ae0:	8b 47 18             	mov    0x18(%edi),%eax
    5ae3:	85 c0                	test   %eax,%eax
    5ae5:	75 24                	jne    5b0b <compl_get_next+0xeb>
    5ae7:	8b 47 10             	mov    0x10(%edi),%eax
    5aea:	8b 00                	mov    (%eax),%eax
    5aec:	85 c0                	test   %eax,%eax
    5aee:	0f 84 94 00 00 00    	je     5b88 <compl_get_next+0x168>
    5af4:	83 ec 0c             	sub    $0xc,%esp
    5af7:	50                   	push   %eax
    5af8:	e8 63 78 00 00       	call   d360 <opendir@plt>
    5afd:	83 c4 10             	add    $0x10,%esp
    5b00:	89 47 18             	mov    %eax,0x18(%edi)
    5b03:	85 c0                	test   %eax,%eax
    5b05:	0f 84 95 00 00 00    	je     5ba0 <compl_get_next+0x180>
    5b0b:	83 ec 0c             	sub    $0xc,%esp
    5b0e:	50                   	push   %eax
    5b0f:	e8 1c 76 00 00       	call   d130 <readdir@plt>
    5b14:	83 c4 10             	add    $0x10,%esp
    5b17:	89 c6                	mov    %eax,%esi
    5b19:	85 c0                	test   %eax,%eax
    5b1b:	0f 84 8d 00 00 00    	je     5bae <compl_get_next+0x18e>
    5b21:	50                   	push   %eax
    5b22:	8b 47 04             	mov    0x4(%edi),%eax
    5b25:	50                   	push   %eax
    5b26:	8b 07                	mov    (%edi),%eax
    5b28:	50                   	push   %eax
    5b29:	56                   	push   %esi
    5b2a:	e8 c1 78 00 00       	call   d3f0 <str_lcmp@plt>
    5b2f:	83 c4 10             	add    $0x10,%esp
    5b32:	85 c0                	test   %eax,%eax
    5b34:	74 0a                	je     5b40 <compl_get_next+0x120>
    5b36:	8b 03                	mov    (%ebx),%eax
    5b38:	eb 9e                	jmp    5ad8 <compl_get_next+0xb8>
    5b3a:	8d b6 00 00 00 00    	lea    0x0(%esi),%esi
    5b40:	8b 47 10             	mov    0x10(%edi),%eax
    5b43:	56                   	push   %esi
    5b44:	8b 00                	mov    (%eax),%eax
    5b46:	50                   	push   %eax
    5b47:	8d 45 c4             	lea    -0x3c(%ebp),%eax
    5b4a:	68 32 ad 00 00       	push   $0xad32
    5b4f:	50                   	push   %eax
    5b50:	e8 4b 78 00 00       	call   d3a0 <asprintf@plt>
    5b55:	58                   	pop    %eax
    5b56:	8b 4d c4             	mov    -0x3c(%ebp),%ecx
    5b59:	8d 45 c8             	lea    -0x38(%ebp),%eax
    5b5c:	5a                   	pop    %edx
    5b5d:	50                   	push   %eax
    5b5e:	51                   	push   %ecx
    5b5f:	e8 ac 78 00 00       	call   d410 <stat@plt>
    5b64:	83 c4 10             	add    $0x10,%esp
    5b67:	85 c0                	test   %eax,%eax
    5b69:	74 69                	je     5bd4 <compl_get_next+0x1b4>
    5b6b:	83 ec 0c             	sub    $0xc,%esp
    5b6e:	8b 45 c4             	mov    -0x3c(%ebp),%eax
    5b71:	50                   	push   %eax
    5b72:	e8 99 79 00 00       	call   d510 <free@plt>
    5b77:	8b 03                	mov    (%ebx),%eax
    5b79:	83 c4 10             	add    $0x10,%esp
    5b7c:	e9 57 ff ff ff       	jmp    5ad8 <compl_get_next+0xb8>
    5b81:	8d b4 26 00 00 00 00 	lea    0x0(%esi,%eiz,1),%esi
    5b88:	8b 03                	mov    (%ebx),%eax
    5b8a:	85 c0                	test   %eax,%eax
    5b8c:	0f 94 c0             	sete   %al
    5b8f:	8d 65 f4             	lea    -0xc(%ebp),%esp
    5b92:	25 ff 00 00 00       	and    $0xff,%eax
    5b97:	f7 d8                	neg    %eax
    5b99:	5b                   	pop    %ebx
    5b9a:	5e                   	pop    %esi
    5b9b:	5f                   	pop    %edi
    5b9c:	5d                   	pop    %ebp
    5b9d:	c3                   	ret    
    5b9e:	66 90                	xchg   %ax,%ax
    5ba0:	8b 47 10             	mov    0x10(%edi),%eax
    5ba3:	83 c0 04             	add    $0x4,%eax
    5ba6:	89 47 10             	mov    %eax,0x10(%edi)
    5ba9:	e9 39 ff ff ff       	jmp    5ae7 <compl_get_next+0xc7>
    5bae:	83 ec 0c             	sub    $0xc,%esp
    5bb1:	8b 47 18             	mov    0x18(%edi),%eax
    5bb4:	50                   	push   %eax
    5bb5:	e8 26 79 00 00       	call   d4e0 <closedir@plt>
    5bba:	8b 47 10             	mov    0x10(%edi),%eax
    5bbd:	c7 47 18 00 00 00 00 	movl   $0x0,0x18(%edi)
    5bc4:	83 c0 04             	add    $0x4,%eax
    5bc7:	83 c4 10             	add    $0x10,%esp
    5bca:	89 47 10             	mov    %eax,0x10(%edi)
    5bcd:	8b 03                	mov    (%ebx),%eax
    5bcf:	e9 04 ff ff ff       	jmp    5ad8 <compl_get_next+0xb8>
    5bd4:	83 ec 0c             	sub    $0xc,%esp
    5bd7:	8b 45 c4             	mov    -0x3c(%ebp),%eax
    5bda:	50                   	push   %eax
    5bdb:	e8 30 79 00 00       	call   d510 <free@plt>
    5be0:	83 c4 10             	add    $0x10,%esp
    5be3:	80 7d d9 00          	cmpb   $0x0,-0x27(%ebp)
    5be7:	74 3b                	je     5c24 <compl_get_next+0x204>
    5be9:	b8 2f 00 00 00       	mov    $0x2f,%eax
    5bee:	80 7f 20 00          	cmpb   $0x0,0x20(%edi)
    5bf2:	0f 85 3e ff ff ff    	jne    5b36 <compl_get_next+0x116>
    5bf8:	50                   	push   %eax
    5bf9:	56                   	push   %esi
    5bfa:	68 1f c7 00 00       	push   $0xc71f
    5bff:	53                   	push   %ebx
    5c00:	e8 9b 77 00 00       	call   d3a0 <asprintf@plt>
    5c05:	8b 03                	mov    (%ebx),%eax
    5c07:	89 47 1c             	mov    %eax,0x1c(%edi)
    5c0a:	83 c4 10             	add    $0x10,%esp
    5c0d:	8b 03                	mov    (%ebx),%eax
    5c0f:	85 c0                	test   %eax,%eax
    5c11:	0f 85 c1 fe ff ff    	jne    5ad8 <compl_get_next+0xb8>
    5c17:	8d 65 f4             	lea    -0xc(%ebp),%esp
    5c1a:	b8 fe ff ff ff       	mov    $0xfffffffe,%eax
    5c1f:	5b                   	pop    %ebx
    5c20:	5e                   	pop    %esi
    5c21:	5f                   	pop    %edi
    5c22:	5d                   	pop    %ebp
    5c23:	c3                   	ret    
    5c24:	b8 20 00 00 00       	mov    $0x20,%eax
    5c29:	eb cd                	jmp    5bf8 <compl_get_next+0x1d8>
    5c2b:	8b 4f 0c             	mov    0xc(%edi),%ecx
    5c2e:	85 c9                	test   %ecx,%ecx
    5c30:	0f 84 aa 00 00 00    	je     5ce0 <compl_get_next+0x2c0>
    5c36:	8b 09                	mov    (%ecx),%ecx
    5c38:	85 c9                	test   %ecx,%ecx
    5c3a:	75 2a                	jne    5c66 <compl_get_next+0x246>
    5c3c:	e9 9f 00 00 00       	jmp    5ce0 <compl_get_next+0x2c0>
    5c41:	8d b4 26 00 00 00 00 	lea    0x0(%esi,%eiz,1),%esi
    5c48:	8b 4f 0c             	mov    0xc(%edi),%ecx
    5c4b:	8b 03                	mov    (%ebx),%eax
    5c4d:	85 c0                	test   %eax,%eax
    5c4f:	8d 71 14             	lea    0x14(%ecx),%esi
    5c52:	89 77 0c             	mov    %esi,0xc(%edi)
    5c55:	0f 85 71 fe ff ff    	jne    5acc <compl_get_next+0xac>
    5c5b:	8b 49 14             	mov    0x14(%ecx),%ecx
    5c5e:	85 c9                	test   %ecx,%ecx
    5c60:	0f 84 66 fe ff ff    	je     5acc <compl_get_next+0xac>
    5c66:	50                   	push   %eax
    5c67:	8b 47 04             	mov    0x4(%edi),%eax
    5c6a:	50                   	push   %eax
    5c6b:	8b 07                	mov    (%edi),%eax
    5c6d:	50                   	push   %eax
    5c6e:	51                   	push   %ecx
    5c6f:	e8 7c 77 00 00       	call   d3f0 <str_lcmp@plt>
    5c74:	83 c4 10             	add    $0x10,%esp
    5c77:	85 c0                	test   %eax,%eax
    5c79:	75 cd                	jne    5c48 <compl_get_next+0x228>
    5c7b:	51                   	push   %ecx
    5c7c:	8b 47 0c             	mov    0xc(%edi),%eax
    5c7f:	8b 30                	mov    (%eax),%esi
    5c81:	56                   	push   %esi
    5c82:	68 2b c0 00 00       	push   $0xc02b
    5c87:	53                   	push   %ebx
    5c88:	e8 13 77 00 00       	call   d3a0 <asprintf@plt>
    5c8d:	8b 03                	mov    (%ebx),%eax
    5c8f:	83 c4 10             	add    $0x10,%esp
    5c92:	89 47 1c             	mov    %eax,0x1c(%edi)
    5c95:	8b 03                	mov    (%ebx),%eax
    5c97:	85 c0                	test   %eax,%eax
    5c99:	0f 84 78 ff ff ff    	je     5c17 <compl_get_next+0x1f7>
    5c9f:	8b 57 0c             	mov    0xc(%edi),%edx
    5ca2:	83 c2 14             	add    $0x14,%edx
    5ca5:	89 57 0c             	mov    %edx,0xc(%edi)
    5ca8:	e9 1f fe ff ff       	jmp    5acc <compl_get_next+0xac>
    5cad:	8b 4f 08             	mov    0x8(%edi),%ecx
    5cb0:	85 c9                	test   %ecx,%ecx
    5cb2:	0f 85 ac fd ff ff    	jne    5a64 <compl_get_next+0x44>
    5cb8:	8b 4f 0c             	mov    0xc(%edi),%ecx
    5cbb:	85 c9                	test   %ecx,%ecx
    5cbd:	0f 85 73 ff ff ff    	jne    5c36 <compl_get_next+0x216>
    5cc3:	e9 04 fe ff ff       	jmp    5acc <compl_get_next+0xac>
    5cc8:	8b 4f 0c             	mov    0xc(%edi),%ecx
    5ccb:	85 c9                	test   %ecx,%ecx
    5ccd:	0f 84 f9 fd ff ff    	je     5acc <compl_get_next+0xac>
    5cd3:	85 c0                	test   %eax,%eax
    5cd5:	0f 84 5b ff ff ff    	je     5c36 <compl_get_next+0x216>
    5cdb:	e9 ec fd ff ff       	jmp    5acc <compl_get_next+0xac>
    5ce0:	8b 03                	mov    (%ebx),%eax
    5ce2:	e9 e5 fd ff ff       	jmp    5acc <compl_get_next+0xac>
    5ce7:	89 f6                	mov    %esi,%esi
    5ce9:	8d bc 27 00 00 00 00 	lea    0x0(%edi,%eiz,1),%edi

00005cf0 <compl_init>:
    5cf0:	55                   	push   %ebp
    5cf1:	89 e5                	mov    %esp,%ebp
    5cf3:	57                   	push   %edi
    5cf4:	56                   	push   %esi
    5cf5:	53                   	push   %ebx
    5cf6:	83 ec 74             	sub    $0x74,%esp
    5cf9:	6a 18                	push   $0x18
    5cfb:	68 ff 03 00 00       	push   $0x3ff
    5d00:	e8 1b 75 00 00       	call   d220 <calloc@plt>
    5d05:	83 c4 10             	add    $0x10,%esp
    5d08:	89 c6                	mov    %eax,%esi
    5d0a:	85 c0                	test   %eax,%eax
    5d0c:	0f 84 1e 01 00 00    	je     5e30 <compl_init+0x140>
    5d12:	50                   	push   %eax
    5d13:	50                   	push   %eax
    5d14:	6a 24                	push   $0x24
    5d16:	6a 01                	push   $0x1
    5d18:	e8 03 75 00 00       	call   d220 <calloc@plt>
    5d1d:	83 c4 10             	add    $0x10,%esp
    5d20:	89 c3                	mov    %eax,%ebx
    5d22:	85 c0                	test   %eax,%eax
    5d24:	0f 84 06 01 00 00    	je     5e30 <compl_init+0x140>
    5d2a:	83 ec 0c             	sub    $0xc,%esp
    5d2d:	8b 45 08             	mov    0x8(%ebp),%eax
    5d30:	50                   	push   %eax
    5d31:	e8 0a 76 00 00       	call   d340 <wstr_to_astr@plt>
    5d36:	83 c4 10             	add    $0x10,%esp
    5d39:	89 45 9c             	mov    %eax,-0x64(%ebp)
    5d3c:	85 c0                	test   %eax,%eax
    5d3e:	0f 84 04 01 00 00    	je     5e48 <compl_init+0x158>
    5d44:	8d 7d b4             	lea    -0x4c(%ebp),%edi
    5d47:	68 ff 03 00 00       	push   $0x3ff
    5d4c:	56                   	push   %esi
    5d4d:	50                   	push   %eax
    5d4e:	57                   	push   %edi
    5d4f:	e8 4c 10 00 00       	call   6da0 <tok_init>
    5d54:	83 c4 10             	add    $0x10,%esp
    5d57:	89 45 a0             	mov    %eax,-0x60(%ebp)
    5d5a:	85 c0                	test   %eax,%eax
    5d5c:	0f 84 06 01 00 00    	je     5e68 <compl_init+0x178>
    5d62:	c7 45 a4 00 00 00 00 	movl   $0x0,-0x5c(%ebp)
    5d69:	c7 45 98 00 00 00 00 	movl   $0x0,-0x68(%ebp)
    5d70:	83 ec 0c             	sub    $0xc,%esp
    5d73:	57                   	push   %edi
    5d74:	e8 a7 10 00 00       	call   6e20 <tok_fini>
    5d79:	8b 53 14             	mov    0x14(%ebx),%edx
    5d7c:	83 c4 10             	add    $0x10,%esp
    5d7f:	85 d2                	test   %edx,%edx
    5d81:	74 32                	je     5db5 <compl_init+0xc5>
    5d83:	8b 02                	mov    (%edx),%eax
    5d85:	bf 04 00 00 00       	mov    $0x4,%edi
    5d8a:	85 c0                	test   %eax,%eax
    5d8c:	74 1b                	je     5da9 <compl_init+0xb9>
    5d8e:	66 90                	xchg   %ax,%ax
    5d90:	83 ec 0c             	sub    $0xc,%esp
    5d93:	50                   	push   %eax
    5d94:	e8 77 77 00 00       	call   d510 <free@plt>
    5d99:	8b 53 14             	mov    0x14(%ebx),%edx
    5d9c:	83 c4 10             	add    $0x10,%esp
    5d9f:	8b 04 3a             	mov    (%edx,%edi,1),%eax
    5da2:	83 c7 04             	add    $0x4,%edi
    5da5:	85 c0                	test   %eax,%eax
    5da7:	75 e7                	jne    5d90 <compl_init+0xa0>
    5da9:	83 ec 0c             	sub    $0xc,%esp
    5dac:	52                   	push   %edx
    5dad:	e8 5e 77 00 00       	call   d510 <free@plt>
    5db2:	83 c4 10             	add    $0x10,%esp
    5db5:	8b 03                	mov    (%ebx),%eax
    5db7:	85 c0                	test   %eax,%eax
    5db9:	74 0c                	je     5dc7 <compl_init+0xd7>
    5dbb:	83 ec 0c             	sub    $0xc,%esp
    5dbe:	50                   	push   %eax
    5dbf:	e8 4c 77 00 00       	call   d510 <free@plt>
    5dc4:	83 c4 10             	add    $0x10,%esp
    5dc7:	8b 45 a4             	mov    -0x5c(%ebp),%eax
    5dca:	85 c0                	test   %eax,%eax
    5dcc:	74 0c                	je     5dda <compl_init+0xea>
    5dce:	83 ec 0c             	sub    $0xc,%esp
    5dd1:	50                   	push   %eax
    5dd2:	e8 39 77 00 00       	call   d510 <free@plt>
    5dd7:	83 c4 10             	add    $0x10,%esp
    5dda:	8b 45 98             	mov    -0x68(%ebp),%eax
    5ddd:	85 c0                	test   %eax,%eax
    5ddf:	74 0c                	je     5ded <compl_init+0xfd>
    5de1:	83 ec 0c             	sub    $0xc,%esp
    5de4:	50                   	push   %eax
    5de5:	e8 26 77 00 00       	call   d510 <free@plt>
    5dea:	83 c4 10             	add    $0x10,%esp
    5ded:	8b 45 9c             	mov    -0x64(%ebp),%eax
    5df0:	85 c0                	test   %eax,%eax
    5df2:	74 13                	je     5e07 <compl_init+0x117>
    5df4:	83 ec 0c             	sub    $0xc,%esp
    5df7:	8b 4d 9c             	mov    -0x64(%ebp),%ecx
    5dfa:	51                   	push   %ecx
    5dfb:	e8 10 77 00 00       	call   d510 <free@plt>
    5e00:	83 c4 10             	add    $0x10,%esp
    5e03:	85 db                	test   %ebx,%ebx
    5e05:	74 0c                	je     5e13 <compl_init+0x123>
    5e07:	83 ec 0c             	sub    $0xc,%esp
    5e0a:	53                   	push   %ebx
    5e0b:	e8 00 77 00 00       	call   d510 <free@plt>
    5e10:	83 c4 10             	add    $0x10,%esp
    5e13:	85 f6                	test   %esi,%esi
    5e15:	74 0c                	je     5e23 <compl_init+0x133>
    5e17:	83 ec 0c             	sub    $0xc,%esp
    5e1a:	56                   	push   %esi
    5e1b:	e8 f0 76 00 00       	call   d510 <free@plt>
    5e20:	83 c4 10             	add    $0x10,%esp
    5e23:	8b 45 a0             	mov    -0x60(%ebp),%eax
    5e26:	8d 65 f4             	lea    -0xc(%ebp),%esp
    5e29:	5b                   	pop    %ebx
    5e2a:	5e                   	pop    %esi
    5e2b:	5f                   	pop    %edi
    5e2c:	5d                   	pop    %ebp
    5e2d:	c3                   	ret    
    5e2e:	66 90                	xchg   %ax,%ax
    5e30:	83 ec 0c             	sub    $0xc,%esp
    5e33:	8d 45 b4             	lea    -0x4c(%ebp),%eax
    5e36:	50                   	push   %eax
    5e37:	e8 e4 0f 00 00       	call   6e20 <tok_fini>
    5e3c:	83 c4 10             	add    $0x10,%esp
    5e3f:	c7 45 a0 fe ff ff ff 	movl   $0xfffffffe,-0x60(%ebp)
    5e46:	eb cb                	jmp    5e13 <compl_init+0x123>
    5e48:	c7 45 a4 00 00 00 00 	movl   $0x0,-0x5c(%ebp)
    5e4f:	c7 45 98 00 00 00 00 	movl   $0x0,-0x68(%ebp)
    5e56:	c7 45 a0 fe ff ff ff 	movl   $0xfffffffe,-0x60(%ebp)
    5e5d:	8d 7d b4             	lea    -0x4c(%ebp),%edi
    5e60:	e9 0b ff ff ff       	jmp    5d70 <compl_init+0x80>
    5e65:	8d 76 00             	lea    0x0(%esi),%esi
    5e68:	50                   	push   %eax
    5e69:	50                   	push   %eax
    5e6a:	8d 45 b0             	lea    -0x50(%ebp),%eax
    5e6d:	50                   	push   %eax
    5e6e:	57                   	push   %edi
    5e6f:	e8 cc 0f 00 00       	call   6e40 <tok_tokenize>
    5e74:	83 c4 10             	add    $0x10,%esp
    5e77:	89 45 a0             	mov    %eax,-0x60(%ebp)
    5e7a:	85 c0                	test   %eax,%eax
    5e7c:	0f 85 e0 fe ff ff    	jne    5d62 <compl_init+0x72>
    5e82:	8b 45 b0             	mov    -0x50(%ebp),%eax
    5e85:	89 45 98             	mov    %eax,-0x68(%ebp)
    5e88:	83 f8 00             	cmp    $0x0,%eax
    5e8b:	0f 8e 51 02 00 00    	jle    60e2 <compl_init+0x3f2>
    5e91:	8b 46 08             	mov    0x8(%esi),%eax
    5e94:	8b 56 10             	mov    0x10(%esi),%edx
    5e97:	01 c2                	add    %eax,%edx
    5e99:	3b 55 0c             	cmp    0xc(%ebp),%edx
    5e9c:	72 12                	jb     5eb0 <compl_init+0x1c0>
    5e9e:	39 45 0c             	cmp    %eax,0xc(%ebp)
    5ea1:	72 0d                	jb     5eb0 <compl_init+0x1c0>
    5ea3:	c7 45 a4 00 00 00 00 	movl   $0x0,-0x5c(%ebp)
    5eaa:	8b 45 a4             	mov    -0x5c(%ebp),%eax
    5ead:	eb 40                	jmp    5eef <compl_init+0x1ff>
    5eaf:	90                   	nop
    5eb0:	8d 46 20             	lea    0x20(%esi),%eax
    5eb3:	c7 45 a4 00 00 00 00 	movl   $0x0,-0x5c(%ebp)
    5eba:	89 5d 94             	mov    %ebx,-0x6c(%ebp)
    5ebd:	8d 76 00             	lea    0x0(%esi),%esi
    5ec0:	8b 5d a4             	mov    -0x5c(%ebp),%ebx
    5ec3:	43                   	inc    %ebx
    5ec4:	89 5d a4             	mov    %ebx,-0x5c(%ebp)
    5ec7:	8b 4d a4             	mov    -0x5c(%ebp),%ecx
    5eca:	3b 4d 98             	cmp    -0x68(%ebp),%ecx
    5ecd:	0f 84 82 01 00 00    	je     6055 <compl_init+0x365>
    5ed3:	89 c1                	mov    %eax,%ecx
    5ed5:	8b 10                	mov    (%eax),%edx
    5ed7:	83 c0 18             	add    $0x18,%eax
    5eda:	8b 59 08             	mov    0x8(%ecx),%ebx
    5edd:	01 d3                	add    %edx,%ebx
    5edf:	3b 5d 0c             	cmp    0xc(%ebp),%ebx
    5ee2:	72 dc                	jb     5ec0 <compl_init+0x1d0>
    5ee4:	3b 55 0c             	cmp    0xc(%ebp),%edx
    5ee7:	77 d7                	ja     5ec0 <compl_init+0x1d0>
    5ee9:	8b 5d 94             	mov    -0x6c(%ebp),%ebx
    5eec:	8b 45 a4             	mov    -0x5c(%ebp),%eax
    5eef:	8d 04 40             	lea    (%eax,%eax,2),%eax
    5ef2:	c1 e0 03             	shl    $0x3,%eax
    5ef5:	89 45 8c             	mov    %eax,-0x74(%ebp)
    5ef8:	01 f0                	add    %esi,%eax
    5efa:	83 78 14 02          	cmpl   $0x2,0x14(%eax)
    5efe:	0f 84 97 01 00 00    	je     609b <compl_init+0x3ab>
    5f04:	8b 50 08             	mov    0x8(%eax),%edx
    5f07:	8b 45 0c             	mov    0xc(%ebp),%eax
    5f0a:	29 d0                	sub    %edx,%eax
    5f0c:	8b 4d 10             	mov    0x10(%ebp),%ecx
    5f0f:	89 11                	mov    %edx,(%ecx)
    5f11:	8b 4d 9c             	mov    -0x64(%ebp),%ecx
    5f14:	52                   	push   %edx
    5f15:	52                   	push   %edx
    5f16:	50                   	push   %eax
    5f17:	51                   	push   %ecx
    5f18:	e8 a3 75 00 00       	call   d4c0 <str_lsize@plt>
    5f1d:	89 45 94             	mov    %eax,-0x6c(%ebp)
    5f20:	8d 48 01             	lea    0x1(%eax),%ecx
    5f23:	89 0c 24             	mov    %ecx,(%esp)
    5f26:	89 4d 90             	mov    %ecx,-0x70(%ebp)
    5f29:	e8 b2 71 00 00       	call   d0e0 <malloc@plt>
    5f2e:	83 c4 10             	add    $0x10,%esp
    5f31:	89 45 98             	mov    %eax,-0x68(%ebp)
    5f34:	85 c0                	test   %eax,%eax
    5f36:	0f 84 23 01 00 00    	je     605f <compl_init+0x36f>
    5f3c:	8b 55 94             	mov    -0x6c(%ebp),%edx
    5f3f:	c6 04 10 00          	movb   $0x0,(%eax,%edx,1)
    5f43:	8b 45 a4             	mov    -0x5c(%ebp),%eax
    5f46:	85 c0                	test   %eax,%eax
    5f48:	78 1e                	js     5f68 <compl_init+0x278>
    5f4a:	52                   	push   %edx
    5f4b:	8b 55 8c             	mov    -0x74(%ebp),%edx
    5f4e:	8b 4d 9c             	mov    -0x64(%ebp),%ecx
    5f51:	8b 44 16 04          	mov    0x4(%esi,%edx,1),%eax
    5f55:	01 c1                	add    %eax,%ecx
    5f57:	8b 45 98             	mov    -0x68(%ebp),%eax
    5f5a:	51                   	push   %ecx
    5f5b:	8b 4d 90             	mov    -0x70(%ebp),%ecx
    5f5e:	51                   	push   %ecx
    5f5f:	50                   	push   %eax
    5f60:	e8 4b 75 00 00       	call   d4b0 <str_ncpy@plt>
    5f65:	83 c4 10             	add    $0x10,%esp
    5f68:	8b 45 a4             	mov    -0x5c(%ebp),%eax
    5f6b:	48                   	dec    %eax
    5f6c:	0f 88 22 01 00 00    	js     6094 <compl_init+0x3a4>
    5f72:	8d 04 40             	lea    (%eax,%eax,2),%eax
    5f75:	c1 e0 03             	shl    $0x3,%eax
    5f78:	8b 54 06 14          	mov    0x14(%esi,%eax,1),%edx
    5f7c:	83 fa 02             	cmp    $0x2,%edx
    5f7f:	0f 84 20 01 00 00    	je     60a5 <compl_init+0x3b5>
    5f85:	83 fa 02             	cmp    $0x2,%edx
    5f88:	0f 94 c0             	sete   %al
    5f8b:	88 43 20             	mov    %al,0x20(%ebx)
    5f8e:	50                   	push   %eax
    5f8f:	50                   	push   %eax
    5f90:	8b 45 98             	mov    -0x68(%ebp),%eax
    5f93:	6a 2f                	push   $0x2f
    5f95:	50                   	push   %eax
    5f96:	e8 55 71 00 00       	call   d0f0 <str_rchr@plt>
    5f9b:	83 c4 10             	add    $0x10,%esp
    5f9e:	89 c2                	mov    %eax,%edx
    5fa0:	85 c0                	test   %eax,%eax
    5fa2:	0f 84 ca 00 00 00    	je     6072 <compl_init+0x382>
    5fa8:	51                   	push   %ecx
    5fa9:	51                   	push   %ecx
    5faa:	8b 4d 98             	mov    -0x68(%ebp),%ecx
    5fad:	29 c8                	sub    %ecx,%eax
    5faf:	85 c0                	test   %eax,%eax
    5fb1:	0f 8e 0e 01 00 00    	jle    60c5 <compl_init+0x3d5>
    5fb7:	50                   	push   %eax
    5fb8:	8b 45 98             	mov    -0x68(%ebp),%eax
    5fbb:	50                   	push   %eax
    5fbc:	89 55 94             	mov    %edx,-0x6c(%ebp)
    5fbf:	e8 dc 70 00 00       	call   d0a0 <str_ndup@plt>
    5fc4:	83 c4 10             	add    $0x10,%esp
    5fc7:	89 45 a4             	mov    %eax,-0x5c(%ebp)
    5fca:	85 c0                	test   %eax,%eax
    5fcc:	0f 84 94 00 00 00    	je     6066 <compl_init+0x376>
    5fd2:	83 ec 0c             	sub    $0xc,%esp
    5fd5:	8b 55 94             	mov    -0x6c(%ebp),%edx
    5fd8:	42                   	inc    %edx
    5fd9:	52                   	push   %edx
    5fda:	89 55 94             	mov    %edx,-0x6c(%ebp)
    5fdd:	e8 9e 72 00 00       	call   d280 <str_dup@plt>
    5fe2:	83 c4 10             	add    $0x10,%esp
    5fe5:	89 03                	mov    %eax,(%ebx)
    5fe7:	85 c0                	test   %eax,%eax
    5fe9:	74 7b                	je     6066 <compl_init+0x376>
    5feb:	8b 4d 98             	mov    -0x68(%ebp),%ecx
    5fee:	8b 55 94             	mov    -0x6c(%ebp),%edx
    5ff1:	29 ca                	sub    %ecx,%edx
    5ff3:	83 ec 0c             	sub    $0xc,%esp
    5ff6:	89 d0                	mov    %edx,%eax
    5ff8:	8b 55 10             	mov    0x10(%ebp),%edx
    5ffb:	01 02                	add    %eax,(%edx)
    5ffd:	51                   	push   %ecx
    5ffe:	e8 0d 75 00 00       	call   d510 <free@plt>
    6003:	c7 04 24 08 00 00 00 	movl   $0x8,(%esp)
    600a:	e8 d1 70 00 00       	call   d0e0 <malloc@plt>
    600f:	83 c4 10             	add    $0x10,%esp
    6012:	89 43 14             	mov    %eax,0x14(%ebx)
    6015:	85 c0                	test   %eax,%eax
    6017:	0f 84 b2 00 00 00    	je     60cf <compl_init+0x3df>
    601d:	8b 75 a4             	mov    -0x5c(%ebp),%esi
    6020:	c7 40 04 00 00 00 00 	movl   $0x0,0x4(%eax)
    6027:	89 30                	mov    %esi,(%eax)
    6029:	89 43 10             	mov    %eax,0x10(%ebx)
    602c:	8b 03                	mov    (%ebx),%eax
    602e:	89 45 98             	mov    %eax,-0x68(%ebp)
    6031:	83 ec 0c             	sub    $0xc,%esp
    6034:	8b 75 98             	mov    -0x68(%ebp),%esi
    6037:	56                   	push   %esi
    6038:	e8 a3 73 00 00       	call   d3e0 <str_length@plt>
    603d:	89 43 04             	mov    %eax,0x4(%ebx)
    6040:	89 3c 24             	mov    %edi,(%esp)
    6043:	e8 d8 0d 00 00       	call   6e20 <tok_fini>
    6048:	8b 45 14             	mov    0x14(%ebp),%eax
    604b:	83 c4 10             	add    $0x10,%esp
    604e:	89 18                	mov    %ebx,(%eax)
    6050:	e9 ce fd ff ff       	jmp    5e23 <compl_init+0x133>
    6055:	8b 5d 94             	mov    -0x6c(%ebp),%ebx
    6058:	89 c8                	mov    %ecx,%eax
    605a:	e9 90 fe ff ff       	jmp    5eef <compl_init+0x1ff>
    605f:	c7 45 a4 00 00 00 00 	movl   $0x0,-0x5c(%ebp)
    6066:	c7 45 a0 fe ff ff ff 	movl   $0xfffffffe,-0x60(%ebp)
    606d:	e9 fe fc ff ff       	jmp    5d70 <compl_init+0x80>
    6072:	80 7b 20 00          	cmpb   $0x0,0x20(%ebx)
    6076:	74 3c                	je     60b4 <compl_init+0x3c4>
    6078:	8b 45 98             	mov    -0x68(%ebp),%eax
    607b:	c7 43 08 40 f3 00 00 	movl   $0xf340,0x8(%ebx)
    6082:	c7 43 0c e0 f2 00 00 	movl   $0xf2e0,0xc(%ebx)
    6089:	89 03                	mov    %eax,(%ebx)
    608b:	c7 43 10 bc f6 00 00 	movl   $0xf6bc,0x10(%ebx)
    6092:	eb 9d                	jmp    6031 <compl_init+0x341>
    6094:	b0 01                	mov    $0x1,%al
    6096:	e9 f0 fe ff ff       	jmp    5f8b <compl_init+0x29b>
    609b:	8b 55 0c             	mov    0xc(%ebp),%edx
    609e:	31 c0                	xor    %eax,%eax
    60a0:	e9 67 fe ff ff       	jmp    5f0c <compl_init+0x21c>
    60a5:	83 7d a4 01          	cmpl   $0x1,-0x5c(%ebp)
    60a9:	7e e9                	jle    6094 <compl_init+0x3a4>
    60ab:	8b 54 06 fc          	mov    -0x4(%esi,%eax,1),%edx
    60af:	e9 d1 fe ff ff       	jmp    5f85 <compl_init+0x295>
    60b4:	8b 45 98             	mov    -0x68(%ebp),%eax
    60b7:	c7 43 10 a8 f6 00 00 	movl   $0xf6a8,0x10(%ebx)
    60be:	89 03                	mov    %eax,(%ebx)
    60c0:	e9 6c ff ff ff       	jmp    6031 <compl_init+0x341>
    60c5:	b8 01 00 00 00       	mov    $0x1,%eax
    60ca:	e9 e8 fe ff ff       	jmp    5fb7 <compl_init+0x2c7>
    60cf:	c7 45 a0 fe ff ff ff 	movl   $0xfffffffe,-0x60(%ebp)
    60d6:	c7 45 98 00 00 00 00 	movl   $0x0,-0x68(%ebp)
    60dd:	e9 8e fc ff ff       	jmp    5d70 <compl_init+0x80>
    60e2:	0f 85 bb fd ff ff    	jne    5ea3 <compl_init+0x1b3>
    60e8:	8b 45 10             	mov    0x10(%ebp),%eax
    60eb:	8b 4d 0c             	mov    0xc(%ebp),%ecx
    60ee:	89 08                	mov    %ecx,(%eax)
    60f0:	52                   	push   %edx
    60f1:	52                   	push   %edx
    60f2:	6a 00                	push   $0x0
    60f4:	ff 75 9c             	pushl  -0x64(%ebp)
    60f7:	e8 c4 73 00 00       	call   d4c0 <str_lsize@plt>
    60fc:	89 c2                	mov    %eax,%edx
    60fe:	8d 40 01             	lea    0x1(%eax),%eax
    6101:	89 55 a4             	mov    %edx,-0x5c(%ebp)
    6104:	89 04 24             	mov    %eax,(%esp)
    6107:	e8 d4 6f 00 00       	call   d0e0 <malloc@plt>
    610c:	83 c4 10             	add    $0x10,%esp
    610f:	89 45 98             	mov    %eax,-0x68(%ebp)
    6112:	85 c0                	test   %eax,%eax
    6114:	8b 55 a4             	mov    -0x5c(%ebp),%edx
    6117:	0f 84 42 ff ff ff    	je     605f <compl_init+0x36f>
    611d:	8b 45 98             	mov    -0x68(%ebp),%eax
    6120:	c7 45 a4 ff ff ff ff 	movl   $0xffffffff,-0x5c(%ebp)
    6127:	c6 04 10 00          	movb   $0x0,(%eax,%edx,1)
    612b:	e9 38 fe ff ff       	jmp    5f68 <compl_init+0x278>

00006130 <cli_error>:
    6130:	55                   	push   %ebp
    6131:	89 e5                	mov    %esp,%ebp
    6133:	53                   	push   %ebx
    6134:	83 ec 0c             	sub    $0xc,%esp
    6137:	8b 5d 08             	mov    0x8(%ebp),%ebx
    613a:	8d 45 10             	lea    0x10(%ebp),%eax
    613d:	8b 4d 0c             	mov    0xc(%ebp),%ecx
    6140:	50                   	push   %eax
    6141:	51                   	push   %ecx
    6142:	e8 09 71 00 00       	call   d250 <vprintf@plt>
    6147:	8b 04 9d e0 c7 00 00 	mov    0xc7e0(,%ebx,4),%eax
    614e:	83 c4 10             	add    $0x10,%esp
    6151:	85 c0                	test   %eax,%eax
    6153:	74 23                	je     6178 <cli_error+0x48>
    6155:	52                   	push   %edx
    6156:	52                   	push   %edx
    6157:	50                   	push   %eax
    6158:	68 24 c7 00 00       	push   $0xc724
    615d:	e8 8e 6e 00 00       	call   cff0 <printf@plt>
    6162:	83 c4 10             	add    $0x10,%esp
    6165:	43                   	inc    %ebx
    6166:	75 0a                	jne    6172 <cli_error+0x42>
    6168:	c7 05 14 fb 00 00 01 	movl   $0x1,0xfb14
    616f:	00 00 00 
    6172:	8b 5d fc             	mov    -0x4(%ebp),%ebx
    6175:	c9                   	leave  
    6176:	c3                   	ret    
    6177:	90                   	nop
    6178:	50                   	push   %eax
    6179:	50                   	push   %eax
    617a:	53                   	push   %ebx
    617b:	68 2b c7 00 00       	push   $0xc72b
    6180:	e8 6b 6e 00 00       	call   cff0 <printf@plt>
    6185:	83 c4 10             	add    $0x10,%esp
    6188:	eb db                	jmp    6165 <cli_error+0x35>
    618a:	66 90                	xchg   %ax,%ax
    618c:	66 90                	xchg   %ax,%ax
    618e:	66 90                	xchg   %ax,%ax

00006190 <process_input>:
    6190:	55                   	push   %ebp
    6191:	89 e5                	mov    %esp,%ebp
    6193:	57                   	push   %edi
    6194:	56                   	push   %esi
    6195:	53                   	push   %ebx
    6196:	81 ec 84 10 00 00    	sub    $0x1084,%esp
    619c:	6a 18                	push   $0x18
    619e:	68 ff 03 00 00       	push   $0x3ff
    61a3:	e8 78 70 00 00       	call   d220 <calloc@plt>
    61a8:	83 c4 10             	add    $0x10,%esp
    61ab:	85 c0                	test   %eax,%eax
    61ad:	0f 84 cc 04 00 00    	je     667f <process_input+0x4ef>
    61b3:	89 c6                	mov    %eax,%esi
    61b5:	8b 45 08             	mov    0x8(%ebp),%eax
    61b8:	8b 40 04             	mov    0x4(%eax),%eax
    61bb:	85 c0                	test   %eax,%eax
    61bd:	0f 84 d5 00 00 00    	je     6298 <process_input+0x108>
    61c3:	8d bd b8 ef ff ff    	lea    -0x1048(%ebp),%edi
    61c9:	68 ff 03 00 00       	push   $0x3ff
    61ce:	56                   	push   %esi
    61cf:	50                   	push   %eax
    61d0:	57                   	push   %edi
    61d1:	e8 ca 0b 00 00       	call   6da0 <tok_init>
    61d6:	83 c4 10             	add    $0x10,%esp
    61d9:	89 c3                	mov    %eax,%ebx
    61db:	85 c0                	test   %eax,%eax
    61dd:	74 41                	je     6220 <process_input+0x90>
    61df:	8b 45 08             	mov    0x8(%ebp),%eax
    61e2:	8b 40 04             	mov    0x4(%eax),%eax
    61e5:	85 c0                	test   %eax,%eax
    61e7:	74 16                	je     61ff <process_input+0x6f>
    61e9:	83 ec 0c             	sub    $0xc,%esp
    61ec:	50                   	push   %eax
    61ed:	e8 1e 73 00 00       	call   d510 <free@plt>
    61f2:	8b 45 08             	mov    0x8(%ebp),%eax
    61f5:	83 c4 10             	add    $0x10,%esp
    61f8:	c7 40 04 00 00 00 00 	movl   $0x0,0x4(%eax)
    61ff:	83 ec 0c             	sub    $0xc,%esp
    6202:	57                   	push   %edi
    6203:	e8 18 0c 00 00       	call   6e20 <tok_fini>
    6208:	89 34 24             	mov    %esi,(%esp)
    620b:	e8 00 73 00 00       	call   d510 <free@plt>
    6210:	83 c4 10             	add    $0x10,%esp
    6213:	8d 65 f4             	lea    -0xc(%ebp),%esp
    6216:	89 d8                	mov    %ebx,%eax
    6218:	5b                   	pop    %ebx
    6219:	5e                   	pop    %esi
    621a:	5f                   	pop    %edi
    621b:	5d                   	pop    %ebp
    621c:	c3                   	ret    
    621d:	8d 76 00             	lea    0x0(%esi),%esi
    6220:	50                   	push   %eax
    6221:	50                   	push   %eax
    6222:	8d 85 a0 ef ff ff    	lea    -0x1060(%ebp),%eax
    6228:	50                   	push   %eax
    6229:	57                   	push   %edi
    622a:	e8 11 0c 00 00       	call   6e40 <tok_tokenize>
    622f:	83 c4 10             	add    $0x10,%esp
    6232:	89 c3                	mov    %eax,%ebx
    6234:	85 c0                	test   %eax,%eax
    6236:	75 a7                	jne    61df <process_input+0x4f>
    6238:	8b 8d a0 ef ff ff    	mov    -0x1060(%ebp),%ecx
    623e:	85 c9                	test   %ecx,%ecx
    6240:	74 76                	je     62b8 <process_input+0x128>
    6242:	83 7e 14 02          	cmpl   $0x2,0x14(%esi)
    6246:	0f 84 c6 01 00 00    	je     6412 <process_input+0x282>
    624c:	8d 04 49             	lea    (%ecx,%ecx,2),%eax
    624f:	89 b5 94 ef ff ff    	mov    %esi,-0x106c(%ebp)
    6255:	83 7c c6 fc 02       	cmpl   $0x2,-0x4(%esi,%eax,8)
    625a:	0f 84 d8 01 00 00    	je     6438 <process_input+0x2a8>
    6260:	8b 85 94 ef ff ff    	mov    -0x106c(%ebp),%eax
    6266:	31 d2                	xor    %edx,%edx
    6268:	83 c0 14             	add    $0x14,%eax
    626b:	31 db                	xor    %ebx,%ebx
    626d:	eb 0d                	jmp    627c <process_input+0xec>
    626f:	90                   	nop
    6270:	43                   	inc    %ebx
    6271:	83 c0 18             	add    $0x18,%eax
    6274:	39 cb                	cmp    %ecx,%ebx
    6276:	0f 84 e4 01 00 00    	je     6460 <process_input+0x2d0>
    627c:	83 38 01             	cmpl   $0x1,(%eax)
    627f:	75 ef                	jne    6270 <process_input+0xe0>
    6281:	83 fa 01             	cmp    $0x1,%edx
    6284:	0f 87 3e 01 00 00    	ja     63c8 <process_input+0x238>
    628a:	89 9c 95 a4 ef ff ff 	mov    %ebx,-0x105c(%ebp,%edx,4)
    6291:	42                   	inc    %edx
    6292:	eb dc                	jmp    6270 <process_input+0xe0>
    6294:	8d 74 26 00          	lea    0x0(%esi,%eiz,1),%esi
    6298:	83 ec 0c             	sub    $0xc,%esp
    629b:	bb 01 00 00 00       	mov    $0x1,%ebx
    62a0:	56                   	push   %esi
    62a1:	e8 6a 72 00 00       	call   d510 <free@plt>
    62a6:	83 c4 10             	add    $0x10,%esp
    62a9:	8d 65 f4             	lea    -0xc(%ebp),%esp
    62ac:	89 d8                	mov    %ebx,%eax
    62ae:	5b                   	pop    %ebx
    62af:	5e                   	pop    %esi
    62b0:	5f                   	pop    %edi
    62b1:	5d                   	pop    %ebp
    62b2:	c3                   	ret    
    62b3:	90                   	nop
    62b4:	8d 74 26 00          	lea    0x0(%esi,%eiz,1),%esi
    62b8:	c7 85 8c ef ff ff 00 	movl   $0x0,-0x1074(%ebp)
    62bf:	00 00 00 
    62c2:	c7 85 90 ef ff ff 00 	movl   $0x0,-0x1070(%ebp)
    62c9:	00 00 00 
    62cc:	31 c9                	xor    %ecx,%ecx
    62ce:	c7 84 8d ec ef ff ff 	movl   $0x0,-0x1014(%ebp,%ecx,4)
    62d5:	00 00 00 00 
    62d9:	8b 85 ec ef ff ff    	mov    -0x1014(%ebp),%eax
    62df:	85 c0                	test   %eax,%eax
    62e1:	0f 84 e1 00 00 00    	je     63c8 <process_input+0x238>
    62e7:	8b 15 50 f8 00 00    	mov    0xf850,%edx
    62ed:	89 95 ac ef ff ff    	mov    %edx,-0x1054(%ebp)
    62f3:	8b 15 40 f8 00 00    	mov    0xf840,%edx
    62f9:	89 95 b0 ef ff ff    	mov    %edx,-0x1050(%ebp)
    62ff:	8b 15 60 f8 00 00    	mov    0xf860,%edx
    6305:	89 95 b4 ef ff ff    	mov    %edx,-0x104c(%ebp)
    630b:	8b 95 90 ef ff ff    	mov    -0x1070(%ebp),%edx
    6311:	85 d2                	test   %edx,%edx
    6313:	0f 84 c5 02 00 00    	je     65de <process_input+0x44e>
    6319:	50                   	push   %eax
    631a:	50                   	push   %eax
    631b:	68 ed b3 00 00       	push   $0xb3ed
    6320:	52                   	push   %edx
    6321:	e8 fa 6f 00 00       	call   d320 <fopen@plt>
    6326:	83 c4 10             	add    $0x10,%esp
    6329:	89 c1                	mov    %eax,%ecx
    632b:	85 c0                	test   %eax,%eax
    632d:	0f 84 46 04 00 00    	je     6779 <process_input+0x5e9>
    6333:	8b 9d 8c ef ff ff    	mov    -0x1074(%ebp),%ebx
    6339:	89 85 ac ef ff ff    	mov    %eax,-0x1054(%ebp)
    633f:	85 db                	test   %ebx,%ebx
    6341:	0f 84 9f 03 00 00    	je     66e6 <process_input+0x556>
    6347:	8b 95 8c ef ff ff    	mov    -0x1074(%ebp),%edx
    634d:	89 85 94 ef ff ff    	mov    %eax,-0x106c(%ebp)
    6353:	50                   	push   %eax
    6354:	50                   	push   %eax
    6355:	68 c3 a7 00 00       	push   $0xa7c3
    635a:	52                   	push   %edx
    635b:	e8 c0 6f 00 00       	call   d320 <fopen@plt>
    6360:	83 c4 10             	add    $0x10,%esp
    6363:	89 c2                	mov    %eax,%edx
    6365:	85 c0                	test   %eax,%eax
    6367:	8b 8d 94 ef ff ff    	mov    -0x106c(%ebp),%ecx
    636d:	0f 84 28 04 00 00    	je     679b <process_input+0x60b>
    6373:	8b 85 ec ef ff ff    	mov    -0x1014(%ebp),%eax
    6379:	89 95 b0 ef ff ff    	mov    %edx,-0x1050(%ebp)
    637f:	85 c0                	test   %eax,%eax
    6381:	0f 85 f9 01 00 00    	jne    6580 <process_input+0x3f0>
    6387:	bb 03 00 00 00       	mov    $0x3,%ebx
    638c:	85 c9                	test   %ecx,%ecx
    638e:	74 20                	je     63b0 <process_input+0x220>
    6390:	83 ec 0c             	sub    $0xc,%esp
    6393:	89 95 94 ef ff ff    	mov    %edx,-0x106c(%ebp)
    6399:	51                   	push   %ecx
    639a:	e8 b1 6f 00 00       	call   d350 <fclose@plt>
    639f:	83 c4 10             	add    $0x10,%esp
    63a2:	8b 95 94 ef ff ff    	mov    -0x106c(%ebp),%edx
    63a8:	85 d2                	test   %edx,%edx
    63aa:	0f 84 2f fe ff ff    	je     61df <process_input+0x4f>
    63b0:	83 ec 0c             	sub    $0xc,%esp
    63b3:	52                   	push   %edx
    63b4:	e8 97 6f 00 00       	call   d350 <fclose@plt>
    63b9:	83 c4 10             	add    $0x10,%esp
    63bc:	e9 1e fe ff ff       	jmp    61df <process_input+0x4f>
    63c1:	8d b4 26 00 00 00 00 	lea    0x0(%esi,%eiz,1),%esi
    63c8:	83 ec 0c             	sub    $0xc,%esp
    63cb:	bb f5 ff ff ff       	mov    $0xfffffff5,%ebx
    63d0:	68 0c c8 00 00       	push   $0xc80c
    63d5:	e8 16 6c 00 00       	call   cff0 <printf@plt>
    63da:	c7 04 24 7c c8 00 00 	movl   $0xc87c,(%esp)
    63e1:	e8 0a 6c 00 00       	call   cff0 <printf@plt>
    63e6:	c7 04 24 1d c8 00 00 	movl   $0xc81d,(%esp)
    63ed:	e8 fe 6b 00 00       	call   cff0 <printf@plt>
    63f2:	c7 04 24 ac c8 00 00 	movl   $0xc8ac,(%esp)
    63f9:	e8 f2 6b 00 00       	call   cff0 <printf@plt>
    63fe:	c7 04 24 3a c8 00 00 	movl   $0xc83a,(%esp)
    6405:	e8 e6 6b 00 00       	call   cff0 <printf@plt>
    640a:	83 c4 10             	add    $0x10,%esp
    640d:	e9 cd fd ff ff       	jmp    61df <process_input+0x4f>
    6412:	49                   	dec    %ecx
    6413:	8d 46 18             	lea    0x18(%esi),%eax
    6416:	89 85 94 ef ff ff    	mov    %eax,-0x106c(%ebp)
    641c:	89 8d a0 ef ff ff    	mov    %ecx,-0x1060(%ebp)
    6422:	85 c9                	test   %ecx,%ecx
    6424:	0f 84 8e fe ff ff    	je     62b8 <process_input+0x128>
    642a:	8d 04 49             	lea    (%ecx,%ecx,2),%eax
    642d:	83 7c c6 14 02       	cmpl   $0x2,0x14(%esi,%eax,8)
    6432:	0f 85 28 fe ff ff    	jne    6260 <process_input+0xd0>
    6438:	49                   	dec    %ecx
    6439:	89 8d a0 ef ff ff    	mov    %ecx,-0x1060(%ebp)
    643f:	85 c9                	test   %ecx,%ecx
    6441:	0f 85 19 fe ff ff    	jne    6260 <process_input+0xd0>
    6447:	c7 85 8c ef ff ff 00 	movl   $0x0,-0x1074(%ebp)
    644e:	00 00 00 
    6451:	c7 85 90 ef ff ff 00 	movl   $0x0,-0x1070(%ebp)
    6458:	00 00 00 
    645b:	e9 6e fe ff ff       	jmp    62ce <process_input+0x13e>
    6460:	85 d2                	test   %edx,%edx
    6462:	0f 84 f8 00 00 00    	je     6560 <process_input+0x3d0>
    6468:	8b 8d a4 ef ff ff    	mov    -0x105c(%ebp),%ecx
    646e:	8d 41 fd             	lea    -0x3(%ecx),%eax
    6471:	83 f8 01             	cmp    $0x1,%eax
    6474:	0f 86 0f 02 00 00    	jbe    6689 <process_input+0x4f9>
    647a:	c7 85 88 ef ff ff 01 	movl   $0x1,-0x1078(%ebp)
    6481:	00 00 00 
    6484:	c7 85 84 ef ff ff 00 	movl   $0x0,-0x107c(%ebp)
    648b:	00 00 00 
    648e:	c7 85 90 ef ff ff 00 	movl   $0x0,-0x1070(%ebp)
    6495:	00 00 00 
    6498:	8d 43 fc             	lea    -0x4(%ebx),%eax
    649b:	39 c1                	cmp    %eax,%ecx
    649d:	0f 84 6c 01 00 00    	je     660f <process_input+0x47f>
    64a3:	8d 43 fb             	lea    -0x5(%ebx),%eax
    64a6:	39 c1                	cmp    %eax,%ecx
    64a8:	0f 85 1a ff ff ff    	jne    63c8 <process_input+0x238>
    64ae:	8d 04 5b             	lea    (%ebx,%ebx,2),%eax
    64b1:	8b 9d 94 ef ff ff    	mov    -0x106c(%ebp),%ebx
    64b7:	c1 e0 03             	shl    $0x3,%eax
    64ba:	83 7c 03 b4 02       	cmpl   $0x2,-0x4c(%ebx,%eax,1)
    64bf:	0f 85 03 ff ff ff    	jne    63c8 <process_input+0x238>
    64c5:	89 95 80 ef ff ff    	mov    %edx,-0x1080(%ebp)
    64cb:	52                   	push   %edx
    64cc:	52                   	push   %edx
    64cd:	68 5a c8 00 00       	push   $0xc85a
    64d2:	89 8d 7c ef ff ff    	mov    %ecx,-0x1084(%ebp)
    64d8:	8b 4c 03 b8          	mov    -0x48(%ebx,%eax,1),%ecx
    64dc:	51                   	push   %ecx
    64dd:	e8 1e 6e 00 00       	call   d300 <str_cmp@plt>
    64e2:	83 c4 10             	add    $0x10,%esp
    64e5:	85 c0                	test   %eax,%eax
    64e7:	0f 85 db fe ff ff    	jne    63c8 <process_input+0x238>
    64ed:	8b 85 a0 ef ff ff    	mov    -0x1060(%ebp),%eax
    64f3:	8b 95 80 ef ff ff    	mov    -0x1080(%ebp),%edx
    64f9:	3b 95 88 ef ff ff    	cmp    -0x1078(%ebp),%edx
    64ff:	8b 8d 7c ef ff ff    	mov    -0x1084(%ebp),%ecx
    6505:	8d 04 40             	lea    (%eax,%eax,2),%eax
    6508:	8b 44 c3 e8          	mov    -0x18(%ebx,%eax,8),%eax
    650c:	89 85 8c ef ff ff    	mov    %eax,-0x1074(%ebp)
    6512:	0f 85 b0 fe ff ff    	jne    63c8 <process_input+0x238>
    6518:	8b 95 84 ef ff ff    	mov    -0x107c(%ebp),%edx
    651e:	89 cb                	mov    %ecx,%ebx
    6520:	39 ca                	cmp    %ecx,%edx
    6522:	0f 83 a4 fd ff ff    	jae    62cc <process_input+0x13c>
    6528:	8b 8d 94 ef ff ff    	mov    -0x106c(%ebp),%ecx
    652e:	8d 04 52             	lea    (%edx,%edx,2),%eax
    6531:	8d 14 5b             	lea    (%ebx,%ebx,2),%edx
    6534:	8d 04 c1             	lea    (%ecx,%eax,8),%eax
    6537:	8d 14 d1             	lea    (%ecx,%edx,8),%edx
    653a:	31 c9                	xor    %ecx,%ecx
    653c:	8d 74 26 00          	lea    0x0(%esi,%eiz,1),%esi
    6540:	83 78 14 02          	cmpl   $0x2,0x14(%eax)
    6544:	74 0a                	je     6550 <process_input+0x3c0>
    6546:	8b 18                	mov    (%eax),%ebx
    6548:	89 9c 8d ec ef ff ff 	mov    %ebx,-0x1014(%ebp,%ecx,4)
    654f:	41                   	inc    %ecx
    6550:	83 c0 18             	add    $0x18,%eax
    6553:	39 c2                	cmp    %eax,%edx
    6555:	75 e9                	jne    6540 <process_input+0x3b0>
    6557:	e9 72 fd ff ff       	jmp    62ce <process_input+0x13e>
    655c:	8d 74 26 00          	lea    0x0(%esi,%eiz,1),%esi
    6560:	c7 85 8c ef ff ff 00 	movl   $0x0,-0x1074(%ebp)
    6567:	00 00 00 
    656a:	c7 85 90 ef ff ff 00 	movl   $0x0,-0x1070(%ebp)
    6571:	00 00 00 
    6574:	eb b2                	jmp    6528 <process_input+0x398>
    6576:	31 d2                	xor    %edx,%edx
    6578:	31 c9                	xor    %ecx,%ecx
    657a:	8d b6 00 00 00 00    	lea    0x0(%esi),%esi
    6580:	83 ec 0c             	sub    $0xc,%esp
    6583:	89 8d 90 ef ff ff    	mov    %ecx,-0x1070(%ebp)
    6589:	89 95 94 ef ff ff    	mov    %edx,-0x106c(%ebp)
    658f:	50                   	push   %eax
    6590:	e8 9b f2 ff ff       	call   5830 <is_builtin>
    6595:	83 c4 10             	add    $0x10,%esp
    6598:	8b 95 94 ef ff ff    	mov    -0x106c(%ebp),%edx
    659e:	85 c0                	test   %eax,%eax
    65a0:	8b 8d 90 ef ff ff    	mov    -0x1070(%ebp),%ecx
    65a6:	78 78                	js     6620 <process_input+0x490>
    65a8:	8d 9d ac ef ff ff    	lea    -0x1054(%ebp),%ebx
    65ae:	8b 55 08             	mov    0x8(%ebp),%edx
    65b1:	53                   	push   %ebx
    65b2:	8d 9d ec ef ff ff    	lea    -0x1014(%ebp),%ebx
    65b8:	52                   	push   %edx
    65b9:	53                   	push   %ebx
    65ba:	50                   	push   %eax
    65bb:	e8 70 f3 ff ff       	call   5930 <run_builtin>
    65c0:	83 c4 10             	add    $0x10,%esp
    65c3:	89 c3                	mov    %eax,%ebx
    65c5:	8b 95 94 ef ff ff    	mov    -0x106c(%ebp),%edx
    65cb:	8b 8d 90 ef ff ff    	mov    -0x1070(%ebp),%ecx
    65d1:	85 c9                	test   %ecx,%ecx
    65d3:	0f 85 b7 fd ff ff    	jne    6390 <process_input+0x200>
    65d9:	e9 ca fd ff ff       	jmp    63a8 <process_input+0x218>
    65de:	8b 95 8c ef ff ff    	mov    -0x1074(%ebp),%edx
    65e4:	85 d2                	test   %edx,%edx
    65e6:	74 8e                	je     6576 <process_input+0x3e6>
    65e8:	50                   	push   %eax
    65e9:	50                   	push   %eax
    65ea:	8b 85 8c ef ff ff    	mov    -0x1074(%ebp),%eax
    65f0:	68 c3 a7 00 00       	push   $0xa7c3
    65f5:	50                   	push   %eax
    65f6:	e8 25 6d 00 00       	call   d320 <fopen@plt>
    65fb:	83 c4 10             	add    $0x10,%esp
    65fe:	89 c2                	mov    %eax,%edx
    6600:	85 c0                	test   %eax,%eax
    6602:	0f 84 cd 01 00 00    	je     67d5 <process_input+0x645>
    6608:	31 c9                	xor    %ecx,%ecx
    660a:	e9 64 fd ff ff       	jmp    6373 <process_input+0x1e3>
    660f:	8d 04 5b             	lea    (%ebx,%ebx,2),%eax
    6612:	8b 9d 94 ef ff ff    	mov    -0x106c(%ebp),%ebx
    6618:	c1 e0 03             	shl    $0x3,%eax
    661b:	e9 a5 fe ff ff       	jmp    64c5 <process_input+0x335>
    6620:	83 ec 0c             	sub    $0xc,%esp
    6623:	8b 85 ec ef ff ff    	mov    -0x1014(%ebp),%eax
    6629:	89 8d 90 ef ff ff    	mov    %ecx,-0x1070(%ebp)
    662f:	89 95 94 ef ff ff    	mov    %edx,-0x106c(%ebp)
    6635:	50                   	push   %eax
    6636:	e8 35 f0 ff ff       	call   5670 <is_module>
    663b:	83 c4 10             	add    $0x10,%esp
    663e:	89 c3                	mov    %eax,%ebx
    6640:	85 c0                	test   %eax,%eax
    6642:	8b 95 94 ef ff ff    	mov    -0x106c(%ebp),%edx
    6648:	8b 8d 90 ef ff ff    	mov    -0x1070(%ebp),%ecx
    664e:	0f 88 e8 00 00 00    	js     673c <process_input+0x5ac>
    6654:	50                   	push   %eax
    6655:	8d 85 ac ef ff ff    	lea    -0x1054(%ebp),%eax
    665b:	50                   	push   %eax
    665c:	8d 85 ec ef ff ff    	lea    -0x1014(%ebp),%eax
    6662:	50                   	push   %eax
    6663:	53                   	push   %ebx
    6664:	e8 67 f1 ff ff       	call   57d0 <run_module>
    6669:	83 c4 10             	add    $0x10,%esp
    666c:	89 c3                	mov    %eax,%ebx
    666e:	8b 95 94 ef ff ff    	mov    -0x106c(%ebp),%edx
    6674:	8b 8d 90 ef ff ff    	mov    -0x1070(%ebp),%ecx
    667a:	e9 52 ff ff ff       	jmp    65d1 <process_input+0x441>
    667f:	bb fe ff ff ff       	mov    $0xfffffffe,%ebx
    6684:	e9 8a fb ff ff       	jmp    6213 <process_input+0x83>
    6689:	50                   	push   %eax
    668a:	50                   	push   %eax
    668b:	8b 85 94 ef ff ff    	mov    -0x106c(%ebp),%eax
    6691:	68 55 c8 00 00       	push   $0xc855
    6696:	89 8d 8c ef ff ff    	mov    %ecx,-0x1074(%ebp)
    669c:	89 95 90 ef ff ff    	mov    %edx,-0x1070(%ebp)
    66a2:	8b 00                	mov    (%eax),%eax
    66a4:	50                   	push   %eax
    66a5:	e8 56 6c 00 00       	call   d300 <str_cmp@plt>
    66aa:	83 c4 10             	add    $0x10,%esp
    66ad:	8b 95 90 ef ff ff    	mov    -0x1070(%ebp),%edx
    66b3:	85 c0                	test   %eax,%eax
    66b5:	8b 8d 8c ef ff ff    	mov    -0x1074(%ebp),%ecx
    66bb:	74 43                	je     6700 <process_input+0x570>
    66bd:	8b 9d a0 ef ff ff    	mov    -0x1060(%ebp),%ebx
    66c3:	c7 85 88 ef ff ff 01 	movl   $0x1,-0x1078(%ebp)
    66ca:	00 00 00 
    66cd:	c7 85 84 ef ff ff 00 	movl   $0x0,-0x107c(%ebp)
    66d4:	00 00 00 
    66d7:	c7 85 90 ef ff ff 00 	movl   $0x0,-0x1070(%ebp)
    66de:	00 00 00 
    66e1:	e9 b2 fd ff ff       	jmp    6498 <process_input+0x308>
    66e6:	8b 85 ec ef ff ff    	mov    -0x1014(%ebp),%eax
    66ec:	31 d2                	xor    %edx,%edx
    66ee:	85 c0                	test   %eax,%eax
    66f0:	0f 85 8a fe ff ff    	jne    6580 <process_input+0x3f0>
    66f6:	bb 03 00 00 00       	mov    $0x3,%ebx
    66fb:	e9 90 fc ff ff       	jmp    6390 <process_input+0x200>
    6700:	8b 85 94 ef ff ff    	mov    -0x106c(%ebp),%eax
    6706:	83 fa 01             	cmp    $0x1,%edx
    6709:	8b 40 30             	mov    0x30(%eax),%eax
    670c:	89 85 90 ef ff ff    	mov    %eax,-0x1070(%ebp)
    6712:	8d 41 01             	lea    0x1(%ecx),%eax
    6715:	89 85 84 ef ff ff    	mov    %eax,-0x107c(%ebp)
    671b:	0f 84 be 00 00 00    	je     67df <process_input+0x64f>
    6721:	8b 8d a8 ef ff ff    	mov    -0x1058(%ebp),%ecx
    6727:	8b 9d a0 ef ff ff    	mov    -0x1060(%ebp),%ebx
    672d:	c7 85 88 ef ff ff 02 	movl   $0x2,-0x1078(%ebp)
    6734:	00 00 00 
    6737:	e9 5c fd ff ff       	jmp    6498 <process_input+0x308>
    673c:	8d 85 ac ef ff ff    	lea    -0x1054(%ebp),%eax
    6742:	89 8d 90 ef ff ff    	mov    %ecx,-0x1070(%ebp)
    6748:	8b 9d ec ef ff ff    	mov    -0x1014(%ebp),%ebx
    674e:	51                   	push   %ecx
    674f:	50                   	push   %eax
    6750:	8d 85 ec ef ff ff    	lea    -0x1014(%ebp),%eax
    6756:	50                   	push   %eax
    6757:	89 95 94 ef ff ff    	mov    %edx,-0x106c(%ebp)
    675d:	53                   	push   %ebx
    675e:	e8 4d 02 00 00       	call   69b0 <try_exec>
    6763:	83 c4 10             	add    $0x10,%esp
    6766:	89 c3                	mov    %eax,%ebx
    6768:	8b 8d 90 ef ff ff    	mov    -0x1070(%ebp),%ecx
    676e:	8b 95 94 ef ff ff    	mov    -0x106c(%ebp),%edx
    6774:	e9 58 fe ff ff       	jmp    65d1 <process_input+0x441>
    6779:	50                   	push   %eax
    677a:	50                   	push   %eax
    677b:	8b 85 90 ef ff ff    	mov    -0x1070(%ebp),%eax
    6781:	50                   	push   %eax
    6782:	68 91 c5 00 00       	push   $0xc591
    6787:	e8 64 68 00 00       	call   cff0 <printf@plt>
    678c:	e8 bf 68 00 00       	call   d050 <__errno@plt>
    6791:	83 c4 10             	add    $0x10,%esp
    6794:	8b 18                	mov    (%eax),%ebx
    6796:	e9 44 fa ff ff       	jmp    61df <process_input+0x4f>
    679b:	8b 9d 8c ef ff ff    	mov    -0x1074(%ebp),%ebx
    67a1:	89 8d 90 ef ff ff    	mov    %ecx,-0x1070(%ebp)
    67a7:	89 95 94 ef ff ff    	mov    %edx,-0x106c(%ebp)
    67ad:	51                   	push   %ecx
    67ae:	51                   	push   %ecx
    67af:	53                   	push   %ebx
    67b0:	68 91 c5 00 00       	push   $0xc591
    67b5:	e8 36 68 00 00       	call   cff0 <printf@plt>
    67ba:	e8 91 68 00 00       	call   d050 <__errno@plt>
    67bf:	83 c4 10             	add    $0x10,%esp
    67c2:	8b 95 94 ef ff ff    	mov    -0x106c(%ebp),%edx
    67c8:	8b 8d 90 ef ff ff    	mov    -0x1070(%ebp),%ecx
    67ce:	8b 18                	mov    (%eax),%ebx
    67d0:	e9 bb fb ff ff       	jmp    6390 <process_input+0x200>
    67d5:	50                   	push   %eax
    67d6:	50                   	push   %eax
    67d7:	ff b5 8c ef ff ff    	pushl  -0x1074(%ebp)
    67dd:	eb a3                	jmp    6782 <process_input+0x5f2>
    67df:	89 d9                	mov    %ebx,%ecx
    67e1:	c7 85 8c ef ff ff 00 	movl   $0x0,-0x1074(%ebp)
    67e8:	00 00 00 
    67eb:	e9 28 fd ff ff       	jmp    6518 <process_input+0x388>

000067f0 <get_input>:
    67f0:	55                   	push   %ebp
    67f1:	89 e5                	mov    %esp,%ebp
    67f3:	53                   	push   %ebx
    67f4:	83 ec 1c             	sub    $0x1c,%esp
    67f7:	8b 5d 08             	mov    0x8(%ebp),%ebx
    67fa:	8b 43 0c             	mov    0xc(%ebx),%eax
    67fd:	50                   	push   %eax
    67fe:	a1 0c fb 00 00       	mov    0xfb0c,%eax
    6803:	50                   	push   %eax
    6804:	e8 77 13 00 00       	call   7b80 <tinput_set_prompt>
    6809:	58                   	pop    %eax
    680a:	8b 0d 0c fb 00 00    	mov    0xfb0c,%ecx
    6810:	8d 45 f4             	lea    -0xc(%ebp),%eax
    6813:	5a                   	pop    %edx
    6814:	50                   	push   %eax
    6815:	51                   	push   %ecx
    6816:	e8 55 2d 00 00       	call   9570 <tinput_read>
    681b:	83 c4 10             	add    $0x10,%esp
    681e:	83 f8 ff             	cmp    $0xffffffff,%eax
    6821:	74 3d                	je     6860 <get_input+0x70>
    6823:	85 c0                	test   %eax,%eax
    6825:	74 11                	je     6838 <get_input+0x48>
    6827:	c7 05 14 fb 00 00 01 	movl   $0x1,0xfb14
    682e:	00 00 00 
    6831:	8b 5d fc             	mov    -0x4(%ebp),%ebx
    6834:	c9                   	leave  
    6835:	c3                   	ret    
    6836:	66 90                	xchg   %ax,%ax
    6838:	8b 4d f4             	mov    -0xc(%ebp),%ecx
    683b:	52                   	push   %edx
    683c:	52                   	push   %edx
    683d:	68 1c c8 00 00       	push   $0xc81c
    6842:	51                   	push   %ecx
    6843:	e8 b8 6a 00 00       	call   d300 <str_cmp@plt>
    6848:	83 c4 10             	add    $0x10,%esp
    684b:	85 c0                	test   %eax,%eax
    684d:	74 31                	je     6880 <get_input+0x90>
    684f:	8b 45 f4             	mov    -0xc(%ebp),%eax
    6852:	89 43 04             	mov    %eax,0x4(%ebx)
    6855:	8b 5d fc             	mov    -0x4(%ebp),%ebx
    6858:	c9                   	leave  
    6859:	c3                   	ret    
    685a:	8d b6 00 00 00 00    	lea    0x0(%esi),%esi
    6860:	83 ec 0c             	sub    $0xc,%esp
    6863:	c7 05 14 fb 00 00 01 	movl   $0x1,0xfb14
    686a:	00 00 00 
    686d:	6a 0a                	push   $0xa
    686f:	e8 3c 67 00 00       	call   cfb0 <putchar@plt>
    6874:	83 c4 10             	add    $0x10,%esp
    6877:	eb b8                	jmp    6831 <get_input+0x41>
    6879:	8d b4 26 00 00 00 00 	lea    0x0(%esi,%eiz,1),%esi
    6880:	83 ec 0c             	sub    $0xc,%esp
    6883:	8b 45 f4             	mov    -0xc(%ebp),%eax
    6886:	50                   	push   %eax
    6887:	e8 84 6c 00 00       	call   d510 <free@plt>
    688c:	83 c4 10             	add    $0x10,%esp
    688f:	eb a0                	jmp    6831 <get_input+0x41>
    6891:	eb 0d                	jmp    68a0 <input_init>
    6893:	90                   	nop
    6894:	90                   	nop
    6895:	90                   	nop
    6896:	90                   	nop
    6897:	90                   	nop
    6898:	90                   	nop
    6899:	90                   	nop
    689a:	90                   	nop
    689b:	90                   	nop
    689c:	90                   	nop
    689d:	90                   	nop
    689e:	90                   	nop
    689f:	90                   	nop

000068a0 <input_init>:
    68a0:	55                   	push   %ebp
    68a1:	89 e5                	mov    %esp,%ebp
    68a3:	83 ec 08             	sub    $0x8,%esp
    68a6:	e8 45 12 00 00       	call   7af0 <tinput_new>
    68ab:	a3 0c fb 00 00       	mov    %eax,0xfb0c
    68b0:	85 c0                	test   %eax,%eax
    68b2:	74 14                	je     68c8 <input_init+0x28>
    68b4:	52                   	push   %edx
    68b5:	52                   	push   %edx
    68b6:	68 b0 f6 00 00       	push   $0xf6b0
    68bb:	50                   	push   %eax
    68bc:	e8 ff 12 00 00       	call   7bc0 <tinput_set_compl_ops>
    68c1:	83 c4 10             	add    $0x10,%esp
    68c4:	31 c0                	xor    %eax,%eax
    68c6:	c9                   	leave  
    68c7:	c3                   	ret    
    68c8:	83 ec 0c             	sub    $0xc,%esp
    68cb:	68 5d c8 00 00       	push   $0xc85d
    68d0:	e8 1b 67 00 00       	call   cff0 <printf@plt>
    68d5:	83 c4 10             	add    $0x10,%esp
    68d8:	b8 01 00 00 00       	mov    $0x1,%eax
    68dd:	c9                   	leave  
    68de:	c3                   	ret    
    68df:	90                   	nop

000068e0 <cli_count_args>:
    68e0:	55                   	push   %ebp
    68e1:	31 c0                	xor    %eax,%eax
    68e3:	89 e5                	mov    %esp,%ebp
    68e5:	8b 55 08             	mov    0x8(%ebp),%edx
    68e8:	8b 0a                	mov    (%edx),%ecx
    68ea:	85 c9                	test   %ecx,%ecx
    68ec:	74 0a                	je     68f8 <cli_count_args+0x18>
    68ee:	66 90                	xchg   %ax,%ax
    68f0:	40                   	inc    %eax
    68f1:	8b 0c 82             	mov    (%edx,%eax,4),%ecx
    68f4:	85 c9                	test   %ecx,%ecx
    68f6:	75 f8                	jne    68f0 <cli_count_args+0x10>
    68f8:	5d                   	pop    %ebp
    68f9:	c3                   	ret    
    68fa:	8d b6 00 00 00 00    	lea    0x0(%esi),%esi

00006900 <cli_set_prompt>:
    6900:	55                   	push   %ebp
    6901:	89 e5                	mov    %esp,%ebp
    6903:	53                   	push   %ebx
    6904:	83 ec 0c             	sub    $0xc,%esp
    6907:	8b 5d 08             	mov    0x8(%ebp),%ebx
    690a:	68 ff 00 00 00       	push   $0xff
    690f:	8b 43 08             	mov    0x8(%ebx),%eax
    6912:	50                   	push   %eax
    6913:	e8 b8 69 00 00       	call   d2d0 <realloc@plt>
    6918:	83 c4 10             	add    $0x10,%esp
    691b:	89 43 08             	mov    %eax,0x8(%ebx)
    691e:	85 c0                	test   %eax,%eax
    6920:	74 46                	je     6968 <cli_set_prompt+0x68>
    6922:	52                   	push   %edx
    6923:	52                   	push   %edx
    6924:	68 ff 00 00 00       	push   $0xff
    6929:	50                   	push   %eax
    692a:	e8 51 6a 00 00       	call   d380 <getcwd@plt>
    692f:	83 c4 10             	add    $0x10,%esp
    6932:	85 c0                	test   %eax,%eax
    6934:	74 5a                	je     6990 <cli_set_prompt+0x90>
    6936:	8b 43 0c             	mov    0xc(%ebx),%eax
    6939:	85 c0                	test   %eax,%eax
    693b:	74 0c                	je     6949 <cli_set_prompt+0x49>
    693d:	83 ec 0c             	sub    $0xc,%esp
    6940:	50                   	push   %eax
    6941:	e8 ca 6b 00 00       	call   d510 <free@plt>
    6946:	83 c4 10             	add    $0x10,%esp
    6949:	50                   	push   %eax
    694a:	83 c3 0c             	add    $0xc,%ebx
    694d:	8b 53 fc             	mov    -0x4(%ebx),%edx
    6950:	52                   	push   %edx
    6951:	68 f6 c8 00 00       	push   $0xc8f6
    6956:	53                   	push   %ebx
    6957:	e8 44 6a 00 00       	call   d3a0 <asprintf@plt>
    695c:	83 c4 10             	add    $0x10,%esp
    695f:	31 c0                	xor    %eax,%eax
    6961:	8b 5d fc             	mov    -0x4(%ebp),%ebx
    6964:	c9                   	leave  
    6965:	c3                   	ret    
    6966:	66 90                	xchg   %ax,%ax
    6968:	51                   	push   %ecx
    6969:	51                   	push   %ecx
    696a:	68 d7 c8 00 00       	push   $0xc8d7
    696f:	6a 04                	push   $0x4
    6971:	e8 ba f7 ff ff       	call   6130 <cli_error>
    6976:	c7 05 08 fb 00 00 04 	movl   $0x4,0xfb08
    697d:	00 00 00 
    6980:	83 c4 10             	add    $0x10,%esp
    6983:	b8 01 00 00 00       	mov    $0x1,%eax
    6988:	8b 5d fc             	mov    -0x4(%ebp),%ebx
    698b:	c9                   	leave  
    698c:	c3                   	ret    
    698d:	8d 76 00             	lea    0x0(%esi),%esi
    6990:	51                   	push   %ecx
    6991:	68 ec c8 00 00       	push   $0xc8ec
    6996:	8b 43 08             	mov    0x8(%ebx),%eax
    6999:	68 ff 00 00 00       	push   $0xff
    699e:	50                   	push   %eax
    699f:	e8 8c 66 00 00       	call   d030 <snprintf@plt>
    69a4:	83 c4 10             	add    $0x10,%esp
    69a7:	eb 8d                	jmp    6936 <cli_set_prompt+0x36>
    69a9:	66 90                	xchg   %ax,%ax
    69ab:	66 90                	xchg   %ax,%ax
    69ad:	66 90                	xchg   %ax,%ax
    69af:	90                   	nop

000069b0 <try_exec>:
    69b0:	55                   	push   %ebp
    69b1:	89 e5                	mov    %esp,%ebp
    69b3:	57                   	push   %edi
    69b4:	56                   	push   %esi
    69b5:	53                   	push   %ebx
    69b6:	81 ec 88 00 00 00    	sub    $0x88,%esp
    69bc:	8b 75 08             	mov    0x8(%ebp),%esi
    69bf:	8b 5d 10             	mov    0x10(%ebp),%ebx
    69c2:	68 ff 00 00 00       	push   $0xff
    69c7:	e8 14 67 00 00       	call   d0e0 <malloc@plt>
    69cc:	59                   	pop    %ecx
    69cd:	a3 10 fb 00 00       	mov    %eax,0xfb10
    69d2:	5f                   	pop    %edi
    69d3:	6a 10                	push   $0x10
    69d5:	56                   	push   %esi
    69d6:	e8 c5 6a 00 00       	call   d4a0 <open@plt>
    69db:	83 c4 10             	add    $0x10,%esp
    69de:	85 c0                	test   %eax,%eax
    69e0:	0f 88 7d 01 00 00    	js     6b63 <try_exec+0x1b3>
    69e6:	83 ec 0c             	sub    $0xc,%esp
    69e9:	50                   	push   %eax
    69ea:	e8 11 6b 00 00       	call   d500 <close@plt>
    69ef:	83 c4 10             	add    $0x10,%esp
    69f2:	89 f0                	mov    %esi,%eax
    69f4:	83 ec 0c             	sub    $0xc,%esp
    69f7:	50                   	push   %eax
    69f8:	e8 83 68 00 00       	call   d280 <str_dup@plt>
    69fd:	89 45 84             	mov    %eax,-0x7c(%ebp)
    6a00:	a1 10 fb 00 00       	mov    0xfb10,%eax
    6a05:	5f                   	pop    %edi
    6a06:	50                   	push   %eax
    6a07:	e8 04 6b 00 00       	call   d510 <free@plt>
    6a0c:	8b 03                	mov    (%ebx),%eax
    6a0e:	89 45 a4             	mov    %eax,-0x5c(%ebp)
    6a11:	8b 43 04             	mov    0x4(%ebx),%eax
    6a14:	89 45 a8             	mov    %eax,-0x58(%ebp)
    6a17:	8b 43 08             	mov    0x8(%ebx),%eax
    6a1a:	89 45 ac             	mov    %eax,-0x54(%ebp)
    6a1d:	8d 7d 98             	lea    -0x68(%ebp),%edi
    6a20:	83 c4 10             	add    $0x10,%esp
    6a23:	31 db                	xor    %ebx,%ebx
    6a25:	89 75 08             	mov    %esi,0x8(%ebp)
    6a28:	8b 44 9d a4          	mov    -0x5c(%ebp,%ebx,4),%eax
    6a2c:	85 c0                	test   %eax,%eax
    6a2e:	74 21                	je     6a51 <try_exec+0xa1>
    6a30:	51                   	push   %ecx
    6a31:	51                   	push   %ecx
    6a32:	57                   	push   %edi
    6a33:	50                   	push   %eax
    6a34:	e8 c7 65 00 00       	call   d000 <vfs_fhandle@plt>
    6a39:	89 fe                	mov    %edi,%esi
    6a3b:	83 c4 10             	add    $0x10,%esp
    6a3e:	85 c0                	test   %eax,%eax
    6a40:	74 02                	je     6a44 <try_exec+0x94>
    6a42:	31 f6                	xor    %esi,%esi
    6a44:	89 74 9d b0          	mov    %esi,-0x50(%ebp,%ebx,4)
    6a48:	43                   	inc    %ebx
    6a49:	83 c7 04             	add    $0x4,%edi
    6a4c:	83 fb 03             	cmp    $0x3,%ebx
    6a4f:	75 d7                	jne    6a28 <try_exec+0x78>
    6a51:	83 ec 0c             	sub    $0xc,%esp
    6a54:	8d 45 b0             	lea    -0x50(%ebp),%eax
    6a57:	c7 44 9d b0 00 00 00 	movl   $0x0,-0x50(%ebp,%ebx,4)
    6a5e:	00 
    6a5f:	8d 5d c0             	lea    -0x40(%ebp),%ebx
    6a62:	50                   	push   %eax
    6a63:	8b 45 0c             	mov    0xc(%ebp),%eax
    6a66:	50                   	push   %eax
    6a67:	8b 45 84             	mov    -0x7c(%ebp),%eax
    6a6a:	50                   	push   %eax
    6a6b:	8d 45 90             	lea    -0x70(%ebp),%eax
    6a6e:	53                   	push   %ebx
    6a6f:	8b 75 08             	mov    0x8(%ebp),%esi
    6a72:	50                   	push   %eax
    6a73:	e8 28 67 00 00       	call   d1a0 <task_spawnvf@plt>
    6a78:	83 c4 14             	add    $0x14,%esp
    6a7b:	8b 55 84             	mov    -0x7c(%ebp),%edx
    6a7e:	89 c7                	mov    %eax,%edi
    6a80:	52                   	push   %edx
    6a81:	e8 8a 6a 00 00       	call   d510 <free@plt>
    6a86:	83 c4 10             	add    $0x10,%esp
    6a89:	85 ff                	test   %edi,%edi
    6a8b:	75 53                	jne    6ae0 <try_exec+0x130>
    6a8d:	50                   	push   %eax
    6a8e:	8d 45 8c             	lea    -0x74(%ebp),%eax
    6a91:	50                   	push   %eax
    6a92:	8d 45 88             	lea    -0x78(%ebp),%eax
    6a95:	50                   	push   %eax
    6a96:	53                   	push   %ebx
    6a97:	e8 a4 65 00 00       	call   d040 <task_wait@plt>
    6a9c:	83 c4 10             	add    $0x10,%esp
    6a9f:	85 c0                	test   %eax,%eax
    6aa1:	75 6d                	jne    6b10 <try_exec+0x160>
    6aa3:	8b 45 88             	mov    -0x78(%ebp),%eax
    6aa6:	85 c0                	test   %eax,%eax
    6aa8:	0f 85 92 00 00 00    	jne    6b40 <try_exec+0x190>
    6aae:	8b 55 8c             	mov    -0x74(%ebp),%edx
    6ab1:	31 c0                	xor    %eax,%eax
    6ab3:	85 d2                	test   %edx,%edx
    6ab5:	74 1b                	je     6ad2 <try_exec+0x122>
    6ab7:	8b 1d c8 f6 00 00    	mov    0xf6c8,%ebx
    6abd:	51                   	push   %ecx
    6abe:	52                   	push   %edx
    6abf:	53                   	push   %ebx
    6ac0:	68 7c c9 00 00       	push   $0xc97c
    6ac5:	e8 26 65 00 00       	call   cff0 <printf@plt>
    6aca:	83 c4 10             	add    $0x10,%esp
    6acd:	b8 01 00 00 00       	mov    $0x1,%eax
    6ad2:	8d 65 f4             	lea    -0xc(%ebp),%esp
    6ad5:	5b                   	pop    %ebx
    6ad6:	5e                   	pop    %esi
    6ad7:	5f                   	pop    %edi
    6ad8:	5d                   	pop    %ebp
    6ad9:	c3                   	ret    
    6ada:	8d b6 00 00 00 00    	lea    0x0(%esi),%esi
    6ae0:	83 ec 0c             	sub    $0xc,%esp
    6ae3:	57                   	push   %edi
    6ae4:	e8 37 69 00 00       	call   d420 <str_error@plt>
    6ae9:	89 04 24             	mov    %eax,(%esp)
    6aec:	a1 c8 f6 00 00       	mov    0xf6c8,%eax
    6af1:	56                   	push   %esi
    6af2:	50                   	push   %eax
    6af3:	68 fc c8 00 00       	push   $0xc8fc
    6af8:	6a 07                	push   $0x7
    6afa:	e8 31 f6 ff ff       	call   6130 <cli_error>
    6aff:	83 c4 20             	add    $0x20,%esp
    6b02:	8d 65 f4             	lea    -0xc(%ebp),%esp
    6b05:	b8 01 00 00 00       	mov    $0x1,%eax
    6b0a:	5b                   	pop    %ebx
    6b0b:	5e                   	pop    %esi
    6b0c:	5f                   	pop    %edi
    6b0d:	5d                   	pop    %ebp
    6b0e:	c3                   	ret    
    6b0f:	90                   	nop
    6b10:	83 ec 0c             	sub    $0xc,%esp
    6b13:	50                   	push   %eax
    6b14:	e8 07 69 00 00       	call   d420 <str_error@plt>
    6b19:	83 c4 0c             	add    $0xc,%esp
    6b1c:	50                   	push   %eax
    6b1d:	a1 c8 f6 00 00       	mov    0xf6c8,%eax
    6b22:	50                   	push   %eax
    6b23:	68 24 c9 00 00       	push   $0xc924
    6b28:	e8 c3 64 00 00       	call   cff0 <printf@plt>
    6b2d:	83 c4 10             	add    $0x10,%esp
    6b30:	8d 65 f4             	lea    -0xc(%ebp),%esp
    6b33:	b8 01 00 00 00       	mov    $0x1,%eax
    6b38:	5b                   	pop    %ebx
    6b39:	5e                   	pop    %esi
    6b3a:	5f                   	pop    %edi
    6b3b:	5d                   	pop    %ebp
    6b3c:	c3                   	ret    
    6b3d:	8d 76 00             	lea    0x0(%esi),%esi
    6b40:	8b 3d c8 f6 00 00    	mov    0xf6c8,%edi
    6b46:	56                   	push   %esi
    6b47:	56                   	push   %esi
    6b48:	57                   	push   %edi
    6b49:	68 4c c9 00 00       	push   $0xc94c
    6b4e:	e8 9d 64 00 00       	call   cff0 <printf@plt>
    6b53:	83 c4 10             	add    $0x10,%esp
    6b56:	8d 65 f4             	lea    -0xc(%ebp),%esp
    6b59:	b8 01 00 00 00       	mov    $0x1,%eax
    6b5e:	5b                   	pop    %ebx
    6b5f:	5e                   	pop    %esi
    6b60:	5f                   	pop    %edi
    6b61:	5d                   	pop    %ebp
    6b62:	c3                   	ret    
    6b63:	8b 15 bc f6 00 00    	mov    0xf6bc,%edx
    6b69:	bf bc f6 00 00       	mov    $0xf6bc,%edi
    6b6e:	85 d2                	test   %edx,%edx
    6b70:	0f 84 7c fe ff ff    	je     69f2 <try_exec+0x42>
    6b76:	66 90                	xchg   %ax,%ax
    6b78:	50                   	push   %eax
    6b79:	a1 10 fb 00 00       	mov    0xfb10,%eax
    6b7e:	68 ff 00 00 00       	push   $0xff
    6b83:	6a 00                	push   $0x0
    6b85:	50                   	push   %eax
    6b86:	e8 a5 67 00 00       	call   d330 <memset@plt>
    6b8b:	89 34 24             	mov    %esi,(%esp)
    6b8e:	8b 07                	mov    (%edi),%eax
    6b90:	50                   	push   %eax
    6b91:	a1 10 fb 00 00       	mov    0xfb10,%eax
    6b96:	68 32 ad 00 00       	push   $0xad32
    6b9b:	68 ff 00 00 00       	push   $0xff
    6ba0:	50                   	push   %eax
    6ba1:	e8 8a 64 00 00       	call   d030 <snprintf@plt>
    6ba6:	83 c4 18             	add    $0x18,%esp
    6ba9:	a1 10 fb 00 00       	mov    0xfb10,%eax
    6bae:	6a 10                	push   $0x10
    6bb0:	50                   	push   %eax
    6bb1:	e8 ea 68 00 00       	call   d4a0 <open@plt>
    6bb6:	83 c4 10             	add    $0x10,%esp
    6bb9:	85 c0                	test   %eax,%eax
    6bbb:	78 1b                	js     6bd8 <try_exec+0x228>
    6bbd:	83 ec 0c             	sub    $0xc,%esp
    6bc0:	50                   	push   %eax
    6bc1:	e8 3a 69 00 00       	call   d500 <close@plt>
    6bc6:	a1 10 fb 00 00       	mov    0xfb10,%eax
    6bcb:	83 c4 10             	add    $0x10,%esp
    6bce:	e9 21 fe ff ff       	jmp    69f4 <try_exec+0x44>
    6bd3:	90                   	nop
    6bd4:	8d 74 26 00          	lea    0x0(%esi,%eiz,1),%esi
    6bd8:	83 c7 04             	add    $0x4,%edi
    6bdb:	8b 07                	mov    (%edi),%eax
    6bdd:	85 c0                	test   %eax,%eax
    6bdf:	75 97                	jne    6b78 <try_exec+0x1c8>
    6be1:	e9 0c fe ff ff       	jmp    69f2 <try_exec+0x42>
    6be6:	66 90                	xchg   %ax,%ax
    6be8:	66 90                	xchg   %ax,%ax
    6bea:	66 90                	xchg   %ax,%ax
    6bec:	66 90                	xchg   %ax,%ax
    6bee:	66 90                	xchg   %ax,%ax

00006bf0 <get_iostate>:
    6bf0:	55                   	push   %ebp
    6bf1:	a1 24 fb 00 00       	mov    0xfb24,%eax
    6bf6:	89 e5                	mov    %esp,%ebp
    6bf8:	5d                   	pop    %ebp
    6bf9:	c3                   	ret    
    6bfa:	8d b6 00 00 00 00    	lea    0x0(%esi),%esi

00006c00 <set_iostate>:
    6c00:	55                   	push   %ebp
    6c01:	89 e5                	mov    %esp,%ebp
    6c03:	8b 45 08             	mov    0x8(%ebp),%eax
    6c06:	5d                   	pop    %ebp
    6c07:	a3 24 fb 00 00       	mov    %eax,0xfb24
    6c0c:	8b 10                	mov    (%eax),%edx
    6c0e:	89 15 50 f8 00 00    	mov    %edx,0xf850
    6c14:	8b 50 04             	mov    0x4(%eax),%edx
    6c17:	8b 40 08             	mov    0x8(%eax),%eax
    6c1a:	89 15 40 f8 00 00    	mov    %edx,0xf840
    6c20:	a3 60 f8 00 00       	mov    %eax,0xf860
    6c25:	c3                   	ret    
    6c26:	66 90                	xchg   %ax,%ax
    6c28:	66 90                	xchg   %ax,%ax
    6c2a:	66 90                	xchg   %ax,%ax
    6c2c:	66 90                	xchg   %ax,%ax
    6c2e:	66 90                	xchg   %ax,%ax

00006c30 <main>:
    6c30:	8d 4c 24 04          	lea    0x4(%esp),%ecx
    6c34:	83 e4 f0             	and    $0xfffffff0,%esp
    6c37:	a1 50 f8 00 00       	mov    0xf850,%eax
    6c3c:	ff 71 fc             	pushl  -0x4(%ecx)
    6c3f:	a3 18 fb 00 00       	mov    %eax,0xfb18
    6c44:	55                   	push   %ebp
    6c45:	a1 40 f8 00 00       	mov    0xf840,%eax
    6c4a:	89 e5                	mov    %esp,%ebp
    6c4c:	a3 1c fb 00 00       	mov    %eax,0xfb1c
    6c51:	a1 60 f8 00 00       	mov    0xf860,%eax
    6c56:	53                   	push   %ebx
    6c57:	a3 20 fb 00 00       	mov    %eax,0xfb20
    6c5c:	51                   	push   %ecx
    6c5d:	c7 05 24 fb 00 00 18 	movl   $0xfb18,0xfb24
    6c64:	fb 00 00 
    6c67:	c7 05 2c fb 00 00 00 	movl   $0x0,0xfb2c
    6c6e:	00 00 00 
    6c71:	c7 05 28 fb 00 00 9f 	movl   $0xc99f,0xfb28
    6c78:	c9 00 00 
    6c7b:	c7 05 30 fb 00 00 00 	movl   $0x0,0xfb30
    6c82:	00 00 00 
    6c85:	c7 05 34 fb 00 00 00 	movl   $0x0,0xfb34
    6c8c:	00 00 00 
    6c8f:	c7 05 38 fb 00 00 00 	movl   $0x0,0xfb38
    6c96:	00 00 00 
    6c99:	e8 02 fc ff ff       	call   68a0 <input_init>
    6c9e:	85 c0                	test   %eax,%eax
    6ca0:	74 0a                	je     6cac <main+0x7c>
    6ca2:	83 ec 0c             	sub    $0xc,%esp
    6ca5:	6a 01                	push   $0x1
    6ca7:	e8 a4 67 00 00       	call   d450 <exit@plt>
    6cac:	83 ec 0c             	sub    $0xc,%esp
    6caf:	89 c3                	mov    %eax,%ebx
    6cb1:	68 28 fb 00 00       	push   $0xfb28
    6cb6:	e8 45 fc ff ff       	call   6900 <cli_set_prompt>
    6cbb:	83 c4 10             	add    $0x10,%esp
    6cbe:	85 c0                	test   %eax,%eax
    6cc0:	74 20                	je     6ce2 <main+0xb2>
    6cc2:	eb de                	jmp    6ca2 <main+0x72>
    6cc4:	8d 74 26 00          	lea    0x0(%esi,%eiz,1),%esi
    6cc8:	83 ec 0c             	sub    $0xc,%esp
    6ccb:	68 28 fb 00 00       	push   $0xfb28
    6cd0:	e8 1b fb ff ff       	call   67f0 <get_input>
    6cd5:	8b 0d 2c fb 00 00    	mov    0xfb2c,%ecx
    6cdb:	83 c4 10             	add    $0x10,%esp
    6cde:	85 c9                	test   %ecx,%ecx
    6ce0:	75 6e                	jne    6d50 <main+0x120>
    6ce2:	a1 14 fb 00 00       	mov    0xfb14,%eax
    6ce7:	85 c0                	test   %eax,%eax
    6ce9:	74 dd                	je     6cc8 <main+0x98>
    6ceb:	8b 15 c8 f6 00 00    	mov    0xf6c8,%edx
    6cf1:	50                   	push   %eax
    6cf2:	50                   	push   %eax
    6cf3:	52                   	push   %edx
    6cf4:	68 a4 c9 00 00       	push   $0xc9a4
    6cf9:	e8 f2 62 00 00       	call   cff0 <printf@plt>
    6cfe:	a1 2c fb 00 00       	mov    0xfb2c,%eax
    6d03:	83 c4 10             	add    $0x10,%esp
    6d06:	85 c0                	test   %eax,%eax
    6d08:	74 0c                	je     6d16 <main+0xe6>
    6d0a:	83 ec 0c             	sub    $0xc,%esp
    6d0d:	50                   	push   %eax
    6d0e:	e8 fd 67 00 00       	call   d510 <free@plt>
    6d13:	83 c4 10             	add    $0x10,%esp
    6d16:	a1 34 fb 00 00       	mov    0xfb34,%eax
    6d1b:	85 c0                	test   %eax,%eax
    6d1d:	74 0c                	je     6d2b <main+0xfb>
    6d1f:	83 ec 0c             	sub    $0xc,%esp
    6d22:	50                   	push   %eax
    6d23:	e8 e8 67 00 00       	call   d510 <free@plt>
    6d28:	83 c4 10             	add    $0x10,%esp
    6d2b:	a1 30 fb 00 00       	mov    0xfb30,%eax
    6d30:	85 c0                	test   %eax,%eax
    6d32:	74 0c                	je     6d40 <main+0x110>
    6d34:	83 ec 0c             	sub    $0xc,%esp
    6d37:	50                   	push   %eax
    6d38:	e8 d3 67 00 00       	call   d510 <free@plt>
    6d3d:	83 c4 10             	add    $0x10,%esp
    6d40:	8d 65 f8             	lea    -0x8(%ebp),%esp
    6d43:	89 d8                	mov    %ebx,%eax
    6d45:	59                   	pop    %ecx
    6d46:	5b                   	pop    %ebx
    6d47:	5d                   	pop    %ebp
    6d48:	8d 61 fc             	lea    -0x4(%ecx),%esp
    6d4b:	c3                   	ret    
    6d4c:	8d 74 26 00          	lea    0x0(%esi,%eiz,1),%esi
    6d50:	83 ec 0c             	sub    $0xc,%esp
    6d53:	68 28 fb 00 00       	push   $0xfb28
    6d58:	e8 33 f4 ff ff       	call   6190 <process_input>
    6d5d:	89 c3                	mov    %eax,%ebx
    6d5f:	c7 04 24 28 fb 00 00 	movl   $0xfb28,(%esp)
    6d66:	e8 95 fb ff ff       	call   6900 <cli_set_prompt>
    6d6b:	89 1d 38 fb 00 00    	mov    %ebx,0xfb38
    6d71:	83 c4 10             	add    $0x10,%esp
    6d74:	e9 69 ff ff ff       	jmp    6ce2 <main+0xb2>
    6d79:	66 90                	xchg   %ax,%ax
    6d7b:	66 90                	xchg   %ax,%ax
    6d7d:	66 90                	xchg   %ax,%ax
    6d7f:	90                   	nop

00006d80 <tok_pending_chars.isra.1.part.2>:
    6d80:	55                   	push   %ebp
    6d81:	89 e5                	mov    %esp,%ebp
    6d83:	83 ec 0c             	sub    $0xc,%esp
    6d86:	68 14 01 00 00       	push   $0x114
    6d8b:	68 b6 c9 00 00       	push   $0xc9b6
    6d90:	68 bc c9 00 00       	push   $0xc9bc
    6d95:	e8 76 64 00 00       	call   d210 <assert_abort@plt>
    6d9a:	8d b6 00 00 00 00    	lea    0x0(%esi),%esi

00006da0 <tok_init>:
    6da0:	55                   	push   %ebp
    6da1:	89 e5                	mov    %esp,%ebp
    6da3:	56                   	push   %esi
    6da4:	53                   	push   %ebx
    6da5:	8b 5d 08             	mov    0x8(%ebp),%ebx
    6da8:	83 ec 0c             	sub    $0xc,%esp
    6dab:	8b 45 0c             	mov    0xc(%ebp),%eax
    6dae:	8b 75 14             	mov    0x14(%ebp),%esi
    6db1:	8b 55 10             	mov    0x10(%ebp),%edx
    6db4:	89 73 30             	mov    %esi,0x30(%ebx)
    6db7:	89 53 24             	mov    %edx,0x24(%ebx)
    6dba:	89 03                	mov    %eax,(%ebx)
    6dbc:	c7 43 04 00 00 00 00 	movl   $0x0,0x4(%ebx)
    6dc3:	c7 43 08 00 00 00 00 	movl   $0x0,0x8(%ebx)
    6dca:	c7 43 0c 00 00 00 00 	movl   $0x0,0xc(%ebx)
    6dd1:	c7 43 10 00 00 00 00 	movl   $0x0,0x10(%ebx)
    6dd8:	c7 43 2c 00 00 00 00 	movl   $0x0,0x2c(%ebx)
    6ddf:	50                   	push   %eax
    6de0:	e8 db 65 00 00       	call   d3c0 <str_size@plt>
    6de5:	8d 74 30 01          	lea    0x1(%eax,%esi,1),%esi
    6de9:	89 34 24             	mov    %esi,(%esp)
    6dec:	e8 ef 62 00 00       	call   d0e0 <malloc@plt>
    6df1:	83 c4 10             	add    $0x10,%esp
    6df4:	85 c0                	test   %eax,%eax
    6df6:	74 1d                	je     6e15 <tok_init+0x75>
    6df8:	89 43 14             	mov    %eax,0x14(%ebx)
    6dfb:	c7 43 18 00 00 00 00 	movl   $0x0,0x18(%ebx)
    6e02:	89 73 1c             	mov    %esi,0x1c(%ebx)
    6e05:	c7 43 20 00 00 00 00 	movl   $0x0,0x20(%ebx)
    6e0c:	31 c0                	xor    %eax,%eax
    6e0e:	8d 65 f8             	lea    -0x8(%ebp),%esp
    6e11:	5b                   	pop    %ebx
    6e12:	5e                   	pop    %esi
    6e13:	5d                   	pop    %ebp
    6e14:	c3                   	ret    
    6e15:	b8 fe ff ff ff       	mov    $0xfffffffe,%eax
    6e1a:	eb f2                	jmp    6e0e <tok_init+0x6e>
    6e1c:	8d 74 26 00          	lea    0x0(%esi,%eiz,1),%esi

00006e20 <tok_fini>:
    6e20:	55                   	push   %ebp
    6e21:	89 e5                	mov    %esp,%ebp
    6e23:	8b 45 08             	mov    0x8(%ebp),%eax
    6e26:	8b 40 14             	mov    0x14(%eax),%eax
    6e29:	85 c0                	test   %eax,%eax
    6e2b:	74 0b                	je     6e38 <tok_fini+0x18>
    6e2d:	89 45 08             	mov    %eax,0x8(%ebp)
    6e30:	5d                   	pop    %ebp
    6e31:	e9 da 66 00 00       	jmp    d510 <free@plt>
    6e36:	66 90                	xchg   %ax,%ax
    6e38:	5d                   	pop    %ebp
    6e39:	c3                   	ret    
    6e3a:	8d b6 00 00 00 00    	lea    0x0(%esi),%esi

00006e40 <tok_tokenize>:
    6e40:	55                   	push   %ebp
    6e41:	89 e5                	mov    %esp,%ebp
    6e43:	57                   	push   %edi
    6e44:	56                   	push   %esi
    6e45:	53                   	push   %ebx
    6e46:	83 ec 1c             	sub    $0x1c,%esp
    6e49:	8b 5d 08             	mov    0x8(%ebp),%ebx
    6e4c:	8b 53 0c             	mov    0xc(%ebx),%edx
    6e4f:	8b 43 04             	mov    0x4(%ebx),%eax
    6e52:	89 45 e4             	mov    %eax,-0x1c(%ebp)
    6e55:	8d 43 18             	lea    0x18(%ebx),%eax
    6e58:	8d 7a 01             	lea    0x1(%edx),%edi
    6e5b:	8d 73 04             	lea    0x4(%ebx),%esi
    6e5e:	89 f9                	mov    %edi,%ecx
    6e60:	89 45 dc             	mov    %eax,-0x24(%ebp)
    6e63:	89 d7                	mov    %edx,%edi
    6e65:	8d 76 00             	lea    0x0(%esi),%esi
    6e68:	89 4b 0c             	mov    %ecx,0xc(%ebx)
    6e6b:	50                   	push   %eax
    6e6c:	8b 03                	mov    (%ebx),%eax
    6e6e:	6a ff                	push   $0xffffffff
    6e70:	89 4d d8             	mov    %ecx,-0x28(%ebp)
    6e73:	56                   	push   %esi
    6e74:	89 4d e0             	mov    %ecx,-0x20(%ebp)
    6e77:	50                   	push   %eax
    6e78:	e8 03 62 00 00       	call   d080 <str_decode@plt>
    6e7d:	8b 55 e4             	mov    -0x1c(%ebp),%edx
    6e80:	83 c4 10             	add    $0x10,%esp
    6e83:	89 53 04             	mov    %edx,0x4(%ebx)
    6e86:	89 7b 0c             	mov    %edi,0xc(%ebx)
    6e89:	85 c0                	test   %eax,%eax
    6e8b:	8b 4d e0             	mov    -0x20(%ebp),%ecx
    6e8e:	0f 84 d4 03 00 00    	je     7268 <tok_tokenize+0x428>
    6e94:	83 f8 20             	cmp    $0x20,%eax
    6e97:	74 67                	je     6f00 <tok_tokenize+0xc0>
    6e99:	83 f8 7c             	cmp    $0x7c,%eax
    6e9c:	0f 84 d6 01 00 00    	je     7078 <tok_tokenize+0x238>
    6ea2:	83 f8 27             	cmp    $0x27,%eax
    6ea5:	0f 84 bd 02 00 00    	je     7168 <tok_tokenize+0x328>
    6eab:	8b 43 20             	mov    0x20(%ebx),%eax
    6eae:	39 43 18             	cmp    %eax,0x18(%ebx)
    6eb1:	0f 82 cb 04 00 00    	jb     7382 <tok_tokenize+0x542>
    6eb7:	0f 84 9b 02 00 00    	je     7158 <tok_tokenize+0x318>
    6ebd:	89 4b 0c             	mov    %ecx,0xc(%ebx)
    6ec0:	50                   	push   %eax
    6ec1:	8b 03                	mov    (%ebx),%eax
    6ec3:	6a ff                	push   $0xffffffff
    6ec5:	56                   	push   %esi
    6ec6:	50                   	push   %eax
    6ec7:	e8 b4 61 00 00       	call   d080 <str_decode@plt>
    6ecc:	8b 53 1c             	mov    0x1c(%ebx),%edx
    6ecf:	8b 7b 14             	mov    0x14(%ebx),%edi
    6ed2:	8b 4d dc             	mov    -0x24(%ebp),%ecx
    6ed5:	52                   	push   %edx
    6ed6:	51                   	push   %ecx
    6ed7:	57                   	push   %edi
    6ed8:	50                   	push   %eax
    6ed9:	e8 92 65 00 00       	call   d470 <chr_encode@plt>
    6ede:	83 c4 20             	add    $0x20,%esp
    6ee1:	85 c0                	test   %eax,%eax
    6ee3:	0f 85 64 02 00 00    	jne    714d <tok_tokenize+0x30d>
    6ee9:	8b 7b 0c             	mov    0xc(%ebx),%edi
    6eec:	8b 43 04             	mov    0x4(%ebx),%eax
    6eef:	89 45 e4             	mov    %eax,-0x1c(%ebp)
    6ef2:	8d 4f 01             	lea    0x1(%edi),%ecx
    6ef5:	e9 6e ff ff ff       	jmp    6e68 <tok_tokenize+0x28>
    6efa:	8d b6 00 00 00 00    	lea    0x0(%esi),%esi
    6f00:	8b 43 18             	mov    0x18(%ebx),%eax
    6f03:	3b 43 20             	cmp    0x20(%ebx),%eax
    6f06:	0f 82 8b 04 00 00    	jb     7397 <tok_tokenize+0x557>
    6f0c:	74 79                	je     6f87 <tok_tokenize+0x147>
    6f0e:	8b 7b 30             	mov    0x30(%ebx),%edi
    6f11:	39 7b 2c             	cmp    %edi,0x2c(%ebx)
    6f14:	0f 83 2e 02 00 00    	jae    7148 <tok_tokenize+0x308>
    6f1a:	3b 43 1c             	cmp    0x1c(%ebx),%eax
    6f1d:	0f 83 25 02 00 00    	jae    7148 <tok_tokenize+0x308>
    6f23:	8b 53 14             	mov    0x14(%ebx),%edx
    6f26:	8d 48 01             	lea    0x1(%eax),%ecx
    6f29:	89 4b 18             	mov    %ecx,0x18(%ebx)
    6f2c:	c6 04 02 00          	movb   $0x0,(%edx,%eax,1)
    6f30:	8b 43 2c             	mov    0x2c(%ebx),%eax
    6f33:	8b 53 24             	mov    0x24(%ebx),%edx
    6f36:	8b 7b 14             	mov    0x14(%ebx),%edi
    6f39:	8d 48 01             	lea    0x1(%eax),%ecx
    6f3c:	8d 04 40             	lea    (%eax,%eax,2),%eax
    6f3f:	89 4b 2c             	mov    %ecx,0x2c(%ebx)
    6f42:	8d 04 c2             	lea    (%edx,%eax,8),%eax
    6f45:	8b 53 28             	mov    0x28(%ebx),%edx
    6f48:	89 50 14             	mov    %edx,0x14(%eax)
    6f4b:	8b 53 20             	mov    0x20(%ebx),%edx
    6f4e:	01 fa                	add    %edi,%edx
    6f50:	8b 7b 04             	mov    0x4(%ebx),%edi
    6f53:	89 10                	mov    %edx,(%eax)
    6f55:	89 f9                	mov    %edi,%ecx
    6f57:	8b 53 08             	mov    0x8(%ebx),%edx
    6f5a:	89 7d e4             	mov    %edi,-0x1c(%ebp)
    6f5d:	29 d1                	sub    %edx,%ecx
    6f5f:	8b 7b 0c             	mov    0xc(%ebx),%edi
    6f62:	89 50 04             	mov    %edx,0x4(%eax)
    6f65:	89 48 0c             	mov    %ecx,0xc(%eax)
    6f68:	89 fa                	mov    %edi,%edx
    6f6a:	8b 4b 10             	mov    0x10(%ebx),%ecx
    6f6d:	29 ca                	sub    %ecx,%edx
    6f6f:	89 48 08             	mov    %ecx,0x8(%eax)
    6f72:	89 50 10             	mov    %edx,0x10(%eax)
    6f75:	8b 4d e4             	mov    -0x1c(%ebp),%ecx
    6f78:	8b 43 18             	mov    0x18(%ebx),%eax
    6f7b:	89 4b 08             	mov    %ecx,0x8(%ebx)
    6f7e:	89 43 20             	mov    %eax,0x20(%ebx)
    6f81:	89 7b 10             	mov    %edi,0x10(%ebx)
    6f84:	8d 4f 01             	lea    0x1(%edi),%ecx
    6f87:	89 f0                	mov    %esi,%eax
    6f89:	c7 43 28 02 00 00 00 	movl   $0x2,0x28(%ebx)
    6f90:	89 fe                	mov    %edi,%esi
    6f92:	89 c7                	mov    %eax,%edi
    6f94:	eb 32                	jmp    6fc8 <tok_tokenize+0x188>
    6f96:	66 90                	xchg   %ax,%ax
    6f98:	89 4b 0c             	mov    %ecx,0xc(%ebx)
    6f9b:	50                   	push   %eax
    6f9c:	8b 03                	mov    (%ebx),%eax
    6f9e:	6a ff                	push   $0xffffffff
    6fa0:	57                   	push   %edi
    6fa1:	50                   	push   %eax
    6fa2:	e8 d9 60 00 00       	call   d080 <str_decode@plt>
    6fa7:	8b 53 1c             	mov    0x1c(%ebx),%edx
    6faa:	8b 73 14             	mov    0x14(%ebx),%esi
    6fad:	8b 4d dc             	mov    -0x24(%ebp),%ecx
    6fb0:	52                   	push   %edx
    6fb1:	51                   	push   %ecx
    6fb2:	56                   	push   %esi
    6fb3:	50                   	push   %eax
    6fb4:	e8 b7 64 00 00       	call   d470 <chr_encode@plt>
    6fb9:	8b 73 0c             	mov    0xc(%ebx),%esi
    6fbc:	8b 43 04             	mov    0x4(%ebx),%eax
    6fbf:	83 c4 20             	add    $0x20,%esp
    6fc2:	89 45 e4             	mov    %eax,-0x1c(%ebp)
    6fc5:	8d 4e 01             	lea    0x1(%esi),%ecx
    6fc8:	89 4b 0c             	mov    %ecx,0xc(%ebx)
    6fcb:	50                   	push   %eax
    6fcc:	8b 03                	mov    (%ebx),%eax
    6fce:	6a ff                	push   $0xffffffff
    6fd0:	89 4d e0             	mov    %ecx,-0x20(%ebp)
    6fd3:	57                   	push   %edi
    6fd4:	50                   	push   %eax
    6fd5:	e8 a6 60 00 00       	call   d080 <str_decode@plt>
    6fda:	8b 55 e4             	mov    -0x1c(%ebp),%edx
    6fdd:	83 c4 10             	add    $0x10,%esp
    6fe0:	89 53 04             	mov    %edx,0x4(%ebx)
    6fe3:	89 73 0c             	mov    %esi,0xc(%ebx)
    6fe6:	83 f8 20             	cmp    $0x20,%eax
    6fe9:	8b 4d e0             	mov    -0x20(%ebp),%ecx
    6fec:	74 aa                	je     6f98 <tok_tokenize+0x158>
    6fee:	89 f8                	mov    %edi,%eax
    6ff0:	89 f7                	mov    %esi,%edi
    6ff2:	89 c6                	mov    %eax,%esi
    6ff4:	8b 43 30             	mov    0x30(%ebx),%eax
    6ff7:	39 43 2c             	cmp    %eax,0x2c(%ebx)
    6ffa:	0f 83 68 fe ff ff    	jae    6e68 <tok_tokenize+0x28>
    7000:	8b 43 18             	mov    0x18(%ebx),%eax
    7003:	3b 43 1c             	cmp    0x1c(%ebx),%eax
    7006:	0f 83 5c fe ff ff    	jae    6e68 <tok_tokenize+0x28>
    700c:	8b 53 14             	mov    0x14(%ebx),%edx
    700f:	8d 48 01             	lea    0x1(%eax),%ecx
    7012:	89 4b 18             	mov    %ecx,0x18(%ebx)
    7015:	c6 04 02 00          	movb   $0x0,(%edx,%eax,1)
    7019:	8b 43 2c             	mov    0x2c(%ebx),%eax
    701c:	8b 53 24             	mov    0x24(%ebx),%edx
    701f:	8b 7b 14             	mov    0x14(%ebx),%edi
    7022:	8d 48 01             	lea    0x1(%eax),%ecx
    7025:	8d 04 40             	lea    (%eax,%eax,2),%eax
    7028:	89 4b 2c             	mov    %ecx,0x2c(%ebx)
    702b:	8d 04 c2             	lea    (%edx,%eax,8),%eax
    702e:	8b 53 28             	mov    0x28(%ebx),%edx
    7031:	89 50 14             	mov    %edx,0x14(%eax)
    7034:	8b 53 20             	mov    0x20(%ebx),%edx
    7037:	01 fa                	add    %edi,%edx
    7039:	89 10                	mov    %edx,(%eax)
    703b:	8b 53 08             	mov    0x8(%ebx),%edx
    703e:	89 50 04             	mov    %edx,0x4(%eax)
    7041:	8b 7b 04             	mov    0x4(%ebx),%edi
    7044:	89 f9                	mov    %edi,%ecx
    7046:	89 7d e4             	mov    %edi,-0x1c(%ebp)
    7049:	29 d1                	sub    %edx,%ecx
    704b:	89 48 0c             	mov    %ecx,0xc(%eax)
    704e:	8b 4b 10             	mov    0x10(%ebx),%ecx
    7051:	89 48 08             	mov    %ecx,0x8(%eax)
    7054:	8b 7b 0c             	mov    0xc(%ebx),%edi
    7057:	89 fa                	mov    %edi,%edx
    7059:	29 ca                	sub    %ecx,%edx
    705b:	8b 4d e4             	mov    -0x1c(%ebp),%ecx
    705e:	89 50 10             	mov    %edx,0x10(%eax)
    7061:	89 4b 08             	mov    %ecx,0x8(%ebx)
    7064:	8b 43 18             	mov    0x18(%ebx),%eax
    7067:	89 7b 10             	mov    %edi,0x10(%ebx)
    706a:	89 43 20             	mov    %eax,0x20(%ebx)
    706d:	8d 4f 01             	lea    0x1(%edi),%ecx
    7070:	e9 f3 fd ff ff       	jmp    6e68 <tok_tokenize+0x28>
    7075:	8d 76 00             	lea    0x0(%esi),%esi
    7078:	8b 43 18             	mov    0x18(%ebx),%eax
    707b:	3b 43 20             	cmp    0x20(%ebx),%eax
    707e:	0f 82 13 03 00 00    	jb     7397 <tok_tokenize+0x557>
    7084:	74 7a                	je     7100 <tok_tokenize+0x2c0>
    7086:	8b 7b 30             	mov    0x30(%ebx),%edi
    7089:	39 7b 2c             	cmp    %edi,0x2c(%ebx)
    708c:	0f 83 b6 00 00 00    	jae    7148 <tok_tokenize+0x308>
    7092:	3b 43 1c             	cmp    0x1c(%ebx),%eax
    7095:	0f 83 ad 00 00 00    	jae    7148 <tok_tokenize+0x308>
    709b:	8b 53 14             	mov    0x14(%ebx),%edx
    709e:	8d 48 01             	lea    0x1(%eax),%ecx
    70a1:	89 4b 18             	mov    %ecx,0x18(%ebx)
    70a4:	c6 04 02 00          	movb   $0x0,(%edx,%eax,1)
    70a8:	8b 43 2c             	mov    0x2c(%ebx),%eax
    70ab:	8b 53 24             	mov    0x24(%ebx),%edx
    70ae:	8b 7b 04             	mov    0x4(%ebx),%edi
    70b1:	8d 48 01             	lea    0x1(%eax),%ecx
    70b4:	8d 04 40             	lea    (%eax,%eax,2),%eax
    70b7:	89 4b 2c             	mov    %ecx,0x2c(%ebx)
    70ba:	8b 4b 14             	mov    0x14(%ebx),%ecx
    70bd:	8d 04 c2             	lea    (%edx,%eax,8),%eax
    70c0:	8b 53 28             	mov    0x28(%ebx),%edx
    70c3:	89 7d e4             	mov    %edi,-0x1c(%ebp)
    70c6:	89 50 14             	mov    %edx,0x14(%eax)
    70c9:	8b 53 20             	mov    0x20(%ebx),%edx
    70cc:	01 ca                	add    %ecx,%edx
    70ce:	89 10                	mov    %edx,(%eax)
    70d0:	8b 53 08             	mov    0x8(%ebx),%edx
    70d3:	89 50 04             	mov    %edx,0x4(%eax)
    70d6:	29 d7                	sub    %edx,%edi
    70d8:	8b 53 0c             	mov    0xc(%ebx),%edx
    70db:	89 78 0c             	mov    %edi,0xc(%eax)
    70de:	89 d1                	mov    %edx,%ecx
    70e0:	8b 7b 10             	mov    0x10(%ebx),%edi
    70e3:	29 f9                	sub    %edi,%ecx
    70e5:	89 78 08             	mov    %edi,0x8(%eax)
    70e8:	89 48 10             	mov    %ecx,0x10(%eax)
    70eb:	8b 43 18             	mov    0x18(%ebx),%eax
    70ee:	89 43 20             	mov    %eax,0x20(%ebx)
    70f1:	8b 45 e4             	mov    -0x1c(%ebp),%eax
    70f4:	89 43 08             	mov    %eax,0x8(%ebx)
    70f7:	8d 42 01             	lea    0x1(%edx),%eax
    70fa:	89 53 10             	mov    %edx,0x10(%ebx)
    70fd:	89 45 d8             	mov    %eax,-0x28(%ebp)
    7100:	8b 45 d8             	mov    -0x28(%ebp),%eax
    7103:	c7 43 28 01 00 00 00 	movl   $0x1,0x28(%ebx)
    710a:	89 43 0c             	mov    %eax,0xc(%ebx)
    710d:	50                   	push   %eax
    710e:	8b 03                	mov    (%ebx),%eax
    7110:	6a ff                	push   $0xffffffff
    7112:	56                   	push   %esi
    7113:	50                   	push   %eax
    7114:	e8 67 5f 00 00       	call   d080 <str_decode@plt>
    7119:	8b 53 1c             	mov    0x1c(%ebx),%edx
    711c:	8b 7b 14             	mov    0x14(%ebx),%edi
    711f:	8b 4d dc             	mov    -0x24(%ebp),%ecx
    7122:	52                   	push   %edx
    7123:	51                   	push   %ecx
    7124:	57                   	push   %edi
    7125:	50                   	push   %eax
    7126:	e8 45 63 00 00       	call   d470 <chr_encode@plt>
    712b:	83 c4 20             	add    $0x20,%esp
    712e:	85 c0                	test   %eax,%eax
    7130:	75 1b                	jne    714d <tok_tokenize+0x30d>
    7132:	8b 43 30             	mov    0x30(%ebx),%eax
    7135:	39 43 2c             	cmp    %eax,0x2c(%ebx)
    7138:	73 0e                	jae    7148 <tok_tokenize+0x308>
    713a:	8b 43 18             	mov    0x18(%ebx),%eax
    713d:	3b 43 1c             	cmp    0x1c(%ebx),%eax
    7140:	0f 82 c6 fe ff ff    	jb     700c <tok_tokenize+0x1cc>
    7146:	66 90                	xchg   %ax,%ax
    7148:	b8 f0 ff ff ff       	mov    $0xfffffff0,%eax
    714d:	8d 65 f4             	lea    -0xc(%ebp),%esp
    7150:	5b                   	pop    %ebx
    7151:	5e                   	pop    %esi
    7152:	5f                   	pop    %edi
    7153:	5d                   	pop    %ebp
    7154:	c3                   	ret    
    7155:	8d 76 00             	lea    0x0(%esi),%esi
    7158:	c7 43 28 00 00 00 00 	movl   $0x0,0x28(%ebx)
    715f:	e9 59 fd ff ff       	jmp    6ebd <tok_tokenize+0x7d>
    7164:	8d 74 26 00          	lea    0x0(%esi,%eiz,1),%esi
    7168:	c7 43 28 00 00 00 00 	movl   $0x0,0x28(%ebx)
    716f:	89 4b 0c             	mov    %ecx,0xc(%ebx)
    7172:	8d b6 00 00 00 00    	lea    0x0(%esi),%esi
    7178:	57                   	push   %edi
    7179:	6a ff                	push   $0xffffffff
    717b:	8b 03                	mov    (%ebx),%eax
    717d:	56                   	push   %esi
    717e:	50                   	push   %eax
    717f:	e8 fc 5e 00 00       	call   d080 <str_decode@plt>
    7184:	83 c4 10             	add    $0x10,%esp
    7187:	8b 53 0c             	mov    0xc(%ebx),%edx
    718a:	8b 4b 04             	mov    0x4(%ebx),%ecx
    718d:	89 4d e0             	mov    %ecx,-0x20(%ebp)
    7190:	89 55 e4             	mov    %edx,-0x1c(%ebp)
    7193:	8d 7a 01             	lea    0x1(%edx),%edi
    7196:	89 7b 0c             	mov    %edi,0xc(%ebx)
    7199:	50                   	push   %eax
    719a:	8b 03                	mov    (%ebx),%eax
    719c:	6a ff                	push   $0xffffffff
    719e:	56                   	push   %esi
    719f:	50                   	push   %eax
    71a0:	e8 db 5e 00 00       	call   d080 <str_decode@plt>
    71a5:	8b 4d e0             	mov    -0x20(%ebp),%ecx
    71a8:	83 c4 10             	add    $0x10,%esp
    71ab:	89 4b 04             	mov    %ecx,0x4(%ebx)
    71ae:	85 c0                	test   %eax,%eax
    71b0:	8b 55 e4             	mov    -0x1c(%ebp),%edx
    71b3:	0f 84 9f 00 00 00    	je     7258 <tok_tokenize+0x418>
    71b9:	89 7b 0c             	mov    %edi,0xc(%ebx)
    71bc:	83 f8 27             	cmp    $0x27,%eax
    71bf:	74 2f                	je     71f0 <tok_tokenize+0x3b0>
    71c1:	50                   	push   %eax
    71c2:	6a ff                	push   $0xffffffff
    71c4:	8b 03                	mov    (%ebx),%eax
    71c6:	56                   	push   %esi
    71c7:	50                   	push   %eax
    71c8:	e8 b3 5e 00 00       	call   d080 <str_decode@plt>
    71cd:	8b 53 1c             	mov    0x1c(%ebx),%edx
    71d0:	8b 7b 14             	mov    0x14(%ebx),%edi
    71d3:	8b 4d dc             	mov    -0x24(%ebp),%ecx
    71d6:	52                   	push   %edx
    71d7:	51                   	push   %ecx
    71d8:	57                   	push   %edi
    71d9:	50                   	push   %eax
    71da:	e8 91 62 00 00       	call   d470 <chr_encode@plt>
    71df:	83 c4 20             	add    $0x20,%esp
    71e2:	85 c0                	test   %eax,%eax
    71e4:	74 a1                	je     7187 <tok_tokenize+0x347>
    71e6:	e9 62 ff ff ff       	jmp    714d <tok_tokenize+0x30d>
    71eb:	90                   	nop
    71ec:	8d 74 26 00          	lea    0x0(%esi,%eiz,1),%esi
    71f0:	50                   	push   %eax
    71f1:	6a ff                	push   $0xffffffff
    71f3:	8b 13                	mov    (%ebx),%edx
    71f5:	56                   	push   %esi
    71f6:	52                   	push   %edx
    71f7:	e8 84 5e 00 00       	call   d080 <str_decode@plt>
    71fc:	8b 7b 0c             	mov    0xc(%ebx),%edi
    71ff:	83 c4 0c             	add    $0xc,%esp
    7202:	8b 53 04             	mov    0x4(%ebx),%edx
    7205:	8b 0b                	mov    (%ebx),%ecx
    7207:	8d 47 01             	lea    0x1(%edi),%eax
    720a:	89 55 e4             	mov    %edx,-0x1c(%ebp)
    720d:	89 43 0c             	mov    %eax,0xc(%ebx)
    7210:	6a ff                	push   $0xffffffff
    7212:	56                   	push   %esi
    7213:	51                   	push   %ecx
    7214:	e8 67 5e 00 00       	call   d080 <str_decode@plt>
    7219:	8b 55 e4             	mov    -0x1c(%ebp),%edx
    721c:	83 c4 10             	add    $0x10,%esp
    721f:	89 53 04             	mov    %edx,0x4(%ebx)
    7222:	89 7b 0c             	mov    %edi,0xc(%ebx)
    7225:	83 f8 27             	cmp    $0x27,%eax
    7228:	0f 85 d5 00 00 00    	jne    7303 <tok_tokenize+0x4c3>
    722e:	8b 43 1c             	mov    0x1c(%ebx),%eax
    7231:	50                   	push   %eax
    7232:	8b 45 dc             	mov    -0x24(%ebp),%eax
    7235:	50                   	push   %eax
    7236:	8b 43 14             	mov    0x14(%ebx),%eax
    7239:	50                   	push   %eax
    723a:	6a 27                	push   $0x27
    723c:	e8 2f 62 00 00       	call   d470 <chr_encode@plt>
    7241:	83 c4 10             	add    $0x10,%esp
    7244:	85 c0                	test   %eax,%eax
    7246:	0f 85 01 ff ff ff    	jne    714d <tok_tokenize+0x30d>
    724c:	8b 43 0c             	mov    0xc(%ebx),%eax
    724f:	40                   	inc    %eax
    7250:	89 43 0c             	mov    %eax,0xc(%ebx)
    7253:	e9 20 ff ff ff       	jmp    7178 <tok_tokenize+0x338>
    7258:	89 53 0c             	mov    %edx,0xc(%ebx)
    725b:	8d 65 f4             	lea    -0xc(%ebp),%esp
    725e:	b8 f2 ff ff ff       	mov    $0xfffffff2,%eax
    7263:	5b                   	pop    %ebx
    7264:	5e                   	pop    %esi
    7265:	5f                   	pop    %edi
    7266:	5d                   	pop    %ebp
    7267:	c3                   	ret    
    7268:	8b 43 18             	mov    0x18(%ebx),%eax
    726b:	3b 43 20             	cmp    0x20(%ebx),%eax
    726e:	0f 82 23 01 00 00    	jb     7397 <tok_tokenize+0x557>
    7274:	75 12                	jne    7288 <tok_tokenize+0x448>
    7276:	8b 43 2c             	mov    0x2c(%ebx),%eax
    7279:	8b 55 0c             	mov    0xc(%ebp),%edx
    727c:	89 02                	mov    %eax,(%edx)
    727e:	8d 65 f4             	lea    -0xc(%ebp),%esp
    7281:	31 c0                	xor    %eax,%eax
    7283:	5b                   	pop    %ebx
    7284:	5e                   	pop    %esi
    7285:	5f                   	pop    %edi
    7286:	5d                   	pop    %ebp
    7287:	c3                   	ret    
    7288:	8b 73 30             	mov    0x30(%ebx),%esi
    728b:	39 73 2c             	cmp    %esi,0x2c(%ebx)
    728e:	0f 83 b4 fe ff ff    	jae    7148 <tok_tokenize+0x308>
    7294:	3b 43 1c             	cmp    0x1c(%ebx),%eax
    7297:	0f 83 ab fe ff ff    	jae    7148 <tok_tokenize+0x308>
    729d:	8b 53 14             	mov    0x14(%ebx),%edx
    72a0:	8d 48 01             	lea    0x1(%eax),%ecx
    72a3:	89 4b 18             	mov    %ecx,0x18(%ebx)
    72a6:	c6 04 02 00          	movb   $0x0,(%edx,%eax,1)
    72aa:	8b 43 2c             	mov    0x2c(%ebx),%eax
    72ad:	8b 4b 24             	mov    0x24(%ebx),%ecx
    72b0:	89 c2                	mov    %eax,%edx
    72b2:	40                   	inc    %eax
    72b3:	8b 73 14             	mov    0x14(%ebx),%esi
    72b6:	89 43 2c             	mov    %eax,0x2c(%ebx)
    72b9:	8d 14 52             	lea    (%edx,%edx,2),%edx
    72bc:	8d 14 d1             	lea    (%ecx,%edx,8),%edx
    72bf:	8b 4b 28             	mov    0x28(%ebx),%ecx
    72c2:	89 4a 14             	mov    %ecx,0x14(%edx)
    72c5:	8b 4b 20             	mov    0x20(%ebx),%ecx
    72c8:	01 f1                	add    %esi,%ecx
    72ca:	8b 73 04             	mov    0x4(%ebx),%esi
    72cd:	89 0a                	mov    %ecx,(%edx)
    72cf:	89 f7                	mov    %esi,%edi
    72d1:	8b 4b 08             	mov    0x8(%ebx),%ecx
    72d4:	89 75 e4             	mov    %esi,-0x1c(%ebp)
    72d7:	89 4a 04             	mov    %ecx,0x4(%edx)
    72da:	29 cf                	sub    %ecx,%edi
    72dc:	8b 4b 0c             	mov    0xc(%ebx),%ecx
    72df:	89 7a 0c             	mov    %edi,0xc(%edx)
    72e2:	89 ce                	mov    %ecx,%esi
    72e4:	8b 7b 10             	mov    0x10(%ebx),%edi
    72e7:	29 fe                	sub    %edi,%esi
    72e9:	89 7a 08             	mov    %edi,0x8(%edx)
    72ec:	89 72 10             	mov    %esi,0x10(%edx)
    72ef:	8b 53 18             	mov    0x18(%ebx),%edx
    72f2:	8b 75 e4             	mov    -0x1c(%ebp),%esi
    72f5:	89 53 20             	mov    %edx,0x20(%ebx)
    72f8:	89 73 08             	mov    %esi,0x8(%ebx)
    72fb:	89 4b 10             	mov    %ecx,0x10(%ebx)
    72fe:	e9 76 ff ff ff       	jmp    7279 <tok_tokenize+0x439>
    7303:	8b 43 30             	mov    0x30(%ebx),%eax
    7306:	39 43 2c             	cmp    %eax,0x2c(%ebx)
    7309:	0f 83 39 fe ff ff    	jae    7148 <tok_tokenize+0x308>
    730f:	8b 43 18             	mov    0x18(%ebx),%eax
    7312:	3b 43 1c             	cmp    0x1c(%ebx),%eax
    7315:	0f 83 2d fe ff ff    	jae    7148 <tok_tokenize+0x308>
    731b:	8b 53 14             	mov    0x14(%ebx),%edx
    731e:	8d 48 01             	lea    0x1(%eax),%ecx
    7321:	89 4b 18             	mov    %ecx,0x18(%ebx)
    7324:	c6 04 02 00          	movb   $0x0,(%edx,%eax,1)
    7328:	8b 43 2c             	mov    0x2c(%ebx),%eax
    732b:	8b 53 24             	mov    0x24(%ebx),%edx
    732e:	8b 7b 04             	mov    0x4(%ebx),%edi
    7331:	8d 48 01             	lea    0x1(%eax),%ecx
    7334:	8d 04 40             	lea    (%eax,%eax,2),%eax
    7337:	89 4b 2c             	mov    %ecx,0x2c(%ebx)
    733a:	8b 4b 14             	mov    0x14(%ebx),%ecx
    733d:	8d 04 c2             	lea    (%edx,%eax,8),%eax
    7340:	8b 53 28             	mov    0x28(%ebx),%edx
    7343:	89 7d e4             	mov    %edi,-0x1c(%ebp)
    7346:	89 50 14             	mov    %edx,0x14(%eax)
    7349:	8b 53 20             	mov    0x20(%ebx),%edx
    734c:	01 ca                	add    %ecx,%edx
    734e:	8b 4b 10             	mov    0x10(%ebx),%ecx
    7351:	89 10                	mov    %edx,(%eax)
    7353:	8b 53 08             	mov    0x8(%ebx),%edx
    7356:	29 d7                	sub    %edx,%edi
    7358:	89 50 04             	mov    %edx,0x4(%eax)
    735b:	89 78 0c             	mov    %edi,0xc(%eax)
    735e:	8b 7b 0c             	mov    0xc(%ebx),%edi
    7361:	89 fa                	mov    %edi,%edx
    7363:	89 48 08             	mov    %ecx,0x8(%eax)
    7366:	29 ca                	sub    %ecx,%edx
    7368:	8d 4f 01             	lea    0x1(%edi),%ecx
    736b:	89 50 10             	mov    %edx,0x10(%eax)
    736e:	8b 43 18             	mov    0x18(%ebx),%eax
    7371:	89 43 20             	mov    %eax,0x20(%ebx)
    7374:	8b 45 e4             	mov    -0x1c(%ebp),%eax
    7377:	89 43 08             	mov    %eax,0x8(%ebx)
    737a:	89 7b 10             	mov    %edi,0x10(%ebx)
    737d:	e9 e6 fa ff ff       	jmp    6e68 <tok_tokenize+0x28>
    7382:	50                   	push   %eax
    7383:	68 14 01 00 00       	push   $0x114
    7388:	68 b6 c9 00 00       	push   $0xc9b6
    738d:	68 bc c9 00 00       	push   $0xc9bc
    7392:	e8 79 5e 00 00       	call   d210 <assert_abort@plt>
    7397:	e8 e4 f9 ff ff       	call   6d80 <tok_pending_chars.isra.1.part.2>
    739c:	66 90                	xchg   %ax,%ax
    739e:	66 90                	xchg   %ax,%ax

000073a0 <compl_cmp>:
    73a0:	55                   	push   %ebp
    73a1:	89 e5                	mov    %esp,%ebp
    73a3:	8b 45 0c             	mov    0xc(%ebp),%eax
    73a6:	8b 00                	mov    (%eax),%eax
    73a8:	89 45 0c             	mov    %eax,0xc(%ebp)
    73ab:	8b 45 08             	mov    0x8(%ebp),%eax
    73ae:	8b 00                	mov    (%eax),%eax
    73b0:	89 45 08             	mov    %eax,0x8(%ebp)
    73b3:	5d                   	pop    %ebp
    73b4:	e9 47 5f 00 00       	jmp    d300 <str_cmp@plt>
    73b9:	8d b4 26 00 00 00 00 	lea    0x0(%esi,%eiz,1),%esi

000073c0 <tinput_display_tail>:
    73c0:	55                   	push   %ebp
    73c1:	89 e5                	mov    %esp,%ebp
    73c3:	57                   	push   %edi
    73c4:	56                   	push   %esi
    73c5:	53                   	push   %ebx
    73c6:	83 ec 28             	sub    $0x28,%esp
    73c9:	89 c6                	mov    %eax,%esi
    73cb:	89 d3                	mov    %edx,%ebx
    73cd:	89 cf                	mov    %ecx,%edi
    73cf:	68 04 10 00 00       	push   $0x1004
    73d4:	e8 07 5d 00 00       	call   d0e0 <malloc@plt>
    73d9:	83 c4 10             	add    $0x10,%esp
    73dc:	89 45 e4             	mov    %eax,-0x1c(%ebp)
    73df:	85 c0                	test   %eax,%eax
    73e1:	0f 84 b3 00 00 00    	je     749a <tinput_display_tail+0xda>
    73e7:	8b 86 24 10 00 00    	mov    0x1024(%esi),%eax
    73ed:	8b 8e 28 10 00 00    	mov    0x1028(%esi),%ecx
    73f3:	89 c2                	mov    %eax,%edx
    73f5:	89 45 e0             	mov    %eax,-0x20(%ebp)
    73f8:	39 c1                	cmp    %eax,%ecx
    73fa:	0f 83 a8 00 00 00    	jae    74a8 <tinput_display_tail+0xe8>
    7400:	8b 86 14 10 00 00    	mov    0x1014(%esi),%eax
    7406:	31 d2                	xor    %edx,%edx
    7408:	01 d8                	add    %ebx,%eax
    740a:	89 4d dc             	mov    %ecx,-0x24(%ebp)
    740d:	f7 b6 18 10 00 00    	divl   0x1018(%esi)
    7413:	51                   	push   %ecx
    7414:	50                   	push   %eax
    7415:	8b 06                	mov    (%esi),%eax
    7417:	52                   	push   %edx
    7418:	50                   	push   %eax
    7419:	e8 e2 5f 00 00       	call   d400 <console_set_pos@plt>
    741e:	8b 0e                	mov    (%esi),%ecx
    7420:	58                   	pop    %eax
    7421:	5a                   	pop    %edx
    7422:	6a 00                	push   $0x0
    7424:	51                   	push   %ecx
    7425:	e8 e6 5e 00 00       	call   d310 <console_set_style@plt>
    742a:	8b 4d dc             	mov    -0x24(%ebp),%ecx
    742d:	83 c4 10             	add    $0x10,%esp
    7430:	39 cb                	cmp    %ecx,%ebx
    7432:	0f 82 18 01 00 00    	jb     7550 <tinput_display_tail+0x190>
    7438:	3b 5d e0             	cmp    -0x20(%ebp),%ebx
    743b:	0f 82 b7 00 00 00    	jb     74f8 <tinput_display_tail+0x138>
    7441:	83 ec 0c             	sub    $0xc,%esp
    7444:	8b 06                	mov    (%esi),%eax
    7446:	50                   	push   %eax
    7447:	e8 64 5f 00 00       	call   d3b0 <console_flush@plt>
    744c:	8b 0e                	mov    (%esi),%ecx
    744e:	58                   	pop    %eax
    744f:	5a                   	pop    %edx
    7450:	6a 00                	push   $0x0
    7452:	51                   	push   %ecx
    7453:	e8 b8 5e 00 00       	call   d310 <console_set_style@plt>
    7458:	8b 86 20 10 00 00    	mov    0x1020(%esi),%eax
    745e:	83 c4 10             	add    $0x10,%esp
    7461:	39 c3                	cmp    %eax,%ebx
    7463:	72 53                	jb     74b8 <tinput_display_tail+0xf8>
    7465:	31 db                	xor    %ebx,%ebx
    7467:	85 ff                	test   %edi,%edi
    7469:	74 17                	je     7482 <tinput_display_tail+0xc2>
    746b:	90                   	nop
    746c:	8d 74 26 00          	lea    0x0(%esi,%eiz,1),%esi
    7470:	83 ec 0c             	sub    $0xc,%esp
    7473:	43                   	inc    %ebx
    7474:	6a 20                	push   $0x20
    7476:	e8 35 5b 00 00       	call   cfb0 <putchar@plt>
    747b:	83 c4 10             	add    $0x10,%esp
    747e:	39 df                	cmp    %ebx,%edi
    7480:	75 ee                	jne    7470 <tinput_display_tail+0xb0>
    7482:	83 ec 0c             	sub    $0xc,%esp
    7485:	8b 06                	mov    (%esi),%eax
    7487:	50                   	push   %eax
    7488:	e8 23 5f 00 00       	call   d3b0 <console_flush@plt>
    748d:	8b 4d e4             	mov    -0x1c(%ebp),%ecx
    7490:	5a                   	pop    %edx
    7491:	51                   	push   %ecx
    7492:	e8 79 60 00 00       	call   d510 <free@plt>
    7497:	83 c4 10             	add    $0x10,%esp
    749a:	8d 65 f4             	lea    -0xc(%ebp),%esp
    749d:	5b                   	pop    %ebx
    749e:	5e                   	pop    %esi
    749f:	5f                   	pop    %edi
    74a0:	5d                   	pop    %ebp
    74a1:	c3                   	ret    
    74a2:	8d b6 00 00 00 00    	lea    0x0(%esi),%esi
    74a8:	89 c8                	mov    %ecx,%eax
    74aa:	89 d1                	mov    %edx,%ecx
    74ac:	89 45 e0             	mov    %eax,-0x20(%ebp)
    74af:	e9 4c ff ff ff       	jmp    7400 <tinput_display_tail+0x40>
    74b4:	8d 74 26 00          	lea    0x0(%esi,%eiz,1),%esi
    74b8:	29 d8                	sub    %ebx,%eax
    74ba:	8b 4d e4             	mov    -0x1c(%ebp),%ecx
    74bd:	c1 e0 02             	shl    $0x2,%eax
    74c0:	52                   	push   %edx
    74c1:	50                   	push   %eax
    74c2:	8d 44 9e 0c          	lea    0xc(%esi,%ebx,4),%eax
    74c6:	50                   	push   %eax
    74c7:	51                   	push   %ecx
    74c8:	e8 f3 5b 00 00       	call   d0c0 <memcpy@plt>
    74cd:	8b 86 20 10 00 00    	mov    0x1020(%esi),%eax
    74d3:	29 d8                	sub    %ebx,%eax
    74d5:	8b 4d e4             	mov    -0x1c(%ebp),%ecx
    74d8:	c7 04 81 00 00 00 00 	movl   $0x0,(%ecx,%eax,4)
    74df:	5b                   	pop    %ebx
    74e0:	58                   	pop    %eax
    74e1:	51                   	push   %ecx
    74e2:	68 ec c9 00 00       	push   $0xc9ec
    74e7:	e8 04 5b 00 00       	call   cff0 <printf@plt>
    74ec:	83 c4 10             	add    $0x10,%esp
    74ef:	e9 71 ff ff ff       	jmp    7465 <tinput_display_tail+0xa5>
    74f4:	8d 74 26 00          	lea    0x0(%esi,%eiz,1),%esi
    74f8:	83 ec 0c             	sub    $0xc,%esp
    74fb:	8b 06                	mov    (%esi),%eax
    74fd:	50                   	push   %eax
    74fe:	e8 ad 5e 00 00       	call   d3b0 <console_flush@plt>
    7503:	8b 0e                	mov    (%esi),%ecx
    7505:	58                   	pop    %eax
    7506:	5a                   	pop    %edx
    7507:	6a 03                	push   $0x3
    7509:	51                   	push   %ecx
    750a:	e8 01 5e 00 00       	call   d310 <console_set_style@plt>
    750f:	8b 55 e0             	mov    -0x20(%ebp),%edx
    7512:	83 c4 0c             	add    $0xc,%esp
    7515:	29 da                	sub    %ebx,%edx
    7517:	8d 44 9e 0c          	lea    0xc(%esi,%ebx,4),%eax
    751b:	c1 e2 02             	shl    $0x2,%edx
    751e:	8b 5d e4             	mov    -0x1c(%ebp),%ebx
    7521:	52                   	push   %edx
    7522:	89 55 dc             	mov    %edx,-0x24(%ebp)
    7525:	50                   	push   %eax
    7526:	53                   	push   %ebx
    7527:	e8 94 5b 00 00       	call   d0c0 <memcpy@plt>
    752c:	8b 55 dc             	mov    -0x24(%ebp),%edx
    752f:	c7 04 13 00 00 00 00 	movl   $0x0,(%ebx,%edx,1)
    7536:	58                   	pop    %eax
    7537:	5a                   	pop    %edx
    7538:	53                   	push   %ebx
    7539:	68 ec c9 00 00       	push   $0xc9ec
    753e:	e8 ad 5a 00 00       	call   cff0 <printf@plt>
    7543:	83 c4 10             	add    $0x10,%esp
    7546:	8b 5d e0             	mov    -0x20(%ebp),%ebx
    7549:	e9 f3 fe ff ff       	jmp    7441 <tinput_display_tail+0x81>
    754e:	66 90                	xchg   %ax,%ax
    7550:	89 ca                	mov    %ecx,%edx
    7552:	8d 44 9e 0c          	lea    0xc(%esi,%ebx,4),%eax
    7556:	29 da                	sub    %ebx,%edx
    7558:	8b 5d e4             	mov    -0x1c(%ebp),%ebx
    755b:	c1 e2 02             	shl    $0x2,%edx
    755e:	89 4d d8             	mov    %ecx,-0x28(%ebp)
    7561:	89 55 dc             	mov    %edx,-0x24(%ebp)
    7564:	51                   	push   %ecx
    7565:	52                   	push   %edx
    7566:	50                   	push   %eax
    7567:	53                   	push   %ebx
    7568:	e8 53 5b 00 00       	call   d0c0 <memcpy@plt>
    756d:	8b 55 dc             	mov    -0x24(%ebp),%edx
    7570:	c7 04 13 00 00 00 00 	movl   $0x0,(%ebx,%edx,1)
    7577:	58                   	pop    %eax
    7578:	5a                   	pop    %edx
    7579:	53                   	push   %ebx
    757a:	68 ec c9 00 00       	push   $0xc9ec
    757f:	e8 6c 5a 00 00       	call   cff0 <printf@plt>
    7584:	8b 4d d8             	mov    -0x28(%ebp),%ecx
    7587:	83 c4 10             	add    $0x10,%esp
    758a:	89 cb                	mov    %ecx,%ebx
    758c:	e9 a7 fe ff ff       	jmp    7438 <tinput_display_tail+0x78>
    7591:	eb 0d                	jmp    75a0 <tinput_history_seek.part.6>
    7593:	90                   	nop
    7594:	90                   	nop
    7595:	90                   	nop
    7596:	90                   	nop
    7597:	90                   	nop
    7598:	90                   	nop
    7599:	90                   	nop
    759a:	90                   	nop
    759b:	90                   	nop
    759c:	90                   	nop
    759d:	90                   	nop
    759e:	90                   	nop
    759f:	90                   	nop

000075a0 <tinput_history_seek.part.6>:
    75a0:	55                   	push   %ebp
    75a1:	89 e5                	mov    %esp,%ebp
    75a3:	57                   	push   %edi
    75a4:	56                   	push   %esi
    75a5:	53                   	push   %ebx
    75a6:	83 ec 1c             	sub    $0x1c,%esp
    75a9:	89 c3                	mov    %eax,%ebx
    75ab:	8b b0 5c 10 00 00    	mov    0x105c(%eax),%esi
    75b1:	81 c6 08 04 00 00    	add    $0x408,%esi
    75b7:	8b 44 b0 0c          	mov    0xc(%eax,%esi,4),%eax
    75bb:	85 c0                	test   %eax,%eax
    75bd:	74 26                	je     75e5 <tinput_history_seek.part.6+0x45>
    75bf:	83 ec 0c             	sub    $0xc,%esp
    75c2:	89 55 e4             	mov    %edx,-0x1c(%ebp)
    75c5:	50                   	push   %eax
    75c6:	e8 45 5f 00 00       	call   d510 <free@plt>
    75cb:	8b b3 5c 10 00 00    	mov    0x105c(%ebx),%esi
    75d1:	83 c4 10             	add    $0x10,%esp
    75d4:	81 c6 08 04 00 00    	add    $0x408,%esi
    75da:	8b 55 e4             	mov    -0x1c(%ebp),%edx
    75dd:	c7 44 b3 0c 00 00 00 	movl   $0x0,0xc(%ebx,%esi,4)
    75e4:	00 
    75e5:	83 ec 0c             	sub    $0xc,%esp
    75e8:	8d 7b 0c             	lea    0xc(%ebx),%edi
    75eb:	89 55 e4             	mov    %edx,-0x1c(%ebp)
    75ee:	57                   	push   %edi
    75ef:	e8 4c 5d 00 00       	call   d340 <wstr_to_astr@plt>
    75f4:	8b 55 e4             	mov    -0x1c(%ebp),%edx
    75f7:	89 44 b3 0c          	mov    %eax,0xc(%ebx,%esi,4)
    75fb:	8b 83 5c 10 00 00    	mov    0x105c(%ebx),%eax
    7601:	8b b3 20 10 00 00    	mov    0x1020(%ebx),%esi
    7607:	01 c2                	add    %eax,%edx
    7609:	58                   	pop    %eax
    760a:	89 93 5c 10 00 00    	mov    %edx,0x105c(%ebx)
    7610:	8b 84 93 2c 10 00 00 	mov    0x102c(%ebx,%edx,4),%eax
    7617:	50                   	push   %eax
    7618:	e8 c3 5d 00 00       	call   d3e0 <str_length@plt>
    761d:	29 c6                	sub    %eax,%esi
    761f:	8b 83 5c 10 00 00    	mov    0x105c(%ebx),%eax
    7625:	83 c4 0c             	add    $0xc,%esp
    7628:	8b 84 83 2c 10 00 00 	mov    0x102c(%ebx,%eax,4),%eax
    762f:	50                   	push   %eax
    7630:	68 00 04 00 00       	push   $0x400
    7635:	57                   	push   %edi
    7636:	e8 05 5e 00 00       	call   d440 <str_to_wstr@plt>
    763b:	89 3c 24             	mov    %edi,(%esp)
    763e:	e8 9d 59 00 00       	call   cfe0 <wstr_length@plt>
    7643:	89 f1                	mov    %esi,%ecx
    7645:	89 83 20 10 00 00    	mov    %eax,0x1020(%ebx)
    764b:	89 83 24 10 00 00    	mov    %eax,0x1024(%ebx)
    7651:	89 83 28 10 00 00    	mov    %eax,0x1028(%ebx)
    7657:	85 f6                	test   %esi,%esi
    7659:	78 6d                	js     76c8 <tinput_history_seek.part.6+0x128>
    765b:	31 d2                	xor    %edx,%edx
    765d:	89 d8                	mov    %ebx,%eax
    765f:	e8 5c fd ff ff       	call   73c0 <tinput_display_tail>
    7664:	8b 8b 14 10 00 00    	mov    0x1014(%ebx),%ecx
    766a:	8b 83 20 10 00 00    	mov    0x1020(%ebx),%eax
    7670:	31 d2                	xor    %edx,%edx
    7672:	01 c8                	add    %ecx,%eax
    7674:	8b b3 18 10 00 00    	mov    0x1018(%ebx),%esi
    767a:	f7 f6                	div    %esi
    767c:	8b 93 1c 10 00 00    	mov    0x101c(%ebx),%edx
    7682:	83 c4 10             	add    $0x10,%esp
    7685:	39 d0                	cmp    %edx,%eax
    7687:	72 1c                	jb     76a5 <tinput_history_seek.part.6+0x105>
    7689:	29 d0                	sub    %edx,%eax
    768b:	8b bb 10 10 00 00    	mov    0x1010(%ebx),%edi
    7691:	40                   	inc    %eax
    7692:	0f af c6             	imul   %esi,%eax
    7695:	29 c1                	sub    %eax,%ecx
    7697:	29 c7                	sub    %eax,%edi
    7699:	89 8b 14 10 00 00    	mov    %ecx,0x1014(%ebx)
    769f:	89 bb 10 10 00 00    	mov    %edi,0x1010(%ebx)
    76a5:	8b 83 24 10 00 00    	mov    0x1024(%ebx),%eax
    76ab:	52                   	push   %edx
    76ac:	01 c8                	add    %ecx,%eax
    76ae:	31 d2                	xor    %edx,%edx
    76b0:	f7 f6                	div    %esi
    76b2:	8b 0b                	mov    (%ebx),%ecx
    76b4:	50                   	push   %eax
    76b5:	52                   	push   %edx
    76b6:	51                   	push   %ecx
    76b7:	e8 44 5d 00 00       	call   d400 <console_set_pos@plt>
    76bc:	83 c4 10             	add    $0x10,%esp
    76bf:	8d 65 f4             	lea    -0xc(%ebp),%esp
    76c2:	5b                   	pop    %ebx
    76c3:	5e                   	pop    %esi
    76c4:	5f                   	pop    %edi
    76c5:	5d                   	pop    %ebp
    76c6:	c3                   	ret    
    76c7:	90                   	nop
    76c8:	31 c9                	xor    %ecx,%ecx
    76ca:	eb 8f                	jmp    765b <tinput_history_seek.part.6+0xbb>
    76cc:	8d 74 26 00          	lea    0x0(%esi,%eiz,1),%esi

000076d0 <tinput_display_tail.constprop.12>:
    76d0:	55                   	push   %ebp
    76d1:	89 e5                	mov    %esp,%ebp
    76d3:	57                   	push   %edi
    76d4:	56                   	push   %esi
    76d5:	53                   	push   %ebx
    76d6:	83 ec 28             	sub    $0x28,%esp
    76d9:	89 c3                	mov    %eax,%ebx
    76db:	89 d6                	mov    %edx,%esi
    76dd:	68 04 10 00 00       	push   $0x1004
    76e2:	e8 f9 59 00 00       	call   d0e0 <malloc@plt>
    76e7:	83 c4 10             	add    $0x10,%esp
    76ea:	85 c0                	test   %eax,%eax
    76ec:	0f 84 96 00 00 00    	je     7788 <tinput_display_tail.constprop.12+0xb8>
    76f2:	89 c7                	mov    %eax,%edi
    76f4:	8b 8b 28 10 00 00    	mov    0x1028(%ebx),%ecx
    76fa:	8b 83 24 10 00 00    	mov    0x1024(%ebx),%eax
    7700:	89 c2                	mov    %eax,%edx
    7702:	89 45 e4             	mov    %eax,-0x1c(%ebp)
    7705:	39 c1                	cmp    %eax,%ecx
    7707:	0f 83 83 00 00 00    	jae    7790 <tinput_display_tail.constprop.12+0xc0>
    770d:	8b 83 14 10 00 00    	mov    0x1014(%ebx),%eax
    7713:	31 d2                	xor    %edx,%edx
    7715:	01 f0                	add    %esi,%eax
    7717:	89 4d e0             	mov    %ecx,-0x20(%ebp)
    771a:	f7 b3 18 10 00 00    	divl   0x1018(%ebx)
    7720:	51                   	push   %ecx
    7721:	50                   	push   %eax
    7722:	8b 03                	mov    (%ebx),%eax
    7724:	52                   	push   %edx
    7725:	50                   	push   %eax
    7726:	e8 d5 5c 00 00       	call   d400 <console_set_pos@plt>
    772b:	8b 0b                	mov    (%ebx),%ecx
    772d:	58                   	pop    %eax
    772e:	5a                   	pop    %edx
    772f:	6a 00                	push   $0x0
    7731:	51                   	push   %ecx
    7732:	e8 d9 5b 00 00       	call   d310 <console_set_style@plt>
    7737:	8b 4d e0             	mov    -0x20(%ebp),%ecx
    773a:	83 c4 10             	add    $0x10,%esp
    773d:	39 ce                	cmp    %ecx,%esi
    773f:	0f 82 eb 00 00 00    	jb     7830 <tinput_display_tail.constprop.12+0x160>
    7745:	3b 75 e4             	cmp    -0x1c(%ebp),%esi
    7748:	0f 82 8a 00 00 00    	jb     77d8 <tinput_display_tail.constprop.12+0x108>
    774e:	83 ec 0c             	sub    $0xc,%esp
    7751:	8b 03                	mov    (%ebx),%eax
    7753:	50                   	push   %eax
    7754:	e8 57 5c 00 00       	call   d3b0 <console_flush@plt>
    7759:	8b 0b                	mov    (%ebx),%ecx
    775b:	58                   	pop    %eax
    775c:	5a                   	pop    %edx
    775d:	6a 00                	push   $0x0
    775f:	51                   	push   %ecx
    7760:	e8 ab 5b 00 00       	call   d310 <console_set_style@plt>
    7765:	8b 83 20 10 00 00    	mov    0x1020(%ebx),%eax
    776b:	83 c4 10             	add    $0x10,%esp
    776e:	39 f0                	cmp    %esi,%eax
    7770:	77 2e                	ja     77a0 <tinput_display_tail.constprop.12+0xd0>
    7772:	83 ec 0c             	sub    $0xc,%esp
    7775:	8b 03                	mov    (%ebx),%eax
    7777:	50                   	push   %eax
    7778:	e8 33 5c 00 00       	call   d3b0 <console_flush@plt>
    777d:	89 3c 24             	mov    %edi,(%esp)
    7780:	e8 8b 5d 00 00       	call   d510 <free@plt>
    7785:	83 c4 10             	add    $0x10,%esp
    7788:	8d 65 f4             	lea    -0xc(%ebp),%esp
    778b:	5b                   	pop    %ebx
    778c:	5e                   	pop    %esi
    778d:	5f                   	pop    %edi
    778e:	5d                   	pop    %ebp
    778f:	c3                   	ret    
    7790:	89 c8                	mov    %ecx,%eax
    7792:	89 d1                	mov    %edx,%ecx
    7794:	89 45 e4             	mov    %eax,-0x1c(%ebp)
    7797:	e9 71 ff ff ff       	jmp    770d <tinput_display_tail.constprop.12+0x3d>
    779c:	8d 74 26 00          	lea    0x0(%esi,%eiz,1),%esi
    77a0:	29 f0                	sub    %esi,%eax
    77a2:	52                   	push   %edx
    77a3:	c1 e0 02             	shl    $0x2,%eax
    77a6:	50                   	push   %eax
    77a7:	8d 44 b3 0c          	lea    0xc(%ebx,%esi,4),%eax
    77ab:	50                   	push   %eax
    77ac:	57                   	push   %edi
    77ad:	e8 0e 59 00 00       	call   d0c0 <memcpy@plt>
    77b2:	8b 83 20 10 00 00    	mov    0x1020(%ebx),%eax
    77b8:	29 f0                	sub    %esi,%eax
    77ba:	c7 04 87 00 00 00 00 	movl   $0x0,(%edi,%eax,4)
    77c1:	59                   	pop    %ecx
    77c2:	5e                   	pop    %esi
    77c3:	57                   	push   %edi
    77c4:	68 ec c9 00 00       	push   $0xc9ec
    77c9:	e8 22 58 00 00       	call   cff0 <printf@plt>
    77ce:	83 c4 10             	add    $0x10,%esp
    77d1:	eb 9f                	jmp    7772 <tinput_display_tail.constprop.12+0xa2>
    77d3:	90                   	nop
    77d4:	8d 74 26 00          	lea    0x0(%esi,%eiz,1),%esi
    77d8:	83 ec 0c             	sub    $0xc,%esp
    77db:	8b 03                	mov    (%ebx),%eax
    77dd:	50                   	push   %eax
    77de:	e8 cd 5b 00 00       	call   d3b0 <console_flush@plt>
    77e3:	8b 0b                	mov    (%ebx),%ecx
    77e5:	58                   	pop    %eax
    77e6:	5a                   	pop    %edx
    77e7:	6a 03                	push   $0x3
    77e9:	51                   	push   %ecx
    77ea:	e8 21 5b 00 00       	call   d310 <console_set_style@plt>
    77ef:	8b 55 e4             	mov    -0x1c(%ebp),%edx
    77f2:	83 c4 0c             	add    $0xc,%esp
    77f5:	29 f2                	sub    %esi,%edx
    77f7:	8d 44 b3 0c          	lea    0xc(%ebx,%esi,4),%eax
    77fb:	c1 e2 02             	shl    $0x2,%edx
    77fe:	52                   	push   %edx
    77ff:	89 55 e0             	mov    %edx,-0x20(%ebp)
    7802:	50                   	push   %eax
    7803:	57                   	push   %edi
    7804:	e8 b7 58 00 00       	call   d0c0 <memcpy@plt>
    7809:	8b 55 e0             	mov    -0x20(%ebp),%edx
    780c:	c7 04 17 00 00 00 00 	movl   $0x0,(%edi,%edx,1)
    7813:	5e                   	pop    %esi
    7814:	58                   	pop    %eax
    7815:	57                   	push   %edi
    7816:	68 ec c9 00 00       	push   $0xc9ec
    781b:	e8 d0 57 00 00       	call   cff0 <printf@plt>
    7820:	83 c4 10             	add    $0x10,%esp
    7823:	8b 75 e4             	mov    -0x1c(%ebp),%esi
    7826:	e9 23 ff ff ff       	jmp    774e <tinput_display_tail.constprop.12+0x7e>
    782b:	90                   	nop
    782c:	8d 74 26 00          	lea    0x0(%esi,%eiz,1),%esi
    7830:	89 ca                	mov    %ecx,%edx
    7832:	50                   	push   %eax
    7833:	29 f2                	sub    %esi,%edx
    7835:	8d 44 b3 0c          	lea    0xc(%ebx,%esi,4),%eax
    7839:	c1 e2 02             	shl    $0x2,%edx
    783c:	89 4d dc             	mov    %ecx,-0x24(%ebp)
    783f:	52                   	push   %edx
    7840:	89 55 e0             	mov    %edx,-0x20(%ebp)
    7843:	50                   	push   %eax
    7844:	57                   	push   %edi
    7845:	e8 76 58 00 00       	call   d0c0 <memcpy@plt>
    784a:	8b 55 e0             	mov    -0x20(%ebp),%edx
    784d:	c7 04 17 00 00 00 00 	movl   $0x0,(%edi,%edx,1)
    7854:	58                   	pop    %eax
    7855:	5a                   	pop    %edx
    7856:	57                   	push   %edi
    7857:	68 ec c9 00 00       	push   $0xc9ec
    785c:	e8 8f 57 00 00       	call   cff0 <printf@plt>
    7861:	8b 4d dc             	mov    -0x24(%ebp),%ecx
    7864:	83 c4 10             	add    $0x10,%esp
    7867:	89 ce                	mov    %ecx,%esi
    7869:	e9 d7 fe ff ff       	jmp    7745 <tinput_display_tail.constprop.12+0x75>
    786e:	66 90                	xchg   %ax,%ax

00007870 <tinput_insert_string>:
    7870:	55                   	push   %ebp
    7871:	89 e5                	mov    %esp,%ebp
    7873:	57                   	push   %edi
    7874:	56                   	push   %esi
    7875:	53                   	push   %ebx
    7876:	83 ec 38             	sub    $0x38,%esp
    7879:	89 c6                	mov    %eax,%esi
    787b:	89 55 d0             	mov    %edx,-0x30(%ebp)
    787e:	bb 00 04 00 00       	mov    $0x400,%ebx
    7883:	52                   	push   %edx
    7884:	e8 57 5b 00 00       	call   d3e0 <str_length@plt>
    7889:	8b 96 20 10 00 00    	mov    0x1020(%esi),%edx
    788f:	83 c4 10             	add    $0x10,%esp
    7892:	29 d3                	sub    %edx,%ebx
    7894:	39 d8                	cmp    %ebx,%eax
    7896:	0f 82 24 01 00 00    	jb     79c0 <tinput_insert_string+0x150>
    789c:	85 db                	test   %ebx,%ebx
    789e:	74 28                	je     78c8 <tinput_insert_string+0x58>
    78a0:	8b be 18 10 00 00    	mov    0x1018(%esi),%edi
    78a6:	31 d2                	xor    %edx,%edx
    78a8:	8b 86 14 10 00 00    	mov    0x1014(%esi),%eax
    78ae:	8b 8e 20 10 00 00    	mov    0x1020(%esi),%ecx
    78b4:	f7 f7                	div    %edi
    78b6:	8d 04 0a             	lea    (%edx,%ecx,1),%eax
    78b9:	31 d2                	xor    %edx,%edx
    78bb:	01 d8                	add    %ebx,%eax
    78bd:	f7 f7                	div    %edi
    78bf:	40                   	inc    %eax
    78c0:	3b 86 1c 10 00 00    	cmp    0x101c(%esi),%eax
    78c6:	72 08                	jb     78d0 <tinput_insert_string+0x60>
    78c8:	8d 65 f4             	lea    -0xc(%ebp),%esp
    78cb:	5b                   	pop    %ebx
    78cc:	5e                   	pop    %esi
    78cd:	5f                   	pop    %edi
    78ce:	5d                   	pop    %ebp
    78cf:	c3                   	ret    
    78d0:	85 c9                	test   %ecx,%ecx
    78d2:	0f 85 00 01 00 00    	jne    79d8 <tinput_insert_string+0x168>
    78d8:	89 5d d4             	mov    %ebx,-0x2c(%ebp)
    78db:	c7 45 e4 00 00 00 00 	movl   $0x0,-0x1c(%ebp)
    78e2:	31 ff                	xor    %edi,%edi
    78e4:	8b 5d d0             	mov    -0x30(%ebp),%ebx
    78e7:	eb 28                	jmp    7911 <tinput_insert_string+0xa1>
    78e9:	8d b4 26 00 00 00 00 	lea    0x0(%esi,%eiz,1),%esi
    78f0:	8b 96 24 10 00 00    	mov    0x1024(%esi),%edx
    78f6:	83 f8 20             	cmp    $0x20,%eax
    78f9:	8d 0c 3a             	lea    (%edx,%edi,1),%ecx
    78fc:	7d 05                	jge    7903 <tinput_insert_string+0x93>
    78fe:	b8 20 00 00 00       	mov    $0x20,%eax
    7903:	47                   	inc    %edi
    7904:	89 44 8e 0c          	mov    %eax,0xc(%esi,%ecx,4)
    7908:	39 7d d4             	cmp    %edi,-0x2c(%ebp)
    790b:	0f 84 f0 00 00 00    	je     7a01 <tinput_insert_string+0x191>
    7911:	50                   	push   %eax
    7912:	8d 45 e4             	lea    -0x1c(%ebp),%eax
    7915:	6a ff                	push   $0xffffffff
    7917:	50                   	push   %eax
    7918:	53                   	push   %ebx
    7919:	e8 62 57 00 00       	call   d080 <str_decode@plt>
    791e:	83 c4 10             	add    $0x10,%esp
    7921:	85 c0                	test   %eax,%eax
    7923:	75 cb                	jne    78f0 <tinput_insert_string+0x80>
    7925:	8b 5d d4             	mov    -0x2c(%ebp),%ebx
    7928:	8b 96 24 10 00 00    	mov    0x1024(%esi),%edx
    792e:	8b 8e 20 10 00 00    	mov    0x1020(%esi),%ecx
    7934:	8d 04 13             	lea    (%ebx,%edx,1),%eax
    7937:	01 cb                	add    %ecx,%ebx
    7939:	89 86 24 10 00 00    	mov    %eax,0x1024(%esi)
    793f:	89 9e 20 10 00 00    	mov    %ebx,0x1020(%esi)
    7945:	c7 44 9e 0c 00 00 00 	movl   $0x0,0xc(%esi,%ebx,4)
    794c:	00 
    794d:	89 86 28 10 00 00    	mov    %eax,0x1028(%esi)
    7953:	89 f0                	mov    %esi,%eax
    7955:	e8 76 fd ff ff       	call   76d0 <tinput_display_tail.constprop.12>
    795a:	8b 8e 14 10 00 00    	mov    0x1014(%esi),%ecx
    7960:	8b 86 20 10 00 00    	mov    0x1020(%esi),%eax
    7966:	31 d2                	xor    %edx,%edx
    7968:	01 c8                	add    %ecx,%eax
    796a:	8b 9e 18 10 00 00    	mov    0x1018(%esi),%ebx
    7970:	f7 f3                	div    %ebx
    7972:	8b 96 1c 10 00 00    	mov    0x101c(%esi),%edx
    7978:	39 d0                	cmp    %edx,%eax
    797a:	72 1c                	jb     7998 <tinput_insert_string+0x128>
    797c:	29 d0                	sub    %edx,%eax
    797e:	8b be 10 10 00 00    	mov    0x1010(%esi),%edi
    7984:	40                   	inc    %eax
    7985:	0f af c3             	imul   %ebx,%eax
    7988:	29 c1                	sub    %eax,%ecx
    798a:	29 c7                	sub    %eax,%edi
    798c:	89 8e 14 10 00 00    	mov    %ecx,0x1014(%esi)
    7992:	89 be 10 10 00 00    	mov    %edi,0x1010(%esi)
    7998:	8b 86 24 10 00 00    	mov    0x1024(%esi),%eax
    799e:	52                   	push   %edx
    799f:	01 c8                	add    %ecx,%eax
    79a1:	31 d2                	xor    %edx,%edx
    79a3:	f7 f3                	div    %ebx
    79a5:	8b 0e                	mov    (%esi),%ecx
    79a7:	50                   	push   %eax
    79a8:	52                   	push   %edx
    79a9:	51                   	push   %ecx
    79aa:	e8 51 5a 00 00       	call   d400 <console_set_pos@plt>
    79af:	83 c4 10             	add    $0x10,%esp
    79b2:	8d 65 f4             	lea    -0xc(%ebp),%esp
    79b5:	5b                   	pop    %ebx
    79b6:	5e                   	pop    %esi
    79b7:	5f                   	pop    %edi
    79b8:	5d                   	pop    %ebp
    79b9:	c3                   	ret    
    79ba:	8d b6 00 00 00 00    	lea    0x0(%esi),%esi
    79c0:	83 ec 0c             	sub    $0xc,%esp
    79c3:	8b 45 d0             	mov    -0x30(%ebp),%eax
    79c6:	50                   	push   %eax
    79c7:	e8 14 5a 00 00       	call   d3e0 <str_length@plt>
    79cc:	83 c4 10             	add    $0x10,%esp
    79cf:	89 c3                	mov    %eax,%ebx
    79d1:	e9 c6 fe ff ff       	jmp    789c <tinput_insert_string+0x2c>
    79d6:	66 90                	xchg   %ax,%ax
    79d8:	8b 96 24 10 00 00    	mov    0x1024(%esi),%edx
    79de:	39 d1                	cmp    %edx,%ecx
    79e0:	0f 86 f2 fe ff ff    	jbe    78d8 <tinput_insert_string+0x68>
    79e6:	8d 44 8e 08          	lea    0x8(%esi,%ecx,4),%eax
    79ea:	8d 4c 96 08          	lea    0x8(%esi,%edx,4),%ecx
    79ee:	66 90                	xchg   %ax,%ax
    79f0:	8b 10                	mov    (%eax),%edx
    79f2:	89 14 98             	mov    %edx,(%eax,%ebx,4)
    79f5:	83 e8 04             	sub    $0x4,%eax
    79f8:	39 c1                	cmp    %eax,%ecx
    79fa:	75 f4                	jne    79f0 <tinput_insert_string+0x180>
    79fc:	e9 d7 fe ff ff       	jmp    78d8 <tinput_insert_string+0x68>
    7a01:	8b 5d d4             	mov    -0x2c(%ebp),%ebx
    7a04:	e9 25 ff ff ff       	jmp    792e <tinput_insert_string+0xbe>
    7a09:	8d b4 26 00 00 00 00 	lea    0x0(%esi,%eiz,1),%esi

00007a10 <tinput_display>:
    7a10:	55                   	push   %ebp
    7a11:	89 e5                	mov    %esp,%ebp
    7a13:	57                   	push   %edi
    7a14:	56                   	push   %esi
    7a15:	53                   	push   %ebx
    7a16:	83 ec 20             	sub    $0x20,%esp
    7a19:	89 c3                	mov    %eax,%ebx
    7a1b:	8d 45 e4             	lea    -0x1c(%ebp),%eax
    7a1e:	50                   	push   %eax
    7a1f:	8d 45 e0             	lea    -0x20(%ebp),%eax
    7a22:	50                   	push   %eax
    7a23:	8b 03                	mov    (%ebx),%eax
    7a25:	50                   	push   %eax
    7a26:	e8 35 56 00 00       	call   d060 <console_get_pos@plt>
    7a2b:	83 c4 10             	add    $0x10,%esp
    7a2e:	85 c0                	test   %eax,%eax
    7a30:	0f 85 b2 00 00 00    	jne    7ae8 <tinput_display+0xd8>
    7a36:	8b b3 18 10 00 00    	mov    0x1018(%ebx),%esi
    7a3c:	89 c7                	mov    %eax,%edi
    7a3e:	8b 45 e4             	mov    -0x1c(%ebp),%eax
    7a41:	8b 55 e0             	mov    -0x20(%ebp),%edx
    7a44:	0f af f0             	imul   %eax,%esi
    7a47:	83 ec 0c             	sub    $0xc,%esp
    7a4a:	01 d6                	add    %edx,%esi
    7a4c:	8b 4b 04             	mov    0x4(%ebx),%ecx
    7a4f:	89 b3 10 10 00 00    	mov    %esi,0x1010(%ebx)
    7a55:	51                   	push   %ecx
    7a56:	e8 85 59 00 00       	call   d3e0 <str_length@plt>
    7a5b:	83 c4 0c             	add    $0xc,%esp
    7a5e:	01 c6                	add    %eax,%esi
    7a60:	31 d2                	xor    %edx,%edx
    7a62:	8b 83 10 10 00 00    	mov    0x1010(%ebx),%eax
    7a68:	f7 b3 18 10 00 00    	divl   0x1018(%ebx)
    7a6e:	89 b3 14 10 00 00    	mov    %esi,0x1014(%ebx)
    7a74:	8b 33                	mov    (%ebx),%esi
    7a76:	50                   	push   %eax
    7a77:	52                   	push   %edx
    7a78:	56                   	push   %esi
    7a79:	e8 82 59 00 00       	call   d400 <console_set_pos@plt>
    7a7e:	8b 0b                	mov    (%ebx),%ecx
    7a80:	58                   	pop    %eax
    7a81:	5a                   	pop    %edx
    7a82:	6a 01                	push   $0x1
    7a84:	51                   	push   %ecx
    7a85:	e8 86 58 00 00       	call   d310 <console_set_style@plt>
    7a8a:	5e                   	pop    %esi
    7a8b:	58                   	pop    %eax
    7a8c:	8b 43 04             	mov    0x4(%ebx),%eax
    7a8f:	50                   	push   %eax
    7a90:	68 52 ad 00 00       	push   $0xad52
    7a95:	e8 56 55 00 00       	call   cff0 <printf@plt>
    7a9a:	58                   	pop    %eax
    7a9b:	8b 03                	mov    (%ebx),%eax
    7a9d:	50                   	push   %eax
    7a9e:	e8 0d 59 00 00       	call   d3b0 <console_flush@plt>
    7aa3:	8b 0b                	mov    (%ebx),%ecx
    7aa5:	58                   	pop    %eax
    7aa6:	5a                   	pop    %edx
    7aa7:	6a 00                	push   $0x0
    7aa9:	51                   	push   %ecx
    7aaa:	e8 61 58 00 00       	call   d310 <console_set_style@plt>
    7aaf:	31 d2                	xor    %edx,%edx
    7ab1:	89 d8                	mov    %ebx,%eax
    7ab3:	e8 18 fc ff ff       	call   76d0 <tinput_display_tail.constprop.12>
    7ab8:	8b 83 24 10 00 00    	mov    0x1024(%ebx),%eax
    7abe:	8b b3 14 10 00 00    	mov    0x1014(%ebx),%esi
    7ac4:	83 c4 0c             	add    $0xc,%esp
    7ac7:	01 f0                	add    %esi,%eax
    7ac9:	31 d2                	xor    %edx,%edx
    7acb:	f7 b3 18 10 00 00    	divl   0x1018(%ebx)
    7ad1:	50                   	push   %eax
    7ad2:	8b 03                	mov    (%ebx),%eax
    7ad4:	52                   	push   %edx
    7ad5:	50                   	push   %eax
    7ad6:	e8 25 59 00 00       	call   d400 <console_set_pos@plt>
    7adb:	83 c4 10             	add    $0x10,%esp
    7ade:	8d 65 f4             	lea    -0xc(%ebp),%esp
    7ae1:	89 f8                	mov    %edi,%eax
    7ae3:	5b                   	pop    %ebx
    7ae4:	5e                   	pop    %esi
    7ae5:	5f                   	pop    %edi
    7ae6:	5d                   	pop    %ebp
    7ae7:	c3                   	ret    
    7ae8:	bf f6 fe ff ff       	mov    $0xfffffef6,%edi
    7aed:	eb ef                	jmp    7ade <tinput_display+0xce>
    7aef:	90                   	nop

00007af0 <tinput_new>:
    7af0:	55                   	push   %ebp
    7af1:	89 e5                	mov    %esp,%ebp
    7af3:	53                   	push   %ebx
    7af4:	83 ec 0c             	sub    $0xc,%esp
    7af7:	68 64 10 00 00       	push   $0x1064
    7afc:	6a 01                	push   $0x1
    7afe:	e8 1d 57 00 00       	call   d220 <calloc@plt>
    7b03:	83 c4 10             	add    $0x10,%esp
    7b06:	89 c3                	mov    %eax,%ebx
    7b08:	85 c0                	test   %eax,%eax
    7b0a:	74 38                	je     7b44 <tinput_new+0x54>
    7b0c:	8b 15 40 f8 00 00    	mov    0xf840,%edx
    7b12:	8b 0d 50 f8 00 00    	mov    0xf850,%ecx
    7b18:	50                   	push   %eax
    7b19:	50                   	push   %eax
    7b1a:	52                   	push   %edx
    7b1b:	51                   	push   %ecx
    7b1c:	e8 9f 56 00 00       	call   d1c0 <console_init@plt>
    7b21:	c7 83 58 10 00 00 00 	movl   $0x0,0x1058(%ebx)
    7b28:	00 00 00 
    7b2b:	89 03                	mov    %eax,(%ebx)
    7b2d:	c7 83 5c 10 00 00 00 	movl   $0x0,0x105c(%ebx)
    7b34:	00 00 00 
    7b37:	c7 83 2c 10 00 00 00 	movl   $0x0,0x102c(%ebx)
    7b3e:	00 00 00 
    7b41:	83 c4 10             	add    $0x10,%esp
    7b44:	89 d8                	mov    %ebx,%eax
    7b46:	8b 5d fc             	mov    -0x4(%ebp),%ebx
    7b49:	c9                   	leave  
    7b4a:	c3                   	ret    
    7b4b:	90                   	nop
    7b4c:	8d 74 26 00          	lea    0x0(%esi,%eiz,1),%esi

00007b50 <tinput_destroy>:
    7b50:	55                   	push   %ebp
    7b51:	89 e5                	mov    %esp,%ebp
    7b53:	53                   	push   %ebx
    7b54:	50                   	push   %eax
    7b55:	8b 5d 08             	mov    0x8(%ebp),%ebx
    7b58:	8b 43 04             	mov    0x4(%ebx),%eax
    7b5b:	85 c0                	test   %eax,%eax
    7b5d:	74 0c                	je     7b6b <tinput_destroy+0x1b>
    7b5f:	83 ec 0c             	sub    $0xc,%esp
    7b62:	50                   	push   %eax
    7b63:	e8 a8 59 00 00       	call   d510 <free@plt>
    7b68:	83 c4 10             	add    $0x10,%esp
    7b6b:	89 5d 08             	mov    %ebx,0x8(%ebp)
    7b6e:	8b 5d fc             	mov    -0x4(%ebp),%ebx
    7b71:	c9                   	leave  
    7b72:	e9 99 59 00 00       	jmp    d510 <free@plt>
    7b77:	89 f6                	mov    %esi,%esi
    7b79:	8d bc 27 00 00 00 00 	lea    0x0(%edi,%eiz,1),%edi

00007b80 <tinput_set_prompt>:
    7b80:	55                   	push   %ebp
    7b81:	89 e5                	mov    %esp,%ebp
    7b83:	53                   	push   %ebx
    7b84:	52                   	push   %edx
    7b85:	8b 5d 08             	mov    0x8(%ebp),%ebx
    7b88:	8b 43 04             	mov    0x4(%ebx),%eax
    7b8b:	85 c0                	test   %eax,%eax
    7b8d:	74 0c                	je     7b9b <tinput_set_prompt+0x1b>
    7b8f:	83 ec 0c             	sub    $0xc,%esp
    7b92:	50                   	push   %eax
    7b93:	e8 78 59 00 00       	call   d510 <free@plt>
    7b98:	83 c4 10             	add    $0x10,%esp
    7b9b:	83 ec 0c             	sub    $0xc,%esp
    7b9e:	8b 45 0c             	mov    0xc(%ebp),%eax
    7ba1:	50                   	push   %eax
    7ba2:	e8 d9 56 00 00       	call   d280 <str_dup@plt>
    7ba7:	83 c4 10             	add    $0x10,%esp
    7baa:	83 f8 01             	cmp    $0x1,%eax
    7bad:	89 43 04             	mov    %eax,0x4(%ebx)
    7bb0:	8b 5d fc             	mov    -0x4(%ebp),%ebx
    7bb3:	19 c0                	sbb    %eax,%eax
    7bb5:	c9                   	leave  
    7bb6:	83 e0 fe             	and    $0xfffffffe,%eax
    7bb9:	c3                   	ret    
    7bba:	8d b6 00 00 00 00    	lea    0x0(%esi),%esi

00007bc0 <tinput_set_compl_ops>:
    7bc0:	55                   	push   %ebp
    7bc1:	89 e5                	mov    %esp,%ebp
    7bc3:	8b 45 08             	mov    0x8(%ebp),%eax
    7bc6:	8b 55 0c             	mov    0xc(%ebp),%edx
    7bc9:	89 50 08             	mov    %edx,0x8(%eax)
    7bcc:	5d                   	pop    %ebp
    7bcd:	c3                   	ret    
    7bce:	66 90                	xchg   %ax,%ax

00007bd0 <tinput_read_i>:
    7bd0:	55                   	push   %ebp
    7bd1:	89 e5                	mov    %esp,%ebp
    7bd3:	57                   	push   %edi
    7bd4:	56                   	push   %esi
    7bd5:	53                   	push   %ebx
    7bd6:	81 ec 88 00 00 00    	sub    $0x88,%esp
    7bdc:	8b 7d 08             	mov    0x8(%ebp),%edi
    7bdf:	8b 07                	mov    (%edi),%eax
    7be1:	50                   	push   %eax
    7be2:	e8 c9 57 00 00       	call   d3b0 <console_flush@plt>
    7be7:	83 c4 0c             	add    $0xc,%esp
    7bea:	8d 87 1c 10 00 00    	lea    0x101c(%edi),%eax
    7bf0:	50                   	push   %eax
    7bf1:	8d 87 18 10 00 00    	lea    0x1018(%edi),%eax
    7bf7:	50                   	push   %eax
    7bf8:	8b 07                	mov    (%edi),%eax
    7bfa:	50                   	push   %eax
    7bfb:	e8 a0 53 00 00       	call   cfa0 <console_get_size@plt>
    7c00:	83 c4 10             	add    $0x10,%esp
    7c03:	85 c0                	test   %eax,%eax
    7c05:	0f 85 e5 03 00 00    	jne    7ff0 <tinput_read_i+0x420>
    7c0b:	8d 47 0c             	lea    0xc(%edi),%eax
    7c0e:	56                   	push   %esi
    7c0f:	89 c3                	mov    %eax,%ebx
    7c11:	89 45 a0             	mov    %eax,-0x60(%ebp)
    7c14:	8b 45 0c             	mov    0xc(%ebp),%eax
    7c17:	50                   	push   %eax
    7c18:	68 00 04 00 00       	push   $0x400
    7c1d:	53                   	push   %ebx
    7c1e:	e8 1d 58 00 00       	call   d440 <str_to_wstr@plt>
    7c23:	89 1c 24             	mov    %ebx,(%esp)
    7c26:	e8 b5 53 00 00       	call   cfe0 <wstr_length@plt>
    7c2b:	c7 87 28 10 00 00 00 	movl   $0x0,0x1028(%edi)
    7c32:	00 00 00 
    7c35:	89 87 20 10 00 00    	mov    %eax,0x1020(%edi)
    7c3b:	89 87 24 10 00 00    	mov    %eax,0x1024(%edi)
    7c41:	c6 87 60 10 00 00 00 	movb   $0x0,0x1060(%edi)
    7c48:	c6 87 61 10 00 00 00 	movb   $0x0,0x1061(%edi)
    7c4f:	89 f8                	mov    %edi,%eax
    7c51:	e8 ba fd ff ff       	call   7a10 <tinput_display>
    7c56:	83 c4 10             	add    $0x10,%esp
    7c59:	89 45 a4             	mov    %eax,-0x5c(%ebp)
    7c5c:	85 c0                	test   %eax,%eax
    7c5e:	0f 85 8c 03 00 00    	jne    7ff0 <tinput_read_i+0x420>
    7c64:	8d 5d c4             	lea    -0x3c(%ebp),%ebx
    7c67:	90                   	nop
    7c68:	80 bf 60 10 00 00 00 	cmpb   $0x0,0x1060(%edi)
    7c6f:	0f 85 03 01 00 00    	jne    7d78 <tinput_read_i+0x1a8>
    7c75:	83 ec 0c             	sub    $0xc,%esp
    7c78:	8b 07                	mov    (%edi),%eax
    7c7a:	50                   	push   %eax
    7c7b:	e8 30 57 00 00       	call   d3b0 <console_flush@plt>
    7c80:	8b 0f                	mov    (%edi),%ecx
    7c82:	58                   	pop    %eax
    7c83:	5a                   	pop    %edx
    7c84:	53                   	push   %ebx
    7c85:	51                   	push   %ecx
    7c86:	e8 e5 54 00 00       	call   d170 <console_get_event@plt>
    7c8b:	83 c4 10             	add    $0x10,%esp
    7c8e:	84 c0                	test   %al,%al
    7c90:	0f 84 5a 03 00 00    	je     7ff0 <tinput_read_i+0x420>
    7c96:	8b 45 cc             	mov    -0x34(%ebp),%eax
    7c99:	85 c0                	test   %eax,%eax
    7c9b:	0f 84 57 01 00 00    	je     7df8 <tinput_read_i+0x228>
    7ca1:	48                   	dec    %eax
    7ca2:	75 c4                	jne    7c68 <tinput_read_i+0x98>
    7ca4:	83 7d d4 01          	cmpl   $0x1,-0x2c(%ebp)
    7ca8:	75 be                	jne    7c68 <tinput_read_i+0x98>
    7caa:	8b 45 dc             	mov    -0x24(%ebp),%eax
    7cad:	66 8b b7 62 10 00 00 	mov    0x1062(%edi),%si
    7cb4:	89 45 98             	mov    %eax,-0x68(%ebp)
    7cb7:	8b 87 24 10 00 00    	mov    0x1024(%edi),%eax
    7cbd:	8b 4d e0             	mov    -0x20(%ebp),%ecx
    7cc0:	39 87 28 10 00 00    	cmp    %eax,0x1028(%edi)
    7cc6:	74 3e                	je     7d06 <tinput_read_i+0x136>
    7cc8:	66 85 f6             	test   %si,%si
    7ccb:	75 39                	jne    7d06 <tinput_read_i+0x136>
    7ccd:	89 87 28 10 00 00    	mov    %eax,0x1028(%edi)
    7cd3:	31 d2                	xor    %edx,%edx
    7cd5:	89 f8                	mov    %edi,%eax
    7cd7:	89 4d 9c             	mov    %ecx,-0x64(%ebp)
    7cda:	e8 f1 f9 ff ff       	call   76d0 <tinput_display_tail.constprop.12>
    7cdf:	8b 97 14 10 00 00    	mov    0x1014(%edi),%edx
    7ce5:	8b 87 24 10 00 00    	mov    0x1024(%edi),%eax
    7ceb:	51                   	push   %ecx
    7cec:	01 d0                	add    %edx,%eax
    7cee:	31 d2                	xor    %edx,%edx
    7cf0:	f7 b7 18 10 00 00    	divl   0x1018(%edi)
    7cf6:	50                   	push   %eax
    7cf7:	8b 07                	mov    (%edi),%eax
    7cf9:	52                   	push   %edx
    7cfa:	50                   	push   %eax
    7cfb:	e8 00 57 00 00       	call   d400 <console_set_pos@plt>
    7d00:	83 c4 10             	add    $0x10,%esp
    7d03:	8b 4d 9c             	mov    -0x64(%ebp),%ecx
    7d06:	8b 87 18 10 00 00    	mov    0x1018(%edi),%eax
    7d0c:	8b 55 98             	mov    -0x68(%ebp),%edx
    7d0f:	0f af c8             	imul   %eax,%ecx
    7d12:	01 ca                	add    %ecx,%edx
    7d14:	8b 8f 14 10 00 00    	mov    0x1014(%edi),%ecx
    7d1a:	89 45 9c             	mov    %eax,-0x64(%ebp)
    7d1d:	39 ca                	cmp    %ecx,%edx
    7d1f:	0f 86 1a 04 00 00    	jbe    813f <tinput_read_i+0x56f>
    7d25:	29 ca                	sub    %ecx,%edx
    7d27:	8b 87 20 10 00 00    	mov    0x1020(%edi),%eax
    7d2d:	89 97 24 10 00 00    	mov    %edx,0x1024(%edi)
    7d33:	39 c2                	cmp    %eax,%edx
    7d35:	0f 86 4d 17 00 00    	jbe    9488 <tinput_read_i+0x18b8>
    7d3b:	89 87 24 10 00 00    	mov    %eax,0x1024(%edi)
    7d41:	66 85 f6             	test   %si,%si
    7d44:	0f 85 b5 05 00 00    	jne    82ff <tinput_read_i+0x72f>
    7d4a:	89 87 28 10 00 00    	mov    %eax,0x1028(%edi)
    7d50:	01 c8                	add    %ecx,%eax
    7d52:	31 d2                	xor    %edx,%edx
    7d54:	f7 75 9c             	divl   -0x64(%ebp)
    7d57:	56                   	push   %esi
    7d58:	8b 0f                	mov    (%edi),%ecx
    7d5a:	50                   	push   %eax
    7d5b:	52                   	push   %edx
    7d5c:	51                   	push   %ecx
    7d5d:	e8 9e 56 00 00       	call   d400 <console_set_pos@plt>
    7d62:	83 c4 10             	add    $0x10,%esp
    7d65:	80 bf 60 10 00 00 00 	cmpb   $0x0,0x1060(%edi)
    7d6c:	0f 84 03 ff ff ff    	je     7c75 <tinput_read_i+0xa5>
    7d72:	8d b6 00 00 00 00    	lea    0x0(%esi),%esi
    7d78:	80 bf 61 10 00 00 00 	cmpb   $0x0,0x1061(%edi)
    7d7f:	0f 85 7f 11 00 00    	jne    8f04 <tinput_read_i+0x1334>
    7d85:	8b 87 20 10 00 00    	mov    0x1020(%edi),%eax
    7d8b:	8b 97 14 10 00 00    	mov    0x1014(%edi),%edx
    7d91:	89 87 24 10 00 00    	mov    %eax,0x1024(%edi)
    7d97:	01 d0                	add    %edx,%eax
    7d99:	51                   	push   %ecx
    7d9a:	31 d2                	xor    %edx,%edx
    7d9c:	f7 b7 18 10 00 00    	divl   0x1018(%edi)
    7da2:	8b 1f                	mov    (%edi),%ebx
    7da4:	50                   	push   %eax
    7da5:	52                   	push   %edx
    7da6:	53                   	push   %ebx
    7da7:	e8 54 56 00 00       	call   d400 <console_set_pos@plt>
    7dac:	c7 04 24 0a 00 00 00 	movl   $0xa,(%esp)
    7db3:	e8 f8 51 00 00       	call   cfb0 <putchar@plt>
    7db8:	8b 45 a0             	mov    -0x60(%ebp),%eax
    7dbb:	5e                   	pop    %esi
    7dbc:	50                   	push   %eax
    7dbd:	e8 7e 55 00 00       	call   d340 <wstr_to_astr@plt>
    7dc2:	89 c3                	mov    %eax,%ebx
    7dc4:	58                   	pop    %eax
    7dc5:	5a                   	pop    %edx
    7dc6:	68 1c c8 00 00       	push   $0xc81c
    7dcb:	53                   	push   %ebx
    7dcc:	e8 2f 55 00 00       	call   d300 <str_cmp@plt>
    7dd1:	83 c4 10             	add    $0x10,%esp
    7dd4:	85 c0                	test   %eax,%eax
    7dd6:	0f 85 c0 03 00 00    	jne    819c <tinput_read_i+0x5cc>
    7ddc:	8b 45 10             	mov    0x10(%ebp),%eax
    7ddf:	c7 87 5c 10 00 00 00 	movl   $0x0,0x105c(%edi)
    7de6:	00 00 00 
    7de9:	89 18                	mov    %ebx,(%eax)
    7deb:	8b 45 a4             	mov    -0x5c(%ebp),%eax
    7dee:	8d 65 f4             	lea    -0xc(%ebp),%esp
    7df1:	5b                   	pop    %ebx
    7df2:	5e                   	pop    %esi
    7df3:	5f                   	pop    %edi
    7df4:	5d                   	pop    %ebp
    7df5:	c3                   	ret    
    7df6:	66 90                	xchg   %ax,%ax
    7df8:	8b 45 d8             	mov    -0x28(%ebp),%eax
    7dfb:	85 c0                	test   %eax,%eax
    7dfd:	74 21                	je     7e20 <tinput_read_i+0x250>
    7dff:	8b 45 dc             	mov    -0x24(%ebp),%eax
    7e02:	83 f8 2b             	cmp    $0x2b,%eax
    7e05:	0f 84 d5 01 00 00    	je     7fe0 <tinput_read_i+0x410>
    7e0b:	83 f8 36             	cmp    $0x36,%eax
    7e0e:	0f 85 54 fe ff ff    	jne    7c68 <tinput_read_i+0x98>
    7e14:	c6 87 63 10 00 00 00 	movb   $0x0,0x1063(%edi)
    7e1b:	e9 48 fe ff ff       	jmp    7c68 <tinput_read_i+0x98>
    7e20:	8b 55 dc             	mov    -0x24(%ebp),%edx
    7e23:	83 fa 2b             	cmp    $0x2b,%edx
    7e26:	0f 84 fc 02 00 00    	je     8128 <tinput_read_i+0x558>
    7e2c:	83 fa 36             	cmp    $0x36,%edx
    7e2f:	0f 84 d3 01 00 00    	je     8008 <tinput_read_i+0x438>
    7e35:	8b 45 e0             	mov    -0x20(%ebp),%eax
    7e38:	a8 0c                	test   $0xc,%al
    7e3a:	74 08                	je     7e44 <tinput_read_i+0x274>
    7e3c:	a8 33                	test   $0x33,%al
    7e3e:	0f 84 2f 03 00 00    	je     8173 <tinput_read_i+0x5a3>
    7e44:	a8 03                	test   $0x3,%al
    7e46:	74 10                	je     7e58 <tinput_read_i+0x288>
    7e48:	a8 3c                	test   $0x3c,%al
    7e4a:	0f 84 36 03 00 00    	je     8186 <tinput_read_i+0x5b6>
    7e50:	a8 0c                	test   $0xc,%al
    7e52:	0f 85 1f 02 00 00    	jne    8077 <tinput_read_i+0x4a7>
    7e58:	a8 3f                	test   $0x3f,%al
    7e5a:	0f 84 b0 02 00 00    	je     8110 <tinput_read_i+0x540>
    7e60:	8b 75 e4             	mov    -0x1c(%ebp),%esi
    7e63:	83 fe 1f             	cmp    $0x1f,%esi
    7e66:	0f 8e fc fd ff ff    	jle    7c68 <tinput_read_i+0x98>
    7e6c:	8b 97 28 10 00 00    	mov    0x1028(%edi),%edx
    7e72:	8b 8f 24 10 00 00    	mov    0x1024(%edi),%ecx
    7e78:	39 ca                	cmp    %ecx,%edx
    7e7a:	0f 83 d0 02 00 00    	jae    8150 <tinput_read_i+0x580>
    7e80:	56                   	push   %esi
    7e81:	8b 75 a0             	mov    -0x60(%ebp),%esi
    7e84:	8b 87 20 10 00 00    	mov    0x1020(%edi),%eax
    7e8a:	89 4d 98             	mov    %ecx,-0x68(%ebp)
    7e8d:	29 c8                	sub    %ecx,%eax
    7e8f:	89 55 9c             	mov    %edx,-0x64(%ebp)
    7e92:	c1 e0 02             	shl    $0x2,%eax
    7e95:	50                   	push   %eax
    7e96:	8d 04 8e             	lea    (%esi,%ecx,4),%eax
    7e99:	50                   	push   %eax
    7e9a:	8d 04 96             	lea    (%esi,%edx,4),%eax
    7e9d:	50                   	push   %eax
    7e9e:	e8 6d 51 00 00       	call   d010 <memmove@plt>
    7ea3:	8b 55 9c             	mov    -0x64(%ebp),%edx
    7ea6:	8b 87 20 10 00 00    	mov    0x1020(%edi),%eax
    7eac:	01 d0                	add    %edx,%eax
    7eae:	8b 4d 98             	mov    -0x68(%ebp),%ecx
    7eb1:	29 c8                	sub    %ecx,%eax
    7eb3:	89 97 28 10 00 00    	mov    %edx,0x1028(%edi)
    7eb9:	89 97 24 10 00 00    	mov    %edx,0x1024(%edi)
    7ebf:	89 87 20 10 00 00    	mov    %eax,0x1020(%edi)
    7ec5:	29 d1                	sub    %edx,%ecx
    7ec7:	c7 44 87 0c 00 00 00 	movl   $0x0,0xc(%edi,%eax,4)
    7ece:	00 
    7ecf:	89 f8                	mov    %edi,%eax
    7ed1:	e8 ea f4 ff ff       	call   73c0 <tinput_display_tail>
    7ed6:	8b 97 14 10 00 00    	mov    0x1014(%edi),%edx
    7edc:	8b 87 24 10 00 00    	mov    0x1024(%edi),%eax
    7ee2:	83 c4 0c             	add    $0xc,%esp
    7ee5:	01 d0                	add    %edx,%eax
    7ee7:	31 d2                	xor    %edx,%edx
    7ee9:	f7 b7 18 10 00 00    	divl   0x1018(%edi)
    7eef:	8b 0f                	mov    (%edi),%ecx
    7ef1:	50                   	push   %eax
    7ef2:	52                   	push   %edx
    7ef3:	51                   	push   %ecx
    7ef4:	e8 07 55 00 00       	call   d400 <console_set_pos@plt>
    7ef9:	8b 75 e4             	mov    -0x1c(%ebp),%esi
    7efc:	83 c4 10             	add    $0x10,%esp
    7eff:	8b 8f 20 10 00 00    	mov    0x1020(%edi),%ecx
    7f05:	81 f9 00 04 00 00    	cmp    $0x400,%ecx
    7f0b:	0f 84 57 fd ff ff    	je     7c68 <tinput_read_i+0x98>
    7f11:	8d 41 01             	lea    0x1(%ecx),%eax
    7f14:	31 d2                	xor    %edx,%edx
    7f16:	89 45 9c             	mov    %eax,-0x64(%ebp)
    7f19:	8b 87 14 10 00 00    	mov    0x1014(%edi),%eax
    7f1f:	f7 b7 18 10 00 00    	divl   0x1018(%edi)
    7f25:	8d 41 01             	lea    0x1(%ecx),%eax
    7f28:	01 d0                	add    %edx,%eax
    7f2a:	31 d2                	xor    %edx,%edx
    7f2c:	f7 b7 18 10 00 00    	divl   0x1018(%edi)
    7f32:	85 d2                	test   %edx,%edx
    7f34:	0f 84 27 02 00 00    	je     8161 <tinput_read_i+0x591>
    7f3a:	8b 97 24 10 00 00    	mov    0x1024(%edi),%edx
    7f40:	39 d1                	cmp    %edx,%ecx
    7f42:	76 1b                	jbe    7f5f <tinput_read_i+0x38f>
    7f44:	8d 44 8f 08          	lea    0x8(%edi,%ecx,4),%eax
    7f48:	89 55 98             	mov    %edx,-0x68(%ebp)
    7f4b:	8d 4c 97 08          	lea    0x8(%edi,%edx,4),%ecx
    7f4f:	90                   	nop
    7f50:	8b 10                	mov    (%eax),%edx
    7f52:	83 e8 04             	sub    $0x4,%eax
    7f55:	89 50 08             	mov    %edx,0x8(%eax)
    7f58:	39 c8                	cmp    %ecx,%eax
    7f5a:	75 f4                	jne    7f50 <tinput_read_i+0x380>
    7f5c:	8b 55 98             	mov    -0x68(%ebp),%edx
    7f5f:	89 74 97 0c          	mov    %esi,0xc(%edi,%edx,4)
    7f63:	8b 75 9c             	mov    -0x64(%ebp),%esi
    7f66:	8d 42 01             	lea    0x1(%edx),%eax
    7f69:	89 b7 20 10 00 00    	mov    %esi,0x1020(%edi)
    7f6f:	89 87 24 10 00 00    	mov    %eax,0x1024(%edi)
    7f75:	c7 44 b7 0c 00 00 00 	movl   $0x0,0xc(%edi,%esi,4)
    7f7c:	00 
    7f7d:	89 87 28 10 00 00    	mov    %eax,0x1028(%edi)
    7f83:	89 f8                	mov    %edi,%eax
    7f85:	e8 46 f7 ff ff       	call   76d0 <tinput_display_tail.constprop.12>
    7f8a:	8b 8f 14 10 00 00    	mov    0x1014(%edi),%ecx
    7f90:	8b 87 20 10 00 00    	mov    0x1020(%edi),%eax
    7f96:	31 d2                	xor    %edx,%edx
    7f98:	01 c8                	add    %ecx,%eax
    7f9a:	8b b7 18 10 00 00    	mov    0x1018(%edi),%esi
    7fa0:	f7 f6                	div    %esi
    7fa2:	8b 97 1c 10 00 00    	mov    0x101c(%edi),%edx
    7fa8:	39 d0                	cmp    %edx,%eax
    7faa:	72 1c                	jb     7fc8 <tinput_read_i+0x3f8>
    7fac:	29 d0                	sub    %edx,%eax
    7fae:	8b 97 10 10 00 00    	mov    0x1010(%edi),%edx
    7fb4:	40                   	inc    %eax
    7fb5:	0f af c6             	imul   %esi,%eax
    7fb8:	29 c1                	sub    %eax,%ecx
    7fba:	29 c2                	sub    %eax,%edx
    7fbc:	89 8f 14 10 00 00    	mov    %ecx,0x1014(%edi)
    7fc2:	89 97 10 10 00 00    	mov    %edx,0x1010(%edi)
    7fc8:	8b 87 24 10 00 00    	mov    0x1024(%edi),%eax
    7fce:	52                   	push   %edx
    7fcf:	01 c8                	add    %ecx,%eax
    7fd1:	31 d2                	xor    %edx,%edx
    7fd3:	f7 f6                	div    %esi
    7fd5:	e9 7e fd ff ff       	jmp    7d58 <tinput_read_i+0x188>
    7fda:	8d b6 00 00 00 00    	lea    0x0(%esi),%esi
    7fe0:	c6 87 62 10 00 00 00 	movb   $0x0,0x1062(%edi)
    7fe7:	e9 7c fc ff ff       	jmp    7c68 <tinput_read_i+0x98>
    7fec:	8d 74 26 00          	lea    0x0(%esi,%eiz,1),%esi
    7ff0:	c7 45 a4 f6 fe ff ff 	movl   $0xfffffef6,-0x5c(%ebp)
    7ff7:	8b 45 a4             	mov    -0x5c(%ebp),%eax
    7ffa:	8d 65 f4             	lea    -0xc(%ebp),%esp
    7ffd:	5b                   	pop    %ebx
    7ffe:	5e                   	pop    %esi
    7fff:	5f                   	pop    %edi
    8000:	5d                   	pop    %ebp
    8001:	c3                   	ret    
    8002:	8d b6 00 00 00 00    	lea    0x0(%esi),%esi
    8008:	8b 45 e0             	mov    -0x20(%ebp),%eax
    800b:	c6 87 63 10 00 00 01 	movb   $0x1,0x1063(%edi)
    8012:	a8 0c                	test   $0xc,%al
    8014:	0f 84 2a fe ff ff    	je     7e44 <tinput_read_i+0x274>
    801a:	e9 1d fe ff ff       	jmp    7e3c <tinput_read_i+0x26c>
    801f:	8b 87 24 10 00 00    	mov    0x1024(%edi),%eax
    8025:	8b 97 18 10 00 00    	mov    0x1018(%edi),%edx
    802b:	39 c2                	cmp    %eax,%edx
    802d:	77 08                	ja     8037 <tinput_read_i+0x467>
    802f:	29 d0                	sub    %edx,%eax
    8031:	89 87 24 10 00 00    	mov    %eax,0x1024(%edi)
    8037:	31 d2                	xor    %edx,%edx
    8039:	89 f8                	mov    %edi,%eax
    803b:	e8 90 f6 ff ff       	call   76d0 <tinput_display_tail.constprop.12>
    8040:	8b 97 14 10 00 00    	mov    0x1014(%edi),%edx
    8046:	8b 87 24 10 00 00    	mov    0x1024(%edi),%eax
    804c:	51                   	push   %ecx
    804d:	01 d0                	add    %edx,%eax
    804f:	31 d2                	xor    %edx,%edx
    8051:	f7 b7 18 10 00 00    	divl   0x1018(%edi)
    8057:	8b 37                	mov    (%edi),%esi
    8059:	50                   	push   %eax
    805a:	52                   	push   %edx
    805b:	56                   	push   %esi
    805c:	e8 9f 53 00 00       	call   d400 <console_set_pos@plt>
    8061:	8b 45 e0             	mov    -0x20(%ebp),%eax
    8064:	83 c4 10             	add    $0x10,%esp
    8067:	a8 0c                	test   $0xc,%al
    8069:	0f 84 e9 fd ff ff    	je     7e58 <tinput_read_i+0x288>
    806f:	a8 03                	test   $0x3,%al
    8071:	0f 84 e1 fd ff ff    	je     7e58 <tinput_read_i+0x288>
    8077:	a8 30                	test   $0x30,%al
    8079:	0f 85 d9 fd ff ff    	jne    7e58 <tinput_read_i+0x288>
    807f:	8b 55 dc             	mov    -0x24(%ebp),%edx
    8082:	83 fa 55             	cmp    $0x55,%edx
    8085:	0f 84 aa 0e 00 00    	je     8f35 <tinput_read_i+0x1365>
    808b:	0f 86 de 09 00 00    	jbe    8a6f <tinput_read_i+0xe9f>
    8091:	83 fa 56             	cmp    $0x56,%edx
    8094:	0f 84 76 0e 00 00    	je     8f10 <tinput_read_i+0x1340>
    809a:	83 fa 57             	cmp    $0x57,%edx
    809d:	0f 85 b5 fd ff ff    	jne    7e58 <tinput_read_i+0x288>
    80a3:	8b 97 24 10 00 00    	mov    0x1024(%edi),%edx
    80a9:	8b 8f 20 10 00 00    	mov    0x1020(%edi),%ecx
    80af:	39 d1                	cmp    %edx,%ecx
    80b1:	0f 84 59 13 00 00    	je     9410 <tinput_read_i+0x1840>
    80b7:	42                   	inc    %edx
    80b8:	39 d1                	cmp    %edx,%ecx
    80ba:	0f 84 0f 0f 00 00    	je     8fcf <tinput_read_i+0x13ff>
    80c0:	83 7c 97 08 20       	cmpl   $0x20,0x8(%edi,%edx,4)
    80c5:	75 f0                	jne    80b7 <tinput_read_i+0x4e7>
    80c7:	83 7c 97 0c 20       	cmpl   $0x20,0xc(%edi,%edx,4)
    80cc:	74 e9                	je     80b7 <tinput_read_i+0x4e7>
    80ce:	89 97 24 10 00 00    	mov    %edx,0x1024(%edi)
    80d4:	31 d2                	xor    %edx,%edx
    80d6:	89 f8                	mov    %edi,%eax
    80d8:	e8 f3 f5 ff ff       	call   76d0 <tinput_display_tail.constprop.12>
    80dd:	8b 87 24 10 00 00    	mov    0x1024(%edi),%eax
    80e3:	8b b7 14 10 00 00    	mov    0x1014(%edi),%esi
    80e9:	52                   	push   %edx
    80ea:	01 f0                	add    %esi,%eax
    80ec:	31 d2                	xor    %edx,%edx
    80ee:	f7 b7 18 10 00 00    	divl   0x1018(%edi)
    80f4:	8b 0f                	mov    (%edi),%ecx
    80f6:	50                   	push   %eax
    80f7:	52                   	push   %edx
    80f8:	51                   	push   %ecx
    80f9:	e8 02 53 00 00       	call   d400 <console_set_pos@plt>
    80fe:	8b 45 e0             	mov    -0x20(%ebp),%eax
    8101:	83 c4 10             	add    $0x10,%esp
    8104:	e9 4f fd ff ff       	jmp    7e58 <tinput_read_i+0x288>
    8109:	8d b4 26 00 00 00 00 	lea    0x0(%esi,%eiz,1),%esi
    8110:	8b 45 dc             	mov    -0x24(%ebp),%eax
    8113:	83 e8 0e             	sub    $0xe,%eax
    8116:	83 f8 4f             	cmp    $0x4f,%eax
    8119:	0f 87 41 fd ff ff    	ja     7e60 <tinput_read_i+0x290>
    811f:	ff 24 85 08 ca 00 00 	jmp    *0xca08(,%eax,4)
    8126:	66 90                	xchg   %ax,%ax
    8128:	8b 45 e0             	mov    -0x20(%ebp),%eax
    812b:	c6 87 62 10 00 00 01 	movb   $0x1,0x1062(%edi)
    8132:	a8 0c                	test   $0xc,%al
    8134:	0f 84 0a fd ff ff    	je     7e44 <tinput_read_i+0x274>
    813a:	e9 fd fc ff ff       	jmp    7e3c <tinput_read_i+0x26c>
    813f:	c7 87 24 10 00 00 00 	movl   $0x0,0x1024(%edi)
    8146:	00 00 00 
    8149:	31 c0                	xor    %eax,%eax
    814b:	e9 f1 fb ff ff       	jmp    7d41 <tinput_read_i+0x171>
    8150:	0f 84 a9 fd ff ff    	je     7eff <tinput_read_i+0x32f>
    8156:	89 d0                	mov    %edx,%eax
    8158:	89 ca                	mov    %ecx,%edx
    815a:	89 c1                	mov    %eax,%ecx
    815c:	e9 1f fd ff ff       	jmp    7e80 <tinput_read_i+0x2b0>
    8161:	40                   	inc    %eax
    8162:	3b 87 1c 10 00 00    	cmp    0x101c(%edi),%eax
    8168:	0f 82 cc fd ff ff    	jb     7f3a <tinput_read_i+0x36a>
    816e:	e9 f5 fa ff ff       	jmp    7c68 <tinput_read_i+0x98>
    8173:	83 ea 10             	sub    $0x10,%edx
    8176:	83 fa 47             	cmp    $0x47,%edx
    8179:	0f 87 c5 fc ff ff    	ja     7e44 <tinput_read_i+0x274>
    817f:	ff 24 95 48 cb 00 00 	jmp    *0xcb48(,%edx,4)
    8186:	8b 75 dc             	mov    -0x24(%ebp),%esi
    8189:	8d 56 b1             	lea    -0x4f(%esi),%edx
    818c:	83 fa 08             	cmp    $0x8,%edx
    818f:	0f 87 d2 fe ff ff    	ja     8067 <tinput_read_i+0x497>
    8195:	ff 24 95 68 cc 00 00 	jmp    *0xcc68(,%edx,4)
    819c:	8b 87 58 10 00 00    	mov    0x1058(%edi),%eax
    81a2:	83 f8 09             	cmp    $0x9,%eax
    81a5:	0f 87 77 01 00 00    	ja     8322 <tinput_read_i+0x752>
    81ab:	40                   	inc    %eax
    81ac:	89 87 58 10 00 00    	mov    %eax,0x1058(%edi)
    81b2:	83 f8 01             	cmp    $0x1,%eax
    81b5:	0f 86 09 01 00 00    	jbe    82c4 <tinput_read_i+0x6f4>
    81bb:	8d 0c 87             	lea    (%edi,%eax,4),%ecx
    81be:	8d 50 ff             	lea    -0x1(%eax),%edx
    81c1:	83 fa 01             	cmp    $0x1,%edx
    81c4:	8b b1 28 10 00 00    	mov    0x1028(%ecx),%esi
    81ca:	89 b1 2c 10 00 00    	mov    %esi,0x102c(%ecx)
    81d0:	0f 84 ee 00 00 00    	je     82c4 <tinput_read_i+0x6f4>
    81d6:	8d 14 97             	lea    (%edi,%edx,4),%edx
    81d9:	8d 48 fe             	lea    -0x2(%eax),%ecx
    81dc:	83 f9 01             	cmp    $0x1,%ecx
    81df:	8b b2 28 10 00 00    	mov    0x1028(%edx),%esi
    81e5:	89 b2 2c 10 00 00    	mov    %esi,0x102c(%edx)
    81eb:	0f 84 d3 00 00 00    	je     82c4 <tinput_read_i+0x6f4>
    81f1:	8d 0c 8f             	lea    (%edi,%ecx,4),%ecx
    81f4:	8d 50 fd             	lea    -0x3(%eax),%edx
    81f7:	83 fa 01             	cmp    $0x1,%edx
    81fa:	8b b1 28 10 00 00    	mov    0x1028(%ecx),%esi
    8200:	89 b1 2c 10 00 00    	mov    %esi,0x102c(%ecx)
    8206:	0f 84 b8 00 00 00    	je     82c4 <tinput_read_i+0x6f4>
    820c:	8d 14 97             	lea    (%edi,%edx,4),%edx
    820f:	8d 48 fc             	lea    -0x4(%eax),%ecx
    8212:	83 f9 01             	cmp    $0x1,%ecx
    8215:	8b b2 28 10 00 00    	mov    0x1028(%edx),%esi
    821b:	89 b2 2c 10 00 00    	mov    %esi,0x102c(%edx)
    8221:	0f 84 9d 00 00 00    	je     82c4 <tinput_read_i+0x6f4>
    8227:	8d 0c 8f             	lea    (%edi,%ecx,4),%ecx
    822a:	8d 50 fb             	lea    -0x5(%eax),%edx
    822d:	83 fa 01             	cmp    $0x1,%edx
    8230:	8b b1 28 10 00 00    	mov    0x1028(%ecx),%esi
    8236:	89 b1 2c 10 00 00    	mov    %esi,0x102c(%ecx)
    823c:	0f 84 82 00 00 00    	je     82c4 <tinput_read_i+0x6f4>
    8242:	8d 14 97             	lea    (%edi,%edx,4),%edx
    8245:	8d 48 fa             	lea    -0x6(%eax),%ecx
    8248:	83 f9 01             	cmp    $0x1,%ecx
    824b:	8b b2 28 10 00 00    	mov    0x1028(%edx),%esi
    8251:	89 b2 2c 10 00 00    	mov    %esi,0x102c(%edx)
    8257:	74 6b                	je     82c4 <tinput_read_i+0x6f4>
    8259:	8d 0c 8f             	lea    (%edi,%ecx,4),%ecx
    825c:	8d 50 f9             	lea    -0x7(%eax),%edx
    825f:	83 fa 01             	cmp    $0x1,%edx
    8262:	8b b1 28 10 00 00    	mov    0x1028(%ecx),%esi
    8268:	89 b1 2c 10 00 00    	mov    %esi,0x102c(%ecx)
    826e:	74 54                	je     82c4 <tinput_read_i+0x6f4>
    8270:	8d 14 97             	lea    (%edi,%edx,4),%edx
    8273:	8d 48 f8             	lea    -0x8(%eax),%ecx
    8276:	83 f9 01             	cmp    $0x1,%ecx
    8279:	8b b2 28 10 00 00    	mov    0x1028(%edx),%esi
    827f:	89 b2 2c 10 00 00    	mov    %esi,0x102c(%edx)
    8285:	74 3d                	je     82c4 <tinput_read_i+0x6f4>
    8287:	8d 0c 8f             	lea    (%edi,%ecx,4),%ecx
    828a:	8d 50 f7             	lea    -0x9(%eax),%edx
    828d:	83 fa 01             	cmp    $0x1,%edx
    8290:	8b b1 28 10 00 00    	mov    0x1028(%ecx),%esi
    8296:	89 b1 2c 10 00 00    	mov    %esi,0x102c(%ecx)
    829c:	74 26                	je     82c4 <tinput_read_i+0x6f4>
    829e:	8d 14 97             	lea    (%edi,%edx,4),%edx
    82a1:	83 e8 0a             	sub    $0xa,%eax
    82a4:	83 f8 01             	cmp    $0x1,%eax
    82a7:	8b 8a 28 10 00 00    	mov    0x1028(%edx),%ecx
    82ad:	89 8a 2c 10 00 00    	mov    %ecx,0x102c(%edx)
    82b3:	74 0f                	je     82c4 <tinput_read_i+0x6f4>
    82b5:	8d 04 87             	lea    (%edi,%eax,4),%eax
    82b8:	8b 90 28 10 00 00    	mov    0x1028(%eax),%edx
    82be:	89 90 2c 10 00 00    	mov    %edx,0x102c(%eax)
    82c4:	83 ec 0c             	sub    $0xc,%esp
    82c7:	53                   	push   %ebx
    82c8:	e8 b3 4f 00 00       	call   d280 <str_dup@plt>
    82cd:	89 87 30 10 00 00    	mov    %eax,0x1030(%edi)
    82d3:	8b 87 2c 10 00 00    	mov    0x102c(%edi),%eax
    82d9:	83 c4 10             	add    $0x10,%esp
    82dc:	85 c0                	test   %eax,%eax
    82de:	0f 84 f8 fa ff ff    	je     7ddc <tinput_read_i+0x20c>
    82e4:	83 ec 0c             	sub    $0xc,%esp
    82e7:	50                   	push   %eax
    82e8:	e8 23 52 00 00       	call   d510 <free@plt>
    82ed:	c7 87 2c 10 00 00 00 	movl   $0x0,0x102c(%edi)
    82f4:	00 00 00 
    82f7:	83 c4 10             	add    $0x10,%esp
    82fa:	e9 dd fa ff ff       	jmp    7ddc <tinput_read_i+0x20c>
    82ff:	89 f8                	mov    %edi,%eax
    8301:	31 d2                	xor    %edx,%edx
    8303:	e8 c8 f3 ff ff       	call   76d0 <tinput_display_tail.constprop.12>
    8308:	8b b7 18 10 00 00    	mov    0x1018(%edi),%esi
    830e:	8b 8f 14 10 00 00    	mov    0x1014(%edi),%ecx
    8314:	8b 87 24 10 00 00    	mov    0x1024(%edi),%eax
    831a:	89 75 9c             	mov    %esi,-0x64(%ebp)
    831d:	e9 2e fa ff ff       	jmp    7d50 <tinput_read_i+0x180>
    8322:	8b 97 54 10 00 00    	mov    0x1054(%edi),%edx
    8328:	85 d2                	test   %edx,%edx
    832a:	0f 84 8b fe ff ff    	je     81bb <tinput_read_i+0x5eb>
    8330:	83 ec 0c             	sub    $0xc,%esp
    8333:	52                   	push   %edx
    8334:	e8 d7 51 00 00       	call   d510 <free@plt>
    8339:	8b 87 58 10 00 00    	mov    0x1058(%edi),%eax
    833f:	83 c4 10             	add    $0x10,%esp
    8342:	e9 6b fe ff ff       	jmp    81b2 <tinput_read_i+0x5e2>
    8347:	8b 47 08             	mov    0x8(%edi),%eax
    834a:	85 c0                	test   %eax,%eax
    834c:	0f 84 0e fb ff ff    	je     7e60 <tinput_read_i+0x290>
    8352:	8d 75 b0             	lea    -0x50(%ebp),%esi
    8355:	8b 8f 24 10 00 00    	mov    0x1024(%edi),%ecx
    835b:	56                   	push   %esi
    835c:	8d 75 b4             	lea    -0x4c(%ebp),%esi
    835f:	56                   	push   %esi
    8360:	8b 75 a0             	mov    -0x60(%ebp),%esi
    8363:	51                   	push   %ecx
    8364:	56                   	push   %esi
    8365:	ff 10                	call   *(%eax)
    8367:	83 c4 10             	add    $0x10,%esp
    836a:	85 c0                	test   %eax,%eax
    836c:	0f 85 ee fa ff ff    	jne    7e60 <tinput_read_i+0x290>
    8372:	83 ec 0c             	sub    $0xc,%esp
    8375:	6a 04                	push   $0x4
    8377:	e8 64 4d 00 00       	call   d0e0 <malloc@plt>
    837c:	83 c4 10             	add    $0x10,%esp
    837f:	89 45 98             	mov    %eax,-0x68(%ebp)
    8382:	85 c0                	test   %eax,%eax
    8384:	0f 84 e9 10 00 00    	je     9473 <tinput_read_i+0x18a3>
    838a:	c7 45 90 00 00 00 00 	movl   $0x0,-0x70(%ebp)
    8391:	c7 45 9c 01 00 00 00 	movl   $0x1,-0x64(%ebp)
    8398:	eb 5b                	jmp    83f5 <tinput_read_i+0x825>
    839a:	8d b6 00 00 00 00    	lea    0x0(%esi),%esi
    83a0:	8b 45 9c             	mov    -0x64(%ebp),%eax
    83a3:	8b 75 90             	mov    -0x70(%ebp),%esi
    83a6:	39 f0                	cmp    %esi,%eax
    83a8:	77 22                	ja     83cc <tinput_read_i+0x7fc>
    83aa:	01 c0                	add    %eax,%eax
    83ac:	8b 4d 98             	mov    -0x68(%ebp),%ecx
    83af:	89 45 9c             	mov    %eax,-0x64(%ebp)
    83b2:	52                   	push   %edx
    83b3:	c1 e0 02             	shl    $0x2,%eax
    83b6:	52                   	push   %edx
    83b7:	50                   	push   %eax
    83b8:	51                   	push   %ecx
    83b9:	e8 12 4f 00 00       	call   d2d0 <realloc@plt>
    83be:	83 c4 10             	add    $0x10,%esp
    83c1:	89 45 98             	mov    %eax,-0x68(%ebp)
    83c4:	85 c0                	test   %eax,%eax
    83c6:	0f 84 54 10 00 00    	je     9420 <tinput_read_i+0x1850>
    83cc:	8b 45 98             	mov    -0x68(%ebp),%eax
    83cf:	8b 75 90             	mov    -0x70(%ebp),%esi
    83d2:	83 ec 0c             	sub    $0xc,%esp
    83d5:	8d 34 b0             	lea    (%eax,%esi,4),%esi
    83d8:	8b 45 b8             	mov    -0x48(%ebp),%eax
    83db:	50                   	push   %eax
    83dc:	e8 9f 4e 00 00       	call   d280 <str_dup@plt>
    83e1:	83 c4 10             	add    $0x10,%esp
    83e4:	89 06                	mov    %eax,(%esi)
    83e6:	85 c0                	test   %eax,%eax
    83e8:	0f 84 32 10 00 00    	je     9420 <tinput_read_i+0x1850>
    83ee:	8b 4d 90             	mov    -0x70(%ebp),%ecx
    83f1:	41                   	inc    %ecx
    83f2:	89 4d 90             	mov    %ecx,-0x70(%ebp)
    83f5:	56                   	push   %esi
    83f6:	56                   	push   %esi
    83f7:	8b 47 08             	mov    0x8(%edi),%eax
    83fa:	8b 55 b0             	mov    -0x50(%ebp),%edx
    83fd:	8d 75 b8             	lea    -0x48(%ebp),%esi
    8400:	56                   	push   %esi
    8401:	52                   	push   %edx
    8402:	ff 50 04             	call   *0x4(%eax)
    8405:	83 c4 10             	add    $0x10,%esp
    8408:	85 c0                	test   %eax,%eax
    840a:	74 94                	je     83a0 <tinput_read_i+0x7d0>
    840c:	83 ec 0c             	sub    $0xc,%esp
    840f:	8b 47 08             	mov    0x8(%edi),%eax
    8412:	8b 55 b0             	mov    -0x50(%ebp),%edx
    8415:	52                   	push   %edx
    8416:	ff 50 08             	call   *0x8(%eax)
    8419:	83 c4 10             	add    $0x10,%esp
    841c:	83 7d 90 01          	cmpl   $0x1,-0x70(%ebp)
    8420:	0f 86 d2 0f 00 00    	jbe    93f8 <tinput_read_i+0x1828>
    8426:	8b 45 98             	mov    -0x68(%ebp),%eax
    8429:	83 ec 0c             	sub    $0xc,%esp
    842c:	8b 00                	mov    (%eax),%eax
    842e:	50                   	push   %eax
    842f:	e8 ac 4f 00 00       	call   d3e0 <str_length@plt>
    8434:	89 45 88             	mov    %eax,-0x78(%ebp)
    8437:	8d 45 c0             	lea    -0x40(%ebp),%eax
    843a:	83 c4 10             	add    $0x10,%esp
    843d:	c7 45 84 01 00 00 00 	movl   $0x1,-0x7c(%ebp)
    8444:	89 45 9c             	mov    %eax,-0x64(%ebp)
    8447:	89 7d 08             	mov    %edi,0x8(%ebp)
    844a:	8b 45 98             	mov    -0x68(%ebp),%eax
    844d:	8b 75 84             	mov    -0x7c(%ebp),%esi
    8450:	c7 45 8c 00 00 00 00 	movl   $0x0,-0x74(%ebp)
    8457:	8b 3c b0             	mov    (%eax,%esi,4),%edi
    845a:	8b 00                	mov    (%eax),%eax
    845c:	89 45 94             	mov    %eax,-0x6c(%ebp)
    845f:	c7 45 bc 00 00 00 00 	movl   $0x0,-0x44(%ebp)
    8466:	c7 45 c0 00 00 00 00 	movl   $0x0,-0x40(%ebp)
    846d:	eb 0c                	jmp    847b <tinput_read_i+0x8ab>
    846f:	90                   	nop
    8470:	39 c6                	cmp    %eax,%esi
    8472:	75 39                	jne    84ad <tinput_read_i+0x8dd>
    8474:	8b 55 8c             	mov    -0x74(%ebp),%edx
    8477:	42                   	inc    %edx
    8478:	89 55 8c             	mov    %edx,-0x74(%ebp)
    847b:	8b 75 94             	mov    -0x6c(%ebp),%esi
    847e:	8d 45 bc             	lea    -0x44(%ebp),%eax
    8481:	51                   	push   %ecx
    8482:	6a ff                	push   $0xffffffff
    8484:	50                   	push   %eax
    8485:	56                   	push   %esi
    8486:	e8 f5 4b 00 00       	call   d080 <str_decode@plt>
    848b:	83 c4 0c             	add    $0xc,%esp
    848e:	89 c6                	mov    %eax,%esi
    8490:	8b 45 9c             	mov    -0x64(%ebp),%eax
    8493:	6a ff                	push   $0xffffffff
    8495:	50                   	push   %eax
    8496:	57                   	push   %edi
    8497:	e8 e4 4b 00 00       	call   d080 <str_decode@plt>
    849c:	83 c4 10             	add    $0x10,%esp
    849f:	85 f6                	test   %esi,%esi
    84a1:	0f 94 c1             	sete   %cl
    84a4:	85 c0                	test   %eax,%eax
    84a6:	0f 94 c2             	sete   %dl
    84a9:	08 d1                	or     %dl,%cl
    84ab:	74 c3                	je     8470 <tinput_read_i+0x8a0>
    84ad:	8b 75 8c             	mov    -0x74(%ebp),%esi
    84b0:	39 75 88             	cmp    %esi,-0x78(%ebp)
    84b3:	0f 83 31 0c 00 00    	jae    90ea <tinput_read_i+0x151a>
    84b9:	8b 45 84             	mov    -0x7c(%ebp),%eax
    84bc:	40                   	inc    %eax
    84bd:	89 45 84             	mov    %eax,-0x7c(%ebp)
    84c0:	8b 45 84             	mov    -0x7c(%ebp),%eax
    84c3:	39 45 90             	cmp    %eax,-0x70(%ebp)
    84c6:	75 82                	jne    844a <tinput_read_i+0x87a>
    84c8:	8b 7d 08             	mov    0x8(%ebp),%edi
    84cb:	51                   	push   %ecx
    84cc:	51                   	push   %ecx
    84cd:	8b 75 b4             	mov    -0x4c(%ebp),%esi
    84d0:	8b 87 24 10 00 00    	mov    0x1024(%edi),%eax
    84d6:	29 f0                	sub    %esi,%eax
    84d8:	50                   	push   %eax
    84d9:	8b 45 98             	mov    -0x68(%ebp),%eax
    84dc:	8b 00                	mov    (%eax),%eax
    84de:	50                   	push   %eax
    84df:	e8 dc 4f 00 00       	call   d4c0 <str_lsize@plt>
    84e4:	8b 4d 88             	mov    -0x78(%ebp),%ecx
    84e7:	83 c4 10             	add    $0x10,%esp
    84ea:	89 c6                	mov    %eax,%esi
    84ec:	39 c8                	cmp    %ecx,%eax
    84ee:	0f 83 cd 0c 00 00    	jae    91c1 <tinput_read_i+0x15f1>
    84f4:	50                   	push   %eax
    84f5:	50                   	push   %eax
    84f6:	8b 45 98             	mov    -0x68(%ebp),%eax
    84f9:	29 f1                	sub    %esi,%ecx
    84fb:	51                   	push   %ecx
    84fc:	8b 00                	mov    (%eax),%eax
    84fe:	50                   	push   %eax
    84ff:	e8 bc 4f 00 00       	call   d4c0 <str_lsize@plt>
    8504:	5a                   	pop    %edx
    8505:	59                   	pop    %ecx
    8506:	50                   	push   %eax
    8507:	8b 45 98             	mov    -0x68(%ebp),%eax
    850a:	8b 10                	mov    (%eax),%edx
    850c:	01 d6                	add    %edx,%esi
    850e:	56                   	push   %esi
    850f:	e8 8c 4b 00 00       	call   d0a0 <str_ndup@plt>
    8514:	89 c2                	mov    %eax,%edx
    8516:	89 c6                	mov    %eax,%esi
    8518:	89 f8                	mov    %edi,%eax
    851a:	e8 51 f3 ff ff       	call   7870 <tinput_insert_string>
    851f:	89 34 24             	mov    %esi,(%esp)
    8522:	e8 e9 4f 00 00       	call   d510 <free@plt>
    8527:	83 c4 10             	add    $0x10,%esp
    852a:	31 f6                	xor    %esi,%esi
    852c:	8b 45 98             	mov    -0x68(%ebp),%eax
    852f:	83 ec 0c             	sub    $0xc,%esp
    8532:	8b 04 b0             	mov    (%eax,%esi,4),%eax
    8535:	46                   	inc    %esi
    8536:	50                   	push   %eax
    8537:	e8 d4 4f 00 00       	call   d510 <free@plt>
    853c:	83 c4 10             	add    $0x10,%esp
    853f:	39 75 90             	cmp    %esi,-0x70(%ebp)
    8542:	77 e8                	ja     852c <tinput_read_i+0x95c>
    8544:	83 ec 0c             	sub    $0xc,%esp
    8547:	8b 45 98             	mov    -0x68(%ebp),%eax
    854a:	50                   	push   %eax
    854b:	e8 c0 4f 00 00       	call   d510 <free@plt>
    8550:	83 c4 10             	add    $0x10,%esp
    8553:	e9 08 f9 ff ff       	jmp    7e60 <tinput_read_i+0x290>
    8558:	8b 8f 24 10 00 00    	mov    0x1024(%edi),%ecx
    855e:	8b 87 28 10 00 00    	mov    0x1028(%edi),%eax
    8564:	39 c1                	cmp    %eax,%ecx
    8566:	74 39                	je     85a1 <tinput_read_i+0x9d1>
    8568:	31 d2                	xor    %edx,%edx
    856a:	89 8f 28 10 00 00    	mov    %ecx,0x1028(%edi)
    8570:	89 f8                	mov    %edi,%eax
    8572:	e8 59 f1 ff ff       	call   76d0 <tinput_display_tail.constprop.12>
    8577:	8b 87 24 10 00 00    	mov    0x1024(%edi),%eax
    857d:	8b b7 14 10 00 00    	mov    0x1014(%edi),%esi
    8583:	52                   	push   %edx
    8584:	01 f0                	add    %esi,%eax
    8586:	31 d2                	xor    %edx,%edx
    8588:	f7 b7 18 10 00 00    	divl   0x1018(%edi)
    858e:	8b 0f                	mov    (%edi),%ecx
    8590:	50                   	push   %eax
    8591:	52                   	push   %edx
    8592:	51                   	push   %ecx
    8593:	e8 68 4e 00 00       	call   d400 <console_set_pos@plt>
    8598:	8b 87 24 10 00 00    	mov    0x1024(%edi),%eax
    859e:	83 c4 10             	add    $0x10,%esp
    85a1:	3b 87 20 10 00 00    	cmp    0x1020(%edi),%eax
    85a7:	73 07                	jae    85b0 <tinput_read_i+0x9e0>
    85a9:	40                   	inc    %eax
    85aa:	89 87 24 10 00 00    	mov    %eax,0x1024(%edi)
    85b0:	8b 97 14 10 00 00    	mov    0x1014(%edi),%edx
    85b6:	89 87 28 10 00 00    	mov    %eax,0x1028(%edi)
    85bc:	01 d0                	add    %edx,%eax
    85be:	51                   	push   %ecx
    85bf:	31 d2                	xor    %edx,%edx
    85c1:	f7 b7 18 10 00 00    	divl   0x1018(%edi)
    85c7:	50                   	push   %eax
    85c8:	8b 07                	mov    (%edi),%eax
    85ca:	52                   	push   %edx
    85cb:	50                   	push   %eax
    85cc:	e8 2f 4e 00 00       	call   d400 <console_set_pos@plt>
    85d1:	83 c4 10             	add    $0x10,%esp
    85d4:	e9 87 f8 ff ff       	jmp    7e60 <tinput_read_i+0x290>
    85d9:	c6 87 60 10 00 00 01 	movb   $0x1,0x1060(%edi)
    85e0:	e9 7b f8 ff ff       	jmp    7e60 <tinput_read_i+0x290>
    85e5:	8b 87 24 10 00 00    	mov    0x1024(%edi),%eax
    85eb:	3b 87 28 10 00 00    	cmp    0x1028(%edi),%eax
    85f1:	74 33                	je     8626 <tinput_read_i+0xa56>
    85f3:	89 87 28 10 00 00    	mov    %eax,0x1028(%edi)
    85f9:	31 d2                	xor    %edx,%edx
    85fb:	89 f8                	mov    %edi,%eax
    85fd:	e8 ce f0 ff ff       	call   76d0 <tinput_display_tail.constprop.12>
    8602:	8b 97 14 10 00 00    	mov    0x1014(%edi),%edx
    8608:	8b 87 24 10 00 00    	mov    0x1024(%edi),%eax
    860e:	51                   	push   %ecx
    860f:	01 d0                	add    %edx,%eax
    8611:	31 d2                	xor    %edx,%edx
    8613:	f7 b7 18 10 00 00    	divl   0x1018(%edi)
    8619:	8b 37                	mov    (%edi),%esi
    861b:	50                   	push   %eax
    861c:	52                   	push   %edx
    861d:	56                   	push   %esi
    861e:	e8 dd 4d 00 00       	call   d400 <console_set_pos@plt>
    8623:	83 c4 10             	add    $0x10,%esp
    8626:	c7 87 24 10 00 00 00 	movl   $0x0,0x1024(%edi)
    862d:	00 00 00 
    8630:	c7 87 28 10 00 00 00 	movl   $0x0,0x1028(%edi)
    8637:	00 00 00 
    863a:	8b 87 14 10 00 00    	mov    0x1014(%edi),%eax
    8640:	56                   	push   %esi
    8641:	e9 79 ff ff ff       	jmp    85bf <tinput_read_i+0x9ef>
    8646:	8b b7 24 10 00 00    	mov    0x1024(%edi),%esi
    864c:	8b 97 28 10 00 00    	mov    0x1028(%edi),%edx
    8652:	39 d6                	cmp    %edx,%esi
    8654:	0f 85 03 09 00 00    	jne    8f5d <tinput_read_i+0x138d>
    865a:	8b 8f 20 10 00 00    	mov    0x1020(%edi),%ecx
    8660:	39 ce                	cmp    %ecx,%esi
    8662:	0f 84 f8 f7 ff ff    	je     7e60 <tinput_read_i+0x290>
    8668:	8d 46 01             	lea    0x1(%esi),%eax
    866b:	89 87 24 10 00 00    	mov    %eax,0x1024(%edi)
    8671:	89 87 28 10 00 00    	mov    %eax,0x1028(%edi)
    8677:	85 c0                	test   %eax,%eax
    8679:	0f 84 e1 f7 ff ff    	je     7e60 <tinput_read_i+0x290>
    867f:	39 c1                	cmp    %eax,%ecx
    8681:	76 1d                	jbe    86a0 <tinput_read_i+0xad0>
    8683:	8d 44 b7 0c          	lea    0xc(%edi,%esi,4),%eax
    8687:	8d 54 8f 08          	lea    0x8(%edi,%ecx,4),%edx
    868b:	89 4d 9c             	mov    %ecx,-0x64(%ebp)
    868e:	66 90                	xchg   %ax,%ax
    8690:	8b 48 04             	mov    0x4(%eax),%ecx
    8693:	83 c0 04             	add    $0x4,%eax
    8696:	89 48 fc             	mov    %ecx,-0x4(%eax)
    8699:	39 c2                	cmp    %eax,%edx
    869b:	75 f3                	jne    8690 <tinput_read_i+0xac0>
    869d:	8b 4d 9c             	mov    -0x64(%ebp),%ecx
    86a0:	49                   	dec    %ecx
    86a1:	83 ec 0c             	sub    $0xc,%esp
    86a4:	89 b7 24 10 00 00    	mov    %esi,0x1024(%edi)
    86aa:	89 8f 20 10 00 00    	mov    %ecx,0x1020(%edi)
    86b0:	c7 44 8f 0c 00 00 00 	movl   $0x0,0xc(%edi,%ecx,4)
    86b7:	00 
    86b8:	89 b7 28 10 00 00    	mov    %esi,0x1028(%edi)
    86be:	68 04 10 00 00       	push   $0x1004
    86c3:	e8 18 4a 00 00       	call   d0e0 <malloc@plt>
    86c8:	83 c4 10             	add    $0x10,%esp
    86cb:	89 45 9c             	mov    %eax,-0x64(%ebp)
    86ce:	85 c0                	test   %eax,%eax
    86d0:	0f 84 85 03 00 00    	je     8a5b <tinput_read_i+0xe8b>
    86d6:	8b 87 28 10 00 00    	mov    0x1028(%edi),%eax
    86dc:	8b 8f 24 10 00 00    	mov    0x1024(%edi),%ecx
    86e2:	89 c2                	mov    %eax,%edx
    86e4:	89 45 98             	mov    %eax,-0x68(%ebp)
    86e7:	39 c8                	cmp    %ecx,%eax
    86e9:	73 07                	jae    86f2 <tinput_read_i+0xb22>
    86eb:	89 c8                	mov    %ecx,%eax
    86ed:	89 d1                	mov    %edx,%ecx
    86ef:	89 45 98             	mov    %eax,-0x68(%ebp)
    86f2:	8b 87 14 10 00 00    	mov    0x1014(%edi),%eax
    86f8:	89 4d 94             	mov    %ecx,-0x6c(%ebp)
    86fb:	01 f0                	add    %esi,%eax
    86fd:	31 d2                	xor    %edx,%edx
    86ff:	51                   	push   %ecx
    8700:	f7 b7 18 10 00 00    	divl   0x1018(%edi)
    8706:	50                   	push   %eax
    8707:	8b 07                	mov    (%edi),%eax
    8709:	52                   	push   %edx
    870a:	50                   	push   %eax
    870b:	e8 f0 4c 00 00       	call   d400 <console_set_pos@plt>
    8710:	8b 0f                	mov    (%edi),%ecx
    8712:	58                   	pop    %eax
    8713:	5a                   	pop    %edx
    8714:	6a 00                	push   $0x0
    8716:	51                   	push   %ecx
    8717:	e8 f4 4b 00 00       	call   d310 <console_set_style@plt>
    871c:	8b 4d 94             	mov    -0x6c(%ebp),%ecx
    871f:	83 c4 10             	add    $0x10,%esp
    8722:	39 ce                	cmp    %ecx,%esi
    8724:	0f 82 fb 0d 00 00    	jb     9525 <tinput_read_i+0x1955>
    872a:	3b 75 98             	cmp    -0x68(%ebp),%esi
    872d:	0f 82 9a 0d 00 00    	jb     94cd <tinput_read_i+0x18fd>
    8733:	83 ec 0c             	sub    $0xc,%esp
    8736:	8b 0f                	mov    (%edi),%ecx
    8738:	51                   	push   %ecx
    8739:	e8 72 4c 00 00       	call   d3b0 <console_flush@plt>
    873e:	8b 0f                	mov    (%edi),%ecx
    8740:	58                   	pop    %eax
    8741:	5a                   	pop    %edx
    8742:	6a 00                	push   $0x0
    8744:	51                   	push   %ecx
    8745:	e8 c6 4b 00 00       	call   d310 <console_set_style@plt>
    874a:	8b 87 20 10 00 00    	mov    0x1020(%edi),%eax
    8750:	83 c4 10             	add    $0x10,%esp
    8753:	39 f0                	cmp    %esi,%eax
    8755:	0f 87 34 0d 00 00    	ja     948f <tinput_read_i+0x18bf>
    875b:	83 ec 0c             	sub    $0xc,%esp
    875e:	6a 20                	push   $0x20
    8760:	e8 4b 48 00 00       	call   cfb0 <putchar@plt>
    8765:	8b 37                	mov    (%edi),%esi
    8767:	59                   	pop    %ecx
    8768:	56                   	push   %esi
    8769:	e8 42 4c 00 00       	call   d3b0 <console_flush@plt>
    876e:	58                   	pop    %eax
    876f:	8b 45 9c             	mov    -0x64(%ebp),%eax
    8772:	50                   	push   %eax
    8773:	e8 98 4d 00 00       	call   d510 <free@plt>
    8778:	83 c4 10             	add    $0x10,%esp
    877b:	e9 db 02 00 00       	jmp    8a5b <tinput_read_i+0xe8b>
    8780:	8b 87 24 10 00 00    	mov    0x1024(%edi),%eax
    8786:	3b 87 28 10 00 00    	cmp    0x1028(%edi),%eax
    878c:	74 33                	je     87c1 <tinput_read_i+0xbf1>
    878e:	31 d2                	xor    %edx,%edx
    8790:	89 87 28 10 00 00    	mov    %eax,0x1028(%edi)
    8796:	89 f8                	mov    %edi,%eax
    8798:	e8 33 ef ff ff       	call   76d0 <tinput_display_tail.constprop.12>
    879d:	8b 87 24 10 00 00    	mov    0x1024(%edi),%eax
    87a3:	8b b7 14 10 00 00    	mov    0x1014(%edi),%esi
    87a9:	52                   	push   %edx
    87aa:	01 f0                	add    %esi,%eax
    87ac:	31 d2                	xor    %edx,%edx
    87ae:	f7 b7 18 10 00 00    	divl   0x1018(%edi)
    87b4:	8b 0f                	mov    (%edi),%ecx
    87b6:	50                   	push   %eax
    87b7:	52                   	push   %edx
    87b8:	51                   	push   %ecx
    87b9:	e8 42 4c 00 00       	call   d400 <console_set_pos@plt>
    87be:	83 c4 10             	add    $0x10,%esp
    87c1:	8b 87 20 10 00 00    	mov    0x1020(%edi),%eax
    87c7:	8b 97 14 10 00 00    	mov    0x1014(%edi),%edx
    87cd:	89 87 24 10 00 00    	mov    %eax,0x1024(%edi)
    87d3:	89 87 28 10 00 00    	mov    %eax,0x1028(%edi)
    87d9:	01 d0                	add    %edx,%eax
    87db:	51                   	push   %ecx
    87dc:	e9 de fd ff ff       	jmp    85bf <tinput_read_i+0x9ef>
    87e1:	8b 87 5c 10 00 00    	mov    0x105c(%edi),%eax
    87e7:	40                   	inc    %eax
    87e8:	3b 87 58 10 00 00    	cmp    0x1058(%edi),%eax
    87ee:	0f 87 6c f6 ff ff    	ja     7e60 <tinput_read_i+0x290>
    87f4:	ba 01 00 00 00       	mov    $0x1,%edx
    87f9:	89 f8                	mov    %edi,%eax
    87fb:	e8 a0 ed ff ff       	call   75a0 <tinput_history_seek.part.6>
    8800:	e9 5b f6 ff ff       	jmp    7e60 <tinput_read_i+0x290>
    8805:	8b 97 24 10 00 00    	mov    0x1024(%edi),%edx
    880b:	8b 87 28 10 00 00    	mov    0x1028(%edi),%eax
    8811:	39 c2                	cmp    %eax,%edx
    8813:	74 39                	je     884e <tinput_read_i+0xc7e>
    8815:	89 97 28 10 00 00    	mov    %edx,0x1028(%edi)
    881b:	89 f8                	mov    %edi,%eax
    881d:	31 d2                	xor    %edx,%edx
    881f:	e8 ac ee ff ff       	call   76d0 <tinput_display_tail.constprop.12>
    8824:	8b 87 24 10 00 00    	mov    0x1024(%edi),%eax
    882a:	8b b7 14 10 00 00    	mov    0x1014(%edi),%esi
    8830:	52                   	push   %edx
    8831:	01 f0                	add    %esi,%eax
    8833:	31 d2                	xor    %edx,%edx
    8835:	f7 b7 18 10 00 00    	divl   0x1018(%edi)
    883b:	8b 0f                	mov    (%edi),%ecx
    883d:	50                   	push   %eax
    883e:	52                   	push   %edx
    883f:	51                   	push   %ecx
    8840:	e8 bb 4b 00 00       	call   d400 <console_set_pos@plt>
    8845:	8b 87 24 10 00 00    	mov    0x1024(%edi),%eax
    884b:	83 c4 10             	add    $0x10,%esp
    884e:	85 c0                	test   %eax,%eax
    8850:	0f 84 5a fd ff ff    	je     85b0 <tinput_read_i+0x9e0>
    8856:	48                   	dec    %eax
    8857:	89 87 24 10 00 00    	mov    %eax,0x1024(%edi)
    885d:	e9 4e fd ff ff       	jmp    85b0 <tinput_read_i+0x9e0>
    8862:	8b 87 5c 10 00 00    	mov    0x105c(%edi),%eax
    8868:	85 c0                	test   %eax,%eax
    886a:	0f 84 f0 f5 ff ff    	je     7e60 <tinput_read_i+0x290>
    8870:	83 ca ff             	or     $0xffffffff,%edx
    8873:	89 f8                	mov    %edi,%eax
    8875:	e8 26 ed ff ff       	call   75a0 <tinput_history_seek.part.6>
    887a:	e9 e1 f5 ff ff       	jmp    7e60 <tinput_read_i+0x290>
    887f:	8b 97 24 10 00 00    	mov    0x1024(%edi),%edx
    8885:	8b b7 28 10 00 00    	mov    0x1028(%edi),%esi
    888b:	39 f2                	cmp    %esi,%edx
    888d:	0f 85 52 07 00 00    	jne    8fe5 <tinput_read_i+0x1415>
    8893:	85 d2                	test   %edx,%edx
    8895:	0f 84 15 09 00 00    	je     91b0 <tinput_read_i+0x15e0>
    889b:	8b 87 20 10 00 00    	mov    0x1020(%edi),%eax
    88a1:	39 c2                	cmp    %eax,%edx
    88a3:	73 10                	jae    88b5 <tinput_read_i+0xce5>
    88a5:	8d 76 00             	lea    0x0(%esi),%esi
    88a8:	8b 4c b7 0c          	mov    0xc(%edi,%esi,4),%ecx
    88ac:	89 4c b7 08          	mov    %ecx,0x8(%edi,%esi,4)
    88b0:	46                   	inc    %esi
    88b1:	39 c6                	cmp    %eax,%esi
    88b3:	72 f3                	jb     88a8 <tinput_read_i+0xcd8>
    88b5:	48                   	dec    %eax
    88b6:	8d 4a ff             	lea    -0x1(%edx),%ecx
    88b9:	83 ec 0c             	sub    $0xc,%esp
    88bc:	89 8f 24 10 00 00    	mov    %ecx,0x1024(%edi)
    88c2:	89 87 20 10 00 00    	mov    %eax,0x1020(%edi)
    88c8:	c7 44 87 0c 00 00 00 	movl   $0x0,0xc(%edi,%eax,4)
    88cf:	00 
    88d0:	89 8f 28 10 00 00    	mov    %ecx,0x1028(%edi)
    88d6:	89 4d 9c             	mov    %ecx,-0x64(%ebp)
    88d9:	68 04 10 00 00       	push   $0x1004
    88de:	e8 fd 47 00 00       	call   d0e0 <malloc@plt>
    88e3:	83 c4 10             	add    $0x10,%esp
    88e6:	89 c6                	mov    %eax,%esi
    88e8:	85 c0                	test   %eax,%eax
    88ea:	8b 4d 9c             	mov    -0x64(%ebp),%ecx
    88ed:	0f 84 68 01 00 00    	je     8a5b <tinput_read_i+0xe8b>
    88f3:	8b 87 28 10 00 00    	mov    0x1028(%edi),%eax
    88f9:	8b 97 24 10 00 00    	mov    0x1024(%edi),%edx
    88ff:	89 55 98             	mov    %edx,-0x68(%ebp)
    8902:	89 45 9c             	mov    %eax,-0x64(%ebp)
    8905:	39 d0                	cmp    %edx,%eax
    8907:	73 0b                	jae    8914 <tinput_read_i+0xd44>
    8909:	89 d0                	mov    %edx,%eax
    890b:	8b 55 9c             	mov    -0x64(%ebp),%edx
    890e:	89 55 98             	mov    %edx,-0x68(%ebp)
    8911:	89 45 9c             	mov    %eax,-0x64(%ebp)
    8914:	89 c8                	mov    %ecx,%eax
    8916:	89 4d 94             	mov    %ecx,-0x6c(%ebp)
    8919:	8b 8f 14 10 00 00    	mov    0x1014(%edi),%ecx
    891f:	52                   	push   %edx
    8920:	01 c8                	add    %ecx,%eax
    8922:	31 d2                	xor    %edx,%edx
    8924:	f7 b7 18 10 00 00    	divl   0x1018(%edi)
    892a:	8b 0f                	mov    (%edi),%ecx
    892c:	50                   	push   %eax
    892d:	52                   	push   %edx
    892e:	51                   	push   %ecx
    892f:	e8 cc 4a 00 00       	call   d400 <console_set_pos@plt>
    8934:	8b 0f                	mov    (%edi),%ecx
    8936:	58                   	pop    %eax
    8937:	5a                   	pop    %edx
    8938:	6a 00                	push   $0x0
    893a:	51                   	push   %ecx
    893b:	e8 d0 49 00 00       	call   d310 <console_set_style@plt>
    8940:	8b 4d 94             	mov    -0x6c(%ebp),%ecx
    8943:	83 c4 10             	add    $0x10,%esp
    8946:	3b 4d 98             	cmp    -0x68(%ebp),%ecx
    8949:	73 37                	jae    8982 <tinput_read_i+0xdb2>
    894b:	8b 55 98             	mov    -0x68(%ebp),%edx
    894e:	50                   	push   %eax
    894f:	8b 45 a0             	mov    -0x60(%ebp),%eax
    8952:	29 ca                	sub    %ecx,%edx
    8954:	c1 e2 02             	shl    $0x2,%edx
    8957:	8d 04 88             	lea    (%eax,%ecx,4),%eax
    895a:	52                   	push   %edx
    895b:	89 55 94             	mov    %edx,-0x6c(%ebp)
    895e:	50                   	push   %eax
    895f:	56                   	push   %esi
    8960:	e8 5b 47 00 00       	call   d0c0 <memcpy@plt>
    8965:	8b 55 94             	mov    -0x6c(%ebp),%edx
    8968:	c7 04 16 00 00 00 00 	movl   $0x0,(%esi,%edx,1)
    896f:	58                   	pop    %eax
    8970:	5a                   	pop    %edx
    8971:	56                   	push   %esi
    8972:	68 ec c9 00 00       	push   $0xc9ec
    8977:	e8 74 46 00 00       	call   cff0 <printf@plt>
    897c:	83 c4 10             	add    $0x10,%esp
    897f:	8b 4d 98             	mov    -0x68(%ebp),%ecx
    8982:	3b 4d 9c             	cmp    -0x64(%ebp),%ecx
    8985:	73 56                	jae    89dd <tinput_read_i+0xe0d>
    8987:	83 ec 0c             	sub    $0xc,%esp
    898a:	8b 07                	mov    (%edi),%eax
    898c:	89 4d 98             	mov    %ecx,-0x68(%ebp)
    898f:	50                   	push   %eax
    8990:	e8 1b 4a 00 00       	call   d3b0 <console_flush@plt>
    8995:	8b 0f                	mov    (%edi),%ecx
    8997:	58                   	pop    %eax
    8998:	5a                   	pop    %edx
    8999:	6a 03                	push   $0x3
    899b:	51                   	push   %ecx
    899c:	e8 6f 49 00 00       	call   d310 <console_set_style@plt>
    89a1:	8b 4d 98             	mov    -0x68(%ebp),%ecx
    89a4:	8b 55 9c             	mov    -0x64(%ebp),%edx
    89a7:	8b 45 a0             	mov    -0x60(%ebp),%eax
    89aa:	83 c4 0c             	add    $0xc,%esp
    89ad:	29 ca                	sub    %ecx,%edx
    89af:	c1 e2 02             	shl    $0x2,%edx
    89b2:	8d 04 88             	lea    (%eax,%ecx,4),%eax
    89b5:	52                   	push   %edx
    89b6:	89 55 98             	mov    %edx,-0x68(%ebp)
    89b9:	50                   	push   %eax
    89ba:	56                   	push   %esi
    89bb:	e8 00 47 00 00       	call   d0c0 <memcpy@plt>
    89c0:	8b 55 98             	mov    -0x68(%ebp),%edx
    89c3:	c7 04 16 00 00 00 00 	movl   $0x0,(%esi,%edx,1)
    89ca:	58                   	pop    %eax
    89cb:	5a                   	pop    %edx
    89cc:	56                   	push   %esi
    89cd:	68 ec c9 00 00       	push   $0xc9ec
    89d2:	e8 19 46 00 00       	call   cff0 <printf@plt>
    89d7:	83 c4 10             	add    $0x10,%esp
    89da:	8b 4d 9c             	mov    -0x64(%ebp),%ecx
    89dd:	83 ec 0c             	sub    $0xc,%esp
    89e0:	8b 07                	mov    (%edi),%eax
    89e2:	89 4d 9c             	mov    %ecx,-0x64(%ebp)
    89e5:	50                   	push   %eax
    89e6:	e8 c5 49 00 00       	call   d3b0 <console_flush@plt>
    89eb:	8b 0f                	mov    (%edi),%ecx
    89ed:	58                   	pop    %eax
    89ee:	5a                   	pop    %edx
    89ef:	6a 00                	push   $0x0
    89f1:	51                   	push   %ecx
    89f2:	e8 19 49 00 00       	call   d310 <console_set_style@plt>
    89f7:	8b 87 20 10 00 00    	mov    0x1020(%edi),%eax
    89fd:	8b 4d 9c             	mov    -0x64(%ebp),%ecx
    8a00:	83 c4 10             	add    $0x10,%esp
    8a03:	39 c8                	cmp    %ecx,%eax
    8a05:	76 36                	jbe    8a3d <tinput_read_i+0xe6d>
    8a07:	29 c8                	sub    %ecx,%eax
    8a09:	52                   	push   %edx
    8a0a:	c1 e0 02             	shl    $0x2,%eax
    8a0d:	50                   	push   %eax
    8a0e:	8b 45 a0             	mov    -0x60(%ebp),%eax
    8a11:	8d 04 88             	lea    (%eax,%ecx,4),%eax
    8a14:	50                   	push   %eax
    8a15:	56                   	push   %esi
    8a16:	e8 a5 46 00 00       	call   d0c0 <memcpy@plt>
    8a1b:	8b 87 20 10 00 00    	mov    0x1020(%edi),%eax
    8a21:	8b 4d 9c             	mov    -0x64(%ebp),%ecx
    8a24:	29 c8                	sub    %ecx,%eax
    8a26:	c7 04 86 00 00 00 00 	movl   $0x0,(%esi,%eax,4)
    8a2d:	59                   	pop    %ecx
    8a2e:	58                   	pop    %eax
    8a2f:	56                   	push   %esi
    8a30:	68 ec c9 00 00       	push   $0xc9ec
    8a35:	e8 b6 45 00 00       	call   cff0 <printf@plt>
    8a3a:	83 c4 10             	add    $0x10,%esp
    8a3d:	83 ec 0c             	sub    $0xc,%esp
    8a40:	6a 20                	push   $0x20
    8a42:	e8 69 45 00 00       	call   cfb0 <putchar@plt>
    8a47:	58                   	pop    %eax
    8a48:	8b 07                	mov    (%edi),%eax
    8a4a:	50                   	push   %eax
    8a4b:	e8 60 49 00 00       	call   d3b0 <console_flush@plt>
    8a50:	89 34 24             	mov    %esi,(%esp)
    8a53:	e8 b8 4a 00 00       	call   d510 <free@plt>
    8a58:	83 c4 10             	add    $0x10,%esp
    8a5b:	8b 87 24 10 00 00    	mov    0x1024(%edi),%eax
    8a61:	8b b7 14 10 00 00    	mov    0x1014(%edi),%esi
    8a67:	01 f0                	add    %esi,%eax
    8a69:	52                   	push   %edx
    8a6a:	e9 50 fb ff ff       	jmp    85bf <tinput_read_i+0x9ef>
    8a6f:	83 fa 54             	cmp    $0x54,%edx
    8a72:	0f 85 e0 f3 ff ff    	jne    7e58 <tinput_read_i+0x288>
    8a78:	8b 87 24 10 00 00    	mov    0x1024(%edi),%eax
    8a7e:	8b 97 18 10 00 00    	mov    0x1018(%edi),%edx
    8a84:	39 c2                	cmp    %eax,%edx
    8a86:	0f 87 48 f6 ff ff    	ja     80d4 <tinput_read_i+0x504>
    8a8c:	29 d0                	sub    %edx,%eax
    8a8e:	89 87 24 10 00 00    	mov    %eax,0x1024(%edi)
    8a94:	e9 3b f6 ff ff       	jmp    80d4 <tinput_read_i+0x504>
    8a99:	8b 87 20 10 00 00    	mov    0x1020(%edi),%eax
    8a9f:	89 87 24 10 00 00    	mov    %eax,0x1024(%edi)
    8aa5:	e9 8d f5 ff ff       	jmp    8037 <tinput_read_i+0x467>
    8aaa:	c7 87 24 10 00 00 00 	movl   $0x0,0x1024(%edi)
    8ab1:	00 00 00 
    8ab4:	e9 7e f5 ff ff       	jmp    8037 <tinput_read_i+0x467>
    8ab9:	8b 87 24 10 00 00    	mov    0x1024(%edi),%eax
    8abf:	8b 97 18 10 00 00    	mov    0x1018(%edi),%edx
    8ac5:	01 d0                	add    %edx,%eax
    8ac7:	3b 87 20 10 00 00    	cmp    0x1020(%edi),%eax
    8acd:	0f 87 64 f5 ff ff    	ja     8037 <tinput_read_i+0x467>
    8ad3:	eb ca                	jmp    8a9f <tinput_read_i+0xecf>
    8ad5:	8b 87 24 10 00 00    	mov    0x1024(%edi),%eax
    8adb:	85 c0                	test   %eax,%eax
    8add:	0f 84 54 f5 ff ff    	je     8037 <tinput_read_i+0x467>
    8ae3:	48                   	dec    %eax
    8ae4:	89 87 24 10 00 00    	mov    %eax,0x1024(%edi)
    8aea:	e9 48 f5 ff ff       	jmp    8037 <tinput_read_i+0x467>
    8aef:	8b 87 24 10 00 00    	mov    0x1024(%edi),%eax
    8af5:	39 87 20 10 00 00    	cmp    %eax,0x1020(%edi)
    8afb:	0f 86 36 f5 ff ff    	jbe    8037 <tinput_read_i+0x467>
    8b01:	40                   	inc    %eax
    8b02:	89 87 24 10 00 00    	mov    %eax,0x1024(%edi)
    8b08:	e9 2a f5 ff ff       	jmp    8037 <tinput_read_i+0x467>
    8b0d:	c6 87 60 10 00 00 01 	movb   $0x1,0x1060(%edi)
    8b14:	c6 87 61 10 00 00 01 	movb   $0x1,0x1061(%edi)
    8b1b:	e9 24 f3 ff ff       	jmp    7e44 <tinput_read_i+0x274>
    8b20:	8b b7 28 10 00 00    	mov    0x1028(%edi),%esi
    8b26:	8b 97 24 10 00 00    	mov    0x1024(%edi),%edx
    8b2c:	39 d6                	cmp    %edx,%esi
    8b2e:	0f 82 0f 05 00 00    	jb     9043 <tinput_read_i+0x1473>
    8b34:	0f 85 03 05 00 00    	jne    903d <tinput_read_i+0x146d>
    8b3a:	83 ec 0c             	sub    $0xc,%esp
    8b3d:	8d 45 c0             	lea    -0x40(%ebp),%eax
    8b40:	50                   	push   %eax
    8b41:	e8 4a 47 00 00       	call   d290 <clipboard_get_str@plt>
    8b46:	83 c4 10             	add    $0x10,%esp
    8b49:	85 c0                	test   %eax,%eax
    8b4b:	0f 85 93 00 00 00    	jne    8be4 <tinput_read_i+0x1014>
    8b51:	8b 55 c0             	mov    -0x40(%ebp),%edx
    8b54:	85 d2                	test   %edx,%edx
    8b56:	0f 84 88 00 00 00    	je     8be4 <tinput_read_i+0x1014>
    8b5c:	89 f8                	mov    %edi,%eax
    8b5e:	e8 0d ed ff ff       	call   7870 <tinput_insert_string>
    8b63:	83 ec 0c             	sub    $0xc,%esp
    8b66:	8b 4d c0             	mov    -0x40(%ebp),%ecx
    8b69:	51                   	push   %ecx
    8b6a:	e8 a1 49 00 00       	call   d510 <free@plt>
    8b6f:	8b 45 e0             	mov    -0x20(%ebp),%eax
    8b72:	83 c4 10             	add    $0x10,%esp
    8b75:	e9 ca f2 ff ff       	jmp    7e44 <tinput_read_i+0x274>
    8b7a:	8b 97 28 10 00 00    	mov    0x1028(%edi),%edx
    8b80:	8b 87 24 10 00 00    	mov    0x1024(%edi),%eax
    8b86:	39 c2                	cmp    %eax,%edx
    8b88:	73 06                	jae    8b90 <tinput_read_i+0xfc0>
    8b8a:	89 c1                	mov    %eax,%ecx
    8b8c:	89 d0                	mov    %edx,%eax
    8b8e:	89 ca                	mov    %ecx,%edx
    8b90:	39 97 20 10 00 00    	cmp    %edx,0x1020(%edi)
    8b96:	0f 86 35 05 00 00    	jbe    90d1 <tinput_read_i+0x1501>
    8b9c:	8d 34 97             	lea    (%edi,%edx,4),%esi
    8b9f:	83 ec 0c             	sub    $0xc,%esp
    8ba2:	8b 4e 0c             	mov    0xc(%esi),%ecx
    8ba5:	c7 46 0c 00 00 00 00 	movl   $0x0,0xc(%esi)
    8bac:	89 4d 9c             	mov    %ecx,-0x64(%ebp)
    8baf:	8b 4d a0             	mov    -0x60(%ebp),%ecx
    8bb2:	8d 04 81             	lea    (%ecx,%eax,4),%eax
    8bb5:	50                   	push   %eax
    8bb6:	e8 85 47 00 00       	call   d340 <wstr_to_astr@plt>
    8bbb:	8b 4d 9c             	mov    -0x64(%ebp),%ecx
    8bbe:	89 c2                	mov    %eax,%edx
    8bc0:	89 4e 0c             	mov    %ecx,0xc(%esi)
    8bc3:	83 c4 10             	add    $0x10,%esp
    8bc6:	85 d2                	test   %edx,%edx
    8bc8:	74 1a                	je     8be4 <tinput_read_i+0x1014>
    8bca:	83 ec 0c             	sub    $0xc,%esp
    8bcd:	89 55 9c             	mov    %edx,-0x64(%ebp)
    8bd0:	52                   	push   %edx
    8bd1:	e8 2a 46 00 00       	call   d200 <clipboard_put_str@plt>
    8bd6:	83 c4 10             	add    $0x10,%esp
    8bd9:	8b 55 9c             	mov    -0x64(%ebp),%edx
    8bdc:	85 c0                	test   %eax,%eax
    8bde:	0f 84 9a 05 00 00    	je     917e <tinput_read_i+0x15ae>
    8be4:	8b 45 e0             	mov    -0x20(%ebp),%eax
    8be7:	e9 58 f2 ff ff       	jmp    7e44 <tinput_read_i+0x274>
    8bec:	8b 97 28 10 00 00    	mov    0x1028(%edi),%edx
    8bf2:	8b 87 24 10 00 00    	mov    0x1024(%edi),%eax
    8bf8:	39 c2                	cmp    %eax,%edx
    8bfa:	73 06                	jae    8c02 <tinput_read_i+0x1032>
    8bfc:	89 c1                	mov    %eax,%ecx
    8bfe:	89 d0                	mov    %edx,%eax
    8c00:	89 ca                	mov    %ecx,%edx
    8c02:	39 97 20 10 00 00    	cmp    %edx,0x1020(%edi)
    8c08:	0f 86 57 05 00 00    	jbe    9165 <tinput_read_i+0x1595>
    8c0e:	8d 34 97             	lea    (%edi,%edx,4),%esi
    8c11:	83 ec 0c             	sub    $0xc,%esp
    8c14:	8b 4e 0c             	mov    0xc(%esi),%ecx
    8c17:	c7 46 0c 00 00 00 00 	movl   $0x0,0xc(%esi)
    8c1e:	89 4d 9c             	mov    %ecx,-0x64(%ebp)
    8c21:	8b 4d a0             	mov    -0x60(%ebp),%ecx
    8c24:	8d 04 81             	lea    (%ecx,%eax,4),%eax
    8c27:	50                   	push   %eax
    8c28:	e8 13 47 00 00       	call   d340 <wstr_to_astr@plt>
    8c2d:	8b 4d 9c             	mov    -0x64(%ebp),%ecx
    8c30:	89 c2                	mov    %eax,%edx
    8c32:	89 4e 0c             	mov    %ecx,0xc(%esi)
    8c35:	83 c4 10             	add    $0x10,%esp
    8c38:	85 d2                	test   %edx,%edx
    8c3a:	74 22                	je     8c5e <tinput_read_i+0x108e>
    8c3c:	83 ec 0c             	sub    $0xc,%esp
    8c3f:	89 55 9c             	mov    %edx,-0x64(%ebp)
    8c42:	52                   	push   %edx
    8c43:	e8 b8 45 00 00       	call   d200 <clipboard_put_str@plt>
    8c48:	83 c4 10             	add    $0x10,%esp
    8c4b:	8b 55 9c             	mov    -0x64(%ebp),%edx
    8c4e:	85 c0                	test   %eax,%eax
    8c50:	75 0c                	jne    8c5e <tinput_read_i+0x108e>
    8c52:	83 ec 0c             	sub    $0xc,%esp
    8c55:	52                   	push   %edx
    8c56:	e8 b5 48 00 00       	call   d510 <free@plt>
    8c5b:	83 c4 10             	add    $0x10,%esp
    8c5e:	8b b7 28 10 00 00    	mov    0x1028(%edi),%esi
    8c64:	8b 97 24 10 00 00    	mov    0x1024(%edi),%edx
    8c6a:	39 d6                	cmp    %edx,%esi
    8c6c:	72 0c                	jb     8c7a <tinput_read_i+0x10aa>
    8c6e:	0f 84 70 ff ff ff    	je     8be4 <tinput_read_i+0x1014>
    8c74:	89 f0                	mov    %esi,%eax
    8c76:	89 d6                	mov    %edx,%esi
    8c78:	89 c2                	mov    %eax,%edx
    8c7a:	50                   	push   %eax
    8c7b:	8b 4d a0             	mov    -0x60(%ebp),%ecx
    8c7e:	8b 87 20 10 00 00    	mov    0x1020(%edi),%eax
    8c84:	89 55 9c             	mov    %edx,-0x64(%ebp)
    8c87:	29 d0                	sub    %edx,%eax
    8c89:	c1 e0 02             	shl    $0x2,%eax
    8c8c:	50                   	push   %eax
    8c8d:	8d 04 91             	lea    (%ecx,%edx,4),%eax
    8c90:	50                   	push   %eax
    8c91:	8d 04 b1             	lea    (%ecx,%esi,4),%eax
    8c94:	50                   	push   %eax
    8c95:	e8 76 43 00 00       	call   d010 <memmove@plt>
    8c9a:	8b 87 20 10 00 00    	mov    0x1020(%edi),%eax
    8ca0:	8b 55 9c             	mov    -0x64(%ebp),%edx
    8ca3:	01 f0                	add    %esi,%eax
    8ca5:	89 d1                	mov    %edx,%ecx
    8ca7:	29 d0                	sub    %edx,%eax
    8ca9:	89 b7 28 10 00 00    	mov    %esi,0x1028(%edi)
    8caf:	89 87 20 10 00 00    	mov    %eax,0x1020(%edi)
    8cb5:	89 b7 24 10 00 00    	mov    %esi,0x1024(%edi)
    8cbb:	89 f2                	mov    %esi,%edx
    8cbd:	c7 44 87 0c 00 00 00 	movl   $0x0,0xc(%edi,%eax,4)
    8cc4:	00 
    8cc5:	29 f1                	sub    %esi,%ecx
    8cc7:	89 f8                	mov    %edi,%eax
    8cc9:	e8 f2 e6 ff ff       	call   73c0 <tinput_display_tail>
    8cce:	8b 87 24 10 00 00    	mov    0x1024(%edi),%eax
    8cd4:	8b 97 14 10 00 00    	mov    0x1014(%edi),%edx
    8cda:	83 c4 0c             	add    $0xc,%esp
    8cdd:	01 d0                	add    %edx,%eax
    8cdf:	31 d2                	xor    %edx,%edx
    8ce1:	f7 b7 18 10 00 00    	divl   0x1018(%edi)
    8ce7:	8b 0f                	mov    (%edi),%ecx
    8ce9:	50                   	push   %eax
    8cea:	52                   	push   %edx
    8ceb:	51                   	push   %ecx
    8cec:	e8 0f 47 00 00       	call   d400 <console_set_pos@plt>
    8cf1:	8b 45 e0             	mov    -0x20(%ebp),%eax
    8cf4:	83 c4 10             	add    $0x10,%esp
    8cf7:	e9 48 f1 ff ff       	jmp    7e44 <tinput_read_i+0x274>
    8cfc:	8b 87 20 10 00 00    	mov    0x1020(%edi),%eax
    8d02:	c7 87 28 10 00 00 00 	movl   $0x0,0x1028(%edi)
    8d09:	00 00 00 
    8d0c:	89 87 24 10 00 00    	mov    %eax,0x1024(%edi)
    8d12:	31 d2                	xor    %edx,%edx
    8d14:	89 f8                	mov    %edi,%eax
    8d16:	e8 b5 e9 ff ff       	call   76d0 <tinput_display_tail.constprop.12>
    8d1b:	8b 87 24 10 00 00    	mov    0x1024(%edi),%eax
    8d21:	8b b7 14 10 00 00    	mov    0x1014(%edi),%esi
    8d27:	52                   	push   %edx
    8d28:	01 f0                	add    %esi,%eax
    8d2a:	eb b3                	jmp    8cdf <tinput_read_i+0x110f>
    8d2c:	8b 97 24 10 00 00    	mov    0x1024(%edi),%edx
    8d32:	8b 87 28 10 00 00    	mov    0x1028(%edi),%eax
    8d38:	39 c2                	cmp    %eax,%edx
    8d3a:	74 39                	je     8d75 <tinput_read_i+0x11a5>
    8d3c:	89 97 28 10 00 00    	mov    %edx,0x1028(%edi)
    8d42:	89 f8                	mov    %edi,%eax
    8d44:	31 d2                	xor    %edx,%edx
    8d46:	e8 85 e9 ff ff       	call   76d0 <tinput_display_tail.constprop.12>
    8d4b:	8b 97 14 10 00 00    	mov    0x1014(%edi),%edx
    8d51:	8b 87 24 10 00 00    	mov    0x1024(%edi),%eax
    8d57:	51                   	push   %ecx
    8d58:	01 d0                	add    %edx,%eax
    8d5a:	31 d2                	xor    %edx,%edx
    8d5c:	f7 b7 18 10 00 00    	divl   0x1018(%edi)
    8d62:	8b 37                	mov    (%edi),%esi
    8d64:	50                   	push   %eax
    8d65:	52                   	push   %edx
    8d66:	56                   	push   %esi
    8d67:	e8 94 46 00 00       	call   d400 <console_set_pos@plt>
    8d6c:	8b 87 24 10 00 00    	mov    0x1024(%edi),%eax
    8d72:	83 c4 10             	add    $0x10,%esp
    8d75:	8b 97 20 10 00 00    	mov    0x1020(%edi),%edx
    8d7b:	39 c2                	cmp    %eax,%edx
    8d7d:	0f 84 61 fe ff ff    	je     8be4 <tinput_read_i+0x1014>
    8d83:	40                   	inc    %eax
    8d84:	39 c2                	cmp    %eax,%edx
    8d86:	0f 84 4e 02 00 00    	je     8fda <tinput_read_i+0x140a>
    8d8c:	83 7c 87 08 20       	cmpl   $0x20,0x8(%edi,%eax,4)
    8d91:	75 f0                	jne    8d83 <tinput_read_i+0x11b3>
    8d93:	83 7c 87 0c 20       	cmpl   $0x20,0xc(%edi,%eax,4)
    8d98:	74 e9                	je     8d83 <tinput_read_i+0x11b3>
    8d9a:	89 87 24 10 00 00    	mov    %eax,0x1024(%edi)
    8da0:	89 c2                	mov    %eax,%edx
    8da2:	89 97 28 10 00 00    	mov    %edx,0x1028(%edi)
    8da8:	89 d0                	mov    %edx,%eax
    8daa:	e9 72 ff ff ff       	jmp    8d21 <tinput_read_i+0x1151>
    8daf:	8b 97 24 10 00 00    	mov    0x1024(%edi),%edx
    8db5:	8b 87 28 10 00 00    	mov    0x1028(%edi),%eax
    8dbb:	39 c2                	cmp    %eax,%edx
    8dbd:	74 39                	je     8df8 <tinput_read_i+0x1228>
    8dbf:	89 97 28 10 00 00    	mov    %edx,0x1028(%edi)
    8dc5:	89 f8                	mov    %edi,%eax
    8dc7:	31 d2                	xor    %edx,%edx
    8dc9:	e8 02 e9 ff ff       	call   76d0 <tinput_display_tail.constprop.12>
    8dce:	8b 87 24 10 00 00    	mov    0x1024(%edi),%eax
    8dd4:	8b 8f 14 10 00 00    	mov    0x1014(%edi),%ecx
    8dda:	31 d2                	xor    %edx,%edx
    8ddc:	56                   	push   %esi
    8ddd:	01 c8                	add    %ecx,%eax
    8ddf:	f7 b7 18 10 00 00    	divl   0x1018(%edi)
    8de5:	50                   	push   %eax
    8de6:	8b 07                	mov    (%edi),%eax
    8de8:	52                   	push   %edx
    8de9:	50                   	push   %eax
    8dea:	e8 11 46 00 00       	call   d400 <console_set_pos@plt>
    8def:	8b 87 24 10 00 00    	mov    0x1024(%edi),%eax
    8df5:	83 c4 10             	add    $0x10,%esp
    8df8:	8b 8f 18 10 00 00    	mov    0x1018(%edi),%ecx
    8dfe:	8d 14 01             	lea    (%ecx,%eax,1),%edx
    8e01:	3b 97 20 10 00 00    	cmp    0x1020(%edi),%edx
    8e07:	77 08                	ja     8e11 <tinput_read_i+0x1241>
    8e09:	89 97 24 10 00 00    	mov    %edx,0x1024(%edi)
    8e0f:	89 d0                	mov    %edx,%eax
    8e11:	8b b7 14 10 00 00    	mov    0x1014(%edi),%esi
    8e17:	89 87 28 10 00 00    	mov    %eax,0x1028(%edi)
    8e1d:	01 f0                	add    %esi,%eax
    8e1f:	52                   	push   %edx
    8e20:	31 d2                	xor    %edx,%edx
    8e22:	f7 f1                	div    %ecx
    8e24:	e9 be fe ff ff       	jmp    8ce7 <tinput_read_i+0x1117>
    8e29:	8b 97 24 10 00 00    	mov    0x1024(%edi),%edx
    8e2f:	8b 87 28 10 00 00    	mov    0x1028(%edi),%eax
    8e35:	39 c2                	cmp    %eax,%edx
    8e37:	74 39                	je     8e72 <tinput_read_i+0x12a2>
    8e39:	89 97 28 10 00 00    	mov    %edx,0x1028(%edi)
    8e3f:	89 f8                	mov    %edi,%eax
    8e41:	31 d2                	xor    %edx,%edx
    8e43:	e8 88 e8 ff ff       	call   76d0 <tinput_display_tail.constprop.12>
    8e48:	8b 97 14 10 00 00    	mov    0x1014(%edi),%edx
    8e4e:	8b 87 24 10 00 00    	mov    0x1024(%edi),%eax
    8e54:	51                   	push   %ecx
    8e55:	01 d0                	add    %edx,%eax
    8e57:	31 d2                	xor    %edx,%edx
    8e59:	f7 b7 18 10 00 00    	divl   0x1018(%edi)
    8e5f:	8b 37                	mov    (%edi),%esi
    8e61:	50                   	push   %eax
    8e62:	52                   	push   %edx
    8e63:	56                   	push   %esi
    8e64:	e8 97 45 00 00       	call   d400 <console_set_pos@plt>
    8e69:	8b 87 24 10 00 00    	mov    0x1024(%edi),%eax
    8e6f:	83 c4 10             	add    $0x10,%esp
    8e72:	85 c0                	test   %eax,%eax
    8e74:	0f 84 6a fd ff ff    	je     8be4 <tinput_read_i+0x1014>
    8e7a:	48                   	dec    %eax
    8e7b:	0f 84 41 02 00 00    	je     90c2 <tinput_read_i+0x14f2>
    8e81:	83 7c 87 08 20       	cmpl   $0x20,0x8(%edi,%eax,4)
    8e86:	75 f2                	jne    8e7a <tinput_read_i+0x12aa>
    8e88:	83 7c 87 0c 20       	cmpl   $0x20,0xc(%edi,%eax,4)
    8e8d:	74 eb                	je     8e7a <tinput_read_i+0x12aa>
    8e8f:	89 87 24 10 00 00    	mov    %eax,0x1024(%edi)
    8e95:	89 87 28 10 00 00    	mov    %eax,0x1028(%edi)
    8e9b:	e9 81 fe ff ff       	jmp    8d21 <tinput_read_i+0x1151>
    8ea0:	8b 97 24 10 00 00    	mov    0x1024(%edi),%edx
    8ea6:	8b 87 28 10 00 00    	mov    0x1028(%edi),%eax
    8eac:	39 c2                	cmp    %eax,%edx
    8eae:	74 39                	je     8ee9 <tinput_read_i+0x1319>
    8eb0:	89 97 28 10 00 00    	mov    %edx,0x1028(%edi)
    8eb6:	89 f8                	mov    %edi,%eax
    8eb8:	31 d2                	xor    %edx,%edx
    8eba:	e8 11 e8 ff ff       	call   76d0 <tinput_display_tail.constprop.12>
    8ebf:	8b 97 14 10 00 00    	mov    0x1014(%edi),%edx
    8ec5:	8b 87 24 10 00 00    	mov    0x1024(%edi),%eax
    8ecb:	51                   	push   %ecx
    8ecc:	01 d0                	add    %edx,%eax
    8ece:	31 d2                	xor    %edx,%edx
    8ed0:	f7 b7 18 10 00 00    	divl   0x1018(%edi)
    8ed6:	8b 37                	mov    (%edi),%esi
    8ed8:	50                   	push   %eax
    8ed9:	52                   	push   %edx
    8eda:	56                   	push   %esi
    8edb:	e8 20 45 00 00       	call   d400 <console_set_pos@plt>
    8ee0:	8b 87 24 10 00 00    	mov    0x1024(%edi),%eax
    8ee6:	83 c4 10             	add    $0x10,%esp
    8ee9:	8b 8f 18 10 00 00    	mov    0x1018(%edi),%ecx
    8eef:	39 c1                	cmp    %eax,%ecx
    8ef1:	0f 87 1a ff ff ff    	ja     8e11 <tinput_read_i+0x1241>
    8ef7:	29 c8                	sub    %ecx,%eax
    8ef9:	89 87 24 10 00 00    	mov    %eax,0x1024(%edi)
    8eff:	e9 0d ff ff ff       	jmp    8e11 <tinput_read_i+0x1241>
    8f04:	c7 45 a4 ff ff ff ff 	movl   $0xffffffff,-0x5c(%ebp)
    8f0b:	e9 e7 f0 ff ff       	jmp    7ff7 <tinput_read_i+0x427>
    8f10:	8b 87 24 10 00 00    	mov    0x1024(%edi),%eax
    8f16:	8b b7 18 10 00 00    	mov    0x1018(%edi),%esi
    8f1c:	01 f0                	add    %esi,%eax
    8f1e:	3b 87 20 10 00 00    	cmp    0x1020(%edi),%eax
    8f24:	0f 87 aa f1 ff ff    	ja     80d4 <tinput_read_i+0x504>
    8f2a:	89 87 24 10 00 00    	mov    %eax,0x1024(%edi)
    8f30:	e9 9f f1 ff ff       	jmp    80d4 <tinput_read_i+0x504>
    8f35:	8b 97 24 10 00 00    	mov    0x1024(%edi),%edx
    8f3b:	85 d2                	test   %edx,%edx
    8f3d:	0f 84 4f 02 00 00    	je     9192 <tinput_read_i+0x15c2>
    8f43:	4a                   	dec    %edx
    8f44:	0f 84 0c 02 00 00    	je     9156 <tinput_read_i+0x1586>
    8f4a:	83 7c 97 08 20       	cmpl   $0x20,0x8(%edi,%edx,4)
    8f4f:	75 f2                	jne    8f43 <tinput_read_i+0x1373>
    8f51:	83 7c 97 0c 20       	cmpl   $0x20,0xc(%edi,%edx,4)
    8f56:	74 eb                	je     8f43 <tinput_read_i+0x1373>
    8f58:	e9 71 f1 ff ff       	jmp    80ce <tinput_read_i+0x4fe>
    8f5d:	76 06                	jbe    8f65 <tinput_read_i+0x1395>
    8f5f:	89 f0                	mov    %esi,%eax
    8f61:	89 d6                	mov    %edx,%esi
    8f63:	89 c2                	mov    %eax,%edx
    8f65:	51                   	push   %ecx
    8f66:	8b 4d a0             	mov    -0x60(%ebp),%ecx
    8f69:	8b 87 20 10 00 00    	mov    0x1020(%edi),%eax
    8f6f:	89 55 9c             	mov    %edx,-0x64(%ebp)
    8f72:	29 d0                	sub    %edx,%eax
    8f74:	c1 e0 02             	shl    $0x2,%eax
    8f77:	50                   	push   %eax
    8f78:	8d 04 91             	lea    (%ecx,%edx,4),%eax
    8f7b:	50                   	push   %eax
    8f7c:	8d 04 b1             	lea    (%ecx,%esi,4),%eax
    8f7f:	50                   	push   %eax
    8f80:	e8 8b 40 00 00       	call   d010 <memmove@plt>
    8f85:	8b 87 20 10 00 00    	mov    0x1020(%edi),%eax
    8f8b:	8b 55 9c             	mov    -0x64(%ebp),%edx
    8f8e:	01 f0                	add    %esi,%eax
    8f90:	89 d1                	mov    %edx,%ecx
    8f92:	29 d0                	sub    %edx,%eax
    8f94:	89 b7 28 10 00 00    	mov    %esi,0x1028(%edi)
    8f9a:	89 b7 24 10 00 00    	mov    %esi,0x1024(%edi)
    8fa0:	89 87 20 10 00 00    	mov    %eax,0x1020(%edi)
    8fa6:	29 f1                	sub    %esi,%ecx
    8fa8:	c7 44 87 0c 00 00 00 	movl   $0x0,0xc(%edi,%eax,4)
    8faf:	00 
    8fb0:	89 f2                	mov    %esi,%edx
    8fb2:	89 f8                	mov    %edi,%eax
    8fb4:	e8 07 e4 ff ff       	call   73c0 <tinput_display_tail>
    8fb9:	8b 87 24 10 00 00    	mov    0x1024(%edi),%eax
    8fbf:	8b 97 14 10 00 00    	mov    0x1014(%edi),%edx
    8fc5:	83 c4 0c             	add    $0xc,%esp
    8fc8:	01 d0                	add    %edx,%eax
    8fca:	e9 f0 f5 ff ff       	jmp    85bf <tinput_read_i+0x9ef>
    8fcf:	89 8f 24 10 00 00    	mov    %ecx,0x1024(%edi)
    8fd5:	e9 fa f0 ff ff       	jmp    80d4 <tinput_read_i+0x504>
    8fda:	89 97 24 10 00 00    	mov    %edx,0x1024(%edi)
    8fe0:	e9 bd fd ff ff       	jmp    8da2 <tinput_read_i+0x11d2>
    8fe5:	76 06                	jbe    8fed <tinput_read_i+0x141d>
    8fe7:	89 d0                	mov    %edx,%eax
    8fe9:	89 f2                	mov    %esi,%edx
    8feb:	89 c6                	mov    %eax,%esi
    8fed:	50                   	push   %eax
    8fee:	8b 4d a0             	mov    -0x60(%ebp),%ecx
    8ff1:	8b 87 20 10 00 00    	mov    0x1020(%edi),%eax
    8ff7:	89 55 9c             	mov    %edx,-0x64(%ebp)
    8ffa:	29 f0                	sub    %esi,%eax
    8ffc:	c1 e0 02             	shl    $0x2,%eax
    8fff:	50                   	push   %eax
    9000:	8d 04 b1             	lea    (%ecx,%esi,4),%eax
    9003:	50                   	push   %eax
    9004:	8d 04 91             	lea    (%ecx,%edx,4),%eax
    9007:	50                   	push   %eax
    9008:	e8 03 40 00 00       	call   d010 <memmove@plt>
    900d:	8b 55 9c             	mov    -0x64(%ebp),%edx
    9010:	8b 87 20 10 00 00    	mov    0x1020(%edi),%eax
    9016:	01 d0                	add    %edx,%eax
    9018:	89 97 28 10 00 00    	mov    %edx,0x1028(%edi)
    901e:	29 f0                	sub    %esi,%eax
    9020:	29 d6                	sub    %edx,%esi
    9022:	89 97 24 10 00 00    	mov    %edx,0x1024(%edi)
    9028:	89 87 20 10 00 00    	mov    %eax,0x1020(%edi)
    902e:	89 f1                	mov    %esi,%ecx
    9030:	c7 44 87 0c 00 00 00 	movl   $0x0,0xc(%edi,%eax,4)
    9037:	00 
    9038:	e9 75 ff ff ff       	jmp    8fb2 <tinput_read_i+0x13e2>
    903d:	89 f0                	mov    %esi,%eax
    903f:	89 d6                	mov    %edx,%esi
    9041:	89 c2                	mov    %eax,%edx
    9043:	50                   	push   %eax
    9044:	8b 4d a0             	mov    -0x60(%ebp),%ecx
    9047:	8b 87 20 10 00 00    	mov    0x1020(%edi),%eax
    904d:	89 55 9c             	mov    %edx,-0x64(%ebp)
    9050:	29 d0                	sub    %edx,%eax
    9052:	c1 e0 02             	shl    $0x2,%eax
    9055:	50                   	push   %eax
    9056:	8d 04 91             	lea    (%ecx,%edx,4),%eax
    9059:	50                   	push   %eax
    905a:	8d 04 b1             	lea    (%ecx,%esi,4),%eax
    905d:	50                   	push   %eax
    905e:	e8 ad 3f 00 00       	call   d010 <memmove@plt>
    9063:	8b 87 20 10 00 00    	mov    0x1020(%edi),%eax
    9069:	8b 55 9c             	mov    -0x64(%ebp),%edx
    906c:	01 f0                	add    %esi,%eax
    906e:	89 d1                	mov    %edx,%ecx
    9070:	29 d0                	sub    %edx,%eax
    9072:	89 b7 28 10 00 00    	mov    %esi,0x1028(%edi)
    9078:	89 87 20 10 00 00    	mov    %eax,0x1020(%edi)
    907e:	89 b7 24 10 00 00    	mov    %esi,0x1024(%edi)
    9084:	29 f1                	sub    %esi,%ecx
    9086:	c7 44 87 0c 00 00 00 	movl   $0x0,0xc(%edi,%eax,4)
    908d:	00 
    908e:	89 f2                	mov    %esi,%edx
    9090:	89 f8                	mov    %edi,%eax
    9092:	e8 29 e3 ff ff       	call   73c0 <tinput_display_tail>
    9097:	8b 97 14 10 00 00    	mov    0x1014(%edi),%edx
    909d:	8b 87 24 10 00 00    	mov    0x1024(%edi),%eax
    90a3:	83 c4 0c             	add    $0xc,%esp
    90a6:	01 d0                	add    %edx,%eax
    90a8:	31 d2                	xor    %edx,%edx
    90aa:	f7 b7 18 10 00 00    	divl   0x1018(%edi)
    90b0:	8b 0f                	mov    (%edi),%ecx
    90b2:	50                   	push   %eax
    90b3:	52                   	push   %edx
    90b4:	51                   	push   %ecx
    90b5:	e8 46 43 00 00       	call   d400 <console_set_pos@plt>
    90ba:	83 c4 10             	add    $0x10,%esp
    90bd:	e9 78 fa ff ff       	jmp    8b3a <tinput_read_i+0xf6a>
    90c2:	c7 87 24 10 00 00 00 	movl   $0x0,0x1024(%edi)
    90c9:	00 00 00 
    90cc:	e9 c4 fd ff ff       	jmp    8e95 <tinput_read_i+0x12c5>
    90d1:	8b 75 a0             	mov    -0x60(%ebp),%esi
    90d4:	83 ec 0c             	sub    $0xc,%esp
    90d7:	8d 04 86             	lea    (%esi,%eax,4),%eax
    90da:	50                   	push   %eax
    90db:	e8 60 42 00 00       	call   d340 <wstr_to_astr@plt>
    90e0:	83 c4 10             	add    $0x10,%esp
    90e3:	89 c2                	mov    %eax,%edx
    90e5:	e9 dc fa ff ff       	jmp    8bc6 <tinput_read_i+0xff6>
    90ea:	8b 45 98             	mov    -0x68(%ebp),%eax
    90ed:	8b 75 84             	mov    -0x7c(%ebp),%esi
    90f0:	c7 45 88 00 00 00 00 	movl   $0x0,-0x78(%ebp)
    90f7:	8b 3c b0             	mov    (%eax,%esi,4),%edi
    90fa:	8b 00                	mov    (%eax),%eax
    90fc:	89 45 94             	mov    %eax,-0x6c(%ebp)
    90ff:	c7 45 bc 00 00 00 00 	movl   $0x0,-0x44(%ebp)
    9106:	c7 45 c0 00 00 00 00 	movl   $0x0,-0x40(%ebp)
    910d:	eb 10                	jmp    911f <tinput_read_i+0x154f>
    910f:	90                   	nop
    9110:	39 c6                	cmp    %eax,%esi
    9112:	0f 85 a1 f3 ff ff    	jne    84b9 <tinput_read_i+0x8e9>
    9118:	8b 45 88             	mov    -0x78(%ebp),%eax
    911b:	40                   	inc    %eax
    911c:	89 45 88             	mov    %eax,-0x78(%ebp)
    911f:	50                   	push   %eax
    9120:	8d 45 bc             	lea    -0x44(%ebp),%eax
    9123:	6a ff                	push   $0xffffffff
    9125:	50                   	push   %eax
    9126:	8b 45 94             	mov    -0x6c(%ebp),%eax
    9129:	50                   	push   %eax
    912a:	e8 51 3f 00 00       	call   d080 <str_decode@plt>
    912f:	83 c4 0c             	add    $0xc,%esp
    9132:	89 c6                	mov    %eax,%esi
    9134:	8b 45 9c             	mov    -0x64(%ebp),%eax
    9137:	6a ff                	push   $0xffffffff
    9139:	50                   	push   %eax
    913a:	57                   	push   %edi
    913b:	e8 40 3f 00 00       	call   d080 <str_decode@plt>
    9140:	83 c4 10             	add    $0x10,%esp
    9143:	85 f6                	test   %esi,%esi
    9145:	0f 94 c1             	sete   %cl
    9148:	85 c0                	test   %eax,%eax
    914a:	0f 94 c2             	sete   %dl
    914d:	08 d1                	or     %dl,%cl
    914f:	74 bf                	je     9110 <tinput_read_i+0x1540>
    9151:	e9 63 f3 ff ff       	jmp    84b9 <tinput_read_i+0x8e9>
    9156:	c7 87 24 10 00 00 00 	movl   $0x0,0x1024(%edi)
    915d:	00 00 00 
    9160:	e9 6f ef ff ff       	jmp    80d4 <tinput_read_i+0x504>
    9165:	8b 75 a0             	mov    -0x60(%ebp),%esi
    9168:	83 ec 0c             	sub    $0xc,%esp
    916b:	8d 04 86             	lea    (%esi,%eax,4),%eax
    916e:	50                   	push   %eax
    916f:	e8 cc 41 00 00       	call   d340 <wstr_to_astr@plt>
    9174:	83 c4 10             	add    $0x10,%esp
    9177:	89 c2                	mov    %eax,%edx
    9179:	e9 ba fa ff ff       	jmp    8c38 <tinput_read_i+0x1068>
    917e:	83 ec 0c             	sub    $0xc,%esp
    9181:	52                   	push   %edx
    9182:	e8 89 43 00 00       	call   d510 <free@plt>
    9187:	8b 45 e0             	mov    -0x20(%ebp),%eax
    918a:	83 c4 10             	add    $0x10,%esp
    918d:	e9 b2 ec ff ff       	jmp    7e44 <tinput_read_i+0x274>
    9192:	a8 3f                	test   $0x3f,%al
    9194:	0f 85 c6 ec ff ff    	jne    7e60 <tinput_read_i+0x290>
    919a:	8b 87 28 10 00 00    	mov    0x1028(%edi),%eax
    91a0:	85 c0                	test   %eax,%eax
    91a2:	0f 85 6d f6 ff ff    	jne    8815 <tinput_read_i+0xc45>
    91a8:	e9 03 f4 ff ff       	jmp    85b0 <tinput_read_i+0x9e0>
    91ad:	8d 76 00             	lea    0x0(%esi),%esi
    91b0:	8b 75 e4             	mov    -0x1c(%ebp),%esi
    91b3:	83 fe 1f             	cmp    $0x1f,%esi
    91b6:	0f 8e ac ea ff ff    	jle    7c68 <tinput_read_i+0x98>
    91bc:	e9 3e ed ff ff       	jmp    7eff <tinput_read_i+0x32f>
    91c1:	83 ec 0c             	sub    $0xc,%esp
    91c4:	8b 45 90             	mov    -0x70(%ebp),%eax
    91c7:	6a 00                	push   $0x0
    91c9:	68 a0 73 00 00       	push   $0x73a0
    91ce:	6a 04                	push   $0x4
    91d0:	50                   	push   %eax
    91d1:	8b 45 98             	mov    -0x68(%ebp),%eax
    91d4:	50                   	push   %eax
    91d5:	e8 d6 3e 00 00       	call   d0b0 <qsort@plt>
    91da:	8b 97 14 10 00 00    	mov    0x1014(%edi),%edx
    91e0:	8b 87 20 10 00 00    	mov    0x1020(%edi),%eax
    91e6:	83 c4 1c             	add    $0x1c,%esp
    91e9:	01 d0                	add    %edx,%eax
    91eb:	31 d2                	xor    %edx,%edx
    91ed:	8b 0f                	mov    (%edi),%ecx
    91ef:	f7 b7 18 10 00 00    	divl   0x1018(%edi)
    91f5:	50                   	push   %eax
    91f6:	52                   	push   %edx
    91f7:	51                   	push   %ecx
    91f8:	e8 03 42 00 00       	call   d400 <console_set_pos@plt>
    91fd:	8b 07                	mov    (%edi),%eax
    91ff:	5e                   	pop    %esi
    9200:	50                   	push   %eax
    9201:	e8 aa 41 00 00       	call   d3b0 <console_flush@plt>
    9206:	c7 04 24 0a 00 00 00 	movl   $0xa,(%esp)
    920d:	e8 9e 3d 00 00       	call   cfb0 <putchar@plt>
    9212:	31 d2                	xor    %edx,%edx
    9214:	89 7d 08             	mov    %edi,0x8(%ebp)
    9217:	83 c4 10             	add    $0x10,%esp
    921a:	31 f6                	xor    %esi,%esi
    921c:	89 d7                	mov    %edx,%edi
    921e:	8b 45 98             	mov    -0x68(%ebp),%eax
    9221:	83 ec 0c             	sub    $0xc,%esp
    9224:	8b 04 b8             	mov    (%eax,%edi,4),%eax
    9227:	50                   	push   %eax
    9228:	e8 43 3e 00 00       	call   d070 <str_width@plt>
    922d:	83 c4 10             	add    $0x10,%esp
    9230:	39 c6                	cmp    %eax,%esi
    9232:	77 14                	ja     9248 <tinput_read_i+0x1678>
    9234:	8b 45 98             	mov    -0x68(%ebp),%eax
    9237:	83 ec 0c             	sub    $0xc,%esp
    923a:	8b 0c b8             	mov    (%eax,%edi,4),%ecx
    923d:	51                   	push   %ecx
    923e:	e8 2d 3e 00 00       	call   d070 <str_width@plt>
    9243:	83 c4 10             	add    $0x10,%esp
    9246:	89 c6                	mov    %eax,%esi
    9248:	47                   	inc    %edi
    9249:	39 7d 90             	cmp    %edi,-0x70(%ebp)
    924c:	75 d0                	jne    921e <tinput_read_i+0x164e>
    924e:	8b 7d 08             	mov    0x8(%ebp),%edi
    9251:	31 d2                	xor    %edx,%edx
    9253:	8d 4e 01             	lea    0x1(%esi),%ecx
    9256:	8b 87 18 10 00 00    	mov    0x1018(%edi),%eax
    925c:	89 45 94             	mov    %eax,-0x6c(%ebp)
    925f:	40                   	inc    %eax
    9260:	89 45 8c             	mov    %eax,-0x74(%ebp)
    9263:	f7 f1                	div    %ecx
    9265:	89 c2                	mov    %eax,%edx
    9267:	85 c0                	test   %eax,%eax
    9269:	0f 84 76 01 00 00    	je     93e5 <tinput_read_i+0x1815>
    926f:	89 55 88             	mov    %edx,-0x78(%ebp)
    9272:	8b 45 90             	mov    -0x70(%ebp),%eax
    9275:	31 d2                	xor    %edx,%edx
    9277:	f7 75 88             	divl   -0x78(%ebp)
    927a:	31 c0                	xor    %eax,%eax
    927c:	85 d2                	test   %edx,%edx
    927e:	0f 95 c0             	setne  %al
    9281:	89 45 9c             	mov    %eax,-0x64(%ebp)
    9284:	8b 55 88             	mov    -0x78(%ebp),%edx
    9287:	31 c0                	xor    %eax,%eax
    9289:	0f af ca             	imul   %edx,%ecx
    928c:	8d 51 ff             	lea    -0x1(%ecx),%edx
    928f:	39 55 94             	cmp    %edx,-0x6c(%ebp)
    9292:	76 05                	jbe    9299 <tinput_read_i+0x16c9>
    9294:	8b 45 8c             	mov    -0x74(%ebp),%eax
    9297:	29 c8                	sub    %ecx,%eax
    9299:	8b 4d 88             	mov    -0x78(%ebp),%ecx
    929c:	31 d2                	xor    %edx,%edx
    929e:	f7 f1                	div    %ecx
    92a0:	01 f0                	add    %esi,%eax
    92a2:	31 d2                	xor    %edx,%edx
    92a4:	89 45 94             	mov    %eax,-0x6c(%ebp)
    92a7:	8b 45 90             	mov    -0x70(%ebp),%eax
    92aa:	f7 f1                	div    %ecx
    92ac:	03 45 9c             	add    -0x64(%ebp),%eax
    92af:	8d 71 ff             	lea    -0x1(%ecx),%esi
    92b2:	c7 85 7c ff ff ff 00 	movl   $0x0,-0x84(%ebp)
    92b9:	00 00 00 
    92bc:	89 75 80             	mov    %esi,-0x80(%ebp)
    92bf:	89 45 84             	mov    %eax,-0x7c(%ebp)
    92c2:	0f 84 00 01 00 00    	je     93c8 <tinput_read_i+0x17f8>
    92c8:	89 7d 08             	mov    %edi,0x8(%ebp)
    92cb:	8b 85 7c ff ff ff    	mov    -0x84(%ebp),%eax
    92d1:	8b 7d 94             	mov    -0x6c(%ebp),%edi
    92d4:	89 45 94             	mov    %eax,-0x6c(%ebp)
    92d7:	31 d2                	xor    %edx,%edx
    92d9:	c7 45 9c 00 00 00 00 	movl   $0x0,-0x64(%ebp)
    92e0:	8b 75 94             	mov    -0x6c(%ebp),%esi
    92e3:	39 75 90             	cmp    %esi,-0x70(%ebp)
    92e6:	0f 86 9c 00 00 00    	jbe    9388 <tinput_read_i+0x17b8>
    92ec:	8b 45 9c             	mov    -0x64(%ebp),%eax
    92ef:	89 55 8c             	mov    %edx,-0x74(%ebp)
    92f2:	85 c0                	test   %eax,%eax
    92f4:	0f 84 72 01 00 00    	je     946c <tinput_read_i+0x189c>
    92fa:	83 ec 0c             	sub    $0xc,%esp
    92fd:	68 b4 b3 00 00       	push   $0xb3b4
    9302:	e8 e9 3c 00 00       	call   cff0 <printf@plt>
    9307:	8b 55 8c             	mov    -0x74(%ebp),%edx
    930a:	83 c4 10             	add    $0x10,%esp
    930d:	8b 4d 94             	mov    -0x6c(%ebp),%ecx
    9310:	8d 42 01             	lea    0x1(%edx),%eax
    9313:	89 45 8c             	mov    %eax,-0x74(%ebp)
    9316:	8b 75 98             	mov    -0x68(%ebp),%esi
    9319:	50                   	push   %eax
    931a:	50                   	push   %eax
    931b:	8b 04 8e             	mov    (%esi,%ecx,4),%eax
    931e:	50                   	push   %eax
    931f:	68 52 ad 00 00       	push   $0xad52
    9324:	e8 c7 3c 00 00       	call   cff0 <printf@plt>
    9329:	8b 4d 94             	mov    -0x6c(%ebp),%ecx
    932c:	58                   	pop    %eax
    932d:	8b 04 8e             	mov    (%esi,%ecx,4),%eax
    9330:	50                   	push   %eax
    9331:	e8 3a 3d 00 00       	call   d070 <str_width@plt>
    9336:	89 c6                	mov    %eax,%esi
    9338:	8b 45 8c             	mov    -0x74(%ebp),%eax
    933b:	8b 4d 80             	mov    -0x80(%ebp),%ecx
    933e:	83 c4 10             	add    $0x10,%esp
    9341:	8d 14 06             	lea    (%esi,%eax,1),%edx
    9344:	39 4d 9c             	cmp    %ecx,-0x64(%ebp)
    9347:	73 21                	jae    936a <tinput_read_i+0x179a>
    9349:	39 f7                	cmp    %esi,%edi
    934b:	76 1d                	jbe    936a <tinput_read_i+0x179a>
    934d:	8d 76 00             	lea    0x0(%esi),%esi
    9350:	83 ec 0c             	sub    $0xc,%esp
    9353:	46                   	inc    %esi
    9354:	68 b4 b3 00 00       	push   $0xb3b4
    9359:	e8 92 3c 00 00       	call   cff0 <printf@plt>
    935e:	83 c4 10             	add    $0x10,%esp
    9361:	39 f7                	cmp    %esi,%edi
    9363:	77 eb                	ja     9350 <tinput_read_i+0x1780>
    9365:	8b 55 8c             	mov    -0x74(%ebp),%edx
    9368:	01 fa                	add    %edi,%edx
    936a:	8b 45 9c             	mov    -0x64(%ebp),%eax
    936d:	8b 75 94             	mov    -0x6c(%ebp),%esi
    9370:	40                   	inc    %eax
    9371:	8b 4d 84             	mov    -0x7c(%ebp),%ecx
    9374:	89 45 9c             	mov    %eax,-0x64(%ebp)
    9377:	01 ce                	add    %ecx,%esi
    9379:	8b 45 9c             	mov    -0x64(%ebp),%eax
    937c:	89 75 94             	mov    %esi,-0x6c(%ebp)
    937f:	39 45 88             	cmp    %eax,-0x78(%ebp)
    9382:	0f 85 58 ff ff ff    	jne    92e0 <tinput_read_i+0x1710>
    9388:	8b 75 08             	mov    0x8(%ebp),%esi
    938b:	89 d0                	mov    %edx,%eax
    938d:	31 d2                	xor    %edx,%edx
    938f:	f7 b6 18 10 00 00    	divl   0x1018(%esi)
    9395:	85 d2                	test   %edx,%edx
    9397:	74 10                	je     93a9 <tinput_read_i+0x17d9>
    9399:	83 ec 0c             	sub    $0xc,%esp
    939c:	68 1b c8 00 00       	push   $0xc81b
    93a1:	e8 4a 3c 00 00       	call   cff0 <printf@plt>
    93a6:	83 c4 10             	add    $0x10,%esp
    93a9:	8b 85 7c ff ff ff    	mov    -0x84(%ebp),%eax
    93af:	40                   	inc    %eax
    93b0:	89 85 7c ff ff ff    	mov    %eax,-0x84(%ebp)
    93b6:	8b 85 7c ff ff ff    	mov    -0x84(%ebp),%eax
    93bc:	39 45 84             	cmp    %eax,-0x7c(%ebp)
    93bf:	0f 85 0f ff ff ff    	jne    92d4 <tinput_read_i+0x1704>
    93c5:	8b 7d 08             	mov    0x8(%ebp),%edi
    93c8:	83 ec 0c             	sub    $0xc,%esp
    93cb:	a1 40 f8 00 00       	mov    0xf840,%eax
    93d0:	50                   	push   %eax
    93d1:	e8 8a 3d 00 00       	call   d160 <fflush@plt>
    93d6:	89 f8                	mov    %edi,%eax
    93d8:	e8 33 e6 ff ff       	call   7a10 <tinput_display>
    93dd:	83 c4 10             	add    $0x10,%esp
    93e0:	e9 45 f1 ff ff       	jmp    852a <tinput_read_i+0x95a>
    93e5:	c7 45 9c 00 00 00 00 	movl   $0x0,-0x64(%ebp)
    93ec:	c7 45 88 01 00 00 00 	movl   $0x1,-0x78(%ebp)
    93f3:	e9 8c fe ff ff       	jmp    9284 <tinput_read_i+0x16b4>
    93f8:	74 3b                	je     9435 <tinput_read_i+0x1865>
    93fa:	8b 45 90             	mov    -0x70(%ebp),%eax
    93fd:	85 c0                	test   %eax,%eax
    93ff:	0f 85 25 f1 ff ff    	jne    852a <tinput_read_i+0x95a>
    9405:	e9 3a f1 ff ff       	jmp    8544 <tinput_read_i+0x974>
    940a:	8d b6 00 00 00 00    	lea    0x0(%esi),%esi
    9410:	a8 3f                	test   $0x3f,%al
    9412:	0f 85 48 ea ff ff    	jne    7e60 <tinput_read_i+0x290>
    9418:	e9 41 f1 ff ff       	jmp    855e <tinput_read_i+0x98e>
    941d:	8d 76 00             	lea    0x0(%esi),%esi
    9420:	83 ec 0c             	sub    $0xc,%esp
    9423:	68 f0 c9 00 00       	push   $0xc9f0
    9428:	e8 c3 3b 00 00       	call   cff0 <printf@plt>
    942d:	83 c4 10             	add    $0x10,%esp
    9430:	e9 d7 ef ff ff       	jmp    840c <tinput_read_i+0x83c>
    9435:	8b 75 98             	mov    -0x68(%ebp),%esi
    9438:	50                   	push   %eax
    9439:	50                   	push   %eax
    943a:	8b 55 b4             	mov    -0x4c(%ebp),%edx
    943d:	8b 87 24 10 00 00    	mov    0x1024(%edi),%eax
    9443:	8b 0e                	mov    (%esi),%ecx
    9445:	29 d0                	sub    %edx,%eax
    9447:	50                   	push   %eax
    9448:	51                   	push   %ecx
    9449:	e8 72 40 00 00       	call   d4c0 <str_lsize@plt>
    944e:	8b 16                	mov    (%esi),%edx
    9450:	01 d0                	add    %edx,%eax
    9452:	89 c2                	mov    %eax,%edx
    9454:	89 f8                	mov    %edi,%eax
    9456:	e8 15 e4 ff ff       	call   7870 <tinput_insert_string>
    945b:	8b 36                	mov    (%esi),%esi
    945d:	59                   	pop    %ecx
    945e:	56                   	push   %esi
    945f:	e8 ac 40 00 00       	call   d510 <free@plt>
    9464:	83 c4 10             	add    $0x10,%esp
    9467:	e9 d8 f0 ff ff       	jmp    8544 <tinput_read_i+0x974>
    946c:	89 f1                	mov    %esi,%ecx
    946e:	e9 a3 fe ff ff       	jmp    9316 <tinput_read_i+0x1746>
    9473:	83 ec 0c             	sub    $0xc,%esp
    9476:	68 f0 c9 00 00       	push   $0xc9f0
    947b:	e8 70 3b 00 00       	call   cff0 <printf@plt>
    9480:	83 c4 10             	add    $0x10,%esp
    9483:	e9 d8 e9 ff ff       	jmp    7e60 <tinput_read_i+0x290>
    9488:	89 d0                	mov    %edx,%eax
    948a:	e9 b2 e8 ff ff       	jmp    7d41 <tinput_read_i+0x171>
    948f:	29 f0                	sub    %esi,%eax
    9491:	52                   	push   %edx
    9492:	c1 e0 02             	shl    $0x2,%eax
    9495:	8b 4d 9c             	mov    -0x64(%ebp),%ecx
    9498:	50                   	push   %eax
    9499:	8b 45 a0             	mov    -0x60(%ebp),%eax
    949c:	8d 04 b0             	lea    (%eax,%esi,4),%eax
    949f:	50                   	push   %eax
    94a0:	51                   	push   %ecx
    94a1:	e8 1a 3c 00 00       	call   d0c0 <memcpy@plt>
    94a6:	8b 87 20 10 00 00    	mov    0x1020(%edi),%eax
    94ac:	29 f0                	sub    %esi,%eax
    94ae:	8b 75 9c             	mov    -0x64(%ebp),%esi
    94b1:	c7 04 86 00 00 00 00 	movl   $0x0,(%esi,%eax,4)
    94b8:	58                   	pop    %eax
    94b9:	5a                   	pop    %edx
    94ba:	56                   	push   %esi
    94bb:	68 ec c9 00 00       	push   $0xc9ec
    94c0:	e8 2b 3b 00 00       	call   cff0 <printf@plt>
    94c5:	83 c4 10             	add    $0x10,%esp
    94c8:	e9 8e f2 ff ff       	jmp    875b <tinput_read_i+0xb8b>
    94cd:	83 ec 0c             	sub    $0xc,%esp
    94d0:	8b 07                	mov    (%edi),%eax
    94d2:	50                   	push   %eax
    94d3:	e8 d8 3e 00 00       	call   d3b0 <console_flush@plt>
    94d8:	8b 0f                	mov    (%edi),%ecx
    94da:	58                   	pop    %eax
    94db:	5a                   	pop    %edx
    94dc:	6a 03                	push   $0x3
    94de:	51                   	push   %ecx
    94df:	e8 2c 3e 00 00       	call   d310 <console_set_style@plt>
    94e4:	8b 55 98             	mov    -0x68(%ebp),%edx
    94e7:	8b 45 a0             	mov    -0x60(%ebp),%eax
    94ea:	83 c4 0c             	add    $0xc,%esp
    94ed:	29 f2                	sub    %esi,%edx
    94ef:	c1 e2 02             	shl    $0x2,%edx
    94f2:	8d 04 b0             	lea    (%eax,%esi,4),%eax
    94f5:	8b 75 9c             	mov    -0x64(%ebp),%esi
    94f8:	52                   	push   %edx
    94f9:	89 55 94             	mov    %edx,-0x6c(%ebp)
    94fc:	50                   	push   %eax
    94fd:	56                   	push   %esi
    94fe:	e8 bd 3b 00 00       	call   d0c0 <memcpy@plt>
    9503:	8b 55 94             	mov    -0x6c(%ebp),%edx
    9506:	c7 04 16 00 00 00 00 	movl   $0x0,(%esi,%edx,1)
    950d:	58                   	pop    %eax
    950e:	5a                   	pop    %edx
    950f:	56                   	push   %esi
    9510:	68 ec c9 00 00       	push   $0xc9ec
    9515:	e8 d6 3a 00 00       	call   cff0 <printf@plt>
    951a:	83 c4 10             	add    $0x10,%esp
    951d:	8b 75 98             	mov    -0x68(%ebp),%esi
    9520:	e9 0e f2 ff ff       	jmp    8733 <tinput_read_i+0xb63>
    9525:	89 ca                	mov    %ecx,%edx
    9527:	8b 45 a0             	mov    -0x60(%ebp),%eax
    952a:	29 f2                	sub    %esi,%edx
    952c:	89 4d 90             	mov    %ecx,-0x70(%ebp)
    952f:	c1 e2 02             	shl    $0x2,%edx
    9532:	8d 04 b0             	lea    (%eax,%esi,4),%eax
    9535:	8b 75 9c             	mov    -0x64(%ebp),%esi
    9538:	89 55 94             	mov    %edx,-0x6c(%ebp)
    953b:	51                   	push   %ecx
    953c:	52                   	push   %edx
    953d:	50                   	push   %eax
    953e:	56                   	push   %esi
    953f:	e8 7c 3b 00 00       	call   d0c0 <memcpy@plt>
    9544:	8b 55 94             	mov    -0x6c(%ebp),%edx
    9547:	c7 04 16 00 00 00 00 	movl   $0x0,(%esi,%edx,1)
    954e:	58                   	pop    %eax
    954f:	5a                   	pop    %edx
    9550:	56                   	push   %esi
    9551:	68 ec c9 00 00       	push   $0xc9ec
    9556:	e8 95 3a 00 00       	call   cff0 <printf@plt>
    955b:	8b 4d 90             	mov    -0x70(%ebp),%ecx
    955e:	83 c4 10             	add    $0x10,%esp
    9561:	89 ce                	mov    %ecx,%esi
    9563:	e9 c2 f1 ff ff       	jmp    872a <tinput_read_i+0xb5a>
    9568:	90                   	nop
    9569:	8d b4 26 00 00 00 00 	lea    0x0(%esi,%eiz,1),%esi

00009570 <tinput_read>:
    9570:	55                   	push   %ebp
    9571:	89 e5                	mov    %esp,%ebp
    9573:	83 ec 0c             	sub    $0xc,%esp
    9576:	8b 45 0c             	mov    0xc(%ebp),%eax
    9579:	8b 55 08             	mov    0x8(%ebp),%edx
    957c:	50                   	push   %eax
    957d:	68 1c c8 00 00       	push   $0xc81c
    9582:	52                   	push   %edx
    9583:	e8 48 e6 ff ff       	call   7bd0 <tinput_read_i>
    9588:	c9                   	leave  
    9589:	c3                   	ret    
    958a:	66 90                	xchg   %ax,%ax
    958c:	66 90                	xchg   %ax,%ax
    958e:	66 90                	xchg   %ax,%ax

00009590 <print_aligned_w>:
    9590:	55                   	push   %ebp
    9591:	89 e5                	mov    %esp,%ebp
    9593:	57                   	push   %edi
    9594:	56                   	push   %esi
    9595:	53                   	push   %ebx
    9596:	83 ec 38             	sub    $0x38,%esp
    9599:	8b 5d 08             	mov    0x8(%ebp),%ebx
    959c:	8b 75 14             	mov    0x14(%ebp),%esi
    959f:	53                   	push   %ebx
    95a0:	8b 7d 10             	mov    0x10(%ebp),%edi
    95a3:	e8 38 3a 00 00       	call   cfe0 <wstr_length@plt>
    95a8:	83 c4 10             	add    $0x10,%esp
    95ab:	89 45 e4             	mov    %eax,-0x1c(%ebp)
    95ae:	85 f6                	test   %esi,%esi
    95b0:	74 0c                	je     95be <print_aligned_w+0x2e>
    95b2:	83 fe 03             	cmp    $0x3,%esi
    95b5:	89 f9                	mov    %edi,%ecx
    95b7:	0f 94 c0             	sete   %al
    95ba:	84 c8                	test   %cl,%al
    95bc:	74 4a                	je     9608 <print_aligned_w+0x78>
    95be:	8b 45 0c             	mov    0xc(%ebp),%eax
    95c1:	85 c0                	test   %eax,%eax
    95c3:	74 38                	je     95fd <print_aligned_w+0x6d>
    95c5:	31 f6                	xor    %esi,%esi
    95c7:	eb 1c                	jmp    95e5 <print_aligned_w+0x55>
    95c9:	8d b4 26 00 00 00 00 	lea    0x0(%esi,%eiz,1),%esi
    95d0:	83 ec 0c             	sub    $0xc,%esp
    95d3:	8b 3c b3             	mov    (%ebx,%esi,4),%edi
    95d6:	46                   	inc    %esi
    95d7:	57                   	push   %edi
    95d8:	e8 d3 39 00 00       	call   cfb0 <putchar@plt>
    95dd:	83 c4 10             	add    $0x10,%esp
    95e0:	39 75 0c             	cmp    %esi,0xc(%ebp)
    95e3:	74 18                	je     95fd <print_aligned_w+0x6d>
    95e5:	39 75 e4             	cmp    %esi,-0x1c(%ebp)
    95e8:	77 e6                	ja     95d0 <print_aligned_w+0x40>
    95ea:	83 ec 0c             	sub    $0xc,%esp
    95ed:	46                   	inc    %esi
    95ee:	6a 20                	push   $0x20
    95f0:	e8 bb 39 00 00       	call   cfb0 <putchar@plt>
    95f5:	83 c4 10             	add    $0x10,%esp
    95f8:	39 75 0c             	cmp    %esi,0xc(%ebp)
    95fb:	75 e8                	jne    95e5 <print_aligned_w+0x55>
    95fd:	31 c0                	xor    %eax,%eax
    95ff:	8d 65 f4             	lea    -0xc(%ebp),%esp
    9602:	5b                   	pop    %ebx
    9603:	5e                   	pop    %esi
    9604:	5f                   	pop    %edi
    9605:	5d                   	pop    %ebp
    9606:	c3                   	ret    
    9607:	90                   	nop
    9608:	83 fe 01             	cmp    $0x1,%esi
    960b:	0f 84 c6 00 00 00    	je     96d7 <print_aligned_w+0x147>
    9611:	83 fe 02             	cmp    $0x2,%esi
    9614:	0f 84 e0 01 00 00    	je     97fa <print_aligned_w+0x26a>
    961a:	83 fe 03             	cmp    $0x3,%esi
    961d:	0f 85 44 02 00 00    	jne    9867 <print_aligned_w+0x2d7>
    9623:	8b 55 e4             	mov    -0x1c(%ebp),%edx
    9626:	85 d2                	test   %edx,%edx
    9628:	0f 84 43 02 00 00    	je     9871 <print_aligned_w+0x2e1>
    962e:	8d 34 93             	lea    (%ebx,%edx,4),%esi
    9631:	89 d8                	mov    %ebx,%eax
    9633:	b2 01                	mov    $0x1,%dl
    9635:	31 c9                	xor    %ecx,%ecx
    9637:	31 ff                	xor    %edi,%edi
    9639:	8d b4 26 00 00 00 00 	lea    0x0(%esi,%eiz,1),%esi
    9640:	84 d2                	test   %dl,%dl
    9642:	0f 84 78 01 00 00    	je     97c0 <print_aligned_w+0x230>
    9648:	83 38 20             	cmpl   $0x20,(%eax)
    964b:	74 04                	je     9651 <print_aligned_w+0xc1>
    964d:	47                   	inc    %edi
    964e:	31 d2                	xor    %edx,%edx
    9650:	41                   	inc    %ecx
    9651:	83 c0 04             	add    $0x4,%eax
    9654:	39 c6                	cmp    %eax,%esi
    9656:	75 e8                	jne    9640 <print_aligned_w+0xb0>
    9658:	89 fa                	mov    %edi,%edx
    965a:	c7 45 e0 00 00 00 00 	movl   $0x0,-0x20(%ebp)
    9661:	85 ff                	test   %edi,%edi
    9663:	74 46                	je     96ab <print_aligned_w+0x11b>
    9665:	8b 45 0c             	mov    0xc(%ebp),%eax
    9668:	c7 45 dc 00 00 00 00 	movl   $0x0,-0x24(%ebp)
    966f:	29 c8                	sub    %ecx,%eax
    9671:	c7 45 d8 00 00 00 00 	movl   $0x0,-0x28(%ebp)
    9678:	29 d0                	sub    %edx,%eax
    967a:	31 ff                	xor    %edi,%edi
    967c:	40                   	inc    %eax
    967d:	89 45 d0             	mov    %eax,-0x30(%ebp)
    9680:	8d 42 ff             	lea    -0x1(%edx),%eax
    9683:	89 45 c8             	mov    %eax,-0x38(%ebp)
    9686:	66 90                	xchg   %ax,%ax
    9688:	39 7d e4             	cmp    %edi,-0x1c(%ebp)
    968b:	0f 86 8b 00 00 00    	jbe    971c <print_aligned_w+0x18c>
    9691:	8b 45 e4             	mov    -0x1c(%ebp),%eax
    9694:	83 3c bb 20          	cmpl   $0x20,(%ebx,%edi,4)
    9698:	74 0c                	je     96a6 <print_aligned_w+0x116>
    969a:	e9 81 00 00 00       	jmp    9720 <print_aligned_w+0x190>
    969f:	90                   	nop
    96a0:	83 3c bb 20          	cmpl   $0x20,(%ebx,%edi,4)
    96a4:	75 7a                	jne    9720 <print_aligned_w+0x190>
    96a6:	47                   	inc    %edi
    96a7:	39 f8                	cmp    %edi,%eax
    96a9:	75 f5                	jne    96a0 <print_aligned_w+0x110>
    96ab:	8b 45 e0             	mov    -0x20(%ebp),%eax
    96ae:	3b 45 0c             	cmp    0xc(%ebp),%eax
    96b1:	0f 83 46 ff ff ff    	jae    95fd <print_aligned_w+0x6d>
    96b7:	89 c3                	mov    %eax,%ebx
    96b9:	8b 75 0c             	mov    0xc(%ebp),%esi
    96bc:	8d 74 26 00          	lea    0x0(%esi,%eiz,1),%esi
    96c0:	83 ec 0c             	sub    $0xc,%esp
    96c3:	43                   	inc    %ebx
    96c4:	6a 20                	push   $0x20
    96c6:	e8 e5 38 00 00       	call   cfb0 <putchar@plt>
    96cb:	83 c4 10             	add    $0x10,%esp
    96ce:	39 de                	cmp    %ebx,%esi
    96d0:	75 ee                	jne    96c0 <print_aligned_w+0x130>
    96d2:	e9 26 ff ff ff       	jmp    95fd <print_aligned_w+0x6d>
    96d7:	8b 4d 0c             	mov    0xc(%ebp),%ecx
    96da:	85 c9                	test   %ecx,%ecx
    96dc:	0f 84 1b ff ff ff    	je     95fd <print_aligned_w+0x6d>
    96e2:	8b 45 e4             	mov    -0x1c(%ebp),%eax
    96e5:	8b 75 0c             	mov    0xc(%ebp),%esi
    96e8:	8b 55 0c             	mov    0xc(%ebp),%edx
    96eb:	29 c6                	sub    %eax,%esi
    96ed:	29 d0                	sub    %edx,%eax
    96ef:	31 ff                	xor    %edi,%edi
    96f1:	8d 1c 83             	lea    (%ebx,%eax,4),%ebx
    96f4:	eb 19                	jmp    970f <print_aligned_w+0x17f>
    96f6:	66 90                	xchg   %ax,%ax
    96f8:	83 ec 0c             	sub    $0xc,%esp
    96fb:	6a 20                	push   $0x20
    96fd:	47                   	inc    %edi
    96fe:	e8 ad 38 00 00       	call   cfb0 <putchar@plt>
    9703:	83 c4 10             	add    $0x10,%esp
    9706:	39 7d 0c             	cmp    %edi,0xc(%ebp)
    9709:	0f 84 ee fe ff ff    	je     95fd <print_aligned_w+0x6d>
    970f:	39 f7                	cmp    %esi,%edi
    9711:	72 e5                	jb     96f8 <print_aligned_w+0x168>
    9713:	83 ec 0c             	sub    $0xc,%esp
    9716:	8b 04 bb             	mov    (%ebx,%edi,4),%eax
    9719:	50                   	push   %eax
    971a:	eb e1                	jmp    96fd <print_aligned_w+0x16d>
    971c:	74 8d                	je     96ab <print_aligned_w+0x11b>
    971e:	66 90                	xchg   %ax,%ax
    9720:	8b 4d d8             	mov    -0x28(%ebp),%ecx
    9723:	85 c9                	test   %ecx,%ecx
    9725:	74 49                	je     9770 <print_aligned_w+0x1e0>
    9727:	8b 75 c8             	mov    -0x38(%ebp),%esi
    972a:	31 d2                	xor    %edx,%edx
    972c:	8b 45 dc             	mov    -0x24(%ebp),%eax
    972f:	f7 f6                	div    %esi
    9731:	8b 55 d0             	mov    -0x30(%ebp),%edx
    9734:	8d 48 01             	lea    0x1(%eax),%ecx
    9737:	8b 45 dc             	mov    -0x24(%ebp),%eax
    973a:	29 d0                	sub    %edx,%eax
    973c:	31 d2                	xor    %edx,%edx
    973e:	f7 f6                	div    %esi
    9740:	31 f6                	xor    %esi,%esi
    9742:	29 c1                	sub    %eax,%ecx
    9744:	89 4d d4             	mov    %ecx,-0x2c(%ebp)
    9747:	74 1c                	je     9765 <print_aligned_w+0x1d5>
    9749:	89 5d cc             	mov    %ebx,-0x34(%ebp)
    974c:	8b 5d d4             	mov    -0x2c(%ebp),%ebx
    974f:	90                   	nop
    9750:	83 ec 0c             	sub    $0xc,%esp
    9753:	46                   	inc    %esi
    9754:	6a 20                	push   $0x20
    9756:	e8 55 38 00 00       	call   cfb0 <putchar@plt>
    975b:	83 c4 10             	add    $0x10,%esp
    975e:	39 f3                	cmp    %esi,%ebx
    9760:	75 ee                	jne    9750 <print_aligned_w+0x1c0>
    9762:	8b 5d cc             	mov    -0x34(%ebp),%ebx
    9765:	8b 4d e0             	mov    -0x20(%ebp),%ecx
    9768:	8b 55 d4             	mov    -0x2c(%ebp),%edx
    976b:	01 d1                	add    %edx,%ecx
    976d:	89 4d e0             	mov    %ecx,-0x20(%ebp)
    9770:	39 7d e4             	cmp    %edi,-0x1c(%ebp)
    9773:	0f 86 dc 00 00 00    	jbe    9855 <print_aligned_w+0x2c5>
    9779:	8b 14 bb             	mov    (%ebx,%edi,4),%edx
    977c:	83 fa 20             	cmp    $0x20,%edx
    977f:	0f 84 d8 00 00 00    	je     985d <print_aligned_w+0x2cd>
    9785:	89 d8                	mov    %ebx,%eax
    9787:	89 fb                	mov    %edi,%ebx
    9789:	89 c6                	mov    %eax,%esi
    978b:	eb 0b                	jmp    9798 <print_aligned_w+0x208>
    978d:	8d 76 00             	lea    0x0(%esi),%esi
    9790:	8b 14 9e             	mov    (%esi,%ebx,4),%edx
    9793:	83 fa 20             	cmp    $0x20,%edx
    9796:	74 40                	je     97d8 <print_aligned_w+0x248>
    9798:	83 ec 0c             	sub    $0xc,%esp
    979b:	43                   	inc    %ebx
    979c:	52                   	push   %edx
    979d:	e8 0e 38 00 00       	call   cfb0 <putchar@plt>
    97a2:	89 d8                	mov    %ebx,%eax
    97a4:	8b 55 e0             	mov    -0x20(%ebp),%edx
    97a7:	29 f8                	sub    %edi,%eax
    97a9:	83 c4 10             	add    $0x10,%esp
    97ac:	01 d0                	add    %edx,%eax
    97ae:	39 5d e4             	cmp    %ebx,-0x1c(%ebp)
    97b1:	75 dd                	jne    9790 <print_aligned_w+0x200>
    97b3:	89 45 e0             	mov    %eax,-0x20(%ebp)
    97b6:	e9 f0 fe ff ff       	jmp    96ab <print_aligned_w+0x11b>
    97bb:	90                   	nop
    97bc:	8d 74 26 00          	lea    0x0(%esi,%eiz,1),%esi
    97c0:	83 38 20             	cmpl   $0x20,(%eax)
    97c3:	0f 94 c2             	sete   %dl
    97c6:	0f 85 84 fe ff ff    	jne    9650 <print_aligned_w+0xc0>
    97cc:	e9 80 fe ff ff       	jmp    9651 <print_aligned_w+0xc1>
    97d1:	8d b4 26 00 00 00 00 	lea    0x0(%esi,%eiz,1),%esi
    97d8:	89 f2                	mov    %esi,%edx
    97da:	89 de                	mov    %ebx,%esi
    97dc:	89 d3                	mov    %edx,%ebx
    97de:	8b 55 d8             	mov    -0x28(%ebp),%edx
    97e1:	8b 7d dc             	mov    -0x24(%ebp),%edi
    97e4:	8b 4d d0             	mov    -0x30(%ebp),%ecx
    97e7:	42                   	inc    %edx
    97e8:	01 cf                	add    %ecx,%edi
    97ea:	89 55 d8             	mov    %edx,-0x28(%ebp)
    97ed:	89 7d dc             	mov    %edi,-0x24(%ebp)
    97f0:	89 45 e0             	mov    %eax,-0x20(%ebp)
    97f3:	89 f7                	mov    %esi,%edi
    97f5:	e9 8e fe ff ff       	jmp    9688 <print_aligned_w+0xf8>
    97fa:	8b 45 0c             	mov    0xc(%ebp),%eax
    97fd:	8b 55 e4             	mov    -0x1c(%ebp),%edx
    9800:	29 d0                	sub    %edx,%eax
    9802:	8b 4d 0c             	mov    0xc(%ebp),%ecx
    9805:	d1 e8                	shr    %eax
    9807:	85 c9                	test   %ecx,%ecx
    9809:	0f 84 ee fd ff ff    	je     95fd <print_aligned_w+0x6d>
    980f:	31 ff                	xor    %edi,%edi
    9811:	89 c6                	mov    %eax,%esi
    9813:	89 5d 08             	mov    %ebx,0x8(%ebp)
    9816:	89 fb                	mov    %edi,%ebx
    9818:	f7 de                	neg    %esi
    981a:	89 c7                	mov    %eax,%edi
    981c:	eb 1a                	jmp    9838 <print_aligned_w+0x2a8>
    981e:	66 90                	xchg   %ax,%ax
    9820:	83 ec 0c             	sub    $0xc,%esp
    9823:	6a 20                	push   $0x20
    9825:	e8 86 37 00 00       	call   cfb0 <putchar@plt>
    982a:	83 c4 10             	add    $0x10,%esp
    982d:	43                   	inc    %ebx
    982e:	46                   	inc    %esi
    982f:	39 5d 0c             	cmp    %ebx,0xc(%ebp)
    9832:	0f 84 c5 fd ff ff    	je     95fd <print_aligned_w+0x6d>
    9838:	39 df                	cmp    %ebx,%edi
    983a:	77 e4                	ja     9820 <print_aligned_w+0x290>
    983c:	39 75 e4             	cmp    %esi,-0x1c(%ebp)
    983f:	76 df                	jbe    9820 <print_aligned_w+0x290>
    9841:	8b 45 08             	mov    0x8(%ebp),%eax
    9844:	83 ec 0c             	sub    $0xc,%esp
    9847:	8b 04 b0             	mov    (%eax,%esi,4),%eax
    984a:	50                   	push   %eax
    984b:	e8 60 37 00 00       	call   cfb0 <putchar@plt>
    9850:	83 c4 10             	add    $0x10,%esp
    9853:	eb d8                	jmp    982d <print_aligned_w+0x29d>
    9855:	8b 45 e0             	mov    -0x20(%ebp),%eax
    9858:	e9 56 ff ff ff       	jmp    97b3 <print_aligned_w+0x223>
    985d:	8b 45 e0             	mov    -0x20(%ebp),%eax
    9860:	89 fe                	mov    %edi,%esi
    9862:	e9 77 ff ff ff       	jmp    97de <print_aligned_w+0x24e>
    9867:	b8 f2 ff ff ff       	mov    $0xfffffff2,%eax
    986c:	e9 8e fd ff ff       	jmp    95ff <print_aligned_w+0x6f>
    9871:	c7 45 e0 00 00 00 00 	movl   $0x0,-0x20(%ebp)
    9878:	e9 2e fe ff ff       	jmp    96ab <print_aligned_w+0x11b>
    987d:	8d 76 00             	lea    0x0(%esi),%esi

00009880 <print_wrapped>:
    9880:	55                   	push   %ebp
    9881:	89 e5                	mov    %esp,%ebp
    9883:	57                   	push   %edi
    9884:	56                   	push   %esi
    9885:	53                   	push   %ebx
    9886:	83 ec 38             	sub    $0x38,%esp
    9889:	8b 5d 08             	mov    0x8(%ebp),%ebx
    988c:	53                   	push   %ebx
    988d:	e8 3e 37 00 00       	call   cfd0 <str_to_awstr@plt>
    9892:	83 c4 10             	add    $0x10,%esp
    9895:	85 c0                	test   %eax,%eax
    9897:	0f 84 a0 02 00 00    	je     9b3d <print_wrapped+0x2bd>
    989d:	89 c1                	mov    %eax,%ecx
    989f:	8b 00                	mov    (%eax),%eax
    98a1:	85 c0                	test   %eax,%eax
    98a3:	0f 84 e9 00 00 00    	je     9992 <print_wrapped+0x112>
    98a9:	8b 75 0c             	mov    0xc(%ebp),%esi
    98ac:	31 d2                	xor    %edx,%edx
    98ae:	c1 e6 02             	shl    $0x2,%esi
    98b1:	31 ff                	xor    %edi,%edi
    98b3:	89 75 d8             	mov    %esi,-0x28(%ebp)
    98b6:	c7 45 e4 00 00 00 00 	movl   $0x0,-0x1c(%ebp)
    98bd:	89 ce                	mov    %ecx,%esi
    98bf:	89 55 e0             	mov    %edx,-0x20(%ebp)
    98c2:	8d b6 00 00 00 00    	lea    0x0(%esi),%esi
    98c8:	83 f8 20             	cmp    $0x20,%eax
    98cb:	74 09                	je     98d6 <print_wrapped+0x56>
    98cd:	83 f8 0a             	cmp    $0xa,%eax
    98d0:	0f 85 1d 02 00 00    	jne    9af3 <print_wrapped+0x273>
    98d6:	8d 5f 01             	lea    0x1(%edi),%ebx
    98d9:	8d b4 26 00 00 00 00 	lea    0x0(%esi,%eiz,1),%esi
    98e0:	83 f8 0a             	cmp    $0xa,%eax
    98e3:	0f 84 bf 00 00 00    	je     99a8 <print_wrapped+0x128>
    98e9:	8d 14 9e             	lea    (%esi,%ebx,4),%edx
    98ec:	89 d9                	mov    %ebx,%ecx
    98ee:	43                   	inc    %ebx
    98ef:	8b 02                	mov    (%edx),%eax
    98f1:	83 f8 0a             	cmp    $0xa,%eax
    98f4:	74 ea                	je     98e0 <print_wrapped+0x60>
    98f6:	83 f8 20             	cmp    $0x20,%eax
    98f9:	74 e5                	je     98e0 <print_wrapped+0x60>
    98fb:	a9 df ff ff ff       	test   $0xffffffdf,%eax
    9900:	0f 84 d1 01 00 00    	je     9ad7 <print_wrapped+0x257>
    9906:	83 f8 0a             	cmp    $0xa,%eax
    9909:	0f 84 f6 01 00 00    	je     9b05 <print_wrapped+0x285>
    990f:	89 cf                	mov    %ecx,%edi
    9911:	eb 0e                	jmp    9921 <print_wrapped+0xa1>
    9913:	90                   	nop
    9914:	8d 74 26 00          	lea    0x0(%esi,%eiz,1),%esi
    9918:	83 f8 0a             	cmp    $0xa,%eax
    991b:	0f 84 3f 01 00 00    	je     9a60 <print_wrapped+0x1e0>
    9921:	47                   	inc    %edi
    9922:	8b 04 be             	mov    (%esi,%edi,4),%eax
    9925:	a9 df ff ff ff       	test   $0xffffffdf,%eax
    992a:	75 ec                	jne    9918 <print_wrapped+0x98>
    992c:	85 c0                	test   %eax,%eax
    992e:	0f 94 45 df          	sete   -0x21(%ebp)
    9932:	8b 5d e4             	mov    -0x1c(%ebp),%ebx
    9935:	89 f8                	mov    %edi,%eax
    9937:	29 d8                	sub    %ebx,%eax
    9939:	89 fb                	mov    %edi,%ebx
    993b:	29 cb                	sub    %ecx,%ebx
    993d:	39 45 0c             	cmp    %eax,0xc(%ebp)
    9940:	0f 82 ba 00 00 00    	jb     9a00 <print_wrapped+0x180>
    9946:	89 45 e0             	mov    %eax,-0x20(%ebp)
    9949:	39 5d 0c             	cmp    %ebx,0xc(%ebp)
    994c:	0f 82 c6 00 00 00    	jb     9a18 <print_wrapped+0x198>
    9952:	8b 04 be             	mov    (%esi,%edi,4),%eax
    9955:	85 c0                	test   %eax,%eax
    9957:	0f 85 6b ff ff ff    	jne    98c8 <print_wrapped+0x48>
    995d:	8b 45 e4             	mov    -0x1c(%ebp),%eax
    9960:	89 f1                	mov    %esi,%ecx
    9962:	8b 55 e0             	mov    -0x20(%ebp),%edx
    9965:	39 c7                	cmp    %eax,%edi
    9967:	74 29                	je     9992 <print_wrapped+0x112>
    9969:	8d 04 86             	lea    (%esi,%eax,4),%eax
    996c:	8b 4d 0c             	mov    0xc(%ebp),%ecx
    996f:	89 75 e4             	mov    %esi,-0x1c(%ebp)
    9972:	8d 1c 90             	lea    (%eax,%edx,4),%ebx
    9975:	8b 55 10             	mov    0x10(%ebp),%edx
    9978:	8b 33                	mov    (%ebx),%esi
    997a:	c7 03 00 00 00 00    	movl   $0x0,(%ebx)
    9980:	52                   	push   %edx
    9981:	6a 01                	push   $0x1
    9983:	51                   	push   %ecx
    9984:	50                   	push   %eax
    9985:	e8 06 fc ff ff       	call   9590 <print_aligned_w>
    998a:	89 33                	mov    %esi,(%ebx)
    998c:	83 c4 10             	add    $0x10,%esp
    998f:	8b 4d e4             	mov    -0x1c(%ebp),%ecx
    9992:	83 ec 0c             	sub    $0xc,%esp
    9995:	51                   	push   %ecx
    9996:	e8 75 3b 00 00       	call   d510 <free@plt>
    999b:	83 c4 10             	add    $0x10,%esp
    999e:	31 c0                	xor    %eax,%eax
    99a0:	8d 65 f4             	lea    -0xc(%ebp),%esp
    99a3:	5b                   	pop    %ebx
    99a4:	5e                   	pop    %esi
    99a5:	5f                   	pop    %edi
    99a6:	5d                   	pop    %ebp
    99a7:	c3                   	ret    
    99a8:	8b 45 e4             	mov    -0x1c(%ebp),%eax
    99ab:	8b 4d e0             	mov    -0x20(%ebp),%ecx
    99ae:	8d 04 86             	lea    (%esi,%eax,4),%eax
    99b1:	8d 3c 88             	lea    (%eax,%ecx,4),%edi
    99b4:	8b 4d 0c             	mov    0xc(%ebp),%ecx
    99b7:	8b 17                	mov    (%edi),%edx
    99b9:	c7 07 00 00 00 00    	movl   $0x0,(%edi)
    99bf:	89 55 e4             	mov    %edx,-0x1c(%ebp)
    99c2:	8b 55 10             	mov    0x10(%ebp),%edx
    99c5:	52                   	push   %edx
    99c6:	6a 01                	push   $0x1
    99c8:	51                   	push   %ecx
    99c9:	50                   	push   %eax
    99ca:	e8 c1 fb ff ff       	call   9590 <print_aligned_w>
    99cf:	8b 55 e4             	mov    -0x1c(%ebp),%edx
    99d2:	89 17                	mov    %edx,(%edi)
    99d4:	8d 14 9e             	lea    (%esi,%ebx,4),%edx
    99d7:	83 c4 10             	add    $0x10,%esp
    99da:	8d 4b 01             	lea    0x1(%ebx),%ecx
    99dd:	8b 02                	mov    (%edx),%eax
    99df:	83 f8 20             	cmp    $0x20,%eax
    99e2:	74 09                	je     99ed <print_wrapped+0x16d>
    99e4:	83 f8 0a             	cmp    $0xa,%eax
    99e7:	0f 85 d3 00 00 00    	jne    9ac0 <print_wrapped+0x240>
    99ed:	89 5d e4             	mov    %ebx,-0x1c(%ebp)
    99f0:	c7 45 e0 00 00 00 00 	movl   $0x0,-0x20(%ebp)
    99f7:	89 cb                	mov    %ecx,%ebx
    99f9:	e9 e2 fe ff ff       	jmp    98e0 <print_wrapped+0x60>
    99fe:	66 90                	xchg   %ax,%ax
    9a00:	8b 45 e4             	mov    -0x1c(%ebp),%eax
    9a03:	89 4d e4             	mov    %ecx,-0x1c(%ebp)
    9a06:	83 7d e0 00          	cmpl   $0x0,-0x20(%ebp)
    9a0a:	75 64                	jne    9a70 <print_wrapped+0x1f0>
    9a0c:	89 5d e0             	mov    %ebx,-0x20(%ebp)
    9a0f:	39 5d 0c             	cmp    %ebx,0xc(%ebp)
    9a12:	0f 83 3a ff ff ff    	jae    9952 <print_wrapped+0xd2>
    9a18:	8b 45 d8             	mov    -0x28(%ebp),%eax
    9a1b:	89 4d e4             	mov    %ecx,-0x1c(%ebp)
    9a1e:	8d 1c 02             	lea    (%edx,%eax,1),%ebx
    9a21:	8b 45 10             	mov    0x10(%ebp),%eax
    9a24:	8b 3b                	mov    (%ebx),%edi
    9a26:	c7 03 00 00 00 00    	movl   $0x0,(%ebx)
    9a2c:	50                   	push   %eax
    9a2d:	31 c0                	xor    %eax,%eax
    9a2f:	8a 45 df             	mov    -0x21(%ebp),%al
    9a32:	50                   	push   %eax
    9a33:	8b 45 0c             	mov    0xc(%ebp),%eax
    9a36:	50                   	push   %eax
    9a37:	52                   	push   %edx
    9a38:	e8 53 fb ff ff       	call   9590 <print_aligned_w>
    9a3d:	8b 4d e4             	mov    -0x1c(%ebp),%ecx
    9a40:	8b 45 0c             	mov    0xc(%ebp),%eax
    9a43:	89 3b                	mov    %edi,(%ebx)
    9a45:	01 c1                	add    %eax,%ecx
    9a47:	83 c4 10             	add    $0x10,%esp
    9a4a:	89 4d e4             	mov    %ecx,-0x1c(%ebp)
    9a4d:	89 cf                	mov    %ecx,%edi
    9a4f:	8b 04 8e             	mov    (%esi,%ecx,4),%eax
    9a52:	c7 45 e0 00 00 00 00 	movl   $0x0,-0x20(%ebp)
    9a59:	e9 f7 fe ff ff       	jmp    9955 <print_wrapped+0xd5>
    9a5e:	66 90                	xchg   %ax,%ax
    9a60:	c6 45 df 00          	movb   $0x0,-0x21(%ebp)
    9a64:	e9 c9 fe ff ff       	jmp    9932 <print_wrapped+0xb2>
    9a69:	8d b4 26 00 00 00 00 	lea    0x0(%esi,%eiz,1),%esi
    9a70:	8d 04 86             	lea    (%esi,%eax,4),%eax
    9a73:	89 4d d0             	mov    %ecx,-0x30(%ebp)
    9a76:	8b 4d e0             	mov    -0x20(%ebp),%ecx
    9a79:	89 55 cc             	mov    %edx,-0x34(%ebp)
    9a7c:	8d 0c 88             	lea    (%eax,%ecx,4),%ecx
    9a7f:	89 4d e0             	mov    %ecx,-0x20(%ebp)
    9a82:	8b 11                	mov    (%ecx),%edx
    9a84:	c7 01 00 00 00 00    	movl   $0x0,(%ecx)
    9a8a:	89 55 d4             	mov    %edx,-0x2c(%ebp)
    9a8d:	8b 55 10             	mov    0x10(%ebp),%edx
    9a90:	52                   	push   %edx
    9a91:	8a 55 df             	mov    -0x21(%ebp),%dl
    9a94:	81 e2 ff 00 00 00    	and    $0xff,%edx
    9a9a:	8b 4d 0c             	mov    0xc(%ebp),%ecx
    9a9d:	52                   	push   %edx
    9a9e:	51                   	push   %ecx
    9a9f:	50                   	push   %eax
    9aa0:	e8 eb fa ff ff       	call   9590 <print_aligned_w>
    9aa5:	8b 4d e0             	mov    -0x20(%ebp),%ecx
    9aa8:	8b 55 d4             	mov    -0x2c(%ebp),%edx
    9aab:	83 c4 10             	add    $0x10,%esp
    9aae:	89 5d e0             	mov    %ebx,-0x20(%ebp)
    9ab1:	89 11                	mov    %edx,(%ecx)
    9ab3:	8b 4d d0             	mov    -0x30(%ebp),%ecx
    9ab6:	8b 55 cc             	mov    -0x34(%ebp),%edx
    9ab9:	e9 8b fe ff ff       	jmp    9949 <print_wrapped+0xc9>
    9abe:	66 90                	xchg   %ax,%ax
    9ac0:	89 d9                	mov    %ebx,%ecx
    9ac2:	89 5d e4             	mov    %ebx,-0x1c(%ebp)
    9ac5:	c7 45 e0 00 00 00 00 	movl   $0x0,-0x20(%ebp)
    9acc:	a9 df ff ff ff       	test   $0xffffffdf,%eax
    9ad1:	0f 85 2f fe ff ff    	jne    9906 <print_wrapped+0x86>
    9ad7:	89 cb                	mov    %ecx,%ebx
    9ad9:	8b 7d e4             	mov    -0x1c(%ebp),%edi
    9adc:	85 c0                	test   %eax,%eax
    9ade:	0f 94 45 df          	sete   -0x21(%ebp)
    9ae2:	29 fb                	sub    %edi,%ebx
    9ae4:	39 5d 0c             	cmp    %ebx,0xc(%ebp)
    9ae7:	72 32                	jb     9b1b <print_wrapped+0x29b>
    9ae9:	89 5d e0             	mov    %ebx,-0x20(%ebp)
    9aec:	89 cf                	mov    %ecx,%edi
    9aee:	e9 62 fe ff ff       	jmp    9955 <print_wrapped+0xd5>
    9af3:	8d 14 be             	lea    (%esi,%edi,4),%edx
    9af6:	89 f9                	mov    %edi,%ecx
    9af8:	a9 df ff ff ff       	test   $0xffffffdf,%eax
    9afd:	0f 85 0c fe ff ff    	jne    990f <print_wrapped+0x8f>
    9b03:	eb d2                	jmp    9ad7 <print_wrapped+0x257>
    9b05:	89 cb                	mov    %ecx,%ebx
    9b07:	8b 7d e4             	mov    -0x1c(%ebp),%edi
    9b0a:	29 fb                	sub    %edi,%ebx
    9b0c:	39 5d 0c             	cmp    %ebx,0xc(%ebp)
    9b0f:	72 19                	jb     9b2a <print_wrapped+0x2aa>
    9b11:	89 cf                	mov    %ecx,%edi
    9b13:	89 5d e0             	mov    %ebx,-0x20(%ebp)
    9b16:	e9 ad fd ff ff       	jmp    98c8 <print_wrapped+0x48>
    9b1b:	8b 45 e4             	mov    -0x1c(%ebp),%eax
    9b1e:	89 cf                	mov    %ecx,%edi
    9b20:	89 4d e4             	mov    %ecx,-0x1c(%ebp)
    9b23:	31 db                	xor    %ebx,%ebx
    9b25:	e9 dc fe ff ff       	jmp    9a06 <print_wrapped+0x186>
    9b2a:	8b 45 e4             	mov    -0x1c(%ebp),%eax
    9b2d:	89 cf                	mov    %ecx,%edi
    9b2f:	89 4d e4             	mov    %ecx,-0x1c(%ebp)
    9b32:	31 db                	xor    %ebx,%ebx
    9b34:	c6 45 df 00          	movb   $0x0,-0x21(%ebp)
    9b38:	e9 c9 fe ff ff       	jmp    9a06 <print_wrapped+0x186>
    9b3d:	b8 fe ff ff ff       	mov    $0xfffffffe,%eax
    9b42:	e9 59 fe ff ff       	jmp    99a0 <print_wrapped+0x120>
    9b47:	89 f6                	mov    %esi,%esi
    9b49:	8d bc 27 00 00 00 00 	lea    0x0(%edi,%eiz,1),%edi

00009b50 <print_wrapped_console>:
    9b50:	55                   	push   %ebp
    9b51:	89 e5                	mov    %esp,%ebp
    9b53:	53                   	push   %ebx
    9b54:	83 ec 1c             	sub    $0x1c,%esp
    9b57:	a1 40 f8 00 00       	mov    0xf840,%eax
    9b5c:	8b 15 50 f8 00 00    	mov    0xf850,%edx
    9b62:	50                   	push   %eax
    9b63:	52                   	push   %edx
    9b64:	e8 57 36 00 00       	call   d1c0 <console_init@plt>
    9b69:	83 c4 10             	add    $0x10,%esp
    9b6c:	85 c0                	test   %eax,%eax
    9b6e:	74 70                	je     9be0 <print_wrapped_console+0x90>
    9b70:	89 c3                	mov    %eax,%ebx
    9b72:	50                   	push   %eax
    9b73:	8d 45 e8             	lea    -0x18(%ebp),%eax
    9b76:	50                   	push   %eax
    9b77:	8d 45 ec             	lea    -0x14(%ebp),%eax
    9b7a:	50                   	push   %eax
    9b7b:	53                   	push   %ebx
    9b7c:	e8 1f 34 00 00       	call   cfa0 <console_get_size@plt>
    9b81:	83 c4 10             	add    $0x10,%esp
    9b84:	85 c0                	test   %eax,%eax
    9b86:	74 08                	je     9b90 <print_wrapped_console+0x40>
    9b88:	8b 5d fc             	mov    -0x4(%ebp),%ebx
    9b8b:	c9                   	leave  
    9b8c:	c3                   	ret    
    9b8d:	8d 76 00             	lea    0x0(%esi),%esi
    9b90:	50                   	push   %eax
    9b91:	8d 45 f4             	lea    -0xc(%ebp),%eax
    9b94:	50                   	push   %eax
    9b95:	8d 45 f0             	lea    -0x10(%ebp),%eax
    9b98:	50                   	push   %eax
    9b99:	53                   	push   %ebx
    9b9a:	e8 c1 34 00 00       	call   d060 <console_get_pos@plt>
    9b9f:	83 c4 10             	add    $0x10,%esp
    9ba2:	85 c0                	test   %eax,%eax
    9ba4:	75 e2                	jne    9b88 <print_wrapped_console+0x38>
    9ba6:	8b 45 f0             	mov    -0x10(%ebp),%eax
    9ba9:	85 c0                	test   %eax,%eax
    9bab:	75 1b                	jne    9bc8 <print_wrapped_console+0x78>
    9bad:	8b 5d 08             	mov    0x8(%ebp),%ebx
    9bb0:	8b 55 0c             	mov    0xc(%ebp),%edx
    9bb3:	8b 4d ec             	mov    -0x14(%ebp),%ecx
    9bb6:	50                   	push   %eax
    9bb7:	52                   	push   %edx
    9bb8:	51                   	push   %ecx
    9bb9:	53                   	push   %ebx
    9bba:	e8 c1 fc ff ff       	call   9880 <print_wrapped>
    9bbf:	83 c4 10             	add    $0x10,%esp
    9bc2:	8b 5d fc             	mov    -0x4(%ebp),%ebx
    9bc5:	c9                   	leave  
    9bc6:	c3                   	ret    
    9bc7:	90                   	nop
    9bc8:	83 ec 0c             	sub    $0xc,%esp
    9bcb:	68 1b c8 00 00       	push   $0xc81b
    9bd0:	e8 1b 34 00 00       	call   cff0 <printf@plt>
    9bd5:	83 c4 10             	add    $0x10,%esp
    9bd8:	eb d3                	jmp    9bad <print_wrapped_console+0x5d>
    9bda:	8d b6 00 00 00 00    	lea    0x0(%esi),%esi
    9be0:	50                   	push   %eax
    9be1:	50                   	push   %eax
    9be2:	8b 45 08             	mov    0x8(%ebp),%eax
    9be5:	50                   	push   %eax
    9be6:	68 52 ad 00 00       	push   $0xad52
    9beb:	e8 00 34 00 00       	call   cff0 <printf@plt>
    9bf0:	83 c4 10             	add    $0x10,%esp
    9bf3:	31 c0                	xor    %eax,%eax
    9bf5:	8b 5d fc             	mov    -0x4(%ebp),%ebx
    9bf8:	c9                   	leave  
    9bf9:	c3                   	ret    
    9bfa:	8d b6 00 00 00 00    	lea    0x0(%esi),%esi

00009c00 <print_aligned>:
    9c00:	55                   	push   %ebp
    9c01:	89 e5                	mov    %esp,%ebp
    9c03:	56                   	push   %esi
    9c04:	53                   	push   %ebx
    9c05:	83 ec 1c             	sub    $0x1c,%esp
    9c08:	8b 4d 08             	mov    0x8(%ebp),%ecx
    9c0b:	8b 75 10             	mov    0x10(%ebp),%esi
    9c0e:	51                   	push   %ecx
    9c0f:	e8 bc 33 00 00       	call   cfd0 <str_to_awstr@plt>
    9c14:	83 c4 10             	add    $0x10,%esp
    9c17:	85 c0                	test   %eax,%eax
    9c19:	74 35                	je     9c50 <print_aligned+0x50>
    9c1b:	89 c3                	mov    %eax,%ebx
    9c1d:	8b 55 0c             	mov    0xc(%ebp),%edx
    9c20:	8b 45 14             	mov    0x14(%ebp),%eax
    9c23:	81 e6 ff 00 00 00    	and    $0xff,%esi
    9c29:	50                   	push   %eax
    9c2a:	56                   	push   %esi
    9c2b:	52                   	push   %edx
    9c2c:	53                   	push   %ebx
    9c2d:	e8 5e f9 ff ff       	call   9590 <print_aligned_w>
    9c32:	89 1c 24             	mov    %ebx,(%esp)
    9c35:	89 45 f4             	mov    %eax,-0xc(%ebp)
    9c38:	e8 d3 38 00 00       	call   d510 <free@plt>
    9c3d:	83 c4 10             	add    $0x10,%esp
    9c40:	8b 45 f4             	mov    -0xc(%ebp),%eax
    9c43:	8d 65 f8             	lea    -0x8(%ebp),%esp
    9c46:	5b                   	pop    %ebx
    9c47:	5e                   	pop    %esi
    9c48:	5d                   	pop    %ebp
    9c49:	c3                   	ret    
    9c4a:	8d b6 00 00 00 00    	lea    0x0(%esi),%esi
    9c50:	b8 fe ff ff ff       	mov    $0xfffffffe,%eax
    9c55:	eb ec                	jmp    9c43 <print_aligned+0x43>
    9c57:	89 f6                	mov    %esi,%esi
    9c59:	8d bc 27 00 00 00 00 	lea    0x0(%edi,%eiz,1),%edi

00009c60 <wrap>:
    9c60:	55                   	push   %ebp
    9c61:	89 e5                	mov    %esp,%ebp
    9c63:	57                   	push   %edi
    9c64:	56                   	push   %esi
    9c65:	53                   	push   %ebx
    9c66:	83 ec 1c             	sub    $0x1c,%esp
    9c69:	8b 4d 08             	mov    0x8(%ebp),%ecx
    9c6c:	8b 01                	mov    (%ecx),%eax
    9c6e:	85 c0                	test   %eax,%eax
    9c70:	0f 84 bc 00 00 00    	je     9d32 <wrap+0xd2>
    9c76:	31 d2                	xor    %edx,%edx
    9c78:	89 ce                	mov    %ecx,%esi
    9c7a:	31 db                	xor    %ebx,%ebx
    9c7c:	c7 45 e4 00 00 00 00 	movl   $0x0,-0x1c(%ebp)
    9c83:	89 d1                	mov    %edx,%ecx
    9c85:	8d 76 00             	lea    0x0(%esi),%esi
    9c88:	83 f8 20             	cmp    $0x20,%eax
    9c8b:	74 09                	je     9c96 <wrap+0x36>
    9c8d:	83 f8 0a             	cmp    $0xa,%eax
    9c90:	0f 85 a6 00 00 00    	jne    9d3c <wrap+0xdc>
    9c96:	43                   	inc    %ebx
    9c97:	90                   	nop
    9c98:	83 f8 0a             	cmp    $0xa,%eax
    9c9b:	0f 84 37 01 00 00    	je     9dd8 <wrap+0x178>
    9ca1:	8d 3c 9e             	lea    (%esi,%ebx,4),%edi
    9ca4:	89 da                	mov    %ebx,%edx
    9ca6:	43                   	inc    %ebx
    9ca7:	8b 07                	mov    (%edi),%eax
    9ca9:	83 f8 0a             	cmp    $0xa,%eax
    9cac:	74 ea                	je     9c98 <wrap+0x38>
    9cae:	83 f8 20             	cmp    $0x20,%eax
    9cb1:	74 e5                	je     9c98 <wrap+0x38>
    9cb3:	a9 df ff ff ff       	test   $0xffffffdf,%eax
    9cb8:	0f 84 8e 00 00 00    	je     9d4c <wrap+0xec>
    9cbe:	83 f8 0a             	cmp    $0xa,%eax
    9cc1:	0f 84 85 01 00 00    	je     9e4c <wrap+0x1ec>
    9cc7:	89 d3                	mov    %edx,%ebx
    9cc9:	eb 0e                	jmp    9cd9 <wrap+0x79>
    9ccb:	90                   	nop
    9ccc:	8d 74 26 00          	lea    0x0(%esi,%eiz,1),%esi
    9cd0:	83 f8 0a             	cmp    $0xa,%eax
    9cd3:	0f 84 57 01 00 00    	je     9e30 <wrap+0x1d0>
    9cd9:	43                   	inc    %ebx
    9cda:	8b 04 9e             	mov    (%esi,%ebx,4),%eax
    9cdd:	a9 df ff ff ff       	test   $0xffffffdf,%eax
    9ce2:	75 ec                	jne    9cd0 <wrap+0x70>
    9ce4:	85 c0                	test   %eax,%eax
    9ce6:	0f 94 45 df          	sete   -0x21(%ebp)
    9cea:	89 d8                	mov    %ebx,%eax
    9cec:	2b 45 e4             	sub    -0x1c(%ebp),%eax
    9cef:	3b 45 0c             	cmp    0xc(%ebp),%eax
    9cf2:	0f 87 18 01 00 00    	ja     9e10 <wrap+0x1b0>
    9cf8:	89 d9                	mov    %ebx,%ecx
    9cfa:	29 d1                	sub    %edx,%ecx
    9cfc:	89 4d e0             	mov    %ecx,-0x20(%ebp)
    9cff:	89 c1                	mov    %eax,%ecx
    9d01:	8b 45 e0             	mov    -0x20(%ebp),%eax
    9d04:	39 45 0c             	cmp    %eax,0xc(%ebp)
    9d07:	0f 82 9b 00 00 00    	jb     9da8 <wrap+0x148>
    9d0d:	8b 04 9e             	mov    (%esi,%ebx,4),%eax
    9d10:	85 c0                	test   %eax,%eax
    9d12:	0f 85 70 ff ff ff    	jne    9c88 <wrap+0x28>
    9d18:	8b 45 e4             	mov    -0x1c(%ebp),%eax
    9d1b:	89 ca                	mov    %ecx,%edx
    9d1d:	39 d8                	cmp    %ebx,%eax
    9d1f:	74 11                	je     9d32 <wrap+0xd2>
    9d21:	8b 5d 14             	mov    0x14(%ebp),%ebx
    9d24:	8d 04 86             	lea    (%esi,%eax,4),%eax
    9d27:	53                   	push   %ebx
    9d28:	6a 01                	push   $0x1
    9d2a:	52                   	push   %edx
    9d2b:	50                   	push   %eax
    9d2c:	ff 55 10             	call   *0x10(%ebp)
    9d2f:	83 c4 10             	add    $0x10,%esp
    9d32:	8d 65 f4             	lea    -0xc(%ebp),%esp
    9d35:	31 c0                	xor    %eax,%eax
    9d37:	5b                   	pop    %ebx
    9d38:	5e                   	pop    %esi
    9d39:	5f                   	pop    %edi
    9d3a:	5d                   	pop    %ebp
    9d3b:	c3                   	ret    
    9d3c:	8d 3c 9e             	lea    (%esi,%ebx,4),%edi
    9d3f:	89 da                	mov    %ebx,%edx
    9d41:	a9 df ff ff ff       	test   $0xffffffdf,%eax
    9d46:	0f 85 7b ff ff ff    	jne    9cc7 <wrap+0x67>
    9d4c:	89 d3                	mov    %edx,%ebx
    9d4e:	85 c0                	test   %eax,%eax
    9d50:	0f 94 45 df          	sete   -0x21(%ebp)
    9d54:	2b 5d e4             	sub    -0x1c(%ebp),%ebx
    9d57:	39 5d 0c             	cmp    %ebx,0xc(%ebp)
    9d5a:	0f 83 02 01 00 00    	jae    9e62 <wrap+0x202>
    9d60:	8b 45 e4             	mov    -0x1c(%ebp),%eax
    9d63:	89 d3                	mov    %edx,%ebx
    9d65:	89 55 e4             	mov    %edx,-0x1c(%ebp)
    9d68:	85 c9                	test   %ecx,%ecx
    9d6a:	74 a1                	je     9d0d <wrap+0xad>
    9d6c:	89 45 e4             	mov    %eax,-0x1c(%ebp)
    9d6f:	c7 45 e0 00 00 00 00 	movl   $0x0,-0x20(%ebp)
    9d76:	66 90                	xchg   %ax,%ax
    9d78:	8b 45 14             	mov    0x14(%ebp),%eax
    9d7b:	89 55 d8             	mov    %edx,-0x28(%ebp)
    9d7e:	50                   	push   %eax
    9d7f:	31 c0                	xor    %eax,%eax
    9d81:	8a 45 df             	mov    -0x21(%ebp),%al
    9d84:	50                   	push   %eax
    9d85:	8b 45 e4             	mov    -0x1c(%ebp),%eax
    9d88:	51                   	push   %ecx
    9d89:	8d 04 86             	lea    (%esi,%eax,4),%eax
    9d8c:	50                   	push   %eax
    9d8d:	ff 55 10             	call   *0x10(%ebp)
    9d90:	8b 4d e0             	mov    -0x20(%ebp),%ecx
    9d93:	8b 55 d8             	mov    -0x28(%ebp),%edx
    9d96:	89 c8                	mov    %ecx,%eax
    9d98:	83 c4 10             	add    $0x10,%esp
    9d9b:	89 55 e4             	mov    %edx,-0x1c(%ebp)
    9d9e:	39 45 0c             	cmp    %eax,0xc(%ebp)
    9da1:	0f 83 66 ff ff ff    	jae    9d0d <wrap+0xad>
    9da7:	90                   	nop
    9da8:	8b 45 14             	mov    0x14(%ebp),%eax
    9dab:	89 55 e4             	mov    %edx,-0x1c(%ebp)
    9dae:	50                   	push   %eax
    9daf:	31 c0                	xor    %eax,%eax
    9db1:	8a 45 df             	mov    -0x21(%ebp),%al
    9db4:	50                   	push   %eax
    9db5:	8b 45 0c             	mov    0xc(%ebp),%eax
    9db8:	50                   	push   %eax
    9db9:	57                   	push   %edi
    9dba:	ff 55 10             	call   *0x10(%ebp)
    9dbd:	8b 55 e4             	mov    -0x1c(%ebp),%edx
    9dc0:	8b 45 0c             	mov    0xc(%ebp),%eax
    9dc3:	83 c4 10             	add    $0x10,%esp
    9dc6:	01 c2                	add    %eax,%edx
    9dc8:	31 c9                	xor    %ecx,%ecx
    9dca:	89 55 e4             	mov    %edx,-0x1c(%ebp)
    9dcd:	89 d3                	mov    %edx,%ebx
    9dcf:	8b 04 96             	mov    (%esi,%edx,4),%eax
    9dd2:	e9 39 ff ff ff       	jmp    9d10 <wrap+0xb0>
    9dd7:	90                   	nop
    9dd8:	8b 45 14             	mov    0x14(%ebp),%eax
    9ddb:	8d 3c 9e             	lea    (%esi,%ebx,4),%edi
    9dde:	50                   	push   %eax
    9ddf:	8b 45 e4             	mov    -0x1c(%ebp),%eax
    9de2:	6a 01                	push   $0x1
    9de4:	51                   	push   %ecx
    9de5:	8d 04 86             	lea    (%esi,%eax,4),%eax
    9de8:	50                   	push   %eax
    9de9:	ff 55 10             	call   *0x10(%ebp)
    9dec:	8b 07                	mov    (%edi),%eax
    9dee:	83 c4 10             	add    $0x10,%esp
    9df1:	8d 53 01             	lea    0x1(%ebx),%edx
    9df4:	83 f8 20             	cmp    $0x20,%eax
    9df7:	74 05                	je     9dfe <wrap+0x19e>
    9df9:	83 f8 0a             	cmp    $0xa,%eax
    9dfc:	75 42                	jne    9e40 <wrap+0x1e0>
    9dfe:	89 5d e4             	mov    %ebx,-0x1c(%ebp)
    9e01:	31 c9                	xor    %ecx,%ecx
    9e03:	89 d3                	mov    %edx,%ebx
    9e05:	e9 8e fe ff ff       	jmp    9c98 <wrap+0x38>
    9e0a:	8d b6 00 00 00 00    	lea    0x0(%esi),%esi
    9e10:	89 d8                	mov    %ebx,%eax
    9e12:	29 d0                	sub    %edx,%eax
    9e14:	85 c9                	test   %ecx,%ecx
    9e16:	89 45 e0             	mov    %eax,-0x20(%ebp)
    9e19:	0f 85 59 ff ff ff    	jne    9d78 <wrap+0x118>
    9e1f:	89 c1                	mov    %eax,%ecx
    9e21:	89 55 e4             	mov    %edx,-0x1c(%ebp)
    9e24:	e9 db fe ff ff       	jmp    9d04 <wrap+0xa4>
    9e29:	8d b4 26 00 00 00 00 	lea    0x0(%esi,%eiz,1),%esi
    9e30:	c6 45 df 00          	movb   $0x0,-0x21(%ebp)
    9e34:	e9 b1 fe ff ff       	jmp    9cea <wrap+0x8a>
    9e39:	8d b4 26 00 00 00 00 	lea    0x0(%esi,%eiz,1),%esi
    9e40:	89 da                	mov    %ebx,%edx
    9e42:	89 5d e4             	mov    %ebx,-0x1c(%ebp)
    9e45:	31 c9                	xor    %ecx,%ecx
    9e47:	e9 67 fe ff ff       	jmp    9cb3 <wrap+0x53>
    9e4c:	89 d3                	mov    %edx,%ebx
    9e4e:	2b 5d e4             	sub    -0x1c(%ebp),%ebx
    9e51:	89 5d e0             	mov    %ebx,-0x20(%ebp)
    9e54:	39 5d 0c             	cmp    %ebx,0xc(%ebp)
    9e57:	72 12                	jb     9e6b <wrap+0x20b>
    9e59:	89 d9                	mov    %ebx,%ecx
    9e5b:	89 d3                	mov    %edx,%ebx
    9e5d:	e9 26 fe ff ff       	jmp    9c88 <wrap+0x28>
    9e62:	89 d9                	mov    %ebx,%ecx
    9e64:	89 d3                	mov    %edx,%ebx
    9e66:	e9 a5 fe ff ff       	jmp    9d10 <wrap+0xb0>
    9e6b:	8b 45 e4             	mov    -0x1c(%ebp),%eax
    9e6e:	89 d3                	mov    %edx,%ebx
    9e70:	89 55 e4             	mov    %edx,-0x1c(%ebp)
    9e73:	c6 45 df 00          	movb   $0x0,-0x21(%ebp)
    9e77:	e9 ec fe ff ff       	jmp    9d68 <wrap+0x108>
    9e7c:	68 65 6c 70 00       	push   $0x706c65
    9e81:	65 78 74             	gs js  9ef8 <wrap+0x298>
    9e84:	65 6e                	outsb  %gs:(%esi),(%dx)
    9e86:	64 65 64 00 20       	fs gs add %ah,%fs:(%eax)
    9e8b:	20 20                	and    %ah,(%eax)
    9e8d:	25 2d 31 36 73       	and    $0x7336312d,%eax
    9e92:	09 41 6c             	or     %eax,0x6c(%ecx)
    9e95:	69 61 73 20 66 6f 72 	imul   $0x726f6620,0x73(%ecx),%esp
    9e9c:	20 60 25             	and    %ah,0x25(%eax)
    9e9f:	73 27                	jae    9ec8 <wrap+0x268>
    9ea1:	0a 00                	or     (%eax),%al
    9ea3:	20 20                	and    %ah,(%eax)
    9ea5:	20 25 2d 31 36 73    	and    %ah,0x7336312d
    9eab:	09 25 73 0a 00 49    	or     %esp,0x49000a73
    9eb1:	6e                   	outsb  %ds:(%esi),(%dx)
    9eb2:	76 61                	jbe    9f15 <wrap+0x2b5>
    9eb4:	6c                   	insb   (%dx),%es:(%edi)
    9eb5:	69 64 20 74 6f 70 69 	imul   $0x6369706f,0x74(%eax,%eiz,1),%esp
    9ebc:	63 
    9ebd:	20 25 73 0a 00 0a    	and    %ah,0xa000a73
    9ec3:	20 20                	and    %ah,(%eax)
    9ec5:	42                   	inc    %edx
    9ec6:	64 73 68             	fs jae 9f31 <wrap+0x2d1>
    9ec9:	20 62 75             	and    %ah,0x75(%edx)
    9ecc:	69 6c 74 2d 69 6e 20 	imul   $0x63206e69,0x2d(%esp,%esi,2),%ebp
    9ed3:	63 
    9ed4:	6f                   	outsl  %ds:(%esi),(%dx)
    9ed5:	6d                   	insl   (%dx),%es:(%edi)
    9ed6:	6d                   	insl   (%dx),%es:(%edi)
    9ed7:	61                   	popa   
    9ed8:	6e                   	outsb  %ds:(%esi),(%dx)
    9ed9:	64 73 3a             	fs jae 9f16 <wrap+0x2b6>
    9edc:	0a 00                	or     (%eax),%al
    9ede:	62 61 74             	bound  %esp,0x74(%ecx)
    9ee1:	63 68 00             	arpl   %bp,0x0(%eax)
    9ee4:	49                   	dec    %ecx
    9ee5:	73 73                	jae    9f5a <wrap+0x2fa>
    9ee7:	75 65                	jne    9f4e <wrap+0x2ee>
    9ee9:	20 62 61             	and    %ah,0x61(%edx)
    9eec:	74 63                	je     9f51 <wrap+0x2f1>
    9eee:	68 20 6f 66 20       	push   $0x20666f20
    9ef3:	63 6f 6d             	arpl   %bp,0x6d(%edi)
    9ef6:	6d                   	insl   (%dx),%es:(%edi)
    9ef7:	61                   	popa   
    9ef8:	6e                   	outsb  %ds:(%esi),(%dx)
    9ef9:	64 73 00             	fs jae 9efc <wrap+0x29c>
    9efc:	63 64 00 65          	arpl   %sp,0x65(%eax,%eax,1)
    9f00:	78 69                	js     9f6b <wrap+0x30b>
    9f02:	74 00                	je     9f04 <wrap+0x2a4>
    9f04:	45                   	inc    %ebp
    9f05:	78 69                	js     9f70 <wrap+0x310>
    9f07:	74 20                	je     9f29 <wrap+0x2c9>
    9f09:	74 68                	je     9f73 <wrap+0x313>
    9f0b:	65 20 73 68          	and    %dh,%gs:0x68(%ebx)
    9f0f:	65 6c                	gs insb (%dx),%es:(%edi)
    9f11:	6c                   	insb   (%dx),%es:(%edi)
    9f12:	00 53 68             	add    %dl,0x68(%ebx)
    9f15:	6f                   	outsl  %ds:(%esi),(%dx)
    9f16:	77 20                	ja     9f38 <wrap+0x2d8>
    9f18:	68 65 6c 70 20       	push   $0x20706c65
    9f1d:	66 6f                	outsw  %ds:(%esi),(%dx)
    9f1f:	72 20                	jb     9f41 <wrap+0x2e1>
    9f21:	63 6f 6d             	arpl   %bp,0x6d(%edi)
    9f24:	6d                   	insl   (%dx),%es:(%edi)
    9f25:	61                   	popa   
    9f26:	6e                   	outsb  %ds:(%esi),(%dx)
    9f27:	64 73 00             	fs jae 9f2a <wrap+0x2ca>
    9f2a:	6d                   	insl   (%dx),%es:(%edi)
    9f2b:	6b 64 69 72 00       	imul   $0x0,0x72(%ecx,%ebp,2),%esp
    9f30:	43                   	inc    %ebx
    9f31:	72 65                	jb     9f98 <wrap+0x338>
    9f33:	61                   	popa   
    9f34:	74 65                	je     9f9b <wrap+0x33b>
    9f36:	20 6e 65             	and    %ch,0x65(%esi)
    9f39:	77 20                	ja     9f5b <wrap+0x2fb>
    9f3b:	64 69 72 65 63 74 6f 	imul   $0x726f7463,%fs:0x65(%edx),%esi
    9f42:	72 
    9f43:	69 65 73 00 6d 6b 66 	imul   $0x666b6d00,0x73(%ebp),%esp
    9f4a:	69 6c 65 00 43 72 65 	imul   $0x61657243,0x0(%ebp,%eiz,2),%ebp
    9f51:	61 
    9f52:	74 65                	je     9fb9 <wrap+0x359>
    9f54:	20 6e 65             	and    %ch,0x65(%esi)
    9f57:	77 20                	ja     9f79 <wrap+0x319>
    9f59:	66 69 6c 65 00 72 6d 	imul   $0x6d72,0x0(%ebp,%eiz,2),%bp
    9f60:	00 52 65             	add    %dl,0x65(%edx)
    9f63:	6d                   	insl   (%dx),%es:(%edi)
    9f64:	6f                   	outsl  %ds:(%esi),(%dx)
    9f65:	76 65                	jbe    9fcc <wrap+0x36c>
    9f67:	20 66 69             	and    %ah,0x69(%esi)
    9f6a:	6c                   	insb   (%dx),%es:(%edi)
    9f6b:	65 73 20             	gs jae 9f8e <wrap+0x32e>
    9f6e:	61                   	popa   
    9f6f:	6e                   	outsb  %ds:(%esi),(%dx)
    9f70:	64 20 64 69 72       	and    %ah,%fs:0x72(%ecx,%ebp,2)
    9f75:	65 63 74 6f 72       	arpl   %si,%gs:0x72(%edi,%ebp,2)
    9f7a:	69 65 73 00 63 61 74 	imul   $0x74616300,0x73(%ebp),%esp
    9f81:	00 53 68             	add    %dl,0x68(%ebx)
    9f84:	6f                   	outsl  %ds:(%esi),(%dx)
    9f85:	77 20                	ja     9fa7 <wrap+0x347>
    9f87:	74 68                	je     9ff1 <wrap+0x391>
    9f89:	65 20 63 6f          	and    %ah,%gs:0x6f(%ebx)
    9f8d:	6e                   	outsb  %ds:(%esi),(%dx)
    9f8e:	74 65                	je     9ff5 <wrap+0x395>
    9f90:	6e                   	outsb  %ds:(%esi),(%dx)
    9f91:	74 73                	je     a006 <wrap+0x3a6>
    9f93:	20 6f 66             	and    %ch,0x66(%edi)
    9f96:	20 61 20             	and    %ah,0x20(%ecx)
    9f99:	66 69 6c 65 00 74 6f 	imul   $0x6f74,0x0(%ebp,%eiz,2),%bp
    9fa0:	75 63                	jne    a005 <wrap+0x3a5>
    9fa2:	68 00 4c 69 73       	push   $0x73694c00
    9fa7:	74 20                	je     9fc9 <wrap+0x369>
    9fa9:	66 69 6c 65 73 20 61 	imul   $0x6120,0x73(%ebp,%eiz,2),%bp
    9fb0:	6e                   	outsb  %ds:(%esi),(%dx)
    9fb1:	64 20 64 69 72       	and    %ah,%fs:0x72(%ecx,%ebp,2)
    9fb6:	65 63 74 6f 72       	arpl   %si,%gs:0x72(%edi,%ebp,2)
    9fbb:	69 65 73 00 70 77 64 	imul   $0x64777000,0x73(%ebp),%esp
    9fc2:	00 73 6c             	add    %dh,0x6c(%ebx)
    9fc5:	65 65 70 00          	gs gs jo 9fc9 <wrap+0x369>
    9fc9:	63 70 00             	arpl   %si,0x0(%eax)
    9fcc:	43                   	inc    %ebx
    9fcd:	6f                   	outsl  %ds:(%esi),(%dx)
    9fce:	70 79                	jo     a049 <wrap+0x3e9>
    9fd0:	20 66 69             	and    %ah,0x69(%esi)
    9fd3:	6c                   	insb   (%dx),%es:(%edi)
    9fd4:	65 73 20             	gs jae 9ff7 <wrap+0x397>
    9fd7:	61                   	popa   
    9fd8:	6e                   	outsb  %ds:(%esi),(%dx)
    9fd9:	64 20 64 69 72       	and    %ah,%fs:0x72(%ecx,%ebp,2)
    9fde:	65 63 74 6f 72       	arpl   %si,%gs:0x72(%edi,%ebp,2)
    9fe3:	69 65 73 00 6d 76 00 	imul   $0x766d00,0x73(%ebp),%esp
    9fea:	54                   	push   %esp
    9feb:	68 65 20 6d 76       	push   $0x766d2065
    9ff0:	20 63 6f             	and    %ah,0x6f(%ebx)
    9ff3:	6d                   	insl   (%dx),%es:(%edi)
    9ff4:	6d                   	insl   (%dx),%es:(%edi)
    9ff5:	61                   	popa   
    9ff6:	6e                   	outsb  %ds:(%esi),(%dx)
    9ff7:	64 00 72 65          	add    %dh,%fs:0x65(%edx)
    9ffb:	6e                   	outsb  %ds:(%esi),(%dx)
    9ffc:	00 54 68 65          	add    %dl,0x65(%eax,%ebp,2)
    a000:	20 6d 6f             	and    %ch,0x6f(%ebp)
    a003:	75 6e                	jne    a073 <wrap+0x413>
    a005:	74 20                	je     a027 <wrap+0x3c7>
    a007:	63 6f 6d             	arpl   %bp,0x6d(%edi)
    a00a:	6d                   	insl   (%dx),%es:(%edi)
    a00b:	61                   	popa   
    a00c:	6e                   	outsb  %ds:(%esi),(%dx)
    a00d:	64 00 75 6e          	add    %dh,%fs:0x6e(%ebp)
    a011:	6d                   	insl   (%dx),%es:(%edi)
    a012:	6f                   	outsl  %ds:(%esi),(%dx)
    a013:	75 6e                	jne    a083 <wrap+0x423>
    a015:	74 00                	je     a017 <wrap+0x3b7>
    a017:	54                   	push   %esp
    a018:	68 65 20 75 6e       	push   $0x6e752065
    a01d:	6d                   	insl   (%dx),%es:(%edi)
    a01e:	6f                   	outsl  %ds:(%esi),(%dx)
    a01f:	75 6e                	jne    a08f <wrap+0x42f>
    a021:	74 20                	je     a043 <wrap+0x3e3>
    a023:	63 6f 6d             	arpl   %bp,0x6d(%edi)
    a026:	6d                   	insl   (%dx),%es:(%edi)
    a027:	61                   	popa   
    a028:	6e                   	outsb  %ds:(%esi),(%dx)
    a029:	64 00 75 6d          	add    %dh,%fs:0x6d(%ebp)
    a02d:	6f                   	outsl  %ds:(%esi),(%dx)
    a02e:	75 6e                	jne    a09e <wrap+0x43e>
    a030:	74 00                	je     a032 <wrap+0x3d2>
    a032:	6b 63 6f 6e          	imul   $0x6e,0x6f(%ebx),%esp
    a036:	00 53 77             	add    %dl,0x77(%ebx)
    a039:	69 74 63 68 20 74 6f 	imul   $0x206f7420,0x68(%ebx,%eiz,2),%esi
    a040:	20 
    a041:	6b 65 72 6e          	imul   $0x6e,0x72(%ebp),%esp
    a045:	65 6c                	gs insb (%dx),%es:(%edi)
    a047:	20 63 6f             	and    %ah,0x6f(%ebx)
    a04a:	6e                   	outsb  %ds:(%esi),(%dx)
    a04b:	73 6f                	jae    a0bc <wrap+0x45c>
    a04d:	6c                   	insb   (%dx),%es:(%edi)
    a04e:	65 00 70 72          	add    %dh,%gs:0x72(%eax)
    a052:	69 6e 74 66 00 46 6f 	imul   $0x6f460066,0x74(%esi),%ebp
    a059:	72 6d                	jb     a0c8 <wrap+0x468>
    a05b:	61                   	popa   
    a05c:	74 20                	je     a07e <wrap+0x41e>
    a05e:	61                   	popa   
    a05f:	6e                   	outsb  %ds:(%esi),(%dx)
    a060:	64 20 70 72          	and    %dh,%fs:0x72(%eax)
    a064:	69 6e 74 20 64 61 74 	imul   $0x74616420,0x74(%esi),%ebp
    a06b:	61                   	popa   
    a06c:	00 65 63             	add    %ah,0x63(%ebp)
    a06f:	68 6f 00 50 72       	push   $0x7250006f
    a074:	69 6e 74 73 20 61 72 	imul   $0x72612073,0x74(%esi),%ebp
    a07b:	67 75 6d             	addr16 jne a0eb <wrap+0x48b>
    a07e:	65 6e                	outsb  %gs:(%esi),(%dx)
    a080:	74 73                	je     a0f5 <wrap+0x495>
    a082:	20 61 73             	and    %ah,0x73(%ecx)
    a085:	20 74 68 65          	and    %dh,0x65(%eax,%ebp,2)
    a089:	79 20                	jns    a0ab <wrap+0x44b>
    a08b:	61                   	popa   
    a08c:	72 65                	jb     a0f3 <wrap+0x493>
    a08e:	00 63 6d             	add    %ah,0x6d(%ebx)
    a091:	70 00                	jo     a093 <wrap+0x433>
    a093:	90                   	nop
    a094:	0a 54 6f 6f          	or     0x6f(%edi,%ebp,2),%dl
    a098:	20 6d 61             	and    %ch,0x61(%ebp)
    a09b:	6e                   	outsb  %ds:(%esi),(%dx)
    a09c:	79 20                	jns    a0be <wrap+0x45e>
    a09e:	61                   	popa   
    a09f:	72 67                	jb     a108 <wrap+0x4a8>
    a0a1:	75 6d                	jne    a110 <wrap+0x4b0>
    a0a3:	65 6e                	outsb  %gs:(%esi),(%dx)
    a0a5:	74 73                	je     a11a <wrap+0x4ba>
    a0a7:	20 74 6f 20          	and    %dh,0x20(%edi,%ebp,2)
    a0ab:	60                   	pusha  
    a0ac:	25 73 27 2c 20       	and    $0x202c2773,%eax
    a0b1:	74 72                	je     a125 <wrap+0x4c5>
    a0b3:	79 3a                	jns    a0ef <wrap+0x48f>
    a0b5:	0a 00                	or     (%eax),%al
    a0b7:	00 0a                	add    %cl,(%edx)
    a0b9:	20 20                	and    %ah,(%eax)
    a0bb:	25 73 20 5b 63       	and    $0x635b2073,%eax
    a0c0:	6f                   	outsl  %ds:(%esi),(%dx)
    a0c1:	6d                   	insl   (%dx),%es:(%edi)
    a0c2:	6d                   	insl   (%dx),%es:(%edi)
    a0c3:	61                   	popa   
    a0c4:	6e                   	outsb  %ds:(%esi),(%dx)
    a0c5:	64 5d                	fs pop %ebp
    a0c7:	20 3c 65 78 74 65 6e 	and    %bh,0x6e657478(,%eiz,2)
    a0ce:	64 65 64 3e 0a 20    	fs gs fs or %ds:(%eax),%ah
    a0d4:	20 55 73             	and    %dl,0x73(%ebp)
    a0d7:	65 20 68 65          	and    %ch,%gs:0x65(%eax)
    a0db:	6c                   	insb   (%dx),%es:(%edi)
    a0dc:	70 20                	jo     a0fe <wrap+0x49e>
    a0de:	5b                   	pop    %ebx
    a0df:	63 6f 6d             	arpl   %bp,0x6d(%edi)
    a0e2:	6d                   	insl   (%dx),%es:(%edi)
    a0e3:	61                   	popa   
    a0e4:	6e                   	outsb  %ds:(%esi),(%dx)
    a0e5:	64 5d                	fs pop %ebp
    a0e7:	20 65 78             	and    %ah,0x78(%ebp)
    a0ea:	74 65                	je     a151 <wrap+0x4f1>
    a0ec:	6e                   	outsb  %ds:(%esi),(%dx)
    a0ed:	64 65 64 20 66 6f    	fs gs and %ah,%fs:0x6f(%esi)
    a0f3:	72 20                	jb     a115 <wrap+0x4b5>
    a0f5:	64 65 74 61          	fs gs je a15a <wrap+0x4fa>
    a0f9:	69 6c 65 64 20 68 65 	imul   $0x6c656820,0x64(%ebp,%eiz,2),%ebp
    a100:	6c 
    a101:	70 20                	jo     a123 <wrap+0x4c3>
    a103:	6f                   	outsl  %ds:(%esi),(%dx)
    a104:	6e                   	outsb  %ds:(%esi),(%dx)
    a105:	20 5b 63             	and    %bl,0x63(%ebx)
    a108:	6f                   	outsl  %ds:(%esi),(%dx)
    a109:	6d                   	insl   (%dx),%es:(%edi)
    a10a:	6d                   	insl   (%dx),%es:(%edi)
    a10b:	61                   	popa   
    a10c:	6e                   	outsb  %ds:(%esi),(%dx)
    a10d:	64 5d                	fs pop %ebp
    a10f:	20 2c 20             	and    %ch,(%eax,%eiz,1)
    a112:	65 76 65             	gs jbe a17a <wrap+0x51a>
    a115:	6e                   	outsb  %ds:(%esi),(%dx)
    a116:	20 60 68             	and    %ah,0x68(%eax)
    a119:	65 6c                	gs insb (%dx),%es:(%edi)
    a11b:	70 27                	jo     a144 <wrap+0x4e4>
    a11d:	0a 0a                	or     (%edx),%cl
    a11f:	00 0a                	add    %cl,(%edx)
    a121:	20 20                	and    %ah,(%eax)
    a123:	54                   	push   %esp
    a124:	72 79                	jb     a19f <wrap+0x53f>
    a126:	20 25 73 20 25 73    	and    %ah,0x73252073
    a12c:	20 66 6f             	and    %ah,0x6f(%esi)
    a12f:	72 20                	jb     a151 <wrap+0x4f1>
    a131:	6d                   	insl   (%dx),%es:(%edi)
    a132:	6f                   	outsl  %ds:(%esi),(%dx)
    a133:	72 65                	jb     a19a <wrap+0x53a>
    a135:	20 69 6e             	and    %ch,0x6e(%ecx)
    a138:	66 6f                	outsw  %ds:(%esi),(%dx)
    a13a:	72 6d                	jb     a1a9 <wrap+0x549>
    a13c:	61                   	popa   
    a13d:	74 69                	je     a1a8 <wrap+0x548>
    a13f:	6f                   	outsl  %ds:(%esi),(%dx)
    a140:	6e                   	outsb  %ds:(%esi),(%dx)
    a141:	20 6f 6e             	and    %ch,0x6e(%edi)
    a144:	20 68 6f             	and    %ch,0x6f(%eax)
    a147:	77 20                	ja     a169 <wrap+0x509>
    a149:	60                   	pusha  
    a14a:	25 73 27 20 77       	and    $0x77202773,%eax
    a14f:	6f                   	outsl  %ds:(%esi),(%dx)
    a150:	72 6b                	jb     a1bd <wrap+0x55d>
    a152:	73 2e                	jae    a182 <wrap+0x522>
    a154:	0a 0a                	or     (%edx),%cl
    a156:	00 00                	add    %al,(%eax)
    a158:	44                   	inc    %esp
    a159:	6f                   	outsl  %ds:(%esi),(%dx)
    a15a:	6e                   	outsb  %ds:(%esi),(%dx)
    a15b:	27                   	daa    
    a15c:	74 20                	je     a17e <wrap+0x51e>
    a15e:	70 61                	jo     a1c1 <wrap+0x561>
    a160:	6e                   	outsb  %ds:(%esi),(%dx)
    a161:	69 63 21 0a 0a 54 68 	imul   $0x68540a0a,0x21(%ebx),%esp
    a168:	69 73 20 69 73 20 42 	imul   $0x42207369,0x20(%ebx),%esi
    a16f:	64 73 68             	fs jae a1da <wrap+0x57a>
    a172:	2c 20                	sub    $0x20,%al
    a174:	74 68                	je     a1de <wrap+0x57e>
    a176:	65 20 42 72          	and    %al,%gs:0x72(%edx)
    a17a:	61                   	popa   
    a17b:	69 6e 20 64 65 61 64 	imul   $0x64616564,0x20(%esi),%ebp
    a182:	20 73 68             	and    %dh,0x68(%ebx)
    a185:	65 6c                	gs insb (%dx),%es:(%edi)
    a187:	6c                   	insb   (%dx),%es:(%edi)
    a188:	2c 20                	sub    $0x20,%al
    a18a:	63 75 72             	arpl   %si,0x72(%ebp)
    a18d:	72 65                	jb     a1f4 <wrap+0x594>
    a18f:	6e                   	outsb  %ds:(%esi),(%dx)
    a190:	74 6c                	je     a1fe <wrap+0x59e>
    a192:	79 20                	jns    a1b4 <wrap+0x554>
    a194:	74 68                	je     a1fe <wrap+0x59e>
    a196:	65 20 70 72          	and    %dh,%gs:0x72(%eax)
    a19a:	69 6d 61 72 79 20 75 	imul   $0x75207972,0x61(%ebp),%ebp
    a1a1:	73 65                	jae    a208 <wrap+0x5a8>
    a1a3:	72 20                	jb     a1c5 <wrap+0x565>
    a1a5:	69 6e 74 65 72 66 61 	imul   $0x61667265,0x74(%esi),%ebp
    a1ac:	63 65 20             	arpl   %sp,0x20(%ebp)
    a1af:	74 6f                	je     a220 <wrap+0x5c0>
    a1b1:	20 48 65             	and    %cl,0x65(%eax)
    a1b4:	6c                   	insb   (%dx),%es:(%edi)
    a1b5:	65 6e                	outsb  %gs:(%esi),(%dx)
    a1b7:	4f                   	dec    %edi
    a1b8:	53                   	push   %ebx
    a1b9:	2e 20 42 64          	and    %al,%cs:0x64(%edx)
    a1bd:	73 68                	jae    a227 <wrap+0x5c7>
    a1bf:	20 61 6c             	and    %ah,0x6c(%ecx)
    a1c2:	6c                   	insb   (%dx),%es:(%edi)
    a1c3:	6f                   	outsl  %ds:(%esi),(%dx)
    a1c4:	77 73                	ja     a239 <wrap+0x5d9>
    a1c6:	20 79 6f             	and    %bh,0x6f(%ecx)
    a1c9:	75 20                	jne    a1eb <wrap+0x58b>
    a1cb:	74 6f                	je     a23c <wrap+0x5dc>
    a1cd:	20 65 6e             	and    %ah,0x6e(%ebp)
    a1d0:	74 65                	je     a237 <wrap+0x5d7>
    a1d2:	72 20                	jb     a1f4 <wrap+0x594>
    a1d4:	63 6f 6d             	arpl   %bp,0x6d(%edi)
    a1d7:	6d                   	insl   (%dx),%es:(%edi)
    a1d8:	61                   	popa   
    a1d9:	6e                   	outsb  %ds:(%esi),(%dx)
    a1da:	64 73 20             	fs jae a1fd <wrap+0x59d>
    a1dd:	61                   	popa   
    a1de:	6e                   	outsb  %ds:(%esi),(%dx)
    a1df:	64 20 73 75          	and    %dh,%fs:0x75(%ebx)
    a1e3:	70 70                	jo     a255 <wrap+0x5f5>
    a1e5:	6f                   	outsl  %ds:(%esi),(%dx)
    a1e6:	72 74                	jb     a25c <wrap+0x5fc>
    a1e8:	73 20                	jae    a20a <wrap+0x5aa>
    a1ea:	68 69 73 74 6f       	push   $0x6f747369
    a1ef:	72 79                	jb     a26a <wrap+0x60a>
    a1f1:	20 28                	and    %ch,(%eax)
    a1f3:	55                   	push   %ebp
    a1f4:	70 2c                	jo     a222 <wrap+0x5c2>
    a1f6:	20 44 6f 77          	and    %al,0x77(%edi,%ebp,2)
    a1fa:	6e                   	outsb  %ds:(%esi),(%dx)
    a1fb:	20 61 72             	and    %ah,0x72(%ecx)
    a1fe:	72 6f                	jb     a26f <wrap+0x60f>
    a200:	77 20                	ja     a222 <wrap+0x5c2>
    a202:	6b 65 79 73          	imul   $0x73,0x79(%ebp),%esp
    a206:	29 2c 20             	sub    %ebp,(%eax,%eiz,1)
    a209:	6c                   	insb   (%dx),%es:(%edi)
    a20a:	69 6e 65 20 65 64 69 	imul   $0x69646520,0x65(%esi),%ebp
    a211:	74 69                	je     a27c <wrap+0x61c>
    a213:	6e                   	outsb  %ds:(%esi),(%dx)
    a214:	67 20 28             	and    %ch,(%bx,%si)
    a217:	4c                   	dec    %esp
    a218:	65 66 74 20          	gs data16 je a23c <wrap+0x5dc>
    a21c:	41                   	inc    %ecx
    a21d:	72 72                	jb     a291 <wrap+0x631>
    a21f:	6f                   	outsl  %ds:(%esi),(%dx)
    a220:	77 2c                	ja     a24e <wrap+0x5ee>
    a222:	20 52 69             	and    %dl,0x69(%edx)
    a225:	67 68 74 20 41 72    	addr16 push $0x72412074
    a22b:	72 6f                	jb     a29c <wrap+0x63c>
    a22d:	77 2c                	ja     a25b <wrap+0x5fb>
    a22f:	20 48 6f             	and    %cl,0x6f(%eax)
    a232:	6d                   	insl   (%dx),%es:(%edi)
    a233:	65 2c 20             	gs sub $0x20,%al
    a236:	45                   	inc    %ebp
    a237:	6e                   	outsb  %ds:(%esi),(%dx)
    a238:	64 2c 20             	fs sub $0x20,%al
    a23b:	42                   	inc    %edx
    a23c:	61                   	popa   
    a23d:	63 6b 73             	arpl   %bp,0x73(%ebx)
    a240:	70 61                	jo     a2a3 <wrap+0x643>
    a242:	63 65 29             	arpl   %sp,0x29(%ebp)
    a245:	2c 20                	sub    $0x20,%al
    a247:	73 65                	jae    a2ae <wrap+0x64e>
    a249:	6c                   	insb   (%dx),%es:(%edi)
    a24a:	65 63 74 69 6f       	arpl   %si,%gs:0x6f(%ecx,%ebp,2)
    a24f:	6e                   	outsb  %ds:(%esi),(%dx)
    a250:	20 28                	and    %ch,(%eax)
    a252:	53                   	push   %ebx
    a253:	68 69 66 74 20       	push   $0x20746669
    a258:	2b 20                	sub    (%eax),%esp
    a25a:	6d                   	insl   (%dx),%es:(%edi)
    a25b:	6f                   	outsl  %ds:(%esi),(%dx)
    a25c:	76 65                	jbe    a2c3 <wrap+0x663>
    a25e:	6d                   	insl   (%dx),%es:(%edi)
    a25f:	65 6e                	outsb  %gs:(%esi),(%dx)
    a261:	74 20                	je     a283 <wrap+0x623>
    a263:	6b 65 79 73          	imul   $0x73,0x79(%ebp),%esp
    a267:	29 2c 20             	sub    %ebp,(%eax,%eiz,1)
    a26a:	63 6f 70             	arpl   %bp,0x70(%edi)
    a26d:	79 20                	jns    a28f <wrap+0x62f>
    a26f:	61                   	popa   
    a270:	6e                   	outsb  %ds:(%esi),(%dx)
    a271:	64 20 70 61          	and    %dh,%fs:0x61(%eax)
    a275:	73 74                	jae    a2eb <wrap+0x68b>
    a277:	65 20 28             	and    %ch,%gs:(%eax)
    a27a:	43                   	inc    %ebx
    a27b:	74 72                	je     a2ef <wrap+0x68f>
    a27d:	6c                   	insb   (%dx),%es:(%edi)
    a27e:	2d 43 2c 20 43       	sub    $0x43202c43,%eax
    a283:	74 72                	je     a2f7 <wrap+0x697>
    a285:	6c                   	insb   (%dx),%es:(%edi)
    a286:	2d 56 29 2c 20       	sub    $0x202c2956,%eax
    a28b:	73 69                	jae    a2f6 <wrap+0x696>
    a28d:	6d                   	insl   (%dx),%es:(%edi)
    a28e:	69 6c 61 72 20 74 6f 	imul   $0x206f7420,0x72(%ecx,%eiz,2),%ebp
    a295:	20 
    a296:	63 6f 6d             	arpl   %bp,0x6d(%edi)
    a299:	6d                   	insl   (%dx),%es:(%edi)
    a29a:	6f                   	outsl  %ds:(%esi),(%dx)
    a29b:	6e                   	outsb  %ds:(%esi),(%dx)
    a29c:	20 64 65 73          	and    %ah,0x73(%ebp,%eiz,2)
    a2a0:	6b 74 6f 70 20       	imul   $0x20,0x70(%edi,%ebp,2),%esi
    a2a5:	65 6e                	outsb  %gs:(%esi),(%dx)
    a2a7:	76 69                	jbe    a312 <wrap+0x6b2>
    a2a9:	72 6f                	jb     a31a <wrap+0x6ba>
    a2ab:	6e                   	outsb  %ds:(%esi),(%dx)
    a2ac:	6d                   	insl   (%dx),%es:(%edi)
    a2ad:	65 6e                	outsb  %gs:(%esi),(%dx)
    a2af:	74 73                	je     a324 <wrap+0x6c4>
    a2b1:	2e 0a 0a             	or     %cs:(%edx),%cl
    a2b4:	54                   	push   %esp
    a2b5:	68 65 20 6d 6f       	push   $0x6f6d2065
    a2ba:	73 74                	jae    a330 <wrap+0x6d0>
    a2bc:	20 62 61             	and    %ah,0x61(%edx)
    a2bf:	73 69                	jae    a32a <wrap+0x6ca>
    a2c1:	63 20                	arpl   %sp,(%eax)
    a2c3:	66 69 6c 65 73 79 73 	imul   $0x7379,0x73(%ebp,%eiz,2),%bp
    a2ca:	74 65                	je     a331 <wrap+0x6d1>
    a2cc:	6d                   	insl   (%dx),%es:(%edi)
    a2cd:	20 63 6f             	and    %ah,0x6f(%ebx)
    a2d0:	6d                   	insl   (%dx),%es:(%edi)
    a2d1:	6d                   	insl   (%dx),%es:(%edi)
    a2d2:	61                   	popa   
    a2d3:	6e                   	outsb  %ds:(%esi),(%dx)
    a2d4:	64 73 20             	fs jae a2f7 <wrap+0x697>
    a2d7:	61                   	popa   
    a2d8:	72 65                	jb     a33f <wrap+0x6df>
    a2da:	20 42 64             	and    %al,0x64(%edx)
    a2dd:	73 68                	jae    a347 <wrap+0x6e7>
    a2df:	20 62 75             	and    %ah,0x75(%edx)
    a2e2:	69 6c 74 69 6e 73 2e 	imul   $0x202e736e,0x69(%esp,%esi,2),%ebp
    a2e9:	20 
    a2ea:	54                   	push   %esp
    a2eb:	79 70                	jns    a35d <wrap+0x6fd>
    a2ed:	65 20 27             	and    %ah,%gs:(%edi)
    a2f0:	68 65 6c 70 20       	push   $0x20706c65
    a2f5:	63 6f 6d             	arpl   %bp,0x6d(%edi)
    a2f8:	6d                   	insl   (%dx),%es:(%edi)
    a2f9:	61                   	popa   
    a2fa:	6e                   	outsb  %ds:(%esi),(%dx)
    a2fb:	64 73 27             	fs jae a325 <wrap+0x6c5>
    a2fe:	20 5b 45             	and    %bl,0x45(%ebx)
    a301:	6e                   	outsb  %ds:(%esi),(%dx)
    a302:	74 65                	je     a369 <wrap+0x709>
    a304:	72 5d                	jb     a363 <wrap+0x703>
    a306:	20 74 6f 20          	and    %dh,0x20(%edi,%ebp,2)
    a30a:	73 65                	jae    a371 <wrap+0x711>
    a30c:	65 20 74 68 65       	and    %dh,%gs:0x65(%eax,%ebp,2)
    a311:	20 6c 69 73          	and    %ch,0x73(%ecx,%ebp,2)
    a315:	74 20                	je     a337 <wrap+0x6d7>
    a317:	6f                   	outsl  %ds:(%esi),(%dx)
    a318:	66 20 42 64          	data16 and %al,0x64(%edx)
    a31c:	73 68                	jae    a386 <wrap+0x726>
    a31e:	20 62 75             	and    %ah,0x75(%edx)
    a321:	69 6c 74 69 6e 20 63 	imul   $0x6f63206e,0x69(%esp,%esi,2),%ebp
    a328:	6f 
    a329:	6d                   	insl   (%dx),%es:(%edi)
    a32a:	6d                   	insl   (%dx),%es:(%edi)
    a32b:	61                   	popa   
    a32c:	6e                   	outsb  %ds:(%esi),(%dx)
    a32d:	64 73 2e             	fs jae a35e <wrap+0x6fe>
    a330:	20 4f 74             	and    %cl,0x74(%edi)
    a333:	68 65 72 20 63       	push   $0x63207265
    a338:	6f                   	outsl  %ds:(%esi),(%dx)
    a339:	6d                   	insl   (%dx),%es:(%edi)
    a33a:	6d                   	insl   (%dx),%es:(%edi)
    a33b:	61                   	popa   
    a33c:	6e                   	outsb  %ds:(%esi),(%dx)
    a33d:	64 73 20             	fs jae a360 <wrap+0x700>
    a340:	61                   	popa   
    a341:	72 65                	jb     a3a8 <wrap+0x748>
    a343:	20 65 78             	and    %ah,0x78(%ebp)
    a346:	74 65                	je     a3ad <wrap+0x74d>
    a348:	72 6e                	jb     a3b8 <wrap+0x758>
    a34a:	61                   	popa   
    a34b:	6c                   	insb   (%dx),%es:(%edi)
    a34c:	20 65 78             	and    %ah,0x78(%ebp)
    a34f:	65 63 75 74          	arpl   %si,%gs:0x74(%ebp)
    a353:	61                   	popa   
    a354:	62 6c 65 73          	bound  %ebp,0x73(%ebp,%eiz,2)
    a358:	20 6c 6f 63          	and    %ch,0x63(%edi,%ebp,2)
    a35c:	61                   	popa   
    a35d:	74 65                	je     a3c4 <wrap+0x764>
    a35f:	64 20 69 6e          	and    %ch,%fs:0x6e(%ecx)
    a363:	20 74 68 65          	and    %dh,0x65(%eax,%ebp,2)
    a367:	20 2f                	and    %ch,(%edi)
    a369:	61                   	popa   
    a36a:	70 70                	jo     a3dc <wrap+0x77c>
    a36c:	20 61 6e             	and    %ah,0x6e(%ecx)
    a36f:	64 20 2f             	and    %ch,%fs:(%edi)
    a372:	73 72                	jae    a3e6 <wrap+0x786>
    a374:	76 20                	jbe    a396 <wrap+0x736>
    a376:	64 69 72 65 63 74 6f 	imul   $0x726f7463,%fs:0x65(%edx),%esi
    a37d:	72 
    a37e:	69 65 73 2e 20 54 79 	imul   $0x7954202e,0x73(%ebp),%esp
    a385:	70 65                	jo     a3ec <wrap+0x78c>
    a387:	20 27                	and    %ah,(%edi)
    a389:	6c                   	insb   (%dx),%es:(%edi)
    a38a:	73 20                	jae    a3ac <wrap+0x74c>
    a38c:	2f                   	das    
    a38d:	61                   	popa   
    a38e:	70 70                	jo     a400 <wrap+0x7a0>
    a390:	27                   	daa    
    a391:	20 5b 45             	and    %bl,0x45(%ebx)
    a394:	6e                   	outsb  %ds:(%esi),(%dx)
    a395:	74 65                	je     a3fc <wrap+0x79c>
    a397:	72 5d                	jb     a3f6 <wrap+0x796>
    a399:	20 61 6e             	and    %ah,0x6e(%ecx)
    a39c:	64 20 27             	and    %ah,%fs:(%edi)
    a39f:	6c                   	insb   (%dx),%es:(%edi)
    a3a0:	73 20                	jae    a3c2 <wrap+0x762>
    a3a2:	2f                   	das    
    a3a3:	73 72                	jae    a417 <wrap+0x7b7>
    a3a5:	76 27                	jbe    a3ce <wrap+0x76e>
    a3a7:	20 5b 45             	and    %bl,0x45(%ebx)
    a3aa:	6e                   	outsb  %ds:(%esi),(%dx)
    a3ab:	74 65                	je     a412 <wrap+0x7b2>
    a3ad:	72 5d                	jb     a40c <wrap+0x7ac>
    a3af:	20 74 6f 20          	and    %dh,0x20(%edi,%ebp,2)
    a3b3:	73 65                	jae    a41a <wrap+0x7ba>
    a3b5:	65 20 74 68 65       	and    %dh,%gs:0x65(%eax,%ebp,2)
    a3ba:	69 72 20 6c 69 73 74 	imul   $0x7473696c,0x20(%edx),%esi
    a3c1:	2e 20 59 6f          	and    %bl,%cs:0x6f(%ecx)
    a3c5:	75 20                	jne    a3e7 <wrap+0x787>
    a3c7:	63 61 6e             	arpl   %sp,0x6e(%ecx)
    a3ca:	20 65 78             	and    %ah,0x78(%ebp)
    a3cd:	65 63 75 74          	arpl   %si,%gs:0x74(%ebp)
    a3d1:	65 20 61 6e          	and    %ah,%gs:0x6e(%ecx)
    a3d5:	20 65 78             	and    %ah,0x78(%ebp)
    a3d8:	74 65                	je     a43f <wrap+0x7df>
    a3da:	72 6e                	jb     a44a <wrap+0x7ea>
    a3dc:	61                   	popa   
    a3dd:	6c                   	insb   (%dx),%es:(%edi)
    a3de:	20 63 6f             	and    %ah,0x6f(%ebx)
    a3e1:	6d                   	insl   (%dx),%es:(%edi)
    a3e2:	6d                   	insl   (%dx),%es:(%edi)
    a3e3:	61                   	popa   
    a3e4:	6e                   	outsb  %ds:(%esi),(%dx)
    a3e5:	64 20 73 69          	and    %dh,%fs:0x69(%ebx)
    a3e9:	6d                   	insl   (%dx),%es:(%edi)
    a3ea:	70 6c                	jo     a458 <wrap+0x7f8>
    a3ec:	79 20                	jns    a40e <wrap+0x7ae>
    a3ee:	62 79 20             	bound  %edi,0x20(%ecx)
    a3f1:	65 6e                	outsb  %gs:(%esi),(%dx)
    a3f3:	74 65                	je     a45a <wrap+0x7fa>
    a3f5:	72 69                	jb     a460 <wrap+0x800>
    a3f7:	6e                   	outsb  %ds:(%esi),(%dx)
    a3f8:	67 20 69 74          	and    %ch,0x74(%bx,%di)
    a3fc:	73 20                	jae    a41e <wrap+0x7be>
    a3fe:	6e                   	outsb  %ds:(%esi),(%dx)
    a3ff:	61                   	popa   
    a400:	6d                   	insl   (%dx),%es:(%edi)
    a401:	65 20 28             	and    %ch,%gs:(%eax)
    a404:	65 2e 67 2e 20 74 79 	gs cs and %dh,%cs:0x79(%si)
    a40b:	70 65                	jo     a472 <wrap+0x812>
    a40d:	20 27                	and    %ah,(%edi)
    a40f:	74 65                	je     a476 <wrap+0x816>
    a411:	74 72                	je     a485 <wrap+0x825>
    a413:	69 73 27 20 5b 45 6e 	imul   $0x6e455b20,0x27(%ebx),%esi
    a41a:	74 65                	je     a481 <wrap+0x821>
    a41c:	72 5d                	jb     a47b <wrap+0x81b>
    a41e:	29 2e                	sub    %ebp,(%esi)
    a420:	0a 0a                	or     (%edx),%cl
    a422:	48                   	dec    %eax
    a423:	65 6c                	gs insb (%dx),%es:(%edi)
    a425:	65 6e                	outsb  %gs:(%esi),(%dx)
    a427:	4f                   	dec    %edi
    a428:	53                   	push   %ebx
    a429:	20 68 61             	and    %ch,0x61(%eax)
    a42c:	73 20                	jae    a44e <wrap+0x7ee>
    a42e:	76 69                	jbe    a499 <wrap+0x839>
    a430:	72 74                	jb     a4a6 <wrap+0x846>
    a432:	75 61                	jne    a495 <wrap+0x835>
    a434:	6c                   	insb   (%dx),%es:(%edi)
    a435:	20 63 6f             	and    %ah,0x6f(%ebx)
    a438:	6e                   	outsb  %ds:(%esi),(%dx)
    a439:	73 6f                	jae    a4aa <wrap+0x84a>
    a43b:	6c                   	insb   (%dx),%es:(%edi)
    a43c:	65 73 20             	gs jae a45f <wrap+0x7ff>
    a43f:	28 56 43             	sub    %dl,0x43(%esi)
    a442:	73 29                	jae    a46d <wrap+0x80d>
    a444:	2e 20 59 6f          	and    %bl,%cs:0x6f(%ecx)
    a448:	75 20                	jne    a46a <wrap+0x80a>
    a44a:	63 61 6e             	arpl   %sp,0x6e(%ecx)
    a44d:	20 73 77             	and    %dh,0x77(%ebx)
    a450:	69 74 63 68 20 62 65 	imul   $0x74656220,0x68(%ebx,%eiz,2),%esi
    a457:	74 
    a458:	77 65                	ja     a4bf <wrap+0x85f>
    a45a:	65 6e                	outsb  %gs:(%esi),(%dx)
    a45c:	20 74 68 65          	and    %dh,0x65(%eax,%ebp,2)
    a460:	73 65                	jae    a4c7 <wrap+0x867>
    a462:	20 75 73             	and    %dh,0x73(%ebp)
    a465:	69 6e 67 20 74 68 65 	imul   $0x65687420,0x67(%esi),%ebp
    a46c:	20 46 31             	and    %al,0x31(%esi)
    a46f:	2d 46 31 31 20       	sub    $0x20313146,%eax
    a474:	6b 65 79 73          	imul   $0x73,0x79(%ebp),%esp
    a478:	2e 0a 0a             	or     %cs:(%edx),%cl
    a47b:	54                   	push   %esp
    a47c:	68 69 73 20 69       	push   $0x69207369
    a481:	73 20                	jae    a4a3 <wrap+0x843>
    a483:	62 75 74             	bound  %esi,0x74(%ebp)
    a486:	20 61 20             	and    %ah,0x20(%ecx)
    a489:	73 6d                	jae    a4f8 <wrap+0x898>
    a48b:	61                   	popa   
    a48c:	6c                   	insb   (%dx),%es:(%edi)
    a48d:	6c                   	insb   (%dx),%es:(%edi)
    a48e:	20 67 6c             	and    %ah,0x6c(%edi)
    a491:	69 6d 70 73 65 20 6f 	imul   $0x6f206573,0x70(%ebp),%ebp
    a498:	66 20 77 68          	data16 and %dh,0x68(%edi)
    a49c:	61                   	popa   
    a49d:	74 20                	je     a4bf <wrap+0x85f>
    a49f:	79 6f                	jns    a510 <wrap+0x8b0>
    a4a1:	75 20                	jne    a4c3 <wrap+0x863>
    a4a3:	63 61 6e             	arpl   %sp,0x6e(%ecx)
    a4a6:	20 64 6f 20          	and    %ah,0x20(%edi,%ebp,2)
    a4aa:	77 69                	ja     a515 <wrap+0x8b5>
    a4ac:	74 68                	je     a516 <wrap+0x8b6>
    a4ae:	20 48 65             	and    %cl,0x65(%eax)
    a4b1:	6c                   	insb   (%dx),%es:(%edi)
    a4b2:	65 6e                	outsb  %gs:(%esi),(%dx)
    a4b4:	4f                   	dec    %edi
    a4b5:	53                   	push   %ebx
    a4b6:	2e 20 54 6f 20       	and    %dl,%cs:0x20(%edi,%ebp,2)
    a4bb:	6c                   	insb   (%dx),%es:(%edi)
    a4bc:	65 61                	gs popa 
    a4be:	72 6e                	jb     a52e <wrap+0x8ce>
    a4c0:	20 6d 6f             	and    %ch,0x6f(%ebp)
    a4c3:	72 65                	jb     a52a <wrap+0x8ca>
    a4c5:	20 70 6c             	and    %dh,0x6c(%eax)
    a4c8:	65 61                	gs popa 
    a4ca:	73 65                	jae    a531 <wrap+0x8d1>
    a4cc:	20 70 6f             	and    %dh,0x6f(%eax)
    a4cf:	69 6e 74 20 79 6f 75 	imul   $0x756f7920,0x74(%esi),%ebp
    a4d6:	72 20                	jb     a4f8 <wrap+0x898>
    a4d8:	62 72 6f             	bound  %esi,0x6f(%edx)
    a4db:	77 73                	ja     a550 <wrap+0x8f0>
    a4dd:	65 72 20             	gs jb  a500 <wrap+0x8a0>
    a4e0:	74 6f                	je     a551 <wrap+0x8f1>
    a4e2:	20 74 68 65          	and    %dh,0x65(%eax,%ebp,2)
    a4e6:	20 48 65             	and    %cl,0x65(%eax)
    a4e9:	6c                   	insb   (%dx),%es:(%edi)
    a4ea:	65 6e                	outsb  %gs:(%esi),(%dx)
    a4ec:	4f                   	dec    %edi
    a4ed:	53                   	push   %ebx
    a4ee:	20 55 73             	and    %dl,0x73(%ebp)
    a4f1:	65 72 27             	gs jb  a51b <wrap+0x8bb>
    a4f4:	73 20                	jae    a516 <wrap+0x8b6>
    a4f6:	47                   	inc    %edi
    a4f7:	75 69                	jne    a562 <wrap+0x902>
    a4f9:	64 65 3a 20          	fs cmp %gs:(%eax),%ah
    a4fd:	68 74 74 70 3a       	push   $0x3a707474
    a502:	2f                   	das    
    a503:	2f                   	das    
    a504:	74 72                	je     a578 <wrap+0x918>
    a506:	61                   	popa   
    a507:	63 2e                	arpl   %bp,(%esi)
    a509:	68 65 6c 65 6e       	push   $0x6e656c65
    a50e:	6f                   	outsl  %ds:(%esi),(%dx)
    a50f:	73 2e                	jae    a53f <wrap+0x8df>
    a511:	6f                   	outsl  %ds:(%esi),(%dx)
    a512:	72 67                	jb     a57b <wrap+0x91b>
    a514:	2f                   	das    
    a515:	77 69                	ja     a580 <wrap+0x920>
    a517:	6b 69 2f 55          	imul   $0x55,0x2f(%ecx),%ebp
    a51b:	73 65                	jae    a582 <wrap+0x922>
    a51d:	72 73                	jb     a592 <wrap+0x932>
    a51f:	47                   	inc    %edi
    a520:	75 69                	jne    a58b <wrap+0x92b>
    a522:	64 65 0a 0a          	fs or  %gs:(%edx),%cl
    a526:	00 00                	add    %al,(%eax)
    a528:	20 20                	and    %ah,(%eax)
    a52a:	2d 2d 2d 2d 2d       	sub    $0x2d2d2d2d,%eax
    a52f:	2d 2d 2d 2d 2d       	sub    $0x2d2d2d2d,%eax
    a534:	2d 2d 2d 2d 2d       	sub    $0x2d2d2d2d,%eax
    a539:	2d 2d 2d 2d 2d       	sub    $0x2d2d2d2d,%eax
    a53e:	2d 2d 2d 2d 2d       	sub    $0x2d2d2d2d,%eax
    a543:	2d 2d 2d 2d 2d       	sub    $0x2d2d2d2d,%eax
    a548:	2d 2d 2d 2d 2d       	sub    $0x2d2d2d2d,%eax
    a54d:	2d 2d 2d 2d 2d       	sub    $0x2d2d2d2d,%eax
    a552:	2d 2d 2d 2d 2d       	sub    $0x2d2d2d2d,%eax
    a557:	2d 2d 2d 2d 2d       	sub    $0x2d2d2d2d,%eax
    a55c:	2d 2d 2d 2d 2d       	sub    $0x2d2d2d2d,%eax
    a561:	2d 2d 2d 2d 2d       	sub    $0x2d2d2d2d,%eax
    a566:	0a 00                	or     (%eax),%al
    a568:	0a 20                	or     (%eax),%ah
    a56a:	20 60 25             	and    %ah,0x25(%eax)
    a56d:	73 27                	jae    a596 <wrap+0x936>
    a56f:	20 2d 20 73 68 6f    	and    %ch,0x6f687320
    a575:	77 73                	ja     a5ea <wrap+0x98a>
    a577:	20 68 65             	and    %ch,0x65(%eax)
    a57a:	6c                   	insb   (%dx),%es:(%edi)
    a57b:	70 20                	jo     a59d <wrap+0x93d>
    a57d:	66 6f                	outsw  %ds:(%esi),(%dx)
    a57f:	72 20                	jb     a5a1 <wrap+0x941>
    a581:	63 6f 6d             	arpl   %bp,0x6d(%edi)
    a584:	6d                   	insl   (%dx),%es:(%edi)
    a585:	61                   	popa   
    a586:	6e                   	outsb  %ds:(%esi),(%dx)
    a587:	64 73 0a             	fs jae a594 <wrap+0x934>
    a58a:	20 20                	and    %ah,(%eax)
    a58c:	45                   	inc    %ebp
    a58d:	78 61                	js     a5f0 <wrap+0x990>
    a58f:	6d                   	insl   (%dx),%es:(%edi)
    a590:	70 6c                	jo     a5fe <wrap+0x99e>
    a592:	65 73 3a             	gs jae a5cf <wrap+0x96f>
    a595:	0a 20                	or     (%eax),%ah
    a597:	20 20                	and    %ah,(%eax)
    a599:	25 73 20 5b 63       	and    $0x635b2073,%eax
    a59e:	6f                   	outsl  %ds:(%esi),(%dx)
    a59f:	6d                   	insl   (%dx),%es:(%edi)
    a5a0:	6d                   	insl   (%dx),%es:(%edi)
    a5a1:	61                   	popa   
    a5a2:	6e                   	outsb  %ds:(%esi),(%dx)
    a5a3:	64 5d                	fs pop %ebp
    a5a5:	20 20                	and    %ah,(%eax)
    a5a7:	20 20                	and    %ah,(%eax)
    a5a9:	20 20                	and    %ah,(%eax)
    a5ab:	20 20                	and    %ah,(%eax)
    a5ad:	20 20                	and    %ah,(%eax)
    a5af:	20 53 68             	and    %dl,0x68(%ebx)
    a5b2:	6f                   	outsl  %ds:(%esi),(%dx)
    a5b3:	77 20                	ja     a5d5 <wrap+0x975>
    a5b5:	68 65 6c 70 20       	push   $0x20706c65
    a5ba:	66 6f                	outsw  %ds:(%esi),(%dx)
    a5bc:	72 20                	jb     a5de <wrap+0x97e>
    a5be:	5b                   	pop    %ebx
    a5bf:	63 6f 6d             	arpl   %bp,0x6d(%edi)
    a5c2:	6d                   	insl   (%dx),%es:(%edi)
    a5c3:	61                   	popa   
    a5c4:	6e                   	outsb  %ds:(%esi),(%dx)
    a5c5:	64 5d                	fs pop %ebp
    a5c7:	0a 20                	or     (%eax),%ah
    a5c9:	20 20                	and    %ah,(%eax)
    a5cb:	25 73 20 5b 63       	and    $0x635b2073,%eax
    a5d0:	6f                   	outsl  %ds:(%esi),(%dx)
    a5d1:	6d                   	insl   (%dx),%es:(%edi)
    a5d2:	6d                   	insl   (%dx),%es:(%edi)
    a5d3:	61                   	popa   
    a5d4:	6e                   	outsb  %ds:(%esi),(%dx)
    a5d5:	64 5d                	fs pop %ebp
    a5d7:	20 65 78             	and    %ah,0x78(%ebp)
    a5da:	74 65                	je     a641 <wrap+0x9e1>
    a5dc:	6e                   	outsb  %ds:(%esi),(%dx)
    a5dd:	64 65 64 20 20       	fs gs and %ah,%fs:(%eax)
    a5e2:	53                   	push   %ebx
    a5e3:	68 6f 77 20 65       	push   $0x6520776f
    a5e8:	78 74                	js     a65e <wrap+0x9fe>
    a5ea:	65 6e                	outsb  %gs:(%esi),(%dx)
    a5ec:	64 65 64 20 68 65    	fs gs and %ch,%fs:0x65(%eax)
    a5f2:	6c                   	insb   (%dx),%es:(%edi)
    a5f3:	70 20                	jo     a615 <wrap+0x9b5>
    a5f5:	66 6f                	outsw  %ds:(%esi),(%dx)
    a5f7:	72 20                	jb     a619 <wrap+0x9b9>
    a5f9:	5b                   	pop    %ebx
    a5fa:	63 6f 6d             	arpl   %bp,0x6d(%edi)
    a5fd:	6d                   	insl   (%dx),%es:(%edi)
    a5fe:	61                   	popa   
    a5ff:	6e                   	outsb  %ds:(%esi),(%dx)
    a600:	64 5d                	fs pop %ebp
    a602:	0a 0a                	or     (%edx),%cl
    a604:	20 20                	and    %ah,(%eax)
    a606:	49                   	dec    %ecx
    a607:	66 20 6e 6f          	data16 and %ch,0x6f(%esi)
    a60b:	20 61 72             	and    %ah,0x72(%ecx)
    a60e:	67 75 6d             	addr16 jne a67e <wrap+0xa1e>
    a611:	65 6e                	outsb  %gs:(%esi),(%dx)
    a613:	74 20                	je     a635 <wrap+0x9d5>
    a615:	69 73 20 67 69 76 65 	imul   $0x65766967,0x20(%ebx),%esi
    a61c:	6e                   	outsb  %ds:(%esi),(%dx)
    a61d:	20 74 6f 20          	and    %dh,0x20(%edi,%ebp,2)
    a621:	25 73 2c 20 61       	and    $0x61202c73,%eax
    a626:	20 6c 69 73          	and    %ch,0x73(%ecx,%ebp,2)
    a62a:	74 20                	je     a64c <wrap+0x9ec>
    a62c:	6f                   	outsl  %ds:(%esi),(%dx)
    a62d:	66 20 63 6f          	data16 and %ah,0x6f(%ebx)
    a631:	6d                   	insl   (%dx),%es:(%edi)
    a632:	6d                   	insl   (%dx),%es:(%edi)
    a633:	61                   	popa   
    a634:	6e                   	outsb  %ds:(%esi),(%dx)
    a635:	64 73 20             	fs jae a658 <wrap+0x9f8>
    a638:	61                   	popa   
    a639:	72 65                	jb     a6a0 <wrap+0xa40>
    a63b:	20 73 68             	and    %dh,0x68(%ebx)
    a63e:	6f                   	outsl  %ds:(%esi),(%dx)
    a63f:	77 6e                	ja     a6af <wrap+0xa4f>
    a641:	0a 0a                	or     (%edx),%cl
    a643:	00 43 68             	add    %al,0x68(%ebx)
    a646:	61                   	popa   
    a647:	6e                   	outsb  %ds:(%esi),(%dx)
    a648:	67 65 20 74 68       	and    %dh,%gs:0x68(%si)
    a64d:	65 20 63 75          	and    %ah,%gs:0x75(%ebx)
    a651:	72 72                	jb     a6c5 <wrap+0xa65>
    a653:	65 6e                	outsb  %gs:(%esi),(%dx)
    a655:	74 20                	je     a677 <wrap+0xa17>
    a657:	77 6f                	ja     a6c8 <wrap+0xa68>
    a659:	72 6b                	jb     a6c6 <wrap+0xa66>
    a65b:	69 6e 67 20 64 69 72 	imul   $0x72696420,0x67(%esi),%ebp
    a662:	65 63 74 6f 72       	arpl   %si,%gs:0x72(%edi,%ebp,2)
    a667:	79 00                	jns    a669 <wrap+0xa09>
    a669:	00 00                	add    %al,(%eax)
    a66b:	00 43 72             	add    %al,0x72(%ebx)
    a66e:	65 61                	gs popa 
    a670:	74 65                	je     a6d7 <wrap+0xa77>
    a672:	20 66 69             	and    %ah,0x69(%esi)
    a675:	6c                   	insb   (%dx),%es:(%edi)
    a676:	65 73 20             	gs jae a699 <wrap+0xa39>
    a679:	6f                   	outsl  %ds:(%esi),(%dx)
    a67a:	72 20                	jb     a69c <wrap+0xa3c>
    a67c:	75 70                	jne    a6ee <wrap+0xa8e>
    a67e:	64 61                	fs popa 
    a680:	74 65                	je     a6e7 <wrap+0xa87>
    a682:	20 61 63             	and    %ah,0x63(%ecx)
    a685:	63 65 73             	arpl   %sp,0x73(%ebp)
    a688:	73 20                	jae    a6aa <wrap+0xa4a>
    a68a:	74 69                	je     a6f5 <wrap+0xa95>
    a68c:	6d                   	insl   (%dx),%es:(%edi)
    a68d:	65 73 00             	gs jae a690 <wrap+0xa30>
    a690:	50                   	push   %eax
    a691:	72 69                	jb     a6fc <wrap+0xa9c>
    a693:	6e                   	outsb  %ds:(%esi),(%dx)
    a694:	74 73                	je     a709 <wrap+0xaa9>
    a696:	20 74 68 65          	and    %dh,0x65(%eax,%ebp,2)
    a69a:	20 63 75             	and    %ah,0x75(%ebx)
    a69d:	72 72                	jb     a711 <wrap+0xab1>
    a69f:	65 6e                	outsb  %gs:(%esi),(%dx)
    a6a1:	74 20                	je     a6c3 <wrap+0xa63>
    a6a3:	77 6f                	ja     a714 <wrap+0xab4>
    a6a5:	72 6b                	jb     a712 <wrap+0xab2>
    a6a7:	69 6e 67 20 64 69 72 	imul   $0x72696420,0x67(%esi),%ebp
    a6ae:	65 63 74 6f 72       	arpl   %si,%gs:0x72(%edi,%ebp,2)
    a6b3:	79 00                	jns    a6b5 <wrap+0xa55>
    a6b5:	00 00                	add    %al,(%eax)
    a6b7:	00 50 61             	add    %dl,0x61(%eax)
    a6ba:	75 73                	jne    a72f <wrap+0xacf>
    a6bc:	65 20 66 6f          	and    %ah,%gs:0x6f(%esi)
    a6c0:	72 20                	jb     a6e2 <wrap+0xa82>
    a6c2:	67 69 76 65 6e 20 74 	imul   $0x6974206e,0x65(%bp),%esi
    a6c9:	69 
    a6ca:	6d                   	insl   (%dx),%es:(%edi)
    a6cb:	65 20 69 6e          	and    %ch,%gs:0x6e(%ecx)
    a6cf:	74 65                	je     a736 <wrap+0xad6>
    a6d1:	72 76                	jb     a749 <wrap+0xae9>
    a6d3:	61                   	popa   
    a6d4:	6c                   	insb   (%dx),%es:(%edi)
    a6d5:	20 28                	and    %ch,(%eax)
    a6d7:	69 6e 20 73 65 63 6f 	imul   $0x6f636573,0x20(%esi),%ebp
    a6de:	6e                   	outsb  %ds:(%esi),(%dx)
    a6df:	64 73 29             	fs jae a70b <wrap+0xaab>
    a6e2:	00 00                	add    %al,(%eax)
    a6e4:	43                   	inc    %ebx
    a6e5:	6f                   	outsl  %ds:(%esi),(%dx)
    a6e6:	6d                   	insl   (%dx),%es:(%edi)
    a6e7:	70 61                	jo     a74a <wrap+0xaea>
    a6e9:	72 65                	jb     a750 <wrap+0xaf0>
    a6eb:	20 74 68 65          	and    %dh,0x65(%eax,%ebp,2)
    a6ef:	20 63 6f             	and    %ah,0x6f(%ebx)
    a6f2:	6e                   	outsb  %ds:(%esi),(%dx)
    a6f3:	74 65                	je     a75a <wrap+0xafa>
    a6f5:	6e                   	outsb  %ds:(%esi),(%dx)
    a6f6:	74 73                	je     a76b <wrap+0xb0b>
    a6f8:	20 6f 66             	and    %ch,0x66(%edi)
    a6fb:	20 74 77 6f          	and    %dh,0x6f(%edi,%esi,2)
    a6ff:	20 66 69             	and    %ah,0x69(%esi)
    a702:	6c                   	insb   (%dx),%es:(%edi)
    a703:	65 73 00             	gs jae a706 <wrap+0xaa6>
    a706:	60                   	pusha  
    a707:	25 73 27 20 63       	and    $0x63202773,%eax
    a70c:	72 65                	jb     a773 <wrap+0xb13>
    a70e:	61                   	popa   
    a70f:	74 65                	je     a776 <wrap+0xb16>
    a711:	73 20                	jae    a733 <wrap+0xad3>
    a713:	61                   	popa   
    a714:	20 6e 65             	and    %ch,0x65(%esi)
    a717:	77 20                	ja     a739 <wrap+0xad9>
    a719:	64 69 72 65 63 74 6f 	imul   $0x726f7463,%fs:0x65(%edx),%esi
    a720:	72 
    a721:	79 0a                	jns    a72d <wrap+0xacd>
    a723:	00 70 76             	add    %dh,0x76(%eax)
    a726:	68 56 66 6d 3a       	push   $0x3a6d6656
    a72b:	00 30                	add    %dh,(%eax)
    a72d:	2e 30 2e             	xor    %ch,%cs:(%esi)
    a730:	31 00                	xor    %eax,(%eax)
    a732:	25 73 3a 20 5b       	and    $0x5b203a73,%eax
    a737:	57                   	push   %edi
    a738:	5d                   	pop    %ebp
    a739:	20 49 67             	and    %cl,0x67(%ecx)
    a73c:	6e                   	outsb  %ds:(%esi),(%dx)
    a73d:	6f                   	outsl  %ds:(%esi),(%dx)
    a73e:	72 69                	jb     a7a9 <wrap+0xb49>
    a740:	6e                   	outsb  %ds:(%esi),(%dx)
    a741:	67 20 6d 6f          	and    %ch,0x6f(%di)
    a745:	64 65 20 25 73 0a 00 	fs and %ah,%gs:0x20000a73
    a74c:	20 
    a74d:	28 61 6e             	sub    %ah,0x6e(%ecx)
    a750:	64 20 61 6c          	and    %ah,%fs:0x6c(%ecx)
    a754:	6c                   	insb   (%dx),%es:(%edi)
    a755:	20 70 61             	and    %dh,0x61(%eax)
    a758:	72 65                	jb     a7bf <wrap+0xb5f>
    a75a:	6e                   	outsb  %ds:(%esi),(%dx)
    a75b:	74 73                	je     a7d0 <wrap+0xb70>
    a75d:	29 00                	sub    %eax,(%eax)
    a75f:	25 73 3a 20 63       	and    $0x63203a73,%eax
    a764:	72 65                	jb     a7cb <wrap+0xb6b>
    a766:	61                   	popa   
    a767:	74 69                	je     a7d2 <wrap+0xb72>
    a769:	6e                   	outsb  %ds:(%esi),(%dx)
    a76a:	67 20 25             	and    %ah,(%di)
    a76d:	73 25                	jae    a794 <wrap+0xb34>
    a76f:	73 0a                	jae    a77b <wrap+0xb1b>
    a771:	00 25 73 3a 20 70    	add    %ah,0x70203a73
    a777:	61                   	popa   
    a778:	74 68                	je     a7e2 <wrap+0xb82>
    a77a:	20 74 6f 6f          	and    %dh,0x6f(%edi,%ebp,2)
    a77e:	20 62 69             	and    %ah,0x69(%edx)
    a781:	67 3f                	addr16 aas 
    a783:	00 25 73 3a 20 63    	add    %ah,0x63203a73
    a789:	6f                   	outsl  %ds:(%esi),(%dx)
    a78a:	75 6c                	jne    a7f8 <wrap+0xb98>
    a78c:	64 20 6e 6f          	and    %ch,%fs:0x6f(%esi)
    a790:	74 20                	je     a7b2 <wrap+0xb52>
    a792:	63 72 65             	arpl   %si,0x65(%edx)
    a795:	61                   	popa   
    a796:	74 65                	je     a7fd <wrap+0xb9d>
    a798:	20 25 73 20 28 25    	and    %ah,0x25282073
    a79e:	73 29                	jae    a7c9 <wrap+0xb69>
    a7a0:	00 70 61             	add    %dh,0x61(%eax)
    a7a3:	72 65                	jb     a80a <wrap+0xbaa>
    a7a5:	6e                   	outsb  %ds:(%esi),(%dx)
    a7a6:	74 73                	je     a81b <wrap+0xbbb>
    a7a8:	00 76 65             	add    %dh,0x65(%esi)
    a7ab:	72 62                	jb     a80f <wrap+0xbaf>
    a7ad:	6f                   	outsl  %ds:(%esi),(%dx)
    a7ae:	73 65                	jae    a815 <wrap+0xbb5>
    a7b0:	00 6d 6f             	add    %ch,0x6f(%ebp)
    a7b3:	64 65 00 76 65       	fs add %dh,%gs:0x65(%esi)
    a7b8:	72 73                	jb     a82d <wrap+0xbcd>
    a7ba:	69 6f 6e 00 66 6f 6c 	imul   $0x6c6f6600,0x6e(%edi),%ebp
    a7c1:	6c                   	insb   (%dx),%es:(%edi)
    a7c2:	6f                   	outsl  %ds:(%esi),(%dx)
    a7c3:	77 00                	ja     a7c5 <wrap+0xb65>
    a7c5:	66 90                	xchg   %ax,%ax
    a7c7:	90                   	nop
    a7c8:	55                   	push   %ebp
    a7c9:	73 61                	jae    a82c <wrap+0xbcc>
    a7cb:	67 65 3a 20          	cmp    %gs:(%bx,%si),%ah
    a7cf:	20 25 73 20 5b 6f    	and    %ah,0x6f5b2073
    a7d5:	70 74                	jo     a84b <wrap+0xbeb>
    a7d7:	69 6f 6e 73 5d 20 3c 	imul   $0x3c205d73,0x6e(%edi),%ebp
    a7de:	70 61                	jo     a841 <wrap+0xbe1>
    a7e0:	74 68                	je     a84a <wrap+0xbea>
    a7e2:	3e 0a 4f 70          	or     %ds:0x70(%edi),%cl
    a7e6:	74 69                	je     a851 <wrap+0xbf1>
    a7e8:	6f                   	outsl  %ds:(%esi),(%dx)
    a7e9:	6e                   	outsb  %ds:(%esi),(%dx)
    a7ea:	73 3a                	jae    a826 <wrap+0xbc6>
    a7ec:	0a 20                	or     (%eax),%ah
    a7ee:	20 2d 68 2c 20 2d    	and    %ch,0x2d202c68
    a7f4:	2d 68 65 6c 70       	sub    $0x706c6568,%eax
    a7f9:	20 20                	and    %ah,(%eax)
    a7fb:	20 20                	and    %ah,(%eax)
    a7fd:	20 20                	and    %ah,(%eax)
    a7ff:	20 41 20             	and    %al,0x20(%ecx)
    a802:	73 68                	jae    a86c <wrap+0xc0c>
    a804:	6f                   	outsl  %ds:(%esi),(%dx)
    a805:	72 74                	jb     a87b <wrap+0xc1b>
    a807:	20 6f 70             	and    %ch,0x70(%edi)
    a80a:	74 69                	je     a875 <wrap+0xc15>
    a80c:	6f                   	outsl  %ds:(%esi),(%dx)
    a80d:	6e                   	outsb  %ds:(%esi),(%dx)
    a80e:	20 73 75             	and    %dh,0x75(%ebx)
    a811:	6d                   	insl   (%dx),%es:(%edi)
    a812:	6d                   	insl   (%dx),%es:(%edi)
    a813:	61                   	popa   
    a814:	72 79                	jb     a88f <wrap+0xc2f>
    a816:	0a 20                	or     (%eax),%ah
    a818:	20 2d 56 2c 20 2d    	and    %ch,0x2d202c56
    a81e:	2d 76 65 72 73       	sub    $0x73726576,%eax
    a823:	69 6f 6e 20 20 20 20 	imul   $0x20202020,0x6e(%edi),%ebp
    a82a:	50                   	push   %eax
    a82b:	72 69                	jb     a896 <wrap+0xc36>
    a82d:	6e                   	outsb  %ds:(%esi),(%dx)
    a82e:	74 20                	je     a850 <wrap+0xbf0>
    a830:	76 65                	jbe    a897 <wrap+0xc37>
    a832:	72 73                	jb     a8a7 <wrap+0xc47>
    a834:	69 6f 6e 20 69 6e 66 	imul   $0x666e6920,0x6e(%edi),%ebp
    a83b:	6f                   	outsl  %ds:(%esi),(%dx)
    a83c:	72 6d                	jb     a8ab <wrap+0xc4b>
    a83e:	61                   	popa   
    a83f:	74 69                	je     a8aa <wrap+0xc4a>
    a841:	6f                   	outsl  %ds:(%esi),(%dx)
    a842:	6e                   	outsb  %ds:(%esi),(%dx)
    a843:	20 61 6e             	and    %ah,0x6e(%ecx)
    a846:	64 20 65 78          	and    %ah,%fs:0x78(%ebp)
    a84a:	69 74 0a 20 20 2d 70 	imul   $0x2c702d20,0x20(%edx,%ecx,1),%esi
    a851:	2c 
    a852:	20 2d 2d 70 61 72    	and    %ch,0x7261702d
    a858:	65 6e                	outsb  %gs:(%esi),(%dx)
    a85a:	74 73                	je     a8cf <wrap+0xc6f>
    a85c:	20 20                	and    %ah,(%eax)
    a85e:	20 20                	and    %ah,(%eax)
    a860:	43                   	inc    %ebx
    a861:	72 65                	jb     a8c8 <wrap+0xc68>
    a863:	61                   	popa   
    a864:	74 65                	je     a8cb <wrap+0xc6b>
    a866:	20 6e 65             	and    %ch,0x65(%esi)
    a869:	65 64 65 64 20 70 61 	gs fs gs and %dh,%fs:0x61(%eax)
    a870:	72 65                	jb     a8d7 <wrap+0xc77>
    a872:	6e                   	outsb  %ds:(%esi),(%dx)
    a873:	74 73                	je     a8e8 <wrap+0xc88>
    a875:	20 66 6f             	and    %ah,0x6f(%esi)
    a878:	72 20                	jb     a89a <wrap+0xc3a>
    a87a:	3c 70                	cmp    $0x70,%al
    a87c:	61                   	popa   
    a87d:	74 68                	je     a8e7 <wrap+0xc87>
    a87f:	3e 0a 20             	or     %ds:(%eax),%ah
    a882:	20 2d 6d 2c 20 2d    	and    %ch,0x2d202c6d
    a888:	2d 6d 6f 64 65       	sub    $0x65646f6d,%eax
    a88d:	20 20                	and    %ah,(%eax)
    a88f:	20 20                	and    %ah,(%eax)
    a891:	20 20                	and    %ah,(%eax)
    a893:	20 53 65             	and    %dl,0x65(%ebx)
    a896:	74 20                	je     a8b8 <wrap+0xc58>
    a898:	70 65                	jo     a8ff <wrap+0xc9f>
    a89a:	72 6d                	jb     a909 <wrap+0xca9>
    a89c:	69 73 73 69 6f 6e 73 	imul   $0x736e6f69,0x73(%ebx),%esi
    a8a3:	20 74 6f 20          	and    %dh,0x20(%edi,%ebp,2)
    a8a7:	5b                   	pop    %ebx
    a8a8:	6d                   	insl   (%dx),%es:(%edi)
    a8a9:	6f                   	outsl  %ds:(%esi),(%dx)
    a8aa:	64 65 5d             	fs gs pop %ebp
    a8ad:	20 28                	and    %ch,(%eax)
    a8af:	55                   	push   %ebp
    a8b0:	4e                   	dec    %esi
    a8b1:	55                   	push   %ebp
    a8b2:	53                   	push   %ebx
    a8b3:	45                   	inc    %ebp
    a8b4:	44                   	inc    %esp
    a8b5:	29 0a                	sub    %ecx,(%edx)
    a8b7:	20 20                	and    %ah,(%eax)
    a8b9:	2d 76 2c 20 2d       	sub    $0x2d202c76,%eax
    a8be:	2d 76 65 72 62       	sub    $0x62726576,%eax
    a8c3:	6f                   	outsl  %ds:(%esi),(%dx)
    a8c4:	73 65                	jae    a92b <wrap+0xccb>
    a8c6:	20 20                	and    %ah,(%eax)
    a8c8:	20 20                	and    %ah,(%eax)
    a8ca:	42                   	inc    %edx
    a8cb:	65 20 65 78          	and    %ah,%gs:0x78(%ebp)
    a8cf:	74 72                	je     a943 <wrap+0xce3>
    a8d1:	65 6d                	gs insl (%dx),%es:(%edi)
    a8d3:	65 6c                	gs insb (%dx),%es:(%edi)
    a8d5:	79 20                	jns    a8f7 <wrap+0xc97>
    a8d7:	6e                   	outsb  %ds:(%esi),(%dx)
    a8d8:	6f                   	outsl  %ds:(%esi),(%dx)
    a8d9:	69 73 79 20 61 62 6f 	imul   $0x6f626120,0x79(%ebx),%esi
    a8e0:	75 74                	jne    a956 <wrap+0xcf6>
    a8e2:	20 77 68             	and    %dh,0x68(%edi)
    a8e5:	61                   	popa   
    a8e6:	74 20                	je     a908 <wrap+0xca8>
    a8e8:	69 73 20 68 61 70 70 	imul   $0x70706168,0x20(%ebx),%esi
    a8ef:	65 6e                	outsb  %gs:(%esi),(%dx)
    a8f1:	69 6e 67 0a 20 20 2d 	imul   $0x2d20200a,0x67(%esi),%ebp
    a8f8:	66 2c 20             	data16 sub $0x20,%al
    a8fb:	2d 2d 66 6f 6c       	sub    $0x6c6f662d,%eax
    a900:	6c                   	insb   (%dx),%es:(%edi)
    a901:	6f                   	outsl  %ds:(%esi),(%dx)
    a902:	77 20                	ja     a924 <wrap+0xcc4>
    a904:	20 20                	and    %ah,(%eax)
    a906:	20 20                	and    %ah,(%eax)
    a908:	47                   	inc    %edi
    a909:	6f                   	outsl  %ds:(%esi),(%dx)
    a90a:	20 74 6f 20          	and    %dh,0x20(%edi,%ebp,2)
    a90e:	74 68                	je     a978 <wrap+0xd18>
    a910:	65 20 6e 65          	and    %ch,%gs:0x65(%esi)
    a914:	77 20                	ja     a936 <wrap+0xcd6>
    a916:	64 69 72 65 63 74 6f 	imul   $0x726f7463,%fs:0x65(%edx),%esi
    a91d:	72 
    a91e:	79 20                	jns    a940 <wrap+0xce0>
    a920:	6f                   	outsl  %ds:(%esi),(%dx)
    a921:	6e                   	outsb  %ds:(%esi),(%dx)
    a922:	63 65 20             	arpl   %sp,0x20(%ebp)
    a925:	63 72 65             	arpl   %si,0x65(%edx)
    a928:	61                   	popa   
    a929:	74 65                	je     a990 <wrap+0xd30>
    a92b:	64 0a 43 75          	or     %fs:0x75(%ebx),%al
    a92f:	72 72                	jb     a9a3 <wrap+0xd43>
    a931:	65 6e                	outsb  %gs:(%esi),(%dx)
    a933:	74 6c                	je     a9a1 <wrap+0xd41>
    a935:	79 2c                	jns    a963 <wrap+0xd03>
    a937:	20 25 73 20 69 73    	and    %ah,0x73692073
    a93d:	20 75 6e             	and    %dh,0x6e(%ebp)
    a940:	64 65 72 20          	fs gs jb a964 <wrap+0xd04>
    a944:	64 65 76 65          	fs gs jbe a9ad <wrap+0xd4d>
    a948:	6c                   	insb   (%dx),%es:(%edi)
    a949:	6f                   	outsl  %ds:(%esi),(%dx)
    a94a:	70 6d                	jo     a9b9 <wrap+0xd59>
    a94c:	65 6e                	outsb  %gs:(%esi),(%dx)
    a94e:	74 2c                	je     a97c <wrap+0xd1c>
    a950:	20 73 6f             	and    %dh,0x6f(%ebx)
    a953:	6d                   	insl   (%dx),%es:(%edi)
    a954:	65 20 6f 70          	and    %ch,%gs:0x70(%edi)
    a958:	74 69                	je     a9c3 <wrap+0xd63>
    a95a:	6f                   	outsl  %ds:(%esi),(%dx)
    a95b:	6e                   	outsb  %ds:(%esi),(%dx)
    a95c:	73 20                	jae    a97e <wrap+0xd1e>
    a95e:	64 6f                	outsl  %fs:(%esi),(%dx)
    a960:	6e                   	outsb  %ds:(%esi),(%dx)
    a961:	27                   	daa    
    a962:	74 20                	je     a984 <wrap+0xd24>
    a964:	77 6f                	ja     a9d5 <wrap+0xd75>
    a966:	72 6b                	jb     a9d3 <wrap+0xd73>
    a968:	2e 0a 00             	or     %cs:(%eax),%al
    a96b:	00 25 73 20 2d 20    	add    %ah,0x202d2073
    a971:	69 6e 63 6f 72 72 65 	imul   $0x6572726f,0x63(%esi),%ebp
    a978:	63 74 20 6e          	arpl   %si,0x6e(%eax,%eiz,1)
    a97c:	75 6d                	jne    a9eb <wrap+0xd8b>
    a97e:	62 65 72             	bound  %esp,0x72(%ebp)
    a981:	20 6f 66             	and    %ch,0x66(%edi)
    a984:	20 61 72             	and    %ah,0x72(%ecx)
    a987:	67 75 6d             	addr16 jne a9f7 <wrap+0xd97>
    a98a:	65 6e                	outsb  %gs:(%esi),(%dx)
    a98c:	74 73                	je     aa01 <wrap+0xda1>
    a98e:	2e 20 54 72 79       	and    %dl,%cs:0x79(%edx,%esi,2)
    a993:	20 60 25             	and    %ah,0x25(%eax)
    a996:	73 20                	jae    a9b8 <wrap+0xd58>
    a998:	2d 2d 68 65 6c       	sub    $0x6c65682d,%eax
    a99d:	70 27                	jo     a9c6 <wrap+0xd66>
    a99f:	0a 00                	or     (%eax),%al
    a9a1:	00 00                	add    %al,(%eax)
    a9a3:	00 25 73 3a 20 45    	add    %ah,0x45203a73
    a9a9:	72 72                	jb     aa1d <wrap+0xdbd>
    a9ab:	6f                   	outsl  %ds:(%esi),(%dx)
    a9ac:	72 20                	jb     a9ce <wrap+0xd6e>
    a9ae:	73 77                	jae    aa27 <wrap+0xdc7>
    a9b0:	69 74 63 68 69 6e 67 	imul   $0x20676e69,0x68(%ebx,%eiz,2),%esi
    a9b7:	20 
    a9b8:	74 6f                	je     aa29 <wrap+0xdc9>
    a9ba:	20 64 69 72          	and    %ah,0x72(%ecx,%ebp,2)
    a9be:	65 63 74 6f 72       	arpl   %si,%gs:0x72(%edi,%ebp,2)
    a9c3:	79 2e                	jns    a9f3 <wrap+0xd93>
    a9c5:	00 66 90             	add    %ah,-0x70(%esi)
    a9c8:	66 90                	xchg   %ax,%ax
    a9ca:	66 90                	xchg   %ax,%ax
    a9cc:	66 90                	xchg   %ax,%ax
    a9ce:	66 90                	xchg   %ax,%ax
    a9d0:	66 90                	xchg   %ax,%ax
    a9d2:	66 90                	xchg   %ax,%ax
    a9d4:	66 90                	xchg   %ax,%ax
    a9d6:	66 90                	xchg   %ax,%ax
    a9d8:	66 90                	xchg   %ax,%ax
    a9da:	66 90                	xchg   %ax,%ax
    a9dc:	66 90                	xchg   %ax,%ax
    a9de:	66 90                	xchg   %ax,%ax
    a9e0:	30 15 00 00 50 15    	xor    %dl,0x15500000
    a9e6:	00 00                	add    %al,(%eax)
    a9e8:	50                   	push   %eax
    a9e9:	15 00 00 50 15       	adc    $0x15500000,%eax
    a9ee:	00 00                	add    %al,(%eax)
    a9f0:	50                   	push   %eax
    a9f1:	15 00 00 50 15       	adc    $0x15500000,%eax
    a9f6:	00 00                	add    %al,(%eax)
    a9f8:	50                   	push   %eax
    a9f9:	15 00 00 50 15       	adc    $0x15500000,%eax
    a9fe:	00 00                	add    %al,(%eax)
    aa00:	50                   	push   %eax
    aa01:	15 00 00 50 15       	adc    $0x15500000,%eax
    aa06:	00 00                	add    %al,(%eax)
    aa08:	50                   	push   %eax
    aa09:	15 00 00 50 15       	adc    $0x15500000,%eax
    aa0e:	00 00                	add    %al,(%eax)
    aa10:	50                   	push   %eax
    aa11:	15 00 00 50 15       	adc    $0x15500000,%eax
    aa16:	00 00                	add    %al,(%eax)
    aa18:	50                   	push   %eax
    aa19:	15 00 00 50 15       	adc    $0x15500000,%eax
    aa1e:	00 00                	add    %al,(%eax)
    aa20:	c0 14 00 00          	rclb   $0x0,(%eax,%eax,1)
    aa24:	50                   	push   %eax
    aa25:	15 00 00 f8 14       	adc    $0x14f80000,%eax
    aa2a:	00 00                	add    %al,(%eax)
    aa2c:	50                   	push   %eax
    aa2d:	15 00 00 50 15       	adc    $0x15500000,%eax
    aa32:	00 00                	add    %al,(%eax)
    aa34:	50                   	push   %eax
    aa35:	15 00 00 50 15       	adc    $0x15500000,%eax
    aa3a:	00 00                	add    %al,(%eax)
    aa3c:	c8 14 00 00          	enter  $0x14,$0x0
    aa40:	50                   	push   %eax
    aa41:	15 00 00 50 15       	adc    $0x15500000,%eax
    aa46:	00 00                	add    %al,(%eax)
    aa48:	f0 14 00             	lock adc $0x0,%al
    aa4b:	00 50 15             	add    %dl,0x15(%eax)
    aa4e:	00 00                	add    %al,(%eax)
    aa50:	50                   	push   %eax
    aa51:	15 00 00 50 15       	adc    $0x15500000,%eax
    aa56:	00 00                	add    %al,(%eax)
    aa58:	50                   	push   %eax
    aa59:	15 00 00 50 15       	adc    $0x15500000,%eax
    aa5e:	00 00                	add    %al,(%eax)
    aa60:	e8 14 00 00 00       	call   aa79 <wrap+0xe19>
	...

0000aa80 <long_options>:
    aa80:	a1 a7 00 00 00 00 00 00 00 00 00 00 70 00 00 00     ............p...
    aa90:	a9 a7 00 00 00 00 00 00 00 00 00 00 76 00 00 00     ............v...
    aaa0:	b1 a7 00 00 01 00 00 00 00 00 00 00 6d 00 00 00     ............m...
    aab0:	7c 9e 00 00 00 00 00 00 00 00 00 00 68 00 00 00     |...........h...
    aac0:	b6 a7 00 00 00 00 00 00 00 00 00 00 56 00 00 00     ............V...
    aad0:	be a7 00 00 00 00 00 00 00 00 00 00 66 00 00 00     ............f...
	...
    aaf0:	70 73 3a 68 00 25 73 3a 20 45 72 72 6f 72 2c 20     ps:h.%s: Error, 
    ab00:	6f 75 74 20 6f 66 20 6d 65 6d 6f 72 79 2e 0a 00     out of memory...
    ab10:	25 73 3a 20 45 72 72 6f 72 20 77 72 69 74 69 6e     %s: Error writin
    ab20:	67 20 66 69 6c 65 20 28 25 64 29 2e 0a 00 73 69     g file (%d)...si
    ab30:	7a 65 00 73 70 61 72 73 65 00 66 90 60 25 73 27     ze.sparse.f.`%s'
    ab40:	20 63 72 65 61 74 65 73 20 61 20 6e 65 77 20 7a      creates a new z
    ab50:	65 72 6f 2d 66 69 6c 6c 65 64 20 66 69 6c 65 0a     ero-filled file.
    ab60:	00 00 00 00 55 73 61 67 65 3a 20 20 25 73 20 5b     ....Usage:  %s [
    ab70:	6f 70 74 69 6f 6e 73 5d 20 3c 70 61 74 68 3e 0a     options] <path>.
    ab80:	4f 70 74 69 6f 6e 73 3a 0a 20 20 2d 68 2c 20 2d     Options:.  -h, -
    ab90:	2d 68 65 6c 70 20 20 20 20 20 20 20 41 20 73 68     -help       A sh
    aba0:	6f 72 74 20 6f 70 74 69 6f 6e 20 73 75 6d 6d 61     ort option summa
    abb0:	72 79 0a 20 20 2d 73 2c 20 2d 2d 73 69 7a 65 20     ry.  -s, --size 
    abc0:	73 7a 20 20 20 20 53 69 7a 65 20 6f 66 20 74 68     sz    Size of th
    abd0:	65 20 66 69 6c 65 0a 20 20 2d 70 2c 20 2d 2d 73     e file.  -p, --s
    abe0:	70 61 72 73 65 20 20 20 20 20 43 72 65 61 74 65     parse     Create
    abf0:	20 61 20 73 70 61 72 73 65 20 66 69 6c 65 0a 0a      a sparse file..
    ac00:	53 69 7a 65 20 69 73 20 61 20 6e 75 6d 62 65 72     Size is a number
    ac10:	20 66 6f 6c 6c 6f 77 65 64 20 62 79 20 27 6b 27      followed by 'k'
    ac20:	2c 20 27 6d 27 20 6f 72 20 27 67 27 20 66 6f 72     , 'm' or 'g' for
    ac30:	20 6b 42 2c 20 4d 42 2c 20 47 42 2e 0a 45 2e 67      kB, MB, GB..E.g
    ac40:	2e 20 31 30 30 6b 2c 20 32 6d 2c 20 31 67 2e 0a     . 100k, 2m, 1g..
    ac50:	00 00 00 00 25 73 3a 20 49 6e 76 61 6c 69 64 20     ....%s: Invalid 
    ac60:	66 69 6c 65 20 73 69 7a 65 20 73 70 65 63 69 66     file size specif
    ac70:	69 63 61 74 69 6f 6e 2e 0a 00 00 00 25 73 3a 20     ication.....%s: 
    ac80:	69 6e 63 6f 72 72 65 63 74 20 6e 75 6d 62 65 72     incorrect number
    ac90:	20 6f 66 20 61 72 67 75 6d 65 6e 74 73 2e 20 54      of arguments. T
    aca0:	72 79 20 60 25 73 20 2d 2d 68 65 6c 70 27 0a 00     ry `%s --help'..
    acb0:	25 73 3a 20 66 61 69 6c 65 64 20 74 6f 20 63 72     %s: failed to cr
    acc0:	65 61 74 65 20 66 69 6c 65 20 25 73 2e 0a 00 66     eate file %s...f
    acd0:	90 66 90 66 90 66 90 66 90 66 90 66 90 66 90 90     .f.f.f.f.f.f.f..

0000ace0 <long_options>:
    ace0:	2e ab 00 00 01 00 00 00 00 00 00 00 73 00 00 00     ............s...
    acf0:	33 ab 00 00 00 00 00 00 00 00 00 00 70 00 00 00     3...........p...
    ad00:	7c 9e 00 00 00 00 00 00 00 00 00 00 68 00 00 00     |...........h...
	...
    ad20:	43 6f 75 6c 64 20 6e 6f 74 20 6f 70 65 6e 20 25     Could not open %
    ad30:	73 00 25 73 2f 25 73 00 72 6d 3a 20 63 6f 75 6c     s.%s/%s.rm: coul
    ad40:	64 20 6e 6f 74 20 72 65 6d 6f 76 65 20 66 69 6c     d not remove fil
    ad50:	65 20 25 73 00 43 61 6e 20 6e 6f 74 20 72 65 6d     e %s.Can not rem
    ad60:	6f 76 65 20 25 73 00 68 76 72 66 73 00 72 6d 3a     ove %s.hvrfs.rm:
    ad70:	20 6f 75 74 20 6f 66 20 6d 65 6d 6f 72 79 0a 00      out of memory..
    ad80:	25 73 3a 20 63 6f 75 6c 64 20 6e 6f 74 20 69 6e     %s: could not in
    ad90:	69 74 69 61 6c 69 7a 65 00 72 65 63 75 72 73 69     itialize.recursi
    ada0:	76 65 00 66 6f 72 63 65 00 73 61 66 65 00 66 90     ve.force.safe.f.
    adb0:	60 25 73 27 20 72 65 6d 6f 76 65 73 20 66 69 6c     `%s' removes fil
    adc0:	65 73 20 61 6e 64 20 64 69 72 65 63 74 6f 72 69     es and directori
    add0:	65 73 2e 0a 00 00 00 00 55 73 61 67 65 3a 20 20     es......Usage:  
    ade0:	25 73 20 5b 6f 70 74 69 6f 6e 73 5d 20 3c 70 61     %s [options] <pa
    adf0:	74 68 3e 0a 4f 70 74 69 6f 6e 73 3a 0a 20 20 2d     th>.Options:.  -
    ae00:	68 2c 20 2d 2d 68 65 6c 70 20 20 20 20 20 20 20     h, --help       
    ae10:	41 20 73 68 6f 72 74 20 6f 70 74 69 6f 6e 20 73     A short option s
    ae20:	75 6d 6d 61 72 79 0a 20 20 2d 76 2c 20 2d 2d 76     ummary.  -v, --v
    ae30:	65 72 73 69 6f 6e 20 20 20 20 50 72 69 6e 74 20     ersion    Print 
    ae40:	76 65 72 73 69 6f 6e 20 69 6e 66 6f 72 6d 61 74     version informat
    ae50:	69 6f 6e 20 61 6e 64 20 65 78 69 74 0a 20 20 2d     ion and exit.  -
    ae60:	72 2c 20 2d 2d 72 65 63 75 72 73 69 76 65 20 20     r, --recursive  
    ae70:	52 65 63 75 72 73 69 76 65 6c 79 20 72 65 6d 6f     Recursively remo
    ae80:	76 65 20 73 75 62 20 64 69 72 65 63 74 6f 72 69     ve sub directori
    ae90:	65 73 0a 20 20 2d 66 2c 20 2d 2d 66 6f 72 63 65     es.  -f, --force
    aea0:	20 20 20 20 20 20 44 6f 20 6e 6f 74 20 70 72 6f           Do not pro
    aeb0:	6d 70 74 20 70 72 69 6f 72 20 74 6f 20 72 65 6d     mpt prior to rem
    aec0:	6f 76 69 6e 67 20 66 69 6c 65 73 0a 20 20 2d 73     oving files.  -s
    aed0:	2c 20 2d 2d 73 61 66 65 20 20 20 20 20 20 20 53     , --safe       S
    aee0:	74 6f 70 20 69 66 20 64 69 72 65 63 74 6f 72 69     top if directori
    aef0:	65 73 20 63 68 61 6e 67 65 20 64 75 72 69 6e 67     es change during
    af00:	20 72 65 6d 6f 76 61 6c 0a 0a 43 75 72 72 65 6e      removal..Curren
    af10:	74 6c 79 2c 20 25 73 20 69 73 20 75 6e 64 65 72     tly, %s is under
    af20:	20 64 65 76 65 6c 6f 70 6d 65 6e 74 2c 20 73 6f      development, so
    af30:	6d 65 20 6f 70 74 69 6f 6e 73 20 64 6f 6e 27 74     me options don't
    af40:	20 77 6f 72 6b 2e 0a 00 25 73 3a 20 69 6e 73 75      work...%s: insu
    af50:	66 66 69 63 69 65 6e 74 20 61 72 67 75 6d 65 6e     fficient argumen
    af60:	74 73 2e 20 54 72 79 20 25 73 20 2d 2d 68 65 6c     ts. Try %s --hel
    af70:	70 00 00 00 25 73 20 69 73 20 61 20 64 69 72 65     p...%s is a dire
    af80:	63 74 6f 72 79 2c 20 75 73 65 20 2d 72 20 74 6f     ctory, use -r to
    af90:	20 72 65 6d 6f 76 65 20 69 74 2e 0a 00 66 90 90      remove it...f..
    afa0:	90 1d 00 00 18 1e 00 00 e0 1d 00 00 18 1e 00 00     ................
    afb0:	18 1e 00 00 18 1e 00 00 18 1e 00 00 18 1e 00 00     ................
    afc0:	18 1e 00 00 18 1e 00 00 18 1e 00 00 18 1e 00 00     ................
    afd0:	d0 1d 00 00 c0 1d 00 00 18 1e 00 00 18 1e 00 00     ................
    afe0:	a0 1d 00 00 00 00 00 00 00 00 00 00 00 00 00 00     ................
	...

0000b000 <long_options>:
    b000:	7c 9e 00 00 00 00 00 00 00 00 00 00 68 00 00 00     |...........h...
    b010:	b6 a7 00 00 00 00 00 00 00 00 00 00 76 00 00 00     ............v...
    b020:	99 ad 00 00 00 00 00 00 00 00 00 00 72 00 00 00     ............r...
    b030:	a3 ad 00 00 00 00 00 00 00 00 00 00 66 00 00 00     ............f...
    b040:	a9 ad 00 00 00 00 00 00 00 00 00 00 73 00 00 00     ............s...
	...
    b060:	45 4e 54 45 52 2f 53 50 41 43 45 2f 50 41 47 45     ENTER/SPACE/PAGE
    b070:	20 44 4f 57 4e 20 2d 20 6e 65 78 74 20 70 61 67      DOWN - next pag
    b080:	65 2c 20 45 53 43 2f 51 20 2d 20 71 75 69 74 2c     e, ESC/Q - quit,
    b090:	20 43 20 2d 20 63 6f 6e 74 69 6e 75 65 20 75 6e      C - continue un
    b0a0:	70 61 67 65 64 00 00 00 60 25 73 27 20 73 68 6f     paged...`%s' sho
    b0b0:	77 73 20 74 68 65 20 63 6f 6e 74 65 6e 74 73 20     ws the contents 
    b0c0:	6f 66 20 66 69 6c 65 73 0a 00 00 00 55 73 61 67     of files....Usag
    b0d0:	65 3a 20 20 25 73 20 5b 6f 70 74 69 6f 6e 73 5d     e:  %s [options]
    b0e0:	20 3c 66 69 6c 65 31 3e 20 5b 66 69 6c 65 32 5d      <file1> [file2]
    b0f0:	20 5b 2e 2e 2e 5d 0a 4f 70 74 69 6f 6e 73 3a 0a      [...].Options:.
    b100:	20 20 2d 68 2c 20 2d 2d 68 65 6c 70 20 20 20 20       -h, --help    
    b110:	20 20 20 41 20 73 68 6f 72 74 20 6f 70 74 69 6f        A short optio
    b120:	6e 20 73 75 6d 6d 61 72 79 0a 20 20 2d 76 2c 20     n summary.  -v, 
    b130:	2d 2d 76 65 72 73 69 6f 6e 20 20 20 20 50 72 69     --version    Pri
    b140:	6e 74 20 76 65 72 73 69 6f 6e 20 69 6e 66 6f 72     nt version infor
    b150:	6d 61 74 69 6f 6e 20 61 6e 64 20 65 78 69 74 0a     mation and exit.
    b160:	20 20 2d 48 2c 20 2d 2d 68 65 61 64 20 23 23 20       -H, --head ## 
    b170:	20 20 20 50 72 69 6e 74 20 6f 6e 6c 79 20 74 68        Print only th
    b180:	65 20 66 69 72 73 74 20 23 23 20 62 79 74 65 73     e first ## bytes
    b190:	0a 20 20 2d 74 2c 20 2d 2d 74 61 69 6c 20 23 23     .  -t, --tail ##
    b1a0:	20 20 20 20 50 72 69 6e 74 20 6f 6e 6c 79 20 74         Print only t
    b1b0:	68 65 20 6c 61 73 74 20 23 23 20 62 79 74 65 73     he last ## bytes
    b1c0:	0a 20 20 2d 62 2c 20 2d 2d 62 75 66 66 65 72 20     .  -b, --buffer 
    b1d0:	23 23 20 20 53 65 74 20 74 68 65 20 72 65 61 64     ##  Set the read
    b1e0:	20 62 75 66 66 65 72 20 73 69 7a 65 20 74 6f 20      buffer size to 
    b1f0:	23 23 0a 20 20 2d 6d 2c 20 2d 2d 6d 6f 72 65 20     ##.  -m, --more 
    b200:	20 20 20 20 20 20 50 61 75 73 65 20 61 66 74 65           Pause afte
    b210:	72 20 65 61 63 68 20 73 63 72 65 65 6e 20 66 75     r each screen fu
    b220:	6c 6c 0a 20 20 2d 78 2c 20 2d 2d 68 65 78 20 20     ll.  -x, --hex  
    b230:	20 20 20 20 20 20 50 72 69 6e 74 20 62 79 74 65           Print byte
    b240:	73 20 61 73 20 68 65 78 20 76 61 6c 75 65 73 0a     s as hex values.
    b250:	20 20 2d 73 2c 20 2d 2d 73 74 64 69 6e 20 20 20       -s, --stdin   
    b260:	20 20 20 54 72 65 61 74 20 60 2d 27 20 69 6e 20        Treat `-' in 
    b270:	66 69 6c 65 20 6c 69 73 74 20 61 73 20 73 74 61     file list as sta
    b280:	6e 64 61 72 64 20 69 6e 70 75 74 0a 20 20 2d 6e     ndard input.  -n
    b290:	2c 20 2d 2d 6e 75 6d 62 65 72 20 20 20 20 20 4e     , --number     N
    b2a0:	75 6d 62 65 72 20 61 6c 6c 20 6f 75 74 70 75 74     umber all output
    b2b0:	20 6c 69 6e 65 73 0a 43 75 72 72 65 6e 74 6c 79      lines.Currently
    b2c0:	2c 20 25 73 20 69 73 20 75 6e 64 65 72 20 64 65     , %s is under de
    b2d0:	76 65 6c 6f 70 6d 65 6e 74 2c 20 73 6f 6d 65 20     velopment, some 
    b2e0:	6f 70 74 69 6f 6e 73 20 64 6f 6e 27 74 20 77 6f     options don't wo
    b2f0:	72 6b 2e 0a 00 00 00 00 55 6e 61 62 6c 65 20 74     rk......Unable t
    b300:	6f 20 61 6c 6c 6f 63 61 74 65 20 65 6e 6f 75 67     o allocate enoug
    b310:	68 20 6d 65 6d 6f 72 79 20 74 6f 20 72 65 61 64     h memory to read
    b320:	20 25 73 0a 00 78 68 76 6d 48 3a 74 3a 62 3a 73      %s..xhvmH:t:b:s
    b330:	3a 6e 00 49 6e 76 61 6c 69 64 20 68 65 61 64 20     :n.Invalid head 
    b340:	73 69 7a 65 0a 00 49 6e 76 61 6c 69 64 20 74 61     size..Invalid ta
    b350:	69 6c 20 73 69 7a 65 0a 00 49 6e 76 61 6c 69 64     il size..Invalid
    b360:	20 62 75 66 66 65 72 20 73 69 7a 65 0a 00 25 73      buffer size..%s
    b370:	20 2d 20 63 61 6e 6e 6f 74 20 67 65 74 20 63 6f      - cannot get co
    b380:	6e 73 6f 6c 65 20 73 69 7a 65 0a 00 55 6e 61 62     nsole size..Unab
    b390:	6c 65 20 74 6f 20 6f 70 65 6e 20 25 73 0a 00 30     le to open %s..0
    b3a0:	31 32 33 34 35 36 37 38 39 61 62 63 64 65 66 00     123456789abcdef.
    b3b0:	25 36 75 20 20 00 45 72 72 6f 72 20 72 65 61 64     %6u  .Error read
    b3c0:	69 6e 67 20 25 73 0a 00 68 65 61 64 00 74 61 69     ing %s..head.tai
    b3d0:	6c 00 62 75 66 66 65 72 00 6d 6f 72 65 00 68 65     l.buffer.more.he
    b3e0:	78 00 73 74 64 69 6e 00 6e 75 6d 62 65 72 00 66     x.stdin.number.f
    b3f0:	90 66 90 66 90 66 90 66 90 66 90 66 90 66 90 90     .f.f.f.f.f.f.f..
    b400:	88 23 00 00 37 24 00 00 37 24 00 00 37 24 00 00     .#..7$..7$..7$..
    b410:	37 24 00 00 37 24 00 00 37 24 00 00 37 24 00 00     7$..7$..7$..7$..
    b420:	37 24 00 00 37 24 00 00 37 24 00 00 37 24 00 00     7$..7$..7$..7$..
    b430:	37 24 00 00 37 24 00 00 37 24 00 00 37 24 00 00     7$..7$..7$..7$..
    b440:	37 24 00 00 37 24 00 00 37 24 00 00 37 24 00 00     7$..7$..7$..7$..
    b450:	37 24 00 00 37 24 00 00 37 24 00 00 37 24 00 00     7$..7$..7$..7$..
    b460:	37 24 00 00 37 24 00 00 45 23 00 00 37 24 00 00     7$..7$..E#..7$..
    b470:	37 24 00 00 37 24 00 00 37 24 00 00 37 24 00 00     7$..7$..7$..7$..
    b480:	10 23 00 00 37 24 00 00 37 24 00 00 37 24 00 00     .#..7$..7$..7$..
    b490:	37 24 00 00 0a 23 00 00 f8 22 00 00 37 24 00 00     7$...#..."..7$..
    b4a0:	37 24 00 00 37 24 00 00 37 24 00 00 01 23 00 00     7$..7$..7$...#..
    b4b0:	f7 23 00 00 37 24 00 00 d9 23 00 00 37 24 00 00     .#..7$...#..7$..
    b4c0:	d0 23 00 00 00 00 00 00 00 00 00 00 00 00 00 00     .#..............
	...

0000b4e0 <long_options>:
    b4e0:	7c 9e 00 00 00 00 00 00 00 00 00 00 68 00 00 00     |...........h...
    b4f0:	b6 a7 00 00 00 00 00 00 00 00 00 00 76 00 00 00     ............v...
    b500:	c8 b3 00 00 01 00 00 00 00 00 00 00 48 00 00 00     ............H...
    b510:	cd b3 00 00 01 00 00 00 00 00 00 00 74 00 00 00     ............t...
    b520:	d2 b3 00 00 01 00 00 00 00 00 00 00 62 00 00 00     ............b...
    b530:	d9 b3 00 00 00 00 00 00 00 00 00 00 6d 00 00 00     ............m...
    b540:	de b3 00 00 00 00 00 00 00 00 00 00 78 00 00 00     ............x...
    b550:	e2 b3 00 00 00 00 00 00 00 00 00 00 73 00 00 00     ............s...
    b560:	e8 b3 00 00 00 00 00 00 00 00 00 00 6e 00 00 00     ............n...
	...
    b580:	60 25 73 27 20 69 73 20 61 20 64 69 72 65 63 74     `%s' is a direct
    b590:	6f 72 79 00 6e 6f 2d 63 72 65 61 74 65 00 66 90     ory.no-create.f.
    b5a0:	60 25 73 27 20 75 70 64 61 74 65 73 20 61 63 63     `%s' updates acc
    b5b0:	65 73 73 20 74 69 6d 65 73 20 6f 66 20 66 69 6c     ess times of fil
    b5c0:	65 73 0a 00 55 73 61 67 65 3a 20 60 25 73 27 20     es..Usage: `%s' 
    b5d0:	5b 2d 63 7c 2d 2d 6e 6f 2d 63 72 65 61 74 65 5d     [-c|--no-create]
    b5e0:	20 3c 66 69 6c 65 3e 2e 2e 2e 0a 0a 49 66 20 74      <file>.....If t
    b5f0:	68 65 20 66 69 6c 65 20 64 6f 65 73 20 6e 6f 74     he file does not
    b600:	20 65 78 69 73 74 20 69 74 20 77 69 6c 6c 20 62      exist it will b
    b610:	65 20 63 72 65 61 74 65 64 20 65 6d 70 74 79 2c     e created empty,
    b620:	0a 75 6e 6c 65 73 73 20 2d 63 20 28 2d 2d 6e 6f     .unless -c (--no
    b630:	2d 63 72 65 61 74 65 29 20 69 73 20 73 75 70 70     -create) is supp
    b640:	6c 69 65 64 2e 0a 0a 4f 70 74 69 6f 6e 73 3a 0a     lied...Options:.
    b650:	20 20 20 2d 63 2c 20 2d 2d 6e 6f 2d 63 72 65 61        -c, --no-crea
    b660:	74 65 20 20 44 6f 20 6e 6f 74 20 63 72 65 61 74     te  Do not creat
    b670:	65 20 6e 65 77 20 66 69 6c 65 73 0a 00 00 00 00     e new files.....
    b680:	25 73 3a 20 49 6e 63 6f 72 72 65 63 74 20 6e 75     %s: Incorrect nu
    b690:	6d 62 65 72 20 6f 66 20 61 72 67 75 6d 65 6e 74     mber of argument
    b6a0:	73 2e 20 54 72 79 20 60 68 65 6c 70 20 25 73 20     s. Try `help %s 
    b6b0:	65 78 74 65 6e 64 65 64 27 0a 00 00 43 6f 75 6c     extended'...Coul
    b6c0:	64 20 6e 6f 74 20 75 70 64 61 74 65 20 6f 72 20     d not update or 
    b6d0:	63 72 65 61 74 65 20 60 25 73 27 00 66 90 66 90     create `%s'.f.f.

0000b6e0 <long_options>:
    b6e0:	94 b5 00 00 00 00 00 00 00 00 00 00 63 00 00 00     ............c...
	...
    b700:	6c 73 3a 20 66 61 69 6c 65 64 20 74 6f 20 73 63     ls: failed to sc
    b710:	61 6e 20 25 73 00 6c 73 3a 20 73 6b 69 70 70 69     an %s.ls: skippi
    b720:	6e 67 20 62 6f 67 75 73 20 6e 6f 64 65 20 25 73     ng bogus node %s
    b730:	0a 00 65 72 72 6f 72 3d 25 64 0a 00 53 6f 72 74     ..error=%d..Sort
    b740:	69 6e 67 20 65 72 72 6f 72 2e 0a 00 25 2d 34 30     ing error...%-40
    b750:	73 09 25 6c 6c 75 0a 00 25 2d 34 30 73 09 3c 64     s.%llu..%-40s.<d
    b760:	69 72 3e 0a 00 25 2d 34 30 73 0a 00 0a 25 73 3a     ir>..%-40s...%s:
    b770:	0a 00 2f 00 43 6f 75 6c 64 20 6e 6f 74 20 73 74     ../.Could not st
    b780:	61 74 20 25 73 00 68 75 72 00 25 73 3a 20 4f 75     at %s.hur.%s: Ou
    b790:	74 20 6f 66 20 6d 65 6d 6f 72 79 00 75 6e 73 6f     t of memory.unso
    b7a0:	72 74 00 90 60 25 73 27 20 6c 69 73 74 73 20 66     rt..`%s' lists f
    b7b0:	69 6c 65 73 20 61 6e 64 20 64 69 72 65 63 74 6f     iles and directo
    b7c0:	72 69 65 73 2e 0a 00 00 55 73 61 67 65 3a 20 20     ries....Usage:  
    b7d0:	25 73 20 5b 6f 70 74 69 6f 6e 73 5d 20 5b 70 61     %s [options] [pa
    b7e0:	74 68 5d 0a 49 66 20 6e 6f 74 20 70 61 74 68 20     th].If not path 
    b7f0:	69 73 20 67 69 76 65 6e 2c 20 74 68 65 20 63 75     is given, the cu
    b800:	72 72 65 6e 74 20 77 6f 72 6b 69 6e 67 20 64 69     rrent working di
    b810:	72 65 63 74 6f 72 79 20 69 73 20 75 73 65 64 2e     rectory is used.
    b820:	0a 4f 70 74 69 6f 6e 73 3a 0a 20 20 2d 68 2c 20     .Options:.  -h, 
    b830:	2d 2d 68 65 6c 70 20 20 20 20 20 20 20 41 20 73     --help       A s
    b840:	68 6f 72 74 20 6f 70 74 69 6f 6e 20 73 75 6d 6d     hort option summ
    b850:	61 72 79 0a 20 20 2d 75 2c 20 2d 2d 75 6e 73 6f     ary.  -u, --unso
    b860:	72 74 20 20 20 20 20 44 6f 20 6e 6f 74 20 73 6f     rt     Do not so
    b870:	72 74 20 64 69 72 65 63 74 6f 72 79 20 65 6e 74     rt directory ent
    b880:	72 69 65 73 0a 20 20 2d 72 2c 20 2d 2d 72 65 63     ries.  -r, --rec
    b890:	75 72 73 69 76 65 20 20 4c 69 73 74 20 73 75 62     ursive  List sub
    b8a0:	64 69 72 65 63 74 6f 72 69 65 73 20 72 65 63 75     directories recu
    b8b0:	72 73 69 76 65 6c 79 0a 00 00 00 00 25 73 3a 20     rsively.....%s: 
    b8c0:	46 61 69 6c 65 64 20 64 65 74 65 72 6d 69 6e 69     Failed determini
    b8d0:	6e 67 20 77 6f 72 6b 69 6e 67 20 64 69 72 65 63     ng working direc
    b8e0:	74 6f 72 79 00 66 90 66 90 66 90 66 90 66 90 66     tory.f.f.f.f.f.f
    b8f0:	90 66 90 66 90 66 90 66 90 66 90 66 90 66 90 90     .f.f.f.f.f.f.f..

0000b900 <long_options>:
    b900:	7c 9e 00 00 00 00 00 00 00 00 00 00 68 00 00 00     |...........h...
    b910:	9c b7 00 00 00 00 00 00 00 00 00 00 75 00 00 00     ............u...
    b920:	99 ad 00 00 00 00 00 00 00 00 00 00 72 00 00 00     ............r...
	...
    b940:	25 73 3a 00 60 25 73 27 20 70 72 69 6e 74 73 20     %s:.`%s' prints 
    b950:	79 6f 75 72 20 63 75 72 72 65 6e 74 20 77 6f 72     your current wor
    b960:	6b 69 6e 67 20 64 69 72 65 63 74 6f 72 79 2e 0a     king directory..
    b970:	00 00 00 00 55 6e 61 62 6c 65 20 74 6f 20 64 65     ....Unable to de
    b980:	74 65 72 6d 69 6e 65 20 74 68 65 20 63 75 72 72     termine the curr
    b990:	65 6e 74 20 77 6f 72 6b 69 6e 67 20 64 69 72 65     ent working dire
    b9a0:	63 74 6f 72 79 00 25 73 20 2d 20 69 6e 76 61 6c     ctory.%s - inval
    b9b0:	69 64 20 64 75 72 61 74 69 6f 6e 2e 0a 00 66 90     id duration...f.
    b9c0:	60 25 73 27 20 70 61 75 73 65 73 20 66 6f 72 20     `%s' pauses for 
    b9d0:	61 20 67 69 76 65 6e 20 74 69 6d 65 20 69 6e 74     a given time int
    b9e0:	65 72 76 61 6c 0a 00 00 55 73 61 67 65 3a 20 20     erval...Usage:  
    b9f0:	25 73 20 3c 64 75 72 61 74 69 6f 6e 3e 0a 54 68     %s <duration>.Th
    ba00:	65 20 64 75 72 61 74 69 6f 6e 20 69 73 20 61 20     e duration is a 
    ba10:	64 65 63 69 6d 61 6c 20 6e 75 6d 62 65 72 20 6f     decimal number o
    ba20:	66 20 73 65 63 6f 6e 64 73 2e 0a 00 25 73 20 2d     f seconds...%s -
    ba30:	20 69 6e 63 6f 72 72 65 63 74 20 6e 75 6d 62 65      incorrect numbe
    ba40:	72 20 6f 66 20 61 72 67 75 6d 65 6e 74 73 2e 20     r of arguments. 
    ba50:	54 72 79 20 60 68 65 6c 70 20 25 73 27 0a 00 90     Try `help %s'...
    ba60:	46 69 6c 65 20 61 6c 72 65 61 64 79 20 65 78 69     File already exi
    ba70:	73 74 73 3a 20 25 73 2e 20 4f 76 65 72 77 72 69     sts: %s. Overwri
    ba80:	74 65 3f 20 5b 79 2f 4e 5d 3a 20 00 54 68 65 20     te? [y/N]: .The 
    ba90:	64 65 73 74 20 64 69 72 65 63 74 6f 72 79 20 25     dest directory %
    baa0:	73 20 64 6f 65 73 20 6e 6f 74 20 65 78 69 73 74     s does not exist
    bab0:	73 00 00 00 55 6e 61 62 6c 65 20 74 6f 20 6f 70     s...Unable to op
    bac0:	65 6e 20 73 6f 75 72 63 65 20 66 69 6c 65 20 25     en source file %
    bad0:	73 0a 00 00 55 6e 61 62 6c 65 20 74 6f 20 6f 70     s...Unable to op
    bae0:	65 6e 20 64 65 73 74 69 6e 61 74 69 6f 6e 20 66     en destination f
    baf0:	69 6c 65 20 25 73 0a 00 43 61 6e 6e 6f 74 20 63     ile %s..Cannot c
    bb00:	6f 70 79 20 74 68 65 20 25 73 20 64 69 72 65 63     opy the %s direc
    bb10:	74 6f 72 79 20 77 69 74 68 6f 75 74 20 74 68 65     tory without the
    bb20:	20 2d 72 20 6f 70 74 69 6f 6e 0a 00 43 61 6e 6e      -r option..Cann
    bb30:	6f 74 20 6f 76 65 72 77 72 69 74 65 20 61 20 66     ot overwrite a f
    bb40:	69 6c 65 20 77 69 74 68 20 61 20 64 69 72 65 63     ile with a direc
    bb50:	74 6f 72 79 0a 00 00 00 55 6e 61 62 6c 65 20 74     tory....Unable t
    bb60:	6f 20 63 72 65 61 74 65 20 64 65 73 74 20 64 69     o create dest di
    bb70:	72 65 63 74 6f 72 79 20 25 73 0a 00 55 6e 61 62     rectory %s..Unab
    bb80:	6c 65 20 74 6f 20 6f 70 65 6e 20 73 72 63 20 25     le to open src %
    bb90:	73 20 64 69 72 65 63 74 6f 72 79 0a 00 00 00 00     s directory.....
    bba0:	43 61 6e 6e 6f 74 20 63 6f 70 79 20 61 20 64 69     Cannot copy a di
    bbb0:	72 65 63 74 6f 72 79 20 69 6e 74 6f 20 69 74 73     rectory into its
    bbc0:	65 6c 66 0a 00 00 00 00 43 61 6e 6e 6f 74 20 6f     elf.....Cannot o
    bbd0:	76 65 72 77 72 69 74 65 20 65 78 69 73 74 69 6e     verwrite existin
    bbe0:	67 20 64 69 72 65 63 74 6f 72 79 20 25 73 0a 00     g directory %s..
    bbf0:	60 25 73 27 20 63 6f 70 69 65 73 20 66 69 6c 65     `%s' copies file
    bc00:	73 20 61 6e 64 20 64 69 72 65 63 74 6f 72 69 65     s and directorie
    bc10:	73 0a 00 00 25 73 3a 20 69 6e 76 61 6c 69 64 20     s...%s: invalid 
    bc20:	6e 75 6d 62 65 72 20 6f 66 20 61 72 67 75 6d 65     number of argume
    bc30:	6e 74 73 2e 20 54 72 79 20 25 73 20 2d 2d 68 65     nts. Try %s --he
    bc40:	6c 70 0a 00 25 73 3a 20 49 6e 76 61 6c 69 64 20     lp..%s: Invalid 
    bc50:	62 75 66 66 65 72 20 73 70 65 63 69 66 69 63 61     buffer specifica
    bc60:	74 69 6f 6e 2c 20 28 73 68 6f 75 6c 64 20 62 65     tion, (should be
    bc70:	20 61 20 6e 75 6d 62 65 72 20 67 72 65 61 74 65      a number greate
    bc80:	72 20 74 68 61 6e 20 7a 65 72 6f 29 0a 00 6e 0a     r than zero)..n.
    bc90:	00 25 63 0a 00 55 6e 61 62 6c 65 20 74 6f 20 72     .%c..Unable to r
    bca0:	65 6d 6f 76 65 20 25 73 0a 00 4f 76 65 72 77 72     emove %s..Overwr
    bcb0:	69 74 69 6e 67 20 66 69 6c 65 3a 20 25 73 0a 00     iting file: %s..
    bcc0:	4e 6f 74 20 6f 76 65 72 77 72 69 74 69 6e 67 20     Not overwriting 
    bcd0:	66 69 6c 65 3a 20 25 73 0a 00 46 69 6c 65 20 61     file: %s..File a
    bce0:	6c 72 65 61 64 79 20 65 78 69 73 74 73 3a 20 25     lready exists: %
    bcf0:	73 0a 00 43 6f 70 79 69 6e 67 20 25 73 20 74 6f     s..Copying %s to
    bd00:	20 25 73 0a 00 25 6c 6c 75 20 62 79 74 65 73 20      %s..%llu bytes 
    bd10:	74 6f 20 63 6f 70 79 0a 00 0a 45 72 72 6f 72 20     to copy...Error 
    bd20:	63 6f 70 79 69 6e 67 20 25 73 2c 20 28 25 64 29     copying %s, (%d)
    bd30:	0a 00 2e 2e 00 63 6f 70 79 20 25 73 20 25 73 0a     .....copy %s %s.
    bd40:	00 68 76 56 66 69 72 62 3a 00 42 75 66 66 65 72     .hvVfirb:.Buffer
    bd50:	20 3d 20 25 64 0a 00 69 6e 74 65 72 61 63 74 69      = %d..interacti
    bd60:	76 65 00 66 90 66 90 66 90 66 90 66 90 66 90 66     ve.f.f.f.f.f.f.f
    bd70:	90 66 90 66 90 66 90 66 90 66 90 66 90 66 90 90     .f.f.f.f.f.f.f..
    bd80:	70 45 00 00 d0 45 00 00 d0 45 00 00 d0 45 00 00     pE...E...E...E..
    bd90:	d0 45 00 00 d0 45 00 00 d0 45 00 00 d0 45 00 00     .E...E...E...E..
    bda0:	d0 45 00 00 d0 45 00 00 d0 45 00 00 d0 45 00 00     .E...E...E...E..
    bdb0:	40 45 00 00 d0 45 00 00 d0 45 00 00 d0 45 00 00     @E...E...E...E..
    bdc0:	30 45 00 00 d0 45 00 00 a0 45 00 00 20 45 00 00     0E...E...E.. E..
    bdd0:	d0 45 00 00 d0 45 00 00 d0 45 00 00 d0 45 00 00     .E...E...E...E..
    bde0:	d0 45 00 00 d0 45 00 00 d0 45 00 00 d0 45 00 00     .E...E...E...E..
    bdf0:	10 45 00 00 d0 45 00 00 d0 45 00 00 d0 45 00 00     .E...E...E...E..
    be00:	80 45 00 00 00 00 00 00 00 00 00 00 00 00 00 00     .E..............
	...

0000be20 <long_options>:
    be20:	d2 b3 00 00 01 00 00 00 00 00 00 00 62 00 00 00     ............b...
    be30:	a3 ad 00 00 00 00 00 00 00 00 00 00 66 00 00 00     ............f...
    be40:	57 bd 00 00 00 00 00 00 00 00 00 00 69 00 00 00     W...........i...
    be50:	99 ad 00 00 00 00 00 00 00 00 00 00 72 00 00 00     ............r...
    be60:	7c 9e 00 00 00 00 00 00 00 00 00 00 68 00 00 00     |...........h...
    be70:	b6 a7 00 00 00 00 00 00 00 00 00 00 76 00 00 00     ............v...
    be80:	a9 a7 00 00 00 00 00 00 00 00 00 00 56 00 00 00     ............V...
	...
    bea0:	27 25 73 27 20 72 65 6e 61 6d 65 73 20 66 69 6c     '%s' renames fil
    beb0:	65 73 0a 00 25 73 3a 20 69 6e 76 61 6c 69 64 20     es..%s: invalid 
    bec0:	6e 75 6d 62 65 72 20 6f 66 20 61 72 67 75 6d 65     number of argume
    bed0:	6e 74 73 2e 0a 00 00 00 55 6e 61 62 6c 65 20 74     nts.....Unable t
    bee0:	6f 20 72 65 6e 61 6d 65 20 25 73 20 74 6f 20 25     o rename %s to %
    bef0:	73 20 28 65 72 72 6f 72 3d 25 64 29 0a 00 60 25     s (error=%d)..`%
    bf00:	73 27 20 70 72 69 6e 74 73 20 66 6f 72 6d 61 74     s' prints format
    bf10:	74 65 64 20 64 61 74 61 2e 0a 00 25 75 00 66 90     ted data...%u.f.
    bf20:	55 73 61 67 65 3a 20 20 25 73 20 46 4f 52 4d 41     Usage:  %s FORMA
    bf30:	54 20 5b 41 52 47 53 20 2e 2e 2e 5d 20 0a 50 72     T [ARGS ...] .Pr
    bf40:	69 6e 74 73 20 41 52 47 53 20 61 63 63 6f 72 64     ints ARGS accord
    bf50:	69 6e 67 20 74 6f 20 46 4f 52 4d 41 54 2e 20 4e     ing to FORMAT. N
    bf60:	75 6d 62 65 72 20 6f 66 20 65 78 70 65 63 74 65     umber of expecte
    bf70:	64 20 61 72 67 75 6d 65 6e 74 73 20 69 6e 0a 46     d arguments in.F
    bf80:	4f 52 4d 41 54 20 6d 75 73 74 20 62 65 20 65 71     ORMAT must be eq
    bf90:	75 61 6c 73 20 74 6f 20 74 68 65 20 6e 75 6d 62     uals to the numb
    bfa0:	65 72 20 6f 66 20 41 52 47 53 2e 20 43 75 72 72     er of ARGS. Curr
    bfb0:	65 6e 74 6c 79 20 73 75 70 70 6f 72 74 65 64 0a     ently supported.
    bfc0:	66 6f 72 6d 61 74 20 66 6c 61 67 73 20 61 72 65     format flags are
    bfd0:	3a 0a 00 00 55 73 61 67 65 3a 20 20 25 73 20 46     :...Usage:  %s F
    bfe0:	4f 52 4d 41 54 20 5b 41 52 47 53 20 2e 2e 2e 5d     ORMAT [ARGS ...]
    bff0:	20 0a 00 00 0a 42 61 64 20 70 61 72 61 6d 65 74      ....Bad paramet
    c000:	65 72 20 6e 75 6d 62 65 72 2e 20 41 62 6f 72 74     er number. Abort
    c010:	65 64 2e 0a 00 55 73 61 67 65 3a 20 20 25 73 20     ed...Usage:  %s 
    c020:	5b 61 72 67 20 2e 2e 2e 5d 0a 00 25 73 20 00 90     [arg ...]..%s ..
    c030:	60 25 73 27 20 70 72 69 6e 74 73 20 61 72 67 75     `%s' prints argu
    c040:	6d 65 6e 74 73 20 61 73 20 74 68 65 79 20 61 72     ments as they ar
    c050:	65 2c 20 66 6f 6c 6c 6f 77 65 64 20 62 79 20 61     e, followed by a
    c060:	20 6e 65 77 20 6c 69 6e 65 2e 0a 00 27 25 73 27      new line...'%s'
    c070:	20 6d 6f 75 6e 74 73 20 61 20 66 69 6c 65 20 73      mounts a file s
    c080:	79 73 74 65 6d 2e 0a 00 69 3a 68 00 2f 25 64 00     ystem...i:h./%d.
    c090:	20 28 25 75 29 00 69 6e 73 74 61 6e 63 65 00 90      (%u).instance..
    c0a0:	25 73 3a 20 69 6e 76 61 6c 69 64 20 6e 75 6d 62     %s: invalid numb
    c0b0:	65 72 20 6f 66 20 61 72 67 75 6d 65 6e 74 73 2e     er of arguments.
    c0c0:	20 54 72 79 20 60 6d 6f 75 6e 74 20 2d 2d 68 65      Try `mount --he
    c0d0:	6c 70 27 0a 00 00 00 00 55 6e 61 62 6c 65 20 74     lp'.....Unable t
    c0e0:	6f 20 6d 6f 75 6e 74 20 25 73 20 66 69 6c 65 73     o mount %s files
    c0f0:	79 73 74 65 6d 20 74 6f 20 25 73 20 6f 6e 20 25     ystem to %s on %
    c100:	73 20 28 72 63 3d 25 73 29 0a 00 66 90 66 90 66     s (rc=%s)..f.f.f
    c110:	90 66 90 66 90 66 90 66 90 66 90 66 90 66 90 90     .f.f.f.f.f.f.f..

0000c120 <long_options>:
    c120:	7c 9e 00 00 00 00 00 00 00 00 00 00 68 00 00 00     |...........h...
    c130:	96 c0 00 00 01 00 00 00 00 00 00 00 69 00 00 00     ............i...
	...
    c150:	27 25 73 27 20 75 6e 6d 6f 75 6e 74 20 61 20 66     '%s' unmount a f
    c160:	69 6c 65 20 73 79 73 74 65 6d 2e 0a 00 55 73 61     ile system...Usa
    c170:	67 65 3a 20 25 73 20 3c 6d 70 3e 0a 00 55 6e 61     ge: %s <mp>..Una
    c180:	62 6c 65 20 74 6f 20 75 6e 6d 6f 75 6e 74 20 25     ble to unmount %
    c190:	73 20 28 72 63 3d 25 64 29 0a 00 90 60 6b 63 6f     s (rc=%d)...`kco
    c1a0:	6e 27 20 73 77 69 74 63 68 65 73 20 74 6f 20 74     n' switches to t
    c1b0:	68 65 20 6b 65 72 6e 65 6c 20 64 65 62 75 67 20     he kernel debug 
    c1c0:	63 6f 6e 73 6f 6c 65 2e 0a 00 55 73 61 67 65 3a     console...Usage:
    c1d0:	20 25 73 0a 00 45 72 72 6f 72 20 72 65 61 64 69      %s..Error readi
    c1e0:	6e 67 20 66 72 6f 6d 20 25 73 0a 00 68 76 00 90     ng from %s..hv..
    c1f0:	60 25 73 27 20 63 6f 6d 70 61 72 65 73 20 74 68     `%s' compares th
    c200:	65 20 63 6f 6e 74 65 6e 74 73 20 6f 66 20 74 77     e contents of tw
    c210:	6f 20 66 69 6c 65 73 0a 00 00 00 00 55 73 61 67     o files.....Usag
    c220:	65 3a 20 20 25 73 20 5b 6f 70 74 69 6f 6e 73 5d     e:  %s [options]
    c230:	20 3c 66 69 6c 65 31 3e 20 3c 66 69 6c 65 32 3e      <file1> <file2>
    c240:	0a 4f 70 74 69 6f 6e 73 3a 0a 20 20 2d 68 2c 20     .Options:.  -h, 
    c250:	2d 2d 68 65 6c 70 20 20 20 20 20 20 20 41 20 73     --help       A s
    c260:	68 6f 72 74 20 6f 70 74 69 6f 6e 20 73 75 6d 6d     hort option summ
    c270:	61 72 79 0a 20 20 2d 76 2c 20 2d 2d 76 65 72 73     ary.  -v, --vers
    c280:	69 6f 6e 20 20 20 20 50 72 69 6e 74 20 76 65 72     ion    Print ver
    c290:	73 69 6f 6e 20 69 6e 66 6f 72 6d 61 74 69 6f 6e     sion information
    c2a0:	20 61 6e 64 20 65 78 69 74 0a 4e 6f 20 6f 75 74      and exit.No out
    c2b0:	70 75 74 20 69 73 20 70 72 69 6e 74 65 64 3b 20     put is printed; 
    c2c0:	74 68 65 20 72 65 74 75 72 6e 20 63 6f 64 65 20     the return code 
    c2d0:	69 73 20 31 20 69 66 20 74 68 65 20 66 69 6c 65     is 1 if the file
    c2e0:	73 20 64 69 66 66 65 72 2e 0a 00 66 90 66 90 66     s differ...f.f.f
    c2f0:	90 66 90 66 90 66 90 66 90 66 90 66 90 66 90 90     .f.f.f.f.f.f.f..

0000c300 <long_options>:
    c300:	7c 9e 00 00 00 00 00 00 00 00 00 00 68 00 00 00     |...........h...
    c310:	b6 a7 00 00 00 00 00 00 00 00 00 00 76 00 00 00     ............v...
	...
    c330:	0a 20 20 62 61 74 63 68 20 5b 66 69 6c 65 6e 61     .  batch [filena
    c340:	6d 65 5d 20 5b 2d 63 5d 0a 20 20 49 73 73 75 65     me] [-c].  Issue
    c350:	73 20 63 6f 6d 6d 61 6e 64 73 20 73 74 6f 72 65     s commands store
    c360:	64 20 69 6e 20 74 68 65 20 66 69 6c 65 2e 0a 20     d in the file.. 
    c370:	20 45 61 63 68 20 63 6f 6d 6d 61 6e 64 20 6d 75      Each command mu
    c380:	73 74 20 63 6f 72 72 65 73 70 6f 6e 64 20 74 6f     st correspond to
    c390:	20 74 68 65 20 73 69 6e 67 6c 65 20 6c 69 6e 65      the single line
    c3a0:	20 69 6e 20 74 68 65 20 66 69 6c 65 2e 0a 0a 00      in the file....
    c3b0:	0a 20 20 60 62 61 74 63 68 27 20 2d 20 69 73 73     .  `batch' - iss
    c3c0:	75 65 73 20 61 20 62 61 74 63 68 20 6f 66 20 63     ues a batch of c
    c3d0:	6f 6d 6d 61 6e 64 73 0a 20 20 49 73 73 75 65 73     ommands.  Issues
    c3e0:	20 63 6f 6d 6d 61 6e 64 73 20 73 74 6f 72 65 64      commands stored
    c3f0:	20 69 6e 20 74 68 65 20 66 69 6c 65 2e 20 45 61      in the file. Ea
    c400:	63 68 20 63 6f 6d 6d 61 6e 64 20 6d 75 73 74 20     ch command must 
    c410:	63 6f 72 72 65 73 70 6f 6e 64 0a 20 20 74 6f 20     correspond.  to 
    c420:	74 68 65 20 73 69 6e 67 6c 65 20 6c 69 6e 65 20     the single line 
    c430:	69 6e 20 74 68 65 20 66 69 6c 65 2e 20 45 6d 70     in the file. Emp
    c440:	74 79 20 6c 69 6e 65 73 20 63 61 6e 20 62 65 20     ty lines can be 
    c450:	75 73 65 64 20 74 6f 20 76 69 73 75 61 6c 6c 79     used to visually
    c460:	0a 20 20 73 65 70 61 72 61 74 65 20 67 72 6f 75     .  separate grou
    c470:	70 73 20 6f 66 20 63 6f 6d 6d 61 6e 64 73 2e 20     ps of commands. 
    c480:	54 68 65 72 65 20 69 73 20 6e 6f 20 73 75 70 70     There is no supp
    c490:	6f 72 74 20 66 6f 72 20 63 6f 6d 6d 65 6e 74 73     ort for comments
    c4a0:	2c 0a 20 20 76 61 72 69 61 62 6c 65 73 2c 20 72     ,.  variables, r
    c4b0:	65 63 75 72 73 69 6f 6e 20 6f 72 20 6f 74 68 65     ecursion or othe
    c4c0:	72 20 70 72 6f 67 72 61 6d 6d 69 6e 67 20 63 6f     r programming co
    c4d0:	6e 73 74 72 75 63 74 73 20 2d 20 74 68 65 20 60     nstructs - the `
    c4e0:	62 61 74 63 68 27 0a 20 20 63 6f 6d 6d 61 6e 64     batch'.  command
    c4f0:	20 69 73 20 69 6e 64 65 65 64 20 76 65 72 79 20      is indeed very 
    c500:	74 72 69 76 69 61 6c 2e 0a 20 20 49 66 20 74 68     trivial..  If th
    c510:	65 20 66 69 6c 65 6e 61 6d 65 20 69 73 20 66 6f     e filename is fo
    c520:	6c 6c 6f 77 65 64 20 62 79 20 2d 63 2c 20 65 78     llowed by -c, ex
    c530:	65 63 75 74 69 6f 6e 20 63 6f 6e 74 69 6e 75 65     ecution continue
    c540:	73 20 65 76 65 6e 20 69 66 20 73 6f 6d 65 0a 20     s even if some. 
    c550:	20 6f 66 20 74 68 65 20 63 6f 6d 6d 61 6e 64 73      of the commands
    c560:	20 66 61 69 6c 65 64 2e 0a 0a 00 25 73 20 2d 20      failed....%s - 
    c570:	6e 6f 20 69 6e 70 75 74 20 66 69 6c 65 20 70 72     no input file pr
    c580:	6f 76 69 64 65 64 2e 0a 00 2d 63 00 25 73 20 2d     ovided...-c.%s -
    c590:	20 43 61 6e 6e 6f 74 20 6f 70 65 6e 20 66 69 6c      Cannot open fil
    c5a0:	65 20 25 73 0a 00 3e 25 73 0a 00 54 79 70 65 20     e %s..>%s..Type 
    c5b0:	60 25 73 27 20 74 6f 20 65 78 69 74 20 25 73 0a     `%s' to exit %s.
    c5c0:	00 2d 2d 00 54 6f 6f 20 6d 61 6e 79 20 61 72 67     .--.Too many arg
    c5d0:	75 6d 65 6e 74 73 20 74 6f 20 60 25 73 27 00 44     uments to `%s'.D
    c5e0:	65 73 74 69 6e 61 74 69 6f 6e 20 70 61 74 68 20     estination path 
    c5f0:	74 6f 6f 20 6c 6f 6e 67 00 49 6e 76 61 6c 69 64     too long.Invalid
    c600:	20 64 69 72 65 63 74 6f 72 79 20 60 25 73 27 00      directory `%s'.
    c610:	55 6e 61 62 6c 65 20 74 6f 20 63 68 61 6e 67 65     Unable to change
    c620:	20 74 6f 20 60 25 73 27 00 66 90 90 60 25 73 27      to `%s'.f..`%s'
    c630:	20 63 68 61 6e 67 65 73 20 74 68 65 20 63 75 72      changes the cur
    c640:	72 65 6e 74 20 77 6f 72 6b 69 6e 67 20 64 69 72     rent working dir
    c650:	65 63 74 6f 72 79 2e 0a 00 00 00 00 20 20 25 73     ectory......  %s
    c660:	20 3c 64 69 72 65 63 74 6f 72 79 3e 0a 20 20 43      <directory>.  C
    c670:	68 61 6e 67 65 20 64 69 72 65 63 74 6f 72 79 20     hange directory 
    c680:	74 6f 20 3c 64 69 72 65 63 74 6f 72 79 3e 2c 20     to <directory>, 
    c690:	65 2e 67 20 60 25 73 20 2f 73 62 69 6e 27 0a 00     e.g `%s /sbin'..
    c6a0:	25 73 20 2d 20 6e 6f 20 64 69 72 65 63 74 6f 72     %s - no director
    c6b0:	79 20 73 70 65 63 69 66 69 65 64 2e 20 54 72 79     y specified. Try
    c6c0:	20 60 68 65 6c 70 20 25 73 20 65 78 74 65 6e 64      `help %s extend
    c6d0:	65 64 27 0a 00 00 00 00 43 61 6e 6e 6f 74 20 73     ed'.....Cannot s
    c6e0:	77 69 74 63 68 20 74 6f 20 70 72 65 76 69 6f 75     witch to previou
    c6f0:	73 20 64 69 72 65 63 74 6f 72 79 00 4e 6f 20 70     s directory.No p
    c700:	72 65 76 69 6f 75 73 20 64 69 72 65 63 74 6f 72     revious director
    c710:	79 20 74 6f 20 73 77 69 74 63 68 20 74 6f 00 25     y to switch to.%
    c720:	73 25 63 00 20 28 25 73 29 0a 00 20 28 55 6e 6b     s%c. (%s).. (Unk
    c730:	6e 6f 77 6e 20 45 72 72 6f 72 20 25 64 29 0a 00     nown Error %d)..
    c740:	53 75 63 63 65 73 73 00 46 61 69 6c 75 72 65 00     Success.Failure.
    c750:	42 75 73 79 00 4e 6f 20 53 75 63 68 20 45 6e 74     Busy.No Such Ent
    c760:	72 79 00 4e 6f 74 20 45 6e 6f 75 67 68 20 4d 65     ry.Not Enough Me
    c770:	6d 6f 72 79 00 50 65 72 6d 69 73 73 69 6f 6e 20     mory.Permission 
    c780:	44 65 6e 69 65 64 00 4d 65 74 68 6f 64 20 4e 6f     Denied.Method No
    c790:	74 20 53 75 70 70 6f 72 74 65 64 00 42 61 64 20     t Supported.Bad 
    c7a0:	63 6f 6d 6d 61 6e 64 20 6f 72 20 66 69 6c 65 20     command or file 
    c7b0:	6e 61 6d 65 00 45 6e 74 72 79 20 61 6c 72 65 61     name.Entry alrea
    c7c0:	64 79 20 65 78 69 73 74 73 00 4f 62 6a 65 63 74     dy exists.Object
    c7d0:	20 74 6f 6f 20 6c 61 72 67 65 00 66 90 66 90 90      too large.f.f..

0000c7e0 <cl_errors>:
    c7e0:	40 c7 00 00 48 c7 00 00 50 c7 00 00 55 c7 00 00     @...H...P...U...
    c7f0:	63 c7 00 00 75 c7 00 00 87 c7 00 00 9c c7 00 00     c...u...........
    c800:	b5 c7 00 00 ca c7 00 00 00 00 00 00 49 6e 76 61     ............Inva
    c810:	6c 69 64 20 73 79 6e 74 61 78 21 0a 00 66 72 6f     lid syntax!..fro
    c820:	6d 20 66 69 6c 65 6e 61 6d 65 20 7c 20 63 6f 6d     m filename | com
    c830:	6d 61 6e 64 20 2e 2e 2e 0a 00 63 6f 6d 6d 61 6e     mand .....comman
    c840:	64 20 2e 2e 2e 20 7c 20 74 6f 20 66 69 6c 65 6e     d ... | to filen
    c850:	61 6d 65 0a 00 66 72 6f 6d 00 74 6f 00 46 61 69     ame..from.to.Fai
    c860:	6c 65 64 20 74 6f 20 69 6e 69 74 69 61 6c 69 7a     led to initializ
    c870:	65 20 69 6e 70 75 74 2e 0a 00 66 90 55 73 61 67     e input...f.Usag
    c880:	65 20 6f 66 20 72 65 64 69 72 65 63 74 69 6f 6e     e of redirection
    c890:	20 28 70 69 70 65 73 20 69 6e 20 74 68 65 20 66      (pipes in the f
    c8a0:	75 74 75 72 65 29 3a 0a 00 00 00 00 66 72 6f 6d     uture):.....from
    c8b0:	20 66 69 6c 65 6e 61 6d 65 20 7c 20 63 6f 6d 6d      filename | comm
    c8c0:	61 6e 64 20 2e 2e 2e 20 7c 20 74 6f 20 66 69 6c     and ... | to fil
    c8d0:	65 6e 61 6d 65 0a 00 43 61 6e 20 6e 6f 74 20 61     ename..Can not a
    c8e0:	6c 6c 6f 63 61 74 65 20 63 77 64 00 28 75 6e 6b     llocate cwd.(unk
    c8f0:	6e 6f 77 6e 29 00 25 73 20 23 20 00 25 73 3a 20     nown).%s # .%s: 
    c900:	43 61 6e 6e 6f 74 20 73 70 61 77 6e 20 60 25 73     Cannot spawn `%s
    c910:	27 20 28 25 73 29 00 2f 61 70 70 00 2f 73 72 76     ' (%s)./app./srv
    c920:	00 66 90 90 25 73 3a 20 46 61 69 6c 65 64 20 77     .f..%s: Failed w
    c930:	61 69 74 69 6e 67 20 66 6f 72 20 63 6f 6d 6d 61     aiting for comma
    c940:	6e 64 20 28 25 73 29 0a 00 00 00 00 25 73 3a 20     nd (%s).....%s: 
    c950:	43 6f 6d 6d 61 6e 64 20 66 61 69 6c 65 64 20 28     Command failed (
    c960:	75 6e 65 78 70 65 63 74 65 64 6c 79 20 74 65 72     unexpectedly ter
    c970:	6d 69 6e 61 74 65 64 29 0a 00 00 00 25 73 3a 20     minated)....%s: 
    c980:	43 6f 6d 6d 61 6e 64 20 66 61 69 6c 65 64 20 28     Command failed (
    c990:	65 78 69 74 20 63 6f 64 65 20 25 64 29 0a 00 72     exit code %d)..r
    c9a0:	6f 6f 74 00 4c 65 61 76 69 6e 67 20 25 73 2e 0a     oot.Leaving %s..
    c9b0:	00 62 64 73 68 00 74 6f 6b 2e 63 00 74 6f 6b 2d     .bdsh.tok.c.tok-
    c9c0:	3e 6f 75 74 62 75 66 5f 6f 66 66 73 65 74 20 3e     >outbuf_offset >
    c9d0:	3d 20 74 6f 6b 2d 3e 6f 75 74 62 75 66 5f 6c 61     = tok->outbuf_la
    c9e0:	73 74 5f 73 74 61 72 74 00 00 00 00 25 6c 73 00     st_start....%ls.
    c9f0:	45 72 72 6f 72 3a 20 4f 75 74 20 6f 66 20 6d 65     Error: Out of me
    ca00:	6d 6f 72 79 2e 0a 00 90 7f 88 00 00 47 83 00 00     mory........G...
    ca10:	60 7e 00 00 60 7e 00 00 60 7e 00 00 60 7e 00 00     `~..`~..`~..`~..
    ca20:	60 7e 00 00 60 7e 00 00 60 7e 00 00 60 7e 00 00     `~..`~..`~..`~..
    ca30:	60 7e 00 00 60 7e 00 00 60 7e 00 00 60 7e 00 00     `~..`~..`~..`~..
    ca40:	60 7e 00 00 60 7e 00 00 60 7e 00 00 60 7e 00 00     `~..`~..`~..`~..
    ca50:	60 7e 00 00 60 7e 00 00 60 7e 00 00 60 7e 00 00     `~..`~..`~..`~..
    ca60:	60 7e 00 00 60 7e 00 00 60 7e 00 00 60 7e 00 00     `~..`~..`~..`~..
    ca70:	60 7e 00 00 60 7e 00 00 d9 85 00 00 60 7e 00 00     `~..`~......`~..
    ca80:	60 7e 00 00 60 7e 00 00 60 7e 00 00 60 7e 00 00     `~..`~..`~..`~..
    ca90:	60 7e 00 00 60 7e 00 00 60 7e 00 00 60 7e 00 00     `~..`~..`~..`~..
    caa0:	60 7e 00 00 60 7e 00 00 60 7e 00 00 60 7e 00 00     `~..`~..`~..`~..
    cab0:	60 7e 00 00 60 7e 00 00 60 7e 00 00 60 7e 00 00     `~..`~..`~..`~..
    cac0:	60 7e 00 00 60 7e 00 00 60 7e 00 00 60 7e 00 00     `~..`~..`~..`~..
    cad0:	60 7e 00 00 60 7e 00 00 60 7e 00 00 60 7e 00 00     `~..`~..`~..`~..
    cae0:	60 7e 00 00 60 7e 00 00 60 7e 00 00 60 7e 00 00     `~..`~..`~..`~..
    caf0:	60 7e 00 00 60 7e 00 00 60 7e 00 00 60 7e 00 00     `~..`~..`~..`~..
    cb00:	60 7e 00 00 60 7e 00 00 60 7e 00 00 e5 85 00 00     `~..`~..`~......
    cb10:	60 7e 00 00 46 86 00 00 80 87 00 00 60 7e 00 00     `~..F.......`~..
    cb20:	e1 87 00 00 05 88 00 00 62 88 00 00 58 85 00 00     ........b...X...
    cb30:	60 7e 00 00 60 7e 00 00 60 7e 00 00 60 7e 00 00     `~..`~..`~..`~..
    cb40:	60 7e 00 00 d9 85 00 00 0d 8b 00 00 44 7e 00 00     `~..........D~..
    cb50:	44 7e 00 00 44 7e 00 00 44 7e 00 00 44 7e 00 00     D~..D~..D~..D~..
    cb60:	44 7e 00 00 44 7e 00 00 44 7e 00 00 44 7e 00 00     D~..D~..D~..D~..
    cb70:	44 7e 00 00 44 7e 00 00 44 7e 00 00 fc 8c 00 00     D~..D~..D~......
    cb80:	44 7e 00 00 44 7e 00 00 44 7e 00 00 44 7e 00 00     D~..D~..D~..D~..
    cb90:	44 7e 00 00 44 7e 00 00 44 7e 00 00 44 7e 00 00     D~..D~..D~..D~..
    cba0:	44 7e 00 00 44 7e 00 00 44 7e 00 00 44 7e 00 00     D~..D~..D~..D~..
    cbb0:	44 7e 00 00 44 7e 00 00 44 7e 00 00 ec 8b 00 00     D~..D~..D~......
    cbc0:	7a 8b 00 00 20 8b 00 00 44 7e 00 00 44 7e 00 00     z... ...D~..D~..
    cbd0:	44 7e 00 00 44 7e 00 00 44 7e 00 00 44 7e 00 00     D~..D~..D~..D~..
    cbe0:	44 7e 00 00 44 7e 00 00 44 7e 00 00 44 7e 00 00     D~..D~..D~..D~..
    cbf0:	44 7e 00 00 44 7e 00 00 44 7e 00 00 44 7e 00 00     D~..D~..D~..D~..
    cc00:	44 7e 00 00 44 7e 00 00 44 7e 00 00 44 7e 00 00     D~..D~..D~..D~..
    cc10:	44 7e 00 00 44 7e 00 00 44 7e 00 00 44 7e 00 00     D~..D~..D~..D~..
    cc20:	44 7e 00 00 44 7e 00 00 44 7e 00 00 44 7e 00 00     D~..D~..D~..D~..
    cc30:	44 7e 00 00 44 7e 00 00 44 7e 00 00 44 7e 00 00     D~..D~..D~..D~..
    cc40:	44 7e 00 00 44 7e 00 00 44 7e 00 00 44 7e 00 00     D~..D~..D~..D~..
    cc50:	44 7e 00 00 44 7e 00 00 a0 8e 00 00 29 8e 00 00     D~..D~......)...
    cc60:	af 8d 00 00 2c 8d 00 00 aa 8a 00 00 67 80 00 00     ....,.......g...
    cc70:	67 80 00 00 99 8a 00 00 67 80 00 00 1f 80 00 00     g.......g.......
    cc80:	d5 8a 00 00 b9 8a 00 00 ef 8a 00 00                 ............

Disassembly of section .plt:

0000cf90 <console_get_size@plt-0x10>:
    cf90:	ff 35 d4 f6 00 00    	pushl  0xf6d4
    cf96:	ff 25 d8 f6 00 00    	jmp    *0xf6d8
    cf9c:	00 00                	add    %al,(%eax)
	...

0000cfa0 <console_get_size@plt>:
    cfa0:	ff 25 dc f6 00 00    	jmp    *0xf6dc
    cfa6:	68 00 00 00 00       	push   $0x0
    cfab:	e9 e0 ff ff ff       	jmp    cf90 <cl_errors+0x7b0>

0000cfb0 <putchar@plt>:
    cfb0:	ff 25 e0 f6 00 00    	jmp    *0xf6e0
    cfb6:	68 08 00 00 00       	push   $0x8
    cfbb:	e9 d0 ff ff ff       	jmp    cf90 <cl_errors+0x7b0>

0000cfc0 <__main@plt>:
    cfc0:	ff 25 e4 f6 00 00    	jmp    *0xf6e4
    cfc6:	68 10 00 00 00       	push   $0x10
    cfcb:	e9 c0 ff ff ff       	jmp    cf90 <cl_errors+0x7b0>

0000cfd0 <str_to_awstr@plt>:
    cfd0:	ff 25 e8 f6 00 00    	jmp    *0xf6e8
    cfd6:	68 18 00 00 00       	push   $0x18
    cfdb:	e9 b0 ff ff ff       	jmp    cf90 <cl_errors+0x7b0>

0000cfe0 <wstr_length@plt>:
    cfe0:	ff 25 ec f6 00 00    	jmp    *0xf6ec
    cfe6:	68 20 00 00 00       	push   $0x20
    cfeb:	e9 a0 ff ff ff       	jmp    cf90 <cl_errors+0x7b0>

0000cff0 <printf@plt>:
    cff0:	ff 25 f0 f6 00 00    	jmp    *0xf6f0
    cff6:	68 28 00 00 00       	push   $0x28
    cffb:	e9 90 ff ff ff       	jmp    cf90 <cl_errors+0x7b0>

0000d000 <vfs_fhandle@plt>:
    d000:	ff 25 f4 f6 00 00    	jmp    *0xf6f4
    d006:	68 30 00 00 00       	push   $0x30
    d00b:	e9 80 ff ff ff       	jmp    cf90 <cl_errors+0x7b0>

0000d010 <memmove@plt>:
    d010:	ff 25 f8 f6 00 00    	jmp    *0xf6f8
    d016:	68 38 00 00 00       	push   $0x38
    d01b:	e9 70 ff ff ff       	jmp    cf90 <cl_errors+0x7b0>

0000d020 <getopt_long@plt>:
    d020:	ff 25 fc f6 00 00    	jmp    *0xf6fc
    d026:	68 40 00 00 00       	push   $0x40
    d02b:	e9 60 ff ff ff       	jmp    cf90 <cl_errors+0x7b0>

0000d030 <snprintf@plt>:
    d030:	ff 25 00 f7 00 00    	jmp    *0xf700
    d036:	68 48 00 00 00       	push   $0x48
    d03b:	e9 50 ff ff ff       	jmp    cf90 <cl_errors+0x7b0>

0000d040 <task_wait@plt>:
    d040:	ff 25 04 f7 00 00    	jmp    *0xf704
    d046:	68 50 00 00 00       	push   $0x50
    d04b:	e9 40 ff ff ff       	jmp    cf90 <cl_errors+0x7b0>

0000d050 <__errno@plt>:
    d050:	ff 25 08 f7 00 00    	jmp    *0xf708
    d056:	68 58 00 00 00       	push   $0x58
    d05b:	e9 30 ff ff ff       	jmp    cf90 <cl_errors+0x7b0>

0000d060 <console_get_pos@plt>:
    d060:	ff 25 0c f7 00 00    	jmp    *0xf70c
    d066:	68 60 00 00 00       	push   $0x60
    d06b:	e9 20 ff ff ff       	jmp    cf90 <cl_errors+0x7b0>

0000d070 <str_width@plt>:
    d070:	ff 25 10 f7 00 00    	jmp    *0xf710
    d076:	68 68 00 00 00       	push   $0x68
    d07b:	e9 10 ff ff ff       	jmp    cf90 <cl_errors+0x7b0>

0000d080 <str_decode@plt>:
    d080:	ff 25 14 f7 00 00    	jmp    *0xf714
    d086:	68 70 00 00 00       	push   $0x70
    d08b:	e9 00 ff ff ff       	jmp    cf90 <cl_errors+0x7b0>

0000d090 <usleep@plt>:
    d090:	ff 25 18 f7 00 00    	jmp    *0xf718
    d096:	68 78 00 00 00       	push   $0x78
    d09b:	e9 f0 fe ff ff       	jmp    cf90 <cl_errors+0x7b0>

0000d0a0 <str_ndup@plt>:
    d0a0:	ff 25 1c f7 00 00    	jmp    *0xf71c
    d0a6:	68 80 00 00 00       	push   $0x80
    d0ab:	e9 e0 fe ff ff       	jmp    cf90 <cl_errors+0x7b0>

0000d0b0 <qsort@plt>:
    d0b0:	ff 25 20 f7 00 00    	jmp    *0xf720
    d0b6:	68 88 00 00 00       	push   $0x88
    d0bb:	e9 d0 fe ff ff       	jmp    cf90 <cl_errors+0x7b0>

0000d0c0 <memcpy@plt>:
    d0c0:	ff 25 24 f7 00 00    	jmp    *0xf724
    d0c6:	68 90 00 00 00       	push   $0x90
    d0cb:	e9 c0 fe ff ff       	jmp    cf90 <cl_errors+0x7b0>

0000d0d0 <puts@plt>:
    d0d0:	ff 25 28 f7 00 00    	jmp    *0xf728
    d0d6:	68 98 00 00 00       	push   $0x98
    d0db:	e9 b0 fe ff ff       	jmp    cf90 <cl_errors+0x7b0>

0000d0e0 <malloc@plt>:
    d0e0:	ff 25 2c f7 00 00    	jmp    *0xf72c
    d0e6:	68 a0 00 00 00       	push   $0xa0
    d0eb:	e9 a0 fe ff ff       	jmp    cf90 <cl_errors+0x7b0>

0000d0f0 <str_rchr@plt>:
    d0f0:	ff 25 30 f7 00 00    	jmp    *0xf730
    d0f6:	68 a8 00 00 00       	push   $0xa8
    d0fb:	e9 90 fe ff ff       	jmp    cf90 <cl_errors+0x7b0>

0000d100 <console_set_color@plt>:
    d100:	ff 25 34 f7 00 00    	jmp    *0xf734
    d106:	68 b0 00 00 00       	push   $0xb0
    d10b:	e9 80 fe ff ff       	jmp    cf90 <cl_errors+0x7b0>

0000d110 <strtoul@plt>:
    d110:	ff 25 38 f7 00 00    	jmp    *0xf738
    d116:	68 b8 00 00 00       	push   $0xb8
    d11b:	e9 70 fe ff ff       	jmp    cf90 <cl_errors+0x7b0>

0000d120 <rmdir@plt>:
    d120:	ff 25 3c f7 00 00    	jmp    *0xf73c
    d126:	68 c0 00 00 00       	push   $0xc0
    d12b:	e9 60 fe ff ff       	jmp    cf90 <cl_errors+0x7b0>

0000d130 <readdir@plt>:
    d130:	ff 25 40 f7 00 00    	jmp    *0xf740
    d136:	68 c8 00 00 00       	push   $0xc8
    d13b:	e9 50 fe ff ff       	jmp    cf90 <cl_errors+0x7b0>

0000d140 <str_rtrim@plt>:
    d140:	ff 25 44 f7 00 00    	jmp    *0xf744
    d146:	68 d0 00 00 00       	push   $0xd0
    d14b:	e9 40 fe ff ff       	jmp    cf90 <cl_errors+0x7b0>

0000d150 <str_append@plt>:
    d150:	ff 25 48 f7 00 00    	jmp    *0xf748
    d156:	68 d8 00 00 00       	push   $0xd8
    d15b:	e9 30 fe ff ff       	jmp    cf90 <cl_errors+0x7b0>

0000d160 <fflush@plt>:
    d160:	ff 25 4c f7 00 00    	jmp    *0xf74c
    d166:	68 e0 00 00 00       	push   $0xe0
    d16b:	e9 20 fe ff ff       	jmp    cf90 <cl_errors+0x7b0>

0000d170 <console_get_event@plt>:
    d170:	ff 25 50 f7 00 00    	jmp    *0xf750
    d176:	68 e8 00 00 00       	push   $0xe8
    d17b:	e9 10 fe ff ff       	jmp    cf90 <cl_errors+0x7b0>

0000d180 <lseek@plt>:
    d180:	ff 25 54 f7 00 00    	jmp    *0xf754
    d186:	68 f0 00 00 00       	push   $0xf0
    d18b:	e9 00 fe ff ff       	jmp    cf90 <cl_errors+0x7b0>

0000d190 <__udivdi3@plt>:
    d190:	ff 25 58 f7 00 00    	jmp    *0xf758
    d196:	68 f8 00 00 00       	push   $0xf8
    d19b:	e9 f0 fd ff ff       	jmp    cf90 <cl_errors+0x7b0>

0000d1a0 <task_spawnvf@plt>:
    d1a0:	ff 25 5c f7 00 00    	jmp    *0xf75c
    d1a6:	68 00 01 00 00       	push   $0x100
    d1ab:	e9 e0 fd ff ff       	jmp    cf90 <cl_errors+0x7b0>

0000d1b0 <strtol@plt>:
    d1b0:	ff 25 60 f7 00 00    	jmp    *0xf760
    d1b6:	68 08 01 00 00       	push   $0x108
    d1bb:	e9 d0 fd ff ff       	jmp    cf90 <cl_errors+0x7b0>

0000d1c0 <console_init@plt>:
    d1c0:	ff 25 64 f7 00 00    	jmp    *0xf764
    d1c6:	68 10 01 00 00       	push   $0x110
    d1cb:	e9 c0 fd ff ff       	jmp    cf90 <cl_errors+0x7b0>

0000d1d0 <console_kcon@plt>:
    d1d0:	ff 25 68 f7 00 00    	jmp    *0xf768
    d1d6:	68 18 01 00 00       	push   $0x118
    d1db:	e9 b0 fd ff ff       	jmp    cf90 <cl_errors+0x7b0>

0000d1e0 <rename@plt>:
    d1e0:	ff 25 6c f7 00 00    	jmp    *0xf76c
    d1e6:	68 20 01 00 00       	push   $0x120
    d1eb:	e9 a0 fd ff ff       	jmp    cf90 <cl_errors+0x7b0>

0000d1f0 <loc_service_get_name@plt>:
    d1f0:	ff 25 70 f7 00 00    	jmp    *0xf770
    d1f6:	68 28 01 00 00       	push   $0x128
    d1fb:	e9 90 fd ff ff       	jmp    cf90 <cl_errors+0x7b0>

0000d200 <clipboard_put_str@plt>:
    d200:	ff 25 74 f7 00 00    	jmp    *0xf774
    d206:	68 30 01 00 00       	push   $0x130
    d20b:	e9 80 fd ff ff       	jmp    cf90 <cl_errors+0x7b0>

0000d210 <assert_abort@plt>:
    d210:	ff 25 78 f7 00 00    	jmp    *0xf778
    d216:	68 38 01 00 00       	push   $0x138
    d21b:	e9 70 fd ff ff       	jmp    cf90 <cl_errors+0x7b0>

0000d220 <calloc@plt>:
    d220:	ff 25 7c f7 00 00    	jmp    *0xf77c
    d226:	68 40 01 00 00       	push   $0x140
    d22b:	e9 60 fd ff ff       	jmp    cf90 <cl_errors+0x7b0>

0000d230 <write@plt>:
    d230:	ff 25 80 f7 00 00    	jmp    *0xf780
    d236:	68 48 01 00 00       	push   $0x148
    d23b:	e9 50 fd ff ff       	jmp    cf90 <cl_errors+0x7b0>

0000d240 <vfs_get_mtab_list@plt>:
    d240:	ff 25 84 f7 00 00    	jmp    *0xf784
    d246:	68 50 01 00 00       	push   $0x150
    d24b:	e9 40 fd ff ff       	jmp    cf90 <cl_errors+0x7b0>

0000d250 <vprintf@plt>:
    d250:	ff 25 88 f7 00 00    	jmp    *0xf788
    d256:	68 58 01 00 00       	push   $0x158
    d25b:	e9 30 fd ff ff       	jmp    cf90 <cl_errors+0x7b0>

0000d260 <chdir@plt>:
    d260:	ff 25 8c f7 00 00    	jmp    *0xf78c
    d266:	68 60 01 00 00       	push   $0x160
    d26b:	e9 20 fd ff ff       	jmp    cf90 <cl_errors+0x7b0>

0000d270 <console_clear@plt>:
    d270:	ff 25 90 f7 00 00    	jmp    *0xf790
    d276:	68 68 01 00 00       	push   $0x168
    d27b:	e9 10 fd ff ff       	jmp    cf90 <cl_errors+0x7b0>

0000d280 <str_dup@plt>:
    d280:	ff 25 94 f7 00 00    	jmp    *0xf794
    d286:	68 70 01 00 00       	push   $0x170
    d28b:	e9 00 fd ff ff       	jmp    cf90 <cl_errors+0x7b0>

0000d290 <clipboard_get_str@plt>:
    d290:	ff 25 98 f7 00 00    	jmp    *0xf798
    d296:	68 78 01 00 00       	push   $0x178
    d29b:	e9 f0 fc ff ff       	jmp    cf90 <cl_errors+0x7b0>

0000d2a0 <read@plt>:
    d2a0:	ff 25 9c f7 00 00    	jmp    *0xf79c
    d2a6:	68 80 01 00 00       	push   $0x180
    d2ab:	e9 e0 fc ff ff       	jmp    cf90 <cl_errors+0x7b0>

0000d2b0 <vfs_mount@plt>:
    d2b0:	ff 25 a0 f7 00 00    	jmp    *0xf7a0
    d2b6:	68 88 01 00 00       	push   $0x188
    d2bb:	e9 d0 fc ff ff       	jmp    cf90 <cl_errors+0x7b0>

0000d2c0 <unlink@plt>:
    d2c0:	ff 25 a4 f7 00 00    	jmp    *0xf7a4
    d2c6:	68 90 01 00 00       	push   $0x190
    d2cb:	e9 c0 fc ff ff       	jmp    cf90 <cl_errors+0x7b0>

0000d2d0 <realloc@plt>:
    d2d0:	ff 25 a8 f7 00 00    	jmp    *0xf7a8
    d2d6:	68 98 01 00 00       	push   $0x198
    d2db:	e9 b0 fc ff ff       	jmp    cf90 <cl_errors+0x7b0>

0000d2e0 <str_size_t@plt>:
    d2e0:	ff 25 ac f7 00 00    	jmp    *0xf7ac
    d2e6:	68 a0 01 00 00       	push   $0x1a0
    d2eb:	e9 a0 fc ff ff       	jmp    cf90 <cl_errors+0x7b0>

0000d2f0 <memcmp@plt>:
    d2f0:	ff 25 b0 f7 00 00    	jmp    *0xf7b0
    d2f6:	68 a8 01 00 00       	push   $0x1a8
    d2fb:	e9 90 fc ff ff       	jmp    cf90 <cl_errors+0x7b0>

0000d300 <str_cmp@plt>:
    d300:	ff 25 b4 f7 00 00    	jmp    *0xf7b4
    d306:	68 b0 01 00 00       	push   $0x1b0
    d30b:	e9 80 fc ff ff       	jmp    cf90 <cl_errors+0x7b0>

0000d310 <console_set_style@plt>:
    d310:	ff 25 b8 f7 00 00    	jmp    *0xf7b8
    d316:	68 b8 01 00 00       	push   $0x1b8
    d31b:	e9 70 fc ff ff       	jmp    cf90 <cl_errors+0x7b0>

0000d320 <fopen@plt>:
    d320:	ff 25 bc f7 00 00    	jmp    *0xf7bc
    d326:	68 c0 01 00 00       	push   $0x1c0
    d32b:	e9 60 fc ff ff       	jmp    cf90 <cl_errors+0x7b0>

0000d330 <memset@plt>:
    d330:	ff 25 c0 f7 00 00    	jmp    *0xf7c0
    d336:	68 c8 01 00 00       	push   $0x1c8
    d33b:	e9 50 fc ff ff       	jmp    cf90 <cl_errors+0x7b0>

0000d340 <wstr_to_astr@plt>:
    d340:	ff 25 c4 f7 00 00    	jmp    *0xf7c4
    d346:	68 d0 01 00 00       	push   $0x1d0
    d34b:	e9 40 fc ff ff       	jmp    cf90 <cl_errors+0x7b0>

0000d350 <fclose@plt>:
    d350:	ff 25 c8 f7 00 00    	jmp    *0xf7c8
    d356:	68 d8 01 00 00       	push   $0x1d8
    d35b:	e9 30 fc ff ff       	jmp    cf90 <cl_errors+0x7b0>

0000d360 <opendir@plt>:
    d360:	ff 25 cc f7 00 00    	jmp    *0xf7cc
    d366:	68 e0 01 00 00       	push   $0x1e0
    d36b:	e9 20 fc ff ff       	jmp    cf90 <cl_errors+0x7b0>

0000d370 <str_cpy@plt>:
    d370:	ff 25 d0 f7 00 00    	jmp    *0xf7d0
    d376:	68 e8 01 00 00       	push   $0x1e8
    d37b:	e9 10 fc ff ff       	jmp    cf90 <cl_errors+0x7b0>

0000d380 <getcwd@plt>:
    d380:	ff 25 d4 f7 00 00    	jmp    *0xf7d4
    d386:	68 f0 01 00 00       	push   $0x1f0
    d38b:	e9 00 fc ff ff       	jmp    cf90 <cl_errors+0x7b0>

0000d390 <fgetc@plt>:
    d390:	ff 25 d8 f7 00 00    	jmp    *0xf7d8
    d396:	68 f8 01 00 00       	push   $0x1f8
    d39b:	e9 f0 fb ff ff       	jmp    cf90 <cl_errors+0x7b0>

0000d3a0 <asprintf@plt>:
    d3a0:	ff 25 dc f7 00 00    	jmp    *0xf7dc
    d3a6:	68 00 02 00 00       	push   $0x200
    d3ab:	e9 e0 fb ff ff       	jmp    cf90 <cl_errors+0x7b0>

0000d3b0 <console_flush@plt>:
    d3b0:	ff 25 e0 f7 00 00    	jmp    *0xf7e0
    d3b6:	68 08 02 00 00       	push   $0x208
    d3bb:	e9 d0 fb ff ff       	jmp    cf90 <cl_errors+0x7b0>

0000d3c0 <str_size@plt>:
    d3c0:	ff 25 e4 f7 00 00    	jmp    *0xf7e4
    d3c6:	68 10 02 00 00       	push   $0x210
    d3cb:	e9 c0 fb ff ff       	jmp    cf90 <cl_errors+0x7b0>

0000d3d0 <str_uint64_t@plt>:
    d3d0:	ff 25 e8 f7 00 00    	jmp    *0xf7e8
    d3d6:	68 18 02 00 00       	push   $0x218
    d3db:	e9 b0 fb ff ff       	jmp    cf90 <cl_errors+0x7b0>

0000d3e0 <str_length@plt>:
    d3e0:	ff 25 ec f7 00 00    	jmp    *0xf7ec
    d3e6:	68 20 02 00 00       	push   $0x220
    d3eb:	e9 a0 fb ff ff       	jmp    cf90 <cl_errors+0x7b0>

0000d3f0 <str_lcmp@plt>:
    d3f0:	ff 25 f0 f7 00 00    	jmp    *0xf7f0
    d3f6:	68 28 02 00 00       	push   $0x228
    d3fb:	e9 90 fb ff ff       	jmp    cf90 <cl_errors+0x7b0>

0000d400 <console_set_pos@plt>:
    d400:	ff 25 f4 f7 00 00    	jmp    *0xf7f4
    d406:	68 30 02 00 00       	push   $0x230
    d40b:	e9 80 fb ff ff       	jmp    cf90 <cl_errors+0x7b0>

0000d410 <stat@plt>:
    d410:	ff 25 f8 f7 00 00    	jmp    *0xf7f8
    d416:	68 38 02 00 00       	push   $0x238
    d41b:	e9 70 fb ff ff       	jmp    cf90 <cl_errors+0x7b0>

0000d420 <str_error@plt>:
    d420:	ff 25 fc f7 00 00    	jmp    *0xf7fc
    d426:	68 40 02 00 00       	push   $0x240
    d42b:	e9 60 fb ff ff       	jmp    cf90 <cl_errors+0x7b0>

0000d430 <vfs_absolutize@plt>:
    d430:	ff 25 00 f8 00 00    	jmp    *0xf800
    d436:	68 48 02 00 00       	push   $0x248
    d43b:	e9 50 fb ff ff       	jmp    cf90 <cl_errors+0x7b0>

0000d440 <str_to_wstr@plt>:
    d440:	ff 25 04 f8 00 00    	jmp    *0xf804
    d446:	68 50 02 00 00       	push   $0x250
    d44b:	e9 40 fb ff ff       	jmp    cf90 <cl_errors+0x7b0>

0000d450 <exit@plt>:
    d450:	ff 25 08 f8 00 00    	jmp    *0xf808
    d456:	68 58 02 00 00       	push   $0x258
    d45b:	e9 30 fb ff ff       	jmp    cf90 <cl_errors+0x7b0>

0000d460 <fileno@plt>:
    d460:	ff 25 0c f8 00 00    	jmp    *0xf80c
    d466:	68 60 02 00 00       	push   $0x260
    d46b:	e9 20 fb ff ff       	jmp    cf90 <cl_errors+0x7b0>

0000d470 <chr_encode@plt>:
    d470:	ff 25 10 f8 00 00    	jmp    *0xf810
    d476:	68 68 02 00 00       	push   $0x268
    d47b:	e9 10 fb ff ff       	jmp    cf90 <cl_errors+0x7b0>

0000d480 <vfs_unmount@plt>:
    d480:	ff 25 14 f8 00 00    	jmp    *0xf814
    d486:	68 70 02 00 00       	push   $0x270
    d48b:	e9 00 fb ff ff       	jmp    cf90 <cl_errors+0x7b0>

0000d490 <__syscall_fast@plt>:
    d490:	ff 25 18 f8 00 00    	jmp    *0xf818
    d496:	68 78 02 00 00       	push   $0x278
    d49b:	e9 f0 fa ff ff       	jmp    cf90 <cl_errors+0x7b0>

0000d4a0 <open@plt>:
    d4a0:	ff 25 1c f8 00 00    	jmp    *0xf81c
    d4a6:	68 80 02 00 00       	push   $0x280
    d4ab:	e9 e0 fa ff ff       	jmp    cf90 <cl_errors+0x7b0>

0000d4b0 <str_ncpy@plt>:
    d4b0:	ff 25 20 f8 00 00    	jmp    *0xf820
    d4b6:	68 88 02 00 00       	push   $0x288
    d4bb:	e9 d0 fa ff ff       	jmp    cf90 <cl_errors+0x7b0>

0000d4c0 <str_lsize@plt>:
    d4c0:	ff 25 24 f8 00 00    	jmp    *0xf824
    d4c6:	68 90 02 00 00       	push   $0x290
    d4cb:	e9 c0 fa ff ff       	jmp    cf90 <cl_errors+0x7b0>

0000d4d0 <console_done@plt>:
    d4d0:	ff 25 28 f8 00 00    	jmp    *0xf828
    d4d6:	68 98 02 00 00       	push   $0x298
    d4db:	e9 b0 fa ff ff       	jmp    cf90 <cl_errors+0x7b0>

0000d4e0 <closedir@plt>:
    d4e0:	ff 25 2c f8 00 00    	jmp    *0xf82c
    d4e6:	68 a0 02 00 00       	push   $0x2a0
    d4eb:	e9 a0 fa ff ff       	jmp    cf90 <cl_errors+0x7b0>

0000d4f0 <mkdir@plt>:
    d4f0:	ff 25 30 f8 00 00    	jmp    *0xf830
    d4f6:	68 a8 02 00 00       	push   $0x2a8
    d4fb:	e9 90 fa ff ff       	jmp    cf90 <cl_errors+0x7b0>

0000d500 <close@plt>:
    d500:	ff 25 34 f8 00 00    	jmp    *0xf834
    d506:	68 b0 02 00 00       	push   $0x2b0
    d50b:	e9 80 fa ff ff       	jmp    cf90 <cl_errors+0x7b0>

0000d510 <free@plt>:
    d510:	ff 25 38 f8 00 00    	jmp    *0xf838
    d516:	68 b8 02 00 00       	push   $0x2b8
    d51b:	e9 70 fa ff ff       	jmp    cf90 <cl_errors+0x7b0>
