Archive member included to satisfy reference by file (symbol)

../../lib/clui/libclui.a(tinput.o)
                              input.o (tinput_new)
../../lib/fmtutil/libfmtutil.a(fmtutil.o)
                              cmds/modules/help/help.o (print_wrapped_console)

Discarded input sections

 .debug_line    0x0000000000000000       0x53 /home/ayyuce/Desktop/HlnOS/HelenOS/uspace/lib/c/arch/ia32/src/entry.o
 .debug_info    0x0000000000000000       0x6c /home/ayyuce/Desktop/HlnOS/HelenOS/uspace/lib/c/arch/ia32/src/entry.o
 .debug_abbrev  0x0000000000000000       0x14 /home/ayyuce/Desktop/HlnOS/HelenOS/uspace/lib/c/arch/ia32/src/entry.o
 .debug_aranges
                0x0000000000000000       0x20 /home/ayyuce/Desktop/HlnOS/HelenOS/uspace/lib/c/arch/ia32/src/entry.o
 .debug_info    0x0000000000000000      0x59f cmds/modules/help/help.o
 .debug_abbrev  0x0000000000000000      0x244 cmds/modules/help/help.o
 .debug_loc     0x0000000000000000      0x1b2 cmds/modules/help/help.o
 .debug_aranges
                0x0000000000000000       0x20 cmds/modules/help/help.o
 .debug_ranges  0x0000000000000000       0x38 cmds/modules/help/help.o
 .debug_line    0x0000000000000000      0x18b cmds/modules/help/help.o
 .debug_str     0x0000000000000000      0x3a6 cmds/modules/help/help.o
 .comment       0x0000000000000000       0x12 cmds/modules/help/help.o
 .note.GNU-stack
                0x0000000000000000        0x0 cmds/modules/help/help.o
 .eh_frame      0x0000000000000000       0xb4 cmds/modules/help/help.o
 .debug_info    0x0000000000000000      0x8d8 cmds/modules/mkdir/mkdir.o
 .debug_abbrev  0x0000000000000000      0x252 cmds/modules/mkdir/mkdir.o
 .debug_loc     0x0000000000000000      0x2f8 cmds/modules/mkdir/mkdir.o
 .debug_aranges
                0x0000000000000000       0x20 cmds/modules/mkdir/mkdir.o
 .debug_ranges  0x0000000000000000       0x58 cmds/modules/mkdir/mkdir.o
 .debug_line    0x0000000000000000      0x299 cmds/modules/mkdir/mkdir.o
 .debug_str     0x0000000000000000      0x82c cmds/modules/mkdir/mkdir.o
 .comment       0x0000000000000000       0x12 cmds/modules/mkdir/mkdir.o
 .note.GNU-stack
                0x0000000000000000        0x0 cmds/modules/mkdir/mkdir.o
 .eh_frame      0x0000000000000000       0x80 cmds/modules/mkdir/mkdir.o
 .debug_info    0x0000000000000000      0x945 cmds/modules/mkfile/mkfile.o
 .debug_abbrev  0x0000000000000000      0x260 cmds/modules/mkfile/mkfile.o
 .debug_loc     0x0000000000000000      0x31d cmds/modules/mkfile/mkfile.o
 .debug_aranges
                0x0000000000000000       0x20 cmds/modules/mkfile/mkfile.o
 .debug_ranges  0x0000000000000000       0x20 cmds/modules/mkfile/mkfile.o
 .debug_line    0x0000000000000000      0x23a cmds/modules/mkfile/mkfile.o
 .debug_str     0x0000000000000000      0x820 cmds/modules/mkfile/mkfile.o
 .comment       0x0000000000000000       0x12 cmds/modules/mkfile/mkfile.o
 .note.GNU-stack
                0x0000000000000000        0x0 cmds/modules/mkfile/mkfile.o
 .eh_frame      0x0000000000000000       0x70 cmds/modules/mkfile/mkfile.o
 .debug_info    0x0000000000000000      0xba3 cmds/modules/rm/rm.o
 .debug_abbrev  0x0000000000000000      0x2b2 cmds/modules/rm/rm.o
 .debug_loc     0x0000000000000000      0x4d1 cmds/modules/rm/rm.o
 .debug_aranges
                0x0000000000000000       0x20 cmds/modules/rm/rm.o
 .debug_ranges  0x0000000000000000       0x60 cmds/modules/rm/rm.o
 .debug_line    0x0000000000000000      0x248 cmds/modules/rm/rm.o
 .debug_str     0x0000000000000000      0x42d cmds/modules/rm/rm.o
 .comment       0x0000000000000000       0x12 cmds/modules/rm/rm.o
 .note.GNU-stack
                0x0000000000000000        0x0 cmds/modules/rm/rm.o
 .eh_frame      0x0000000000000000       0xec cmds/modules/rm/rm.o
 .debug_info    0x0000000000000000     0x13f5 cmds/modules/cat/cat.o
 .debug_abbrev  0x0000000000000000      0x2c5 cmds/modules/cat/cat.o
 .debug_loc     0x0000000000000000      0x90d cmds/modules/cat/cat.o
 .debug_aranges
                0x0000000000000000       0x20 cmds/modules/cat/cat.o
 .debug_ranges  0x0000000000000000      0x138 cmds/modules/cat/cat.o
 .debug_line    0x0000000000000000      0x4a9 cmds/modules/cat/cat.o
 .debug_str     0x0000000000000000      0xf8c cmds/modules/cat/cat.o
 .comment       0x0000000000000000       0x12 cmds/modules/cat/cat.o
 .note.GNU-stack
                0x0000000000000000        0x0 cmds/modules/cat/cat.o
 .eh_frame      0x0000000000000000       0xa8 cmds/modules/cat/cat.o
 .debug_info    0x0000000000000000      0x85c cmds/modules/touch/touch.o
 .debug_abbrev  0x0000000000000000      0x1f4 cmds/modules/touch/touch.o
 .debug_loc     0x0000000000000000      0x243 cmds/modules/touch/touch.o
 .debug_aranges
                0x0000000000000000       0x20 cmds/modules/touch/touch.o
 .debug_line    0x0000000000000000      0x23c cmds/modules/touch/touch.o
 .debug_str     0x0000000000000000      0x84f cmds/modules/touch/touch.o
 .comment       0x0000000000000000       0x12 cmds/modules/touch/touch.o
 .note.GNU-stack
                0x0000000000000000        0x0 cmds/modules/touch/touch.o
 .eh_frame      0x0000000000000000       0x70 cmds/modules/touch/touch.o
 .debug_info    0x0000000000000000      0xfa5 cmds/modules/ls/ls.o
 .debug_abbrev  0x0000000000000000      0x372 cmds/modules/ls/ls.o
 .debug_loc     0x0000000000000000      0x9a4 cmds/modules/ls/ls.o
 .debug_aranges
                0x0000000000000000       0x20 cmds/modules/ls/ls.o
 .debug_ranges  0x0000000000000000       0xb0 cmds/modules/ls/ls.o
 .debug_line    0x0000000000000000      0x3d4 cmds/modules/ls/ls.o
 .debug_str     0x0000000000000000      0x941 cmds/modules/ls/ls.o
 .comment       0x0000000000000000       0x12 cmds/modules/ls/ls.o
 .note.GNU-stack
                0x0000000000000000        0x0 cmds/modules/ls/ls.o
 .eh_frame      0x0000000000000000       0xf8 cmds/modules/ls/ls.o
 .debug_info    0x0000000000000000      0x350 cmds/modules/pwd/pwd.o
 .debug_abbrev  0x0000000000000000      0x139 cmds/modules/pwd/pwd.o
 .debug_loc     0x0000000000000000       0x34 cmds/modules/pwd/pwd.o
 .debug_aranges
                0x0000000000000000       0x20 cmds/modules/pwd/pwd.o
 .debug_line    0x0000000000000000       0xc7 cmds/modules/pwd/pwd.o
 .debug_str     0x0000000000000000      0x2ad cmds/modules/pwd/pwd.o
 .comment       0x0000000000000000       0x12 cmds/modules/pwd/pwd.o
 .note.GNU-stack
                0x0000000000000000        0x0 cmds/modules/pwd/pwd.o
 .eh_frame      0x0000000000000000       0x68 cmds/modules/pwd/pwd.o
 .debug_info    0x0000000000000000      0x480 cmds/modules/sleep/sleep.o
 .debug_abbrev  0x0000000000000000      0x1ce cmds/modules/sleep/sleep.o
 .debug_loc     0x0000000000000000      0x131 cmds/modules/sleep/sleep.o
 .debug_aranges
                0x0000000000000000       0x20 cmds/modules/sleep/sleep.o
 .debug_ranges  0x0000000000000000       0x20 cmds/modules/sleep/sleep.o
 .debug_line    0x0000000000000000      0x15e cmds/modules/sleep/sleep.o
 .debug_str     0x0000000000000000      0x32a cmds/modules/sleep/sleep.o
 .comment       0x0000000000000000       0x12 cmds/modules/sleep/sleep.o
 .note.GNU-stack
                0x0000000000000000        0x0 cmds/modules/sleep/sleep.o
 .eh_frame      0x0000000000000000       0x84 cmds/modules/sleep/sleep.o
 .debug_info    0x0000000000000000     0x196b cmds/modules/cp/cp.o
 .debug_abbrev  0x0000000000000000      0x3f9 cmds/modules/cp/cp.o
 .debug_loc     0x0000000000000000      0xb97 cmds/modules/cp/cp.o
 .debug_aranges
                0x0000000000000000       0x20 cmds/modules/cp/cp.o
 .debug_ranges  0x0000000000000000      0x1a0 cmds/modules/cp/cp.o
 .debug_line    0x0000000000000000      0x4db cmds/modules/cp/cp.o
 .debug_str     0x0000000000000000      0xf98 cmds/modules/cp/cp.o
 .comment       0x0000000000000000       0x12 cmds/modules/cp/cp.o
 .note.GNU-stack
                0x0000000000000000        0x0 cmds/modules/cp/cp.o
 .eh_frame      0x0000000000000000      0x118 cmds/modules/cp/cp.o
 .debug_info    0x0000000000000000      0x32d cmds/modules/mv/mv.o
 .debug_abbrev  0x0000000000000000      0x148 cmds/modules/mv/mv.o
 .debug_loc     0x0000000000000000       0x31 cmds/modules/mv/mv.o
 .debug_aranges
                0x0000000000000000       0x20 cmds/modules/mv/mv.o
 .debug_line    0x0000000000000000       0xb5 cmds/modules/mv/mv.o
 .debug_str     0x0000000000000000      0x2a3 cmds/modules/mv/mv.o
 .comment       0x0000000000000000       0x12 cmds/modules/mv/mv.o
 .note.GNU-stack
                0x0000000000000000        0x0 cmds/modules/mv/mv.o
 .eh_frame      0x0000000000000000       0x64 cmds/modules/mv/mv.o
 .debug_info    0x0000000000000000      0x4c9 cmds/modules/printf/printf.o
 .debug_abbrev  0x0000000000000000      0x1d0 cmds/modules/printf/printf.o
 .debug_loc     0x0000000000000000      0x271 cmds/modules/printf/printf.o
 .debug_aranges
                0x0000000000000000       0x20 cmds/modules/printf/printf.o
 .debug_ranges  0x0000000000000000       0x60 cmds/modules/printf/printf.o
 .debug_line    0x0000000000000000      0x179 cmds/modules/printf/printf.o
 .debug_str     0x0000000000000000      0x306 cmds/modules/printf/printf.o
 .comment       0x0000000000000000       0x12 cmds/modules/printf/printf.o
 .note.GNU-stack
                0x0000000000000000        0x0 cmds/modules/printf/printf.o
 .eh_frame      0x0000000000000000       0x70 cmds/modules/printf/printf.o
 .debug_info    0x0000000000000000      0x322 cmds/modules/echo/echo.o
 .debug_abbrev  0x0000000000000000      0x174 cmds/modules/echo/echo.o
 .debug_loc     0x0000000000000000       0x28 cmds/modules/echo/echo.o
 .debug_aranges
                0x0000000000000000       0x20 cmds/modules/echo/echo.o
 .debug_line    0x0000000000000000       0xa8 cmds/modules/echo/echo.o
 .debug_str     0x0000000000000000      0x28d cmds/modules/echo/echo.o
 .comment       0x0000000000000000       0x12 cmds/modules/echo/echo.o
 .note.GNU-stack
                0x0000000000000000        0x0 cmds/modules/echo/echo.o
 .eh_frame      0x0000000000000000       0x64 cmds/modules/echo/echo.o
 .debug_info    0x0000000000000000      0xa7d cmds/modules/mount/mount.o
 .debug_abbrev  0x0000000000000000      0x267 cmds/modules/mount/mount.o
 .debug_loc     0x0000000000000000      0x2f9 cmds/modules/mount/mount.o
 .debug_aranges
                0x0000000000000000       0x20 cmds/modules/mount/mount.o
 .debug_line    0x0000000000000000      0x265 cmds/modules/mount/mount.o
 .debug_str     0x0000000000000000      0x8a3 cmds/modules/mount/mount.o
 .comment       0x0000000000000000       0x12 cmds/modules/mount/mount.o
 .note.GNU-stack
                0x0000000000000000        0x0 cmds/modules/mount/mount.o
 .eh_frame      0x0000000000000000       0x70 cmds/modules/mount/mount.o
 .debug_info    0x0000000000000000      0x588 cmds/modules/unmount/unmount.o
 .debug_abbrev  0x0000000000000000      0x1aa cmds/modules/unmount/unmount.o
 .debug_loc     0x0000000000000000       0x45 cmds/modules/unmount/unmount.o
 .debug_aranges
                0x0000000000000000       0x20 cmds/modules/unmount/unmount.o
 .debug_line    0x0000000000000000      0x195 cmds/modules/unmount/unmount.o
 .debug_str     0x0000000000000000      0x737 cmds/modules/unmount/unmount.o
 .comment       0x0000000000000000       0x12 cmds/modules/unmount/unmount.o
 .note.GNU-stack
                0x0000000000000000        0x0 cmds/modules/unmount/unmount.o
 .eh_frame      0x0000000000000000       0x6c cmds/modules/unmount/unmount.o
 .debug_info    0x0000000000000000      0x534 cmds/modules/kcon/kcon.o
 .debug_abbrev  0x0000000000000000      0x160 cmds/modules/kcon/kcon.o
 .debug_loc     0x0000000000000000       0x13 cmds/modules/kcon/kcon.o
 .debug_aranges
                0x0000000000000000       0x20 cmds/modules/kcon/kcon.o
 .debug_line    0x0000000000000000      0x188 cmds/modules/kcon/kcon.o
 .debug_str     0x0000000000000000      0x726 cmds/modules/kcon/kcon.o
 .comment       0x0000000000000000       0x12 cmds/modules/kcon/kcon.o
 .note.GNU-stack
                0x0000000000000000        0x0 cmds/modules/kcon/kcon.o
 .eh_frame      0x0000000000000000       0x68 cmds/modules/kcon/kcon.o
 .debug_info    0x0000000000000000      0x897 cmds/modules/cmp/cmp.o
 .debug_abbrev  0x0000000000000000      0x236 cmds/modules/cmp/cmp.o
 .debug_loc     0x0000000000000000      0x21a cmds/modules/cmp/cmp.o
 .debug_aranges
                0x0000000000000000       0x20 cmds/modules/cmp/cmp.o
 .debug_ranges  0x0000000000000000       0x40 cmds/modules/cmp/cmp.o
 .debug_line    0x0000000000000000      0x21c cmds/modules/cmp/cmp.o
 .debug_str     0x0000000000000000      0x7c1 cmds/modules/cmp/cmp.o
 .comment       0x0000000000000000       0x12 cmds/modules/cmp/cmp.o
 .note.GNU-stack
                0x0000000000000000        0x0 cmds/modules/cmp/cmp.o
 .eh_frame      0x0000000000000000       0xb0 cmds/modules/cmp/cmp.o
 .debug_info    0x0000000000000000      0x436 cmds/builtins/batch/batch.o
 .debug_abbrev  0x0000000000000000      0x1aa cmds/builtins/batch/batch.o
 .debug_loc     0x0000000000000000      0x1d7 cmds/builtins/batch/batch.o
 .debug_aranges
                0x0000000000000000       0x20 cmds/builtins/batch/batch.o
 .debug_line    0x0000000000000000      0x10f cmds/builtins/batch/batch.o
 .debug_str     0x0000000000000000      0x2f0 cmds/builtins/batch/batch.o
 .comment       0x0000000000000000       0x12 cmds/builtins/batch/batch.o
 .note.GNU-stack
                0x0000000000000000        0x0 cmds/builtins/batch/batch.o
 .eh_frame      0x0000000000000000       0x70 cmds/builtins/batch/batch.o
 .debug_info    0x0000000000000000      0x2d0 cmds/builtins/exit/exit.o
 .debug_abbrev  0x0000000000000000      0x139 cmds/builtins/exit/exit.o
 .debug_aranges
                0x0000000000000000       0x20 cmds/builtins/exit/exit.o
 .debug_line    0x0000000000000000       0x8c cmds/builtins/exit/exit.o
 .debug_str     0x0000000000000000      0x288 cmds/builtins/exit/exit.o
 .comment       0x0000000000000000       0x12 cmds/builtins/exit/exit.o
 .note.GNU-stack
                0x0000000000000000        0x0 cmds/builtins/exit/exit.o
 .eh_frame      0x0000000000000000       0x58 cmds/builtins/exit/exit.o
 .debug_info    0x0000000000000000      0x596 cmds/builtins/cd/cd.o
 .debug_abbrev  0x0000000000000000      0x1ea cmds/builtins/cd/cd.o
 .debug_loc     0x0000000000000000      0x21f cmds/builtins/cd/cd.o
 .debug_aranges
                0x0000000000000000       0x20 cmds/builtins/cd/cd.o
 .debug_ranges  0x0000000000000000       0x48 cmds/builtins/cd/cd.o
 .debug_line    0x0000000000000000      0x15b cmds/builtins/cd/cd.o
 .debug_str     0x0000000000000000      0x38e cmds/builtins/cd/cd.o
 .comment       0x0000000000000000       0x12 cmds/builtins/cd/cd.o
 .note.GNU-stack
                0x0000000000000000        0x0 cmds/builtins/cd/cd.o
 .eh_frame      0x0000000000000000       0xb8 cmds/builtins/cd/cd.o
 .debug_info    0x0000000000000000      0x483 cmds/mod_cmds.o
 .debug_abbrev  0x0000000000000000      0x173 cmds/mod_cmds.o
 .debug_loc     0x0000000000000000      0x115 cmds/mod_cmds.o
 .debug_aranges
                0x0000000000000000       0x20 cmds/mod_cmds.o
 .debug_line    0x0000000000000000      0x109 cmds/mod_cmds.o
 .debug_str     0x0000000000000000      0x314 cmds/mod_cmds.o
 .comment       0x0000000000000000       0x12 cmds/mod_cmds.o
 .note.GNU-stack
                0x0000000000000000        0x0 cmds/mod_cmds.o
 .eh_frame      0x0000000000000000      0x100 cmds/mod_cmds.o
 .debug_info    0x0000000000000000      0x48d cmds/builtin_cmds.o
 .debug_abbrev  0x0000000000000000      0x191 cmds/builtin_cmds.o
 .debug_loc     0x0000000000000000       0xc9 cmds/builtin_cmds.o
 .debug_aranges
                0x0000000000000000       0x20 cmds/builtin_cmds.o
 .debug_line    0x0000000000000000       0xfe cmds/builtin_cmds.o
 .debug_str     0x0000000000000000      0x322 cmds/builtin_cmds.o
 .comment       0x0000000000000000       0x12 cmds/builtin_cmds.o
 .note.GNU-stack
                0x0000000000000000        0x0 cmds/builtin_cmds.o
 .eh_frame      0x0000000000000000       0xf0 cmds/builtin_cmds.o
 .debug_info    0x0000000000000000      0xe40 compl.o
 .debug_abbrev  0x0000000000000000      0x2c4 compl.o
 .debug_loc     0x0000000000000000      0x614 compl.o
 .debug_aranges
                0x0000000000000000       0x20 compl.o
 .debug_ranges  0x0000000000000000       0x40 compl.o
 .debug_line    0x0000000000000000      0x383 compl.o
 .debug_str     0x0000000000000000      0xb70 compl.o
 .comment       0x0000000000000000       0x12 compl.o
 .note.GNU-stack
                0x0000000000000000        0x0 compl.o
 .eh_frame      0x0000000000000000       0xb0 compl.o
 .debug_info    0x0000000000000000      0x1d0 errors.o
 .debug_abbrev  0x0000000000000000      0x143 errors.o
 .debug_loc     0x0000000000000000       0x60 errors.o
 .debug_aranges
                0x0000000000000000       0x20 errors.o
 .debug_line    0x0000000000000000       0x94 errors.o
 .debug_str     0x0000000000000000      0x20c errors.o
 .comment       0x0000000000000000       0x12 errors.o
 .note.GNU-stack
                0x0000000000000000        0x0 errors.o
 .eh_frame      0x0000000000000000       0x40 errors.o
 .debug_info    0x0000000000000000      0xdff input.o
 .debug_abbrev  0x0000000000000000      0x28f input.o
 .debug_loc     0x0000000000000000      0x949 input.o
 .debug_aranges
                0x0000000000000000       0x20 input.o
 .debug_ranges  0x0000000000000000       0x58 input.o
 .debug_line    0x0000000000000000      0x37f input.o
 .debug_str     0x0000000000000000      0xc18 input.o
 .comment       0x0000000000000000       0x12 input.o
 .note.GNU-stack
                0x0000000000000000        0x0 input.o
 .eh_frame      0x0000000000000000       0xb0 input.o
 .debug_info    0x0000000000000000      0x201 util.o
 .debug_abbrev  0x0000000000000000       0xf8 util.o
 .debug_loc     0x0000000000000000       0x3e util.o
 .debug_aranges
                0x0000000000000000       0x20 util.o
 .debug_line    0x0000000000000000       0xa8 util.o
 .debug_str     0x0000000000000000      0x223 util.o
 .comment       0x0000000000000000       0x12 util.o
 .note.GNU-stack
                0x0000000000000000        0x0 util.o
 .eh_frame      0x0000000000000000       0x68 util.o
 .debug_info    0x0000000000000000      0x7c5 exec.o
 .debug_abbrev  0x0000000000000000      0x204 exec.o
 .debug_loc     0x0000000000000000      0x136 exec.o
 .debug_aranges
                0x0000000000000000       0x20 exec.o
 .debug_ranges  0x0000000000000000       0x30 exec.o
 .debug_line    0x0000000000000000      0x2a6 exec.o
 .debug_str     0x0000000000000000      0x85c exec.o
 .comment       0x0000000000000000       0x12 exec.o
 .note.GNU-stack
                0x0000000000000000        0x0 exec.o
 .eh_frame      0x0000000000000000       0x74 exec.o
 .debug_info    0x0000000000000000      0x491 scli.o
 .debug_abbrev  0x0000000000000000      0x1ed scli.o
 .debug_loc     0x0000000000000000       0xd7 scli.o
 .debug_aranges
                0x0000000000000000       0x28 scli.o
 .debug_ranges  0x0000000000000000       0x30 scli.o
 .debug_line    0x0000000000000000       0xf9 scli.o
 .debug_str     0x0000000000000000      0x2f6 scli.o
 .comment       0x0000000000000000       0x12 scli.o
 .note.GNU-stack
                0x0000000000000000        0x0 scli.o
 .eh_frame      0x0000000000000000       0x90 scli.o
 .debug_info    0x0000000000000000      0xa3b tok.o
 .debug_abbrev  0x0000000000000000      0x255 tok.o
 .debug_loc     0x0000000000000000      0x551 tok.o
 .debug_aranges
                0x0000000000000000       0x20 tok.o
 .debug_ranges  0x0000000000000000      0x150 tok.o
 .debug_line    0x0000000000000000      0x25d tok.o
 .debug_str     0x0000000000000000      0x3c5 tok.o
 .comment       0x0000000000000000       0x12 tok.o
 .note.GNU-stack
                0x0000000000000000        0x0 tok.o
 .eh_frame      0x0000000000000000       0xd8 tok.o
 .debug_info    0x0000000000000000     0x3960 ../../lib/clui/libclui.a(tinput.o)
 .debug_abbrev  0x0000000000000000      0x4c3 ../../lib/clui/libclui.a(tinput.o)
 .debug_loc     0x0000000000000000     0x31b7 ../../lib/clui/libclui.a(tinput.o)
 .debug_aranges
                0x0000000000000000       0x20 ../../lib/clui/libclui.a(tinput.o)
 .debug_ranges  0x0000000000000000      0x808 ../../lib/clui/libclui.a(tinput.o)
 .debug_line    0x0000000000000000      0x9b8 ../../lib/clui/libclui.a(tinput.o)
 .debug_str     0x0000000000000000     0x1212 ../../lib/clui/libclui.a(tinput.o)
 .comment       0x0000000000000000       0x12 ../../lib/clui/libclui.a(tinput.o)
 .note.GNU-stack
                0x0000000000000000        0x0 ../../lib/clui/libclui.a(tinput.o)
 .eh_frame      0x0000000000000000      0x224 ../../lib/clui/libclui.a(tinput.o)
 .debug_info    0x0000000000000000      0xb27 ../../lib/fmtutil/libfmtutil.a(fmtutil.o)
 .debug_abbrev  0x0000000000000000      0x255 ../../lib/fmtutil/libfmtutil.a(fmtutil.o)
 .debug_loc     0x0000000000000000      0xabf ../../lib/fmtutil/libfmtutil.a(fmtutil.o)
 .debug_aranges
                0x0000000000000000       0x20 ../../lib/fmtutil/libfmtutil.a(fmtutil.o)
 .debug_ranges  0x0000000000000000       0xf8 ../../lib/fmtutil/libfmtutil.a(fmtutil.o)
 .debug_line    0x0000000000000000      0x37d ../../lib/fmtutil/libfmtutil.a(fmtutil.o)
 .debug_str     0x0000000000000000      0x8d9 ../../lib/fmtutil/libfmtutil.a(fmtutil.o)
 .comment       0x0000000000000000       0x12 ../../lib/fmtutil/libfmtutil.a(fmtutil.o)
 .note.GNU-stack
                0x0000000000000000        0x0 ../../lib/fmtutil/libfmtutil.a(fmtutil.o)
 .eh_frame      0x0000000000000000      0x108 ../../lib/fmtutil/libfmtutil.a(fmtutil.o)

Memory Configuration

Name             Origin             Length             Attributes
*default*        0x0000000000000000 0xffffffffffffffff

Linker script and memory map

LOAD /home/ayyuce/Desktop/HlnOS/HelenOS/uspace/lib/c/arch/ia32/src/entry.o
                0x00000000000010f4                . = (0x1000 + SIZEOF_HEADERS)

.init           0x00000000000010f4       0x2e
 *(.init)
 .init          0x00000000000010f4       0x2e /home/ayyuce/Desktop/HlnOS/HelenOS/uspace/lib/c/arch/ia32/src/entry.o
                0x00000000000010f4                __entry

.text           0x0000000000001140     0xbb4c
 *(.text .text.*)
 .text          0x0000000000001140        0x0 /home/ayyuce/Desktop/HlnOS/HelenOS/uspace/lib/c/arch/ia32/src/entry.o
 .text          0x0000000000001140      0x2ae cmds/modules/help/help.o
                0x0000000000001140                cmd_help
                0x00000000000013a0                help_cmd_help
 *fill*         0x00000000000013ee        0x2 
 .text          0x00000000000013f0      0x36d cmds/modules/mkdir/mkdir.o
                0x00000000000013f0                help_cmd_mkdir
                0x0000000000001450                cmd_mkdir
 *fill*         0x000000000000175d        0x3 
 .text          0x0000000000001760      0x32a cmds/modules/mkfile/mkfile.o
                0x0000000000001760                help_cmd_mkfile
                0x00000000000017b0                cmd_mkfile
 *fill*         0x0000000000001a8a        0x6 
 .text          0x0000000000001a90      0x603 cmds/modules/rm/rm.o
                0x0000000000001c00                help_cmd_rm
                0x0000000000001c60                cmd_rm
 *fill*         0x0000000000002093        0xd 
 .text          0x00000000000020a0      0xb39 cmds/modules/cat/cat.o
                0x00000000000021a0                help_cmd_cat
                0x0000000000002200                cmd_cat
 *fill*         0x0000000000002bd9        0x7 
 .text          0x0000000000002be0      0x1f6 cmds/modules/touch/touch.o
                0x0000000000002be0                help_cmd_touch
                0x0000000000002c30                cmd_touch
 *fill*         0x0000000000002dd6        0xa 
 .text          0x0000000000002de0      0x955 cmds/modules/ls/ls.o
                0x0000000000003450                help_cmd_ls
                0x00000000000034a0                cmd_ls
 *fill*         0x0000000000003735        0xb 
 .text          0x0000000000003740       0xc0 cmds/modules/pwd/pwd.o
                0x0000000000003740                help_cmd_pwd
                0x0000000000003760                cmd_pwd
 .text          0x0000000000003800      0x1d6 cmds/modules/sleep/sleep.o
                0x0000000000003800                help_cmd_sleep
                0x0000000000003850                cmd_sleep
 *fill*         0x00000000000039d6        0xa 
 .text          0x00000000000039e0      0xcb9 cmds/modules/cp/cp.o
                0x0000000000004420                help_cmd_cp
                0x0000000000004470                cmd_cp
 *fill*         0x0000000000004699        0x7 
 .text          0x00000000000046a0       0x95 cmds/modules/mv/mv.o
                0x00000000000046a0                help_cmd_mv
                0x00000000000046c0                cmd_mv
 *fill*         0x0000000000004735        0xb 
 .text          0x0000000000004740      0x22e cmds/modules/printf/printf.o
                0x0000000000004740                help_cmd_printf
                0x0000000000004790                cmd_printf
 *fill*         0x000000000000496e        0x2 
 .text          0x0000000000004970       0x96 cmds/modules/echo/echo.o
                0x0000000000004970                help_cmd_echo
                0x00000000000049c0                cmd_echo
 *fill*         0x0000000000004a06        0xa 
 .text          0x0000000000004a10      0x2ff cmds/modules/mount/mount.o
                0x0000000000004a10                help_cmd_mount
                0x0000000000004a60                cmd_mount
 *fill*         0x0000000000004d0f        0x1 
 .text          0x0000000000004d10       0xb8 cmds/modules/unmount/unmount.o
                0x0000000000004d10                help_cmd_unmount
                0x0000000000004d60                cmd_unmount
 *fill*         0x0000000000004dc8        0x8 
 .text          0x0000000000004dd0       0x87 cmds/modules/kcon/kcon.o
                0x0000000000004dd0                help_cmd_kcon
                0x0000000000004e10                cmd_kcon
 *fill*         0x0000000000004e57        0x9 
 .text          0x0000000000004e60      0x2da cmds/modules/cmp/cmp.o
                0x0000000000004ff0                help_cmd_cmp
                0x0000000000005040                cmd_cmp
 *fill*         0x000000000000513a        0x6 
 .text          0x0000000000005140      0x1ff cmds/builtins/batch/batch.o
                0x0000000000005140                help_cmd_batch
                0x0000000000005170                cmd_batch
 *fill*         0x000000000000533f        0x1 
 .text          0x0000000000005340       0x31 cmds/builtins/exit/exit.o
                0x0000000000005340                help_cmd_exit
                0x0000000000005360                cmd_exit
 *fill*         0x0000000000005371        0xf 
 .text          0x0000000000005380      0x2e3 cmds/builtins/cd/cd.o
                0x0000000000005380                help_cmd_cd
                0x00000000000053c0                cmd_cd
 *fill*         0x0000000000005663        0xd 
 .text          0x0000000000005670      0x1b2 cmds/mod_cmds.o
                0x0000000000005670                is_module
                0x00000000000056e0                is_module_alias
                0x0000000000005740                alias_for_module
                0x00000000000057a0                help_module
                0x00000000000057d0                run_module
 *fill*         0x0000000000005822        0xe 
 .text          0x0000000000005830      0x159 cmds/builtin_cmds.o
                0x0000000000005830                is_builtin
                0x0000000000005890                is_builtin_alias
                0x00000000000058d0                alias_for_builtin
                0x0000000000005900                help_builtin
                0x0000000000005930                run_builtin
 *fill*         0x0000000000005989        0x7 
 .text          0x0000000000005990      0x7a0 compl.o
 .text          0x0000000000006130       0x5a errors.o
                0x0000000000006130                cli_error
 *fill*         0x000000000000618a        0x6 
 .text          0x0000000000006190      0x74f input.o
                0x0000000000006190                process_input
                0x00000000000067f0                get_input
                0x00000000000068a0                input_init
 *fill*         0x00000000000068df        0x1 
 .text          0x00000000000068e0       0xc9 util.o
                0x00000000000068e0                cli_count_args
                0x0000000000006900                cli_set_prompt
 *fill*         0x00000000000069a9        0x7 
 .text          0x00000000000069b0      0x236 exec.o
                0x00000000000069b0                try_exec
 *fill*         0x0000000000006be6        0xa 
 .text          0x0000000000006bf0       0x36 scli.o
                0x0000000000006bf0                get_iostate
                0x0000000000006c00                set_iostate
 *fill*         0x0000000000006c26        0xa 
 .text.startup  0x0000000000006c30      0x149 scli.o
                0x0000000000006c30                main
 *fill*         0x0000000000006d79        0x7 
 .text          0x0000000000006d80      0x61c tok.o
                0x0000000000006da0                tok_init
                0x0000000000006e20                tok_fini
                0x0000000000006e40                tok_tokenize
 *fill*         0x000000000000739c        0x4 
 .text          0x00000000000073a0     0x21ea ../../lib/clui/libclui.a(tinput.o)
                0x0000000000007af0                tinput_new
                0x0000000000007b50                tinput_destroy
                0x0000000000007b80                tinput_set_prompt
                0x0000000000007bc0                tinput_set_compl_ops
                0x0000000000007bd0                tinput_read_i
                0x0000000000009570                tinput_read
 *fill*         0x000000000000958a        0x6 
 .text          0x0000000000009590      0x8ec ../../lib/fmtutil/libfmtutil.a(fmtutil.o)
                0x0000000000009590                print_aligned_w
                0x0000000000009880                print_wrapped
                0x0000000000009b50                print_wrapped_console
                0x0000000000009c00                print_aligned
                0x0000000000009c60                wrap
 *(.rodata .rodata.*)
 .rodata.str1.1
                0x0000000000009e7c      0x217 cmds/modules/help/help.o
                                        0x229 (size before relaxing)
 *fill*         0x000000000000a093        0x1 
 .rodata.str1.4
                0x000000000000a094      0x672 cmds/modules/help/help.o
 .rodata.str1.1
                0x000000000000a706       0xbf cmds/modules/mkdir/mkdir.o
                                         0xcf (size before relaxing)
 *fill*         0x000000000000a7c5        0x3 
 .rodata.str1.4
                0x000000000000a7c8      0x1fe cmds/modules/mkdir/mkdir.o
 *fill*         0x000000000000a9c6       0x1a 
 .rodata        0x000000000000a9e0      0x110 cmds/modules/mkdir/mkdir.o
 .rodata.str1.1
                0x000000000000aaf0       0x4a cmds/modules/mkfile/mkfile.o
                                         0x56 (size before relaxing)
 *fill*         0x000000000000ab3a        0x2 
 .rodata.str1.4
                0x000000000000ab3c      0x193 cmds/modules/mkfile/mkfile.o
 *fill*         0x000000000000accf       0x11 
 .rodata        0x000000000000ace0       0x40 cmds/modules/mkfile/mkfile.o
 .rodata.str1.1
                0x000000000000ad20       0x8e cmds/modules/rm/rm.o
                                         0xad (size before relaxing)
 *fill*         0x000000000000adae        0x2 
 .rodata.str1.4
                0x000000000000adb0      0x1ed cmds/modules/rm/rm.o
 *fill*         0x000000000000af9d        0x3 
 .rodata        0x000000000000afa0       0xc0 cmds/modules/rm/rm.o
 .rodata.str1.4
                0x000000000000b060      0x2c5 cmds/modules/cat/cat.o
                                        0x2fd (size before relaxing)
 .rodata.str1.1
                0x000000000000b325       0xca cmds/modules/cat/cat.o
                                         0xe7 (size before relaxing)
 *fill*         0x000000000000b3ef       0x11 
 .rodata        0x000000000000b400      0x180 cmds/modules/cat/cat.o
 .rodata.str1.1
                0x000000000000b580       0x1e cmds/modules/touch/touch.o
                                         0x34 (size before relaxing)
 *fill*         0x000000000000b59e        0x2 
 .rodata.str1.4
                0x000000000000b5a0      0x13c cmds/modules/touch/touch.o
 *fill*         0x000000000000b6dc        0x4 
 .rodata        0x000000000000b6e0       0x20 cmds/modules/touch/touch.o
 .rodata.str1.1
                0x000000000000b700       0xa3 cmds/modules/ls/ls.o
                                         0xbe (size before relaxing)
 *fill*         0x000000000000b7a3        0x1 
 .rodata.str1.4
                0x000000000000b7a4      0x141 cmds/modules/ls/ls.o
 *fill*         0x000000000000b8e5       0x1b 
 .rodata        0x000000000000b900       0x40 cmds/modules/ls/ls.o
 .rodata.str1.1
                0x000000000000b940        0x4 cmds/modules/pwd/pwd.o
                                          0xc (size before relaxing)
 .rodata.str1.4
                0x000000000000b944       0x62 cmds/modules/pwd/pwd.o
 .rodata.str1.1
                0x000000000000b9a6       0x18 cmds/modules/sleep/sleep.o
                                         0x1e (size before relaxing)
 *fill*         0x000000000000b9be        0x2 
 .rodata.str1.4
                0x000000000000b9c0       0x9f cmds/modules/sleep/sleep.o
 *fill*         0x000000000000ba5f        0x1 
 .rodata.str1.4
                0x000000000000ba60      0x22e cmds/modules/cp/cp.o
                                        0x25e (size before relaxing)
 .rodata.str1.1
                0x000000000000bc8e       0xd5 cmds/modules/cp/cp.o
                                        0x115 (size before relaxing)
 *fill*         0x000000000000bd63       0x1d 
 .rodata        0x000000000000bd80      0x120 cmds/modules/cp/cp.o
 .rodata.str1.1
                0x000000000000bea0       0x14 cmds/modules/mv/mv.o
                                         0x17 (size before relaxing)
 .rodata.str1.4
                0x000000000000beb4       0x4a cmds/modules/mv/mv.o
 .rodata.str1.1
                0x000000000000befe       0x20 cmds/modules/printf/printf.o
                                         0x2f (size before relaxing)
 *fill*         0x000000000000bf1e        0x2 
 .rodata.str1.4
                0x000000000000bf20       0xf5 cmds/modules/printf/printf.o
 .rodata.str1.1
                0x000000000000c015       0x1a cmds/modules/echo/echo.o
                                         0x21 (size before relaxing)
 *fill*         0x000000000000c02f        0x1 
 .rodata.str1.4
                0x000000000000c030       0x3c cmds/modules/echo/echo.o
 .rodata.str1.1
                0x000000000000c06c       0x33 cmds/modules/mount/mount.o
                                         0x4c (size before relaxing)
 *fill*         0x000000000000c09f        0x1 
 .rodata.str1.4
                0x000000000000c0a0       0x6b cmds/modules/mount/mount.o
 *fill*         0x000000000000c10b       0x15 
 .rodata        0x000000000000c120       0x30 cmds/modules/mount/mount.o
 .rodata.str1.1
                0x000000000000c150       0x4b cmds/modules/unmount/unmount.o
                                         0x53 (size before relaxing)
 .rodata.str1.4
                0x000000000000c19b       0x22 cmds/modules/unmount/unmount.o
 *fill*         0x000000000000c19b        0x1 
 .rodata.str1.4
                0x000000000000c19c       0x2e cmds/modules/kcon/kcon.o
                                         0x65 (size before relaxing)
 .rodata.str1.1
                0x000000000000c1ca        0xb cmds/modules/kcon/kcon.o
                                         0x10 (size before relaxing)
 .rodata.str1.1
                0x000000000000c1d5       0x1a cmds/modules/cmp/cmp.o
                                         0x48 (size before relaxing)
 *fill*         0x000000000000c1ef        0x1 
 .rodata.str1.4
                0x000000000000c1f0       0xfb cmds/modules/cmp/cmp.o
                                        0x131 (size before relaxing)
 *fill*         0x000000000000c2eb       0x15 
 .rodata        0x000000000000c300       0x30 cmds/modules/cmp/cmp.o
 .rodata.str1.4
                0x000000000000c330      0x23b cmds/builtins/batch/batch.o
 .rodata.str1.1
                0x000000000000c56b       0x40 cmds/builtins/batch/batch.o
                                         0x48 (size before relaxing)
 .rodata.str1.1
                0x000000000000c5ab       0x16 cmds/builtins/exit/exit.o
                                         0x1b (size before relaxing)
 .rodata.str1.1
                0x000000000000c5c1       0x68 cmds/builtins/cd/cd.o
                                         0x6d (size before relaxing)
 *fill*         0x000000000000c629        0x3 
 .rodata.str1.4
                0x000000000000c62c       0xf3 cmds/builtins/cd/cd.o
 .rodata.str1.1
                0x000000000000c71f       0x16 cmds/mod_cmds.o
 .rodata.str1.1
                0x000000000000c71f        0x5 compl.o
                                         0x11 (size before relaxing)
 .rodata.str1.1
                0x000000000000c724       0xb7 errors.o
 *fill*         0x000000000000c7db        0x5 
 .rodata        0x000000000000c7e0       0x2c errors.o
 .rodata.str1.1
                0x000000000000c80c       0x6e input.o
                                         0x88 (size before relaxing)
 *fill*         0x000000000000c87a        0x2 
 .rodata.str1.4
                0x000000000000c87c       0x5b input.o
 .rodata.str1.1
                0x000000000000c8d7       0x25 util.o
 .rodata.str1.1
                0x000000000000c8fc       0x25 exec.o
                                         0x2b (size before relaxing)
 *fill*         0x000000000000c921        0x3 
 .rodata.str1.4
                0x000000000000c924       0x7b exec.o
 .rodata.str1.1
                0x000000000000c99f       0x17 scli.o
 .rodata.str1.1
                0x000000000000c9b6        0x6 tok.o
 .rodata.str1.4
                0x000000000000c9bc       0x30 tok.o
                                         0x2d (size before relaxing)
 .rodata.str1.1
                0x000000000000c9ec       0x1b ../../lib/clui/libclui.a(tinput.o)
                                         0x23 (size before relaxing)
 *fill*         0x000000000000ca07        0x1 
 .rodata        0x000000000000ca08      0x284 ../../lib/clui/libclui.a(tinput.o)
 .rodata.str1.1
                0x000000000000cc8c        0x5 ../../lib/fmtutil/libfmtutil.a(fmtutil.o)

.rel.plt        0x000000000000cc8c      0x2c0
 *(.rel.plt)
 .rel.plt       0x000000000000cc8c      0x2c0 /home/ayyuce/Desktop/HlnOS/HelenOS/uspace/lib/c/arch/ia32/src/entry.o

.rel.dyn        0x000000000000cf4c       0x38
 *(.rel.*)
 .rel.got       0x000000000000cf4c        0x0 /home/ayyuce/Desktop/HlnOS/HelenOS/uspace/lib/c/arch/ia32/src/entry.o
 .rel.bss       0x000000000000cf4c       0x38 /home/ayyuce/Desktop/HlnOS/HelenOS/uspace/lib/c/arch/ia32/src/entry.o
 .rel.init      0x000000000000cf84        0x0 /home/ayyuce/Desktop/HlnOS/HelenOS/uspace/lib/c/arch/ia32/src/entry.o
 .rel.text      0x000000000000cf84        0x0 /home/ayyuce/Desktop/HlnOS/HelenOS/uspace/lib/c/arch/ia32/src/entry.o
 .rel.text.startup
                0x000000000000cf84        0x0 /home/ayyuce/Desktop/HlnOS/HelenOS/uspace/lib/c/arch/ia32/src/entry.o

.plt            0x000000000000cf90      0x590
 *(.plt)
 .plt           0x000000000000cf90      0x590 /home/ayyuce/Desktop/HlnOS/HelenOS/uspace/lib/c/arch/ia32/src/entry.o
                0x000000000000cfa0                console_get_size
                0x000000000000cfb0                putchar
                0x000000000000cfc0                __main
                0x000000000000cfd0                str_to_awstr
                0x000000000000cfe0                wstr_length
                0x000000000000cff0                printf
                0x000000000000d000                vfs_fhandle
                0x000000000000d010                memmove
                0x000000000000d020                getopt_long
                0x000000000000d030                snprintf
                0x000000000000d040                task_wait
                0x000000000000d050                __errno
                0x000000000000d060                console_get_pos
                0x000000000000d070                str_width
                0x000000000000d080                str_decode
                0x000000000000d090                usleep
                0x000000000000d0a0                str_ndup
                0x000000000000d0b0                qsort
                0x000000000000d0c0                memcpy
                0x000000000000d0d0                puts
                0x000000000000d0e0                malloc
                0x000000000000d0f0                str_rchr
                0x000000000000d100                console_set_color
                0x000000000000d110                strtoul
                0x000000000000d120                rmdir
                0x000000000000d130                readdir
                0x000000000000d140                str_rtrim
                0x000000000000d150                str_append
                0x000000000000d160                fflush
                0x000000000000d170                console_get_event
                0x000000000000d180                lseek
                0x000000000000d190                __udivdi3
                0x000000000000d1a0                task_spawnvf
                0x000000000000d1b0                strtol
                0x000000000000d1c0                console_init
                0x000000000000d1d0                console_kcon
                0x000000000000d1e0                rename
                0x000000000000d1f0                loc_service_get_name
                0x000000000000d200                clipboard_put_str
                0x000000000000d210                assert_abort
                0x000000000000d220                calloc
                0x000000000000d230                write
                0x000000000000d240                vfs_get_mtab_list
                0x000000000000d250                vprintf
                0x000000000000d260                chdir
                0x000000000000d270                console_clear
                0x000000000000d280                str_dup
                0x000000000000d290                clipboard_get_str
                0x000000000000d2a0                read
                0x000000000000d2b0                vfs_mount
                0x000000000000d2c0                unlink
                0x000000000000d2d0                realloc
                0x000000000000d2e0                str_size_t
                0x000000000000d2f0                memcmp
                0x000000000000d300                str_cmp
                0x000000000000d310                console_set_style
                0x000000000000d320                fopen
                0x000000000000d330                memset
                0x000000000000d340                wstr_to_astr
                0x000000000000d350                fclose
                0x000000000000d360                opendir
                0x000000000000d370                str_cpy
                0x000000000000d380                getcwd
                0x000000000000d390                fgetc
                0x000000000000d3a0                asprintf
                0x000000000000d3b0                console_flush
                0x000000000000d3c0                str_size
                0x000000000000d3d0                str_uint64_t
                0x000000000000d3e0                str_length
                0x000000000000d3f0                str_lcmp
                0x000000000000d400                console_set_pos
                0x000000000000d410                stat
                0x000000000000d420                str_error
                0x000000000000d430                vfs_absolutize
                0x000000000000d440                str_to_wstr
                0x000000000000d450                exit
                0x000000000000d460                fileno
                0x000000000000d470                chr_encode
                0x000000000000d480                vfs_unmount
                0x000000000000d490                __syscall_fast
                0x000000000000d4a0                open
                0x000000000000d4b0                str_ncpy
                0x000000000000d4c0                str_lsize
                0x000000000000d4d0                console_done
                0x000000000000d4e0                closedir
                0x000000000000d4f0                mkdir
                0x000000000000d500                close
                0x000000000000d510                free

.dynsym         0x000000000000d520      0x620
 *(.dynsym)
 .dynsym        0x000000000000d520      0x620 /home/ayyuce/Desktop/HlnOS/HelenOS/uspace/lib/c/arch/ia32/src/entry.o

.dynstr         0x000000000000db40      0x3af
 *(.dynstr)
 .dynstr        0x000000000000db40      0x3af /home/ayyuce/Desktop/HlnOS/HelenOS/uspace/lib/c/arch/ia32/src/entry.o

.hash           0x000000000000def0      0x314
 *(.hash)
 .hash          0x000000000000def0      0x314 /home/ayyuce/Desktop/HlnOS/HelenOS/uspace/lib/c/arch/ia32/src/entry.o

.interp         0x000000000000e204       0x13
 *(.interp)
 .interp        0x000000000000e204       0x13 /home/ayyuce/Desktop/HlnOS/HelenOS/uspace/lib/c/arch/ia32/src/entry.o
                0x000000000000f217                . = (. + 0x1000)

.dynamic        0x000000000000f218       0xa8
 *(.dynamic)
 .dynamic       0x000000000000f218       0xa8 /home/ayyuce/Desktop/HlnOS/HelenOS/uspace/lib/c/arch/ia32/src/entry.o
                0x000000000000f218                _DYNAMIC

.data           0x000000000000f2c0      0x410
 *(.data)
 .data          0x000000000000f2c0        0x0 /home/ayyuce/Desktop/HlnOS/HelenOS/uspace/lib/c/arch/ia32/src/entry.o
 .data          0x000000000000f2c0      0x1c0 cmds/modules/help/help.o
                0x000000000000f2c0                mod_switch
                0x000000000000f2e0                builtins
                0x000000000000f340                modules
 .data          0x000000000000f480        0x0 cmds/modules/mkdir/mkdir.o
 .data          0x000000000000f480        0x0 cmds/modules/mkfile/mkfile.o
 .data          0x000000000000f480        0x0 cmds/modules/rm/rm.o
 .data          0x000000000000f480        0x0 cmds/modules/cat/cat.o
 .data          0x000000000000f480        0x0 cmds/modules/touch/touch.o
 .data          0x000000000000f480        0x0 cmds/modules/ls/ls.o
 .data          0x000000000000f480        0x0 cmds/modules/pwd/pwd.o
 .data          0x000000000000f480        0x0 cmds/modules/sleep/sleep.o
 .data          0x000000000000f480      0x1ca cmds/modules/cp/cp.o
 .data          0x000000000000f64a        0x0 cmds/modules/mv/mv.o
 .data          0x000000000000f64a        0x0 cmds/modules/printf/printf.o
 .data          0x000000000000f64a        0x0 cmds/modules/echo/echo.o
 *fill*         0x000000000000f64a       0x16 
 .data          0x000000000000f660       0x2d cmds/modules/mount/mount.o
 .data          0x000000000000f68d        0x0 cmds/modules/unmount/unmount.o
 .data          0x000000000000f68d        0x0 cmds/modules/kcon/kcon.o
 .data          0x000000000000f68d        0x0 cmds/modules/cmp/cmp.o
 .data          0x000000000000f68d        0x0 cmds/builtins/batch/batch.o
 .data          0x000000000000f68d        0x0 cmds/builtins/exit/exit.o
 .data          0x000000000000f68d        0x1 cmds/builtins/cd/cd.o
 *fill*         0x000000000000f68e        0x2 
 .data          0x000000000000f690       0x18 cmds/mod_cmds.o
                0x000000000000f690                mod_aliases
 .data          0x000000000000f6a8        0x0 cmds/builtin_cmds.o
 .data          0x000000000000f6a8       0x14 compl.o
                0x000000000000f6b0                compl_ops
 .data          0x000000000000f6bc        0x0 errors.o
 .data          0x000000000000f6bc        0x0 input.o
 .data          0x000000000000f6bc        0x0 util.o
 .data          0x000000000000f6bc        0xc exec.o
                0x000000000000f6bc                search_dir
 .data          0x000000000000f6c8        0x8 scli.o
                0x000000000000f6c8                progname
                0x000000000000f6cc                cli_verbocity
 .data          0x000000000000f6d0        0x0 tok.o
 .data          0x000000000000f6d0        0x0 ../../lib/clui/libclui.a(tinput.o)
 .data          0x000000000000f6d0        0x0 ../../lib/fmtutil/libfmtutil.a(fmtutil.o)

.data.rel
 *(.data.rel .data.rel.*)

.got            0x000000000000f6d0        0x0
 *(.got)
 .got           0x000000000000f6d0        0x0 /home/ayyuce/Desktop/HlnOS/HelenOS/uspace/lib/c/arch/ia32/src/entry.o

.got.plt        0x000000000000f6d0      0x16c
 *(.got.plt)
 .got.plt       0x000000000000f6d0      0x16c /home/ayyuce/Desktop/HlnOS/HelenOS/uspace/lib/c/arch/ia32/src/entry.o
                0x000000000000f6d0                _GLOBAL_OFFSET_TABLE_

.tdata
 *(.tdata)
 *(.gnu.linkonce.tb.*)

.tbss
 *(.tbss)

.bss            0x000000000000f840      0x2fc
 *(.dynbss)
 .dynbss        0x000000000000f840       0x24 /home/ayyuce/Desktop/HlnOS/HelenOS/uspace/lib/c/arch/ia32/src/entry.o
                0x000000000000f840                stdout
                0x000000000000f848                optarg
                0x000000000000f84c                optind
                0x000000000000f850                stdin
                0x000000000000f858                __syscall_fast_func
                0x000000000000f85c                optreset
                0x000000000000f860                stderr
 *(COMMON)
 *(.bss)
 .bss           0x000000000000f864        0x0 /home/ayyuce/Desktop/HlnOS/HelenOS/uspace/lib/c/arch/ia32/src/entry.o
 .bss           0x000000000000f864        0x0 cmds/modules/help/help.o
 .bss           0x000000000000f864        0x0 cmds/modules/mkdir/mkdir.o
 .bss           0x000000000000f864        0x0 cmds/modules/mkfile/mkfile.o
 *fill*         0x000000000000f864       0x1c 
 .bss           0x000000000000f880       0x28 cmds/modules/rm/rm.o
 .bss           0x000000000000f8a8       0x21 cmds/modules/cat/cat.o
 .bss           0x000000000000f8c9        0x0 cmds/modules/touch/touch.o
 *fill*         0x000000000000f8c9        0x3 
 .bss           0x000000000000f8cc        0x8 cmds/modules/ls/ls.o
 .bss           0x000000000000f8d4        0x0 cmds/modules/pwd/pwd.o
 .bss           0x000000000000f8d4        0x0 cmds/modules/sleep/sleep.o
 .bss           0x000000000000f8d4        0x4 cmds/modules/cp/cp.o
 .bss           0x000000000000f8d8        0x0 cmds/modules/mv/mv.o
 .bss           0x000000000000f8d8        0x0 cmds/modules/printf/printf.o
 .bss           0x000000000000f8d8        0x0 cmds/modules/echo/echo.o
 .bss           0x000000000000f8d8        0x0 cmds/modules/mount/mount.o
 .bss           0x000000000000f8d8        0x0 cmds/modules/unmount/unmount.o
 .bss           0x000000000000f8d8        0x0 cmds/modules/kcon/kcon.o
 .bss           0x000000000000f8d8        0x0 cmds/modules/cmp/cmp.o
 .bss           0x000000000000f8d8        0x0 cmds/builtins/batch/batch.o
 .bss           0x000000000000f8d8        0x0 cmds/builtins/exit/exit.o
 *fill*         0x000000000000f8d8        0x8 
 .bss           0x000000000000f8e0      0x21f cmds/builtins/cd/cd.o
 .bss           0x000000000000faff        0x0 cmds/mod_cmds.o
 *fill*         0x000000000000faff        0x1 
 .bss           0x000000000000fb00        0x8 cmds/builtin_cmds.o
                0x000000000000fb00                builtin_aliases
 .bss           0x000000000000fb08        0x0 compl.o
 .bss           0x000000000000fb08        0x4 errors.o
                0x000000000000fb08                cli_errno
 .bss           0x000000000000fb0c        0x4 input.o
 .bss           0x000000000000fb10        0x0 util.o
 .bss           0x000000000000fb10        0x4 exec.o
 .bss           0x000000000000fb14       0x28 scli.o
                0x000000000000fb14                cli_quit
 .bss           0x000000000000fb3c        0x0 tok.o
 .bss           0x000000000000fb3c        0x0 ../../lib/clui/libclui.a(tinput.o)
 .bss           0x000000000000fb3c        0x0 ../../lib/fmtutil/libfmtutil.a(fmtutil.o)

/DISCARD/
 *(*)
LOAD cmds/modules/help/help.o
LOAD cmds/modules/mkdir/mkdir.o
LOAD cmds/modules/mkfile/mkfile.o
LOAD cmds/modules/rm/rm.o
LOAD cmds/modules/cat/cat.o
LOAD cmds/modules/touch/touch.o
LOAD cmds/modules/ls/ls.o
LOAD cmds/modules/pwd/pwd.o
LOAD cmds/modules/sleep/sleep.o
LOAD cmds/modules/cp/cp.o
LOAD cmds/modules/mv/mv.o
LOAD cmds/modules/printf/printf.o
LOAD cmds/modules/echo/echo.o
LOAD cmds/modules/mount/mount.o
LOAD cmds/modules/unmount/unmount.o
LOAD cmds/modules/kcon/kcon.o
LOAD cmds/modules/cmp/cmp.o
LOAD cmds/builtins/batch/batch.o
LOAD cmds/builtins/exit/exit.o
LOAD cmds/builtins/cd/cd.o
LOAD cmds/mod_cmds.o
LOAD cmds/builtin_cmds.o
LOAD compl.o
LOAD errors.o
LOAD input.o
LOAD util.o
LOAD exec.o
LOAD scli.o
LOAD tok.o
LOAD ../../lib/clui/libclui.a
LOAD ../../lib/fmtutil/libfmtutil.a
LOAD ../../lib/c/libc.so.0
LOAD ../../lib/softint/libsoftint.so.0
OUTPUT(bdsh elf32-i386)
