
bdsh:     file format elf32-i386


Disassembly of section .init:

000010f4 <__entry>:
    10f4:	66 8c d0             	mov    %ss,%ax
    10f7:	8e d8                	mov    %eax,%ds
    10f9:	8e c0                	mov    %eax,%es
    10fb:	8e e0                	mov    %eax,%fs
    10fd:	b8 01 00 00 00       	mov    $0x1,%eax
    1102:	0f a2                	cpuid  
    1104:	0f ba e2 0b          	bt     $0xb,%edx
    1108:	73 0c                	jae    1116 <__entry+0x22>
    110a:	8d 05 58 f8 00 00    	lea    0xf858,%eax
    1110:	c7 00 90 d4 00 00    	movl   $0xd490,(%eax)
    1116:	6a 00                	push   $0x0
    1118:	6a 00                	push   $0x0
    111a:	89 e5                	mov    %esp,%ebp
    111c:	57                   	push   %edi
    111d:	e8 9e be 00 00       	call   cfc0 <__main@plt>

Disassembly of section .text:

00001140 <cmd_help>:
    1140:	55                   	push   %ebp
    1141:	89 e5                	mov    %esp,%ebp
    1143:	57                   	push   %edi
    1144:	56                   	push   %esi
    1145:	53                   	push   %ebx
    1146:	83 ec 28             	sub    $0x28,%esp
    1149:	8b 7d 08             	mov    0x8(%ebp),%edi
    114c:	57                   	push   %edi
    114d:	e8 8e 57 00 00       	call   68e0 <cli_count_args>
    1152:	83 c4 10             	add    $0x10,%esp
    1155:	83 f8 03             	cmp    $0x3,%eax
    1158:	0f 8f d2 00 00 00    	jg     1230 <cmd_help+0xf0>
    115e:	0f 84 84 01 00 00    	je     12e8 <cmd_help+0x1a8>
    1164:	83 f8 02             	cmp    $0x2,%eax
    1167:	0f 85 a3 00 00 00    	jne    1210 <cmd_help+0xd0>
    116d:	c7 45 e4 00 00 00 00 	movl   $0x0,-0x1c(%ebp)
    1174:	8b 77 04             	mov    0x4(%edi),%esi
    1177:	50                   	push   %eax
    1178:	50                   	push   %eax
    1179:	68 f3 9e 00 00       	push   $0x9ef3
    117e:	56                   	push   %esi
    117f:	e8 7c c1 00 00       	call   d300 <str_cmp@plt>
    1184:	83 c4 10             	add    $0x10,%esp
    1187:	89 c3                	mov    %eax,%ebx
    1189:	85 c0                	test   %eax,%eax
    118b:	0f 85 7f 01 00 00    	jne    1310 <cmd_help+0x1d0>
    1191:	83 ec 0c             	sub    $0xc,%esp
    1194:	68 c2 9e 00 00       	push   $0x9ec2
    1199:	e8 52 be 00 00       	call   cff0 <printf@plt>
    119e:	c7 04 24 28 a5 00 00 	movl   $0xa528,(%esp)
    11a5:	e8 46 be 00 00       	call   cff0 <printf@plt>
    11aa:	a1 e0 f2 00 00       	mov    0xf2e0,%eax
    11af:	83 c4 10             	add    $0x10,%esp
    11b2:	85 c0                	test   %eax,%eax
    11b4:	0f 84 ae 00 00 00    	je     1268 <cmd_help+0x128>
    11ba:	be e0 f2 00 00       	mov    $0xf2e0,%esi
    11bf:	eb 2f                	jmp    11f0 <cmd_help+0xb0>
    11c1:	8d b4 26 00 00 00 00 	lea    0x0(%esi,%eiz,1),%esi
    11c8:	83 ec 0c             	sub    $0xc,%esp
    11cb:	8b 0e                	mov    (%esi),%ecx
    11cd:	51                   	push   %ecx
    11ce:	e8 fd 46 00 00       	call   58d0 <alias_for_builtin>
    11d3:	83 c4 0c             	add    $0xc,%esp
    11d6:	50                   	push   %eax
    11d7:	8b 3e                	mov    (%esi),%edi
    11d9:	57                   	push   %edi
    11da:	68 8a 9e 00 00       	push   $0x9e8a
    11df:	83 c6 14             	add    $0x14,%esi
    11e2:	e8 09 be 00 00       	call   cff0 <printf@plt>
    11e7:	8b 06                	mov    (%esi),%eax
    11e9:	83 c4 10             	add    $0x10,%esp
    11ec:	85 c0                	test   %eax,%eax
    11ee:	74 78                	je     1268 <cmd_help+0x128>
    11f0:	83 ec 0c             	sub    $0xc,%esp
    11f3:	50                   	push   %eax
    11f4:	e8 97 46 00 00       	call   5890 <is_builtin_alias>
    11f9:	83 c4 10             	add    $0x10,%esp
    11fc:	85 c0                	test   %eax,%eax
    11fe:	75 c8                	jne    11c8 <cmd_help+0x88>
    1200:	50                   	push   %eax
    1201:	8b 46 04             	mov    0x4(%esi),%eax
    1204:	50                   	push   %eax
    1205:	8b 16                	mov    (%esi),%edx
    1207:	52                   	push   %edx
    1208:	68 a3 9e 00 00       	push   $0x9ea3
    120d:	eb d0                	jmp    11df <cmd_help+0x9f>
    120f:	90                   	nop
    1210:	51                   	push   %ecx
    1211:	51                   	push   %ecx
    1212:	6a 00                	push   $0x0
    1214:	68 58 a1 00 00       	push   $0xa158
    1219:	e8 32 89 00 00       	call   9b50 <print_wrapped_console>
    121e:	83 c4 10             	add    $0x10,%esp
    1221:	8d 65 f4             	lea    -0xc(%ebp),%esp
    1224:	31 db                	xor    %ebx,%ebx
    1226:	89 d8                	mov    %ebx,%eax
    1228:	5b                   	pop    %ebx
    1229:	5e                   	pop    %esi
    122a:	5f                   	pop    %edi
    122b:	5d                   	pop    %ebp
    122c:	c3                   	ret    
    122d:	8d 76 00             	lea    0x0(%esi),%esi
    1230:	50                   	push   %eax
    1231:	50                   	push   %eax
    1232:	68 7c 9e 00 00       	push   $0x9e7c
    1237:	68 94 a0 00 00       	push   $0xa094
    123c:	e8 af bd 00 00       	call   cff0 <printf@plt>
    1241:	58                   	pop    %eax
    1242:	5a                   	pop    %edx
    1243:	68 7c 9e 00 00       	push   $0x9e7c
    1248:	68 b8 a0 00 00       	push   $0xa0b8
    124d:	e8 9e bd 00 00       	call   cff0 <printf@plt>
    1252:	83 c4 10             	add    $0x10,%esp
    1255:	8d 65 f4             	lea    -0xc(%ebp),%esp
    1258:	bb 01 00 00 00       	mov    $0x1,%ebx
    125d:	89 d8                	mov    %ebx,%eax
    125f:	5b                   	pop    %ebx
    1260:	5e                   	pop    %esi
    1261:	5f                   	pop    %edi
    1262:	5d                   	pop    %ebp
    1263:	c3                   	ret    
    1264:	8d 74 26 00          	lea    0x0(%esi,%eiz,1),%esi
    1268:	a1 40 f3 00 00       	mov    0xf340,%eax
    126d:	85 c0                	test   %eax,%eax
    126f:	74 4f                	je     12c0 <cmd_help+0x180>
    1271:	be 40 f3 00 00       	mov    $0xf340,%esi
    1276:	eb 28                	jmp    12a0 <cmd_help+0x160>
    1278:	83 ec 0c             	sub    $0xc,%esp
    127b:	8b 06                	mov    (%esi),%eax
    127d:	50                   	push   %eax
    127e:	e8 bd 44 00 00       	call   5740 <alias_for_module>
    1283:	83 c4 0c             	add    $0xc,%esp
    1286:	50                   	push   %eax
    1287:	8b 06                	mov    (%esi),%eax
    1289:	50                   	push   %eax
    128a:	68 8a 9e 00 00       	push   $0x9e8a
    128f:	83 c6 10             	add    $0x10,%esi
    1292:	e8 59 bd 00 00       	call   cff0 <printf@plt>
    1297:	8b 06                	mov    (%esi),%eax
    1299:	83 c4 10             	add    $0x10,%esp
    129c:	85 c0                	test   %eax,%eax
    129e:	74 20                	je     12c0 <cmd_help+0x180>
    12a0:	83 ec 0c             	sub    $0xc,%esp
    12a3:	50                   	push   %eax
    12a4:	e8 37 44 00 00       	call   56e0 <is_module_alias>
    12a9:	83 c4 10             	add    $0x10,%esp
    12ac:	85 c0                	test   %eax,%eax
    12ae:	75 c8                	jne    1278 <cmd_help+0x138>
    12b0:	57                   	push   %edi
    12b1:	8b 46 04             	mov    0x4(%esi),%eax
    12b4:	50                   	push   %eax
    12b5:	8b 06                	mov    (%esi),%eax
    12b7:	50                   	push   %eax
    12b8:	68 a3 9e 00 00       	push   $0x9ea3
    12bd:	eb d0                	jmp    128f <cmd_help+0x14f>
    12bf:	90                   	nop
    12c0:	68 7c 9e 00 00       	push   $0x9e7c
    12c5:	68 7c 9e 00 00       	push   $0x9e7c
    12ca:	68 7c 9e 00 00       	push   $0x9e7c
    12cf:	68 20 a1 00 00       	push   $0xa120
    12d4:	e8 17 bd 00 00       	call   cff0 <printf@plt>
    12d9:	83 c4 10             	add    $0x10,%esp
    12dc:	8d 65 f4             	lea    -0xc(%ebp),%esp
    12df:	89 d8                	mov    %ebx,%eax
    12e1:	5b                   	pop    %ebx
    12e2:	5e                   	pop    %esi
    12e3:	5f                   	pop    %edi
    12e4:	5d                   	pop    %ebp
    12e5:	c3                   	ret    
    12e6:	66 90                	xchg   %ax,%ax
    12e8:	50                   	push   %eax
    12e9:	50                   	push   %eax
    12ea:	8b 47 08             	mov    0x8(%edi),%eax
    12ed:	50                   	push   %eax
    12ee:	68 81 9e 00 00       	push   $0x9e81
    12f3:	e8 08 c0 00 00       	call   d300 <str_cmp@plt>
    12f8:	83 c4 10             	add    $0x10,%esp
    12fb:	85 c0                	test   %eax,%eax
    12fd:	0f 94 c0             	sete   %al
    1300:	25 ff 00 00 00       	and    $0xff,%eax
    1305:	89 45 e4             	mov    %eax,-0x1c(%ebp)
    1308:	e9 67 fe ff ff       	jmp    1174 <cmd_help+0x34>
    130d:	8d 76 00             	lea    0x0(%esi),%esi
    1310:	83 ec 0c             	sub    $0xc,%esp
    1313:	56                   	push   %esi
    1314:	e8 17 45 00 00       	call   5830 <is_builtin>
    1319:	83 c4 10             	add    $0x10,%esp
    131c:	85 c0                	test   %eax,%eax
    131e:	78 28                	js     1348 <cmd_help+0x208>
    1320:	a3 c0 f2 00 00       	mov    %eax,0xf2c0
    1325:	8b 75 e4             	mov    -0x1c(%ebp),%esi
    1328:	a1 c0 f2 00 00       	mov    0xf2c0,%eax
    132d:	53                   	push   %ebx
    132e:	53                   	push   %ebx
    132f:	56                   	push   %esi
    1330:	50                   	push   %eax
    1331:	e8 ca 45 00 00       	call   5900 <help_builtin>
    1336:	83 c4 10             	add    $0x10,%esp
    1339:	8d 65 f4             	lea    -0xc(%ebp),%esp
    133c:	31 db                	xor    %ebx,%ebx
    133e:	89 d8                	mov    %ebx,%eax
    1340:	5b                   	pop    %ebx
    1341:	5e                   	pop    %esi
    1342:	5f                   	pop    %edi
    1343:	5d                   	pop    %ebp
    1344:	c3                   	ret    
    1345:	8d 76 00             	lea    0x0(%esi),%esi
    1348:	83 ec 0c             	sub    $0xc,%esp
    134b:	56                   	push   %esi
    134c:	e8 1f 43 00 00       	call   5670 <is_module>
    1351:	83 c4 10             	add    $0x10,%esp
    1354:	85 c0                	test   %eax,%eax
    1356:	78 25                	js     137d <cmd_help+0x23d>
    1358:	a3 c0 f2 00 00       	mov    %eax,0xf2c0
    135d:	8b 4d e4             	mov    -0x1c(%ebp),%ecx
    1360:	a1 c0 f2 00 00       	mov    0xf2c0,%eax
    1365:	52                   	push   %edx
    1366:	52                   	push   %edx
    1367:	51                   	push   %ecx
    1368:	50                   	push   %eax
    1369:	e8 32 44 00 00       	call   57a0 <help_module>
    136e:	83 c4 10             	add    $0x10,%esp
    1371:	8d 65 f4             	lea    -0xc(%ebp),%esp
    1374:	31 db                	xor    %ebx,%ebx
    1376:	89 d8                	mov    %ebx,%eax
    1378:	5b                   	pop    %ebx
    1379:	5e                   	pop    %esi
    137a:	5f                   	pop    %edi
    137b:	5d                   	pop    %ebp
    137c:	c3                   	ret    
    137d:	50                   	push   %eax
    137e:	50                   	push   %eax
    137f:	8b 57 04             	mov    0x4(%edi),%edx
    1382:	bb 01 00 00 00       	mov    $0x1,%ebx
    1387:	52                   	push   %edx
    1388:	68 b0 9e 00 00       	push   $0x9eb0
    138d:	e8 5e bc 00 00       	call   cff0 <printf@plt>
    1392:	83 c4 10             	add    $0x10,%esp
    1395:	8d 65 f4             	lea    -0xc(%ebp),%esp
    1398:	89 d8                	mov    %ebx,%eax
    139a:	5b                   	pop    %ebx
    139b:	5e                   	pop    %esi
    139c:	5f                   	pop    %edi
    139d:	5d                   	pop    %ebp
    139e:	c3                   	ret    
    139f:	90                   	nop

000013a0 <help_cmd_help>:
    13a0:	55                   	push   %ebp
    13a1:	89 e5                	mov    %esp,%ebp
    13a3:	83 ec 08             	sub    $0x8,%esp
    13a6:	8b 4d 08             	mov    0x8(%ebp),%ecx
    13a9:	85 c9                	test   %ecx,%ecx
    13ab:	74 2b                	je     13d8 <help_cmd_help+0x38>
    13ad:	83 ec 0c             	sub    $0xc,%esp
    13b0:	68 7c 9e 00 00       	push   $0x9e7c
    13b5:	68 7c 9e 00 00       	push   $0x9e7c
    13ba:	68 7c 9e 00 00       	push   $0x9e7c
    13bf:	68 7c 9e 00 00       	push   $0x9e7c
    13c4:	68 68 a5 00 00       	push   $0xa568
    13c9:	e8 22 bc 00 00       	call   cff0 <printf@plt>
    13ce:	83 c4 20             	add    $0x20,%esp
    13d1:	c9                   	leave  
    13d2:	c3                   	ret    
    13d3:	90                   	nop
    13d4:	8d 74 26 00          	lea    0x0(%esi,%eiz,1),%esi
    13d8:	50                   	push   %eax
    13d9:	50                   	push   %eax
    13da:	68 7c 9e 00 00       	push   $0x9e7c
    13df:	68 b8 a0 00 00       	push   $0xa0b8
    13e4:	e8 07 bc 00 00       	call   cff0 <printf@plt>
    13e9:	83 c4 10             	add    $0x10,%esp
    13ec:	c9                   	leave  
    13ed:	c3                   	ret    
    13ee:	66 90                	xchg   %ax,%ax

000013f0 <help_cmd_mkdir>:
    13f0:	55                   	push   %ebp
    13f1:	89 e5                	mov    %esp,%ebp
    13f3:	83 ec 08             	sub    $0x8,%esp
    13f6:	8b 45 08             	mov    0x8(%ebp),%eax
    13f9:	85 c0                	test   %eax,%eax
    13fb:	74 33                	je     1430 <help_cmd_mkdir+0x40>
    13fd:	50                   	push   %eax
    13fe:	50                   	push   %eax
    13ff:	68 2a 9f 00 00       	push   $0x9f2a
    1404:	68 06 a7 00 00       	push   $0xa706
    1409:	e8 e2 bb 00 00       	call   cff0 <printf@plt>
    140e:	83 c4 0c             	add    $0xc,%esp
    1411:	68 2a 9f 00 00       	push   $0x9f2a
    1416:	68 2a 9f 00 00       	push   $0x9f2a
    141b:	68 c8 a7 00 00       	push   $0xa7c8
    1420:	e8 cb bb 00 00       	call   cff0 <printf@plt>
    1425:	83 c4 10             	add    $0x10,%esp
    1428:	c9                   	leave  
    1429:	c3                   	ret    
    142a:	8d b6 00 00 00 00    	lea    0x0(%esi),%esi
    1430:	52                   	push   %edx
    1431:	52                   	push   %edx
    1432:	68 2a 9f 00 00       	push   $0x9f2a
    1437:	68 06 a7 00 00       	push   $0xa706
    143c:	e8 af bb 00 00       	call   cff0 <printf@plt>
    1441:	83 c4 10             	add    $0x10,%esp
    1444:	c9                   	leave  
    1445:	c3                   	ret    
    1446:	8d 76 00             	lea    0x0(%esi),%esi
    1449:	8d bc 27 00 00 00 00 	lea    0x0(%edi,%eiz,1),%edi

00001450 <cmd_mkdir>:
    1450:	55                   	push   %ebp
    1451:	89 e5                	mov    %esp,%ebp
    1453:	57                   	push   %edi
    1454:	56                   	push   %esi
    1455:	53                   	push   %ebx
    1456:	83 ec 48             	sub    $0x48,%esp
    1459:	8d 75 e0             	lea    -0x20(%ebp),%esi
    145c:	8b 45 08             	mov    0x8(%ebp),%eax
    145f:	50                   	push   %eax
    1460:	e8 7b 54 00 00       	call   68e0 <cli_count_args>
    1465:	c7 05 5c f8 00 00 01 	movl   $0x1,0xf85c
    146c:	00 00 00 
    146f:	89 c3                	mov    %eax,%ebx
    1471:	c7 05 4c f8 00 00 00 	movl   $0x0,0xf84c
    1478:	00 00 00 
    147b:	c7 45 e0 00 00 00 00 	movl   $0x0,-0x20(%ebp)
    1482:	83 c4 10             	add    $0x10,%esp
    1485:	c6 45 d7 00          	movb   $0x0,-0x29(%ebp)
    1489:	c6 45 d4 00          	movb   $0x0,-0x2c(%ebp)
    148d:	c6 45 d6 00          	movb   $0x0,-0x2a(%ebp)
    1491:	83 ec 0c             	sub    $0xc,%esp
    1494:	8b 45 08             	mov    0x8(%ebp),%eax
    1497:	56                   	push   %esi
    1498:	68 80 aa 00 00       	push   $0xaa80
    149d:	68 24 a7 00 00       	push   $0xa724
    14a2:	50                   	push   %eax
    14a3:	53                   	push   %ebx
    14a4:	e8 77 bb 00 00       	call   d020 <getopt_long@plt>
    14a9:	83 c4 20             	add    $0x20,%esp
    14ac:	8d 50 aa             	lea    -0x56(%eax),%edx
    14af:	83 fa 20             	cmp    $0x20,%edx
    14b2:	0f 87 98 00 00 00    	ja     1550 <cmd_mkdir+0x100>
    14b8:	ff 24 95 e0 a9 00 00 	jmp    *0xa9e0(,%edx,4)
    14bf:	90                   	nop
    14c0:	c6 45 d4 01          	movb   $0x1,-0x2c(%ebp)
    14c4:	eb cb                	jmp    1491 <cmd_mkdir+0x41>
    14c6:	66 90                	xchg   %ax,%ax
    14c8:	a1 48 f8 00 00       	mov    0xf848,%eax
    14cd:	57                   	push   %edi
    14ce:	50                   	push   %eax
    14cf:	68 2a 9f 00 00       	push   $0x9f2a
    14d4:	68 32 a7 00 00       	push   $0xa732
    14d9:	e8 12 bb 00 00       	call   cff0 <printf@plt>
    14de:	83 c4 10             	add    $0x10,%esp
    14e1:	eb ae                	jmp    1491 <cmd_mkdir+0x41>
    14e3:	90                   	nop
    14e4:	8d 74 26 00          	lea    0x0(%esi,%eiz,1),%esi
    14e8:	c6 45 d7 01          	movb   $0x1,-0x29(%ebp)
    14ec:	eb a3                	jmp    1491 <cmd_mkdir+0x41>
    14ee:	66 90                	xchg   %ax,%ax
    14f0:	c6 45 d6 01          	movb   $0x1,-0x2a(%ebp)
    14f4:	eb 9b                	jmp    1491 <cmd_mkdir+0x41>
    14f6:	66 90                	xchg   %ax,%ax
    14f8:	50                   	push   %eax
    14f9:	50                   	push   %eax
    14fa:	68 2a 9f 00 00       	push   $0x9f2a
    14ff:	68 06 a7 00 00       	push   $0xa706
    1504:	e8 e7 ba 00 00       	call   cff0 <printf@plt>
    1509:	83 c4 0c             	add    $0xc,%esp
    150c:	68 2a 9f 00 00       	push   $0x9f2a
    1511:	68 2a 9f 00 00       	push   $0x9f2a
    1516:	68 c8 a7 00 00       	push   $0xa7c8
    151b:	e8 d0 ba 00 00       	call   cff0 <printf@plt>
    1520:	83 c4 10             	add    $0x10,%esp
    1523:	31 c0                	xor    %eax,%eax
    1525:	8d 65 f4             	lea    -0xc(%ebp),%esp
    1528:	5b                   	pop    %ebx
    1529:	5e                   	pop    %esi
    152a:	5f                   	pop    %edi
    152b:	5d                   	pop    %ebp
    152c:	c3                   	ret    
    152d:	8d 76 00             	lea    0x0(%esi),%esi
    1530:	50                   	push   %eax
    1531:	50                   	push   %eax
    1532:	68 2c a7 00 00       	push   $0xa72c
    1537:	68 ac 9e 00 00       	push   $0x9eac
    153c:	e8 af ba 00 00       	call   cff0 <printf@plt>
    1541:	83 c4 10             	add    $0x10,%esp
    1544:	8d 65 f4             	lea    -0xc(%ebp),%esp
    1547:	31 c0                	xor    %eax,%eax
    1549:	5b                   	pop    %ebx
    154a:	5e                   	pop    %esi
    154b:	5f                   	pop    %edi
    154c:	5d                   	pop    %ebp
    154d:	c3                   	ret    
    154e:	66 90                	xchg   %ax,%ax
    1550:	40                   	inc    %eax
    1551:	0f 85 3a ff ff ff    	jne    1491 <cmd_mkdir+0x41>
    1557:	a1 4c f8 00 00       	mov    0xf84c,%eax
    155c:	39 c3                	cmp    %eax,%ebx
    155e:	0f 84 b2 01 00 00    	je     1716 <cmd_mkdir+0x2c6>
    1564:	8d 14 85 00 00 00 00 	lea    0x0(,%eax,4),%edx
    156b:	8b 4d 08             	mov    0x8(%ebp),%ecx
    156e:	01 d1                	add    %edx,%ecx
    1570:	8b 01                	mov    (%ecx),%eax
    1572:	85 c0                	test   %eax,%eax
    1574:	74 af                	je     1525 <cmd_mkdir+0xd5>
    1576:	c7 45 c4 1c c8 00 00 	movl   $0xc81c,-0x3c(%ebp)
    157d:	80 7d d6 00          	cmpb   $0x0,-0x2a(%ebp)
    1581:	0f 85 83 01 00 00    	jne    170a <cmd_mkdir+0x2ba>
    1587:	89 4d cc             	mov    %ecx,-0x34(%ebp)
    158a:	8b 4d 08             	mov    0x8(%ebp),%ecx
    158d:	c7 45 c8 00 00 00 00 	movl   $0x0,-0x38(%ebp)
    1594:	8d 75 e4             	lea    -0x1c(%ebp),%esi
    1597:	8d 4c 11 04          	lea    0x4(%ecx,%edx,1),%ecx
    159b:	89 4d d0             	mov    %ecx,-0x30(%ebp)
    159e:	66 90                	xchg   %ax,%ax
    15a0:	80 7d d7 00          	cmpb   $0x0,-0x29(%ebp)
    15a4:	74 1c                	je     15c2 <cmd_mkdir+0x172>
    15a6:	8b 4d c4             	mov    -0x3c(%ebp),%ecx
    15a9:	51                   	push   %ecx
    15aa:	50                   	push   %eax
    15ab:	68 2a 9f 00 00       	push   $0x9f2a
    15b0:	68 5f a7 00 00       	push   $0xa75f
    15b5:	e8 36 ba 00 00       	call   cff0 <printf@plt>
    15ba:	8b 45 cc             	mov    -0x34(%ebp),%eax
    15bd:	83 c4 10             	add    $0x10,%esp
    15c0:	8b 00                	mov    (%eax),%eax
    15c2:	52                   	push   %edx
    15c3:	52                   	push   %edx
    15c4:	6a 00                	push   $0x0
    15c6:	50                   	push   %eax
    15c7:	e8 64 be 00 00       	call   d430 <vfs_absolutize@plt>
    15cc:	83 c4 10             	add    $0x10,%esp
    15cf:	89 c3                	mov    %eax,%ebx
    15d1:	85 c0                	test   %eax,%eax
    15d3:	0f 84 5f 01 00 00    	je     1738 <cmd_mkdir+0x2e8>
    15d9:	80 7d d6 00          	cmpb   $0x0,-0x2a(%ebp)
    15dd:	74 69                	je     1648 <cmd_mkdir+0x1f8>
    15df:	c7 45 e4 00 00 00 00 	movl   $0x0,-0x1c(%ebp)
    15e6:	31 ff                	xor    %edi,%edi
    15e8:	50                   	push   %eax
    15e9:	6a ff                	push   $0xffffffff
    15eb:	56                   	push   %esi
    15ec:	53                   	push   %ebx
    15ed:	e8 8e ba 00 00       	call   d080 <str_decode@plt>
    15f2:	83 c4 10             	add    $0x10,%esp
    15f5:	85 c0                	test   %eax,%eax
    15f7:	74 4f                	je     1648 <cmd_mkdir+0x1f8>
    15f9:	83 f8 3f             	cmp    $0x3f,%eax
    15fc:	74 4a                	je     1648 <cmd_mkdir+0x1f8>
    15fe:	85 ff                	test   %edi,%edi
    1600:	74 05                	je     1607 <cmd_mkdir+0x1b7>
    1602:	83 f8 2f             	cmp    $0x2f,%eax
    1605:	74 09                	je     1610 <cmd_mkdir+0x1c0>
    1607:	8b 7d e4             	mov    -0x1c(%ebp),%edi
    160a:	eb dc                	jmp    15e8 <cmd_mkdir+0x198>
    160c:	8d 74 26 00          	lea    0x0(%esi,%eiz,1),%esi
    1610:	01 df                	add    %ebx,%edi
    1612:	8a 07                	mov    (%edi),%al
    1614:	c6 07 00             	movb   $0x0,(%edi)
    1617:	88 45 d5             	mov    %al,-0x2b(%ebp)
    161a:	50                   	push   %eax
    161b:	50                   	push   %eax
    161c:	6a 00                	push   $0x0
    161e:	53                   	push   %ebx
    161f:	e8 cc be 00 00       	call   d4f0 <mkdir@plt>
    1624:	83 c4 10             	add    $0x10,%esp
    1627:	85 c0                	test   %eax,%eax
    1629:	74 10                	je     163b <cmd_mkdir+0x1eb>
    162b:	e8 20 ba 00 00       	call   d050 <__errno@plt>
    1630:	8b 00                	mov    (%eax),%eax
    1632:	83 f8 f7             	cmp    $0xfffffff7,%eax
    1635:	0f 85 1c 01 00 00    	jne    1757 <cmd_mkdir+0x307>
    163b:	8a 45 d5             	mov    -0x2b(%ebp),%al
    163e:	88 07                	mov    %al,(%edi)
    1640:	eb c5                	jmp    1607 <cmd_mkdir+0x1b7>
    1642:	8d b6 00 00 00 00    	lea    0x0(%esi),%esi
    1648:	50                   	push   %eax
    1649:	50                   	push   %eax
    164a:	6a 00                	push   $0x0
    164c:	53                   	push   %ebx
    164d:	e8 9e be 00 00       	call   d4f0 <mkdir@plt>
    1652:	31 ff                	xor    %edi,%edi
    1654:	83 c4 10             	add    $0x10,%esp
    1657:	85 c0                	test   %eax,%eax
    1659:	75 7d                	jne    16d8 <cmd_mkdir+0x288>
    165b:	83 ec 0c             	sub    $0xc,%esp
    165e:	53                   	push   %ebx
    165f:	e8 ac be 00 00       	call   d510 <free@plt>
    1664:	83 c4 10             	add    $0x10,%esp
    1667:	8b 4d d0             	mov    -0x30(%ebp),%ecx
    166a:	8b 5d c8             	mov    -0x38(%ebp),%ebx
    166d:	01 fb                	add    %edi,%ebx
    166f:	8b 7d cc             	mov    -0x34(%ebp),%edi
    1672:	8b 01                	mov    (%ecx),%eax
    1674:	83 c7 04             	add    $0x4,%edi
    1677:	83 c1 04             	add    $0x4,%ecx
    167a:	89 5d c8             	mov    %ebx,-0x38(%ebp)
    167d:	89 7d cc             	mov    %edi,-0x34(%ebp)
    1680:	89 4d d0             	mov    %ecx,-0x30(%ebp)
    1683:	85 c0                	test   %eax,%eax
    1685:	0f 85 15 ff ff ff    	jne    15a0 <cmd_mkdir+0x150>
    168b:	80 7d d4 00          	cmpb   $0x0,-0x2c(%ebp)
    168f:	74 33                	je     16c4 <cmd_mkdir+0x274>
    1691:	a1 4c f8 00 00       	mov    0xf84c,%eax
    1696:	8b 4d 08             	mov    0x8(%ebp),%ecx
    1699:	8b 04 81             	mov    (%ecx,%eax,4),%eax
    169c:	85 c0                	test   %eax,%eax
    169e:	74 24                	je     16c4 <cmd_mkdir+0x274>
    16a0:	83 ec 0c             	sub    $0xc,%esp
    16a3:	50                   	push   %eax
    16a4:	e8 b7 bb 00 00       	call   d260 <chdir@plt>
    16a9:	83 c4 10             	add    $0x10,%esp
    16ac:	85 c0                	test   %eax,%eax
    16ae:	74 14                	je     16c4 <cmd_mkdir+0x274>
    16b0:	51                   	push   %ecx
    16b1:	51                   	push   %ecx
    16b2:	68 2a 9f 00 00       	push   $0x9f2a
    16b7:	68 a4 a9 00 00       	push   $0xa9a4
    16bc:	e8 2f b9 00 00       	call   cff0 <printf@plt>
    16c1:	83 c4 10             	add    $0x10,%esp
    16c4:	31 c0                	xor    %eax,%eax
    16c6:	8b 55 c8             	mov    -0x38(%ebp),%edx
    16c9:	85 d2                	test   %edx,%edx
    16cb:	0f 95 c0             	setne  %al
    16ce:	e9 52 fe ff ff       	jmp    1525 <cmd_mkdir+0xd5>
    16d3:	90                   	nop
    16d4:	8d 74 26 00          	lea    0x0(%esi,%eiz,1),%esi
    16d8:	e8 73 b9 00 00       	call   d050 <__errno@plt>
    16dd:	83 ec 0c             	sub    $0xc,%esp
    16e0:	8b 00                	mov    (%eax),%eax
    16e2:	50                   	push   %eax
    16e3:	e8 38 bd 00 00       	call   d420 <str_error@plt>
    16e8:	bf 01 00 00 00       	mov    $0x1,%edi
    16ed:	89 04 24             	mov    %eax,(%esp)
    16f0:	53                   	push   %ebx
    16f1:	68 2a 9f 00 00       	push   $0x9f2a
    16f6:	68 84 a7 00 00       	push   $0xa784
    16fb:	6a 01                	push   $0x1
    16fd:	e8 2e 4a 00 00       	call   6130 <cli_error>
    1702:	83 c4 20             	add    $0x20,%esp
    1705:	e9 51 ff ff ff       	jmp    165b <cmd_mkdir+0x20b>
    170a:	c7 45 c4 4c a7 00 00 	movl   $0xa74c,-0x3c(%ebp)
    1711:	e9 71 fe ff ff       	jmp    1587 <cmd_mkdir+0x137>
    1716:	53                   	push   %ebx
    1717:	68 2a 9f 00 00       	push   $0x9f2a
    171c:	68 2a 9f 00 00       	push   $0x9f2a
    1721:	68 6c a9 00 00       	push   $0xa96c
    1726:	e8 c5 b8 00 00       	call   cff0 <printf@plt>
    172b:	83 c4 10             	add    $0x10,%esp
    172e:	b8 01 00 00 00       	mov    $0x1,%eax
    1733:	e9 ed fd ff ff       	jmp    1525 <cmd_mkdir+0xd5>
    1738:	50                   	push   %eax
    1739:	68 2a 9f 00 00       	push   $0x9f2a
    173e:	68 72 a7 00 00       	push   $0xa772
    1743:	6a 04                	push   $0x4
    1745:	bf 01 00 00 00       	mov    $0x1,%edi
    174a:	e8 e1 49 00 00       	call   6130 <cli_error>
    174f:	83 c4 10             	add    $0x10,%esp
    1752:	e9 10 ff ff ff       	jmp    1667 <cmd_mkdir+0x217>
    1757:	83 ec 0c             	sub    $0xc,%esp
    175a:	50                   	push   %eax
    175b:	eb 86                	jmp    16e3 <cmd_mkdir+0x293>
    175d:	66 90                	xchg   %ax,%ax
    175f:	90                   	nop

00001760 <help_cmd_mkfile>:
    1760:	55                   	push   %ebp
    1761:	89 e5                	mov    %esp,%ebp
    1763:	83 ec 08             	sub    $0x8,%esp
    1766:	8b 45 08             	mov    0x8(%ebp),%eax
    1769:	85 c0                	test   %eax,%eax
    176b:	74 2b                	je     1798 <help_cmd_mkfile+0x38>
    176d:	50                   	push   %eax
    176e:	50                   	push   %eax
    176f:	68 47 9f 00 00       	push   $0x9f47
    1774:	68 3c ab 00 00       	push   $0xab3c
    1779:	e8 72 b8 00 00       	call   cff0 <printf@plt>
    177e:	5a                   	pop    %edx
    177f:	59                   	pop    %ecx
    1780:	68 47 9f 00 00       	push   $0x9f47
    1785:	68 64 ab 00 00       	push   $0xab64
    178a:	e8 61 b8 00 00       	call   cff0 <printf@plt>
    178f:	83 c4 10             	add    $0x10,%esp
    1792:	c9                   	leave  
    1793:	c3                   	ret    
    1794:	8d 74 26 00          	lea    0x0(%esi,%eiz,1),%esi
    1798:	50                   	push   %eax
    1799:	50                   	push   %eax
    179a:	68 47 9f 00 00       	push   $0x9f47
    179f:	68 3c ab 00 00       	push   $0xab3c
    17a4:	e8 47 b8 00 00       	call   cff0 <printf@plt>
    17a9:	83 c4 10             	add    $0x10,%esp
    17ac:	c9                   	leave  
    17ad:	c3                   	ret    
    17ae:	66 90                	xchg   %ax,%ax

000017b0 <cmd_mkfile>:
    17b0:	55                   	push   %ebp
    17b1:	89 e5                	mov    %esp,%ebp
    17b3:	57                   	push   %edi
    17b4:	56                   	push   %esi
    17b5:	53                   	push   %ebx
    17b6:	83 ec 38             	sub    $0x38,%esp
    17b9:	31 ff                	xor    %edi,%edi
    17bb:	8b 45 08             	mov    0x8(%ebp),%eax
    17be:	8d 75 e0             	lea    -0x20(%ebp),%esi
    17c1:	50                   	push   %eax
    17c2:	e8 19 51 00 00       	call   68e0 <cli_count_args>
    17c7:	c7 05 5c f8 00 00 01 	movl   $0x1,0xf85c
    17ce:	00 00 00 
    17d1:	89 c3                	mov    %eax,%ebx
    17d3:	c7 05 4c f8 00 00 00 	movl   $0x0,0xf84c
    17da:	00 00 00 
    17dd:	c7 45 e0 00 00 00 00 	movl   $0x0,-0x20(%ebp)
    17e4:	83 c4 10             	add    $0x10,%esp
    17e7:	c6 45 d4 00          	movb   $0x0,-0x2c(%ebp)
    17eb:	83 ec 0c             	sub    $0xc,%esp
    17ee:	8b 45 08             	mov    0x8(%ebp),%eax
    17f1:	56                   	push   %esi
    17f2:	68 e0 ac 00 00       	push   $0xace0
    17f7:	68 f0 aa 00 00       	push   $0xaaf0
    17fc:	50                   	push   %eax
    17fd:	53                   	push   %ebx
    17fe:	e8 1d b8 00 00       	call   d020 <getopt_long@plt>
    1803:	83 c4 20             	add    $0x20,%esp
    1806:	83 f8 70             	cmp    $0x70,%eax
    1809:	74 3d                	je     1848 <cmd_mkfile+0x98>
    180b:	83 f8 73             	cmp    $0x73,%eax
    180e:	74 70                	je     1880 <cmd_mkfile+0xd0>
    1810:	83 f8 68             	cmp    $0x68,%eax
    1813:	74 3b                	je     1850 <cmd_mkfile+0xa0>
    1815:	40                   	inc    %eax
    1816:	75 d3                	jne    17eb <cmd_mkfile+0x3b>
    1818:	a1 4c f8 00 00       	mov    0xf84c,%eax
    181d:	29 c3                	sub    %eax,%ebx
    181f:	4b                   	dec    %ebx
    1820:	0f 84 e2 00 00 00    	je     1908 <cmd_mkfile+0x158>
    1826:	50                   	push   %eax
    1827:	68 47 9f 00 00       	push   $0x9f47
    182c:	68 47 9f 00 00       	push   $0x9f47
    1831:	68 7c ac 00 00       	push   $0xac7c
    1836:	e8 b5 b7 00 00       	call   cff0 <printf@plt>
    183b:	83 c4 10             	add    $0x10,%esp
    183e:	b8 01 00 00 00       	mov    $0x1,%eax
    1843:	eb 32                	jmp    1877 <cmd_mkfile+0xc7>
    1845:	8d 76 00             	lea    0x0(%esi),%esi
    1848:	c6 45 d4 01          	movb   $0x1,-0x2c(%ebp)
    184c:	eb 9d                	jmp    17eb <cmd_mkfile+0x3b>
    184e:	66 90                	xchg   %ax,%ax
    1850:	50                   	push   %eax
    1851:	50                   	push   %eax
    1852:	68 47 9f 00 00       	push   $0x9f47
    1857:	68 3c ab 00 00       	push   $0xab3c
    185c:	e8 8f b7 00 00       	call   cff0 <printf@plt>
    1861:	5a                   	pop    %edx
    1862:	59                   	pop    %ecx
    1863:	68 47 9f 00 00       	push   $0x9f47
    1868:	68 64 ab 00 00       	push   $0xab64
    186d:	e8 7e b7 00 00       	call   cff0 <printf@plt>
    1872:	83 c4 10             	add    $0x10,%esp
    1875:	31 c0                	xor    %eax,%eax
    1877:	8d 65 f4             	lea    -0xc(%ebp),%esp
    187a:	5b                   	pop    %ebx
    187b:	5e                   	pop    %esi
    187c:	5f                   	pop    %edi
    187d:	5d                   	pop    %ebp
    187e:	c3                   	ret    
    187f:	90                   	nop
    1880:	50                   	push   %eax
    1881:	8d 45 e4             	lea    -0x1c(%ebp),%eax
    1884:	6a 0a                	push   $0xa
    1886:	50                   	push   %eax
    1887:	a1 48 f8 00 00       	mov    0xf848,%eax
    188c:	50                   	push   %eax
    188d:	e8 1e b9 00 00       	call   d1b0 <strtol@plt>
    1892:	8b 55 e4             	mov    -0x1c(%ebp),%edx
    1895:	89 c7                	mov    %eax,%edi
    1897:	83 c4 10             	add    $0x10,%esp
    189a:	0f be 02             	movsbl (%edx),%eax
    189d:	84 c0                	test   %al,%al
    189f:	74 47                	je     18e8 <cmd_mkfile+0x138>
    18a1:	80 7a 01 00          	cmpb   $0x0,0x1(%edx)
    18a5:	75 1a                	jne    18c1 <cmd_mkfile+0x111>
    18a7:	8d 50 bf             	lea    -0x41(%eax),%edx
    18aa:	83 fa 19             	cmp    $0x19,%edx
    18ad:	77 03                	ja     18b2 <cmd_mkfile+0x102>
    18af:	83 c0 20             	add    $0x20,%eax
    18b2:	83 f8 6b             	cmp    $0x6b,%eax
    18b5:	74 41                	je     18f8 <cmd_mkfile+0x148>
    18b7:	83 f8 6d             	cmp    $0x6d,%eax
    18ba:	74 24                	je     18e0 <cmd_mkfile+0x130>
    18bc:	83 f8 67             	cmp    $0x67,%eax
    18bf:	74 3f                	je     1900 <cmd_mkfile+0x150>
    18c1:	50                   	push   %eax
    18c2:	50                   	push   %eax
    18c3:	68 47 9f 00 00       	push   $0x9f47
    18c8:	68 54 ac 00 00       	push   $0xac54
    18cd:	e8 1e b7 00 00       	call   cff0 <printf@plt>
    18d2:	83 c4 10             	add    $0x10,%esp
    18d5:	b8 01 00 00 00       	mov    $0x1,%eax
    18da:	eb 9b                	jmp    1877 <cmd_mkfile+0xc7>
    18dc:	8d 74 26 00          	lea    0x0(%esi,%eiz,1),%esi
    18e0:	b8 00 00 10 00       	mov    $0x100000,%eax
    18e5:	0f af f8             	imul   %eax,%edi
    18e8:	85 ff                	test   %edi,%edi
    18ea:	0f 89 fb fe ff ff    	jns    17eb <cmd_mkfile+0x3b>
    18f0:	eb cf                	jmp    18c1 <cmd_mkfile+0x111>
    18f2:	8d b6 00 00 00 00    	lea    0x0(%esi),%esi
    18f8:	b8 00 04 00 00       	mov    $0x400,%eax
    18fd:	eb e6                	jmp    18e5 <cmd_mkfile+0x135>
    18ff:	90                   	nop
    1900:	b8 00 00 00 40       	mov    $0x40000000,%eax
    1905:	eb de                	jmp    18e5 <cmd_mkfile+0x135>
    1907:	90                   	nop
    1908:	8b 4d 08             	mov    0x8(%ebp),%ecx
    190b:	8b 34 81             	mov    (%ecx,%eax,4),%esi
    190e:	50                   	push   %eax
    190f:	68 b6 01 00 00       	push   $0x1b6
    1914:	6a 43                	push   $0x43
    1916:	56                   	push   %esi
    1917:	e8 84 bb 00 00       	call   d4a0 <open@plt>
    191c:	83 c4 10             	add    $0x10,%esp
    191f:	89 c3                	mov    %eax,%ebx
    1921:	85 c0                	test   %eax,%eax
    1923:	0f 88 25 01 00 00    	js     1a4e <cmd_mkfile+0x29e>
    1929:	85 ff                	test   %edi,%edi
    192b:	7e 70                	jle    199d <cmd_mkfile+0x1ed>
    192d:	80 7d d4 00          	cmpb   $0x0,-0x2c(%ebp)
    1931:	74 6a                	je     199d <cmd_mkfile+0x1ed>
    1933:	8d 47 ff             	lea    -0x1(%edi),%eax
    1936:	6a 00                	push   $0x0
    1938:	89 c2                	mov    %eax,%edx
    193a:	c6 45 e4 00          	movb   $0x0,-0x1c(%ebp)
    193e:	c1 fa 1f             	sar    $0x1f,%edx
    1941:	52                   	push   %edx
    1942:	50                   	push   %eax
    1943:	53                   	push   %ebx
    1944:	e8 37 b8 00 00       	call   d180 <lseek@plt>
    1949:	83 c4 10             	add    $0x10,%esp
    194c:	85 c0                	test   %eax,%eax
    194e:	78 1c                	js     196c <cmd_mkfile+0x1bc>
    1950:	8d 45 e4             	lea    -0x1c(%ebp),%eax
    1953:	51                   	push   %ecx
    1954:	6a 01                	push   $0x1
    1956:	50                   	push   %eax
    1957:	53                   	push   %ebx
    1958:	e8 d3 b8 00 00       	call   d230 <write@plt>
    195d:	89 c2                	mov    %eax,%edx
    195f:	83 c4 10             	add    $0x10,%esp
    1962:	31 c0                	xor    %eax,%eax
    1964:	85 d2                	test   %edx,%edx
    1966:	0f 89 0b ff ff ff    	jns    1877 <cmd_mkfile+0xc7>
    196c:	83 ec 0c             	sub    $0xc,%esp
    196f:	53                   	push   %ebx
    1970:	e8 8b bb 00 00       	call   d500 <close@plt>
    1975:	83 c4 10             	add    $0x10,%esp
    1978:	e8 d3 b6 00 00       	call   d050 <__errno@plt>
    197d:	52                   	push   %edx
    197e:	8b 08                	mov    (%eax),%ecx
    1980:	51                   	push   %ecx
    1981:	68 47 9f 00 00       	push   $0x9f47
    1986:	68 10 ab 00 00       	push   $0xab10
    198b:	e8 60 b6 00 00       	call   cff0 <printf@plt>
    1990:	83 c4 10             	add    $0x10,%esp
    1993:	b8 01 00 00 00       	mov    $0x1,%eax
    1998:	e9 da fe ff ff       	jmp    1877 <cmd_mkfile+0xc7>
    199d:	52                   	push   %edx
    199e:	52                   	push   %edx
    199f:	6a 01                	push   $0x1
    19a1:	68 00 40 00 00       	push   $0x4000
    19a6:	e8 75 b8 00 00       	call   d220 <calloc@plt>
    19ab:	83 c4 10             	add    $0x10,%esp
    19ae:	89 45 d4             	mov    %eax,-0x2c(%ebp)
    19b1:	85 c0                	test   %eax,%eax
    19b3:	0f 84 b3 00 00 00    	je     1a6c <cmd_mkfile+0x2bc>
    19b9:	31 f6                	xor    %esi,%esi
    19bb:	85 ff                	test   %edi,%edi
    19bd:	7f 0f                	jg     19ce <cmd_mkfile+0x21e>
    19bf:	eb 67                	jmp    1a28 <cmd_mkfile+0x278>
    19c1:	8d b4 26 00 00 00 00 	lea    0x0(%esi,%eiz,1),%esi
    19c8:	01 c6                	add    %eax,%esi
    19ca:	39 fe                	cmp    %edi,%esi
    19cc:	7d 5a                	jge    1a28 <cmd_mkfile+0x278>
    19ce:	50                   	push   %eax
    19cf:	89 f8                	mov    %edi,%eax
    19d1:	29 f0                	sub    %esi,%eax
    19d3:	3d 00 40 00 00       	cmp    $0x4000,%eax
    19d8:	7e 05                	jle    19df <cmd_mkfile+0x22f>
    19da:	b8 00 40 00 00       	mov    $0x4000,%eax
    19df:	50                   	push   %eax
    19e0:	8b 45 d4             	mov    -0x2c(%ebp),%eax
    19e3:	50                   	push   %eax
    19e4:	53                   	push   %ebx
    19e5:	e8 46 b8 00 00       	call   d230 <write@plt>
    19ea:	83 c4 10             	add    $0x10,%esp
    19ed:	85 c0                	test   %eax,%eax
    19ef:	7f d7                	jg     19c8 <cmd_mkfile+0x218>
    19f1:	e8 5a b6 00 00       	call   d050 <__errno@plt>
    19f6:	56                   	push   %esi
    19f7:	8b 38                	mov    (%eax),%edi
    19f9:	57                   	push   %edi
    19fa:	68 47 9f 00 00       	push   $0x9f47
    19ff:	68 10 ab 00 00       	push   $0xab10
    1a04:	e8 e7 b5 00 00       	call   cff0 <printf@plt>
    1a09:	89 1c 24             	mov    %ebx,(%esp)
    1a0c:	e8 ef ba 00 00       	call   d500 <close@plt>
    1a11:	58                   	pop    %eax
    1a12:	8b 45 d4             	mov    -0x2c(%ebp),%eax
    1a15:	50                   	push   %eax
    1a16:	e8 f5 ba 00 00       	call   d510 <free@plt>
    1a1b:	83 c4 10             	add    $0x10,%esp
    1a1e:	b8 01 00 00 00       	mov    $0x1,%eax
    1a23:	e9 4f fe ff ff       	jmp    1877 <cmd_mkfile+0xc7>
    1a28:	83 ec 0c             	sub    $0xc,%esp
    1a2b:	8b 45 d4             	mov    -0x2c(%ebp),%eax
    1a2e:	50                   	push   %eax
    1a2f:	e8 dc ba 00 00       	call   d510 <free@plt>
    1a34:	89 1c 24             	mov    %ebx,(%esp)
    1a37:	e8 c4 ba 00 00       	call   d500 <close@plt>
    1a3c:	83 c4 10             	add    $0x10,%esp
    1a3f:	85 c0                	test   %eax,%eax
    1a41:	0f 88 31 ff ff ff    	js     1978 <cmd_mkfile+0x1c8>
    1a47:	31 c0                	xor    %eax,%eax
    1a49:	e9 29 fe ff ff       	jmp    1877 <cmd_mkfile+0xc7>
    1a4e:	53                   	push   %ebx
    1a4f:	56                   	push   %esi
    1a50:	68 47 9f 00 00       	push   $0x9f47
    1a55:	68 b0 ac 00 00       	push   $0xacb0
    1a5a:	e8 91 b5 00 00       	call   cff0 <printf@plt>
    1a5f:	83 c4 10             	add    $0x10,%esp
    1a62:	b8 01 00 00 00       	mov    $0x1,%eax
    1a67:	e9 0b fe ff ff       	jmp    1877 <cmd_mkfile+0xc7>
    1a6c:	50                   	push   %eax
    1a6d:	50                   	push   %eax
    1a6e:	68 47 9f 00 00       	push   $0x9f47
    1a73:	68 f5 aa 00 00       	push   $0xaaf5
    1a78:	e8 73 b5 00 00       	call   cff0 <printf@plt>
    1a7d:	83 c4 10             	add    $0x10,%esp
    1a80:	b8 01 00 00 00       	mov    $0x1,%eax
    1a85:	e9 ed fd ff ff       	jmp    1877 <cmd_mkfile+0xc7>
    1a8a:	66 90                	xchg   %ax,%ax
    1a8c:	66 90                	xchg   %ax,%ax
    1a8e:	66 90                	xchg   %ax,%ax

00001a90 <rm_recursive>:
    1a90:	55                   	push   %ebp
    1a91:	89 e5                	mov    %esp,%ebp
    1a93:	57                   	push   %edi
    1a94:	56                   	push   %esi
    1a95:	53                   	push   %ebx
    1a96:	81 ec 28 01 00 00    	sub    $0x128,%esp
    1a9c:	89 c7                	mov    %eax,%edi
    1a9e:	50                   	push   %eax
    1a9f:	e8 7c b6 00 00       	call   d120 <rmdir@plt>
    1aa4:	83 c4 10             	add    $0x10,%esp
    1aa7:	85 c0                	test   %eax,%eax
    1aa9:	75 0d                	jne    1ab8 <rm_recursive+0x28>
    1aab:	8d 65 f4             	lea    -0xc(%ebp),%esp
    1aae:	31 c0                	xor    %eax,%eax
    1ab0:	5b                   	pop    %ebx
    1ab1:	5e                   	pop    %esi
    1ab2:	5f                   	pop    %edi
    1ab3:	5d                   	pop    %ebp
    1ab4:	c3                   	ret    
    1ab5:	8d 76 00             	lea    0x0(%esi),%esi
    1ab8:	83 ec 0c             	sub    $0xc,%esp
    1abb:	57                   	push   %edi
    1abc:	e8 9f b8 00 00       	call   d360 <opendir@plt>
    1ac1:	83 c4 10             	add    $0x10,%esp
    1ac4:	89 85 e4 fe ff ff    	mov    %eax,-0x11c(%ebp)
    1aca:	85 c0                	test   %eax,%eax
    1acc:	0f 84 12 01 00 00    	je     1be4 <rm_recursive+0x154>
    1ad2:	8d 9d e9 fe ff ff    	lea    -0x117(%ebp),%ebx
    1ad8:	50                   	push   %eax
    1ad9:	68 ff 00 00 00       	push   $0xff
    1ade:	6a 00                	push   $0x0
    1ae0:	53                   	push   %ebx
    1ae1:	31 f6                	xor    %esi,%esi
    1ae3:	e8 48 b8 00 00       	call   d330 <memset@plt>
    1ae8:	83 c4 10             	add    $0x10,%esp
    1aeb:	eb 18                	jmp    1b05 <rm_recursive+0x75>
    1aed:	8d 76 00             	lea    0x0(%esi),%esi
    1af0:	83 ec 0c             	sub    $0xc,%esp
    1af3:	50                   	push   %eax
    1af4:	e8 e7 b9 00 00       	call   d4e0 <closedir@plt>
    1af9:	89 d8                	mov    %ebx,%eax
    1afb:	e8 90 ff ff ff       	call   1a90 <rm_recursive>
    1b00:	83 c4 10             	add    $0x10,%esp
    1b03:	01 c6                	add    %eax,%esi
    1b05:	83 ec 0c             	sub    $0xc,%esp
    1b08:	8b 8d e4 fe ff ff    	mov    -0x11c(%ebp),%ecx
    1b0e:	51                   	push   %ecx
    1b0f:	e8 1c b6 00 00       	call   d130 <readdir@plt>
    1b14:	83 c4 10             	add    $0x10,%esp
    1b17:	85 c0                	test   %eax,%eax
    1b19:	74 75                	je     1b90 <rm_recursive+0x100>
    1b1b:	83 ec 0c             	sub    $0xc,%esp
    1b1e:	50                   	push   %eax
    1b1f:	57                   	push   %edi
    1b20:	68 32 ad 00 00       	push   $0xad32
    1b25:	68 fe 00 00 00       	push   $0xfe
    1b2a:	53                   	push   %ebx
    1b2b:	e8 00 b5 00 00       	call   d030 <snprintf@plt>
    1b30:	83 c4 14             	add    $0x14,%esp
    1b33:	53                   	push   %ebx
    1b34:	e8 27 b8 00 00       	call   d360 <opendir@plt>
    1b39:	83 c4 10             	add    $0x10,%esp
    1b3c:	85 c0                	test   %eax,%eax
    1b3e:	75 b0                	jne    1af0 <rm_recursive+0x60>
    1b40:	50                   	push   %eax
    1b41:	50                   	push   %eax
    1b42:	6a 10                	push   $0x10
    1b44:	53                   	push   %ebx
    1b45:	e8 56 b9 00 00       	call   d4a0 <open@plt>
    1b4a:	83 c4 10             	add    $0x10,%esp
    1b4d:	85 c0                	test   %eax,%eax
    1b4f:	78 b4                	js     1b05 <rm_recursive+0x75>
    1b51:	83 ec 0c             	sub    $0xc,%esp
    1b54:	50                   	push   %eax
    1b55:	e8 a6 b9 00 00       	call   d500 <close@plt>
    1b5a:	89 1c 24             	mov    %ebx,(%esp)
    1b5d:	e8 5e b7 00 00       	call   d2c0 <unlink@plt>
    1b62:	83 c4 10             	add    $0x10,%esp
    1b65:	31 d2                	xor    %edx,%edx
    1b67:	85 c0                	test   %eax,%eax
    1b69:	75 05                	jne    1b70 <rm_recursive+0xe0>
    1b6b:	01 d6                	add    %edx,%esi
    1b6d:	eb 96                	jmp    1b05 <rm_recursive+0x75>
    1b6f:	90                   	nop
    1b70:	50                   	push   %eax
    1b71:	53                   	push   %ebx
    1b72:	68 38 ad 00 00       	push   $0xad38
    1b77:	6a 01                	push   $0x1
    1b79:	e8 b2 45 00 00       	call   6130 <cli_error>
    1b7e:	ba 01 00 00 00       	mov    $0x1,%edx
    1b83:	83 c4 10             	add    $0x10,%esp
    1b86:	01 d6                	add    %edx,%esi
    1b88:	e9 78 ff ff ff       	jmp    1b05 <rm_recursive+0x75>
    1b8d:	8d 76 00             	lea    0x0(%esi),%esi
    1b90:	83 ec 0c             	sub    $0xc,%esp
    1b93:	8b 95 e4 fe ff ff    	mov    -0x11c(%ebp),%edx
    1b99:	52                   	push   %edx
    1b9a:	e8 41 b9 00 00       	call   d4e0 <closedir@plt>
    1b9f:	83 c4 10             	add    $0x10,%esp
    1ba2:	83 ec 0c             	sub    $0xc,%esp
    1ba5:	57                   	push   %edi
    1ba6:	e8 75 b5 00 00       	call   d120 <rmdir@plt>
    1bab:	83 c4 10             	add    $0x10,%esp
    1bae:	85 c0                	test   %eax,%eax
    1bb0:	75 16                	jne    1bc8 <rm_recursive+0x138>
    1bb2:	e8 99 b4 00 00       	call   d050 <__errno@plt>
    1bb7:	8b 00                	mov    (%eax),%eax
    1bb9:	8d 65 f4             	lea    -0xc(%ebp),%esp
    1bbc:	5b                   	pop    %ebx
    1bbd:	5e                   	pop    %esi
    1bbe:	5f                   	pop    %edi
    1bbf:	5d                   	pop    %ebp
    1bc0:	c3                   	ret    
    1bc1:	8d b4 26 00 00 00 00 	lea    0x0(%esi,%eiz,1),%esi
    1bc8:	50                   	push   %eax
    1bc9:	57                   	push   %edi
    1bca:	68 55 ad 00 00       	push   $0xad55
    1bcf:	6a 06                	push   $0x6
    1bd1:	e8 5a 45 00 00       	call   6130 <cli_error>
    1bd6:	83 c4 10             	add    $0x10,%esp
    1bd9:	8d 65 f4             	lea    -0xc(%ebp),%esp
    1bdc:	8d 46 01             	lea    0x1(%esi),%eax
    1bdf:	5b                   	pop    %ebx
    1be0:	5e                   	pop    %esi
    1be1:	5f                   	pop    %edi
    1be2:	5d                   	pop    %ebp
    1be3:	c3                   	ret    
    1be4:	50                   	push   %eax
    1be5:	57                   	push   %edi
    1be6:	68 20 ad 00 00       	push   $0xad20
    1beb:	6a 01                	push   $0x1
    1bed:	31 f6                	xor    %esi,%esi
    1bef:	e8 3c 45 00 00       	call   6130 <cli_error>
    1bf4:	83 c4 10             	add    $0x10,%esp
    1bf7:	eb a9                	jmp    1ba2 <rm_recursive+0x112>
    1bf9:	8d b4 26 00 00 00 00 	lea    0x0(%esi,%eiz,1),%esi

00001c00 <help_cmd_rm>:
    1c00:	55                   	push   %ebp
    1c01:	89 e5                	mov    %esp,%ebp
    1c03:	83 ec 08             	sub    $0x8,%esp
    1c06:	8b 45 08             	mov    0x8(%ebp),%eax
    1c09:	85 c0                	test   %eax,%eax
    1c0b:	74 33                	je     1c40 <help_cmd_rm+0x40>
    1c0d:	50                   	push   %eax
    1c0e:	50                   	push   %eax
    1c0f:	68 5e 9f 00 00       	push   $0x9f5e
    1c14:	68 b0 ad 00 00       	push   $0xadb0
    1c19:	e8 d2 b3 00 00       	call   cff0 <printf@plt>
    1c1e:	83 c4 0c             	add    $0xc,%esp
    1c21:	68 5e 9f 00 00       	push   $0x9f5e
    1c26:	68 5e 9f 00 00       	push   $0x9f5e
    1c2b:	68 d8 ad 00 00       	push   $0xadd8
    1c30:	e8 bb b3 00 00       	call   cff0 <printf@plt>
    1c35:	83 c4 10             	add    $0x10,%esp
    1c38:	c9                   	leave  
    1c39:	c3                   	ret    
    1c3a:	8d b6 00 00 00 00    	lea    0x0(%esi),%esi
    1c40:	52                   	push   %edx
    1c41:	52                   	push   %edx
    1c42:	68 5e 9f 00 00       	push   $0x9f5e
    1c47:	68 b0 ad 00 00       	push   $0xadb0
    1c4c:	e8 9f b3 00 00       	call   cff0 <printf@plt>
    1c51:	83 c4 10             	add    $0x10,%esp
    1c54:	c9                   	leave  
    1c55:	c3                   	ret    
    1c56:	8d 76 00             	lea    0x0(%esi),%esi
    1c59:	8d bc 27 00 00 00 00 	lea    0x0(%edi,%eiz,1),%edi

00001c60 <cmd_rm>:
    1c60:	55                   	push   %ebp
    1c61:	89 e5                	mov    %esp,%ebp
    1c63:	57                   	push   %edi
    1c64:	56                   	push   %esi
    1c65:	53                   	push   %ebx
    1c66:	83 ec 38             	sub    $0x38,%esp
    1c69:	8b 5d 08             	mov    0x8(%ebp),%ebx
    1c6c:	53                   	push   %ebx
    1c6d:	e8 6e 4c 00 00       	call   68e0 <cli_count_args>
    1c72:	83 c4 10             	add    $0x10,%esp
    1c75:	83 f8 01             	cmp    $0x1,%eax
    1c78:	0f 86 f2 02 00 00    	jbe    1f70 <cmd_rm+0x310>
    1c7e:	83 ec 0c             	sub    $0xc,%esp
    1c81:	89 c6                	mov    %eax,%esi
    1c83:	c7 05 84 f8 00 00 00 	movl   $0x0,0xf884
    1c8a:	00 00 00 
    1c8d:	c7 05 80 f8 00 00 00 	movl   $0x0,0xf880
    1c94:	00 00 00 
    1c97:	68 ff 00 00 00       	push   $0xff
    1c9c:	c7 05 88 f8 00 00 00 	movl   $0x0,0xf888
    1ca3:	00 00 00 
    1ca6:	e8 35 b4 00 00       	call   d0e0 <malloc@plt>
    1cab:	83 c4 10             	add    $0x10,%esp
    1cae:	a3 9c f8 00 00       	mov    %eax,0xf89c
    1cb3:	85 c0                	test   %eax,%eax
    1cb5:	0f 84 4d 02 00 00    	je     1f08 <cmd_rm+0x2a8>
    1cbb:	51                   	push   %ecx
    1cbc:	68 ff 00 00 00       	push   $0xff
    1cc1:	6a 00                	push   $0x0
    1cc3:	50                   	push   %eax
    1cc4:	e8 67 b6 00 00       	call   d330 <memset@plt>
    1cc9:	c7 04 24 ff 00 00 00 	movl   $0xff,(%esp)
    1cd0:	e8 0b b4 00 00       	call   d0e0 <malloc@plt>
    1cd5:	83 c4 10             	add    $0x10,%esp
    1cd8:	a3 94 f8 00 00       	mov    %eax,0xf894
    1cdd:	85 c0                	test   %eax,%eax
    1cdf:	0f 84 23 02 00 00    	je     1f08 <cmd_rm+0x2a8>
    1ce5:	52                   	push   %edx
    1ce6:	68 ff 00 00 00       	push   $0xff
    1ceb:	6a 00                	push   $0x0
    1ced:	50                   	push   %eax
    1cee:	e8 3d b6 00 00       	call   d330 <memset@plt>
    1cf3:	c7 04 24 ff 00 00 00 	movl   $0xff,(%esp)
    1cfa:	e8 e1 b3 00 00       	call   d0e0 <malloc@plt>
    1cff:	83 c4 10             	add    $0x10,%esp
    1d02:	a3 98 f8 00 00       	mov    %eax,0xf898
    1d07:	85 c0                	test   %eax,%eax
    1d09:	0f 84 f9 01 00 00    	je     1f08 <cmd_rm+0x2a8>
    1d0f:	52                   	push   %edx
    1d10:	68 ff 00 00 00       	push   $0xff
    1d15:	6a 00                	push   $0x0
    1d17:	50                   	push   %eax
    1d18:	e8 13 b6 00 00       	call   d330 <memset@plt>
    1d1d:	c7 04 24 33 bd 00 00 	movl   $0xbd33,(%esp)
    1d24:	e8 37 b5 00 00       	call   d260 <chdir@plt>
    1d29:	a1 94 f8 00 00       	mov    0xf894,%eax
    1d2e:	59                   	pop    %ecx
    1d2f:	5f                   	pop    %edi
    1d30:	68 ff 00 00 00       	push   $0xff
    1d35:	50                   	push   %eax
    1d36:	e8 45 b6 00 00       	call   d380 <getcwd@plt>
    1d3b:	83 c4 10             	add    $0x10,%esp
    1d3e:	85 c0                	test   %eax,%eax
    1d40:	0f 84 c2 01 00 00    	je     1f08 <cmd_rm+0x2a8>
    1d46:	c7 05 5c f8 00 00 01 	movl   $0x1,0xf85c
    1d4d:	00 00 00 
    1d50:	c7 05 4c f8 00 00 00 	movl   $0x0,0xf84c
    1d57:	00 00 00 
    1d5a:	c7 45 e4 00 00 00 00 	movl   $0x0,-0x1c(%ebp)
    1d61:	8d 7d e4             	lea    -0x1c(%ebp),%edi
    1d64:	83 ec 0c             	sub    $0xc,%esp
    1d67:	57                   	push   %edi
    1d68:	68 00 b0 00 00       	push   $0xb000
    1d6d:	68 67 ad 00 00       	push   $0xad67
    1d72:	53                   	push   %ebx
    1d73:	56                   	push   %esi
    1d74:	e8 a7 b2 00 00       	call   d020 <getopt_long@plt>
    1d79:	83 c4 20             	add    $0x20,%esp
    1d7c:	8d 50 9a             	lea    -0x66(%eax),%edx
    1d7f:	83 fa 10             	cmp    $0x10,%edx
    1d82:	0f 87 90 00 00 00    	ja     1e18 <cmd_rm+0x1b8>
    1d88:	ff 24 95 a0 af 00 00 	jmp    *0xafa0(,%edx,4)
    1d8f:	90                   	nop
    1d90:	c7 05 80 f8 00 00 01 	movl   $0x1,0xf880
    1d97:	00 00 00 
    1d9a:	eb c8                	jmp    1d64 <cmd_rm+0x104>
    1d9c:	8d 74 26 00          	lea    0x0(%esi,%eiz,1),%esi
    1da0:	50                   	push   %eax
    1da1:	50                   	push   %eax
    1da2:	68 2c a7 00 00       	push   $0xa72c
    1da7:	68 ac 9e 00 00       	push   $0x9eac
    1dac:	e8 3f b2 00 00       	call   cff0 <printf@plt>
    1db1:	83 c4 10             	add    $0x10,%esp
    1db4:	31 c0                	xor    %eax,%eax
    1db6:	8d 65 f4             	lea    -0xc(%ebp),%esp
    1db9:	5b                   	pop    %ebx
    1dba:	5e                   	pop    %esi
    1dbb:	5f                   	pop    %edi
    1dbc:	5d                   	pop    %ebp
    1dbd:	c3                   	ret    
    1dbe:	66 90                	xchg   %ax,%ax
    1dc0:	c7 05 88 f8 00 00 01 	movl   $0x1,0xf888
    1dc7:	00 00 00 
    1dca:	eb 98                	jmp    1d64 <cmd_rm+0x104>
    1dcc:	8d 74 26 00          	lea    0x0(%esi,%eiz,1),%esi
    1dd0:	c7 05 84 f8 00 00 01 	movl   $0x1,0xf884
    1dd7:	00 00 00 
    1dda:	eb 88                	jmp    1d64 <cmd_rm+0x104>
    1ddc:	8d 74 26 00          	lea    0x0(%esi,%eiz,1),%esi
    1de0:	50                   	push   %eax
    1de1:	50                   	push   %eax
    1de2:	68 5e 9f 00 00       	push   $0x9f5e
    1de7:	68 b0 ad 00 00       	push   $0xadb0
    1dec:	e8 ff b1 00 00       	call   cff0 <printf@plt>
    1df1:	83 c4 0c             	add    $0xc,%esp
    1df4:	68 5e 9f 00 00       	push   $0x9f5e
    1df9:	68 5e 9f 00 00       	push   $0x9f5e
    1dfe:	68 d8 ad 00 00       	push   $0xadd8
    1e03:	e8 e8 b1 00 00       	call   cff0 <printf@plt>
    1e08:	83 c4 10             	add    $0x10,%esp
    1e0b:	8d 65 f4             	lea    -0xc(%ebp),%esp
    1e0e:	31 c0                	xor    %eax,%eax
    1e10:	5b                   	pop    %ebx
    1e11:	5e                   	pop    %esi
    1e12:	5f                   	pop    %edi
    1e13:	5d                   	pop    %ebp
    1e14:	c3                   	ret    
    1e15:	8d 76 00             	lea    0x0(%esi),%esi
    1e18:	40                   	inc    %eax
    1e19:	0f 85 45 ff ff ff    	jne    1d64 <cmd_rm+0x104>
    1e1f:	a1 4c f8 00 00       	mov    0xf84c,%eax
    1e24:	39 c6                	cmp    %eax,%esi
    1e26:	0f 84 6a 01 00 00    	je     1f96 <cmd_rm+0x336>
    1e2c:	8d 14 85 00 00 00 00 	lea    0x0(,%eax,4),%edx
    1e33:	8d 3c 13             	lea    (%ebx,%edx,1),%edi
    1e36:	8b 07                	mov    (%edi),%eax
    1e38:	85 c0                	test   %eax,%eax
    1e3a:	0f 84 85 01 00 00    	je     1fc5 <cmd_rm+0x365>
    1e40:	8d 4c 13 04          	lea    0x4(%ebx,%edx,1),%ecx
    1e44:	c7 45 d0 00 00 00 00 	movl   $0x0,-0x30(%ebp)
    1e4b:	89 4d d4             	mov    %ecx,-0x2c(%ebp)
    1e4e:	31 db                	xor    %ebx,%ebx
    1e50:	eb 34                	jmp    1e86 <cmd_rm+0x226>
    1e52:	8d b6 00 00 00 00    	lea    0x0(%esi),%esi
    1e58:	50                   	push   %eax
    1e59:	50                   	push   %eax
    1e5a:	53                   	push   %ebx
    1e5b:	68 74 af 00 00       	push   $0xaf74
    1e60:	e8 8b b1 00 00       	call   cff0 <printf@plt>
    1e65:	8b 45 d0             	mov    -0x30(%ebp),%eax
    1e68:	40                   	inc    %eax
    1e69:	83 c4 10             	add    $0x10,%esp
    1e6c:	89 45 d0             	mov    %eax,-0x30(%ebp)
    1e6f:	8b 4d d4             	mov    -0x2c(%ebp),%ecx
    1e72:	83 c7 04             	add    $0x4,%edi
    1e75:	83 c1 04             	add    $0x4,%ecx
    1e78:	8b 41 fc             	mov    -0x4(%ecx),%eax
    1e7b:	89 4d d4             	mov    %ecx,-0x2c(%ebp)
    1e7e:	85 c0                	test   %eax,%eax
    1e80:	0f 84 f2 01 00 00    	je     2078 <cmd_rm+0x418>
    1e86:	83 ec 0c             	sub    $0xc,%esp
    1e89:	50                   	push   %eax
    1e8a:	e8 31 b5 00 00       	call   d3c0 <str_size@plt>
    1e8f:	59                   	pop    %ecx
    1e90:	8d 70 02             	lea    0x2(%eax),%esi
    1e93:	58                   	pop    %eax
    1e94:	56                   	push   %esi
    1e95:	53                   	push   %ebx
    1e96:	e8 35 b4 00 00       	call   d2d0 <realloc@plt>
    1e9b:	83 c4 10             	add    $0x10,%esp
    1e9e:	89 c3                	mov    %eax,%ebx
    1ea0:	85 c0                	test   %eax,%eax
    1ea2:	0f 84 08 01 00 00    	je     1fb0 <cmd_rm+0x350>
    1ea8:	50                   	push   %eax
    1ea9:	56                   	push   %esi
    1eaa:	6a 00                	push   $0x0
    1eac:	53                   	push   %ebx
    1ead:	e8 7e b4 00 00       	call   d330 <memset@plt>
    1eb2:	8b 17                	mov    (%edi),%edx
    1eb4:	52                   	push   %edx
    1eb5:	68 52 ad 00 00       	push   $0xad52
    1eba:	56                   	push   %esi
    1ebb:	53                   	push   %ebx
    1ebc:	e8 6f b1 00 00       	call   d030 <snprintf@plt>
    1ec1:	83 c4 14             	add    $0x14,%esp
    1ec4:	53                   	push   %ebx
    1ec5:	e8 96 b4 00 00       	call   d360 <opendir@plt>
    1eca:	83 c4 10             	add    $0x10,%esp
    1ecd:	85 c0                	test   %eax,%eax
    1ecf:	0f 84 53 01 00 00    	je     2028 <cmd_rm+0x3c8>
    1ed5:	83 ec 0c             	sub    $0xc,%esp
    1ed8:	50                   	push   %eax
    1ed9:	e8 02 b6 00 00       	call   d4e0 <closedir@plt>
    1ede:	a1 84 f8 00 00       	mov    0xf884,%eax
    1ee3:	83 c4 10             	add    $0x10,%esp
    1ee6:	85 c0                	test   %eax,%eax
    1ee8:	0f 84 6a ff ff ff    	je     1e58 <cmd_rm+0x1f8>
    1eee:	89 d8                	mov    %ebx,%eax
    1ef0:	e8 9b fb ff ff       	call   1a90 <rm_recursive>
    1ef5:	8b 75 d0             	mov    -0x30(%ebp),%esi
    1ef8:	01 c6                	add    %eax,%esi
    1efa:	89 75 d0             	mov    %esi,-0x30(%ebp)
    1efd:	e9 6d ff ff ff       	jmp    1e6f <cmd_rm+0x20f>
    1f02:	8d b6 00 00 00 00    	lea    0x0(%esi),%esi
    1f08:	51                   	push   %ecx
    1f09:	68 5e 9f 00 00       	push   $0x9f5e
    1f0e:	68 80 ad 00 00       	push   $0xad80
    1f13:	6a 04                	push   $0x4
    1f15:	e8 16 42 00 00       	call   6130 <cli_error>
    1f1a:	a1 9c f8 00 00       	mov    0xf89c,%eax
    1f1f:	83 c4 10             	add    $0x10,%esp
    1f22:	85 c0                	test   %eax,%eax
    1f24:	74 0c                	je     1f32 <cmd_rm+0x2d2>
    1f26:	83 ec 0c             	sub    $0xc,%esp
    1f29:	50                   	push   %eax
    1f2a:	e8 e1 b5 00 00       	call   d510 <free@plt>
    1f2f:	83 c4 10             	add    $0x10,%esp
    1f32:	a1 94 f8 00 00       	mov    0xf894,%eax
    1f37:	85 c0                	test   %eax,%eax
    1f39:	74 0c                	je     1f47 <cmd_rm+0x2e7>
    1f3b:	83 ec 0c             	sub    $0xc,%esp
    1f3e:	50                   	push   %eax
    1f3f:	e8 cc b5 00 00       	call   d510 <free@plt>
    1f44:	83 c4 10             	add    $0x10,%esp
    1f47:	a1 98 f8 00 00       	mov    0xf898,%eax
    1f4c:	85 c0                	test   %eax,%eax
    1f4e:	74 0c                	je     1f5c <cmd_rm+0x2fc>
    1f50:	83 ec 0c             	sub    $0xc,%esp
    1f53:	50                   	push   %eax
    1f54:	e8 b7 b5 00 00       	call   d510 <free@plt>
    1f59:	83 c4 10             	add    $0x10,%esp
    1f5c:	8d 65 f4             	lea    -0xc(%ebp),%esp
    1f5f:	b8 01 00 00 00       	mov    $0x1,%eax
    1f64:	5b                   	pop    %ebx
    1f65:	5e                   	pop    %esi
    1f66:	5f                   	pop    %edi
    1f67:	5d                   	pop    %ebp
    1f68:	c3                   	ret    
    1f69:	8d b4 26 00 00 00 00 	lea    0x0(%esi,%eiz,1),%esi
    1f70:	68 5e 9f 00 00       	push   $0x9f5e
    1f75:	68 5e 9f 00 00       	push   $0x9f5e
    1f7a:	68 48 af 00 00       	push   $0xaf48
    1f7f:	6a 01                	push   $0x1
    1f81:	e8 aa 41 00 00       	call   6130 <cli_error>
    1f86:	83 c4 10             	add    $0x10,%esp
    1f89:	8d 65 f4             	lea    -0xc(%ebp),%esp
    1f8c:	b8 01 00 00 00       	mov    $0x1,%eax
    1f91:	5b                   	pop    %ebx
    1f92:	5e                   	pop    %esi
    1f93:	5f                   	pop    %edi
    1f94:	5d                   	pop    %ebp
    1f95:	c3                   	ret    
    1f96:	68 5e 9f 00 00       	push   $0x9f5e
    1f9b:	68 5e 9f 00 00       	push   $0x9f5e
    1fa0:	68 48 af 00 00       	push   $0xaf48
    1fa5:	6a 01                	push   $0x1
    1fa7:	e9 69 ff ff ff       	jmp    1f15 <cmd_rm+0x2b5>
    1fac:	8d 74 26 00          	lea    0x0(%esi,%eiz,1),%esi
    1fb0:	83 ec 0c             	sub    $0xc,%esp
    1fb3:	68 6d ad 00 00       	push   $0xad6d
    1fb8:	e8 33 b0 00 00       	call   cff0 <printf@plt>
    1fbd:	83 c4 10             	add    $0x10,%esp
    1fc0:	b8 01 00 00 00       	mov    $0x1,%eax
    1fc5:	8b 15 9c f8 00 00    	mov    0xf89c,%edx
    1fcb:	85 d2                	test   %edx,%edx
    1fcd:	74 12                	je     1fe1 <cmd_rm+0x381>
    1fcf:	83 ec 0c             	sub    $0xc,%esp
    1fd2:	89 45 d4             	mov    %eax,-0x2c(%ebp)
    1fd5:	52                   	push   %edx
    1fd6:	e8 35 b5 00 00       	call   d510 <free@plt>
    1fdb:	83 c4 10             	add    $0x10,%esp
    1fde:	8b 45 d4             	mov    -0x2c(%ebp),%eax
    1fe1:	8b 15 94 f8 00 00    	mov    0xf894,%edx
    1fe7:	85 d2                	test   %edx,%edx
    1fe9:	74 12                	je     1ffd <cmd_rm+0x39d>
    1feb:	83 ec 0c             	sub    $0xc,%esp
    1fee:	89 45 d4             	mov    %eax,-0x2c(%ebp)
    1ff1:	52                   	push   %edx
    1ff2:	e8 19 b5 00 00       	call   d510 <free@plt>
    1ff7:	83 c4 10             	add    $0x10,%esp
    1ffa:	8b 45 d4             	mov    -0x2c(%ebp),%eax
    1ffd:	8b 15 98 f8 00 00    	mov    0xf898,%edx
    2003:	85 d2                	test   %edx,%edx
    2005:	0f 84 ab fd ff ff    	je     1db6 <cmd_rm+0x156>
    200b:	83 ec 0c             	sub    $0xc,%esp
    200e:	89 45 d4             	mov    %eax,-0x2c(%ebp)
    2011:	52                   	push   %edx
    2012:	e8 f9 b4 00 00       	call   d510 <free@plt>
    2017:	83 c4 10             	add    $0x10,%esp
    201a:	8b 45 d4             	mov    -0x2c(%ebp),%eax
    201d:	e9 94 fd ff ff       	jmp    1db6 <cmd_rm+0x156>
    2022:	8d b6 00 00 00 00    	lea    0x0(%esi),%esi
    2028:	50                   	push   %eax
    2029:	50                   	push   %eax
    202a:	6a 10                	push   $0x10
    202c:	53                   	push   %ebx
    202d:	e8 6e b4 00 00       	call   d4a0 <open@plt>
    2032:	83 c4 10             	add    $0x10,%esp
    2035:	85 c0                	test   %eax,%eax
    2037:	78 0c                	js     2045 <cmd_rm+0x3e5>
    2039:	83 ec 0c             	sub    $0xc,%esp
    203c:	50                   	push   %eax
    203d:	e8 be b4 00 00       	call   d500 <close@plt>
    2042:	83 c4 10             	add    $0x10,%esp
    2045:	83 ec 0c             	sub    $0xc,%esp
    2048:	53                   	push   %ebx
    2049:	e8 72 b2 00 00       	call   d2c0 <unlink@plt>
    204e:	83 c4 10             	add    $0x10,%esp
    2051:	85 c0                	test   %eax,%eax
    2053:	0f 84 9c fe ff ff    	je     1ef5 <cmd_rm+0x295>
    2059:	50                   	push   %eax
    205a:	53                   	push   %ebx
    205b:	68 38 ad 00 00       	push   $0xad38
    2060:	6a 01                	push   $0x1
    2062:	e8 c9 40 00 00       	call   6130 <cli_error>
    2067:	83 c4 10             	add    $0x10,%esp
    206a:	b8 01 00 00 00       	mov    $0x1,%eax
    206f:	e9 81 fe ff ff       	jmp    1ef5 <cmd_rm+0x295>
    2074:	8d 74 26 00          	lea    0x0(%esi,%eiz,1),%esi
    2078:	83 ec 0c             	sub    $0xc,%esp
    207b:	53                   	push   %ebx
    207c:	e8 8f b4 00 00       	call   d510 <free@plt>
    2081:	31 c0                	xor    %eax,%eax
    2083:	8b 55 d0             	mov    -0x30(%ebp),%edx
    2086:	83 c4 10             	add    $0x10,%esp
    2089:	85 d2                	test   %edx,%edx
    208b:	0f 95 c0             	setne  %al
    208e:	e9 32 ff ff ff       	jmp    1fc5 <cmd_rm+0x365>
    2093:	66 90                	xchg   %ax,%ax
    2095:	66 90                	xchg   %ax,%ax
    2097:	66 90                	xchg   %ax,%ax
    2099:	66 90                	xchg   %ax,%ax
    209b:	66 90                	xchg   %ax,%ax
    209d:	66 90                	xchg   %ax,%ax
    209f:	90                   	nop

000020a0 <paged_char.part.0>:
    20a0:	55                   	push   %ebp
    20a1:	89 e5                	mov    %esp,%ebp
    20a3:	53                   	push   %ebx
    20a4:	83 ec 40             	sub    $0x40,%esp
    20a7:	a1 40 f8 00 00       	mov    0xf840,%eax
    20ac:	50                   	push   %eax
    20ad:	e8 ae b0 00 00       	call   d160 <fflush@plt>
    20b2:	83 c4 0c             	add    $0xc,%esp
    20b5:	a1 b8 f8 00 00       	mov    0xf8b8,%eax
    20ba:	48                   	dec    %eax
    20bb:	50                   	push   %eax
    20bc:	a1 a8 f8 00 00       	mov    0xf8a8,%eax
    20c1:	6a 00                	push   $0x0
    20c3:	50                   	push   %eax
    20c4:	e8 37 b3 00 00       	call   d400 <console_set_pos@plt>
    20c9:	a1 a8 f8 00 00       	mov    0xf8a8,%eax
    20ce:	6a 00                	push   $0x0
    20d0:	6a 01                	push   $0x1
    20d2:	6a 07                	push   $0x7
    20d4:	50                   	push   %eax
    20d5:	e8 26 b0 00 00       	call   d100 <console_set_color@plt>
    20da:	83 c4 14             	add    $0x14,%esp
    20dd:	68 60 b0 00 00       	push   $0xb060
    20e2:	e8 09 af 00 00       	call   cff0 <printf@plt>
    20e7:	8b 15 40 f8 00 00    	mov    0xf840,%edx
    20ed:	58                   	pop    %eax
    20ee:	52                   	push   %edx
    20ef:	e8 6c b0 00 00       	call   d160 <fflush@plt>
    20f4:	a1 a8 f8 00 00       	mov    0xf8a8,%eax
    20f9:	59                   	pop    %ecx
    20fa:	5b                   	pop    %ebx
    20fb:	6a 00                	push   $0x0
    20fd:	50                   	push   %eax
    20fe:	8d 5d d4             	lea    -0x2c(%ebp),%ebx
    2101:	e8 0a b2 00 00       	call   d310 <console_set_style@plt>
    2106:	83 c4 10             	add    $0x10,%esp
    2109:	8d b4 26 00 00 00 00 	lea    0x0(%esi,%eiz,1),%esi
    2110:	50                   	push   %eax
    2111:	50                   	push   %eax
    2112:	a1 a8 f8 00 00       	mov    0xf8a8,%eax
    2117:	53                   	push   %ebx
    2118:	50                   	push   %eax
    2119:	e8 52 b0 00 00       	call   d170 <console_get_event@plt>
    211e:	83 c4 10             	add    $0x10,%esp
    2121:	84 c0                	test   %al,%al
    2123:	74 35                	je     215a <paged_char.part.0+0xba>
    2125:	8b 4d dc             	mov    -0x24(%ebp),%ecx
    2128:	85 c9                	test   %ecx,%ecx
    212a:	75 e4                	jne    2110 <paged_char.part.0+0x70>
    212c:	8b 55 e8             	mov    -0x18(%ebp),%edx
    212f:	85 d2                	test   %edx,%edx
    2131:	75 dd                	jne    2110 <paged_char.part.0+0x70>
    2133:	8b 45 ec             	mov    -0x14(%ebp),%eax
    2136:	83 f8 3c             	cmp    $0x3c,%eax
    2139:	74 4a                	je     2185 <paged_char.part.0+0xe5>
    213b:	83 f8 10             	cmp    $0x10,%eax
    213e:	74 45                	je     2185 <paged_char.part.0+0xe5>
    2140:	83 f8 2e             	cmp    $0x2e,%eax
    2143:	74 49                	je     218e <paged_char.part.0+0xee>
    2145:	83 f8 2a             	cmp    $0x2a,%eax
    2148:	0f 94 c1             	sete   %cl
    214b:	83 f8 39             	cmp    $0x39,%eax
    214e:	0f 94 c2             	sete   %dl
    2151:	08 d1                	or     %dl,%cl
    2153:	75 05                	jne    215a <paged_char.part.0+0xba>
    2155:	83 f8 53             	cmp    $0x53,%eax
    2158:	75 b6                	jne    2110 <paged_char.part.0+0x70>
    215a:	83 ec 0c             	sub    $0xc,%esp
    215d:	a1 a8 f8 00 00       	mov    0xf8a8,%eax
    2162:	50                   	push   %eax
    2163:	e8 08 b1 00 00       	call   d270 <console_clear@plt>
    2168:	a1 bc f8 00 00       	mov    0xf8bc,%eax
    216d:	83 c4 10             	add    $0x10,%esp
    2170:	a3 c4 f8 00 00       	mov    %eax,0xf8c4
    2175:	a1 b8 f8 00 00       	mov    0xf8b8,%eax
    217a:	48                   	dec    %eax
    217b:	8b 5d fc             	mov    -0x4(%ebp),%ebx
    217e:	a3 c0 f8 00 00       	mov    %eax,0xf8c0
    2183:	c9                   	leave  
    2184:	c3                   	ret    
    2185:	c6 05 b5 f8 00 00 01 	movb   $0x1,0xf8b5
    218c:	eb cc                	jmp    215a <paged_char.part.0+0xba>
    218e:	c6 05 c8 f8 00 00 00 	movb   $0x0,0xf8c8
    2195:	eb c3                	jmp    215a <paged_char.part.0+0xba>
    2197:	89 f6                	mov    %esi,%esi
    2199:	8d bc 27 00 00 00 00 	lea    0x0(%edi,%eiz,1),%edi

000021a0 <help_cmd_cat>:
    21a0:	55                   	push   %ebp
    21a1:	89 e5                	mov    %esp,%ebp
    21a3:	83 ec 08             	sub    $0x8,%esp
    21a6:	8b 45 08             	mov    0x8(%ebp),%eax
    21a9:	85 c0                	test   %eax,%eax
    21ab:	74 33                	je     21e0 <help_cmd_cat+0x40>
    21ad:	50                   	push   %eax
    21ae:	50                   	push   %eax
    21af:	68 7e 9f 00 00       	push   $0x9f7e
    21b4:	68 a8 b0 00 00       	push   $0xb0a8
    21b9:	e8 32 ae 00 00       	call   cff0 <printf@plt>
    21be:	83 c4 0c             	add    $0xc,%esp
    21c1:	68 7e 9f 00 00       	push   $0x9f7e
    21c6:	68 7e 9f 00 00       	push   $0x9f7e
    21cb:	68 cc b0 00 00       	push   $0xb0cc
    21d0:	e8 1b ae 00 00       	call   cff0 <printf@plt>
    21d5:	83 c4 10             	add    $0x10,%esp
    21d8:	c9                   	leave  
    21d9:	c3                   	ret    
    21da:	8d b6 00 00 00 00    	lea    0x0(%esi),%esi
    21e0:	52                   	push   %edx
    21e1:	52                   	push   %edx
    21e2:	68 7e 9f 00 00       	push   $0x9f7e
    21e7:	68 a8 b0 00 00       	push   $0xb0a8
    21ec:	e8 ff ad 00 00       	call   cff0 <printf@plt>
    21f1:	83 c4 10             	add    $0x10,%esp
    21f4:	c9                   	leave  
    21f5:	c3                   	ret    
    21f6:	8d 76 00             	lea    0x0(%esi),%esi
    21f9:	8d bc 27 00 00 00 00 	lea    0x0(%edi,%eiz,1),%edi

00002200 <cmd_cat>:
    2200:	55                   	push   %ebp
    2201:	89 e5                	mov    %esp,%ebp
    2203:	57                   	push   %edi
    2204:	56                   	push   %esi
    2205:	53                   	push   %ebx
    2206:	81 ec 84 00 00 00    	sub    $0x84,%esp
    220c:	c7 45 c4 00 00 00 00 	movl   $0x0,-0x3c(%ebp)
    2213:	a1 40 f8 00 00       	mov    0xf840,%eax
    2218:	8b 7d 08             	mov    0x8(%ebp),%edi
    221b:	50                   	push   %eax
    221c:	a1 50 f8 00 00       	mov    0xf850,%eax
    2221:	50                   	push   %eax
    2222:	c7 45 d8 00 00 00 00 	movl   $0x0,-0x28(%ebp)
    2229:	c7 45 dc 00 00 00 00 	movl   $0x0,-0x24(%ebp)
    2230:	c7 45 e0 00 00 00 00 	movl   $0x0,-0x20(%ebp)
    2237:	c7 45 e4 00 00 00 00 	movl   $0x0,-0x1c(%ebp)
    223e:	c6 05 c8 f8 00 00 00 	movb   $0x0,0xf8c8
    2245:	c7 05 c4 f8 00 00 00 	movl   $0x0,0xf8c4
    224c:	00 00 00 
    224f:	c7 05 c0 f8 00 00 00 	movl   $0x0,0xf8c0
    2256:	00 00 00 
    2259:	c7 05 bc f8 00 00 00 	movl   $0x0,0xf8bc
    2260:	00 00 00 
    2263:	c7 05 b8 f8 00 00 00 	movl   $0x0,0xf8b8
    226a:	00 00 00 
    226d:	c6 05 b5 f8 00 00 00 	movb   $0x0,0xf8b5
    2274:	e8 47 af 00 00       	call   d1c0 <console_init@plt>
    2279:	89 3c 24             	mov    %edi,(%esp)
    227c:	a3 a8 f8 00 00       	mov    %eax,0xf8a8
    2281:	c6 05 ad f8 00 00 00 	movb   $0x0,0xf8ad
    2288:	c7 05 b0 f8 00 00 00 	movl   $0x0,0xf8b0
    228f:	00 00 00 
    2292:	c6 05 ac f8 00 00 01 	movb   $0x1,0xf8ac
    2299:	e8 42 46 00 00       	call   68e0 <cli_count_args>
    229e:	8d 75 c8             	lea    -0x38(%ebp),%esi
    22a1:	89 c3                	mov    %eax,%ebx
    22a3:	c7 05 5c f8 00 00 01 	movl   $0x1,0xf85c
    22aa:	00 00 00 
    22ad:	c7 05 4c f8 00 00 00 	movl   $0x0,0xf84c
    22b4:	00 00 00 
    22b7:	c7 45 c8 00 00 00 00 	movl   $0x0,-0x38(%ebp)
    22be:	83 c4 10             	add    $0x10,%esp
    22c1:	c6 45 b5 00          	movb   $0x0,-0x4b(%ebp)
    22c5:	c6 45 b7 00          	movb   $0x0,-0x49(%ebp)
    22c9:	c6 45 b6 00          	movb   $0x0,-0x4a(%ebp)
    22cd:	83 ec 0c             	sub    $0xc,%esp
    22d0:	56                   	push   %esi
    22d1:	68 e0 b4 00 00       	push   $0xb4e0
    22d6:	68 25 b3 00 00       	push   $0xb325
    22db:	57                   	push   %edi
    22dc:	53                   	push   %ebx
    22dd:	e8 3e ad 00 00       	call   d020 <getopt_long@plt>
    22e2:	83 c4 20             	add    $0x20,%esp
    22e5:	8d 50 b8             	lea    -0x48(%eax),%edx
    22e8:	83 fa 30             	cmp    $0x30,%edx
    22eb:	0f 87 46 01 00 00    	ja     2437 <cmd_cat+0x237>
    22f1:	ff 24 95 00 b4 00 00 	jmp    *0xb400(,%edx,4)
    22f8:	c6 05 ad f8 00 00 01 	movb   $0x1,0xf8ad
    22ff:	eb cc                	jmp    22cd <cmd_cat+0xcd>
    2301:	c6 05 b4 f8 00 00 01 	movb   $0x1,0xf8b4
    2308:	eb c3                	jmp    22cd <cmd_cat+0xcd>
    230a:	c6 45 b7 01          	movb   $0x1,-0x49(%ebp)
    230e:	eb bd                	jmp    22cd <cmd_cat+0xcd>
    2310:	57                   	push   %edi
    2311:	57                   	push   %edi
    2312:	68 7e 9f 00 00       	push   $0x9f7e
    2317:	68 a8 b0 00 00       	push   $0xb0a8
    231c:	e8 cf ac 00 00       	call   cff0 <printf@plt>
    2321:	83 c4 0c             	add    $0xc,%esp
    2324:	68 7e 9f 00 00       	push   $0x9f7e
    2329:	68 7e 9f 00 00       	push   $0x9f7e
    232e:	68 cc b0 00 00       	push   $0xb0cc
    2333:	e8 b8 ac 00 00       	call   cff0 <printf@plt>
    2338:	83 c4 10             	add    $0x10,%esp
    233b:	31 c0                	xor    %eax,%eax
    233d:	8d 65 f4             	lea    -0xc(%ebp),%esp
    2340:	5b                   	pop    %ebx
    2341:	5e                   	pop    %esi
    2342:	5f                   	pop    %edi
    2343:	5d                   	pop    %ebp
    2344:	c3                   	ret    
    2345:	a1 48 f8 00 00       	mov    0xf848,%eax
    234a:	85 c0                	test   %eax,%eax
    234c:	74 1e                	je     236c <cmd_cat+0x16c>
    234e:	83 ec 0c             	sub    $0xc,%esp
    2351:	8d 4d c4             	lea    -0x3c(%ebp),%ecx
    2354:	51                   	push   %ecx
    2355:	6a 00                	push   $0x0
    2357:	6a 0a                	push   $0xa
    2359:	6a 00                	push   $0x0
    235b:	50                   	push   %eax
    235c:	e8 7f af 00 00       	call   d2e0 <str_size_t@plt>
    2361:	83 c4 20             	add    $0x20,%esp
    2364:	85 c0                	test   %eax,%eax
    2366:	0f 84 61 ff ff ff    	je     22cd <cmd_cat+0xcd>
    236c:	83 ec 0c             	sub    $0xc,%esp
    236f:	68 59 b3 00 00       	push   $0xb359
    2374:	e8 57 ad 00 00       	call   d0d0 <puts@plt>
    2379:	83 c4 10             	add    $0x10,%esp
    237c:	b8 01 00 00 00       	mov    $0x1,%eax
    2381:	eb ba                	jmp    233d <cmd_cat+0x13d>
    2383:	90                   	nop
    2384:	8d 74 26 00          	lea    0x0(%esi,%eiz,1),%esi
    2388:	a1 48 f8 00 00       	mov    0xf848,%eax
    238d:	85 c0                	test   %eax,%eax
    238f:	74 1e                	je     23af <cmd_cat+0x1af>
    2391:	83 ec 0c             	sub    $0xc,%esp
    2394:	8d 55 d8             	lea    -0x28(%ebp),%edx
    2397:	52                   	push   %edx
    2398:	6a 00                	push   $0x0
    239a:	6a 0a                	push   $0xa
    239c:	6a 00                	push   $0x0
    239e:	50                   	push   %eax
    239f:	e8 2c b0 00 00       	call   d3d0 <str_uint64_t@plt>
    23a4:	83 c4 20             	add    $0x20,%esp
    23a7:	85 c0                	test   %eax,%eax
    23a9:	0f 84 1e ff ff ff    	je     22cd <cmd_cat+0xcd>
    23af:	83 ec 0c             	sub    $0xc,%esp
    23b2:	68 33 b3 00 00       	push   $0xb333
    23b7:	e8 14 ad 00 00       	call   d0d0 <puts@plt>
    23bc:	83 c4 10             	add    $0x10,%esp
    23bf:	b8 01 00 00 00       	mov    $0x1,%eax
    23c4:	e9 74 ff ff ff       	jmp    233d <cmd_cat+0x13d>
    23c9:	8d b4 26 00 00 00 00 	lea    0x0(%esi,%eiz,1),%esi
    23d0:	c6 45 b6 01          	movb   $0x1,-0x4a(%ebp)
    23d4:	e9 f4 fe ff ff       	jmp    22cd <cmd_cat+0xcd>
    23d9:	56                   	push   %esi
    23da:	56                   	push   %esi
    23db:	68 2c a7 00 00       	push   $0xa72c
    23e0:	68 ac 9e 00 00       	push   $0x9eac
    23e5:	e8 06 ac 00 00       	call   cff0 <printf@plt>
    23ea:	83 c4 10             	add    $0x10,%esp
    23ed:	8d 65 f4             	lea    -0xc(%ebp),%esp
    23f0:	31 c0                	xor    %eax,%eax
    23f2:	5b                   	pop    %ebx
    23f3:	5e                   	pop    %esi
    23f4:	5f                   	pop    %edi
    23f5:	5d                   	pop    %ebp
    23f6:	c3                   	ret    
    23f7:	a1 48 f8 00 00       	mov    0xf848,%eax
    23fc:	85 c0                	test   %eax,%eax
    23fe:	0f 84 96 07 00 00    	je     2b9a <cmd_cat+0x99a>
    2404:	83 ec 0c             	sub    $0xc,%esp
    2407:	8d 4d e0             	lea    -0x20(%ebp),%ecx
    240a:	51                   	push   %ecx
    240b:	6a 00                	push   $0x0
    240d:	6a 0a                	push   $0xa
    240f:	6a 00                	push   $0x0
    2411:	50                   	push   %eax
    2412:	e8 b9 af 00 00       	call   d3d0 <str_uint64_t@plt>
    2417:	83 c4 20             	add    $0x20,%esp
    241a:	85 c0                	test   %eax,%eax
    241c:	0f 85 78 07 00 00    	jne    2b9a <cmd_cat+0x99a>
    2422:	8b 45 dc             	mov    -0x24(%ebp),%eax
    2425:	0b 45 d8             	or     -0x28(%ebp),%eax
    2428:	0f 85 9f fe ff ff    	jne    22cd <cmd_cat+0xcd>
    242e:	c6 45 b5 01          	movb   $0x1,-0x4b(%ebp)
    2432:	e9 96 fe ff ff       	jmp    22cd <cmd_cat+0xcd>
    2437:	40                   	inc    %eax
    2438:	0f 85 8f fe ff ff    	jne    22cd <cmd_cat+0xcd>
    243e:	a1 4c f8 00 00       	mov    0xf84c,%eax
    2443:	39 c3                	cmp    %eax,%ebx
    2445:	0f 84 a1 06 00 00    	je     2aec <cmd_cat+0x8ec>
    244b:	83 7d c4 03          	cmpl   $0x3,-0x3c(%ebp)
    244f:	77 07                	ja     2458 <cmd_cat+0x258>
    2451:	c7 45 c4 00 04 00 00 	movl   $0x400,-0x3c(%ebp)
    2458:	80 7d b7 00          	cmpb   $0x0,-0x49(%ebp)
    245c:	0f 85 d5 06 00 00    	jne    2b37 <cmd_cat+0x937>
    2462:	8d 04 87             	lea    (%edi,%eax,4),%eax
    2465:	8b 38                	mov    (%eax),%edi
    2467:	89 7d 84             	mov    %edi,-0x7c(%ebp)
    246a:	85 ff                	test   %edi,%edi
    246c:	0f 84 60 07 00 00    	je     2bd2 <cmd_cat+0x9d2>
    2472:	80 3d b5 f8 00 00 00 	cmpb   $0x0,0xf8b5
    2479:	0f 85 53 07 00 00    	jne    2bd2 <cmd_cat+0x9d2>
    247f:	89 45 80             	mov    %eax,-0x80(%ebp)
    2482:	c7 85 7c ff ff ff 00 	movl   $0x0,-0x84(%ebp)
    2489:	00 00 00 
    248c:	8b 45 d8             	mov    -0x28(%ebp),%eax
    248f:	8b 55 dc             	mov    -0x24(%ebp),%edx
    2492:	89 45 98             	mov    %eax,-0x68(%ebp)
    2495:	8b 45 c4             	mov    -0x3c(%ebp),%eax
    2498:	8b 75 e0             	mov    -0x20(%ebp),%esi
    249b:	8b 7d e4             	mov    -0x1c(%ebp),%edi
    249e:	89 55 9c             	mov    %edx,-0x64(%ebp)
    24a1:	89 45 8c             	mov    %eax,-0x74(%ebp)
    24a4:	c7 45 d4 00 00 00 00 	movl   $0x0,-0x2c(%ebp)
    24ab:	80 3d b4 f8 00 00 00 	cmpb   $0x0,0xf8b4
    24b2:	0f 85 27 05 00 00    	jne    29df <cmd_cat+0x7df>
    24b8:	50                   	push   %eax
    24b9:	50                   	push   %eax
    24ba:	8b 45 84             	mov    -0x7c(%ebp),%eax
    24bd:	6a 10                	push   $0x10
    24bf:	50                   	push   %eax
    24c0:	e8 db af 00 00       	call   d4a0 <open@plt>
    24c5:	89 45 90             	mov    %eax,-0x70(%ebp)
    24c8:	83 c4 10             	add    $0x10,%esp
    24cb:	8b 45 90             	mov    -0x70(%ebp),%eax
    24ce:	c7 45 a0 00 00 00 00 	movl   $0x0,-0x60(%ebp)
    24d5:	85 c0                	test   %eax,%eax
    24d7:	0f 88 4a 05 00 00    	js     2a27 <cmd_cat+0x827>
    24dd:	83 ec 0c             	sub    $0xc,%esp
    24e0:	8b 45 8c             	mov    -0x74(%ebp),%eax
    24e3:	40                   	inc    %eax
    24e4:	50                   	push   %eax
    24e5:	e8 f6 ab 00 00       	call   d0e0 <malloc@plt>
    24ea:	83 c4 10             	add    $0x10,%esp
    24ed:	89 45 a8             	mov    %eax,-0x58(%ebp)
    24f0:	85 c0                	test   %eax,%eax
    24f2:	0f 84 16 06 00 00    	je     2b0e <cmd_cat+0x90e>
    24f8:	89 fa                	mov    %edi,%edx
    24fa:	09 f2                	or     %esi,%edx
    24fc:	0f 85 42 05 00 00    	jne    2a44 <cmd_cat+0x844>
    2502:	8b 45 98             	mov    -0x68(%ebp),%eax
    2505:	8b 55 9c             	mov    -0x64(%ebp),%edx
    2508:	89 c7                	mov    %eax,%edi
    250a:	31 db                	xor    %ebx,%ebx
    250c:	09 d7                	or     %edx,%edi
    250e:	c7 45 ac 00 00 00 00 	movl   $0x0,-0x54(%ebp)
    2515:	89 7d 88             	mov    %edi,-0x78(%ebp)
    2518:	8b 45 a0             	mov    -0x60(%ebp),%eax
    251b:	85 c0                	test   %eax,%eax
    251d:	0f 85 0d 04 00 00    	jne    2930 <cmd_cat+0x730>
    2523:	8b 7d 9c             	mov    -0x64(%ebp),%edi
    2526:	8b 75 98             	mov    -0x68(%ebp),%esi
    2529:	89 fa                	mov    %edi,%edx
    252b:	8b 4d 8c             	mov    -0x74(%ebp),%ecx
    252e:	29 d9                	sub    %ebx,%ecx
    2530:	09 f2                	or     %esi,%edx
    2532:	74 21                	je     2555 <cmd_cat+0x355>
    2534:	8b 45 ac             	mov    -0x54(%ebp),%eax
    2537:	89 c2                	mov    %eax,%edx
    2539:	c1 fa 1f             	sar    $0x1f,%edx
    253c:	29 c6                	sub    %eax,%esi
    253e:	19 d7                	sbb    %edx,%edi
    2540:	89 f0                	mov    %esi,%eax
    2542:	83 ff 00             	cmp    $0x0,%edi
    2545:	7f 0e                	jg     2555 <cmd_cat+0x355>
    2547:	7c 04                	jl     254d <cmd_cat+0x34d>
    2549:	39 c8                	cmp    %ecx,%eax
    254b:	77 08                	ja     2555 <cmd_cat+0x355>
    254d:	8b 4d 98             	mov    -0x68(%ebp),%ecx
    2550:	8b 45 ac             	mov    -0x54(%ebp),%eax
    2553:	29 c1                	sub    %eax,%ecx
    2555:	52                   	push   %edx
    2556:	51                   	push   %ecx
    2557:	8b 4d a8             	mov    -0x58(%ebp),%ecx
    255a:	01 cb                	add    %ecx,%ebx
    255c:	53                   	push   %ebx
    255d:	8b 5d 90             	mov    -0x70(%ebp),%ebx
    2560:	53                   	push   %ebx
    2561:	e8 3a ad 00 00       	call   d2a0 <read@plt>
    2566:	83 c4 10             	add    $0x10,%esp
    2569:	89 c7                	mov    %eax,%edi
    256b:	85 c0                	test   %eax,%eax
    256d:	0f 8e ee 03 00 00    	jle    2961 <cmd_cat+0x761>
    2573:	8b 4d a8             	mov    -0x58(%ebp),%ecx
    2576:	c7 45 d4 00 00 00 00 	movl   $0x0,-0x2c(%ebp)
    257d:	89 cb                	mov    %ecx,%ebx
    257f:	8d 04 39             	lea    (%ecx,%edi,1),%eax
    2582:	89 45 b0             	mov    %eax,-0x50(%ebp)
    2585:	c6 00 00             	movb   $0x0,(%eax)
    2588:	b8 01 00 00 00       	mov    $0x1,%eax
    258d:	29 c8                	sub    %ecx,%eax
    258f:	89 45 a4             	mov    %eax,-0x5c(%ebp)
    2592:	e9 66 01 00 00       	jmp    26fd <cmd_cat+0x4fd>
    2597:	90                   	nop
    2598:	8a 03                	mov    (%ebx),%al
    259a:	c0 e8 04             	shr    $0x4,%al
    259d:	88 c1                	mov    %al,%cl
    259f:	31 c0                	xor    %eax,%eax
    25a1:	88 c8                	mov    %cl,%al
    25a3:	80 3d ac f8 00 00 00 	cmpb   $0x0,0xf8ac
    25aa:	0f be b0 9f b3 00 00 	movsbl 0xb39f(%eax),%esi
    25b1:	74 0d                	je     25c0 <cmd_cat+0x3c0>
    25b3:	80 3d ad f8 00 00 00 	cmpb   $0x0,0xf8ad
    25ba:	0f 85 80 02 00 00    	jne    2840 <cmd_cat+0x640>
    25c0:	83 ec 0c             	sub    $0xc,%esp
    25c3:	56                   	push   %esi
    25c4:	e8 e7 a9 00 00       	call   cfb0 <putchar@plt>
    25c9:	83 c4 10             	add    $0x10,%esp
    25cc:	83 fe 0a             	cmp    $0xa,%esi
    25cf:	0f 94 c2             	sete   %dl
    25d2:	88 15 ac f8 00 00    	mov    %dl,0xf8ac
    25d8:	80 3d c8 f8 00 00 00 	cmpb   $0x0,0xf8c8
    25df:	74 2f                	je     2610 <cmd_cat+0x410>
    25e1:	a1 c4 f8 00 00       	mov    0xf8c4,%eax
    25e6:	48                   	dec    %eax
    25e7:	a3 c4 f8 00 00       	mov    %eax,0xf8c4
    25ec:	85 c0                	test   %eax,%eax
    25ee:	0f 84 c4 01 00 00    	je     27b8 <cmd_cat+0x5b8>
    25f4:	84 d2                	test   %dl,%dl
    25f6:	0f 85 bc 01 00 00    	jne    27b8 <cmd_cat+0x5b8>
    25fc:	a1 c0 f8 00 00       	mov    0xf8c0,%eax
    2601:	85 c0                	test   %eax,%eax
    2603:	75 0b                	jne    2610 <cmd_cat+0x410>
    2605:	e8 96 fa ff ff       	call   20a0 <paged_char.part.0>
    260a:	8a 15 ac f8 00 00    	mov    0xf8ac,%dl
    2610:	8a 03                	mov    (%ebx),%al
    2612:	83 e0 0f             	and    $0xf,%eax
    2615:	84 d2                	test   %dl,%dl
    2617:	0f be b0 9f b3 00 00 	movsbl 0xb39f(%eax),%esi
    261e:	74 0d                	je     262d <cmd_cat+0x42d>
    2620:	80 3d ad f8 00 00 00 	cmpb   $0x0,0xf8ad
    2627:	0f 85 cb 01 00 00    	jne    27f8 <cmd_cat+0x5f8>
    262d:	83 ec 0c             	sub    $0xc,%esp
    2630:	56                   	push   %esi
    2631:	e8 7a a9 00 00       	call   cfb0 <putchar@plt>
    2636:	83 c4 10             	add    $0x10,%esp
    2639:	83 fe 0a             	cmp    $0xa,%esi
    263c:	0f 94 c1             	sete   %cl
    263f:	88 0d ac f8 00 00    	mov    %cl,0xf8ac
    2645:	80 3d c8 f8 00 00 00 	cmpb   $0x0,0xf8c8
    264c:	74 2f                	je     267d <cmd_cat+0x47d>
    264e:	a1 c4 f8 00 00       	mov    0xf8c4,%eax
    2653:	48                   	dec    %eax
    2654:	a3 c4 f8 00 00       	mov    %eax,0xf8c4
    2659:	85 c0                	test   %eax,%eax
    265b:	0f 84 77 01 00 00    	je     27d8 <cmd_cat+0x5d8>
    2661:	84 c9                	test   %cl,%cl
    2663:	0f 85 6f 01 00 00    	jne    27d8 <cmd_cat+0x5d8>
    2669:	a1 c0 f8 00 00       	mov    0xf8c0,%eax
    266e:	85 c0                	test   %eax,%eax
    2670:	75 0b                	jne    267d <cmd_cat+0x47d>
    2672:	e8 29 fa ff ff       	call   20a0 <paged_char.part.0>
    2677:	8a 0d ac f8 00 00    	mov    0xf8ac,%cl
    267d:	8b 45 a4             	mov    -0x5c(%ebp),%eax
    2680:	8b 75 ac             	mov    -0x54(%ebp),%esi
    2683:	01 f0                	add    %esi,%eax
    2685:	ba 20 00 00 00       	mov    $0x20,%edx
    268a:	01 d8                	add    %ebx,%eax
    268c:	a8 0f                	test   $0xf,%al
    268e:	75 0b                	jne    269b <cmd_cat+0x49b>
    2690:	8a 45 b6             	mov    -0x4a(%ebp),%al
    2693:	ba 0a 00 00 00       	mov    $0xa,%edx
    2698:	88 45 b7             	mov    %al,-0x49(%ebp)
    269b:	84 c9                	test   %cl,%cl
    269d:	74 0d                	je     26ac <cmd_cat+0x4ac>
    269f:	80 3d ad f8 00 00 00 	cmpb   $0x0,0xf8ad
    26a6:	0f 85 6c 01 00 00    	jne    2818 <cmd_cat+0x618>
    26ac:	83 ec 0c             	sub    $0xc,%esp
    26af:	52                   	push   %edx
    26b0:	e8 fb a8 00 00       	call   cfb0 <putchar@plt>
    26b5:	8a 4d b7             	mov    -0x49(%ebp),%cl
    26b8:	83 c4 10             	add    $0x10,%esp
    26bb:	88 0d ac f8 00 00    	mov    %cl,0xf8ac
    26c1:	80 3d c8 f8 00 00 00 	cmpb   $0x0,0xf8c8
    26c8:	74 29                	je     26f3 <cmd_cat+0x4f3>
    26ca:	a1 c4 f8 00 00       	mov    0xf8c4,%eax
    26cf:	48                   	dec    %eax
    26d0:	a3 c4 f8 00 00       	mov    %eax,0xf8c4
    26d5:	85 c0                	test   %eax,%eax
    26d7:	0f 84 bb 00 00 00    	je     2798 <cmd_cat+0x598>
    26dd:	84 c9                	test   %cl,%cl
    26df:	0f 85 b3 00 00 00    	jne    2798 <cmd_cat+0x598>
    26e5:	a1 c0 f8 00 00       	mov    0xf8c0,%eax
    26ea:	85 c0                	test   %eax,%eax
    26ec:	75 05                	jne    26f3 <cmd_cat+0x4f3>
    26ee:	e8 ad f9 ff ff       	call   20a0 <paged_char.part.0>
    26f3:	43                   	inc    %ebx
    26f4:	3b 5d b0             	cmp    -0x50(%ebp),%ebx
    26f7:	0f 84 83 01 00 00    	je     2880 <cmd_cat+0x680>
    26fd:	a0 b5 f8 00 00       	mov    0xf8b5,%al
    2702:	88 45 b7             	mov    %al,-0x49(%ebp)
    2705:	84 c0                	test   %al,%al
    2707:	0f 85 73 01 00 00    	jne    2880 <cmd_cat+0x680>
    270d:	80 7d b6 00          	cmpb   $0x0,-0x4a(%ebp)
    2711:	0f 85 81 fe ff ff    	jne    2598 <cmd_cat+0x398>
    2717:	50                   	push   %eax
    2718:	8d 45 d4             	lea    -0x2c(%ebp),%eax
    271b:	57                   	push   %edi
    271c:	50                   	push   %eax
    271d:	8b 45 a8             	mov    -0x58(%ebp),%eax
    2720:	50                   	push   %eax
    2721:	e8 5a a9 00 00       	call   d080 <str_decode@plt>
    2726:	83 c4 10             	add    $0x10,%esp
    2729:	89 c6                	mov    %eax,%esi
    272b:	85 c0                	test   %eax,%eax
    272d:	0f 84 4d 01 00 00    	je     2880 <cmd_cat+0x680>
    2733:	83 f8 3f             	cmp    $0x3f,%eax
    2736:	75 0e                	jne    2746 <cmd_cat+0x546>
    2738:	8b 45 d4             	mov    -0x2c(%ebp),%eax
    273b:	8d 50 02             	lea    0x2(%eax),%edx
    273e:	39 d7                	cmp    %edx,%edi
    2740:	0f 86 58 02 00 00    	jbe    299e <cmd_cat+0x79e>
    2746:	80 3d ac f8 00 00 00 	cmpb   $0x0,0xf8ac
    274d:	74 0d                	je     275c <cmd_cat+0x55c>
    274f:	80 3d ad f8 00 00 00 	cmpb   $0x0,0xf8ad
    2756:	0f 85 04 01 00 00    	jne    2860 <cmd_cat+0x660>
    275c:	83 ec 0c             	sub    $0xc,%esp
    275f:	56                   	push   %esi
    2760:	e8 4b a8 00 00       	call   cfb0 <putchar@plt>
    2765:	83 c4 10             	add    $0x10,%esp
    2768:	83 fe 0a             	cmp    $0xa,%esi
    276b:	0f 94 c2             	sete   %dl
    276e:	88 15 ac f8 00 00    	mov    %dl,0xf8ac
    2774:	80 3d c8 f8 00 00 00 	cmpb   $0x0,0xf8c8
    277b:	0f 84 72 ff ff ff    	je     26f3 <cmd_cat+0x4f3>
    2781:	a1 c4 f8 00 00       	mov    0xf8c4,%eax
    2786:	48                   	dec    %eax
    2787:	a3 c4 f8 00 00       	mov    %eax,0xf8c4
    278c:	85 c0                	test   %eax,%eax
    278e:	74 08                	je     2798 <cmd_cat+0x598>
    2790:	84 d2                	test   %dl,%dl
    2792:	0f 84 4d ff ff ff    	je     26e5 <cmd_cat+0x4e5>
    2798:	a1 bc f8 00 00       	mov    0xf8bc,%eax
    279d:	a3 c4 f8 00 00       	mov    %eax,0xf8c4
    27a2:	a1 c0 f8 00 00       	mov    0xf8c0,%eax
    27a7:	48                   	dec    %eax
    27a8:	a3 c0 f8 00 00       	mov    %eax,0xf8c0
    27ad:	e9 38 ff ff ff       	jmp    26ea <cmd_cat+0x4ea>
    27b2:	8d b6 00 00 00 00    	lea    0x0(%esi),%esi
    27b8:	a1 bc f8 00 00       	mov    0xf8bc,%eax
    27bd:	a3 c4 f8 00 00       	mov    %eax,0xf8c4
    27c2:	a1 c0 f8 00 00       	mov    0xf8c0,%eax
    27c7:	48                   	dec    %eax
    27c8:	a3 c0 f8 00 00       	mov    %eax,0xf8c0
    27cd:	e9 2f fe ff ff       	jmp    2601 <cmd_cat+0x401>
    27d2:	8d b6 00 00 00 00    	lea    0x0(%esi),%esi
    27d8:	a1 bc f8 00 00       	mov    0xf8bc,%eax
    27dd:	a3 c4 f8 00 00       	mov    %eax,0xf8c4
    27e2:	a1 c0 f8 00 00       	mov    0xf8c0,%eax
    27e7:	48                   	dec    %eax
    27e8:	a3 c0 f8 00 00       	mov    %eax,0xf8c0
    27ed:	e9 7c fe ff ff       	jmp    266e <cmd_cat+0x46e>
    27f2:	8d b6 00 00 00 00    	lea    0x0(%esi),%esi
    27f8:	a1 b0 f8 00 00       	mov    0xf8b0,%eax
    27fd:	52                   	push   %edx
    27fe:	40                   	inc    %eax
    27ff:	52                   	push   %edx
    2800:	50                   	push   %eax
    2801:	68 b0 b3 00 00       	push   $0xb3b0
    2806:	a3 b0 f8 00 00       	mov    %eax,0xf8b0
    280b:	e8 e0 a7 00 00       	call   cff0 <printf@plt>
    2810:	83 c4 10             	add    $0x10,%esp
    2813:	e9 15 fe ff ff       	jmp    262d <cmd_cat+0x42d>
    2818:	a1 b0 f8 00 00       	mov    0xf8b0,%eax
    281d:	89 55 94             	mov    %edx,-0x6c(%ebp)
    2820:	40                   	inc    %eax
    2821:	52                   	push   %edx
    2822:	52                   	push   %edx
    2823:	50                   	push   %eax
    2824:	68 b0 b3 00 00       	push   $0xb3b0
    2829:	a3 b0 f8 00 00       	mov    %eax,0xf8b0
    282e:	e8 bd a7 00 00       	call   cff0 <printf@plt>
    2833:	83 c4 10             	add    $0x10,%esp
    2836:	8b 55 94             	mov    -0x6c(%ebp),%edx
    2839:	e9 6e fe ff ff       	jmp    26ac <cmd_cat+0x4ac>
    283e:	66 90                	xchg   %ax,%ax
    2840:	a1 b0 f8 00 00       	mov    0xf8b0,%eax
    2845:	51                   	push   %ecx
    2846:	40                   	inc    %eax
    2847:	51                   	push   %ecx
    2848:	50                   	push   %eax
    2849:	68 b0 b3 00 00       	push   $0xb3b0
    284e:	a3 b0 f8 00 00       	mov    %eax,0xf8b0
    2853:	e8 98 a7 00 00       	call   cff0 <printf@plt>
    2858:	83 c4 10             	add    $0x10,%esp
    285b:	e9 60 fd ff ff       	jmp    25c0 <cmd_cat+0x3c0>
    2860:	a1 b0 f8 00 00       	mov    0xf8b0,%eax
    2865:	51                   	push   %ecx
    2866:	40                   	inc    %eax
    2867:	51                   	push   %ecx
    2868:	50                   	push   %eax
    2869:	68 b0 b3 00 00       	push   $0xb3b0
    286e:	a3 b0 f8 00 00       	mov    %eax,0xf8b0
    2873:	e8 78 a7 00 00       	call   cff0 <printf@plt>
    2878:	83 c4 10             	add    $0x10,%esp
    287b:	e9 dc fe ff ff       	jmp    275c <cmd_cat+0x55c>
    2880:	8b 45 ac             	mov    -0x54(%ebp),%eax
    2883:	8b 55 a0             	mov    -0x60(%ebp),%edx
    2886:	01 f8                	add    %edi,%eax
    2888:	31 db                	xor    %ebx,%ebx
    288a:	89 45 ac             	mov    %eax,-0x54(%ebp)
    288d:	85 d2                	test   %edx,%edx
    288f:	0f 85 34 01 00 00    	jne    29c9 <cmd_cat+0x7c9>
    2895:	80 3d b5 f8 00 00 00 	cmpb   $0x0,0xf8b5
    289c:	75 2b                	jne    28c9 <cmd_cat+0x6c9>
    289e:	8b 45 ac             	mov    -0x54(%ebp),%eax
    28a1:	8b 7d 9c             	mov    -0x64(%ebp),%edi
    28a4:	89 c2                	mov    %eax,%edx
    28a6:	8b 75 98             	mov    -0x68(%ebp),%esi
    28a9:	c1 fa 1f             	sar    $0x1f,%edx
    28ac:	39 fa                	cmp    %edi,%edx
    28ae:	0f 8c 64 fc ff ff    	jl     2518 <cmd_cat+0x318>
    28b4:	7f 08                	jg     28be <cmd_cat+0x6be>
    28b6:	39 f0                	cmp    %esi,%eax
    28b8:	0f 82 5a fc ff ff    	jb     2518 <cmd_cat+0x318>
    28be:	8b 45 88             	mov    -0x78(%ebp),%eax
    28c1:	85 c0                	test   %eax,%eax
    28c3:	0f 84 4f fc ff ff    	je     2518 <cmd_cat+0x318>
    28c9:	83 ec 0c             	sub    $0xc,%esp
    28cc:	8b 7d 90             	mov    -0x70(%ebp),%edi
    28cf:	57                   	push   %edi
    28d0:	e8 2b ac 00 00       	call   d500 <close@plt>
    28d5:	83 c4 10             	add    $0x10,%esp
    28d8:	83 ec 0c             	sub    $0xc,%esp
    28db:	8b 75 a8             	mov    -0x58(%ebp),%esi
    28de:	56                   	push   %esi
    28df:	e8 2c ac 00 00       	call   d510 <free@plt>
    28e4:	83 c4 10             	add    $0x10,%esp
    28e7:	31 c0                	xor    %eax,%eax
    28e9:	8b 9d 7c ff ff ff    	mov    -0x84(%ebp),%ebx
    28ef:	01 c3                	add    %eax,%ebx
    28f1:	8b 45 80             	mov    -0x80(%ebp),%eax
    28f4:	89 9d 7c ff ff ff    	mov    %ebx,-0x84(%ebp)
    28fa:	8b 40 04             	mov    0x4(%eax),%eax
    28fd:	89 45 84             	mov    %eax,-0x7c(%ebp)
    2900:	85 c0                	test   %eax,%eax
    2902:	74 16                	je     291a <cmd_cat+0x71a>
    2904:	8b 4d 80             	mov    -0x80(%ebp),%ecx
    2907:	83 c1 04             	add    $0x4,%ecx
    290a:	89 4d 80             	mov    %ecx,-0x80(%ebp)
    290d:	80 3d b5 f8 00 00 00 	cmpb   $0x0,0xf8b5
    2914:	0f 84 72 fb ff ff    	je     248c <cmd_cat+0x28c>
    291a:	31 c0                	xor    %eax,%eax
    291c:	8b 95 7c ff ff ff    	mov    -0x84(%ebp),%edx
    2922:	85 d2                	test   %edx,%edx
    2924:	0f 95 c0             	setne  %al
    2927:	e9 11 fa ff ff       	jmp    233d <cmd_cat+0x13d>
    292c:	8d 74 26 00          	lea    0x0(%esi,%eiz,1),%esi
    2930:	8b 7d a8             	mov    -0x58(%ebp),%edi
    2933:	8b 45 90             	mov    -0x70(%ebp),%eax
    2936:	01 fb                	add    %edi,%ebx
    2938:	56                   	push   %esi
    2939:	6a 01                	push   $0x1
    293b:	53                   	push   %ebx
    293c:	50                   	push   %eax
    293d:	e8 5e a9 00 00       	call   d2a0 <read@plt>
    2942:	83 c4 10             	add    $0x10,%esp
    2945:	89 c7                	mov    %eax,%edi
    2947:	85 c0                	test   %eax,%eax
    2949:	0f 8f 24 fc ff ff    	jg     2573 <cmd_cat+0x373>
    294f:	83 ec 0c             	sub    $0xc,%esp
    2952:	8b 35 40 f8 00 00    	mov    0xf840,%esi
    2958:	56                   	push   %esi
    2959:	e8 02 a8 00 00       	call   d160 <fflush@plt>
    295e:	83 c4 10             	add    $0x10,%esp
    2961:	83 ec 0c             	sub    $0xc,%esp
    2964:	8b 45 90             	mov    -0x70(%ebp),%eax
    2967:	50                   	push   %eax
    2968:	e8 93 ab 00 00       	call   d500 <close@plt>
    296d:	83 c4 10             	add    $0x10,%esp
    2970:	47                   	inc    %edi
    2971:	0f 85 61 ff ff ff    	jne    28d8 <cmd_cat+0x6d8>
    2977:	8b 45 84             	mov    -0x7c(%ebp),%eax
    297a:	57                   	push   %edi
    297b:	57                   	push   %edi
    297c:	50                   	push   %eax
    297d:	68 b6 b3 00 00       	push   $0xb3b6
    2982:	e8 69 a6 00 00       	call   cff0 <printf@plt>
    2987:	58                   	pop    %eax
    2988:	8b 45 a8             	mov    -0x58(%ebp),%eax
    298b:	50                   	push   %eax
    298c:	e8 7f ab 00 00       	call   d510 <free@plt>
    2991:	83 c4 10             	add    $0x10,%esp
    2994:	b8 01 00 00 00       	mov    $0x1,%eax
    2999:	e9 4b ff ff ff       	jmp    28e9 <cmd_cat+0x6e9>
    299e:	8b 4d a8             	mov    -0x58(%ebp),%ecx
    29a1:	8d 5f 01             	lea    0x1(%edi),%ebx
    29a4:	29 c3                	sub    %eax,%ebx
    29a6:	56                   	push   %esi
    29a7:	8d 44 01 ff          	lea    -0x1(%ecx,%eax,1),%eax
    29ab:	53                   	push   %ebx
    29ac:	50                   	push   %eax
    29ad:	51                   	push   %ecx
    29ae:	e8 0d a7 00 00       	call   d0c0 <memcpy@plt>
    29b3:	8b 45 ac             	mov    -0x54(%ebp),%eax
    29b6:	01 f8                	add    %edi,%eax
    29b8:	8b 55 a0             	mov    -0x60(%ebp),%edx
    29bb:	83 c4 10             	add    $0x10,%esp
    29be:	89 45 ac             	mov    %eax,-0x54(%ebp)
    29c1:	85 d2                	test   %edx,%edx
    29c3:	0f 84 cc fe ff ff    	je     2895 <cmd_cat+0x695>
    29c9:	83 ec 0c             	sub    $0xc,%esp
    29cc:	a1 40 f8 00 00       	mov    0xf840,%eax
    29d1:	50                   	push   %eax
    29d2:	e8 89 a7 00 00       	call   d160 <fflush@plt>
    29d7:	83 c4 10             	add    $0x10,%esp
    29da:	e9 b6 fe ff ff       	jmp    2895 <cmd_cat+0x695>
    29df:	50                   	push   %eax
    29e0:	50                   	push   %eax
    29e1:	8b 45 84             	mov    -0x7c(%ebp),%eax
    29e4:	68 c2 c5 00 00       	push   $0xc5c2
    29e9:	50                   	push   %eax
    29ea:	e8 11 a9 00 00       	call   d300 <str_cmp@plt>
    29ef:	83 c4 10             	add    $0x10,%esp
    29f2:	85 c0                	test   %eax,%eax
    29f4:	0f 85 be fa ff ff    	jne    24b8 <cmd_cat+0x2b8>
    29fa:	83 ec 0c             	sub    $0xc,%esp
    29fd:	a1 50 f8 00 00       	mov    0xf850,%eax
    2a02:	50                   	push   %eax
    2a03:	e8 58 aa 00 00       	call   d460 <fileno@plt>
    2a08:	89 45 90             	mov    %eax,-0x70(%ebp)
    2a0b:	83 c4 10             	add    $0x10,%esp
    2a0e:	8b 45 90             	mov    -0x70(%ebp),%eax
    2a11:	c7 45 a0 01 00 00 00 	movl   $0x1,-0x60(%ebp)
    2a18:	c7 45 8c 04 00 00 00 	movl   $0x4,-0x74(%ebp)
    2a1f:	85 c0                	test   %eax,%eax
    2a21:	0f 89 b6 fa ff ff    	jns    24dd <cmd_cat+0x2dd>
    2a27:	8b 45 84             	mov    -0x7c(%ebp),%eax
    2a2a:	57                   	push   %edi
    2a2b:	57                   	push   %edi
    2a2c:	50                   	push   %eax
    2a2d:	68 8c b3 00 00       	push   $0xb38c
    2a32:	e8 b9 a5 00 00       	call   cff0 <printf@plt>
    2a37:	83 c4 10             	add    $0x10,%esp
    2a3a:	b8 01 00 00 00       	mov    $0x1,%eax
    2a3f:	e9 a5 fe ff ff       	jmp    28e9 <cmd_cat+0x6e9>
    2a44:	8b 45 90             	mov    -0x70(%ebp),%eax
    2a47:	6a 02                	push   $0x2
    2a49:	6a 00                	push   $0x0
    2a4b:	6a 00                	push   $0x0
    2a4d:	50                   	push   %eax
    2a4e:	e8 2d a7 00 00       	call   d180 <lseek@plt>
    2a53:	8b 4d 98             	mov    -0x68(%ebp),%ecx
    2a56:	8b 5d 9c             	mov    -0x64(%ebp),%ebx
    2a59:	83 c4 10             	add    $0x10,%esp
    2a5c:	09 cb                	or     %ecx,%ebx
    2a5e:	74 4b                	je     2aab <cmd_cat+0x8ab>
    2a60:	80 7d b5 00          	cmpb   $0x0,-0x4b(%ebp)
    2a64:	75 57                	jne    2abd <cmd_cat+0x8bd>
    2a66:	8b 5d 9c             	mov    -0x64(%ebp),%ebx
    2a69:	8b 4d 98             	mov    -0x68(%ebp),%ecx
    2a6c:	39 df                	cmp    %ebx,%edi
    2a6e:	7c 0c                	jl     2a7c <cmd_cat+0x87c>
    2a70:	7f 04                	jg     2a76 <cmd_cat+0x876>
    2a72:	39 ce                	cmp    %ecx,%esi
    2a74:	76 06                	jbe    2a7c <cmd_cat+0x87c>
    2a76:	8b 75 98             	mov    -0x68(%ebp),%esi
    2a79:	8b 7d 9c             	mov    -0x64(%ebp),%edi
    2a7c:	8b 4d 98             	mov    -0x68(%ebp),%ecx
    2a7f:	8b 5d 9c             	mov    -0x64(%ebp),%ebx
    2a82:	29 f1                	sub    %esi,%ecx
    2a84:	19 fb                	sbb    %edi,%ebx
    2a86:	39 da                	cmp    %ebx,%edx
    2a88:	7f 06                	jg     2a90 <cmd_cat+0x890>
    2a8a:	7d 5a                	jge    2ae6 <cmd_cat+0x8e6>
    2a8c:	31 c9                	xor    %ecx,%ecx
    2a8e:	31 db                	xor    %ebx,%ebx
    2a90:	8b 45 90             	mov    -0x70(%ebp),%eax
    2a93:	6a 00                	push   $0x0
    2a95:	53                   	push   %ebx
    2a96:	51                   	push   %ecx
    2a97:	50                   	push   %eax
    2a98:	e8 e3 a6 00 00       	call   d180 <lseek@plt>
    2a9d:	83 c4 10             	add    $0x10,%esp
    2aa0:	89 75 98             	mov    %esi,-0x68(%ebp)
    2aa3:	89 7d 9c             	mov    %edi,-0x64(%ebp)
    2aa6:	e9 57 fa ff ff       	jmp    2502 <cmd_cat+0x302>
    2aab:	89 45 98             	mov    %eax,-0x68(%ebp)
    2aae:	89 55 9c             	mov    %edx,-0x64(%ebp)
    2ab1:	80 7d b5 00          	cmpb   $0x0,-0x4b(%ebp)
    2ab5:	74 c5                	je     2a7c <cmd_cat+0x87c>
    2ab7:	89 75 98             	mov    %esi,-0x68(%ebp)
    2aba:	89 7d 9c             	mov    %edi,-0x64(%ebp)
    2abd:	39 d7                	cmp    %edx,%edi
    2abf:	7f 0c                	jg     2acd <cmd_cat+0x8cd>
    2ac1:	7d 06                	jge    2ac9 <cmd_cat+0x8c9>
    2ac3:	29 f0                	sub    %esi,%eax
    2ac5:	19 fa                	sbb    %edi,%edx
    2ac7:	eb 08                	jmp    2ad1 <cmd_cat+0x8d1>
    2ac9:	39 c6                	cmp    %eax,%esi
    2acb:	72 f6                	jb     2ac3 <cmd_cat+0x8c3>
    2acd:	31 c0                	xor    %eax,%eax
    2acf:	31 d2                	xor    %edx,%edx
    2ad1:	6a 00                	push   $0x0
    2ad3:	52                   	push   %edx
    2ad4:	50                   	push   %eax
    2ad5:	8b 45 90             	mov    -0x70(%ebp),%eax
    2ad8:	50                   	push   %eax
    2ad9:	e8 a2 a6 00 00       	call   d180 <lseek@plt>
    2ade:	83 c4 10             	add    $0x10,%esp
    2ae1:	e9 1c fa ff ff       	jmp    2502 <cmd_cat+0x302>
    2ae6:	39 c8                	cmp    %ecx,%eax
    2ae8:	77 a6                	ja     2a90 <cmd_cat+0x890>
    2aea:	eb a0                	jmp    2a8c <cmd_cat+0x88c>
    2aec:	53                   	push   %ebx
    2aed:	68 7e 9f 00 00       	push   $0x9f7e
    2af2:	68 7e 9f 00 00       	push   $0x9f7e
    2af7:	68 6c a9 00 00       	push   $0xa96c
    2afc:	e8 ef a4 00 00       	call   cff0 <printf@plt>
    2b01:	83 c4 10             	add    $0x10,%esp
    2b04:	b8 01 00 00 00       	mov    $0x1,%eax
    2b09:	e9 2f f8 ff ff       	jmp    233d <cmd_cat+0x13d>
    2b0e:	83 ec 0c             	sub    $0xc,%esp
    2b11:	8b 55 90             	mov    -0x70(%ebp),%edx
    2b14:	52                   	push   %edx
    2b15:	e8 e6 a9 00 00       	call   d500 <close@plt>
    2b1a:	8b 75 84             	mov    -0x7c(%ebp),%esi
    2b1d:	59                   	pop    %ecx
    2b1e:	5b                   	pop    %ebx
    2b1f:	56                   	push   %esi
    2b20:	68 f8 b2 00 00       	push   $0xb2f8
    2b25:	e8 c6 a4 00 00       	call   cff0 <printf@plt>
    2b2a:	83 c4 10             	add    $0x10,%esp
    2b2d:	b8 01 00 00 00       	mov    $0x1,%eax
    2b32:	e9 b2 fd ff ff       	jmp    28e9 <cmd_cat+0x6e9>
    2b37:	8d 45 cc             	lea    -0x34(%ebp),%eax
    2b3a:	8b 0d a8 f8 00 00    	mov    0xf8a8,%ecx
    2b40:	52                   	push   %edx
    2b41:	50                   	push   %eax
    2b42:	8d 45 d0             	lea    -0x30(%ebp),%eax
    2b45:	50                   	push   %eax
    2b46:	51                   	push   %ecx
    2b47:	e8 54 a4 00 00       	call   cfa0 <console_get_size@plt>
    2b4c:	83 c4 10             	add    $0x10,%esp
    2b4f:	85 c0                	test   %eax,%eax
    2b51:	75 61                	jne    2bb4 <cmd_cat+0x9b4>
    2b53:	8b 45 d0             	mov    -0x30(%ebp),%eax
    2b56:	83 ec 0c             	sub    $0xc,%esp
    2b59:	a3 bc f8 00 00       	mov    %eax,0xf8bc
    2b5e:	8b 45 cc             	mov    -0x34(%ebp),%eax
    2b61:	a3 b8 f8 00 00       	mov    %eax,0xf8b8
    2b66:	a1 a8 f8 00 00       	mov    0xf8a8,%eax
    2b6b:	50                   	push   %eax
    2b6c:	c6 05 c8 f8 00 00 01 	movb   $0x1,0xf8c8
    2b73:	e8 f8 a6 00 00       	call   d270 <console_clear@plt>
    2b78:	a1 bc f8 00 00       	mov    0xf8bc,%eax
    2b7d:	a3 c4 f8 00 00       	mov    %eax,0xf8c4
    2b82:	a1 b8 f8 00 00       	mov    0xf8b8,%eax
    2b87:	48                   	dec    %eax
    2b88:	83 c4 10             	add    $0x10,%esp
    2b8b:	a3 c0 f8 00 00       	mov    %eax,0xf8c0
    2b90:	a1 4c f8 00 00       	mov    0xf84c,%eax
    2b95:	e9 c8 f8 ff ff       	jmp    2462 <cmd_cat+0x262>
    2b9a:	83 ec 0c             	sub    $0xc,%esp
    2b9d:	68 46 b3 00 00       	push   $0xb346
    2ba2:	e8 29 a5 00 00       	call   d0d0 <puts@plt>
    2ba7:	83 c4 10             	add    $0x10,%esp
    2baa:	b8 01 00 00 00       	mov    $0x1,%eax
    2baf:	e9 89 f7 ff ff       	jmp    233d <cmd_cat+0x13d>
    2bb4:	50                   	push   %eax
    2bb5:	50                   	push   %eax
    2bb6:	68 7e 9f 00 00       	push   $0x9f7e
    2bbb:	68 6e b3 00 00       	push   $0xb36e
    2bc0:	e8 2b a4 00 00       	call   cff0 <printf@plt>
    2bc5:	83 c4 10             	add    $0x10,%esp
    2bc8:	b8 01 00 00 00       	mov    $0x1,%eax
    2bcd:	e9 6b f7 ff ff       	jmp    233d <cmd_cat+0x13d>
    2bd2:	31 c0                	xor    %eax,%eax
    2bd4:	e9 64 f7 ff ff       	jmp    233d <cmd_cat+0x13d>
    2bd9:	66 90                	xchg   %ax,%ax
    2bdb:	66 90                	xchg   %ax,%ax
    2bdd:	66 90                	xchg   %ax,%ax
    2bdf:	90                   	nop

00002be0 <help_cmd_touch>:
    2be0:	55                   	push   %ebp
    2be1:	89 e5                	mov    %esp,%ebp
    2be3:	83 ec 08             	sub    $0x8,%esp
    2be6:	8b 45 08             	mov    0x8(%ebp),%eax
    2be9:	85 c0                	test   %eax,%eax
    2beb:	74 2b                	je     2c18 <help_cmd_touch+0x38>
    2bed:	50                   	push   %eax
    2bee:	50                   	push   %eax
    2bef:	68 9e 9f 00 00       	push   $0x9f9e
    2bf4:	68 a0 b5 00 00       	push   $0xb5a0
    2bf9:	e8 f2 a3 00 00       	call   cff0 <printf@plt>
    2bfe:	5a                   	pop    %edx
    2bff:	59                   	pop    %ecx
    2c00:	68 9e 9f 00 00       	push   $0x9f9e
    2c05:	68 c4 b5 00 00       	push   $0xb5c4
    2c0a:	e8 e1 a3 00 00       	call   cff0 <printf@plt>
    2c0f:	83 c4 10             	add    $0x10,%esp
    2c12:	c9                   	leave  
    2c13:	c3                   	ret    
    2c14:	8d 74 26 00          	lea    0x0(%esi,%eiz,1),%esi
    2c18:	50                   	push   %eax
    2c19:	50                   	push   %eax
    2c1a:	68 9e 9f 00 00       	push   $0x9f9e
    2c1f:	68 a0 b5 00 00       	push   $0xb5a0
    2c24:	e8 c7 a3 00 00       	call   cff0 <printf@plt>
    2c29:	83 c4 10             	add    $0x10,%esp
    2c2c:	c9                   	leave  
    2c2d:	c3                   	ret    
    2c2e:	66 90                	xchg   %ax,%ax

00002c30 <cmd_touch>:
    2c30:	55                   	push   %ebp
    2c31:	89 e5                	mov    %esp,%ebp
    2c33:	57                   	push   %edi
    2c34:	56                   	push   %esi
    2c35:	53                   	push   %ebx
    2c36:	83 ec 58             	sub    $0x58,%esp
    2c39:	8d 7d c4             	lea    -0x3c(%ebp),%edi
    2c3c:	8b 5d 08             	mov    0x8(%ebp),%ebx
    2c3f:	53                   	push   %ebx
    2c40:	e8 9b 3c 00 00       	call   68e0 <cli_count_args>
    2c45:	c7 05 5c f8 00 00 01 	movl   $0x1,0xf85c
    2c4c:	00 00 00 
    2c4f:	89 c6                	mov    %eax,%esi
    2c51:	c7 05 4c f8 00 00 00 	movl   $0x0,0xf84c
    2c58:	00 00 00 
    2c5b:	c7 45 c4 00 00 00 00 	movl   $0x0,-0x3c(%ebp)
    2c62:	83 c4 10             	add    $0x10,%esp
    2c65:	c6 45 b3 00          	movb   $0x0,-0x4d(%ebp)
    2c69:	8d b4 26 00 00 00 00 	lea    0x0(%esi,%eiz,1),%esi
    2c70:	83 ec 0c             	sub    $0xc,%esp
    2c73:	57                   	push   %edi
    2c74:	68 e0 b6 00 00       	push   $0xb6e0
    2c79:	68 22 c7 00 00       	push   $0xc722
    2c7e:	53                   	push   %ebx
    2c7f:	56                   	push   %esi
    2c80:	e8 9b a3 00 00       	call   d020 <getopt_long@plt>
    2c85:	83 c4 20             	add    $0x20,%esp
    2c88:	83 f8 63             	cmp    $0x63,%eax
    2c8b:	0f 84 cf 00 00 00    	je     2d60 <cmd_touch+0x130>
    2c91:	40                   	inc    %eax
    2c92:	75 dc                	jne    2c70 <cmd_touch+0x40>
    2c94:	a1 4c f8 00 00       	mov    0xf84c,%eax
    2c99:	39 c6                	cmp    %eax,%esi
    2c9b:	0f 84 16 01 00 00    	je     2db7 <cmd_touch+0x187>
    2ca1:	8d 1c 83             	lea    (%ebx,%eax,4),%ebx
    2ca4:	31 f6                	xor    %esi,%esi
    2ca6:	8b 03                	mov    (%ebx),%eax
    2ca8:	85 c0                	test   %eax,%eax
    2caa:	75 3a                	jne    2ce6 <cmd_touch+0xb6>
    2cac:	e9 a6 00 00 00       	jmp    2d57 <cmd_touch+0x127>
    2cb1:	8d b4 26 00 00 00 00 	lea    0x0(%esi,%eiz,1),%esi
    2cb8:	50                   	push   %eax
    2cb9:	57                   	push   %edi
    2cba:	68 80 b5 00 00       	push   $0xb580
    2cbf:	6a 06                	push   $0x6
    2cc1:	e8 6a 34 00 00       	call   6130 <cli_error>
    2cc6:	8b 45 b4             	mov    -0x4c(%ebp),%eax
    2cc9:	89 04 24             	mov    %eax,(%esp)
    2ccc:	46                   	inc    %esi
    2ccd:	e8 0e a8 00 00       	call   d4e0 <closedir@plt>
    2cd2:	89 3c 24             	mov    %edi,(%esp)
    2cd5:	e8 36 a8 00 00       	call   d510 <free@plt>
    2cda:	83 c4 10             	add    $0x10,%esp
    2cdd:	83 c3 04             	add    $0x4,%ebx
    2ce0:	8b 03                	mov    (%ebx),%eax
    2ce2:	85 c0                	test   %eax,%eax
    2ce4:	74 6a                	je     2d50 <cmd_touch+0x120>
    2ce6:	83 ec 0c             	sub    $0xc,%esp
    2ce9:	50                   	push   %eax
    2cea:	e8 91 a5 00 00       	call   d280 <str_dup@plt>
    2cef:	83 c4 10             	add    $0x10,%esp
    2cf2:	89 c7                	mov    %eax,%edi
    2cf4:	85 c0                	test   %eax,%eax
    2cf6:	0f 84 a4 00 00 00    	je     2da0 <cmd_touch+0x170>
    2cfc:	83 ec 0c             	sub    $0xc,%esp
    2cff:	50                   	push   %eax
    2d00:	e8 5b a6 00 00       	call   d360 <opendir@plt>
    2d05:	83 c4 10             	add    $0x10,%esp
    2d08:	89 45 b4             	mov    %eax,-0x4c(%ebp)
    2d0b:	85 c0                	test   %eax,%eax
    2d0d:	75 a9                	jne    2cb8 <cmd_touch+0x88>
    2d0f:	80 7d b3 00          	cmpb   $0x0,-0x4d(%ebp)
    2d13:	74 5b                	je     2d70 <cmd_touch+0x140>
    2d15:	8d 45 c8             	lea    -0x38(%ebp),%eax
    2d18:	52                   	push   %edx
    2d19:	52                   	push   %edx
    2d1a:	50                   	push   %eax
    2d1b:	57                   	push   %edi
    2d1c:	e8 ef a6 00 00       	call   d410 <stat@plt>
    2d21:	83 c4 10             	add    $0x10,%esp
    2d24:	85 c0                	test   %eax,%eax
    2d26:	74 48                	je     2d70 <cmd_touch+0x140>
    2d28:	83 c3 04             	add    $0x4,%ebx
    2d2b:	50                   	push   %eax
    2d2c:	57                   	push   %edi
    2d2d:	68 bc b6 00 00       	push   $0xb6bc
    2d32:	6a 01                	push   $0x1
    2d34:	e8 f7 33 00 00       	call   6130 <cli_error>
    2d39:	89 3c 24             	mov    %edi,(%esp)
    2d3c:	e8 cf a7 00 00       	call   d510 <free@plt>
    2d41:	8b 03                	mov    (%ebx),%eax
    2d43:	46                   	inc    %esi
    2d44:	83 c4 10             	add    $0x10,%esp
    2d47:	85 c0                	test   %eax,%eax
    2d49:	75 9b                	jne    2ce6 <cmd_touch+0xb6>
    2d4b:	90                   	nop
    2d4c:	8d 74 26 00          	lea    0x0(%esi,%eiz,1),%esi
    2d50:	31 c0                	xor    %eax,%eax
    2d52:	85 f6                	test   %esi,%esi
    2d54:	0f 95 c0             	setne  %al
    2d57:	8d 65 f4             	lea    -0xc(%ebp),%esp
    2d5a:	5b                   	pop    %ebx
    2d5b:	5e                   	pop    %esi
    2d5c:	5f                   	pop    %edi
    2d5d:	5d                   	pop    %ebp
    2d5e:	c3                   	ret    
    2d5f:	90                   	nop
    2d60:	c6 45 b3 01          	movb   $0x1,-0x4d(%ebp)
    2d64:	e9 07 ff ff ff       	jmp    2c70 <cmd_touch+0x40>
    2d69:	8d b4 26 00 00 00 00 	lea    0x0(%esi,%eiz,1),%esi
    2d70:	51                   	push   %ecx
    2d71:	51                   	push   %ecx
    2d72:	6a 21                	push   $0x21
    2d74:	57                   	push   %edi
    2d75:	e8 26 a7 00 00       	call   d4a0 <open@plt>
    2d7a:	83 c4 10             	add    $0x10,%esp
    2d7d:	85 c0                	test   %eax,%eax
    2d7f:	78 a7                	js     2d28 <cmd_touch+0xf8>
    2d81:	83 ec 0c             	sub    $0xc,%esp
    2d84:	50                   	push   %eax
    2d85:	e8 76 a7 00 00       	call   d500 <close@plt>
    2d8a:	89 3c 24             	mov    %edi,(%esp)
    2d8d:	e8 7e a7 00 00       	call   d510 <free@plt>
    2d92:	83 c4 10             	add    $0x10,%esp
    2d95:	e9 43 ff ff ff       	jmp    2cdd <cmd_touch+0xad>
    2d9a:	8d b6 00 00 00 00    	lea    0x0(%esi),%esi
    2da0:	50                   	push   %eax
    2da1:	50                   	push   %eax
    2da2:	68 8e b7 00 00       	push   $0xb78e
    2da7:	6a 04                	push   $0x4
    2da9:	46                   	inc    %esi
    2daa:	e8 81 33 00 00       	call   6130 <cli_error>
    2daf:	83 c4 10             	add    $0x10,%esp
    2db2:	e9 26 ff ff ff       	jmp    2cdd <cmd_touch+0xad>
    2db7:	50                   	push   %eax
    2db8:	68 9e 9f 00 00       	push   $0x9f9e
    2dbd:	68 9e 9f 00 00       	push   $0x9f9e
    2dc2:	68 80 b6 00 00       	push   $0xb680
    2dc7:	e8 24 a2 00 00       	call   cff0 <printf@plt>
    2dcc:	83 c4 10             	add    $0x10,%esp
    2dcf:	b8 01 00 00 00       	mov    $0x1,%eax
    2dd4:	eb 81                	jmp    2d57 <cmd_touch+0x127>
    2dd6:	66 90                	xchg   %ax,%ax
    2dd8:	66 90                	xchg   %ax,%ax
    2dda:	66 90                	xchg   %ax,%ax
    2ddc:	66 90                	xchg   %ax,%ax
    2dde:	66 90                	xchg   %ax,%ax

00002de0 <ls_cmp>:
    2de0:	55                   	push   %ebp
    2de1:	89 e5                	mov    %esp,%ebp
    2de3:	83 ec 08             	sub    $0x8,%esp
    2de6:	8b 4d 08             	mov    0x8(%ebp),%ecx
    2de9:	8b 55 0c             	mov    0xc(%ebp),%edx
    2dec:	8a 41 15             	mov    0x15(%ecx),%al
    2def:	84 c0                	test   %al,%al
    2df1:	74 06                	je     2df9 <ls_cmp+0x19>
    2df3:	80 7a 14 00          	cmpb   $0x0,0x14(%edx)
    2df7:	75 23                	jne    2e1c <ls_cmp+0x3c>
    2df9:	3a 42 15             	cmp    0x15(%edx),%al
    2dfc:	74 0a                	je     2e08 <ls_cmp+0x28>
    2dfe:	b8 01 00 00 00       	mov    $0x1,%eax
    2e03:	c9                   	leave  
    2e04:	c3                   	ret    
    2e05:	8d 76 00             	lea    0x0(%esi),%esi
    2e08:	50                   	push   %eax
    2e09:	50                   	push   %eax
    2e0a:	8b 12                	mov    (%edx),%edx
    2e0c:	52                   	push   %edx
    2e0d:	8b 09                	mov    (%ecx),%ecx
    2e0f:	51                   	push   %ecx
    2e10:	e8 eb a4 00 00       	call   d300 <str_cmp@plt>
    2e15:	83 c4 10             	add    $0x10,%esp
    2e18:	85 c0                	test   %eax,%eax
    2e1a:	79 e2                	jns    2dfe <ls_cmp+0x1e>
    2e1c:	83 c8 ff             	or     $0xffffffff,%eax
    2e1f:	c9                   	leave  
    2e20:	c3                   	ret    
    2e21:	eb 0d                	jmp    2e30 <ls_scan_dir>
    2e23:	90                   	nop
    2e24:	90                   	nop
    2e25:	90                   	nop
    2e26:	90                   	nop
    2e27:	90                   	nop
    2e28:	90                   	nop
    2e29:	90                   	nop
    2e2a:	90                   	nop
    2e2b:	90                   	nop
    2e2c:	90                   	nop
    2e2d:	90                   	nop
    2e2e:	90                   	nop
    2e2f:	90                   	nop

00002e30 <ls_scan_dir>:
    2e30:	55                   	push   %ebp
    2e31:	89 e5                	mov    %esp,%ebp
    2e33:	57                   	push   %edi
    2e34:	56                   	push   %esi
    2e35:	53                   	push   %ebx
    2e36:	83 ec 2c             	sub    $0x2c,%esp
    2e39:	85 d2                	test   %edx,%edx
    2e3b:	0f 84 1e 03 00 00    	je     315f <ls_scan_dir+0x32f>
    2e41:	83 ec 0c             	sub    $0xc,%esp
    2e44:	89 4d d0             	mov    %ecx,-0x30(%ebp)
    2e47:	89 55 d8             	mov    %edx,-0x28(%ebp)
    2e4a:	89 45 d4             	mov    %eax,-0x2c(%ebp)
    2e4d:	68 ff 00 00 00       	push   $0xff
    2e52:	e8 89 a2 00 00       	call   d0e0 <malloc@plt>
    2e57:	83 c4 10             	add    $0x10,%esp
    2e5a:	89 45 dc             	mov    %eax,-0x24(%ebp)
    2e5d:	85 c0                	test   %eax,%eax
    2e5f:	0f 84 02 03 00 00    	je     3167 <ls_scan_dir+0x337>
    2e65:	83 ec 0c             	sub    $0xc,%esp
    2e68:	68 d0 02 00 00       	push   $0x2d0
    2e6d:	e8 6e a2 00 00       	call   d0e0 <malloc@plt>
    2e72:	83 c4 10             	add    $0x10,%esp
    2e75:	89 45 e4             	mov    %eax,-0x1c(%ebp)
    2e78:	85 c0                	test   %eax,%eax
    2e7a:	0f 84 03 03 00 00    	je     3183 <ls_scan_dir+0x353>
    2e80:	31 f6                	xor    %esi,%esi
    2e82:	c7 45 e0 14 00 00 00 	movl   $0x14,-0x20(%ebp)
    2e89:	e9 a7 00 00 00       	jmp    2f35 <ls_scan_dir+0x105>
    2e8e:	66 90                	xchg   %ax,%ax
    2e90:	8b 45 e0             	mov    -0x20(%ebp),%eax
    2e93:	39 f0                	cmp    %esi,%eax
    2e95:	7f 25                	jg     2ebc <ls_scan_dir+0x8c>
    2e97:	01 c0                	add    %eax,%eax
    2e99:	8b 4d e4             	mov    -0x1c(%ebp),%ecx
    2e9c:	89 45 e0             	mov    %eax,-0x20(%ebp)
    2e9f:	52                   	push   %edx
    2ea0:	8d 04 c0             	lea    (%eax,%eax,8),%eax
    2ea3:	52                   	push   %edx
    2ea4:	c1 e0 02             	shl    $0x2,%eax
    2ea7:	50                   	push   %eax
    2ea8:	51                   	push   %ecx
    2ea9:	e8 22 a4 00 00       	call   d2d0 <realloc@plt>
    2eae:	83 c4 10             	add    $0x10,%esp
    2eb1:	85 c0                	test   %eax,%eax
    2eb3:	0f 84 1d 02 00 00    	je     30d6 <ls_scan_dir+0x2a6>
    2eb9:	89 45 e4             	mov    %eax,-0x1c(%ebp)
    2ebc:	83 ec 0c             	sub    $0xc,%esp
    2ebf:	8b 4d e4             	mov    -0x1c(%ebp),%ecx
    2ec2:	8d 04 f6             	lea    (%esi,%esi,8),%eax
    2ec5:	57                   	push   %edi
    2ec6:	8d 1c 81             	lea    (%ecx,%eax,4),%ebx
    2ec9:	e8 f2 a4 00 00       	call   d3c0 <str_size@plt>
    2ece:	40                   	inc    %eax
    2ecf:	89 04 24             	mov    %eax,(%esp)
    2ed2:	e8 09 a2 00 00       	call   d0e0 <malloc@plt>
    2ed7:	83 c4 10             	add    $0x10,%esp
    2eda:	89 03                	mov    %eax,(%ebx)
    2edc:	85 c0                	test   %eax,%eax
    2ede:	0f 84 44 01 00 00    	je     3028 <ls_scan_dir+0x1f8>
    2ee4:	83 ec 0c             	sub    $0xc,%esp
    2ee7:	83 c3 04             	add    $0x4,%ebx
    2eea:	46                   	inc    %esi
    2eeb:	57                   	push   %edi
    2eec:	e8 cf a4 00 00       	call   d3c0 <str_size@plt>
    2ef1:	83 c4 0c             	add    $0xc,%esp
    2ef4:	40                   	inc    %eax
    2ef5:	57                   	push   %edi
    2ef6:	50                   	push   %eax
    2ef7:	8b 7b fc             	mov    -0x4(%ebx),%edi
    2efa:	57                   	push   %edi
    2efb:	e8 70 a4 00 00       	call   d370 <str_cpy@plt>
    2f00:	58                   	pop    %eax
    2f01:	8b 43 fc             	mov    -0x4(%ebx),%eax
    2f04:	50                   	push   %eax
    2f05:	8b 7d dc             	mov    -0x24(%ebp),%edi
    2f08:	8b 45 d4             	mov    -0x2c(%ebp),%eax
    2f0b:	50                   	push   %eax
    2f0c:	68 32 ad 00 00       	push   $0xad32
    2f11:	68 fe 00 00 00       	push   $0xfe
    2f16:	57                   	push   %edi
    2f17:	e8 14 a1 00 00       	call   d030 <snprintf@plt>
    2f1c:	83 c4 18             	add    $0x18,%esp
    2f1f:	c6 04 07 00          	movb   $0x0,(%edi,%eax,1)
    2f23:	53                   	push   %ebx
    2f24:	57                   	push   %edi
    2f25:	e8 e6 a4 00 00       	call   d410 <stat@plt>
    2f2a:	83 c4 10             	add    $0x10,%esp
    2f2d:	85 c0                	test   %eax,%eax
    2f2f:	0f 85 13 01 00 00    	jne    3048 <ls_scan_dir+0x218>
    2f35:	83 ec 0c             	sub    $0xc,%esp
    2f38:	8b 45 d8             	mov    -0x28(%ebp),%eax
    2f3b:	50                   	push   %eax
    2f3c:	e8 ef a1 00 00       	call   d130 <readdir@plt>
    2f41:	83 c4 10             	add    $0x10,%esp
    2f44:	89 c7                	mov    %eax,%edi
    2f46:	85 c0                	test   %eax,%eax
    2f48:	0f 85 42 ff ff ff    	jne    2e90 <ls_scan_dir+0x60>
    2f4e:	8b 3d d0 f8 00 00    	mov    0xf8d0,%edi
    2f54:	85 ff                	test   %edi,%edi
    2f56:	0f 85 93 01 00 00    	jne    30ef <ls_scan_dir+0x2bf>
    2f5c:	85 f6                	test   %esi,%esi
    2f5e:	0f 84 c9 01 00 00    	je     312d <ls_scan_dir+0x2fd>
    2f64:	8b 5d e4             	mov    -0x1c(%ebp),%ebx
    2f67:	31 ff                	xor    %edi,%edi
    2f69:	eb 1f                	jmp    2f8a <ls_scan_dir+0x15a>
    2f6b:	90                   	nop
    2f6c:	8d 74 26 00          	lea    0x0(%esi,%eiz,1),%esi
    2f70:	50                   	push   %eax
    2f71:	50                   	push   %eax
    2f72:	8b 03                	mov    (%ebx),%eax
    2f74:	50                   	push   %eax
    2f75:	68 65 b7 00 00       	push   $0xb765
    2f7a:	e8 71 a0 00 00       	call   cff0 <printf@plt>
    2f7f:	83 c4 10             	add    $0x10,%esp
    2f82:	47                   	inc    %edi
    2f83:	83 c3 24             	add    $0x24,%ebx
    2f86:	39 fe                	cmp    %edi,%esi
    2f88:	74 26                	je     2fb0 <ls_scan_dir+0x180>
    2f8a:	80 7b 14 00          	cmpb   $0x0,0x14(%ebx)
    2f8e:	75 78                	jne    3008 <ls_scan_dir+0x1d8>
    2f90:	80 7b 15 00          	cmpb   $0x0,0x15(%ebx)
    2f94:	74 da                	je     2f70 <ls_scan_dir+0x140>
    2f96:	50                   	push   %eax
    2f97:	50                   	push   %eax
    2f98:	8b 03                	mov    (%ebx),%eax
    2f9a:	47                   	inc    %edi
    2f9b:	50                   	push   %eax
    2f9c:	68 58 b7 00 00       	push   $0xb758
    2fa1:	83 c3 24             	add    $0x24,%ebx
    2fa4:	e8 47 a0 00 00       	call   cff0 <printf@plt>
    2fa9:	83 c4 10             	add    $0x10,%esp
    2fac:	39 fe                	cmp    %edi,%esi
    2fae:	75 da                	jne    2f8a <ls_scan_dir+0x15a>
    2fb0:	8b 0d cc f8 00 00    	mov    0xf8cc,%ecx
    2fb6:	85 c9                	test   %ecx,%ecx
    2fb8:	0f 85 b6 00 00 00    	jne    3074 <ls_scan_dir+0x244>
    2fbe:	8b 5d e4             	mov    -0x1c(%ebp),%ebx
    2fc1:	31 ff                	xor    %edi,%edi
    2fc3:	90                   	nop
    2fc4:	8d 74 26 00          	lea    0x0(%esi,%eiz,1),%esi
    2fc8:	83 ec 0c             	sub    $0xc,%esp
    2fcb:	8b 03                	mov    (%ebx),%eax
    2fcd:	47                   	inc    %edi
    2fce:	83 c3 24             	add    $0x24,%ebx
    2fd1:	50                   	push   %eax
    2fd2:	e8 39 a5 00 00       	call   d510 <free@plt>
    2fd7:	83 c4 10             	add    $0x10,%esp
    2fda:	39 f7                	cmp    %esi,%edi
    2fdc:	7c ea                	jl     2fc8 <ls_scan_dir+0x198>
    2fde:	83 ec 0c             	sub    $0xc,%esp
    2fe1:	8b 7d e4             	mov    -0x1c(%ebp),%edi
    2fe4:	57                   	push   %edi
    2fe5:	e8 26 a5 00 00       	call   d510 <free@plt>
    2fea:	58                   	pop    %eax
    2feb:	8b 45 dc             	mov    -0x24(%ebp),%eax
    2fee:	50                   	push   %eax
    2fef:	e8 1c a5 00 00       	call   d510 <free@plt>
    2ff4:	83 c4 10             	add    $0x10,%esp
    2ff7:	8d 65 f4             	lea    -0xc(%ebp),%esp
    2ffa:	89 f0                	mov    %esi,%eax
    2ffc:	5b                   	pop    %ebx
    2ffd:	5e                   	pop    %esi
    2ffe:	5f                   	pop    %edi
    2fff:	5d                   	pop    %ebp
    3000:	c3                   	ret    
    3001:	8d b4 26 00 00 00 00 	lea    0x0(%esi,%eiz,1),%esi
    3008:	8b 43 1c             	mov    0x1c(%ebx),%eax
    300b:	8b 0b                	mov    (%ebx),%ecx
    300d:	50                   	push   %eax
    300e:	8b 53 18             	mov    0x18(%ebx),%edx
    3011:	52                   	push   %edx
    3012:	51                   	push   %ecx
    3013:	68 4c b7 00 00       	push   $0xb74c
    3018:	e8 d3 9f 00 00       	call   cff0 <printf@plt>
    301d:	83 c4 10             	add    $0x10,%esp
    3020:	e9 5d ff ff ff       	jmp    2f82 <ls_scan_dir+0x152>
    3025:	8d 76 00             	lea    0x0(%esi),%esi
    3028:	8b 5d d4             	mov    -0x2c(%ebp),%ebx
    302b:	51                   	push   %ecx
    302c:	53                   	push   %ebx
    302d:	68 00 b7 00 00       	push   $0xb700
    3032:	6a 04                	push   $0x4
    3034:	e8 f7 30 00 00       	call   6130 <cli_error>
    3039:	83 c4 10             	add    $0x10,%esp
    303c:	85 f6                	test   %esi,%esi
    303e:	0f 85 7a ff ff ff    	jne    2fbe <ls_scan_dir+0x18e>
    3044:	eb 98                	jmp    2fde <ls_scan_dir+0x1ae>
    3046:	66 90                	xchg   %ax,%ax
    3048:	50                   	push   %eax
    3049:	50                   	push   %eax
    304a:	8b 45 dc             	mov    -0x24(%ebp),%eax
    304d:	50                   	push   %eax
    304e:	68 16 b7 00 00       	push   $0xb716
    3053:	e8 98 9f 00 00       	call   cff0 <printf@plt>
    3058:	e8 f3 9f 00 00       	call   d050 <__errno@plt>
    305d:	5a                   	pop    %edx
    305e:	59                   	pop    %ecx
    305f:	8b 18                	mov    (%eax),%ebx
    3061:	53                   	push   %ebx
    3062:	68 32 b7 00 00       	push   $0xb732
    3067:	e8 84 9f 00 00       	call   cff0 <printf@plt>
    306c:	83 c4 10             	add    $0x10,%esp
    306f:	e9 4a ff ff ff       	jmp    2fbe <ls_scan_dir+0x18e>
    3074:	8d 04 f6             	lea    (%esi,%esi,8),%eax
    3077:	57                   	push   %edi
    3078:	c1 e0 02             	shl    $0x2,%eax
    307b:	57                   	push   %edi
    307c:	50                   	push   %eax
    307d:	8b 45 d0             	mov    -0x30(%ebp),%eax
    3080:	8b 00                	mov    (%eax),%eax
    3082:	50                   	push   %eax
    3083:	e8 48 a2 00 00       	call   d2d0 <realloc@plt>
    3088:	83 c4 10             	add    $0x10,%esp
    308b:	85 c0                	test   %eax,%eax
    308d:	74 99                	je     3028 <ls_scan_dir+0x1f8>
    308f:	8b 4d d0             	mov    -0x30(%ebp),%ecx
    3092:	89 75 d8             	mov    %esi,-0x28(%ebp)
    3095:	31 db                	xor    %ebx,%ebx
    3097:	89 c6                	mov    %eax,%esi
    3099:	89 01                	mov    %eax,(%ecx)
    309b:	8b 4d e4             	mov    -0x1c(%ebp),%ecx
    309e:	eb 09                	jmp    30a9 <ls_scan_dir+0x279>
    30a0:	43                   	inc    %ebx
    30a1:	83 c1 24             	add    $0x24,%ecx
    30a4:	39 5d d8             	cmp    %ebx,-0x28(%ebp)
    30a7:	74 7c                	je     3125 <ls_scan_dir+0x2f5>
    30a9:	83 ec 0c             	sub    $0xc,%esp
    30ac:	8b 01                	mov    (%ecx),%eax
    30ae:	89 4d e0             	mov    %ecx,-0x20(%ebp)
    30b1:	8d 3c db             	lea    (%ebx,%ebx,8),%edi
    30b4:	c1 e7 02             	shl    $0x2,%edi
    30b7:	50                   	push   %eax
    30b8:	e8 c3 a1 00 00       	call   d280 <str_dup@plt>
    30bd:	01 fe                	add    %edi,%esi
    30bf:	89 06                	mov    %eax,(%esi)
    30c1:	8b 45 d0             	mov    -0x30(%ebp),%eax
    30c4:	83 c4 10             	add    $0x10,%esp
    30c7:	8b 4d e0             	mov    -0x20(%ebp),%ecx
    30ca:	8b 30                	mov    (%eax),%esi
    30cc:	8b 14 3e             	mov    (%esi,%edi,1),%edx
    30cf:	85 d2                	test   %edx,%edx
    30d1:	75 cd                	jne    30a0 <ls_scan_dir+0x270>
    30d3:	8b 75 d8             	mov    -0x28(%ebp),%esi
    30d6:	50                   	push   %eax
    30d7:	8b 45 d4             	mov    -0x2c(%ebp),%eax
    30da:	50                   	push   %eax
    30db:	68 00 b7 00 00       	push   $0xb700
    30e0:	6a 04                	push   $0x4
    30e2:	e8 49 30 00 00       	call   6130 <cli_error>
    30e7:	83 c4 10             	add    $0x10,%esp
    30ea:	e9 cf fe ff ff       	jmp    2fbe <ls_scan_dir+0x18e>
    30ef:	83 ec 0c             	sub    $0xc,%esp
    30f2:	8b 5d e4             	mov    -0x1c(%ebp),%ebx
    30f5:	6a 00                	push   $0x0
    30f7:	68 e0 2d 00 00       	push   $0x2de0
    30fc:	6a 24                	push   $0x24
    30fe:	56                   	push   %esi
    30ff:	53                   	push   %ebx
    3100:	e8 ab 9f 00 00       	call   d0b0 <qsort@plt>
    3105:	83 c4 20             	add    $0x20,%esp
    3108:	84 c0                	test   %al,%al
    310a:	0f 85 4c fe ff ff    	jne    2f5c <ls_scan_dir+0x12c>
    3110:	83 ec 0c             	sub    $0xc,%esp
    3113:	68 3c b7 00 00       	push   $0xb73c
    3118:	e8 d3 9e 00 00       	call   cff0 <printf@plt>
    311d:	83 c4 10             	add    $0x10,%esp
    3120:	e9 37 fe ff ff       	jmp    2f5c <ls_scan_dir+0x12c>
    3125:	8b 75 d8             	mov    -0x28(%ebp),%esi
    3128:	e9 91 fe ff ff       	jmp    2fbe <ls_scan_dir+0x18e>
    312d:	8b 1d cc f8 00 00    	mov    0xf8cc,%ebx
    3133:	85 db                	test   %ebx,%ebx
    3135:	0f 84 a3 fe ff ff    	je     2fde <ls_scan_dir+0x1ae>
    313b:	50                   	push   %eax
    313c:	50                   	push   %eax
    313d:	8b 45 d0             	mov    -0x30(%ebp),%eax
    3140:	6a 00                	push   $0x0
    3142:	8b 10                	mov    (%eax),%edx
    3144:	52                   	push   %edx
    3145:	e8 86 a1 00 00       	call   d2d0 <realloc@plt>
    314a:	83 c4 10             	add    $0x10,%esp
    314d:	85 c0                	test   %eax,%eax
    314f:	0f 84 d3 fe ff ff    	je     3028 <ls_scan_dir+0x1f8>
    3155:	8b 4d d0             	mov    -0x30(%ebp),%ecx
    3158:	89 01                	mov    %eax,(%ecx)
    315a:	e9 7f fe ff ff       	jmp    2fde <ls_scan_dir+0x1ae>
    315f:	83 ce ff             	or     $0xffffffff,%esi
    3162:	e9 90 fe ff ff       	jmp    2ff7 <ls_scan_dir+0x1c7>
    3167:	50                   	push   %eax
    3168:	8b 45 d4             	mov    -0x2c(%ebp),%eax
    316b:	50                   	push   %eax
    316c:	68 00 b7 00 00       	push   $0xb700
    3171:	6a 04                	push   $0x4
    3173:	83 ce ff             	or     $0xffffffff,%esi
    3176:	e8 b5 2f 00 00       	call   6130 <cli_error>
    317b:	83 c4 10             	add    $0x10,%esp
    317e:	e9 74 fe ff ff       	jmp    2ff7 <ls_scan_dir+0x1c7>
    3183:	8b 75 d4             	mov    -0x2c(%ebp),%esi
    3186:	53                   	push   %ebx
    3187:	56                   	push   %esi
    3188:	68 00 b7 00 00       	push   $0xb700
    318d:	6a 04                	push   $0x4
    318f:	e8 9c 2f 00 00       	call   6130 <cli_error>
    3194:	8b 45 dc             	mov    -0x24(%ebp),%eax
    3197:	5f                   	pop    %edi
    3198:	50                   	push   %eax
    3199:	83 ce ff             	or     $0xffffffff,%esi
    319c:	e8 6f a3 00 00       	call   d510 <free@plt>
    31a1:	83 c4 10             	add    $0x10,%esp
    31a4:	e9 4e fe ff ff       	jmp    2ff7 <ls_scan_dir+0x1c7>
    31a9:	8d b4 26 00 00 00 00 	lea    0x0(%esi,%eiz,1),%esi

000031b0 <ls_recursive>:
    31b0:	55                   	push   %ebp
    31b1:	89 e5                	mov    %esp,%ebp
    31b3:	57                   	push   %edi
    31b4:	56                   	push   %esi
    31b5:	53                   	push   %ebx
    31b6:	83 ec 38             	sub    $0x38,%esp
    31b9:	89 c7                	mov    %eax,%edi
    31bb:	89 55 d4             	mov    %edx,-0x2c(%ebp)
    31be:	6a 24                	push   $0x24
    31c0:	e8 1b 9f 00 00       	call   d0e0 <malloc@plt>
    31c5:	89 45 e4             	mov    %eax,-0x1c(%ebp)
    31c8:	58                   	pop    %eax
    31c9:	5a                   	pop    %edx
    31ca:	57                   	push   %edi
    31cb:	68 6c b7 00 00       	push   $0xb76c
    31d0:	e8 1b 9e 00 00       	call   cff0 <printf@plt>
    31d5:	c7 04 24 ff 00 00 00 	movl   $0xff,(%esp)
    31dc:	e8 ff 9e 00 00       	call   d0e0 <malloc@plt>
    31e1:	83 c4 10             	add    $0x10,%esp
    31e4:	89 c6                	mov    %eax,%esi
    31e6:	85 c0                	test   %eax,%eax
    31e8:	0f 84 a2 01 00 00    	je     3390 <ls_recursive+0x1e0>
    31ee:	8d 4d e4             	lea    -0x1c(%ebp),%ecx
    31f1:	8b 55 d4             	mov    -0x2c(%ebp),%edx
    31f4:	89 f8                	mov    %edi,%eax
    31f6:	e8 35 fc ff ff       	call   2e30 <ls_scan_dir>
    31fb:	83 f8 ff             	cmp    $0xffffffff,%eax
    31fe:	0f 84 8c 01 00 00    	je     3390 <ls_recursive+0x1e0>
    3204:	c7 45 d4 00 00 00 00 	movl   $0x0,-0x2c(%ebp)
    320b:	85 c0                	test   %eax,%eax
    320d:	0f 8e 59 01 00 00    	jle    336c <ls_recursive+0x1bc>
    3213:	89 45 cc             	mov    %eax,-0x34(%ebp)
    3216:	89 fb                	mov    %edi,%ebx
    3218:	57                   	push   %edi
    3219:	68 ff 00 00 00       	push   $0xff
    321e:	6a 00                	push   $0x0
    3220:	56                   	push   %esi
    3221:	e8 0a a1 00 00       	call   d330 <memset@plt>
    3226:	89 34 24             	mov    %esi,(%esp)
    3229:	e8 92 a1 00 00       	call   d3c0 <str_size@plt>
    322e:	89 1c 24             	mov    %ebx,(%esp)
    3231:	89 c7                	mov    %eax,%edi
    3233:	e8 88 a1 00 00       	call   d3c0 <str_size@plt>
    3238:	83 c4 10             	add    $0x10,%esp
    323b:	8d 44 07 01          	lea    0x1(%edi,%eax,1),%eax
    323f:	3d ff 00 00 00       	cmp    $0xff,%eax
    3244:	0f 86 76 01 00 00    	jbe    33c0 <ls_recursive+0x210>
    324a:	83 ec 0c             	sub    $0xc,%esp
    324d:	53                   	push   %ebx
    324e:	e8 6d a1 00 00       	call   d3c0 <str_size@plt>
    3253:	83 c4 10             	add    $0x10,%esp
    3256:	80 7c 03 ff 2f       	cmpb   $0x2f,-0x1(%ebx,%eax,1)
    325b:	74 29                	je     3286 <ls_recursive+0xd6>
    325d:	83 ec 0c             	sub    $0xc,%esp
    3260:	56                   	push   %esi
    3261:	e8 5a a1 00 00       	call   d3c0 <str_size@plt>
    3266:	c7 04 24 72 b7 00 00 	movl   $0xb772,(%esp)
    326d:	89 c7                	mov    %eax,%edi
    326f:	e8 4c a1 00 00       	call   d3c0 <str_size@plt>
    3274:	83 c4 10             	add    $0x10,%esp
    3277:	8d 44 07 01          	lea    0x1(%edi,%eax,1),%eax
    327b:	3d ff 00 00 00       	cmp    $0xff,%eax
    3280:	0f 86 82 01 00 00    	jbe    3408 <ls_recursive+0x258>
    3286:	83 ec 0c             	sub    $0xc,%esp
    3289:	56                   	push   %esi
    328a:	e8 31 a1 00 00       	call   d3c0 <str_size@plt>
    328f:	89 45 d0             	mov    %eax,-0x30(%ebp)
    3292:	8b 45 d4             	mov    -0x2c(%ebp),%eax
    3295:	8d 3c c0             	lea    (%eax,%eax,8),%edi
    3298:	58                   	pop    %eax
    3299:	c1 e7 02             	shl    $0x2,%edi
    329c:	8b 45 e4             	mov    -0x1c(%ebp),%eax
    329f:	8b 04 38             	mov    (%eax,%edi,1),%eax
    32a2:	50                   	push   %eax
    32a3:	e8 18 a1 00 00       	call   d3c0 <str_size@plt>
    32a8:	8b 55 d0             	mov    -0x30(%ebp),%edx
    32ab:	83 c4 10             	add    $0x10,%esp
    32ae:	8d 44 02 01          	lea    0x1(%edx,%eax,1),%eax
    32b2:	3d ff 00 00 00       	cmp    $0xff,%eax
    32b7:	0f 86 e3 00 00 00    	jbe    33a0 <ls_recursive+0x1f0>
    32bd:	8b 55 e4             	mov    -0x1c(%ebp),%edx
    32c0:	50                   	push   %eax
    32c1:	01 fa                	add    %edi,%edx
    32c3:	50                   	push   %eax
    32c4:	89 55 d0             	mov    %edx,-0x30(%ebp)
    32c7:	8d 42 04             	lea    0x4(%edx),%eax
    32ca:	50                   	push   %eax
    32cb:	56                   	push   %esi
    32cc:	e8 3f a1 00 00       	call   d410 <stat@plt>
    32d1:	83 c4 10             	add    $0x10,%esp
    32d4:	8b 55 d0             	mov    -0x30(%ebp),%edx
    32d7:	85 c0                	test   %eax,%eax
    32d9:	0f 85 f9 00 00 00    	jne    33d8 <ls_recursive+0x228>
    32df:	80 7a 14 00          	cmpb   $0x0,0x14(%edx)
    32e3:	75 44                	jne    3329 <ls_recursive+0x179>
    32e5:	80 7a 15 00          	cmpb   $0x0,0x15(%edx)
    32e9:	0f 84 09 01 00 00    	je     33f8 <ls_recursive+0x248>
    32ef:	83 ec 0c             	sub    $0xc,%esp
    32f2:	56                   	push   %esi
    32f3:	e8 68 a0 00 00       	call   d360 <opendir@plt>
    32f8:	83 c4 10             	add    $0x10,%esp
    32fb:	89 c1                	mov    %eax,%ecx
    32fd:	85 c0                	test   %eax,%eax
    32ff:	0f 84 1c 01 00 00    	je     3421 <ls_recursive+0x271>
    3305:	89 ca                	mov    %ecx,%edx
    3307:	89 f0                	mov    %esi,%eax
    3309:	89 4d d0             	mov    %ecx,-0x30(%ebp)
    330c:	e8 9f fe ff ff       	call   31b0 <ls_recursive>
    3311:	83 ec 0c             	sub    $0xc,%esp
    3314:	8b 4d d0             	mov    -0x30(%ebp),%ecx
    3317:	89 c7                	mov    %eax,%edi
    3319:	51                   	push   %ecx
    331a:	e8 c1 a1 00 00       	call   d4e0 <closedir@plt>
    331f:	83 c4 10             	add    $0x10,%esp
    3322:	4f                   	dec    %edi
    3323:	0f 84 cf 00 00 00    	je     33f8 <ls_recursive+0x248>
    3329:	8b 7d d4             	mov    -0x2c(%ebp),%edi
    332c:	47                   	inc    %edi
    332d:	89 7d d4             	mov    %edi,-0x2c(%ebp)
    3330:	8b 45 d4             	mov    -0x2c(%ebp),%eax
    3333:	39 45 cc             	cmp    %eax,-0x34(%ebp)
    3336:	0f 85 dc fe ff ff    	jne    3218 <ls_recursive+0x68>
    333c:	8b 5d cc             	mov    -0x34(%ebp),%ebx
    333f:	c7 45 d4 00 00 00 00 	movl   $0x0,-0x2c(%ebp)
    3346:	66 90                	xchg   %ax,%ax
    3348:	31 ff                	xor    %edi,%edi
    334a:	8d b6 00 00 00 00    	lea    0x0(%esi),%esi
    3350:	8d 04 ff             	lea    (%edi,%edi,8),%eax
    3353:	8b 55 e4             	mov    -0x1c(%ebp),%edx
    3356:	83 ec 0c             	sub    $0xc,%esp
    3359:	47                   	inc    %edi
    335a:	8d 04 82             	lea    (%edx,%eax,4),%eax
    335d:	8b 08                	mov    (%eax),%ecx
    335f:	51                   	push   %ecx
    3360:	e8 ab a1 00 00       	call   d510 <free@plt>
    3365:	83 c4 10             	add    $0x10,%esp
    3368:	39 fb                	cmp    %edi,%ebx
    336a:	75 e4                	jne    3350 <ls_recursive+0x1a0>
    336c:	83 ec 0c             	sub    $0xc,%esp
    336f:	8b 45 e4             	mov    -0x1c(%ebp),%eax
    3372:	50                   	push   %eax
    3373:	e8 98 a1 00 00       	call   d510 <free@plt>
    3378:	89 34 24             	mov    %esi,(%esp)
    337b:	e8 90 a1 00 00       	call   d510 <free@plt>
    3380:	8b 45 d4             	mov    -0x2c(%ebp),%eax
    3383:	8d 65 f4             	lea    -0xc(%ebp),%esp
    3386:	5b                   	pop    %ebx
    3387:	5e                   	pop    %esi
    3388:	5f                   	pop    %edi
    3389:	5d                   	pop    %ebp
    338a:	c3                   	ret    
    338b:	90                   	nop
    338c:	8d 74 26 00          	lea    0x0(%esi,%eiz,1),%esi
    3390:	c7 45 d4 01 00 00 00 	movl   $0x1,-0x2c(%ebp)
    3397:	eb d3                	jmp    336c <ls_recursive+0x1bc>
    3399:	8d b4 26 00 00 00 00 	lea    0x0(%esi,%eiz,1),%esi
    33a0:	50                   	push   %eax
    33a1:	8b 45 e4             	mov    -0x1c(%ebp),%eax
    33a4:	8b 04 38             	mov    (%eax,%edi,1),%eax
    33a7:	50                   	push   %eax
    33a8:	68 ff 00 00 00       	push   $0xff
    33ad:	56                   	push   %esi
    33ae:	e8 9d 9d 00 00       	call   d150 <str_append@plt>
    33b3:	83 c4 10             	add    $0x10,%esp
    33b6:	e9 02 ff ff ff       	jmp    32bd <ls_recursive+0x10d>
    33bb:	90                   	nop
    33bc:	8d 74 26 00          	lea    0x0(%esi,%eiz,1),%esi
    33c0:	51                   	push   %ecx
    33c1:	53                   	push   %ebx
    33c2:	68 ff 00 00 00       	push   $0xff
    33c7:	56                   	push   %esi
    33c8:	e8 83 9d 00 00       	call   d150 <str_append@plt>
    33cd:	83 c4 10             	add    $0x10,%esp
    33d0:	e9 75 fe ff ff       	jmp    324a <ls_recursive+0x9a>
    33d5:	8d 76 00             	lea    0x0(%esi),%esi
    33d8:	50                   	push   %eax
    33d9:	56                   	push   %esi
    33da:	68 52 ad 00 00       	push   $0xad52
    33df:	6a 03                	push   $0x3
    33e1:	8b 5d cc             	mov    -0x34(%ebp),%ebx
    33e4:	e8 47 2d 00 00       	call   6130 <cli_error>
    33e9:	83 c4 10             	add    $0x10,%esp
    33ec:	c7 45 d4 01 00 00 00 	movl   $0x1,-0x2c(%ebp)
    33f3:	e9 50 ff ff ff       	jmp    3348 <ls_recursive+0x198>
    33f8:	8b 5d cc             	mov    -0x34(%ebp),%ebx
    33fb:	c7 45 d4 01 00 00 00 	movl   $0x1,-0x2c(%ebp)
    3402:	e9 41 ff ff ff       	jmp    3348 <ls_recursive+0x198>
    3407:	90                   	nop
    3408:	52                   	push   %edx
    3409:	68 72 b7 00 00       	push   $0xb772
    340e:	68 ff 00 00 00       	push   $0xff
    3413:	56                   	push   %esi
    3414:	e8 37 9d 00 00       	call   d150 <str_append@plt>
    3419:	83 c4 10             	add    $0x10,%esp
    341c:	e9 65 fe ff ff       	jmp    3286 <ls_recursive+0xd6>
    3421:	8b 45 e4             	mov    -0x1c(%ebp),%eax
    3424:	52                   	push   %edx
    3425:	8b 5d cc             	mov    -0x34(%ebp),%ebx
    3428:	8b 0c 38             	mov    (%eax,%edi,1),%ecx
    342b:	51                   	push   %ecx
    342c:	68 74 b7 00 00       	push   $0xb774
    3431:	6a 01                	push   $0x1
    3433:	e8 f8 2c 00 00       	call   6130 <cli_error>
    3438:	83 c4 10             	add    $0x10,%esp
    343b:	c7 45 d4 01 00 00 00 	movl   $0x1,-0x2c(%ebp)
    3442:	e9 01 ff ff ff       	jmp    3348 <ls_recursive+0x198>
    3447:	89 f6                	mov    %esi,%esi
    3449:	8d bc 27 00 00 00 00 	lea    0x0(%edi,%eiz,1),%edi

00003450 <help_cmd_ls>:
    3450:	55                   	push   %ebp
    3451:	89 e5                	mov    %esp,%ebp
    3453:	83 ec 08             	sub    $0x8,%esp
    3456:	8b 45 08             	mov    0x8(%ebp),%eax
    3459:	85 c0                	test   %eax,%eax
    345b:	74 2b                	je     3488 <help_cmd_ls+0x38>
    345d:	50                   	push   %eax
    345e:	50                   	push   %eax
    345f:	68 ed c9 00 00       	push   $0xc9ed
    3464:	68 a4 b7 00 00       	push   $0xb7a4
    3469:	e8 82 9b 00 00       	call   cff0 <printf@plt>
    346e:	5a                   	pop    %edx
    346f:	59                   	pop    %ecx
    3470:	68 ed c9 00 00       	push   $0xc9ed
    3475:	68 c8 b7 00 00       	push   $0xb7c8
    347a:	e8 71 9b 00 00       	call   cff0 <printf@plt>
    347f:	83 c4 10             	add    $0x10,%esp
    3482:	c9                   	leave  
    3483:	c3                   	ret    
    3484:	8d 74 26 00          	lea    0x0(%esi,%eiz,1),%esi
    3488:	50                   	push   %eax
    3489:	50                   	push   %eax
    348a:	68 ed c9 00 00       	push   $0xc9ed
    348f:	68 a4 b7 00 00       	push   $0xb7a4
    3494:	e8 57 9b 00 00       	call   cff0 <printf@plt>
    3499:	83 c4 10             	add    $0x10,%esp
    349c:	c9                   	leave  
    349d:	c3                   	ret    
    349e:	66 90                	xchg   %ax,%ax

000034a0 <cmd_ls>:
    34a0:	55                   	push   %ebp
    34a1:	89 e5                	mov    %esp,%ebp
    34a3:	57                   	push   %edi
    34a4:	56                   	push   %esi
    34a5:	53                   	push   %ebx
    34a6:	83 ec 48             	sub    $0x48,%esp
    34a9:	c7 05 cc f8 00 00 00 	movl   $0x0,0xf8cc
    34b0:	00 00 00 
    34b3:	8b 5d 08             	mov    0x8(%ebp),%ebx
    34b6:	c7 05 d0 f8 00 00 01 	movl   $0x1,0xf8d0
    34bd:	00 00 00 
    34c0:	53                   	push   %ebx
    34c1:	e8 1a 34 00 00       	call   68e0 <cli_count_args>
    34c6:	8d 7d c0             	lea    -0x40(%ebp),%edi
    34c9:	89 c6                	mov    %eax,%esi
    34cb:	c7 05 5c f8 00 00 01 	movl   $0x1,0xf85c
    34d2:	00 00 00 
    34d5:	c7 05 4c f8 00 00 00 	movl   $0x0,0xf84c
    34dc:	00 00 00 
    34df:	c7 45 c0 00 00 00 00 	movl   $0x0,-0x40(%ebp)
    34e6:	83 c4 10             	add    $0x10,%esp
    34e9:	83 ec 0c             	sub    $0xc,%esp
    34ec:	57                   	push   %edi
    34ed:	68 00 b9 00 00       	push   $0xb900
    34f2:	68 86 b7 00 00       	push   $0xb786
    34f7:	53                   	push   %ebx
    34f8:	56                   	push   %esi
    34f9:	e8 22 9b 00 00       	call   d020 <getopt_long@plt>
    34fe:	83 c4 20             	add    $0x20,%esp
    3501:	83 f8 72             	cmp    $0x72,%eax
    3504:	0f 84 f6 00 00 00    	je     3600 <cmd_ls+0x160>
    350a:	83 f8 75             	cmp    $0x75,%eax
    350d:	0f 84 35 01 00 00    	je     3648 <cmd_ls+0x1a8>
    3513:	83 f8 68             	cmp    $0x68,%eax
    3516:	0f 84 f4 00 00 00    	je     3610 <cmd_ls+0x170>
    351c:	40                   	inc    %eax
    351d:	75 ca                	jne    34e9 <cmd_ls+0x49>
    351f:	83 ec 0c             	sub    $0xc,%esp
    3522:	8b 3d 4c f8 00 00    	mov    0xf84c,%edi
    3528:	68 ff 00 00 00       	push   $0xff
    352d:	e8 ae 9b 00 00       	call   d0e0 <malloc@plt>
    3532:	83 c4 10             	add    $0x10,%esp
    3535:	89 45 c4             	mov    %eax,-0x3c(%ebp)
    3538:	85 c0                	test   %eax,%eax
    353a:	0f 84 d6 01 00 00    	je     3716 <cmd_ls+0x276>
    3540:	52                   	push   %edx
    3541:	68 ff 00 00 00       	push   $0xff
    3546:	6a 00                	push   $0x0
    3548:	50                   	push   %eax
    3549:	e8 e2 9d 00 00       	call   d330 <memset@plt>
    354e:	83 c4 10             	add    $0x10,%esp
    3551:	39 fe                	cmp    %edi,%esi
    3553:	0f 84 4f 01 00 00    	je     36a8 <cmd_ls+0x208>
    3559:	50                   	push   %eax
    355a:	a1 4c f8 00 00       	mov    0xf84c,%eax
    355f:	8b 04 83             	mov    (%ebx,%eax,4),%eax
    3562:	50                   	push   %eax
    3563:	8b 45 c4             	mov    -0x3c(%ebp),%eax
    3566:	68 ff 00 00 00       	push   $0xff
    356b:	50                   	push   %eax
    356c:	e8 ff 9d 00 00       	call   d370 <str_cpy@plt>
    3571:	83 c4 10             	add    $0x10,%esp
    3574:	8b 75 c4             	mov    -0x3c(%ebp),%esi
    3577:	8d 45 c8             	lea    -0x38(%ebp),%eax
    357a:	57                   	push   %edi
    357b:	57                   	push   %edi
    357c:	50                   	push   %eax
    357d:	56                   	push   %esi
    357e:	e8 8d 9e 00 00       	call   d410 <stat@plt>
    3583:	83 c4 10             	add    $0x10,%esp
    3586:	89 c3                	mov    %eax,%ebx
    3588:	85 c0                	test   %eax,%eax
    358a:	0f 85 58 01 00 00    	jne    36e8 <cmd_ls+0x248>
    3590:	80 7d d8 00          	cmpb   $0x0,-0x28(%ebp)
    3594:	0f 85 e6 00 00 00    	jne    3680 <cmd_ls+0x1e0>
    359a:	80 7d d9 00          	cmpb   $0x0,-0x27(%ebp)
    359e:	0f 84 d1 00 00 00    	je     3675 <cmd_ls+0x1d5>
    35a4:	83 ec 0c             	sub    $0xc,%esp
    35a7:	8b 45 c4             	mov    -0x3c(%ebp),%eax
    35aa:	50                   	push   %eax
    35ab:	e8 b0 9d 00 00       	call   d360 <opendir@plt>
    35b0:	83 c4 10             	add    $0x10,%esp
    35b3:	89 c6                	mov    %eax,%esi
    35b5:	85 c0                	test   %eax,%eax
    35b7:	0f 84 9a 00 00 00    	je     3657 <cmd_ls+0x1b7>
    35bd:	a1 cc f8 00 00       	mov    0xf8cc,%eax
    35c2:	85 c0                	test   %eax,%eax
    35c4:	0f 84 39 01 00 00    	je     3703 <cmd_ls+0x263>
    35ca:	89 f2                	mov    %esi,%edx
    35cc:	8b 45 c4             	mov    -0x3c(%ebp),%eax
    35cf:	e8 dc fb ff ff       	call   31b0 <ls_recursive>
    35d4:	89 c3                	mov    %eax,%ebx
    35d6:	83 ec 0c             	sub    $0xc,%esp
    35d9:	56                   	push   %esi
    35da:	e8 01 9f 00 00       	call   d4e0 <closedir@plt>
    35df:	58                   	pop    %eax
    35e0:	8b 45 c4             	mov    -0x3c(%ebp),%eax
    35e3:	50                   	push   %eax
    35e4:	e8 27 9f 00 00       	call   d510 <free@plt>
    35e9:	8d 43 01             	lea    0x1(%ebx),%eax
    35ec:	31 db                	xor    %ebx,%ebx
    35ee:	83 c4 10             	add    $0x10,%esp
    35f1:	83 e0 fd             	and    $0xfffffffd,%eax
    35f4:	0f 94 c3             	sete   %bl
    35f7:	eb 3e                	jmp    3637 <cmd_ls+0x197>
    35f9:	8d b4 26 00 00 00 00 	lea    0x0(%esi,%eiz,1),%esi
    3600:	c7 05 cc f8 00 00 01 	movl   $0x1,0xf8cc
    3607:	00 00 00 
    360a:	e9 da fe ff ff       	jmp    34e9 <cmd_ls+0x49>
    360f:	90                   	nop
    3610:	53                   	push   %ebx
    3611:	53                   	push   %ebx
    3612:	68 ed c9 00 00       	push   $0xc9ed
    3617:	68 a4 b7 00 00       	push   $0xb7a4
    361c:	e8 cf 99 00 00       	call   cff0 <printf@plt>
    3621:	5e                   	pop    %esi
    3622:	5f                   	pop    %edi
    3623:	68 ed c9 00 00       	push   $0xc9ed
    3628:	68 c8 b7 00 00       	push   $0xb7c8
    362d:	31 db                	xor    %ebx,%ebx
    362f:	e8 bc 99 00 00       	call   cff0 <printf@plt>
    3634:	83 c4 10             	add    $0x10,%esp
    3637:	8d 65 f4             	lea    -0xc(%ebp),%esp
    363a:	89 d8                	mov    %ebx,%eax
    363c:	5b                   	pop    %ebx
    363d:	5e                   	pop    %esi
    363e:	5f                   	pop    %edi
    363f:	5d                   	pop    %ebp
    3640:	c3                   	ret    
    3641:	8d b4 26 00 00 00 00 	lea    0x0(%esi,%eiz,1),%esi
    3648:	c7 05 d0 f8 00 00 00 	movl   $0x0,0xf8d0
    364f:	00 00 00 
    3652:	e9 92 fe ff ff       	jmp    34e9 <cmd_ls+0x49>
    3657:	50                   	push   %eax
    3658:	8b 45 c4             	mov    -0x3c(%ebp),%eax
    365b:	50                   	push   %eax
    365c:	68 74 b7 00 00       	push   $0xb774
    3661:	6a 01                	push   $0x1
    3663:	e8 c8 2a 00 00       	call   6130 <cli_error>
    3668:	8b 4d c4             	mov    -0x3c(%ebp),%ecx
    366b:	5a                   	pop    %edx
    366c:	51                   	push   %ecx
    366d:	e8 9e 9e 00 00       	call   d510 <free@plt>
    3672:	83 c4 10             	add    $0x10,%esp
    3675:	bb 01 00 00 00       	mov    $0x1,%ebx
    367a:	eb bb                	jmp    3637 <cmd_ls+0x197>
    367c:	8d 74 26 00          	lea    0x0(%esi,%eiz,1),%esi
    3680:	8b 55 e0             	mov    -0x20(%ebp),%edx
    3683:	8b 4d dc             	mov    -0x24(%ebp),%ecx
    3686:	8b 75 c4             	mov    -0x3c(%ebp),%esi
    3689:	52                   	push   %edx
    368a:	51                   	push   %ecx
    368b:	56                   	push   %esi
    368c:	68 4c b7 00 00       	push   $0xb74c
    3691:	e8 5a 99 00 00       	call   cff0 <printf@plt>
    3696:	8b 45 c4             	mov    -0x3c(%ebp),%eax
    3699:	5f                   	pop    %edi
    369a:	50                   	push   %eax
    369b:	e8 70 9e 00 00       	call   d510 <free@plt>
    36a0:	83 c4 10             	add    $0x10,%esp
    36a3:	eb 92                	jmp    3637 <cmd_ls+0x197>
    36a5:	8d 76 00             	lea    0x0(%esi),%esi
    36a8:	50                   	push   %eax
    36a9:	50                   	push   %eax
    36aa:	8b 45 c4             	mov    -0x3c(%ebp),%eax
    36ad:	68 ff 00 00 00       	push   $0xff
    36b2:	50                   	push   %eax
    36b3:	e8 c8 9c 00 00       	call   d380 <getcwd@plt>
    36b8:	83 c4 10             	add    $0x10,%esp
    36bb:	85 c0                	test   %eax,%eax
    36bd:	0f 85 b1 fe ff ff    	jne    3574 <cmd_ls+0xd4>
    36c3:	50                   	push   %eax
    36c4:	68 ed c9 00 00       	push   $0xc9ed
    36c9:	68 bc b8 00 00       	push   $0xb8bc
    36ce:	6a 01                	push   $0x1
    36d0:	bb 01 00 00 00       	mov    $0x1,%ebx
    36d5:	e8 56 2a 00 00       	call   6130 <cli_error>
    36da:	83 c4 10             	add    $0x10,%esp
    36dd:	e9 55 ff ff ff       	jmp    3637 <cmd_ls+0x197>
    36e2:	8d b6 00 00 00 00    	lea    0x0(%esi),%esi
    36e8:	53                   	push   %ebx
    36e9:	56                   	push   %esi
    36ea:	68 52 ad 00 00       	push   $0xad52
    36ef:	6a 03                	push   $0x3
    36f1:	bb 01 00 00 00       	mov    $0x1,%ebx
    36f6:	e8 35 2a 00 00       	call   6130 <cli_error>
    36fb:	83 c4 10             	add    $0x10,%esp
    36fe:	e9 34 ff ff ff       	jmp    3637 <cmd_ls+0x197>
    3703:	31 c9                	xor    %ecx,%ecx
    3705:	89 f2                	mov    %esi,%edx
    3707:	8b 45 c4             	mov    -0x3c(%ebp),%eax
    370a:	e8 21 f7 ff ff       	call   2e30 <ls_scan_dir>
    370f:	89 c3                	mov    %eax,%ebx
    3711:	e9 c0 fe ff ff       	jmp    35d6 <cmd_ls+0x136>
    3716:	51                   	push   %ecx
    3717:	68 ed c9 00 00       	push   $0xc9ed
    371c:	68 8a b7 00 00       	push   $0xb78a
    3721:	6a 04                	push   $0x4
    3723:	bb 01 00 00 00       	mov    $0x1,%ebx
    3728:	e8 03 2a 00 00       	call   6130 <cli_error>
    372d:	83 c4 10             	add    $0x10,%esp
    3730:	e9 02 ff ff ff       	jmp    3637 <cmd_ls+0x197>
    3735:	66 90                	xchg   %ax,%ax
    3737:	66 90                	xchg   %ax,%ax
    3739:	66 90                	xchg   %ax,%ax
    373b:	66 90                	xchg   %ax,%ax
    373d:	66 90                	xchg   %ax,%ax
    373f:	90                   	nop

00003740 <help_cmd_pwd>:
    3740:	55                   	push   %ebp
    3741:	89 e5                	mov    %esp,%ebp
    3743:	83 ec 10             	sub    $0x10,%esp
    3746:	68 bf 9f 00 00       	push   $0x9fbf
    374b:	68 44 b9 00 00       	push   $0xb944
    3750:	e8 9b 98 00 00       	call   cff0 <printf@plt>
    3755:	83 c4 10             	add    $0x10,%esp
    3758:	c9                   	leave  
    3759:	c3                   	ret    
    375a:	8d b6 00 00 00 00    	lea    0x0(%esi),%esi

00003760 <cmd_pwd>:
    3760:	55                   	push   %ebp
    3761:	89 e5                	mov    %esp,%ebp
    3763:	53                   	push   %ebx
    3764:	83 ec 10             	sub    $0x10,%esp
    3767:	68 ff 00 00 00       	push   $0xff
    376c:	e8 6f 99 00 00       	call   d0e0 <malloc@plt>
    3771:	83 c4 10             	add    $0x10,%esp
    3774:	85 c0                	test   %eax,%eax
    3776:	74 48                	je     37c0 <cmd_pwd+0x60>
    3778:	89 c3                	mov    %eax,%ebx
    377a:	51                   	push   %ecx
    377b:	68 ff 00 00 00       	push   $0xff
    3780:	6a 00                	push   $0x0
    3782:	50                   	push   %eax
    3783:	e8 a8 9b 00 00       	call   d330 <memset@plt>
    3788:	58                   	pop    %eax
    3789:	5a                   	pop    %edx
    378a:	68 ff 00 00 00       	push   $0xff
    378f:	53                   	push   %ebx
    3790:	e8 eb 9b 00 00       	call   d380 <getcwd@plt>
    3795:	83 c4 10             	add    $0x10,%esp
    3798:	85 c0                	test   %eax,%eax
    379a:	74 44                	je     37e0 <cmd_pwd+0x80>
    379c:	50                   	push   %eax
    379d:	50                   	push   %eax
    379e:	53                   	push   %ebx
    379f:	68 ac 9e 00 00       	push   $0x9eac
    37a4:	e8 47 98 00 00       	call   cff0 <printf@plt>
    37a9:	89 1c 24             	mov    %ebx,(%esp)
    37ac:	e8 5f 9d 00 00       	call   d510 <free@plt>
    37b1:	83 c4 10             	add    $0x10,%esp
    37b4:	31 c0                	xor    %eax,%eax
    37b6:	8b 5d fc             	mov    -0x4(%ebp),%ebx
    37b9:	c9                   	leave  
    37ba:	c3                   	ret    
    37bb:	90                   	nop
    37bc:	8d 74 26 00          	lea    0x0(%esi,%eiz,1),%esi
    37c0:	51                   	push   %ecx
    37c1:	68 bf 9f 00 00       	push   $0x9fbf
    37c6:	68 40 b9 00 00       	push   $0xb940
    37cb:	6a 04                	push   $0x4
    37cd:	e8 5e 29 00 00       	call   6130 <cli_error>
    37d2:	83 c4 10             	add    $0x10,%esp
    37d5:	b8 01 00 00 00       	mov    $0x1,%eax
    37da:	8b 5d fc             	mov    -0x4(%ebp),%ebx
    37dd:	c9                   	leave  
    37de:	c3                   	ret    
    37df:	90                   	nop
    37e0:	52                   	push   %edx
    37e1:	52                   	push   %edx
    37e2:	68 74 b9 00 00       	push   $0xb974
    37e7:	6a 01                	push   $0x1
    37e9:	e8 42 29 00 00       	call   6130 <cli_error>
    37ee:	89 1c 24             	mov    %ebx,(%esp)
    37f1:	e8 1a 9d 00 00       	call   d510 <free@plt>
    37f6:	83 c4 10             	add    $0x10,%esp
    37f9:	b8 01 00 00 00       	mov    $0x1,%eax
    37fe:	eb b6                	jmp    37b6 <cmd_pwd+0x56>

00003800 <help_cmd_sleep>:
    3800:	55                   	push   %ebp
    3801:	89 e5                	mov    %esp,%ebp
    3803:	83 ec 08             	sub    $0x8,%esp
    3806:	8b 45 08             	mov    0x8(%ebp),%eax
    3809:	85 c0                	test   %eax,%eax
    380b:	74 2b                	je     3838 <help_cmd_sleep+0x38>
    380d:	50                   	push   %eax
    380e:	50                   	push   %eax
    380f:	68 c3 9f 00 00       	push   $0x9fc3
    3814:	68 c0 b9 00 00       	push   $0xb9c0
    3819:	e8 d2 97 00 00       	call   cff0 <printf@plt>
    381e:	5a                   	pop    %edx
    381f:	59                   	pop    %ecx
    3820:	68 c3 9f 00 00       	push   $0x9fc3
    3825:	68 e8 b9 00 00       	push   $0xb9e8
    382a:	e8 c1 97 00 00       	call   cff0 <printf@plt>
    382f:	83 c4 10             	add    $0x10,%esp
    3832:	c9                   	leave  
    3833:	c3                   	ret    
    3834:	8d 74 26 00          	lea    0x0(%esi,%eiz,1),%esi
    3838:	50                   	push   %eax
    3839:	50                   	push   %eax
    383a:	68 c3 9f 00 00       	push   $0x9fc3
    383f:	68 c0 b9 00 00       	push   $0xb9c0
    3844:	e8 a7 97 00 00       	call   cff0 <printf@plt>
    3849:	83 c4 10             	add    $0x10,%esp
    384c:	c9                   	leave  
    384d:	c3                   	ret    
    384e:	66 90                	xchg   %ax,%ax

00003850 <cmd_sleep>:
    3850:	55                   	push   %ebp
    3851:	89 e5                	mov    %esp,%ebp
    3853:	56                   	push   %esi
    3854:	53                   	push   %ebx
    3855:	83 ec 2c             	sub    $0x2c,%esp
    3858:	8b 5d 08             	mov    0x8(%ebp),%ebx
    385b:	53                   	push   %ebx
    385c:	e8 7f 30 00 00       	call   68e0 <cli_count_args>
    3861:	83 c4 10             	add    $0x10,%esp
    3864:	83 f8 02             	cmp    $0x2,%eax
    3867:	74 27                	je     3890 <cmd_sleep+0x40>
    3869:	52                   	push   %edx
    386a:	68 c3 9f 00 00       	push   $0x9fc3
    386f:	68 c3 9f 00 00       	push   $0x9fc3
    3874:	68 2c ba 00 00       	push   $0xba2c
    3879:	e8 72 97 00 00       	call   cff0 <printf@plt>
    387e:	83 c4 10             	add    $0x10,%esp
    3881:	8d 65 f8             	lea    -0x8(%ebp),%esp
    3884:	b8 01 00 00 00       	mov    $0x1,%eax
    3889:	5b                   	pop    %ebx
    388a:	5e                   	pop    %esi
    388b:	5d                   	pop    %ebp
    388c:	c3                   	ret    
    388d:	8d 76 00             	lea    0x0(%esi),%esi
    3890:	8b 43 04             	mov    0x4(%ebx),%eax
    3893:	80 38 2e             	cmpb   $0x2e,(%eax)
    3896:	74 50                	je     38e8 <cmd_sleep+0x98>
    3898:	83 ec 0c             	sub    $0xc,%esp
    389b:	8d 55 e8             	lea    -0x18(%ebp),%edx
    389e:	52                   	push   %edx
    389f:	8d 55 e4             	lea    -0x1c(%ebp),%edx
    38a2:	6a 00                	push   $0x0
    38a4:	6a 0a                	push   $0xa
    38a6:	52                   	push   %edx
    38a7:	50                   	push   %eax
    38a8:	e8 23 9b 00 00       	call   d3d0 <str_uint64_t@plt>
    38ad:	83 c4 20             	add    $0x20,%esp
    38b0:	85 c0                	test   %eax,%eax
    38b2:	75 12                	jne    38c6 <cmd_sleep+0x76>
    38b4:	8b 45 e4             	mov    -0x1c(%ebp),%eax
    38b7:	8a 10                	mov    (%eax),%dl
    38b9:	84 d2                	test   %dl,%dl
    38bb:	74 42                	je     38ff <cmd_sleep+0xaf>
    38bd:	80 fa 2e             	cmp    $0x2e,%dl
    38c0:	0f 84 8a 00 00 00    	je     3950 <cmd_sleep+0x100>
    38c6:	50                   	push   %eax
    38c7:	50                   	push   %eax
    38c8:	68 c3 9f 00 00       	push   $0x9fc3
    38cd:	68 a6 b9 00 00       	push   $0xb9a6
    38d2:	e8 19 97 00 00       	call   cff0 <printf@plt>
    38d7:	83 c4 10             	add    $0x10,%esp
    38da:	8d 65 f8             	lea    -0x8(%ebp),%esp
    38dd:	b8 01 00 00 00       	mov    $0x1,%eax
    38e2:	5b                   	pop    %ebx
    38e3:	5e                   	pop    %esi
    38e4:	5d                   	pop    %ebp
    38e5:	c3                   	ret    
    38e6:	66 90                	xchg   %ax,%ax
    38e8:	c7 45 e8 00 00 00 00 	movl   $0x0,-0x18(%ebp)
    38ef:	c7 45 ec 00 00 00 00 	movl   $0x0,-0x14(%ebp)
    38f6:	89 45 e4             	mov    %eax,-0x1c(%ebp)
    38f9:	8a 10                	mov    (%eax),%dl
    38fb:	84 d2                	test   %dl,%dl
    38fd:	75 be                	jne    38bd <cmd_sleep+0x6d>
    38ff:	c7 45 f0 00 00 00 00 	movl   $0x0,-0x10(%ebp)
    3906:	c7 45 f4 00 00 00 00 	movl   $0x0,-0xc(%ebp)
    390d:	31 c0                	xor    %eax,%eax
    390f:	8b 4d e8             	mov    -0x18(%ebp),%ecx
    3912:	89 ca                	mov    %ecx,%edx
    3914:	c1 e2 05             	shl    $0x5,%edx
    3917:	29 ca                	sub    %ecx,%edx
    3919:	89 d3                	mov    %edx,%ebx
    391b:	c1 e3 06             	shl    $0x6,%ebx
    391e:	29 d3                	sub    %edx,%ebx
    3920:	ba 83 de 1b 43       	mov    $0x431bde83,%edx
    3925:	8d 1c d9             	lea    (%ecx,%ebx,8),%ebx
    3928:	c1 e3 06             	shl    $0x6,%ebx
    392b:	01 c3                	add    %eax,%ebx
    392d:	89 d8                	mov    %ebx,%eax
    392f:	f7 e2                	mul    %edx
    3931:	c1 ea 12             	shr    $0x12,%edx
    3934:	31 d1                	xor    %edx,%ecx
    3936:	0b 4d ec             	or     -0x14(%ebp),%ecx
    3939:	75 8b                	jne    38c6 <cmd_sleep+0x76>
    393b:	83 ec 0c             	sub    $0xc,%esp
    393e:	53                   	push   %ebx
    393f:	e8 4c 97 00 00       	call   d090 <usleep@plt>
    3944:	83 c4 10             	add    $0x10,%esp
    3947:	8d 65 f8             	lea    -0x8(%ebp),%esp
    394a:	31 c0                	xor    %eax,%eax
    394c:	5b                   	pop    %ebx
    394d:	5e                   	pop    %esi
    394e:	5d                   	pop    %ebp
    394f:	c3                   	ret    
    3950:	80 78 01 00          	cmpb   $0x0,0x1(%eax)
    3954:	74 a9                	je     38ff <cmd_sleep+0xaf>
    3956:	83 ec 0c             	sub    $0xc,%esp
    3959:	8d 58 01             	lea    0x1(%eax),%ebx
    395c:	8d 45 f0             	lea    -0x10(%ebp),%eax
    395f:	50                   	push   %eax
    3960:	8d 45 e4             	lea    -0x1c(%ebp),%eax
    3963:	6a 01                	push   $0x1
    3965:	6a 0a                	push   $0xa
    3967:	50                   	push   %eax
    3968:	53                   	push   %ebx
    3969:	e8 62 9a 00 00       	call   d3d0 <str_uint64_t@plt>
    396e:	83 c4 20             	add    $0x20,%esp
    3971:	85 c0                	test   %eax,%eax
    3973:	0f 85 4d ff ff ff    	jne    38c6 <cmd_sleep+0x76>
    3979:	8b 75 e4             	mov    -0x1c(%ebp),%esi
    397c:	8b 45 f0             	mov    -0x10(%ebp),%eax
    397f:	29 de                	sub    %ebx,%esi
    3981:	8b 55 f4             	mov    -0xc(%ebp),%edx
    3984:	83 fe 05             	cmp    $0x5,%esi
    3987:	7f 2d                	jg     39b6 <cmd_sleep+0x166>
    3989:	8d b4 26 00 00 00 00 	lea    0x0(%esi,%eiz,1),%esi
    3990:	89 c1                	mov    %eax,%ecx
    3992:	89 d3                	mov    %edx,%ebx
    3994:	0f a4 cb 02          	shld   $0x2,%ecx,%ebx
    3998:	c1 e1 02             	shl    $0x2,%ecx
    399b:	01 c8                	add    %ecx,%eax
    399d:	11 da                	adc    %ebx,%edx
    399f:	46                   	inc    %esi
    39a0:	0f a4 c2 01          	shld   $0x1,%eax,%edx
    39a4:	01 c0                	add    %eax,%eax
    39a6:	83 fe 06             	cmp    $0x6,%esi
    39a9:	75 e5                	jne    3990 <cmd_sleep+0x140>
    39ab:	89 45 f0             	mov    %eax,-0x10(%ebp)
    39ae:	89 55 f4             	mov    %edx,-0xc(%ebp)
    39b1:	e9 59 ff ff ff       	jmp    390f <cmd_sleep+0xbf>
    39b6:	83 fe 06             	cmp    $0x6,%esi
    39b9:	0f 84 50 ff ff ff    	je     390f <cmd_sleep+0xbf>
    39bf:	90                   	nop
    39c0:	6a 00                	push   $0x0
    39c2:	4e                   	dec    %esi
    39c3:	6a 0a                	push   $0xa
    39c5:	52                   	push   %edx
    39c6:	50                   	push   %eax
    39c7:	e8 c4 97 00 00       	call   d190 <__udivdi3@plt>
    39cc:	83 c4 10             	add    $0x10,%esp
    39cf:	83 fe 06             	cmp    $0x6,%esi
    39d2:	75 ec                	jne    39c0 <cmd_sleep+0x170>
    39d4:	eb d5                	jmp    39ab <cmd_sleep+0x15b>
    39d6:	66 90                	xchg   %ax,%ax
    39d8:	66 90                	xchg   %ax,%ax
    39da:	66 90                	xchg   %ax,%ax
    39dc:	66 90                	xchg   %ax,%ax
    39de:	66 90                	xchg   %ax,%ax

000039e0 <get_user_decision.constprop.2>:
    39e0:	55                   	push   %ebp
    39e1:	89 e5                	mov    %esp,%ebp
    39e3:	53                   	push   %ebx
    39e4:	83 ec 3c             	sub    $0x3c,%esp
    39e7:	8d 45 10             	lea    0x10(%ebp),%eax
    39ea:	8d 5d d4             	lea    -0x2c(%ebp),%ebx
    39ed:	50                   	push   %eax
    39ee:	68 60 ba 00 00       	push   $0xba60
    39f3:	e8 58 98 00 00       	call   d250 <vprintf@plt>
    39f8:	83 c4 10             	add    $0x10,%esp
    39fb:	90                   	nop
    39fc:	8d 74 26 00          	lea    0x0(%esi,%eiz,1),%esi
    3a00:	83 ec 0c             	sub    $0xc,%esp
    3a03:	8b 0d d4 f8 00 00    	mov    0xf8d4,%ecx
    3a09:	51                   	push   %ecx
    3a0a:	e8 a1 99 00 00       	call   d3b0 <console_flush@plt>
    3a0f:	8b 0d d4 f8 00 00    	mov    0xf8d4,%ecx
    3a15:	58                   	pop    %eax
    3a16:	5a                   	pop    %edx
    3a17:	53                   	push   %ebx
    3a18:	51                   	push   %ecx
    3a19:	e8 52 97 00 00       	call   d170 <console_get_event@plt>
    3a1e:	8b 45 dc             	mov    -0x24(%ebp),%eax
    3a21:	83 c4 10             	add    $0x10,%esp
    3a24:	85 c0                	test   %eax,%eax
    3a26:	75 d8                	jne    3a00 <get_user_decision.constprop.2+0x20>
    3a28:	8b 55 e8             	mov    -0x18(%ebp),%edx
    3a2b:	85 d2                	test   %edx,%edx
    3a2d:	75 d1                	jne    3a00 <get_user_decision.constprop.2+0x20>
    3a2f:	f6 45 f0 3c          	testb  $0x3c,-0x10(%ebp)
    3a33:	75 cb                	jne    3a00 <get_user_decision.constprop.2+0x20>
    3a35:	8b 45 ec             	mov    -0x14(%ebp),%eax
    3a38:	83 f8 2a             	cmp    $0x2a,%eax
    3a3b:	74 3b                	je     3a78 <get_user_decision.constprop.2+0x98>
    3a3d:	83 f8 31             	cmp    $0x31,%eax
    3a40:	74 1e                	je     3a60 <get_user_decision.constprop.2+0x80>
    3a42:	83 f8 15             	cmp    $0x15,%eax
    3a45:	75 b9                	jne    3a00 <get_user_decision.constprop.2+0x20>
    3a47:	83 ec 0c             	sub    $0xc,%esp
    3a4a:	68 16 bd 00 00       	push   $0xbd16
    3a4f:	e8 9c 95 00 00       	call   cff0 <printf@plt>
    3a54:	83 c4 10             	add    $0x10,%esp
    3a57:	b0 01                	mov    $0x1,%al
    3a59:	8b 5d fc             	mov    -0x4(%ebp),%ebx
    3a5c:	c9                   	leave  
    3a5d:	c3                   	ret    
    3a5e:	66 90                	xchg   %ax,%ax
    3a60:	83 ec 0c             	sub    $0xc,%esp
    3a63:	68 8e bc 00 00       	push   $0xbc8e
    3a68:	e8 83 95 00 00       	call   cff0 <printf@plt>
    3a6d:	83 c4 10             	add    $0x10,%esp
    3a70:	31 c0                	xor    %eax,%eax
    3a72:	8b 5d fc             	mov    -0x4(%ebp),%ebx
    3a75:	c9                   	leave  
    3a76:	c3                   	ret    
    3a77:	90                   	nop
    3a78:	50                   	push   %eax
    3a79:	50                   	push   %eax
    3a7a:	6a 4e                	push   $0x4e
    3a7c:	68 91 bc 00 00       	push   $0xbc91
    3a81:	e8 6a 95 00 00       	call   cff0 <printf@plt>
    3a86:	83 c4 10             	add    $0x10,%esp
    3a89:	31 c0                	xor    %eax,%eax
    3a8b:	8b 5d fc             	mov    -0x4(%ebp),%ebx
    3a8e:	c9                   	leave  
    3a8f:	c3                   	ret    

00003a90 <do_copy>:
    3a90:	55                   	push   %ebp
    3a91:	89 e5                	mov    %esp,%ebp
    3a93:	57                   	push   %edi
    3a94:	56                   	push   %esi
    3a95:	53                   	push   %ebx
    3a96:	81 ec 74 04 00 00    	sub    $0x474,%esp
    3a9c:	8d 9d e8 fe ff ff    	lea    -0x118(%ebp),%ebx
    3aa2:	89 85 a0 fb ff ff    	mov    %eax,-0x460(%ebp)
    3aa8:	89 d6                	mov    %edx,%esi
    3aaa:	53                   	push   %ebx
    3aab:	89 8d 9c fb ff ff    	mov    %ecx,-0x464(%ebp)
    3ab1:	50                   	push   %eax
    3ab2:	e8 59 99 00 00       	call   d410 <stat@plt>
    3ab7:	83 c4 10             	add    $0x10,%esp
    3aba:	85 c0                	test   %eax,%eax
    3abc:	0f 85 8b 00 00 00    	jne    3b4d <do_copy+0xbd>
    3ac2:	bf 02 00 00 00       	mov    $0x2,%edi
    3ac7:	80 bd f9 fe ff ff 00 	cmpb   $0x0,-0x107(%ebp)
    3ace:	74 70                	je     3b40 <do_copy+0xb0>
    3ad0:	51                   	push   %ecx
    3ad1:	51                   	push   %ecx
    3ad2:	53                   	push   %ebx
    3ad3:	56                   	push   %esi
    3ad4:	e8 37 99 00 00       	call   d410 <stat@plt>
    3ad9:	83 c4 10             	add    $0x10,%esp
    3adc:	85 c0                	test   %eax,%eax
    3ade:	75 7f                	jne    3b5f <do_copy+0xcf>
    3ae0:	c7 85 98 fb ff ff 02 	movl   $0x2,-0x468(%ebp)
    3ae7:	00 00 00 
    3aea:	80 bd f9 fe ff ff 00 	cmpb   $0x0,-0x107(%ebp)
    3af1:	0f 84 79 02 00 00    	je     3d70 <do_copy+0x2e0>
    3af7:	83 ec 0c             	sub    $0xc,%esp
    3afa:	8b 85 a0 fb ff ff    	mov    -0x460(%ebp),%eax
    3b00:	50                   	push   %eax
    3b01:	e8 ba 98 00 00       	call   d3c0 <str_size@plt>
    3b06:	83 c4 10             	add    $0x10,%esp
    3b09:	83 ff 01             	cmp    $0x1,%edi
    3b0c:	0f 84 c6 05 00 00    	je     40d8 <do_copy+0x648>
    3b12:	83 ff 02             	cmp    $0x2,%edi
    3b15:	74 69                	je     3b80 <do_copy+0xf0>
    3b17:	50                   	push   %eax
    3b18:	50                   	push   %eax
    3b19:	8b 85 a0 fb ff ff    	mov    -0x460(%ebp),%eax
    3b1f:	50                   	push   %eax
    3b20:	68 b4 ba 00 00       	push   $0xbab4
    3b25:	e8 c6 94 00 00       	call   cff0 <printf@plt>
    3b2a:	83 c4 10             	add    $0x10,%esp
    3b2d:	83 c8 ff             	or     $0xffffffff,%eax
    3b30:	83 ca ff             	or     $0xffffffff,%edx
    3b33:	8d 65 f4             	lea    -0xc(%ebp),%esp
    3b36:	5b                   	pop    %ebx
    3b37:	5e                   	pop    %esi
    3b38:	5f                   	pop    %edi
    3b39:	5d                   	pop    %ebp
    3b3a:	c3                   	ret    
    3b3b:	90                   	nop
    3b3c:	8d 74 26 00          	lea    0x0(%esi,%eiz,1),%esi
    3b40:	80 bd f8 fe ff ff 00 	cmpb   $0x0,-0x108(%ebp)
    3b47:	0f 85 db 02 00 00    	jne    3e28 <do_copy+0x398>
    3b4d:	51                   	push   %ecx
    3b4e:	51                   	push   %ecx
    3b4f:	53                   	push   %ebx
    3b50:	56                   	push   %esi
    3b51:	e8 ba 98 00 00       	call   d410 <stat@plt>
    3b56:	31 ff                	xor    %edi,%edi
    3b58:	83 c4 10             	add    $0x10,%esp
    3b5b:	85 c0                	test   %eax,%eax
    3b5d:	74 81                	je     3ae0 <do_copy+0x50>
    3b5f:	83 ec 0c             	sub    $0xc,%esp
    3b62:	8b 85 a0 fb ff ff    	mov    -0x460(%ebp),%eax
    3b68:	50                   	push   %eax
    3b69:	e8 52 98 00 00       	call   d3c0 <str_size@plt>
    3b6e:	83 c4 10             	add    $0x10,%esp
    3b71:	c7 85 98 fb ff ff 00 	movl   $0x0,-0x468(%ebp)
    3b78:	00 00 00 
    3b7b:	83 ff 02             	cmp    $0x2,%edi
    3b7e:	75 97                	jne    3b17 <do_copy+0x87>
    3b80:	8b 55 0c             	mov    0xc(%ebp),%edx
    3b83:	85 d2                	test   %edx,%edx
    3b85:	0f 84 05 05 00 00    	je     4090 <do_copy+0x600>
    3b8b:	83 bd 98 fb ff ff 01 	cmpl   $0x1,-0x468(%ebp)
    3b92:	0f 84 20 05 00 00    	je     40b8 <do_copy+0x628>
    3b98:	8b 8d a0 fb ff ff    	mov    -0x460(%ebp),%ecx
    3b9e:	40                   	inc    %eax
    3b9f:	8d bd ea fc ff ff    	lea    -0x316(%ebp),%edi
    3ba5:	52                   	push   %edx
    3ba6:	51                   	push   %ecx
    3ba7:	50                   	push   %eax
    3ba8:	57                   	push   %edi
    3ba9:	e8 c2 97 00 00       	call   d370 <str_cpy@plt>
    3bae:	58                   	pop    %eax
    3baf:	5a                   	pop    %edx
    3bb0:	6a 2f                	push   $0x2f
    3bb2:	57                   	push   %edi
    3bb3:	e8 88 95 00 00       	call   d140 <str_rtrim@plt>
    3bb8:	59                   	pop    %ecx
    3bb9:	58                   	pop    %eax
    3bba:	6a 2f                	push   $0x2f
    3bbc:	57                   	push   %edi
    3bbd:	e8 2e 95 00 00       	call   d0f0 <str_rchr@plt>
    3bc2:	83 c4 10             	add    $0x10,%esp
    3bc5:	85 c0                	test   %eax,%eax
    3bc7:	74 03                	je     3bcc <do_copy+0x13c>
    3bc9:	8d 78 01             	lea    0x1(%eax),%edi
    3bcc:	50                   	push   %eax
    3bcd:	8d 85 eb fb ff ff    	lea    -0x415(%ebp),%eax
    3bd3:	56                   	push   %esi
    3bd4:	68 ff 00 00 00       	push   $0xff
    3bd9:	50                   	push   %eax
    3bda:	89 85 a4 fb ff ff    	mov    %eax,-0x45c(%ebp)
    3be0:	e8 8b 97 00 00       	call   d370 <str_cpy@plt>
    3be5:	83 c4 10             	add    $0x10,%esp
    3be8:	83 bd 98 fb ff ff 02 	cmpl   $0x2,-0x468(%ebp)
    3bef:	0f 84 93 01 00 00    	je     3d88 <do_copy+0x2f8>
    3bf5:	50                   	push   %eax
    3bf6:	50                   	push   %eax
    3bf7:	8b 85 a4 fb ff ff    	mov    -0x45c(%ebp),%eax
    3bfd:	6a 00                	push   $0x0
    3bff:	50                   	push   %eax
    3c00:	e8 eb 98 00 00       	call   d4f0 <mkdir@plt>
    3c05:	83 c4 10             	add    $0x10,%esp
    3c08:	85 c0                	test   %eax,%eax
    3c0a:	0f 85 f0 01 00 00    	jne    3e00 <do_copy+0x370>
    3c10:	83 ec 0c             	sub    $0xc,%esp
    3c13:	8b bd a0 fb ff ff    	mov    -0x460(%ebp),%edi
    3c19:	57                   	push   %edi
    3c1a:	e8 41 97 00 00       	call   d360 <opendir@plt>
    3c1f:	83 c4 10             	add    $0x10,%esp
    3c22:	89 85 98 fb ff ff    	mov    %eax,-0x468(%ebp)
    3c28:	85 c0                	test   %eax,%eax
    3c2a:	0f 84 61 06 00 00    	je     4291 <do_copy+0x801>
    3c30:	c7 85 94 fb ff ff ff 	movl   $0xffffffff,-0x46c(%ebp)
    3c37:	ff ff ff 
    3c3a:	8d b5 e9 fd ff ff    	lea    -0x217(%ebp),%esi
    3c40:	eb 36                	jmp    3c78 <do_copy+0x1e8>
    3c42:	8d b6 00 00 00 00    	lea    0x0(%esi),%esi
    3c48:	8b 45 14             	mov    0x14(%ebp),%eax
    3c4b:	8b 55 0c             	mov    0xc(%ebp),%edx
    3c4e:	50                   	push   %eax
    3c4f:	8b 4d 08             	mov    0x8(%ebp),%ecx
    3c52:	8b 45 10             	mov    0x10(%ebp),%eax
    3c55:	50                   	push   %eax
    3c56:	89 f0                	mov    %esi,%eax
    3c58:	52                   	push   %edx
    3c59:	89 da                	mov    %ebx,%edx
    3c5b:	51                   	push   %ecx
    3c5c:	8b 8d 9c fb ff ff    	mov    -0x464(%ebp),%ecx
    3c62:	e8 29 fe ff ff       	call   3a90 <do_copy>
    3c67:	83 c4 10             	add    $0x10,%esp
    3c6a:	89 85 94 fb ff ff    	mov    %eax,-0x46c(%ebp)
    3c70:	85 c0                	test   %eax,%eax
    3c72:	0f 85 f3 03 00 00    	jne    406b <do_copy+0x5db>
    3c78:	83 ec 0c             	sub    $0xc,%esp
    3c7b:	8b 85 98 fb ff ff    	mov    -0x468(%ebp),%eax
    3c81:	50                   	push   %eax
    3c82:	e8 a9 94 00 00       	call   d130 <readdir@plt>
    3c87:	83 c4 10             	add    $0x10,%esp
    3c8a:	89 c7                	mov    %eax,%edi
    3c8c:	85 c0                	test   %eax,%eax
    3c8e:	0f 84 d7 03 00 00    	je     406b <do_copy+0x5db>
    3c94:	50                   	push   %eax
    3c95:	8b 85 a0 fb ff ff    	mov    -0x460(%ebp),%eax
    3c9b:	50                   	push   %eax
    3c9c:	68 ff 00 00 00       	push   $0xff
    3ca1:	56                   	push   %esi
    3ca2:	e8 c9 96 00 00       	call   d370 <str_cpy@plt>
    3ca7:	58                   	pop    %eax
    3ca8:	5a                   	pop    %edx
    3ca9:	6a 2f                	push   $0x2f
    3cab:	56                   	push   %esi
    3cac:	e8 8f 94 00 00       	call   d140 <str_rtrim@plt>
    3cb1:	83 c4 0c             	add    $0xc,%esp
    3cb4:	68 72 b7 00 00       	push   $0xb772
    3cb9:	68 ff 00 00 00       	push   $0xff
    3cbe:	56                   	push   %esi
    3cbf:	e8 8c 94 00 00       	call   d150 <str_append@plt>
    3cc4:	83 c4 0c             	add    $0xc,%esp
    3cc7:	57                   	push   %edi
    3cc8:	68 ff 00 00 00       	push   $0xff
    3ccd:	56                   	push   %esi
    3cce:	e8 7d 94 00 00       	call   d150 <str_append@plt>
    3cd3:	83 c4 0c             	add    $0xc,%esp
    3cd6:	8b 8d a4 fb ff ff    	mov    -0x45c(%ebp),%ecx
    3cdc:	51                   	push   %ecx
    3cdd:	68 ff 00 00 00       	push   $0xff
    3ce2:	53                   	push   %ebx
    3ce3:	e8 88 96 00 00       	call   d370 <str_cpy@plt>
    3ce8:	58                   	pop    %eax
    3ce9:	5a                   	pop    %edx
    3cea:	6a 2f                	push   $0x2f
    3cec:	53                   	push   %ebx
    3ced:	e8 4e 94 00 00       	call   d140 <str_rtrim@plt>
    3cf2:	83 c4 0c             	add    $0xc,%esp
    3cf5:	68 72 b7 00 00       	push   $0xb772
    3cfa:	68 ff 00 00 00       	push   $0xff
    3cff:	53                   	push   %ebx
    3d00:	e8 4b 94 00 00       	call   d150 <str_append@plt>
    3d05:	83 c4 0c             	add    $0xc,%esp
    3d08:	57                   	push   %edi
    3d09:	68 ff 00 00 00       	push   $0xff
    3d0e:	53                   	push   %ebx
    3d0f:	e8 3c 94 00 00       	call   d150 <str_append@plt>
    3d14:	8d 85 a8 fb ff ff    	lea    -0x458(%ebp),%eax
    3d1a:	59                   	pop    %ecx
    3d1b:	5f                   	pop    %edi
    3d1c:	50                   	push   %eax
    3d1d:	56                   	push   %esi
    3d1e:	e8 ed 96 00 00       	call   d410 <stat@plt>
    3d23:	58                   	pop    %eax
    3d24:	8b 8d a4 fb ff ff    	mov    -0x45c(%ebp),%ecx
    3d2a:	8d 85 c8 fb ff ff    	lea    -0x438(%ebp),%eax
    3d30:	5a                   	pop    %edx
    3d31:	50                   	push   %eax
    3d32:	51                   	push   %ecx
    3d33:	e8 d8 96 00 00       	call   d410 <stat@plt>
    3d38:	8b 85 b0 fb ff ff    	mov    -0x450(%ebp),%eax
    3d3e:	83 c4 10             	add    $0x10,%esp
    3d41:	39 85 d0 fb ff ff    	cmp    %eax,-0x430(%ebp)
    3d47:	0f 84 fb 02 00 00    	je     4048 <do_copy+0x5b8>
    3d4d:	8b 45 08             	mov    0x8(%ebp),%eax
    3d50:	85 c0                	test   %eax,%eax
    3d52:	0f 84 f0 fe ff ff    	je     3c48 <do_copy+0x1b8>
    3d58:	57                   	push   %edi
    3d59:	53                   	push   %ebx
    3d5a:	56                   	push   %esi
    3d5b:	68 35 bd 00 00       	push   $0xbd35
    3d60:	e8 8b 92 00 00       	call   cff0 <printf@plt>
    3d65:	83 c4 10             	add    $0x10,%esp
    3d68:	e9 db fe ff ff       	jmp    3c48 <do_copy+0x1b8>
    3d6d:	8d 76 00             	lea    0x0(%esi),%esi
    3d70:	31 c0                	xor    %eax,%eax
    3d72:	8a 85 f8 fe ff ff    	mov    -0x108(%ebp),%al
    3d78:	89 85 98 fb ff ff    	mov    %eax,-0x468(%ebp)
    3d7e:	e9 74 fd ff ff       	jmp    3af7 <do_copy+0x67>
    3d83:	90                   	nop
    3d84:	8d 74 26 00          	lea    0x0(%esi,%eiz,1),%esi
    3d88:	56                   	push   %esi
    3d89:	56                   	push   %esi
    3d8a:	68 32 bd 00 00       	push   $0xbd32
    3d8f:	57                   	push   %edi
    3d90:	e8 6b 95 00 00       	call   d300 <str_cmp@plt>
    3d95:	83 c4 10             	add    $0x10,%esp
    3d98:	85 c0                	test   %eax,%eax
    3d9a:	0f 84 70 fe ff ff    	je     3c10 <do_copy+0x180>
    3da0:	51                   	push   %ecx
    3da1:	51                   	push   %ecx
    3da2:	68 33 bd 00 00       	push   $0xbd33
    3da7:	57                   	push   %edi
    3da8:	e8 53 95 00 00       	call   d300 <str_cmp@plt>
    3dad:	83 c4 10             	add    $0x10,%esp
    3db0:	85 c0                	test   %eax,%eax
    3db2:	0f 84 58 fe ff ff    	je     3c10 <do_copy+0x180>
    3db8:	8b b5 a4 fb ff ff    	mov    -0x45c(%ebp),%esi
    3dbe:	50                   	push   %eax
    3dbf:	50                   	push   %eax
    3dc0:	6a 2f                	push   $0x2f
    3dc2:	56                   	push   %esi
    3dc3:	e8 78 93 00 00       	call   d140 <str_rtrim@plt>
    3dc8:	83 c4 0c             	add    $0xc,%esp
    3dcb:	68 72 b7 00 00       	push   $0xb772
    3dd0:	68 ff 00 00 00       	push   $0xff
    3dd5:	56                   	push   %esi
    3dd6:	e8 75 93 00 00       	call   d150 <str_append@plt>
    3ddb:	83 c4 0c             	add    $0xc,%esp
    3dde:	57                   	push   %edi
    3ddf:	68 ff 00 00 00       	push   $0xff
    3de4:	56                   	push   %esi
    3de5:	e8 66 93 00 00       	call   d150 <str_append@plt>
    3dea:	58                   	pop    %eax
    3deb:	5a                   	pop    %edx
    3dec:	6a 00                	push   $0x0
    3dee:	56                   	push   %esi
    3def:	e8 fc 96 00 00       	call   d4f0 <mkdir@plt>
    3df4:	83 c4 10             	add    $0x10,%esp
    3df7:	85 c0                	test   %eax,%eax
    3df9:	0f 84 11 fe ff ff    	je     3c10 <do_copy+0x180>
    3dff:	90                   	nop
    3e00:	50                   	push   %eax
    3e01:	50                   	push   %eax
    3e02:	8b 85 a4 fb ff ff    	mov    -0x45c(%ebp),%eax
    3e08:	50                   	push   %eax
    3e09:	68 58 bb 00 00       	push   $0xbb58
    3e0e:	e8 dd 91 00 00       	call   cff0 <printf@plt>
    3e13:	83 c4 10             	add    $0x10,%esp
    3e16:	83 c8 ff             	or     $0xffffffff,%eax
    3e19:	83 ca ff             	or     $0xffffffff,%edx
    3e1c:	e9 12 fd ff ff       	jmp    3b33 <do_copy+0xa3>
    3e21:	8d b4 26 00 00 00 00 	lea    0x0(%esi,%eiz,1),%esi
    3e28:	50                   	push   %eax
    3e29:	50                   	push   %eax
    3e2a:	53                   	push   %ebx
    3e2b:	56                   	push   %esi
    3e2c:	e8 df 95 00 00       	call   d410 <stat@plt>
    3e31:	83 c4 10             	add    $0x10,%esp
    3e34:	85 c0                	test   %eax,%eax
    3e36:	0f 84 75 05 00 00    	je     43b1 <do_copy+0x921>
    3e3c:	83 ec 0c             	sub    $0xc,%esp
    3e3f:	8b bd a0 fb ff ff    	mov    -0x460(%ebp),%edi
    3e45:	57                   	push   %edi
    3e46:	e8 75 95 00 00       	call   d3c0 <str_size@plt>
    3e4b:	83 c4 0c             	add    $0xc,%esp
    3e4e:	40                   	inc    %eax
    3e4f:	57                   	push   %edi
    3e50:	8d bd ea fc ff ff    	lea    -0x316(%ebp),%edi
    3e56:	50                   	push   %eax
    3e57:	57                   	push   %edi
    3e58:	e8 13 95 00 00       	call   d370 <str_cpy@plt>
    3e5d:	5a                   	pop    %edx
    3e5e:	59                   	pop    %ecx
    3e5f:	6a 2f                	push   $0x2f
    3e61:	57                   	push   %edi
    3e62:	e8 d9 92 00 00       	call   d140 <str_rtrim@plt>
    3e67:	58                   	pop    %eax
    3e68:	5a                   	pop    %edx
    3e69:	6a 2f                	push   $0x2f
    3e6b:	57                   	push   %edi
    3e6c:	e8 7f 92 00 00       	call   d0f0 <str_rchr@plt>
    3e71:	83 c4 10             	add    $0x10,%esp
    3e74:	85 c0                	test   %eax,%eax
    3e76:	0f 84 d1 02 00 00    	je     414d <do_copy+0x6bd>
    3e7c:	c7 85 98 fb ff ff 00 	movl   $0x0,-0x468(%ebp)
    3e83:	00 00 00 
    3e86:	8d 78 01             	lea    0x1(%eax),%edi
    3e89:	50                   	push   %eax
    3e8a:	8d 85 eb fb ff ff    	lea    -0x415(%ebp),%eax
    3e90:	56                   	push   %esi
    3e91:	68 ff 00 00 00       	push   $0xff
    3e96:	50                   	push   %eax
    3e97:	89 85 a4 fb ff ff    	mov    %eax,-0x45c(%ebp)
    3e9d:	e8 ce 94 00 00       	call   d370 <str_cpy@plt>
    3ea2:	83 c4 10             	add    $0x10,%esp
    3ea5:	83 bd 98 fb ff ff 02 	cmpl   $0x2,-0x468(%ebp)
    3eac:	0f 84 6b 03 00 00    	je     421d <do_copy+0x78d>
    3eb2:	8b 8d 98 fb ff ff    	mov    -0x468(%ebp),%ecx
    3eb8:	85 c9                	test   %ecx,%ecx
    3eba:	0f 84 a9 02 00 00    	je     4169 <do_copy+0x6d9>
    3ec0:	8b 55 10             	mov    0x10(%ebp),%edx
    3ec3:	85 d2                	test   %edx,%edx
    3ec5:	74 0b                	je     3ed2 <do_copy+0x442>
    3ec7:	8b 45 14             	mov    0x14(%ebp),%eax
    3eca:	85 c0                	test   %eax,%eax
    3ecc:	0f 84 40 02 00 00    	je     4112 <do_copy+0x682>
    3ed2:	8b 75 10             	mov    0x10(%ebp),%esi
    3ed5:	85 f6                	test   %esi,%esi
    3ed7:	0f 85 03 03 00 00    	jne    41e0 <do_copy+0x750>
    3edd:	8b 5d 14             	mov    0x14(%ebp),%ebx
    3ee0:	85 db                	test   %ebx,%ebx
    3ee2:	0f 84 f8 02 00 00    	je     41e0 <do_copy+0x750>
    3ee8:	8b bd a4 fb ff ff    	mov    -0x45c(%ebp),%edi
    3eee:	51                   	push   %ecx
    3eef:	57                   	push   %edi
    3ef0:	68 60 ba 00 00       	push   $0xba60
    3ef5:	6a 00                	push   $0x0
    3ef7:	e8 e4 fa ff ff       	call   39e0 <get_user_decision.constprop.2>
    3efc:	83 c4 10             	add    $0x10,%esp
    3eff:	84 c0                	test   %al,%al
    3f01:	0f 84 ab 03 00 00    	je     42b2 <do_copy+0x822>
    3f07:	52                   	push   %edx
    3f08:	52                   	push   %edx
    3f09:	57                   	push   %edi
    3f0a:	68 aa bc 00 00       	push   $0xbcaa
    3f0f:	e8 dc 90 00 00       	call   cff0 <printf@plt>
    3f14:	89 3c 24             	mov    %edi,(%esp)
    3f17:	e8 a4 93 00 00       	call   d2c0 <unlink@plt>
    3f1c:	83 c4 10             	add    $0x10,%esp
    3f1f:	85 c0                	test   %eax,%eax
    3f21:	0f 85 05 02 00 00    	jne    412c <do_copy+0x69c>
    3f27:	90                   	nop
    3f28:	8b 45 08             	mov    0x8(%ebp),%eax
    3f2b:	85 c0                	test   %eax,%eax
    3f2d:	0f 85 77 02 00 00    	jne    41aa <do_copy+0x71a>
    3f33:	8b 9d a0 fb ff ff    	mov    -0x460(%ebp),%ebx
    3f39:	51                   	push   %ecx
    3f3a:	51                   	push   %ecx
    3f3b:	6a 10                	push   $0x10
    3f3d:	53                   	push   %ebx
    3f3e:	e8 5d 95 00 00       	call   d4a0 <open@plt>
    3f43:	83 c4 10             	add    $0x10,%esp
    3f46:	89 85 98 fb ff ff    	mov    %eax,-0x468(%ebp)
    3f4c:	40                   	inc    %eax
    3f4d:	0f 84 3c 04 00 00    	je     438f <do_copy+0x8ff>
    3f53:	50                   	push   %eax
    3f54:	50                   	push   %eax
    3f55:	8b 85 a4 fb ff ff    	mov    -0x45c(%ebp),%eax
    3f5b:	6a 01                	push   $0x1
    3f5d:	50                   	push   %eax
    3f5e:	e8 3d 95 00 00       	call   d4a0 <open@plt>
    3f63:	83 c4 10             	add    $0x10,%esp
    3f66:	89 85 94 fb ff ff    	mov    %eax,-0x46c(%ebp)
    3f6c:	40                   	inc    %eax
    3f6d:	0f 84 ed 03 00 00    	je     4360 <do_copy+0x8d0>
    3f73:	8b 9d 98 fb ff ff    	mov    -0x468(%ebp),%ebx
    3f79:	6a 02                	push   $0x2
    3f7b:	6a 00                	push   $0x0
    3f7d:	6a 00                	push   $0x0
    3f7f:	53                   	push   %ebx
    3f80:	e8 fb 91 00 00       	call   d180 <lseek@plt>
    3f85:	8b 75 08             	mov    0x8(%ebp),%esi
    3f88:	83 c4 10             	add    $0x10,%esp
    3f8b:	85 f6                	test   %esi,%esi
    3f8d:	0f 85 38 02 00 00    	jne    41cb <do_copy+0x73b>
    3f93:	8b 85 98 fb ff ff    	mov    -0x468(%ebp),%eax
    3f99:	6a 00                	push   $0x0
    3f9b:	6a 00                	push   $0x0
    3f9d:	6a 00                	push   $0x0
    3f9f:	50                   	push   %eax
    3fa0:	e8 db 91 00 00       	call   d180 <lseek@plt>
    3fa5:	58                   	pop    %eax
    3fa6:	8b 85 9c fb ff ff    	mov    -0x464(%ebp),%eax
    3fac:	50                   	push   %eax
    3fad:	e8 2e 91 00 00       	call   d0e0 <malloc@plt>
    3fb2:	83 c4 10             	add    $0x10,%esp
    3fb5:	89 c3                	mov    %eax,%ebx
    3fb7:	85 c0                	test   %eax,%eax
    3fb9:	0f 84 4c 03 00 00    	je     430b <do_copy+0x87b>
    3fbf:	31 f6                	xor    %esi,%esi
    3fc1:	31 ff                	xor    %edi,%edi
    3fc3:	eb 26                	jmp    3feb <do_copy+0x55b>
    3fc5:	8d 76 00             	lea    0x0(%esi),%esi
    3fc8:	8b 8d 94 fb ff ff    	mov    -0x46c(%ebp),%ecx
    3fce:	52                   	push   %edx
    3fcf:	50                   	push   %eax
    3fd0:	53                   	push   %ebx
    3fd1:	51                   	push   %ecx
    3fd2:	e8 59 92 00 00       	call   d230 <write@plt>
    3fd7:	83 c4 10             	add    $0x10,%esp
    3fda:	89 c2                	mov    %eax,%edx
    3fdc:	85 c0                	test   %eax,%eax
    3fde:	0f 88 f4 02 00 00    	js     42d8 <do_copy+0x848>
    3fe4:	c1 fa 1f             	sar    $0x1f,%edx
    3fe7:	01 c6                	add    %eax,%esi
    3fe9:	11 d7                	adc    %edx,%edi
    3feb:	50                   	push   %eax
    3fec:	8b 85 9c fb ff ff    	mov    -0x464(%ebp),%eax
    3ff2:	50                   	push   %eax
    3ff3:	8b 85 98 fb ff ff    	mov    -0x468(%ebp),%eax
    3ff9:	53                   	push   %ebx
    3ffa:	50                   	push   %eax
    3ffb:	e8 a0 92 00 00       	call   d2a0 <read@plt>
    4000:	83 c4 10             	add    $0x10,%esp
    4003:	83 f8 00             	cmp    $0x0,%eax
    4006:	7f c0                	jg     3fc8 <do_copy+0x538>
    4008:	89 c2                	mov    %eax,%edx
    400a:	0f 85 c8 02 00 00    	jne    42d8 <do_copy+0x848>
    4010:	83 ec 0c             	sub    $0xc,%esp
    4013:	8b 85 98 fb ff ff    	mov    -0x468(%ebp),%eax
    4019:	50                   	push   %eax
    401a:	e8 e1 94 00 00       	call   d500 <close@plt>
    401f:	58                   	pop    %eax
    4020:	8b 85 94 fb ff ff    	mov    -0x46c(%ebp),%eax
    4026:	50                   	push   %eax
    4027:	e8 d4 94 00 00       	call   d500 <close@plt>
    402c:	89 1c 24             	mov    %ebx,(%esp)
    402f:	e8 dc 94 00 00       	call   d510 <free@plt>
    4034:	89 f8                	mov    %edi,%eax
    4036:	31 d2                	xor    %edx,%edx
    4038:	c1 e8 1f             	shr    $0x1f,%eax
    403b:	83 c4 10             	add    $0x10,%esp
    403e:	e9 f0 fa ff ff       	jmp    3b33 <do_copy+0xa3>
    4043:	90                   	nop
    4044:	8d 74 26 00          	lea    0x0(%esi,%eiz,1),%esi
    4048:	8b 85 a8 fb ff ff    	mov    -0x458(%ebp),%eax
    404e:	66 39 85 c8 fb ff ff 	cmp    %ax,-0x438(%ebp)
    4055:	0f 85 f2 fc ff ff    	jne    3d4d <do_copy+0x2bd>
    405b:	83 ec 0c             	sub    $0xc,%esp
    405e:	68 a0 bb 00 00       	push   $0xbba0
    4063:	e8 88 8f 00 00       	call   cff0 <printf@plt>
    4068:	83 c4 10             	add    $0x10,%esp
    406b:	83 ec 0c             	sub    $0xc,%esp
    406e:	8b 85 98 fb ff ff    	mov    -0x468(%ebp),%eax
    4074:	50                   	push   %eax
    4075:	e8 66 94 00 00       	call   d4e0 <closedir@plt>
    407a:	8b 85 94 fb ff ff    	mov    -0x46c(%ebp),%eax
    4080:	83 c4 10             	add    $0x10,%esp
    4083:	8d 65 f4             	lea    -0xc(%ebp),%esp
    4086:	89 c2                	mov    %eax,%edx
    4088:	c1 fa 1f             	sar    $0x1f,%edx
    408b:	5b                   	pop    %ebx
    408c:	5e                   	pop    %esi
    408d:	5f                   	pop    %edi
    408e:	5d                   	pop    %ebp
    408f:	c3                   	ret    
    4090:	50                   	push   %eax
    4091:	50                   	push   %eax
    4092:	8b 85 a0 fb ff ff    	mov    -0x460(%ebp),%eax
    4098:	50                   	push   %eax
    4099:	68 f8 ba 00 00       	push   $0xbaf8
    409e:	e8 4d 8f 00 00       	call   cff0 <printf@plt>
    40a3:	83 c4 10             	add    $0x10,%esp
    40a6:	8d 65 f4             	lea    -0xc(%ebp),%esp
    40a9:	83 c8 ff             	or     $0xffffffff,%eax
    40ac:	83 ca ff             	or     $0xffffffff,%edx
    40af:	5b                   	pop    %ebx
    40b0:	5e                   	pop    %esi
    40b1:	5f                   	pop    %edi
    40b2:	5d                   	pop    %ebp
    40b3:	c3                   	ret    
    40b4:	8d 74 26 00          	lea    0x0(%esi,%eiz,1),%esi
    40b8:	83 ec 0c             	sub    $0xc,%esp
    40bb:	68 2c bb 00 00       	push   $0xbb2c
    40c0:	e8 2b 8f 00 00       	call   cff0 <printf@plt>
    40c5:	83 c4 10             	add    $0x10,%esp
    40c8:	83 c8 ff             	or     $0xffffffff,%eax
    40cb:	83 ca ff             	or     $0xffffffff,%edx
    40ce:	e9 60 fa ff ff       	jmp    3b33 <do_copy+0xa3>
    40d3:	90                   	nop
    40d4:	8d 74 26 00          	lea    0x0(%esi,%eiz,1),%esi
    40d8:	8b 8d a0 fb ff ff    	mov    -0x460(%ebp),%ecx
    40de:	40                   	inc    %eax
    40df:	8d bd ea fc ff ff    	lea    -0x316(%ebp),%edi
    40e5:	52                   	push   %edx
    40e6:	51                   	push   %ecx
    40e7:	50                   	push   %eax
    40e8:	57                   	push   %edi
    40e9:	e8 82 92 00 00       	call   d370 <str_cpy@plt>
    40ee:	58                   	pop    %eax
    40ef:	5a                   	pop    %edx
    40f0:	6a 2f                	push   $0x2f
    40f2:	57                   	push   %edi
    40f3:	e8 48 90 00 00       	call   d140 <str_rtrim@plt>
    40f8:	59                   	pop    %ecx
    40f9:	58                   	pop    %eax
    40fa:	6a 2f                	push   $0x2f
    40fc:	57                   	push   %edi
    40fd:	e8 ee 8f 00 00       	call   d0f0 <str_rchr@plt>
    4102:	83 c4 10             	add    $0x10,%esp
    4105:	85 c0                	test   %eax,%eax
    4107:	0f 85 79 fd ff ff    	jne    3e86 <do_copy+0x3f6>
    410d:	e9 77 fd ff ff       	jmp    3e89 <do_copy+0x3f9>
    4112:	83 ec 0c             	sub    $0xc,%esp
    4115:	8b 85 a4 fb ff ff    	mov    -0x45c(%ebp),%eax
    411b:	50                   	push   %eax
    411c:	e8 9f 91 00 00       	call   d2c0 <unlink@plt>
    4121:	83 c4 10             	add    $0x10,%esp
    4124:	85 c0                	test   %eax,%eax
    4126:	0f 84 fc fd ff ff    	je     3f28 <do_copy+0x498>
    412c:	8b 85 a4 fb ff ff    	mov    -0x45c(%ebp),%eax
    4132:	57                   	push   %edi
    4133:	57                   	push   %edi
    4134:	50                   	push   %eax
    4135:	68 95 bc 00 00       	push   $0xbc95
    413a:	e8 b1 8e 00 00       	call   cff0 <printf@plt>
    413f:	83 c4 10             	add    $0x10,%esp
    4142:	83 c8 ff             	or     $0xffffffff,%eax
    4145:	83 ca ff             	or     $0xffffffff,%edx
    4148:	e9 e6 f9 ff ff       	jmp    3b33 <do_copy+0xa3>
    414d:	8d 85 eb fb ff ff    	lea    -0x415(%ebp),%eax
    4153:	53                   	push   %ebx
    4154:	56                   	push   %esi
    4155:	68 ff 00 00 00       	push   $0xff
    415a:	50                   	push   %eax
    415b:	89 85 a4 fb ff ff    	mov    %eax,-0x45c(%ebp)
    4161:	e8 0a 92 00 00       	call   d370 <str_cpy@plt>
    4166:	83 c4 10             	add    $0x10,%esp
    4169:	83 ec 0c             	sub    $0xc,%esp
    416c:	8b 85 a4 fb ff ff    	mov    -0x45c(%ebp),%eax
    4172:	50                   	push   %eax
    4173:	e8 48 92 00 00       	call   d3c0 <str_size@plt>
    4178:	83 c4 10             	add    $0x10,%esp
    417b:	80 bc 05 ea fb ff ff 	cmpb   $0x2f,-0x416(%ebp,%eax,1)
    4182:	2f 
    4183:	0f 85 9f fd ff ff    	jne    3f28 <do_copy+0x498>
    4189:	50                   	push   %eax
    418a:	50                   	push   %eax
    418b:	8b 85 a4 fb ff ff    	mov    -0x45c(%ebp),%eax
    4191:	50                   	push   %eax
    4192:	68 8c ba 00 00       	push   $0xba8c
    4197:	e8 54 8e 00 00       	call   cff0 <printf@plt>
    419c:	83 c4 10             	add    $0x10,%esp
    419f:	83 c8 ff             	or     $0xffffffff,%eax
    41a2:	83 ca ff             	or     $0xffffffff,%edx
    41a5:	e9 89 f9 ff ff       	jmp    3b33 <do_copy+0xa3>
    41aa:	8b bd a4 fb ff ff    	mov    -0x45c(%ebp),%edi
    41b0:	8b 85 a0 fb ff ff    	mov    -0x460(%ebp),%eax
    41b6:	56                   	push   %esi
    41b7:	57                   	push   %edi
    41b8:	50                   	push   %eax
    41b9:	68 f3 bc 00 00       	push   $0xbcf3
    41be:	e8 2d 8e 00 00       	call   cff0 <printf@plt>
    41c3:	83 c4 10             	add    $0x10,%esp
    41c6:	e9 68 fd ff ff       	jmp    3f33 <do_copy+0x4a3>
    41cb:	51                   	push   %ecx
    41cc:	52                   	push   %edx
    41cd:	50                   	push   %eax
    41ce:	68 05 bd 00 00       	push   $0xbd05
    41d3:	e8 18 8e 00 00       	call   cff0 <printf@plt>
    41d8:	83 c4 10             	add    $0x10,%esp
    41db:	e9 b3 fd ff ff       	jmp    3f93 <do_copy+0x503>
    41e0:	50                   	push   %eax
    41e1:	50                   	push   %eax
    41e2:	8b 85 a4 fb ff ff    	mov    -0x45c(%ebp),%eax
    41e8:	50                   	push   %eax
    41e9:	68 da bc 00 00       	push   $0xbcda
    41ee:	e8 fd 8d 00 00       	call   cff0 <printf@plt>
    41f3:	83 c4 10             	add    $0x10,%esp
    41f6:	83 c8 ff             	or     $0xffffffff,%eax
    41f9:	83 ca ff             	or     $0xffffffff,%edx
    41fc:	e9 32 f9 ff ff       	jmp    3b33 <do_copy+0xa3>
    4201:	50                   	push   %eax
    4202:	8d 85 eb fb ff ff    	lea    -0x415(%ebp),%eax
    4208:	56                   	push   %esi
    4209:	68 ff 00 00 00       	push   $0xff
    420e:	50                   	push   %eax
    420f:	89 85 a4 fb ff ff    	mov    %eax,-0x45c(%ebp)
    4215:	e8 56 91 00 00       	call   d370 <str_cpy@plt>
    421a:	83 c4 10             	add    $0x10,%esp
    421d:	56                   	push   %esi
    421e:	56                   	push   %esi
    421f:	8b b5 a4 fb ff ff    	mov    -0x45c(%ebp),%esi
    4225:	6a 2f                	push   $0x2f
    4227:	56                   	push   %esi
    4228:	e8 13 8f 00 00       	call   d140 <str_rtrim@plt>
    422d:	83 c4 0c             	add    $0xc,%esp
    4230:	68 72 b7 00 00       	push   $0xb772
    4235:	68 ff 00 00 00       	push   $0xff
    423a:	56                   	push   %esi
    423b:	e8 10 8f 00 00       	call   d150 <str_append@plt>
    4240:	83 c4 0c             	add    $0xc,%esp
    4243:	57                   	push   %edi
    4244:	68 ff 00 00 00       	push   $0xff
    4249:	56                   	push   %esi
    424a:	e8 01 8f 00 00       	call   d150 <str_append@plt>
    424f:	5f                   	pop    %edi
    4250:	58                   	pop    %eax
    4251:	53                   	push   %ebx
    4252:	56                   	push   %esi
    4253:	e8 b8 91 00 00       	call   d410 <stat@plt>
    4258:	83 c4 10             	add    $0x10,%esp
    425b:	85 c0                	test   %eax,%eax
    425d:	0f 85 c5 fc ff ff    	jne    3f28 <do_copy+0x498>
    4263:	80 bd f9 fe ff ff 00 	cmpb   $0x0,-0x107(%ebp)
    426a:	0f 84 d7 00 00 00    	je     4347 <do_copy+0x8b7>
    4270:	8b 8d a4 fb ff ff    	mov    -0x45c(%ebp),%ecx
    4276:	52                   	push   %edx
    4277:	52                   	push   %edx
    4278:	51                   	push   %ecx
    4279:	68 c8 bb 00 00       	push   $0xbbc8
    427e:	e8 6d 8d 00 00       	call   cff0 <printf@plt>
    4283:	83 c4 10             	add    $0x10,%esp
    4286:	83 c8 ff             	or     $0xffffffff,%eax
    4289:	83 ca ff             	or     $0xffffffff,%edx
    428c:	e9 a2 f8 ff ff       	jmp    3b33 <do_copy+0xa3>
    4291:	8b b5 a0 fb ff ff    	mov    -0x460(%ebp),%esi
    4297:	53                   	push   %ebx
    4298:	53                   	push   %ebx
    4299:	56                   	push   %esi
    429a:	68 7c bb 00 00       	push   $0xbb7c
    429f:	e8 4c 8d 00 00       	call   cff0 <printf@plt>
    42a4:	83 c4 10             	add    $0x10,%esp
    42a7:	83 c8 ff             	or     $0xffffffff,%eax
    42aa:	83 ca ff             	or     $0xffffffff,%edx
    42ad:	e9 81 f8 ff ff       	jmp    3b33 <do_copy+0xa3>
    42b2:	50                   	push   %eax
    42b3:	50                   	push   %eax
    42b4:	8b 85 a4 fb ff ff    	mov    -0x45c(%ebp),%eax
    42ba:	50                   	push   %eax
    42bb:	68 c0 bc 00 00       	push   $0xbcc0
    42c0:	e8 2b 8d 00 00       	call   cff0 <printf@plt>
    42c5:	83 c4 10             	add    $0x10,%esp
    42c8:	31 c0                	xor    %eax,%eax
    42ca:	31 d2                	xor    %edx,%edx
    42cc:	e9 62 f8 ff ff       	jmp    3b33 <do_copy+0xa3>
    42d1:	8d b4 26 00 00 00 00 	lea    0x0(%esi,%eiz,1),%esi
    42d8:	89 95 a4 fb ff ff    	mov    %edx,-0x45c(%ebp)
    42de:	e8 6d 8d 00 00       	call   d050 <__errno@plt>
    42e3:	51                   	push   %ecx
    42e4:	8b bd a0 fb ff ff    	mov    -0x460(%ebp),%edi
    42ea:	8b 30                	mov    (%eax),%esi
    42ec:	56                   	push   %esi
    42ed:	57                   	push   %edi
    42ee:	68 19 bd 00 00       	push   $0xbd19
    42f3:	e8 f8 8c 00 00       	call   cff0 <printf@plt>
    42f8:	8b 95 a4 fb ff ff    	mov    -0x45c(%ebp),%edx
    42fe:	83 c4 10             	add    $0x10,%esp
    4301:	89 d7                	mov    %edx,%edi
    4303:	c1 ff 1f             	sar    $0x1f,%edi
    4306:	e9 05 fd ff ff       	jmp    4010 <do_copy+0x580>
    430b:	8b b5 a0 fb ff ff    	mov    -0x460(%ebp),%esi
    4311:	53                   	push   %ebx
    4312:	53                   	push   %ebx
    4313:	56                   	push   %esi
    4314:	68 f8 b2 00 00       	push   $0xb2f8
    4319:	e8 d2 8c 00 00       	call   cff0 <printf@plt>
    431e:	8b 85 98 fb ff ff    	mov    -0x468(%ebp),%eax
    4324:	5f                   	pop    %edi
    4325:	50                   	push   %eax
    4326:	e8 d5 91 00 00       	call   d500 <close@plt>
    432b:	58                   	pop    %eax
    432c:	8b 85 94 fb ff ff    	mov    -0x46c(%ebp),%eax
    4332:	50                   	push   %eax
    4333:	e8 c8 91 00 00       	call   d500 <close@plt>
    4338:	83 c4 10             	add    $0x10,%esp
    433b:	b8 01 00 00 00       	mov    $0x1,%eax
    4340:	31 d2                	xor    %edx,%edx
    4342:	e9 ec f7 ff ff       	jmp    3b33 <do_copy+0xa3>
    4347:	80 bd f8 fe ff ff 00 	cmpb   $0x0,-0x108(%ebp)
    434e:	0f 84 d4 fb ff ff    	je     3f28 <do_copy+0x498>
    4354:	e9 67 fb ff ff       	jmp    3ec0 <do_copy+0x430>
    4359:	8d b4 26 00 00 00 00 	lea    0x0(%esi,%eiz,1),%esi
    4360:	8b 85 a4 fb ff ff    	mov    -0x45c(%ebp),%eax
    4366:	57                   	push   %edi
    4367:	57                   	push   %edi
    4368:	50                   	push   %eax
    4369:	68 d4 ba 00 00       	push   $0xbad4
    436e:	e8 7d 8c 00 00       	call   cff0 <printf@plt>
    4373:	58                   	pop    %eax
    4374:	8b 85 98 fb ff ff    	mov    -0x468(%ebp),%eax
    437a:	50                   	push   %eax
    437b:	e8 80 91 00 00       	call   d500 <close@plt>
    4380:	83 c4 10             	add    $0x10,%esp
    4383:	b8 01 00 00 00       	mov    $0x1,%eax
    4388:	31 d2                	xor    %edx,%edx
    438a:	e9 a4 f7 ff ff       	jmp    3b33 <do_copy+0xa3>
    438f:	8b 95 a0 fb ff ff    	mov    -0x460(%ebp),%edx
    4395:	50                   	push   %eax
    4396:	50                   	push   %eax
    4397:	52                   	push   %edx
    4398:	68 b4 ba 00 00       	push   $0xbab4
    439d:	e8 4e 8c 00 00       	call   cff0 <printf@plt>
    43a2:	83 c4 10             	add    $0x10,%esp
    43a5:	b8 01 00 00 00       	mov    $0x1,%eax
    43aa:	31 d2                	xor    %edx,%edx
    43ac:	e9 82 f7 ff ff       	jmp    3b33 <do_copy+0xa3>
    43b1:	bf 01 00 00 00       	mov    $0x1,%edi
    43b6:	80 bd f9 fe ff ff 00 	cmpb   $0x0,-0x107(%ebp)
    43bd:	0f 84 ad f9 ff ff    	je     3d70 <do_copy+0x2e0>
    43c3:	83 ec 0c             	sub    $0xc,%esp
    43c6:	8b bd a0 fb ff ff    	mov    -0x460(%ebp),%edi
    43cc:	57                   	push   %edi
    43cd:	e8 ee 8f 00 00       	call   d3c0 <str_size@plt>
    43d2:	83 c4 0c             	add    $0xc,%esp
    43d5:	40                   	inc    %eax
    43d6:	57                   	push   %edi
    43d7:	8d bd ea fc ff ff    	lea    -0x316(%ebp),%edi
    43dd:	50                   	push   %eax
    43de:	57                   	push   %edi
    43df:	e8 8c 8f 00 00       	call   d370 <str_cpy@plt>
    43e4:	58                   	pop    %eax
    43e5:	5a                   	pop    %edx
    43e6:	6a 2f                	push   $0x2f
    43e8:	57                   	push   %edi
    43e9:	e8 52 8d 00 00       	call   d140 <str_rtrim@plt>
    43ee:	59                   	pop    %ecx
    43ef:	58                   	pop    %eax
    43f0:	6a 2f                	push   $0x2f
    43f2:	57                   	push   %edi
    43f3:	e8 f8 8c 00 00       	call   d0f0 <str_rchr@plt>
    43f8:	83 c4 10             	add    $0x10,%esp
    43fb:	85 c0                	test   %eax,%eax
    43fd:	0f 84 fe fd ff ff    	je     4201 <do_copy+0x771>
    4403:	c7 85 98 fb ff ff 02 	movl   $0x2,-0x468(%ebp)
    440a:	00 00 00 
    440d:	e9 74 fa ff ff       	jmp    3e86 <do_copy+0x3f6>
    4412:	8d b4 26 00 00 00 00 	lea    0x0(%esi,%eiz,1),%esi
    4419:	8d bc 27 00 00 00 00 	lea    0x0(%edi,%eiz,1),%edi

00004420 <help_cmd_cp>:
    4420:	55                   	push   %ebp
    4421:	89 e5                	mov    %esp,%ebp
    4423:	83 ec 08             	sub    $0x8,%esp
    4426:	8b 45 08             	mov    0x8(%ebp),%eax
    4429:	85 c0                	test   %eax,%eax
    442b:	74 2b                	je     4458 <help_cmd_cp+0x38>
    442d:	50                   	push   %eax
    442e:	50                   	push   %eax
    442f:	68 c9 9f 00 00       	push   $0x9fc9
    4434:	68 f0 bb 00 00       	push   $0xbbf0
    4439:	e8 b2 8b 00 00       	call   cff0 <printf@plt>
    443e:	5a                   	pop    %edx
    443f:	59                   	pop    %ecx
    4440:	68 c9 9f 00 00       	push   $0x9fc9
    4445:	68 80 f4 00 00       	push   $0xf480
    444a:	e8 a1 8b 00 00       	call   cff0 <printf@plt>
    444f:	83 c4 10             	add    $0x10,%esp
    4452:	c9                   	leave  
    4453:	c3                   	ret    
    4454:	8d 74 26 00          	lea    0x0(%esi,%eiz,1),%esi
    4458:	50                   	push   %eax
    4459:	50                   	push   %eax
    445a:	68 c9 9f 00 00       	push   $0x9fc9
    445f:	68 f0 bb 00 00       	push   $0xbbf0
    4464:	e8 87 8b 00 00       	call   cff0 <printf@plt>
    4469:	83 c4 10             	add    $0x10,%esp
    446c:	c9                   	leave  
    446d:	c3                   	ret    
    446e:	66 90                	xchg   %ax,%ax

00004470 <cmd_cp>:
    4470:	55                   	push   %ebp
    4471:	89 e5                	mov    %esp,%ebp
    4473:	57                   	push   %edi
    4474:	56                   	push   %esi
    4475:	53                   	push   %ebx
    4476:	83 ec 44             	sub    $0x44,%esp
    4479:	8b 3d 40 f8 00 00    	mov    0xf840,%edi
    447f:	a1 50 f8 00 00       	mov    0xf850,%eax
    4484:	57                   	push   %edi
    4485:	8b 5d 08             	mov    0x8(%ebp),%ebx
    4488:	50                   	push   %eax
    4489:	e8 32 8d 00 00       	call   d1c0 <console_init@plt>
    448e:	89 1c 24             	mov    %ebx,(%esp)
    4491:	a3 d4 f8 00 00       	mov    %eax,0xf8d4
    4496:	e8 45 24 00 00       	call   68e0 <cli_count_args>
    449b:	8d 7d e4             	lea    -0x1c(%ebp),%edi
    449e:	89 c6                	mov    %eax,%esi
    44a0:	c7 05 5c f8 00 00 01 	movl   $0x1,0xf85c
    44a7:	00 00 00 
    44aa:	c7 05 4c f8 00 00 00 	movl   $0x0,0xf84c
    44b1:	00 00 00 
    44b4:	c7 45 e4 00 00 00 00 	movl   $0x0,-0x1c(%ebp)
    44bb:	83 c4 10             	add    $0x10,%esp
    44be:	c7 45 d4 00 00 00 00 	movl   $0x0,-0x2c(%ebp)
    44c5:	c7 45 d0 00 00 00 00 	movl   $0x0,-0x30(%ebp)
    44cc:	c7 45 c8 00 00 00 00 	movl   $0x0,-0x38(%ebp)
    44d3:	c7 45 c4 00 00 00 00 	movl   $0x0,-0x3c(%ebp)
    44da:	c7 45 cc 00 00 00 00 	movl   $0x0,-0x34(%ebp)
    44e1:	83 ec 0c             	sub    $0xc,%esp
    44e4:	57                   	push   %edi
    44e5:	68 20 be 00 00       	push   $0xbe20
    44ea:	68 41 bd 00 00       	push   $0xbd41
    44ef:	53                   	push   %ebx
    44f0:	56                   	push   %esi
    44f1:	e8 2a 8b 00 00       	call   d020 <getopt_long@plt>
    44f6:	83 c4 20             	add    $0x20,%esp
    44f9:	8d 50 aa             	lea    -0x56(%eax),%edx
    44fc:	83 fa 20             	cmp    $0x20,%edx
    44ff:	0f 87 cb 00 00 00    	ja     45d0 <cmd_cp+0x160>
    4505:	ff 24 95 80 bd 00 00 	jmp    *0xbd80(,%edx,4)
    450c:	8d 74 26 00          	lea    0x0(%esi,%eiz,1),%esi
    4510:	c7 45 c8 01 00 00 00 	movl   $0x1,-0x38(%ebp)
    4517:	eb c8                	jmp    44e1 <cmd_cp+0x71>
    4519:	8d b4 26 00 00 00 00 	lea    0x0(%esi,%eiz,1),%esi
    4520:	c7 45 d4 01 00 00 00 	movl   $0x1,-0x2c(%ebp)
    4527:	c7 45 d0 00 00 00 00 	movl   $0x0,-0x30(%ebp)
    452e:	eb b1                	jmp    44e1 <cmd_cp+0x71>
    4530:	c7 45 d4 00 00 00 00 	movl   $0x0,-0x2c(%ebp)
    4537:	c7 45 d0 01 00 00 00 	movl   $0x1,-0x30(%ebp)
    453e:	eb a1                	jmp    44e1 <cmd_cp+0x71>
    4540:	50                   	push   %eax
    4541:	a1 48 f8 00 00       	mov    0xf848,%eax
    4546:	6a 0a                	push   $0xa
    4548:	6a 00                	push   $0x0
    454a:	50                   	push   %eax
    454b:	e8 60 8c 00 00       	call   d1b0 <strtol@plt>
    4550:	83 c4 10             	add    $0x10,%esp
    4553:	89 c2                	mov    %eax,%edx
    4555:	85 c0                	test   %eax,%eax
    4557:	0f 8e a3 00 00 00    	jle    4600 <cmd_cp+0x190>
    455d:	8b 45 cc             	mov    -0x34(%ebp),%eax
    4560:	85 c0                	test   %eax,%eax
    4562:	0f 85 c8 00 00 00    	jne    4630 <cmd_cp+0x1c0>
    4568:	89 55 c4             	mov    %edx,-0x3c(%ebp)
    456b:	e9 71 ff ff ff       	jmp    44e1 <cmd_cp+0x71>
    4570:	c7 45 cc 01 00 00 00 	movl   $0x1,-0x34(%ebp)
    4577:	e9 65 ff ff ff       	jmp    44e1 <cmd_cp+0x71>
    457c:	8d 74 26 00          	lea    0x0(%esi,%eiz,1),%esi
    4580:	52                   	push   %edx
    4581:	52                   	push   %edx
    4582:	68 2c a7 00 00       	push   $0xa72c
    4587:	68 ac 9e 00 00       	push   $0x9eac
    458c:	e8 5f 8a 00 00       	call   cff0 <printf@plt>
    4591:	83 c4 10             	add    $0x10,%esp
    4594:	31 c0                	xor    %eax,%eax
    4596:	8d 65 f4             	lea    -0xc(%ebp),%esp
    4599:	5b                   	pop    %ebx
    459a:	5e                   	pop    %esi
    459b:	5f                   	pop    %edi
    459c:	5d                   	pop    %ebp
    459d:	c3                   	ret    
    459e:	66 90                	xchg   %ax,%ax
    45a0:	51                   	push   %ecx
    45a1:	51                   	push   %ecx
    45a2:	68 c9 9f 00 00       	push   $0x9fc9
    45a7:	68 f0 bb 00 00       	push   $0xbbf0
    45ac:	e8 3f 8a 00 00       	call   cff0 <printf@plt>
    45b1:	5b                   	pop    %ebx
    45b2:	5e                   	pop    %esi
    45b3:	68 c9 9f 00 00       	push   $0x9fc9
    45b8:	68 80 f4 00 00       	push   $0xf480
    45bd:	e8 2e 8a 00 00       	call   cff0 <printf@plt>
    45c2:	83 c4 10             	add    $0x10,%esp
    45c5:	8d 65 f4             	lea    -0xc(%ebp),%esp
    45c8:	31 c0                	xor    %eax,%eax
    45ca:	5b                   	pop    %ebx
    45cb:	5e                   	pop    %esi
    45cc:	5f                   	pop    %edi
    45cd:	5d                   	pop    %ebp
    45ce:	c3                   	ret    
    45cf:	90                   	nop
    45d0:	40                   	inc    %eax
    45d1:	0f 85 0a ff ff ff    	jne    44e1 <cmd_cp+0x71>
    45d7:	8b 45 c4             	mov    -0x3c(%ebp),%eax
    45da:	85 c0                	test   %eax,%eax
    45dc:	74 6a                	je     4648 <cmd_cp+0x1d8>
    45de:	a1 4c f8 00 00       	mov    0xf84c,%eax
    45e3:	29 c6                	sub    %eax,%esi
    45e5:	83 fe 02             	cmp    $0x2,%esi
    45e8:	74 67                	je     4651 <cmd_cp+0x1e1>
    45ea:	50                   	push   %eax
    45eb:	68 c9 9f 00 00       	push   $0x9fc9
    45f0:	68 c9 9f 00 00       	push   $0x9fc9
    45f5:	68 14 bc 00 00       	push   $0xbc14
    45fa:	eb 10                	jmp    460c <cmd_cp+0x19c>
    45fc:	8d 74 26 00          	lea    0x0(%esi,%eiz,1),%esi
    4600:	53                   	push   %ebx
    4601:	53                   	push   %ebx
    4602:	68 c9 9f 00 00       	push   $0x9fc9
    4607:	68 44 bc 00 00       	push   $0xbc44
    460c:	e8 df 89 00 00       	call   cff0 <printf@plt>
    4611:	8b 0d d4 f8 00 00    	mov    0xf8d4,%ecx
    4617:	5a                   	pop    %edx
    4618:	51                   	push   %ecx
    4619:	e8 b2 8e 00 00       	call   d4d0 <console_done@plt>
    461e:	83 c4 10             	add    $0x10,%esp
    4621:	8d 65 f4             	lea    -0xc(%ebp),%esp
    4624:	b8 01 00 00 00       	mov    $0x1,%eax
    4629:	5b                   	pop    %ebx
    462a:	5e                   	pop    %esi
    462b:	5f                   	pop    %edi
    462c:	5d                   	pop    %ebp
    462d:	c3                   	ret    
    462e:	66 90                	xchg   %ax,%ax
    4630:	50                   	push   %eax
    4631:	50                   	push   %eax
    4632:	52                   	push   %edx
    4633:	68 4a bd 00 00       	push   $0xbd4a
    4638:	89 55 c4             	mov    %edx,-0x3c(%ebp)
    463b:	e8 b0 89 00 00       	call   cff0 <printf@plt>
    4640:	83 c4 10             	add    $0x10,%esp
    4643:	e9 99 fe ff ff       	jmp    44e1 <cmd_cp+0x71>
    4648:	c7 45 c4 00 04 00 00 	movl   $0x400,-0x3c(%ebp)
    464f:	eb 8d                	jmp    45de <cmd_cp+0x16e>
    4651:	8d 04 85 04 00 00 00 	lea    0x4(,%eax,4),%eax
    4658:	8b 75 d4             	mov    -0x2c(%ebp),%esi
    465b:	8b 7d d0             	mov    -0x30(%ebp),%edi
    465e:	8b 4d c8             	mov    -0x38(%ebp),%ecx
    4661:	8b 14 03             	mov    (%ebx,%eax,1),%edx
    4664:	8b 44 03 fc          	mov    -0x4(%ebx,%eax,1),%eax
    4668:	56                   	push   %esi
    4669:	8b 5d cc             	mov    -0x34(%ebp),%ebx
    466c:	57                   	push   %edi
    466d:	51                   	push   %ecx
    466e:	8b 4d c4             	mov    -0x3c(%ebp),%ecx
    4671:	53                   	push   %ebx
    4672:	e8 19 f4 ff ff       	call   3a90 <do_copy>
    4677:	5f                   	pop    %edi
    4678:	89 c6                	mov    %eax,%esi
    467a:	a1 d4 f8 00 00       	mov    0xf8d4,%eax
    467f:	50                   	push   %eax
    4680:	89 d3                	mov    %edx,%ebx
    4682:	e8 49 8e 00 00       	call   d4d0 <console_done@plt>
    4687:	83 c4 10             	add    $0x10,%esp
    468a:	09 de                	or     %ebx,%esi
    468c:	0f 95 c0             	setne  %al
    468f:	25 ff 00 00 00       	and    $0xff,%eax
    4694:	e9 fd fe ff ff       	jmp    4596 <cmd_cp+0x126>
    4699:	66 90                	xchg   %ax,%ax
    469b:	66 90                	xchg   %ax,%ax
    469d:	66 90                	xchg   %ax,%ax
    469f:	90                   	nop

000046a0 <help_cmd_mv>:
    46a0:	55                   	push   %ebp
    46a1:	89 e5                	mov    %esp,%ebp
    46a3:	83 ec 10             	sub    $0x10,%esp
    46a6:	68 e7 9f 00 00       	push   $0x9fe7
    46ab:	68 a0 be 00 00       	push   $0xbea0
    46b0:	e8 3b 89 00 00       	call   cff0 <printf@plt>
    46b5:	83 c4 10             	add    $0x10,%esp
    46b8:	c9                   	leave  
    46b9:	c3                   	ret    
    46ba:	8d b6 00 00 00 00    	lea    0x0(%esi),%esi

000046c0 <cmd_mv>:
    46c0:	55                   	push   %ebp
    46c1:	89 e5                	mov    %esp,%ebp
    46c3:	53                   	push   %ebx
    46c4:	83 ec 10             	sub    $0x10,%esp
    46c7:	8b 5d 08             	mov    0x8(%ebp),%ebx
    46ca:	53                   	push   %ebx
    46cb:	e8 10 22 00 00       	call   68e0 <cli_count_args>
    46d0:	83 c4 10             	add    $0x10,%esp
    46d3:	83 f8 03             	cmp    $0x3,%eax
    46d6:	74 20                	je     46f8 <cmd_mv+0x38>
    46d8:	50                   	push   %eax
    46d9:	50                   	push   %eax
    46da:	68 e7 9f 00 00       	push   $0x9fe7
    46df:	68 b4 be 00 00       	push   $0xbeb4
    46e4:	e8 07 89 00 00       	call   cff0 <printf@plt>
    46e9:	83 c4 10             	add    $0x10,%esp
    46ec:	b8 01 00 00 00       	mov    $0x1,%eax
    46f1:	8b 5d fc             	mov    -0x4(%ebp),%ebx
    46f4:	c9                   	leave  
    46f5:	c3                   	ret    
    46f6:	66 90                	xchg   %ax,%ax
    46f8:	50                   	push   %eax
    46f9:	50                   	push   %eax
    46fa:	8b 43 08             	mov    0x8(%ebx),%eax
    46fd:	50                   	push   %eax
    46fe:	8b 43 04             	mov    0x4(%ebx),%eax
    4701:	50                   	push   %eax
    4702:	e8 d9 8a 00 00       	call   d1e0 <rename@plt>
    4707:	83 c4 10             	add    $0x10,%esp
    470a:	85 c0                	test   %eax,%eax
    470c:	74 e3                	je     46f1 <cmd_mv+0x31>
    470e:	e8 3d 89 00 00       	call   d050 <__errno@plt>
    4713:	8b 53 08             	mov    0x8(%ebx),%edx
    4716:	8b 00                	mov    (%eax),%eax
    4718:	50                   	push   %eax
    4719:	52                   	push   %edx
    471a:	8b 4b 04             	mov    0x4(%ebx),%ecx
    471d:	51                   	push   %ecx
    471e:	68 d8 be 00 00       	push   $0xbed8
    4723:	e8 c8 88 00 00       	call   cff0 <printf@plt>
    4728:	83 c4 10             	add    $0x10,%esp
    472b:	b8 01 00 00 00       	mov    $0x1,%eax
    4730:	8b 5d fc             	mov    -0x4(%ebp),%ebx
    4733:	c9                   	leave  
    4734:	c3                   	ret    
    4735:	66 90                	xchg   %ax,%ax
    4737:	66 90                	xchg   %ax,%ax
    4739:	66 90                	xchg   %ax,%ax
    473b:	66 90                	xchg   %ax,%ax
    473d:	66 90                	xchg   %ax,%ax
    473f:	90                   	nop

00004740 <help_cmd_printf>:
    4740:	55                   	push   %ebp
    4741:	89 e5                	mov    %esp,%ebp
    4743:	83 ec 08             	sub    $0x8,%esp
    4746:	8b 45 08             	mov    0x8(%ebp),%eax
    4749:	85 c0                	test   %eax,%eax
    474b:	74 2b                	je     4778 <help_cmd_printf+0x38>
    474d:	50                   	push   %eax
    474e:	50                   	push   %eax
    474f:	68 50 a0 00 00       	push   $0xa050
    4754:	68 fe be 00 00       	push   $0xbefe
    4759:	e8 92 88 00 00       	call   cff0 <printf@plt>
    475e:	5a                   	pop    %edx
    475f:	59                   	pop    %ecx
    4760:	68 50 a0 00 00       	push   $0xa050
    4765:	68 20 bf 00 00       	push   $0xbf20
    476a:	e8 81 88 00 00       	call   cff0 <printf@plt>
    476f:	83 c4 10             	add    $0x10,%esp
    4772:	c9                   	leave  
    4773:	c3                   	ret    
    4774:	8d 74 26 00          	lea    0x0(%esi,%eiz,1),%esi
    4778:	50                   	push   %eax
    4779:	50                   	push   %eax
    477a:	68 50 a0 00 00       	push   $0xa050
    477f:	68 fe be 00 00       	push   $0xbefe
    4784:	e8 67 88 00 00       	call   cff0 <printf@plt>
    4789:	83 c4 10             	add    $0x10,%esp
    478c:	c9                   	leave  
    478d:	c3                   	ret    
    478e:	66 90                	xchg   %ax,%ax

00004790 <cmd_printf>:
    4790:	55                   	push   %ebp
    4791:	89 e5                	mov    %esp,%ebp
    4793:	57                   	push   %edi
    4794:	56                   	push   %esi
    4795:	53                   	push   %ebx
    4796:	83 ec 2c             	sub    $0x2c,%esp
    4799:	8b 45 08             	mov    0x8(%ebp),%eax
    479c:	8b 08                	mov    (%eax),%ecx
    479e:	85 c9                	test   %ecx,%ecx
    47a0:	0f 84 0a 01 00 00    	je     48b0 <cmd_printf+0x120>
    47a6:	31 f6                	xor    %esi,%esi
    47a8:	46                   	inc    %esi
    47a9:	8b 14 b0             	mov    (%eax,%esi,4),%edx
    47ac:	85 d2                	test   %edx,%edx
    47ae:	75 f8                	jne    47a8 <cmd_printf+0x18>
    47b0:	83 fe 01             	cmp    $0x1,%esi
    47b3:	0f 84 f7 00 00 00    	je     48b0 <cmd_printf+0x120>
    47b9:	8b 45 08             	mov    0x8(%ebp),%eax
    47bc:	83 ec 0c             	sub    $0xc,%esp
    47bf:	31 db                	xor    %ebx,%ebx
    47c1:	8b 78 04             	mov    0x4(%eax),%edi
    47c4:	57                   	push   %edi
    47c5:	e8 f6 8b 00 00       	call   d3c0 <str_size@plt>
    47ca:	c7 45 e4 00 00 00 00 	movl   $0x0,-0x1c(%ebp)
    47d1:	89 45 d4             	mov    %eax,-0x2c(%ebp)
    47d4:	83 c4 10             	add    $0x10,%esp
    47d7:	c7 45 d0 02 00 00 00 	movl   $0x2,-0x30(%ebp)
    47de:	66 90                	xchg   %ax,%ax
    47e0:	8b 55 d4             	mov    -0x2c(%ebp),%edx
    47e3:	50                   	push   %eax
    47e4:	8d 45 e4             	lea    -0x1c(%ebp),%eax
    47e7:	52                   	push   %edx
    47e8:	50                   	push   %eax
    47e9:	57                   	push   %edi
    47ea:	e8 91 88 00 00       	call   d080 <str_decode@plt>
    47ef:	83 c4 10             	add    $0x10,%esp
    47f2:	85 c0                	test   %eax,%eax
    47f4:	0f 84 cc 00 00 00    	je     48c6 <cmd_printf+0x136>
    47fa:	83 f8 25             	cmp    $0x25,%eax
    47fd:	74 11                	je     4810 <cmd_printf+0x80>
    47ff:	83 f8 5c             	cmp    $0x5c,%eax
    4802:	75 24                	jne    4828 <cmd_printf+0x98>
    4804:	84 db                	test   %bl,%bl
    4806:	75 0c                	jne    4814 <cmd_printf+0x84>
    4808:	b3 01                	mov    $0x1,%bl
    480a:	eb d4                	jmp    47e0 <cmd_printf+0x50>
    480c:	8d 74 26 00          	lea    0x0(%esi,%eiz,1),%esi
    4810:	84 db                	test   %bl,%bl
    4812:	74 34                	je     4848 <cmd_printf+0xb8>
    4814:	83 ec 0c             	sub    $0xc,%esp
    4817:	31 db                	xor    %ebx,%ebx
    4819:	50                   	push   %eax
    481a:	e8 91 87 00 00       	call   cfb0 <putchar@plt>
    481f:	83 c4 10             	add    $0x10,%esp
    4822:	eb bc                	jmp    47e0 <cmd_printf+0x50>
    4824:	8d 74 26 00          	lea    0x0(%esi,%eiz,1),%esi
    4828:	84 db                	test   %bl,%bl
    482a:	74 6c                	je     4898 <cmd_printf+0x108>
    482c:	31 db                	xor    %ebx,%ebx
    482e:	83 f8 6e             	cmp    $0x6e,%eax
    4831:	75 ad                	jne    47e0 <cmd_printf+0x50>
    4833:	83 ec 0c             	sub    $0xc,%esp
    4836:	31 db                	xor    %ebx,%ebx
    4838:	68 1b c8 00 00       	push   $0xc81b
    483d:	e8 ae 87 00 00       	call   cff0 <printf@plt>
    4842:	83 c4 10             	add    $0x10,%esp
    4845:	eb 99                	jmp    47e0 <cmd_printf+0x50>
    4847:	90                   	nop
    4848:	50                   	push   %eax
    4849:	8b 45 d4             	mov    -0x2c(%ebp),%eax
    484c:	50                   	push   %eax
    484d:	8d 45 e4             	lea    -0x1c(%ebp),%eax
    4850:	50                   	push   %eax
    4851:	57                   	push   %edi
    4852:	e8 29 88 00 00       	call   d080 <str_decode@plt>
    4857:	83 c4 10             	add    $0x10,%esp
    485a:	85 c0                	test   %eax,%eax
    485c:	0f 84 96 00 00 00    	je     48f8 <cmd_printf+0x168>
    4862:	39 75 d0             	cmp    %esi,-0x30(%ebp)
    4865:	0f 84 e9 00 00 00    	je     4954 <cmd_printf+0x1c4>
    486b:	8b 55 08             	mov    0x8(%ebp),%edx
    486e:	8b 4d d0             	mov    -0x30(%ebp),%ecx
    4871:	83 f8 73             	cmp    $0x73,%eax
    4874:	8b 14 8a             	mov    (%edx,%ecx,4),%edx
    4877:	0f 84 bb 00 00 00    	je     4938 <cmd_printf+0x1a8>
    487d:	83 f8 75             	cmp    $0x75,%eax
    4880:	0f 84 8a 00 00 00    	je     4910 <cmd_printf+0x180>
    4886:	83 f8 64             	cmp    $0x64,%eax
    4889:	74 45                	je     48d0 <cmd_printf+0x140>
    488b:	8b 4d d0             	mov    -0x30(%ebp),%ecx
    488e:	41                   	inc    %ecx
    488f:	89 4d d0             	mov    %ecx,-0x30(%ebp)
    4892:	e9 49 ff ff ff       	jmp    47e0 <cmd_printf+0x50>
    4897:	90                   	nop
    4898:	83 ec 0c             	sub    $0xc,%esp
    489b:	50                   	push   %eax
    489c:	e8 0f 87 00 00       	call   cfb0 <putchar@plt>
    48a1:	83 c4 10             	add    $0x10,%esp
    48a4:	e9 37 ff ff ff       	jmp    47e0 <cmd_printf+0x50>
    48a9:	8d b4 26 00 00 00 00 	lea    0x0(%esi,%eiz,1),%esi
    48b0:	50                   	push   %eax
    48b1:	50                   	push   %eax
    48b2:	68 50 a0 00 00       	push   $0xa050
    48b7:	68 d4 bf 00 00       	push   $0xbfd4
    48bc:	e8 2f 87 00 00       	call   cff0 <printf@plt>
    48c1:	83 c4 10             	add    $0x10,%esp
    48c4:	31 c0                	xor    %eax,%eax
    48c6:	8d 65 f4             	lea    -0xc(%ebp),%esp
    48c9:	5b                   	pop    %ebx
    48ca:	5e                   	pop    %esi
    48cb:	5f                   	pop    %edi
    48cc:	5d                   	pop    %ebp
    48cd:	c3                   	ret    
    48ce:	66 90                	xchg   %ax,%ax
    48d0:	50                   	push   %eax
    48d1:	6a 0a                	push   $0xa
    48d3:	6a 00                	push   $0x0
    48d5:	52                   	push   %edx
    48d6:	e8 d5 88 00 00       	call   d1b0 <strtol@plt>
    48db:	5a                   	pop    %edx
    48dc:	59                   	pop    %ecx
    48dd:	50                   	push   %eax
    48de:	68 8d c0 00 00       	push   $0xc08d
    48e3:	e8 08 87 00 00       	call   cff0 <printf@plt>
    48e8:	8b 4d d0             	mov    -0x30(%ebp),%ecx
    48eb:	83 c4 10             	add    $0x10,%esp
    48ee:	41                   	inc    %ecx
    48ef:	89 4d d0             	mov    %ecx,-0x30(%ebp)
    48f2:	e9 e9 fe ff ff       	jmp    47e0 <cmd_printf+0x50>
    48f7:	90                   	nop
    48f8:	83 ec 0c             	sub    $0xc,%esp
    48fb:	6a 25                	push   $0x25
    48fd:	e8 ae 86 00 00       	call   cfb0 <putchar@plt>
    4902:	83 c4 10             	add    $0x10,%esp
    4905:	e9 d6 fe ff ff       	jmp    47e0 <cmd_printf+0x50>
    490a:	8d b6 00 00 00 00    	lea    0x0(%esi),%esi
    4910:	50                   	push   %eax
    4911:	6a 0a                	push   $0xa
    4913:	6a 00                	push   $0x0
    4915:	52                   	push   %edx
    4916:	e8 f5 87 00 00       	call   d110 <strtoul@plt>
    491b:	5a                   	pop    %edx
    491c:	59                   	pop    %ecx
    491d:	50                   	push   %eax
    491e:	68 1b bf 00 00       	push   $0xbf1b
    4923:	e8 c8 86 00 00       	call   cff0 <printf@plt>
    4928:	8b 4d d0             	mov    -0x30(%ebp),%ecx
    492b:	83 c4 10             	add    $0x10,%esp
    492e:	41                   	inc    %ecx
    492f:	89 4d d0             	mov    %ecx,-0x30(%ebp)
    4932:	e9 a9 fe ff ff       	jmp    47e0 <cmd_printf+0x50>
    4937:	90                   	nop
    4938:	50                   	push   %eax
    4939:	50                   	push   %eax
    493a:	52                   	push   %edx
    493b:	68 52 ad 00 00       	push   $0xad52
    4940:	e8 ab 86 00 00       	call   cff0 <printf@plt>
    4945:	8b 4d d0             	mov    -0x30(%ebp),%ecx
    4948:	41                   	inc    %ecx
    4949:	83 c4 10             	add    $0x10,%esp
    494c:	89 4d d0             	mov    %ecx,-0x30(%ebp)
    494f:	e9 8c fe ff ff       	jmp    47e0 <cmd_printf+0x50>
    4954:	83 ec 0c             	sub    $0xc,%esp
    4957:	68 f4 bf 00 00       	push   $0xbff4
    495c:	e8 8f 86 00 00       	call   cff0 <printf@plt>
    4961:	83 c4 10             	add    $0x10,%esp
    4964:	b8 01 00 00 00       	mov    $0x1,%eax
    4969:	e9 58 ff ff ff       	jmp    48c6 <cmd_printf+0x136>
    496e:	66 90                	xchg   %ax,%ax

00004970 <help_cmd_echo>:
    4970:	55                   	push   %ebp
    4971:	89 e5                	mov    %esp,%ebp
    4973:	83 ec 08             	sub    $0x8,%esp
    4976:	8b 45 08             	mov    0x8(%ebp),%eax
    4979:	85 c0                	test   %eax,%eax
    497b:	74 2b                	je     49a8 <help_cmd_echo+0x38>
    497d:	50                   	push   %eax
    497e:	50                   	push   %eax
    497f:	68 6d a0 00 00       	push   $0xa06d
    4984:	68 30 c0 00 00       	push   $0xc030
    4989:	e8 62 86 00 00       	call   cff0 <printf@plt>
    498e:	5a                   	pop    %edx
    498f:	59                   	pop    %ecx
    4990:	68 6d a0 00 00       	push   $0xa06d
    4995:	68 15 c0 00 00       	push   $0xc015
    499a:	e8 51 86 00 00       	call   cff0 <printf@plt>
    499f:	83 c4 10             	add    $0x10,%esp
    49a2:	c9                   	leave  
    49a3:	c3                   	ret    
    49a4:	8d 74 26 00          	lea    0x0(%esi,%eiz,1),%esi
    49a8:	50                   	push   %eax
    49a9:	50                   	push   %eax
    49aa:	68 6d a0 00 00       	push   $0xa06d
    49af:	68 30 c0 00 00       	push   $0xc030
    49b4:	e8 37 86 00 00       	call   cff0 <printf@plt>
    49b9:	83 c4 10             	add    $0x10,%esp
    49bc:	c9                   	leave  
    49bd:	c3                   	ret    
    49be:	66 90                	xchg   %ax,%ax

000049c0 <cmd_echo>:
    49c0:	55                   	push   %ebp
    49c1:	89 e5                	mov    %esp,%ebp
    49c3:	53                   	push   %ebx
    49c4:	51                   	push   %ecx
    49c5:	8b 5d 08             	mov    0x8(%ebp),%ebx
    49c8:	83 c3 08             	add    $0x8,%ebx
    49cb:	8b 43 fc             	mov    -0x4(%ebx),%eax
    49ce:	85 c0                	test   %eax,%eax
    49d0:	74 20                	je     49f2 <cmd_echo+0x32>
    49d2:	8d b6 00 00 00 00    	lea    0x0(%esi),%esi
    49d8:	83 c3 04             	add    $0x4,%ebx
    49db:	52                   	push   %edx
    49dc:	52                   	push   %edx
    49dd:	50                   	push   %eax
    49de:	68 2b c0 00 00       	push   $0xc02b
    49e3:	e8 08 86 00 00       	call   cff0 <printf@plt>
    49e8:	8b 43 fc             	mov    -0x4(%ebx),%eax
    49eb:	83 c4 10             	add    $0x10,%esp
    49ee:	85 c0                	test   %eax,%eax
    49f0:	75 e6                	jne    49d8 <cmd_echo+0x18>
    49f2:	83 ec 0c             	sub    $0xc,%esp
    49f5:	68 1b c8 00 00       	push   $0xc81b
    49fa:	e8 f1 85 00 00       	call   cff0 <printf@plt>
    49ff:	31 c0                	xor    %eax,%eax
    4a01:	8b 5d fc             	mov    -0x4(%ebp),%ebx
    4a04:	c9                   	leave  
    4a05:	c3                   	ret    
    4a06:	66 90                	xchg   %ax,%ax
    4a08:	66 90                	xchg   %ax,%ax
    4a0a:	66 90                	xchg   %ax,%ax
    4a0c:	66 90                	xchg   %ax,%ax
    4a0e:	66 90                	xchg   %ax,%ax

00004a10 <help_cmd_mount>:
    4a10:	55                   	push   %ebp
    4a11:	89 e5                	mov    %esp,%ebp
    4a13:	83 ec 08             	sub    $0x8,%esp
    4a16:	8b 45 08             	mov    0x8(%ebp),%eax
    4a19:	85 c0                	test   %eax,%eax
    4a1b:	74 2b                	je     4a48 <help_cmd_mount+0x38>
    4a1d:	50                   	push   %eax
    4a1e:	50                   	push   %eax
    4a1f:	68 11 a0 00 00       	push   $0xa011
    4a24:	68 6c c0 00 00       	push   $0xc06c
    4a29:	e8 c2 85 00 00       	call   cff0 <printf@plt>
    4a2e:	5a                   	pop    %edx
    4a2f:	59                   	pop    %ecx
    4a30:	68 11 a0 00 00       	push   $0xa011
    4a35:	68 60 f6 00 00       	push   $0xf660
    4a3a:	e8 b1 85 00 00       	call   cff0 <printf@plt>
    4a3f:	83 c4 10             	add    $0x10,%esp
    4a42:	c9                   	leave  
    4a43:	c3                   	ret    
    4a44:	8d 74 26 00          	lea    0x0(%esi,%eiz,1),%esi
    4a48:	50                   	push   %eax
    4a49:	50                   	push   %eax
    4a4a:	68 11 a0 00 00       	push   $0xa011
    4a4f:	68 6c c0 00 00       	push   $0xc06c
    4a54:	e8 97 85 00 00       	call   cff0 <printf@plt>
    4a59:	83 c4 10             	add    $0x10,%esp
    4a5c:	c9                   	leave  
    4a5d:	c3                   	ret    
    4a5e:	66 90                	xchg   %ax,%ax

00004a60 <cmd_mount>:
    4a60:	55                   	push   %ebp
    4a61:	89 e5                	mov    %esp,%ebp
    4a63:	57                   	push   %edi
    4a64:	56                   	push   %esi
    4a65:	53                   	push   %ebx
    4a66:	83 ec 38             	sub    $0x38,%esp
    4a69:	8d 7d d8             	lea    -0x28(%ebp),%edi
    4a6c:	8b 5d 08             	mov    0x8(%ebp),%ebx
    4a6f:	53                   	push   %ebx
    4a70:	e8 6b 1e 00 00       	call   68e0 <cli_count_args>
    4a75:	c7 05 5c f8 00 00 01 	movl   $0x1,0xf85c
    4a7c:	00 00 00 
    4a7f:	89 c6                	mov    %eax,%esi
    4a81:	c7 05 4c f8 00 00 00 	movl   $0x0,0xf84c
    4a88:	00 00 00 
    4a8b:	c7 45 d8 00 00 00 00 	movl   $0x0,-0x28(%ebp)
    4a92:	83 c4 10             	add    $0x10,%esp
    4a95:	c6 45 d7 00          	movb   $0x0,-0x29(%ebp)
    4a99:	c7 45 d0 00 00 00 00 	movl   $0x0,-0x30(%ebp)
    4aa0:	83 ec 0c             	sub    $0xc,%esp
    4aa3:	57                   	push   %edi
    4aa4:	68 20 c1 00 00       	push   $0xc120
    4aa9:	68 88 c0 00 00       	push   $0xc088
    4aae:	53                   	push   %ebx
    4aaf:	56                   	push   %esi
    4ab0:	e8 6b 85 00 00       	call   d020 <getopt_long@plt>
    4ab5:	83 c4 20             	add    $0x20,%esp
    4ab8:	83 f8 68             	cmp    $0x68,%eax
    4abb:	0f 84 af 00 00 00    	je     4b70 <cmd_mount+0x110>
    4ac1:	83 f8 69             	cmp    $0x69,%eax
    4ac4:	0f 84 86 00 00 00    	je     4b50 <cmd_mount+0xf0>
    4aca:	40                   	inc    %eax
    4acb:	75 d3                	jne    4aa0 <cmd_mount+0x40>
    4acd:	80 7d d7 00          	cmpb   $0x0,-0x29(%ebp)
    4ad1:	74 06                	je     4ad9 <cmd_mount+0x79>
    4ad3:	83 ee 02             	sub    $0x2,%esi
    4ad6:	83 c3 08             	add    $0x8,%ebx
    4ad9:	83 fe 02             	cmp    $0x2,%esi
    4adc:	0f 84 0f 02 00 00    	je     4cf1 <cmd_mount+0x291>
    4ae2:	83 fe 05             	cmp    $0x5,%esi
    4ae5:	0f 87 06 02 00 00    	ja     4cf1 <cmd_mount+0x291>
    4aeb:	83 fe 01             	cmp    $0x1,%esi
    4aee:	0f 84 ab 00 00 00    	je     4b9f <cmd_mount+0x13f>
    4af4:	83 fe 03             	cmp    $0x3,%esi
    4af7:	0f 87 db 01 00 00    	ja     4cd8 <cmd_mount+0x278>
    4afd:	ba 1c c8 00 00       	mov    $0xc81c,%edx
    4b02:	89 d0                	mov    %edx,%eax
    4b04:	8b 7d d0             	mov    -0x30(%ebp),%edi
    4b07:	56                   	push   %esi
    4b08:	56                   	push   %esi
    4b09:	57                   	push   %edi
    4b0a:	6a 00                	push   $0x0
    4b0c:	50                   	push   %eax
    4b0d:	52                   	push   %edx
    4b0e:	8b 43 08             	mov    0x8(%ebx),%eax
    4b11:	50                   	push   %eax
    4b12:	8b 43 04             	mov    0x4(%ebx),%eax
    4b15:	50                   	push   %eax
    4b16:	e8 95 87 00 00       	call   d2b0 <vfs_mount@plt>
    4b1b:	83 c4 20             	add    $0x20,%esp
    4b1e:	85 c0                	test   %eax,%eax
    4b20:	74 75                	je     4b97 <cmd_mount+0x137>
    4b22:	83 ec 0c             	sub    $0xc,%esp
    4b25:	50                   	push   %eax
    4b26:	e8 f5 88 00 00       	call   d420 <str_error@plt>
    4b2b:	89 04 24             	mov    %eax,(%esp)
    4b2e:	8b 43 0c             	mov    0xc(%ebx),%eax
    4b31:	50                   	push   %eax
    4b32:	8b 53 08             	mov    0x8(%ebx),%edx
    4b35:	52                   	push   %edx
    4b36:	8b 4b 04             	mov    0x4(%ebx),%ecx
    4b39:	51                   	push   %ecx
    4b3a:	68 d8 c0 00 00       	push   $0xc0d8
    4b3f:	e8 ac 84 00 00       	call   cff0 <printf@plt>
    4b44:	83 c4 20             	add    $0x20,%esp
    4b47:	b8 01 00 00 00       	mov    $0x1,%eax
    4b4c:	eb 49                	jmp    4b97 <cmd_mount+0x137>
    4b4e:	66 90                	xchg   %ax,%ax
    4b50:	50                   	push   %eax
    4b51:	a1 48 f8 00 00       	mov    0xf848,%eax
    4b56:	6a 0a                	push   $0xa
    4b58:	6a 00                	push   $0x0
    4b5a:	50                   	push   %eax
    4b5b:	e8 50 86 00 00       	call   d1b0 <strtol@plt>
    4b60:	83 c4 10             	add    $0x10,%esp
    4b63:	89 45 d0             	mov    %eax,-0x30(%ebp)
    4b66:	c6 45 d7 01          	movb   $0x1,-0x29(%ebp)
    4b6a:	e9 31 ff ff ff       	jmp    4aa0 <cmd_mount+0x40>
    4b6f:	90                   	nop
    4b70:	50                   	push   %eax
    4b71:	50                   	push   %eax
    4b72:	68 11 a0 00 00       	push   $0xa011
    4b77:	68 6c c0 00 00       	push   $0xc06c
    4b7c:	e8 6f 84 00 00       	call   cff0 <printf@plt>
    4b81:	58                   	pop    %eax
    4b82:	5a                   	pop    %edx
    4b83:	68 11 a0 00 00       	push   $0xa011
    4b88:	68 60 f6 00 00       	push   $0xf660
    4b8d:	e8 5e 84 00 00       	call   cff0 <printf@plt>
    4b92:	83 c4 10             	add    $0x10,%esp
    4b95:	31 c0                	xor    %eax,%eax
    4b97:	8d 65 f4             	lea    -0xc(%ebp),%esp
    4b9a:	5b                   	pop    %ebx
    4b9b:	5e                   	pop    %esi
    4b9c:	5f                   	pop    %edi
    4b9d:	5d                   	pop    %ebp
    4b9e:	c3                   	ret    
    4b9f:	83 ec 0c             	sub    $0xc,%esp
    4ba2:	8d 45 e0             	lea    -0x20(%ebp),%eax
    4ba5:	89 45 e0             	mov    %eax,-0x20(%ebp)
    4ba8:	89 45 e4             	mov    %eax,-0x1c(%ebp)
    4bab:	50                   	push   %eax
    4bac:	e8 8f 86 00 00       	call   d240 <vfs_get_mtab_list@plt>
    4bb1:	8b 5d e4             	mov    -0x1c(%ebp),%ebx
    4bb4:	8d 45 e0             	lea    -0x20(%ebp),%eax
    4bb7:	83 c4 10             	add    $0x10,%esp
    4bba:	39 c3                	cmp    %eax,%ebx
    4bbc:	0f 84 0a 01 00 00    	je     4ccc <cmd_mount+0x26c>
    4bc2:	8d 7d dc             	lea    -0x24(%ebp),%edi
    4bc5:	eb 61                	jmp    4c28 <cmd_mount+0x1c8>
    4bc7:	90                   	nop
    4bc8:	8b 55 dc             	mov    -0x24(%ebp),%edx
    4bcb:	50                   	push   %eax
    4bcc:	50                   	push   %eax
    4bcd:	52                   	push   %edx
    4bce:	68 51 ad 00 00       	push   $0xad51
    4bd3:	e8 18 84 00 00       	call   cff0 <printf@plt>
    4bd8:	8b 75 dc             	mov    -0x24(%ebp),%esi
    4bdb:	59                   	pop    %ecx
    4bdc:	56                   	push   %esi
    4bdd:	e8 2e 89 00 00       	call   d510 <free@plt>
    4be2:	83 c4 10             	add    $0x10,%esp
    4be5:	83 ec 0c             	sub    $0xc,%esp
    4be8:	8d b3 08 00 01 00    	lea    0x10008(%ebx),%esi
    4bee:	56                   	push   %esi
    4bef:	e8 cc 87 00 00       	call   d3c0 <str_size@plt>
    4bf4:	83 c4 10             	add    $0x10,%esp
    4bf7:	85 c0                	test   %eax,%eax
    4bf9:	0f 85 a9 00 00 00    	jne    4ca8 <cmd_mount+0x248>
    4bff:	83 ec 0c             	sub    $0xc,%esp
    4c02:	6a 0a                	push   $0xa
    4c04:	e8 a7 83 00 00       	call   cfb0 <putchar@plt>
    4c09:	8b 73 04             	mov    0x4(%ebx),%esi
    4c0c:	8d 45 e0             	lea    -0x20(%ebp),%eax
    4c0f:	83 c4 10             	add    $0x10,%esp
    4c12:	39 c6                	cmp    %eax,%esi
    4c14:	0f 84 a6 00 00 00    	je     4cc0 <cmd_mount+0x260>
    4c1a:	83 ec 0c             	sub    $0xc,%esp
    4c1d:	53                   	push   %ebx
    4c1e:	89 f3                	mov    %esi,%ebx
    4c20:	e8 eb 88 00 00       	call   d510 <free@plt>
    4c25:	83 c4 10             	add    $0x10,%esp
    4c28:	50                   	push   %eax
    4c29:	50                   	push   %eax
