
kio:     file format elf32-i386


Disassembly of section .init:

000010f4 <__entry>:
    10f4:	66 8c d0             	mov    %ss,%ax
    10f7:	8e d8                	mov    %eax,%ds
    10f9:	8e c0                	mov    %eax,%es
    10fb:	8e e0                	mov    %eax,%fs
    10fd:	b8 01 00 00 00       	mov    $0x1,%eax
    1102:	0f a2                	cpuid  
    1104:	0f ba e2 0b          	bt     $0xb,%edx
    1108:	73 0c                	jae    1116 <__entry+0x22>
    110a:	8d 05 18 5b 00 00    	lea    0x5b18,%eax
    1110:	c7 00 00 41 00 00    	movl   $0x4100,(%eax)
    1116:	6a 00                	push   $0x0
    1118:	6a 00                	push   $0x0
    111a:	89 e5                	mov    %esp,%ebp
    111c:	57                   	push   %edi
    111d:	e8 0e 2d 00 00       	call   3e30 <__main@plt>

Disassembly of section .text:

00001130 <consumer>:
    1130:	55                   	push   %ebp
    1131:	89 e5                	mov    %esp,%ebp
    1133:	57                   	push   %edi
    1134:	56                   	push   %esi
    1135:	53                   	push   %ebx
    1136:	83 ec 14             	sub    $0x14,%esp
    1139:	68 6a 38 00 00       	push   $0x386a
    113e:	68 6c 38 00 00       	push   $0x386c
    1143:	e8 c8 2e 00 00       	call   4010 <fopen@plt>
    1148:	83 c4 10             	add    $0x10,%esp
    114b:	89 c7                	mov    %eax,%edi
    114d:	85 c0                	test   %eax,%eax
    114f:	75 2f                	jne    1180 <consumer+0x50>
    1151:	e8 4a 2d 00 00       	call   3ea0 <__errno@plt>
    1156:	83 ec 0c             	sub    $0xc,%esp
    1159:	8b 00                	mov    (%eax),%eax
    115b:	50                   	push   %eax
    115c:	e8 2f 2f 00 00       	call   4090 <str_error@plt>
    1161:	50                   	push   %eax
    1162:	68 6c 38 00 00       	push   $0x386c
    1167:	68 71 38 00 00       	push   $0x3871
    116c:	68 c4 38 00 00       	push   $0x38c4
    1171:	e8 0a 2d 00 00       	call   3e80 <printf@plt>
    1176:	83 c4 20             	add    $0x20,%esp
    1179:	8d b4 26 00 00 00 00 	lea    0x0(%esi,%eiz,1),%esi
    1180:	83 ec 0c             	sub    $0xc,%esp
    1183:	68 60 5b 00 00       	push   $0x5b60
    1188:	e8 63 2e 00 00       	call   3ff0 <prodcons_consume@plt>
    118d:	89 c6                	mov    %eax,%esi
    118f:	83 c4 10             	add    $0x10,%esp
    1192:	8b 40 08             	mov    0x8(%eax),%eax
    1195:	85 c0                	test   %eax,%eax
    1197:	74 7f                	je     1218 <consumer+0xe8>
    1199:	31 db                	xor    %ebx,%ebx
    119b:	90                   	nop
    119c:	8d 74 26 00          	lea    0x0(%esi,%eiz,1),%esi
    11a0:	8b 46 0c             	mov    0xc(%esi),%eax
    11a3:	83 ec 0c             	sub    $0xc,%esp
    11a6:	8b 04 98             	mov    (%eax,%ebx,4),%eax
    11a9:	43                   	inc    %ebx
    11aa:	50                   	push   %eax
    11ab:	e8 70 2c 00 00       	call   3e20 <putchar@plt>
    11b0:	8b 46 08             	mov    0x8(%esi),%eax
    11b3:	83 c4 10             	add    $0x10,%esp
    11b6:	39 d8                	cmp    %ebx,%eax
    11b8:	77 e6                	ja     11a0 <consumer+0x70>
    11ba:	85 ff                	test   %edi,%edi
    11bc:	74 3e                	je     11fc <consumer+0xcc>
    11be:	31 db                	xor    %ebx,%ebx
    11c0:	85 c0                	test   %eax,%eax
    11c2:	74 1c                	je     11e0 <consumer+0xb0>
    11c4:	8d 74 26 00          	lea    0x0(%esi,%eiz,1),%esi
    11c8:	52                   	push   %edx
    11c9:	52                   	push   %edx
    11ca:	8b 46 0c             	mov    0xc(%esi),%eax
    11cd:	57                   	push   %edi
    11ce:	8b 0c 98             	mov    (%eax,%ebx,4),%ecx
    11d1:	43                   	inc    %ebx
    11d2:	51                   	push   %ecx
    11d3:	e8 88 2e 00 00       	call   4060 <fputc@plt>
    11d8:	83 c4 10             	add    $0x10,%esp
    11db:	39 5e 08             	cmp    %ebx,0x8(%esi)
    11de:	77 e8                	ja     11c8 <consumer+0x98>
    11e0:	83 ec 0c             	sub    $0xc,%esp
    11e3:	57                   	push   %edi
    11e4:	e8 47 2d 00 00       	call   3f30 <fflush@plt>
    11e9:	89 3c 24             	mov    %edi,(%esp)
    11ec:	e8 ff 2e 00 00       	call   40f0 <fileno@plt>
    11f1:	89 04 24             	mov    %eax,(%esp)
    11f4:	e8 47 2e 00 00       	call   4040 <fsync@plt>
    11f9:	83 c4 10             	add    $0x10,%esp
    11fc:	83 ec 0c             	sub    $0xc,%esp
    11ff:	8b 46 0c             	mov    0xc(%esi),%eax
    1202:	50                   	push   %eax
    1203:	e8 28 2f 00 00       	call   4130 <free@plt>
    1208:	89 34 24             	mov    %esi,(%esp)
    120b:	e8 20 2f 00 00       	call   4130 <free@plt>
    1210:	83 c4 10             	add    $0x10,%esp
    1213:	e9 68 ff ff ff       	jmp    1180 <consumer+0x50>
    1218:	85 ff                	test   %edi,%edi
    121a:	75 c4                	jne    11e0 <consumer+0xb0>
    121c:	eb de                	jmp    11fc <consumer+0xcc>
    121e:	66 90                	xchg   %ax,%ax

00001220 <kio_notification_handler>:
    1220:	55                   	push   %ebp
    1221:	89 e5                	mov    %esp,%ebp
    1223:	57                   	push   %edi
    1224:	56                   	push   %esi
    1225:	53                   	push   %ebx
    1226:	83 ec 28             	sub    $0x28,%esp
    1229:	8b 75 0c             	mov    0xc(%ebp),%esi
    122c:	68 f4 59 00 00       	push   $0x59f4
    1231:	e8 0a 2f 00 00       	call   4140 <fibril_mutex_lock@plt>
    1236:	8b 46 08             	mov    0x8(%esi),%eax
    1239:	8b 7e 04             	mov    0x4(%esi),%edi
    123c:	8b 5e 0c             	mov    0xc(%esi),%ebx
    123f:	01 f8                	add    %edi,%eax
    1241:	8b 0d 40 5b 00 00    	mov    0x5b40,%ecx
    1247:	29 d8                	sub    %ebx,%eax
    1249:	31 d2                	xor    %edx,%edx
    124b:	83 c4 10             	add    $0x10,%esp
    124e:	f7 f1                	div    %ecx
    1250:	89 55 e4             	mov    %edx,-0x1c(%ebp)
    1253:	8d 04 13             	lea    (%ebx,%edx,1),%eax
    1256:	39 c1                	cmp    %eax,%ecx
    1258:	0f 86 9a 00 00 00    	jbe    12f8 <kio_notification_handler+0xd8>
    125e:	83 ec 0c             	sub    $0xc,%esp
    1261:	8b 3d 04 5a 00 00    	mov    0x5a04,%edi
    1267:	6a 10                	push   $0x10
    1269:	e8 a2 2c 00 00       	call   3f10 <malloc@plt>
    126e:	83 c4 10             	add    $0x10,%esp
    1271:	89 c6                	mov    %eax,%esi
    1273:	85 c0                	test   %eax,%eax
    1275:	74 5b                	je     12d2 <kio_notification_handler+0xb2>
    1277:	83 ec 0c             	sub    $0xc,%esp
    127a:	8d 0c 9d 00 00 00 00 	lea    0x0(,%ebx,4),%ecx
    1281:	89 4d e0             	mov    %ecx,-0x20(%ebp)
    1284:	51                   	push   %ecx
    1285:	e8 86 2c 00 00       	call   3f10 <malloc@plt>
    128a:	83 c4 10             	add    $0x10,%esp
    128d:	89 c2                	mov    %eax,%edx
    128f:	85 c0                	test   %eax,%eax
    1291:	8b 4d e0             	mov    -0x20(%ebp),%ecx
    1294:	0f 84 56 01 00 00    	je     13f0 <kio_notification_handler+0x1d0>
    129a:	50                   	push   %eax
    129b:	8b 45 e4             	mov    -0x1c(%ebp),%eax
    129e:	51                   	push   %ecx
    129f:	89 55 e4             	mov    %edx,-0x1c(%ebp)
    12a2:	8d 04 87             	lea    (%edi,%eax,4),%eax
    12a5:	50                   	push   %eax
    12a6:	52                   	push   %edx
    12a7:	e8 54 2c 00 00       	call   3f00 <memcpy@plt>
    12ac:	8b 55 e4             	mov    -0x1c(%ebp),%edx
    12af:	c7 06 00 00 00 00    	movl   $0x0,(%esi)
    12b5:	c7 46 04 00 00 00 00 	movl   $0x0,0x4(%esi)
    12bc:	89 5e 08             	mov    %ebx,0x8(%esi)
    12bf:	89 56 0c             	mov    %edx,0xc(%esi)
    12c2:	5a                   	pop    %edx
    12c3:	59                   	pop    %ecx
    12c4:	56                   	push   %esi
    12c5:	68 60 5b 00 00       	push   $0x5b60
    12ca:	e8 f1 2d 00 00       	call   40c0 <prodcons_produce@plt>
    12cf:	83 c4 10             	add    $0x10,%esp
    12d2:	83 ec 0c             	sub    $0xc,%esp
    12d5:	6a 00                	push   $0x0
    12d7:	e8 74 2b 00 00       	call   3e50 <async_event_unmask@plt>
    12dc:	c7 45 08 f4 59 00 00 	movl   $0x59f4,0x8(%ebp)
    12e3:	83 c4 10             	add    $0x10,%esp
    12e6:	8d 65 f4             	lea    -0xc(%ebp),%esp
    12e9:	5b                   	pop    %ebx
    12ea:	5e                   	pop    %esi
    12eb:	5f                   	pop    %edi
    12ec:	5d                   	pop    %ebp
    12ed:	e9 9e 2c 00 00       	jmp    3f90 <fibril_mutex_unlock@plt>
    12f2:	8d b6 00 00 00 00    	lea    0x0(%esi),%esi
    12f8:	83 ec 0c             	sub    $0xc,%esp
    12fb:	29 d1                	sub    %edx,%ecx
    12fd:	89 4d e0             	mov    %ecx,-0x20(%ebp)
    1300:	8b 35 04 5a 00 00    	mov    0x5a04,%esi
    1306:	6a 10                	push   $0x10
    1308:	e8 03 2c 00 00       	call   3f10 <malloc@plt>
    130d:	83 c4 10             	add    $0x10,%esp
    1310:	89 c7                	mov    %eax,%edi
    1312:	85 c0                	test   %eax,%eax
    1314:	74 61                	je     1377 <kio_notification_handler+0x157>
    1316:	8b 4d e0             	mov    -0x20(%ebp),%ecx
    1319:	83 ec 0c             	sub    $0xc,%esp
    131c:	8d 14 8d 00 00 00 00 	lea    0x0(,%ecx,4),%edx
    1323:	52                   	push   %edx
    1324:	89 55 dc             	mov    %edx,-0x24(%ebp)
    1327:	e8 e4 2b 00 00       	call   3f10 <malloc@plt>
    132c:	83 c4 10             	add    $0x10,%esp
    132f:	89 c1                	mov    %eax,%ecx
    1331:	85 c0                	test   %eax,%eax
    1333:	8b 55 dc             	mov    -0x24(%ebp),%edx
    1336:	0f 84 cc 00 00 00    	je     1408 <kio_notification_handler+0x1e8>
    133c:	50                   	push   %eax
    133d:	8b 45 e4             	mov    -0x1c(%ebp),%eax
    1340:	52                   	push   %edx
    1341:	89 4d e4             	mov    %ecx,-0x1c(%ebp)
    1344:	8d 04 86             	lea    (%esi,%eax,4),%eax
    1347:	50                   	push   %eax
    1348:	51                   	push   %ecx
    1349:	e8 b2 2b 00 00       	call   3f00 <memcpy@plt>
    134e:	8b 45 e0             	mov    -0x20(%ebp),%eax
    1351:	8b 4d e4             	mov    -0x1c(%ebp),%ecx
    1354:	c7 07 00 00 00 00    	movl   $0x0,(%edi)
    135a:	c7 47 04 00 00 00 00 	movl   $0x0,0x4(%edi)
    1361:	89 47 08             	mov    %eax,0x8(%edi)
    1364:	89 4f 0c             	mov    %ecx,0xc(%edi)
    1367:	58                   	pop    %eax
    1368:	5a                   	pop    %edx
    1369:	57                   	push   %edi
    136a:	68 60 5b 00 00       	push   $0x5b60
    136f:	e8 4c 2d 00 00       	call   40c0 <prodcons_produce@plt>
    1374:	83 c4 10             	add    $0x10,%esp
    1377:	83 ec 0c             	sub    $0xc,%esp
    137a:	8b 4d e0             	mov    -0x20(%ebp),%ecx
    137d:	29 cb                	sub    %ecx,%ebx
    137f:	8b 35 04 5a 00 00    	mov    0x5a04,%esi
    1385:	6a 10                	push   $0x10
    1387:	e8 84 2b 00 00       	call   3f10 <malloc@plt>
    138c:	83 c4 10             	add    $0x10,%esp
    138f:	89 c7                	mov    %eax,%edi
    1391:	85 c0                	test   %eax,%eax
    1393:	0f 84 39 ff ff ff    	je     12d2 <kio_notification_handler+0xb2>
    1399:	83 ec 0c             	sub    $0xc,%esp
    139c:	8d 0c 9d 00 00 00 00 	lea    0x0(,%ebx,4),%ecx
    13a3:	89 4d e4             	mov    %ecx,-0x1c(%ebp)
    13a6:	51                   	push   %ecx
    13a7:	e8 64 2b 00 00       	call   3f10 <malloc@plt>
    13ac:	83 c4 10             	add    $0x10,%esp
    13af:	89 c2                	mov    %eax,%edx
    13b1:	85 c0                	test   %eax,%eax
    13b3:	8b 4d e4             	mov    -0x1c(%ebp),%ecx
    13b6:	74 68                	je     1420 <kio_notification_handler+0x200>
    13b8:	89 55 e4             	mov    %edx,-0x1c(%ebp)
    13bb:	50                   	push   %eax
    13bc:	51                   	push   %ecx
    13bd:	56                   	push   %esi
    13be:	52                   	push   %edx
    13bf:	e8 3c 2b 00 00       	call   3f00 <memcpy@plt>
    13c4:	8b 55 e4             	mov    -0x1c(%ebp),%edx
    13c7:	c7 07 00 00 00 00    	movl   $0x0,(%edi)
    13cd:	c7 47 04 00 00 00 00 	movl   $0x0,0x4(%edi)
    13d4:	89 5f 08             	mov    %ebx,0x8(%edi)
    13d7:	89 57 0c             	mov    %edx,0xc(%edi)
    13da:	58                   	pop    %eax
    13db:	5a                   	pop    %edx
    13dc:	57                   	push   %edi
    13dd:	68 60 5b 00 00       	push   $0x5b60
    13e2:	e8 d9 2c 00 00       	call   40c0 <prodcons_produce@plt>
    13e7:	83 c4 10             	add    $0x10,%esp
    13ea:	e9 e3 fe ff ff       	jmp    12d2 <kio_notification_handler+0xb2>
    13ef:	90                   	nop
    13f0:	83 ec 0c             	sub    $0xc,%esp
    13f3:	56                   	push   %esi
    13f4:	e8 37 2d 00 00       	call   4130 <free@plt>
    13f9:	83 c4 10             	add    $0x10,%esp
    13fc:	e9 d1 fe ff ff       	jmp    12d2 <kio_notification_handler+0xb2>
    1401:	8d b4 26 00 00 00 00 	lea    0x0(%esi,%eiz,1),%esi
    1408:	83 ec 0c             	sub    $0xc,%esp
    140b:	57                   	push   %edi
    140c:	e8 1f 2d 00 00       	call   4130 <free@plt>
    1411:	83 c4 10             	add    $0x10,%esp
    1414:	e9 5e ff ff ff       	jmp    1377 <kio_notification_handler+0x157>
    1419:	8d b4 26 00 00 00 00 	lea    0x0(%esi,%eiz,1),%esi
    1420:	83 ec 0c             	sub    $0xc,%esp
    1423:	57                   	push   %edi
    1424:	e8 07 2d 00 00       	call   4130 <free@plt>
    1429:	83 c4 10             	add    $0x10,%esp
    142c:	e9 a1 fe ff ff       	jmp    12d2 <kio_notification_handler+0xb2>
    1431:	66 90                	xchg   %ax,%ax
    1433:	66 90                	xchg   %ax,%ax
    1435:	66 90                	xchg   %ax,%ax
    1437:	66 90                	xchg   %ax,%ax
    1439:	66 90                	xchg   %ax,%ax
    143b:	66 90                	xchg   %ax,%ax
    143d:	66 90                	xchg   %ax,%ax
    143f:	90                   	nop

00001440 <main>:
    1440:	8d 4c 24 04          	lea    0x4(%esp),%ecx
    1444:	83 e4 f0             	and    $0xfffffff0,%esp
    1447:	ff 71 fc             	pushl  -0x4(%ecx)
    144a:	55                   	push   %ebp
    144b:	89 e5                	mov    %esp,%ebp
    144d:	57                   	push   %edi
    144e:	56                   	push   %esi
    144f:	53                   	push   %ebx
    1450:	51                   	push   %ecx
    1451:	8d 45 dc             	lea    -0x24(%ebp),%eax
    1454:	83 ec 20             	sub    $0x20,%esp
    1457:	50                   	push   %eax
    1458:	68 75 38 00 00       	push   $0x3875
    145d:	e8 de 29 00 00       	call   3e40 <sysinfo_get_value@plt>
    1462:	83 c4 10             	add    $0x10,%esp
    1465:	85 c0                	test   %eax,%eax
    1467:	0f 85 46 01 00 00    	jne    15b3 <main+0x173>
    146d:	50                   	push   %eax
    146e:	50                   	push   %eax
    146f:	8d 45 e0             	lea    -0x20(%ebp),%eax
    1472:	50                   	push   %eax
    1473:	68 7f 38 00 00       	push   $0x387f
    1478:	e8 c3 29 00 00       	call   3e40 <sysinfo_get_value@plt>
    147d:	83 c4 10             	add    $0x10,%esp
    1480:	89 c3                	mov    %eax,%ebx
    1482:	85 c0                	test   %eax,%eax
    1484:	0f 85 02 01 00 00    	jne    158c <main+0x14c>
    148a:	8b 55 dc             	mov    -0x24(%ebp),%edx
    148d:	68 04 5a 00 00       	push   $0x5a04
    1492:	6a 09                	push   $0x9
    1494:	52                   	push   %edx
    1495:	89 d0                	mov    %edx,%eax
    1497:	ff 75 e0             	pushl  -0x20(%ebp)
    149a:	c1 e0 0c             	shl    $0xc,%eax
    149d:	c1 e8 02             	shr    $0x2,%eax
    14a0:	a3 40 5b 00 00       	mov    %eax,0x5b40
    14a5:	e8 c6 29 00 00       	call   3e70 <physmem_map@plt>
    14aa:	83 c4 10             	add    $0x10,%esp
    14ad:	89 c3                	mov    %eax,%ebx
    14af:	85 c0                	test   %eax,%eax
    14b1:	0f 85 63 01 00 00    	jne    161a <main+0x1da>
    14b7:	83 ec 0c             	sub    $0xc,%esp
    14ba:	68 60 5b 00 00       	push   $0x5b60
    14bf:	e8 fc 2a 00 00       	call   3fc0 <prodcons_initialize@plt>
    14c4:	83 c4 0c             	add    $0xc,%esp
    14c7:	6a 00                	push   $0x0
    14c9:	68 20 12 00 00       	push   $0x1220
    14ce:	6a 00                	push   $0x0
    14d0:	e8 4b 2c 00 00       	call   4120 <async_event_subscribe@plt>
    14d5:	83 c4 10             	add    $0x10,%esp
    14d8:	89 c3                	mov    %eax,%ebx
    14da:	85 c0                	test   %eax,%eax
    14dc:	0f 85 ee 00 00 00    	jne    15d0 <main+0x190>
    14e2:	56                   	push   %esi
    14e3:	6a 00                	push   $0x0
    14e5:	6a 00                	push   $0x0
    14e7:	68 30 11 00 00       	push   $0x1130
    14ec:	e8 df 2b 00 00       	call   40d0 <fibril_create_generic@plt>
    14f1:	83 c4 10             	add    $0x10,%esp
    14f4:	89 c7                	mov    %eax,%edi
    14f6:	85 c0                	test   %eax,%eax
    14f8:	0f 84 3a 01 00 00    	je     1638 <main+0x1f8>
    14fe:	e8 cd 08 00 00       	call   1dd0 <tinput_new>
    1503:	89 c6                	mov    %eax,%esi
    1505:	85 c0                	test   %eax,%eax
    1507:	0f 84 4e 01 00 00    	je     165b <main+0x21b>
    150d:	83 ec 0c             	sub    $0xc,%esp
    1510:	57                   	push   %edi
    1511:	e8 ca 2b 00 00       	call   40e0 <fibril_add_ready@plt>
    1516:	c7 04 24 00 00 00 00 	movl   $0x0,(%esp)
    151d:	e8 2e 29 00 00       	call   3e50 <async_event_unmask@plt>
    1522:	e8 f9 29 00 00       	call   3f20 <kio_update@plt>
    1527:	58                   	pop    %eax
    1528:	5a                   	pop    %edx
    1529:	68 bc 38 00 00       	push   $0x38bc
    152e:	56                   	push   %esi
    152f:	8d 7d e4             	lea    -0x1c(%ebp),%edi
    1532:	e8 29 09 00 00       	call   1e60 <tinput_set_prompt>
    1537:	83 c4 10             	add    $0x10,%esp
    153a:	8d b6 00 00 00 00    	lea    0x0(%esi),%esi
    1540:	50                   	push   %eax
    1541:	50                   	push   %eax
    1542:	57                   	push   %edi
    1543:	56                   	push   %esi
    1544:	e8 07 23 00 00       	call   3850 <tinput_read>
    1549:	83 c4 10             	add    $0x10,%esp
    154c:	85 c0                	test   %eax,%eax
    154e:	75 55                	jne    15a5 <main+0x165>
    1550:	50                   	push   %eax
    1551:	50                   	push   %eax
    1552:	8b 45 e4             	mov    -0x1c(%ebp),%eax
    1555:	68 ad 39 00 00       	push   $0x39ad
    155a:	50                   	push   %eax
    155b:	e8 80 2a 00 00       	call   3fe0 <str_cmp@plt>
    1560:	83 c4 10             	add    $0x10,%esp
    1563:	85 c0                	test   %eax,%eax
    1565:	0f 85 85 00 00 00    	jne    15f0 <main+0x1b0>
    156b:	83 ec 0c             	sub    $0xc,%esp
    156e:	8b 45 e4             	mov    -0x1c(%ebp),%eax
    1571:	50                   	push   %eax
    1572:	e8 b9 2b 00 00       	call   4130 <free@plt>
    1577:	83 c4 10             	add    $0x10,%esp
    157a:	50                   	push   %eax
    157b:	50                   	push   %eax
    157c:	57                   	push   %edi
    157d:	56                   	push   %esi
    157e:	e8 cd 22 00 00       	call   3850 <tinput_read>
    1583:	83 c4 10             	add    $0x10,%esp
    1586:	85 c0                	test   %eax,%eax
    1588:	74 c6                	je     1550 <main+0x110>
    158a:	eb 19                	jmp    15a5 <main+0x165>
    158c:	50                   	push   %eax
    158d:	68 71 38 00 00       	push   $0x3871
    1592:	68 14 39 00 00       	push   $0x3914
    1597:	ff 35 20 5b 00 00    	pushl  0x5b20
    159d:	e8 de 29 00 00       	call   3f80 <fprintf@plt>
    15a2:	83 c4 10             	add    $0x10,%esp
    15a5:	8d 65 f0             	lea    -0x10(%ebp),%esp
    15a8:	89 d8                	mov    %ebx,%eax
    15aa:	59                   	pop    %ecx
    15ab:	5b                   	pop    %ebx
    15ac:	5e                   	pop    %esi
    15ad:	5f                   	pop    %edi
    15ae:	5d                   	pop    %ebp
    15af:	8d 61 fc             	lea    -0x4(%ecx),%esp
    15b2:	c3                   	ret    
    15b3:	89 c3                	mov    %eax,%ebx
    15b5:	50                   	push   %eax
    15b6:	68 71 38 00 00       	push   $0x3871
    15bb:	68 ec 38 00 00       	push   $0x38ec
    15c0:	ff 35 20 5b 00 00    	pushl  0x5b20
    15c6:	e8 b5 29 00 00       	call   3f80 <fprintf@plt>
    15cb:	83 c4 10             	add    $0x10,%esp
    15ce:	eb d5                	jmp    15a5 <main+0x165>
    15d0:	57                   	push   %edi
    15d1:	68 71 38 00 00       	push   $0x3871
    15d6:	68 3c 39 00 00       	push   $0x393c
    15db:	ff 35 20 5b 00 00    	pushl  0x5b20
    15e1:	e8 9a 29 00 00       	call   3f80 <fprintf@plt>
    15e6:	83 c4 10             	add    $0x10,%esp
    15e9:	eb ba                	jmp    15a5 <main+0x165>
    15eb:	90                   	nop
    15ec:	8d 74 26 00          	lea    0x0(%esi,%eiz,1),%esi
    15f0:	83 ec 0c             	sub    $0xc,%esp
    15f3:	8b 55 e4             	mov    -0x1c(%ebp),%edx
    15f6:	52                   	push   %edx
    15f7:	e8 54 2a 00 00       	call   4050 <str_size@plt>
    15fc:	59                   	pop    %ecx
    15fd:	8b 4d e4             	mov    -0x1c(%ebp),%ecx
    1600:	5a                   	pop    %edx
    1601:	50                   	push   %eax
    1602:	51                   	push   %ecx
    1603:	e8 98 2a 00 00       	call   40a0 <kio_command@plt>
    1608:	58                   	pop    %eax
    1609:	8b 45 e4             	mov    -0x1c(%ebp),%eax
    160c:	50                   	push   %eax
    160d:	e8 1e 2b 00 00       	call   4130 <free@plt>
    1612:	83 c4 10             	add    $0x10,%esp
    1615:	e9 26 ff ff ff       	jmp    1540 <main+0x100>
    161a:	50                   	push   %eax
    161b:	68 71 38 00 00       	push   $0x3871
    1620:	68 89 38 00 00       	push   $0x3889
    1625:	ff 35 20 5b 00 00    	pushl  0x5b20
    162b:	e8 50 29 00 00       	call   3f80 <fprintf@plt>
    1630:	83 c4 10             	add    $0x10,%esp
    1633:	e9 6d ff ff ff       	jmp    15a5 <main+0x165>
    1638:	53                   	push   %ebx
    1639:	68 71 38 00 00       	push   $0x3871
    163e:	68 68 39 00 00       	push   $0x3968
    1643:	bb fe ff ff ff       	mov    $0xfffffffe,%ebx
    1648:	ff 35 20 5b 00 00    	pushl  0x5b20
    164e:	e8 2d 29 00 00       	call   3f80 <fprintf@plt>
    1653:	83 c4 10             	add    $0x10,%esp
    1656:	e9 4a ff ff ff       	jmp    15a5 <main+0x165>
    165b:	51                   	push   %ecx
    165c:	68 71 38 00 00       	push   $0x3871
    1661:	68 a0 38 00 00       	push   $0x38a0
    1666:	bb fe ff ff ff       	mov    $0xfffffffe,%ebx
    166b:	ff 35 20 5b 00 00    	pushl  0x5b20
    1671:	e8 0a 29 00 00       	call   3f80 <fprintf@plt>
    1676:	83 c4 10             	add    $0x10,%esp
    1679:	e9 27 ff ff ff       	jmp    15a5 <main+0x165>
    167e:	66 90                	xchg   %ax,%ax

00001680 <compl_cmp>:
    1680:	55                   	push   %ebp
    1681:	89 e5                	mov    %esp,%ebp
    1683:	8b 45 0c             	mov    0xc(%ebp),%eax
    1686:	8b 00                	mov    (%eax),%eax
    1688:	89 45 0c             	mov    %eax,0xc(%ebp)
    168b:	8b 45 08             	mov    0x8(%ebp),%eax
    168e:	8b 00                	mov    (%eax),%eax
    1690:	89 45 08             	mov    %eax,0x8(%ebp)
    1693:	5d                   	pop    %ebp
    1694:	e9 47 29 00 00       	jmp    3fe0 <str_cmp@plt>
    1699:	8d b4 26 00 00 00 00 	lea    0x0(%esi,%eiz,1),%esi

000016a0 <tinput_display_tail>:
    16a0:	55                   	push   %ebp
    16a1:	89 e5                	mov    %esp,%ebp
    16a3:	57                   	push   %edi
    16a4:	56                   	push   %esi
    16a5:	53                   	push   %ebx
    16a6:	83 ec 28             	sub    $0x28,%esp
    16a9:	89 c6                	mov    %eax,%esi
    16ab:	89 d3                	mov    %edx,%ebx
    16ad:	89 cf                	mov    %ecx,%edi
    16af:	68 04 10 00 00       	push   $0x1004
    16b4:	e8 57 28 00 00       	call   3f10 <malloc@plt>
    16b9:	83 c4 10             	add    $0x10,%esp
    16bc:	89 45 e4             	mov    %eax,-0x1c(%ebp)
    16bf:	85 c0                	test   %eax,%eax
    16c1:	0f 84 b3 00 00 00    	je     177a <tinput_display_tail+0xda>
    16c7:	8b 86 24 10 00 00    	mov    0x1024(%esi),%eax
    16cd:	8b 8e 28 10 00 00    	mov    0x1028(%esi),%ecx
    16d3:	89 c2                	mov    %eax,%edx
    16d5:	89 45 e0             	mov    %eax,-0x20(%ebp)
    16d8:	39 c1                	cmp    %eax,%ecx
    16da:	0f 83 a8 00 00 00    	jae    1788 <tinput_display_tail+0xe8>
    16e0:	8b 86 14 10 00 00    	mov    0x1014(%esi),%eax
    16e6:	31 d2                	xor    %edx,%edx
    16e8:	01 d8                	add    %ebx,%eax
    16ea:	89 4d dc             	mov    %ecx,-0x24(%ebp)
    16ed:	f7 b6 18 10 00 00    	divl   0x1018(%esi)
    16f3:	51                   	push   %ecx
    16f4:	50                   	push   %eax
    16f5:	8b 06                	mov    (%esi),%eax
    16f7:	52                   	push   %edx
    16f8:	50                   	push   %eax
    16f9:	e8 82 29 00 00       	call   4080 <console_set_pos@plt>
    16fe:	8b 0e                	mov    (%esi),%ecx
    1700:	58                   	pop    %eax
    1701:	5a                   	pop    %edx
    1702:	6a 00                	push   $0x0
    1704:	51                   	push   %ecx
    1705:	e8 f6 28 00 00       	call   4000 <console_set_style@plt>
    170a:	8b 4d dc             	mov    -0x24(%ebp),%ecx
    170d:	83 c4 10             	add    $0x10,%esp
    1710:	39 cb                	cmp    %ecx,%ebx
    1712:	0f 82 18 01 00 00    	jb     1830 <tinput_display_tail+0x190>
    1718:	3b 5d e0             	cmp    -0x20(%ebp),%ebx
    171b:	0f 82 b7 00 00 00    	jb     17d8 <tinput_display_tail+0x138>
    1721:	83 ec 0c             	sub    $0xc,%esp
    1724:	8b 06                	mov    (%esi),%eax
    1726:	50                   	push   %eax
    1727:	e8 04 29 00 00       	call   4030 <console_flush@plt>
    172c:	8b 0e                	mov    (%esi),%ecx
    172e:	58                   	pop    %eax
    172f:	5a                   	pop    %edx
    1730:	6a 00                	push   $0x0
    1732:	51                   	push   %ecx
    1733:	e8 c8 28 00 00       	call   4000 <console_set_style@plt>
    1738:	8b 86 20 10 00 00    	mov    0x1020(%esi),%eax
    173e:	83 c4 10             	add    $0x10,%esp
    1741:	39 c3                	cmp    %eax,%ebx
    1743:	72 53                	jb     1798 <tinput_display_tail+0xf8>
    1745:	31 db                	xor    %ebx,%ebx
    1747:	85 ff                	test   %edi,%edi
    1749:	74 17                	je     1762 <tinput_display_tail+0xc2>
    174b:	90                   	nop
    174c:	8d 74 26 00          	lea    0x0(%esi,%eiz,1),%esi
    1750:	83 ec 0c             	sub    $0xc,%esp
    1753:	43                   	inc    %ebx
    1754:	6a 20                	push   $0x20
    1756:	e8 c5 26 00 00       	call   3e20 <putchar@plt>
    175b:	83 c4 10             	add    $0x10,%esp
    175e:	39 df                	cmp    %ebx,%edi
    1760:	75 ee                	jne    1750 <tinput_display_tail+0xb0>
    1762:	83 ec 0c             	sub    $0xc,%esp
    1765:	8b 06                	mov    (%esi),%eax
    1767:	50                   	push   %eax
    1768:	e8 c3 28 00 00       	call   4030 <console_flush@plt>
    176d:	8b 4d e4             	mov    -0x1c(%ebp),%ecx
    1770:	5a                   	pop    %edx
    1771:	51                   	push   %ecx
    1772:	e8 b9 29 00 00       	call   4130 <free@plt>
    1777:	83 c4 10             	add    $0x10,%esp
    177a:	8d 65 f4             	lea    -0xc(%ebp),%esp
    177d:	5b                   	pop    %ebx
    177e:	5e                   	pop    %esi
    177f:	5f                   	pop    %edi
    1780:	5d                   	pop    %ebp
    1781:	c3                   	ret    
    1782:	8d b6 00 00 00 00    	lea    0x0(%esi),%esi
    1788:	89 c8                	mov    %ecx,%eax
    178a:	89 d1                	mov    %edx,%ecx
    178c:	89 45 e0             	mov    %eax,-0x20(%ebp)
    178f:	e9 4c ff ff ff       	jmp    16e0 <tinput_display_tail+0x40>
    1794:	8d 74 26 00          	lea    0x0(%esi,%eiz,1),%esi
    1798:	29 d8                	sub    %ebx,%eax
    179a:	8b 4d e4             	mov    -0x1c(%ebp),%ecx
    179d:	c1 e0 02             	shl    $0x2,%eax
    17a0:	52                   	push   %edx
    17a1:	50                   	push   %eax
    17a2:	8d 44 9e 0c          	lea    0xc(%esi,%ebx,4),%eax
    17a6:	50                   	push   %eax
    17a7:	51                   	push   %ecx
    17a8:	e8 53 27 00 00       	call   3f00 <memcpy@plt>
    17ad:	8b 86 20 10 00 00    	mov    0x1020(%esi),%eax
    17b3:	29 d8                	sub    %ebx,%eax
    17b5:	8b 4d e4             	mov    -0x1c(%ebp),%ecx
    17b8:	c7 04 81 00 00 00 00 	movl   $0x0,(%ecx,%eax,4)
    17bf:	5b                   	pop    %ebx
    17c0:	58                   	pop    %eax
    17c1:	51                   	push   %ecx
    17c2:	68 90 39 00 00       	push   $0x3990
    17c7:	e8 b4 26 00 00       	call   3e80 <printf@plt>
    17cc:	83 c4 10             	add    $0x10,%esp
    17cf:	e9 71 ff ff ff       	jmp    1745 <tinput_display_tail+0xa5>
    17d4:	8d 74 26 00          	lea    0x0(%esi,%eiz,1),%esi
    17d8:	83 ec 0c             	sub    $0xc,%esp
    17db:	8b 06                	mov    (%esi),%eax
    17dd:	50                   	push   %eax
    17de:	e8 4d 28 00 00       	call   4030 <console_flush@plt>
    17e3:	8b 0e                	mov    (%esi),%ecx
    17e5:	58                   	pop    %eax
    17e6:	5a                   	pop    %edx
    17e7:	6a 03                	push   $0x3
    17e9:	51                   	push   %ecx
    17ea:	e8 11 28 00 00       	call   4000 <console_set_style@plt>
    17ef:	8b 55 e0             	mov    -0x20(%ebp),%edx
    17f2:	83 c4 0c             	add    $0xc,%esp
    17f5:	29 da                	sub    %ebx,%edx
    17f7:	8d 44 9e 0c          	lea    0xc(%esi,%ebx,4),%eax
    17fb:	c1 e2 02             	shl    $0x2,%edx
    17fe:	8b 5d e4             	mov    -0x1c(%ebp),%ebx
    1801:	52                   	push   %edx
    1802:	89 55 dc             	mov    %edx,-0x24(%ebp)
    1805:	50                   	push   %eax
    1806:	53                   	push   %ebx
    1807:	e8 f4 26 00 00       	call   3f00 <memcpy@plt>
    180c:	8b 55 dc             	mov    -0x24(%ebp),%edx
    180f:	c7 04 13 00 00 00 00 	movl   $0x0,(%ebx,%edx,1)
    1816:	58                   	pop    %eax
    1817:	5a                   	pop    %edx
    1818:	53                   	push   %ebx
    1819:	68 90 39 00 00       	push   $0x3990
    181e:	e8 5d 26 00 00       	call   3e80 <printf@plt>
    1823:	83 c4 10             	add    $0x10,%esp
    1826:	8b 5d e0             	mov    -0x20(%ebp),%ebx
    1829:	e9 f3 fe ff ff       	jmp    1721 <tinput_display_tail+0x81>
    182e:	66 90                	xchg   %ax,%ax
    1830:	89 ca                	mov    %ecx,%edx
    1832:	8d 44 9e 0c          	lea    0xc(%esi,%ebx,4),%eax
    1836:	29 da                	sub    %ebx,%edx
    1838:	8b 5d e4             	mov    -0x1c(%ebp),%ebx
    183b:	c1 e2 02             	shl    $0x2,%edx
    183e:	89 4d d8             	mov    %ecx,-0x28(%ebp)
    1841:	89 55 dc             	mov    %edx,-0x24(%ebp)
    1844:	51                   	push   %ecx
    1845:	52                   	push   %edx
    1846:	50                   	push   %eax
    1847:	53                   	push   %ebx
    1848:	e8 b3 26 00 00       	call   3f00 <memcpy@plt>
    184d:	8b 55 dc             	mov    -0x24(%ebp),%edx
    1850:	c7 04 13 00 00 00 00 	movl   $0x0,(%ebx,%edx,1)
    1857:	58                   	pop    %eax
    1858:	5a                   	pop    %edx
    1859:	53                   	push   %ebx
    185a:	68 90 39 00 00       	push   $0x3990
    185f:	e8 1c 26 00 00       	call   3e80 <printf@plt>
    1864:	8b 4d d8             	mov    -0x28(%ebp),%ecx
    1867:	83 c4 10             	add    $0x10,%esp
    186a:	89 cb                	mov    %ecx,%ebx
    186c:	e9 a7 fe ff ff       	jmp    1718 <tinput_display_tail+0x78>
    1871:	eb 0d                	jmp    1880 <tinput_history_seek.part.6>
    1873:	90                   	nop
    1874:	90                   	nop
    1875:	90                   	nop
    1876:	90                   	nop
    1877:	90                   	nop
    1878:	90                   	nop
    1879:	90                   	nop
    187a:	90                   	nop
    187b:	90                   	nop
    187c:	90                   	nop
    187d:	90                   	nop
    187e:	90                   	nop
    187f:	90                   	nop

00001880 <tinput_history_seek.part.6>:
    1880:	55                   	push   %ebp
    1881:	89 e5                	mov    %esp,%ebp
    1883:	57                   	push   %edi
    1884:	56                   	push   %esi
    1885:	53                   	push   %ebx
    1886:	83 ec 1c             	sub    $0x1c,%esp
    1889:	89 c3                	mov    %eax,%ebx
    188b:	8b b0 5c 10 00 00    	mov    0x105c(%eax),%esi
    1891:	81 c6 08 04 00 00    	add    $0x408,%esi
    1897:	8b 44 b0 0c          	mov    0xc(%eax,%esi,4),%eax
    189b:	85 c0                	test   %eax,%eax
    189d:	74 26                	je     18c5 <tinput_history_seek.part.6+0x45>
    189f:	83 ec 0c             	sub    $0xc,%esp
    18a2:	89 55 e4             	mov    %edx,-0x1c(%ebp)
    18a5:	50                   	push   %eax
    18a6:	e8 85 28 00 00       	call   4130 <free@plt>
    18ab:	8b b3 5c 10 00 00    	mov    0x105c(%ebx),%esi
    18b1:	83 c4 10             	add    $0x10,%esp
    18b4:	81 c6 08 04 00 00    	add    $0x408,%esi
    18ba:	8b 55 e4             	mov    -0x1c(%ebp),%edx
    18bd:	c7 44 b3 0c 00 00 00 	movl   $0x0,0xc(%ebx,%esi,4)
    18c4:	00 
    18c5:	83 ec 0c             	sub    $0xc,%esp
    18c8:	8d 7b 0c             	lea    0xc(%ebx),%edi
    18cb:	89 55 e4             	mov    %edx,-0x1c(%ebp)
    18ce:	57                   	push   %edi
    18cf:	e8 4c 27 00 00       	call   4020 <wstr_to_astr@plt>
    18d4:	8b 55 e4             	mov    -0x1c(%ebp),%edx
    18d7:	89 44 b3 0c          	mov    %eax,0xc(%ebx,%esi,4)
    18db:	8b 83 5c 10 00 00    	mov    0x105c(%ebx),%eax
    18e1:	8b b3 20 10 00 00    	mov    0x1020(%ebx),%esi
    18e7:	01 c2                	add    %eax,%edx
    18e9:	58                   	pop    %eax
    18ea:	89 93 5c 10 00 00    	mov    %edx,0x105c(%ebx)
    18f0:	8b 84 93 2c 10 00 00 	mov    0x102c(%ebx,%edx,4),%eax
    18f7:	50                   	push   %eax
    18f8:	e8 73 27 00 00       	call   4070 <str_length@plt>
    18fd:	29 c6                	sub    %eax,%esi
    18ff:	8b 83 5c 10 00 00    	mov    0x105c(%ebx),%eax
    1905:	83 c4 0c             	add    $0xc,%esp
    1908:	8b 84 83 2c 10 00 00 	mov    0x102c(%ebx,%eax,4),%eax
    190f:	50                   	push   %eax
    1910:	68 00 04 00 00       	push   $0x400
    1915:	57                   	push   %edi
    1916:	e8 95 27 00 00       	call   40b0 <str_to_wstr@plt>
    191b:	89 3c 24             	mov    %edi,(%esp)
    191e:	e8 3d 25 00 00       	call   3e60 <wstr_length@plt>
    1923:	89 f1                	mov    %esi,%ecx
    1925:	89 83 20 10 00 00    	mov    %eax,0x1020(%ebx)
    192b:	89 83 24 10 00 00    	mov    %eax,0x1024(%ebx)
    1931:	89 83 28 10 00 00    	mov    %eax,0x1028(%ebx)
    1937:	85 f6                	test   %esi,%esi
    1939:	78 6d                	js     19a8 <tinput_history_seek.part.6+0x128>
    193b:	31 d2                	xor    %edx,%edx
    193d:	89 d8                	mov    %ebx,%eax
    193f:	e8 5c fd ff ff       	call   16a0 <tinput_display_tail>
    1944:	8b 8b 14 10 00 00    	mov    0x1014(%ebx),%ecx
    194a:	8b 83 20 10 00 00    	mov    0x1020(%ebx),%eax
    1950:	31 d2                	xor    %edx,%edx
    1952:	01 c8                	add    %ecx,%eax
    1954:	8b b3 18 10 00 00    	mov    0x1018(%ebx),%esi
    195a:	f7 f6                	div    %esi
    195c:	8b 93 1c 10 00 00    	mov    0x101c(%ebx),%edx
    1962:	83 c4 10             	add    $0x10,%esp
    1965:	39 d0                	cmp    %edx,%eax
    1967:	72 1c                	jb     1985 <tinput_history_seek.part.6+0x105>
    1969:	29 d0                	sub    %edx,%eax
    196b:	8b bb 10 10 00 00    	mov    0x1010(%ebx),%edi
    1971:	40                   	inc    %eax
    1972:	0f af c6             	imul   %esi,%eax
    1975:	29 c1                	sub    %eax,%ecx
    1977:	29 c7                	sub    %eax,%edi
    1979:	89 8b 14 10 00 00    	mov    %ecx,0x1014(%ebx)
    197f:	89 bb 10 10 00 00    	mov    %edi,0x1010(%ebx)
    1985:	8b 83 24 10 00 00    	mov    0x1024(%ebx),%eax
    198b:	52                   	push   %edx
    198c:	01 c8                	add    %ecx,%eax
    198e:	31 d2                	xor    %edx,%edx
    1990:	f7 f6                	div    %esi
    1992:	8b 0b                	mov    (%ebx),%ecx
    1994:	50                   	push   %eax
    1995:	52                   	push   %edx
    1996:	51                   	push   %ecx
    1997:	e8 e4 26 00 00       	call   4080 <console_set_pos@plt>
    199c:	83 c4 10             	add    $0x10,%esp
    199f:	8d 65 f4             	lea    -0xc(%ebp),%esp
    19a2:	5b                   	pop    %ebx
    19a3:	5e                   	pop    %esi
    19a4:	5f                   	pop    %edi
    19a5:	5d                   	pop    %ebp
    19a6:	c3                   	ret    
    19a7:	90                   	nop
    19a8:	31 c9                	xor    %ecx,%ecx
    19aa:	eb 8f                	jmp    193b <tinput_history_seek.part.6+0xbb>
    19ac:	8d 74 26 00          	lea    0x0(%esi,%eiz,1),%esi

000019b0 <tinput_display_tail.constprop.12>:
    19b0:	55                   	push   %ebp
    19b1:	89 e5                	mov    %esp,%ebp
    19b3:	57                   	push   %edi
    19b4:	56                   	push   %esi
    19b5:	53                   	push   %ebx
    19b6:	83 ec 28             	sub    $0x28,%esp
    19b9:	89 c3                	mov    %eax,%ebx
    19bb:	89 d6                	mov    %edx,%esi
    19bd:	68 04 10 00 00       	push   $0x1004
    19c2:	e8 49 25 00 00       	call   3f10 <malloc@plt>
    19c7:	83 c4 10             	add    $0x10,%esp
    19ca:	85 c0                	test   %eax,%eax
    19cc:	0f 84 96 00 00 00    	je     1a68 <tinput_display_tail.constprop.12+0xb8>
    19d2:	89 c7                	mov    %eax,%edi
    19d4:	8b 8b 28 10 00 00    	mov    0x1028(%ebx),%ecx
    19da:	8b 83 24 10 00 00    	mov    0x1024(%ebx),%eax
    19e0:	89 c2                	mov    %eax,%edx
    19e2:	89 45 e4             	mov    %eax,-0x1c(%ebp)
    19e5:	39 c1                	cmp    %eax,%ecx
    19e7:	0f 83 83 00 00 00    	jae    1a70 <tinput_display_tail.constprop.12+0xc0>
    19ed:	8b 83 14 10 00 00    	mov    0x1014(%ebx),%eax
    19f3:	31 d2                	xor    %edx,%edx
    19f5:	01 f0                	add    %esi,%eax
    19f7:	89 4d e0             	mov    %ecx,-0x20(%ebp)
    19fa:	f7 b3 18 10 00 00    	divl   0x1018(%ebx)
    1a00:	51                   	push   %ecx
    1a01:	50                   	push   %eax
    1a02:	8b 03                	mov    (%ebx),%eax
    1a04:	52                   	push   %edx
    1a05:	50                   	push   %eax
    1a06:	e8 75 26 00 00       	call   4080 <console_set_pos@plt>
    1a0b:	8b 0b                	mov    (%ebx),%ecx
    1a0d:	58                   	pop    %eax
    1a0e:	5a                   	pop    %edx
    1a0f:	6a 00                	push   $0x0
    1a11:	51                   	push   %ecx
    1a12:	e8 e9 25 00 00       	call   4000 <console_set_style@plt>
    1a17:	8b 4d e0             	mov    -0x20(%ebp),%ecx
    1a1a:	83 c4 10             	add    $0x10,%esp
    1a1d:	39 ce                	cmp    %ecx,%esi
    1a1f:	0f 82 eb 00 00 00    	jb     1b10 <tinput_display_tail.constprop.12+0x160>
    1a25:	3b 75 e4             	cmp    -0x1c(%ebp),%esi
    1a28:	0f 82 8a 00 00 00    	jb     1ab8 <tinput_display_tail.constprop.12+0x108>
    1a2e:	83 ec 0c             	sub    $0xc,%esp
    1a31:	8b 03                	mov    (%ebx),%eax
    1a33:	50                   	push   %eax
    1a34:	e8 f7 25 00 00       	call   4030 <console_flush@plt>
    1a39:	8b 0b                	mov    (%ebx),%ecx
    1a3b:	58                   	pop    %eax
    1a3c:	5a                   	pop    %edx
    1a3d:	6a 00                	push   $0x0
    1a3f:	51                   	push   %ecx
    1a40:	e8 bb 25 00 00       	call   4000 <console_set_style@plt>
    1a45:	8b 83 20 10 00 00    	mov    0x1020(%ebx),%eax
    1a4b:	83 c4 10             	add    $0x10,%esp
    1a4e:	39 f0                	cmp    %esi,%eax
    1a50:	77 2e                	ja     1a80 <tinput_display_tail.constprop.12+0xd0>
    1a52:	83 ec 0c             	sub    $0xc,%esp
    1a55:	8b 03                	mov    (%ebx),%eax
    1a57:	50                   	push   %eax
    1a58:	e8 d3 25 00 00       	call   4030 <console_flush@plt>
    1a5d:	89 3c 24             	mov    %edi,(%esp)
    1a60:	e8 cb 26 00 00       	call   4130 <free@plt>
    1a65:	83 c4 10             	add    $0x10,%esp
    1a68:	8d 65 f4             	lea    -0xc(%ebp),%esp
    1a6b:	5b                   	pop    %ebx
    1a6c:	5e                   	pop    %esi
    1a6d:	5f                   	pop    %edi
    1a6e:	5d                   	pop    %ebp
    1a6f:	c3                   	ret    
    1a70:	89 c8                	mov    %ecx,%eax
    1a72:	89 d1                	mov    %edx,%ecx
    1a74:	89 45 e4             	mov    %eax,-0x1c(%ebp)
    1a77:	e9 71 ff ff ff       	jmp    19ed <tinput_display_tail.constprop.12+0x3d>
    1a7c:	8d 74 26 00          	lea    0x0(%esi,%eiz,1),%esi
    1a80:	29 f0                	sub    %esi,%eax
    1a82:	52                   	push   %edx
    1a83:	c1 e0 02             	shl    $0x2,%eax
    1a86:	50                   	push   %eax
    1a87:	8d 44 b3 0c          	lea    0xc(%ebx,%esi,4),%eax
    1a8b:	50                   	push   %eax
    1a8c:	57                   	push   %edi
    1a8d:	e8 6e 24 00 00       	call   3f00 <memcpy@plt>
    1a92:	8b 83 20 10 00 00    	mov    0x1020(%ebx),%eax
    1a98:	29 f0                	sub    %esi,%eax
    1a9a:	c7 04 87 00 00 00 00 	movl   $0x0,(%edi,%eax,4)
    1aa1:	59                   	pop    %ecx
    1aa2:	5e                   	pop    %esi
    1aa3:	57                   	push   %edi
    1aa4:	68 90 39 00 00       	push   $0x3990
    1aa9:	e8 d2 23 00 00       	call   3e80 <printf@plt>
    1aae:	83 c4 10             	add    $0x10,%esp
    1ab1:	eb 9f                	jmp    1a52 <tinput_display_tail.constprop.12+0xa2>
    1ab3:	90                   	nop
    1ab4:	8d 74 26 00          	lea    0x0(%esi,%eiz,1),%esi
    1ab8:	83 ec 0c             	sub    $0xc,%esp
    1abb:	8b 03                	mov    (%ebx),%eax
    1abd:	50                   	push   %eax
    1abe:	e8 6d 25 00 00       	call   4030 <console_flush@plt>
    1ac3:	8b 0b                	mov    (%ebx),%ecx
    1ac5:	58                   	pop    %eax
    1ac6:	5a                   	pop    %edx
    1ac7:	6a 03                	push   $0x3
    1ac9:	51                   	push   %ecx
    1aca:	e8 31 25 00 00       	call   4000 <console_set_style@plt>
    1acf:	8b 55 e4             	mov    -0x1c(%ebp),%edx
    1ad2:	83 c4 0c             	add    $0xc,%esp
    1ad5:	29 f2                	sub    %esi,%edx
    1ad7:	8d 44 b3 0c          	lea    0xc(%ebx,%esi,4),%eax
    1adb:	c1 e2 02             	shl    $0x2,%edx
    1ade:	52                   	push   %edx
    1adf:	89 55 e0             	mov    %edx,-0x20(%ebp)
    1ae2:	50                   	push   %eax
    1ae3:	57                   	push   %edi
    1ae4:	e8 17 24 00 00       	call   3f00 <memcpy@plt>
    1ae9:	8b 55 e0             	mov    -0x20(%ebp),%edx
    1aec:	c7 04 17 00 00 00 00 	movl   $0x0,(%edi,%edx,1)
    1af3:	5e                   	pop    %esi
    1af4:	58                   	pop    %eax
    1af5:	57                   	push   %edi
    1af6:	68 90 39 00 00       	push   $0x3990
    1afb:	e8 80 23 00 00       	call   3e80 <printf@plt>
    1b00:	83 c4 10             	add    $0x10,%esp
    1b03:	8b 75 e4             	mov    -0x1c(%ebp),%esi
    1b06:	e9 23 ff ff ff       	jmp    1a2e <tinput_display_tail.constprop.12+0x7e>
    1b0b:	90                   	nop
    1b0c:	8d 74 26 00          	lea    0x0(%esi,%eiz,1),%esi
    1b10:	89 ca                	mov    %ecx,%edx
    1b12:	50                   	push   %eax
    1b13:	29 f2                	sub    %esi,%edx
    1b15:	8d 44 b3 0c          	lea    0xc(%ebx,%esi,4),%eax
    1b19:	c1 e2 02             	shl    $0x2,%edx
    1b1c:	89 4d dc             	mov    %ecx,-0x24(%ebp)
    1b1f:	52                   	push   %edx
    1b20:	89 55 e0             	mov    %edx,-0x20(%ebp)
    1b23:	50                   	push   %eax
    1b24:	57                   	push   %edi
    1b25:	e8 d6 23 00 00       	call   3f00 <memcpy@plt>
    1b2a:	8b 55 e0             	mov    -0x20(%ebp),%edx
    1b2d:	c7 04 17 00 00 00 00 	movl   $0x0,(%edi,%edx,1)
    1b34:	58                   	pop    %eax
    1b35:	5a                   	pop    %edx
    1b36:	57                   	push   %edi
    1b37:	68 90 39 00 00       	push   $0x3990
    1b3c:	e8 3f 23 00 00       	call   3e80 <printf@plt>
    1b41:	8b 4d dc             	mov    -0x24(%ebp),%ecx
    1b44:	83 c4 10             	add    $0x10,%esp
    1b47:	89 ce                	mov    %ecx,%esi
    1b49:	e9 d7 fe ff ff       	jmp    1a25 <tinput_display_tail.constprop.12+0x75>
    1b4e:	66 90                	xchg   %ax,%ax

00001b50 <tinput_insert_string>:
    1b50:	55                   	push   %ebp
    1b51:	89 e5                	mov    %esp,%ebp
    1b53:	57                   	push   %edi
    1b54:	56                   	push   %esi
    1b55:	53                   	push   %ebx
    1b56:	83 ec 38             	sub    $0x38,%esp
    1b59:	89 c6                	mov    %eax,%esi
    1b5b:	89 55 d0             	mov    %edx,-0x30(%ebp)
    1b5e:	bb 00 04 00 00       	mov    $0x400,%ebx
    1b63:	52                   	push   %edx
    1b64:	e8 07 25 00 00       	call   4070 <str_length@plt>
    1b69:	8b 96 20 10 00 00    	mov    0x1020(%esi),%edx
    1b6f:	83 c4 10             	add    $0x10,%esp
    1b72:	29 d3                	sub    %edx,%ebx
    1b74:	39 d8                	cmp    %ebx,%eax
    1b76:	0f 82 24 01 00 00    	jb     1ca0 <tinput_insert_string+0x150>
    1b7c:	85 db                	test   %ebx,%ebx
    1b7e:	74 28                	je     1ba8 <tinput_insert_string+0x58>
    1b80:	8b be 18 10 00 00    	mov    0x1018(%esi),%edi
    1b86:	31 d2                	xor    %edx,%edx
    1b88:	8b 86 14 10 00 00    	mov    0x1014(%esi),%eax
    1b8e:	8b 8e 20 10 00 00    	mov    0x1020(%esi),%ecx
    1b94:	f7 f7                	div    %edi
    1b96:	8d 04 0a             	lea    (%edx,%ecx,1),%eax
    1b99:	31 d2                	xor    %edx,%edx
    1b9b:	01 d8                	add    %ebx,%eax
    1b9d:	f7 f7                	div    %edi
    1b9f:	40                   	inc    %eax
    1ba0:	3b 86 1c 10 00 00    	cmp    0x101c(%esi),%eax
    1ba6:	72 08                	jb     1bb0 <tinput_insert_string+0x60>
    1ba8:	8d 65 f4             	lea    -0xc(%ebp),%esp
    1bab:	5b                   	pop    %ebx
    1bac:	5e                   	pop    %esi
    1bad:	5f                   	pop    %edi
    1bae:	5d                   	pop    %ebp
    1baf:	c3                   	ret    
    1bb0:	85 c9                	test   %ecx,%ecx
    1bb2:	0f 85 00 01 00 00    	jne    1cb8 <tinput_insert_string+0x168>
    1bb8:	89 5d d4             	mov    %ebx,-0x2c(%ebp)
    1bbb:	c7 45 e4 00 00 00 00 	movl   $0x0,-0x1c(%ebp)
    1bc2:	31 ff                	xor    %edi,%edi
    1bc4:	8b 5d d0             	mov    -0x30(%ebp),%ebx
    1bc7:	eb 28                	jmp    1bf1 <tinput_insert_string+0xa1>
    1bc9:	8d b4 26 00 00 00 00 	lea    0x0(%esi,%eiz,1),%esi
    1bd0:	8b 96 24 10 00 00    	mov    0x1024(%esi),%edx
    1bd6:	83 f8 20             	cmp    $0x20,%eax
    1bd9:	8d 0c 3a             	lea    (%edx,%edi,1),%ecx
    1bdc:	7d 05                	jge    1be3 <tinput_insert_string+0x93>
    1bde:	b8 20 00 00 00       	mov    $0x20,%eax
    1be3:	47                   	inc    %edi
    1be4:	89 44 8e 0c          	mov    %eax,0xc(%esi,%ecx,4)
    1be8:	39 7d d4             	cmp    %edi,-0x2c(%ebp)
    1beb:	0f 84 f0 00 00 00    	je     1ce1 <tinput_insert_string+0x191>
    1bf1:	50                   	push   %eax
    1bf2:	8d 45 e4             	lea    -0x1c(%ebp),%eax
    1bf5:	6a ff                	push   $0xffffffff
    1bf7:	50                   	push   %eax
    1bf8:	53                   	push   %ebx
    1bf9:	e8 d2 22 00 00       	call   3ed0 <str_decode@plt>
    1bfe:	83 c4 10             	add    $0x10,%esp
    1c01:	85 c0                	test   %eax,%eax
    1c03:	75 cb                	jne    1bd0 <tinput_insert_string+0x80>
    1c05:	8b 5d d4             	mov    -0x2c(%ebp),%ebx
    1c08:	8b 96 24 10 00 00    	mov    0x1024(%esi),%edx
    1c0e:	8b 8e 20 10 00 00    	mov    0x1020(%esi),%ecx
    1c14:	8d 04 13             	lea    (%ebx,%edx,1),%eax
    1c17:	01 cb                	add    %ecx,%ebx
    1c19:	89 86 24 10 00 00    	mov    %eax,0x1024(%esi)
    1c1f:	89 9e 20 10 00 00    	mov    %ebx,0x1020(%esi)
    1c25:	c7 44 9e 0c 00 00 00 	movl   $0x0,0xc(%esi,%ebx,4)
    1c2c:	00 
    1c2d:	89 86 28 10 00 00    	mov    %eax,0x1028(%esi)
    1c33:	89 f0                	mov    %esi,%eax
    1c35:	e8 76 fd ff ff       	call   19b0 <tinput_display_tail.constprop.12>
    1c3a:	8b 8e 14 10 00 00    	mov    0x1014(%esi),%ecx
    1c40:	8b 86 20 10 00 00    	mov    0x1020(%esi),%eax
    1c46:	31 d2                	xor    %edx,%edx
    1c48:	01 c8                	add    %ecx,%eax
    1c4a:	8b 9e 18 10 00 00    	mov    0x1018(%esi),%ebx
    1c50:	f7 f3                	div    %ebx
    1c52:	8b 96 1c 10 00 00    	mov    0x101c(%esi),%edx
    1c58:	39 d0                	cmp    %edx,%eax
    1c5a:	72 1c                	jb     1c78 <tinput_insert_string+0x128>
    1c5c:	29 d0                	sub    %edx,%eax
    1c5e:	8b be 10 10 00 00    	mov    0x1010(%esi),%edi
    1c64:	40                   	inc    %eax
    1c65:	0f af c3             	imul   %ebx,%eax
    1c68:	29 c1                	sub    %eax,%ecx
    1c6a:	29 c7                	sub    %eax,%edi
    1c6c:	89 8e 14 10 00 00    	mov    %ecx,0x1014(%esi)
    1c72:	89 be 10 10 00 00    	mov    %edi,0x1010(%esi)
    1c78:	8b 86 24 10 00 00    	mov    0x1024(%esi),%eax
    1c7e:	52                   	push   %edx
    1c7f:	01 c8                	add    %ecx,%eax
    1c81:	31 d2                	xor    %edx,%edx
    1c83:	f7 f3                	div    %ebx
    1c85:	8b 0e                	mov    (%esi),%ecx
    1c87:	50                   	push   %eax
    1c88:	52                   	push   %edx
    1c89:	51                   	push   %ecx
    1c8a:	e8 f1 23 00 00       	call   4080 <console_set_pos@plt>
    1c8f:	83 c4 10             	add    $0x10,%esp
    1c92:	8d 65 f4             	lea    -0xc(%ebp),%esp
    1c95:	5b                   	pop    %ebx
    1c96:	5e                   	pop    %esi
    1c97:	5f                   	pop    %edi
    1c98:	5d                   	pop    %ebp
    1c99:	c3                   	ret    
    1c9a:	8d b6 00 00 00 00    	lea    0x0(%esi),%esi
    1ca0:	83 ec 0c             	sub    $0xc,%esp
    1ca3:	8b 45 d0             	mov    -0x30(%ebp),%eax
    1ca6:	50                   	push   %eax
    1ca7:	e8 c4 23 00 00       	call   4070 <str_length@plt>
    1cac:	83 c4 10             	add    $0x10,%esp
    1caf:	89 c3                	mov    %eax,%ebx
    1cb1:	e9 c6 fe ff ff       	jmp    1b7c <tinput_insert_string+0x2c>
    1cb6:	66 90                	xchg   %ax,%ax
    1cb8:	8b 96 24 10 00 00    	mov    0x1024(%esi),%edx
    1cbe:	39 d1                	cmp    %edx,%ecx
    1cc0:	0f 86 f2 fe ff ff    	jbe    1bb8 <tinput_insert_string+0x68>
    1cc6:	8d 44 8e 08          	lea    0x8(%esi,%ecx,4),%eax
    1cca:	8d 4c 96 08          	lea    0x8(%esi,%edx,4),%ecx
    1cce:	66 90                	xchg   %ax,%ax
    1cd0:	8b 10                	mov    (%eax),%edx
    1cd2:	89 14 98             	mov    %edx,(%eax,%ebx,4)
    1cd5:	83 e8 04             	sub    $0x4,%eax
    1cd8:	39 c1                	cmp    %eax,%ecx
    1cda:	75 f4                	jne    1cd0 <tinput_insert_string+0x180>
    1cdc:	e9 d7 fe ff ff       	jmp    1bb8 <tinput_insert_string+0x68>
    1ce1:	8b 5d d4             	mov    -0x2c(%ebp),%ebx
    1ce4:	e9 25 ff ff ff       	jmp    1c0e <tinput_insert_string+0xbe>
    1ce9:	8d b4 26 00 00 00 00 	lea    0x0(%esi,%eiz,1),%esi

00001cf0 <tinput_display>:
    1cf0:	55                   	push   %ebp
    1cf1:	89 e5                	mov    %esp,%ebp
    1cf3:	57                   	push   %edi
    1cf4:	56                   	push   %esi
    1cf5:	53                   	push   %ebx
    1cf6:	83 ec 20             	sub    $0x20,%esp
    1cf9:	89 c3                	mov    %eax,%ebx
    1cfb:	8d 45 e4             	lea    -0x1c(%ebp),%eax
    1cfe:	50                   	push   %eax
    1cff:	8d 45 e0             	lea    -0x20(%ebp),%eax
    1d02:	50                   	push   %eax
    1d03:	8b 03                	mov    (%ebx),%eax
    1d05:	50                   	push   %eax
    1d06:	e8 a5 21 00 00       	call   3eb0 <console_get_pos@plt>
    1d0b:	83 c4 10             	add    $0x10,%esp
    1d0e:	85 c0                	test   %eax,%eax
    1d10:	0f 85 b2 00 00 00    	jne    1dc8 <tinput_display+0xd8>
    1d16:	8b b3 18 10 00 00    	mov    0x1018(%ebx),%esi
    1d1c:	89 c7                	mov    %eax,%edi
    1d1e:	8b 45 e4             	mov    -0x1c(%ebp),%eax
    1d21:	8b 55 e0             	mov    -0x20(%ebp),%edx
    1d24:	0f af f0             	imul   %eax,%esi
    1d27:	83 ec 0c             	sub    $0xc,%esp
    1d2a:	01 d6                	add    %edx,%esi
    1d2c:	8b 4b 04             	mov    0x4(%ebx),%ecx
    1d2f:	89 b3 10 10 00 00    	mov    %esi,0x1010(%ebx)
    1d35:	51                   	push   %ecx
    1d36:	e8 35 23 00 00       	call   4070 <str_length@plt>
    1d3b:	83 c4 0c             	add    $0xc,%esp
    1d3e:	01 c6                	add    %eax,%esi
    1d40:	31 d2                	xor    %edx,%edx
    1d42:	8b 83 10 10 00 00    	mov    0x1010(%ebx),%eax
    1d48:	f7 b3 18 10 00 00    	divl   0x1018(%ebx)
    1d4e:	89 b3 14 10 00 00    	mov    %esi,0x1014(%ebx)
    1d54:	8b 33                	mov    (%ebx),%esi
    1d56:	50                   	push   %eax
    1d57:	52                   	push   %edx
    1d58:	56                   	push   %esi
    1d59:	e8 22 23 00 00       	call   4080 <console_set_pos@plt>
    1d5e:	8b 0b                	mov    (%ebx),%ecx
    1d60:	58                   	pop    %eax
    1d61:	5a                   	pop    %edx
    1d62:	6a 01                	push   $0x1
    1d64:	51                   	push   %ecx
    1d65:	e8 96 22 00 00       	call   4000 <console_set_style@plt>
    1d6a:	5e                   	pop    %esi
    1d6b:	58                   	pop    %eax
    1d6c:	8b 43 04             	mov    0x4(%ebx),%eax
    1d6f:	50                   	push   %eax
    1d70:	68 94 39 00 00       	push   $0x3994
    1d75:	e8 06 21 00 00       	call   3e80 <printf@plt>
    1d7a:	58                   	pop    %eax
    1d7b:	8b 03                	mov    (%ebx),%eax
    1d7d:	50                   	push   %eax
    1d7e:	e8 ad 22 00 00       	call   4030 <console_flush@plt>
    1d83:	8b 0b                	mov    (%ebx),%ecx
    1d85:	58                   	pop    %eax
    1d86:	5a                   	pop    %edx
    1d87:	6a 00                	push   $0x0
    1d89:	51                   	push   %ecx
    1d8a:	e8 71 22 00 00       	call   4000 <console_set_style@plt>
    1d8f:	31 d2                	xor    %edx,%edx
    1d91:	89 d8                	mov    %ebx,%eax
    1d93:	e8 18 fc ff ff       	call   19b0 <tinput_display_tail.constprop.12>
    1d98:	8b 83 24 10 00 00    	mov    0x1024(%ebx),%eax
    1d9e:	8b b3 14 10 00 00    	mov    0x1014(%ebx),%esi
    1da4:	83 c4 0c             	add    $0xc,%esp
    1da7:	01 f0                	add    %esi,%eax
    1da9:	31 d2                	xor    %edx,%edx
    1dab:	f7 b3 18 10 00 00    	divl   0x1018(%ebx)
    1db1:	50                   	push   %eax
    1db2:	8b 03                	mov    (%ebx),%eax
    1db4:	52                   	push   %edx
    1db5:	50                   	push   %eax
    1db6:	e8 c5 22 00 00       	call   4080 <console_set_pos@plt>
    1dbb:	83 c4 10             	add    $0x10,%esp
    1dbe:	8d 65 f4             	lea    -0xc(%ebp),%esp
    1dc1:	89 f8                	mov    %edi,%eax
    1dc3:	5b                   	pop    %ebx
    1dc4:	5e                   	pop    %esi
    1dc5:	5f                   	pop    %edi
    1dc6:	5d                   	pop    %ebp
    1dc7:	c3                   	ret    
    1dc8:	bf f6 fe ff ff       	mov    $0xfffffef6,%edi
    1dcd:	eb ef                	jmp    1dbe <tinput_display+0xce>
    1dcf:	90                   	nop

00001dd0 <tinput_new>:
    1dd0:	55                   	push   %ebp
    1dd1:	89 e5                	mov    %esp,%ebp
    1dd3:	53                   	push   %ebx
    1dd4:	83 ec 0c             	sub    $0xc,%esp
    1dd7:	68 64 10 00 00       	push   $0x1064
    1ddc:	6a 01                	push   $0x1
    1dde:	e8 8d 21 00 00       	call   3f70 <calloc@plt>
    1de3:	83 c4 10             	add    $0x10,%esp
    1de6:	89 c3                	mov    %eax,%ebx
    1de8:	85 c0                	test   %eax,%eax
    1dea:	74 38                	je     1e24 <tinput_new+0x54>
    1dec:	8b 15 00 5b 00 00    	mov    0x5b00,%edx
    1df2:	8b 0d 10 5b 00 00    	mov    0x5b10,%ecx
    1df8:	50                   	push   %eax
    1df9:	50                   	push   %eax
    1dfa:	52                   	push   %edx
    1dfb:	51                   	push   %ecx
    1dfc:	e8 4f 21 00 00       	call   3f50 <console_init@plt>
    1e01:	c7 83 58 10 00 00 00 	movl   $0x0,0x1058(%ebx)
    1e08:	00 00 00 
    1e0b:	89 03                	mov    %eax,(%ebx)
    1e0d:	c7 83 5c 10 00 00 00 	movl   $0x0,0x105c(%ebx)
    1e14:	00 00 00 
    1e17:	c7 83 2c 10 00 00 00 	movl   $0x0,0x102c(%ebx)
    1e1e:	00 00 00 
    1e21:	83 c4 10             	add    $0x10,%esp
    1e24:	89 d8                	mov    %ebx,%eax
    1e26:	8b 5d fc             	mov    -0x4(%ebp),%ebx
    1e29:	c9                   	leave  
    1e2a:	c3                   	ret    
    1e2b:	90                   	nop
    1e2c:	8d 74 26 00          	lea    0x0(%esi,%eiz,1),%esi

00001e30 <tinput_destroy>:
    1e30:	55                   	push   %ebp
    1e31:	89 e5                	mov    %esp,%ebp
    1e33:	53                   	push   %ebx
    1e34:	50                   	push   %eax
    1e35:	8b 5d 08             	mov    0x8(%ebp),%ebx
    1e38:	8b 43 04             	mov    0x4(%ebx),%eax
    1e3b:	85 c0                	test   %eax,%eax
    1e3d:	74 0c                	je     1e4b <tinput_destroy+0x1b>
    1e3f:	83 ec 0c             	sub    $0xc,%esp
    1e42:	50                   	push   %eax
    1e43:	e8 e8 22 00 00       	call   4130 <free@plt>
    1e48:	83 c4 10             	add    $0x10,%esp
    1e4b:	89 5d 08             	mov    %ebx,0x8(%ebp)
    1e4e:	8b 5d fc             	mov    -0x4(%ebp),%ebx
    1e51:	c9                   	leave  
    1e52:	e9 d9 22 00 00       	jmp    4130 <free@plt>
    1e57:	89 f6                	mov    %esi,%esi
    1e59:	8d bc 27 00 00 00 00 	lea    0x0(%edi,%eiz,1),%edi

00001e60 <tinput_set_prompt>:
    1e60:	55                   	push   %ebp
    1e61:	89 e5                	mov    %esp,%ebp
    1e63:	53                   	push   %ebx
    1e64:	52                   	push   %edx
    1e65:	8b 5d 08             	mov    0x8(%ebp),%ebx
    1e68:	8b 43 04             	mov    0x4(%ebx),%eax
    1e6b:	85 c0                	test   %eax,%eax
    1e6d:	74 0c                	je     1e7b <tinput_set_prompt+0x1b>
    1e6f:	83 ec 0c             	sub    $0xc,%esp
    1e72:	50                   	push   %eax
    1e73:	e8 b8 22 00 00       	call   4130 <free@plt>
    1e78:	83 c4 10             	add    $0x10,%esp
    1e7b:	83 ec 0c             	sub    $0xc,%esp
    1e7e:	8b 45 0c             	mov    0xc(%ebp),%eax
    1e81:	50                   	push   %eax
    1e82:	e8 19 21 00 00       	call   3fa0 <str_dup@plt>
    1e87:	83 c4 10             	add    $0x10,%esp
    1e8a:	83 f8 01             	cmp    $0x1,%eax
    1e8d:	89 43 04             	mov    %eax,0x4(%ebx)
    1e90:	8b 5d fc             	mov    -0x4(%ebp),%ebx
    1e93:	19 c0                	sbb    %eax,%eax
    1e95:	c9                   	leave  
    1e96:	83 e0 fe             	and    $0xfffffffe,%eax
    1e99:	c3                   	ret    
    1e9a:	8d b6 00 00 00 00    	lea    0x0(%esi),%esi

00001ea0 <tinput_set_compl_ops>:
    1ea0:	55                   	push   %ebp
    1ea1:	89 e5                	mov    %esp,%ebp
    1ea3:	8b 45 08             	mov    0x8(%ebp),%eax
    1ea6:	8b 55 0c             	mov    0xc(%ebp),%edx
    1ea9:	89 50 08             	mov    %edx,0x8(%eax)
    1eac:	5d                   	pop    %ebp
    1ead:	c3                   	ret    
    1eae:	66 90                	xchg   %ax,%ax

00001eb0 <tinput_read_i>:
    1eb0:	55                   	push   %ebp
    1eb1:	89 e5                	mov    %esp,%ebp
    1eb3:	57                   	push   %edi
    1eb4:	56                   	push   %esi
    1eb5:	53                   	push   %ebx
    1eb6:	81 ec 88 00 00 00    	sub    $0x88,%esp
    1ebc:	8b 7d 08             	mov    0x8(%ebp),%edi
    1ebf:	8b 07                	mov    (%edi),%eax
    1ec1:	50                   	push   %eax
    1ec2:	e8 69 21 00 00       	call   4030 <console_flush@plt>
    1ec7:	83 c4 0c             	add    $0xc,%esp
    1eca:	8d 87 1c 10 00 00    	lea    0x101c(%edi),%eax
    1ed0:	50                   	push   %eax
    1ed1:	8d 87 18 10 00 00    	lea    0x1018(%edi),%eax
    1ed7:	50                   	push   %eax
    1ed8:	8b 07                	mov    (%edi),%eax
    1eda:	50                   	push   %eax
    1edb:	e8 30 1f 00 00       	call   3e10 <console_get_size@plt>
    1ee0:	83 c4 10             	add    $0x10,%esp
    1ee3:	85 c0                	test   %eax,%eax
    1ee5:	0f 85 e5 03 00 00    	jne    22d0 <tinput_read_i+0x420>
    1eeb:	8d 47 0c             	lea    0xc(%edi),%eax
    1eee:	56                   	push   %esi
    1eef:	89 c3                	mov    %eax,%ebx
    1ef1:	89 45 a0             	mov    %eax,-0x60(%ebp)
    1ef4:	8b 45 0c             	mov    0xc(%ebp),%eax
    1ef7:	50                   	push   %eax
    1ef8:	68 00 04 00 00       	push   $0x400
    1efd:	53                   	push   %ebx
    1efe:	e8 ad 21 00 00       	call   40b0 <str_to_wstr@plt>
    1f03:	89 1c 24             	mov    %ebx,(%esp)
    1f06:	e8 55 1f 00 00       	call   3e60 <wstr_length@plt>
    1f0b:	c7 87 28 10 00 00 00 	movl   $0x0,0x1028(%edi)
    1f12:	00 00 00 
    1f15:	89 87 20 10 00 00    	mov    %eax,0x1020(%edi)
    1f1b:	89 87 24 10 00 00    	mov    %eax,0x1024(%edi)
    1f21:	c6 87 60 10 00 00 00 	movb   $0x0,0x1060(%edi)
    1f28:	c6 87 61 10 00 00 00 	movb   $0x0,0x1061(%edi)
    1f2f:	89 f8                	mov    %edi,%eax
    1f31:	e8 ba fd ff ff       	call   1cf0 <tinput_display>
    1f36:	83 c4 10             	add    $0x10,%esp
    1f39:	89 45 a4             	mov    %eax,-0x5c(%ebp)
    1f3c:	85 c0                	test   %eax,%eax
    1f3e:	0f 85 8c 03 00 00    	jne    22d0 <tinput_read_i+0x420>
    1f44:	8d 5d c4             	lea    -0x3c(%ebp),%ebx
    1f47:	90                   	nop
    1f48:	80 bf 60 10 00 00 00 	cmpb   $0x0,0x1060(%edi)
    1f4f:	0f 85 03 01 00 00    	jne    2058 <tinput_read_i+0x1a8>
    1f55:	83 ec 0c             	sub    $0xc,%esp
    1f58:	8b 07                	mov    (%edi),%eax
    1f5a:	50                   	push   %eax
    1f5b:	e8 d0 20 00 00       	call   4030 <console_flush@plt>
    1f60:	8b 0f                	mov    (%edi),%ecx
    1f62:	58                   	pop    %eax
    1f63:	5a                   	pop    %edx
    1f64:	53                   	push   %ebx
    1f65:	51                   	push   %ecx
    1f66:	e8 d5 1f 00 00       	call   3f40 <console_get_event@plt>
    1f6b:	83 c4 10             	add    $0x10,%esp
    1f6e:	84 c0                	test   %al,%al
    1f70:	0f 84 5a 03 00 00    	je     22d0 <tinput_read_i+0x420>
    1f76:	8b 45 cc             	mov    -0x34(%ebp),%eax
    1f79:	85 c0                	test   %eax,%eax
    1f7b:	0f 84 57 01 00 00    	je     20d8 <tinput_read_i+0x228>
    1f81:	48                   	dec    %eax
    1f82:	75 c4                	jne    1f48 <tinput_read_i+0x98>
    1f84:	83 7d d4 01          	cmpl   $0x1,-0x2c(%ebp)
    1f88:	75 be                	jne    1f48 <tinput_read_i+0x98>
    1f8a:	8b 45 dc             	mov    -0x24(%ebp),%eax
    1f8d:	66 8b b7 62 10 00 00 	mov    0x1062(%edi),%si
    1f94:	89 45 98             	mov    %eax,-0x68(%ebp)
    1f97:	8b 87 24 10 00 00    	mov    0x1024(%edi),%eax
    1f9d:	8b 4d e0             	mov    -0x20(%ebp),%ecx
    1fa0:	39 87 28 10 00 00    	cmp    %eax,0x1028(%edi)
    1fa6:	74 3e                	je     1fe6 <tinput_read_i+0x136>
    1fa8:	66 85 f6             	test   %si,%si
    1fab:	75 39                	jne    1fe6 <tinput_read_i+0x136>
    1fad:	89 87 28 10 00 00    	mov    %eax,0x1028(%edi)
    1fb3:	31 d2                	xor    %edx,%edx
    1fb5:	89 f8                	mov    %edi,%eax
    1fb7:	89 4d 9c             	mov    %ecx,-0x64(%ebp)
    1fba:	e8 f1 f9 ff ff       	call   19b0 <tinput_display_tail.constprop.12>
    1fbf:	8b 97 14 10 00 00    	mov    0x1014(%edi),%edx
    1fc5:	8b 87 24 10 00 00    	mov    0x1024(%edi),%eax
    1fcb:	51                   	push   %ecx
    1fcc:	01 d0                	add    %edx,%eax
    1fce:	31 d2                	xor    %edx,%edx
    1fd0:	f7 b7 18 10 00 00    	divl   0x1018(%edi)
    1fd6:	50                   	push   %eax
    1fd7:	8b 07                	mov    (%edi),%eax
    1fd9:	52                   	push   %edx
    1fda:	50                   	push   %eax
    1fdb:	e8 a0 20 00 00       	call   4080 <console_set_pos@plt>
    1fe0:	83 c4 10             	add    $0x10,%esp
    1fe3:	8b 4d 9c             	mov    -0x64(%ebp),%ecx
    1fe6:	8b 87 18 10 00 00    	mov    0x1018(%edi),%eax
    1fec:	8b 55 98             	mov    -0x68(%ebp),%edx
    1fef:	0f af c8             	imul   %eax,%ecx
    1ff2:	01 ca                	add    %ecx,%edx
    1ff4:	8b 8f 14 10 00 00    	mov    0x1014(%edi),%ecx
    1ffa:	89 45 9c             	mov    %eax,-0x64(%ebp)
    1ffd:	39 ca                	cmp    %ecx,%edx
    1fff:	0f 86 1a 04 00 00    	jbe    241f <tinput_read_i+0x56f>
    2005:	29 ca                	sub    %ecx,%edx
    2007:	8b 87 20 10 00 00    	mov    0x1020(%edi),%eax
    200d:	89 97 24 10 00 00    	mov    %edx,0x1024(%edi)
    2013:	39 c2                	cmp    %eax,%edx
    2015:	0f 86 4d 17 00 00    	jbe    3768 <tinput_read_i+0x18b8>
    201b:	89 87 24 10 00 00    	mov    %eax,0x1024(%edi)
    2021:	66 85 f6             	test   %si,%si
    2024:	0f 85 b5 05 00 00    	jne    25df <tinput_read_i+0x72f>
    202a:	89 87 28 10 00 00    	mov    %eax,0x1028(%edi)
    2030:	01 c8                	add    %ecx,%eax
    2032:	31 d2                	xor    %edx,%edx
    2034:	f7 75 9c             	divl   -0x64(%ebp)
    2037:	56                   	push   %esi
    2038:	8b 0f                	mov    (%edi),%ecx
    203a:	50                   	push   %eax
    203b:	52                   	push   %edx
    203c:	51                   	push   %ecx
    203d:	e8 3e 20 00 00       	call   4080 <console_set_pos@plt>
    2042:	83 c4 10             	add    $0x10,%esp
    2045:	80 bf 60 10 00 00 00 	cmpb   $0x0,0x1060(%edi)
    204c:	0f 84 03 ff ff ff    	je     1f55 <tinput_read_i+0xa5>
    2052:	8d b6 00 00 00 00    	lea    0x0(%esi),%esi
    2058:	80 bf 61 10 00 00 00 	cmpb   $0x0,0x1061(%edi)
    205f:	0f 85 7f 11 00 00    	jne    31e4 <tinput_read_i+0x1334>
    2065:	8b 87 20 10 00 00    	mov    0x1020(%edi),%eax
    206b:	8b 97 14 10 00 00    	mov    0x1014(%edi),%edx
    2071:	89 87 24 10 00 00    	mov    %eax,0x1024(%edi)
    2077:	01 d0                	add    %edx,%eax
    2079:	51                   	push   %ecx
    207a:	31 d2                	xor    %edx,%edx
    207c:	f7 b7 18 10 00 00    	divl   0x1018(%edi)
    2082:	8b 1f                	mov    (%edi),%ebx
    2084:	50                   	push   %eax
    2085:	52                   	push   %edx
    2086:	53                   	push   %ebx
    2087:	e8 f4 1f 00 00       	call   4080 <console_set_pos@plt>
    208c:	c7 04 24 0a 00 00 00 	movl   $0xa,(%esp)
    2093:	e8 88 1d 00 00       	call   3e20 <putchar@plt>
    2098:	8b 45 a0             	mov    -0x60(%ebp),%eax
    209b:	5e                   	pop    %esi
    209c:	50                   	push   %eax
    209d:	e8 7e 1f 00 00       	call   4020 <wstr_to_astr@plt>
    20a2:	89 c3                	mov    %eax,%ebx
    20a4:	58                   	pop    %eax
    20a5:	5a                   	pop    %edx
    20a6:	68 ad 39 00 00       	push   $0x39ad
    20ab:	53                   	push   %ebx
    20ac:	e8 2f 1f 00 00       	call   3fe0 <str_cmp@plt>
    20b1:	83 c4 10             	add    $0x10,%esp
    20b4:	85 c0                	test   %eax,%eax
    20b6:	0f 85 c0 03 00 00    	jne    247c <tinput_read_i+0x5cc>
    20bc:	8b 45 10             	mov    0x10(%ebp),%eax
    20bf:	c7 87 5c 10 00 00 00 	movl   $0x0,0x105c(%edi)
    20c6:	00 00 00 
    20c9:	89 18                	mov    %ebx,(%eax)
    20cb:	8b 45 a4             	mov    -0x5c(%ebp),%eax
    20ce:	8d 65 f4             	lea    -0xc(%ebp),%esp
    20d1:	5b                   	pop    %ebx
    20d2:	5e                   	pop    %esi
    20d3:	5f                   	pop    %edi
    20d4:	5d                   	pop    %ebp
    20d5:	c3                   	ret    
    20d6:	66 90                	xchg   %ax,%ax
    20d8:	8b 45 d8             	mov    -0x28(%ebp),%eax
    20db:	85 c0                	test   %eax,%eax
    20dd:	74 21                	je     2100 <tinput_read_i+0x250>
    20df:	8b 45 dc             	mov    -0x24(%ebp),%eax
    20e2:	83 f8 2b             	cmp    $0x2b,%eax
    20e5:	0f 84 d5 01 00 00    	je     22c0 <tinput_read_i+0x410>
    20eb:	83 f8 36             	cmp    $0x36,%eax
    20ee:	0f 85 54 fe ff ff    	jne    1f48 <tinput_read_i+0x98>
    20f4:	c6 87 63 10 00 00 00 	movb   $0x0,0x1063(%edi)
    20fb:	e9 48 fe ff ff       	jmp    1f48 <tinput_read_i+0x98>
    2100:	8b 55 dc             	mov    -0x24(%ebp),%edx
    2103:	83 fa 2b             	cmp    $0x2b,%edx
    2106:	0f 84 fc 02 00 00    	je     2408 <tinput_read_i+0x558>
    210c:	83 fa 36             	cmp    $0x36,%edx
    210f:	0f 84 d3 01 00 00    	je     22e8 <tinput_read_i+0x438>
    2115:	8b 45 e0             	mov    -0x20(%ebp),%eax
    2118:	a8 0c                	test   $0xc,%al
    211a:	74 08                	je     2124 <tinput_read_i+0x274>
    211c:	a8 33                	test   $0x33,%al
    211e:	0f 84 2f 03 00 00    	je     2453 <tinput_read_i+0x5a3>
    2124:	a8 03                	test   $0x3,%al
    2126:	74 10                	je     2138 <tinput_read_i+0x288>
    2128:	a8 3c                	test   $0x3c,%al
    212a:	0f 84 36 03 00 00    	je     2466 <tinput_read_i+0x5b6>
    2130:	a8 0c                	test   $0xc,%al
    2132:	0f 85 1f 02 00 00    	jne    2357 <tinput_read_i+0x4a7>
    2138:	a8 3f                	test   $0x3f,%al
    213a:	0f 84 b0 02 00 00    	je     23f0 <tinput_read_i+0x540>
    2140:	8b 75 e4             	mov    -0x1c(%ebp),%esi
    2143:	83 fe 1f             	cmp    $0x1f,%esi
    2146:	0f 8e fc fd ff ff    	jle    1f48 <tinput_read_i+0x98>
    214c:	8b 97 28 10 00 00    	mov    0x1028(%edi),%edx
    2152:	8b 8f 24 10 00 00    	mov    0x1024(%edi),%ecx
    2158:	39 ca                	cmp    %ecx,%edx
    215a:	0f 83 d0 02 00 00    	jae    2430 <tinput_read_i+0x580>
    2160:	56                   	push   %esi
    2161:	8b 75 a0             	mov    -0x60(%ebp),%esi
    2164:	8b 87 20 10 00 00    	mov    0x1020(%edi),%eax
    216a:	89 4d 98             	mov    %ecx,-0x68(%ebp)
    216d:	29 c8                	sub    %ecx,%eax
    216f:	89 55 9c             	mov    %edx,-0x64(%ebp)
    2172:	c1 e0 02             	shl    $0x2,%eax
    2175:	50                   	push   %eax
    2176:	8d 04 8e             	lea    (%esi,%ecx,4),%eax
    2179:	50                   	push   %eax
    217a:	8d 04 96             	lea    (%esi,%edx,4),%eax
    217d:	50                   	push   %eax
    217e:	e8 0d 1d 00 00       	call   3e90 <memmove@plt>
    2183:	8b 55 9c             	mov    -0x64(%ebp),%edx
    2186:	8b 87 20 10 00 00    	mov    0x1020(%edi),%eax
    218c:	01 d0                	add    %edx,%eax
    218e:	8b 4d 98             	mov    -0x68(%ebp),%ecx
    2191:	29 c8                	sub    %ecx,%eax
    2193:	89 97 28 10 00 00    	mov    %edx,0x1028(%edi)
    2199:	89 97 24 10 00 00    	mov    %edx,0x1024(%edi)
    219f:	89 87 20 10 00 00    	mov    %eax,0x1020(%edi)
    21a5:	29 d1                	sub    %edx,%ecx
    21a7:	c7 44 87 0c 00 00 00 	movl   $0x0,0xc(%edi,%eax,4)
    21ae:	00 
    21af:	89 f8                	mov    %edi,%eax
    21b1:	e8 ea f4 ff ff       	call   16a0 <tinput_display_tail>
    21b6:	8b 97 14 10 00 00    	mov    0x1014(%edi),%edx
    21bc:	8b 87 24 10 00 00    	mov    0x1024(%edi),%eax
    21c2:	83 c4 0c             	add    $0xc,%esp
    21c5:	01 d0                	add    %edx,%eax
    21c7:	31 d2                	xor    %edx,%edx
    21c9:	f7 b7 18 10 00 00    	divl   0x1018(%edi)
    21cf:	8b 0f                	mov    (%edi),%ecx
    21d1:	50                   	push   %eax
    21d2:	52                   	push   %edx
    21d3:	51                   	push   %ecx
    21d4:	e8 a7 1e 00 00       	call   4080 <console_set_pos@plt>
    21d9:	8b 75 e4             	mov    -0x1c(%ebp),%esi
    21dc:	83 c4 10             	add    $0x10,%esp
    21df:	8b 8f 20 10 00 00    	mov    0x1020(%edi),%ecx
    21e5:	81 f9 00 04 00 00    	cmp    $0x400,%ecx
    21eb:	0f 84 57 fd ff ff    	je     1f48 <tinput_read_i+0x98>
    21f1:	8d 41 01             	lea    0x1(%ecx),%eax
    21f4:	31 d2                	xor    %edx,%edx
    21f6:	89 45 9c             	mov    %eax,-0x64(%ebp)
    21f9:	8b 87 14 10 00 00    	mov    0x1014(%edi),%eax
    21ff:	f7 b7 18 10 00 00    	divl   0x1018(%edi)
    2205:	8d 41 01             	lea    0x1(%ecx),%eax
    2208:	01 d0                	add    %edx,%eax
    220a:	31 d2                	xor    %edx,%edx
    220c:	f7 b7 18 10 00 00    	divl   0x1018(%edi)
    2212:	85 d2                	test   %edx,%edx
    2214:	0f 84 27 02 00 00    	je     2441 <tinput_read_i+0x591>
    221a:	8b 97 24 10 00 00    	mov    0x1024(%edi),%edx
    2220:	39 d1                	cmp    %edx,%ecx
    2222:	76 1b                	jbe    223f <tinput_read_i+0x38f>
    2224:	8d 44 8f 08          	lea    0x8(%edi,%ecx,4),%eax
    2228:	89 55 98             	mov    %edx,-0x68(%ebp)
    222b:	8d 4c 97 08          	lea    0x8(%edi,%edx,4),%ecx
    222f:	90                   	nop
    2230:	8b 10                	mov    (%eax),%edx
    2232:	83 e8 04             	sub    $0x4,%eax
    2235:	89 50 08             	mov    %edx,0x8(%eax)
    2238:	39 c8                	cmp    %ecx,%eax
    223a:	75 f4                	jne    2230 <tinput_read_i+0x380>
    223c:	8b 55 98             	mov    -0x68(%ebp),%edx
    223f:	89 74 97 0c          	mov    %esi,0xc(%edi,%edx,4)
    2243:	8b 75 9c             	mov    -0x64(%ebp),%esi
    2246:	8d 42 01             	lea    0x1(%edx),%eax
    2249:	89 b7 20 10 00 00    	mov    %esi,0x1020(%edi)
    224f:	89 87 24 10 00 00    	mov    %eax,0x1024(%edi)
    2255:	c7 44 b7 0c 00 00 00 	movl   $0x0,0xc(%edi,%esi,4)
    225c:	00 
    225d:	89 87 28 10 00 00    	mov    %eax,0x1028(%edi)
    2263:	89 f8                	mov    %edi,%eax
    2265:	e8 46 f7 ff ff       	call   19b0 <tinput_display_tail.constprop.12>
    226a:	8b 8f 14 10 00 00    	mov    0x1014(%edi),%ecx
    2270:	8b 87 20 10 00 00    	mov    0x1020(%edi),%eax
    2276:	31 d2                	xor    %edx,%edx
    2278:	01 c8                	add    %ecx,%eax
    227a:	8b b7 18 10 00 00    	mov    0x1018(%edi),%esi
    2280:	f7 f6                	div    %esi
    2282:	8b 97 1c 10 00 00    	mov    0x101c(%edi),%edx
    2288:	39 d0                	cmp    %edx,%eax
    228a:	72 1c                	jb     22a8 <tinput_read_i+0x3f8>
    228c:	29 d0                	sub    %edx,%eax
    228e:	8b 97 10 10 00 00    	mov    0x1010(%edi),%edx
    2294:	40                   	inc    %eax
    2295:	0f af c6             	imul   %esi,%eax
    2298:	29 c1                	sub    %eax,%ecx
    229a:	29 c2                	sub    %eax,%edx
    229c:	89 8f 14 10 00 00    	mov    %ecx,0x1014(%edi)
    22a2:	89 97 10 10 00 00    	mov    %edx,0x1010(%edi)
    22a8:	8b 87 24 10 00 00    	mov    0x1024(%edi),%eax
    22ae:	52                   	push   %edx
    22af:	01 c8                	add    %ecx,%eax
    22b1:	31 d2                	xor    %edx,%edx
    22b3:	f7 f6                	div    %esi
    22b5:	e9 7e fd ff ff       	jmp    2038 <tinput_read_i+0x188>
    22ba:	8d b6 00 00 00 00    	lea    0x0(%esi),%esi
    22c0:	c6 87 62 10 00 00 00 	movb   $0x0,0x1062(%edi)
    22c7:	e9 7c fc ff ff       	jmp    1f48 <tinput_read_i+0x98>
    22cc:	8d 74 26 00          	lea    0x0(%esi,%eiz,1),%esi
    22d0:	c7 45 a4 f6 fe ff ff 	movl   $0xfffffef6,-0x5c(%ebp)
    22d7:	8b 45 a4             	mov    -0x5c(%ebp),%eax
    22da:	8d 65 f4             	lea    -0xc(%ebp),%esp
    22dd:	5b                   	pop    %ebx
    22de:	5e                   	pop    %esi
    22df:	5f                   	pop    %edi
    22e0:	5d                   	pop    %ebp
    22e1:	c3                   	ret    
    22e2:	8d b6 00 00 00 00    	lea    0x0(%esi),%esi
    22e8:	8b 45 e0             	mov    -0x20(%ebp),%eax
    22eb:	c6 87 63 10 00 00 01 	movb   $0x1,0x1063(%edi)
    22f2:	a8 0c                	test   $0xc,%al
    22f4:	0f 84 2a fe ff ff    	je     2124 <tinput_read_i+0x274>
    22fa:	e9 1d fe ff ff       	jmp    211c <tinput_read_i+0x26c>
    22ff:	8b 87 24 10 00 00    	mov    0x1024(%edi),%eax
    2305:	8b 97 18 10 00 00    	mov    0x1018(%edi),%edx
    230b:	39 c2                	cmp    %eax,%edx
    230d:	77 08                	ja     2317 <tinput_read_i+0x467>
    230f:	29 d0                	sub    %edx,%eax
    2311:	89 87 24 10 00 00    	mov    %eax,0x1024(%edi)
    2317:	31 d2                	xor    %edx,%edx
    2319:	89 f8                	mov    %edi,%eax
    231b:	e8 90 f6 ff ff       	call   19b0 <tinput_display_tail.constprop.12>
    2320:	8b 97 14 10 00 00    	mov    0x1014(%edi),%edx
    2326:	8b 87 24 10 00 00    	mov    0x1024(%edi),%eax
    232c:	51                   	push   %ecx
    232d:	01 d0                	add    %edx,%eax
    232f:	31 d2                	xor    %edx,%edx
    2331:	f7 b7 18 10 00 00    	divl   0x1018(%edi)
    2337:	8b 37                	mov    (%edi),%esi
    2339:	50                   	push   %eax
    233a:	52                   	push   %edx
    233b:	56                   	push   %esi
    233c:	e8 3f 1d 00 00       	call   4080 <console_set_pos@plt>
    2341:	8b 45 e0             	mov    -0x20(%ebp),%eax
    2344:	83 c4 10             	add    $0x10,%esp
    2347:	a8 0c                	test   $0xc,%al
    2349:	0f 84 e9 fd ff ff    	je     2138 <tinput_read_i+0x288>
    234f:	a8 03                	test   $0x3,%al
    2351:	0f 84 e1 fd ff ff    	je     2138 <tinput_read_i+0x288>
    2357:	a8 30                	test   $0x30,%al
    2359:	0f 85 d9 fd ff ff    	jne    2138 <tinput_read_i+0x288>
    235f:	8b 55 dc             	mov    -0x24(%ebp),%edx
    2362:	83 fa 55             	cmp    $0x55,%edx
    2365:	0f 84 aa 0e 00 00    	je     3215 <tinput_read_i+0x1365>
    236b:	0f 86 de 09 00 00    	jbe    2d4f <tinput_read_i+0xe9f>
    2371:	83 fa 56             	cmp    $0x56,%edx
    2374:	0f 84 76 0e 00 00    	je     31f0 <tinput_read_i+0x1340>
    237a:	83 fa 57             	cmp    $0x57,%edx
    237d:	0f 85 b5 fd ff ff    	jne    2138 <tinput_read_i+0x288>
    2383:	8b 97 24 10 00 00    	mov    0x1024(%edi),%edx
    2389:	8b 8f 20 10 00 00    	mov    0x1020(%edi),%ecx
    238f:	39 d1                	cmp    %edx,%ecx
    2391:	0f 84 59 13 00 00    	je     36f0 <tinput_read_i+0x1840>
    2397:	42                   	inc    %edx
    2398:	39 d1                	cmp    %edx,%ecx
    239a:	0f 84 0f 0f 00 00    	je     32af <tinput_read_i+0x13ff>
    23a0:	83 7c 97 08 20       	cmpl   $0x20,0x8(%edi,%edx,4)
    23a5:	75 f0                	jne    2397 <tinput_read_i+0x4e7>
    23a7:	83 7c 97 0c 20       	cmpl   $0x20,0xc(%edi,%edx,4)
    23ac:	74 e9                	je     2397 <tinput_read_i+0x4e7>
    23ae:	89 97 24 10 00 00    	mov    %edx,0x1024(%edi)
    23b4:	31 d2                	xor    %edx,%edx
    23b6:	89 f8                	mov    %edi,%eax
    23b8:	e8 f3 f5 ff ff       	call   19b0 <tinput_display_tail.constprop.12>
    23bd:	8b 87 24 10 00 00    	mov    0x1024(%edi),%eax
    23c3:	8b b7 14 10 00 00    	mov    0x1014(%edi),%esi
    23c9:	52                   	push   %edx
    23ca:	01 f0                	add    %esi,%eax
    23cc:	31 d2                	xor    %edx,%edx
    23ce:	f7 b7 18 10 00 00    	divl   0x1018(%edi)
    23d4:	8b 0f                	mov    (%edi),%ecx
    23d6:	50                   	push   %eax
    23d7:	52                   	push   %edx
    23d8:	51                   	push   %ecx
    23d9:	e8 a2 1c 00 00       	call   4080 <console_set_pos@plt>
    23de:	8b 45 e0             	mov    -0x20(%ebp),%eax
    23e1:	83 c4 10             	add    $0x10,%esp
    23e4:	e9 4f fd ff ff       	jmp    2138 <tinput_read_i+0x288>
    23e9:	8d b4 26 00 00 00 00 	lea    0x0(%esi,%eiz,1),%esi
    23f0:	8b 45 dc             	mov    -0x24(%ebp),%eax
    23f3:	83 e8 0e             	sub    $0xe,%eax
    23f6:	83 f8 4f             	cmp    $0x4f,%eax
    23f9:	0f 87 41 fd ff ff    	ja     2140 <tinput_read_i+0x290>
    23ff:	ff 24 85 b0 39 00 00 	jmp    *0x39b0(,%eax,4)
    2406:	66 90                	xchg   %ax,%ax
    2408:	8b 45 e0             	mov    -0x20(%ebp),%eax
    240b:	c6 87 62 10 00 00 01 	movb   $0x1,0x1062(%edi)
    2412:	a8 0c                	test   $0xc,%al
    2414:	0f 84 0a fd ff ff    	je     2124 <tinput_read_i+0x274>
    241a:	e9 fd fc ff ff       	jmp    211c <tinput_read_i+0x26c>
    241f:	c7 87 24 10 00 00 00 	movl   $0x0,0x1024(%edi)
    2426:	00 00 00 
    2429:	31 c0                	xor    %eax,%eax
    242b:	e9 f1 fb ff ff       	jmp    2021 <tinput_read_i+0x171>
    2430:	0f 84 a9 fd ff ff    	je     21df <tinput_read_i+0x32f>
    2436:	89 d0                	mov    %edx,%eax
    2438:	89 ca                	mov    %ecx,%edx
    243a:	89 c1                	mov    %eax,%ecx
    243c:	e9 1f fd ff ff       	jmp    2160 <tinput_read_i+0x2b0>
    2441:	40                   	inc    %eax
    2442:	3b 87 1c 10 00 00    	cmp    0x101c(%edi),%eax
    2448:	0f 82 cc fd ff ff    	jb     221a <tinput_read_i+0x36a>
    244e:	e9 f5 fa ff ff       	jmp    1f48 <tinput_read_i+0x98>
    2453:	83 ea 10             	sub    $0x10,%edx
    2456:	83 fa 47             	cmp    $0x47,%edx
    2459:	0f 87 c5 fc ff ff    	ja     2124 <tinput_read_i+0x274>
    245f:	ff 24 95 f0 3a 00 00 	jmp    *0x3af0(,%edx,4)
    2466:	8b 75 dc             	mov    -0x24(%ebp),%esi
    2469:	8d 56 b1             	lea    -0x4f(%esi),%edx
    246c:	83 fa 08             	cmp    $0x8,%edx
    246f:	0f 87 d2 fe ff ff    	ja     2347 <tinput_read_i+0x497>
    2475:	ff 24 95 10 3c 00 00 	jmp    *0x3c10(,%edx,4)
    247c:	8b 87 58 10 00 00    	mov    0x1058(%edi),%eax
    2482:	83 f8 09             	cmp    $0x9,%eax
    2485:	0f 87 77 01 00 00    	ja     2602 <tinput_read_i+0x752>
    248b:	40                   	inc    %eax
    248c:	89 87 58 10 00 00    	mov    %eax,0x1058(%edi)
    2492:	83 f8 01             	cmp    $0x1,%eax
    2495:	0f 86 09 01 00 00    	jbe    25a4 <tinput_read_i+0x6f4>
    249b:	8d 0c 87             	lea    (%edi,%eax,4),%ecx
    249e:	8d 50 ff             	lea    -0x1(%eax),%edx
    24a1:	83 fa 01             	cmp    $0x1,%edx
    24a4:	8b b1 28 10 00 00    	mov    0x1028(%ecx),%esi
    24aa:	89 b1 2c 10 00 00    	mov    %esi,0x102c(%ecx)
    24b0:	0f 84 ee 00 00 00    	je     25a4 <tinput_read_i+0x6f4>
    24b6:	8d 14 97             	lea    (%edi,%edx,4),%edx
    24b9:	8d 48 fe             	lea    -0x2(%eax),%ecx
    24bc:	83 f9 01             	cmp    $0x1,%ecx
    24bf:	8b b2 28 10 00 00    	mov    0x1028(%edx),%esi
    24c5:	89 b2 2c 10 00 00    	mov    %esi,0x102c(%edx)
    24cb:	0f 84 d3 00 00 00    	je     25a4 <tinput_read_i+0x6f4>
    24d1:	8d 0c 8f             	lea    (%edi,%ecx,4),%ecx
    24d4:	8d 50 fd             	lea    -0x3(%eax),%edx
    24d7:	83 fa 01             	cmp    $0x1,%edx
    24da:	8b b1 28 10 00 00    	mov    0x1028(%ecx),%esi
    24e0:	89 b1 2c 10 00 00    	mov    %esi,0x102c(%ecx)
    24e6:	0f 84 b8 00 00 00    	je     25a4 <tinput_read_i+0x6f4>
    24ec:	8d 14 97             	lea    (%edi,%edx,4),%edx
    24ef:	8d 48 fc             	lea    -0x4(%eax),%ecx
    24f2:	83 f9 01             	cmp    $0x1,%ecx
    24f5:	8b b2 28 10 00 00    	mov    0x1028(%edx),%esi
    24fb:	89 b2 2c 10 00 00    	mov    %esi,0x102c(%edx)
    2501:	0f 84 9d 00 00 00    	je     25a4 <tinput_read_i+0x6f4>
    2507:	8d 0c 8f             	lea    (%edi,%ecx,4),%ecx
    250a:	8d 50 fb             	lea    -0x5(%eax),%edx
    250d:	83 fa 01             	cmp    $0x1,%edx
    2510:	8b b1 28 10 00 00    	mov    0x1028(%ecx),%esi
    2516:	89 b1 2c 10 00 00    	mov    %esi,0x102c(%ecx)
    251c:	0f 84 82 00 00 00    	je     25a4 <tinput_read_i+0x6f4>
    2522:	8d 14 97             	lea    (%edi,%edx,4),%edx
    2525:	8d 48 fa             	lea    -0x6(%eax),%ecx
    2528:	83 f9 01             	cmp    $0x1,%ecx
    252b:	8b b2 28 10 00 00    	mov    0x1028(%edx),%esi
    2531:	89 b2 2c 10 00 00    	mov    %esi,0x102c(%edx)
    2537:	74 6b                	je     25a4 <tinput_read_i+0x6f4>
    2539:	8d 0c 8f             	lea    (%edi,%ecx,4),%ecx
    253c:	8d 50 f9             	lea    -0x7(%eax),%edx
    253f:	83 fa 01             	cmp    $0x1,%edx
    2542:	8b b1 28 10 00 00    	mov    0x1028(%ecx),%esi
    2548:	89 b1 2c 10 00 00    	mov    %esi,0x102c(%ecx)
    254e:	74 54                	je     25a4 <tinput_read_i+0x6f4>
    2550:	8d 14 97             	lea    (%edi,%edx,4),%edx
    2553:	8d 48 f8             	lea    -0x8(%eax),%ecx
    2556:	83 f9 01             	cmp    $0x1,%ecx
    2559:	8b b2 28 10 00 00    	mov    0x1028(%edx),%esi
    255f:	89 b2 2c 10 00 00    	mov    %esi,0x102c(%edx)
    2565:	74 3d                	je     25a4 <tinput_read_i+0x6f4>
    2567:	8d 0c 8f             	lea    (%edi,%ecx,4),%ecx
    256a:	8d 50 f7             	lea    -0x9(%eax),%edx
    256d:	83 fa 01             	cmp    $0x1,%edx
    2570:	8b b1 28 10 00 00    	mov    0x1028(%ecx),%esi
    2576:	89 b1 2c 10 00 00    	mov    %esi,0x102c(%ecx)
    257c:	74 26                	je     25a4 <tinput_read_i+0x6f4>
    257e:	8d 14 97             	lea    (%edi,%edx,4),%edx
    2581:	83 e8 0a             	sub    $0xa,%eax
    2584:	83 f8 01             	cmp    $0x1,%eax
    2587:	8b 8a 28 10 00 00    	mov    0x1028(%edx),%ecx
    258d:	89 8a 2c 10 00 00    	mov    %ecx,0x102c(%edx)
    2593:	74 0f                	je     25a4 <tinput_read_i+0x6f4>
    2595:	8d 04 87             	lea    (%edi,%eax,4),%eax
    2598:	8b 90 28 10 00 00    	mov    0x1028(%eax),%edx
    259e:	89 90 2c 10 00 00    	mov    %edx,0x102c(%eax)
    25a4:	83 ec 0c             	sub    $0xc,%esp
    25a7:	53                   	push   %ebx
    25a8:	e8 f3 19 00 00       	call   3fa0 <str_dup@plt>
    25ad:	89 87 30 10 00 00    	mov    %eax,0x1030(%edi)
    25b3:	8b 87 2c 10 00 00    	mov    0x102c(%edi),%eax
    25b9:	83 c4 10             	add    $0x10,%esp
    25bc:	85 c0                	test   %eax,%eax
    25be:	0f 84 f8 fa ff ff    	je     20bc <tinput_read_i+0x20c>
    25c4:	83 ec 0c             	sub    $0xc,%esp
    25c7:	50                   	push   %eax
    25c8:	e8 63 1b 00 00       	call   4130 <free@plt>
    25cd:	c7 87 2c 10 00 00 00 	movl   $0x0,0x102c(%edi)
    25d4:	00 00 00 
    25d7:	83 c4 10             	add    $0x10,%esp
    25da:	e9 dd fa ff ff       	jmp    20bc <tinput_read_i+0x20c>
    25df:	89 f8                	mov    %edi,%eax
    25e1:	31 d2                	xor    %edx,%edx
    25e3:	e8 c8 f3 ff ff       	call   19b0 <tinput_display_tail.constprop.12>
    25e8:	8b b7 18 10 00 00    	mov    0x1018(%edi),%esi
    25ee:	8b 8f 14 10 00 00    	mov    0x1014(%edi),%ecx
    25f4:	8b 87 24 10 00 00    	mov    0x1024(%edi),%eax
    25fa:	89 75 9c             	mov    %esi,-0x64(%ebp)
    25fd:	e9 2e fa ff ff       	jmp    2030 <tinput_read_i+0x180>
    2602:	8b 97 54 10 00 00    	mov    0x1054(%edi),%edx
    2608:	85 d2                	test   %edx,%edx
    260a:	0f 84 8b fe ff ff    	je     249b <tinput_read_i+0x5eb>
    2610:	83 ec 0c             	sub    $0xc,%esp
    2613:	52                   	push   %edx
    2614:	e8 17 1b 00 00       	call   4130 <free@plt>
    2619:	8b 87 58 10 00 00    	mov    0x1058(%edi),%eax
    261f:	83 c4 10             	add    $0x10,%esp
    2622:	e9 6b fe ff ff       	jmp    2492 <tinput_read_i+0x5e2>
    2627:	8b 47 08             	mov    0x8(%edi),%eax
    262a:	85 c0                	test   %eax,%eax
    262c:	0f 84 0e fb ff ff    	je     2140 <tinput_read_i+0x290>
    2632:	8d 75 b0             	lea    -0x50(%ebp),%esi
    2635:	8b 8f 24 10 00 00    	mov    0x1024(%edi),%ecx
    263b:	56                   	push   %esi
    263c:	8d 75 b4             	lea    -0x4c(%ebp),%esi
    263f:	56                   	push   %esi
    2640:	8b 75 a0             	mov    -0x60(%ebp),%esi
    2643:	51                   	push   %ecx
    2644:	56                   	push   %esi
    2645:	ff 10                	call   *(%eax)
    2647:	83 c4 10             	add    $0x10,%esp
    264a:	85 c0                	test   %eax,%eax
    264c:	0f 85 ee fa ff ff    	jne    2140 <tinput_read_i+0x290>
    2652:	83 ec 0c             	sub    $0xc,%esp
    2655:	6a 04                	push   $0x4
    2657:	e8 b4 18 00 00       	call   3f10 <malloc@plt>
    265c:	83 c4 10             	add    $0x10,%esp
    265f:	89 45 98             	mov    %eax,-0x68(%ebp)
    2662:	85 c0                	test   %eax,%eax
    2664:	0f 84 e9 10 00 00    	je     3753 <tinput_read_i+0x18a3>
    266a:	c7 45 90 00 00 00 00 	movl   $0x0,-0x70(%ebp)
    2671:	c7 45 9c 01 00 00 00 	movl   $0x1,-0x64(%ebp)
    2678:	eb 5b                	jmp    26d5 <tinput_read_i+0x825>
    267a:	8d b6 00 00 00 00    	lea    0x0(%esi),%esi
    2680:	8b 45 9c             	mov    -0x64(%ebp),%eax
    2683:	8b 75 90             	mov    -0x70(%ebp),%esi
    2686:	39 f0                	cmp    %esi,%eax
    2688:	77 22                	ja     26ac <tinput_read_i+0x7fc>
    268a:	01 c0                	add    %eax,%eax
    268c:	8b 4d 98             	mov    -0x68(%ebp),%ecx
    268f:	89 45 9c             	mov    %eax,-0x64(%ebp)
    2692:	52                   	push   %edx
    2693:	c1 e0 02             	shl    $0x2,%eax
    2696:	52                   	push   %edx
    2697:	50                   	push   %eax
    2698:	51                   	push   %ecx
    2699:	e8 32 19 00 00       	call   3fd0 <realloc@plt>
    269e:	83 c4 10             	add    $0x10,%esp
    26a1:	89 45 98             	mov    %eax,-0x68(%ebp)
    26a4:	85 c0                	test   %eax,%eax
    26a6:	0f 84 54 10 00 00    	je     3700 <tinput_read_i+0x1850>
    26ac:	8b 45 98             	mov    -0x68(%ebp),%eax
    26af:	8b 75 90             	mov    -0x70(%ebp),%esi
    26b2:	83 ec 0c             	sub    $0xc,%esp
    26b5:	8d 34 b0             	lea    (%eax,%esi,4),%esi
    26b8:	8b 45 b8             	mov    -0x48(%ebp),%eax
    26bb:	50                   	push   %eax
    26bc:	e8 df 18 00 00       	call   3fa0 <str_dup@plt>
    26c1:	83 c4 10             	add    $0x10,%esp
    26c4:	89 06                	mov    %eax,(%esi)
    26c6:	85 c0                	test   %eax,%eax
    26c8:	0f 84 32 10 00 00    	je     3700 <tinput_read_i+0x1850>
    26ce:	8b 4d 90             	mov    -0x70(%ebp),%ecx
    26d1:	41                   	inc    %ecx
    26d2:	89 4d 90             	mov    %ecx,-0x70(%ebp)
    26d5:	56                   	push   %esi
    26d6:	56                   	push   %esi
    26d7:	8b 47 08             	mov    0x8(%edi),%eax
    26da:	8b 55 b0             	mov    -0x50(%ebp),%edx
    26dd:	8d 75 b8             	lea    -0x48(%ebp),%esi
    26e0:	56                   	push   %esi
    26e1:	52                   	push   %edx
    26e2:	ff 50 04             	call   *0x4(%eax)
    26e5:	83 c4 10             	add    $0x10,%esp
    26e8:	85 c0                	test   %eax,%eax
    26ea:	74 94                	je     2680 <tinput_read_i+0x7d0>
    26ec:	83 ec 0c             	sub    $0xc,%esp
    26ef:	8b 47 08             	mov    0x8(%edi),%eax
    26f2:	8b 55 b0             	mov    -0x50(%ebp),%edx
    26f5:	52                   	push   %edx
    26f6:	ff 50 08             	call   *0x8(%eax)
    26f9:	83 c4 10             	add    $0x10,%esp
    26fc:	83 7d 90 01          	cmpl   $0x1,-0x70(%ebp)
    2700:	0f 86 d2 0f 00 00    	jbe    36d8 <tinput_read_i+0x1828>
    2706:	8b 45 98             	mov    -0x68(%ebp),%eax
    2709:	83 ec 0c             	sub    $0xc,%esp
    270c:	8b 00                	mov    (%eax),%eax
    270e:	50                   	push   %eax
    270f:	e8 5c 19 00 00       	call   4070 <str_length@plt>
    2714:	89 45 88             	mov    %eax,-0x78(%ebp)
    2717:	8d 45 c0             	lea    -0x40(%ebp),%eax
    271a:	83 c4 10             	add    $0x10,%esp
    271d:	c7 45 84 01 00 00 00 	movl   $0x1,-0x7c(%ebp)
    2724:	89 45 9c             	mov    %eax,-0x64(%ebp)
    2727:	89 7d 08             	mov    %edi,0x8(%ebp)
    272a:	8b 45 98             	mov    -0x68(%ebp),%eax
    272d:	8b 75 84             	mov    -0x7c(%ebp),%esi
    2730:	c7 45 8c 00 00 00 00 	movl   $0x0,-0x74(%ebp)
    2737:	8b 3c b0             	mov    (%eax,%esi,4),%edi
    273a:	8b 00                	mov    (%eax),%eax
    273c:	89 45 94             	mov    %eax,-0x6c(%ebp)
    273f:	c7 45 bc 00 00 00 00 	movl   $0x0,-0x44(%ebp)
    2746:	c7 45 c0 00 00 00 00 	movl   $0x0,-0x40(%ebp)
    274d:	eb 0c                	jmp    275b <tinput_read_i+0x8ab>
    274f:	90                   	nop
    2750:	39 c6                	cmp    %eax,%esi
    2752:	75 39                	jne    278d <tinput_read_i+0x8dd>
    2754:	8b 55 8c             	mov    -0x74(%ebp),%edx
    2757:	42                   	inc    %edx
    2758:	89 55 8c             	mov    %edx,-0x74(%ebp)
    275b:	8b 75 94             	mov    -0x6c(%ebp),%esi
    275e:	8d 45 bc             	lea    -0x44(%ebp),%eax
    2761:	51                   	push   %ecx
    2762:	6a ff                	push   $0xffffffff
    2764:	50                   	push   %eax
    2765:	56                   	push   %esi
    2766:	e8 65 17 00 00       	call   3ed0 <str_decode@plt>
    276b:	83 c4 0c             	add    $0xc,%esp
    276e:	89 c6                	mov    %eax,%esi
    2770:	8b 45 9c             	mov    -0x64(%ebp),%eax
    2773:	6a ff                	push   $0xffffffff
    2775:	50                   	push   %eax
    2776:	57                   	push   %edi
    2777:	e8 54 17 00 00       	call   3ed0 <str_decode@plt>
    277c:	83 c4 10             	add    $0x10,%esp
    277f:	85 f6                	test   %esi,%esi
    2781:	0f 94 c1             	sete   %cl
    2784:	85 c0                	test   %eax,%eax
    2786:	0f 94 c2             	sete   %dl
    2789:	08 d1                	or     %dl,%cl
    278b:	74 c3                	je     2750 <tinput_read_i+0x8a0>
    278d:	8b 75 8c             	mov    -0x74(%ebp),%esi
    2790:	39 75 88             	cmp    %esi,-0x78(%ebp)
    2793:	0f 83 31 0c 00 00    	jae    33ca <tinput_read_i+0x151a>
    2799:	8b 45 84             	mov    -0x7c(%ebp),%eax
    279c:	40                   	inc    %eax
    279d:	89 45 84             	mov    %eax,-0x7c(%ebp)
    27a0:	8b 45 84             	mov    -0x7c(%ebp),%eax
    27a3:	39 45 90             	cmp    %eax,-0x70(%ebp)
    27a6:	75 82                	jne    272a <tinput_read_i+0x87a>
    27a8:	8b 7d 08             	mov    0x8(%ebp),%edi
    27ab:	51                   	push   %ecx
    27ac:	51                   	push   %ecx
    27ad:	8b 75 b4             	mov    -0x4c(%ebp),%esi
    27b0:	8b 87 24 10 00 00    	mov    0x1024(%edi),%eax
    27b6:	29 f0                	sub    %esi,%eax
    27b8:	50                   	push   %eax
    27b9:	8b 45 98             	mov    -0x68(%ebp),%eax
    27bc:	8b 00                	mov    (%eax),%eax
    27be:	50                   	push   %eax
    27bf:	e8 4c 19 00 00       	call   4110 <str_lsize@plt>
    27c4:	8b 4d 88             	mov    -0x78(%ebp),%ecx
    27c7:	83 c4 10             	add    $0x10,%esp
    27ca:	89 c6                	mov    %eax,%esi
    27cc:	39 c8                	cmp    %ecx,%eax
    27ce:	0f 83 cd 0c 00 00    	jae    34a1 <tinput_read_i+0x15f1>
    27d4:	50                   	push   %eax
    27d5:	50                   	push   %eax
    27d6:	8b 45 98             	mov    -0x68(%ebp),%eax
    27d9:	29 f1                	sub    %esi,%ecx
    27db:	51                   	push   %ecx
    27dc:	8b 00                	mov    (%eax),%eax
    27de:	50                   	push   %eax
    27df:	e8 2c 19 00 00       	call   4110 <str_lsize@plt>
    27e4:	5a                   	pop    %edx
    27e5:	59                   	pop    %ecx
    27e6:	50                   	push   %eax
    27e7:	8b 45 98             	mov    -0x68(%ebp),%eax
    27ea:	8b 10                	mov    (%eax),%edx
    27ec:	01 d6                	add    %edx,%esi
    27ee:	56                   	push   %esi
    27ef:	e8 ec 16 00 00       	call   3ee0 <str_ndup@plt>
    27f4:	89 c2                	mov    %eax,%edx
    27f6:	89 c6                	mov    %eax,%esi
    27f8:	89 f8                	mov    %edi,%eax
    27fa:	e8 51 f3 ff ff       	call   1b50 <tinput_insert_string>
    27ff:	89 34 24             	mov    %esi,(%esp)
    2802:	e8 29 19 00 00       	call   4130 <free@plt>
    2807:	83 c4 10             	add    $0x10,%esp
    280a:	31 f6                	xor    %esi,%esi
    280c:	8b 45 98             	mov    -0x68(%ebp),%eax
    280f:	83 ec 0c             	sub    $0xc,%esp
    2812:	8b 04 b0             	mov    (%eax,%esi,4),%eax
    2815:	46                   	inc    %esi
    2816:	50                   	push   %eax
    2817:	e8 14 19 00 00       	call   4130 <free@plt>
    281c:	83 c4 10             	add    $0x10,%esp
    281f:	39 75 90             	cmp    %esi,-0x70(%ebp)
    2822:	77 e8                	ja     280c <tinput_read_i+0x95c>
    2824:	83 ec 0c             	sub    $0xc,%esp
    2827:	8b 45 98             	mov    -0x68(%ebp),%eax
    282a:	50                   	push   %eax
    282b:	e8 00 19 00 00       	call   4130 <free@plt>
    2830:	83 c4 10             	add    $0x10,%esp
    2833:	e9 08 f9 ff ff       	jmp    2140 <tinput_read_i+0x290>
    2838:	8b 8f 24 10 00 00    	mov    0x1024(%edi),%ecx
    283e:	8b 87 28 10 00 00    	mov    0x1028(%edi),%eax
    2844:	39 c1                	cmp    %eax,%ecx
    2846:	74 39                	je     2881 <tinput_read_i+0x9d1>
    2848:	31 d2                	xor    %edx,%edx
    284a:	89 8f 28 10 00 00    	mov    %ecx,0x1028(%edi)
    2850:	89 f8                	mov    %edi,%eax
    2852:	e8 59 f1 ff ff       	call   19b0 <tinput_display_tail.constprop.12>
    2857:	8b 87 24 10 00 00    	mov    0x1024(%edi),%eax
    285d:	8b b7 14 10 00 00    	mov    0x1014(%edi),%esi
    2863:	52                   	push   %edx
    2864:	01 f0                	add    %esi,%eax
    2866:	31 d2                	xor    %edx,%edx
    2868:	f7 b7 18 10 00 00    	divl   0x1018(%edi)
    286e:	8b 0f                	mov    (%edi),%ecx
    2870:	50                   	push   %eax
    2871:	52                   	push   %edx
    2872:	51                   	push   %ecx
    2873:	e8 08 18 00 00       	call   4080 <console_set_pos@plt>
    2878:	8b 87 24 10 00 00    	mov    0x1024(%edi),%eax
    287e:	83 c4 10             	add    $0x10,%esp
    2881:	3b 87 20 10 00 00    	cmp    0x1020(%edi),%eax
    2887:	73 07                	jae    2890 <tinput_read_i+0x9e0>
    2889:	40                   	inc    %eax
    288a:	89 87 24 10 00 00    	mov    %eax,0x1024(%edi)
    2890:	8b 97 14 10 00 00    	mov    0x1014(%edi),%edx
    2896:	89 87 28 10 00 00    	mov    %eax,0x1028(%edi)
    289c:	01 d0                	add    %edx,%eax
    289e:	51                   	push   %ecx
    289f:	31 d2                	xor    %edx,%edx
    28a1:	f7 b7 18 10 00 00    	divl   0x1018(%edi)
    28a7:	50                   	push   %eax
    28a8:	8b 07                	mov    (%edi),%eax
    28aa:	52                   	push   %edx
    28ab:	50                   	push   %eax
    28ac:	e8 cf 17 00 00       	call   4080 <console_set_pos@plt>
    28b1:	83 c4 10             	add    $0x10,%esp
    28b4:	e9 87 f8 ff ff       	jmp    2140 <tinput_read_i+0x290>
    28b9:	c6 87 60 10 00 00 01 	movb   $0x1,0x1060(%edi)
    28c0:	e9 7b f8 ff ff       	jmp    2140 <tinput_read_i+0x290>
    28c5:	8b 87 24 10 00 00    	mov    0x1024(%edi),%eax
    28cb:	3b 87 28 10 00 00    	cmp    0x1028(%edi),%eax
    28d1:	74 33                	je     2906 <tinput_read_i+0xa56>
    28d3:	89 87 28 10 00 00    	mov    %eax,0x1028(%edi)
    28d9:	31 d2                	xor    %edx,%edx
    28db:	89 f8                	mov    %edi,%eax
    28dd:	e8 ce f0 ff ff       	call   19b0 <tinput_display_tail.constprop.12>
    28e2:	8b 97 14 10 00 00    	mov    0x1014(%edi),%edx
    28e8:	8b 87 24 10 00 00    	mov    0x1024(%edi),%eax
    28ee:	51                   	push   %ecx
    28ef:	01 d0                	add    %edx,%eax
    28f1:	31 d2                	xor    %edx,%edx
    28f3:	f7 b7 18 10 00 00    	divl   0x1018(%edi)
    28f9:	8b 37                	mov    (%edi),%esi
    28fb:	50                   	push   %eax
    28fc:	52                   	push   %edx
    28fd:	56                   	push   %esi
    28fe:	e8 7d 17 00 00       	call   4080 <console_set_pos@plt>
    2903:	83 c4 10             	add    $0x10,%esp
    2906:	c7 87 24 10 00 00 00 	movl   $0x0,0x1024(%edi)
    290d:	00 00 00 
    2910:	c7 87 28 10 00 00 00 	movl   $0x0,0x1028(%edi)
    2917:	00 00 00 
    291a:	8b 87 14 10 00 00    	mov    0x1014(%edi),%eax
    2920:	56                   	push   %esi
    2921:	e9 79 ff ff ff       	jmp    289f <tinput_read_i+0x9ef>
    2926:	8b b7 24 10 00 00    	mov    0x1024(%edi),%esi
    292c:	8b 97 28 10 00 00    	mov    0x1028(%edi),%edx
    2932:	39 d6                	cmp    %edx,%esi
    2934:	0f 85 03 09 00 00    	jne    323d <tinput_read_i+0x138d>
    293a:	8b 8f 20 10 00 00    	mov    0x1020(%edi),%ecx
    2940:	39 ce                	cmp    %ecx,%esi
    2942:	0f 84 f8 f7 ff ff    	je     2140 <tinput_read_i+0x290>
    2948:	8d 46 01             	lea    0x1(%esi),%eax
    294b:	89 87 24 10 00 00    	mov    %eax,0x1024(%edi)
    2951:	89 87 28 10 00 00    	mov    %eax,0x1028(%edi)
    2957:	85 c0                	test   %eax,%eax
    2959:	0f 84 e1 f7 ff ff    	je     2140 <tinput_read_i+0x290>
    295f:	39 c1                	cmp    %eax,%ecx
    2961:	76 1d                	jbe    2980 <tinput_read_i+0xad0>
    2963:	8d 44 b7 0c          	lea    0xc(%edi,%esi,4),%eax
    2967:	8d 54 8f 08          	lea    0x8(%edi,%ecx,4),%edx
    296b:	89 4d 9c             	mov    %ecx,-0x64(%ebp)
    296e:	66 90                	xchg   %ax,%ax
    2970:	8b 48 04             	mov    0x4(%eax),%ecx
    2973:	83 c0 04             	add    $0x4,%eax
    2976:	89 48 fc             	mov    %ecx,-0x4(%eax)
    2979:	39 c2                	cmp    %eax,%edx
    297b:	75 f3                	jne    2970 <tinput_read_i+0xac0>
    297d:	8b 4d 9c             	mov    -0x64(%ebp),%ecx
    2980:	49                   	dec    %ecx
    2981:	83 ec 0c             	sub    $0xc,%esp
    2984:	89 b7 24 10 00 00    	mov    %esi,0x1024(%edi)
    298a:	89 8f 20 10 00 00    	mov    %ecx,0x1020(%edi)
    2990:	c7 44 8f 0c 00 00 00 	movl   $0x0,0xc(%edi,%ecx,4)
    2997:	00 
    2998:	89 b7 28 10 00 00    	mov    %esi,0x1028(%edi)
    299e:	68 04 10 00 00       	push   $0x1004
    29a3:	e8 68 15 00 00       	call   3f10 <malloc@plt>
    29a8:	83 c4 10             	add    $0x10,%esp
    29ab:	89 45 9c             	mov    %eax,-0x64(%ebp)
    29ae:	85 c0                	test   %eax,%eax
    29b0:	0f 84 85 03 00 00    	je     2d3b <tinput_read_i+0xe8b>
    29b6:	8b 87 28 10 00 00    	mov    0x1028(%edi),%eax
    29bc:	8b 8f 24 10 00 00    	mov    0x1024(%edi),%ecx
    29c2:	89 c2                	mov    %eax,%edx
    29c4:	89 45 98             	mov    %eax,-0x68(%ebp)
    29c7:	39 c8                	cmp    %ecx,%eax
    29c9:	73 07                	jae    29d2 <tinput_read_i+0xb22>
    29cb:	89 c8                	mov    %ecx,%eax
    29cd:	89 d1                	mov    %edx,%ecx
    29cf:	89 45 98             	mov    %eax,-0x68(%ebp)
    29d2:	8b 87 14 10 00 00    	mov    0x1014(%edi),%eax
    29d8:	89 4d 94             	mov    %ecx,-0x6c(%ebp)
    29db:	01 f0                	add    %esi,%eax
    29dd:	31 d2                	xor    %edx,%edx
    29df:	51                   	push   %ecx
    29e0:	f7 b7 18 10 00 00    	divl   0x1018(%edi)
    29e6:	50                   	push   %eax
    29e7:	8b 07                	mov    (%edi),%eax
    29e9:	52                   	push   %edx
    29ea:	50                   	push   %eax
    29eb:	e8 90 16 00 00       	call   4080 <console_set_pos@plt>
    29f0:	8b 0f                	mov    (%edi),%ecx
    29f2:	58                   	pop    %eax
    29f3:	5a                   	pop    %edx
    29f4:	6a 00                	push   $0x0
    29f6:	51                   	push   %ecx
    29f7:	e8 04 16 00 00       	call   4000 <console_set_style@plt>
    29fc:	8b 4d 94             	mov    -0x6c(%ebp),%ecx
    29ff:	83 c4 10             	add    $0x10,%esp
    2a02:	39 ce                	cmp    %ecx,%esi
    2a04:	0f 82 fb 0d 00 00    	jb     3805 <tinput_read_i+0x1955>
    2a0a:	3b 75 98             	cmp    -0x68(%ebp),%esi
    2a0d:	0f 82 9a 0d 00 00    	jb     37ad <tinput_read_i+0x18fd>
    2a13:	83 ec 0c             	sub    $0xc,%esp
    2a16:	8b 0f                	mov    (%edi),%ecx
    2a18:	51                   	push   %ecx
    2a19:	e8 12 16 00 00       	call   4030 <console_flush@plt>
    2a1e:	8b 0f                	mov    (%edi),%ecx
    2a20:	58                   	pop    %eax
    2a21:	5a                   	pop    %edx
    2a22:	6a 00                	push   $0x0
    2a24:	51                   	push   %ecx
    2a25:	e8 d6 15 00 00       	call   4000 <console_set_style@plt>
    2a2a:	8b 87 20 10 00 00    	mov    0x1020(%edi),%eax
    2a30:	83 c4 10             	add    $0x10,%esp
    2a33:	39 f0                	cmp    %esi,%eax
    2a35:	0f 87 34 0d 00 00    	ja     376f <tinput_read_i+0x18bf>
    2a3b:	83 ec 0c             	sub    $0xc,%esp
    2a3e:	6a 20                	push   $0x20
    2a40:	e8 db 13 00 00       	call   3e20 <putchar@plt>
    2a45:	8b 37                	mov    (%edi),%esi
    2a47:	59                   	pop    %ecx
    2a48:	56                   	push   %esi
    2a49:	e8 e2 15 00 00       	call   4030 <console_flush@plt>
    2a4e:	58                   	pop    %eax
    2a4f:	8b 45 9c             	mov    -0x64(%ebp),%eax
    2a52:	50                   	push   %eax
    2a53:	e8 d8 16 00 00       	call   4130 <free@plt>
    2a58:	83 c4 10             	add    $0x10,%esp
    2a5b:	e9 db 02 00 00       	jmp    2d3b <tinput_read_i+0xe8b>
    2a60:	8b 87 24 10 00 00    	mov    0x1024(%edi),%eax
    2a66:	3b 87 28 10 00 00    	cmp    0x1028(%edi),%eax
    2a6c:	74 33                	je     2aa1 <tinput_read_i+0xbf1>
    2a6e:	31 d2                	xor    %edx,%edx
    2a70:	89 87 28 10 00 00    	mov    %eax,0x1028(%edi)
    2a76:	89 f8                	mov    %edi,%eax
    2a78:	e8 33 ef ff ff       	call   19b0 <tinput_display_tail.constprop.12>
    2a7d:	8b 87 24 10 00 00    	mov    0x1024(%edi),%eax
    2a83:	8b b7 14 10 00 00    	mov    0x1014(%edi),%esi
    2a89:	52                   	push   %edx
    2a8a:	01 f0                	add    %esi,%eax
    2a8c:	31 d2                	xor    %edx,%edx
    2a8e:	f7 b7 18 10 00 00    	divl   0x1018(%edi)
    2a94:	8b 0f                	mov    (%edi),%ecx
    2a96:	50                   	push   %eax
    2a97:	52                   	push   %edx
    2a98:	51                   	push   %ecx
    2a99:	e8 e2 15 00 00       	call   4080 <console_set_pos@plt>
    2a9e:	83 c4 10             	add    $0x10,%esp
    2aa1:	8b 87 20 10 00 00    	mov    0x1020(%edi),%eax
    2aa7:	8b 97 14 10 00 00    	mov    0x1014(%edi),%edx
    2aad:	89 87 24 10 00 00    	mov    %eax,0x1024(%edi)
    2ab3:	89 87 28 10 00 00    	mov    %eax,0x1028(%edi)
    2ab9:	01 d0                	add    %edx,%eax
    2abb:	51                   	push   %ecx
    2abc:	e9 de fd ff ff       	jmp    289f <tinput_read_i+0x9ef>
    2ac1:	8b 87 5c 10 00 00    	mov    0x105c(%edi),%eax
    2ac7:	40                   	inc    %eax
    2ac8:	3b 87 58 10 00 00    	cmp    0x1058(%edi),%eax
    2ace:	0f 87 6c f6 ff ff    	ja     2140 <tinput_read_i+0x290>
    2ad4:	ba 01 00 00 00       	mov    $0x1,%edx
    2ad9:	89 f8                	mov    %edi,%eax
    2adb:	e8 a0 ed ff ff       	call   1880 <tinput_history_seek.part.6>
    2ae0:	e9 5b f6 ff ff       	jmp    2140 <tinput_read_i+0x290>
    2ae5:	8b 97 24 10 00 00    	mov    0x1024(%edi),%edx
    2aeb:	8b 87 28 10 00 00    	mov    0x1028(%edi),%eax
    2af1:	39 c2                	cmp    %eax,%edx
    2af3:	74 39                	je     2b2e <tinput_read_i+0xc7e>
    2af5:	89 97 28 10 00 00    	mov    %edx,0x1028(%edi)
    2afb:	89 f8                	mov    %edi,%eax
    2afd:	31 d2                	xor    %edx,%edx
    2aff:	e8 ac ee ff ff       	call   19b0 <tinput_display_tail.constprop.12>
    2b04:	8b 87 24 10 00 00    	mov    0x1024(%edi),%eax
    2b0a:	8b b7 14 10 00 00    	mov    0x1014(%edi),%esi
    2b10:	52                   	push   %edx
    2b11:	01 f0                	add    %esi,%eax
    2b13:	31 d2                	xor    %edx,%edx
    2b15:	f7 b7 18 10 00 00    	divl   0x1018(%edi)
    2b1b:	8b 0f                	mov    (%edi),%ecx
    2b1d:	50                   	push   %eax
    2b1e:	52                   	push   %edx
    2b1f:	51                   	push   %ecx
    2b20:	e8 5b 15 00 00       	call   4080 <console_set_pos@plt>
    2b25:	8b 87 24 10 00 00    	mov    0x1024(%edi),%eax
    2b2b:	83 c4 10             	add    $0x10,%esp
    2b2e:	85 c0                	test   %eax,%eax
    2b30:	0f 84 5a fd ff ff    	je     2890 <tinput_read_i+0x9e0>
    2b36:	48                   	dec    %eax
    2b37:	89 87 24 10 00 00    	mov    %eax,0x1024(%edi)
    2b3d:	e9 4e fd ff ff       	jmp    2890 <tinput_read_i+0x9e0>
    2b42:	8b 87 5c 10 00 00    	mov    0x105c(%edi),%eax
    2b48:	85 c0                	test   %eax,%eax
    2b4a:	0f 84 f0 f5 ff ff    	je     2140 <tinput_read_i+0x290>
    2b50:	83 ca ff             	or     $0xffffffff,%edx
    2b53:	89 f8                	mov    %edi,%eax
    2b55:	e8 26 ed ff ff       	call   1880 <tinput_history_seek.part.6>
    2b5a:	e9 e1 f5 ff ff       	jmp    2140 <tinput_read_i+0x290>
    2b5f:	8b 97 24 10 00 00    	mov    0x1024(%edi),%edx
    2b65:	8b b7 28 10 00 00    	mov    0x1028(%edi),%esi
    2b6b:	39 f2                	cmp    %esi,%edx
    2b6d:	0f 85 52 07 00 00    	jne    32c5 <tinput_read_i+0x1415>
    2b73:	85 d2                	test   %edx,%edx
    2b75:	0f 84 15 09 00 00    	je     3490 <tinput_read_i+0x15e0>
    2b7b:	8b 87 20 10 00 00    	mov    0x1020(%edi),%eax
    2b81:	39 c2                	cmp    %eax,%edx
    2b83:	73 10                	jae    2b95 <tinput_read_i+0xce5>
    2b85:	8d 76 00             	lea    0x0(%esi),%esi
    2b88:	8b 4c b7 0c          	mov    0xc(%edi,%esi,4),%ecx
    2b8c:	89 4c b7 08          	mov    %ecx,0x8(%edi,%esi,4)
    2b90:	46                   	inc    %esi
    2b91:	39 c6                	cmp    %eax,%esi
    2b93:	72 f3                	jb     2b88 <tinput_read_i+0xcd8>
    2b95:	48                   	dec    %eax
    2b96:	8d 4a ff             	lea    -0x1(%edx),%ecx
    2b99:	83 ec 0c             	sub    $0xc,%esp
    2b9c:	89 8f 24 10 00 00    	mov    %ecx,0x1024(%edi)
    2ba2:	89 87 20 10 00 00    	mov    %eax,0x1020(%edi)
    2ba8:	c7 44 87 0c 00 00 00 	movl   $0x0,0xc(%edi,%eax,4)
    2baf:	00 
    2bb0:	89 8f 28 10 00 00    	mov    %ecx,0x1028(%edi)
    2bb6:	89 4d 9c             	mov    %ecx,-0x64(%ebp)
    2bb9:	68 04 10 00 00       	push   $0x1004
    2bbe:	e8 4d 13 00 00       	call   3f10 <malloc@plt>
    2bc3:	83 c4 10             	add    $0x10,%esp
    2bc6:	89 c6                	mov    %eax,%esi
    2bc8:	85 c0                	test   %eax,%eax
    2bca:	8b 4d 9c             	mov    -0x64(%ebp),%ecx
    2bcd:	0f 84 68 01 00 00    	je     2d3b <tinput_read_i+0xe8b>
    2bd3:	8b 87 28 10 00 00    	mov    0x1028(%edi),%eax
    2bd9:	8b 97 24 10 00 00    	mov    0x1024(%edi),%edx
    2bdf:	89 55 98             	mov    %edx,-0x68(%ebp)
    2be2:	89 45 9c             	mov    %eax,-0x64(%ebp)
    2be5:	39 d0                	cmp    %edx,%eax
    2be7:	73 0b                	jae    2bf4 <tinput_read_i+0xd44>
    2be9:	89 d0                	mov    %edx,%eax
    2beb:	8b 55 9c             	mov    -0x64(%ebp),%edx
    2bee:	89 55 98             	mov    %edx,-0x68(%ebp)
    2bf1:	89 45 9c             	mov    %eax,-0x64(%ebp)
    2bf4:	89 c8                	mov    %ecx,%eax
    2bf6:	89 4d 94             	mov    %ecx,-0x6c(%ebp)
    2bf9:	8b 8f 14 10 00 00    	mov    0x1014(%edi),%ecx
    2bff:	52                   	push   %edx
    2c00:	01 c8                	add    %ecx,%eax
    2c02:	31 d2                	xor    %edx,%edx
    2c04:	f7 b7 18 10 00 00    	divl   0x1018(%edi)
    2c0a:	8b 0f                	mov    (%edi),%ecx
    2c0c:	50                   	push   %eax
    2c0d:	52                   	push   %edx
    2c0e:	51                   	push   %ecx
    2c0f:	e8 6c 14 00 00       	call   4080 <console_set_pos@plt>
    2c14:	8b 0f                	mov    (%edi),%ecx
    2c16:	58                   	pop    %eax
    2c17:	5a                   	pop    %edx
    2c18:	6a 00                	push   $0x0
    2c1a:	51                   	push   %ecx
    2c1b:	e8 e0 13 00 00       	call   4000 <console_set_style@plt>
    2c20:	8b 4d 94             	mov    -0x6c(%ebp),%ecx
    2c23:	83 c4 10             	add    $0x10,%esp
    2c26:	3b 4d 98             	cmp    -0x68(%ebp),%ecx
    2c29:	73 37                	jae    2c62 <tinput_read_i+0xdb2>
    2c2b:	8b 55 98             	mov    -0x68(%ebp),%edx
    2c2e:	50                   	push   %eax
    2c2f:	8b 45 a0             	mov    -0x60(%ebp),%eax
    2c32:	29 ca                	sub    %ecx,%edx
    2c34:	c1 e2 02             	shl    $0x2,%edx
    2c37:	8d 04 88             	lea    (%eax,%ecx,4),%eax
    2c3a:	52                   	push   %edx
    2c3b:	89 55 94             	mov    %edx,-0x6c(%ebp)
    2c3e:	50                   	push   %eax
    2c3f:	56                   	push   %esi
    2c40:	e8 bb 12 00 00       	call   3f00 <memcpy@plt>
    2c45:	8b 55 94             	mov    -0x6c(%ebp),%edx
    2c48:	c7 04 16 00 00 00 00 	movl   $0x0,(%esi,%edx,1)
    2c4f:	58                   	pop    %eax
    2c50:	5a                   	pop    %edx
    2c51:	56                   	push   %esi
    2c52:	68 90 39 00 00       	push   $0x3990
    2c57:	e8 24 12 00 00       	call   3e80 <printf@plt>
    2c5c:	83 c4 10             	add    $0x10,%esp
    2c5f:	8b 4d 98             	mov    -0x68(%ebp),%ecx
    2c62:	3b 4d 9c             	cmp    -0x64(%ebp),%ecx
    2c65:	73 56                	jae    2cbd <tinput_read_i+0xe0d>
    2c67:	83 ec 0c             	sub    $0xc,%esp
    2c6a:	8b 07                	mov    (%edi),%eax
    2c6c:	89 4d 98             	mov    %ecx,-0x68(%ebp)
    2c6f:	50                   	push   %eax
    2c70:	e8 bb 13 00 00       	call   4030 <console_flush@plt>
    2c75:	8b 0f                	mov    (%edi),%ecx
    2c77:	58                   	pop    %eax
    2c78:	5a                   	pop    %edx
    2c79:	6a 03                	push   $0x3
    2c7b:	51                   	push   %ecx
    2c7c:	e8 7f 13 00 00       	call   4000 <console_set_style@plt>
    2c81:	8b 4d 98             	mov    -0x68(%ebp),%ecx
    2c84:	8b 55 9c             	mov    -0x64(%ebp),%edx
    2c87:	8b 45 a0             	mov    -0x60(%ebp),%eax
    2c8a:	83 c4 0c             	add    $0xc,%esp
    2c8d:	29 ca                	sub    %ecx,%edx
    2c8f:	c1 e2 02             	shl    $0x2,%edx
    2c92:	8d 04 88             	lea    (%eax,%ecx,4),%eax
    2c95:	52                   	push   %edx
    2c96:	89 55 98             	mov    %edx,-0x68(%ebp)
    2c99:	50                   	push   %eax
    2c9a:	56                   	push   %esi
    2c9b:	e8 60 12 00 00       	call   3f00 <memcpy@plt>
    2ca0:	8b 55 98             	mov    -0x68(%ebp),%edx
    2ca3:	c7 04 16 00 00 00 00 	movl   $0x0,(%esi,%edx,1)
    2caa:	58                   	pop    %eax
    2cab:	5a                   	pop    %edx
    2cac:	56                   	push   %esi
    2cad:	68 90 39 00 00       	push   $0x3990
    2cb2:	e8 c9 11 00 00       	call   3e80 <printf@plt>
    2cb7:	83 c4 10             	add    $0x10,%esp
    2cba:	8b 4d 9c             	mov    -0x64(%ebp),%ecx
    2cbd:	83 ec 0c             	sub    $0xc,%esp
    2cc0:	8b 07                	mov    (%edi),%eax
    2cc2:	89 4d 9c             	mov    %ecx,-0x64(%ebp)
    2cc5:	50                   	push   %eax
    2cc6:	e8 65 13 00 00       	call   4030 <console_flush@plt>
    2ccb:	8b 0f                	mov    (%edi),%ecx
    2ccd:	58                   	pop    %eax
    2cce:	5a                   	pop    %edx
    2ccf:	6a 00                	push   $0x0
    2cd1:	51                   	push   %ecx
    2cd2:	e8 29 13 00 00       	call   4000 <console_set_style@plt>
    2cd7:	8b 87 20 10 00 00    	mov    0x1020(%edi),%eax
    2cdd:	8b 4d 9c             	mov    -0x64(%ebp),%ecx
    2ce0:	83 c4 10             	add    $0x10,%esp
    2ce3:	39 c8                	cmp    %ecx,%eax
    2ce5:	76 36                	jbe    2d1d <tinput_read_i+0xe6d>
    2ce7:	29 c8                	sub    %ecx,%eax
    2ce9:	52                   	push   %edx
    2cea:	c1 e0 02             	shl    $0x2,%eax
    2ced:	50                   	push   %eax
    2cee:	8b 45 a0             	mov    -0x60(%ebp),%eax
    2cf1:	8d 04 88             	lea    (%eax,%ecx,4),%eax
    2cf4:	50                   	push   %eax
    2cf5:	56                   	push   %esi
    2cf6:	e8 05 12 00 00       	call   3f00 <memcpy@plt>
    2cfb:	8b 87 20 10 00 00    	mov    0x1020(%edi),%eax
    2d01:	8b 4d 9c             	mov    -0x64(%ebp),%ecx
    2d04:	29 c8                	sub    %ecx,%eax
    2d06:	c7 04 86 00 00 00 00 	movl   $0x0,(%esi,%eax,4)
    2d0d:	59                   	pop    %ecx
    2d0e:	58                   	pop    %eax
    2d0f:	56                   	push   %esi
    2d10:	68 90 39 00 00       	push   $0x3990
    2d15:	e8 66 11 00 00       	call   3e80 <printf@plt>
    2d1a:	83 c4 10             	add    $0x10,%esp
    2d1d:	83 ec 0c             	sub    $0xc,%esp
    2d20:	6a 20                	push   $0x20
    2d22:	e8 f9 10 00 00       	call   3e20 <putchar@plt>
    2d27:	58                   	pop    %eax
    2d28:	8b 07                	mov    (%edi),%eax
    2d2a:	50                   	push   %eax
    2d2b:	e8 00 13 00 00       	call   4030 <console_flush@plt>
    2d30:	89 34 24             	mov    %esi,(%esp)
    2d33:	e8 f8 13 00 00       	call   4130 <free@plt>
    2d38:	83 c4 10             	add    $0x10,%esp
    2d3b:	8b 87 24 10 00 00    	mov    0x1024(%edi),%eax
    2d41:	8b b7 14 10 00 00    	mov    0x1014(%edi),%esi
    2d47:	01 f0                	add    %esi,%eax
    2d49:	52                   	push   %edx
    2d4a:	e9 50 fb ff ff       	jmp    289f <tinput_read_i+0x9ef>
    2d4f:	83 fa 54             	cmp    $0x54,%edx
    2d52:	0f 85 e0 f3 ff ff    	jne    2138 <tinput_read_i+0x288>
    2d58:	8b 87 24 10 00 00    	mov    0x1024(%edi),%eax
    2d5e:	8b 97 18 10 00 00    	mov    0x1018(%edi),%edx
    2d64:	39 c2                	cmp    %eax,%edx
    2d66:	0f 87 48 f6 ff ff    	ja     23b4 <tinput_read_i+0x504>
    2d6c:	29 d0                	sub    %edx,%eax
    2d6e:	89 87 24 10 00 00    	mov    %eax,0x1024(%edi)
    2d74:	e9 3b f6 ff ff       	jmp    23b4 <tinput_read_i+0x504>
    2d79:	8b 87 20 10 00 00    	mov    0x1020(%edi),%eax
    2d7f:	89 87 24 10 00 00    	mov    %eax,0x1024(%edi)
    2d85:	e9 8d f5 ff ff       	jmp    2317 <tinput_read_i+0x467>
    2d8a:	c7 87 24 10 00 00 00 	movl   $0x0,0x1024(%edi)
    2d91:	00 00 00 
    2d94:	e9 7e f5 ff ff       	jmp    2317 <tinput_read_i+0x467>
    2d99:	8b 87 24 10 00 00    	mov    0x1024(%edi),%eax
    2d9f:	8b 97 18 10 00 00    	mov    0x1018(%edi),%edx
    2da5:	01 d0                	add    %edx,%eax
    2da7:	3b 87 20 10 00 00    	cmp    0x1020(%edi),%eax
    2dad:	0f 87 64 f5 ff ff    	ja     2317 <tinput_read_i+0x467>
    2db3:	eb ca                	jmp    2d7f <tinput_read_i+0xecf>
    2db5:	8b 87 24 10 00 00    	mov    0x1024(%edi),%eax
    2dbb:	85 c0                	test   %eax,%eax
    2dbd:	0f 84 54 f5 ff ff    	je     2317 <tinput_read_i+0x467>
    2dc3:	48                   	dec    %eax
    2dc4:	89 87 24 10 00 00    	mov    %eax,0x1024(%edi)
    2dca:	e9 48 f5 ff ff       	jmp    2317 <tinput_read_i+0x467>
    2dcf:	8b 87 24 10 00 00    	mov    0x1024(%edi),%eax
    2dd5:	39 87 20 10 00 00    	cmp    %eax,0x1020(%edi)
    2ddb:	0f 86 36 f5 ff ff    	jbe    2317 <tinput_read_i+0x467>
    2de1:	40                   	inc    %eax
    2de2:	89 87 24 10 00 00    	mov    %eax,0x1024(%edi)
    2de8:	e9 2a f5 ff ff       	jmp    2317 <tinput_read_i+0x467>
    2ded:	c6 87 60 10 00 00 01 	movb   $0x1,0x1060(%edi)
    2df4:	c6 87 61 10 00 00 01 	movb   $0x1,0x1061(%edi)
    2dfb:	e9 24 f3 ff ff       	jmp    2124 <tinput_read_i+0x274>
    2e00:	8b b7 28 10 00 00    	mov    0x1028(%edi),%esi
    2e06:	8b 97 24 10 00 00    	mov    0x1024(%edi),%edx
    2e0c:	39 d6                	cmp    %edx,%esi
    2e0e:	0f 82 0f 05 00 00    	jb     3323 <tinput_read_i+0x1473>
    2e14:	0f 85 03 05 00 00    	jne    331d <tinput_read_i+0x146d>
    2e1a:	83 ec 0c             	sub    $0xc,%esp
    2e1d:	8d 45 c0             	lea    -0x40(%ebp),%eax
    2e20:	50                   	push   %eax
    2e21:	e8 8a 11 00 00       	call   3fb0 <clipboard_get_str@plt>
    2e26:	83 c4 10             	add    $0x10,%esp
    2e29:	85 c0                	test   %eax,%eax
    2e2b:	0f 85 93 00 00 00    	jne    2ec4 <tinput_read_i+0x1014>
    2e31:	8b 55 c0             	mov    -0x40(%ebp),%edx
    2e34:	85 d2                	test   %edx,%edx
    2e36:	0f 84 88 00 00 00    	je     2ec4 <tinput_read_i+0x1014>
    2e3c:	89 f8                	mov    %edi,%eax
    2e3e:	e8 0d ed ff ff       	call   1b50 <tinput_insert_string>
    2e43:	83 ec 0c             	sub    $0xc,%esp
    2e46:	8b 4d c0             	mov    -0x40(%ebp),%ecx
    2e49:	51                   	push   %ecx
    2e4a:	e8 e1 12 00 00       	call   4130 <free@plt>
    2e4f:	8b 45 e0             	mov    -0x20(%ebp),%eax
    2e52:	83 c4 10             	add    $0x10,%esp
    2e55:	e9 ca f2 ff ff       	jmp    2124 <tinput_read_i+0x274>
    2e5a:	8b 97 28 10 00 00    	mov    0x1028(%edi),%edx
    2e60:	8b 87 24 10 00 00    	mov    0x1024(%edi),%eax
    2e66:	39 c2                	cmp    %eax,%edx
    2e68:	73 06                	jae    2e70 <tinput_read_i+0xfc0>
    2e6a:	89 c1                	mov    %eax,%ecx
    2e6c:	89 d0                	mov    %edx,%eax
    2e6e:	89 ca                	mov    %ecx,%edx
    2e70:	39 97 20 10 00 00    	cmp    %edx,0x1020(%edi)
    2e76:	0f 86 35 05 00 00    	jbe    33b1 <tinput_read_i+0x1501>
    2e7c:	8d 34 97             	lea    (%edi,%edx,4),%esi
    2e7f:	83 ec 0c             	sub    $0xc,%esp
    2e82:	8b 4e 0c             	mov    0xc(%esi),%ecx
    2e85:	c7 46 0c 00 00 00 00 	movl   $0x0,0xc(%esi)
    2e8c:	89 4d 9c             	mov    %ecx,-0x64(%ebp)
    2e8f:	8b 4d a0             	mov    -0x60(%ebp),%ecx
    2e92:	8d 04 81             	lea    (%ecx,%eax,4),%eax
    2e95:	50                   	push   %eax
    2e96:	e8 85 11 00 00       	call   4020 <wstr_to_astr@plt>
    2e9b:	8b 4d 9c             	mov    -0x64(%ebp),%ecx
    2e9e:	89 c2                	mov    %eax,%edx
    2ea0:	89 4e 0c             	mov    %ecx,0xc(%esi)
    2ea3:	83 c4 10             	add    $0x10,%esp
    2ea6:	85 d2                	test   %edx,%edx
    2ea8:	74 1a                	je     2ec4 <tinput_read_i+0x1014>
    2eaa:	83 ec 0c             	sub    $0xc,%esp
    2ead:	89 55 9c             	mov    %edx,-0x64(%ebp)
    2eb0:	52                   	push   %edx
    2eb1:	e8 aa 10 00 00       	call   3f60 <clipboard_put_str@plt>
    2eb6:	83 c4 10             	add    $0x10,%esp
    2eb9:	8b 55 9c             	mov    -0x64(%ebp),%edx
    2ebc:	85 c0                	test   %eax,%eax
    2ebe:	0f 84 9a 05 00 00    	je     345e <tinput_read_i+0x15ae>
    2ec4:	8b 45 e0             	mov    -0x20(%ebp),%eax
    2ec7:	e9 58 f2 ff ff       	jmp    2124 <tinput_read_i+0x274>
    2ecc:	8b 97 28 10 00 00    	mov    0x1028(%edi),%edx
    2ed2:	8b 87 24 10 00 00    	mov    0x1024(%edi),%eax
    2ed8:	39 c2                	cmp    %eax,%edx
    2eda:	73 06                	jae    2ee2 <tinput_read_i+0x1032>
    2edc:	89 c1                	mov    %eax,%ecx
    2ede:	89 d0                	mov    %edx,%eax
    2ee0:	89 ca                	mov    %ecx,%edx
    2ee2:	39 97 20 10 00 00    	cmp    %edx,0x1020(%edi)
    2ee8:	0f 86 57 05 00 00    	jbe    3445 <tinput_read_i+0x1595>
    2eee:	8d 34 97             	lea    (%edi,%edx,4),%esi
    2ef1:	83 ec 0c             	sub    $0xc,%esp
    2ef4:	8b 4e 0c             	mov    0xc(%esi),%ecx
    2ef7:	c7 46 0c 00 00 00 00 	movl   $0x0,0xc(%esi)
    2efe:	89 4d 9c             	mov    %ecx,-0x64(%ebp)
    2f01:	8b 4d a0             	mov    -0x60(%ebp),%ecx
    2f04:	8d 04 81             	lea    (%ecx,%eax,4),%eax
    2f07:	50                   	push   %eax
    2f08:	e8 13 11 00 00       	call   4020 <wstr_to_astr@plt>
    2f0d:	8b 4d 9c             	mov    -0x64(%ebp),%ecx
    2f10:	89 c2                	mov    %eax,%edx
    2f12:	89 4e 0c             	mov    %ecx,0xc(%esi)
    2f15:	83 c4 10             	add    $0x10,%esp
    2f18:	85 d2                	test   %edx,%edx
    2f1a:	74 22                	je     2f3e <tinput_read_i+0x108e>
    2f1c:	83 ec 0c             	sub    $0xc,%esp
    2f1f:	89 55 9c             	mov    %edx,-0x64(%ebp)
    2f22:	52                   	push   %edx
    2f23:	e8 38 10 00 00       	call   3f60 <clipboard_put_str@plt>
    2f28:	83 c4 10             	add    $0x10,%esp
    2f2b:	8b 55 9c             	mov    -0x64(%ebp),%edx
    2f2e:	85 c0                	test   %eax,%eax
    2f30:	75 0c                	jne    2f3e <tinput_read_i+0x108e>
    2f32:	83 ec 0c             	sub    $0xc,%esp
    2f35:	52                   	push   %edx
    2f36:	e8 f5 11 00 00       	call   4130 <free@plt>
    2f3b:	83 c4 10             	add    $0x10,%esp
    2f3e:	8b b7 28 10 00 00    	mov    0x1028(%edi),%esi
    2f44:	8b 97 24 10 00 00    	mov    0x1024(%edi),%edx
    2f4a:	39 d6                	cmp    %edx,%esi
    2f4c:	72 0c                	jb     2f5a <tinput_read_i+0x10aa>
    2f4e:	0f 84 70 ff ff ff    	je     2ec4 <tinput_read_i+0x1014>
    2f54:	89 f0                	mov    %esi,%eax
    2f56:	89 d6                	mov    %edx,%esi
    2f58:	89 c2                	mov    %eax,%edx
    2f5a:	50                   	push   %eax
    2f5b:	8b 4d a0             	mov    -0x60(%ebp),%ecx
    2f5e:	8b 87 20 10 00 00    	mov    0x1020(%edi),%eax
    2f64:	89 55 9c             	mov    %edx,-0x64(%ebp)
    2f67:	29 d0                	sub    %edx,%eax
    2f69:	c1 e0 02             	shl    $0x2,%eax
    2f6c:	50                   	push   %eax
    2f6d:	8d 04 91             	lea    (%ecx,%edx,4),%eax
    2f70:	50                   	push   %eax
    2f71:	8d 04 b1             	lea    (%ecx,%esi,4),%eax
    2f74:	50                   	push   %eax
    2f75:	e8 16 0f 00 00       	call   3e90 <memmove@plt>
    2f7a:	8b 87 20 10 00 00    	mov    0x1020(%edi),%eax
    2f80:	8b 55 9c             	mov    -0x64(%ebp),%edx
    2f83:	01 f0                	add    %esi,%eax
    2f85:	89 d1                	mov    %edx,%ecx
    2f87:	29 d0                	sub    %edx,%eax
    2f89:	89 b7 28 10 00 00    	mov    %esi,0x1028(%edi)
    2f8f:	89 87 20 10 00 00    	mov    %eax,0x1020(%edi)
    2f95:	89 b7 24 10 00 00    	mov    %esi,0x1024(%edi)
    2f9b:	89 f2                	mov    %esi,%edx
    2f9d:	c7 44 87 0c 00 00 00 	movl   $0x0,0xc(%edi,%eax,4)
    2fa4:	00 
    2fa5:	29 f1                	sub    %esi,%ecx
    2fa7:	89 f8                	mov    %edi,%eax
    2fa9:	e8 f2 e6 ff ff       	call   16a0 <tinput_display_tail>
    2fae:	8b 87 24 10 00 00    	mov    0x1024(%edi),%eax
    2fb4:	8b 97 14 10 00 00    	mov    0x1014(%edi),%edx
    2fba:	83 c4 0c             	add    $0xc,%esp
    2fbd:	01 d0                	add    %edx,%eax
    2fbf:	31 d2                	xor    %edx,%edx
    2fc1:	f7 b7 18 10 00 00    	divl   0x1018(%edi)
    2fc7:	8b 0f                	mov    (%edi),%ecx
    2fc9:	50                   	push   %eax
    2fca:	52                   	push   %edx
    2fcb:	51                   	push   %ecx
    2fcc:	e8 af 10 00 00       	call   4080 <console_set_pos@plt>
    2fd1:	8b 45 e0             	mov    -0x20(%ebp),%eax
    2fd4:	83 c4 10             	add    $0x10,%esp
    2fd7:	e9 48 f1 ff ff       	jmp    2124 <tinput_read_i+0x274>
    2fdc:	8b 87 20 10 00 00    	mov    0x1020(%edi),%eax
    2fe2:	c7 87 28 10 00 00 00 	movl   $0x0,0x1028(%edi)
    2fe9:	00 00 00 
    2fec:	89 87 24 10 00 00    	mov    %eax,0x1024(%edi)
    2ff2:	31 d2                	xor    %edx,%edx
    2ff4:	89 f8                	mov    %edi,%eax
    2ff6:	e8 b5 e9 ff ff       	call   19b0 <tinput_display_tail.constprop.12>
    2ffb:	8b 87 24 10 00 00    	mov    0x1024(%edi),%eax
    3001:	8b b7 14 10 00 00    	mov    0x1014(%edi),%esi
    3007:	52                   	push   %edx
    3008:	01 f0                	add    %esi,%eax
    300a:	eb b3                	jmp    2fbf <tinput_read_i+0x110f>
    300c:	8b 97 24 10 00 00    	mov    0x1024(%edi),%edx
    3012:	8b 87 28 10 00 00    	mov    0x1028(%edi),%eax
    3018:	39 c2                	cmp    %eax,%edx
    301a:	74 39                	je     3055 <tinput_read_i+0x11a5>
    301c:	89 97 28 10 00 00    	mov    %edx,0x1028(%edi)
    3022:	89 f8                	mov    %edi,%eax
    3024:	31 d2                	xor    %edx,%edx
    3026:	e8 85 e9 ff ff       	call   19b0 <tinput_display_tail.constprop.12>
    302b:	8b 97 14 10 00 00    	mov    0x1014(%edi),%edx
    3031:	8b 87 24 10 00 00    	mov    0x1024(%edi),%eax
    3037:	51                   	push   %ecx
    3038:	01 d0                	add    %edx,%eax
    303a:	31 d2                	xor    %edx,%edx
    303c:	f7 b7 18 10 00 00    	divl   0x1018(%edi)
    3042:	8b 37                	mov    (%edi),%esi
    3044:	50                   	push   %eax
    3045:	52                   	push   %edx
    3046:	56                   	push   %esi
    3047:	e8 34 10 00 00       	call   4080 <console_set_pos@plt>
    304c:	8b 87 24 10 00 00    	mov    0x1024(%edi),%eax
    3052:	83 c4 10             	add    $0x10,%esp
    3055:	8b 97 20 10 00 00    	mov    0x1020(%edi),%edx
    305b:	39 c2                	cmp    %eax,%edx
    305d:	0f 84 61 fe ff ff    	je     2ec4 <tinput_read_i+0x1014>
    3063:	40                   	inc    %eax
    3064:	39 c2                	cmp    %eax,%edx
    3066:	0f 84 4e 02 00 00    	je     32ba <tinput_read_i+0x140a>
    306c:	83 7c 87 08 20       	cmpl   $0x20,0x8(%edi,%eax,4)
    3071:	75 f0                	jne    3063 <tinput_read_i+0x11b3>
    3073:	83 7c 87 0c 20       	cmpl   $0x20,0xc(%edi,%eax,4)
    3078:	74 e9                	je     3063 <tinput_read_i+0x11b3>
    307a:	89 87 24 10 00 00    	mov    %eax,0x1024(%edi)
    3080:	89 c2                	mov    %eax,%edx
    3082:	89 97 28 10 00 00    	mov    %edx,0x1028(%edi)
    3088:	89 d0                	mov    %edx,%eax
    308a:	e9 72 ff ff ff       	jmp    3001 <tinput_read_i+0x1151>
    308f:	8b 97 24 10 00 00    	mov    0x1024(%edi),%edx
    3095:	8b 87 28 10 00 00    	mov    0x1028(%edi),%eax
    309b:	39 c2                	cmp    %eax,%edx
    309d:	74 39                	je     30d8 <tinput_read_i+0x1228>
    309f:	89 97 28 10 00 00    	mov    %edx,0x1028(%edi)
    30a5:	89 f8                	mov    %edi,%eax
    30a7:	31 d2                	xor    %edx,%edx
    30a9:	e8 02 e9 ff ff       	call   19b0 <tinput_display_tail.constprop.12>
    30ae:	8b 87 24 10 00 00    	mov    0x1024(%edi),%eax
    30b4:	8b 8f 14 10 00 00    	mov    0x1014(%edi),%ecx
    30ba:	31 d2                	xor    %edx,%edx
    30bc:	56                   	push   %esi
    30bd:	01 c8                	add    %ecx,%eax
    30bf:	f7 b7 18 10 00 00    	divl   0x1018(%edi)
    30c5:	50                   	push   %eax
    30c6:	8b 07                	mov    (%edi),%eax
    30c8:	52                   	push   %edx
    30c9:	50                   	push   %eax
    30ca:	e8 b1 0f 00 00       	call   4080 <console_set_pos@plt>
    30cf:	8b 87 24 10 00 00    	mov    0x1024(%edi),%eax
    30d5:	83 c4 10             	add    $0x10,%esp
    30d8:	8b 8f 18 10 00 00    	mov    0x1018(%edi),%ecx
    30de:	8d 14 01             	lea    (%ecx,%eax,1),%edx
    30e1:	3b 97 20 10 00 00    	cmp    0x1020(%edi),%edx
    30e7:	77 08                	ja     30f1 <tinput_read_i+0x1241>
    30e9:	89 97 24 10 00 00    	mov    %edx,0x1024(%edi)
    30ef:	89 d0                	mov    %edx,%eax
    30f1:	8b b7 14 10 00 00    	mov    0x1014(%edi),%esi
    30f7:	89 87 28 10 00 00    	mov    %eax,0x1028(%edi)
    30fd:	01 f0                	add    %esi,%eax
    30ff:	52                   	push   %edx
    3100:	31 d2                	xor    %edx,%edx
    3102:	f7 f1                	div    %ecx
    3104:	e9 be fe ff ff       	jmp    2fc7 <tinput_read_i+0x1117>
    3109:	8b 97 24 10 00 00    	mov    0x1024(%edi),%edx
    310f:	8b 87 28 10 00 00    	mov    0x1028(%edi),%eax
    3115:	39 c2                	cmp    %eax,%edx
    3117:	74 39                	je     3152 <tinput_read_i+0x12a2>
    3119:	89 97 28 10 00 00    	mov    %edx,0x1028(%edi)
    311f:	89 f8                	mov    %edi,%eax
    3121:	31 d2                	xor    %edx,%edx
    3123:	e8 88 e8 ff ff       	call   19b0 <tinput_display_tail.constprop.12>
    3128:	8b 97 14 10 00 00    	mov    0x1014(%edi),%edx
    312e:	8b 87 24 10 00 00    	mov    0x1024(%edi),%eax
    3134:	51                   	push   %ecx
    3135:	01 d0                	add    %edx,%eax
    3137:	31 d2                	xor    %edx,%edx
    3139:	f7 b7 18 10 00 00    	divl   0x1018(%edi)
    313f:	8b 37                	mov    (%edi),%esi
    3141:	50                   	push   %eax
    3142:	52                   	push   %edx
    3143:	56                   	push   %esi
    3144:	e8 37 0f 00 00       	call   4080 <console_set_pos@plt>
    3149:	8b 87 24 10 00 00    	mov    0x1024(%edi),%eax
    314f:	83 c4 10             	add    $0x10,%esp
    3152:	85 c0                	test   %eax,%eax
    3154:	0f 84 6a fd ff ff    	je     2ec4 <tinput_read_i+0x1014>
    315a:	48                   	dec    %eax
    315b:	0f 84 41 02 00 00    	je     33a2 <tinput_read_i+0x14f2>
    3161:	83 7c 87 08 20       	cmpl   $0x20,0x8(%edi,%eax,4)
    3166:	75 f2                	jne    315a <tinput_read_i+0x12aa>
    3168:	83 7c 87 0c 20       	cmpl   $0x20,0xc(%edi,%eax,4)
    316d:	74 eb                	je     315a <tinput_read_i+0x12aa>
    316f:	89 87 24 10 00 00    	mov    %eax,0x1024(%edi)
    3175:	89 87 28 10 00 00    	mov    %eax,0x1028(%edi)
    317b:	e9 81 fe ff ff       	jmp    3001 <tinput_read_i+0x1151>
    3180:	8b 97 24 10 00 00    	mov    0x1024(%edi),%edx
    3186:	8b 87 28 10 00 00    	mov    0x1028(%edi),%eax
    318c:	39 c2                	cmp    %eax,%edx
    318e:	74 39                	je     31c9 <tinput_read_i+0x1319>
    3190:	89 97 28 10 00 00    	mov    %edx,0x1028(%edi)
    3196:	89 f8                	mov    %edi,%eax
    3198:	31 d2                	xor    %edx,%edx
    319a:	e8 11 e8 ff ff       	call   19b0 <tinput_display_tail.constprop.12>
    319f:	8b 97 14 10 00 00    	mov    0x1014(%edi),%edx
    31a5:	8b 87 24 10 00 00    	mov    0x1024(%edi),%eax
    31ab:	51                   	push   %ecx
    31ac:	01 d0                	add    %edx,%eax
    31ae:	31 d2                	xor    %edx,%edx
    31b0:	f7 b7 18 10 00 00    	divl   0x1018(%edi)
    31b6:	8b 37                	mov    (%edi),%esi
    31b8:	50                   	push   %eax
    31b9:	52                   	push   %edx
    31ba:	56                   	push   %esi
    31bb:	e8 c0 0e 00 00       	call   4080 <console_set_pos@plt>
    31c0:	8b 87 24 10 00 00    	mov    0x1024(%edi),%eax
    31c6:	83 c4 10             	add    $0x10,%esp
    31c9:	8b 8f 18 10 00 00    	mov    0x1018(%edi),%ecx
    31cf:	39 c1                	cmp    %eax,%ecx
    31d1:	0f 87 1a ff ff ff    	ja     30f1 <tinput_read_i+0x1241>
    31d7:	29 c8                	sub    %ecx,%eax
    31d9:	89 87 24 10 00 00    	mov    %eax,0x1024(%edi)
    31df:	e9 0d ff ff ff       	jmp    30f1 <tinput_read_i+0x1241>
    31e4:	c7 45 a4 ff ff ff ff 	movl   $0xffffffff,-0x5c(%ebp)
    31eb:	e9 e7 f0 ff ff       	jmp    22d7 <tinput_read_i+0x427>
    31f0:	8b 87 24 10 00 00    	mov    0x1024(%edi),%eax
    31f6:	8b b7 18 10 00 00    	mov    0x1018(%edi),%esi
    31fc:	01 f0                	add    %esi,%eax
    31fe:	3b 87 20 10 00 00    	cmp    0x1020(%edi),%eax
    3204:	0f 87 aa f1 ff ff    	ja     23b4 <tinput_read_i+0x504>
    320a:	89 87 24 10 00 00    	mov    %eax,0x1024(%edi)
    3210:	e9 9f f1 ff ff       	jmp    23b4 <tinput_read_i+0x504>
    3215:	8b 97 24 10 00 00    	mov    0x1024(%edi),%edx
    321b:	85 d2                	test   %edx,%edx
    321d:	0f 84 4f 02 00 00    	je     3472 <tinput_read_i+0x15c2>
    3223:	4a                   	dec    %edx
    3224:	0f 84 0c 02 00 00    	je     3436 <tinput_read_i+0x1586>
    322a:	83 7c 97 08 20       	cmpl   $0x20,0x8(%edi,%edx,4)
    322f:	75 f2                	jne    3223 <tinput_read_i+0x1373>
    3231:	83 7c 97 0c 20       	cmpl   $0x20,0xc(%edi,%edx,4)
    3236:	74 eb                	je     3223 <tinput_read_i+0x1373>
    3238:	e9 71 f1 ff ff       	jmp    23ae <tinput_read_i+0x4fe>
    323d:	76 06                	jbe    3245 <tinput_read_i+0x1395>
    323f:	89 f0                	mov    %esi,%eax
    3241:	89 d6                	mov    %edx,%esi
    3243:	89 c2                	mov    %eax,%edx
    3245:	51                   	push   %ecx
    3246:	8b 4d a0             	mov    -0x60(%ebp),%ecx
    3249:	8b 87 20 10 00 00    	mov    0x1020(%edi),%eax
    324f:	89 55 9c             	mov    %edx,-0x64(%ebp)
    3252:	29 d0                	sub    %edx,%eax
    3254:	c1 e0 02             	shl    $0x2,%eax
    3257:	50                   	push   %eax
    3258:	8d 04 91             	lea    (%ecx,%edx,4),%eax
    325b:	50                   	push   %eax
    325c:	8d 04 b1             	lea    (%ecx,%esi,4),%eax
    325f:	50                   	push   %eax
    3260:	e8 2b 0c 00 00       	call   3e90 <memmove@plt>
    3265:	8b 87 20 10 00 00    	mov    0x1020(%edi),%eax
    326b:	8b 55 9c             	mov    -0x64(%ebp),%edx
    326e:	01 f0                	add    %esi,%eax
    3270:	89 d1                	mov    %edx,%ecx
    3272:	29 d0                	sub    %edx,%eax
    3274:	89 b7 28 10 00 00    	mov    %esi,0x1028(%edi)
    327a:	89 b7 24 10 00 00    	mov    %esi,0x1024(%edi)
    3280:	89 87 20 10 00 00    	mov    %eax,0x1020(%edi)
    3286:	29 f1                	sub    %esi,%ecx
    3288:	c7 44 87 0c 00 00 00 	movl   $0x0,0xc(%edi,%eax,4)
    328f:	00 
    3290:	89 f2                	mov    %esi,%edx
    3292:	89 f8                	mov    %edi,%eax
    3294:	e8 07 e4 ff ff       	call   16a0 <tinput_display_tail>
    3299:	8b 87 24 10 00 00    	mov    0x1024(%edi),%eax
    329f:	8b 97 14 10 00 00    	mov    0x1014(%edi),%edx
    32a5:	83 c4 0c             	add    $0xc,%esp
    32a8:	01 d0                	add    %edx,%eax
    32aa:	e9 f0 f5 ff ff       	jmp    289f <tinput_read_i+0x9ef>
    32af:	89 8f 24 10 00 00    	mov    %ecx,0x1024(%edi)
    32b5:	e9 fa f0 ff ff       	jmp    23b4 <tinput_read_i+0x504>
    32ba:	89 97 24 10 00 00    	mov    %edx,0x1024(%edi)
    32c0:	e9 bd fd ff ff       	jmp    3082 <tinput_read_i+0x11d2>
    32c5:	76 06                	jbe    32cd <tinput_read_i+0x141d>
    32c7:	89 d0                	mov    %edx,%eax
    32c9:	89 f2                	mov    %esi,%edx
    32cb:	89 c6                	mov    %eax,%esi
    32cd:	50                   	push   %eax
    32ce:	8b 4d a0             	mov    -0x60(%ebp),%ecx
    32d1:	8b 87 20 10 00 00    	mov    0x1020(%edi),%eax
    32d7:	89 55 9c             	mov    %edx,-0x64(%ebp)
    32da:	29 f0                	sub    %esi,%eax
    32dc:	c1 e0 02             	shl    $0x2,%eax
    32df:	50                   	push   %eax
    32e0:	8d 04 b1             	lea    (%ecx,%esi,4),%eax
    32e3:	50                   	push   %eax
    32e4:	8d 04 91             	lea    (%ecx,%edx,4),%eax
    32e7:	50                   	push   %eax
    32e8:	e8 a3 0b 00 00       	call   3e90 <memmove@plt>
    32ed:	8b 55 9c             	mov    -0x64(%ebp),%edx
    32f0:	8b 87 20 10 00 00    	mov    0x1020(%edi),%eax
    32f6:	01 d0                	add    %edx,%eax
    32f8:	89 97 28 10 00 00    	mov    %edx,0x1028(%edi)
    32fe:	29 f0                	sub    %esi,%eax
    3300:	29 d6                	sub    %edx,%esi
    3302:	89 97 24 10 00 00    	mov    %edx,0x1024(%edi)
    3308:	89 87 20 10 00 00    	mov    %eax,0x1020(%edi)
    330e:	89 f1                	mov    %esi,%ecx
    3310:	c7 44 87 0c 00 00 00 	movl   $0x0,0xc(%edi,%eax,4)
    3317:	00 
    3318:	e9 75 ff ff ff       	jmp    3292 <tinput_read_i+0x13e2>
    331d:	89 f0                	mov    %esi,%eax
    331f:	89 d6                	mov    %edx,%esi
    3321:	89 c2                	mov    %eax,%edx
    3323:	50                   	push   %eax
    3324:	8b 4d a0             	mov    -0x60(%ebp),%ecx
    3327:	8b 87 20 10 00 00    	mov    0x1020(%edi),%eax
    332d:	89 55 9c             	mov    %edx,-0x64(%ebp)
    3330:	29 d0                	sub    %edx,%eax
    3332:	c1 e0 02             	shl    $0x2,%eax
    3335:	50                   	push   %eax
    3336:	8d 04 91             	lea    (%ecx,%edx,4),%eax
    3339:	50                   	push   %eax
    333a:	8d 04 b1             	lea    (%ecx,%esi,4),%eax
    333d:	50                   	push   %eax
    333e:	e8 4d 0b 00 00       	call   3e90 <memmove@plt>
    3343:	8b 87 20 10 00 00    	mov    0x1020(%edi),%eax
    3349:	8b 55 9c             	mov    -0x64(%ebp),%edx
    334c:	01 f0                	add    %esi,%eax
    334e:	89 d1                	mov    %edx,%ecx
    3350:	29 d0                	sub    %edx,%eax
    3352:	89 b7 28 10 00 00    	mov    %esi,0x1028(%edi)
    3358:	89 87 20 10 00 00    	mov    %eax,0x1020(%edi)
    335e:	89 b7 24 10 00 00    	mov    %esi,0x1024(%edi)
    3364:	29 f1                	sub    %esi,%ecx
    3366:	c7 44 87 0c 00 00 00 	movl   $0x0,0xc(%edi,%eax,4)
    336d:	00 
    336e:	89 f2                	mov    %esi,%edx
    3370:	89 f8                	mov    %edi,%eax
    3372:	e8 29 e3 ff ff       	call   16a0 <tinput_display_tail>
    3377:	8b 97 14 10 00 00    	mov    0x1014(%edi),%edx
    337d:	8b 87 24 10 00 00    	mov    0x1024(%edi),%eax
    3383:	83 c4 0c             	add    $0xc,%esp
    3386:	01 d0                	add    %edx,%eax
    3388:	31 d2                	xor    %edx,%edx
    338a:	f7 b7 18 10 00 00    	divl   0x1018(%edi)
    3390:	8b 0f                	mov    (%edi),%ecx
    3392:	50                   	push   %eax
    3393:	52                   	push   %edx
    3394:	51                   	push   %ecx
    3395:	e8 e6 0c 00 00       	call   4080 <console_set_pos@plt>
    339a:	83 c4 10             	add    $0x10,%esp
    339d:	e9 78 fa ff ff       	jmp    2e1a <tinput_read_i+0xf6a>
    33a2:	c7 87 24 10 00 00 00 	movl   $0x0,0x1024(%edi)
    33a9:	00 00 00 
    33ac:	e9 c4 fd ff ff       	jmp    3175 <tinput_read_i+0x12c5>
    33b1:	8b 75 a0             	mov    -0x60(%ebp),%esi
    33b4:	83 ec 0c             	sub    $0xc,%esp
    33b7:	8d 04 86             	lea    (%esi,%eax,4),%eax
    33ba:	50                   	push   %eax
    33bb:	e8 60 0c 00 00       	call   4020 <wstr_to_astr@plt>
    33c0:	83 c4 10             	add    $0x10,%esp
    33c3:	89 c2                	mov    %eax,%edx
    33c5:	e9 dc fa ff ff       	jmp    2ea6 <tinput_read_i+0xff6>
    33ca:	8b 45 98             	mov    -0x68(%ebp),%eax
    33cd:	8b 75 84             	mov    -0x7c(%ebp),%esi
    33d0:	c7 45 88 00 00 00 00 	movl   $0x0,-0x78(%ebp)
    33d7:	8b 3c b0             	mov    (%eax,%esi,4),%edi
    33da:	8b 00                	mov    (%eax),%eax
    33dc:	89 45 94             	mov    %eax,-0x6c(%ebp)
    33df:	c7 45 bc 00 00 00 00 	movl   $0x0,-0x44(%ebp)
    33e6:	c7 45 c0 00 00 00 00 	movl   $0x0,-0x40(%ebp)
    33ed:	eb 10                	jmp    33ff <tinput_read_i+0x154f>
    33ef:	90                   	nop
    33f0:	39 c6                	cmp    %eax,%esi
    33f2:	0f 85 a1 f3 ff ff    	jne    2799 <tinput_read_i+0x8e9>
    33f8:	8b 45 88             	mov    -0x78(%ebp),%eax
    33fb:	40                   	inc    %eax
    33fc:	89 45 88             	mov    %eax,-0x78(%ebp)
    33ff:	50                   	push   %eax
    3400:	8d 45 bc             	lea    -0x44(%ebp),%eax
    3403:	6a ff                	push   $0xffffffff
    3405:	50                   	push   %eax
    3406:	8b 45 94             	mov    -0x6c(%ebp),%eax
    3409:	50                   	push   %eax
    340a:	e8 c1 0a 00 00       	call   3ed0 <str_decode@plt>
    340f:	83 c4 0c             	add    $0xc,%esp
    3412:	89 c6                	mov    %eax,%esi
    3414:	8b 45 9c             	mov    -0x64(%ebp),%eax
    3417:	6a ff                	push   $0xffffffff
    3419:	50                   	push   %eax
    341a:	57                   	push   %edi
    341b:	e8 b0 0a 00 00       	call   3ed0 <str_decode@plt>
    3420:	83 c4 10             	add    $0x10,%esp
    3423:	85 f6                	test   %esi,%esi
    3425:	0f 94 c1             	sete   %cl
    3428:	85 c0                	test   %eax,%eax
    342a:	0f 94 c2             	sete   %dl
    342d:	08 d1                	or     %dl,%cl
    342f:	74 bf                	je     33f0 <tinput_read_i+0x1540>
    3431:	e9 63 f3 ff ff       	jmp    2799 <tinput_read_i+0x8e9>
    3436:	c7 87 24 10 00 00 00 	movl   $0x0,0x1024(%edi)
    343d:	00 00 00 
    3440:	e9 6f ef ff ff       	jmp    23b4 <tinput_read_i+0x504>
    3445:	8b 75 a0             	mov    -0x60(%ebp),%esi
    3448:	83 ec 0c             	sub    $0xc,%esp
    344b:	8d 04 86             	lea    (%esi,%eax,4),%eax
    344e:	50                   	push   %eax
    344f:	e8 cc 0b 00 00       	call   4020 <wstr_to_astr@plt>
    3454:	83 c4 10             	add    $0x10,%esp
    3457:	89 c2                	mov    %eax,%edx
    3459:	e9 ba fa ff ff       	jmp    2f18 <tinput_read_i+0x1068>
    345e:	83 ec 0c             	sub    $0xc,%esp
    3461:	52                   	push   %edx
    3462:	e8 c9 0c 00 00       	call   4130 <free@plt>
    3467:	8b 45 e0             	mov    -0x20(%ebp),%eax
    346a:	83 c4 10             	add    $0x10,%esp
    346d:	e9 b2 ec ff ff       	jmp    2124 <tinput_read_i+0x274>
    3472:	a8 3f                	test   $0x3f,%al
    3474:	0f 85 c6 ec ff ff    	jne    2140 <tinput_read_i+0x290>
    347a:	8b 87 28 10 00 00    	mov    0x1028(%edi),%eax
    3480:	85 c0                	test   %eax,%eax
    3482:	0f 85 6d f6 ff ff    	jne    2af5 <tinput_read_i+0xc45>
    3488:	e9 03 f4 ff ff       	jmp    2890 <tinput_read_i+0x9e0>
    348d:	8d 76 00             	lea    0x0(%esi),%esi
    3490:	8b 75 e4             	mov    -0x1c(%ebp),%esi
    3493:	83 fe 1f             	cmp    $0x1f,%esi
    3496:	0f 8e ac ea ff ff    	jle    1f48 <tinput_read_i+0x98>
    349c:	e9 3e ed ff ff       	jmp    21df <tinput_read_i+0x32f>
    34a1:	83 ec 0c             	sub    $0xc,%esp
    34a4:	8b 45 90             	mov    -0x70(%ebp),%eax
    34a7:	6a 00                	push   $0x0
    34a9:	68 80 16 00 00       	push   $0x1680
    34ae:	6a 04                	push   $0x4
    34b0:	50                   	push   %eax
    34b1:	8b 45 98             	mov    -0x68(%ebp),%eax
    34b4:	50                   	push   %eax
    34b5:	e8 36 0a 00 00       	call   3ef0 <qsort@plt>
    34ba:	8b 97 14 10 00 00    	mov    0x1014(%edi),%edx
    34c0:	8b 87 20 10 00 00    	mov    0x1020(%edi),%eax
    34c6:	83 c4 1c             	add    $0x1c,%esp
    34c9:	01 d0                	add    %edx,%eax
    34cb:	31 d2                	xor    %edx,%edx
    34cd:	8b 0f                	mov    (%edi),%ecx
    34cf:	f7 b7 18 10 00 00    	divl   0x1018(%edi)
    34d5:	50                   	push   %eax
    34d6:	52                   	push   %edx
    34d7:	51                   	push   %ecx
    34d8:	e8 a3 0b 00 00       	call   4080 <console_set_pos@plt>
    34dd:	8b 07                	mov    (%edi),%eax
    34df:	5e                   	pop    %esi
    34e0:	50                   	push   %eax
    34e1:	e8 4a 0b 00 00       	call   4030 <console_flush@plt>
    34e6:	c7 04 24 0a 00 00 00 	movl   $0xa,(%esp)
    34ed:	e8 2e 09 00 00       	call   3e20 <putchar@plt>
    34f2:	31 d2                	xor    %edx,%edx
    34f4:	89 7d 08             	mov    %edi,0x8(%ebp)
    34f7:	83 c4 10             	add    $0x10,%esp
    34fa:	31 f6                	xor    %esi,%esi
    34fc:	89 d7                	mov    %edx,%edi
    34fe:	8b 45 98             	mov    -0x68(%ebp),%eax
    3501:	83 ec 0c             	sub    $0xc,%esp
    3504:	8b 04 b8             	mov    (%eax,%edi,4),%eax
    3507:	50                   	push   %eax
    3508:	e8 b3 09 00 00       	call   3ec0 <str_width@plt>
    350d:	83 c4 10             	add    $0x10,%esp
    3510:	39 c6                	cmp    %eax,%esi
    3512:	77 14                	ja     3528 <tinput_read_i+0x1678>
    3514:	8b 45 98             	mov    -0x68(%ebp),%eax
    3517:	83 ec 0c             	sub    $0xc,%esp
    351a:	8b 0c b8             	mov    (%eax,%edi,4),%ecx
    351d:	51                   	push   %ecx
    351e:	e8 9d 09 00 00       	call   3ec0 <str_width@plt>
    3523:	83 c4 10             	add    $0x10,%esp
    3526:	89 c6                	mov    %eax,%esi
    3528:	47                   	inc    %edi
    3529:	39 7d 90             	cmp    %edi,-0x70(%ebp)
    352c:	75 d0                	jne    34fe <tinput_read_i+0x164e>
    352e:	8b 7d 08             	mov    0x8(%ebp),%edi
    3531:	31 d2                	xor    %edx,%edx
    3533:	8d 4e 01             	lea    0x1(%esi),%ecx
    3536:	8b 87 18 10 00 00    	mov    0x1018(%edi),%eax
    353c:	89 45 94             	mov    %eax,-0x6c(%ebp)
    353f:	40                   	inc    %eax
    3540:	89 45 8c             	mov    %eax,-0x74(%ebp)
    3543:	f7 f1                	div    %ecx
    3545:	89 c2                	mov    %eax,%edx
    3547:	85 c0                	test   %eax,%eax
    3549:	0f 84 76 01 00 00    	je     36c5 <tinput_read_i+0x1815>
    354f:	89 55 88             	mov    %edx,-0x78(%ebp)
    3552:	8b 45 90             	mov    -0x70(%ebp),%eax
    3555:	31 d2                	xor    %edx,%edx
    3557:	f7 75 88             	divl   -0x78(%ebp)
    355a:	31 c0                	xor    %eax,%eax
    355c:	85 d2                	test   %edx,%edx
    355e:	0f 95 c0             	setne  %al
    3561:	89 45 9c             	mov    %eax,-0x64(%ebp)
    3564:	8b 55 88             	mov    -0x78(%ebp),%edx
    3567:	31 c0                	xor    %eax,%eax
    3569:	0f af ca             	imul   %edx,%ecx
    356c:	8d 51 ff             	lea    -0x1(%ecx),%edx
    356f:	39 55 94             	cmp    %edx,-0x6c(%ebp)
    3572:	76 05                	jbe    3579 <tinput_read_i+0x16c9>
    3574:	8b 45 8c             	mov    -0x74(%ebp),%eax
    3577:	29 c8                	sub    %ecx,%eax
    3579:	8b 4d 88             	mov    -0x78(%ebp),%ecx
    357c:	31 d2                	xor    %edx,%edx
    357e:	f7 f1                	div    %ecx
    3580:	01 f0                	add    %esi,%eax
    3582:	31 d2                	xor    %edx,%edx
    3584:	89 45 94             	mov    %eax,-0x6c(%ebp)
    3587:	8b 45 90             	mov    -0x70(%ebp),%eax
    358a:	f7 f1                	div    %ecx
    358c:	03 45 9c             	add    -0x64(%ebp),%eax
    358f:	8d 71 ff             	lea    -0x1(%ecx),%esi
    3592:	c7 85 7c ff ff ff 00 	movl   $0x0,-0x84(%ebp)
    3599:	00 00 00 
    359c:	89 75 80             	mov    %esi,-0x80(%ebp)
    359f:	89 45 84             	mov    %eax,-0x7c(%ebp)
    35a2:	0f 84 00 01 00 00    	je     36a8 <tinput_read_i+0x17f8>
    35a8:	89 7d 08             	mov    %edi,0x8(%ebp)
    35ab:	8b 85 7c ff ff ff    	mov    -0x84(%ebp),%eax
    35b1:	8b 7d 94             	mov    -0x6c(%ebp),%edi
    35b4:	89 45 94             	mov    %eax,-0x6c(%ebp)
    35b7:	31 d2                	xor    %edx,%edx
    35b9:	c7 45 9c 00 00 00 00 	movl   $0x0,-0x64(%ebp)
    35c0:	8b 75 94             	mov    -0x6c(%ebp),%esi
    35c3:	39 75 90             	cmp    %esi,-0x70(%ebp)
    35c6:	0f 86 9c 00 00 00    	jbe    3668 <tinput_read_i+0x17b8>
    35cc:	8b 45 9c             	mov    -0x64(%ebp),%eax
    35cf:	89 55 8c             	mov    %edx,-0x74(%ebp)
    35d2:	85 c0                	test   %eax,%eax
    35d4:	0f 84 72 01 00 00    	je     374c <tinput_read_i+0x189c>
    35da:	83 ec 0c             	sub    $0xc,%esp
    35dd:	68 c0 38 00 00       	push   $0x38c0
    35e2:	e8 99 08 00 00       	call   3e80 <printf@plt>
    35e7:	8b 55 8c             	mov    -0x74(%ebp),%edx
    35ea:	83 c4 10             	add    $0x10,%esp
    35ed:	8b 4d 94             	mov    -0x6c(%ebp),%ecx
    35f0:	8d 42 01             	lea    0x1(%edx),%eax
    35f3:	89 45 8c             	mov    %eax,-0x74(%ebp)
    35f6:	8b 75 98             	mov    -0x68(%ebp),%esi
    35f9:	50                   	push   %eax
    35fa:	50                   	push   %eax
    35fb:	8b 04 8e             	mov    (%esi,%ecx,4),%eax
    35fe:	50                   	push   %eax
    35ff:	68 94 39 00 00       	push   $0x3994
    3604:	e8 77 08 00 00       	call   3e80 <printf@plt>
    3609:	8b 4d 94             	mov    -0x6c(%ebp),%ecx
    360c:	58                   	pop    %eax
    360d:	8b 04 8e             	mov    (%esi,%ecx,4),%eax
    3610:	50                   	push   %eax
    3611:	e8 aa 08 00 00       	call   3ec0 <str_width@plt>
    3616:	89 c6                	mov    %eax,%esi
    3618:	8b 45 8c             	mov    -0x74(%ebp),%eax
    361b:	8b 4d 80             	mov    -0x80(%ebp),%ecx
    361e:	83 c4 10             	add    $0x10,%esp
    3621:	8d 14 06             	lea    (%esi,%eax,1),%edx
    3624:	39 4d 9c             	cmp    %ecx,-0x64(%ebp)
    3627:	73 21                	jae    364a <tinput_read_i+0x179a>
    3629:	39 f7                	cmp    %esi,%edi
    362b:	76 1d                	jbe    364a <tinput_read_i+0x179a>
    362d:	8d 76 00             	lea    0x0(%esi),%esi
    3630:	83 ec 0c             	sub    $0xc,%esp
    3633:	46                   	inc    %esi
    3634:	68 c0 38 00 00       	push   $0x38c0
    3639:	e8 42 08 00 00       	call   3e80 <printf@plt>
    363e:	83 c4 10             	add    $0x10,%esp
    3641:	39 f7                	cmp    %esi,%edi
    3643:	77 eb                	ja     3630 <tinput_read_i+0x1780>
    3645:	8b 55 8c             	mov    -0x74(%ebp),%edx
    3648:	01 fa                	add    %edi,%edx
    364a:	8b 45 9c             	mov    -0x64(%ebp),%eax
    364d:	8b 75 94             	mov    -0x6c(%ebp),%esi
    3650:	40                   	inc    %eax
    3651:	8b 4d 84             	mov    -0x7c(%ebp),%ecx
    3654:	89 45 9c             	mov    %eax,-0x64(%ebp)
    3657:	01 ce                	add    %ecx,%esi
    3659:	8b 45 9c             	mov    -0x64(%ebp),%eax
    365c:	89 75 94             	mov    %esi,-0x6c(%ebp)
    365f:	39 45 88             	cmp    %eax,-0x78(%ebp)
    3662:	0f 85 58 ff ff ff    	jne    35c0 <tinput_read_i+0x1710>
    3668:	8b 75 08             	mov    0x8(%ebp),%esi
    366b:	89 d0                	mov    %edx,%eax
    366d:	31 d2                	xor    %edx,%edx
    366f:	f7 b6 18 10 00 00    	divl   0x1018(%esi)
    3675:	85 d2                	test   %edx,%edx
    3677:	74 10                	je     3689 <tinput_read_i+0x17d9>
    3679:	83 ec 0c             	sub    $0xc,%esp
    367c:	68 ac 39 00 00       	push   $0x39ac
    3681:	e8 fa 07 00 00       	call   3e80 <printf@plt>
    3686:	83 c4 10             	add    $0x10,%esp
    3689:	8b 85 7c ff ff ff    	mov    -0x84(%ebp),%eax
    368f:	40                   	inc    %eax
    3690:	89 85 7c ff ff ff    	mov    %eax,-0x84(%ebp)
    3696:	8b 85 7c ff ff ff    	mov    -0x84(%ebp),%eax
    369c:	39 45 84             	cmp    %eax,-0x7c(%ebp)
    369f:	0f 85 0f ff ff ff    	jne    35b4 <tinput_read_i+0x1704>
    36a5:	8b 7d 08             	mov    0x8(%ebp),%edi
    36a8:	83 ec 0c             	sub    $0xc,%esp
    36ab:	a1 00 5b 00 00       	mov    0x5b00,%eax
    36b0:	50                   	push   %eax
    36b1:	e8 7a 08 00 00       	call   3f30 <fflush@plt>
    36b6:	89 f8                	mov    %edi,%eax
    36b8:	e8 33 e6 ff ff       	call   1cf0 <tinput_display>
    36bd:	83 c4 10             	add    $0x10,%esp
    36c0:	e9 45 f1 ff ff       	jmp    280a <tinput_read_i+0x95a>
    36c5:	c7 45 9c 00 00 00 00 	movl   $0x0,-0x64(%ebp)
    36cc:	c7 45 88 01 00 00 00 	movl   $0x1,-0x78(%ebp)
    36d3:	e9 8c fe ff ff       	jmp    3564 <tinput_read_i+0x16b4>
    36d8:	74 3b                	je     3715 <tinput_read_i+0x1865>
    36da:	8b 45 90             	mov    -0x70(%ebp),%eax
    36dd:	85 c0                	test   %eax,%eax
    36df:	0f 85 25 f1 ff ff    	jne    280a <tinput_read_i+0x95a>
    36e5:	e9 3a f1 ff ff       	jmp    2824 <tinput_read_i+0x974>
    36ea:	8d b6 00 00 00 00    	lea    0x0(%esi),%esi
    36f0:	a8 3f                	test   $0x3f,%al
    36f2:	0f 85 48 ea ff ff    	jne    2140 <tinput_read_i+0x290>
    36f8:	e9 41 f1 ff ff       	jmp    283e <tinput_read_i+0x98e>
    36fd:	8d 76 00             	lea    0x0(%esi),%esi
    3700:	83 ec 0c             	sub    $0xc,%esp
    3703:	68 97 39 00 00       	push   $0x3997
    3708:	e8 73 07 00 00       	call   3e80 <printf@plt>
    370d:	83 c4 10             	add    $0x10,%esp
    3710:	e9 d7 ef ff ff       	jmp    26ec <tinput_read_i+0x83c>
    3715:	8b 75 98             	mov    -0x68(%ebp),%esi
    3718:	50                   	push   %eax
    3719:	50                   	push   %eax
    371a:	8b 55 b4             	mov    -0x4c(%ebp),%edx
    371d:	8b 87 24 10 00 00    	mov    0x1024(%edi),%eax
    3723:	8b 0e                	mov    (%esi),%ecx
    3725:	29 d0                	sub    %edx,%eax
    3727:	50                   	push   %eax
    3728:	51                   	push   %ecx
    3729:	e8 e2 09 00 00       	call   4110 <str_lsize@plt>
    372e:	8b 16                	mov    (%esi),%edx
    3730:	01 d0                	add    %edx,%eax
    3732:	89 c2                	mov    %eax,%edx
    3734:	89 f8                	mov    %edi,%eax
    3736:	e8 15 e4 ff ff       	call   1b50 <tinput_insert_string>
    373b:	8b 36                	mov    (%esi),%esi
    373d:	59                   	pop    %ecx
    373e:	56                   	push   %esi
    373f:	e8 ec 09 00 00       	call   4130 <free@plt>
    3744:	83 c4 10             	add    $0x10,%esp
    3747:	e9 d8 f0 ff ff       	jmp    2824 <tinput_read_i+0x974>
    374c:	89 f1                	mov    %esi,%ecx
    374e:	e9 a3 fe ff ff       	jmp    35f6 <tinput_read_i+0x1746>
    3753:	83 ec 0c             	sub    $0xc,%esp
    3756:	68 97 39 00 00       	push   $0x3997
    375b:	e8 20 07 00 00       	call   3e80 <printf@plt>
    3760:	83 c4 10             	add    $0x10,%esp
    3763:	e9 d8 e9 ff ff       	jmp    2140 <tinput_read_i+0x290>
    3768:	89 d0                	mov    %edx,%eax
    376a:	e9 b2 e8 ff ff       	jmp    2021 <tinput_read_i+0x171>
    376f:	29 f0                	sub    %esi,%eax
    3771:	52                   	push   %edx
    3772:	c1 e0 02             	shl    $0x2,%eax
    3775:	8b 4d 9c             	mov    -0x64(%ebp),%ecx
    3778:	50                   	push   %eax
    3779:	8b 45 a0             	mov    -0x60(%ebp),%eax
    377c:	8d 04 b0             	lea    (%eax,%esi,4),%eax
    377f:	50                   	push   %eax
    3780:	51                   	push   %ecx
    3781:	e8 7a 07 00 00       	call   3f00 <memcpy@plt>
    3786:	8b 87 20 10 00 00    	mov    0x1020(%edi),%eax
    378c:	29 f0                	sub    %esi,%eax
    378e:	8b 75 9c             	mov    -0x64(%ebp),%esi
    3791:	c7 04 86 00 00 00 00 	movl   $0x0,(%esi,%eax,4)
    3798:	58                   	pop    %eax
    3799:	5a                   	pop    %edx
    379a:	56                   	push   %esi
    379b:	68 90 39 00 00       	push   $0x3990
    37a0:	e8 db 06 00 00       	call   3e80 <printf@plt>
    37a5:	83 c4 10             	add    $0x10,%esp
    37a8:	e9 8e f2 ff ff       	jmp    2a3b <tinput_read_i+0xb8b>
    37ad:	83 ec 0c             	sub    $0xc,%esp
    37b0:	8b 07                	mov    (%edi),%eax
    37b2:	50                   	push   %eax
    37b3:	e8 78 08 00 00       	call   4030 <console_flush@plt>
    37b8:	8b 0f                	mov    (%edi),%ecx
    37ba:	58                   	pop    %eax
    37bb:	5a                   	pop    %edx
    37bc:	6a 03                	push   $0x3
    37be:	51                   	push   %ecx
    37bf:	e8 3c 08 00 00       	call   4000 <console_set_style@plt>
    37c4:	8b 55 98             	mov    -0x68(%ebp),%edx
    37c7:	8b 45 a0             	mov    -0x60(%ebp),%eax
    37ca:	83 c4 0c             	add    $0xc,%esp
    37cd:	29 f2                	sub    %esi,%edx
    37cf:	c1 e2 02             	shl    $0x2,%edx
    37d2:	8d 04 b0             	lea    (%eax,%esi,4),%eax
    37d5:	8b 75 9c             	mov    -0x64(%ebp),%esi
    37d8:	52                   	push   %edx
    37d9:	89 55 94             	mov    %edx,-0x6c(%ebp)
    37dc:	50                   	push   %eax
    37dd:	56                   	push   %esi
    37de:	e8 1d 07 00 00       	call   3f00 <memcpy@plt>
    37e3:	8b 55 94             	mov    -0x6c(%ebp),%edx
    37e6:	c7 04 16 00 00 00 00 	movl   $0x0,(%esi,%edx,1)
    37ed:	58                   	pop    %eax
    37ee:	5a                   	pop    %edx
    37ef:	56                   	push   %esi
    37f0:	68 90 39 00 00       	push   $0x3990
    37f5:	e8 86 06 00 00       	call   3e80 <printf@plt>
    37fa:	83 c4 10             	add    $0x10,%esp
    37fd:	8b 75 98             	mov    -0x68(%ebp),%esi
    3800:	e9 0e f2 ff ff       	jmp    2a13 <tinput_read_i+0xb63>
    3805:	89 ca                	mov    %ecx,%edx
    3807:	8b 45 a0             	mov    -0x60(%ebp),%eax
    380a:	29 f2                	sub    %esi,%edx
    380c:	89 4d 90             	mov    %ecx,-0x70(%ebp)
    380f:	c1 e2 02             	shl    $0x2,%edx
    3812:	8d 04 b0             	lea    (%eax,%esi,4),%eax
    3815:	8b 75 9c             	mov    -0x64(%ebp),%esi
    3818:	89 55 94             	mov    %edx,-0x6c(%ebp)
    381b:	51                   	push   %ecx
    381c:	52                   	push   %edx
    381d:	50                   	push   %eax
    381e:	56                   	push   %esi
    381f:	e8 dc 06 00 00       	call   3f00 <memcpy@plt>
    3824:	8b 55 94             	mov    -0x6c(%ebp),%edx
    3827:	c7 04 16 00 00 00 00 	movl   $0x0,(%esi,%edx,1)
    382e:	58                   	pop    %eax
    382f:	5a                   	pop    %edx
    3830:	56                   	push   %esi
    3831:	68 90 39 00 00       	push   $0x3990
    3836:	e8 45 06 00 00       	call   3e80 <printf@plt>
    383b:	8b 4d 90             	mov    -0x70(%ebp),%ecx
    383e:	83 c4 10             	add    $0x10,%esp
    3841:	89 ce                	mov    %ecx,%esi
    3843:	e9 c2 f1 ff ff       	jmp    2a0a <tinput_read_i+0xb5a>
    3848:	90                   	nop
    3849:	8d b4 26 00 00 00 00 	lea    0x0(%esi,%eiz,1),%esi

00003850 <tinput_read>:
    3850:	55                   	push   %ebp
    3851:	89 e5                	mov    %esp,%ebp
    3853:	83 ec 0c             	sub    $0xc,%esp
    3856:	8b 45 0c             	mov    0xc(%ebp),%eax
    3859:	8b 55 08             	mov    0x8(%ebp),%edx
    385c:	50                   	push   %eax
    385d:	68 ad 39 00 00       	push   $0x39ad
    3862:	52                   	push   %edx
    3863:	e8 48 e6 ff ff       	call   1eb0 <tinput_read_i>
    3868:	c9                   	leave  
    3869:	c3                   	ret    
    386a:	61                   	popa   
    386b:	00 2f                	add    %ch,(%edi)
    386d:	6c                   	insb   (%dx),%es:(%edi)
    386e:	6f                   	outsl  %ds:(%esi),(%dx)
    386f:	67 2f                	addr16 das 
    3871:	6b 69 6f 00          	imul   $0x0,0x6f(%ecx),%ebp
    3875:	6b 69 6f 2e          	imul   $0x2e,0x6f(%ecx),%ebp
    3879:	70 61                	jo     38dc <tinput_read+0x8c>
    387b:	67 65 73 00          	addr16 gs jae 387f <tinput_read+0x2f>
    387f:	6b 69 6f 2e          	imul   $0x2e,0x6f(%ecx),%ebp
    3883:	66 61                	popaw  
    3885:	64 64 72 00          	fs fs jb 3889 <tinput_read+0x39>
    3889:	25 73 3a 20 55       	and    $0x55203a73,%eax
    388e:	6e                   	outsb  %ds:(%esi),(%dx)
    388f:	61                   	popa   
    3890:	62 6c 65 20          	bound  %ebp,0x20(%ebp,%eiz,2)
    3894:	74 6f                	je     3905 <tinput_read+0xb5>
    3896:	20 6d 61             	and    %ch,0x61(%ebp)
    3899:	70 20                	jo     38bb <tinput_read+0x6b>
    389b:	6b 69 6f 0a          	imul   $0xa,0x6f(%ecx),%ebp
    389f:	00 25 73 3a 20 43    	add    %ah,0x43203a73
    38a5:	6f                   	outsl  %ds:(%esi),(%dx)
    38a6:	75 6c                	jne    3914 <tinput_read+0xc4>
    38a8:	64 20 6e 6f          	and    %ch,%fs:0x6f(%esi)
    38ac:	74 20                	je     38ce <tinput_read+0x7e>
    38ae:	63 72 65             	arpl   %si,0x65(%edx)
    38b1:	61                   	popa   
    38b2:	74 65                	je     3919 <tinput_read+0xc9>
    38b4:	20 69 6e             	and    %ch,0x6e(%ecx)
    38b7:	70 75                	jo     392e <tinput_read+0xde>
    38b9:	74 0a                	je     38c5 <tinput_read+0x75>
    38bb:	00 6b 69             	add    %ch,0x69(%ebx)
    38be:	6f                   	outsl  %ds:(%esi),(%dx)
    38bf:	3e 20 00             	and    %al,%ds:(%eax)
    38c2:	66 90                	xchg   %ax,%ax
    38c4:	25 73 3a 20 55       	and    $0x55203a73,%eax
    38c9:	6e                   	outsb  %ds:(%esi),(%dx)
    38ca:	61                   	popa   
    38cb:	62 6c 65 20          	bound  %ebp,0x20(%ebp,%eiz,2)
    38cf:	74 6f                	je     3940 <tinput_read+0xf0>
    38d1:	20 63 72             	and    %ah,0x72(%ebx)
    38d4:	65 61                	gs popa 
    38d6:	74 65                	je     393d <tinput_read+0xed>
    38d8:	20 6c 6f 67          	and    %ch,0x67(%edi,%ebp,2)
    38dc:	20 66 69             	and    %ah,0x69(%esi)
    38df:	6c                   	insb   (%dx),%es:(%edi)
    38e0:	65 20 25 73 20 28 25 	and    %ah,%gs:0x25282073
    38e7:	73 29                	jae    3912 <tinput_read+0xc2>
    38e9:	0a 00                	or     (%eax),%al
    38eb:	00 25 73 3a 20 55    	add    %ah,0x55203a73
    38f1:	6e                   	outsb  %ds:(%esi),(%dx)
    38f2:	61                   	popa   
    38f3:	62 6c 65 20          	bound  %ebp,0x20(%ebp,%eiz,2)
    38f7:	74 6f                	je     3968 <tinput_read+0x118>
    38f9:	20 67 65             	and    %ah,0x65(%edi)
    38fc:	74 20                	je     391e <tinput_read+0xce>
    38fe:	6e                   	outsb  %ds:(%esi),(%dx)
    38ff:	75 6d                	jne    396e <tinput_read+0x11e>
    3901:	62 65 72             	bound  %esp,0x72(%ebp)
    3904:	20 6f 66             	and    %ch,0x66(%edi)
    3907:	20 6b 69             	and    %ch,0x69(%ebx)
    390a:	6f                   	outsl  %ds:(%esi),(%dx)
    390b:	20 70 61             	and    %dh,0x61(%eax)
    390e:	67 65 73 0a          	addr16 gs jae 391c <tinput_read+0xcc>
    3912:	00 00                	add    %al,(%eax)
    3914:	25 73 3a 20 55       	and    $0x55203a73,%eax
    3919:	6e                   	outsb  %ds:(%esi),(%dx)
    391a:	61                   	popa   
    391b:	62 6c 65 20          	bound  %ebp,0x20(%ebp,%eiz,2)
    391f:	74 6f                	je     3990 <tinput_read+0x140>
    3921:	20 67 65             	and    %ah,0x65(%edi)
    3924:	74 20                	je     3946 <tinput_read+0xf6>
    3926:	6b 69 6f 20          	imul   $0x20,0x6f(%ecx),%ebp
    392a:	70 68                	jo     3994 <tinput_read+0x144>
    392c:	79 73                	jns    39a1 <tinput_read+0x151>
    392e:	69 63 61 6c 20 61 64 	imul   $0x6461206c,0x61(%ebx),%esp
    3935:	64 72 65             	fs jb  399d <tinput_read+0x14d>
    3938:	73 73                	jae    39ad <tinput_read+0x15d>
    393a:	0a 00                	or     (%eax),%al
    393c:	25 73 3a 20 55       	and    $0x55203a73,%eax
    3941:	6e                   	outsb  %ds:(%esi),(%dx)
    3942:	61                   	popa   
    3943:	62 6c 65 20          	bound  %ebp,0x20(%ebp,%eiz,2)
    3947:	74 6f                	je     39b8 <tinput_read+0x168>
    3949:	20 72 65             	and    %dh,0x65(%edx)
    394c:	67 69 73 74 65 72 20 	imul   $0x6b207265,0x74(%bp,%di),%esi
    3953:	6b 
    3954:	69 6f 20 6e 6f 74 69 	imul   $0x69746f6e,0x20(%edi),%ebp
    395b:	66 69 63 61 74 69    	imul   $0x6974,0x61(%ebx),%sp
    3961:	6f                   	outsl  %ds:(%esi),(%dx)
    3962:	6e                   	outsb  %ds:(%esi),(%dx)
    3963:	73 0a                	jae    396f <tinput_read+0x11f>
    3965:	00 00                	add    %al,(%eax)
    3967:	00 25 73 3a 20 55    	add    %ah,0x55203a73
    396d:	6e                   	outsb  %ds:(%esi),(%dx)
    396e:	61                   	popa   
    396f:	62 6c 65 20          	bound  %ebp,0x20(%ebp,%eiz,2)
    3973:	74 6f                	je     39e4 <tinput_read+0x194>
    3975:	20 63 72             	and    %ah,0x72(%ebx)
    3978:	65 61                	gs popa 
    397a:	74 65                	je     39e1 <tinput_read+0x191>
    397c:	20 63 6f             	and    %ah,0x6f(%ebx)
    397f:	6e                   	outsb  %ds:(%esi),(%dx)
    3980:	73 75                	jae    39f7 <tinput_read+0x1a7>
    3982:	6d                   	insl   (%dx),%es:(%edi)
    3983:	65 72 20             	gs jb  39a6 <tinput_read+0x156>
    3986:	66 69 62 72 69 6c    	imul   $0x6c69,0x72(%edx),%sp
    398c:	0a 00                	or     (%eax),%al
    398e:	00 00                	add    %al,(%eax)
    3990:	25 6c 73 00 25       	and    $0x2500736c,%eax
    3995:	73 00                	jae    3997 <tinput_read+0x147>
    3997:	45                   	inc    %ebp
    3998:	72 72                	jb     3a0c <tinput_read+0x1bc>
    399a:	6f                   	outsl  %ds:(%esi),(%dx)
    399b:	72 3a                	jb     39d7 <tinput_read+0x187>
    399d:	20 4f 75             	and    %cl,0x75(%edi)
    39a0:	74 20                	je     39c2 <tinput_read+0x172>
    39a2:	6f                   	outsl  %ds:(%esi),(%dx)
    39a3:	66 20 6d 65          	data16 and %ch,0x65(%ebp)
    39a7:	6d                   	insl   (%dx),%es:(%edi)
    39a8:	6f                   	outsl  %ds:(%esi),(%dx)
    39a9:	72 79                	jb     3a24 <tinput_read+0x1d4>
    39ab:	2e 0a 00             	or     %cs:(%eax),%al
    39ae:	66 90                	xchg   %ax,%ax
    39b0:	5f                   	pop    %edi
    39b1:	2b 00                	sub    (%eax),%eax
    39b3:	00 27                	add    %ah,(%edi)
    39b5:	26 00 00             	add    %al,%es:(%eax)
    39b8:	40                   	inc    %eax
    39b9:	21 00                	and    %eax,(%eax)
    39bb:	00 40 21             	add    %al,0x21(%eax)
    39be:	00 00                	add    %al,(%eax)
    39c0:	40                   	inc    %eax
    39c1:	21 00                	and    %eax,(%eax)
    39c3:	00 40 21             	add    %al,0x21(%eax)
    39c6:	00 00                	add    %al,(%eax)
    39c8:	40                   	inc    %eax
    39c9:	21 00                	and    %eax,(%eax)
    39cb:	00 40 21             	add    %al,0x21(%eax)
    39ce:	00 00                	add    %al,(%eax)
    39d0:	40                   	inc    %eax
    39d1:	21 00                	and    %eax,(%eax)
    39d3:	00 40 21             	add    %al,0x21(%eax)
    39d6:	00 00                	add    %al,(%eax)
    39d8:	40                   	inc    %eax
    39d9:	21 00                	and    %eax,(%eax)
    39db:	00 40 21             	add    %al,0x21(%eax)
    39de:	00 00                	add    %al,(%eax)
    39e0:	40                   	inc    %eax
    39e1:	21 00                	and    %eax,(%eax)
    39e3:	00 40 21             	add    %al,0x21(%eax)
    39e6:	00 00                	add    %al,(%eax)
    39e8:	40                   	inc    %eax
    39e9:	21 00                	and    %eax,(%eax)
    39eb:	00 40 21             	add    %al,0x21(%eax)
    39ee:	00 00                	add    %al,(%eax)
    39f0:	40                   	inc    %eax
    39f1:	21 00                	and    %eax,(%eax)
    39f3:	00 40 21             	add    %al,0x21(%eax)
    39f6:	00 00                	add    %al,(%eax)
    39f8:	40                   	inc    %eax
    39f9:	21 00                	and    %eax,(%eax)
    39fb:	00 40 21             	add    %al,0x21(%eax)
    39fe:	00 00                	add    %al,(%eax)
    3a00:	40                   	inc    %eax
    3a01:	21 00                	and    %eax,(%eax)
    3a03:	00 40 21             	add    %al,0x21(%eax)
    3a06:	00 00                	add    %al,(%eax)
    3a08:	40                   	inc    %eax
    3a09:	21 00                	and    %eax,(%eax)
    3a0b:	00 40 21             	add    %al,0x21(%eax)
    3a0e:	00 00                	add    %al,(%eax)
    3a10:	40                   	inc    %eax
    3a11:	21 00                	and    %eax,(%eax)
    3a13:	00 40 21             	add    %al,0x21(%eax)
    3a16:	00 00                	add    %al,(%eax)
    3a18:	40                   	inc    %eax
    3a19:	21 00                	and    %eax,(%eax)
    3a1b:	00 40 21             	add    %al,0x21(%eax)
    3a1e:	00 00                	add    %al,(%eax)
    3a20:	b9 28 00 00 40       	mov    $0x40000028,%ecx
    3a25:	21 00                	and    %eax,(%eax)
    3a27:	00 40 21             	add    %al,0x21(%eax)
    3a2a:	00 00                	add    %al,(%eax)
    3a2c:	40                   	inc    %eax
    3a2d:	21 00                	and    %eax,(%eax)
    3a2f:	00 40 21             	add    %al,0x21(%eax)
    3a32:	00 00                	add    %al,(%eax)
    3a34:	40                   	inc    %eax
    3a35:	21 00                	and    %eax,(%eax)
    3a37:	00 40 21             	add    %al,0x21(%eax)
    3a3a:	00 00                	add    %al,(%eax)
    3a3c:	40                   	inc    %eax
    3a3d:	21 00                	and    %eax,(%eax)
    3a3f:	00 40 21             	add    %al,0x21(%eax)
    3a42:	00 00                	add    %al,(%eax)
    3a44:	40                   	inc    %eax
    3a45:	21 00                	and    %eax,(%eax)
    3a47:	00 40 21             	add    %al,0x21(%eax)
    3a4a:	00 00                	add    %al,(%eax)
    3a4c:	40                   	inc    %eax
    3a4d:	21 00                	and    %eax,(%eax)
    3a4f:	00 40 21             	add    %al,0x21(%eax)
    3a52:	00 00                	add    %al,(%eax)
    3a54:	40                   	inc    %eax
    3a55:	21 00                	and    %eax,(%eax)
    3a57:	00 40 21             	add    %al,0x21(%eax)
    3a5a:	00 00                	add    %al,(%eax)
    3a5c:	40                   	inc    %eax
    3a5d:	21 00                	and    %eax,(%eax)
    3a5f:	00 40 21             	add    %al,0x21(%eax)
    3a62:	00 00                	add    %al,(%eax)
    3a64:	40                   	inc    %eax
    3a65:	21 00                	and    %eax,(%eax)
    3a67:	00 40 21             	add    %al,0x21(%eax)
    3a6a:	00 00                	add    %al,(%eax)
    3a6c:	40                   	inc    %eax
    3a6d:	21 00                	and    %eax,(%eax)
    3a6f:	00 40 21             	add    %al,0x21(%eax)
    3a72:	00 00                	add    %al,(%eax)
    3a74:	40                   	inc    %eax
    3a75:	21 00                	and    %eax,(%eax)
    3a77:	00 40 21             	add    %al,0x21(%eax)
    3a7a:	00 00                	add    %al,(%eax)
    3a7c:	40                   	inc    %eax
    3a7d:	21 00                	and    %eax,(%eax)
    3a7f:	00 40 21             	add    %al,0x21(%eax)
    3a82:	00 00                	add    %al,(%eax)
    3a84:	40                   	inc    %eax
    3a85:	21 00                	and    %eax,(%eax)
    3a87:	00 40 21             	add    %al,0x21(%eax)
    3a8a:	00 00                	add    %al,(%eax)
    3a8c:	40                   	inc    %eax
    3a8d:	21 00                	and    %eax,(%eax)
    3a8f:	00 40 21             	add    %al,0x21(%eax)
    3a92:	00 00                	add    %al,(%eax)
    3a94:	40                   	inc    %eax
    3a95:	21 00                	and    %eax,(%eax)
    3a97:	00 40 21             	add    %al,0x21(%eax)
    3a9a:	00 00                	add    %al,(%eax)
    3a9c:	40                   	inc    %eax
    3a9d:	21 00                	and    %eax,(%eax)
    3a9f:	00 40 21             	add    %al,0x21(%eax)
    3aa2:	00 00                	add    %al,(%eax)
    3aa4:	40                   	inc    %eax
    3aa5:	21 00                	and    %eax,(%eax)
    3aa7:	00 40 21             	add    %al,0x21(%eax)
    3aaa:	00 00                	add    %al,(%eax)
    3aac:	40                   	inc    %eax
    3aad:	21 00                	and    %eax,(%eax)
    3aaf:	00 40 21             	add    %al,0x21(%eax)
    3ab2:	00 00                	add    %al,(%eax)
    3ab4:	c5 28                	lds    (%eax),%ebp
    3ab6:	00 00                	add    %al,(%eax)
    3ab8:	40                   	inc    %eax
    3ab9:	21 00                	and    %eax,(%eax)
    3abb:	00 26                	add    %ah,(%esi)
    3abd:	29 00                	sub    %eax,(%eax)
    3abf:	00 60 2a             	add    %ah,0x2a(%eax)
    3ac2:	00 00                	add    %al,(%eax)
    3ac4:	40                   	inc    %eax
    3ac5:	21 00                	and    %eax,(%eax)
    3ac7:	00 c1                	add    %al,%cl
    3ac9:	2a 00                	sub    (%eax),%al
    3acb:	00 e5                	add    %ah,%ch
    3acd:	2a 00                	sub    (%eax),%al
    3acf:	00 42 2b             	add    %al,0x2b(%edx)
    3ad2:	00 00                	add    %al,(%eax)
    3ad4:	38 28                	cmp    %ch,(%eax)
    3ad6:	00 00                	add    %al,(%eax)
    3ad8:	40                   	inc    %eax
    3ad9:	21 00                	and    %eax,(%eax)
    3adb:	00 40 21             	add    %al,0x21(%eax)
    3ade:	00 00                	add    %al,(%eax)
    3ae0:	40                   	inc    %eax
    3ae1:	21 00                	and    %eax,(%eax)
    3ae3:	00 40 21             	add    %al,0x21(%eax)
    3ae6:	00 00                	add    %al,(%eax)
    3ae8:	40                   	inc    %eax
    3ae9:	21 00                	and    %eax,(%eax)
    3aeb:	00 b9 28 00 00 ed    	add    %bh,-0x12ffffd8(%ecx)
    3af1:	2d 00 00 24 21       	sub    $0x21240000,%eax
    3af6:	00 00                	add    %al,(%eax)
    3af8:	24 21                	and    $0x21,%al
    3afa:	00 00                	add    %al,(%eax)
    3afc:	24 21                	and    $0x21,%al
    3afe:	00 00                	add    %al,(%eax)
    3b00:	24 21                	and    $0x21,%al
    3b02:	00 00                	add    %al,(%eax)
    3b04:	24 21                	and    $0x21,%al
    3b06:	00 00                	add    %al,(%eax)
    3b08:	24 21                	and    $0x21,%al
    3b0a:	00 00                	add    %al,(%eax)
    3b0c:	24 21                	and    $0x21,%al
    3b0e:	00 00                	add    %al,(%eax)
    3b10:	24 21                	and    $0x21,%al
    3b12:	00 00                	add    %al,(%eax)
    3b14:	24 21                	and    $0x21,%al
    3b16:	00 00                	add    %al,(%eax)
    3b18:	24 21                	and    $0x21,%al
    3b1a:	00 00                	add    %al,(%eax)
    3b1c:	24 21                	and    $0x21,%al
    3b1e:	00 00                	add    %al,(%eax)
    3b20:	24 21                	and    $0x21,%al
    3b22:	00 00                	add    %al,(%eax)
    3b24:	dc 2f                	fsubrl (%edi)
    3b26:	00 00                	add    %al,(%eax)
    3b28:	24 21                	and    $0x21,%al
    3b2a:	00 00                	add    %al,(%eax)
    3b2c:	24 21                	and    $0x21,%al
    3b2e:	00 00                	add    %al,(%eax)
    3b30:	24 21                	and    $0x21,%al
    3b32:	00 00                	add    %al,(%eax)
    3b34:	24 21                	and    $0x21,%al
    3b36:	00 00                	add    %al,(%eax)
    3b38:	24 21                	and    $0x21,%al
    3b3a:	00 00                	add    %al,(%eax)
    3b3c:	24 21                	and    $0x21,%al
    3b3e:	00 00                	add    %al,(%eax)
    3b40:	24 21                	and    $0x21,%al
    3b42:	00 00                	add    %al,(%eax)
    3b44:	24 21                	and    $0x21,%al
    3b46:	00 00                	add    %al,(%eax)
    3b48:	24 21                	and    $0x21,%al
    3b4a:	00 00                	add    %al,(%eax)
    3b4c:	24 21                	and    $0x21,%al
    3b4e:	00 00                	add    %al,(%eax)
    3b50:	24 21                	and    $0x21,%al
    3b52:	00 00                	add    %al,(%eax)
    3b54:	24 21                	and    $0x21,%al
    3b56:	00 00                	add    %al,(%eax)
    3b58:	24 21                	and    $0x21,%al
    3b5a:	00 00                	add    %al,(%eax)
    3b5c:	24 21                	and    $0x21,%al
    3b5e:	00 00                	add    %al,(%eax)
    3b60:	24 21                	and    $0x21,%al
    3b62:	00 00                	add    %al,(%eax)
    3b64:	cc                   	int3   
    3b65:	2e 00 00             	add    %al,%cs:(%eax)
    3b68:	5a                   	pop    %edx
    3b69:	2e 00 00             	add    %al,%cs:(%eax)
    3b6c:	00 2e                	add    %ch,(%esi)
    3b6e:	00 00                	add    %al,(%eax)
    3b70:	24 21                	and    $0x21,%al
    3b72:	00 00                	add    %al,(%eax)
    3b74:	24 21                	and    $0x21,%al
    3b76:	00 00                	add    %al,(%eax)
    3b78:	24 21                	and    $0x21,%al
    3b7a:	00 00                	add    %al,(%eax)
    3b7c:	24 21                	and    $0x21,%al
    3b7e:	00 00                	add    %al,(%eax)
    3b80:	24 21                	and    $0x21,%al
    3b82:	00 00                	add    %al,(%eax)
    3b84:	24 21                	and    $0x21,%al
    3b86:	00 00                	add    %al,(%eax)
    3b88:	24 21                	and    $0x21,%al
    3b8a:	00 00                	add    %al,(%eax)
    3b8c:	24 21                	and    $0x21,%al
    3b8e:	00 00                	add    %al,(%eax)
    3b90:	24 21                	and    $0x21,%al
    3b92:	00 00                	add    %al,(%eax)
    3b94:	24 21                	and    $0x21,%al
    3b96:	00 00                	add    %al,(%eax)
    3b98:	24 21                	and    $0x21,%al
    3b9a:	00 00                	add    %al,(%eax)
    3b9c:	24 21                	and    $0x21,%al
    3b9e:	00 00                	add    %al,(%eax)
    3ba0:	24 21                	and    $0x21,%al
    3ba2:	00 00                	add    %al,(%eax)
    3ba4:	24 21                	and    $0x21,%al
    3ba6:	00 00                	add    %al,(%eax)
    3ba8:	24 21                	and    $0x21,%al
    3baa:	00 00                	add    %al,(%eax)
    3bac:	24 21                	and    $0x21,%al
    3bae:	00 00                	add    %al,(%eax)
    3bb0:	24 21                	and    $0x21,%al
    3bb2:	00 00                	add    %al,(%eax)
    3bb4:	24 21                	and    $0x21,%al
    3bb6:	00 00                	add    %al,(%eax)
    3bb8:	24 21                	and    $0x21,%al
    3bba:	00 00                	add    %al,(%eax)
    3bbc:	24 21                	and    $0x21,%al
    3bbe:	00 00                	add    %al,(%eax)
    3bc0:	24 21                	and    $0x21,%al
    3bc2:	00 00                	add    %al,(%eax)
    3bc4:	24 21                	and    $0x21,%al
    3bc6:	00 00                	add    %al,(%eax)
    3bc8:	24 21                	and    $0x21,%al
    3bca:	00 00                	add    %al,(%eax)
    3bcc:	24 21                	and    $0x21,%al
    3bce:	00 00                	add    %al,(%eax)
    3bd0:	24 21                	and    $0x21,%al
    3bd2:	00 00                	add    %al,(%eax)
    3bd4:	24 21                	and    $0x21,%al
    3bd6:	00 00                	add    %al,(%eax)
    3bd8:	24 21                	and    $0x21,%al
    3bda:	00 00                	add    %al,(%eax)
    3bdc:	24 21                	and    $0x21,%al
    3bde:	00 00                	add    %al,(%eax)
    3be0:	24 21                	and    $0x21,%al
    3be2:	00 00                	add    %al,(%eax)
    3be4:	24 21                	and    $0x21,%al
    3be6:	00 00                	add    %al,(%eax)
    3be8:	24 21                	and    $0x21,%al
    3bea:	00 00                	add    %al,(%eax)
    3bec:	24 21                	and    $0x21,%al
    3bee:	00 00                	add    %al,(%eax)
    3bf0:	24 21                	and    $0x21,%al
    3bf2:	00 00                	add    %al,(%eax)
    3bf4:	24 21                	and    $0x21,%al
    3bf6:	00 00                	add    %al,(%eax)
    3bf8:	24 21                	and    $0x21,%al
    3bfa:	00 00                	add    %al,(%eax)
    3bfc:	24 21                	and    $0x21,%al
    3bfe:	00 00                	add    %al,(%eax)
    3c00:	80 31 00             	xorb   $0x0,(%ecx)
    3c03:	00 09                	add    %cl,(%ecx)
    3c05:	31 00                	xor    %eax,(%eax)
    3c07:	00 8f 30 00 00 0c    	add    %cl,0xc000030(%edi)
    3c0d:	30 00                	xor    %al,(%eax)
    3c0f:	00 8a 2d 00 00 47    	add    %cl,0x4700002d(%edx)
    3c15:	23 00                	and    (%eax),%eax
    3c17:	00 47 23             	add    %al,0x23(%edi)
    3c1a:	00 00                	add    %al,(%eax)
    3c1c:	79 2d                	jns    3c4b <tinput_read+0x3fb>
    3c1e:	00 00                	add    %al,(%eax)
    3c20:	47                   	inc    %edi
    3c21:	23 00                	and    (%eax),%eax
    3c23:	00 ff                	add    %bh,%bh
    3c25:	22 00                	and    (%eax),%al
    3c27:	00 b5 2d 00 00 99    	add    %dh,-0x66ffffd3(%ebp)
    3c2d:	2d 00 00 cf 2d       	sub    $0x2dcf0000,%eax
	...

Disassembly of section .plt:

00003e00 <console_get_size@plt-0x10>:
    3e00:	ff 35 0c 5a 00 00    	pushl  0x5a0c
    3e06:	ff 25 10 5a 00 00    	jmp    *0x5a10
    3e0c:	00 00                	add    %al,(%eax)
	...

00003e10 <console_get_size@plt>:
    3e10:	ff 25 14 5a 00 00    	jmp    *0x5a14
    3e16:	68 00 00 00 00       	push   $0x0
    3e1b:	e9 e0 ff ff ff       	jmp    3e00 <tinput_read+0x5b0>

00003e20 <putchar@plt>:
    3e20:	ff 25 18 5a 00 00    	jmp    *0x5a18
    3e26:	68 08 00 00 00       	push   $0x8
    3e2b:	e9 d0 ff ff ff       	jmp    3e00 <tinput_read+0x5b0>

00003e30 <__main@plt>:
    3e30:	ff 25 1c 5a 00 00    	jmp    *0x5a1c
    3e36:	68 10 00 00 00       	push   $0x10
    3e3b:	e9 c0 ff ff ff       	jmp    3e00 <tinput_read+0x5b0>

00003e40 <sysinfo_get_value@plt>:
    3e40:	ff 25 20 5a 00 00    	jmp    *0x5a20
    3e46:	68 18 00 00 00       	push   $0x18
    3e4b:	e9 b0 ff ff ff       	jmp    3e00 <tinput_read+0x5b0>

00003e50 <async_event_unmask@plt>:
    3e50:	ff 25 24 5a 00 00    	jmp    *0x5a24
    3e56:	68 20 00 00 00       	push   $0x20
    3e5b:	e9 a0 ff ff ff       	jmp    3e00 <tinput_read+0x5b0>

00003e60 <wstr_length@plt>:
    3e60:	ff 25 28 5a 00 00    	jmp    *0x5a28
    3e66:	68 28 00 00 00       	push   $0x28
    3e6b:	e9 90 ff ff ff       	jmp    3e00 <tinput_read+0x5b0>

00003e70 <physmem_map@plt>:
    3e70:	ff 25 2c 5a 00 00    	jmp    *0x5a2c
    3e76:	68 30 00 00 00       	push   $0x30
    3e7b:	e9 80 ff ff ff       	jmp    3e00 <tinput_read+0x5b0>

00003e80 <printf@plt>:
    3e80:	ff 25 30 5a 00 00    	jmp    *0x5a30
    3e86:	68 38 00 00 00       	push   $0x38
    3e8b:	e9 70 ff ff ff       	jmp    3e00 <tinput_read+0x5b0>

00003e90 <memmove@plt>:
    3e90:	ff 25 34 5a 00 00    	jmp    *0x5a34
    3e96:	68 40 00 00 00       	push   $0x40
    3e9b:	e9 60 ff ff ff       	jmp    3e00 <tinput_read+0x5b0>

00003ea0 <__errno@plt>:
    3ea0:	ff 25 38 5a 00 00    	jmp    *0x5a38
    3ea6:	68 48 00 00 00       	push   $0x48
    3eab:	e9 50 ff ff ff       	jmp    3e00 <tinput_read+0x5b0>

00003eb0 <console_get_pos@plt>:
    3eb0:	ff 25 3c 5a 00 00    	jmp    *0x5a3c
    3eb6:	68 50 00 00 00       	push   $0x50
    3ebb:	e9 40 ff ff ff       	jmp    3e00 <tinput_read+0x5b0>

00003ec0 <str_width@plt>:
    3ec0:	ff 25 40 5a 00 00    	jmp    *0x5a40
    3ec6:	68 58 00 00 00       	push   $0x58
    3ecb:	e9 30 ff ff ff       	jmp    3e00 <tinput_read+0x5b0>

00003ed0 <str_decode@plt>:
    3ed0:	ff 25 44 5a 00 00    	jmp    *0x5a44
    3ed6:	68 60 00 00 00       	push   $0x60
    3edb:	e9 20 ff ff ff       	jmp    3e00 <tinput_read+0x5b0>

00003ee0 <str_ndup@plt>:
    3ee0:	ff 25 48 5a 00 00    	jmp    *0x5a48
    3ee6:	68 68 00 00 00       	push   $0x68
    3eeb:	e9 10 ff ff ff       	jmp    3e00 <tinput_read+0x5b0>

00003ef0 <qsort@plt>:
    3ef0:	ff 25 4c 5a 00 00    	jmp    *0x5a4c
    3ef6:	68 70 00 00 00       	push   $0x70
    3efb:	e9 00 ff ff ff       	jmp    3e00 <tinput_read+0x5b0>

00003f00 <memcpy@plt>:
    3f00:	ff 25 50 5a 00 00    	jmp    *0x5a50
    3f06:	68 78 00 00 00       	push   $0x78
    3f0b:	e9 f0 fe ff ff       	jmp    3e00 <tinput_read+0x5b0>

00003f10 <malloc@plt>:
    3f10:	ff 25 54 5a 00 00    	jmp    *0x5a54
    3f16:	68 80 00 00 00       	push   $0x80
    3f1b:	e9 e0 fe ff ff       	jmp    3e00 <tinput_read+0x5b0>

00003f20 <kio_update@plt>:
    3f20:	ff 25 58 5a 00 00    	jmp    *0x5a58
    3f26:	68 88 00 00 00       	push   $0x88
    3f2b:	e9 d0 fe ff ff       	jmp    3e00 <tinput_read+0x5b0>

00003f30 <fflush@plt>:
    3f30:	ff 25 5c 5a 00 00    	jmp    *0x5a5c
    3f36:	68 90 00 00 00       	push   $0x90
    3f3b:	e9 c0 fe ff ff       	jmp    3e00 <tinput_read+0x5b0>

00003f40 <console_get_event@plt>:
    3f40:	ff 25 60 5a 00 00    	jmp    *0x5a60
    3f46:	68 98 00 00 00       	push   $0x98
    3f4b:	e9 b0 fe ff ff       	jmp    3e00 <tinput_read+0x5b0>

00003f50 <console_init@plt>:
    3f50:	ff 25 64 5a 00 00    	jmp    *0x5a64
    3f56:	68 a0 00 00 00       	push   $0xa0
    3f5b:	e9 a0 fe ff ff       	jmp    3e00 <tinput_read+0x5b0>

00003f60 <clipboard_put_str@plt>:
    3f60:	ff 25 68 5a 00 00    	jmp    *0x5a68
    3f66:	68 a8 00 00 00       	push   $0xa8
    3f6b:	e9 90 fe ff ff       	jmp    3e00 <tinput_read+0x5b0>

00003f70 <calloc@plt>:
    3f70:	ff 25 6c 5a 00 00    	jmp    *0x5a6c
    3f76:	68 b0 00 00 00       	push   $0xb0
    3f7b:	e9 80 fe ff ff       	jmp    3e00 <tinput_read+0x5b0>

00003f80 <fprintf@plt>:
    3f80:	ff 25 70 5a 00 00    	jmp    *0x5a70
    3f86:	68 b8 00 00 00       	push   $0xb8
    3f8b:	e9 70 fe ff ff       	jmp    3e00 <tinput_read+0x5b0>

00003f90 <fibril_mutex_unlock@plt>:
    3f90:	ff 25 74 5a 00 00    	jmp    *0x5a74
    3f96:	68 c0 00 00 00       	push   $0xc0
    3f9b:	e9 60 fe ff ff       	jmp    3e00 <tinput_read+0x5b0>

00003fa0 <str_dup@plt>:
    3fa0:	ff 25 78 5a 00 00    	jmp    *0x5a78
    3fa6:	68 c8 00 00 00       	push   $0xc8
    3fab:	e9 50 fe ff ff       	jmp    3e00 <tinput_read+0x5b0>

00003fb0 <clipboard_get_str@plt>:
    3fb0:	ff 25 7c 5a 00 00    	jmp    *0x5a7c
    3fb6:	68 d0 00 00 00       	push   $0xd0
    3fbb:	e9 40 fe ff ff       	jmp    3e00 <tinput_read+0x5b0>

00003fc0 <prodcons_initialize@plt>:
    3fc0:	ff 25 80 5a 00 00    	jmp    *0x5a80
    3fc6:	68 d8 00 00 00       	push   $0xd8
    3fcb:	e9 30 fe ff ff       	jmp    3e00 <tinput_read+0x5b0>

00003fd0 <realloc@plt>:
    3fd0:	ff 25 84 5a 00 00    	jmp    *0x5a84
    3fd6:	68 e0 00 00 00       	push   $0xe0
    3fdb:	e9 20 fe ff ff       	jmp    3e00 <tinput_read+0x5b0>

00003fe0 <str_cmp@plt>:
    3fe0:	ff 25 88 5a 00 00    	jmp    *0x5a88
    3fe6:	68 e8 00 00 00       	push   $0xe8
    3feb:	e9 10 fe ff ff       	jmp    3e00 <tinput_read+0x5b0>

00003ff0 <prodcons_consume@plt>:
    3ff0:	ff 25 8c 5a 00 00    	jmp    *0x5a8c
    3ff6:	68 f0 00 00 00       	push   $0xf0
    3ffb:	e9 00 fe ff ff       	jmp    3e00 <tinput_read+0x5b0>

00004000 <console_set_style@plt>:
    4000:	ff 25 90 5a 00 00    	jmp    *0x5a90
    4006:	68 f8 00 00 00       	push   $0xf8
    400b:	e9 f0 fd ff ff       	jmp    3e00 <tinput_read+0x5b0>

00004010 <fopen@plt>:
    4010:	ff 25 94 5a 00 00    	jmp    *0x5a94
    4016:	68 00 01 00 00       	push   $0x100
    401b:	e9 e0 fd ff ff       	jmp    3e00 <tinput_read+0x5b0>

00004020 <wstr_to_astr@plt>:
    4020:	ff 25 98 5a 00 00    	jmp    *0x5a98
    4026:	68 08 01 00 00       	push   $0x108
    402b:	e9 d0 fd ff ff       	jmp    3e00 <tinput_read+0x5b0>

00004030 <console_flush@plt>:
    4030:	ff 25 9c 5a 00 00    	jmp    *0x5a9c
    4036:	68 10 01 00 00       	push   $0x110
    403b:	e9 c0 fd ff ff       	jmp    3e00 <tinput_read+0x5b0>

00004040 <fsync@plt>:
    4040:	ff 25 a0 5a 00 00    	jmp    *0x5aa0
    4046:	68 18 01 00 00       	push   $0x118
    404b:	e9 b0 fd ff ff       	jmp    3e00 <tinput_read+0x5b0>

00004050 <str_size@plt>:
    4050:	ff 25 a4 5a 00 00    	jmp    *0x5aa4
    4056:	68 20 01 00 00       	push   $0x120
    405b:	e9 a0 fd ff ff       	jmp    3e00 <tinput_read+0x5b0>

00004060 <fputc@plt>:
    4060:	ff 25 a8 5a 00 00    	jmp    *0x5aa8
    4066:	68 28 01 00 00       	push   $0x128
    406b:	e9 90 fd ff ff       	jmp    3e00 <tinput_read+0x5b0>

00004070 <str_length@plt>:
    4070:	ff 25 ac 5a 00 00    	jmp    *0x5aac
    4076:	68 30 01 00 00       	push   $0x130
    407b:	e9 80 fd ff ff       	jmp    3e00 <tinput_read+0x5b0>

00004080 <console_set_pos@plt>:
    4080:	ff 25 b0 5a 00 00    	jmp    *0x5ab0
    4086:	68 38 01 00 00       	push   $0x138
    408b:	e9 70 fd ff ff       	jmp    3e00 <tinput_read+0x5b0>

00004090 <str_error@plt>:
    4090:	ff 25 b4 5a 00 00    	jmp    *0x5ab4
    4096:	68 40 01 00 00       	push   $0x140
    409b:	e9 60 fd ff ff       	jmp    3e00 <tinput_read+0x5b0>

000040a0 <kio_command@plt>:
    40a0:	ff 25 b8 5a 00 00    	jmp    *0x5ab8
    40a6:	68 48 01 00 00       	push   $0x148
    40ab:	e9 50 fd ff ff       	jmp    3e00 <tinput_read+0x5b0>

000040b0 <str_to_wstr@plt>:
    40b0:	ff 25 bc 5a 00 00    	jmp    *0x5abc
    40b6:	68 50 01 00 00       	push   $0x150
    40bb:	e9 40 fd ff ff       	jmp    3e00 <tinput_read+0x5b0>

000040c0 <prodcons_produce@plt>:
    40c0:	ff 25 c0 5a 00 00    	jmp    *0x5ac0
    40c6:	68 58 01 00 00       	push   $0x158
    40cb:	e9 30 fd ff ff       	jmp    3e00 <tinput_read+0x5b0>

000040d0 <fibril_create_generic@plt>:
    40d0:	ff 25 c4 5a 00 00    	jmp    *0x5ac4
    40d6:	68 60 01 00 00       	push   $0x160
    40db:	e9 20 fd ff ff       	jmp    3e00 <tinput_read+0x5b0>

000040e0 <fibril_add_ready@plt>:
    40e0:	ff 25 c8 5a 00 00    	jmp    *0x5ac8
    40e6:	68 68 01 00 00       	push   $0x168
    40eb:	e9 10 fd ff ff       	jmp    3e00 <tinput_read+0x5b0>

000040f0 <fileno@plt>:
    40f0:	ff 25 cc 5a 00 00    	jmp    *0x5acc
    40f6:	68 70 01 00 00       	push   $0x170
    40fb:	e9 00 fd ff ff       	jmp    3e00 <tinput_read+0x5b0>

00004100 <__syscall_fast@plt>:
    4100:	ff 25 d0 5a 00 00    	jmp    *0x5ad0
    4106:	68 78 01 00 00       	push   $0x178
    410b:	e9 f0 fc ff ff       	jmp    3e00 <tinput_read+0x5b0>

00004110 <str_lsize@plt>:
    4110:	ff 25 d4 5a 00 00    	jmp    *0x5ad4
    4116:	68 80 01 00 00       	push   $0x180
    411b:	e9 e0 fc ff ff       	jmp    3e00 <tinput_read+0x5b0>

00004120 <async_event_subscribe@plt>:
    4120:	ff 25 d8 5a 00 00    	jmp    *0x5ad8
    4126:	68 88 01 00 00       	push   $0x188
    412b:	e9 d0 fc ff ff       	jmp    3e00 <tinput_read+0x5b0>

00004130 <free@plt>:
    4130:	ff 25 dc 5a 00 00    	jmp    *0x5adc
    4136:	68 90 01 00 00       	push   $0x190
    413b:	e9 c0 fc ff ff       	jmp    3e00 <tinput_read+0x5b0>

00004140 <fibril_mutex_lock@plt>:
    4140:	ff 25 e0 5a 00 00    	jmp    *0x5ae0
    4146:	68 98 01 00 00       	push   $0x198
    414b:	e9 b0 fc ff ff       	jmp    3e00 <tinput_read+0x5b0>
