
mkmfs:     file format elf32-i386


Disassembly of section .init:

000010f4 <__entry>:
    10f4:	66 8c d0             	mov    %ss,%ax
    10f7:	8e d8                	mov    %eax,%ds
    10f9:	8e c0                	mov    %eax,%es
    10fb:	8e e0                	mov    %eax,%fs
    10fd:	b8 01 00 00 00       	mov    $0x1,%eax
    1102:	0f a2                	cpuid  
    1104:	0f ba e2 0b          	bt     $0xb,%edx
    1108:	73 0c                	jae    1116 <__entry+0x22>
    110a:	8d 05 58 5b 00 00    	lea    0x5b58,%eax
    1110:	c7 00 70 43 00 00    	movl   $0x4370,(%eax)
    1116:	6a 00                	push   $0x0
    1118:	6a 00                	push   $0x0
    111a:	89 e5                	mov    %esp,%ebp
    111c:	57                   	push   %edi
    111d:	e8 4e 30 00 00       	call   4170 <__main@plt>

Disassembly of section .text:

00001140 <write_block.constprop.2>:
    1140:	55                   	push   %ebp
    1141:	89 e5                	mov    %esp,%ebp
    1143:	57                   	push   %edi
    1144:	56                   	push   %esi
    1145:	53                   	push   %ebx
    1146:	83 ec 0c             	sub    $0xc,%esp
    1149:	89 cb                	mov    %ecx,%ebx
    114b:	8b 0d 5c 5b 00 00    	mov    0x5b5c,%ecx
    1151:	89 c6                	mov    %eax,%esi
    1153:	89 d7                	mov    %edx,%edi
    1155:	83 f9 03             	cmp    $0x3,%ecx
    1158:	74 32                	je     118c <write_block.constprop.2+0x4c>
    115a:	83 ec 0c             	sub    $0xc,%esp
    115d:	b8 01 00 00 00       	mov    $0x1,%eax
    1162:	d3 e0                	shl    %cl,%eax
    1164:	0f a5 f7             	shld   %cl,%esi,%edi
    1167:	53                   	push   %ebx
    1168:	50                   	push   %eax
    1169:	d3 e6                	shl    %cl,%esi
    116b:	f6 c1 20             	test   $0x20,%cl
    116e:	74 04                	je     1174 <write_block.constprop.2+0x34>
    1170:	89 f7                	mov    %esi,%edi
    1172:	31 f6                	xor    %esi,%esi
    1174:	a1 60 5b 00 00       	mov    0x5b60,%eax
    1179:	57                   	push   %edi
    117a:	56                   	push   %esi
    117b:	50                   	push   %eax
    117c:	e8 af 1f 00 00       	call   3130 <block_write_direct>
    1181:	83 c4 20             	add    $0x20,%esp
    1184:	8d 65 f4             	lea    -0xc(%ebp),%esp
    1187:	5b                   	pop    %ebx
    1188:	5e                   	pop    %esi
    1189:	5f                   	pop    %edi
    118a:	5d                   	pop    %ebp
    118b:	c3                   	ret    
    118c:	83 ec 0c             	sub    $0xc,%esp
    118f:	0f a4 c2 03          	shld   $0x3,%eax,%edx
    1193:	c1 e0 03             	shl    $0x3,%eax
    1196:	53                   	push   %ebx
    1197:	6a 04                	push   $0x4
    1199:	52                   	push   %edx
    119a:	50                   	push   %eax
    119b:	ff 35 60 5b 00 00    	pushl  0x5b60
    11a1:	e8 8a 1f 00 00       	call   3130 <block_write_direct>
    11a6:	83 c4 20             	add    $0x20,%esp
    11a9:	85 c0                	test   %eax,%eax
    11ab:	75 d7                	jne    1184 <write_block.constprop.2+0x44>
    11ad:	83 ec 0c             	sub    $0xc,%esp
    11b0:	81 c3 00 08 00 00    	add    $0x800,%ebx
    11b6:	0f a4 f7 03          	shld   $0x3,%esi,%edi
    11ba:	c1 e6 03             	shl    $0x3,%esi
    11bd:	53                   	push   %ebx
    11be:	83 c6 04             	add    $0x4,%esi
    11c1:	6a 04                	push   $0x4
    11c3:	83 d7 00             	adc    $0x0,%edi
    11c6:	eb ac                	jmp    1174 <write_block.constprop.2+0x34>
    11c8:	66 90                	xchg   %ax,%ax
    11ca:	66 90                	xchg   %ax,%ax
    11cc:	66 90                	xchg   %ax,%ax
    11ce:	66 90                	xchg   %ax,%ax

000011d0 <main>:
    11d0:	8d 4c 24 04          	lea    0x4(%esp),%ecx
    11d4:	83 e4 f0             	and    $0xfffffff0,%esp
    11d7:	ff 71 fc             	pushl  -0x4(%ecx)
    11da:	55                   	push   %ebp
    11db:	89 e5                	mov    %esp,%ebp
    11dd:	57                   	push   %edi
    11de:	56                   	push   %esi
    11df:	53                   	push   %ebx
    11e0:	51                   	push   %ecx
    11e1:	83 ec 78             	sub    $0x78,%esp
    11e4:	66 c7 45 d8 5a 4d    	movw   $0x4d5a,-0x28(%ebp)
    11ea:	8b 19                	mov    (%ecx),%ebx
    11ec:	8b 71 04             	mov    0x4(%ecx),%esi
    11ef:	c7 45 e0 03 00 00 00 	movl   $0x3,-0x20(%ebp)
    11f6:	c7 45 dc 00 10 00 00 	movl   $0x1000,-0x24(%ebp)
    11fd:	c7 45 d0 40 00 00 00 	movl   $0x40,-0x30(%ebp)
    1204:	c7 45 a0 00 00 00 00 	movl   $0x0,-0x60(%ebp)
    120b:	c7 45 a4 00 00 00 00 	movl   $0x0,-0x5c(%ebp)
    1212:	c6 45 e4 00          	movb   $0x0,-0x1c(%ebp)
    1216:	c7 45 cc 40 00 00 00 	movl   $0x40,-0x34(%ebp)
    121d:	83 fb 01             	cmp    $0x1,%ebx
    1220:	0f 84 fa 07 00 00    	je     1a20 <main+0x850>
    1226:	c7 05 54 5b 00 00 00 	movl   $0x0,0x5b54
    122d:	00 00 00 
    1230:	c7 45 98 00 00 00 00 	movl   $0x0,-0x68(%ebp)
    1237:	8d 7d 98             	lea    -0x68(%ebp),%edi
    123a:	83 ec 0c             	sub    $0xc,%esp
    123d:	57                   	push   %edi
    123e:	68 80 3e 00 00       	push   $0x3e80
    1243:	68 e0 36 00 00       	push   $0x36e0
    1248:	56                   	push   %esi
    1249:	53                   	push   %ebx
    124a:	e8 61 2f 00 00       	call   41b0 <getopt_long@plt>
    124f:	83 c4 20             	add    $0x20,%esp
    1252:	8d 50 cf             	lea    -0x31(%eax),%edx
    1255:	83 fa 3b             	cmp    $0x3b,%edx
    1258:	0f 87 d2 00 00 00    	ja     1330 <main+0x160>
    125e:	ff 24 95 88 3d 00 00 	jmp    *0x3d88(,%edx,4)
    1265:	8d 76 00             	lea    0x0(%esi),%esi
    1268:	66 c7 45 d8 7f 13    	movw   $0x137f,-0x28(%ebp)
    126e:	c7 45 dc 00 04 00 00 	movl   $0x400,-0x24(%ebp)
    1275:	c7 45 e0 01 00 00 00 	movl   $0x1,-0x20(%ebp)
    127c:	c7 45 cc 20 00 00 00 	movl   $0x20,-0x34(%ebp)
    1283:	c7 45 d0 10 00 00 00 	movl   $0x10,-0x30(%ebp)
    128a:	eb ae                	jmp    123a <main+0x6a>
    128c:	8d 74 26 00          	lea    0x0(%esi,%eiz,1),%esi
    1290:	66 c7 45 d8 68 24    	movw   $0x2468,-0x28(%ebp)
    1296:	c7 45 dc 00 04 00 00 	movl   $0x400,-0x24(%ebp)
    129d:	c7 45 e0 02 00 00 00 	movl   $0x2,-0x20(%ebp)
    12a4:	c7 45 cc 10 00 00 00 	movl   $0x10,-0x34(%ebp)
    12ab:	c7 45 d0 10 00 00 00 	movl   $0x10,-0x30(%ebp)
    12b2:	eb 86                	jmp    123a <main+0x6a>
    12b4:	8d 74 26 00          	lea    0x0(%esi,%eiz,1),%esi
    12b8:	8b 0d 50 5b 00 00    	mov    0x5b50,%ecx
    12be:	52                   	push   %edx
    12bf:	6a 0a                	push   $0xa
    12c1:	6a 00                	push   $0x0
    12c3:	51                   	push   %ecx
    12c4:	e8 c7 2f 00 00       	call   4290 <strtol@plt>
    12c9:	83 c4 10             	add    $0x10,%esp
    12cc:	89 45 dc             	mov    %eax,-0x24(%ebp)
    12cf:	e9 66 ff ff ff       	jmp    123a <main+0x6a>
    12d4:	8d 74 26 00          	lea    0x0(%esi,%eiz,1),%esi
    12d8:	c6 45 e4 01          	movb   $0x1,-0x1c(%ebp)
    12dc:	c7 45 d0 20 00 00 00 	movl   $0x20,-0x30(%ebp)
    12e3:	e9 52 ff ff ff       	jmp    123a <main+0x6a>
    12e8:	50                   	push   %eax
    12e9:	a1 50 5b 00 00       	mov    0x5b50,%eax
    12ee:	6a 0a                	push   $0xa
    12f0:	6a 00                	push   $0x0
    12f2:	50                   	push   %eax
    12f3:	e8 98 2f 00 00       	call   4290 <strtol@plt>
    12f8:	89 45 a0             	mov    %eax,-0x60(%ebp)
    12fb:	83 c4 10             	add    $0x10,%esp
    12fe:	c1 f8 1f             	sar    $0x1f,%eax
    1301:	89 45 a4             	mov    %eax,-0x5c(%ebp)
    1304:	e9 31 ff ff ff       	jmp    123a <main+0x6a>
    1309:	8d b4 26 00 00 00 00 	lea    0x0(%esi,%eiz,1),%esi
    1310:	83 ec 0c             	sub    $0xc,%esp
    1313:	68 34 38 00 00       	push   $0x3834
    1318:	e8 73 2e 00 00       	call   4190 <printf@plt>
    131d:	c7 04 24 00 00 00 00 	movl   $0x0,(%esp)
    1324:	e8 37 30 00 00       	call   4360 <exit@plt>
    1329:	8d b4 26 00 00 00 00 	lea    0x0(%esi,%eiz,1),%esi
    1330:	40                   	inc    %eax
    1331:	0f 85 03 ff ff ff    	jne    123a <main+0x6a>
    1337:	8b 45 dc             	mov    -0x24(%ebp),%eax
    133a:	8d 90 00 fc ff ff    	lea    -0x400(%eax),%edx
    1340:	81 fa 00 0c 00 00    	cmp    $0xc00,%edx
    1346:	0f 87 12 09 00 00    	ja     1c5e <main+0xa8e>
    134c:	8d 50 ff             	lea    -0x1(%eax),%edx
    134f:	85 c2                	test   %eax,%edx
    1351:	0f 85 07 09 00 00    	jne    1c5e <main+0xa8e>
    1357:	3d 00 04 00 00       	cmp    $0x400,%eax
    135c:	74 6f                	je     13cd <main+0x1fd>
    135e:	83 7d e0 03          	cmpl   $0x3,-0x20(%ebp)
    1362:	0f 85 dd 08 00 00    	jne    1c45 <main+0xa75>
    1368:	80 7d e4 00          	cmpb   $0x0,-0x1c(%ebp)
    136c:	0f 85 a3 00 00 00    	jne    1415 <main+0x245>
    1372:	3d 00 10 00 00       	cmp    $0x1000,%eax
    1377:	0f 94 c0             	sete   %al
    137a:	25 ff 00 00 00       	and    $0xff,%eax
    137f:	83 c0 02             	add    $0x2,%eax
    1382:	a3 5c 5b 00 00       	mov    %eax,0x5b5c
    1387:	a1 54 5b 00 00       	mov    0x5b54,%eax
    138c:	8b 1c 86             	mov    (%esi,%eax,4),%ebx
    138f:	85 db                	test   %ebx,%ebx
    1391:	0f 84 79 ff ff ff    	je     1310 <main+0x140>
    1397:	50                   	push   %eax
    1398:	6a 00                	push   $0x0
    139a:	68 60 5b 00 00       	push   $0x5b60
    139f:	53                   	push   %ebx
    13a0:	e8 9b 2e 00 00       	call   4240 <loc_service_get_id@plt>
    13a5:	83 c4 10             	add    $0x10,%esp
    13a8:	85 c0                	test   %eax,%eax
    13aa:	74 33                	je     13df <main+0x20f>
    13ac:	50                   	push   %eax
    13ad:	50                   	push   %eax
    13ae:	53                   	push   %ebx
    13af:	68 48 3a 00 00       	push   $0x3a48
    13b4:	e8 d7 2d 00 00       	call   4190 <printf@plt>
    13b9:	83 c4 10             	add    $0x10,%esp
    13bc:	b8 02 00 00 00       	mov    $0x2,%eax
    13c1:	8d 65 f0             	lea    -0x10(%ebp),%esp
    13c4:	59                   	pop    %ecx
    13c5:	5b                   	pop    %ebx
    13c6:	5e                   	pop    %esi
    13c7:	5f                   	pop    %edi
    13c8:	5d                   	pop    %ebp
    13c9:	8d 61 fc             	lea    -0x4(%ecx),%esp
    13cc:	c3                   	ret    
    13cd:	83 7d e0 03          	cmpl   $0x3,-0x20(%ebp)
    13d1:	74 3c                	je     140f <main+0x23f>
    13d3:	c7 05 5c 5b 00 00 01 	movl   $0x1,0x5b5c
    13da:	00 00 00 
    13dd:	eb a8                	jmp    1387 <main+0x1b7>
    13df:	50                   	push   %eax
    13e0:	50                   	push   %eax
    13e1:	68 00 08 00 00       	push   $0x800
    13e6:	ff 35 60 5b 00 00    	pushl  0x5b60
    13ec:	e8 6f 0a 00 00       	call   1e60 <block_init>
    13f1:	83 c4 10             	add    $0x10,%esp
    13f4:	85 c0                	test   %eax,%eax
    13f6:	74 36                	je     142e <main+0x25e>
    13f8:	83 ec 0c             	sub    $0xc,%esp
    13fb:	68 70 3a 00 00       	push   $0x3a70
    1400:	e8 8b 2d 00 00       	call   4190 <printf@plt>
    1405:	83 c4 10             	add    $0x10,%esp
    1408:	b8 02 00 00 00       	mov    $0x2,%eax
    140d:	eb b2                	jmp    13c1 <main+0x1f1>
    140f:	80 7d e4 00          	cmpb   $0x0,-0x1c(%ebp)
    1413:	74 be                	je     13d3 <main+0x203>
    1415:	83 ec 0c             	sub    $0xc,%esp
    1418:	68 00 3a 00 00       	push   $0x3a00
    141d:	e8 6e 2d 00 00       	call   4190 <printf@plt>
    1422:	c7 04 24 00 00 00 00 	movl   $0x0,(%esp)
    1429:	e8 32 2f 00 00       	call   4360 <exit@plt>
    142e:	50                   	push   %eax
    142f:	50                   	push   %eax
    1430:	8d 45 9c             	lea    -0x64(%ebp),%eax
    1433:	50                   	push   %eax
    1434:	ff 35 60 5b 00 00    	pushl  0x5b60
    143a:	e8 81 1e 00 00       	call   32c0 <block_get_bsize>
    143f:	83 c4 10             	add    $0x10,%esp
    1442:	85 c0                	test   %eax,%eax
    1444:	74 1a                	je     1460 <main+0x290>
    1446:	83 ec 0c             	sub    $0xc,%esp
    1449:	68 98 3a 00 00       	push   $0x3a98
    144e:	e8 3d 2d 00 00       	call   4190 <printf@plt>
    1453:	83 c4 10             	add    $0x10,%esp
    1456:	b8 02 00 00 00       	mov    $0x2,%eax
    145b:	e9 61 ff ff ff       	jmp    13c1 <main+0x1f1>
    1460:	8d 45 b0             	lea    -0x50(%ebp),%eax
    1463:	57                   	push   %edi
    1464:	57                   	push   %edi
    1465:	50                   	push   %eax
    1466:	ff 35 60 5b 00 00    	pushl  0x5b60
    146c:	e8 df 1e 00 00       	call   3350 <block_get_nblocks>
    1471:	83 c4 10             	add    $0x10,%esp
    1474:	85 c0                	test   %eax,%eax
    1476:	74 33                	je     14ab <main+0x2db>
    1478:	83 ec 0c             	sub    $0xc,%esp
    147b:	68 c8 3a 00 00       	push   $0x3ac8
    1480:	e8 0b 2d 00 00       	call   4190 <printf@plt>
    1485:	83 c4 10             	add    $0x10,%esp
    1488:	81 7d 9c 00 02 00 00 	cmpl   $0x200,-0x64(%ebp)
    148f:	74 30                	je     14c1 <main+0x2f1>
    1491:	83 ec 0c             	sub    $0xc,%esp
    1494:	68 28 3b 00 00       	push   $0x3b28
    1499:	e8 f2 2c 00 00       	call   4190 <printf@plt>
    149e:	83 c4 10             	add    $0x10,%esp
    14a1:	b8 02 00 00 00       	mov    $0x2,%eax
    14a6:	e9 16 ff ff ff       	jmp    13c1 <main+0x1f1>
    14ab:	56                   	push   %esi
    14ac:	ff 75 b4             	pushl  -0x4c(%ebp)
    14af:	ff 75 b0             	pushl  -0x50(%ebp)
    14b2:	68 00 3b 00 00       	push   $0x3b00
    14b7:	e8 d4 2c 00 00       	call   4190 <printf@plt>
    14bc:	83 c4 10             	add    $0x10,%esp
    14bf:	eb c7                	jmp    1488 <main+0x2b8>
    14c1:	83 ec 0c             	sub    $0xc,%esp
    14c4:	8b 55 b4             	mov    -0x4c(%ebp),%edx
    14c7:	8b 45 b0             	mov    -0x50(%ebp),%eax
    14ca:	0f ac d0 01          	shrd   $0x1,%edx,%eax
    14ce:	68 5c 3b 00 00       	push   $0x3b5c
    14d3:	89 45 b0             	mov    %eax,-0x50(%ebp)
    14d6:	d1 ea                	shr    %edx
    14d8:	89 55 b4             	mov    %edx,-0x4c(%ebp)
    14db:	e8 b0 2c 00 00       	call   4190 <printf@plt>
    14e0:	c7 04 24 e9 36 00 00 	movl   $0x36e9,(%esp)
    14e7:	e8 a4 2c 00 00       	call   4190 <printf@plt>
    14ec:	83 c4 10             	add    $0x10,%esp
    14ef:	80 7d e4 00          	cmpb   $0x0,-0x1c(%ebp)
    14f3:	74 13                	je     1508 <main+0x338>
    14f5:	b8 78 24 00 00       	mov    $0x2478,%eax
    14fa:	83 7d e0 01          	cmpl   $0x1,-0x20(%ebp)
    14fe:	0f 84 37 07 00 00    	je     1c3b <main+0xa6b>
    1504:	66 89 45 d8          	mov    %ax,-0x28(%ebp)
    1508:	8b 45 e0             	mov    -0x20(%ebp),%eax
    150b:	89 45 80             	mov    %eax,-0x80(%ebp)
    150e:	48                   	dec    %eax
    150f:	0f 84 d9 04 00 00    	je     19ee <main+0x81e>
    1515:	83 7d 80 02          	cmpl   $0x2,-0x80(%ebp)
    1519:	0f 84 9b 04 00 00    	je     19ba <main+0x7ea>
    151f:	8b 4d dc             	mov    -0x24(%ebp),%ecx
    1522:	8b 5d b4             	mov    -0x4c(%ebp),%ebx
    1525:	89 c8                	mov    %ecx,%eax
    1527:	89 4d 94             	mov    %ecx,-0x6c(%ebp)
    152a:	c1 e8 02             	shr    $0x2,%eax
    152d:	89 c2                	mov    %eax,%edx
    152f:	0f af d0             	imul   %eax,%edx
    1532:	8d 74 10 07          	lea    0x7(%eax,%edx,1),%esi
    1536:	89 c8                	mov    %ecx,%eax
    1538:	0f af c6             	imul   %esi,%eax
    153b:	8b 4d b0             	mov    -0x50(%ebp),%ecx
    153e:	89 45 d4             	mov    %eax,-0x2c(%ebp)
    1541:	83 fb 00             	cmp    $0x0,%ebx
    1544:	76 05                	jbe    154b <main+0x37b>
    1546:	83 c9 ff             	or     $0xffffffff,%ecx
    1549:	31 db                	xor    %ebx,%ebx
    154b:	89 4d a8             	mov    %ecx,-0x58(%ebp)
    154e:	89 5d ac             	mov    %ebx,-0x54(%ebp)
    1551:	83 7d 80 03          	cmpl   $0x3,-0x80(%ebp)
    1555:	75 39                	jne    1590 <main+0x3c0>
    1557:	31 d2                	xor    %edx,%edx
    1559:	b8 ff ff ff 7f       	mov    $0x7fffffff,%eax
    155e:	f7 75 94             	divl   -0x6c(%ebp)
    1561:	39 c6                	cmp    %eax,%esi
    1563:	76 07                	jbe    156c <main+0x39c>
    1565:	c7 45 d4 ff ff ff 7f 	movl   $0x7fffffff,-0x2c(%ebp)
    156c:	8b 7d 94             	mov    -0x6c(%ebp),%edi
    156f:	31 d2                	xor    %edx,%edx
    1571:	89 f8                	mov    %edi,%eax
    1573:	52                   	push   %edx
    1574:	c1 e8 06             	shr    $0x6,%eax
    1577:	89 45 cc             	mov    %eax,-0x34(%ebp)
    157a:	89 f8                	mov    %edi,%eax
    157c:	c1 e8 0a             	shr    $0xa,%eax
    157f:	50                   	push   %eax
    1580:	53                   	push   %ebx
    1581:	51                   	push   %ecx
    1582:	e8 e9 2c 00 00       	call   4270 <__udivdi3@plt>
    1587:	83 c4 10             	add    $0x10,%esp
    158a:	89 45 a8             	mov    %eax,-0x58(%ebp)
    158d:	89 55 ac             	mov    %edx,-0x54(%ebp)
    1590:	8b 7d a4             	mov    -0x5c(%ebp),%edi
    1593:	8b 75 a0             	mov    -0x60(%ebp),%esi
    1596:	89 f8                	mov    %edi,%eax
    1598:	09 f0                	or     %esi,%eax
    159a:	75 16                	jne    15b2 <main+0x3e2>
    159c:	6a 00                	push   $0x0
    159e:	6a 03                	push   $0x3
    15a0:	ff 75 b4             	pushl  -0x4c(%ebp)
    15a3:	ff 75 b0             	pushl  -0x50(%ebp)
    15a6:	e8 c5 2c 00 00       	call   4270 <__udivdi3@plt>
    15ab:	83 c4 10             	add    $0x10,%esp
    15ae:	89 c6                	mov    %eax,%esi
    15b0:	89 d7                	mov    %edx,%edi
    15b2:	8b 5d cc             	mov    -0x34(%ebp),%ebx
    15b5:	89 da                	mov    %ebx,%edx
    15b7:	89 5d 88             	mov    %ebx,-0x78(%ebp)
    15ba:	c1 fa 1f             	sar    $0x1f,%edx
    15bd:	52                   	push   %edx
    15be:	89 55 8c             	mov    %edx,-0x74(%ebp)
    15c1:	53                   	push   %ebx
    15c2:	57                   	push   %edi
    15c3:	56                   	push   %esi
    15c4:	e8 97 2c 00 00       	call   4260 <__umoddi3@plt>
    15c9:	83 c4 10             	add    $0x10,%esp
    15cc:	09 c2                	or     %eax,%edx
    15ce:	74 31                	je     1601 <main+0x431>
    15d0:	ff 75 8c             	pushl  -0x74(%ebp)
    15d3:	ff 75 88             	pushl  -0x78(%ebp)
    15d6:	57                   	push   %edi
    15d7:	56                   	push   %esi
    15d8:	e8 93 2c 00 00       	call   4270 <__udivdi3@plt>
    15dd:	83 c4 10             	add    $0x10,%esp
    15e0:	89 c6                	mov    %eax,%esi
    15e2:	89 d7                	mov    %edx,%edi
    15e4:	83 c6 01             	add    $0x1,%esi
    15e7:	8b 4d 8c             	mov    -0x74(%ebp),%ecx
    15ea:	83 d7 00             	adc    $0x0,%edi
    15ed:	89 f8                	mov    %edi,%eax
    15ef:	0f af ce             	imul   %esi,%ecx
    15f2:	0f af c3             	imul   %ebx,%eax
    15f5:	01 c1                	add    %eax,%ecx
    15f7:	89 d8                	mov    %ebx,%eax
    15f9:	f7 e6                	mul    %esi
    15fb:	89 d7                	mov    %edx,%edi
    15fd:	89 c6                	mov    %eax,%esi
    15ff:	01 cf                	add    %ecx,%edi
    1601:	83 7d 80 02          	cmpl   $0x2,-0x80(%ebp)
    1605:	0f 8f 9c 03 00 00    	jg     19a7 <main+0x7d7>
    160b:	83 ff 00             	cmp    $0x0,%edi
    160e:	77 08                	ja     1618 <main+0x448>
    1610:	81 fe ff ff 00 00    	cmp    $0xffff,%esi
    1616:	76 07                	jbe    161f <main+0x44f>
    1618:	be ff ff 00 00       	mov    $0xffff,%esi
    161d:	31 ff                	xor    %edi,%edi
    161f:	8b 45 94             	mov    -0x6c(%ebp),%eax
    1622:	31 d2                	xor    %edx,%edx
    1624:	c1 e0 03             	shl    $0x3,%eax
    1627:	52                   	push   %edx
    1628:	89 75 a0             	mov    %esi,-0x60(%ebp)
    162b:	50                   	push   %eax
    162c:	89 7d a4             	mov    %edi,-0x5c(%ebp)
    162f:	57                   	push   %edi
    1630:	89 45 80             	mov    %eax,-0x80(%ebp)
    1633:	56                   	push   %esi
    1634:	89 55 84             	mov    %edx,-0x7c(%ebp)
    1637:	e8 24 2c 00 00       	call   4260 <__umoddi3@plt>
    163c:	83 c4 10             	add    $0x10,%esp
    163f:	09 d0                	or     %edx,%eax
    1641:	ff 75 84             	pushl  -0x7c(%ebp)
    1644:	ff 75 80             	pushl  -0x80(%ebp)
    1647:	0f 95 c3             	setne  %bl
    164a:	57                   	push   %edi
    164b:	56                   	push   %esi
    164c:	e8 1f 2c 00 00       	call   4270 <__udivdi3@plt>
    1651:	83 c4 10             	add    $0x10,%esp
    1654:	ff 75 8c             	pushl  -0x74(%ebp)
    1657:	81 e3 ff 00 00 00    	and    $0xff,%ebx
    165d:	ff 75 88             	pushl  -0x78(%ebp)
    1660:	8d 0c 03             	lea    (%ebx,%eax,1),%ecx
    1663:	57                   	push   %edi
    1664:	89 4d b8             	mov    %ecx,-0x48(%ebp)
    1667:	89 8d 78 ff ff ff    	mov    %ecx,-0x88(%ebp)
    166d:	56                   	push   %esi
    166e:	e8 fd 2b 00 00       	call   4270 <__udivdi3@plt>
    1673:	83 c4 10             	add    $0x10,%esp
    1676:	8b 7d ac             	mov    -0x54(%ebp),%edi
    1679:	ff 75 84             	pushl  -0x7c(%ebp)
    167c:	ff 75 80             	pushl  -0x80(%ebp)
    167f:	8b 75 a8             	mov    -0x58(%ebp),%esi
    1682:	57                   	push   %edi
    1683:	89 c3                	mov    %eax,%ebx
    1685:	56                   	push   %esi
    1686:	89 45 c4             	mov    %eax,-0x3c(%ebp)
    1689:	e8 d2 2b 00 00       	call   4260 <__umoddi3@plt>
    168e:	83 c4 10             	add    $0x10,%esp
    1691:	09 d0                	or     %edx,%eax
    1693:	ff 75 84             	pushl  -0x7c(%ebp)
    1696:	ff 75 80             	pushl  -0x80(%ebp)
    1699:	0f 95 c0             	setne  %al
    169c:	25 ff 00 00 00       	and    $0xff,%eax
    16a1:	57                   	push   %edi
    16a2:	89 45 88             	mov    %eax,-0x78(%ebp)
    16a5:	56                   	push   %esi
    16a6:	e8 c5 2b 00 00       	call   4270 <__udivdi3@plt>
    16ab:	8b 8d 78 ff ff ff    	mov    -0x88(%ebp),%ecx
    16b1:	03 45 88             	add    -0x78(%ebp),%eax
    16b4:	83 c4 10             	add    $0x10,%esp
    16b7:	89 45 bc             	mov    %eax,-0x44(%ebp)
    16ba:	c7 45 c8 00 00 00 00 	movl   $0x0,-0x38(%ebp)
    16c1:	8d 44 18 02          	lea    0x2(%eax,%ebx,1),%eax
    16c5:	01 c1                	add    %eax,%ecx
    16c7:	83 ff 00             	cmp    $0x0,%edi
    16ca:	89 4d c0             	mov    %ecx,-0x40(%ebp)
    16cd:	77 2e                	ja     16fd <main+0x52d>
    16cf:	39 ce                	cmp    %ecx,%esi
    16d1:	77 2a                	ja     16fd <main+0x52d>
    16d3:	83 ec 0c             	sub    $0xc,%esp
    16d6:	68 8c 3b 00 00       	push   $0x3b8c
    16db:	e8 b0 2a 00 00       	call   4190 <printf@plt>
    16e0:	83 c4 10             	add    $0x10,%esp
    16e3:	83 ec 0c             	sub    $0xc,%esp
    16e6:	68 20 3c 00 00       	push   $0x3c20
    16eb:	e8 a0 2a 00 00       	call   4190 <printf@plt>
    16f0:	83 c4 10             	add    $0x10,%esp
    16f3:	b8 02 00 00 00       	mov    $0x2,%eax
    16f8:	e9 c4 fc ff ff       	jmp    13c1 <main+0x1f1>
    16fd:	51                   	push   %ecx
    16fe:	51                   	push   %ecx
    16ff:	ff 75 94             	pushl  -0x6c(%ebp)
    1702:	68 04 37 00 00       	push   $0x3704
    1707:	e8 84 2a 00 00       	call   4190 <printf@plt>
    170c:	5b                   	pop    %ebx
    170d:	5e                   	pop    %esi
    170e:	ff 75 a0             	pushl  -0x60(%ebp)
    1711:	68 1a 37 00 00       	push   $0x371a
    1716:	e8 75 2a 00 00       	call   4190 <printf@plt>
    171b:	5f                   	pop    %edi
    171c:	58                   	pop    %eax
    171d:	ff 75 a8             	pushl  -0x58(%ebp)
    1720:	68 2c 37 00 00       	push   $0x372c
    1725:	e8 66 2a 00 00       	call   4190 <printf@plt>
    172a:	58                   	pop    %eax
    172b:	5a                   	pop    %edx
    172c:	ff 75 c4             	pushl  -0x3c(%ebp)
    172f:	68 b4 3b 00 00       	push   $0x3bb4
    1734:	e8 57 2a 00 00       	call   4190 <printf@plt>
    1739:	59                   	pop    %ecx
    173a:	5b                   	pop    %ebx
    173b:	ff 75 b8             	pushl  -0x48(%ebp)
    173e:	68 d8 3b 00 00       	push   $0x3bd8
    1743:	e8 48 2a 00 00       	call   4190 <printf@plt>
    1748:	5e                   	pop    %esi
    1749:	5f                   	pop    %edi
    174a:	ff 75 bc             	pushl  -0x44(%ebp)
    174d:	68 fc 3b 00 00       	push   $0x3bfc
    1752:	e8 39 2a 00 00       	call   4190 <printf@plt>
    1757:	58                   	pop    %eax
    1758:	5a                   	pop    %edx
    1759:	ff 75 c0             	pushl  -0x40(%ebp)
    175c:	68 3d 37 00 00       	push   $0x373d
    1761:	e8 2a 2a 00 00       	call   4190 <printf@plt>
    1766:	59                   	pop    %ecx
    1767:	5b                   	pop    %ebx
    1768:	ff 75 d4             	pushl  -0x2c(%ebp)
    176b:	68 5a 37 00 00       	push   $0x375a
    1770:	e8 1b 2a 00 00       	call   4190 <printf@plt>
    1775:	83 c4 10             	add    $0x10,%esp
    1778:	b8 dd 36 00 00       	mov    $0x36dd,%eax
    177d:	80 7d e4 00          	cmpb   $0x0,-0x1c(%ebp)
    1781:	74 05                	je     1788 <main+0x5b8>
    1783:	b8 d9 36 00 00       	mov    $0x36d9,%eax
    1788:	52                   	push   %edx
    1789:	52                   	push   %edx
    178a:	50                   	push   %eax
    178b:	68 75 37 00 00       	push   $0x3775
    1790:	e8 fb 29 00 00       	call   4190 <printf@plt>
    1795:	83 c4 10             	add    $0x10,%esp
    1798:	83 7d e0 03          	cmpl   $0x3,-0x20(%ebp)
    179c:	0f 84 18 04 00 00    	je     1bba <main+0x9ea>
    17a2:	83 ec 0c             	sub    $0xc,%esp
    17a5:	68 00 04 00 00       	push   $0x400
    17aa:	e8 71 2a 00 00       	call   4220 <malloc@plt>
    17af:	83 c4 10             	add    $0x10,%esp
    17b2:	89 c3                	mov    %eax,%ebx
    17b4:	85 c0                	test   %eax,%eax
    17b6:	0f 84 27 ff ff ff    	je     16e3 <main+0x513>
    17bc:	8b 45 a0             	mov    -0x60(%ebp),%eax
    17bf:	89 d9                	mov    %ebx,%ecx
    17c1:	66 89 03             	mov    %ax,(%ebx)
    17c4:	8b 45 a8             	mov    -0x58(%ebp),%eax
    17c7:	66 89 43 02          	mov    %ax,0x2(%ebx)
    17cb:	89 43 14             	mov    %eax,0x14(%ebx)
    17ce:	8b 45 b8             	mov    -0x48(%ebp),%eax
    17d1:	31 d2                	xor    %edx,%edx
    17d3:	66 89 43 04          	mov    %ax,0x4(%ebx)
    17d7:	8b 45 bc             	mov    -0x44(%ebp),%eax
    17da:	66 89 43 06          	mov    %ax,0x6(%ebx)
    17de:	8b 45 c0             	mov    -0x40(%ebp),%eax
    17e1:	66 89 43 08          	mov    %ax,0x8(%ebx)
    17e5:	8b 45 c8             	mov    -0x38(%ebp),%eax
    17e8:	66 89 43 0a          	mov    %ax,0xa(%ebx)
    17ec:	8b 45 d4             	mov    -0x2c(%ebp),%eax
    17ef:	89 43 0c             	mov    %eax,0xc(%ebx)
    17f2:	8b 45 d8             	mov    -0x28(%ebp),%eax
    17f5:	66 89 43 10          	mov    %ax,0x10(%ebx)
    17f9:	66 c7 43 12 01 00    	movw   $0x1,0x12(%ebx)
    17ff:	b8 01 00 00 00       	mov    $0x1,%eax
    1804:	e8 37 f9 ff ff       	call   1140 <write_block.constprop.2>
    1809:	83 ec 0c             	sub    $0xc,%esp
    180c:	53                   	push   %ebx
    180d:	89 c6                	mov    %eax,%esi
    180f:	e8 7c 2b 00 00       	call   4390 <free@plt>
    1814:	83 c4 10             	add    $0x10,%esp
    1817:	85 f6                	test   %esi,%esi
    1819:	0f 85 c4 fe ff ff    	jne    16e3 <main+0x513>
    181f:	83 ec 0c             	sub    $0xc,%esp
    1822:	68 8e 37 00 00       	push   $0x378e
    1827:	e8 64 29 00 00       	call   4190 <printf@plt>
    182c:	8b 7d b8             	mov    -0x48(%ebp),%edi
    182f:	8b 45 dc             	mov    -0x24(%ebp),%eax
    1832:	0f af c7             	imul   %edi,%eax
    1835:	8b 5d bc             	mov    -0x44(%ebp),%ebx
    1838:	89 04 24             	mov    %eax,(%esp)
    183b:	89 7d 88             	mov    %edi,-0x78(%ebp)
    183e:	89 5d 80             	mov    %ebx,-0x80(%ebp)
    1841:	e8 da 29 00 00       	call   4220 <malloc@plt>
    1846:	89 c6                	mov    %eax,%esi
    1848:	8b 45 dc             	mov    -0x24(%ebp),%eax
    184b:	0f af c3             	imul   %ebx,%eax
    184e:	89 04 24             	mov    %eax,(%esp)
    1851:	e8 ca 29 00 00       	call   4220 <malloc@plt>
    1856:	83 c4 10             	add    $0x10,%esp
    1859:	89 45 94             	mov    %eax,-0x6c(%ebp)
    185c:	85 f6                	test   %esi,%esi
    185e:	0f 84 14 01 00 00    	je     1978 <main+0x7a8>
    1864:	85 c0                	test   %eax,%eax
    1866:	0f 84 0c 01 00 00    	je     1978 <main+0x7a8>
    186c:	50                   	push   %eax
    186d:	8b 45 dc             	mov    -0x24(%ebp),%eax
    1870:	0f af c7             	imul   %edi,%eax
    1873:	50                   	push   %eax
    1874:	68 ff 00 00 00       	push   $0xff
    1879:	56                   	push   %esi
    187a:	e8 81 2a 00 00       	call   4300 <memset@plt>
    187f:	8b 45 dc             	mov    -0x24(%ebp),%eax
    1882:	83 c4 0c             	add    $0xc,%esp
    1885:	0f af c3             	imul   %ebx,%eax
    1888:	50                   	push   %eax
    1889:	68 ff 00 00 00       	push   $0xff
    188e:	ff 75 94             	pushl  -0x6c(%ebp)
    1891:	e8 6a 2a 00 00       	call   4300 <memset@plt>
    1896:	8b 45 a0             	mov    -0x60(%ebp),%eax
    1899:	83 c0 01             	add    $0x1,%eax
    189c:	8b 55 a4             	mov    -0x5c(%ebp),%edx
    189f:	83 d2 00             	adc    $0x0,%edx
    18a2:	89 85 78 ff ff ff    	mov    %eax,-0x88(%ebp)
    18a8:	89 95 7c ff ff ff    	mov    %edx,-0x84(%ebp)
    18ae:	83 c4 10             	add    $0x10,%esp
    18b1:	bf 02 00 00 00       	mov    $0x2,%edi
    18b6:	31 d2                	xor    %edx,%edx
    18b8:	8b 9d 7c ff ff ff    	mov    -0x84(%ebp),%ebx
    18be:	8b 8d 78 ff ff ff    	mov    -0x88(%ebp),%ecx
    18c4:	39 da                	cmp    %ebx,%edx
    18c6:	72 61                	jb     1929 <main+0x759>
    18c8:	76 5b                	jbe    1925 <main+0x755>
    18ca:	8b 45 c0             	mov    -0x40(%ebp),%eax
    18cd:	8b 4d a8             	mov    -0x58(%ebp),%ecx
    18d0:	31 d2                	xor    %edx,%edx
    18d2:	8b 5d ac             	mov    -0x54(%ebp),%ebx
    18d5:	29 c1                	sub    %eax,%ecx
    18d7:	bf 02 00 00 00       	mov    $0x2,%edi
    18dc:	19 d3                	sbb    %edx,%ebx
    18de:	89 8d 78 ff ff ff    	mov    %ecx,-0x88(%ebp)
    18e4:	89 9d 7c ff ff ff    	mov    %ebx,-0x84(%ebp)
    18ea:	31 d2                	xor    %edx,%edx
    18ec:	8b 9d 7c ff ff ff    	mov    -0x84(%ebp),%ebx
    18f2:	8b 8d 78 ff ff ff    	mov    -0x88(%ebp),%ecx
    18f8:	39 da                	cmp    %ebx,%edx
    18fa:	72 55                	jb     1951 <main+0x781>
    18fc:	76 4f                	jbe    194d <main+0x77d>
    18fe:	31 ff                	xor    %edi,%edi
    1900:	8b 5d 94             	mov    -0x6c(%ebp),%ebx
    1903:	39 7d 88             	cmp    %edi,-0x78(%ebp)
    1906:	0f 84 39 01 00 00    	je     1a45 <main+0x875>
    190c:	8b 4d dc             	mov    -0x24(%ebp),%ecx
    190f:	31 d2                	xor    %edx,%edx
    1911:	0f af cf             	imul   %edi,%ecx
    1914:	8d 47 02             	lea    0x2(%edi),%eax
    1917:	01 f1                	add    %esi,%ecx
    1919:	e8 22 f8 ff ff       	call   1140 <write_block.constprop.2>
    191e:	85 c0                	test   %eax,%eax
    1920:	75 6b                	jne    198d <main+0x7bd>
    1922:	47                   	inc    %edi
    1923:	eb de                	jmp    1903 <main+0x733>
    1925:	39 cf                	cmp    %ecx,%edi
    1927:	73 a1                	jae    18ca <main+0x6fa>
    1929:	89 fa                	mov    %edi,%edx
    192b:	89 f8                	mov    %edi,%eax
    192d:	b9 20 00 00 00       	mov    $0x20,%ecx
    1932:	bb 01 00 00 00       	mov    $0x1,%ebx
    1937:	c1 fa 1f             	sar    $0x1f,%edx
    193a:	47                   	inc    %edi
    193b:	f7 f9                	idiv   %ecx
    193d:	88 d1                	mov    %dl,%cl
    193f:	d3 e3                	shl    %cl,%ebx
    1941:	89 da                	mov    %ebx,%edx
    1943:	f7 d2                	not    %edx
    1945:	21 14 86             	and    %edx,(%esi,%eax,4)
    1948:	e9 69 ff ff ff       	jmp    18b6 <main+0x6e6>
    194d:	39 cf                	cmp    %ecx,%edi
    194f:	73 ad                	jae    18fe <main+0x72e>
    1951:	89 fa                	mov    %edi,%edx
    1953:	89 f8                	mov    %edi,%eax
    1955:	b9 20 00 00 00       	mov    $0x20,%ecx
    195a:	bb 01 00 00 00       	mov    $0x1,%ebx
    195f:	c1 fa 1f             	sar    $0x1f,%edx
    1962:	47                   	inc    %edi
    1963:	f7 f9                	idiv   %ecx
    1965:	88 d1                	mov    %dl,%cl
    1967:	d3 e3                	shl    %cl,%ebx
    1969:	89 da                	mov    %ebx,%edx
    196b:	8b 4d 94             	mov    -0x6c(%ebp),%ecx
    196e:	f7 d2                	not    %edx
    1970:	21 14 81             	and    %edx,(%ecx,%eax,4)
    1973:	e9 72 ff ff ff       	jmp    18ea <main+0x71a>
    1978:	83 ec 0c             	sub    $0xc,%esp
    197b:	56                   	push   %esi
    197c:	e8 0f 2a 00 00       	call   4390 <free@plt>
    1981:	59                   	pop    %ecx
    1982:	ff 75 94             	pushl  -0x6c(%ebp)
    1985:	e8 06 2a 00 00       	call   4390 <free@plt>
    198a:	83 c4 10             	add    $0x10,%esp
    198d:	83 ec 0c             	sub    $0xc,%esp
    1990:	68 50 3c 00 00       	push   $0x3c50
    1995:	e8 f6 27 00 00       	call   4190 <printf@plt>
    199a:	83 c4 10             	add    $0x10,%esp
    199d:	b8 02 00 00 00       	mov    $0x2,%eax
    19a2:	e9 1a fa ff ff       	jmp    13c1 <main+0x1f1>
    19a7:	83 ff 00             	cmp    $0x0,%edi
    19aa:	0f 86 6f fc ff ff    	jbe    161f <main+0x44f>
    19b0:	83 ce ff             	or     $0xffffffff,%esi
    19b3:	31 ff                	xor    %edi,%edi
    19b5:	e9 65 fc ff ff       	jmp    161f <main+0x44f>
    19ba:	8b 45 dc             	mov    -0x24(%ebp),%eax
    19bd:	89 c1                	mov    %eax,%ecx
    19bf:	89 45 94             	mov    %eax,-0x6c(%ebp)
    19c2:	d1 e8                	shr    %eax
    19c4:	89 c2                	mov    %eax,%edx
    19c6:	0f af d0             	imul   %eax,%edx
    19c9:	8d 44 10 07          	lea    0x7(%eax,%edx,1),%eax
    19cd:	8b 55 b0             	mov    -0x50(%ebp),%edx
    19d0:	0f af c1             	imul   %ecx,%eax
    19d3:	89 45 d4             	mov    %eax,-0x2c(%ebp)
    19d6:	8b 45 b4             	mov    -0x4c(%ebp),%eax
    19d9:	83 f8 00             	cmp    $0x0,%eax
    19dc:	76 05                	jbe    19e3 <main+0x813>
    19de:	83 ca ff             	or     $0xffffffff,%edx
    19e1:	31 c0                	xor    %eax,%eax
    19e3:	89 55 a8             	mov    %edx,-0x58(%ebp)
    19e6:	89 45 ac             	mov    %eax,-0x54(%ebp)
    19e9:	e9 a2 fb ff ff       	jmp    1590 <main+0x3c0>
    19ee:	8b 45 b4             	mov    -0x4c(%ebp),%eax
    19f1:	8b 55 b0             	mov    -0x50(%ebp),%edx
    19f4:	83 f8 00             	cmp    $0x0,%eax
    19f7:	77 08                	ja     1a01 <main+0x831>
    19f9:	81 fa ff ff 00 00    	cmp    $0xffff,%edx
    19ff:	76 07                	jbe    1a08 <main+0x838>
    1a01:	ba ff ff 00 00       	mov    $0xffff,%edx
    1a06:	31 c0                	xor    %eax,%eax
    1a08:	89 45 ac             	mov    %eax,-0x54(%ebp)
    1a0b:	8b 45 dc             	mov    -0x24(%ebp),%eax
    1a0e:	89 55 a8             	mov    %edx,-0x58(%ebp)
    1a11:	c7 45 d4 00 1c 08 10 	movl   $0x10081c00,-0x2c(%ebp)
    1a18:	89 45 94             	mov    %eax,-0x6c(%ebp)
    1a1b:	e9 70 fb ff ff       	jmp    1590 <main+0x3c0>
    1a20:	83 ec 0c             	sub    $0xc,%esp
    1a23:	68 d0 37 00 00       	push   $0x37d0
    1a28:	e8 63 27 00 00       	call   4190 <printf@plt>
    1a2d:	c7 04 24 00 38 00 00 	movl   $0x3800,(%esp)
    1a34:	e8 57 27 00 00       	call   4190 <printf@plt>
    1a39:	c7 04 24 00 00 00 00 	movl   $0x0,(%esp)
    1a40:	e8 1b 29 00 00       	call   4360 <exit@plt>
    1a45:	8b 45 88             	mov    -0x78(%ebp),%eax
    1a48:	31 ff                	xor    %edi,%edi
    1a4a:	83 c0 02             	add    $0x2,%eax
    1a4d:	89 45 94             	mov    %eax,-0x6c(%ebp)
    1a50:	eb 1d                	jmp    1a6f <main+0x89f>
    1a52:	8b 4d dc             	mov    -0x24(%ebp),%ecx
    1a55:	8b 45 94             	mov    -0x6c(%ebp),%eax
    1a58:	0f af cf             	imul   %edi,%ecx
    1a5b:	01 f8                	add    %edi,%eax
    1a5d:	01 d9                	add    %ebx,%ecx
    1a5f:	31 d2                	xor    %edx,%edx
    1a61:	e8 da f6 ff ff       	call   1140 <write_block.constprop.2>
    1a66:	85 c0                	test   %eax,%eax
    1a68:	0f 85 1f ff ff ff    	jne    198d <main+0x7bd>
    1a6e:	47                   	inc    %edi
    1a6f:	39 7d 80             	cmp    %edi,-0x80(%ebp)
    1a72:	75 de                	jne    1a52 <main+0x882>
    1a74:	83 ec 0c             	sub    $0xc,%esp
    1a77:	89 5d 94             	mov    %ebx,-0x6c(%ebp)
    1a7a:	56                   	push   %esi
    1a7b:	e8 10 29 00 00       	call   4390 <free@plt>
    1a80:	58                   	pop    %eax
    1a81:	ff 75 94             	pushl  -0x6c(%ebp)
    1a84:	e8 07 29 00 00       	call   4390 <free@plt>
    1a89:	c7 04 24 18 3d 00 00 	movl   $0x3d18,(%esp)
    1a90:	e8 fb 26 00 00       	call   4190 <printf@plt>
    1a95:	5a                   	pop    %edx
    1a96:	ff 75 dc             	pushl  -0x24(%ebp)
    1a99:	8b 75 b8             	mov    -0x48(%ebp),%esi
    1a9c:	8b 45 c4             	mov    -0x3c(%ebp),%eax
    1a9f:	03 75 bc             	add    -0x44(%ebp),%esi
    1aa2:	89 45 88             	mov    %eax,-0x78(%ebp)
    1aa5:	e8 76 27 00 00       	call   4220 <malloc@plt>
    1aaa:	83 c6 02             	add    $0x2,%esi
    1aad:	83 c4 10             	add    $0x10,%esp
    1ab0:	89 c3                	mov    %eax,%ebx
    1ab2:	85 c0                	test   %eax,%eax
    1ab4:	0f 84 c9 01 00 00    	je     1c83 <main+0xab3>
    1aba:	50                   	push   %eax
    1abb:	89 f7                	mov    %esi,%edi
    1abd:	ff 75 dc             	pushl  -0x24(%ebp)
    1ac0:	c1 ff 1f             	sar    $0x1f,%edi
    1ac3:	6a 00                	push   $0x0
    1ac5:	53                   	push   %ebx
    1ac6:	e8 35 28 00 00       	call   4300 <memset@plt>
    1acb:	83 c4 10             	add    $0x10,%esp
    1ace:	c7 45 94 00 00 00 00 	movl   $0x0,-0x6c(%ebp)
    1ad5:	eb 1c                	jmp    1af3 <main+0x923>
    1ad7:	89 f0                	mov    %esi,%eax
    1ad9:	89 fa                	mov    %edi,%edx
    1adb:	89 d9                	mov    %ebx,%ecx
    1add:	e8 5e f6 ff ff       	call   1140 <write_block.constprop.2>
    1ae2:	83 c6 01             	add    $0x1,%esi
    1ae5:	83 d7 00             	adc    $0x0,%edi
    1ae8:	85 c0                	test   %eax,%eax
    1aea:	0f 85 87 01 00 00    	jne    1c77 <main+0xaa7>
    1af0:	ff 45 94             	incl   -0x6c(%ebp)
    1af3:	8b 4d 94             	mov    -0x6c(%ebp),%ecx
    1af6:	39 4d 88             	cmp    %ecx,-0x78(%ebp)
    1af9:	75 dc                	jne    1ad7 <main+0x907>
    1afb:	83 ec 0c             	sub    $0xc,%esp
    1afe:	53                   	push   %ebx
    1aff:	e8 8c 28 00 00       	call   4390 <free@plt>
    1b04:	c7 04 24 40 3d 00 00 	movl   $0x3d40,(%esp)
    1b0b:	e8 80 26 00 00       	call   4190 <printf@plt>
    1b10:	83 c4 10             	add    $0x10,%esp
    1b13:	83 7d e0 01          	cmpl   $0x1,-0x20(%ebp)
    1b17:	0f 84 80 01 00 00    	je     1c9d <main+0xacd>
    1b1d:	8b 45 b8             	mov    -0x48(%ebp),%eax
    1b20:	83 ec 0c             	sub    $0xc,%esp
    1b23:	03 45 bc             	add    -0x44(%ebp),%eax
    1b26:	6a 00                	push   $0x0
    1b28:	8d 70 02             	lea    0x2(%eax),%esi
    1b2b:	e8 e0 27 00 00       	call   4310 <time@plt>
    1b30:	89 c7                	mov    %eax,%edi
    1b32:	58                   	pop    %eax
    1b33:	ff 75 dc             	pushl  -0x24(%ebp)
    1b36:	e8 e5 26 00 00       	call   4220 <malloc@plt>
    1b3b:	83 c4 10             	add    $0x10,%esp
    1b3e:	89 c3                	mov    %eax,%ebx
    1b40:	85 c0                	test   %eax,%eax
    1b42:	74 5c                	je     1ba0 <main+0x9d0>
    1b44:	50                   	push   %eax
    1b45:	ff 75 dc             	pushl  -0x24(%ebp)
    1b48:	6a 00                	push   $0x0
    1b4a:	53                   	push   %ebx
    1b4b:	e8 b0 27 00 00       	call   4300 <memset@plt>
    1b50:	8b 45 c0             	mov    -0x40(%ebp),%eax
    1b53:	89 f2                	mov    %esi,%edx
    1b55:	89 43 18             	mov    %eax,0x18(%ebx)
    1b58:	c1 fa 1f             	sar    $0x1f,%edx
    1b5b:	89 f0                	mov    %esi,%eax
    1b5d:	89 d9                	mov    %ebx,%ecx
    1b5f:	66 c7 03 00 40       	movw   $0x4000,(%ebx)
    1b64:	66 c7 43 04 00 00    	movw   $0x0,0x4(%ebx)
    1b6a:	66 c7 43 06 00 00    	movw   $0x0,0x6(%ebx)
    1b70:	c7 43 08 80 00 00 00 	movl   $0x80,0x8(%ebx)
    1b77:	89 7b 10             	mov    %edi,0x10(%ebx)
    1b7a:	89 7b 0c             	mov    %edi,0xc(%ebx)
    1b7d:	89 7b 14             	mov    %edi,0x14(%ebx)
    1b80:	66 c7 43 02 02 00    	movw   $0x2,0x2(%ebx)
    1b86:	e8 b5 f5 ff ff       	call   1140 <write_block.constprop.2>
    1b8b:	89 1c 24             	mov    %ebx,(%esp)
    1b8e:	89 c6                	mov    %eax,%esi
    1b90:	e8 fb 27 00 00       	call   4390 <free@plt>
    1b95:	83 c4 10             	add    $0x10,%esp
    1b98:	85 f6                	test   %esi,%esi
    1b9a:	0f 84 89 01 00 00    	je     1d29 <main+0xb59>
    1ba0:	83 ec 0c             	sub    $0xc,%esp
    1ba3:	68 b4 3c 00 00       	push   $0x3cb4
    1ba8:	e8 e3 25 00 00       	call   4190 <printf@plt>
    1bad:	83 c4 10             	add    $0x10,%esp
    1bb0:	b8 02 00 00 00       	mov    $0x2,%eax
    1bb5:	e9 07 f8 ff ff       	jmp    13c1 <main+0x1f1>
    1bba:	83 ec 0c             	sub    $0xc,%esp
    1bbd:	68 00 04 00 00       	push   $0x400
    1bc2:	e8 59 26 00 00       	call   4220 <malloc@plt>
    1bc7:	83 c4 10             	add    $0x10,%esp
    1bca:	89 c3                	mov    %eax,%ebx
    1bcc:	85 c0                	test   %eax,%eax
    1bce:	0f 84 0f fb ff ff    	je     16e3 <main+0x513>
    1bd4:	8b 45 a0             	mov    -0x60(%ebp),%eax
    1bd7:	83 ec 0c             	sub    $0xc,%esp
    1bda:	89 03                	mov    %eax,(%ebx)
    1bdc:	8b 45 a8             	mov    -0x58(%ebp),%eax
    1bdf:	89 43 14             	mov    %eax,0x14(%ebx)
    1be2:	8b 45 b8             	mov    -0x48(%ebp),%eax
    1be5:	66 89 43 06          	mov    %ax,0x6(%ebx)
    1be9:	8b 45 bc             	mov    -0x44(%ebp),%eax
    1bec:	66 89 43 08          	mov    %ax,0x8(%ebx)
    1bf0:	8b 45 c0             	mov    -0x40(%ebp),%eax
    1bf3:	66 89 43 0a          	mov    %ax,0xa(%ebx)
    1bf7:	8b 45 c8             	mov    -0x38(%ebp),%eax
    1bfa:	66 89 43 0c          	mov    %ax,0xc(%ebx)
    1bfe:	8b 45 d4             	mov    -0x2c(%ebp),%eax
    1c01:	89 43 10             	mov    %eax,0x10(%ebx)
    1c04:	8b 45 d8             	mov    -0x28(%ebp),%eax
    1c07:	66 89 43 18          	mov    %ax,0x18(%ebx)
    1c0b:	8b 45 dc             	mov    -0x24(%ebp),%eax
    1c0e:	66 89 43 1c          	mov    %ax,0x1c(%ebx)
    1c12:	c6 43 1e 03          	movb   $0x3,0x1e(%ebx)
    1c16:	53                   	push   %ebx
    1c17:	6a 02                	push   $0x2
    1c19:	6a 00                	push   $0x0
    1c1b:	6a 02                	push   $0x2
    1c1d:	ff 35 60 5b 00 00    	pushl  0x5b60
    1c23:	e8 08 15 00 00       	call   3130 <block_write_direct>
    1c28:	83 c4 14             	add    $0x14,%esp
    1c2b:	53                   	push   %ebx
    1c2c:	89 c6                	mov    %eax,%esi
    1c2e:	e8 5d 27 00 00       	call   4390 <free@plt>
    1c33:	83 c4 10             	add    $0x10,%esp
    1c36:	e9 dc fb ff ff       	jmp    1817 <main+0x647>
    1c3b:	b8 8f 13 00 00       	mov    $0x138f,%eax
    1c40:	e9 bf f8 ff ff       	jmp    1504 <main+0x334>
    1c45:	83 ec 0c             	sub    $0xc,%esp
    1c48:	68 bc 39 00 00       	push   $0x39bc
    1c4d:	e8 3e 25 00 00       	call   4190 <printf@plt>
    1c52:	c7 04 24 00 00 00 00 	movl   $0x0,(%esp)
    1c59:	e8 02 27 00 00       	call   4360 <exit@plt>
    1c5e:	83 ec 0c             	sub    $0xc,%esp
    1c61:	68 98 39 00 00       	push   $0x3998
    1c66:	e8 25 25 00 00       	call   4190 <printf@plt>
    1c6b:	c7 04 24 00 00 00 00 	movl   $0x0,(%esp)
    1c72:	e8 e9 26 00 00       	call   4360 <exit@plt>
    1c77:	83 ec 0c             	sub    $0xc,%esp
    1c7a:	53                   	push   %ebx
    1c7b:	e8 10 27 00 00       	call   4390 <free@plt>
    1c80:	83 c4 10             	add    $0x10,%esp
    1c83:	83 ec 0c             	sub    $0xc,%esp
    1c86:	68 80 3c 00 00       	push   $0x3c80
    1c8b:	e8 00 25 00 00       	call   4190 <printf@plt>
    1c90:	83 c4 10             	add    $0x10,%esp
    1c93:	b8 02 00 00 00       	mov    $0x2,%eax
    1c98:	e9 24 f7 ff ff       	jmp    13c1 <main+0x1f1>
    1c9d:	83 ec 0c             	sub    $0xc,%esp
    1ca0:	8b 75 b8             	mov    -0x48(%ebp),%esi
    1ca3:	03 75 bc             	add    -0x44(%ebp),%esi
    1ca6:	6a 00                	push   $0x0
    1ca8:	e8 63 26 00 00       	call   4310 <time@plt>
    1cad:	c7 04 24 00 04 00 00 	movl   $0x400,(%esp)
    1cb4:	89 c7                	mov    %eax,%edi
    1cb6:	e8 65 25 00 00       	call   4220 <malloc@plt>
    1cbb:	83 c6 02             	add    $0x2,%esi
    1cbe:	83 c4 10             	add    $0x10,%esp
    1cc1:	89 c3                	mov    %eax,%ebx
    1cc3:	85 c0                	test   %eax,%eax
    1cc5:	0f 84 d5 fe ff ff    	je     1ba0 <main+0x9d0>
    1ccb:	50                   	push   %eax
    1ccc:	68 00 04 00 00       	push   $0x400
    1cd1:	6a 00                	push   $0x0
    1cd3:	53                   	push   %ebx
    1cd4:	e8 27 26 00 00       	call   4300 <memset@plt>
    1cd9:	83 c4 10             	add    $0x10,%esp
    1cdc:	80 7d e4 01          	cmpb   $0x1,-0x1c(%ebp)
    1ce0:	19 c0                	sbb    %eax,%eax
    1ce2:	89 f2                	mov    %esi,%edx
    1ce4:	83 e0 e0             	and    $0xffffffe0,%eax
    1ce7:	89 d9                	mov    %ebx,%ecx
    1ce9:	83 c0 40             	add    $0x40,%eax
    1cec:	66 c7 03 00 40       	movw   $0x4000,(%ebx)
    1cf1:	89 43 04             	mov    %eax,0x4(%ebx)
    1cf4:	8b 45 c0             	mov    -0x40(%ebp),%eax
    1cf7:	66 89 43 0e          	mov    %ax,0xe(%ebx)
    1cfb:	66 c7 43 02 00 00    	movw   $0x0,0x2(%ebx)
    1d01:	89 f0                	mov    %esi,%eax
    1d03:	c6 43 0c 00          	movb   $0x0,0xc(%ebx)
    1d07:	c1 fa 1f             	sar    $0x1f,%edx
    1d0a:	89 7b 08             	mov    %edi,0x8(%ebx)
    1d0d:	c6 43 0d 02          	movb   $0x2,0xd(%ebx)
    1d11:	e8 2a f4 ff ff       	call   1140 <write_block.constprop.2>
    1d16:	83 ec 0c             	sub    $0xc,%esp
    1d19:	53                   	push   %ebx
    1d1a:	89 c6                	mov    %eax,%esi
    1d1c:	e8 6f 26 00 00       	call   4390 <free@plt>
    1d21:	83 c4 10             	add    $0x10,%esp
    1d24:	e9 6f fe ff ff       	jmp    1b98 <main+0x9c8>
    1d29:	83 ec 0c             	sub    $0xc,%esp
    1d2c:	8b 75 c0             	mov    -0x40(%ebp),%esi
    1d2f:	ff 75 dc             	pushl  -0x24(%ebp)
    1d32:	e8 e9 24 00 00       	call   4220 <malloc@plt>
    1d37:	83 c4 0c             	add    $0xc,%esp
    1d3a:	ff 75 dc             	pushl  -0x24(%ebp)
    1d3d:	6a 00                	push   $0x0
    1d3f:	50                   	push   %eax
    1d40:	89 c3                	mov    %eax,%ebx
    1d42:	e8 b9 25 00 00       	call   4300 <memset@plt>
    1d47:	83 c4 10             	add    $0x10,%esp
    1d4a:	83 7d e0 03          	cmpl   $0x3,-0x20(%ebp)
    1d4e:	74 75                	je     1dc5 <main+0xbf5>
    1d50:	66 c7 03 01 00       	movw   $0x1,(%ebx)
    1d55:	50                   	push   %eax
    1d56:	8d 43 02             	lea    0x2(%ebx),%eax
    1d59:	6a 02                	push   $0x2
    1d5b:	68 80 3d 00 00       	push   $0x3d80
    1d60:	50                   	push   %eax
    1d61:	e8 aa 24 00 00       	call   4210 <memcpy@plt>
    1d66:	8b 45 d0             	mov    -0x30(%ebp),%eax
    1d69:	01 d8                	add    %ebx,%eax
    1d6b:	83 c4 0c             	add    $0xc,%esp
    1d6e:	83 c0 02             	add    $0x2,%eax
    1d71:	66 c7 40 fe 01 00    	movw   $0x1,-0x2(%eax)
    1d77:	6a 03                	push   $0x3
    1d79:	68 83 3d 00 00       	push   $0x3d83
    1d7e:	50                   	push   %eax
    1d7f:	e8 8c 24 00 00       	call   4210 <memcpy@plt>
    1d84:	83 c4 10             	add    $0x10,%esp
    1d87:	89 f2                	mov    %esi,%edx
    1d89:	89 d9                	mov    %ebx,%ecx
    1d8b:	c1 fa 1f             	sar    $0x1f,%edx
    1d8e:	89 f0                	mov    %esi,%eax
    1d90:	e8 ab f3 ff ff       	call   1140 <write_block.constprop.2>
    1d95:	83 ec 0c             	sub    $0xc,%esp
    1d98:	89 45 94             	mov    %eax,-0x6c(%ebp)
    1d9b:	53                   	push   %ebx
    1d9c:	e8 ef 25 00 00       	call   4390 <free@plt>
    1da1:	8b 45 94             	mov    -0x6c(%ebp),%eax
    1da4:	83 c4 10             	add    $0x10,%esp
    1da7:	85 c0                	test   %eax,%eax
    1da9:	74 55                	je     1e00 <main+0xc30>
    1dab:	83 ec 0c             	sub    $0xc,%esp
    1dae:	68 e4 3c 00 00       	push   $0x3ce4
    1db3:	e8 d8 23 00 00       	call   4190 <printf@plt>
    1db8:	83 c4 10             	add    $0x10,%esp
    1dbb:	b8 02 00 00 00       	mov    $0x2,%eax
    1dc0:	e9 fc f5 ff ff       	jmp    13c1 <main+0x1f1>
    1dc5:	c7 03 01 00 00 00    	movl   $0x1,(%ebx)
    1dcb:	8d 43 04             	lea    0x4(%ebx),%eax
    1dce:	57                   	push   %edi
    1dcf:	6a 02                	push   $0x2
    1dd1:	68 80 3d 00 00       	push   $0x3d80
    1dd6:	50                   	push   %eax
    1dd7:	e8 34 24 00 00       	call   4210 <memcpy@plt>
    1ddc:	8b 55 d0             	mov    -0x30(%ebp),%edx
    1ddf:	01 da                	add    %ebx,%edx
    1de1:	83 c4 0c             	add    $0xc,%esp
    1de4:	83 c2 04             	add    $0x4,%edx
    1de7:	c7 42 fc 01 00 00 00 	movl   $0x1,-0x4(%edx)
    1dee:	6a 03                	push   $0x3
    1df0:	68 83 3d 00 00       	push   $0x3d83
    1df5:	52                   	push   %edx
    1df6:	e8 15 24 00 00       	call   4210 <memcpy@plt>
    1dfb:	83 c4 10             	add    $0x10,%esp
    1dfe:	eb 87                	jmp    1d87 <main+0xbb7>
    1e00:	83 ec 0c             	sub    $0xc,%esp
    1e03:	89 45 94             	mov    %eax,-0x6c(%ebp)
    1e06:	ff 35 60 5b 00 00    	pushl  0x5b60
    1e0c:	e8 df 06 00 00       	call   24f0 <block_fini>
    1e11:	83 c4 10             	add    $0x10,%esp
    1e14:	8b 45 94             	mov    -0x6c(%ebp),%eax
    1e17:	e9 a5 f5 ff ff       	jmp    13c1 <main+0x1f1>
    1e1c:	66 90                	xchg   %ax,%ax
    1e1e:	66 90                	xchg   %ax,%ax

00001e20 <cache_key_hash>:
    1e20:	55                   	push   %ebp
    1e21:	89 e5                	mov    %esp,%ebp
    1e23:	8b 45 08             	mov    0x8(%ebp),%eax
    1e26:	5d                   	pop    %ebp
    1e27:	8b 00                	mov    (%eax),%eax
    1e29:	c3                   	ret    
    1e2a:	8d b6 00 00 00 00    	lea    0x0(%esi),%esi

00001e30 <cache_hash>:
    1e30:	55                   	push   %ebp
    1e31:	89 e5                	mov    %esp,%ebp
    1e33:	8b 45 08             	mov    0x8(%ebp),%eax
    1e36:	5d                   	pop    %ebp
    1e37:	8b 40 e0             	mov    -0x20(%eax),%eax
    1e3a:	c3                   	ret    
    1e3b:	90                   	nop
    1e3c:	8d 74 26 00          	lea    0x0(%esi,%eiz,1),%esi

00001e40 <cache_key_equal>:
    1e40:	55                   	push   %ebp
    1e41:	89 e5                	mov    %esp,%ebp
    1e43:	8b 45 0c             	mov    0xc(%ebp),%eax
    1e46:	8b 4d 08             	mov    0x8(%ebp),%ecx
    1e49:	5d                   	pop    %ebp
    1e4a:	8b 50 e0             	mov    -0x20(%eax),%edx
    1e4d:	8b 40 e4             	mov    -0x1c(%eax),%eax
    1e50:	33 41 04             	xor    0x4(%ecx),%eax
    1e53:	33 11                	xor    (%ecx),%edx
    1e55:	09 c2                	or     %eax,%edx
    1e57:	0f 94 c0             	sete   %al
    1e5a:	c3                   	ret    
    1e5b:	90                   	nop
    1e5c:	8d 74 26 00          	lea    0x0(%esi,%eiz,1),%esi

00001e60 <block_init>:
    1e60:	55                   	push   %ebp
    1e61:	89 e5                	mov    %esp,%ebp
    1e63:	57                   	push   %edi
    1e64:	56                   	push   %esi
    1e65:	53                   	push   %ebx
    1e66:	83 ec 30             	sub    $0x30,%esp
    1e69:	8b 5d 08             	mov    0x8(%ebp),%ebx
    1e6c:	6a 01                	push   $0x1
    1e6e:	68 21 66 93 ed       	push   $0xed936621
    1e73:	53                   	push   %ebx
    1e74:	e8 07 23 00 00       	call   4180 <loc_service_connect@plt>
    1e79:	83 c4 10             	add    $0x10,%esp
    1e7c:	85 c0                	test   %eax,%eax
    1e7e:	0f 84 95 01 00 00    	je     2019 <block_init+0x1b9>
    1e84:	89 c7                	mov    %eax,%edi
    1e86:	50                   	push   %eax
    1e87:	50                   	push   %eax
    1e88:	8d 45 d8             	lea    -0x28(%ebp),%eax
    1e8b:	50                   	push   %eax
    1e8c:	57                   	push   %edi
    1e8d:	e8 9e 23 00 00       	call   4230 <bd_open@plt>
    1e92:	83 c4 10             	add    $0x10,%esp
    1e95:	89 c6                	mov    %eax,%esi
    1e97:	85 c0                	test   %eax,%eax
    1e99:	0f 85 31 01 00 00    	jne    1fd0 <block_init+0x170>
    1e9f:	8d 45 dc             	lea    -0x24(%ebp),%eax
    1ea2:	56                   	push   %esi
    1ea3:	56                   	push   %esi
    1ea4:	50                   	push   %eax
    1ea5:	8b 45 d8             	mov    -0x28(%ebp),%eax
    1ea8:	50                   	push   %eax
    1ea9:	e8 72 24 00 00       	call   4320 <bd_get_block_size@plt>
    1eae:	83 c4 10             	add    $0x10,%esp
    1eb1:	89 c6                	mov    %eax,%esi
    1eb3:	85 c0                	test   %eax,%eax
    1eb5:	0f 85 f0 00 00 00    	jne    1fab <block_init+0x14b>
    1ebb:	8d 45 e0             	lea    -0x20(%ebp),%eax
    1ebe:	8b 4d d8             	mov    -0x28(%ebp),%ecx
    1ec1:	52                   	push   %edx
    1ec2:	52                   	push   %edx
    1ec3:	50                   	push   %eax
    1ec4:	51                   	push   %ecx
    1ec5:	e8 26 23 00 00       	call   41f0 <bd_get_num_blocks@plt>
    1eca:	83 c4 10             	add    $0x10,%esp
    1ecd:	89 c6                	mov    %eax,%esi
    1ecf:	85 c0                	test   %eax,%eax
    1ed1:	0f 85 d4 00 00 00    	jne    1fab <block_init+0x14b>
    1ed7:	83 ec 0c             	sub    $0xc,%esp
    1eda:	8b 55 e4             	mov    -0x1c(%ebp),%edx
    1edd:	8b 4d d8             	mov    -0x28(%ebp),%ecx
    1ee0:	8b 45 e0             	mov    -0x20(%ebp),%eax
    1ee3:	89 55 d4             	mov    %edx,-0x2c(%ebp)
    1ee6:	8b 55 dc             	mov    -0x24(%ebp),%edx
    1ee9:	6a 30                	push   $0x30
    1eeb:	89 4d c8             	mov    %ecx,-0x38(%ebp)
    1eee:	89 45 d0             	mov    %eax,-0x30(%ebp)
    1ef1:	89 55 cc             	mov    %edx,-0x34(%ebp)
    1ef4:	e8 27 23 00 00       	call   4220 <malloc@plt>
    1ef9:	83 c4 10             	add    $0x10,%esp
    1efc:	85 c0                	test   %eax,%eax
    1efe:	0f 84 1a 01 00 00    	je     201e <block_init+0x1be>
    1f04:	8b 4d c8             	mov    -0x38(%ebp),%ecx
    1f07:	8b 55 cc             	mov    -0x34(%ebp),%edx
    1f0a:	89 48 10             	mov    %ecx,0x10(%eax)
    1f0d:	89 50 28             	mov    %edx,0x28(%eax)
    1f10:	83 ec 0c             	sub    $0xc,%esp
    1f13:	8b 55 d0             	mov    -0x30(%ebp),%edx
    1f16:	8b 4d d4             	mov    -0x2c(%ebp),%ecx
    1f19:	89 50 20             	mov    %edx,0x20(%eax)
    1f1c:	c7 00 00 00 00 00    	movl   $0x0,(%eax)
    1f22:	c7 40 04 00 00 00 00 	movl   $0x0,0x4(%eax)
    1f29:	89 58 08             	mov    %ebx,0x8(%eax)
    1f2c:	89 78 0c             	mov    %edi,0xc(%eax)
    1f2f:	c7 40 14 00 00 00 00 	movl   $0x0,0x14(%eax)
    1f36:	c7 40 18 00 00 00 00 	movl   $0x0,0x18(%eax)
    1f3d:	c7 40 1c 00 00 00 00 	movl   $0x0,0x1c(%eax)
    1f44:	89 48 24             	mov    %ecx,0x24(%eax)
    1f47:	c7 40 2c 00 00 00 00 	movl   $0x0,0x2c(%eax)
    1f4e:	89 45 d0             	mov    %eax,-0x30(%ebp)
    1f51:	68 a4 5a 00 00       	push   $0x5aa4
    1f56:	e8 45 24 00 00       	call   43a0 <fibril_mutex_lock@plt>
    1f5b:	8b 15 a0 5a 00 00    	mov    0x5aa0,%edx
    1f61:	83 c4 10             	add    $0x10,%esp
    1f64:	8b 45 d0             	mov    -0x30(%ebp),%eax
    1f67:	81 fa 9c 5a 00 00    	cmp    $0x5a9c,%edx
    1f6d:	75 14                	jne    1f83 <block_init+0x123>
    1f6f:	eb 77                	jmp    1fe8 <block_init+0x188>
    1f71:	8d b4 26 00 00 00 00 	lea    0x0(%esi,%eiz,1),%esi
    1f78:	8b 52 04             	mov    0x4(%edx),%edx
    1f7b:	81 fa 9c 5a 00 00    	cmp    $0x5a9c,%edx
    1f81:	74 65                	je     1fe8 <block_init+0x188>
    1f83:	3b 5a 08             	cmp    0x8(%edx),%ebx
    1f86:	75 f0                	jne    1f78 <block_init+0x118>
    1f88:	83 ec 0c             	sub    $0xc,%esp
    1f8b:	89 45 d0             	mov    %eax,-0x30(%ebp)
    1f8e:	be f7 ff ff ff       	mov    $0xfffffff7,%esi
    1f93:	68 a4 5a 00 00       	push   $0x5aa4
    1f98:	e8 33 23 00 00       	call   42d0 <fibril_mutex_unlock@plt>
    1f9d:	8b 45 d0             	mov    -0x30(%ebp),%eax
    1fa0:	89 04 24             	mov    %eax,(%esp)
    1fa3:	e8 e8 23 00 00       	call   4390 <free@plt>
    1fa8:	83 c4 10             	add    $0x10,%esp
    1fab:	83 ec 0c             	sub    $0xc,%esp
    1fae:	8b 45 d8             	mov    -0x28(%ebp),%eax
    1fb1:	50                   	push   %eax
    1fb2:	e8 49 22 00 00       	call   4200 <bd_close@plt>
    1fb7:	89 3c 24             	mov    %edi,(%esp)
    1fba:	e8 e1 21 00 00       	call   41a0 <async_hangup@plt>
    1fbf:	83 c4 10             	add    $0x10,%esp
    1fc2:	8d 65 f4             	lea    -0xc(%ebp),%esp
    1fc5:	89 f0                	mov    %esi,%eax
    1fc7:	5b                   	pop    %ebx
    1fc8:	5e                   	pop    %esi
    1fc9:	5f                   	pop    %edi
    1fca:	5d                   	pop    %ebp
    1fcb:	c3                   	ret    
    1fcc:	8d 74 26 00          	lea    0x0(%esi,%eiz,1),%esi
    1fd0:	83 ec 0c             	sub    $0xc,%esp
    1fd3:	57                   	push   %edi
    1fd4:	e8 c7 21 00 00       	call   41a0 <async_hangup@plt>
    1fd9:	83 c4 10             	add    $0x10,%esp
    1fdc:	8d 65 f4             	lea    -0xc(%ebp),%esp
    1fdf:	89 f0                	mov    %esi,%eax
    1fe1:	5b                   	pop    %ebx
    1fe2:	5e                   	pop    %esi
    1fe3:	5f                   	pop    %edi
    1fe4:	5d                   	pop    %ebp
    1fe5:	c3                   	ret    
    1fe6:	66 90                	xchg   %ax,%ax
    1fe8:	8b 15 9c 5a 00 00    	mov    0x5a9c,%edx
    1fee:	83 ec 0c             	sub    $0xc,%esp
    1ff1:	c7 40 04 9c 5a 00 00 	movl   $0x5a9c,0x4(%eax)
    1ff8:	89 10                	mov    %edx,(%eax)
    1ffa:	89 42 04             	mov    %eax,0x4(%edx)
    1ffd:	68 a4 5a 00 00       	push   $0x5aa4
    2002:	a3 9c 5a 00 00       	mov    %eax,0x5a9c
    2007:	e8 c4 22 00 00       	call   42d0 <fibril_mutex_unlock@plt>
    200c:	83 c4 10             	add    $0x10,%esp
    200f:	8d 65 f4             	lea    -0xc(%ebp),%esp
    2012:	89 f0                	mov    %esi,%eax
    2014:	5b                   	pop    %ebx
    2015:	5e                   	pop    %esi
    2016:	5f                   	pop    %edi
    2017:	5d                   	pop    %ebp
    2018:	c3                   	ret    
    2019:	83 ce ff             	or     $0xffffffff,%esi
    201c:	eb a4                	jmp    1fc2 <block_init+0x162>
    201e:	be fe ff ff ff       	mov    $0xfffffffe,%esi
    2023:	eb 86                	jmp    1fab <block_init+0x14b>
    2025:	8d 74 26 00          	lea    0x0(%esi,%eiz,1),%esi
    2029:	8d bc 27 00 00 00 00 	lea    0x0(%edi,%eiz,1),%edi

00002030 <block_bb_read>:
    2030:	55                   	push   %ebp
    2031:	89 e5                	mov    %esp,%ebp
    2033:	57                   	push   %edi
    2034:	56                   	push   %esi
    2035:	53                   	push   %ebx
    2036:	83 ec 28             	sub    $0x28,%esp
    2039:	8b 45 08             	mov    0x8(%ebp),%eax
    203c:	8b 75 0c             	mov    0xc(%ebp),%esi
    203f:	68 a4 5a 00 00       	push   $0x5aa4
    2044:	89 45 e4             	mov    %eax,-0x1c(%ebp)
    2047:	8b 7d 10             	mov    0x10(%ebp),%edi
    204a:	e8 51 23 00 00       	call   43a0 <fibril_mutex_lock@plt>
    204f:	8b 1d a0 5a 00 00    	mov    0x5aa0,%ebx
    2055:	83 c4 10             	add    $0x10,%esp
    2058:	81 fb 9c 5a 00 00    	cmp    $0x5a9c,%ebx
    205e:	74 20                	je     2080 <block_bb_read+0x50>
    2060:	8b 45 e4             	mov    -0x1c(%ebp),%eax
    2063:	3b 43 08             	cmp    0x8(%ebx),%eax
    2066:	75 0d                	jne    2075 <block_bb_read+0x45>
    2068:	eb 36                	jmp    20a0 <block_bb_read+0x70>
    206a:	8d b6 00 00 00 00    	lea    0x0(%esi),%esi
    2070:	3b 43 08             	cmp    0x8(%ebx),%eax
    2073:	74 2b                	je     20a0 <block_bb_read+0x70>
    2075:	8b 5b 04             	mov    0x4(%ebx),%ebx
    2078:	81 fb 9c 5a 00 00    	cmp    $0x5a9c,%ebx
    207e:	75 f0                	jne    2070 <block_bb_read+0x40>
    2080:	83 ec 0c             	sub    $0xc,%esp
    2083:	68 a4 5a 00 00       	push   $0x5aa4
    2088:	e8 43 22 00 00       	call   42d0 <fibril_mutex_unlock@plt>
    208d:	83 c4 10             	add    $0x10,%esp
    2090:	83 ca ff             	or     $0xffffffff,%edx
    2093:	8d 65 f4             	lea    -0xc(%ebp),%esp
    2096:	89 d0                	mov    %edx,%eax
    2098:	5b                   	pop    %ebx
    2099:	5e                   	pop    %esi
    209a:	5f                   	pop    %edi
    209b:	5d                   	pop    %ebp
    209c:	c3                   	ret    
    209d:	8d 76 00             	lea    0x0(%esi),%esi
    20a0:	83 ec 0c             	sub    $0xc,%esp
    20a3:	68 a4 5a 00 00       	push   $0x5aa4
    20a8:	e8 23 22 00 00       	call   42d0 <fibril_mutex_unlock@plt>
    20ad:	8b 43 14             	mov    0x14(%ebx),%eax
    20b0:	83 c4 10             	add    $0x10,%esp
    20b3:	85 c0                	test   %eax,%eax
    20b5:	0f 85 9d 00 00 00    	jne    2158 <block_bb_read+0x128>
    20bb:	83 ec 0c             	sub    $0xc,%esp
    20be:	8b 43 28             	mov    0x28(%ebx),%eax
    20c1:	50                   	push   %eax
    20c2:	e8 59 21 00 00       	call   4220 <malloc@plt>
    20c7:	83 c4 10             	add    $0x10,%esp
    20ca:	89 c1                	mov    %eax,%ecx
    20cc:	85 c0                	test   %eax,%eax
    20ce:	0f 84 93 00 00 00    	je     2167 <block_bb_read+0x137>
    20d4:	50                   	push   %eax
    20d5:	50                   	push   %eax
    20d6:	8b 43 28             	mov    0x28(%ebx),%eax
    20d9:	89 4d e4             	mov    %ecx,-0x1c(%ebp)
    20dc:	50                   	push   %eax
    20dd:	51                   	push   %ecx
    20de:	8b 43 10             	mov    0x10(%ebx),%eax
    20e1:	6a 01                	push   $0x1
    20e3:	6a 00                	push   $0x0
    20e5:	6a 00                	push   $0x0
    20e7:	50                   	push   %eax
    20e8:	e8 93 21 00 00       	call   4280 <bd_read_blocks@plt>
    20ed:	83 c4 20             	add    $0x20,%esp
    20f0:	89 c2                	mov    %eax,%edx
    20f2:	85 c0                	test   %eax,%eax
    20f4:	8b 4d e4             	mov    -0x1c(%ebp),%ecx
    20f7:	75 17                	jne    2110 <block_bb_read+0xe0>
    20f9:	89 4b 14             	mov    %ecx,0x14(%ebx)
    20fc:	89 73 18             	mov    %esi,0x18(%ebx)
    20ff:	89 7b 1c             	mov    %edi,0x1c(%ebx)
    2102:	8d 65 f4             	lea    -0xc(%ebp),%esp
    2105:	89 d0                	mov    %edx,%eax
    2107:	5b                   	pop    %ebx
    2108:	5e                   	pop    %esi
    2109:	5f                   	pop    %edi
    210a:	5d                   	pop    %ebp
    210b:	c3                   	ret    
    210c:	8d 74 26 00          	lea    0x0(%esi,%eiz,1),%esi
    2110:	50                   	push   %eax
    2111:	50                   	push   %eax
    2112:	89 4d e0             	mov    %ecx,-0x20(%ebp)
    2115:	8b 4b 08             	mov    0x8(%ebx),%ecx
    2118:	51                   	push   %ecx
    2119:	6a 00                	push   $0x0
    211b:	6a 00                	push   $0x0
    211d:	6a 01                	push   $0x1
    211f:	52                   	push   %edx
    2120:	68 40 3f 00 00       	push   $0x3f40
    2125:	89 55 e4             	mov    %edx,-0x1c(%ebp)
    2128:	e8 63 20 00 00       	call   4190 <printf@plt>
    212d:	83 c4 20             	add    $0x20,%esp
    2130:	e8 1b 21 00 00       	call   4250 <stacktrace_print@plt>
    2135:	83 ec 0c             	sub    $0xc,%esp
    2138:	8b 4d e0             	mov    -0x20(%ebp),%ecx
    213b:	51                   	push   %ecx
    213c:	e8 4f 22 00 00       	call   4390 <free@plt>
    2141:	8b 55 e4             	mov    -0x1c(%ebp),%edx
    2144:	83 c4 10             	add    $0x10,%esp
    2147:	8d 65 f4             	lea    -0xc(%ebp),%esp
    214a:	89 d0                	mov    %edx,%eax
    214c:	5b                   	pop    %ebx
    214d:	5e                   	pop    %esi
    214e:	5f                   	pop    %edi
    214f:	5d                   	pop    %ebp
    2150:	c3                   	ret    
    2151:	8d b4 26 00 00 00 00 	lea    0x0(%esi,%eiz,1),%esi
    2158:	8d 65 f4             	lea    -0xc(%ebp),%esp
    215b:	ba f7 ff ff ff       	mov    $0xfffffff7,%edx
    2160:	89 d0                	mov    %edx,%eax
    2162:	5b                   	pop    %ebx
    2163:	5e                   	pop    %esi
    2164:	5f                   	pop    %edi
    2165:	5d                   	pop    %ebp
    2166:	c3                   	ret    
    2167:	ba fe ff ff ff       	mov    $0xfffffffe,%edx
    216c:	e9 22 ff ff ff       	jmp    2093 <block_bb_read+0x63>
    2171:	eb 0d                	jmp    2180 <block_bb_get>
    2173:	90                   	nop
    2174:	90                   	nop
    2175:	90                   	nop
    2176:	90                   	nop
    2177:	90                   	nop
    2178:	90                   	nop
    2179:	90                   	nop
    217a:	90                   	nop
    217b:	90                   	nop
    217c:	90                   	nop
    217d:	90                   	nop
    217e:	90                   	nop
    217f:	90                   	nop

00002180 <block_bb_get>:
    2180:	55                   	push   %ebp
    2181:	89 e5                	mov    %esp,%ebp
    2183:	56                   	push   %esi
    2184:	53                   	push   %ebx
    2185:	83 ec 0c             	sub    $0xc,%esp
    2188:	8b 75 08             	mov    0x8(%ebp),%esi
    218b:	68 a4 5a 00 00       	push   $0x5aa4
    2190:	e8 0b 22 00 00       	call   43a0 <fibril_mutex_lock@plt>
    2195:	8b 1d a0 5a 00 00    	mov    0x5aa0,%ebx
    219b:	83 c4 10             	add    $0x10,%esp
    219e:	81 fb 9c 5a 00 00    	cmp    $0x5a9c,%ebx
    21a4:	75 0d                	jne    21b3 <block_bb_get+0x33>
    21a6:	eb 28                	jmp    21d0 <block_bb_get+0x50>
    21a8:	8b 5b 04             	mov    0x4(%ebx),%ebx
    21ab:	81 fb 9c 5a 00 00    	cmp    $0x5a9c,%ebx
    21b1:	74 1d                	je     21d0 <block_bb_get+0x50>
    21b3:	3b 73 08             	cmp    0x8(%ebx),%esi
    21b6:	75 f0                	jne    21a8 <block_bb_get+0x28>
    21b8:	83 ec 0c             	sub    $0xc,%esp
    21bb:	68 a4 5a 00 00       	push   $0x5aa4
    21c0:	e8 0b 21 00 00       	call   42d0 <fibril_mutex_unlock@plt>
    21c5:	8b 43 14             	mov    0x14(%ebx),%eax
    21c8:	8d 65 f8             	lea    -0x8(%ebp),%esp
    21cb:	5b                   	pop    %ebx
    21cc:	5e                   	pop    %esi
    21cd:	5d                   	pop    %ebp
    21ce:	c3                   	ret    
    21cf:	90                   	nop
    21d0:	83 ec 0c             	sub    $0xc,%esp
    21d3:	68 a4 5a 00 00       	push   $0x5aa4
    21d8:	e8 f3 20 00 00       	call   42d0 <fibril_mutex_unlock@plt>
    21dd:	83 c4 0c             	add    $0xc,%esp
    21e0:	68 ee 00 00 00       	push   $0xee
    21e5:	68 f0 3e 00 00       	push   $0x3ef0
    21ea:	68 f8 3e 00 00       	push   $0x3ef8
    21ef:	e8 bc 20 00 00       	call   42b0 <assert_abort@plt>
    21f4:	8d b6 00 00 00 00    	lea    0x0(%esi),%esi
    21fa:	8d bf 00 00 00 00    	lea    0x0(%edi),%edi

00002200 <block_cache_init>:
    2200:	55                   	push   %ebp
    2201:	89 e5                	mov    %esp,%ebp
    2203:	56                   	push   %esi
    2204:	53                   	push   %ebx
    2205:	83 ec 0c             	sub    $0xc,%esp
    2208:	8b 75 08             	mov    0x8(%ebp),%esi
    220b:	68 a4 5a 00 00       	push   $0x5aa4
    2210:	e8 8b 21 00 00       	call   43a0 <fibril_mutex_lock@plt>
    2215:	8b 1d a0 5a 00 00    	mov    0x5aa0,%ebx
    221b:	83 c4 10             	add    $0x10,%esp
    221e:	81 fb 9c 5a 00 00    	cmp    $0x5a9c,%ebx
    2224:	75 19                	jne    223f <block_cache_init+0x3f>
    2226:	e9 ad 00 00 00       	jmp    22d8 <block_cache_init+0xd8>
    222b:	90                   	nop
    222c:	8d 74 26 00          	lea    0x0(%esi,%eiz,1),%esi
    2230:	8b 5b 04             	mov    0x4(%ebx),%ebx
    2233:	81 fb 9c 5a 00 00    	cmp    $0x5a9c,%ebx
    2239:	0f 84 99 00 00 00    	je     22d8 <block_cache_init+0xd8>
    223f:	3b 73 08             	cmp    0x8(%ebx),%esi
    2242:	75 ec                	jne    2230 <block_cache_init+0x30>
    2244:	83 ec 0c             	sub    $0xc,%esp
    2247:	68 a4 5a 00 00       	push   $0x5aa4
    224c:	e8 7f 20 00 00       	call   42d0 <fibril_mutex_unlock@plt>
    2251:	8b 43 2c             	mov    0x2c(%ebx),%eax
    2254:	83 c4 10             	add    $0x10,%esp
    2257:	85 c0                	test   %eax,%eax
    2259:	0f 85 99 00 00 00    	jne    22f8 <block_cache_init+0xf8>
    225f:	83 ec 0c             	sub    $0xc,%esp
    2262:	6a 48                	push   $0x48
    2264:	e8 b7 1f 00 00       	call   4220 <malloc@plt>
    2269:	83 c4 10             	add    $0x10,%esp
    226c:	89 c6                	mov    %eax,%esi
    226e:	85 c0                	test   %eax,%eax
    2270:	0f 84 b4 00 00 00    	je     232a <block_cache_init+0x12a>
    2276:	83 ec 0c             	sub    $0xc,%esp
    2279:	50                   	push   %eax
    227a:	e8 61 20 00 00       	call   42e0 <fibril_mutex_initialize@plt>
    227f:	8d 46 3c             	lea    0x3c(%esi),%eax
    2282:	31 d2                	xor    %edx,%edx
    2284:	89 46 3c             	mov    %eax,0x3c(%esi)
    2287:	89 46 40             	mov    %eax,0x40(%esi)
    228a:	8b 45 0c             	mov    0xc(%ebp),%eax
    228d:	83 c4 10             	add    $0x10,%esp
    2290:	89 46 10             	mov    %eax,0x10(%esi)
    2293:	8b 45 10             	mov    0x10(%ebp),%eax
    2296:	89 46 18             	mov    %eax,0x18(%esi)
    2299:	8b 45 14             	mov    0x14(%ebp),%eax
    229c:	89 46 44             	mov    %eax,0x44(%esi)
    229f:	8b 45 0c             	mov    0xc(%ebp),%eax
    22a2:	f7 73 28             	divl   0x28(%ebx)
    22a5:	c7 46 1c 00 00 00 00 	movl   $0x0,0x1c(%esi)
    22ac:	85 d2                	test   %edx,%edx
    22ae:	75 54                	jne    2304 <block_cache_init+0x104>
    22b0:	89 46 14             	mov    %eax,0x14(%esi)
    22b3:	8d 46 20             	lea    0x20(%esi),%eax
    22b6:	68 88 5a 00 00       	push   $0x5a88
    22bb:	6a 00                	push   $0x0
    22bd:	6a 00                	push   $0x0
    22bf:	50                   	push   %eax
    22c0:	e8 fb 1e 00 00       	call   41c0 <hash_table_create@plt>
    22c5:	83 c4 10             	add    $0x10,%esp
    22c8:	84 c0                	test   %al,%al
    22ca:	74 4b                	je     2317 <block_cache_init+0x117>
    22cc:	89 73 2c             	mov    %esi,0x2c(%ebx)
    22cf:	31 c0                	xor    %eax,%eax
    22d1:	8d 65 f8             	lea    -0x8(%ebp),%esp
    22d4:	5b                   	pop    %ebx
    22d5:	5e                   	pop    %esi
    22d6:	5d                   	pop    %ebp
    22d7:	c3                   	ret    
    22d8:	83 ec 0c             	sub    $0xc,%esp
    22db:	68 a4 5a 00 00       	push   $0x5aa4
    22e0:	e8 eb 1f 00 00       	call   42d0 <fibril_mutex_unlock@plt>
    22e5:	83 c4 10             	add    $0x10,%esp
    22e8:	8d 65 f8             	lea    -0x8(%ebp),%esp
    22eb:	83 c8 ff             	or     $0xffffffff,%eax
    22ee:	5b                   	pop    %ebx
    22ef:	5e                   	pop    %esi
    22f0:	5d                   	pop    %ebp
    22f1:	c3                   	ret    
    22f2:	8d b6 00 00 00 00    	lea    0x0(%esi),%esi
    22f8:	8d 65 f8             	lea    -0x8(%ebp),%esp
    22fb:	b8 f7 ff ff ff       	mov    $0xfffffff7,%eax
    2300:	5b                   	pop    %ebx
    2301:	5e                   	pop    %esi
    2302:	5d                   	pop    %ebp
    2303:	c3                   	ret    
    2304:	83 ec 0c             	sub    $0xc,%esp
    2307:	56                   	push   %esi
    2308:	e8 83 20 00 00       	call   4390 <free@plt>
    230d:	83 c4 10             	add    $0x10,%esp
    2310:	b8 f5 ff ff ff       	mov    $0xfffffff5,%eax
    2315:	eb ba                	jmp    22d1 <block_cache_init+0xd1>
    2317:	83 ec 0c             	sub    $0xc,%esp
    231a:	56                   	push   %esi
    231b:	e8 70 20 00 00       	call   4390 <free@plt>
    2320:	83 c4 10             	add    $0x10,%esp
    2323:	b8 fe ff ff ff       	mov    $0xfffffffe,%eax
    2328:	eb a7                	jmp    22d1 <block_cache_init+0xd1>
    232a:	b8 fe ff ff ff       	mov    $0xfffffffe,%eax
    232f:	eb a0                	jmp    22d1 <block_cache_init+0xd1>
    2331:	eb 0d                	jmp    2340 <block_cache_fini>
    2333:	90                   	nop
    2334:	90                   	nop
    2335:	90                   	nop
    2336:	90                   	nop
    2337:	90                   	nop
    2338:	90                   	nop
    2339:	90                   	nop
    233a:	90                   	nop
    233b:	90                   	nop
    233c:	90                   	nop
    233d:	90                   	nop
    233e:	90                   	nop
    233f:	90                   	nop

00002340 <block_cache_fini>:
    2340:	55                   	push   %ebp
    2341:	89 e5                	mov    %esp,%ebp
    2343:	57                   	push   %edi
    2344:	56                   	push   %esi
    2345:	53                   	push   %ebx
    2346:	83 ec 38             	sub    $0x38,%esp
    2349:	8b 5d 08             	mov    0x8(%ebp),%ebx
    234c:	68 a4 5a 00 00       	push   $0x5aa4
    2351:	e8 4a 20 00 00       	call   43a0 <fibril_mutex_lock@plt>
    2356:	8b 3d a0 5a 00 00    	mov    0x5aa0,%edi
    235c:	83 c4 10             	add    $0x10,%esp
    235f:	81 ff 9c 5a 00 00    	cmp    $0x5a9c,%edi
    2365:	75 18                	jne    237f <block_cache_fini+0x3f>
    2367:	e9 2c 01 00 00       	jmp    2498 <block_cache_fini+0x158>
    236c:	8d 74 26 00          	lea    0x0(%esi,%eiz,1),%esi
    2370:	8b 7f 04             	mov    0x4(%edi),%edi
    2373:	81 ff 9c 5a 00 00    	cmp    $0x5a9c,%edi
    2379:	0f 84 19 01 00 00    	je     2498 <block_cache_fini+0x158>
    237f:	3b 5f 08             	cmp    0x8(%edi),%ebx
    2382:	75 ec                	jne    2370 <block_cache_fini+0x30>
    2384:	83 ec 0c             	sub    $0xc,%esp
    2387:	68 a4 5a 00 00       	push   $0x5aa4
    238c:	e8 3f 1f 00 00       	call   42d0 <fibril_mutex_unlock@plt>
    2391:	8b 47 2c             	mov    0x2c(%edi),%eax
    2394:	83 c4 10             	add    $0x10,%esp
    2397:	89 45 e0             	mov    %eax,-0x20(%ebp)
    239a:	85 c0                	test   %eax,%eax
    239c:	0f 84 42 01 00 00    	je     24e4 <block_cache_fini+0x1a4>
    23a2:	8b 58 40             	mov    0x40(%eax),%ebx
    23a5:	8d 70 3c             	lea    0x3c(%eax),%esi
    23a8:	83 c0 20             	add    $0x20,%eax
    23ab:	89 75 dc             	mov    %esi,-0x24(%ebp)
    23ae:	89 45 d8             	mov    %eax,-0x28(%ebp)
    23b1:	39 de                	cmp    %ebx,%esi
    23b3:	0f 84 2f 01 00 00    	je     24e8 <block_cache_fini+0x1a8>
    23b9:	89 da                	mov    %ebx,%edx
    23bb:	89 7d d0             	mov    %edi,-0x30(%ebp)
    23be:	eb 35                	jmp    23f5 <block_cache_fini+0xb5>
    23c0:	8b 55 d8             	mov    -0x28(%ebp),%edx
    23c3:	8d 43 50             	lea    0x50(%ebx),%eax
    23c6:	89 d6                	mov    %edx,%esi
    23c8:	51                   	push   %ecx
    23c9:	51                   	push   %ecx
    23ca:	50                   	push   %eax
    23cb:	52                   	push   %edx
    23cc:	e8 1f 1f 00 00       	call   42f0 <hash_table_remove_item@plt>
    23d1:	8b 43 58             	mov    0x58(%ebx),%eax
    23d4:	5f                   	pop    %edi
    23d5:	50                   	push   %eax
    23d6:	e8 b5 1f 00 00       	call   4390 <free@plt>
    23db:	89 1c 24             	mov    %ebx,(%esp)
    23de:	e8 ad 1f 00 00       	call   4390 <free@plt>
    23e3:	8b 45 e0             	mov    -0x20(%ebp),%eax
    23e6:	83 c4 10             	add    $0x10,%esp
    23e9:	8b 50 40             	mov    0x40(%eax),%edx
    23ec:	3b 55 dc             	cmp    -0x24(%ebp),%edx
    23ef:	0f 84 c3 00 00 00    	je     24b8 <block_cache_fini+0x178>
    23f5:	8d 5a b8             	lea    -0x48(%edx),%ebx
    23f8:	8b 4b 48             	mov    0x48(%ebx),%ecx
    23fb:	85 c9                	test   %ecx,%ecx
    23fd:	74 0f                	je     240e <block_cache_fini+0xce>
    23ff:	8b 43 4c             	mov    0x4c(%ebx),%eax
    2402:	85 c0                	test   %eax,%eax
    2404:	74 08                	je     240e <block_cache_fini+0xce>
    2406:	89 08                	mov    %ecx,(%eax)
    2408:	8b 4b 48             	mov    0x48(%ebx),%ecx
    240b:	89 41 04             	mov    %eax,0x4(%ecx)
    240e:	c7 43 48 00 00 00 00 	movl   $0x0,0x48(%ebx)
    2415:	c7 43 4c 00 00 00 00 	movl   $0x0,0x4c(%ebx)
    241c:	80 7b 14 00          	cmpb   $0x0,0x14(%ebx)
    2420:	74 9e                	je     23c0 <block_cache_fini+0x80>
    2422:	8b 45 e0             	mov    -0x20(%ebp),%eax
    2425:	8b 73 38             	mov    0x38(%ebx),%esi
    2428:	8b 7b 3c             	mov    0x3c(%ebx),%edi
    242b:	8b 48 14             	mov    0x14(%eax),%ecx
    242e:	50                   	push   %eax
    242f:	50                   	push   %eax
    2430:	89 4d d4             	mov    %ecx,-0x2c(%ebp)
    2433:	8b 53 40             	mov    0x40(%ebx),%edx
    2436:	8b 43 58             	mov    0x58(%ebx),%eax
    2439:	52                   	push   %edx
    243a:	50                   	push   %eax
    243b:	8b 45 d0             	mov    -0x30(%ebp),%eax
    243e:	51                   	push   %ecx
    243f:	57                   	push   %edi
    2440:	56                   	push   %esi
    2441:	8b 40 10             	mov    0x10(%eax),%eax
    2444:	50                   	push   %eax
    2445:	e8 96 1d 00 00       	call   41e0 <bd_write_blocks@plt>
    244a:	83 c4 20             	add    $0x20,%esp
    244d:	8b 4d d4             	mov    -0x2c(%ebp),%ecx
    2450:	85 c0                	test   %eax,%eax
    2452:	0f 84 68 ff ff ff    	je     23c0 <block_cache_fini+0x80>
    2458:	89 7d e4             	mov    %edi,-0x1c(%ebp)
    245b:	8b 7d d0             	mov    -0x30(%ebp),%edi
    245e:	89 75 e0             	mov    %esi,-0x20(%ebp)
    2461:	89 ce                	mov    %ecx,%esi
    2463:	89 c1                	mov    %eax,%ecx
    2465:	50                   	push   %eax
    2466:	50                   	push   %eax
    2467:	8b 47 08             	mov    0x8(%edi),%eax
    246a:	50                   	push   %eax
    246b:	8b 45 e4             	mov    -0x1c(%ebp),%eax
    246e:	50                   	push   %eax
    246f:	8b 45 e0             	mov    -0x20(%ebp),%eax
    2472:	50                   	push   %eax
    2473:	56                   	push   %esi
    2474:	51                   	push   %ecx
    2475:	68 8c 3f 00 00       	push   $0x3f8c
    247a:	89 4d e0             	mov    %ecx,-0x20(%ebp)
    247d:	e8 0e 1d 00 00       	call   4190 <printf@plt>
    2482:	83 c4 20             	add    $0x20,%esp
    2485:	e8 c6 1d 00 00       	call   4250 <stacktrace_print@plt>
    248a:	8b 4d e0             	mov    -0x20(%ebp),%ecx
    248d:	8d 65 f4             	lea    -0xc(%ebp),%esp
    2490:	89 c8                	mov    %ecx,%eax
    2492:	5b                   	pop    %ebx
    2493:	5e                   	pop    %esi
    2494:	5f                   	pop    %edi
    2495:	5d                   	pop    %ebp
    2496:	c3                   	ret    
    2497:	90                   	nop
    2498:	83 ec 0c             	sub    $0xc,%esp
    249b:	68 a4 5a 00 00       	push   $0x5aa4
    24a0:	e8 2b 1e 00 00       	call   42d0 <fibril_mutex_unlock@plt>
    24a5:	83 c4 10             	add    $0x10,%esp
    24a8:	8d 65 f4             	lea    -0xc(%ebp),%esp
    24ab:	83 c9 ff             	or     $0xffffffff,%ecx
    24ae:	5b                   	pop    %ebx
    24af:	89 c8                	mov    %ecx,%eax
    24b1:	5e                   	pop    %esi
    24b2:	5f                   	pop    %edi
    24b3:	5d                   	pop    %ebp
    24b4:	c3                   	ret    
    24b5:	8d 76 00             	lea    0x0(%esi),%esi
    24b8:	8b 7d d0             	mov    -0x30(%ebp),%edi
    24bb:	83 ec 0c             	sub    $0xc,%esp
    24be:	56                   	push   %esi
    24bf:	e8 bc 1e 00 00       	call   4380 <hash_table_destroy@plt>
    24c4:	c7 47 2c 00 00 00 00 	movl   $0x0,0x2c(%edi)
    24cb:	8b 55 e0             	mov    -0x20(%ebp),%edx
    24ce:	58                   	pop    %eax
    24cf:	52                   	push   %edx
    24d0:	e8 bb 1e 00 00       	call   4390 <free@plt>
    24d5:	83 c4 10             	add    $0x10,%esp
    24d8:	8d 65 f4             	lea    -0xc(%ebp),%esp
    24db:	31 c9                	xor    %ecx,%ecx
    24dd:	89 c8                	mov    %ecx,%eax
    24df:	5b                   	pop    %ebx
    24e0:	5e                   	pop    %esi
    24e1:	5f                   	pop    %edi
    24e2:	5d                   	pop    %ebp
    24e3:	c3                   	ret    
    24e4:	31 c9                	xor    %ecx,%ecx
    24e6:	eb a5                	jmp    248d <block_cache_fini+0x14d>
    24e8:	8b 45 e0             	mov    -0x20(%ebp),%eax
    24eb:	8d 70 20             	lea    0x20(%eax),%esi
    24ee:	eb cb                	jmp    24bb <block_cache_fini+0x17b>

000024f0 <block_fini>:
    24f0:	55                   	push   %ebp
    24f1:	89 e5                	mov    %esp,%ebp
    24f3:	56                   	push   %esi
    24f4:	53                   	push   %ebx
    24f5:	83 ec 0c             	sub    $0xc,%esp
    24f8:	8b 75 08             	mov    0x8(%ebp),%esi
    24fb:	68 a4 5a 00 00       	push   $0x5aa4
    2500:	e8 9b 1e 00 00       	call   43a0 <fibril_mutex_lock@plt>
    2505:	8b 1d a0 5a 00 00    	mov    0x5aa0,%ebx
    250b:	83 c4 10             	add    $0x10,%esp
    250e:	81 fb 9c 5a 00 00    	cmp    $0x5a9c,%ebx
    2514:	75 19                	jne    252f <block_fini+0x3f>
    2516:	e9 c5 00 00 00       	jmp    25e0 <block_fini+0xf0>
    251b:	90                   	nop
    251c:	8d 74 26 00          	lea    0x0(%esi,%eiz,1),%esi
    2520:	8b 5b 04             	mov    0x4(%ebx),%ebx
    2523:	81 fb 9c 5a 00 00    	cmp    $0x5a9c,%ebx
    2529:	0f 84 b1 00 00 00    	je     25e0 <block_fini+0xf0>
    252f:	3b 73 08             	cmp    0x8(%ebx),%esi
    2532:	75 ec                	jne    2520 <block_fini+0x30>
    2534:	83 ec 0c             	sub    $0xc,%esp
    2537:	68 a4 5a 00 00       	push   $0x5aa4
    253c:	e8 8f 1d 00 00       	call   42d0 <fibril_mutex_unlock@plt>
    2541:	8b 43 2c             	mov    0x2c(%ebx),%eax
    2544:	83 c4 10             	add    $0x10,%esp
    2547:	85 c0                	test   %eax,%eax
    2549:	74 0c                	je     2557 <block_fini+0x67>
    254b:	83 ec 0c             	sub    $0xc,%esp
    254e:	56                   	push   %esi
    254f:	e8 ec fd ff ff       	call   2340 <block_cache_fini>
    2554:	83 c4 10             	add    $0x10,%esp
    2557:	6a 00                	push   $0x0
    2559:	6a 00                	push   $0x0
    255b:	6a 00                	push   $0x0
    255d:	8b 73 10             	mov    0x10(%ebx),%esi
    2560:	56                   	push   %esi
    2561:	e8 ca 1d 00 00       	call   4330 <bd_sync_cache@plt>
    2566:	c7 04 24 a4 5a 00 00 	movl   $0x5aa4,(%esp)
    256d:	e8 2e 1e 00 00       	call   43a0 <fibril_mutex_lock@plt>
    2572:	8b 13                	mov    (%ebx),%edx
    2574:	83 c4 10             	add    $0x10,%esp
    2577:	85 d2                	test   %edx,%edx
    2579:	74 0e                	je     2589 <block_fini+0x99>
    257b:	8b 43 04             	mov    0x4(%ebx),%eax
    257e:	85 c0                	test   %eax,%eax
    2580:	74 07                	je     2589 <block_fini+0x99>
    2582:	89 10                	mov    %edx,(%eax)
    2584:	8b 13                	mov    (%ebx),%edx
    2586:	89 42 04             	mov    %eax,0x4(%edx)
    2589:	83 ec 0c             	sub    $0xc,%esp
    258c:	c7 03 00 00 00 00    	movl   $0x0,(%ebx)
    2592:	c7 43 04 00 00 00 00 	movl   $0x0,0x4(%ebx)
    2599:	68 a4 5a 00 00       	push   $0x5aa4
    259e:	e8 2d 1d 00 00       	call   42d0 <fibril_mutex_unlock@plt>
    25a3:	8b 43 14             	mov    0x14(%ebx),%eax
    25a6:	83 c4 10             	add    $0x10,%esp
    25a9:	85 c0                	test   %eax,%eax
    25ab:	74 0c                	je     25b9 <block_fini+0xc9>
    25ad:	83 ec 0c             	sub    $0xc,%esp
    25b0:	50                   	push   %eax
    25b1:	e8 da 1d 00 00       	call   4390 <free@plt>
    25b6:	83 c4 10             	add    $0x10,%esp
    25b9:	83 ec 0c             	sub    $0xc,%esp
    25bc:	8b 43 10             	mov    0x10(%ebx),%eax
    25bf:	50                   	push   %eax
    25c0:	e8 3b 1c 00 00       	call   4200 <bd_close@plt>
    25c5:	8b 4b 0c             	mov    0xc(%ebx),%ecx
    25c8:	5a                   	pop    %edx
    25c9:	51                   	push   %ecx
    25ca:	e8 d1 1b 00 00       	call   41a0 <async_hangup@plt>
    25cf:	89 5d 08             	mov    %ebx,0x8(%ebp)
    25d2:	83 c4 10             	add    $0x10,%esp
    25d5:	8d 65 f8             	lea    -0x8(%ebp),%esp
    25d8:	5b                   	pop    %ebx
    25d9:	5e                   	pop    %esi
    25da:	5d                   	pop    %ebp
    25db:	e9 b0 1d 00 00       	jmp    4390 <free@plt>
    25e0:	83 ec 0c             	sub    $0xc,%esp
    25e3:	68 a4 5a 00 00       	push   $0x5aa4
    25e8:	e8 e3 1c 00 00       	call   42d0 <fibril_mutex_unlock@plt>
    25ed:	83 c4 0c             	add    $0xc,%esp
    25f0:	68 bf 00 00 00       	push   $0xbf
    25f5:	68 f0 3e 00 00       	push   $0x3ef0
    25fa:	68 f8 3e 00 00       	push   $0x3ef8
    25ff:	e8 ac 1c 00 00       	call   42b0 <assert_abort@plt>
    2604:	8d b6 00 00 00 00    	lea    0x0(%esi),%esi
    260a:	8d bf 00 00 00 00    	lea    0x0(%edi),%edi

00002610 <block_put>:
    2610:	55                   	push   %ebp
    2611:	89 e5                	mov    %esp,%ebp
    2613:	57                   	push   %edi
    2614:	56                   	push   %esi
    2615:	53                   	push   %ebx
    2616:	83 ec 28             	sub    $0x28,%esp
    2619:	8b 7d 08             	mov    0x8(%ebp),%edi
    261c:	8b 5f 2c             	mov    0x2c(%edi),%ebx
    261f:	68 a4 5a 00 00       	push   $0x5aa4
    2624:	e8 77 1d 00 00       	call   43a0 <fibril_mutex_lock@plt>
    2629:	8b 35 a0 5a 00 00    	mov    0x5aa0,%esi
    262f:	83 c4 10             	add    $0x10,%esp
    2632:	81 fe 9c 5a 00 00    	cmp    $0x5a9c,%esi
    2638:	75 15                	jne    264f <block_put+0x3f>
    263a:	e9 c1 01 00 00       	jmp    2800 <block_put+0x1f0>
    263f:	90                   	nop
    2640:	8b 76 04             	mov    0x4(%esi),%esi
    2643:	81 fe 9c 5a 00 00    	cmp    $0x5a9c,%esi
    2649:	0f 84 b1 01 00 00    	je     2800 <block_put+0x1f0>
    264f:	3b 5e 08             	cmp    0x8(%esi),%ebx
    2652:	75 ec                	jne    2640 <block_put+0x30>
    2654:	83 ec 0c             	sub    $0xc,%esp
    2657:	68 a4 5a 00 00       	push   $0x5aa4
    265c:	e8 6f 1c 00 00       	call   42d0 <fibril_mutex_unlock@plt>
    2661:	8b 5e 2c             	mov    0x2c(%esi),%ebx
    2664:	83 c4 10             	add    $0x10,%esp
    2667:	85 db                	test   %ebx,%ebx
    2669:	0f 84 6b 02 00 00    	je     28da <block_put+0x2ca>
    266f:	8b 47 10             	mov    0x10(%edi),%eax
    2672:	85 c0                	test   %eax,%eax
    2674:	0f 84 75 02 00 00    	je     28ef <block_put+0x2df>
    267a:	c7 45 e4 00 00 00 00 	movl   $0x0,-0x1c(%ebp)
    2681:	89 75 e0             	mov    %esi,-0x20(%ebp)
    2684:	8d 74 26 00          	lea    0x0(%esi,%eiz,1),%esi
    2688:	83 ec 0c             	sub    $0xc,%esp
    268b:	53                   	push   %ebx
    268c:	e8 0f 1d 00 00       	call   43a0 <fibril_mutex_lock@plt>
    2691:	8b 43 44             	mov    0x44(%ebx),%eax
    2694:	8b 73 1c             	mov    0x1c(%ebx),%esi
    2697:	89 45 d8             	mov    %eax,-0x28(%ebp)
    269a:	89 1c 24             	mov    %ebx,(%esp)
    269d:	e8 2e 1c 00 00       	call   42d0 <fibril_mutex_unlock@plt>
    26a2:	89 3c 24             	mov    %edi,(%esp)
    26a5:	e8 f6 1c 00 00       	call   43a0 <fibril_mutex_lock@plt>
    26aa:	83 c4 10             	add    $0x10,%esp
    26ad:	80 7f 15 00          	cmpb   $0x0,0x15(%edi)
    26b1:	0f 85 39 01 00 00    	jne    27f0 <block_put+0x1e0>
    26b7:	80 7f 14 00          	cmpb   $0x0,0x14(%edi)
    26bb:	74 0a                	je     26c7 <block_put+0xb7>
    26bd:	83 7f 10 01          	cmpl   $0x1,0x10(%edi)
    26c1:	0f 84 b9 00 00 00    	je     2780 <block_put+0x170>
    26c7:	83 ec 0c             	sub    $0xc,%esp
    26ca:	57                   	push   %edi
    26cb:	e8 00 1c 00 00       	call   42d0 <fibril_mutex_unlock@plt>
    26d0:	89 1c 24             	mov    %ebx,(%esp)
    26d3:	e8 c8 1c 00 00       	call   43a0 <fibril_mutex_lock@plt>
    26d8:	89 3c 24             	mov    %edi,(%esp)
    26db:	e8 c0 1c 00 00       	call   43a0 <fibril_mutex_lock@plt>
    26e0:	8b 47 10             	mov    0x10(%edi),%eax
    26e3:	83 c4 10             	add    $0x10,%esp
    26e6:	48                   	dec    %eax
    26e7:	89 47 10             	mov    %eax,0x10(%edi)
    26ea:	85 c0                	test   %eax,%eax
    26ec:	0f 85 51 01 00 00    	jne    2843 <block_put+0x233>
    26f2:	83 7b 1c 14          	cmpl   $0x14,0x1c(%ebx)
    26f6:	77 48                	ja     2740 <block_put+0x130>
    26f8:	8b 45 e4             	mov    -0x1c(%ebp),%eax
    26fb:	85 c0                	test   %eax,%eax
    26fd:	75 41                	jne    2740 <block_put+0x130>
    26ff:	83 7b 44 01          	cmpl   $0x1,0x44(%ebx)
    2703:	0f 84 1b 01 00 00    	je     2824 <block_put+0x214>
    2709:	80 7f 14 00          	cmpb   $0x0,0x14(%edi)
    270d:	0f 84 11 01 00 00    	je     2824 <block_put+0x214>
    2713:	83 ec 0c             	sub    $0xc,%esp
    2716:	c7 47 10 01 00 00 00 	movl   $0x1,0x10(%edi)
    271d:	57                   	push   %edi
    271e:	e8 ad 1b 00 00       	call   42d0 <fibril_mutex_unlock@plt>
    2723:	89 1c 24             	mov    %ebx,(%esp)
    2726:	e8 a5 1b 00 00       	call   42d0 <fibril_mutex_unlock@plt>
    272b:	83 c4 10             	add    $0x10,%esp
    272e:	c7 45 e4 00 00 00 00 	movl   $0x0,-0x1c(%ebp)
    2735:	e9 4e ff ff ff       	jmp    2688 <block_put+0x78>
    273a:	8d b6 00 00 00 00    	lea    0x0(%esi),%esi
    2740:	80 7f 14 00          	cmpb   $0x0,0x14(%edi)
    2744:	0f 84 4a 01 00 00    	je     2894 <block_put+0x284>
    274a:	8b 47 44             	mov    0x44(%edi),%eax
    274d:	c7 47 10 01 00 00 00 	movl   $0x1,0x10(%edi)
    2754:	83 f8 09             	cmp    $0x9,%eax
    2757:	0f 8f 1b 01 00 00    	jg     2878 <block_put+0x268>
    275d:	83 ec 0c             	sub    $0xc,%esp
    2760:	40                   	inc    %eax
    2761:	89 47 44             	mov    %eax,0x44(%edi)
    2764:	57                   	push   %edi
    2765:	e8 66 1b 00 00       	call   42d0 <fibril_mutex_unlock@plt>
    276a:	89 1c 24             	mov    %ebx,(%esp)
    276d:	e8 5e 1b 00 00       	call   42d0 <fibril_mutex_unlock@plt>
    2772:	83 c4 10             	add    $0x10,%esp
    2775:	e9 0e ff ff ff       	jmp    2688 <block_put+0x78>
    277a:	8d b6 00 00 00 00    	lea    0x0(%esi),%esi
    2780:	83 fe 14             	cmp    $0x14,%esi
    2783:	77 0a                	ja     278f <block_put+0x17f>
    2785:	83 7d d8 01          	cmpl   $0x1,-0x28(%ebp)
    2789:	0f 84 38 ff ff ff    	je     26c7 <block_put+0xb7>
    278f:	8b 47 38             	mov    0x38(%edi),%eax
    2792:	8b 57 3c             	mov    0x3c(%edi),%edx
    2795:	8b 73 14             	mov    0x14(%ebx),%esi
    2798:	51                   	push   %ecx
    2799:	51                   	push   %ecx
    279a:	89 45 d8             	mov    %eax,-0x28(%ebp)
    279d:	8b 4f 40             	mov    0x40(%edi),%ecx
    27a0:	89 55 dc             	mov    %edx,-0x24(%ebp)
    27a3:	51                   	push   %ecx
    27a4:	8b 4f 58             	mov    0x58(%edi),%ecx
    27a7:	51                   	push   %ecx
    27a8:	56                   	push   %esi
    27a9:	52                   	push   %edx
    27aa:	50                   	push   %eax
    27ab:	8b 45 e0             	mov    -0x20(%ebp),%eax
    27ae:	8b 40 10             	mov    0x10(%eax),%eax
    27b1:	50                   	push   %eax
    27b2:	e8 29 1a 00 00       	call   41e0 <bd_write_blocks@plt>
    27b7:	83 c4 20             	add    $0x20,%esp
    27ba:	89 45 e4             	mov    %eax,-0x1c(%ebp)
    27bd:	85 c0                	test   %eax,%eax
    27bf:	0f 84 a3 00 00 00    	je     2868 <block_put+0x258>
    27c5:	50                   	push   %eax
    27c6:	50                   	push   %eax
    27c7:	8b 45 e0             	mov    -0x20(%ebp),%eax
    27ca:	8b 55 dc             	mov    -0x24(%ebp),%edx
    27cd:	8b 4d d8             	mov    -0x28(%ebp),%ecx
    27d0:	8b 40 08             	mov    0x8(%eax),%eax
    27d3:	50                   	push   %eax
    27d4:	52                   	push   %edx
    27d5:	51                   	push   %ecx
    27d6:	56                   	push   %esi
    27d7:	8b 75 e4             	mov    -0x1c(%ebp),%esi
    27da:	56                   	push   %esi
    27db:	68 8c 3f 00 00       	push   $0x3f8c
    27e0:	e8 ab 19 00 00       	call   4190 <printf@plt>
    27e5:	83 c4 20             	add    $0x20,%esp
    27e8:	e8 63 1a 00 00       	call   4250 <stacktrace_print@plt>
    27ed:	8d 76 00             	lea    0x0(%esi),%esi
    27f0:	c6 47 14 00          	movb   $0x0,0x14(%edi)
    27f4:	e9 ce fe ff ff       	jmp    26c7 <block_put+0xb7>
    27f9:	8d b4 26 00 00 00 00 	lea    0x0(%esi,%eiz,1),%esi
    2800:	83 ec 0c             	sub    $0xc,%esp
    2803:	68 a4 5a 00 00       	push   $0x5aa4
    2808:	e8 c3 1a 00 00       	call   42d0 <fibril_mutex_unlock@plt>
    280d:	83 c4 0c             	add    $0xc,%esp
    2810:	68 4c 02 00 00       	push   $0x24c
    2815:	68 f0 3e 00 00       	push   $0x3ef0
    281a:	68 f8 3e 00 00       	push   $0x3ef8
    281f:	e8 8c 1a 00 00       	call   42b0 <assert_abort@plt>
    2824:	8d 4b 3c             	lea    0x3c(%ebx),%ecx
    2827:	8d 47 48             	lea    0x48(%edi),%eax
    282a:	89 4f 4c             	mov    %ecx,0x4c(%edi)
    282d:	8b 4b 3c             	mov    0x3c(%ebx),%ecx
    2830:	89 4f 48             	mov    %ecx,0x48(%edi)
    2833:	c7 45 e4 00 00 00 00 	movl   $0x0,-0x1c(%ebp)
    283a:	8b 4b 3c             	mov    0x3c(%ebx),%ecx
    283d:	89 41 04             	mov    %eax,0x4(%ecx)
    2840:	89 43 3c             	mov    %eax,0x3c(%ebx)
    2843:	83 ec 0c             	sub    $0xc,%esp
    2846:	57                   	push   %edi
    2847:	e8 84 1a 00 00       	call   42d0 <fibril_mutex_unlock@plt>
    284c:	89 1c 24             	mov    %ebx,(%esp)
    284f:	e8 7c 1a 00 00       	call   42d0 <fibril_mutex_unlock@plt>
    2854:	8b 45 e4             	mov    -0x1c(%ebp),%eax
    2857:	83 c4 10             	add    $0x10,%esp
    285a:	8d 65 f4             	lea    -0xc(%ebp),%esp
    285d:	5b                   	pop    %ebx
    285e:	5e                   	pop    %esi
    285f:	5f                   	pop    %edi
    2860:	5d                   	pop    %ebp
    2861:	c3                   	ret    
    2862:	8d b6 00 00 00 00    	lea    0x0(%esi),%esi
    2868:	c7 47 44 00 00 00 00 	movl   $0x0,0x44(%edi)
    286f:	c6 47 14 00          	movb   $0x0,0x14(%edi)
    2873:	e9 4f fe ff ff       	jmp    26c7 <block_put+0xb7>
    2878:	8b 75 e0             	mov    -0x20(%ebp),%esi
    287b:	8b 46 08             	mov    0x8(%esi),%eax
    287e:	50                   	push   %eax
    287f:	8b 47 34             	mov    0x34(%edi),%eax
    2882:	50                   	push   %eax
    2883:	8b 47 30             	mov    0x30(%edi),%eax
    2886:	50                   	push   %eax
    2887:	68 d4 3f 00 00       	push   $0x3fd4
    288c:	e8 ff 18 00 00       	call   4190 <printf@plt>
    2891:	83 c4 10             	add    $0x10,%esp
    2894:	50                   	push   %eax
    2895:	50                   	push   %eax
    2896:	8d 47 50             	lea    0x50(%edi),%eax
    2899:	50                   	push   %eax
    289a:	8d 43 20             	lea    0x20(%ebx),%eax
    289d:	50                   	push   %eax
    289e:	e8 4d 1a 00 00       	call   42f0 <hash_table_remove_item@plt>
    28a3:	89 3c 24             	mov    %edi,(%esp)
    28a6:	e8 25 1a 00 00       	call   42d0 <fibril_mutex_unlock@plt>
    28ab:	8b 4f 58             	mov    0x58(%edi),%ecx
    28ae:	5a                   	pop    %edx
    28af:	51                   	push   %ecx
    28b0:	e8 db 1a 00 00       	call   4390 <free@plt>
    28b5:	89 3c 24             	mov    %edi,(%esp)
    28b8:	e8 d3 1a 00 00       	call   4390 <free@plt>
    28bd:	8b 73 1c             	mov    0x1c(%ebx),%esi
    28c0:	4e                   	dec    %esi
    28c1:	89 73 1c             	mov    %esi,0x1c(%ebx)
    28c4:	89 1c 24             	mov    %ebx,(%esp)
    28c7:	e8 04 1a 00 00       	call   42d0 <fibril_mutex_unlock@plt>
    28cc:	8b 45 e4             	mov    -0x1c(%ebp),%eax
    28cf:	83 c4 10             	add    $0x10,%esp
    28d2:	8d 65 f4             	lea    -0xc(%ebp),%esp
    28d5:	5b                   	pop    %ebx
    28d6:	5e                   	pop    %esi
    28d7:	5f                   	pop    %edi
    28d8:	5d                   	pop    %ebp
    28d9:	c3                   	ret    
    28da:	50                   	push   %eax
    28db:	68 4d 02 00 00       	push   $0x24d
    28e0:	68 f0 3e 00 00       	push   $0x3ef0
    28e5:	68 ff 3e 00 00       	push   $0x3eff
    28ea:	e8 c1 19 00 00       	call   42b0 <assert_abort@plt>
    28ef:	50                   	push   %eax
    28f0:	68 4e 02 00 00       	push   $0x24e
    28f5:	68 f0 3e 00 00       	push   $0x3ef0
    28fa:	68 0d 3f 00 00       	push   $0x3f0d
    28ff:	e8 ac 19 00 00       	call   42b0 <assert_abort@plt>
    2904:	8d b6 00 00 00 00    	lea    0x0(%esi),%esi
    290a:	8d bf 00 00 00 00    	lea    0x0(%edi),%edi

00002910 <block_get>:
    2910:	55                   	push   %ebp
    2911:	89 e5                	mov    %esp,%ebp
    2913:	57                   	push   %edi
    2914:	56                   	push   %esi
    2915:	53                   	push   %ebx
    2916:	83 ec 48             	sub    $0x48,%esp
    2919:	8b 45 10             	mov    0x10(%ebp),%eax
    291c:	89 45 e0             	mov    %eax,-0x20(%ebp)
    291f:	8b 45 14             	mov    0x14(%ebp),%eax
    2922:	68 a4 5a 00 00       	push   $0x5aa4
    2927:	89 45 e4             	mov    %eax,-0x1c(%ebp)
    292a:	e8 71 1a 00 00       	call   43a0 <fibril_mutex_lock@plt>
    292f:	8b 35 a0 5a 00 00    	mov    0x5aa0,%esi
    2935:	83 c4 10             	add    $0x10,%esp
    2938:	81 fe 9c 5a 00 00    	cmp    $0x5a9c,%esi
    293e:	74 20                	je     2960 <block_get+0x50>
    2940:	8b 46 08             	mov    0x8(%esi),%eax
    2943:	39 45 0c             	cmp    %eax,0xc(%ebp)
    2946:	74 40                	je     2988 <block_get+0x78>
    2948:	8b 45 0c             	mov    0xc(%ebp),%eax
    294b:	eb 08                	jmp    2955 <block_get+0x45>
    294d:	8d 76 00             	lea    0x0(%esi),%esi
    2950:	3b 46 08             	cmp    0x8(%esi),%eax
    2953:	74 33                	je     2988 <block_get+0x78>
    2955:	8b 76 04             	mov    0x4(%esi),%esi
    2958:	81 fe 9c 5a 00 00    	cmp    $0x5a9c,%esi
    295e:	75 f0                	jne    2950 <block_get+0x40>
    2960:	83 ec 0c             	sub    $0xc,%esp
    2963:	68 a4 5a 00 00       	push   $0x5aa4
    2968:	e8 63 19 00 00       	call   42d0 <fibril_mutex_unlock@plt>
    296d:	83 c4 0c             	add    $0xc,%esp
    2970:	68 8a 01 00 00       	push   $0x18a
    2975:	68 f0 3e 00 00       	push   $0x3ef0
    297a:	68 f8 3e 00 00       	push   $0x3ef8
    297f:	e8 2c 19 00 00       	call   42b0 <assert_abort@plt>
    2984:	8d 74 26 00          	lea    0x0(%esi,%eiz,1),%esi
    2988:	83 ec 0c             	sub    $0xc,%esp
    298b:	68 a4 5a 00 00       	push   $0x5aa4
    2990:	e8 3b 19 00 00       	call   42d0 <fibril_mutex_unlock@plt>
    2995:	8b 5e 2c             	mov    0x2c(%esi),%ebx
    2998:	83 c4 10             	add    $0x10,%esp
    299b:	85 db                	test   %ebx,%ebx
    299d:	0f 84 a5 04 00 00    	je     2e48 <block_get+0x538>
    29a3:	8b 43 14             	mov    0x14(%ebx),%eax
    29a6:	8b 4d e4             	mov    -0x1c(%ebp),%ecx
    29a9:	89 45 d8             	mov    %eax,-0x28(%ebp)
    29ac:	31 d2                	xor    %edx,%edx
    29ae:	0f af c8             	imul   %eax,%ecx
    29b1:	8b 45 d8             	mov    -0x28(%ebp),%eax
    29b4:	89 55 dc             	mov    %edx,-0x24(%ebp)
    29b7:	f7 65 e0             	mull   -0x20(%ebp)
    29ba:	01 ca                	add    %ecx,%edx
    29bc:	03 45 d8             	add    -0x28(%ebp),%eax
    29bf:	13 55 dc             	adc    -0x24(%ebp),%edx
    29c2:	3b 56 24             	cmp    0x24(%esi),%edx
    29c5:	76 19                	jbe    29e0 <block_get+0xd0>
    29c7:	c7 45 d8 f6 fe ff ff 	movl   $0xfffffef6,-0x28(%ebp)
    29ce:	8b 45 d8             	mov    -0x28(%ebp),%eax
    29d1:	8d 65 f4             	lea    -0xc(%ebp),%esp
    29d4:	5b                   	pop    %ebx
    29d5:	5e                   	pop    %esi
    29d6:	5f                   	pop    %edi
    29d7:	5d                   	pop    %ebp
    29d8:	c3                   	ret    
    29d9:	8d b4 26 00 00 00 00 	lea    0x0(%esi,%eiz,1),%esi
    29e0:	0f 83 f2 01 00 00    	jae    2bd8 <block_get+0x2c8>
    29e6:	8d 43 20             	lea    0x20(%ebx),%eax
    29e9:	89 75 c8             	mov    %esi,-0x38(%ebp)
    29ec:	89 45 d0             	mov    %eax,-0x30(%ebp)
    29ef:	8d 43 3c             	lea    0x3c(%ebx),%eax
    29f2:	89 45 d8             	mov    %eax,-0x28(%ebp)
    29f5:	8d 76 00             	lea    0x0(%esi),%esi
    29f8:	83 ec 0c             	sub    $0xc,%esp
    29fb:	53                   	push   %ebx
    29fc:	e8 9f 19 00 00       	call   43a0 <fibril_mutex_lock@plt>
    2a01:	58                   	pop    %eax
    2a02:	8b 4d d0             	mov    -0x30(%ebp),%ecx
    2a05:	8d 45 e0             	lea    -0x20(%ebp),%eax
    2a08:	5a                   	pop    %edx
    2a09:	50                   	push   %eax
    2a0a:	51                   	push   %ecx
    2a0b:	e8 30 19 00 00       	call   4340 <hash_table_find@plt>
    2a10:	83 c4 10             	add    $0x10,%esp
    2a13:	85 c0                	test   %eax,%eax
    2a15:	0f 85 cd 01 00 00    	jne    2be8 <block_get+0x2d8>
    2a1b:	83 7b 1c 09          	cmpl   $0x9,0x1c(%ebx)
    2a1f:	0f 86 d3 00 00 00    	jbe    2af8 <block_get+0x1e8>
    2a25:	8b 73 40             	mov    0x40(%ebx),%esi
    2a28:	3b 75 d8             	cmp    -0x28(%ebp),%esi
    2a2b:	0f 84 c7 00 00 00    	je     2af8 <block_get+0x1e8>
    2a31:	83 ec 0c             	sub    $0xc,%esp
    2a34:	8d 7e b8             	lea    -0x48(%esi),%edi
    2a37:	57                   	push   %edi
    2a38:	e8 63 19 00 00       	call   43a0 <fibril_mutex_lock@plt>
    2a3d:	83 c4 10             	add    $0x10,%esp
    2a40:	80 7f 14 00          	cmpb   $0x0,0x14(%edi)
    2a44:	0f 84 1e 02 00 00    	je     2c68 <block_get+0x358>
    2a4a:	8b 4f 48             	mov    0x48(%edi),%ecx
    2a4d:	85 c9                	test   %ecx,%ecx
    2a4f:	74 0f                	je     2a60 <block_get+0x150>
    2a51:	8b 47 4c             	mov    0x4c(%edi),%eax
    2a54:	85 c0                	test   %eax,%eax
    2a56:	74 08                	je     2a60 <block_get+0x150>
    2a58:	89 08                	mov    %ecx,(%eax)
    2a5a:	8b 4f 48             	mov    0x48(%edi),%ecx
    2a5d:	89 41 04             	mov    %eax,0x4(%ecx)
    2a60:	c7 47 48 00 00 00 00 	movl   $0x0,0x48(%edi)
    2a67:	8b 45 d8             	mov    -0x28(%ebp),%eax
    2a6a:	89 47 4c             	mov    %eax,0x4c(%edi)
    2a6d:	8b 43 3c             	mov    0x3c(%ebx),%eax
    2a70:	89 47 48             	mov    %eax,0x48(%edi)
    2a73:	83 ec 0c             	sub    $0xc,%esp
    2a76:	8b 43 3c             	mov    0x3c(%ebx),%eax
    2a79:	89 70 04             	mov    %esi,0x4(%eax)
    2a7c:	89 73 3c             	mov    %esi,0x3c(%ebx)
    2a7f:	53                   	push   %ebx
    2a80:	e8 4b 18 00 00       	call   42d0 <fibril_mutex_unlock@plt>
    2a85:	83 c4 08             	add    $0x8,%esp
    2a88:	8b 77 40             	mov    0x40(%edi),%esi
    2a8b:	8b 4b 14             	mov    0x14(%ebx),%ecx
    2a8e:	8b 47 38             	mov    0x38(%edi),%eax
    2a91:	8b 57 3c             	mov    0x3c(%edi),%edx
    2a94:	56                   	push   %esi
    2a95:	8b 77 58             	mov    0x58(%edi),%esi
    2a98:	89 45 c0             	mov    %eax,-0x40(%ebp)
    2a9b:	56                   	push   %esi
    2a9c:	51                   	push   %ecx
    2a9d:	52                   	push   %edx
    2a9e:	50                   	push   %eax
    2a9f:	8b 45 c8             	mov    -0x38(%ebp),%eax
    2aa2:	89 4d d4             	mov    %ecx,-0x2c(%ebp)
    2aa5:	89 55 c4             	mov    %edx,-0x3c(%ebp)
    2aa8:	8b 40 10             	mov    0x10(%eax),%eax
    2aab:	50                   	push   %eax
    2aac:	e8 2f 17 00 00       	call   41e0 <bd_write_blocks@plt>
    2ab1:	83 c4 20             	add    $0x20,%esp
    2ab4:	89 c6                	mov    %eax,%esi
    2ab6:	85 c0                	test   %eax,%eax
    2ab8:	8b 4d d4             	mov    -0x2c(%ebp),%ecx
    2abb:	0f 85 a7 00 00 00    	jne    2b68 <block_get+0x258>
    2ac1:	c7 47 44 00 00 00 00 	movl   $0x0,0x44(%edi)
    2ac8:	83 ec 0c             	sub    $0xc,%esp
    2acb:	c6 47 14 00          	movb   $0x0,0x14(%edi)
    2acf:	53                   	push   %ebx
    2ad0:	e8 cb 17 00 00       	call   42a0 <fibril_mutex_trylock@plt>
    2ad5:	83 c4 10             	add    $0x10,%esp
    2ad8:	84 c0                	test   %al,%al
    2ada:	0f 85 b7 02 00 00    	jne    2d97 <block_get+0x487>
    2ae0:	83 ec 0c             	sub    $0xc,%esp
    2ae3:	57                   	push   %edi
    2ae4:	e8 e7 17 00 00       	call   42d0 <fibril_mutex_unlock@plt>
    2ae9:	83 c4 10             	add    $0x10,%esp
    2aec:	e9 07 ff ff ff       	jmp    29f8 <block_get+0xe8>
    2af1:	8d b4 26 00 00 00 00 	lea    0x0(%esi,%eiz,1),%esi
    2af8:	83 ec 0c             	sub    $0xc,%esp
    2afb:	6a 5c                	push   $0x5c
    2afd:	e8 1e 17 00 00       	call   4220 <malloc@plt>
    2b02:	83 c4 10             	add    $0x10,%esp
    2b05:	89 c7                	mov    %eax,%edi
    2b07:	85 c0                	test   %eax,%eax
    2b09:	74 26                	je     2b31 <block_get+0x221>
    2b0b:	83 ec 0c             	sub    $0xc,%esp
    2b0e:	8b 43 10             	mov    0x10(%ebx),%eax
    2b11:	50                   	push   %eax
    2b12:	e8 09 17 00 00       	call   4220 <malloc@plt>
    2b17:	83 c4 10             	add    $0x10,%esp
    2b1a:	89 47 58             	mov    %eax,0x58(%edi)
    2b1d:	85 c0                	test   %eax,%eax
    2b1f:	0f 85 14 03 00 00    	jne    2e39 <block_get+0x529>
    2b25:	83 ec 0c             	sub    $0xc,%esp
    2b28:	57                   	push   %edi
    2b29:	e8 62 18 00 00       	call   4390 <free@plt>
    2b2e:	83 c4 10             	add    $0x10,%esp
    2b31:	8b 73 40             	mov    0x40(%ebx),%esi
    2b34:	3b 75 d8             	cmp    -0x28(%ebp),%esi
    2b37:	0f 85 f4 fe ff ff    	jne    2a31 <block_get+0x121>
    2b3d:	83 ec 0c             	sub    $0xc,%esp
    2b40:	31 ff                	xor    %edi,%edi
    2b42:	53                   	push   %ebx
    2b43:	e8 88 17 00 00       	call   42d0 <fibril_mutex_unlock@plt>
    2b48:	83 c4 10             	add    $0x10,%esp
    2b4b:	c7 45 d8 fe ff ff ff 	movl   $0xfffffffe,-0x28(%ebp)
    2b52:	8b 45 08             	mov    0x8(%ebp),%eax
    2b55:	89 38                	mov    %edi,(%eax)
    2b57:	8b 45 d8             	mov    -0x28(%ebp),%eax
    2b5a:	8d 65 f4             	lea    -0xc(%ebp),%esp
    2b5d:	5b                   	pop    %ebx
    2b5e:	5e                   	pop    %esi
    2b5f:	5f                   	pop    %edi
    2b60:	5d                   	pop    %ebp
    2b61:	c3                   	ret    
    2b62:	8d b6 00 00 00 00    	lea    0x0(%esi),%esi
    2b68:	50                   	push   %eax
    2b69:	50                   	push   %eax
    2b6a:	8b 45 c8             	mov    -0x38(%ebp),%eax
    2b6d:	8b 55 c0             	mov    -0x40(%ebp),%edx
    2b70:	8b 40 08             	mov    0x8(%eax),%eax
    2b73:	50                   	push   %eax
    2b74:	8b 45 c4             	mov    -0x3c(%ebp),%eax
    2b77:	50                   	push   %eax
    2b78:	52                   	push   %edx
    2b79:	51                   	push   %ecx
    2b7a:	56                   	push   %esi
    2b7b:	68 8c 3f 00 00       	push   $0x3f8c
    2b80:	e8 0b 16 00 00       	call   4190 <printf@plt>
    2b85:	83 c4 20             	add    $0x20,%esp
    2b88:	e8 c3 16 00 00       	call   4250 <stacktrace_print@plt>
    2b8d:	8b 47 44             	mov    0x44(%edi),%eax
    2b90:	83 f8 09             	cmp    $0x9,%eax
    2b93:	7f 1b                	jg     2bb0 <block_get+0x2a0>
    2b95:	83 ec 0c             	sub    $0xc,%esp
    2b98:	40                   	inc    %eax
    2b99:	89 47 44             	mov    %eax,0x44(%edi)
    2b9c:	57                   	push   %edi
    2b9d:	e8 2e 17 00 00       	call   42d0 <fibril_mutex_unlock@plt>
    2ba2:	83 c4 10             	add    $0x10,%esp
    2ba5:	e9 4e fe ff ff       	jmp    29f8 <block_get+0xe8>
    2baa:	8d b6 00 00 00 00    	lea    0x0(%esi),%esi
    2bb0:	8b 45 c8             	mov    -0x38(%ebp),%eax
    2bb3:	8b 40 08             	mov    0x8(%eax),%eax
    2bb6:	50                   	push   %eax
    2bb7:	8b 47 34             	mov    0x34(%edi),%eax
    2bba:	50                   	push   %eax
    2bbb:	8b 47 30             	mov    0x30(%edi),%eax
    2bbe:	50                   	push   %eax
    2bbf:	68 d4 3f 00 00       	push   $0x3fd4
    2bc4:	e8 c7 15 00 00       	call   4190 <printf@plt>
    2bc9:	83 c4 10             	add    $0x10,%esp
    2bcc:	e9 f7 fe ff ff       	jmp    2ac8 <block_get+0x1b8>
    2bd1:	8d b4 26 00 00 00 00 	lea    0x0(%esi,%eiz,1),%esi
    2bd8:	3b 46 20             	cmp    0x20(%esi),%eax
    2bdb:	0f 83 e6 fd ff ff    	jae    29c7 <block_get+0xb7>
    2be1:	e9 00 fe ff ff       	jmp    29e6 <block_get+0xd6>
    2be6:	66 90                	xchg   %ax,%ax
    2be8:	c7 45 d8 00 00 00 00 	movl   $0x0,-0x28(%ebp)
    2bef:	8d 78 b0             	lea    -0x50(%eax),%edi
    2bf2:	83 ec 0c             	sub    $0xc,%esp
    2bf5:	57                   	push   %edi
    2bf6:	e8 a5 17 00 00       	call   43a0 <fibril_mutex_lock@plt>
    2bfb:	8b 47 10             	mov    0x10(%edi),%eax
    2bfe:	83 c4 10             	add    $0x10,%esp
    2c01:	85 c0                	test   %eax,%eax
    2c03:	8d 50 01             	lea    0x1(%eax),%edx
    2c06:	89 57 10             	mov    %edx,0x10(%edi)
    2c09:	75 24                	jne    2c2f <block_get+0x31f>
    2c0b:	8b 57 48             	mov    0x48(%edi),%edx
    2c0e:	85 d2                	test   %edx,%edx
    2c10:	74 0f                	je     2c21 <block_get+0x311>
    2c12:	8b 47 4c             	mov    0x4c(%edi),%eax
    2c15:	85 c0                	test   %eax,%eax
    2c17:	74 08                	je     2c21 <block_get+0x311>
    2c19:	89 10                	mov    %edx,(%eax)
    2c1b:	8b 57 48             	mov    0x48(%edi),%edx
    2c1e:	89 42 04             	mov    %eax,0x4(%edx)
    2c21:	c7 47 48 00 00 00 00 	movl   $0x0,0x48(%edi)
    2c28:	c7 47 4c 00 00 00 00 	movl   $0x0,0x4c(%edi)
    2c2f:	8a 47 15             	mov    0x15(%edi),%al
    2c32:	84 c0                	test   %al,%al
    2c34:	0f 85 51 01 00 00    	jne    2d8b <block_get+0x47b>
    2c3a:	8b 45 d8             	mov    -0x28(%ebp),%eax
    2c3d:	85 c0                	test   %eax,%eax
    2c3f:	0f 95 c0             	setne  %al
    2c42:	83 ec 0c             	sub    $0xc,%esp
    2c45:	88 45 d4             	mov    %al,-0x2c(%ebp)
    2c48:	57                   	push   %edi
    2c49:	e8 82 16 00 00       	call   42d0 <fibril_mutex_unlock@plt>
    2c4e:	89 1c 24             	mov    %ebx,(%esp)
    2c51:	e8 7a 16 00 00       	call   42d0 <fibril_mutex_unlock@plt>
    2c56:	83 c4 10             	add    $0x10,%esp
    2c59:	8a 45 d4             	mov    -0x2c(%ebp),%al
    2c5c:	e9 05 01 00 00       	jmp    2d66 <block_get+0x456>
    2c61:	8d b4 26 00 00 00 00 	lea    0x0(%esi,%eiz,1),%esi
    2c68:	8b 75 c8             	mov    -0x38(%ebp),%esi
    2c6b:	83 ec 0c             	sub    $0xc,%esp
    2c6e:	57                   	push   %edi
    2c6f:	e8 5c 16 00 00       	call   42d0 <fibril_mutex_unlock@plt>
    2c74:	8b 57 48             	mov    0x48(%edi),%edx
    2c77:	83 c4 10             	add    $0x10,%esp
    2c7a:	85 d2                	test   %edx,%edx
    2c7c:	74 0f                	je     2c8d <block_get+0x37d>
    2c7e:	8b 47 4c             	mov    0x4c(%edi),%eax
    2c81:	85 c0                	test   %eax,%eax
    2c83:	74 08                	je     2c8d <block_get+0x37d>
    2c85:	89 10                	mov    %edx,(%eax)
    2c87:	8b 57 48             	mov    0x48(%edi),%edx
    2c8a:	89 42 04             	mov    %eax,0x4(%edx)
    2c8d:	c7 47 48 00 00 00 00 	movl   $0x0,0x48(%edi)
    2c94:	c7 47 4c 00 00 00 00 	movl   $0x0,0x4c(%edi)
    2c9b:	50                   	push   %eax
    2c9c:	50                   	push   %eax
    2c9d:	8d 47 50             	lea    0x50(%edi),%eax
    2ca0:	50                   	push   %eax
    2ca1:	8b 45 d0             	mov    -0x30(%ebp),%eax
    2ca4:	50                   	push   %eax
    2ca5:	e8 46 16 00 00       	call   42f0 <hash_table_remove_item@plt>
    2caa:	83 c4 10             	add    $0x10,%esp
    2cad:	83 ec 0c             	sub    $0xc,%esp
    2cb0:	57                   	push   %edi
    2cb1:	e8 2a 16 00 00       	call   42e0 <fibril_mutex_initialize@plt>
    2cb6:	8d 47 18             	lea    0x18(%edi),%eax
    2cb9:	c7 47 10 01 00 00 00 	movl   $0x1,0x10(%edi)
    2cc0:	c7 47 44 00 00 00 00 	movl   $0x0,0x44(%edi)
    2cc7:	c6 47 14 00          	movb   $0x0,0x14(%edi)
    2ccb:	c6 47 15 00          	movb   $0x0,0x15(%edi)
    2ccf:	89 04 24             	mov    %eax,(%esp)
    2cd2:	e8 79 16 00 00       	call   4350 <fibril_rwlock_initialize@plt>
    2cd7:	8b 45 0c             	mov    0xc(%ebp),%eax
    2cda:	89 47 2c             	mov    %eax,0x2c(%edi)
    2cdd:	8b 43 10             	mov    0x10(%ebx),%eax
    2ce0:	89 47 40             	mov    %eax,0x40(%edi)
    2ce3:	8b 45 e0             	mov    -0x20(%ebp),%eax
    2ce6:	89 45 d8             	mov    %eax,-0x28(%ebp)
    2ce9:	8b 4d e4             	mov    -0x1c(%ebp),%ecx
    2cec:	89 47 30             	mov    %eax,0x30(%edi)
    2cef:	8b 46 2c             	mov    0x2c(%esi),%eax
    2cf2:	83 c4 10             	add    $0x10,%esp
    2cf5:	c7 47 48 00 00 00 00 	movl   $0x0,0x48(%edi)
    2cfc:	c7 47 4c 00 00 00 00 	movl   $0x0,0x4c(%edi)
    2d03:	89 4f 34             	mov    %ecx,0x34(%edi)
    2d06:	85 c0                	test   %eax,%eax
    2d08:	0f 84 4f 01 00 00    	je     2e5d <block_get+0x54d>
    2d0e:	8b 40 14             	mov    0x14(%eax),%eax
    2d11:	0f af c8             	imul   %eax,%ecx
    2d14:	f7 65 d8             	mull   -0x28(%ebp)
    2d17:	01 ca                	add    %ecx,%edx
    2d19:	89 47 38             	mov    %eax,0x38(%edi)
    2d1c:	89 57 3c             	mov    %edx,0x3c(%edi)
    2d1f:	50                   	push   %eax
    2d20:	50                   	push   %eax
    2d21:	8d 47 50             	lea    0x50(%edi),%eax
    2d24:	50                   	push   %eax
    2d25:	8b 45 d0             	mov    -0x30(%ebp),%eax
    2d28:	50                   	push   %eax
    2d29:	e8 a2 14 00 00       	call   41d0 <hash_table_insert@plt>
    2d2e:	89 3c 24             	mov    %edi,(%esp)
    2d31:	e8 6a 16 00 00       	call   43a0 <fibril_mutex_lock@plt>
    2d36:	89 1c 24             	mov    %ebx,(%esp)
    2d39:	e8 92 15 00 00       	call   42d0 <fibril_mutex_unlock@plt>
    2d3e:	83 c4 10             	add    $0x10,%esp
    2d41:	f6 45 18 01          	testb  $0x1,0x18(%ebp)
    2d45:	0f 84 83 00 00 00    	je     2dce <block_get+0x4be>
    2d4b:	31 c0                	xor    %eax,%eax
    2d4d:	c7 45 d8 00 00 00 00 	movl   $0x0,-0x28(%ebp)
    2d54:	83 ec 0c             	sub    $0xc,%esp
    2d57:	88 45 d4             	mov    %al,-0x2c(%ebp)
    2d5a:	57                   	push   %edi
    2d5b:	e8 70 15 00 00       	call   42d0 <fibril_mutex_unlock@plt>
    2d60:	83 c4 10             	add    $0x10,%esp
    2d63:	8a 45 d4             	mov    -0x2c(%ebp),%al
    2d66:	84 c0                	test   %al,%al
    2d68:	0f 84 e4 fd ff ff    	je     2b52 <block_get+0x242>
    2d6e:	80 7f 15 00          	cmpb   $0x0,0x15(%edi)
    2d72:	0f 84 fa 00 00 00    	je     2e72 <block_get+0x562>
    2d78:	83 ec 0c             	sub    $0xc,%esp
    2d7b:	57                   	push   %edi
    2d7c:	31 ff                	xor    %edi,%edi
    2d7e:	e8 8d f8 ff ff       	call   2610 <block_put>
    2d83:	83 c4 10             	add    $0x10,%esp
    2d86:	e9 c7 fd ff ff       	jmp    2b52 <block_get+0x242>
    2d8b:	c7 45 d8 f6 fe ff ff 	movl   $0xfffffef6,-0x28(%ebp)
    2d92:	e9 ab fe ff ff       	jmp    2c42 <block_get+0x332>
    2d97:	8d 45 e0             	lea    -0x20(%ebp),%eax
    2d9a:	8b 4d d0             	mov    -0x30(%ebp),%ecx
    2d9d:	89 75 d8             	mov    %esi,-0x28(%ebp)
    2da0:	8b 75 c8             	mov    -0x38(%ebp),%esi
    2da3:	52                   	push   %edx
    2da4:	52                   	push   %edx
    2da5:	50                   	push   %eax
    2da6:	51                   	push   %ecx
    2da7:	e8 94 15 00 00       	call   4340 <hash_table_find@plt>
    2dac:	83 c4 10             	add    $0x10,%esp
    2daf:	89 45 d4             	mov    %eax,-0x2c(%ebp)
    2db2:	85 c0                	test   %eax,%eax
    2db4:	0f 84 b1 fe ff ff    	je     2c6b <block_get+0x35b>
    2dba:	83 ec 0c             	sub    $0xc,%esp
    2dbd:	57                   	push   %edi
    2dbe:	e8 0d 15 00 00       	call   42d0 <fibril_mutex_unlock@plt>
    2dc3:	83 c4 10             	add    $0x10,%esp
    2dc6:	8b 45 d4             	mov    -0x2c(%ebp),%eax
    2dc9:	e9 21 fe ff ff       	jmp    2bef <block_get+0x2df>
    2dce:	83 ec 08             	sub    $0x8,%esp
    2dd1:	8b 4b 14             	mov    0x14(%ebx),%ecx
    2dd4:	8b 5b 10             	mov    0x10(%ebx),%ebx
    2dd7:	8b 47 38             	mov    0x38(%edi),%eax
    2dda:	8b 57 3c             	mov    0x3c(%edi),%edx
    2ddd:	53                   	push   %ebx
    2dde:	8b 5f 58             	mov    0x58(%edi),%ebx
    2de1:	89 45 c8             	mov    %eax,-0x38(%ebp)
    2de4:	53                   	push   %ebx
    2de5:	51                   	push   %ecx
    2de6:	52                   	push   %edx
    2de7:	50                   	push   %eax
    2de8:	8b 46 10             	mov    0x10(%esi),%eax
    2deb:	89 55 cc             	mov    %edx,-0x34(%ebp)
    2dee:	89 4d d4             	mov    %ecx,-0x2c(%ebp)
    2df1:	50                   	push   %eax
    2df2:	e8 89 14 00 00       	call   4280 <bd_read_blocks@plt>
    2df7:	83 c4 20             	add    $0x20,%esp
    2dfa:	89 c2                	mov    %eax,%edx
    2dfc:	89 45 d8             	mov    %eax,-0x28(%ebp)
    2dff:	8b 4d d4             	mov    -0x2c(%ebp),%ecx
    2e02:	31 c0                	xor    %eax,%eax
    2e04:	85 d2                	test   %edx,%edx
    2e06:	0f 84 48 ff ff ff    	je     2d54 <block_get+0x444>
    2e0c:	53                   	push   %ebx
    2e0d:	53                   	push   %ebx
    2e0e:	8b 76 08             	mov    0x8(%esi),%esi
    2e11:	8b 45 cc             	mov    -0x34(%ebp),%eax
    2e14:	56                   	push   %esi
    2e15:	50                   	push   %eax
    2e16:	8b 45 c8             	mov    -0x38(%ebp),%eax
    2e19:	50                   	push   %eax
    2e1a:	51                   	push   %ecx
    2e1b:	52                   	push   %edx
    2e1c:	68 40 3f 00 00       	push   $0x3f40
    2e21:	e8 6a 13 00 00       	call   4190 <printf@plt>
    2e26:	83 c4 20             	add    $0x20,%esp
    2e29:	e8 22 14 00 00       	call   4250 <stacktrace_print@plt>
    2e2e:	c6 47 15 01          	movb   $0x1,0x15(%edi)
    2e32:	b0 01                	mov    $0x1,%al
    2e34:	e9 1b ff ff ff       	jmp    2d54 <block_get+0x444>
    2e39:	8b 43 1c             	mov    0x1c(%ebx),%eax
    2e3c:	8b 75 c8             	mov    -0x38(%ebp),%esi
    2e3f:	40                   	inc    %eax
    2e40:	89 43 1c             	mov    %eax,0x1c(%ebx)
    2e43:	e9 65 fe ff ff       	jmp    2cad <block_get+0x39d>
    2e48:	53                   	push   %ebx
    2e49:	68 8b 01 00 00       	push   $0x18b
    2e4e:	68 f0 3e 00 00       	push   $0x3ef0
    2e53:	68 ff 3e 00 00       	push   $0x3eff
    2e58:	e8 53 14 00 00       	call   42b0 <assert_abort@plt>
    2e5d:	50                   	push   %eax
    2e5e:	68 c6 03 00 00       	push   $0x3c6
    2e63:	68 f0 3e 00 00       	push   $0x3ef0
    2e68:	68 20 3f 00 00       	push   $0x3f20
    2e6d:	e8 3e 14 00 00       	call   42b0 <assert_abort@plt>
    2e72:	50                   	push   %eax
    2e73:	68 34 02 00 00       	push   $0x234
    2e78:	68 f0 3e 00 00       	push   $0x3ef0
    2e7d:	68 36 3f 00 00       	push   $0x3f36
    2e82:	e8 29 14 00 00       	call   42b0 <assert_abort@plt>
    2e87:	89 f6                	mov    %esi,%esi
    2e89:	8d bc 27 00 00 00 00 	lea    0x0(%edi,%eiz,1),%edi

00002e90 <block_seqread>:
    2e90:	55                   	push   %ebp
    2e91:	89 e5                	mov    %esp,%ebp
    2e93:	57                   	push   %edi
    2e94:	56                   	push   %esi
    2e95:	53                   	push   %ebx
    2e96:	83 ec 38             	sub    $0x38,%esp
    2e99:	8b 4d 20             	mov    0x20(%ebp),%ecx
    2e9c:	8b 75 08             	mov    0x8(%ebp),%esi
    2e9f:	68 a4 5a 00 00       	push   $0x5aa4
    2ea4:	89 4d e4             	mov    %ecx,-0x1c(%ebp)
    2ea7:	e8 f4 14 00 00       	call   43a0 <fibril_mutex_lock@plt>
    2eac:	8b 1d a0 5a 00 00    	mov    0x5aa0,%ebx
    2eb2:	83 c4 10             	add    $0x10,%esp
    2eb5:	81 fb 9c 5a 00 00    	cmp    $0x5a9c,%ebx
    2ebb:	74 1b                	je     2ed8 <block_seqread+0x48>
    2ebd:	3b 73 08             	cmp    0x8(%ebx),%esi
    2ec0:	8b 4d e4             	mov    -0x1c(%ebp),%ecx
    2ec3:	75 08                	jne    2ecd <block_seqread+0x3d>
    2ec5:	eb 39                	jmp    2f00 <block_seqread+0x70>
    2ec7:	90                   	nop
    2ec8:	3b 73 08             	cmp    0x8(%ebx),%esi
    2ecb:	74 33                	je     2f00 <block_seqread+0x70>
    2ecd:	8b 5b 04             	mov    0x4(%ebx),%ebx
    2ed0:	81 fb 9c 5a 00 00    	cmp    $0x5a9c,%ebx
    2ed6:	75 f0                	jne    2ec8 <block_seqread+0x38>
    2ed8:	83 ec 0c             	sub    $0xc,%esp
    2edb:	68 a4 5a 00 00       	push   $0x5aa4
    2ee0:	e8 eb 13 00 00       	call   42d0 <fibril_mutex_unlock@plt>
    2ee5:	83 c4 0c             	add    $0xc,%esp
    2ee8:	68 c6 02 00 00       	push   $0x2c6
    2eed:	68 f0 3e 00 00       	push   $0x3ef0
    2ef2:	68 f8 3e 00 00       	push   $0x3ef8
    2ef7:	e8 b4 13 00 00       	call   42b0 <assert_abort@plt>
    2efc:	8d 74 26 00          	lea    0x0(%esi,%eiz,1),%esi
    2f00:	83 ec 0c             	sub    $0xc,%esp
    2f03:	89 4d e4             	mov    %ecx,-0x1c(%ebp)
    2f06:	68 a4 5a 00 00       	push   $0x5aa4
    2f0b:	e8 c0 13 00 00       	call   42d0 <fibril_mutex_unlock@plt>
    2f10:	8b 43 28             	mov    0x28(%ebx),%eax
    2f13:	8b 4d e4             	mov    -0x1c(%ebp),%ecx
    2f16:	83 c4 10             	add    $0x10,%esp
    2f19:	89 45 d8             	mov    %eax,-0x28(%ebp)
    2f1c:	85 c9                	test   %ecx,%ecx
    2f1e:	0f 84 e0 00 00 00    	je     3004 <block_seqread+0x174>
    2f24:	89 c6                	mov    %eax,%esi
    2f26:	8b 45 14             	mov    0x14(%ebp),%eax
    2f29:	89 5d dc             	mov    %ebx,-0x24(%ebp)
    2f2c:	c7 45 e4 00 00 00 00 	movl   $0x0,-0x1c(%ebp)
    2f33:	8b 00                	mov    (%eax),%eax
    2f35:	89 75 d0             	mov    %esi,-0x30(%ebp)
    2f38:	c7 45 d4 00 00 00 00 	movl   $0x0,-0x2c(%ebp)
    2f3f:	8b 5d 10             	mov    0x10(%ebp),%ebx
    2f42:	eb 1a                	jmp    2f5e <block_seqread+0xce>
    2f44:	8d 74 26 00          	lea    0x0(%esi,%eiz,1),%esi
    2f48:	89 c2                	mov    %eax,%edx
    2f4a:	29 fa                	sub    %edi,%edx
    2f4c:	0f 85 f0 00 00 00    	jne    3042 <block_seqread+0x1b2>
    2f52:	39 c7                	cmp    %eax,%edi
    2f54:	74 56                	je     2fac <block_seqread+0x11c>
    2f56:	85 c9                	test   %ecx,%ecx
    2f58:	0f 84 a6 00 00 00    	je     3004 <block_seqread+0x174>
    2f5e:	8b 3b                	mov    (%ebx),%edi
    2f60:	8d 14 0f             	lea    (%edi,%ecx,1),%edx
    2f63:	39 c2                	cmp    %eax,%edx
    2f65:	73 e1                	jae    2f48 <block_seqread+0xb8>
    2f67:	31 f6                	xor    %esi,%esi
    2f69:	50                   	push   %eax
    2f6a:	8b 45 0c             	mov    0xc(%ebp),%eax
    2f6d:	01 c7                	add    %eax,%edi
    2f6f:	51                   	push   %ecx
    2f70:	8b 45 1c             	mov    0x1c(%ebp),%eax
    2f73:	57                   	push   %edi
    2f74:	8b 7d e4             	mov    -0x1c(%ebp),%edi
    2f77:	89 4d e0             	mov    %ecx,-0x20(%ebp)
    2f7a:	01 f8                	add    %edi,%eax
    2f7c:	50                   	push   %eax
    2f7d:	e8 8e 12 00 00       	call   4210 <memcpy@plt>
    2f82:	8b 4d e0             	mov    -0x20(%ebp),%ecx
    2f85:	89 f8                	mov    %edi,%eax
    2f87:	01 c8                	add    %ecx,%eax
    2f89:	8b 3b                	mov    (%ebx),%edi
    2f8b:	01 cf                	add    %ecx,%edi
    2f8d:	89 45 e4             	mov    %eax,-0x1c(%ebp)
    2f90:	89 c8                	mov    %ecx,%eax
    2f92:	8b 4d 18             	mov    0x18(%ebp),%ecx
    2f95:	89 3b                	mov    %edi,(%ebx)
    2f97:	31 d2                	xor    %edx,%edx
    2f99:	01 01                	add    %eax,(%ecx)
    2f9b:	8b 45 14             	mov    0x14(%ebp),%eax
    2f9e:	11 51 04             	adc    %edx,0x4(%ecx)
    2fa1:	8b 00                	mov    (%eax),%eax
    2fa3:	83 c4 10             	add    $0x10,%esp
    2fa6:	89 f1                	mov    %esi,%ecx
    2fa8:	39 c7                	cmp    %eax,%edi
    2faa:	75 aa                	jne    2f56 <block_seqread+0xc6>
    2fac:	8b 45 18             	mov    0x18(%ebp),%eax
    2faf:	8b 75 d4             	mov    -0x2c(%ebp),%esi
    2fb2:	8b 7d d0             	mov    -0x30(%ebp),%edi
    2fb5:	56                   	push   %esi
    2fb6:	57                   	push   %edi
    2fb7:	89 4d e0             	mov    %ecx,-0x20(%ebp)
    2fba:	8b 50 04             	mov    0x4(%eax),%edx
    2fbd:	52                   	push   %edx
    2fbe:	8b 08                	mov    (%eax),%ecx
    2fc0:	51                   	push   %ecx
    2fc1:	e8 aa 12 00 00       	call   4270 <__udivdi3@plt>
    2fc6:	5e                   	pop    %esi
    2fc7:	89 c6                	mov    %eax,%esi
    2fc9:	8b 45 dc             	mov    -0x24(%ebp),%eax
    2fcc:	5f                   	pop    %edi
    2fcd:	8b 4d 0c             	mov    0xc(%ebp),%ecx
    2fd0:	89 d7                	mov    %edx,%edi
    2fd2:	8b 50 28             	mov    0x28(%eax),%edx
    2fd5:	52                   	push   %edx
    2fd6:	51                   	push   %ecx
    2fd7:	8b 40 10             	mov    0x10(%eax),%eax
    2fda:	6a 01                	push   $0x1
    2fdc:	57                   	push   %edi
    2fdd:	56                   	push   %esi
    2fde:	50                   	push   %eax
    2fdf:	e8 9c 12 00 00       	call   4280 <bd_read_blocks@plt>
    2fe4:	83 c4 20             	add    $0x20,%esp
    2fe7:	8b 4d e0             	mov    -0x20(%ebp),%ecx
    2fea:	85 c0                	test   %eax,%eax
    2fec:	75 22                	jne    3010 <block_seqread+0x180>
    2fee:	8b 75 14             	mov    0x14(%ebp),%esi
    2ff1:	8b 45 d8             	mov    -0x28(%ebp),%eax
    2ff4:	c7 03 00 00 00 00    	movl   $0x0,(%ebx)
    2ffa:	85 c9                	test   %ecx,%ecx
    2ffc:	89 06                	mov    %eax,(%esi)
    2ffe:	0f 85 5a ff ff ff    	jne    2f5e <block_seqread+0xce>
    3004:	8d 65 f4             	lea    -0xc(%ebp),%esp
    3007:	31 d2                	xor    %edx,%edx
    3009:	89 d0                	mov    %edx,%eax
    300b:	5b                   	pop    %ebx
    300c:	5e                   	pop    %esi
    300d:	5f                   	pop    %edi
    300e:	5d                   	pop    %ebp
    300f:	c3                   	ret    
    3010:	8b 5d dc             	mov    -0x24(%ebp),%ebx
    3013:	89 c2                	mov    %eax,%edx
    3015:	50                   	push   %eax
    3016:	50                   	push   %eax
    3017:	8b 4b 08             	mov    0x8(%ebx),%ecx
    301a:	89 55 e4             	mov    %edx,-0x1c(%ebp)
    301d:	51                   	push   %ecx
    301e:	57                   	push   %edi
    301f:	56                   	push   %esi
    3020:	6a 01                	push   $0x1
    3022:	52                   	push   %edx
    3023:	68 40 3f 00 00       	push   $0x3f40
    3028:	e8 63 11 00 00       	call   4190 <printf@plt>
    302d:	83 c4 20             	add    $0x20,%esp
    3030:	e8 1b 12 00 00       	call   4250 <stacktrace_print@plt>
    3035:	8b 55 e4             	mov    -0x1c(%ebp),%edx
    3038:	8d 65 f4             	lea    -0xc(%ebp),%esp
    303b:	89 d0                	mov    %edx,%eax
    303d:	5b                   	pop    %ebx
    303e:	5e                   	pop    %esi
    303f:	5f                   	pop    %edi
    3040:	5d                   	pop    %ebp
    3041:	c3                   	ret    
    3042:	89 ce                	mov    %ecx,%esi
    3044:	89 d1                	mov    %edx,%ecx
    3046:	29 d6                	sub    %edx,%esi
    3048:	e9 1c ff ff ff       	jmp    2f69 <block_seqread+0xd9>
    304d:	8d 76 00             	lea    0x0(%esi),%esi

00003050 <block_read_direct>:
    3050:	55                   	push   %ebp
    3051:	89 e5                	mov    %esp,%ebp
    3053:	57                   	push   %edi
    3054:	56                   	push   %esi
    3055:	53                   	push   %ebx
    3056:	83 ec 28             	sub    $0x28,%esp
    3059:	8b 45 08             	mov    0x8(%ebp),%eax
    305c:	8b 75 0c             	mov    0xc(%ebp),%esi
    305f:	68 a4 5a 00 00       	push   $0x5aa4
    3064:	89 45 e4             	mov    %eax,-0x1c(%ebp)
    3067:	8b 7d 10             	mov    0x10(%ebp),%edi
    306a:	e8 31 13 00 00       	call   43a0 <fibril_mutex_lock@plt>
    306f:	8b 1d a0 5a 00 00    	mov    0x5aa0,%ebx
    3075:	83 c4 10             	add    $0x10,%esp
    3078:	81 fb 9c 5a 00 00    	cmp    $0x5a9c,%ebx
    307e:	74 20                	je     30a0 <block_read_direct+0x50>
    3080:	8b 45 e4             	mov    -0x1c(%ebp),%eax
    3083:	3b 43 08             	cmp    0x8(%ebx),%eax
    3086:	75 0d                	jne    3095 <block_read_direct+0x45>
    3088:	eb 3e                	jmp    30c8 <block_read_direct+0x78>
    308a:	8d b6 00 00 00 00    	lea    0x0(%esi),%esi
    3090:	3b 43 08             	cmp    0x8(%ebx),%eax
    3093:	74 33                	je     30c8 <block_read_direct+0x78>
    3095:	8b 5b 04             	mov    0x4(%ebx),%ebx
    3098:	81 fb 9c 5a 00 00    	cmp    $0x5a9c,%ebx
    309e:	75 f0                	jne    3090 <block_read_direct+0x40>
    30a0:	83 ec 0c             	sub    $0xc,%esp
    30a3:	68 a4 5a 00 00       	push   $0x5aa4
    30a8:	e8 23 12 00 00       	call   42d0 <fibril_mutex_unlock@plt>
    30ad:	83 c4 0c             	add    $0xc,%esp
    30b0:	68 fd 02 00 00       	push   $0x2fd
    30b5:	68 f0 3e 00 00       	push   $0x3ef0
    30ba:	68 f8 3e 00 00       	push   $0x3ef8
    30bf:	e8 ec 11 00 00       	call   42b0 <assert_abort@plt>
    30c4:	8d 74 26 00          	lea    0x0(%esi,%eiz,1),%esi
    30c8:	83 ec 0c             	sub    $0xc,%esp
    30cb:	68 a4 5a 00 00       	push   $0x5aa4
    30d0:	e8 fb 11 00 00       	call   42d0 <fibril_mutex_unlock@plt>
    30d5:	58                   	pop    %eax
    30d6:	8b 4b 28             	mov    0x28(%ebx),%ecx
    30d9:	8b 45 14             	mov    0x14(%ebp),%eax
    30dc:	5a                   	pop    %edx
    30dd:	0f af c1             	imul   %ecx,%eax
    30e0:	50                   	push   %eax
    30e1:	8b 45 18             	mov    0x18(%ebp),%eax
    30e4:	50                   	push   %eax
    30e5:	8b 45 14             	mov    0x14(%ebp),%eax
    30e8:	50                   	push   %eax
    30e9:	8b 43 10             	mov    0x10(%ebx),%eax
    30ec:	57                   	push   %edi
    30ed:	56                   	push   %esi
    30ee:	50                   	push   %eax
    30ef:	e8 8c 11 00 00       	call   4280 <bd_read_blocks@plt>
    30f4:	83 c4 20             	add    $0x20,%esp
    30f7:	89 c1                	mov    %eax,%ecx
    30f9:	85 c0                	test   %eax,%eax
    30fb:	74 25                	je     3122 <block_read_direct+0xd2>
    30fd:	50                   	push   %eax
    30fe:	50                   	push   %eax
    30ff:	8b 53 08             	mov    0x8(%ebx),%edx
    3102:	8b 5d 14             	mov    0x14(%ebp),%ebx
    3105:	52                   	push   %edx
    3106:	57                   	push   %edi
    3107:	56                   	push   %esi
    3108:	53                   	push   %ebx
    3109:	51                   	push   %ecx
    310a:	68 40 3f 00 00       	push   $0x3f40
    310f:	89 4d e4             	mov    %ecx,-0x1c(%ebp)
    3112:	e8 79 10 00 00       	call   4190 <printf@plt>
    3117:	83 c4 20             	add    $0x20,%esp
    311a:	e8 31 11 00 00       	call   4250 <stacktrace_print@plt>
    311f:	8b 4d e4             	mov    -0x1c(%ebp),%ecx
    3122:	8d 65 f4             	lea    -0xc(%ebp),%esp
    3125:	89 c8                	mov    %ecx,%eax
    3127:	5b                   	pop    %ebx
    3128:	5e                   	pop    %esi
    3129:	5f                   	pop    %edi
    312a:	5d                   	pop    %ebp
    312b:	c3                   	ret    
    312c:	8d 74 26 00          	lea    0x0(%esi,%eiz,1),%esi

00003130 <block_write_direct>:
    3130:	55                   	push   %ebp
    3131:	89 e5                	mov    %esp,%ebp
    3133:	57                   	push   %edi
    3134:	56                   	push   %esi
    3135:	53                   	push   %ebx
    3136:	83 ec 28             	sub    $0x28,%esp
    3139:	8b 45 08             	mov    0x8(%ebp),%eax
    313c:	8b 75 0c             	mov    0xc(%ebp),%esi
    313f:	68 a4 5a 00 00       	push   $0x5aa4
    3144:	89 45 e4             	mov    %eax,-0x1c(%ebp)
    3147:	8b 7d 10             	mov    0x10(%ebp),%edi
    314a:	e8 51 12 00 00       	call   43a0 <fibril_mutex_lock@plt>
    314f:	8b 1d a0 5a 00 00    	mov    0x5aa0,%ebx
    3155:	83 c4 10             	add    $0x10,%esp
    3158:	81 fb 9c 5a 00 00    	cmp    $0x5a9c,%ebx
    315e:	74 20                	je     3180 <block_write_direct+0x50>
    3160:	8b 45 e4             	mov    -0x1c(%ebp),%eax
    3163:	3b 43 08             	cmp    0x8(%ebx),%eax
    3166:	75 0d                	jne    3175 <block_write_direct+0x45>
    3168:	eb 3e                	jmp    31a8 <block_write_direct+0x78>
    316a:	8d b6 00 00 00 00    	lea    0x0(%esi),%esi
    3170:	3b 43 08             	cmp    0x8(%ebx),%eax
    3173:	74 33                	je     31a8 <block_write_direct+0x78>
    3175:	8b 5b 04             	mov    0x4(%ebx),%ebx
    3178:	81 fb 9c 5a 00 00    	cmp    $0x5a9c,%ebx
    317e:	75 f0                	jne    3170 <block_write_direct+0x40>
    3180:	83 ec 0c             	sub    $0xc,%esp
    3183:	68 a4 5a 00 00       	push   $0x5aa4
    3188:	e8 43 11 00 00       	call   42d0 <fibril_mutex_unlock@plt>
    318d:	83 c4 0c             	add    $0xc,%esp
    3190:	68 11 03 00 00       	push   $0x311
    3195:	68 f0 3e 00 00       	push   $0x3ef0
    319a:	68 f8 3e 00 00       	push   $0x3ef8
    319f:	e8 0c 11 00 00       	call   42b0 <assert_abort@plt>
    31a4:	8d 74 26 00          	lea    0x0(%esi,%eiz,1),%esi
    31a8:	83 ec 0c             	sub    $0xc,%esp
    31ab:	68 a4 5a 00 00       	push   $0x5aa4
    31b0:	e8 1b 11 00 00       	call   42d0 <fibril_mutex_unlock@plt>
    31b5:	58                   	pop    %eax
    31b6:	8b 4b 28             	mov    0x28(%ebx),%ecx
    31b9:	8b 45 14             	mov    0x14(%ebp),%eax
    31bc:	5a                   	pop    %edx
    31bd:	0f af c1             	imul   %ecx,%eax
    31c0:	50                   	push   %eax
    31c1:	8b 45 18             	mov    0x18(%ebp),%eax
    31c4:	50                   	push   %eax
    31c5:	8b 45 14             	mov    0x14(%ebp),%eax
    31c8:	50                   	push   %eax
    31c9:	8b 43 10             	mov    0x10(%ebx),%eax
    31cc:	57                   	push   %edi
    31cd:	56                   	push   %esi
    31ce:	50                   	push   %eax
    31cf:	e8 0c 10 00 00       	call   41e0 <bd_write_blocks@plt>
    31d4:	83 c4 20             	add    $0x20,%esp
    31d7:	89 c1                	mov    %eax,%ecx
    31d9:	85 c0                	test   %eax,%eax
    31db:	74 25                	je     3202 <block_write_direct+0xd2>
    31dd:	50                   	push   %eax
    31de:	50                   	push   %eax
    31df:	8b 53 08             	mov    0x8(%ebx),%edx
    31e2:	8b 5d 14             	mov    0x14(%ebp),%ebx
    31e5:	52                   	push   %edx
    31e6:	57                   	push   %edi
    31e7:	56                   	push   %esi
    31e8:	53                   	push   %ebx
    31e9:	51                   	push   %ecx
    31ea:	68 8c 3f 00 00       	push   $0x3f8c
    31ef:	89 4d e4             	mov    %ecx,-0x1c(%ebp)
    31f2:	e8 99 0f 00 00       	call   4190 <printf@plt>
    31f7:	83 c4 20             	add    $0x20,%esp
    31fa:	e8 51 10 00 00       	call   4250 <stacktrace_print@plt>
    31ff:	8b 4d e4             	mov    -0x1c(%ebp),%ecx
    3202:	8d 65 f4             	lea    -0xc(%ebp),%esp
    3205:	89 c8                	mov    %ecx,%eax
    3207:	5b                   	pop    %ebx
    3208:	5e                   	pop    %esi
    3209:	5f                   	pop    %edi
    320a:	5d                   	pop    %ebp
    320b:	c3                   	ret    
    320c:	8d 74 26 00          	lea    0x0(%esi,%eiz,1),%esi

00003210 <block_sync_cache>:
    3210:	55                   	push   %ebp
    3211:	89 e5                	mov    %esp,%ebp
    3213:	57                   	push   %edi
    3214:	56                   	push   %esi
    3215:	53                   	push   %ebx
    3216:	83 ec 28             	sub    $0x28,%esp
    3219:	8b 55 08             	mov    0x8(%ebp),%edx
    321c:	8b 75 0c             	mov    0xc(%ebp),%esi
    321f:	68 a4 5a 00 00       	push   $0x5aa4
    3224:	89 55 e4             	mov    %edx,-0x1c(%ebp)
    3227:	8b 7d 10             	mov    0x10(%ebp),%edi
    322a:	8b 5d 14             	mov    0x14(%ebp),%ebx
    322d:	e8 6e 11 00 00       	call   43a0 <fibril_mutex_lock@plt>
    3232:	a1 a0 5a 00 00       	mov    0x5aa0,%eax
    3237:	83 c4 10             	add    $0x10,%esp
    323a:	3d 9c 5a 00 00       	cmp    $0x5a9c,%eax
    323f:	74 1e                	je     325f <block_sync_cache+0x4f>
    3241:	8b 55 e4             	mov    -0x1c(%ebp),%edx
    3244:	3b 50 08             	cmp    0x8(%eax),%edx
    3247:	75 0c                	jne    3255 <block_sync_cache+0x45>
    3249:	eb 3d                	jmp    3288 <block_sync_cache+0x78>
    324b:	90                   	nop
    324c:	8d 74 26 00          	lea    0x0(%esi,%eiz,1),%esi
    3250:	3b 50 08             	cmp    0x8(%eax),%edx
    3253:	74 33                	je     3288 <block_sync_cache+0x78>
    3255:	8b 40 04             	mov    0x4(%eax),%eax
    3258:	3d 9c 5a 00 00       	cmp    $0x5a9c,%eax
    325d:	75 f1                	jne    3250 <block_sync_cache+0x40>
    325f:	83 ec 0c             	sub    $0xc,%esp
    3262:	68 a4 5a 00 00       	push   $0x5aa4
    3267:	e8 64 10 00 00       	call   42d0 <fibril_mutex_unlock@plt>
    326c:	83 c4 0c             	add    $0xc,%esp
    326f:	68 23 03 00 00       	push   $0x323
    3274:	68 f0 3e 00 00       	push   $0x3ef0
    3279:	68 f8 3e 00 00       	push   $0x3ef8
    327e:	e8 2d 10 00 00       	call   42b0 <assert_abort@plt>
    3283:	90                   	nop
    3284:	8d 74 26 00          	lea    0x0(%esi,%eiz,1),%esi
    3288:	83 ec 0c             	sub    $0xc,%esp
    328b:	89 45 e4             	mov    %eax,-0x1c(%ebp)
    328e:	68 a4 5a 00 00       	push   $0x5aa4
    3293:	e8 38 10 00 00       	call   42d0 <fibril_mutex_unlock@plt>
    3298:	8b 45 e4             	mov    -0x1c(%ebp),%eax
    329b:	89 5d 14             	mov    %ebx,0x14(%ebp)
    329e:	89 75 0c             	mov    %esi,0xc(%ebp)
    32a1:	89 7d 10             	mov    %edi,0x10(%ebp)
    32a4:	8b 40 10             	mov    0x10(%eax),%eax
    32a7:	83 c4 10             	add    $0x10,%esp
    32aa:	89 45 08             	mov    %eax,0x8(%ebp)
    32ad:	8d 65 f4             	lea    -0xc(%ebp),%esp
    32b0:	5b                   	pop    %ebx
    32b1:	5e                   	pop    %esi
    32b2:	5f                   	pop    %edi
    32b3:	5d                   	pop    %ebp
    32b4:	e9 77 10 00 00       	jmp    4330 <bd_sync_cache@plt>
    32b9:	8d b4 26 00 00 00 00 	lea    0x0(%esi,%eiz,1),%esi

000032c0 <block_get_bsize>:
    32c0:	55                   	push   %ebp
    32c1:	89 e5                	mov    %esp,%ebp
    32c3:	57                   	push   %edi
    32c4:	56                   	push   %esi
    32c5:	53                   	push   %ebx
    32c6:	83 ec 18             	sub    $0x18,%esp
    32c9:	8b 75 08             	mov    0x8(%ebp),%esi
    32cc:	8b 7d 0c             	mov    0xc(%ebp),%edi
    32cf:	68 a4 5a 00 00       	push   $0x5aa4
    32d4:	e8 c7 10 00 00       	call   43a0 <fibril_mutex_lock@plt>
    32d9:	8b 1d a0 5a 00 00    	mov    0x5aa0,%ebx
    32df:	83 c4 10             	add    $0x10,%esp
    32e2:	81 fb 9c 5a 00 00    	cmp    $0x5a9c,%ebx
    32e8:	75 11                	jne    32fb <block_get_bsize+0x3b>
    32ea:	eb 3c                	jmp    3328 <block_get_bsize+0x68>
    32ec:	8d 74 26 00          	lea    0x0(%esi,%eiz,1),%esi
    32f0:	8b 5b 04             	mov    0x4(%ebx),%ebx
    32f3:	81 fb 9c 5a 00 00    	cmp    $0x5a9c,%ebx
    32f9:	74 2d                	je     3328 <block_get_bsize+0x68>
    32fb:	3b 73 08             	cmp    0x8(%ebx),%esi
    32fe:	75 f0                	jne    32f0 <block_get_bsize+0x30>
    3300:	83 ec 0c             	sub    $0xc,%esp
    3303:	68 a4 5a 00 00       	push   $0x5aa4
    3308:	e8 c3 0f 00 00       	call   42d0 <fibril_mutex_unlock@plt>
    330d:	89 7d 0c             	mov    %edi,0xc(%ebp)
    3310:	83 c4 10             	add    $0x10,%esp
    3313:	8b 43 10             	mov    0x10(%ebx),%eax
    3316:	89 45 08             	mov    %eax,0x8(%ebp)
    3319:	8d 65 f4             	lea    -0xc(%ebp),%esp
    331c:	5b                   	pop    %ebx
    331d:	5e                   	pop    %esi
    331e:	5f                   	pop    %edi
    331f:	5d                   	pop    %ebp
    3320:	e9 fb 0f 00 00       	jmp    4320 <bd_get_block_size@plt>
    3325:	8d 76 00             	lea    0x0(%esi),%esi
    3328:	83 ec 0c             	sub    $0xc,%esp
    332b:	68 a4 5a 00 00       	push   $0x5aa4
    3330:	e8 9b 0f 00 00       	call   42d0 <fibril_mutex_unlock@plt>
    3335:	83 c4 0c             	add    $0xc,%esp
    3338:	68 34 03 00 00       	push   $0x334
    333d:	68 f0 3e 00 00       	push   $0x3ef0
    3342:	68 f8 3e 00 00       	push   $0x3ef8
    3347:	e8 64 0f 00 00       	call   42b0 <assert_abort@plt>
    334c:	8d 74 26 00          	lea    0x0(%esi,%eiz,1),%esi

00003350 <block_get_nblocks>:
    3350:	55                   	push   %ebp
    3351:	89 e5                	mov    %esp,%ebp
    3353:	57                   	push   %edi
    3354:	56                   	push   %esi
    3355:	53                   	push   %ebx
    3356:	83 ec 18             	sub    $0x18,%esp
    3359:	8b 75 08             	mov    0x8(%ebp),%esi
    335c:	8b 7d 0c             	mov    0xc(%ebp),%edi
    335f:	68 a4 5a 00 00       	push   $0x5aa4
    3364:	e8 37 10 00 00       	call   43a0 <fibril_mutex_lock@plt>
    3369:	8b 1d a0 5a 00 00    	mov    0x5aa0,%ebx
    336f:	83 c4 10             	add    $0x10,%esp
    3372:	81 fb 9c 5a 00 00    	cmp    $0x5a9c,%ebx
    3378:	75 11                	jne    338b <block_get_nblocks+0x3b>
    337a:	eb 3c                	jmp    33b8 <block_get_nblocks+0x68>
    337c:	8d 74 26 00          	lea    0x0(%esi,%eiz,1),%esi
    3380:	8b 5b 04             	mov    0x4(%ebx),%ebx
    3383:	81 fb 9c 5a 00 00    	cmp    $0x5a9c,%ebx
    3389:	74 2d                	je     33b8 <block_get_nblocks+0x68>
    338b:	3b 73 08             	cmp    0x8(%ebx),%esi
    338e:	75 f0                	jne    3380 <block_get_nblocks+0x30>
    3390:	83 ec 0c             	sub    $0xc,%esp
    3393:	68 a4 5a 00 00       	push   $0x5aa4
    3398:	e8 33 0f 00 00       	call   42d0 <fibril_mutex_unlock@plt>
    339d:	89 7d 0c             	mov    %edi,0xc(%ebp)
    33a0:	83 c4 10             	add    $0x10,%esp
    33a3:	8b 43 10             	mov    0x10(%ebx),%eax
    33a6:	89 45 08             	mov    %eax,0x8(%ebp)
    33a9:	8d 65 f4             	lea    -0xc(%ebp),%esp
    33ac:	5b                   	pop    %ebx
    33ad:	5e                   	pop    %esi
    33ae:	5f                   	pop    %edi
    33af:	5d                   	pop    %ebp
    33b0:	e9 3b 0e 00 00       	jmp    41f0 <bd_get_num_blocks@plt>
    33b5:	8d 76 00             	lea    0x0(%esi),%esi
    33b8:	83 ec 0c             	sub    $0xc,%esp
    33bb:	68 a4 5a 00 00       	push   $0x5aa4
    33c0:	e8 0b 0f 00 00       	call   42d0 <fibril_mutex_unlock@plt>
    33c5:	83 c4 0c             	add    $0xc,%esp
    33c8:	68 43 03 00 00       	push   $0x343
    33cd:	68 f0 3e 00 00       	push   $0x3ef0
    33d2:	68 f8 3e 00 00       	push   $0x3ef8
    33d7:	e8 d4 0e 00 00       	call   42b0 <assert_abort@plt>
    33dc:	8d 74 26 00          	lea    0x0(%esi,%eiz,1),%esi

000033e0 <block_read_bytes_direct>:
    33e0:	55                   	push   %ebp
    33e1:	89 e5                	mov    %esp,%ebp
    33e3:	57                   	push   %edi
    33e4:	56                   	push   %esi
    33e5:	53                   	push   %ebx
    33e6:	83 ec 48             	sub    $0x48,%esp
    33e9:	8b 45 0c             	mov    0xc(%ebp),%eax
    33ec:	8b 55 10             	mov    0x10(%ebp),%edx
    33ef:	68 a4 5a 00 00       	push   $0x5aa4
    33f4:	8b 5d 08             	mov    0x8(%ebp),%ebx
    33f7:	89 45 d0             	mov    %eax,-0x30(%ebp)
    33fa:	89 55 d4             	mov    %edx,-0x2c(%ebp)
    33fd:	e8 9e 0f 00 00       	call   43a0 <fibril_mutex_lock@plt>
    3402:	8b 35 a0 5a 00 00    	mov    0x5aa0,%esi
    3408:	83 c4 10             	add    $0x10,%esp
    340b:	81 fe 9c 5a 00 00    	cmp    $0x5a9c,%esi
    3411:	75 10                	jne    3423 <block_read_bytes_direct+0x43>
    3413:	eb 43                	jmp    3458 <block_read_bytes_direct+0x78>
    3415:	8d 76 00             	lea    0x0(%esi),%esi
    3418:	8b 76 04             	mov    0x4(%esi),%esi
    341b:	81 fe 9c 5a 00 00    	cmp    $0x5a9c,%esi
    3421:	74 35                	je     3458 <block_read_bytes_direct+0x78>
    3423:	3b 5e 08             	cmp    0x8(%esi),%ebx
    3426:	75 f0                	jne    3418 <block_read_bytes_direct+0x38>
    3428:	83 ec 0c             	sub    $0xc,%esp
    342b:	68 a4 5a 00 00       	push   $0x5aa4
    3430:	e8 9b 0e 00 00       	call   42d0 <fibril_mutex_unlock@plt>
    3435:	8d 45 e4             	lea    -0x1c(%ebp),%eax
    3438:	59                   	pop    %ecx
    3439:	5f                   	pop    %edi
    343a:	50                   	push   %eax
    343b:	8b 46 10             	mov    0x10(%esi),%eax
    343e:	50                   	push   %eax
    343f:	e8 dc 0e 00 00       	call   4320 <bd_get_block_size@plt>
    3444:	83 c4 10             	add    $0x10,%esp
    3447:	89 c1                	mov    %eax,%ecx
    3449:	85 c0                	test   %eax,%eax
    344b:	74 33                	je     3480 <block_read_bytes_direct+0xa0>
    344d:	8d 65 f4             	lea    -0xc(%ebp),%esp
    3450:	89 c8                	mov    %ecx,%eax
    3452:	5b                   	pop    %ebx
    3453:	5e                   	pop    %esi
    3454:	5f                   	pop    %edi
    3455:	5d                   	pop    %ebp
    3456:	c3                   	ret    
    3457:	90                   	nop
    3458:	83 ec 0c             	sub    $0xc,%esp
    345b:	68 a4 5a 00 00       	push   $0x5aa4
    3460:	e8 6b 0e 00 00       	call   42d0 <fibril_mutex_unlock@plt>
    3465:	83 c4 0c             	add    $0xc,%esp
    3468:	68 34 03 00 00       	push   $0x334
    346d:	68 f0 3e 00 00       	push   $0x3ef0
    3472:	68 f8 3e 00 00       	push   $0x3ef8
    3477:	e8 34 0e 00 00       	call   42b0 <assert_abort@plt>
    347c:	8d 74 26 00          	lea    0x0(%esi,%eiz,1),%esi
    3480:	8b 75 e4             	mov    -0x1c(%ebp),%esi
    3483:	31 d2                	xor    %edx,%edx
    3485:	8b 45 d4             	mov    -0x2c(%ebp),%eax
    3488:	52                   	push   %edx
    3489:	56                   	push   %esi
    348a:	50                   	push   %eax
    348b:	8b 45 d0             	mov    -0x30(%ebp),%eax
    348e:	89 75 c8             	mov    %esi,-0x38(%ebp)
    3491:	50                   	push   %eax
    3492:	89 55 cc             	mov    %edx,-0x34(%ebp)
    3495:	e8 d6 0d 00 00       	call   4270 <__udivdi3@plt>
    349a:	83 c4 10             	add    $0x10,%esp
    349d:	89 45 c0             	mov    %eax,-0x40(%ebp)
    34a0:	8b 45 14             	mov    0x14(%ebp),%eax
    34a3:	89 55 c4             	mov    %edx,-0x3c(%ebp)
    34a6:	31 d2                	xor    %edx,%edx
    34a8:	03 45 d0             	add    -0x30(%ebp),%eax
    34ab:	8b 4d cc             	mov    -0x34(%ebp),%ecx
    34ae:	13 55 d4             	adc    -0x2c(%ebp),%edx
    34b1:	83 c0 ff             	add    $0xffffffff,%eax
    34b4:	83 d2 ff             	adc    $0xffffffff,%edx
    34b7:	8b 7d c8             	mov    -0x38(%ebp),%edi
    34ba:	51                   	push   %ecx
    34bb:	57                   	push   %edi
    34bc:	52                   	push   %edx
    34bd:	50                   	push   %eax
    34be:	e8 ad 0d 00 00       	call   4270 <__udivdi3@plt>
    34c3:	8b 55 c0             	mov    -0x40(%ebp),%edx
    34c6:	29 d0                	sub    %edx,%eax
    34c8:	40                   	inc    %eax
    34c9:	0f af f0             	imul   %eax,%esi
    34cc:	89 45 bc             	mov    %eax,-0x44(%ebp)
    34cf:	89 34 24             	mov    %esi,(%esp)
    34d2:	e8 49 0d 00 00       	call   4220 <malloc@plt>
    34d7:	83 c4 10             	add    $0x10,%esp
    34da:	89 c6                	mov    %eax,%esi
    34dc:	85 c0                	test   %eax,%eax
    34de:	0f 84 19 01 00 00    	je     35fd <block_read_bytes_direct+0x21d>
    34e4:	83 ec 0c             	sub    $0xc,%esp
    34e7:	68 a4 5a 00 00       	push   $0x5aa4
    34ec:	e8 af 0e 00 00       	call   43a0 <fibril_mutex_lock@plt>
    34f1:	8b 3d a0 5a 00 00    	mov    0x5aa0,%edi
    34f7:	83 c4 10             	add    $0x10,%esp
    34fa:	81 ff 9c 5a 00 00    	cmp    $0x5a9c,%edi
    3500:	75 15                	jne    3517 <block_read_bytes_direct+0x137>
    3502:	e9 91 00 00 00       	jmp    3598 <block_read_bytes_direct+0x1b8>
    3507:	90                   	nop
    3508:	8b 7f 04             	mov    0x4(%edi),%edi
    350b:	81 ff 9c 5a 00 00    	cmp    $0x5a9c,%edi
    3511:	0f 84 81 00 00 00    	je     3598 <block_read_bytes_direct+0x1b8>
    3517:	3b 5f 08             	cmp    0x8(%edi),%ebx
    351a:	75 ec                	jne    3508 <block_read_bytes_direct+0x128>
    351c:	83 ec 0c             	sub    $0xc,%esp
    351f:	68 a4 5a 00 00       	push   $0x5aa4
    3524:	e8 a7 0d 00 00       	call   42d0 <fibril_mutex_unlock@plt>
    3529:	58                   	pop    %eax
    352a:	8b 47 28             	mov    0x28(%edi),%eax
    352d:	5a                   	pop    %edx
    352e:	8b 55 bc             	mov    -0x44(%ebp),%edx
    3531:	0f af c2             	imul   %edx,%eax
    3534:	50                   	push   %eax
    3535:	56                   	push   %esi
    3536:	8b 4d c4             	mov    -0x3c(%ebp),%ecx
    3539:	8b 5d c0             	mov    -0x40(%ebp),%ebx
    353c:	8b 47 10             	mov    0x10(%edi),%eax
    353f:	52                   	push   %edx
    3540:	51                   	push   %ecx
    3541:	53                   	push   %ebx
    3542:	50                   	push   %eax
    3543:	e8 38 0d 00 00       	call   4280 <bd_read_blocks@plt>
    3548:	83 c4 20             	add    $0x20,%esp
    354b:	89 c1                	mov    %eax,%ecx
    354d:	85 c0                	test   %eax,%eax
    354f:	75 6b                	jne    35bc <block_read_bytes_direct+0x1dc>
    3551:	89 45 c0             	mov    %eax,-0x40(%ebp)
    3554:	8b 55 14             	mov    0x14(%ebp),%edx
    3557:	8b 5d cc             	mov    -0x34(%ebp),%ebx
    355a:	8b 7d c8             	mov    -0x38(%ebp),%edi
    355d:	50                   	push   %eax
    355e:	8b 45 d4             	mov    -0x2c(%ebp),%eax
    3561:	52                   	push   %edx
    3562:	51                   	push   %ecx
    3563:	51                   	push   %ecx
    3564:	53                   	push   %ebx
    3565:	57                   	push   %edi
    3566:	50                   	push   %eax
    3567:	8b 45 d0             	mov    -0x30(%ebp),%eax
    356a:	50                   	push   %eax
    356b:	e8 f0 0c 00 00       	call   4260 <__umoddi3@plt>
    3570:	83 c4 18             	add    $0x18,%esp
    3573:	01 f0                	add    %esi,%eax
    3575:	50                   	push   %eax
    3576:	8b 45 18             	mov    0x18(%ebp),%eax
    3579:	50                   	push   %eax
    357a:	e8 91 0c 00 00       	call   4210 <memcpy@plt>
    357f:	89 34 24             	mov    %esi,(%esp)
    3582:	e8 09 0e 00 00       	call   4390 <free@plt>
    3587:	8b 4d c0             	mov    -0x40(%ebp),%ecx
    358a:	83 c4 10             	add    $0x10,%esp
    358d:	8d 65 f4             	lea    -0xc(%ebp),%esp
    3590:	89 c8                	mov    %ecx,%eax
    3592:	5b                   	pop    %ebx
    3593:	5e                   	pop    %esi
    3594:	5f                   	pop    %edi
    3595:	5d                   	pop    %ebp
    3596:	c3                   	ret    
    3597:	90                   	nop
    3598:	83 ec 0c             	sub    $0xc,%esp
    359b:	68 a4 5a 00 00       	push   $0x5aa4
    35a0:	e8 2b 0d 00 00       	call   42d0 <fibril_mutex_unlock@plt>
    35a5:	83 c4 0c             	add    $0xc,%esp
    35a8:	68 fd 02 00 00       	push   $0x2fd
    35ad:	68 f0 3e 00 00       	push   $0x3ef0
    35b2:	68 f8 3e 00 00       	push   $0x3ef8
    35b7:	e8 f4 0c 00 00       	call   42b0 <assert_abort@plt>
    35bc:	50                   	push   %eax
    35bd:	50                   	push   %eax
    35be:	8b 47 08             	mov    0x8(%edi),%eax
    35c1:	8b 55 c0             	mov    -0x40(%ebp),%edx
    35c4:	50                   	push   %eax
    35c5:	8b 5d bc             	mov    -0x44(%ebp),%ebx
    35c8:	8b 45 c4             	mov    -0x3c(%ebp),%eax
    35cb:	89 4d d0             	mov    %ecx,-0x30(%ebp)
    35ce:	50                   	push   %eax
    35cf:	52                   	push   %edx
    35d0:	53                   	push   %ebx
    35d1:	51                   	push   %ecx
    35d2:	68 40 3f 00 00       	push   $0x3f40
    35d7:	e8 b4 0b 00 00       	call   4190 <printf@plt>
    35dc:	83 c4 20             	add    $0x20,%esp
    35df:	e8 6c 0c 00 00       	call   4250 <stacktrace_print@plt>
    35e4:	83 ec 0c             	sub    $0xc,%esp
    35e7:	56                   	push   %esi
    35e8:	e8 a3 0d 00 00       	call   4390 <free@plt>
    35ed:	8b 4d d0             	mov    -0x30(%ebp),%ecx
    35f0:	83 c4 10             	add    $0x10,%esp
    35f3:	8d 65 f4             	lea    -0xc(%ebp),%esp
    35f6:	89 c8                	mov    %ecx,%eax
    35f8:	5b                   	pop    %ebx
    35f9:	5e                   	pop    %esi
    35fa:	5f                   	pop    %edi
    35fb:	5d                   	pop    %ebp
    35fc:	c3                   	ret    
    35fd:	b9 fe ff ff ff       	mov    $0xfffffffe,%ecx
    3602:	e9 46 fe ff ff       	jmp    344d <block_read_bytes_direct+0x6d>
    3607:	89 f6                	mov    %esi,%esi
    3609:	8d bc 27 00 00 00 00 	lea    0x0(%edi,%eiz,1),%edi

00003610 <block_read_toc>:
    3610:	55                   	push   %ebp
    3611:	89 e5                	mov    %esp,%ebp
    3613:	57                   	push   %edi
    3614:	56                   	push   %esi
    3615:	53                   	push   %ebx
    3616:	83 ec 28             	sub    $0x28,%esp
    3619:	8b 55 08             	mov    0x8(%ebp),%edx
    361c:	8b 5d 0c             	mov    0xc(%ebp),%ebx
    361f:	68 a4 5a 00 00       	push   $0x5aa4
    3624:	89 55 e4             	mov    %edx,-0x1c(%ebp)
    3627:	8b 75 10             	mov    0x10(%ebp),%esi
    362a:	8b 7d 14             	mov    0x14(%ebp),%edi
    362d:	e8 6e 0d 00 00       	call   43a0 <fibril_mutex_lock@plt>
    3632:	a1 a0 5a 00 00       	mov    0x5aa0,%eax
    3637:	83 c4 10             	add    $0x10,%esp
    363a:	3d 9c 5a 00 00       	cmp    $0x5a9c,%eax
    363f:	74 1e                	je     365f <block_read_toc+0x4f>
    3641:	8b 55 e4             	mov    -0x1c(%ebp),%edx
    3644:	3b 50 08             	cmp    0x8(%eax),%edx
    3647:	75 0c                	jne    3655 <block_read_toc+0x45>
    3649:	eb 3d                	jmp    3688 <block_read_toc+0x78>
    364b:	90                   	nop
    364c:	8d 74 26 00          	lea    0x0(%esi,%eiz,1),%esi
    3650:	3b 50 08             	cmp    0x8(%eax),%edx
    3653:	74 33                	je     3688 <block_read_toc+0x78>
    3655:	8b 40 04             	mov    0x4(%eax),%eax
    3658:	3d 9c 5a 00 00       	cmp    $0x5a9c,%eax
    365d:	75 f1                	jne    3650 <block_read_toc+0x40>
    365f:	83 ec 0c             	sub    $0xc,%esp
    3662:	68 a4 5a 00 00       	push   $0x5aa4
    3667:	e8 64 0c 00 00       	call   42d0 <fibril_mutex_unlock@plt>
    366c:	83 c4 0c             	add    $0xc,%esp
    366f:	68 8a 03 00 00       	push   $0x38a
    3674:	68 f0 3e 00 00       	push   $0x3ef0
    3679:	68 f8 3e 00 00       	push   $0x3ef8
    367e:	e8 2d 0c 00 00       	call   42b0 <assert_abort@plt>
    3683:	90                   	nop
    3684:	8d 74 26 00          	lea    0x0(%esi,%eiz,1),%esi
    3688:	83 ec 0c             	sub    $0xc,%esp
    368b:	89 45 e4             	mov    %eax,-0x1c(%ebp)
    368e:	81 e3 ff 00 00 00    	and    $0xff,%ebx
    3694:	68 a4 5a 00 00       	push   $0x5aa4
    3699:	e8 32 0c 00 00       	call   42d0 <fibril_mutex_unlock@plt>
    369e:	8b 45 e4             	mov    -0x1c(%ebp),%eax
    36a1:	89 7d 14             	mov    %edi,0x14(%ebp)
    36a4:	89 75 10             	mov    %esi,0x10(%ebp)
    36a7:	89 5d 0c             	mov    %ebx,0xc(%ebp)
    36aa:	8b 40 10             	mov    0x10(%eax),%eax
    36ad:	83 c4 10             	add    $0x10,%esp
    36b0:	89 45 08             	mov    %eax,0x8(%ebp)
    36b3:	8d 65 f4             	lea    -0xc(%ebp),%esp
    36b6:	5b                   	pop    %ebx
    36b7:	5e                   	pop    %esi
    36b8:	5f                   	pop    %edi
    36b9:	5d                   	pop    %ebp
    36ba:	e9 01 0c 00 00       	jmp    42c0 <bd_read_toc@plt>

000036bf <write_blocks.part.3>:
    36bf:	55                   	push   %ebp
    36c0:	89 e5                	mov    %esp,%ebp
    36c2:	83 ec 0c             	sub    $0xc,%esp
    36c5:	68 b5 03 00 00       	push   $0x3b5
    36ca:	68 f0 3e 00 00       	push   $0x3ef0
    36cf:	68 f8 3e 00 00       	push   $0x3ef8
    36d4:	e8 d7 0b 00 00       	call   42b0 <assert_abort@plt>
    36d9:	59                   	pop    %ecx
    36da:	65 73 00             	gs jae 36dd <write_blocks.part.3+0x1e>
    36dd:	4e                   	dec    %esi
    36de:	6f                   	outsl  %ds:(%esi),(%dx)
    36df:	00 6c 68 31          	add    %ch,0x31(%eax,%ebp,2)
    36e3:	32 62 3a             	xor    0x3a(%edx),%ah
    36e6:	69 3a 00 6d 6b 6d    	imul   $0x6d6b6d00,(%edx),%edi
    36ec:	66 73 3a             	data16 jae 3729 <write_blocks.part.3+0x6a>
    36ef:	20 57 72             	and    %dl,0x72(%edi)
    36f2:	69 74 69 6e 67 20 73 	imul   $0x75732067,0x6e(%ecx,%ebp,2),%esi
    36f9:	75 
    36fa:	70 65                	jo     3761 <write_blocks.part.3+0xa2>
    36fc:	72 62                	jb     3760 <write_blocks.part.3+0xa1>
    36fe:	6c                   	insb   (%dx),%es:(%edi)
    36ff:	6f                   	outsl  %ds:(%esi),(%dx)
    3700:	63 6b 0a             	arpl   %bp,0xa(%ebx)
    3703:	00 6d 6b             	add    %ch,0x6b(%ebp)
    3706:	6d                   	insl   (%dx),%es:(%edi)
    3707:	66 73 3a             	data16 jae 3744 <write_blocks.part.3+0x85>
    370a:	20 25 64 20 62 6c    	and    %ah,0x6c622064
    3710:	6f                   	outsl  %ds:(%esi),(%dx)
    3711:	63 6b 20             	arpl   %bp,0x20(%ebx)
    3714:	73 69                	jae    377f <write_blocks.part.3+0xc0>
    3716:	7a 65                	jp     377d <write_blocks.part.3+0xbe>
    3718:	0a 00                	or     (%eax),%al
    371a:	6d                   	insl   (%dx),%es:(%edi)
    371b:	6b 6d 66 73          	imul   $0x73,0x66(%ebp),%ebp
    371f:	3a 20                	cmp    (%eax),%ah
    3721:	25 64 20 69 6e       	and    $0x6e692064,%eax
    3726:	6f                   	outsl  %ds:(%esi),(%dx)
    3727:	64 65 73 0a          	fs gs jae 3735 <write_blocks.part.3+0x76>
    372b:	00 6d 6b             	add    %ch,0x6b(%ebp)
    372e:	6d                   	insl   (%dx),%es:(%edi)
    372f:	66 73 3a             	data16 jae 376c <write_blocks.part.3+0xad>
    3732:	20 25 64 20 7a 6f    	and    %ah,0x6f7a2064
    3738:	6e                   	outsb  %ds:(%esi),(%dx)
    3739:	65 73 0a             	gs jae 3746 <write_blocks.part.3+0x87>
    373c:	00 6d 6b             	add    %ch,0x6b(%ebp)
    373f:	6d                   	insl   (%dx),%es:(%edi)
    3740:	66 73 3a             	data16 jae 377d <write_blocks.part.3+0xbe>
    3743:	20 66 69             	and    %ah,0x69(%esi)
    3746:	72 73                	jb     37bb <write_blocks.part.3+0xfc>
    3748:	74 20                	je     376a <write_blocks.part.3+0xab>
    374a:	64 61                	fs popa 
    374c:	74 61                	je     37af <write_blocks.part.3+0xf0>
    374e:	20 7a 6f             	and    %bh,0x6f(%edx)
    3751:	6e                   	outsb  %ds:(%esi),(%dx)
    3752:	65 20 3d 20 25 64 0a 	and    %bh,%gs:0xa642520
    3759:	00 6d 6b             	add    %ch,0x6b(%ebp)
    375c:	6d                   	insl   (%dx),%es:(%edi)
    375d:	66 73 3a             	data16 jae 379a <write_blocks.part.3+0xdb>
    3760:	20 6d 61             	and    %ch,0x61(%ebp)
    3763:	78 20                	js     3785 <write_blocks.part.3+0xc6>
    3765:	66 69 6c 65 20 73 69 	imul   $0x6973,0x20(%ebp,%eiz,2),%bp
    376c:	7a 65                	jp     37d3 <write_blocks.part.3+0x114>
    376e:	20 3d 20 25 75 0a    	and    %bh,0xa752520
    3774:	00 6d 6b             	add    %ch,0x6b(%ebp)
    3777:	6d                   	insl   (%dx),%es:(%edi)
    3778:	66 73 3a             	data16 jae 37b5 <write_blocks.part.3+0xf6>
    377b:	20 6c 6f 6e          	and    %ch,0x6e(%edi,%ebp,2)
    377f:	67 20 66 6e          	and    %ah,0x6e(%bp)
    3783:	61                   	popa   
    3784:	6d                   	insl   (%dx),%es:(%edi)
    3785:	65 73 20             	gs jae 37a8 <write_blocks.part.3+0xe9>
    3788:	3d 20 25 73 0a       	cmp    $0xa732520,%eax
    378d:	00 6d 6b             	add    %ch,0x6b(%ebp)
    3790:	6d                   	insl   (%dx),%es:(%edi)
    3791:	66 73 3a             	data16 jae 37ce <write_blocks.part.3+0x10f>
    3794:	20 49 6e             	and    %cl,0x6e(%ecx)
    3797:	69 74 69 61 6c 69 7a 	imul   $0x697a696c,0x61(%ecx,%ebp,2),%esi
    379e:	69 
    379f:	6e                   	outsb  %ds:(%esi),(%dx)
    37a0:	67 20 62 69          	and    %ah,0x69(%bp,%si)
    37a4:	74 6d                	je     3813 <write_blocks.part.3+0x154>
    37a6:	61                   	popa   
    37a7:	70 73                	jo     381c <write_blocks.part.3+0x15d>
    37a9:	0a 00                	or     (%eax),%al
    37ab:	68 65 6c 70 00       	push   $0x706c65
    37b0:	6c                   	insb   (%dx),%es:(%edi)
    37b1:	6f                   	outsl  %ds:(%esi),(%dx)
    37b2:	6e                   	outsb  %ds:(%esi),(%dx)
    37b3:	67 2d 6e 61 6d 65    	addr16 sub $0x656d616e,%eax
    37b9:	73 00                	jae    37bb <write_blocks.part.3+0xfc>
    37bb:	62 6c 6f 63          	bound  %ebp,0x63(%edi,%ebp,2)
    37bf:	6b 2d 73 69 7a 65 00 	imul   $0x0,0x657a6973,%ebp
    37c6:	69 6e 6f 64 65 73 00 	imul   $0x736564,0x6f(%esi),%ebp
    37cd:	66 90                	xchg   %ax,%ax
    37cf:	90                   	nop
    37d0:	6d                   	insl   (%dx),%es:(%edi)
    37d1:	6b 6d 66 73          	imul   $0x73,0x66(%ebp),%ebp
    37d5:	3a 20                	cmp    (%eax),%ah
    37d7:	74 6f                	je     3848 <write_blocks.part.3+0x189>
    37d9:	6f                   	outsl  %ds:(%esi),(%dx)
    37da:	6c                   	insb   (%dx),%es:(%edi)
    37db:	20 74 6f 20          	and    %dh,0x20(%edi,%ebp,2)
    37df:	63 72 65             	arpl   %si,0x65(%edx)
    37e2:	61                   	popa   
    37e3:	74 65                	je     384a <write_blocks.part.3+0x18b>
    37e5:	20 6e 65             	and    %ch,0x65(%esi)
    37e8:	77 20                	ja     380a <write_blocks.part.3+0x14b>
    37ea:	4d                   	dec    %ebp
    37eb:	69 6e 69 78 20 66 69 	imul   $0x69662078,0x69(%esi),%ebp
    37f2:	6c                   	insb   (%dx),%es:(%edi)
    37f3:	65 20 73 79          	and    %dh,%gs:0x79(%ebx)
    37f7:	73 74                	jae    386d <write_blocks.part.3+0x1ae>
    37f9:	65 6d                	gs insl (%dx),%es:(%edi)
    37fb:	73 0a                	jae    3807 <write_blocks.part.3+0x148>
    37fd:	00 00                	add    %al,(%eax)
    37ff:	00 49 6e             	add    %cl,0x6e(%ecx)
    3802:	63 6f 72             	arpl   %bp,0x72(%edi)
    3805:	72 65                	jb     386c <write_blocks.part.3+0x1ad>
    3807:	63 74 20 6e          	arpl   %si,0x6e(%eax,%eiz,1)
    380b:	75 6d                	jne    387a <write_blocks.part.3+0x1bb>
    380d:	62 65 72             	bound  %esp,0x72(%ebp)
    3810:	20 6f 66             	and    %ch,0x66(%edi)
    3813:	20 61 72             	and    %ah,0x72(%ecx)
    3816:	67 75 6d             	addr16 jne 3886 <write_blocks.part.3+0x1c7>
    3819:	65 6e                	outsb  %gs:(%esi),(%dx)
    381b:	74 73                	je     3890 <write_blocks.part.3+0x1d1>
    381d:	2c 20                	sub    $0x20,%al
    381f:	74 72                	je     3893 <write_blocks.part.3+0x1d4>
    3821:	79 20                	jns    3843 <write_blocks.part.3+0x184>
    3823:	60                   	pusha  
    3824:	6d                   	insl   (%dx),%es:(%edi)
    3825:	6b 6d 66 73          	imul   $0x73,0x66(%ebp),%ebp
    3829:	20 2d 2d 68 65 6c    	and    %ch,0x6c65682d
    382f:	70 27                	jo     3858 <write_blocks.part.3+0x199>
    3831:	0a 00                	or     (%eax),%al
    3833:	00 55 73             	add    %dl,0x73(%ebp)
    3836:	61                   	popa   
    3837:	67 65 3a 20          	cmp    %gs:(%bx,%si),%ah
    383b:	5b                   	pop    %ebx
    383c:	6f                   	outsl  %ds:(%esi),(%dx)
    383d:	70 74                	jo     38b3 <write_blocks.part.3+0x1f4>
    383f:	69 6f 6e 73 5d 20 64 	imul   $0x64205d73,0x6e(%edi),%ebp
    3846:	65 76 69             	gs jbe 38b2 <write_blocks.part.3+0x1f3>
    3849:	63 65 0a             	arpl   %sp,0xa(%ebp)
    384c:	2d 31 20 20 20       	sub    $0x20202031,%eax
    3851:	20 20                	and    %ah,(%eax)
    3853:	20 20                	and    %ah,(%eax)
    3855:	20 20                	and    %ah,(%eax)
    3857:	4d                   	dec    %ebp
    3858:	61                   	popa   
    3859:	6b 65 20 61          	imul   $0x61,0x20(%ebp),%esp
    385d:	20 4d 69             	and    %cl,0x69(%ebp)
    3860:	6e                   	outsb  %ds:(%esi),(%dx)
    3861:	69 78 20 76 65 72 73 	imul   $0x73726576,0x20(%eax),%edi
    3868:	69 6f 6e 20 31 20 66 	imul   $0x66203120,0x6e(%edi),%ebp
    386f:	69 6c 65 73 79 73 74 	imul   $0x65747379,0x73(%ebp,%eiz,2),%ebp
    3876:	65 
    3877:	6d                   	insl   (%dx),%es:(%edi)
    3878:	0a 2d 32 20 20 20    	or     0x20202032,%ch
    387e:	20 20                	and    %ah,(%eax)
    3880:	20 20                	and    %ah,(%eax)
    3882:	20 20                	and    %ah,(%eax)
    3884:	4d                   	dec    %ebp
    3885:	61                   	popa   
    3886:	6b 65 20 61          	imul   $0x61,0x20(%ebp),%esp
    388a:	20 4d 69             	and    %cl,0x69(%ebp)
    388d:	6e                   	outsb  %ds:(%esi),(%dx)
    388e:	69 78 20 76 65 72 73 	imul   $0x73726576,0x20(%eax),%edi
    3895:	69 6f 6e 20 32 20 66 	imul   $0x66203220,0x6e(%edi),%ebp
    389c:	69 6c 65 73 79 73 74 	imul   $0x65747379,0x73(%ebp,%eiz,2),%ebp
    38a3:	65 
    38a4:	6d                   	insl   (%dx),%es:(%edi)
    38a5:	0a 2d 62 20 23 23    	or     0x23232062,%ch
    38ab:	20 20                	and    %ah,(%eax)
    38ad:	20 20                	and    %ah,(%eax)
    38af:	20 20                	and    %ah,(%eax)
    38b1:	53                   	push   %ebx
    38b2:	70 65                	jo     3919 <write_blocks.part.3+0x25a>
    38b4:	63 69 66             	arpl   %bp,0x66(%ecx)
    38b7:	79 20                	jns    38d9 <write_blocks.part.3+0x21a>
    38b9:	74 68                	je     3923 <write_blocks.part.3+0x264>
    38bb:	65 20 62 6c          	and    %ah,%gs:0x6c(%edx)
    38bf:	6f                   	outsl  %ds:(%esi),(%dx)
    38c0:	63 6b 20             	arpl   %bp,0x20(%ebx)
    38c3:	73 69                	jae    392e <write_blocks.part.3+0x26f>
    38c5:	7a 65                	jp     392c <write_blocks.part.3+0x26d>
    38c7:	20 69 6e             	and    %ch,0x6e(%ecx)
    38ca:	20 62 79             	and    %ah,0x79(%edx)
    38cd:	74 65                	je     3934 <write_blocks.part.3+0x275>
    38cf:	73 20                	jae    38f1 <write_blocks.part.3+0x232>
    38d1:	28 56 33             	sub    %dl,0x33(%esi)
    38d4:	20 6f 6e             	and    %ch,0x6e(%edi)
    38d7:	6c                   	insb   (%dx),%es:(%edi)
    38d8:	79 29                	jns    3903 <write_blocks.part.3+0x244>
    38da:	2c 0a                	sub    $0xa,%al
    38dc:	20 20                	and    %ah,(%eax)
    38de:	20 20                	and    %ah,(%eax)
    38e0:	20 20                	and    %ah,(%eax)
    38e2:	20 20                	and    %ah,(%eax)
    38e4:	20 20                	and    %ah,(%eax)
    38e6:	20 76 61             	and    %dh,0x61(%esi)
    38e9:	6c                   	insb   (%dx),%es:(%edi)
    38ea:	69 64 20 62 6c 6f 63 	imul   $0x6b636f6c,0x62(%eax,%eiz,1),%esp
    38f1:	6b 
    38f2:	20 73 69             	and    %dh,0x69(%ebx)
    38f5:	7a 65                	jp     395c <write_blocks.part.3+0x29d>
    38f7:	20 76 61             	and    %dh,0x61(%esi)
    38fa:	6c                   	insb   (%dx),%es:(%edi)
    38fb:	75 65                	jne    3962 <write_blocks.part.3+0x2a3>
    38fd:	73 20                	jae    391f <write_blocks.part.3+0x260>
    38ff:	61                   	popa   
    3900:	72 65                	jb     3967 <write_blocks.part.3+0x2a8>
    3902:	20 31                	and    %dh,(%ecx)
    3904:	30 32                	xor    %dh,(%edx)
    3906:	34 2c                	xor    $0x2c,%al
    3908:	20 32                	and    %dh,(%edx)
    390a:	30 34 38             	xor    %dh,(%eax,%edi,1)
    390d:	20 61 6e             	and    %ah,0x6e(%ecx)
    3910:	64 20 34 30          	and    %dh,%fs:(%eax,%esi,1)
    3914:	39 36                	cmp    %esi,(%esi)
    3916:	20 62 79             	and    %ah,0x79(%edx)
    3919:	74 65                	je     3980 <write_blocks.part.3+0x2c1>
    391b:	73 20                	jae    393d <write_blocks.part.3+0x27e>
    391d:	70 65                	jo     3984 <write_blocks.part.3+0x2c5>
    391f:	72 20                	jb     3941 <write_blocks.part.3+0x282>
    3921:	62 6c 6f 63          	bound  %ebp,0x63(%edi,%ebp,2)
    3925:	6b 0a 2d             	imul   $0x2d,(%edx),%ecx
    3928:	69 20 23 23 20 20    	imul   $0x20202323,(%eax),%esp
    392e:	20 20                	and    %ah,(%eax)
    3930:	20 20                	and    %ah,(%eax)
    3932:	53                   	push   %ebx
    3933:	70 65                	jo     399a <write_blocks.part.3+0x2db>
    3935:	63 69 66             	arpl   %bp,0x66(%ecx)
    3938:	79 20                	jns    395a <write_blocks.part.3+0x29b>
    393a:	74 68                	je     39a4 <write_blocks.part.3+0x2e5>
    393c:	65 20 6e 75          	and    %ch,%gs:0x75(%esi)
    3940:	6d                   	insl   (%dx),%es:(%edi)
    3941:	62 65 72             	bound  %esp,0x72(%ebp)
    3944:	20 6f 66             	and    %ch,0x66(%edi)
    3947:	20 69 6e             	and    %ch,0x6e(%ecx)
    394a:	6f                   	outsl  %ds:(%esi),(%dx)
    394b:	64 65 73 20          	fs gs jae 396f <write_blocks.part.3+0x2b0>
    394f:	66 6f                	outsw  %ds:(%esi),(%dx)
    3951:	72 20                	jb     3973 <write_blocks.part.3+0x2b4>
    3953:	74 68                	je     39bd <write_blocks.part.3+0x2fe>
    3955:	65 20 66 69          	and    %ah,%gs:0x69(%esi)
    3959:	6c                   	insb   (%dx),%es:(%edi)
    395a:	65 73 79             	gs jae 39d6 <write_blocks.part.3+0x317>
    395d:	73 74                	jae    39d3 <write_blocks.part.3+0x314>
    395f:	65 6d                	gs insl (%dx),%es:(%edi)
    3961:	0a 2d 6c 20 20 20    	or     0x2020206c,%ch
    3967:	20 20                	and    %ah,(%eax)
    3969:	20 20                	and    %ah,(%eax)
    396b:	20 20                	and    %ah,(%eax)
    396d:	55                   	push   %ebp
    396e:	73 65                	jae    39d5 <write_blocks.part.3+0x316>
    3970:	20 33                	and    %dh,(%ebx)
    3972:	30 2d 63 68 61 72    	xor    %ch,0x72616863
    3978:	20 6c 6f 6e          	and    %ch,0x6e(%edi,%ebp,2)
    397c:	67 20 66 69          	and    %ah,0x69(%bp)
    3980:	6c                   	insb   (%dx),%es:(%edi)
    3981:	65 6e                	outsb  %gs:(%esi),(%dx)
    3983:	61                   	popa   
    3984:	6d                   	insl   (%dx),%es:(%edi)
    3985:	65 73 20             	gs jae 39a8 <write_blocks.part.3+0x2e9>
    3988:	28 56 31             	sub    %dl,0x31(%esi)
    398b:	2f                   	das    
    398c:	56                   	push   %esi
    398d:	32 20                	xor    (%eax),%ah
    398f:	6f                   	outsl  %ds:(%esi),(%dx)
    3990:	6e                   	outsb  %ds:(%esi),(%dx)
    3991:	6c                   	insb   (%dx),%es:(%edi)
    3992:	79 29                	jns    39bd <write_blocks.part.3+0x2fe>
    3994:	0a 00                	or     (%eax),%al
    3996:	00 00                	add    %al,(%eax)
    3998:	6d                   	insl   (%dx),%es:(%edi)
    3999:	6b 6d 66 73          	imul   $0x73,0x66(%ebp),%ebp
    399d:	3a 45 72             	cmp    0x72(%ebp),%al
    39a0:	72 6f                	jb     3a11 <write_blocks.part.3+0x352>
    39a2:	72 21                	jb     39c5 <write_blocks.part.3+0x306>
    39a4:	20 49 6e             	and    %cl,0x6e(%ecx)
    39a7:	76 61                	jbe    3a0a <write_blocks.part.3+0x34b>
    39a9:	6c                   	insb   (%dx),%es:(%edi)
    39aa:	69 64 20 62 6c 6f 63 	imul   $0x6b636f6c,0x62(%eax,%eiz,1),%esp
    39b1:	6b 
    39b2:	20 73 69             	and    %dh,0x69(%ebx)
    39b5:	7a 65                	jp     3a1c <write_blocks.part.3+0x35d>
    39b7:	2e 0a 00             	or     %cs:(%eax),%al
    39ba:	00 00                	add    %al,(%eax)
    39bc:	6d                   	insl   (%dx),%es:(%edi)
    39bd:	6b 6d 66 73          	imul   $0x73,0x66(%ebp),%ebp
    39c1:	3a 45 72             	cmp    0x72(%ebp),%al
    39c4:	72 6f                	jb     3a35 <write_blocks.part.3+0x376>
    39c6:	72 21                	jb     39e9 <write_blocks.part.3+0x32a>
    39c8:	20 42 6c             	and    %al,0x6c(%edx)
    39cb:	6f                   	outsl  %ds:(%esi),(%dx)
    39cc:	63 6b 20             	arpl   %bp,0x20(%ebx)
    39cf:	73 69                	jae    3a3a <write_blocks.part.3+0x37b>
    39d1:	7a 65                	jp     3a38 <write_blocks.part.3+0x379>
    39d3:	20 3e                	and    %bh,(%esi)
    39d5:	20 31                	and    %dh,(%ecx)
    39d7:	30 32                	xor    %dh,(%edx)
    39d9:	34 20                	xor    $0x20,%al
    39db:	69 73 20 73 75 70 70 	imul   $0x70707573,0x20(%ebx),%esi
    39e2:	6f                   	outsl  %ds:(%esi),(%dx)
    39e3:	72 74                	jb     3a59 <write_blocks.part.3+0x39a>
    39e5:	65 64 20 62 79       	gs and %ah,%fs:0x79(%edx)
    39ea:	20 56 33             	and    %dl,0x33(%esi)
    39ed:	20 66 69             	and    %ah,0x69(%esi)
    39f0:	6c                   	insb   (%dx),%es:(%edi)
    39f1:	65 73 79             	gs jae 3a6d <write_blocks.part.3+0x3ae>
    39f4:	73 74                	jae    3a6a <write_blocks.part.3+0x3ab>
    39f6:	65 6d                	gs insl (%dx),%es:(%edi)
    39f8:	20 6f 6e             	and    %ch,0x6e(%edi)
    39fb:	6c                   	insb   (%dx),%es:(%edi)
    39fc:	79 2e                	jns    3a2c <write_blocks.part.3+0x36d>
    39fe:	0a 00                	or     (%eax),%al
    3a00:	6d                   	insl   (%dx),%es:(%edi)
    3a01:	6b 6d 66 73          	imul   $0x73,0x66(%ebp),%ebp
    3a05:	3a 45 72             	cmp    0x72(%ebp),%al
    3a08:	72 6f                	jb     3a79 <write_blocks.part.3+0x3ba>
    3a0a:	72 21                	jb     3a2d <write_blocks.part.3+0x36e>
    3a0c:	20 4c 6f 6e          	and    %cl,0x6e(%edi,%ebp,2)
    3a10:	67 20 66 69          	and    %ah,0x69(%bp)
    3a14:	6c                   	insb   (%dx),%es:(%edi)
    3a15:	65 6e                	outsb  %gs:(%esi),(%dx)
    3a17:	61                   	popa   
    3a18:	6d                   	insl   (%dx),%es:(%edi)
    3a19:	65 73 20             	gs jae 3a3c <write_blocks.part.3+0x37d>
    3a1c:	61                   	popa   
    3a1d:	72 65                	jb     3a84 <write_blocks.part.3+0x3c5>
    3a1f:	20 73 75             	and    %dh,0x75(%ebx)
    3a22:	70 70                	jo     3a94 <write_blocks.part.3+0x3d5>
    3a24:	6f                   	outsl  %ds:(%esi),(%dx)
    3a25:	72 74                	jb     3a9b <write_blocks.part.3+0x3dc>
    3a27:	65 64 20 62 79       	gs and %ah,%fs:0x79(%edx)
    3a2c:	20 56 31             	and    %dl,0x31(%esi)
    3a2f:	2f                   	das    
    3a30:	56                   	push   %esi
    3a31:	32 20                	xor    (%eax),%ah
    3a33:	66 69 6c 65 73 79 73 	imul   $0x7379,0x73(%ebp,%eiz,2),%bp
    3a3a:	74 65                	je     3aa1 <write_blocks.part.3+0x3e2>
    3a3c:	6d                   	insl   (%dx),%es:(%edi)
    3a3d:	20 6f 6e             	and    %ch,0x6e(%edi)
    3a40:	6c                   	insb   (%dx),%es:(%edi)
    3a41:	79 2e                	jns    3a71 <write_blocks.part.3+0x3b2>
    3a43:	0a 00                	or     (%eax),%al
    3a45:	00 00                	add    %al,(%eax)
    3a47:	00 6d 6b             	add    %ch,0x6b(%ebp)
    3a4a:	6d                   	insl   (%dx),%es:(%edi)
    3a4b:	66 73 3a             	data16 jae 3a88 <write_blocks.part.3+0x3c9>
    3a4e:	20 45 72             	and    %al,0x72(%ebp)
    3a51:	72 6f                	jb     3ac2 <write_blocks.part.3+0x403>
    3a53:	72 20                	jb     3a75 <write_blocks.part.3+0x3b6>
    3a55:	72 65                	jb     3abc <write_blocks.part.3+0x3fd>
    3a57:	73 6f                	jae    3ac8 <write_blocks.part.3+0x409>
    3a59:	6c                   	insb   (%dx),%es:(%edi)
    3a5a:	76 69                	jbe    3ac5 <write_blocks.part.3+0x406>
    3a5c:	6e                   	outsb  %ds:(%esi),(%dx)
    3a5d:	67 20 64 65          	and    %ah,0x65(%si)
    3a61:	76 69                	jbe    3acc <write_blocks.part.3+0x40d>
    3a63:	63 65 20             	arpl   %sp,0x20(%ebp)
    3a66:	60                   	pusha  
    3a67:	25 73 27 2e 0a       	and    $0xa2e2773,%eax
    3a6c:	00 00                	add    %al,(%eax)
    3a6e:	00 00                	add    %al,(%eax)
    3a70:	6d                   	insl   (%dx),%es:(%edi)
    3a71:	6b 6d 66 73          	imul   $0x73,0x66(%ebp),%ebp
    3a75:	3a 20                	cmp    (%eax),%ah
    3a77:	45                   	inc    %ebp
    3a78:	72 72                	jb     3aec <write_blocks.part.3+0x42d>
    3a7a:	6f                   	outsl  %ds:(%esi),(%dx)
    3a7b:	72 20                	jb     3a9d <write_blocks.part.3+0x3de>
    3a7d:	69 6e 69 74 69 61 6c 	imul   $0x6c616974,0x69(%esi),%ebp
    3a84:	69 7a 69 6e 67 20 6c 	imul   $0x6c20676e,0x69(%edx),%edi
    3a8b:	69 62 62 6c 6f 63 6b 	imul   $0x6b636f6c,0x62(%edx),%esp
    3a92:	2e 0a 00             	or     %cs:(%eax),%al
    3a95:	00 00                	add    %al,(%eax)
    3a97:	00 6d 6b             	add    %ch,0x6b(%ebp)
    3a9a:	6d                   	insl   (%dx),%es:(%edi)
    3a9b:	66 73 3a             	data16 jae 3ad8 <write_blocks.part.3+0x419>
    3a9e:	20 45 72             	and    %al,0x72(%ebp)
    3aa1:	72 6f                	jb     3b12 <write_blocks.part.3+0x453>
    3aa3:	72 20                	jb     3ac5 <write_blocks.part.3+0x406>
    3aa5:	64 65 74 65          	fs gs je 3b0e <write_blocks.part.3+0x44f>
    3aa9:	72 6d                	jb     3b18 <write_blocks.part.3+0x459>
    3aab:	69 6e 69 6e 67 20 64 	imul   $0x6420676e,0x69(%esi),%ebp
    3ab2:	65 76 69             	gs jbe 3b1e <write_blocks.part.3+0x45f>
    3ab5:	63 65 20             	arpl   %sp,0x20(%ebp)
    3ab8:	62 6c 6f 63          	bound  %ebp,0x63(%edi,%ebp,2)
    3abc:	6b 20 73             	imul   $0x73,(%eax),%esp
    3abf:	69 7a 65 2e 0a 00 00 	imul   $0xa2e,0x65(%edx),%edi
    3ac6:	00 00                	add    %al,(%eax)
    3ac8:	6d                   	insl   (%dx),%es:(%edi)
    3ac9:	6b 6d 66 73          	imul   $0x73,0x66(%ebp),%ebp
    3acd:	3a 20                	cmp    (%eax),%ah
    3acf:	57                   	push   %edi
    3ad0:	61                   	popa   
    3ad1:	72 6e                	jb     3b41 <write_blocks.part.3+0x482>
    3ad3:	69 6e 67 2c 20 66 61 	imul   $0x6166202c,0x67(%esi),%ebp
    3ada:	69 6c 65 64 20 74 6f 	imul   $0x206f7420,0x64(%ebp,%eiz,2),%ebp
    3ae1:	20 
    3ae2:	6f                   	outsl  %ds:(%esi),(%dx)
    3ae3:	62 74 61 69          	bound  %esi,0x69(%ecx,%eiz,2)
    3ae7:	6e                   	outsb  %ds:(%esi),(%dx)
    3ae8:	20 62 6c             	and    %ah,0x6c(%edx)
    3aeb:	6f                   	outsl  %ds:(%esi),(%dx)
    3aec:	63 6b 20             	arpl   %bp,0x20(%ebx)
    3aef:	64 65 76 69          	fs gs jbe 3b5c <write_blocks.part.3+0x49d>
    3af3:	63 65 20             	arpl   %sp,0x20(%ebp)
    3af6:	73 69                	jae    3b61 <write_blocks.part.3+0x4a2>
    3af8:	7a 65                	jp     3b5f <write_blocks.part.3+0x4a0>
    3afa:	2e 0a 00             	or     %cs:(%eax),%al
    3afd:	00 00                	add    %al,(%eax)
    3aff:	00 6d 6b             	add    %ch,0x6b(%ebp)
    3b02:	6d                   	insl   (%dx),%es:(%edi)
    3b03:	66 73 3a             	data16 jae 3b40 <write_blocks.part.3+0x481>
    3b06:	20 42 6c             	and    %al,0x6c(%edx)
    3b09:	6f                   	outsl  %ds:(%esi),(%dx)
    3b0a:	63 6b 20             	arpl   %bp,0x20(%ebx)
    3b0d:	64 65 76 69          	fs gs jbe 3b7a <write_blocks.part.3+0x4bb>
    3b11:	63 65 20             	arpl   %sp,0x20(%ebp)
    3b14:	68 61 73 20 25       	push   $0x25207361
    3b19:	6c                   	insb   (%dx),%es:(%edi)
    3b1a:	6c                   	insb   (%dx),%es:(%edi)
    3b1b:	75 20                	jne    3b3d <write_blocks.part.3+0x47e>
    3b1d:	62 6c 6f 63          	bound  %ebp,0x63(%edi,%ebp,2)
    3b21:	6b 73 2e 0a          	imul   $0xa,0x2e(%ebx),%esi
    3b25:	00 00                	add    %al,(%eax)
    3b27:	00 6d 6b             	add    %ch,0x6b(%ebp)
    3b2a:	6d                   	insl   (%dx),%es:(%edi)
    3b2b:	66 73 3a             	data16 jae 3b68 <write_blocks.part.3+0x4a9>
    3b2e:	20 45 72             	and    %al,0x72(%ebp)
    3b31:	72 6f                	jb     3ba2 <write_blocks.part.3+0x4e3>
    3b33:	72 2e                	jb     3b63 <write_blocks.part.3+0x4a4>
    3b35:	20 44 65 76          	and    %al,0x76(%ebp,%eiz,2)
    3b39:	69 63 65 20 62 6c 6f 	imul   $0x6f6c6220,0x65(%ebx),%esp
    3b40:	63 6b 20             	arpl   %bp,0x20(%ebx)
    3b43:	73 69                	jae    3bae <write_blocks.part.3+0x4ef>
    3b45:	7a 65                	jp     3bac <write_blocks.part.3+0x4ed>
    3b47:	20 69 73             	and    %ch,0x73(%ecx)
    3b4a:	20 6e 6f             	and    %ch,0x6f(%esi)
    3b4d:	74 20                	je     3b6f <write_blocks.part.3+0x4b0>
    3b4f:	35 31 32 20 62       	xor    $0x62203231,%eax
    3b54:	79 74                	jns    3bca <write_blocks.part.3+0x50b>
    3b56:	65 73 2e             	gs jae 3b87 <write_blocks.part.3+0x4c8>
    3b59:	0a 00                	or     (%eax),%al
    3b5b:	00 6d 6b             	add    %ch,0x6b(%ebp)
    3b5e:	6d                   	insl   (%dx),%es:(%edi)
    3b5f:	66 73 3a             	data16 jae 3b9c <write_blocks.part.3+0x4dd>
    3b62:	20 43 72             	and    %al,0x72(%ebx)
    3b65:	65 61                	gs popa 
    3b67:	74 69                	je     3bd2 <write_blocks.part.3+0x513>
    3b69:	6e                   	outsb  %ds:(%esi),(%dx)
    3b6a:	67 20 4d 69          	and    %cl,0x69(%di)
    3b6e:	6e                   	outsb  %ds:(%esi),(%dx)
    3b6f:	69 78 20 66 69 6c 65 	imul   $0x656c6966,0x20(%eax),%edi
    3b76:	20 73 79             	and    %dh,0x79(%ebx)
    3b79:	73 74                	jae    3bef <write_blocks.part.3+0x530>
    3b7b:	65 6d                	gs insl (%dx),%es:(%edi)
    3b7d:	20 6f 6e             	and    %ch,0x6e(%edi)
    3b80:	20 64 65 76          	and    %ah,0x76(%ebp,%eiz,2)
    3b84:	69 63 65 0a 00 00 00 	imul   $0xa,0x65(%ebx),%esp
    3b8b:	00 6d 6b             	add    %ch,0x6b(%ebp)
    3b8e:	6d                   	insl   (%dx),%es:(%edi)
    3b8f:	66 73 3a             	data16 jae 3bcc <write_blocks.part.3+0x50d>
    3b92:	20 45 72             	and    %al,0x72(%ebp)
    3b95:	72 6f                	jb     3c06 <write_blocks.part.3+0x547>
    3b97:	72 21                	jb     3bba <write_blocks.part.3+0x4fb>
    3b99:	20 49 6e             	and    %cl,0x6e(%ecx)
    3b9c:	73 75                	jae    3c13 <write_blocks.part.3+0x554>
    3b9e:	66 66 69 63 69 65 6e 	data16 imul $0x6e65,0x69(%ebx),%sp
    3ba5:	74 20                	je     3bc7 <write_blocks.part.3+0x508>
    3ba7:	64 69 73 6b 20 73 70 	imul   $0x61707320,%fs:0x6b(%ebx),%esi
    3bae:	61 
    3baf:	63 65 00             	arpl   %sp,0x0(%ebp)
    3bb2:	00 00                	add    %al,(%eax)
    3bb4:	6d                   	insl   (%dx),%es:(%edi)
    3bb5:	6b 6d 66 73          	imul   $0x73,0x66(%ebp),%ebp
    3bb9:	3a 20                	cmp    (%eax),%ah
    3bbb:	69 6e 6f 64 65 20 74 	imul   $0x74206564,0x6f(%esi),%ebp
    3bc2:	61                   	popa   
    3bc3:	62 6c 65 20          	bound  %ebp,0x20(%ebp,%eiz,2)
    3bc7:	62 6c 6f 63          	bound  %ebp,0x63(%edi,%ebp,2)
    3bcb:	6b 73 20 3d          	imul   $0x3d,0x20(%ebx),%esi
    3bcf:	20 25 6c 64 0a 00    	and    %ah,0xa646c
    3bd5:	00 00                	add    %al,(%eax)
    3bd7:	00 6d 6b             	add    %ch,0x6b(%ebp)
    3bda:	6d                   	insl   (%dx),%es:(%edi)
    3bdb:	66 73 3a             	data16 jae 3c18 <write_blocks.part.3+0x559>
    3bde:	20 69 6e             	and    %ch,0x6e(%ecx)
    3be1:	6f                   	outsl  %ds:(%esi),(%dx)
    3be2:	64 65 20 62 69       	fs and %ah,%gs:0x69(%edx)
    3be7:	74 6d                	je     3c56 <write_blocks.part.3+0x597>
    3be9:	61                   	popa   
    3bea:	70 20                	jo     3c0c <write_blocks.part.3+0x54d>
    3bec:	62 6c 6f 63          	bound  %ebp,0x63(%edi,%ebp,2)
    3bf0:	6b 73 20 3d          	imul   $0x3d,0x20(%ebx),%esi
    3bf4:	20 25 6c 64 0a 00    	and    %ah,0xa646c
    3bfa:	00 00                	add    %al,(%eax)
    3bfc:	6d                   	insl   (%dx),%es:(%edi)
    3bfd:	6b 6d 66 73          	imul   $0x73,0x66(%ebp),%ebp
    3c01:	3a 20                	cmp    (%eax),%ah
    3c03:	7a 6f                	jp     3c74 <write_blocks.part.3+0x5b5>
    3c05:	6e                   	outsb  %ds:(%esi),(%dx)
    3c06:	65 20 62 69          	and    %ah,%gs:0x69(%edx)
    3c0a:	74 6d                	je     3c79 <write_blocks.part.3+0x5ba>
    3c0c:	61                   	popa   
    3c0d:	70 20                	jo     3c2f <write_blocks.part.3+0x570>
    3c0f:	62 6c 6f 63          	bound  %ebp,0x63(%edi,%ebp,2)
    3c13:	6b 73 20 3d          	imul   $0x3d,0x20(%ebx),%esi
    3c17:	20 25 6c 64 0a 00    	and    %ah,0xa646c
    3c1d:	00 00                	add    %al,(%eax)
    3c1f:	00 6d 6b             	add    %ch,0x6b(%ebp)
    3c22:	6d                   	insl   (%dx),%es:(%edi)
    3c23:	66 73 3a             	data16 jae 3c60 <write_blocks.part.3+0x5a1>
    3c26:	20 45 72             	and    %al,0x72(%ebp)
    3c29:	72 6f                	jb     3c9a <write_blocks.part.3+0x5db>
    3c2b:	72 2e                	jb     3c5b <write_blocks.part.3+0x59c>
    3c2d:	20 53 75             	and    %dl,0x75(%ebx)
    3c30:	70 65                	jo     3c97 <write_blocks.part.3+0x5d8>
    3c32:	72 62                	jb     3c96 <write_blocks.part.3+0x5d7>
    3c34:	6c                   	insb   (%dx),%es:(%edi)
    3c35:	6f                   	outsl  %ds:(%esi),(%dx)
    3c36:	63 6b 20             	arpl   %bp,0x20(%ebx)
    3c39:	69 6e 69 74 69 61 6c 	imul   $0x6c616974,0x69(%esi),%ebp
    3c40:	69 7a 61 74 69 6f 6e 	imul   $0x6e6f6974,0x61(%edx),%edi
    3c47:	20 66 61             	and    %ah,0x61(%esi)
    3c4a:	69 6c 65 64 0a 00 6d 	imul   $0x6b6d000a,0x64(%ebp,%eiz,2),%ebp
    3c51:	6b 
    3c52:	6d                   	insl   (%dx),%es:(%edi)
    3c53:	66 73 3a             	data16 jae 3c90 <write_blocks.part.3+0x5d1>
    3c56:	20 45 72             	and    %al,0x72(%ebp)
    3c59:	72 6f                	jb     3cca <write_blocks.part.3+0x60b>
    3c5b:	72 2e                	jb     3c8b <write_blocks.part.3+0x5cc>
    3c5d:	20 42 69             	and    %al,0x69(%edx)
    3c60:	74 6d                	je     3ccf <write_blocks.part.3+0x610>
    3c62:	61                   	popa   
    3c63:	70 73                	jo     3cd8 <write_blocks.part.3+0x619>
    3c65:	20 69 6e             	and    %ch,0x6e(%ecx)
    3c68:	69 74 69 61 6c 69 7a 	imul   $0x617a696c,0x61(%ecx,%ebp,2),%esi
    3c6f:	61 
    3c70:	74 69                	je     3cdb <write_blocks.part.3+0x61c>
    3c72:	6f                   	outsl  %ds:(%esi),(%dx)
    3c73:	6e                   	outsb  %ds:(%esi),(%dx)
    3c74:	20 66 61             	and    %ah,0x61(%esi)
    3c77:	69 6c 65 64 0a 00 00 	imul   $0xa,0x64(%ebp,%eiz,2),%ebp
    3c7e:	00 
    3c7f:	00 6d 6b             	add    %ch,0x6b(%ebp)
    3c82:	6d                   	insl   (%dx),%es:(%edi)
    3c83:	66 73 3a             	data16 jae 3cc0 <write_blocks.part.3+0x601>
    3c86:	20 45 72             	and    %al,0x72(%ebp)
    3c89:	72 6f                	jb     3cfa <write_blocks.part.3+0x63b>
    3c8b:	72 2e                	jb     3cbb <write_blocks.part.3+0x5fc>
    3c8d:	20 49 6e             	and    %cl,0x6e(%ecx)
    3c90:	6f                   	outsl  %ds:(%esi),(%dx)
    3c91:	64 65 20 74 61 62    	fs and %dh,%gs:0x62(%ecx,%eiz,2)
    3c97:	6c                   	insb   (%dx),%es:(%edi)
    3c98:	65 20 69 6e          	and    %ch,%gs:0x6e(%ecx)
    3c9c:	69 74 69 61 6c 69 7a 	imul   $0x617a696c,0x61(%ecx,%ebp,2),%esi
    3ca3:	61 
    3ca4:	74 69                	je     3d0f <write_blocks.part.3+0x650>
    3ca6:	6f                   	outsl  %ds:(%esi),(%dx)
    3ca7:	6e                   	outsb  %ds:(%esi),(%dx)
    3ca8:	20 66 61             	and    %ah,0x61(%esi)
    3cab:	69 6c 65 64 0a 00 00 	imul   $0xa,0x64(%ebp,%eiz,2),%ebp
    3cb2:	00 
    3cb3:	00 6d 6b             	add    %ch,0x6b(%ebp)
    3cb6:	6d                   	insl   (%dx),%es:(%edi)
    3cb7:	66 73 3a             	data16 jae 3cf4 <write_blocks.part.3+0x635>
    3cba:	20 45 72             	and    %al,0x72(%ebp)
    3cbd:	72 6f                	jb     3d2e <write_blocks.part.3+0x66f>
    3cbf:	72 2e                	jb     3cef <write_blocks.part.3+0x630>
    3cc1:	20 52 6f             	and    %dl,0x6f(%edx)
    3cc4:	6f                   	outsl  %ds:(%esi),(%dx)
    3cc5:	74 20                	je     3ce7 <write_blocks.part.3+0x628>
    3cc7:	69 6e 6f 64 65 20 69 	imul   $0x69206564,0x6f(%esi),%ebp
    3cce:	6e                   	outsb  %ds:(%esi),(%dx)
    3ccf:	69 74 69 61 6c 69 7a 	imul   $0x617a696c,0x61(%ecx,%ebp,2),%esi
    3cd6:	61 
    3cd7:	74 69                	je     3d42 <write_blocks.part.3+0x683>
    3cd9:	6f                   	outsl  %ds:(%esi),(%dx)
    3cda:	6e                   	outsb  %ds:(%esi),(%dx)
    3cdb:	20 66 61             	and    %ah,0x61(%esi)
    3cde:	69 6c 65 64 0a 00 6d 	imul   $0x6b6d000a,0x64(%ebp,%eiz,2),%ebp
    3ce5:	6b 
    3ce6:	6d                   	insl   (%dx),%es:(%edi)
    3ce7:	66 73 3a             	data16 jae 3d24 <write_blocks.part.3+0x665>
    3cea:	20 45 72             	and    %al,0x72(%ebp)
    3ced:	72 6f                	jb     3d5e <write_blocks.part.3+0x69f>
    3cef:	72 2e                	jb     3d1f <write_blocks.part.3+0x660>
    3cf1:	20 52 6f             	and    %dl,0x6f(%edx)
    3cf4:	6f                   	outsl  %ds:(%esi),(%dx)
    3cf5:	74 20                	je     3d17 <write_blocks.part.3+0x658>
    3cf7:	64 69 72 65 63 74 6f 	imul   $0x726f7463,%fs:0x65(%edx),%esi
    3cfe:	72 
    3cff:	79 20                	jns    3d21 <write_blocks.part.3+0x662>
    3d01:	69 6e 69 74 69 61 6c 	imul   $0x6c616974,0x69(%esi),%ebp
    3d08:	69 7a 61 74 69 6f 6e 	imul   $0x6e6f6974,0x61(%edx),%edi
    3d0f:	20 66 61             	and    %ah,0x61(%esi)
    3d12:	69 6c 65 64 0a 00 6d 	imul   $0x6b6d000a,0x64(%ebp,%eiz,2),%ebp
    3d19:	6b 
    3d1a:	6d                   	insl   (%dx),%es:(%edi)
    3d1b:	66 73 3a             	data16 jae 3d58 <write_blocks.part.3+0x699>
    3d1e:	20 49 6e             	and    %cl,0x6e(%ecx)
    3d21:	69 74 69 61 6c 69 7a 	imul   $0x697a696c,0x61(%ecx,%ebp,2),%esi
    3d28:	69 
    3d29:	6e                   	outsb  %ds:(%esi),(%dx)
    3d2a:	67 20 74 68          	and    %dh,0x68(%si)
    3d2e:	65 20 69 6e          	and    %ch,%gs:0x6e(%ecx)
    3d32:	6f                   	outsl  %ds:(%esi),(%dx)
    3d33:	64 65 20 74 61 62    	fs and %dh,%gs:0x62(%ecx,%eiz,2)
    3d39:	6c                   	insb   (%dx),%es:(%edi)
    3d3a:	65 0a 00             	or     %gs:(%eax),%al
    3d3d:	00 00                	add    %al,(%eax)
    3d3f:	00 6d 6b             	add    %ch,0x6b(%ebp)
    3d42:	6d                   	insl   (%dx),%es:(%edi)
    3d43:	66 73 3a             	data16 jae 3d80 <write_blocks.part.3+0x6c1>
    3d46:	20 43 72             	and    %al,0x72(%ebx)
    3d49:	65 61                	gs popa 
    3d4b:	74 69                	je     3db6 <write_blocks.part.3+0x6f7>
    3d4d:	6e                   	outsb  %ds:(%esi),(%dx)
    3d4e:	67 20 74 68          	and    %dh,0x68(%si)
    3d52:	65 20 72 6f          	and    %dh,%gs:0x6f(%edx)
    3d56:	6f                   	outsl  %ds:(%esi),(%dx)
    3d57:	74 20                	je     3d79 <write_blocks.part.3+0x6ba>
    3d59:	64 69 72 65 63 74 6f 	imul   $0x726f7463,%fs:0x65(%edx),%esi
    3d60:	72 
    3d61:	79 20                	jns    3d83 <write_blocks.part.3+0x6c4>
    3d63:	69 6e 6f 64 65 0a 00 	imul   $0xa6564,0x6f(%esi),%ebp
    3d6a:	66 90                	xchg   %ax,%ax
    3d6c:	66 90                	xchg   %ax,%ax
    3d6e:	66 90                	xchg   %ax,%ax
    3d70:	66 90                	xchg   %ax,%ax
    3d72:	66 90                	xchg   %ax,%ax
    3d74:	66 90                	xchg   %ax,%ax
    3d76:	66 90                	xchg   %ax,%ax
    3d78:	66 90                	xchg   %ax,%ax
    3d7a:	66 90                	xchg   %ax,%ax
    3d7c:	66 90                	xchg   %ax,%ax
    3d7e:	66 90                	xchg   %ax,%ax
    3d80:	2e 00 00             	add    %al,%cs:(%eax)
    3d83:	2e 2e 00 00          	cs add %al,%cs:(%eax)
    3d87:	00 68 12             	add    %ch,0x12(%eax)
    3d8a:	00 00                	add    %al,(%eax)
    3d8c:	90                   	nop
    3d8d:	12 00                	adc    (%eax),%al
    3d8f:	00 30                	add    %dh,(%eax)
    3d91:	13 00                	adc    (%eax),%eax
    3d93:	00 30                	add    %dh,(%eax)
    3d95:	13 00                	adc    (%eax),%eax
    3d97:	00 30                	add    %dh,(%eax)
    3d99:	13 00                	adc    (%eax),%eax
    3d9b:	00 30                	add    %dh,(%eax)
    3d9d:	13 00                	adc    (%eax),%eax
    3d9f:	00 30                	add    %dh,(%eax)
    3da1:	13 00                	adc    (%eax),%eax
    3da3:	00 30                	add    %dh,(%eax)
    3da5:	13 00                	adc    (%eax),%eax
    3da7:	00 30                	add    %dh,(%eax)
    3da9:	13 00                	adc    (%eax),%eax
    3dab:	00 30                	add    %dh,(%eax)
    3dad:	13 00                	adc    (%eax),%eax
    3daf:	00 30                	add    %dh,(%eax)
    3db1:	13 00                	adc    (%eax),%eax
    3db3:	00 30                	add    %dh,(%eax)
    3db5:	13 00                	adc    (%eax),%eax
    3db7:	00 30                	add    %dh,(%eax)
    3db9:	13 00                	adc    (%eax),%eax
    3dbb:	00 30                	add    %dh,(%eax)
    3dbd:	13 00                	adc    (%eax),%eax
    3dbf:	00 30                	add    %dh,(%eax)
    3dc1:	13 00                	adc    (%eax),%eax
    3dc3:	00 30                	add    %dh,(%eax)
    3dc5:	13 00                	adc    (%eax),%eax
    3dc7:	00 30                	add    %dh,(%eax)
    3dc9:	13 00                	adc    (%eax),%eax
    3dcb:	00 30                	add    %dh,(%eax)
    3dcd:	13 00                	adc    (%eax),%eax
    3dcf:	00 30                	add    %dh,(%eax)
    3dd1:	13 00                	adc    (%eax),%eax
    3dd3:	00 30                	add    %dh,(%eax)
    3dd5:	13 00                	adc    (%eax),%eax
    3dd7:	00 30                	add    %dh,(%eax)
    3dd9:	13 00                	adc    (%eax),%eax
    3ddb:	00 30                	add    %dh,(%eax)
    3ddd:	13 00                	adc    (%eax),%eax
    3ddf:	00 30                	add    %dh,(%eax)
    3de1:	13 00                	adc    (%eax),%eax
    3de3:	00 30                	add    %dh,(%eax)
    3de5:	13 00                	adc    (%eax),%eax
    3de7:	00 30                	add    %dh,(%eax)
    3de9:	13 00                	adc    (%eax),%eax
    3deb:	00 30                	add    %dh,(%eax)
    3ded:	13 00                	adc    (%eax),%eax
    3def:	00 30                	add    %dh,(%eax)
    3df1:	13 00                	adc    (%eax),%eax
    3df3:	00 30                	add    %dh,(%eax)
    3df5:	13 00                	adc    (%eax),%eax
    3df7:	00 30                	add    %dh,(%eax)
    3df9:	13 00                	adc    (%eax),%eax
    3dfb:	00 30                	add    %dh,(%eax)
    3dfd:	13 00                	adc    (%eax),%eax
    3dff:	00 30                	add    %dh,(%eax)
    3e01:	13 00                	adc    (%eax),%eax
    3e03:	00 30                	add    %dh,(%eax)
    3e05:	13 00                	adc    (%eax),%eax
    3e07:	00 30                	add    %dh,(%eax)
    3e09:	13 00                	adc    (%eax),%eax
    3e0b:	00 30                	add    %dh,(%eax)
    3e0d:	13 00                	adc    (%eax),%eax
    3e0f:	00 30                	add    %dh,(%eax)
    3e11:	13 00                	adc    (%eax),%eax
    3e13:	00 30                	add    %dh,(%eax)
    3e15:	13 00                	adc    (%eax),%eax
    3e17:	00 30                	add    %dh,(%eax)
    3e19:	13 00                	adc    (%eax),%eax
    3e1b:	00 30                	add    %dh,(%eax)
    3e1d:	13 00                	adc    (%eax),%eax
    3e1f:	00 30                	add    %dh,(%eax)
    3e21:	13 00                	adc    (%eax),%eax
    3e23:	00 30                	add    %dh,(%eax)
    3e25:	13 00                	adc    (%eax),%eax
    3e27:	00 30                	add    %dh,(%eax)
    3e29:	13 00                	adc    (%eax),%eax
    3e2b:	00 30                	add    %dh,(%eax)
    3e2d:	13 00                	adc    (%eax),%eax
    3e2f:	00 30                	add    %dh,(%eax)
    3e31:	13 00                	adc    (%eax),%eax
    3e33:	00 30                	add    %dh,(%eax)
    3e35:	13 00                	adc    (%eax),%eax
    3e37:	00 30                	add    %dh,(%eax)
    3e39:	13 00                	adc    (%eax),%eax
    3e3b:	00 30                	add    %dh,(%eax)
    3e3d:	13 00                	adc    (%eax),%eax
    3e3f:	00 30                	add    %dh,(%eax)
    3e41:	13 00                	adc    (%eax),%eax
    3e43:	00 30                	add    %dh,(%eax)
    3e45:	13 00                	adc    (%eax),%eax
    3e47:	00 30                	add    %dh,(%eax)
    3e49:	13 00                	adc    (%eax),%eax
    3e4b:	00 b8 12 00 00 30    	add    %bh,0x30000012(%eax)
    3e51:	13 00                	adc    (%eax),%eax
    3e53:	00 30                	add    %dh,(%eax)
    3e55:	13 00                	adc    (%eax),%eax
    3e57:	00 30                	add    %dh,(%eax)
    3e59:	13 00                	adc    (%eax),%eax
    3e5b:	00 30                	add    %dh,(%eax)
    3e5d:	13 00                	adc    (%eax),%eax
    3e5f:	00 30                	add    %dh,(%eax)
    3e61:	13 00                	adc    (%eax),%eax
    3e63:	00 10                	add    %dl,(%eax)
    3e65:	13 00                	adc    (%eax),%eax
    3e67:	00 e8                	add    %ch,%al
    3e69:	12 00                	adc    (%eax),%al
    3e6b:	00 30                	add    %dh,(%eax)
    3e6d:	13 00                	adc    (%eax),%eax
    3e6f:	00 30                	add    %dh,(%eax)
    3e71:	13 00                	adc    (%eax),%eax
    3e73:	00 d8                	add    %bl,%al
    3e75:	12 00                	adc    (%eax),%al
	...

00003e80 <long_options>:
    3e80:	ab 37 00 00 00 00 00 00 00 00 00 00 68 00 00 00     .7..........h...
    3e90:	b0 37 00 00 00 00 00 00 00 00 00 00 6c 00 00 00     .7..........l...
    3ea0:	bb 37 00 00 01 00 00 00 00 00 00 00 62 00 00 00     .7..........b...
    3eb0:	c6 37 00 00 01 00 00 00 00 00 00 00 69 00 00 00     .7..........i...
	...
    3ecc:	31 00 00 00 00 00 00 00 00 00 00 00 00 00 00 00     1...............
    3edc:	32 00 00 00 00 00 00 00 00 00 00 00 00 00 00 00     2...............
    3eec:	00 00 00 00 62 6c 6f 63 6b 2e 63 00 64 65 76 63     ....block.c.devc
    3efc:	6f 6e 00 64 65 76 63 6f 6e 2d 3e 63 61 63 68 65     on.devcon->cache
    3f0c:	00 62 6c 6f 63 6b 2d 3e 72 65 66 63 6e 74 20 3e     .block->refcnt >
    3f1c:	3d 20 31 00 64 65 76 63 6f 6e 2d 3e 63 61 63 68     = 1.devcon->cach
    3f2c:	65 20 21 3d 20 4e 55 4c 4c 00 62 2d 3e 74 6f 78     e != NULL.b->tox
    3f3c:	69 63 00 90 45 72 72 6f 72 20 25 64 20 72 65 61     ic..Error %d rea
    3f4c:	64 69 6e 67 20 25 7a 75 20 62 6c 6f 63 6b 73 20     ding %zu blocks 
    3f5c:	73 74 61 72 74 69 6e 67 20 61 74 20 62 6c 6f 63     starting at bloc
    3f6c:	6b 20 25 6c 6c 75 20 66 72 6f 6d 20 64 65 76 69     k %llu from devi
    3f7c:	63 65 20 68 61 6e 64 6c 65 20 25 75 0a 00 00 00     ce handle %u....
    3f8c:	45 72 72 6f 72 20 25 64 20 77 72 69 74 69 6e 67     Error %d writing
    3f9c:	20 25 7a 75 20 62 6c 6f 63 6b 73 20 73 74 61 72      %zu blocks star
    3fac:	74 69 6e 67 20 61 74 20 62 6c 6f 63 6b 20 25 6c     ting at block %l
    3fbc:	6c 75 20 74 6f 20 64 65 76 69 63 65 20 68 61 6e     lu to device han
    3fcc:	64 6c 65 20 25 75 0a 00 54 6f 6f 20 6d 61 6e 79     dle %u..Too many
    3fdc:	20 65 72 72 6f 72 73 20 77 72 69 74 69 6e 67 20      errors writing 
    3fec:	62 6c 6f 63 6b 20 25 6c 6c 75 66 72 6f 6d 20 64     block %llufrom d
    3ffc:	65 76 69 63 65 20 68 61 6e 64 6c 65 20 25 75 0a     evice handle %u.
    400c:	53 45 56 45 52 45 20 44 41 54 41 20 4c 4f 53 53     SEVERE DATA LOSS
    401c:	20 50 4f 53 53 49 42 4c 45 0a 00 00                  POSSIBLE...

Disassembly of section .plt:

00004160 <__main@plt-0x10>:
    4160:	ff 35 b8 5a 00 00    	pushl  0x5ab8
    4166:	ff 25 bc 5a 00 00    	jmp    *0x5abc
    416c:	00 00                	add    %al,(%eax)
	...

00004170 <__main@plt>:
    4170:	ff 25 c0 5a 00 00    	jmp    *0x5ac0
    4176:	68 00 00 00 00       	push   $0x0
    417b:	e9 e0 ff ff ff       	jmp    4160 <long_options+0x2e0>

00004180 <loc_service_connect@plt>:
    4180:	ff 25 c4 5a 00 00    	jmp    *0x5ac4
    4186:	68 08 00 00 00       	push   $0x8
    418b:	e9 d0 ff ff ff       	jmp    4160 <long_options+0x2e0>

00004190 <printf@plt>:
    4190:	ff 25 c8 5a 00 00    	jmp    *0x5ac8
    4196:	68 10 00 00 00       	push   $0x10
    419b:	e9 c0 ff ff ff       	jmp    4160 <long_options+0x2e0>

000041a0 <async_hangup@plt>:
    41a0:	ff 25 cc 5a 00 00    	jmp    *0x5acc
    41a6:	68 18 00 00 00       	push   $0x18
    41ab:	e9 b0 ff ff ff       	jmp    4160 <long_options+0x2e0>

000041b0 <getopt_long@plt>:
    41b0:	ff 25 d0 5a 00 00    	jmp    *0x5ad0
    41b6:	68 20 00 00 00       	push   $0x20
    41bb:	e9 a0 ff ff ff       	jmp    4160 <long_options+0x2e0>

000041c0 <hash_table_create@plt>:
    41c0:	ff 25 d4 5a 00 00    	jmp    *0x5ad4
    41c6:	68 28 00 00 00       	push   $0x28
    41cb:	e9 90 ff ff ff       	jmp    4160 <long_options+0x2e0>

000041d0 <hash_table_insert@plt>:
    41d0:	ff 25 d8 5a 00 00    	jmp    *0x5ad8
    41d6:	68 30 00 00 00       	push   $0x30
    41db:	e9 80 ff ff ff       	jmp    4160 <long_options+0x2e0>

000041e0 <bd_write_blocks@plt>:
    41e0:	ff 25 dc 5a 00 00    	jmp    *0x5adc
    41e6:	68 38 00 00 00       	push   $0x38
    41eb:	e9 70 ff ff ff       	jmp    4160 <long_options+0x2e0>

000041f0 <bd_get_num_blocks@plt>:
    41f0:	ff 25 e0 5a 00 00    	jmp    *0x5ae0
    41f6:	68 40 00 00 00       	push   $0x40
    41fb:	e9 60 ff ff ff       	jmp    4160 <long_options+0x2e0>

00004200 <bd_close@plt>:
    4200:	ff 25 e4 5a 00 00    	jmp    *0x5ae4
    4206:	68 48 00 00 00       	push   $0x48
    420b:	e9 50 ff ff ff       	jmp    4160 <long_options+0x2e0>

00004210 <memcpy@plt>:
    4210:	ff 25 e8 5a 00 00    	jmp    *0x5ae8
    4216:	68 50 00 00 00       	push   $0x50
    421b:	e9 40 ff ff ff       	jmp    4160 <long_options+0x2e0>

00004220 <malloc@plt>:
    4220:	ff 25 ec 5a 00 00    	jmp    *0x5aec
    4226:	68 58 00 00 00       	push   $0x58
    422b:	e9 30 ff ff ff       	jmp    4160 <long_options+0x2e0>

00004230 <bd_open@plt>:
    4230:	ff 25 f0 5a 00 00    	jmp    *0x5af0
    4236:	68 60 00 00 00       	push   $0x60
    423b:	e9 20 ff ff ff       	jmp    4160 <long_options+0x2e0>

00004240 <loc_service_get_id@plt>:
    4240:	ff 25 f4 5a 00 00    	jmp    *0x5af4
    4246:	68 68 00 00 00       	push   $0x68
    424b:	e9 10 ff ff ff       	jmp    4160 <long_options+0x2e0>

00004250 <stacktrace_print@plt>:
    4250:	ff 25 f8 5a 00 00    	jmp    *0x5af8
    4256:	68 70 00 00 00       	push   $0x70
    425b:	e9 00 ff ff ff       	jmp    4160 <long_options+0x2e0>

00004260 <__umoddi3@plt>:
    4260:	ff 25 fc 5a 00 00    	jmp    *0x5afc
    4266:	68 78 00 00 00       	push   $0x78
    426b:	e9 f0 fe ff ff       	jmp    4160 <long_options+0x2e0>

00004270 <__udivdi3@plt>:
    4270:	ff 25 00 5b 00 00    	jmp    *0x5b00
    4276:	68 80 00 00 00       	push   $0x80
    427b:	e9 e0 fe ff ff       	jmp    4160 <long_options+0x2e0>

00004280 <bd_read_blocks@plt>:
    4280:	ff 25 04 5b 00 00    	jmp    *0x5b04
    4286:	68 88 00 00 00       	push   $0x88
    428b:	e9 d0 fe ff ff       	jmp    4160 <long_options+0x2e0>

00004290 <strtol@plt>:
    4290:	ff 25 08 5b 00 00    	jmp    *0x5b08
    4296:	68 90 00 00 00       	push   $0x90
    429b:	e9 c0 fe ff ff       	jmp    4160 <long_options+0x2e0>

000042a0 <fibril_mutex_trylock@plt>:
    42a0:	ff 25 0c 5b 00 00    	jmp    *0x5b0c
    42a6:	68 98 00 00 00       	push   $0x98
    42ab:	e9 b0 fe ff ff       	jmp    4160 <long_options+0x2e0>

000042b0 <assert_abort@plt>:
    42b0:	ff 25 10 5b 00 00    	jmp    *0x5b10
    42b6:	68 a0 00 00 00       	push   $0xa0
    42bb:	e9 a0 fe ff ff       	jmp    4160 <long_options+0x2e0>

000042c0 <bd_read_toc@plt>:
    42c0:	ff 25 14 5b 00 00    	jmp    *0x5b14
    42c6:	68 a8 00 00 00       	push   $0xa8
    42cb:	e9 90 fe ff ff       	jmp    4160 <long_options+0x2e0>

000042d0 <fibril_mutex_unlock@plt>:
    42d0:	ff 25 18 5b 00 00    	jmp    *0x5b18
    42d6:	68 b0 00 00 00       	push   $0xb0
    42db:	e9 80 fe ff ff       	jmp    4160 <long_options+0x2e0>

000042e0 <fibril_mutex_initialize@plt>:
    42e0:	ff 25 1c 5b 00 00    	jmp    *0x5b1c
    42e6:	68 b8 00 00 00       	push   $0xb8
    42eb:	e9 70 fe ff ff       	jmp    4160 <long_options+0x2e0>

000042f0 <hash_table_remove_item@plt>:
    42f0:	ff 25 20 5b 00 00    	jmp    *0x5b20
    42f6:	68 c0 00 00 00       	push   $0xc0
    42fb:	e9 60 fe ff ff       	jmp    4160 <long_options+0x2e0>

00004300 <memset@plt>:
    4300:	ff 25 24 5b 00 00    	jmp    *0x5b24
    4306:	68 c8 00 00 00       	push   $0xc8
    430b:	e9 50 fe ff ff       	jmp    4160 <long_options+0x2e0>

00004310 <time@plt>:
    4310:	ff 25 28 5b 00 00    	jmp    *0x5b28
    4316:	68 d0 00 00 00       	push   $0xd0
    431b:	e9 40 fe ff ff       	jmp    4160 <long_options+0x2e0>

00004320 <bd_get_block_size@plt>:
    4320:	ff 25 2c 5b 00 00    	jmp    *0x5b2c
    4326:	68 d8 00 00 00       	push   $0xd8
    432b:	e9 30 fe ff ff       	jmp    4160 <long_options+0x2e0>

00004330 <bd_sync_cache@plt>:
    4330:	ff 25 30 5b 00 00    	jmp    *0x5b30
    4336:	68 e0 00 00 00       	push   $0xe0
    433b:	e9 20 fe ff ff       	jmp    4160 <long_options+0x2e0>

00004340 <hash_table_find@plt>:
    4340:	ff 25 34 5b 00 00    	jmp    *0x5b34
    4346:	68 e8 00 00 00       	push   $0xe8
    434b:	e9 10 fe ff ff       	jmp    4160 <long_options+0x2e0>

00004350 <fibril_rwlock_initialize@plt>:
    4350:	ff 25 38 5b 00 00    	jmp    *0x5b38
    4356:	68 f0 00 00 00       	push   $0xf0
    435b:	e9 00 fe ff ff       	jmp    4160 <long_options+0x2e0>

00004360 <exit@plt>:
    4360:	ff 25 3c 5b 00 00    	jmp    *0x5b3c
    4366:	68 f8 00 00 00       	push   $0xf8
    436b:	e9 f0 fd ff ff       	jmp    4160 <long_options+0x2e0>

00004370 <__syscall_fast@plt>:
    4370:	ff 25 40 5b 00 00    	jmp    *0x5b40
    4376:	68 00 01 00 00       	push   $0x100
    437b:	e9 e0 fd ff ff       	jmp    4160 <long_options+0x2e0>

00004380 <hash_table_destroy@plt>:
    4380:	ff 25 44 5b 00 00    	jmp    *0x5b44
    4386:	68 08 01 00 00       	push   $0x108
    438b:	e9 d0 fd ff ff       	jmp    4160 <long_options+0x2e0>

00004390 <free@plt>:
    4390:	ff 25 48 5b 00 00    	jmp    *0x5b48
    4396:	68 10 01 00 00       	push   $0x110
    439b:	e9 c0 fd ff ff       	jmp    4160 <long_options+0x2e0>

000043a0 <fibril_mutex_lock@plt>:
    43a0:	ff 25 4c 5b 00 00    	jmp    *0x5b4c
    43a6:	68 18 01 00 00       	push   $0x118
    43ab:	e9 b0 fd ff ff       	jmp    4160 <long_options+0x2e0>
